
./BOOT.elf:     file format elf32-littleriscv
./BOOT.elf
architecture: riscv:rv32, flags 0x00000112:
EXEC_P, HAS_SYMS, D_PAGED
start address 0x10000000

Program Header:
0x70000003 off    0x0000b36d vaddr 0x00000000 paddr 0x00000000 align 2**0
         filesz 0x00000020 memsz 0x00000000 flags r--
    LOAD off    0x00001000 vaddr 0x10000000 paddr 0x10000000 align 2**12
         filesz 0x0000a340 memsz 0x0000a448 flags rwx

Sections:
Idx Name          Size      VMA       LMA       File off  Algn
  0 .boot         00000060  10000000  10000000  00001000  2**2
                  CONTENTS, ALLOC, LOAD, READONLY, CODE
  1 .text         0000919c  10000060  10000060  00001060  2**2
                  CONTENTS, ALLOC, LOAD, READONLY, CODE
  2 .rodata       00000688  10009200  10009200  0000a200  2**3
                  CONTENTS, ALLOC, LOAD, READONLY, DATA
  3 .eh_frame     00000478  10009888  10009888  0000a888  2**2
                  CONTENTS, ALLOC, LOAD, READONLY, DATA
  4 .data         00000440  10009d00  10009d00  0000ad00  2**3
                  CONTENTS, ALLOC, LOAD, DATA
  5 .got          0000002c  1000a140  1000a140  0000b140  2**2
                  CONTENTS, ALLOC, LOAD, DATA
  6 .got.plt      00000008  1000a16c  1000a16c  0000b16c  2**2
                  CONTENTS, ALLOC, LOAD, DATA
  7 .sdata        000001c8  1000a178  1000a178  0000b178  2**3
                  CONTENTS, ALLOC, LOAD, DATA
  8 .sbss         00000004  1000a340  1000a340  0000b340  2**2
                  ALLOC
  9 .bss          00000104  1000a344  1000a344  0000b340  2**2
                  ALLOC
 10 .comment      0000002d  00000000  00000000  0000b340  2**0
                  CONTENTS, READONLY
 11 .riscv.attributes 00000020  00000000  00000000  0000b36d  2**0
                  CONTENTS, READONLY
SYMBOL TABLE:
10000000 l    d  .boot	00000000 .boot
10000060 l    d  .text	00000000 .text
10009200 l    d  .rodata	00000000 .rodata
10009888 l    d  .eh_frame	00000000 .eh_frame
10009d00 l    d  .data	00000000 .data
1000a140 l    d  .got	00000000 .got
1000a16c l    d  .got.plt	00000000 .got.plt
1000a178 l    d  .sdata	00000000 .sdata
1000a340 l    d  .sbss	00000000 .sbss
1000a344 l    d  .bss	00000000 .bss
00000000 l    d  .comment	00000000 .comment
00000000 l    d  .riscv.attributes	00000000 .riscv.attributes
00000000 l    df *ABS*	00000000 rom.cpp
10003a54 l     F .text	000000d8 _ZL14vec3_normalize4vec3
10000044 l       .boot	00000000 noatexitfound
1000005c l       .boot	00000000 _romfreeze
1000a444 l     O .bss	00000004 _ZL9bench_run
10009d0c l     O .data	00000004 _ZL14graphics_width
10004124 l     F .text	000002b0 _Z7refract4vec3S_ff.localalias
100047e0 l     F .text	00000aa4 _Z8cast_ray4vec3S_P6SphereiP5Lightii.localalias
10009d08 l     O .data	00000004 _ZL15graphics_height
00000000 l    df *ABS*	00000000 lib_a-memset.o
00000000 l    df *ABS*	00000000 adddf3.c
00000000 l    df *ABS*	00000000 divdf3.c
00000000 l    df *ABS*	00000000 gedf2.c
00000000 l    df *ABS*	00000000 muldf3.c
00000000 l    df *ABS*	00000000 subdf3.c
00000000 l    df *ABS*	00000000 fixdfsi.c
00000000 l    df *ABS*	00000000 floatsidf.c
00000000 l    df *ABS*	00000000 addsf3.c
00000000 l    df *ABS*	00000000 divsf3.c
00000000 l    df *ABS*	00000000 gesf2.c
00000000 l    df *ABS*	00000000 lesf2.c
00000000 l    df *ABS*	00000000 mulsf3.c
00000000 l    df *ABS*	00000000 subsf3.c
00000000 l    df *ABS*	00000000 fixunssfsi.c
00000000 l    df *ABS*	00000000 extendsfdf2.c
00000000 l    df *ABS*	00000000 truncdfsf2.c
00000000 l    df *ABS*	00000000 muldi3.o
00000000 l    df *ABS*	00000000 div.o
00000000 l    df *ABS*	00000000 libgcc2.c
00000000 l    df *ABS*	00000000 eqdf2.c
00000000 l    df *ABS*	00000000 eqsf2.c
00000000 l    df *ABS*	00000000 unordsf2.c
00000000 l    df *ABS*	00000000 floatsisf.c
00000000 l    df *ABS*	00000000 uart.c
00000000 l    df *ABS*	00000000 leds.c
00000000 l    df *ABS*	00000000 memtest.c
00000000 l    df *ABS*	00000000 atexit.c
00000000 l    df *ABS*	00000000 errno.c
00000000 l    df *ABS*	00000000 fini.c
00000000 l    df *ABS*	00000000 init.c
00000000 l    df *ABS*	00000000 memcpy.c
00000000 l    df *ABS*	00000000 __atexit.c
00000000 l    df *ABS*	00000000 s_tan.c
00000000 l    df *ABS*	00000000 wf_pow.c
00000000 l    df *ABS*	00000000 wf_sqrt.c
00000000 l    df *ABS*	00000000 e_rem_pio2.c
10009730 l     O .rodata	00000108 two_over_pi
100096b0 l     O .rodata	00000080 npio2_hw
00000000 l    df *ABS*	00000000 ef_pow.c
00000000 l    df *ABS*	00000000 ef_sqrt.c
00000000 l    df *ABS*	00000000 k_rem_pio2.c
10009878 l     O .rodata	00000010 init_jk
10009838 l     O .rodata	00000040 PIo2
00000000 l    df *ABS*	00000000 k_tan.c
00000000 l    df *ABS*	00000000 math_errf.c
10008c40 l     F .text	00000038 with_errnof
10008c78 l     F .text	00000040 xflowf
00000000 l    df *ABS*	00000000 s_fabs.c
00000000 l    df *ABS*	00000000 s_floor.c
00000000 l    df *ABS*	00000000 s_scalbn.c
00000000 l    df *ABS*	00000000 sf_fabs.c
00000000 l    df *ABS*	00000000 sf_finite.c
00000000 l    df *ABS*	00000000 sf_scalbn.c
00000000 l    df *ABS*	00000000 libgcc2.c
00000000 l    df *ABS*	00000000 core.c
00000000 l    df *ABS*	00000000 gpu.c
00000000 l    df *ABS*	00000000 ff.c
00000000 l    df *ABS*	00000000 ffunicode.c
00000000 l    df *ABS*	00000000 diskio.c
00000000 l    df *ABS*	00000000 impure.c
10009d18 l     O .data	00000428 impure_data
10009888 l       .eh_frame	00000000 __fini_array_end
10009888 l       .eh_frame	00000000 __fini_array_start
10009888 l       .eh_frame	00000000 __init_array_end
10009888 l       .eh_frame	00000000 __preinit_array_end
1000a140 l     O .got	00000000 _GLOBAL_OFFSET_TABLE_
10009888 l       .eh_frame	00000000 __init_array_start
10009888 l       .eh_frame	00000000 __preinit_array_start
10008cd0 g     F .text	0000000c fabs
100037fc g     F .text	0000008c .hidden __eqdf2
10005e14 g     F .text	00000014 _Z11LEDSetStatem
10009d00 g       .data	00000000 _fdata
100026ac g     F .text	00000388 .hidden __divsf3
100063d8 g     F .text	00000118 powf
10009d04 g     O .data	00000004 nb_spheres
100010f4 g     F .text	00000110 .hidden __gtdf2
10005ff0 g     F .text	0000000c __errno
10008cdc g     F .text	000001dc floor
10009888 g       .rodata	00000000 _etext
00000100 g       *ABS*	00000000 __stack_size
10004124 g     F .text	000002b0 _Z7refract4vec3S_ff
10005e5c g     F .text	00000100 _Z17memTestAddressBusPVmmPi
10002f50 g     F .text	000004bc .hidden __subsf3
10000060 g       .boot	00000000 _boot
100064f0 g     F .text	00000088 sqrtf
10005e28 g     F .text	00000034 _Z14memTestDataBusPVm
10006578 g     F .text	00000664 __ieee754_rem_pio2
100060f4 g     F .text	000001a4 memcpy
10002194 g     F .text	000000a8 .hidden __floatsidf
10009d14 g     O .data	00000004 LEDSTATE
10003704 g     F .text	00000048 .hidden __hidden___udivsi3
10003704 g     F .text	00000048 .hidden __udivsi3
10002b10 g     F .text	000000dc .hidden __lesf2
1000a344 g       .bss	00000000 _bss_start
100054ec g     F .text	000004d0 _Z10init_scenev
100090a4 g     F .text	00000014 finitef
10009098 g     F .text	0000000c fabsf
1000346c g     F .text	000000dc .hidden __extendsfdf2
1000013c g     F .text	000007ec .hidden __adddf3
10003888 g     F .text	00000074 .hidden __nesf2
1000a17c g     O .sdata	00000004 _global_impure_ptr
10006058 g     F .text	0000009c __libc_init_array
1000a448 g       .bss	00000000 _bss_end
10007884 g     F .text	00000d94 __kernel_rem_pio2
10005ffc g     F .text	0000005c __libc_fini_array
10002114 g     F .text	00000080 .hidden __fixdfsi
100047e0 g     F .text	00000aa4 _Z8cast_ray4vec3S_P6SphereiP5Lightii
10002a34 g     F .text	000000dc .hidden __gtsf2
10003dc8 g     F .text	00000034 _Z21make_Material_defaultv
1000374c g     F .text	00000010 .hidden __umodsi3
10009d00 g     O .data	00000004 nb_lights
100043d4 g     F .text	0000040c _Z15scene_intersect4vec3S_P6SphereiPS_S2_P8Material
10008cb8 g     F .text	0000000c .hidden __math_uflowf
100037b0 g     F .text	0000004c .hidden __clzsi2
10000060 g       .boot	00000000 _ftext
10000000 g     F .boot	0000005c _start
10005cf0 g     F .text	00000124 _Z16UARTWriteDecimall
10003940 g     F .text	00000114 .hidden __floatsisf
10006298 g     F .text	0000009c __register_exitproc
100036d8 g     F .text	00000024 .hidden __mulsi3
10003888 g     F .text	00000074 .hidden __eqsf2
10003b2c g     F .text	000001f8 _Z18graphics_set_pixeliifff
10000928 g     F .text	000007cc .hidden __divdf3
10004010 g     F .text	00000114 _Z7reflect4vec3S_
10003e54 g     F .text	000001bc _Z20Sphere_ray_intersectP6Sphere4vec3S1_Pf
10003dfc g     F .text	00000058 _Z11make_Sphere4vec3f8Material
10001204 g     F .text	000006bc .hidden __muldf3
10006bdc g     F .text	00000b58 __ieee754_powf
1000a374 g     O .bss	000000d0 spheres
100090b8 g     F .text	00000144 scalbnf
10000060 g     F .text	000000dc memset
10007734 g     F .text	00000150 __ieee754_sqrtf
100059bc g     F .text	00000208 main
1000a340 g     O .sbss	00000004 __malloc_max_total_mem
10005bc4 g     F .text	00000024 _Z9UARTWritePKc
10002b10 g     F .text	000000dc .hidden __ltsf2
10003548 g     F .text	00000190 .hidden __truncdfsf2
100036fc g     F .text	00000084 .hidden __divsi3
10002bec g     F .text	00000364 .hidden __mulsf3
10006334 g     F .text	000000a4 tan
100037fc g     F .text	0000008c .hidden __nedf2
10003d24 g     F .text	0000003c _Z10make_Light4vec3f
10009278 g     O .rodata	00000100 .hidden __clz_tab
1000a344 g     O .bss	00000030 lights
10005fdc g     F .text	00000014 atexit
10002a34 g     F .text	000000dc .hidden __gesf2
10009d10 g     O .data	00000004 IO_UARTTX
1000a178 g     O .sdata	00000004 _impure_ptr
10008eb8 g     F .text	000001e0 scalbn
10003d60 g     F .text	00000068 _Z13make_Materialf4vec44vec3f
1000a448 g       .bss	00000000 __BSS_END__$
1000a140 g       .data	00000000 _edata
1000a448 g       .bss	00000000 _end
100038fc g     F .text	00000044 .hidden __unordsf2
10003780 g     F .text	00000030 .hidden __modsi3
10005284 g     F .text	00000268 _Z6renderP6SphereiP5Lighti
1000340c g     F .text	00000060 .hidden __fixunssfsi
1000005c g     F .boot	00000004 _exit
10008cc4 g     F .text	0000000c .hidden __math_oflowf
10005f5c g     F .text	00000080 _Z13memTestDevicePVmm
100010f4 g     F .text	00000110 .hidden __gedf2
100018c0 g     F .text	00000854 .hidden __subdf3
10005be8 g     F .text	00000108 _Z12UARTWriteHexm
1000a340 g       .sbss	00000000 _fbss
10008618 g     F .text	00000628 __kernel_tan
1000223c g     F .text	00000470 .hidden __addsf3



Disassembly of section .boot:

10000000 <_start>:
10000000:	10000137          	lui	sp,0x10000
10000004:	ff810113          	addi	sp,sp,-8 # ffffff8 <__stack_size+0xffffef8>
10000008:	00010413          	mv	s0,sp
1000000c:	0000a517          	auipc	a0,0xa
10000010:	14c52503          	lw	a0,332(a0) # 1000a158 <_GLOBAL_OFFSET_TABLE_+0x18>
10000014:	0000a617          	auipc	a2,0xa
10000018:	15462603          	lw	a2,340(a2) # 1000a168 <_GLOBAL_OFFSET_TABLE_+0x28>
1000001c:	40a60633          	sub	a2,a2,a0
10000020:	00000593          	li	a1,0
10000024:	03c000ef          	jal	ra,10000060 <_boot>
10000028:	0000a517          	auipc	a0,0xa
1000002c:	13852503          	lw	a0,312(a0) # 1000a160 <_GLOBAL_OFFSET_TABLE_+0x20>
10000030:	00050a63          	beqz	a0,10000044 <noatexitfound>
10000034:	00001517          	auipc	a0,0x1
10000038:	0000a517          	auipc	a0,0xa
1000003c:	11452503          	lw	a0,276(a0) # 1000a14c <_GLOBAL_OFFSET_TABLE_+0xc>
10000040:	79d050ef          	jal	ra,10005fdc <atexit>

10000044 <noatexitfound>:
10000044:	014060ef          	jal	ra,10006058 <__libc_init_array>
10000048:	00012503          	lw	a0,0(sp)
1000004c:	00410593          	addi	a1,sp,4
10000050:	00000613          	li	a2,0
10000054:	1690506f          	j	100059bc <main>
10000058:	00100073          	ebreak

1000005c <_exit>:
1000005c:	0000006f          	j	1000005c <_exit>

Disassembly of section .text:

10000060 <memset>:
10000060:	00f00313          	li	t1,15
10000064:	00050713          	mv	a4,a0
10000068:	02c37e63          	bgeu	t1,a2,100000a4 <memset+0x44>
1000006c:	00f77793          	andi	a5,a4,15
10000070:	0a079063          	bnez	a5,10000110 <memset+0xb0>
10000074:	08059263          	bnez	a1,100000f8 <memset+0x98>
10000078:	ff067693          	andi	a3,a2,-16
1000007c:	00f67613          	andi	a2,a2,15
10000080:	00e686b3          	add	a3,a3,a4
10000084:	00b72023          	sw	a1,0(a4)
10000088:	00b72223          	sw	a1,4(a4)
1000008c:	00b72423          	sw	a1,8(a4)
10000090:	00b72623          	sw	a1,12(a4)
10000094:	01070713          	addi	a4,a4,16
10000098:	fed766e3          	bltu	a4,a3,10000084 <memset+0x24>
1000009c:	00061463          	bnez	a2,100000a4 <memset+0x44>
100000a0:	00008067          	ret
100000a4:	40c306b3          	sub	a3,t1,a2
100000a8:	00269693          	slli	a3,a3,0x2
100000ac:	00000297          	auipc	t0,0x0
100000b0:	005686b3          	add	a3,a3,t0
100000b4:	00c68067          	jr	12(a3)
100000b8:	00b70723          	sb	a1,14(a4)
100000bc:	00b706a3          	sb	a1,13(a4)
100000c0:	00b70623          	sb	a1,12(a4)
100000c4:	00b705a3          	sb	a1,11(a4)
100000c8:	00b70523          	sb	a1,10(a4)
100000cc:	00b704a3          	sb	a1,9(a4)
100000d0:	00b70423          	sb	a1,8(a4)
100000d4:	00b703a3          	sb	a1,7(a4)
100000d8:	00b70323          	sb	a1,6(a4)
100000dc:	00b702a3          	sb	a1,5(a4)
100000e0:	00b70223          	sb	a1,4(a4)
100000e4:	00b701a3          	sb	a1,3(a4)
100000e8:	00b70123          	sb	a1,2(a4)
100000ec:	00b700a3          	sb	a1,1(a4)
100000f0:	00b70023          	sb	a1,0(a4)
100000f4:	00008067          	ret
100000f8:	0ff5f593          	zext.b	a1,a1
100000fc:	00859693          	slli	a3,a1,0x8
10000100:	00d5e5b3          	or	a1,a1,a3
10000104:	01059693          	slli	a3,a1,0x10
10000108:	00d5e5b3          	or	a1,a1,a3
1000010c:	f6dff06f          	j	10000078 <memset+0x18>
10000110:	00279693          	slli	a3,a5,0x2
10000114:	00000297          	auipc	t0,0x0
10000118:	005686b3          	add	a3,a3,t0
1000011c:	00008293          	mv	t0,ra
10000120:	fa0680e7          	jalr	-96(a3)
10000124:	00028093          	mv	ra,t0
10000128:	ff078793          	addi	a5,a5,-16
1000012c:	40f70733          	sub	a4,a4,a5
10000130:	00f60633          	add	a2,a2,a5
10000134:	f6c378e3          	bgeu	t1,a2,100000a4 <memset+0x44>
10000138:	f3dff06f          	j	10000074 <memset+0x14>

1000013c <__adddf3>:
1000013c:	00100737          	lui	a4,0x100
10000140:	fff70713          	addi	a4,a4,-1 # fffff <__stack_size+0xffeff>
10000144:	fe010113          	addi	sp,sp,-32
10000148:	00b777b3          	and	a5,a4,a1
1000014c:	0146d893          	srli	a7,a3,0x14
10000150:	00d77733          	and	a4,a4,a3
10000154:	00812c23          	sw	s0,24(sp)
10000158:	00912a23          	sw	s1,20(sp)
1000015c:	0145d413          	srli	s0,a1,0x14
10000160:	01f5d493          	srli	s1,a1,0x1f
10000164:	00379593          	slli	a1,a5,0x3
10000168:	01d55793          	srli	a5,a0,0x1d
1000016c:	7ff47413          	andi	s0,s0,2047
10000170:	00b7e7b3          	or	a5,a5,a1
10000174:	7ff8f893          	andi	a7,a7,2047
10000178:	00371593          	slli	a1,a4,0x3
1000017c:	00112e23          	sw	ra,28(sp)
10000180:	01d65713          	srli	a4,a2,0x1d
10000184:	01212823          	sw	s2,16(sp)
10000188:	01312623          	sw	s3,12(sp)
1000018c:	01f6d693          	srli	a3,a3,0x1f
10000190:	00b76733          	or	a4,a4,a1
10000194:	00351513          	slli	a0,a0,0x3
10000198:	00361613          	slli	a2,a2,0x3
1000019c:	411405b3          	sub	a1,s0,a7
100001a0:	30d49a63          	bne	s1,a3,100004b4 <__adddf3+0x378>
100001a4:	16b05463          	blez	a1,1000030c <__adddf3+0x1d0>
100001a8:	0a089063          	bnez	a7,10000248 <__adddf3+0x10c>
100001ac:	00c766b3          	or	a3,a4,a2
100001b0:	70068863          	beqz	a3,100008c0 <__adddf3+0x784>
100001b4:	fff58693          	addi	a3,a1,-1
100001b8:	08069063          	bnez	a3,10000238 <__adddf3+0xfc>
100001bc:	00c50633          	add	a2,a0,a2
100001c0:	00a636b3          	sltu	a3,a2,a0
100001c4:	00e78733          	add	a4,a5,a4
100001c8:	00d707b3          	add	a5,a4,a3
100001cc:	00800737          	lui	a4,0x800
100001d0:	00e7f733          	and	a4,a5,a4
100001d4:	00060513          	mv	a0,a2
100001d8:	2a071863          	bnez	a4,10000488 <__adddf3+0x34c>
100001dc:	00100413          	li	s0,1
100001e0:	00757713          	andi	a4,a0,7
100001e4:	02070063          	beqz	a4,10000204 <__adddf3+0xc8>
100001e8:	00f57713          	andi	a4,a0,15
100001ec:	00400693          	li	a3,4
100001f0:	00d70a63          	beq	a4,a3,10000204 <__adddf3+0xc8>
100001f4:	00450713          	addi	a4,a0,4
100001f8:	00a736b3          	sltu	a3,a4,a0
100001fc:	00d787b3          	add	a5,a5,a3
10000200:	00070513          	mv	a0,a4
10000204:	008005b7          	lui	a1,0x800
10000208:	00b7f5b3          	and	a1,a5,a1
1000020c:	6c058c63          	beqz	a1,100008e4 <__adddf3+0x7a8>
10000210:	00140413          	addi	s0,s0,1
10000214:	7ff00713          	li	a4,2047
10000218:	0ae40263          	beq	s0,a4,100002bc <__adddf3+0x180>
1000021c:	ff800737          	lui	a4,0xff800
10000220:	fff70713          	addi	a4,a4,-1 # ff7fffff <__BSS_END__$+0xef7f5bb7>
10000224:	00e7f7b3          	and	a5,a5,a4
10000228:	00355513          	srli	a0,a0,0x3
1000022c:	01d79593          	slli	a1,a5,0x1d
10000230:	00a5e5b3          	or	a1,a1,a0
10000234:	6240006f          	j	10000858 <__adddf3+0x71c>
10000238:	7ff00813          	li	a6,2047
1000023c:	09059463          	bne	a1,a6,100002c4 <__adddf3+0x188>
10000240:	7ff00413          	li	s0,2047
10000244:	f9dff06f          	j	100001e0 <__adddf3+0xa4>
10000248:	7ff00693          	li	a3,2047
1000024c:	f8d40ae3          	beq	s0,a3,100001e0 <__adddf3+0xa4>
10000250:	03800693          	li	a3,56
10000254:	06b6cc63          	blt	a3,a1,100002cc <__adddf3+0x190>
10000258:	008006b7          	lui	a3,0x800
1000025c:	00d76733          	or	a4,a4,a3
10000260:	00058693          	mv	a3,a1
10000264:	01f00593          	li	a1,31
10000268:	06d5c863          	blt	a1,a3,100002d8 <__adddf3+0x19c>
1000026c:	02000813          	li	a6,32
10000270:	40d80833          	sub	a6,a6,a3
10000274:	00d658b3          	srl	a7,a2,a3
10000278:	010715b3          	sll	a1,a4,a6
1000027c:	01061833          	sll	a6,a2,a6
10000280:	0115e5b3          	or	a1,a1,a7
10000284:	01003833          	snez	a6,a6
10000288:	0105e633          	or	a2,a1,a6
1000028c:	00d756b3          	srl	a3,a4,a3
10000290:	00a60533          	add	a0,a2,a0
10000294:	00f686b3          	add	a3,a3,a5
10000298:	00c53633          	sltu	a2,a0,a2
1000029c:	00c687b3          	add	a5,a3,a2
100002a0:	00800737          	lui	a4,0x800
100002a4:	00e7f733          	and	a4,a5,a4
100002a8:	f2070ce3          	beqz	a4,100001e0 <__adddf3+0xa4>
100002ac:	00140413          	addi	s0,s0,1
100002b0:	7ff00713          	li	a4,2047
100002b4:	1ce41c63          	bne	s0,a4,1000048c <__adddf3+0x350>
100002b8:	7ff00413          	li	s0,2047
100002bc:	00000793          	li	a5,0
100002c0:	1900006f          	j	10000450 <__adddf3+0x314>
100002c4:	03800593          	li	a1,56
100002c8:	f8d5dee3          	bge	a1,a3,10000264 <__adddf3+0x128>
100002cc:	00000693          	li	a3,0
100002d0:	00100613          	li	a2,1
100002d4:	fbdff06f          	j	10000290 <__adddf3+0x154>
100002d8:	fe068593          	addi	a1,a3,-32 # 7fffe0 <__stack_size+0x7ffee0>
100002dc:	02000893          	li	a7,32
100002e0:	00b755b3          	srl	a1,a4,a1
100002e4:	00000813          	li	a6,0
100002e8:	01168863          	beq	a3,a7,100002f8 <__adddf3+0x1bc>
100002ec:	04000813          	li	a6,64
100002f0:	40d80833          	sub	a6,a6,a3
100002f4:	01071833          	sll	a6,a4,a6
100002f8:	00c86833          	or	a6,a6,a2
100002fc:	01003833          	snez	a6,a6
10000300:	0105e633          	or	a2,a1,a6
10000304:	00000693          	li	a3,0
10000308:	f89ff06f          	j	10000290 <__adddf3+0x154>
1000030c:	0c058e63          	beqz	a1,100003e8 <__adddf3+0x2ac>
10000310:	408885b3          	sub	a1,a7,s0
10000314:	02041463          	bnez	s0,1000033c <__adddf3+0x200>
10000318:	00a7e6b3          	or	a3,a5,a0
1000031c:	58068e63          	beqz	a3,100008b8 <__adddf3+0x77c>
10000320:	fff58693          	addi	a3,a1,-1 # 7fffff <__stack_size+0x7ffeff>
10000324:	e8068ce3          	beqz	a3,100001bc <__adddf3+0x80>
10000328:	7ff00813          	li	a6,2047
1000032c:	07059a63          	bne	a1,a6,100003a0 <__adddf3+0x264>
10000330:	00070793          	mv	a5,a4
10000334:	00060513          	mv	a0,a2
10000338:	f09ff06f          	j	10000240 <__adddf3+0x104>
1000033c:	7ff00693          	li	a3,2047
10000340:	fed888e3          	beq	a7,a3,10000330 <__adddf3+0x1f4>
10000344:	03800693          	li	a3,56
10000348:	06b6c063          	blt	a3,a1,100003a8 <__adddf3+0x26c>
1000034c:	008006b7          	lui	a3,0x800
10000350:	00d7e7b3          	or	a5,a5,a3
10000354:	00058693          	mv	a3,a1
10000358:	01f00593          	li	a1,31
1000035c:	04d5cc63          	blt	a1,a3,100003b4 <__adddf3+0x278>
10000360:	02000813          	li	a6,32
10000364:	40d80833          	sub	a6,a6,a3
10000368:	010795b3          	sll	a1,a5,a6
1000036c:	00d55333          	srl	t1,a0,a3
10000370:	01051833          	sll	a6,a0,a6
10000374:	0065e5b3          	or	a1,a1,t1
10000378:	01003833          	snez	a6,a6
1000037c:	0105e5b3          	or	a1,a1,a6
10000380:	00d7d6b3          	srl	a3,a5,a3
10000384:	00c58633          	add	a2,a1,a2
10000388:	00e686b3          	add	a3,a3,a4
1000038c:	00b635b3          	sltu	a1,a2,a1
10000390:	00060513          	mv	a0,a2
10000394:	00b687b3          	add	a5,a3,a1
10000398:	00088413          	mv	s0,a7
1000039c:	f05ff06f          	j	100002a0 <__adddf3+0x164>
100003a0:	03800593          	li	a1,56
100003a4:	fad5dae3          	bge	a1,a3,10000358 <__adddf3+0x21c>
100003a8:	00000693          	li	a3,0
100003ac:	00100593          	li	a1,1
100003b0:	fd5ff06f          	j	10000384 <__adddf3+0x248>
100003b4:	fe068593          	addi	a1,a3,-32 # 7fffe0 <__stack_size+0x7ffee0>
100003b8:	02000313          	li	t1,32
100003bc:	00b7d5b3          	srl	a1,a5,a1
100003c0:	00000813          	li	a6,0
100003c4:	00668863          	beq	a3,t1,100003d4 <__adddf3+0x298>
100003c8:	04000813          	li	a6,64
100003cc:	40d80833          	sub	a6,a6,a3
100003d0:	01079833          	sll	a6,a5,a6
100003d4:	00a86833          	or	a6,a6,a0
100003d8:	01003833          	snez	a6,a6
100003dc:	0105e5b3          	or	a1,a1,a6
100003e0:	00000693          	li	a3,0
100003e4:	fa1ff06f          	j	10000384 <__adddf3+0x248>
100003e8:	00140693          	addi	a3,s0,1
100003ec:	7fe6f593          	andi	a1,a3,2046
100003f0:	06059463          	bnez	a1,10000458 <__adddf3+0x31c>
100003f4:	00a7e6b3          	or	a3,a5,a0
100003f8:	04041063          	bnez	s0,10000438 <__adddf3+0x2fc>
100003fc:	4c068663          	beqz	a3,100008c8 <__adddf3+0x78c>
10000400:	00c766b3          	or	a3,a4,a2
10000404:	dc068ee3          	beqz	a3,100001e0 <__adddf3+0xa4>
10000408:	00c50633          	add	a2,a0,a2
1000040c:	00a636b3          	sltu	a3,a2,a0
10000410:	00e78733          	add	a4,a5,a4
10000414:	00d707b3          	add	a5,a4,a3
10000418:	00800737          	lui	a4,0x800
1000041c:	00e7f733          	and	a4,a5,a4
10000420:	00060513          	mv	a0,a2
10000424:	da070ee3          	beqz	a4,100001e0 <__adddf3+0xa4>
10000428:	ff800737          	lui	a4,0xff800
1000042c:	fff70713          	addi	a4,a4,-1 # ff7fffff <__BSS_END__$+0xef7f5bb7>
10000430:	00e7f7b3          	and	a5,a5,a4
10000434:	da9ff06f          	j	100001dc <__adddf3+0xa0>
10000438:	ee068ce3          	beqz	a3,10000330 <__adddf3+0x1f4>
1000043c:	00c76633          	or	a2,a4,a2
10000440:	e00600e3          	beqz	a2,10000240 <__adddf3+0x104>
10000444:	00000493          	li	s1,0
10000448:	7ff00413          	li	s0,2047
1000044c:	000807b7          	lui	a5,0x80
10000450:	00000593          	li	a1,0
10000454:	4080006f          	j	1000085c <__adddf3+0x720>
10000458:	7ff00593          	li	a1,2047
1000045c:	e4b68ee3          	beq	a3,a1,100002b8 <__adddf3+0x17c>
10000460:	00c50633          	add	a2,a0,a2
10000464:	00a63533          	sltu	a0,a2,a0
10000468:	00e78733          	add	a4,a5,a4
1000046c:	00a70733          	add	a4,a4,a0
10000470:	01f71513          	slli	a0,a4,0x1f
10000474:	00165613          	srli	a2,a2,0x1
10000478:	00c56533          	or	a0,a0,a2
1000047c:	00175793          	srli	a5,a4,0x1
10000480:	00068413          	mv	s0,a3
10000484:	d5dff06f          	j	100001e0 <__adddf3+0xa4>
10000488:	00200413          	li	s0,2
1000048c:	ff800737          	lui	a4,0xff800
10000490:	fff70713          	addi	a4,a4,-1 # ff7fffff <__BSS_END__$+0xef7f5bb7>
10000494:	00e7f7b3          	and	a5,a5,a4
10000498:	00155713          	srli	a4,a0,0x1
1000049c:	00157513          	andi	a0,a0,1
100004a0:	00a76733          	or	a4,a4,a0
100004a4:	01f79513          	slli	a0,a5,0x1f
100004a8:	00e56533          	or	a0,a0,a4
100004ac:	0017d793          	srli	a5,a5,0x1
100004b0:	d31ff06f          	j	100001e0 <__adddf3+0xa4>
100004b4:	0eb05e63          	blez	a1,100005b0 <__adddf3+0x474>
100004b8:	04089663          	bnez	a7,10000504 <__adddf3+0x3c8>
100004bc:	00c766b3          	or	a3,a4,a2
100004c0:	40068063          	beqz	a3,100008c0 <__adddf3+0x784>
100004c4:	fff58693          	addi	a3,a1,-1
100004c8:	02069063          	bnez	a3,100004e8 <__adddf3+0x3ac>
100004cc:	40c50633          	sub	a2,a0,a2
100004d0:	00c536b3          	sltu	a3,a0,a2
100004d4:	40e78733          	sub	a4,a5,a4
100004d8:	00060513          	mv	a0,a2
100004dc:	40d707b3          	sub	a5,a4,a3
100004e0:	00100413          	li	s0,1
100004e4:	07c0006f          	j	10000560 <__adddf3+0x424>
100004e8:	7ff00813          	li	a6,2047
100004ec:	d5058ae3          	beq	a1,a6,10000240 <__adddf3+0x104>
100004f0:	03800593          	li	a1,56
100004f4:	02d5d663          	bge	a1,a3,10000520 <__adddf3+0x3e4>
100004f8:	00000693          	li	a3,0
100004fc:	00100613          	li	a2,1
10000500:	04c0006f          	j	1000054c <__adddf3+0x410>
10000504:	7ff00693          	li	a3,2047
10000508:	ccd40ce3          	beq	s0,a3,100001e0 <__adddf3+0xa4>
1000050c:	03800693          	li	a3,56
10000510:	feb6c4e3          	blt	a3,a1,100004f8 <__adddf3+0x3bc>
10000514:	008006b7          	lui	a3,0x800
10000518:	00d76733          	or	a4,a4,a3
1000051c:	00058693          	mv	a3,a1
10000520:	01f00593          	li	a1,31
10000524:	04d5cc63          	blt	a1,a3,1000057c <__adddf3+0x440>
10000528:	02000813          	li	a6,32
1000052c:	40d80833          	sub	a6,a6,a3
10000530:	00d658b3          	srl	a7,a2,a3
10000534:	010715b3          	sll	a1,a4,a6
10000538:	01061833          	sll	a6,a2,a6
1000053c:	0115e5b3          	or	a1,a1,a7
10000540:	01003833          	snez	a6,a6
10000544:	0105e633          	or	a2,a1,a6
10000548:	00d756b3          	srl	a3,a4,a3
1000054c:	40c50633          	sub	a2,a0,a2
10000550:	00c53733          	sltu	a4,a0,a2
10000554:	40d786b3          	sub	a3,a5,a3
10000558:	00060513          	mv	a0,a2
1000055c:	40e687b3          	sub	a5,a3,a4
10000560:	00800737          	lui	a4,0x800
10000564:	00e7f6b3          	and	a3,a5,a4
10000568:	c6068ce3          	beqz	a3,100001e0 <__adddf3+0xa4>
1000056c:	fff70713          	addi	a4,a4,-1 # 7fffff <__stack_size+0x7ffeff>
10000570:	00e7f9b3          	and	s3,a5,a4
10000574:	00050913          	mv	s2,a0
10000578:	1fc0006f          	j	10000774 <__adddf3+0x638>
1000057c:	fe068593          	addi	a1,a3,-32 # 7fffe0 <__stack_size+0x7ffee0>
10000580:	02000893          	li	a7,32
10000584:	00b755b3          	srl	a1,a4,a1
10000588:	00000813          	li	a6,0
1000058c:	01168863          	beq	a3,a7,1000059c <__adddf3+0x460>
10000590:	04000813          	li	a6,64
10000594:	40d80833          	sub	a6,a6,a3
10000598:	01071833          	sll	a6,a4,a6
1000059c:	00c86833          	or	a6,a6,a2
100005a0:	01003833          	snez	a6,a6
100005a4:	0105e633          	or	a2,a1,a6
100005a8:	00000693          	li	a3,0
100005ac:	fa1ff06f          	j	1000054c <__adddf3+0x410>
100005b0:	0e058c63          	beqz	a1,100006a8 <__adddf3+0x56c>
100005b4:	40888833          	sub	a6,a7,s0
100005b8:	04041263          	bnez	s0,100005fc <__adddf3+0x4c0>
100005bc:	00a7e5b3          	or	a1,a5,a0
100005c0:	30058a63          	beqz	a1,100008d4 <__adddf3+0x798>
100005c4:	fff80593          	addi	a1,a6,-1
100005c8:	00059e63          	bnez	a1,100005e4 <__adddf3+0x4a8>
100005cc:	40a60533          	sub	a0,a2,a0
100005d0:	40f70733          	sub	a4,a4,a5
100005d4:	00a63633          	sltu	a2,a2,a0
100005d8:	40c707b3          	sub	a5,a4,a2
100005dc:	00068493          	mv	s1,a3
100005e0:	f01ff06f          	j	100004e0 <__adddf3+0x3a4>
100005e4:	7ff00313          	li	t1,2047
100005e8:	06681c63          	bne	a6,t1,10000660 <__adddf3+0x524>
100005ec:	00070793          	mv	a5,a4
100005f0:	00060513          	mv	a0,a2
100005f4:	7ff00413          	li	s0,2047
100005f8:	0d80006f          	j	100006d0 <__adddf3+0x594>
100005fc:	7ff00593          	li	a1,2047
10000600:	feb886e3          	beq	a7,a1,100005ec <__adddf3+0x4b0>
10000604:	03800593          	li	a1,56
10000608:	0705c063          	blt	a1,a6,10000668 <__adddf3+0x52c>
1000060c:	008005b7          	lui	a1,0x800
10000610:	00b7e7b3          	or	a5,a5,a1
10000614:	00080593          	mv	a1,a6
10000618:	01f00813          	li	a6,31
1000061c:	04b84c63          	blt	a6,a1,10000674 <__adddf3+0x538>
10000620:	02000313          	li	t1,32
10000624:	40b30333          	sub	t1,t1,a1
10000628:	00b55e33          	srl	t3,a0,a1
1000062c:	00679833          	sll	a6,a5,t1
10000630:	00651333          	sll	t1,a0,t1
10000634:	01c86833          	or	a6,a6,t3
10000638:	00603333          	snez	t1,t1
1000063c:	00686533          	or	a0,a6,t1
10000640:	00b7d5b3          	srl	a1,a5,a1
10000644:	40a60533          	sub	a0,a2,a0
10000648:	40b705b3          	sub	a1,a4,a1
1000064c:	00a63633          	sltu	a2,a2,a0
10000650:	40c587b3          	sub	a5,a1,a2
10000654:	00088413          	mv	s0,a7
10000658:	00068493          	mv	s1,a3
1000065c:	f05ff06f          	j	10000560 <__adddf3+0x424>
10000660:	03800813          	li	a6,56
10000664:	fab85ae3          	bge	a6,a1,10000618 <__adddf3+0x4dc>
10000668:	00000593          	li	a1,0
1000066c:	00100513          	li	a0,1
10000670:	fd5ff06f          	j	10000644 <__adddf3+0x508>
10000674:	fe058813          	addi	a6,a1,-32 # 7fffe0 <__stack_size+0x7ffee0>
10000678:	02000e13          	li	t3,32
1000067c:	0107d833          	srl	a6,a5,a6
10000680:	00000313          	li	t1,0
10000684:	01c58863          	beq	a1,t3,10000694 <__adddf3+0x558>
10000688:	04000313          	li	t1,64
1000068c:	40b30333          	sub	t1,t1,a1
10000690:	00679333          	sll	t1,a5,t1
10000694:	00a36333          	or	t1,t1,a0
10000698:	00603333          	snez	t1,t1
1000069c:	00686533          	or	a0,a6,t1
100006a0:	00000593          	li	a1,0
100006a4:	fa1ff06f          	j	10000644 <__adddf3+0x508>
100006a8:	00140593          	addi	a1,s0,1
100006ac:	7fe5f593          	andi	a1,a1,2046
100006b0:	08059863          	bnez	a1,10000740 <__adddf3+0x604>
100006b4:	00a7e833          	or	a6,a5,a0
100006b8:	00c765b3          	or	a1,a4,a2
100006bc:	06041263          	bnez	s0,10000720 <__adddf3+0x5e4>
100006c0:	00081c63          	bnez	a6,100006d8 <__adddf3+0x59c>
100006c4:	10058e63          	beqz	a1,100007e0 <__adddf3+0x6a4>
100006c8:	00070793          	mv	a5,a4
100006cc:	00060513          	mv	a0,a2
100006d0:	00068493          	mv	s1,a3
100006d4:	b0dff06f          	j	100001e0 <__adddf3+0xa4>
100006d8:	b00584e3          	beqz	a1,100001e0 <__adddf3+0xa4>
100006dc:	40c508b3          	sub	a7,a0,a2
100006e0:	011535b3          	sltu	a1,a0,a7
100006e4:	40e78833          	sub	a6,a5,a4
100006e8:	40b80833          	sub	a6,a6,a1
100006ec:	008005b7          	lui	a1,0x800
100006f0:	00b875b3          	and	a1,a6,a1
100006f4:	00058c63          	beqz	a1,1000070c <__adddf3+0x5d0>
100006f8:	40a60533          	sub	a0,a2,a0
100006fc:	40f70733          	sub	a4,a4,a5
10000700:	00a63633          	sltu	a2,a2,a0
10000704:	40c707b3          	sub	a5,a4,a2
10000708:	fc9ff06f          	j	100006d0 <__adddf3+0x594>
1000070c:	0108e5b3          	or	a1,a7,a6
10000710:	0c058863          	beqz	a1,100007e0 <__adddf3+0x6a4>
10000714:	00080793          	mv	a5,a6
10000718:	00088513          	mv	a0,a7
1000071c:	ac5ff06f          	j	100001e0 <__adddf3+0xa4>
10000720:	00081c63          	bnez	a6,10000738 <__adddf3+0x5fc>
10000724:	1e058663          	beqz	a1,10000910 <__adddf3+0x7d4>
10000728:	00070793          	mv	a5,a4
1000072c:	00060513          	mv	a0,a2
10000730:	00068493          	mv	s1,a3
10000734:	b0dff06f          	j	10000240 <__adddf3+0x104>
10000738:	b00584e3          	beqz	a1,10000240 <__adddf3+0x104>
1000073c:	d09ff06f          	j	10000444 <__adddf3+0x308>
10000740:	40c505b3          	sub	a1,a0,a2
10000744:	00b53833          	sltu	a6,a0,a1
10000748:	40e789b3          	sub	s3,a5,a4
1000074c:	410989b3          	sub	s3,s3,a6
10000750:	00800837          	lui	a6,0x800
10000754:	0109f833          	and	a6,s3,a6
10000758:	00058913          	mv	s2,a1
1000075c:	06080c63          	beqz	a6,100007d4 <__adddf3+0x698>
10000760:	40a60933          	sub	s2,a2,a0
10000764:	40f70733          	sub	a4,a4,a5
10000768:	01263633          	sltu	a2,a2,s2
1000076c:	40c709b3          	sub	s3,a4,a2
10000770:	00068493          	mv	s1,a3
10000774:	06098a63          	beqz	s3,100007e8 <__adddf3+0x6ac>
10000778:	00098513          	mv	a0,s3
1000077c:	034030ef          	jal	ra,100037b0 <__clzsi2>
10000780:	ff850793          	addi	a5,a0,-8
10000784:	02000693          	li	a3,32
10000788:	40f686b3          	sub	a3,a3,a5
1000078c:	00f99733          	sll	a4,s3,a5
10000790:	00d956b3          	srl	a3,s2,a3
10000794:	00e6e6b3          	or	a3,a3,a4
10000798:	00f919b3          	sll	s3,s2,a5
1000079c:	1087c263          	blt	a5,s0,100008a0 <__adddf3+0x764>
100007a0:	408787b3          	sub	a5,a5,s0
100007a4:	00178793          	addi	a5,a5,1 # 80001 <__stack_size+0x7ff01>
100007a8:	02000713          	li	a4,32
100007ac:	40f70733          	sub	a4,a4,a5
100007b0:	00e69533          	sll	a0,a3,a4
100007b4:	00f9d633          	srl	a2,s3,a5
100007b8:	00e99733          	sll	a4,s3,a4
100007bc:	00c56533          	or	a0,a0,a2
100007c0:	00e03733          	snez	a4,a4
100007c4:	00e56533          	or	a0,a0,a4
100007c8:	00f6d7b3          	srl	a5,a3,a5
100007cc:	00000413          	li	s0,0
100007d0:	a11ff06f          	j	100001e0 <__adddf3+0xa4>
100007d4:	0135e5b3          	or	a1,a1,s3
100007d8:	f8059ee3          	bnez	a1,10000774 <__adddf3+0x638>
100007dc:	00000413          	li	s0,0
100007e0:	00000793          	li	a5,0
100007e4:	1240006f          	j	10000908 <__adddf3+0x7cc>
100007e8:	00090513          	mv	a0,s2
100007ec:	7c5020ef          	jal	ra,100037b0 <__clzsi2>
100007f0:	01850793          	addi	a5,a0,24
100007f4:	01f00713          	li	a4,31
100007f8:	f8f756e3          	bge	a4,a5,10000784 <__adddf3+0x648>
100007fc:	ff850513          	addi	a0,a0,-8
10000800:	00a916b3          	sll	a3,s2,a0
10000804:	0487c063          	blt	a5,s0,10000844 <__adddf3+0x708>
10000808:	40878533          	sub	a0,a5,s0
1000080c:	00150793          	addi	a5,a0,1
10000810:	f8f75ce3          	bge	a4,a5,100007a8 <__adddf3+0x66c>
10000814:	fe150513          	addi	a0,a0,-31
10000818:	02000613          	li	a2,32
1000081c:	00a6d733          	srl	a4,a3,a0
10000820:	00000513          	li	a0,0
10000824:	00c78863          	beq	a5,a2,10000834 <__adddf3+0x6f8>
10000828:	04000513          	li	a0,64
1000082c:	40f50533          	sub	a0,a0,a5
10000830:	00a69533          	sll	a0,a3,a0
10000834:	00a03533          	snez	a0,a0
10000838:	00e56533          	or	a0,a0,a4
1000083c:	00000793          	li	a5,0
10000840:	f8dff06f          	j	100007cc <__adddf3+0x690>
10000844:	40f40433          	sub	s0,s0,a5
10000848:	ff8007b7          	lui	a5,0xff800
1000084c:	fff78793          	addi	a5,a5,-1 # ff7fffff <__BSS_END__$+0xef7f5bb7>
10000850:	00f6f7b3          	and	a5,a3,a5
10000854:	01d79593          	slli	a1,a5,0x1d
10000858:	0037d793          	srli	a5,a5,0x3
1000085c:	01441413          	slli	s0,s0,0x14
10000860:	7ff00737          	lui	a4,0x7ff00
10000864:	00c79793          	slli	a5,a5,0xc
10000868:	00c7d793          	srli	a5,a5,0xc
1000086c:	00e47433          	and	s0,s0,a4
10000870:	00f46433          	or	s0,s0,a5
10000874:	01f49493          	slli	s1,s1,0x1f
10000878:	009467b3          	or	a5,s0,s1
1000087c:	01c12083          	lw	ra,28(sp)
10000880:	01812403          	lw	s0,24(sp)
10000884:	01412483          	lw	s1,20(sp)
10000888:	01012903          	lw	s2,16(sp)
1000088c:	00c12983          	lw	s3,12(sp)
10000890:	00058513          	mv	a0,a1
10000894:	00078593          	mv	a1,a5
10000898:	02010113          	addi	sp,sp,32
1000089c:	00008067          	ret
100008a0:	40f40433          	sub	s0,s0,a5
100008a4:	ff8007b7          	lui	a5,0xff800
100008a8:	fff78793          	addi	a5,a5,-1 # ff7fffff <__BSS_END__$+0xef7f5bb7>
100008ac:	00f6f7b3          	and	a5,a3,a5
100008b0:	00098513          	mv	a0,s3
100008b4:	92dff06f          	j	100001e0 <__adddf3+0xa4>
100008b8:	00070793          	mv	a5,a4
100008bc:	00060513          	mv	a0,a2
100008c0:	00058413          	mv	s0,a1
100008c4:	91dff06f          	j	100001e0 <__adddf3+0xa4>
100008c8:	00070793          	mv	a5,a4
100008cc:	00060513          	mv	a0,a2
100008d0:	911ff06f          	j	100001e0 <__adddf3+0xa4>
100008d4:	00070793          	mv	a5,a4
100008d8:	00060513          	mv	a0,a2
100008dc:	00080413          	mv	s0,a6
100008e0:	df1ff06f          	j	100006d0 <__adddf3+0x594>
100008e4:	01d79713          	slli	a4,a5,0x1d
100008e8:	00355513          	srli	a0,a0,0x3
100008ec:	7ff00693          	li	a3,2047
100008f0:	00a76733          	or	a4,a4,a0
100008f4:	0037d793          	srli	a5,a5,0x3
100008f8:	02d41463          	bne	s0,a3,10000920 <__adddf3+0x7e4>
100008fc:	00f76733          	or	a4,a4,a5
10000900:	000807b7          	lui	a5,0x80
10000904:	9a070ae3          	beqz	a4,100002b8 <__adddf3+0x17c>
10000908:	00000493          	li	s1,0
1000090c:	f51ff06f          	j	1000085c <__adddf3+0x720>
10000910:	00000493          	li	s1,0
10000914:	7ff00413          	li	s0,2047
10000918:	000807b7          	lui	a5,0x80
1000091c:	f41ff06f          	j	1000085c <__adddf3+0x720>
10000920:	00070593          	mv	a1,a4
10000924:	f39ff06f          	j	1000085c <__adddf3+0x720>

10000928 <__divdf3>:
10000928:	fb010113          	addi	sp,sp,-80
1000092c:	05212023          	sw	s2,64(sp)
10000930:	0145d913          	srli	s2,a1,0x14
10000934:	04812423          	sw	s0,72(sp)
10000938:	03312e23          	sw	s3,60(sp)
1000093c:	03412c23          	sw	s4,56(sp)
10000940:	03512a23          	sw	s5,52(sp)
10000944:	03812423          	sw	s8,40(sp)
10000948:	00c59413          	slli	s0,a1,0xc
1000094c:	04112623          	sw	ra,76(sp)
10000950:	04912223          	sw	s1,68(sp)
10000954:	03612823          	sw	s6,48(sp)
10000958:	03712623          	sw	s7,44(sp)
1000095c:	03912223          	sw	s9,36(sp)
10000960:	03a12023          	sw	s10,32(sp)
10000964:	01b12e23          	sw	s11,28(sp)
10000968:	7ff97913          	andi	s2,s2,2047
1000096c:	00050993          	mv	s3,a0
10000970:	00060c13          	mv	s8,a2
10000974:	00068a13          	mv	s4,a3
10000978:	00c45413          	srli	s0,s0,0xc
1000097c:	01f5da93          	srli	s5,a1,0x1f
10000980:	0a090063          	beqz	s2,10000a20 <__divdf3+0xf8>
10000984:	7ff00793          	li	a5,2047
10000988:	10f90063          	beq	s2,a5,10000a88 <__divdf3+0x160>
1000098c:	01d55b13          	srli	s6,a0,0x1d
10000990:	00341413          	slli	s0,s0,0x3
10000994:	008b6b33          	or	s6,s6,s0
10000998:	008007b7          	lui	a5,0x800
1000099c:	00fb6b33          	or	s6,s6,a5
100009a0:	00351493          	slli	s1,a0,0x3
100009a4:	c0190913          	addi	s2,s2,-1023
100009a8:	00000b93          	li	s7,0
100009ac:	014a5713          	srli	a4,s4,0x14
100009b0:	00ca1413          	slli	s0,s4,0xc
100009b4:	7ff77713          	andi	a4,a4,2047
100009b8:	00c45413          	srli	s0,s0,0xc
100009bc:	01fa5a13          	srli	s4,s4,0x1f
100009c0:	10070263          	beqz	a4,10000ac4 <__divdf3+0x19c>
100009c4:	7ff00793          	li	a5,2047
100009c8:	16f70663          	beq	a4,a5,10000b34 <__divdf3+0x20c>
100009cc:	00341413          	slli	s0,s0,0x3
100009d0:	01dc5793          	srli	a5,s8,0x1d
100009d4:	0087e7b3          	or	a5,a5,s0
100009d8:	00800437          	lui	s0,0x800
100009dc:	0087e433          	or	s0,a5,s0
100009e0:	003c1693          	slli	a3,s8,0x3
100009e4:	c0170713          	addi	a4,a4,-1023 # 7feffc01 <__BSS_END__$+0x6fef57b9>
100009e8:	00000613          	li	a2,0
100009ec:	002b9793          	slli	a5,s7,0x2
100009f0:	00c7e7b3          	or	a5,a5,a2
100009f4:	40e90933          	sub	s2,s2,a4
100009f8:	fff78793          	addi	a5,a5,-1 # 7fffff <__stack_size+0x7ffeff>
100009fc:	00e00713          	li	a4,14
10000a00:	014ac9b3          	xor	s3,s5,s4
10000a04:	18f76c63          	bltu	a4,a5,10000b9c <__divdf3+0x274>
10000a08:	10009737          	lui	a4,0x10009
10000a0c:	00279793          	slli	a5,a5,0x2
10000a10:	20070713          	addi	a4,a4,512 # 10009200 <scalbnf+0x148>
10000a14:	00e787b3          	add	a5,a5,a4
10000a18:	0007a783          	lw	a5,0(a5)
10000a1c:	00078067          	jr	a5
10000a20:	00a46b33          	or	s6,s0,a0
10000a24:	080b0063          	beqz	s6,10000aa4 <__divdf3+0x17c>
10000a28:	02040e63          	beqz	s0,10000a64 <__divdf3+0x13c>
10000a2c:	00040513          	mv	a0,s0
10000a30:	581020ef          	jal	ra,100037b0 <__clzsi2>
10000a34:	ff550793          	addi	a5,a0,-11
10000a38:	01d00b13          	li	s6,29
10000a3c:	ff850713          	addi	a4,a0,-8
10000a40:	40fb0b33          	sub	s6,s6,a5
10000a44:	00e41433          	sll	s0,s0,a4
10000a48:	0169db33          	srl	s6,s3,s6
10000a4c:	008b6b33          	or	s6,s6,s0
10000a50:	00e99433          	sll	s0,s3,a4
10000a54:	c0d00913          	li	s2,-1011
10000a58:	40a90933          	sub	s2,s2,a0
10000a5c:	00040493          	mv	s1,s0
10000a60:	f49ff06f          	j	100009a8 <__divdf3+0x80>
10000a64:	54d020ef          	jal	ra,100037b0 <__clzsi2>
10000a68:	00050b13          	mv	s6,a0
10000a6c:	015b0793          	addi	a5,s6,21
10000a70:	01c00713          	li	a4,28
10000a74:	02050513          	addi	a0,a0,32
10000a78:	fcf750e3          	bge	a4,a5,10000a38 <__divdf3+0x110>
10000a7c:	ff8b0b13          	addi	s6,s6,-8
10000a80:	01699b33          	sll	s6,s3,s6
10000a84:	fd1ff06f          	j	10000a54 <__divdf3+0x12c>
10000a88:	00a46b33          	or	s6,s0,a0
10000a8c:	020b0463          	beqz	s6,10000ab4 <__divdf3+0x18c>
10000a90:	00050493          	mv	s1,a0
10000a94:	00040b13          	mv	s6,s0
10000a98:	7ff00913          	li	s2,2047
10000a9c:	00300b93          	li	s7,3
10000aa0:	f0dff06f          	j	100009ac <__divdf3+0x84>
10000aa4:	00000493          	li	s1,0
10000aa8:	00000913          	li	s2,0
10000aac:	00100b93          	li	s7,1
10000ab0:	efdff06f          	j	100009ac <__divdf3+0x84>
10000ab4:	00000493          	li	s1,0
10000ab8:	7ff00913          	li	s2,2047
10000abc:	00200b93          	li	s7,2
10000ac0:	eedff06f          	j	100009ac <__divdf3+0x84>
10000ac4:	018466b3          	or	a3,s0,s8
10000ac8:	08068263          	beqz	a3,10000b4c <__divdf3+0x224>
10000acc:	04040063          	beqz	s0,10000b0c <__divdf3+0x1e4>
10000ad0:	00040513          	mv	a0,s0
10000ad4:	4dd020ef          	jal	ra,100037b0 <__clzsi2>
10000ad8:	ff550713          	addi	a4,a0,-11
10000adc:	01d00793          	li	a5,29
10000ae0:	ff850693          	addi	a3,a0,-8
10000ae4:	40e787b3          	sub	a5,a5,a4
10000ae8:	00d41433          	sll	s0,s0,a3
10000aec:	00fc57b3          	srl	a5,s8,a5
10000af0:	0087e7b3          	or	a5,a5,s0
10000af4:	00dc1433          	sll	s0,s8,a3
10000af8:	c0d00713          	li	a4,-1011
10000afc:	00040693          	mv	a3,s0
10000b00:	40a70733          	sub	a4,a4,a0
10000b04:	00078413          	mv	s0,a5
10000b08:	ee1ff06f          	j	100009e8 <__divdf3+0xc0>
10000b0c:	000c0513          	mv	a0,s8
10000b10:	4a1020ef          	jal	ra,100037b0 <__clzsi2>
10000b14:	00050793          	mv	a5,a0
10000b18:	01578713          	addi	a4,a5,21
10000b1c:	01c00693          	li	a3,28
10000b20:	02050513          	addi	a0,a0,32
10000b24:	fae6dce3          	bge	a3,a4,10000adc <__divdf3+0x1b4>
10000b28:	ff878793          	addi	a5,a5,-8
10000b2c:	00fc17b3          	sll	a5,s8,a5
10000b30:	fc9ff06f          	j	10000af8 <__divdf3+0x1d0>
10000b34:	018466b3          	or	a3,s0,s8
10000b38:	02068263          	beqz	a3,10000b5c <__divdf3+0x234>
10000b3c:	000c0693          	mv	a3,s8
10000b40:	7ff00713          	li	a4,2047
10000b44:	00300613          	li	a2,3
10000b48:	ea5ff06f          	j	100009ec <__divdf3+0xc4>
10000b4c:	00000413          	li	s0,0
10000b50:	00000713          	li	a4,0
10000b54:	00100613          	li	a2,1
10000b58:	e95ff06f          	j	100009ec <__divdf3+0xc4>
10000b5c:	00000413          	li	s0,0
10000b60:	7ff00713          	li	a4,2047
10000b64:	00200613          	li	a2,2
10000b68:	e85ff06f          	j	100009ec <__divdf3+0xc4>
10000b6c:	000a8993          	mv	s3,s5
10000b70:	000b0413          	mv	s0,s6
10000b74:	00048693          	mv	a3,s1
10000b78:	00200793          	li	a5,2
10000b7c:	54fb8c63          	beq	s7,a5,100010d4 <__divdf3+0x7ac>
10000b80:	00300793          	li	a5,3
10000b84:	52fb8e63          	beq	s7,a5,100010c0 <__divdf3+0x798>
10000b88:	00100793          	li	a5,1
10000b8c:	3afb9463          	bne	s7,a5,10000f34 <__divdf3+0x60c>
10000b90:	00000413          	li	s0,0
10000b94:	00000713          	li	a4,0
10000b98:	4ec0006f          	j	10001084 <__divdf3+0x75c>
10000b9c:	01646663          	bltu	s0,s6,10000ba8 <__divdf3+0x280>
10000ba0:	448b1863          	bne	s6,s0,10000ff0 <__divdf3+0x6c8>
10000ba4:	44d4e663          	bltu	s1,a3,10000ff0 <__divdf3+0x6c8>
10000ba8:	01fb1713          	slli	a4,s6,0x1f
10000bac:	0014d793          	srli	a5,s1,0x1
10000bb0:	01f49d13          	slli	s10,s1,0x1f
10000bb4:	001b5b13          	srli	s6,s6,0x1
10000bb8:	00f764b3          	or	s1,a4,a5
10000bbc:	0186dc13          	srli	s8,a3,0x18
10000bc0:	00841413          	slli	s0,s0,0x8
10000bc4:	01045793          	srli	a5,s0,0x10
10000bc8:	008c6c33          	or	s8,s8,s0
10000bcc:	00078593          	mv	a1,a5
10000bd0:	000b0513          	mv	a0,s6
10000bd4:	010c1a93          	slli	s5,s8,0x10
10000bd8:	00f12623          	sw	a5,12(sp)
10000bdc:	00869c93          	slli	s9,a3,0x8
10000be0:	010ada93          	srli	s5,s5,0x10
10000be4:	321020ef          	jal	ra,10003704 <__hidden___udivsi3>
10000be8:	00050593          	mv	a1,a0
10000bec:	00050b93          	mv	s7,a0
10000bf0:	000a8513          	mv	a0,s5
10000bf4:	2e5020ef          	jal	ra,100036d8 <__mulsi3>
10000bf8:	00c12583          	lw	a1,12(sp)
10000bfc:	00050413          	mv	s0,a0
10000c00:	000b0513          	mv	a0,s6
10000c04:	349020ef          	jal	ra,1000374c <__umodsi3>
10000c08:	01051513          	slli	a0,a0,0x10
10000c0c:	0104d793          	srli	a5,s1,0x10
10000c10:	00a7e7b3          	or	a5,a5,a0
10000c14:	000b8b13          	mv	s6,s7
10000c18:	0087fe63          	bgeu	a5,s0,10000c34 <__divdf3+0x30c>
10000c1c:	00fc07b3          	add	a5,s8,a5
10000c20:	fffb8b13          	addi	s6,s7,-1
10000c24:	0187e863          	bltu	a5,s8,10000c34 <__divdf3+0x30c>
10000c28:	0087f663          	bgeu	a5,s0,10000c34 <__divdf3+0x30c>
10000c2c:	ffeb8b13          	addi	s6,s7,-2
10000c30:	018787b3          	add	a5,a5,s8
10000c34:	00c12583          	lw	a1,12(sp)
10000c38:	40878433          	sub	s0,a5,s0
10000c3c:	00040513          	mv	a0,s0
10000c40:	2c5020ef          	jal	ra,10003704 <__hidden___udivsi3>
10000c44:	00050593          	mv	a1,a0
10000c48:	00050d93          	mv	s11,a0
10000c4c:	000a8513          	mv	a0,s5
10000c50:	289020ef          	jal	ra,100036d8 <__mulsi3>
10000c54:	00c12583          	lw	a1,12(sp)
10000c58:	00050b93          	mv	s7,a0
10000c5c:	00040513          	mv	a0,s0
10000c60:	2ed020ef          	jal	ra,1000374c <__umodsi3>
10000c64:	01049793          	slli	a5,s1,0x10
10000c68:	01051513          	slli	a0,a0,0x10
10000c6c:	0107d793          	srli	a5,a5,0x10
10000c70:	00a7e7b3          	or	a5,a5,a0
10000c74:	000d8713          	mv	a4,s11
10000c78:	0177fe63          	bgeu	a5,s7,10000c94 <__divdf3+0x36c>
10000c7c:	00fc07b3          	add	a5,s8,a5
10000c80:	fffd8713          	addi	a4,s11,-1
10000c84:	0187e863          	bltu	a5,s8,10000c94 <__divdf3+0x36c>
10000c88:	0177f663          	bgeu	a5,s7,10000c94 <__divdf3+0x36c>
10000c8c:	ffed8713          	addi	a4,s11,-2
10000c90:	018787b3          	add	a5,a5,s8
10000c94:	010b1813          	slli	a6,s6,0x10
10000c98:	00010eb7          	lui	t4,0x10
10000c9c:	00e86833          	or	a6,a6,a4
10000ca0:	fffe8b13          	addi	s6,t4,-1 # ffff <__stack_size+0xfeff>
10000ca4:	016878b3          	and	a7,a6,s6
10000ca8:	016cfb33          	and	s6,s9,s6
10000cac:	417787b3          	sub	a5,a5,s7
10000cb0:	01085713          	srli	a4,a6,0x10
10000cb4:	010cdb93          	srli	s7,s9,0x10
10000cb8:	00088513          	mv	a0,a7
10000cbc:	000b0593          	mv	a1,s6
10000cc0:	219020ef          	jal	ra,100036d8 <__mulsi3>
10000cc4:	00050313          	mv	t1,a0
10000cc8:	000b8593          	mv	a1,s7
10000ccc:	00088513          	mv	a0,a7
10000cd0:	209020ef          	jal	ra,100036d8 <__mulsi3>
10000cd4:	00050893          	mv	a7,a0
10000cd8:	000b0593          	mv	a1,s6
10000cdc:	00070513          	mv	a0,a4
10000ce0:	1f9020ef          	jal	ra,100036d8 <__mulsi3>
10000ce4:	00050e13          	mv	t3,a0
10000ce8:	000b8593          	mv	a1,s7
10000cec:	00070513          	mv	a0,a4
10000cf0:	1e9020ef          	jal	ra,100036d8 <__mulsi3>
10000cf4:	01035713          	srli	a4,t1,0x10
10000cf8:	01c888b3          	add	a7,a7,t3
10000cfc:	01170733          	add	a4,a4,a7
10000d00:	00050613          	mv	a2,a0
10000d04:	01c77463          	bgeu	a4,t3,10000d0c <__divdf3+0x3e4>
10000d08:	01d50633          	add	a2,a0,t4
10000d0c:	01075693          	srli	a3,a4,0x10
10000d10:	00c686b3          	add	a3,a3,a2
10000d14:	00010637          	lui	a2,0x10
10000d18:	fff60613          	addi	a2,a2,-1 # ffff <__stack_size+0xfeff>
10000d1c:	00c77733          	and	a4,a4,a2
10000d20:	01071713          	slli	a4,a4,0x10
10000d24:	00c37333          	and	t1,t1,a2
10000d28:	00670733          	add	a4,a4,t1
10000d2c:	00d7e863          	bltu	a5,a3,10000d3c <__divdf3+0x414>
10000d30:	00080413          	mv	s0,a6
10000d34:	04d79863          	bne	a5,a3,10000d84 <__divdf3+0x45c>
10000d38:	04ed7663          	bgeu	s10,a4,10000d84 <__divdf3+0x45c>
10000d3c:	019d0633          	add	a2,s10,s9
10000d40:	01a635b3          	sltu	a1,a2,s10
10000d44:	01858533          	add	a0,a1,s8
10000d48:	00a787b3          	add	a5,a5,a0
10000d4c:	fff80413          	addi	s0,a6,-1 # 7fffff <__stack_size+0x7ffeff>
10000d50:	00060d13          	mv	s10,a2
10000d54:	00fc6663          	bltu	s8,a5,10000d60 <__divdf3+0x438>
10000d58:	02fc1663          	bne	s8,a5,10000d84 <__divdf3+0x45c>
10000d5c:	02059463          	bnez	a1,10000d84 <__divdf3+0x45c>
10000d60:	00d7e663          	bltu	a5,a3,10000d6c <__divdf3+0x444>
10000d64:	02f69063          	bne	a3,a5,10000d84 <__divdf3+0x45c>
10000d68:	00e67e63          	bgeu	a2,a4,10000d84 <__divdf3+0x45c>
10000d6c:	00cc8633          	add	a2,s9,a2
10000d70:	00060d13          	mv	s10,a2
10000d74:	01963633          	sltu	a2,a2,s9
10000d78:	01860633          	add	a2,a2,s8
10000d7c:	ffe80413          	addi	s0,a6,-2
10000d80:	00c787b3          	add	a5,a5,a2
10000d84:	40ed0db3          	sub	s11,s10,a4
10000d88:	40d787b3          	sub	a5,a5,a3
10000d8c:	01bd3d33          	sltu	s10,s10,s11
10000d90:	41a784b3          	sub	s1,a5,s10
10000d94:	fff00693          	li	a3,-1
10000d98:	189c0e63          	beq	s8,s1,10000f34 <__divdf3+0x60c>
10000d9c:	00c12583          	lw	a1,12(sp)
10000da0:	00048513          	mv	a0,s1
10000da4:	161020ef          	jal	ra,10003704 <__hidden___udivsi3>
10000da8:	00050593          	mv	a1,a0
10000dac:	00050a13          	mv	s4,a0
10000db0:	000a8513          	mv	a0,s5
10000db4:	125020ef          	jal	ra,100036d8 <__mulsi3>
10000db8:	00c12583          	lw	a1,12(sp)
10000dbc:	00050d13          	mv	s10,a0
10000dc0:	00048513          	mv	a0,s1
10000dc4:	189020ef          	jal	ra,1000374c <__umodsi3>
10000dc8:	01051513          	slli	a0,a0,0x10
10000dcc:	010dd693          	srli	a3,s11,0x10
10000dd0:	00a6e6b3          	or	a3,a3,a0
10000dd4:	000a0493          	mv	s1,s4
10000dd8:	01a6fe63          	bgeu	a3,s10,10000df4 <__divdf3+0x4cc>
10000ddc:	00dc06b3          	add	a3,s8,a3
10000de0:	fffa0493          	addi	s1,s4,-1
10000de4:	0186e863          	bltu	a3,s8,10000df4 <__divdf3+0x4cc>
10000de8:	01a6f663          	bgeu	a3,s10,10000df4 <__divdf3+0x4cc>
10000dec:	ffea0493          	addi	s1,s4,-2
10000df0:	018686b3          	add	a3,a3,s8
10000df4:	00c12583          	lw	a1,12(sp)
10000df8:	41a68a33          	sub	s4,a3,s10
10000dfc:	000a0513          	mv	a0,s4
10000e00:	105020ef          	jal	ra,10003704 <__hidden___udivsi3>
10000e04:	00050593          	mv	a1,a0
10000e08:	00050d13          	mv	s10,a0
10000e0c:	000a8513          	mv	a0,s5
10000e10:	0c9020ef          	jal	ra,100036d8 <__mulsi3>
10000e14:	00c12583          	lw	a1,12(sp)
10000e18:	00050a93          	mv	s5,a0
10000e1c:	000a0513          	mv	a0,s4
10000e20:	12d020ef          	jal	ra,1000374c <__umodsi3>
10000e24:	010d9793          	slli	a5,s11,0x10
10000e28:	01051513          	slli	a0,a0,0x10
10000e2c:	0107d793          	srli	a5,a5,0x10
10000e30:	00a7e7b3          	or	a5,a5,a0
10000e34:	000d0713          	mv	a4,s10
10000e38:	0157fe63          	bgeu	a5,s5,10000e54 <__divdf3+0x52c>
10000e3c:	00fc07b3          	add	a5,s8,a5
10000e40:	fffd0713          	addi	a4,s10,-1
10000e44:	0187e863          	bltu	a5,s8,10000e54 <__divdf3+0x52c>
10000e48:	0157f663          	bgeu	a5,s5,10000e54 <__divdf3+0x52c>
10000e4c:	ffed0713          	addi	a4,s10,-2
10000e50:	018787b3          	add	a5,a5,s8
10000e54:	01049813          	slli	a6,s1,0x10
10000e58:	00e86833          	or	a6,a6,a4
10000e5c:	01081893          	slli	a7,a6,0x10
10000e60:	0108d893          	srli	a7,a7,0x10
10000e64:	415787b3          	sub	a5,a5,s5
10000e68:	01085713          	srli	a4,a6,0x10
10000e6c:	00088513          	mv	a0,a7
10000e70:	000b0593          	mv	a1,s6
10000e74:	065020ef          	jal	ra,100036d8 <__mulsi3>
10000e78:	00050313          	mv	t1,a0
10000e7c:	000b8593          	mv	a1,s7
10000e80:	00088513          	mv	a0,a7
10000e84:	055020ef          	jal	ra,100036d8 <__mulsi3>
10000e88:	00050893          	mv	a7,a0
10000e8c:	000b0593          	mv	a1,s6
10000e90:	00070513          	mv	a0,a4
10000e94:	045020ef          	jal	ra,100036d8 <__mulsi3>
10000e98:	00050e13          	mv	t3,a0
10000e9c:	000b8593          	mv	a1,s7
10000ea0:	00070513          	mv	a0,a4
10000ea4:	035020ef          	jal	ra,100036d8 <__mulsi3>
10000ea8:	01035713          	srli	a4,t1,0x10
10000eac:	01c888b3          	add	a7,a7,t3
10000eb0:	01170733          	add	a4,a4,a7
10000eb4:	00050693          	mv	a3,a0
10000eb8:	01c77663          	bgeu	a4,t3,10000ec4 <__divdf3+0x59c>
10000ebc:	00010637          	lui	a2,0x10
10000ec0:	00c506b3          	add	a3,a0,a2
10000ec4:	01075613          	srli	a2,a4,0x10
10000ec8:	00d60633          	add	a2,a2,a3
10000ecc:	000106b7          	lui	a3,0x10
10000ed0:	fff68693          	addi	a3,a3,-1 # ffff <__stack_size+0xfeff>
10000ed4:	00d77733          	and	a4,a4,a3
10000ed8:	01071713          	slli	a4,a4,0x10
10000edc:	00d37333          	and	t1,t1,a3
10000ee0:	00670733          	add	a4,a4,t1
10000ee4:	00c7e863          	bltu	a5,a2,10000ef4 <__divdf3+0x5cc>
10000ee8:	00080693          	mv	a3,a6
10000eec:	04c79263          	bne	a5,a2,10000f30 <__divdf3+0x608>
10000ef0:	04070263          	beqz	a4,10000f34 <__divdf3+0x60c>
10000ef4:	00fc07b3          	add	a5,s8,a5
10000ef8:	fff80693          	addi	a3,a6,-1
10000efc:	00078593          	mv	a1,a5
10000f00:	0387e463          	bltu	a5,s8,10000f28 <__divdf3+0x600>
10000f04:	00c7e663          	bltu	a5,a2,10000f10 <__divdf3+0x5e8>
10000f08:	02c79463          	bne	a5,a2,10000f30 <__divdf3+0x608>
10000f0c:	02ecf063          	bgeu	s9,a4,10000f2c <__divdf3+0x604>
10000f10:	001c9513          	slli	a0,s9,0x1
10000f14:	019535b3          	sltu	a1,a0,s9
10000f18:	018585b3          	add	a1,a1,s8
10000f1c:	ffe80693          	addi	a3,a6,-2
10000f20:	00b785b3          	add	a1,a5,a1
10000f24:	00050c93          	mv	s9,a0
10000f28:	00c59463          	bne	a1,a2,10000f30 <__divdf3+0x608>
10000f2c:	01970463          	beq	a4,s9,10000f34 <__divdf3+0x60c>
10000f30:	0016e693          	ori	a3,a3,1
10000f34:	3ff90793          	addi	a5,s2,1023
10000f38:	0cf05863          	blez	a5,10001008 <__divdf3+0x6e0>
10000f3c:	0076f713          	andi	a4,a3,7
10000f40:	02070063          	beqz	a4,10000f60 <__divdf3+0x638>
10000f44:	00f6f713          	andi	a4,a3,15
10000f48:	00400613          	li	a2,4
10000f4c:	00c70a63          	beq	a4,a2,10000f60 <__divdf3+0x638>
10000f50:	00468713          	addi	a4,a3,4
10000f54:	00d73633          	sltu	a2,a4,a3
10000f58:	00c40433          	add	s0,s0,a2
10000f5c:	00070693          	mv	a3,a4
10000f60:	01000737          	lui	a4,0x1000
10000f64:	00e47733          	and	a4,s0,a4
10000f68:	00070a63          	beqz	a4,10000f7c <__divdf3+0x654>
10000f6c:	ff0007b7          	lui	a5,0xff000
10000f70:	fff78793          	addi	a5,a5,-1 # feffffff <__BSS_END__$+0xeeff5bb7>
10000f74:	00f47433          	and	s0,s0,a5
10000f78:	40090793          	addi	a5,s2,1024
10000f7c:	7fe00713          	li	a4,2046
10000f80:	14f74a63          	blt	a4,a5,100010d4 <__divdf3+0x7ac>
10000f84:	01d41713          	slli	a4,s0,0x1d
10000f88:	0036d693          	srli	a3,a3,0x3
10000f8c:	00d76733          	or	a4,a4,a3
10000f90:	00345413          	srli	s0,s0,0x3
10000f94:	00c41413          	slli	s0,s0,0xc
10000f98:	00c45413          	srli	s0,s0,0xc
10000f9c:	01479793          	slli	a5,a5,0x14
10000fa0:	04c12083          	lw	ra,76(sp)
10000fa4:	0087e7b3          	or	a5,a5,s0
10000fa8:	04812403          	lw	s0,72(sp)
10000fac:	01f99993          	slli	s3,s3,0x1f
10000fb0:	0137e6b3          	or	a3,a5,s3
10000fb4:	04412483          	lw	s1,68(sp)
10000fb8:	04012903          	lw	s2,64(sp)
10000fbc:	03c12983          	lw	s3,60(sp)
10000fc0:	03812a03          	lw	s4,56(sp)
10000fc4:	03412a83          	lw	s5,52(sp)
10000fc8:	03012b03          	lw	s6,48(sp)
10000fcc:	02c12b83          	lw	s7,44(sp)
10000fd0:	02812c03          	lw	s8,40(sp)
10000fd4:	02412c83          	lw	s9,36(sp)
10000fd8:	02012d03          	lw	s10,32(sp)
10000fdc:	01c12d83          	lw	s11,28(sp)
10000fe0:	00070513          	mv	a0,a4
10000fe4:	00068593          	mv	a1,a3
10000fe8:	05010113          	addi	sp,sp,80
10000fec:	00008067          	ret
10000ff0:	fff90913          	addi	s2,s2,-1
10000ff4:	00000d13          	li	s10,0
10000ff8:	bc5ff06f          	j	10000bbc <__divdf3+0x294>
10000ffc:	000a0993          	mv	s3,s4
10001000:	00060b93          	mv	s7,a2
10001004:	b75ff06f          	j	10000b78 <__divdf3+0x250>
10001008:	00100613          	li	a2,1
1000100c:	00078c63          	beqz	a5,10001024 <__divdf3+0x6fc>
10001010:	40f60633          	sub	a2,a2,a5
10001014:	03800713          	li	a4,56
10001018:	b6c74ce3          	blt	a4,a2,10000b90 <__divdf3+0x268>
1000101c:	01f00713          	li	a4,31
10001020:	06c74663          	blt	a4,a2,1000108c <__divdf3+0x764>
10001024:	41e90913          	addi	s2,s2,1054
10001028:	00c6d7b3          	srl	a5,a3,a2
1000102c:	012696b3          	sll	a3,a3,s2
10001030:	00d036b3          	snez	a3,a3
10001034:	01241933          	sll	s2,s0,s2
10001038:	0126e6b3          	or	a3,a3,s2
1000103c:	00d7e7b3          	or	a5,a5,a3
10001040:	00c45433          	srl	s0,s0,a2
10001044:	0077f713          	andi	a4,a5,7
10001048:	02070063          	beqz	a4,10001068 <__divdf3+0x740>
1000104c:	00f7f713          	andi	a4,a5,15
10001050:	00400693          	li	a3,4
10001054:	00d70a63          	beq	a4,a3,10001068 <__divdf3+0x740>
10001058:	00478713          	addi	a4,a5,4
1000105c:	00f736b3          	sltu	a3,a4,a5
10001060:	00d40433          	add	s0,s0,a3
10001064:	00070793          	mv	a5,a4
10001068:	00800737          	lui	a4,0x800
1000106c:	00e47733          	and	a4,s0,a4
10001070:	06071a63          	bnez	a4,100010e4 <__divdf3+0x7bc>
10001074:	01d41713          	slli	a4,s0,0x1d
10001078:	0037d793          	srli	a5,a5,0x3
1000107c:	00f76733          	or	a4,a4,a5
10001080:	00345413          	srli	s0,s0,0x3
10001084:	00000793          	li	a5,0
10001088:	f0dff06f          	j	10000f94 <__divdf3+0x66c>
1000108c:	fe100713          	li	a4,-31
10001090:	40f707b3          	sub	a5,a4,a5
10001094:	02000593          	li	a1,32
10001098:	00f457b3          	srl	a5,s0,a5
1000109c:	00000713          	li	a4,0
100010a0:	00b60663          	beq	a2,a1,100010ac <__divdf3+0x784>
100010a4:	43e90913          	addi	s2,s2,1086
100010a8:	01241733          	sll	a4,s0,s2
100010ac:	00d76733          	or	a4,a4,a3
100010b0:	00e03733          	snez	a4,a4
100010b4:	00e7e7b3          	or	a5,a5,a4
100010b8:	00000413          	li	s0,0
100010bc:	f89ff06f          	j	10001044 <__divdf3+0x71c>
100010c0:	00080437          	lui	s0,0x80
100010c4:	00000713          	li	a4,0
100010c8:	7ff00793          	li	a5,2047
100010cc:	00000993          	li	s3,0
100010d0:	ec5ff06f          	j	10000f94 <__divdf3+0x66c>
100010d4:	00000413          	li	s0,0
100010d8:	00000713          	li	a4,0
100010dc:	7ff00793          	li	a5,2047
100010e0:	eb5ff06f          	j	10000f94 <__divdf3+0x66c>
100010e4:	00000413          	li	s0,0
100010e8:	00000713          	li	a4,0
100010ec:	00100793          	li	a5,1
100010f0:	ea5ff06f          	j	10000f94 <__divdf3+0x66c>

100010f4 <__gedf2>:
100010f4:	0146d793          	srli	a5,a3,0x14
100010f8:	0145d313          	srli	t1,a1,0x14
100010fc:	00100737          	lui	a4,0x100
10001100:	fff70713          	addi	a4,a4,-1 # fffff <__stack_size+0xffeff>
10001104:	00050813          	mv	a6,a0
10001108:	00050e13          	mv	t3,a0
1000110c:	7ff37313          	andi	t1,t1,2047
10001110:	7ff7f513          	andi	a0,a5,2047
10001114:	7ff00793          	li	a5,2047
10001118:	00b778b3          	and	a7,a4,a1
1000111c:	00060e93          	mv	t4,a2
10001120:	00d77733          	and	a4,a4,a3
10001124:	01f5d593          	srli	a1,a1,0x1f
10001128:	01f6d693          	srli	a3,a3,0x1f
1000112c:	02f31c63          	bne	t1,a5,10001164 <__gedf2+0x70>
10001130:	0108e8b3          	or	a7,a7,a6
10001134:	0c089463          	bnez	a7,100011fc <__gedf2+0x108>
10001138:	00650a63          	beq	a0,t1,1000114c <__gedf2+0x58>
1000113c:	00100513          	li	a0,1
10001140:	0a058c63          	beqz	a1,100011f8 <__gedf2+0x104>
10001144:	fff00513          	li	a0,-1
10001148:	00008067          	ret
1000114c:	00c76733          	or	a4,a4,a2
10001150:	ffe00513          	li	a0,-2
10001154:	0a071263          	bnez	a4,100011f8 <__gedf2+0x104>
10001158:	fed592e3          	bne	a1,a3,1000113c <__gedf2+0x48>
1000115c:	00000513          	li	a0,0
10001160:	00008067          	ret
10001164:	04f51063          	bne	a0,a5,100011a4 <__gedf2+0xb0>
10001168:	00c76733          	or	a4,a4,a2
1000116c:	ffe00513          	li	a0,-2
10001170:	08071463          	bnez	a4,100011f8 <__gedf2+0x104>
10001174:	00030c63          	beqz	t1,1000118c <__gedf2+0x98>
10001178:	fcd592e3          	bne	a1,a3,1000113c <__gedf2+0x48>
1000117c:	fff00513          	li	a0,-1
10001180:	06058c63          	beqz	a1,100011f8 <__gedf2+0x104>
10001184:	00058513          	mv	a0,a1
10001188:	00008067          	ret
1000118c:	0108e8b3          	or	a7,a7,a6
10001190:	fe0894e3          	bnez	a7,10001178 <__gedf2+0x84>
10001194:	fff00513          	li	a0,-1
10001198:	06068063          	beqz	a3,100011f8 <__gedf2+0x104>
1000119c:	00068513          	mv	a0,a3
100011a0:	00008067          	ret
100011a4:	02030663          	beqz	t1,100011d0 <__gedf2+0xdc>
100011a8:	f8050ae3          	beqz	a0,1000113c <__gedf2+0x48>
100011ac:	f8d598e3          	bne	a1,a3,1000113c <__gedf2+0x48>
100011b0:	f86546e3          	blt	a0,t1,1000113c <__gedf2+0x48>
100011b4:	fca344e3          	blt	t1,a0,1000117c <__gedf2+0x88>
100011b8:	f91762e3          	bltu	a4,a7,1000113c <__gedf2+0x48>
100011bc:	fce890e3          	bne	a7,a4,1000117c <__gedf2+0x88>
100011c0:	f7ceeee3          	bltu	t4,t3,1000113c <__gedf2+0x48>
100011c4:	00000513          	li	a0,0
100011c8:	03de7863          	bgeu	t3,t4,100011f8 <__gedf2+0x104>
100011cc:	fb1ff06f          	j	1000117c <__gedf2+0x88>
100011d0:	0108e833          	or	a6,a7,a6
100011d4:	00050663          	beqz	a0,100011e0 <__gedf2+0xec>
100011d8:	fa080ee3          	beqz	a6,10001194 <__gedf2+0xa0>
100011dc:	f9dff06f          	j	10001178 <__gedf2+0x84>
100011e0:	00c76633          	or	a2,a4,a2
100011e4:	00060863          	beqz	a2,100011f4 <__gedf2+0x100>
100011e8:	fa0806e3          	beqz	a6,10001194 <__gedf2+0xa0>
100011ec:	fcd586e3          	beq	a1,a3,100011b8 <__gedf2+0xc4>
100011f0:	f4dff06f          	j	1000113c <__gedf2+0x48>
100011f4:	f40814e3          	bnez	a6,1000113c <__gedf2+0x48>
100011f8:	00008067          	ret
100011fc:	ffe00513          	li	a0,-2
10001200:	00008067          	ret

10001204 <__muldf3>:
10001204:	fd010113          	addi	sp,sp,-48
10001208:	01512a23          	sw	s5,20(sp)
1000120c:	0145da93          	srli	s5,a1,0x14
10001210:	02812423          	sw	s0,40(sp)
10001214:	02912223          	sw	s1,36(sp)
10001218:	03212023          	sw	s2,32(sp)
1000121c:	01312e23          	sw	s3,28(sp)
10001220:	01612823          	sw	s6,16(sp)
10001224:	00c59493          	slli	s1,a1,0xc
10001228:	02112623          	sw	ra,44(sp)
1000122c:	01412c23          	sw	s4,24(sp)
10001230:	01712623          	sw	s7,12(sp)
10001234:	7ffafa93          	andi	s5,s5,2047
10001238:	00050413          	mv	s0,a0
1000123c:	00060b13          	mv	s6,a2
10001240:	00068913          	mv	s2,a3
10001244:	00c4d493          	srli	s1,s1,0xc
10001248:	01f5d993          	srli	s3,a1,0x1f
1000124c:	3c0a8063          	beqz	s5,1000160c <__muldf3+0x408>
10001250:	7ff00793          	li	a5,2047
10001254:	42fa8263          	beq	s5,a5,10001678 <__muldf3+0x474>
10001258:	00349493          	slli	s1,s1,0x3
1000125c:	01d55793          	srli	a5,a0,0x1d
10001260:	0097e7b3          	or	a5,a5,s1
10001264:	008004b7          	lui	s1,0x800
10001268:	0097e4b3          	or	s1,a5,s1
1000126c:	00351a13          	slli	s4,a0,0x3
10001270:	c01a8a93          	addi	s5,s5,-1023
10001274:	00000b93          	li	s7,0
10001278:	01495713          	srli	a4,s2,0x14
1000127c:	00c91413          	slli	s0,s2,0xc
10001280:	7ff77713          	andi	a4,a4,2047
10001284:	00c45413          	srli	s0,s0,0xc
10001288:	01f95913          	srli	s2,s2,0x1f
1000128c:	42070263          	beqz	a4,100016b0 <__muldf3+0x4ac>
10001290:	7ff00793          	li	a5,2047
10001294:	48f70663          	beq	a4,a5,10001720 <__muldf3+0x51c>
10001298:	00341413          	slli	s0,s0,0x3
1000129c:	01db5793          	srli	a5,s6,0x1d
100012a0:	0087e7b3          	or	a5,a5,s0
100012a4:	00800437          	lui	s0,0x800
100012a8:	0087e433          	or	s0,a5,s0
100012ac:	c0170693          	addi	a3,a4,-1023
100012b0:	003b1793          	slli	a5,s6,0x3
100012b4:	00000613          	li	a2,0
100012b8:	002b9713          	slli	a4,s7,0x2
100012bc:	00da8ab3          	add	s5,s5,a3
100012c0:	00c76733          	or	a4,a4,a2
100012c4:	00a00693          	li	a3,10
100012c8:	0129c833          	xor	a6,s3,s2
100012cc:	001a8893          	addi	a7,s5,1
100012d0:	4ce6c863          	blt	a3,a4,100017a0 <__muldf3+0x59c>
100012d4:	00200693          	li	a3,2
100012d8:	48e6c063          	blt	a3,a4,10001758 <__muldf3+0x554>
100012dc:	fff70713          	addi	a4,a4,-1
100012e0:	00100693          	li	a3,1
100012e4:	48e6fc63          	bgeu	a3,a4,1000177c <__muldf3+0x578>
100012e8:	00010937          	lui	s2,0x10
100012ec:	fff90e13          	addi	t3,s2,-1 # ffff <__stack_size+0xfeff>
100012f0:	010a5293          	srli	t0,s4,0x10
100012f4:	01c7ffb3          	and	t6,a5,t3
100012f8:	01ca7a33          	and	s4,s4,t3
100012fc:	0107df13          	srli	t5,a5,0x10
10001300:	000a0513          	mv	a0,s4
10001304:	000f8593          	mv	a1,t6
10001308:	3d0020ef          	jal	ra,100036d8 <__mulsi3>
1000130c:	00050793          	mv	a5,a0
10001310:	000f0593          	mv	a1,t5
10001314:	000a0513          	mv	a0,s4
10001318:	3c0020ef          	jal	ra,100036d8 <__mulsi3>
1000131c:	00050e93          	mv	t4,a0
10001320:	000f8593          	mv	a1,t6
10001324:	00028513          	mv	a0,t0
10001328:	3b0020ef          	jal	ra,100036d8 <__mulsi3>
1000132c:	00050393          	mv	t2,a0
10001330:	000f0593          	mv	a1,t5
10001334:	00028513          	mv	a0,t0
10001338:	3a0020ef          	jal	ra,100036d8 <__mulsi3>
1000133c:	0107d313          	srli	t1,a5,0x10
10001340:	007e8eb3          	add	t4,t4,t2
10001344:	01d30333          	add	t1,t1,t4
10001348:	00050713          	mv	a4,a0
1000134c:	00737463          	bgeu	t1,t2,10001354 <__muldf3+0x150>
10001350:	01250733          	add	a4,a0,s2
10001354:	01035993          	srli	s3,t1,0x10
10001358:	01c37333          	and	t1,t1,t3
1000135c:	01c7f7b3          	and	a5,a5,t3
10001360:	01031313          	slli	t1,t1,0x10
10001364:	01c47e33          	and	t3,s0,t3
10001368:	00f30333          	add	t1,t1,a5
1000136c:	01045913          	srli	s2,s0,0x10
10001370:	000a0513          	mv	a0,s4
10001374:	000e0593          	mv	a1,t3
10001378:	360020ef          	jal	ra,100036d8 <__mulsi3>
1000137c:	00050393          	mv	t2,a0
10001380:	00090593          	mv	a1,s2
10001384:	000a0513          	mv	a0,s4
10001388:	350020ef          	jal	ra,100036d8 <__mulsi3>
1000138c:	00050e93          	mv	t4,a0
10001390:	000e0593          	mv	a1,t3
10001394:	00028513          	mv	a0,t0
10001398:	340020ef          	jal	ra,100036d8 <__mulsi3>
1000139c:	00050413          	mv	s0,a0
100013a0:	00090593          	mv	a1,s2
100013a4:	00028513          	mv	a0,t0
100013a8:	330020ef          	jal	ra,100036d8 <__mulsi3>
100013ac:	0103d693          	srli	a3,t2,0x10
100013b0:	008e8eb3          	add	t4,t4,s0
100013b4:	01d686b3          	add	a3,a3,t4
100013b8:	00050793          	mv	a5,a0
100013bc:	0086f663          	bgeu	a3,s0,100013c8 <__muldf3+0x1c4>
100013c0:	00010637          	lui	a2,0x10
100013c4:	00c507b3          	add	a5,a0,a2
100013c8:	00010a37          	lui	s4,0x10
100013cc:	fffa0e93          	addi	t4,s4,-1 # ffff <__stack_size+0xfeff>
100013d0:	0106d293          	srli	t0,a3,0x10
100013d4:	00f282b3          	add	t0,t0,a5
100013d8:	01d6f7b3          	and	a5,a3,t4
100013dc:	01d3f3b3          	and	t2,t2,t4
100013e0:	01079793          	slli	a5,a5,0x10
100013e4:	007787b3          	add	a5,a5,t2
100013e8:	01d4feb3          	and	t4,s1,t4
100013ec:	00f98433          	add	s0,s3,a5
100013f0:	000e8513          	mv	a0,t4
100013f4:	0104d993          	srli	s3,s1,0x10
100013f8:	000f8593          	mv	a1,t6
100013fc:	2dc020ef          	jal	ra,100036d8 <__mulsi3>
10001400:	00050493          	mv	s1,a0
10001404:	000f0593          	mv	a1,t5
10001408:	000e8513          	mv	a0,t4
1000140c:	2cc020ef          	jal	ra,100036d8 <__mulsi3>
10001410:	00050393          	mv	t2,a0
10001414:	000f8593          	mv	a1,t6
10001418:	00098513          	mv	a0,s3
1000141c:	2bc020ef          	jal	ra,100036d8 <__mulsi3>
10001420:	00050f93          	mv	t6,a0
10001424:	000f0593          	mv	a1,t5
10001428:	00098513          	mv	a0,s3
1000142c:	2ac020ef          	jal	ra,100036d8 <__mulsi3>
10001430:	0104d693          	srli	a3,s1,0x10
10001434:	01f383b3          	add	t2,t2,t6
10001438:	007686b3          	add	a3,a3,t2
1000143c:	00050613          	mv	a2,a0
10001440:	01f6f463          	bgeu	a3,t6,10001448 <__muldf3+0x244>
10001444:	01450633          	add	a2,a0,s4
10001448:	00010a37          	lui	s4,0x10
1000144c:	fffa0393          	addi	t2,s4,-1 # ffff <__stack_size+0xfeff>
10001450:	0106df93          	srli	t6,a3,0x10
10001454:	0076f6b3          	and	a3,a3,t2
10001458:	01069693          	slli	a3,a3,0x10
1000145c:	0074f4b3          	and	s1,s1,t2
10001460:	00cf8fb3          	add	t6,t6,a2
10001464:	00968f33          	add	t5,a3,s1
10001468:	000e8513          	mv	a0,t4
1000146c:	000e0593          	mv	a1,t3
10001470:	268020ef          	jal	ra,100036d8 <__mulsi3>
10001474:	00050493          	mv	s1,a0
10001478:	00090593          	mv	a1,s2
1000147c:	000e8513          	mv	a0,t4
10001480:	258020ef          	jal	ra,100036d8 <__mulsi3>
10001484:	00050e93          	mv	t4,a0
10001488:	000e0593          	mv	a1,t3
1000148c:	00098513          	mv	a0,s3
10001490:	248020ef          	jal	ra,100036d8 <__mulsi3>
10001494:	00050e13          	mv	t3,a0
10001498:	00090593          	mv	a1,s2
1000149c:	00098513          	mv	a0,s3
100014a0:	238020ef          	jal	ra,100036d8 <__mulsi3>
100014a4:	0104d613          	srli	a2,s1,0x10
100014a8:	01ce8eb3          	add	t4,t4,t3
100014ac:	01d60633          	add	a2,a2,t4
100014b0:	00050593          	mv	a1,a0
100014b4:	01c67463          	bgeu	a2,t3,100014bc <__muldf3+0x2b8>
100014b8:	014505b3          	add	a1,a0,s4
100014bc:	007676b3          	and	a3,a2,t2
100014c0:	01069693          	slli	a3,a3,0x10
100014c4:	0074f4b3          	and	s1,s1,t2
100014c8:	00870733          	add	a4,a4,s0
100014cc:	009686b3          	add	a3,a3,s1
100014d0:	005682b3          	add	t0,a3,t0
100014d4:	00f737b3          	sltu	a5,a4,a5
100014d8:	00f287b3          	add	a5,t0,a5
100014dc:	00d2b6b3          	sltu	a3,t0,a3
100014e0:	0057b2b3          	sltu	t0,a5,t0
100014e4:	01065613          	srli	a2,a2,0x10
100014e8:	0056e6b3          	or	a3,a3,t0
100014ec:	00c686b3          	add	a3,a3,a2
100014f0:	01e70633          	add	a2,a4,t5
100014f4:	01f78fb3          	add	t6,a5,t6
100014f8:	00e63733          	sltu	a4,a2,a4
100014fc:	00ef8733          	add	a4,t6,a4
10001500:	00ffb433          	sltu	s0,t6,a5
10001504:	01f73fb3          	sltu	t6,a4,t6
10001508:	01f46433          	or	s0,s0,t6
1000150c:	00d40433          	add	s0,s0,a3
10001510:	00b40433          	add	s0,s0,a1
10001514:	01775793          	srli	a5,a4,0x17
10001518:	00941413          	slli	s0,s0,0x9
1000151c:	00f46433          	or	s0,s0,a5
10001520:	00961793          	slli	a5,a2,0x9
10001524:	0067e7b3          	or	a5,a5,t1
10001528:	00f037b3          	snez	a5,a5
1000152c:	01765613          	srli	a2,a2,0x17
10001530:	00971713          	slli	a4,a4,0x9
10001534:	00c7e7b3          	or	a5,a5,a2
10001538:	00e7e7b3          	or	a5,a5,a4
1000153c:	01000737          	lui	a4,0x1000
10001540:	00e47733          	and	a4,s0,a4
10001544:	28070063          	beqz	a4,100017c4 <__muldf3+0x5c0>
10001548:	0017d713          	srli	a4,a5,0x1
1000154c:	0017f793          	andi	a5,a5,1
10001550:	00f76733          	or	a4,a4,a5
10001554:	01f41793          	slli	a5,s0,0x1f
10001558:	00f767b3          	or	a5,a4,a5
1000155c:	00145413          	srli	s0,s0,0x1
10001560:	3ff88693          	addi	a3,a7,1023
10001564:	26d05463          	blez	a3,100017cc <__muldf3+0x5c8>
10001568:	0077f713          	andi	a4,a5,7
1000156c:	02070063          	beqz	a4,1000158c <__muldf3+0x388>
10001570:	00f7f713          	andi	a4,a5,15
10001574:	00400613          	li	a2,4
10001578:	00c70a63          	beq	a4,a2,1000158c <__muldf3+0x388>
1000157c:	00478713          	addi	a4,a5,4
10001580:	00f73633          	sltu	a2,a4,a5
10001584:	00c40433          	add	s0,s0,a2
10001588:	00070793          	mv	a5,a4
1000158c:	01000737          	lui	a4,0x1000
10001590:	00e47733          	and	a4,s0,a4
10001594:	00070a63          	beqz	a4,100015a8 <__muldf3+0x3a4>
10001598:	ff000737          	lui	a4,0xff000
1000159c:	fff70713          	addi	a4,a4,-1 # feffffff <__BSS_END__$+0xeeff5bb7>
100015a0:	00e47433          	and	s0,s0,a4
100015a4:	40088693          	addi	a3,a7,1024
100015a8:	7fe00713          	li	a4,2046
100015ac:	2ed74a63          	blt	a4,a3,100018a0 <__muldf3+0x69c>
100015b0:	01d41713          	slli	a4,s0,0x1d
100015b4:	0037d793          	srli	a5,a5,0x3
100015b8:	00f76733          	or	a4,a4,a5
100015bc:	00345413          	srli	s0,s0,0x3
100015c0:	00c41413          	slli	s0,s0,0xc
100015c4:	00c45413          	srli	s0,s0,0xc
100015c8:	01469693          	slli	a3,a3,0x14
100015cc:	02c12083          	lw	ra,44(sp)
100015d0:	0086e6b3          	or	a3,a3,s0
100015d4:	02812403          	lw	s0,40(sp)
100015d8:	01f81813          	slli	a6,a6,0x1f
100015dc:	0106e7b3          	or	a5,a3,a6
100015e0:	02412483          	lw	s1,36(sp)
100015e4:	02012903          	lw	s2,32(sp)
100015e8:	01c12983          	lw	s3,28(sp)
100015ec:	01812a03          	lw	s4,24(sp)
100015f0:	01412a83          	lw	s5,20(sp)
100015f4:	01012b03          	lw	s6,16(sp)
100015f8:	00c12b83          	lw	s7,12(sp)
100015fc:	00070513          	mv	a0,a4
10001600:	00078593          	mv	a1,a5
10001604:	03010113          	addi	sp,sp,48
10001608:	00008067          	ret
1000160c:	00a4ea33          	or	s4,s1,a0
10001610:	080a0063          	beqz	s4,10001690 <__muldf3+0x48c>
10001614:	04048063          	beqz	s1,10001654 <__muldf3+0x450>
10001618:	00048513          	mv	a0,s1
1000161c:	194020ef          	jal	ra,100037b0 <__clzsi2>
10001620:	ff550713          	addi	a4,a0,-11
10001624:	01d00793          	li	a5,29
10001628:	ff850693          	addi	a3,a0,-8
1000162c:	40e787b3          	sub	a5,a5,a4
10001630:	00d494b3          	sll	s1,s1,a3
10001634:	00f457b3          	srl	a5,s0,a5
10001638:	0097e7b3          	or	a5,a5,s1
1000163c:	00d414b3          	sll	s1,s0,a3
10001640:	c0d00a93          	li	s5,-1011
10001644:	00048a13          	mv	s4,s1
10001648:	40aa8ab3          	sub	s5,s5,a0
1000164c:	00078493          	mv	s1,a5
10001650:	c25ff06f          	j	10001274 <__muldf3+0x70>
10001654:	15c020ef          	jal	ra,100037b0 <__clzsi2>
10001658:	00050793          	mv	a5,a0
1000165c:	01578713          	addi	a4,a5,21
10001660:	01c00693          	li	a3,28
10001664:	02050513          	addi	a0,a0,32
10001668:	fae6dee3          	bge	a3,a4,10001624 <__muldf3+0x420>
1000166c:	ff878793          	addi	a5,a5,-8
10001670:	00f417b3          	sll	a5,s0,a5
10001674:	fcdff06f          	j	10001640 <__muldf3+0x43c>
10001678:	00a4ea33          	or	s4,s1,a0
1000167c:	020a0263          	beqz	s4,100016a0 <__muldf3+0x49c>
10001680:	00050a13          	mv	s4,a0
10001684:	7ff00a93          	li	s5,2047
10001688:	00300b93          	li	s7,3
1000168c:	bedff06f          	j	10001278 <__muldf3+0x74>
10001690:	00000493          	li	s1,0
10001694:	00000a93          	li	s5,0
10001698:	00100b93          	li	s7,1
1000169c:	bddff06f          	j	10001278 <__muldf3+0x74>
100016a0:	00000493          	li	s1,0
100016a4:	7ff00a93          	li	s5,2047
100016a8:	00200b93          	li	s7,2
100016ac:	bcdff06f          	j	10001278 <__muldf3+0x74>
100016b0:	016467b3          	or	a5,s0,s6
100016b4:	08078263          	beqz	a5,10001738 <__muldf3+0x534>
100016b8:	04040063          	beqz	s0,100016f8 <__muldf3+0x4f4>
100016bc:	00040513          	mv	a0,s0
100016c0:	0f0020ef          	jal	ra,100037b0 <__clzsi2>
100016c4:	ff550693          	addi	a3,a0,-11
100016c8:	01d00713          	li	a4,29
100016cc:	ff850793          	addi	a5,a0,-8
100016d0:	40d70733          	sub	a4,a4,a3
100016d4:	00f41433          	sll	s0,s0,a5
100016d8:	00eb5733          	srl	a4,s6,a4
100016dc:	00876733          	or	a4,a4,s0
100016e0:	00fb1433          	sll	s0,s6,a5
100016e4:	c0d00693          	li	a3,-1011
100016e8:	00040793          	mv	a5,s0
100016ec:	40a686b3          	sub	a3,a3,a0
100016f0:	00070413          	mv	s0,a4
100016f4:	bc1ff06f          	j	100012b4 <__muldf3+0xb0>
100016f8:	000b0513          	mv	a0,s6
100016fc:	0b4020ef          	jal	ra,100037b0 <__clzsi2>
10001700:	00050793          	mv	a5,a0
10001704:	01578693          	addi	a3,a5,21
10001708:	01c00713          	li	a4,28
1000170c:	02050513          	addi	a0,a0,32
10001710:	fad75ce3          	bge	a4,a3,100016c8 <__muldf3+0x4c4>
10001714:	ff878793          	addi	a5,a5,-8
10001718:	00fb1733          	sll	a4,s6,a5
1000171c:	fc9ff06f          	j	100016e4 <__muldf3+0x4e0>
10001720:	016467b3          	or	a5,s0,s6
10001724:	02078263          	beqz	a5,10001748 <__muldf3+0x544>
10001728:	000b0793          	mv	a5,s6
1000172c:	7ff00693          	li	a3,2047
10001730:	00300613          	li	a2,3
10001734:	b85ff06f          	j	100012b8 <__muldf3+0xb4>
10001738:	00000413          	li	s0,0
1000173c:	00000693          	li	a3,0
10001740:	00100613          	li	a2,1
10001744:	b75ff06f          	j	100012b8 <__muldf3+0xb4>
10001748:	00000413          	li	s0,0
1000174c:	7ff00693          	li	a3,2047
10001750:	00200613          	li	a2,2
10001754:	b65ff06f          	j	100012b8 <__muldf3+0xb4>
10001758:	00100693          	li	a3,1
1000175c:	00e696b3          	sll	a3,a3,a4
10001760:	5306f713          	andi	a4,a3,1328
10001764:	04071863          	bnez	a4,100017b4 <__muldf3+0x5b0>
10001768:	2406f593          	andi	a1,a3,576
1000176c:	10059c63          	bnez	a1,10001884 <__muldf3+0x680>
10001770:	0886f693          	andi	a3,a3,136
10001774:	b6068ae3          	beqz	a3,100012e8 <__muldf3+0xe4>
10001778:	00090813          	mv	a6,s2
1000177c:	00200713          	li	a4,2
10001780:	12e60063          	beq	a2,a4,100018a0 <__muldf3+0x69c>
10001784:	00300713          	li	a4,3
10001788:	10e60663          	beq	a2,a4,10001894 <__muldf3+0x690>
1000178c:	00100713          	li	a4,1
10001790:	dce618e3          	bne	a2,a4,10001560 <__muldf3+0x35c>
10001794:	00000413          	li	s0,0
10001798:	00000713          	li	a4,0
1000179c:	0ac0006f          	j	10001848 <__muldf3+0x644>
100017a0:	00f00693          	li	a3,15
100017a4:	0ed70863          	beq	a4,a3,10001894 <__muldf3+0x690>
100017a8:	00b00693          	li	a3,11
100017ac:	00098813          	mv	a6,s3
100017b0:	fcd704e3          	beq	a4,a3,10001778 <__muldf3+0x574>
100017b4:	00048413          	mv	s0,s1
100017b8:	000a0793          	mv	a5,s4
100017bc:	000b8613          	mv	a2,s7
100017c0:	fbdff06f          	j	1000177c <__muldf3+0x578>
100017c4:	000a8893          	mv	a7,s5
100017c8:	d99ff06f          	j	10001560 <__muldf3+0x35c>
100017cc:	00100613          	li	a2,1
100017d0:	00068c63          	beqz	a3,100017e8 <__muldf3+0x5e4>
100017d4:	40d60633          	sub	a2,a2,a3
100017d8:	03800713          	li	a4,56
100017dc:	fac74ce3          	blt	a4,a2,10001794 <__muldf3+0x590>
100017e0:	01f00713          	li	a4,31
100017e4:	06c74663          	blt	a4,a2,10001850 <__muldf3+0x64c>
100017e8:	41e88893          	addi	a7,a7,1054
100017ec:	00c7d733          	srl	a4,a5,a2
100017f0:	011797b3          	sll	a5,a5,a7
100017f4:	00f037b3          	snez	a5,a5
100017f8:	011418b3          	sll	a7,s0,a7
100017fc:	0117e7b3          	or	a5,a5,a7
10001800:	00e7e7b3          	or	a5,a5,a4
10001804:	00c45433          	srl	s0,s0,a2
10001808:	0077f713          	andi	a4,a5,7
1000180c:	02070063          	beqz	a4,1000182c <__muldf3+0x628>
10001810:	00f7f713          	andi	a4,a5,15
10001814:	00400693          	li	a3,4
10001818:	00d70a63          	beq	a4,a3,1000182c <__muldf3+0x628>
1000181c:	00478713          	addi	a4,a5,4
10001820:	00f736b3          	sltu	a3,a4,a5
10001824:	00d40433          	add	s0,s0,a3
10001828:	00070793          	mv	a5,a4
1000182c:	00800737          	lui	a4,0x800
10001830:	00e47733          	and	a4,s0,a4
10001834:	06071e63          	bnez	a4,100018b0 <__muldf3+0x6ac>
10001838:	01d41713          	slli	a4,s0,0x1d
1000183c:	0037d793          	srli	a5,a5,0x3
10001840:	00f76733          	or	a4,a4,a5
10001844:	00345413          	srli	s0,s0,0x3
10001848:	00000693          	li	a3,0
1000184c:	d75ff06f          	j	100015c0 <__muldf3+0x3bc>
10001850:	fe100713          	li	a4,-31
10001854:	40d70733          	sub	a4,a4,a3
10001858:	02000593          	li	a1,32
1000185c:	00e45733          	srl	a4,s0,a4
10001860:	00000693          	li	a3,0
10001864:	00b60663          	beq	a2,a1,10001870 <__muldf3+0x66c>
10001868:	43e88893          	addi	a7,a7,1086
1000186c:	011416b3          	sll	a3,s0,a7
10001870:	00f6e6b3          	or	a3,a3,a5
10001874:	00d036b3          	snez	a3,a3
10001878:	00d767b3          	or	a5,a4,a3
1000187c:	00000413          	li	s0,0
10001880:	f89ff06f          	j	10001808 <__muldf3+0x604>
10001884:	00080437          	lui	s0,0x80
10001888:	7ff00693          	li	a3,2047
1000188c:	00000813          	li	a6,0
10001890:	d31ff06f          	j	100015c0 <__muldf3+0x3bc>
10001894:	00080437          	lui	s0,0x80
10001898:	00000713          	li	a4,0
1000189c:	fedff06f          	j	10001888 <__muldf3+0x684>
100018a0:	00000413          	li	s0,0
100018a4:	00000713          	li	a4,0
100018a8:	7ff00693          	li	a3,2047
100018ac:	d15ff06f          	j	100015c0 <__muldf3+0x3bc>
100018b0:	00000413          	li	s0,0
100018b4:	00000713          	li	a4,0
100018b8:	00100693          	li	a3,1
100018bc:	d05ff06f          	j	100015c0 <__muldf3+0x3bc>

100018c0 <__subdf3>:
100018c0:	00100837          	lui	a6,0x100
100018c4:	fff80813          	addi	a6,a6,-1 # fffff <__stack_size+0xffeff>
100018c8:	fe010113          	addi	sp,sp,-32
100018cc:	00b878b3          	and	a7,a6,a1
100018d0:	0145d713          	srli	a4,a1,0x14
100018d4:	01d55793          	srli	a5,a0,0x1d
100018d8:	00812c23          	sw	s0,24(sp)
100018dc:	00912a23          	sw	s1,20(sp)
100018e0:	7ff77413          	andi	s0,a4,2047
100018e4:	01f5d493          	srli	s1,a1,0x1f
100018e8:	00389713          	slli	a4,a7,0x3
100018ec:	00d875b3          	and	a1,a6,a3
100018f0:	0146d813          	srli	a6,a3,0x14
100018f4:	00e7e7b3          	or	a5,a5,a4
100018f8:	00359593          	slli	a1,a1,0x3
100018fc:	01d65713          	srli	a4,a2,0x1d
10001900:	00112e23          	sw	ra,28(sp)
10001904:	01212823          	sw	s2,16(sp)
10001908:	01312623          	sw	s3,12(sp)
1000190c:	7ff87813          	andi	a6,a6,2047
10001910:	7ff00893          	li	a7,2047
10001914:	00351513          	slli	a0,a0,0x3
10001918:	01f6d693          	srli	a3,a3,0x1f
1000191c:	00b76733          	or	a4,a4,a1
10001920:	00361613          	slli	a2,a2,0x3
10001924:	07181c63          	bne	a6,a7,1000199c <__subdf3+0xdc>
10001928:	00c768b3          	or	a7,a4,a2
1000192c:	80140593          	addi	a1,s0,-2047 # 7f801 <__stack_size+0x7f701>
10001930:	00088e63          	beqz	a7,1000194c <__subdf3+0x8c>
10001934:	00068313          	mv	t1,a3
10001938:	42d49a63          	bne	s1,a3,10001d6c <__subdf3+0x4ac>
1000193c:	26058863          	beqz	a1,10001bac <__subdf3+0x2ec>
10001940:	76041a63          	bnez	s0,100020b4 <__subdf3+0x7f4>
10001944:	7ff00413          	li	s0,2047
10001948:	1f80006f          	j	10001b40 <__subdf3+0x280>
1000194c:	0016c313          	xori	t1,a3,1
10001950:	42649c63          	bne	s1,t1,10001d88 <__subdf3+0x4c8>
10001954:	24058c63          	beqz	a1,10001bac <__subdf3+0x2ec>
10001958:	fe0406e3          	beqz	s0,10001944 <__subdf3+0x84>
1000195c:	00000793          	li	a5,0
10001960:	00000513          	li	a0,0
10001964:	7ff00413          	li	s0,2047
10001968:	008006b7          	lui	a3,0x800
1000196c:	00d7f6b3          	and	a3,a5,a3
10001970:	74068c63          	beqz	a3,100020c8 <__subdf3+0x808>
10001974:	00140413          	addi	s0,s0,1
10001978:	7ff00713          	li	a4,2047
1000197c:	10e40663          	beq	s0,a4,10001a88 <__subdf3+0x1c8>
10001980:	ff800737          	lui	a4,0xff800
10001984:	fff70713          	addi	a4,a4,-1 # ff7fffff <__BSS_END__$+0xef7f5bb7>
10001988:	00e7f7b3          	and	a5,a5,a4
1000198c:	00355513          	srli	a0,a0,0x3
10001990:	01d79693          	slli	a3,a5,0x1d
10001994:	00a6e6b3          	or	a3,a3,a0
10001998:	6bc0006f          	j	10002054 <__subdf3+0x794>
1000199c:	0016c313          	xori	t1,a3,1
100019a0:	410405b3          	sub	a1,s0,a6
100019a4:	2c649a63          	bne	s1,t1,10001c78 <__subdf3+0x3b8>
100019a8:	12b05863          	blez	a1,10001ad8 <__subdf3+0x218>
100019ac:	06081663          	bnez	a6,10001a18 <__subdf3+0x158>
100019b0:	00c766b3          	or	a3,a4,a2
100019b4:	70068663          	beqz	a3,100020c0 <__subdf3+0x800>
100019b8:	fff58693          	addi	a3,a1,-1 # 7fffff <__stack_size+0x7ffeff>
100019bc:	04069863          	bnez	a3,10001a0c <__subdf3+0x14c>
100019c0:	00c50633          	add	a2,a0,a2
100019c4:	00a636b3          	sltu	a3,a2,a0
100019c8:	00e78733          	add	a4,a5,a4
100019cc:	00d707b3          	add	a5,a4,a3
100019d0:	00800737          	lui	a4,0x800
100019d4:	00e7f733          	and	a4,a5,a4
100019d8:	00060513          	mv	a0,a2
100019dc:	26071863          	bnez	a4,10001c4c <__subdf3+0x38c>
100019e0:	00100413          	li	s0,1
100019e4:	00757713          	andi	a4,a0,7
100019e8:	f80700e3          	beqz	a4,10001968 <__subdf3+0xa8>
100019ec:	00f57713          	andi	a4,a0,15
100019f0:	00400693          	li	a3,4
100019f4:	f6d70ae3          	beq	a4,a3,10001968 <__subdf3+0xa8>
100019f8:	00450713          	addi	a4,a0,4
100019fc:	00a736b3          	sltu	a3,a4,a0
10001a00:	00d787b3          	add	a5,a5,a3
10001a04:	00070513          	mv	a0,a4
10001a08:	f61ff06f          	j	10001968 <__subdf3+0xa8>
10001a0c:	09159263          	bne	a1,a7,10001a90 <__subdf3+0x1d0>
10001a10:	7ff00413          	li	s0,2047
10001a14:	fd1ff06f          	j	100019e4 <__subdf3+0x124>
10001a18:	fd1406e3          	beq	s0,a7,100019e4 <__subdf3+0x124>
10001a1c:	03800693          	li	a3,56
10001a20:	06b6cc63          	blt	a3,a1,10001a98 <__subdf3+0x1d8>
10001a24:	008006b7          	lui	a3,0x800
10001a28:	00d76733          	or	a4,a4,a3
10001a2c:	00058693          	mv	a3,a1
10001a30:	01f00593          	li	a1,31
10001a34:	06d5c863          	blt	a1,a3,10001aa4 <__subdf3+0x1e4>
10001a38:	02000813          	li	a6,32
10001a3c:	40d80833          	sub	a6,a6,a3
10001a40:	00d658b3          	srl	a7,a2,a3
10001a44:	010715b3          	sll	a1,a4,a6
10001a48:	01061833          	sll	a6,a2,a6
10001a4c:	0115e5b3          	or	a1,a1,a7
10001a50:	01003833          	snez	a6,a6
10001a54:	0105e633          	or	a2,a1,a6
10001a58:	00d756b3          	srl	a3,a4,a3
10001a5c:	00a60533          	add	a0,a2,a0
10001a60:	00f686b3          	add	a3,a3,a5
10001a64:	00c53633          	sltu	a2,a0,a2
10001a68:	00c687b3          	add	a5,a3,a2
10001a6c:	00800737          	lui	a4,0x800
10001a70:	00e7f733          	and	a4,a5,a4
10001a74:	f60708e3          	beqz	a4,100019e4 <__subdf3+0x124>
10001a78:	00140413          	addi	s0,s0,1
10001a7c:	7ff00713          	li	a4,2047
10001a80:	1ce41863          	bne	s0,a4,10001c50 <__subdf3+0x390>
10001a84:	7ff00413          	li	s0,2047
10001a88:	00000793          	li	a5,0
10001a8c:	1880006f          	j	10001c14 <__subdf3+0x354>
10001a90:	03800593          	li	a1,56
10001a94:	f8d5dee3          	bge	a1,a3,10001a30 <__subdf3+0x170>
10001a98:	00000693          	li	a3,0
10001a9c:	00100613          	li	a2,1
10001aa0:	fbdff06f          	j	10001a5c <__subdf3+0x19c>
10001aa4:	fe068593          	addi	a1,a3,-32 # 7fffe0 <__stack_size+0x7ffee0>
10001aa8:	02000893          	li	a7,32
10001aac:	00b755b3          	srl	a1,a4,a1
10001ab0:	00000813          	li	a6,0
10001ab4:	01168863          	beq	a3,a7,10001ac4 <__subdf3+0x204>
10001ab8:	04000813          	li	a6,64
10001abc:	40d80833          	sub	a6,a6,a3
10001ac0:	01071833          	sll	a6,a4,a6
10001ac4:	00c86833          	or	a6,a6,a2
10001ac8:	01003833          	snez	a6,a6
10001acc:	0105e633          	or	a2,a1,a6
10001ad0:	00000693          	li	a3,0
10001ad4:	f89ff06f          	j	10001a5c <__subdf3+0x19c>
10001ad8:	0c058a63          	beqz	a1,10001bac <__subdf3+0x2ec>
10001adc:	408806b3          	sub	a3,a6,s0
10001ae0:	04040e63          	beqz	s0,10001b3c <__subdf3+0x27c>
10001ae4:	03800593          	li	a1,56
10001ae8:	08d5c263          	blt	a1,a3,10001b6c <__subdf3+0x2ac>
10001aec:	008005b7          	lui	a1,0x800
10001af0:	00b7e7b3          	or	a5,a5,a1
10001af4:	01f00593          	li	a1,31
10001af8:	08d5c063          	blt	a1,a3,10001b78 <__subdf3+0x2b8>
10001afc:	02000893          	li	a7,32
10001b00:	40d888b3          	sub	a7,a7,a3
10001b04:	011795b3          	sll	a1,a5,a7
10001b08:	00d55333          	srl	t1,a0,a3
10001b0c:	011518b3          	sll	a7,a0,a7
10001b10:	0065e5b3          	or	a1,a1,t1
10001b14:	011038b3          	snez	a7,a7
10001b18:	0115e5b3          	or	a1,a1,a7
10001b1c:	00d7d6b3          	srl	a3,a5,a3
10001b20:	00c58633          	add	a2,a1,a2
10001b24:	00e686b3          	add	a3,a3,a4
10001b28:	00b635b3          	sltu	a1,a2,a1
10001b2c:	00060513          	mv	a0,a2
10001b30:	00b687b3          	add	a5,a3,a1
10001b34:	00080413          	mv	s0,a6
10001b38:	f35ff06f          	j	10001a6c <__subdf3+0x1ac>
10001b3c:	00068413          	mv	s0,a3
10001b40:	00a7e6b3          	or	a3,a5,a0
10001b44:	00068a63          	beqz	a3,10001b58 <__subdf3+0x298>
10001b48:	fff40693          	addi	a3,s0,-1
10001b4c:	e6068ae3          	beqz	a3,100019c0 <__subdf3+0x100>
10001b50:	7ff00593          	li	a1,2047
10001b54:	00b41863          	bne	s0,a1,10001b64 <__subdf3+0x2a4>
10001b58:	00070793          	mv	a5,a4
10001b5c:	00060513          	mv	a0,a2
10001b60:	e85ff06f          	j	100019e4 <__subdf3+0x124>
10001b64:	03800593          	li	a1,56
10001b68:	f8d5d6e3          	bge	a1,a3,10001af4 <__subdf3+0x234>
10001b6c:	00000693          	li	a3,0
10001b70:	00100593          	li	a1,1
10001b74:	fadff06f          	j	10001b20 <__subdf3+0x260>
10001b78:	fe068593          	addi	a1,a3,-32
10001b7c:	02000313          	li	t1,32
10001b80:	00b7d5b3          	srl	a1,a5,a1
10001b84:	00000893          	li	a7,0
10001b88:	00668863          	beq	a3,t1,10001b98 <__subdf3+0x2d8>
10001b8c:	04000893          	li	a7,64
10001b90:	40d888b3          	sub	a7,a7,a3
10001b94:	011798b3          	sll	a7,a5,a7
10001b98:	00a8e8b3          	or	a7,a7,a0
10001b9c:	011038b3          	snez	a7,a7
10001ba0:	0115e5b3          	or	a1,a1,a7
10001ba4:	00000693          	li	a3,0
10001ba8:	f79ff06f          	j	10001b20 <__subdf3+0x260>
10001bac:	00140693          	addi	a3,s0,1
10001bb0:	7fe6f593          	andi	a1,a3,2046
10001bb4:	06059463          	bnez	a1,10001c1c <__subdf3+0x35c>
10001bb8:	00a7e6b3          	or	a3,a5,a0
10001bbc:	04041063          	bnez	s0,10001bfc <__subdf3+0x33c>
10001bc0:	f8068ce3          	beqz	a3,10001b58 <__subdf3+0x298>
10001bc4:	00c766b3          	or	a3,a4,a2
10001bc8:	e0068ee3          	beqz	a3,100019e4 <__subdf3+0x124>
10001bcc:	00c50633          	add	a2,a0,a2
10001bd0:	00a636b3          	sltu	a3,a2,a0
10001bd4:	00e78733          	add	a4,a5,a4
10001bd8:	00d707b3          	add	a5,a4,a3
10001bdc:	00800737          	lui	a4,0x800
10001be0:	00e7f733          	and	a4,a5,a4
10001be4:	00060513          	mv	a0,a2
10001be8:	de070ee3          	beqz	a4,100019e4 <__subdf3+0x124>
10001bec:	ff800737          	lui	a4,0xff800
10001bf0:	fff70713          	addi	a4,a4,-1 # ff7fffff <__BSS_END__$+0xef7f5bb7>
10001bf4:	00e7f7b3          	and	a5,a5,a4
10001bf8:	de9ff06f          	j	100019e0 <__subdf3+0x120>
10001bfc:	4a068c63          	beqz	a3,100020b4 <__subdf3+0x7f4>
10001c00:	00c76633          	or	a2,a4,a2
10001c04:	e00606e3          	beqz	a2,10001a10 <__subdf3+0x150>
10001c08:	00000493          	li	s1,0
10001c0c:	7ff00413          	li	s0,2047
10001c10:	000807b7          	lui	a5,0x80
10001c14:	00000693          	li	a3,0
10001c18:	4400006f          	j	10002058 <__subdf3+0x798>
10001c1c:	7ff00593          	li	a1,2047
10001c20:	e6b682e3          	beq	a3,a1,10001a84 <__subdf3+0x1c4>
10001c24:	00c50633          	add	a2,a0,a2
10001c28:	00a63533          	sltu	a0,a2,a0
10001c2c:	00e78733          	add	a4,a5,a4
10001c30:	00a70733          	add	a4,a4,a0
10001c34:	01f71513          	slli	a0,a4,0x1f
10001c38:	00165613          	srli	a2,a2,0x1
10001c3c:	00c56533          	or	a0,a0,a2
10001c40:	00175793          	srli	a5,a4,0x1
10001c44:	00068413          	mv	s0,a3
10001c48:	d9dff06f          	j	100019e4 <__subdf3+0x124>
10001c4c:	00200413          	li	s0,2
10001c50:	ff800737          	lui	a4,0xff800
10001c54:	fff70713          	addi	a4,a4,-1 # ff7fffff <__BSS_END__$+0xef7f5bb7>
10001c58:	00e7f7b3          	and	a5,a5,a4
10001c5c:	00155713          	srli	a4,a0,0x1
10001c60:	00157513          	andi	a0,a0,1
10001c64:	00a76733          	or	a4,a4,a0
10001c68:	01f79513          	slli	a0,a5,0x1f
10001c6c:	00e56533          	or	a0,a0,a4
10001c70:	0017d793          	srli	a5,a5,0x1
10001c74:	d71ff06f          	j	100019e4 <__subdf3+0x124>
10001c78:	12b05663          	blez	a1,10001da4 <__subdf3+0x4e4>
10001c7c:	04081463          	bnez	a6,10001cc4 <__subdf3+0x404>
10001c80:	00c766b3          	or	a3,a4,a2
10001c84:	42068e63          	beqz	a3,100020c0 <__subdf3+0x800>
10001c88:	fff58693          	addi	a3,a1,-1 # 7fffff <__stack_size+0x7ffeff>
10001c8c:	02069063          	bnez	a3,10001cac <__subdf3+0x3ec>
10001c90:	40c50633          	sub	a2,a0,a2
10001c94:	00c536b3          	sltu	a3,a0,a2
10001c98:	40e78733          	sub	a4,a5,a4
10001c9c:	00060513          	mv	a0,a2
10001ca0:	40d707b3          	sub	a5,a4,a3
10001ca4:	00100413          	li	s0,1
10001ca8:	0740006f          	j	10001d1c <__subdf3+0x45c>
10001cac:	d71582e3          	beq	a1,a7,10001a10 <__subdf3+0x150>
10001cb0:	03800593          	li	a1,56
10001cb4:	02d5d463          	bge	a1,a3,10001cdc <__subdf3+0x41c>
10001cb8:	00000693          	li	a3,0
10001cbc:	00100613          	li	a2,1
10001cc0:	0480006f          	j	10001d08 <__subdf3+0x448>
10001cc4:	d31400e3          	beq	s0,a7,100019e4 <__subdf3+0x124>
10001cc8:	03800693          	li	a3,56
10001ccc:	feb6c6e3          	blt	a3,a1,10001cb8 <__subdf3+0x3f8>
10001cd0:	008006b7          	lui	a3,0x800
10001cd4:	00d76733          	or	a4,a4,a3
10001cd8:	00058693          	mv	a3,a1
10001cdc:	01f00593          	li	a1,31
10001ce0:	04d5cc63          	blt	a1,a3,10001d38 <__subdf3+0x478>
10001ce4:	02000813          	li	a6,32
10001ce8:	40d80833          	sub	a6,a6,a3
10001cec:	00d658b3          	srl	a7,a2,a3
10001cf0:	010715b3          	sll	a1,a4,a6
10001cf4:	01061833          	sll	a6,a2,a6
10001cf8:	0115e5b3          	or	a1,a1,a7
10001cfc:	01003833          	snez	a6,a6
10001d00:	0105e633          	or	a2,a1,a6
10001d04:	00d756b3          	srl	a3,a4,a3
10001d08:	40c50633          	sub	a2,a0,a2
10001d0c:	00c53733          	sltu	a4,a0,a2
10001d10:	40d786b3          	sub	a3,a5,a3
10001d14:	00060513          	mv	a0,a2
10001d18:	40e687b3          	sub	a5,a3,a4
10001d1c:	00800737          	lui	a4,0x800
10001d20:	00e7f6b3          	and	a3,a5,a4
10001d24:	cc0680e3          	beqz	a3,100019e4 <__subdf3+0x124>
10001d28:	fff70713          	addi	a4,a4,-1 # 7fffff <__stack_size+0x7ffeff>
10001d2c:	00e7f9b3          	and	s3,a5,a4
10001d30:	00050913          	mv	s2,a0
10001d34:	23c0006f          	j	10001f70 <__subdf3+0x6b0>
10001d38:	fe068593          	addi	a1,a3,-32 # 7fffe0 <__stack_size+0x7ffee0>
10001d3c:	02000893          	li	a7,32
10001d40:	00b755b3          	srl	a1,a4,a1
10001d44:	00000813          	li	a6,0
10001d48:	01168863          	beq	a3,a7,10001d58 <__subdf3+0x498>
10001d4c:	04000813          	li	a6,64
10001d50:	40d80833          	sub	a6,a6,a3
10001d54:	01071833          	sll	a6,a4,a6
10001d58:	00c86833          	or	a6,a6,a2
10001d5c:	01003833          	snez	a6,a6
10001d60:	0105e633          	or	a2,a1,a6
10001d64:	00000693          	li	a3,0
10001d68:	fa1ff06f          	j	10001d08 <__subdf3+0x448>
10001d6c:	12058c63          	beqz	a1,10001ea4 <__subdf3+0x5e4>
10001d70:	06040663          	beqz	s0,10001ddc <__subdf3+0x51c>
10001d74:	00070793          	mv	a5,a4
10001d78:	00060513          	mv	a0,a2
10001d7c:	7ff00413          	li	s0,2047
10001d80:	00068493          	mv	s1,a3
10001d84:	c61ff06f          	j	100019e4 <__subdf3+0x124>
10001d88:	10058e63          	beqz	a1,10001ea4 <__subdf3+0x5e4>
10001d8c:	04040e63          	beqz	s0,10001de8 <__subdf3+0x528>
10001d90:	00000793          	li	a5,0
10001d94:	00000513          	li	a0,0
10001d98:	7ff00413          	li	s0,2047
10001d9c:	00030493          	mv	s1,t1
10001da0:	bc9ff06f          	j	10001968 <__subdf3+0xa8>
10001da4:	10058063          	beqz	a1,10001ea4 <__subdf3+0x5e4>
10001da8:	408806b3          	sub	a3,a6,s0
10001dac:	06041063          	bnez	s0,10001e0c <__subdf3+0x54c>
10001db0:	00030493          	mv	s1,t1
10001db4:	00068413          	mv	s0,a3
10001db8:	00a7e6b3          	or	a3,a5,a0
10001dbc:	d8068ee3          	beqz	a3,10001b58 <__subdf3+0x298>
10001dc0:	fff40693          	addi	a3,s0,-1
10001dc4:	02069663          	bnez	a3,10001df0 <__subdf3+0x530>
10001dc8:	40a60533          	sub	a0,a2,a0
10001dcc:	40f70733          	sub	a4,a4,a5
10001dd0:	00a63633          	sltu	a2,a2,a0
10001dd4:	40c707b3          	sub	a5,a4,a2
10001dd8:	ecdff06f          	j	10001ca4 <__subdf3+0x3e4>
10001ddc:	00068493          	mv	s1,a3
10001de0:	7ff00413          	li	s0,2047
10001de4:	fd5ff06f          	j	10001db8 <__subdf3+0x4f8>
10001de8:	00030493          	mv	s1,t1
10001dec:	ff5ff06f          	j	10001de0 <__subdf3+0x520>
10001df0:	7ff00593          	li	a1,2047
10001df4:	d6b402e3          	beq	s0,a1,10001b58 <__subdf3+0x298>
10001df8:	03800593          	li	a1,56
10001dfc:	02d5d263          	bge	a1,a3,10001e20 <__subdf3+0x560>
10001e00:	00000693          	li	a3,0
10001e04:	00100593          	li	a1,1
10001e08:	0440006f          	j	10001e4c <__subdf3+0x58c>
10001e0c:	03800593          	li	a1,56
10001e10:	08d5c663          	blt	a1,a3,10001e9c <__subdf3+0x5dc>
10001e14:	008005b7          	lui	a1,0x800
10001e18:	00b7e7b3          	or	a5,a5,a1
10001e1c:	00030493          	mv	s1,t1
10001e20:	01f00593          	li	a1,31
10001e24:	04d5c263          	blt	a1,a3,10001e68 <__subdf3+0x5a8>
10001e28:	02000893          	li	a7,32
10001e2c:	40d888b3          	sub	a7,a7,a3
10001e30:	011795b3          	sll	a1,a5,a7
10001e34:	00d55333          	srl	t1,a0,a3
10001e38:	011518b3          	sll	a7,a0,a7
10001e3c:	0065e5b3          	or	a1,a1,t1
10001e40:	011038b3          	snez	a7,a7
10001e44:	0115e5b3          	or	a1,a1,a7
10001e48:	00d7d6b3          	srl	a3,a5,a3
10001e4c:	40b605b3          	sub	a1,a2,a1
10001e50:	40d706b3          	sub	a3,a4,a3
10001e54:	00b63633          	sltu	a2,a2,a1
10001e58:	00058513          	mv	a0,a1
10001e5c:	40c687b3          	sub	a5,a3,a2
10001e60:	00080413          	mv	s0,a6
10001e64:	eb9ff06f          	j	10001d1c <__subdf3+0x45c>
10001e68:	fe068593          	addi	a1,a3,-32
10001e6c:	02000313          	li	t1,32
10001e70:	00b7d5b3          	srl	a1,a5,a1
10001e74:	00000893          	li	a7,0
10001e78:	00668863          	beq	a3,t1,10001e88 <__subdf3+0x5c8>
10001e7c:	04000893          	li	a7,64
10001e80:	40d888b3          	sub	a7,a7,a3
10001e84:	011798b3          	sll	a7,a5,a7
10001e88:	00a8e8b3          	or	a7,a7,a0
10001e8c:	011038b3          	snez	a7,a7
10001e90:	0115e5b3          	or	a1,a1,a7
10001e94:	00000693          	li	a3,0
10001e98:	fb5ff06f          	j	10001e4c <__subdf3+0x58c>
10001e9c:	00030493          	mv	s1,t1
10001ea0:	f61ff06f          	j	10001e00 <__subdf3+0x540>
10001ea4:	00140693          	addi	a3,s0,1
10001ea8:	7fe6f693          	andi	a3,a3,2046
10001eac:	08069863          	bnez	a3,10001f3c <__subdf3+0x67c>
10001eb0:	00c766b3          	or	a3,a4,a2
10001eb4:	00a7e5b3          	or	a1,a5,a0
10001eb8:	06041263          	bnez	s0,10001f1c <__subdf3+0x65c>
10001ebc:	00059c63          	bnez	a1,10001ed4 <__subdf3+0x614>
10001ec0:	22068a63          	beqz	a3,100020f4 <__subdf3+0x834>
10001ec4:	00070793          	mv	a5,a4
10001ec8:	00060513          	mv	a0,a2
10001ecc:	00030493          	mv	s1,t1
10001ed0:	b15ff06f          	j	100019e4 <__subdf3+0x124>
10001ed4:	b00688e3          	beqz	a3,100019e4 <__subdf3+0x124>
10001ed8:	40c50833          	sub	a6,a0,a2
10001edc:	010536b3          	sltu	a3,a0,a6
10001ee0:	40e785b3          	sub	a1,a5,a4
10001ee4:	40d585b3          	sub	a1,a1,a3
10001ee8:	008006b7          	lui	a3,0x800
10001eec:	00d5f6b3          	and	a3,a1,a3
10001ef0:	00068c63          	beqz	a3,10001f08 <__subdf3+0x648>
10001ef4:	40a60533          	sub	a0,a2,a0
10001ef8:	40f70733          	sub	a4,a4,a5
10001efc:	00a63633          	sltu	a2,a2,a0
10001f00:	40c707b3          	sub	a5,a4,a2
10001f04:	fc9ff06f          	j	10001ecc <__subdf3+0x60c>
10001f08:	00b866b3          	or	a3,a6,a1
10001f0c:	1e068463          	beqz	a3,100020f4 <__subdf3+0x834>
10001f10:	00058793          	mv	a5,a1
10001f14:	00080513          	mv	a0,a6
10001f18:	acdff06f          	j	100019e4 <__subdf3+0x124>
10001f1c:	00059c63          	bnez	a1,10001f34 <__subdf3+0x674>
10001f20:	1c068e63          	beqz	a3,100020fc <__subdf3+0x83c>
10001f24:	00070793          	mv	a5,a4
10001f28:	00060513          	mv	a0,a2
10001f2c:	00030493          	mv	s1,t1
10001f30:	ae1ff06f          	j	10001a10 <__subdf3+0x150>
10001f34:	ac068ee3          	beqz	a3,10001a10 <__subdf3+0x150>
10001f38:	cd1ff06f          	j	10001c08 <__subdf3+0x348>
10001f3c:	40c506b3          	sub	a3,a0,a2
10001f40:	00d535b3          	sltu	a1,a0,a3
10001f44:	40e789b3          	sub	s3,a5,a4
10001f48:	40b989b3          	sub	s3,s3,a1
10001f4c:	008005b7          	lui	a1,0x800
10001f50:	00b9f5b3          	and	a1,s3,a1
10001f54:	00068913          	mv	s2,a3
10001f58:	06058c63          	beqz	a1,10001fd0 <__subdf3+0x710>
10001f5c:	40a60933          	sub	s2,a2,a0
10001f60:	40f70733          	sub	a4,a4,a5
10001f64:	01263633          	sltu	a2,a2,s2
10001f68:	40c709b3          	sub	s3,a4,a2
10001f6c:	00030493          	mv	s1,t1
10001f70:	06098a63          	beqz	s3,10001fe4 <__subdf3+0x724>
10001f74:	00098513          	mv	a0,s3
10001f78:	039010ef          	jal	ra,100037b0 <__clzsi2>
10001f7c:	ff850793          	addi	a5,a0,-8
10001f80:	02000693          	li	a3,32
10001f84:	40f686b3          	sub	a3,a3,a5
10001f88:	00f99733          	sll	a4,s3,a5
10001f8c:	00d956b3          	srl	a3,s2,a3
10001f90:	00e6e6b3          	or	a3,a3,a4
10001f94:	00f919b3          	sll	s3,s2,a5
10001f98:	1087c263          	blt	a5,s0,1000209c <__subdf3+0x7dc>
10001f9c:	408787b3          	sub	a5,a5,s0
10001fa0:	00178793          	addi	a5,a5,1 # 80001 <__stack_size+0x7ff01>
10001fa4:	02000713          	li	a4,32
10001fa8:	40f70733          	sub	a4,a4,a5
10001fac:	00e69533          	sll	a0,a3,a4
10001fb0:	00f9d633          	srl	a2,s3,a5
10001fb4:	00e99733          	sll	a4,s3,a4
10001fb8:	00c56533          	or	a0,a0,a2
10001fbc:	00e03733          	snez	a4,a4
10001fc0:	00e56533          	or	a0,a0,a4
10001fc4:	00f6d7b3          	srl	a5,a3,a5
10001fc8:	00000413          	li	s0,0
10001fcc:	a19ff06f          	j	100019e4 <__subdf3+0x124>
10001fd0:	0136e6b3          	or	a3,a3,s3
10001fd4:	f8069ee3          	bnez	a3,10001f70 <__subdf3+0x6b0>
10001fd8:	00000793          	li	a5,0
10001fdc:	00000413          	li	s0,0
10001fe0:	10c0006f          	j	100020ec <__subdf3+0x82c>
10001fe4:	00090513          	mv	a0,s2
10001fe8:	7c8010ef          	jal	ra,100037b0 <__clzsi2>
10001fec:	01850793          	addi	a5,a0,24
10001ff0:	01f00713          	li	a4,31
10001ff4:	f8f756e3          	bge	a4,a5,10001f80 <__subdf3+0x6c0>
10001ff8:	ff850513          	addi	a0,a0,-8
10001ffc:	00a916b3          	sll	a3,s2,a0
10002000:	0487c063          	blt	a5,s0,10002040 <__subdf3+0x780>
10002004:	40878533          	sub	a0,a5,s0
10002008:	00150793          	addi	a5,a0,1
1000200c:	f8f75ce3          	bge	a4,a5,10001fa4 <__subdf3+0x6e4>
10002010:	fe150513          	addi	a0,a0,-31
10002014:	02000613          	li	a2,32
10002018:	00a6d733          	srl	a4,a3,a0
1000201c:	00000513          	li	a0,0
10002020:	00c78863          	beq	a5,a2,10002030 <__subdf3+0x770>
10002024:	04000513          	li	a0,64
10002028:	40f50533          	sub	a0,a0,a5
1000202c:	00a69533          	sll	a0,a3,a0
10002030:	00a03533          	snez	a0,a0
10002034:	00e56533          	or	a0,a0,a4
10002038:	00000793          	li	a5,0
1000203c:	f8dff06f          	j	10001fc8 <__subdf3+0x708>
10002040:	40f40433          	sub	s0,s0,a5
10002044:	ff8007b7          	lui	a5,0xff800
10002048:	fff78793          	addi	a5,a5,-1 # ff7fffff <__BSS_END__$+0xef7f5bb7>
1000204c:	00f6f7b3          	and	a5,a3,a5
10002050:	01d79693          	slli	a3,a5,0x1d
10002054:	0037d793          	srli	a5,a5,0x3
10002058:	01441713          	slli	a4,s0,0x14
1000205c:	7ff00637          	lui	a2,0x7ff00
10002060:	00c79793          	slli	a5,a5,0xc
10002064:	01c12083          	lw	ra,28(sp)
10002068:	01812403          	lw	s0,24(sp)
1000206c:	00c77733          	and	a4,a4,a2
10002070:	00c7d793          	srli	a5,a5,0xc
10002074:	01f49493          	slli	s1,s1,0x1f
10002078:	00f767b3          	or	a5,a4,a5
1000207c:	0097e733          	or	a4,a5,s1
10002080:	01012903          	lw	s2,16(sp)
10002084:	01412483          	lw	s1,20(sp)
10002088:	00c12983          	lw	s3,12(sp)
1000208c:	00068513          	mv	a0,a3
10002090:	00070593          	mv	a1,a4
10002094:	02010113          	addi	sp,sp,32
10002098:	00008067          	ret
1000209c:	40f40433          	sub	s0,s0,a5
100020a0:	ff8007b7          	lui	a5,0xff800
100020a4:	fff78793          	addi	a5,a5,-1 # ff7fffff <__BSS_END__$+0xef7f5bb7>
100020a8:	00f6f7b3          	and	a5,a3,a5
100020ac:	00098513          	mv	a0,s3
100020b0:	935ff06f          	j	100019e4 <__subdf3+0x124>
100020b4:	00070793          	mv	a5,a4
100020b8:	00060513          	mv	a0,a2
100020bc:	955ff06f          	j	10001a10 <__subdf3+0x150>
100020c0:	00058413          	mv	s0,a1
100020c4:	921ff06f          	j	100019e4 <__subdf3+0x124>
100020c8:	01d79713          	slli	a4,a5,0x1d
100020cc:	00355513          	srli	a0,a0,0x3
100020d0:	7ff00613          	li	a2,2047
100020d4:	00a76733          	or	a4,a4,a0
100020d8:	0037d793          	srli	a5,a5,0x3
100020dc:	02c41863          	bne	s0,a2,1000210c <__subdf3+0x84c>
100020e0:	00f76733          	or	a4,a4,a5
100020e4:	000807b7          	lui	a5,0x80
100020e8:	98070ee3          	beqz	a4,10001a84 <__subdf3+0x1c4>
100020ec:	00000493          	li	s1,0
100020f0:	f69ff06f          	j	10002058 <__subdf3+0x798>
100020f4:	00000793          	li	a5,0
100020f8:	ff5ff06f          	j	100020ec <__subdf3+0x82c>
100020fc:	00000493          	li	s1,0
10002100:	7ff00413          	li	s0,2047
10002104:	000807b7          	lui	a5,0x80
10002108:	f51ff06f          	j	10002058 <__subdf3+0x798>
1000210c:	00070693          	mv	a3,a4
10002110:	f49ff06f          	j	10002058 <__subdf3+0x798>

10002114 <__fixdfsi>:
10002114:	0145d713          	srli	a4,a1,0x14
10002118:	001006b7          	lui	a3,0x100
1000211c:	fff68793          	addi	a5,a3,-1 # fffff <__stack_size+0xffeff>
10002120:	7ff77713          	andi	a4,a4,2047
10002124:	3fe00613          	li	a2,1022
10002128:	00b7f7b3          	and	a5,a5,a1
1000212c:	01f5d593          	srli	a1,a1,0x1f
10002130:	04e65e63          	bge	a2,a4,1000218c <__fixdfsi+0x78>
10002134:	41d00613          	li	a2,1053
10002138:	00e65a63          	bge	a2,a4,1000214c <__fixdfsi+0x38>
1000213c:	80000537          	lui	a0,0x80000
10002140:	fff54513          	not	a0,a0
10002144:	00a58533          	add	a0,a1,a0
10002148:	00008067          	ret
1000214c:	00d7e7b3          	or	a5,a5,a3
10002150:	43300693          	li	a3,1075
10002154:	40e686b3          	sub	a3,a3,a4
10002158:	01f00613          	li	a2,31
1000215c:	02d64063          	blt	a2,a3,1000217c <__fixdfsi+0x68>
10002160:	bed70713          	addi	a4,a4,-1043
10002164:	00e797b3          	sll	a5,a5,a4
10002168:	00d55533          	srl	a0,a0,a3
1000216c:	00a7e533          	or	a0,a5,a0
10002170:	02058063          	beqz	a1,10002190 <__fixdfsi+0x7c>
10002174:	40a00533          	neg	a0,a0
10002178:	00008067          	ret
1000217c:	41300693          	li	a3,1043
10002180:	40e68733          	sub	a4,a3,a4
10002184:	00e7d533          	srl	a0,a5,a4
10002188:	fe9ff06f          	j	10002170 <__fixdfsi+0x5c>
1000218c:	00000513          	li	a0,0
10002190:	00008067          	ret

10002194 <__floatsidf>:
10002194:	ff010113          	addi	sp,sp,-16
10002198:	00112623          	sw	ra,12(sp)
1000219c:	00812423          	sw	s0,8(sp)
100021a0:	00912223          	sw	s1,4(sp)
100021a4:	08050663          	beqz	a0,10002230 <__floatsidf+0x9c>
100021a8:	41f55793          	srai	a5,a0,0x1f
100021ac:	00a7c433          	xor	s0,a5,a0
100021b0:	40f40433          	sub	s0,s0,a5
100021b4:	01f55493          	srli	s1,a0,0x1f
100021b8:	00040513          	mv	a0,s0
100021bc:	5f4010ef          	jal	ra,100037b0 <__clzsi2>
100021c0:	41e00713          	li	a4,1054
100021c4:	00a00793          	li	a5,10
100021c8:	40a70733          	sub	a4,a4,a0
100021cc:	04a7c863          	blt	a5,a0,1000221c <__floatsidf+0x88>
100021d0:	00b00793          	li	a5,11
100021d4:	40a787b3          	sub	a5,a5,a0
100021d8:	01550513          	addi	a0,a0,21 # 80000015 <__BSS_END__$+0x6fff5bcd>
100021dc:	00f457b3          	srl	a5,s0,a5
100021e0:	00a41433          	sll	s0,s0,a0
100021e4:	00048513          	mv	a0,s1
100021e8:	00c79793          	slli	a5,a5,0xc
100021ec:	00c7d793          	srli	a5,a5,0xc
100021f0:	01471713          	slli	a4,a4,0x14
100021f4:	01f51513          	slli	a0,a0,0x1f
100021f8:	00f76733          	or	a4,a4,a5
100021fc:	00c12083          	lw	ra,12(sp)
10002200:	00a767b3          	or	a5,a4,a0
10002204:	00040513          	mv	a0,s0
10002208:	00812403          	lw	s0,8(sp)
1000220c:	00412483          	lw	s1,4(sp)
10002210:	00078593          	mv	a1,a5
10002214:	01010113          	addi	sp,sp,16
10002218:	00008067          	ret
1000221c:	ff550513          	addi	a0,a0,-11
10002220:	00a417b3          	sll	a5,s0,a0
10002224:	00048513          	mv	a0,s1
10002228:	00000413          	li	s0,0
1000222c:	fbdff06f          	j	100021e8 <__floatsidf+0x54>
10002230:	00000713          	li	a4,0
10002234:	00000793          	li	a5,0
10002238:	ff1ff06f          	j	10002228 <__floatsidf+0x94>

1000223c <__addsf3>:
1000223c:	ff010113          	addi	sp,sp,-16
10002240:	00800737          	lui	a4,0x800
10002244:	fff70713          	addi	a4,a4,-1 # 7fffff <__stack_size+0x7ffeff>
10002248:	0175d613          	srli	a2,a1,0x17
1000224c:	00812423          	sw	s0,8(sp)
10002250:	01755413          	srli	s0,a0,0x17
10002254:	00a777b3          	and	a5,a4,a0
10002258:	01212023          	sw	s2,0(sp)
1000225c:	00b77733          	and	a4,a4,a1
10002260:	0ff47413          	zext.b	s0,s0
10002264:	0ff67613          	zext.b	a2,a2
10002268:	00112623          	sw	ra,12(sp)
1000226c:	00912223          	sw	s1,4(sp)
10002270:	01f55913          	srli	s2,a0,0x1f
10002274:	01f5d593          	srli	a1,a1,0x1f
10002278:	00379793          	slli	a5,a5,0x3
1000227c:	00371713          	slli	a4,a4,0x3
10002280:	40c406b3          	sub	a3,s0,a2
10002284:	20b91863          	bne	s2,a1,10002494 <__addsf3+0x258>
10002288:	12d05863          	blez	a3,100023b8 <__addsf3+0x17c>
1000228c:	02061e63          	bnez	a2,100022c8 <__addsf3+0x8c>
10002290:	1e070e63          	beqz	a4,1000248c <__addsf3+0x250>
10002294:	fff68613          	addi	a2,a3,-1
10002298:	02061063          	bnez	a2,100022b8 <__addsf3+0x7c>
1000229c:	00e787b3          	add	a5,a5,a4
100022a0:	04000737          	lui	a4,0x4000
100022a4:	00e7f733          	and	a4,a5,a4
100022a8:	00200413          	li	s0,2
100022ac:	0e071863          	bnez	a4,1000239c <__addsf3+0x160>
100022b0:	00100413          	li	s0,1
100022b4:	0340006f          	j	100022e8 <__addsf3+0xac>
100022b8:	0ff00593          	li	a1,255
100022bc:	02b69063          	bne	a3,a1,100022dc <__addsf3+0xa0>
100022c0:	0ff00413          	li	s0,255
100022c4:	0240006f          	j	100022e8 <__addsf3+0xac>
100022c8:	0ff00613          	li	a2,255
100022cc:	00c40e63          	beq	s0,a2,100022e8 <__addsf3+0xac>
100022d0:	04000637          	lui	a2,0x4000
100022d4:	00c76733          	or	a4,a4,a2
100022d8:	00068613          	mv	a2,a3
100022dc:	01b00693          	li	a3,27
100022e0:	08c6d263          	bge	a3,a2,10002364 <__addsf3+0x128>
100022e4:	00178793          	addi	a5,a5,1 # 80001 <__stack_size+0x7ff01>
100022e8:	0077f713          	andi	a4,a5,7
100022ec:	00070a63          	beqz	a4,10002300 <__addsf3+0xc4>
100022f0:	00f7f713          	andi	a4,a5,15
100022f4:	00400693          	li	a3,4
100022f8:	00d70463          	beq	a4,a3,10002300 <__addsf3+0xc4>
100022fc:	00478793          	addi	a5,a5,4
10002300:	04000737          	lui	a4,0x4000
10002304:	00e7f733          	and	a4,a5,a4
10002308:	38070063          	beqz	a4,10002688 <__addsf3+0x44c>
1000230c:	00140413          	addi	s0,s0,1
10002310:	0ff00713          	li	a4,255
10002314:	00000493          	li	s1,0
10002318:	00e40a63          	beq	s0,a4,1000232c <__addsf3+0xf0>
1000231c:	0037d493          	srli	s1,a5,0x3
10002320:	1f8007b7          	lui	a5,0x1f800
10002324:	fff78793          	addi	a5,a5,-1 # 1f7fffff <__BSS_END__$+0xf7f5bb7>
10002328:	00f4f4b3          	and	s1,s1,a5
1000232c:	01741413          	slli	s0,s0,0x17
10002330:	7f8007b7          	lui	a5,0x7f800
10002334:	00949493          	slli	s1,s1,0x9
10002338:	0094d493          	srli	s1,s1,0x9
1000233c:	00f47433          	and	s0,s0,a5
10002340:	00946433          	or	s0,s0,s1
10002344:	01f91513          	slli	a0,s2,0x1f
10002348:	00c12083          	lw	ra,12(sp)
1000234c:	00a46533          	or	a0,s0,a0
10002350:	00812403          	lw	s0,8(sp)
10002354:	00412483          	lw	s1,4(sp)
10002358:	00012903          	lw	s2,0(sp)
1000235c:	01010113          	addi	sp,sp,16
10002360:	00008067          	ret
10002364:	02000693          	li	a3,32
10002368:	40c686b3          	sub	a3,a3,a2
1000236c:	00c755b3          	srl	a1,a4,a2
10002370:	00d71733          	sll	a4,a4,a3
10002374:	00e03733          	snez	a4,a4
10002378:	00e5e733          	or	a4,a1,a4
1000237c:	00e787b3          	add	a5,a5,a4
10002380:	04000737          	lui	a4,0x4000
10002384:	00e7f733          	and	a4,a5,a4
10002388:	f60700e3          	beqz	a4,100022e8 <__addsf3+0xac>
1000238c:	00140413          	addi	s0,s0,1
10002390:	0ff00713          	li	a4,255
10002394:	00000493          	li	s1,0
10002398:	f8e40ae3          	beq	s0,a4,1000232c <__addsf3+0xf0>
1000239c:	7e000737          	lui	a4,0x7e000
100023a0:	0017f693          	andi	a3,a5,1
100023a4:	fff70713          	addi	a4,a4,-1 # 7dffffff <__BSS_END__$+0x6dff5bb7>
100023a8:	0017d793          	srli	a5,a5,0x1
100023ac:	00e7f7b3          	and	a5,a5,a4
100023b0:	00d7e7b3          	or	a5,a5,a3
100023b4:	f35ff06f          	j	100022e8 <__addsf3+0xac>
100023b8:	06068a63          	beqz	a3,1000242c <__addsf3+0x1f0>
100023bc:	408606b3          	sub	a3,a2,s0
100023c0:	02041063          	bnez	s0,100023e0 <__addsf3+0x1a4>
100023c4:	2a078263          	beqz	a5,10002668 <__addsf3+0x42c>
100023c8:	fff68593          	addi	a1,a3,-1
100023cc:	ec0588e3          	beqz	a1,1000229c <__addsf3+0x60>
100023d0:	0ff00513          	li	a0,255
100023d4:	02a69063          	bne	a3,a0,100023f4 <__addsf3+0x1b8>
100023d8:	00070793          	mv	a5,a4
100023dc:	ee5ff06f          	j	100022c0 <__addsf3+0x84>
100023e0:	0ff00593          	li	a1,255
100023e4:	feb60ae3          	beq	a2,a1,100023d8 <__addsf3+0x19c>
100023e8:	040005b7          	lui	a1,0x4000
100023ec:	00b7e7b3          	or	a5,a5,a1
100023f0:	00068593          	mv	a1,a3
100023f4:	01b00693          	li	a3,27
100023f8:	00b6d863          	bge	a3,a1,10002408 <__addsf3+0x1cc>
100023fc:	00170793          	addi	a5,a4,1
10002400:	00060413          	mv	s0,a2
10002404:	ee5ff06f          	j	100022e8 <__addsf3+0xac>
10002408:	02000693          	li	a3,32
1000240c:	40b686b3          	sub	a3,a3,a1
10002410:	00b7d533          	srl	a0,a5,a1
10002414:	00d797b3          	sll	a5,a5,a3
10002418:	00f037b3          	snez	a5,a5
1000241c:	00f567b3          	or	a5,a0,a5
10002420:	00e787b3          	add	a5,a5,a4
10002424:	00060413          	mv	s0,a2
10002428:	f59ff06f          	j	10002380 <__addsf3+0x144>
1000242c:	00140693          	addi	a3,s0,1
10002430:	0fe6f613          	andi	a2,a3,254
10002434:	04061463          	bnez	a2,1000247c <__addsf3+0x240>
10002438:	02041663          	bnez	s0,10002464 <__addsf3+0x228>
1000243c:	22078a63          	beqz	a5,10002670 <__addsf3+0x434>
10002440:	ea0704e3          	beqz	a4,100022e8 <__addsf3+0xac>
10002444:	00e787b3          	add	a5,a5,a4
10002448:	04000737          	lui	a4,0x4000
1000244c:	00e7f733          	and	a4,a5,a4
10002450:	e8070ce3          	beqz	a4,100022e8 <__addsf3+0xac>
10002454:	fc000737          	lui	a4,0xfc000
10002458:	fff70713          	addi	a4,a4,-1 # fbffffff <__BSS_END__$+0xebff5bb7>
1000245c:	00e7f7b3          	and	a5,a5,a4
10002460:	e51ff06f          	j	100022b0 <__addsf3+0x74>
10002464:	f6078ae3          	beqz	a5,100023d8 <__addsf3+0x19c>
10002468:	e4070ce3          	beqz	a4,100022c0 <__addsf3+0x84>
1000246c:	00000913          	li	s2,0
10002470:	0ff00413          	li	s0,255
10002474:	004004b7          	lui	s1,0x400
10002478:	eb5ff06f          	j	1000232c <__addsf3+0xf0>
1000247c:	0ff00613          	li	a2,255
10002480:	22c68063          	beq	a3,a2,100026a0 <__addsf3+0x464>
10002484:	00e78733          	add	a4,a5,a4
10002488:	00175793          	srli	a5,a4,0x1
1000248c:	00068413          	mv	s0,a3
10002490:	e59ff06f          	j	100022e8 <__addsf3+0xac>
10002494:	08d05063          	blez	a3,10002514 <__addsf3+0x2d8>
10002498:	06061263          	bnez	a2,100024fc <__addsf3+0x2c0>
1000249c:	fe0708e3          	beqz	a4,1000248c <__addsf3+0x250>
100024a0:	fff68613          	addi	a2,a3,-1
100024a4:	00061863          	bnez	a2,100024b4 <__addsf3+0x278>
100024a8:	40e787b3          	sub	a5,a5,a4
100024ac:	00100413          	li	s0,1
100024b0:	0340006f          	j	100024e4 <__addsf3+0x2a8>
100024b4:	0ff00593          	li	a1,255
100024b8:	e0b684e3          	beq	a3,a1,100022c0 <__addsf3+0x84>
100024bc:	01b00593          	li	a1,27
100024c0:	00100693          	li	a3,1
100024c4:	00c5ce63          	blt	a1,a2,100024e0 <__addsf3+0x2a4>
100024c8:	02000693          	li	a3,32
100024cc:	40c686b3          	sub	a3,a3,a2
100024d0:	00c755b3          	srl	a1,a4,a2
100024d4:	00d71733          	sll	a4,a4,a3
100024d8:	00e03733          	snez	a4,a4
100024dc:	00e5e6b3          	or	a3,a1,a4
100024e0:	40d787b3          	sub	a5,a5,a3
100024e4:	040004b7          	lui	s1,0x4000
100024e8:	0097f733          	and	a4,a5,s1
100024ec:	de070ee3          	beqz	a4,100022e8 <__addsf3+0xac>
100024f0:	fff48493          	addi	s1,s1,-1 # 3ffffff <__stack_size+0x3fffeff>
100024f4:	0097f4b3          	and	s1,a5,s1
100024f8:	1140006f          	j	1000260c <__addsf3+0x3d0>
100024fc:	0ff00613          	li	a2,255
10002500:	dec404e3          	beq	s0,a2,100022e8 <__addsf3+0xac>
10002504:	04000637          	lui	a2,0x4000
10002508:	00c76733          	or	a4,a4,a2
1000250c:	00068613          	mv	a2,a3
10002510:	fadff06f          	j	100024bc <__addsf3+0x280>
10002514:	08068063          	beqz	a3,10002594 <__addsf3+0x358>
10002518:	408606b3          	sub	a3,a2,s0
1000251c:	02041863          	bnez	s0,1000254c <__addsf3+0x310>
10002520:	14078c63          	beqz	a5,10002678 <__addsf3+0x43c>
10002524:	fff68513          	addi	a0,a3,-1
10002528:	00051863          	bnez	a0,10002538 <__addsf3+0x2fc>
1000252c:	40f707b3          	sub	a5,a4,a5
10002530:	00058913          	mv	s2,a1
10002534:	f79ff06f          	j	100024ac <__addsf3+0x270>
10002538:	0ff00813          	li	a6,255
1000253c:	03069263          	bne	a3,a6,10002560 <__addsf3+0x324>
10002540:	00070793          	mv	a5,a4
10002544:	0ff00413          	li	s0,255
10002548:	1380006f          	j	10002680 <__addsf3+0x444>
1000254c:	0ff00513          	li	a0,255
10002550:	fea608e3          	beq	a2,a0,10002540 <__addsf3+0x304>
10002554:	04000537          	lui	a0,0x4000
10002558:	00a7e7b3          	or	a5,a5,a0
1000255c:	00068513          	mv	a0,a3
10002560:	01b00813          	li	a6,27
10002564:	00100693          	li	a3,1
10002568:	00a84e63          	blt	a6,a0,10002584 <__addsf3+0x348>
1000256c:	02000693          	li	a3,32
10002570:	40a686b3          	sub	a3,a3,a0
10002574:	00a7d833          	srl	a6,a5,a0
10002578:	00d797b3          	sll	a5,a5,a3
1000257c:	00f037b3          	snez	a5,a5
10002580:	00f866b3          	or	a3,a6,a5
10002584:	40d707b3          	sub	a5,a4,a3
10002588:	00060413          	mv	s0,a2
1000258c:	00058913          	mv	s2,a1
10002590:	f55ff06f          	j	100024e4 <__addsf3+0x2a8>
10002594:	00140693          	addi	a3,s0,1
10002598:	0fe6f693          	andi	a3,a3,254
1000259c:	04069c63          	bnez	a3,100025f4 <__addsf3+0x3b8>
100025a0:	04041063          	bnez	s0,100025e0 <__addsf3+0x3a4>
100025a4:	00079a63          	bnez	a5,100025b8 <__addsf3+0x37c>
100025a8:	00070793          	mv	a5,a4
100025ac:	0c071a63          	bnez	a4,10002680 <__addsf3+0x444>
100025b0:	00000493          	li	s1,0
100025b4:	0240006f          	j	100025d8 <__addsf3+0x39c>
100025b8:	d20708e3          	beqz	a4,100022e8 <__addsf3+0xac>
100025bc:	40e784b3          	sub	s1,a5,a4
100025c0:	040006b7          	lui	a3,0x4000
100025c4:	00d4f6b3          	and	a3,s1,a3
100025c8:	40f707b3          	sub	a5,a4,a5
100025cc:	0a069a63          	bnez	a3,10002680 <__addsf3+0x444>
100025d0:	00048793          	mv	a5,s1
100025d4:	d0049ae3          	bnez	s1,100022e8 <__addsf3+0xac>
100025d8:	00000913          	li	s2,0
100025dc:	d51ff06f          	j	1000232c <__addsf3+0xf0>
100025e0:	e80794e3          	bnez	a5,10002468 <__addsf3+0x22c>
100025e4:	e80704e3          	beqz	a4,1000246c <__addsf3+0x230>
100025e8:	00070793          	mv	a5,a4
100025ec:	00058913          	mv	s2,a1
100025f0:	cd1ff06f          	j	100022c0 <__addsf3+0x84>
100025f4:	40e784b3          	sub	s1,a5,a4
100025f8:	040006b7          	lui	a3,0x4000
100025fc:	00d4f6b3          	and	a3,s1,a3
10002600:	04068463          	beqz	a3,10002648 <__addsf3+0x40c>
10002604:	40f704b3          	sub	s1,a4,a5
10002608:	00058913          	mv	s2,a1
1000260c:	00048513          	mv	a0,s1
10002610:	1a0010ef          	jal	ra,100037b0 <__clzsi2>
10002614:	ffb50513          	addi	a0,a0,-5 # 3fffffb <__stack_size+0x3fffefb>
10002618:	00a494b3          	sll	s1,s1,a0
1000261c:	02854c63          	blt	a0,s0,10002654 <__addsf3+0x418>
10002620:	40850533          	sub	a0,a0,s0
10002624:	00150513          	addi	a0,a0,1
10002628:	02000713          	li	a4,32
1000262c:	40a70733          	sub	a4,a4,a0
10002630:	00a4d7b3          	srl	a5,s1,a0
10002634:	00e494b3          	sll	s1,s1,a4
10002638:	009034b3          	snez	s1,s1
1000263c:	0097e7b3          	or	a5,a5,s1
10002640:	00000413          	li	s0,0
10002644:	ca5ff06f          	j	100022e8 <__addsf3+0xac>
10002648:	fc0492e3          	bnez	s1,1000260c <__addsf3+0x3d0>
1000264c:	00000413          	li	s0,0
10002650:	f89ff06f          	j	100025d8 <__addsf3+0x39c>
10002654:	fc0007b7          	lui	a5,0xfc000
10002658:	fff78793          	addi	a5,a5,-1 # fbffffff <__BSS_END__$+0xebff5bb7>
1000265c:	40a40433          	sub	s0,s0,a0
10002660:	00f4f7b3          	and	a5,s1,a5
10002664:	c85ff06f          	j	100022e8 <__addsf3+0xac>
10002668:	00070793          	mv	a5,a4
1000266c:	e21ff06f          	j	1000248c <__addsf3+0x250>
10002670:	00070793          	mv	a5,a4
10002674:	c75ff06f          	j	100022e8 <__addsf3+0xac>
10002678:	00070793          	mv	a5,a4
1000267c:	00068413          	mv	s0,a3
10002680:	00058913          	mv	s2,a1
10002684:	c65ff06f          	j	100022e8 <__addsf3+0xac>
10002688:	0037d493          	srli	s1,a5,0x3
1000268c:	0ff00793          	li	a5,255
10002690:	c8f41ee3          	bne	s0,a5,1000232c <__addsf3+0xf0>
10002694:	c8048ce3          	beqz	s1,1000232c <__addsf3+0xf0>
10002698:	004004b7          	lui	s1,0x400
1000269c:	f3dff06f          	j	100025d8 <__addsf3+0x39c>
100026a0:	0ff00413          	li	s0,255
100026a4:	00000493          	li	s1,0
100026a8:	c85ff06f          	j	1000232c <__addsf3+0xf0>

100026ac <__divsf3>:
100026ac:	fd010113          	addi	sp,sp,-48
100026b0:	02912223          	sw	s1,36(sp)
100026b4:	01755493          	srli	s1,a0,0x17
100026b8:	03212023          	sw	s2,32(sp)
100026bc:	01512a23          	sw	s5,20(sp)
100026c0:	01612823          	sw	s6,16(sp)
100026c4:	00951a93          	slli	s5,a0,0x9
100026c8:	02112623          	sw	ra,44(sp)
100026cc:	02812423          	sw	s0,40(sp)
100026d0:	01312e23          	sw	s3,28(sp)
100026d4:	01412c23          	sw	s4,24(sp)
100026d8:	01712623          	sw	s7,12(sp)
100026dc:	01812423          	sw	s8,8(sp)
100026e0:	0ff4f493          	zext.b	s1,s1
100026e4:	00058b13          	mv	s6,a1
100026e8:	009ada93          	srli	s5,s5,0x9
100026ec:	01f55913          	srli	s2,a0,0x1f
100026f0:	08048463          	beqz	s1,10002778 <__divsf3+0xcc>
100026f4:	0ff00793          	li	a5,255
100026f8:	0af48063          	beq	s1,a5,10002798 <__divsf3+0xec>
100026fc:	003a9a93          	slli	s5,s5,0x3
10002700:	040007b7          	lui	a5,0x4000
10002704:	00faeab3          	or	s5,s5,a5
10002708:	f8148493          	addi	s1,s1,-127 # 3fff81 <__stack_size+0x3ffe81>
1000270c:	00000b93          	li	s7,0
10002710:	017b5793          	srli	a5,s6,0x17
10002714:	009b1413          	slli	s0,s6,0x9
10002718:	0ff7f793          	zext.b	a5,a5
1000271c:	00945413          	srli	s0,s0,0x9
10002720:	01fb5b13          	srli	s6,s6,0x1f
10002724:	08078a63          	beqz	a5,100027b8 <__divsf3+0x10c>
10002728:	0ff00713          	li	a4,255
1000272c:	0ae78663          	beq	a5,a4,100027d8 <__divsf3+0x12c>
10002730:	00341413          	slli	s0,s0,0x3
10002734:	04000737          	lui	a4,0x4000
10002738:	00e46433          	or	s0,s0,a4
1000273c:	f8178793          	addi	a5,a5,-127 # 3ffff81 <__stack_size+0x3fffe81>
10002740:	00000713          	li	a4,0
10002744:	40f48a33          	sub	s4,s1,a5
10002748:	002b9793          	slli	a5,s7,0x2
1000274c:	00e7e7b3          	or	a5,a5,a4
10002750:	fff78793          	addi	a5,a5,-1
10002754:	00e00693          	li	a3,14
10002758:	016949b3          	xor	s3,s2,s6
1000275c:	0cf6e663          	bltu	a3,a5,10002828 <__divsf3+0x17c>
10002760:	100096b7          	lui	a3,0x10009
10002764:	00279793          	slli	a5,a5,0x2
10002768:	23c68693          	addi	a3,a3,572 # 1000923c <scalbnf+0x184>
1000276c:	00d787b3          	add	a5,a5,a3
10002770:	0007a783          	lw	a5,0(a5)
10002774:	00078067          	jr	a5
10002778:	020a8a63          	beqz	s5,100027ac <__divsf3+0x100>
1000277c:	000a8513          	mv	a0,s5
10002780:	030010ef          	jal	ra,100037b0 <__clzsi2>
10002784:	ffb50793          	addi	a5,a0,-5
10002788:	f8a00493          	li	s1,-118
1000278c:	00fa9ab3          	sll	s5,s5,a5
10002790:	40a484b3          	sub	s1,s1,a0
10002794:	f79ff06f          	j	1000270c <__divsf3+0x60>
10002798:	0ff00493          	li	s1,255
1000279c:	00300b93          	li	s7,3
100027a0:	f60a98e3          	bnez	s5,10002710 <__divsf3+0x64>
100027a4:	00200b93          	li	s7,2
100027a8:	f69ff06f          	j	10002710 <__divsf3+0x64>
100027ac:	00000493          	li	s1,0
100027b0:	00100b93          	li	s7,1
100027b4:	f5dff06f          	j	10002710 <__divsf3+0x64>
100027b8:	02040a63          	beqz	s0,100027ec <__divsf3+0x140>
100027bc:	00040513          	mv	a0,s0
100027c0:	7f1000ef          	jal	ra,100037b0 <__clzsi2>
100027c4:	ffb50793          	addi	a5,a0,-5
100027c8:	00f41433          	sll	s0,s0,a5
100027cc:	f8a00793          	li	a5,-118
100027d0:	40a787b3          	sub	a5,a5,a0
100027d4:	f6dff06f          	j	10002740 <__divsf3+0x94>
100027d8:	0ff00793          	li	a5,255
100027dc:	00300713          	li	a4,3
100027e0:	f60412e3          	bnez	s0,10002744 <__divsf3+0x98>
100027e4:	00200713          	li	a4,2
100027e8:	f5dff06f          	j	10002744 <__divsf3+0x98>
100027ec:	00000793          	li	a5,0
100027f0:	00100713          	li	a4,1
100027f4:	f51ff06f          	j	10002744 <__divsf3+0x98>
100027f8:	00090993          	mv	s3,s2
100027fc:	000a8413          	mv	s0,s5
10002800:	000b8713          	mv	a4,s7
10002804:	00200793          	li	a5,2
10002808:	22f70063          	beq	a4,a5,10002a28 <__divsf3+0x37c>
1000280c:	00300793          	li	a5,3
10002810:	20f70463          	beq	a4,a5,10002a18 <__divsf3+0x36c>
10002814:	00100793          	li	a5,1
10002818:	0ef71c63          	bne	a4,a5,10002910 <__divsf3+0x264>
1000281c:	00000793          	li	a5,0
10002820:	00000713          	li	a4,0
10002824:	1340006f          	j	10002958 <__divsf3+0x2ac>
10002828:	00541c13          	slli	s8,s0,0x5
1000282c:	168afa63          	bgeu	s5,s0,100029a0 <__divsf3+0x2f4>
10002830:	fffa0a13          	addi	s4,s4,-1
10002834:	00000413          	li	s0,0
10002838:	010c5b13          	srli	s6,s8,0x10
1000283c:	00010937          	lui	s2,0x10
10002840:	000b0593          	mv	a1,s6
10002844:	fff90913          	addi	s2,s2,-1 # ffff <__stack_size+0xfeff>
10002848:	000a8513          	mv	a0,s5
1000284c:	6b9000ef          	jal	ra,10003704 <__hidden___udivsi3>
10002850:	012c7933          	and	s2,s8,s2
10002854:	00050593          	mv	a1,a0
10002858:	00050b93          	mv	s7,a0
1000285c:	00090513          	mv	a0,s2
10002860:	679000ef          	jal	ra,100036d8 <__mulsi3>
10002864:	00050493          	mv	s1,a0
10002868:	000b0593          	mv	a1,s6
1000286c:	000a8513          	mv	a0,s5
10002870:	6dd000ef          	jal	ra,1000374c <__umodsi3>
10002874:	01045793          	srli	a5,s0,0x10
10002878:	01051513          	slli	a0,a0,0x10
1000287c:	00a7e7b3          	or	a5,a5,a0
10002880:	000b8413          	mv	s0,s7
10002884:	0097fe63          	bgeu	a5,s1,100028a0 <__divsf3+0x1f4>
10002888:	00fc07b3          	add	a5,s8,a5
1000288c:	fffb8413          	addi	s0,s7,-1
10002890:	0187e863          	bltu	a5,s8,100028a0 <__divsf3+0x1f4>
10002894:	0097f663          	bgeu	a5,s1,100028a0 <__divsf3+0x1f4>
10002898:	ffeb8413          	addi	s0,s7,-2
1000289c:	018787b3          	add	a5,a5,s8
100028a0:	409784b3          	sub	s1,a5,s1
100028a4:	000b0593          	mv	a1,s6
100028a8:	00048513          	mv	a0,s1
100028ac:	659000ef          	jal	ra,10003704 <__hidden___udivsi3>
100028b0:	00050593          	mv	a1,a0
100028b4:	00050a93          	mv	s5,a0
100028b8:	00090513          	mv	a0,s2
100028bc:	61d000ef          	jal	ra,100036d8 <__mulsi3>
100028c0:	00050913          	mv	s2,a0
100028c4:	000b0593          	mv	a1,s6
100028c8:	00048513          	mv	a0,s1
100028cc:	681000ef          	jal	ra,1000374c <__umodsi3>
100028d0:	01051793          	slli	a5,a0,0x10
100028d4:	000a8713          	mv	a4,s5
100028d8:	0327f263          	bgeu	a5,s2,100028fc <__divsf3+0x250>
100028dc:	018786b3          	add	a3,a5,s8
100028e0:	00f6b633          	sltu	a2,a3,a5
100028e4:	fffa8713          	addi	a4,s5,-1
100028e8:	00068793          	mv	a5,a3
100028ec:	00061863          	bnez	a2,100028fc <__divsf3+0x250>
100028f0:	0126f663          	bgeu	a3,s2,100028fc <__divsf3+0x250>
100028f4:	ffea8713          	addi	a4,s5,-2
100028f8:	018687b3          	add	a5,a3,s8
100028fc:	01041413          	slli	s0,s0,0x10
10002900:	412787b3          	sub	a5,a5,s2
10002904:	00e46433          	or	s0,s0,a4
10002908:	00f037b3          	snez	a5,a5
1000290c:	00f46433          	or	s0,s0,a5
10002910:	07fa0713          	addi	a4,s4,127
10002914:	0ae05063          	blez	a4,100029b4 <__divsf3+0x308>
10002918:	00747793          	andi	a5,s0,7
1000291c:	00078a63          	beqz	a5,10002930 <__divsf3+0x284>
10002920:	00f47793          	andi	a5,s0,15
10002924:	00400693          	li	a3,4
10002928:	00d78463          	beq	a5,a3,10002930 <__divsf3+0x284>
1000292c:	00440413          	addi	s0,s0,4
10002930:	080007b7          	lui	a5,0x8000
10002934:	00f477b3          	and	a5,s0,a5
10002938:	00078a63          	beqz	a5,1000294c <__divsf3+0x2a0>
1000293c:	f80007b7          	lui	a5,0xf8000
10002940:	fff78793          	addi	a5,a5,-1 # f7ffffff <__BSS_END__$+0xe7ff5bb7>
10002944:	00f47433          	and	s0,s0,a5
10002948:	080a0713          	addi	a4,s4,128
1000294c:	0fe00793          	li	a5,254
10002950:	0ce7cc63          	blt	a5,a4,10002a28 <__divsf3+0x37c>
10002954:	00345793          	srli	a5,s0,0x3
10002958:	02c12083          	lw	ra,44(sp)
1000295c:	02812403          	lw	s0,40(sp)
10002960:	00979793          	slli	a5,a5,0x9
10002964:	01771713          	slli	a4,a4,0x17
10002968:	0097d793          	srli	a5,a5,0x9
1000296c:	01f99513          	slli	a0,s3,0x1f
10002970:	00f76733          	or	a4,a4,a5
10002974:	02412483          	lw	s1,36(sp)
10002978:	02012903          	lw	s2,32(sp)
1000297c:	01c12983          	lw	s3,28(sp)
10002980:	01812a03          	lw	s4,24(sp)
10002984:	01412a83          	lw	s5,20(sp)
10002988:	01012b03          	lw	s6,16(sp)
1000298c:	00c12b83          	lw	s7,12(sp)
10002990:	00812c03          	lw	s8,8(sp)
10002994:	00a76533          	or	a0,a4,a0
10002998:	03010113          	addi	sp,sp,48
1000299c:	00008067          	ret
100029a0:	01fa9413          	slli	s0,s5,0x1f
100029a4:	001ada93          	srli	s5,s5,0x1
100029a8:	e91ff06f          	j	10002838 <__divsf3+0x18c>
100029ac:	000b0993          	mv	s3,s6
100029b0:	e55ff06f          	j	10002804 <__divsf3+0x158>
100029b4:	00100693          	li	a3,1
100029b8:	00070c63          	beqz	a4,100029d0 <__divsf3+0x324>
100029bc:	40e686b3          	sub	a3,a3,a4
100029c0:	01b00613          	li	a2,27
100029c4:	00000793          	li	a5,0
100029c8:	00000713          	li	a4,0
100029cc:	f8d646e3          	blt	a2,a3,10002958 <__divsf3+0x2ac>
100029d0:	09ea0493          	addi	s1,s4,158
100029d4:	00d456b3          	srl	a3,s0,a3
100029d8:	00941433          	sll	s0,s0,s1
100029dc:	00803433          	snez	s0,s0
100029e0:	0086e7b3          	or	a5,a3,s0
100029e4:	0077f713          	andi	a4,a5,7
100029e8:	00070a63          	beqz	a4,100029fc <__divsf3+0x350>
100029ec:	00f7f713          	andi	a4,a5,15
100029f0:	00400693          	li	a3,4
100029f4:	00d70463          	beq	a4,a3,100029fc <__divsf3+0x350>
100029f8:	00478793          	addi	a5,a5,4
100029fc:	04000737          	lui	a4,0x4000
10002a00:	00e7f733          	and	a4,a5,a4
10002a04:	0037d793          	srli	a5,a5,0x3
10002a08:	f40708e3          	beqz	a4,10002958 <__divsf3+0x2ac>
10002a0c:	00000793          	li	a5,0
10002a10:	00100713          	li	a4,1
10002a14:	f45ff06f          	j	10002958 <__divsf3+0x2ac>
10002a18:	004007b7          	lui	a5,0x400
10002a1c:	0ff00713          	li	a4,255
10002a20:	00000993          	li	s3,0
10002a24:	f35ff06f          	j	10002958 <__divsf3+0x2ac>
10002a28:	00000793          	li	a5,0
10002a2c:	0ff00713          	li	a4,255
10002a30:	f29ff06f          	j	10002958 <__divsf3+0x2ac>

10002a34 <__gesf2>:
10002a34:	00800737          	lui	a4,0x800
10002a38:	fff70713          	addi	a4,a4,-1 # 7fffff <__stack_size+0x7ffeff>
10002a3c:	01755693          	srli	a3,a0,0x17
10002a40:	00a77633          	and	a2,a4,a0
10002a44:	01f55793          	srli	a5,a0,0x1f
10002a48:	0ff6f693          	zext.b	a3,a3
10002a4c:	0175d513          	srli	a0,a1,0x17
10002a50:	0ff00813          	li	a6,255
10002a54:	00b77733          	and	a4,a4,a1
10002a58:	0ff57513          	zext.b	a0,a0
10002a5c:	01f5d593          	srli	a1,a1,0x1f
10002a60:	03069863          	bne	a3,a6,10002a90 <__gesf2+0x5c>
10002a64:	08061e63          	bnez	a2,10002b00 <__gesf2+0xcc>
10002a68:	00d50a63          	beq	a0,a3,10002a7c <__gesf2+0x48>
10002a6c:	00100513          	li	a0,1
10002a70:	06078c63          	beqz	a5,10002ae8 <__gesf2+0xb4>
10002a74:	fff00513          	li	a0,-1
10002a78:	00008067          	ret
10002a7c:	ffe00513          	li	a0,-2
10002a80:	06071463          	bnez	a4,10002ae8 <__gesf2+0xb4>
10002a84:	feb794e3          	bne	a5,a1,10002a6c <__gesf2+0x38>
10002a88:	00000513          	li	a0,0
10002a8c:	00008067          	ret
10002a90:	03051463          	bne	a0,a6,10002ab8 <__gesf2+0x84>
10002a94:	ffe00513          	li	a0,-2
10002a98:	04071863          	bnez	a4,10002ae8 <__gesf2+0xb4>
10002a9c:	00069463          	bnez	a3,10002aa4 <__gesf2+0x70>
10002aa0:	04060863          	beqz	a2,10002af0 <__gesf2+0xbc>
10002aa4:	fcb794e3          	bne	a5,a1,10002a6c <__gesf2+0x38>
10002aa8:	fff00513          	li	a0,-1
10002aac:	02078e63          	beqz	a5,10002ae8 <__gesf2+0xb4>
10002ab0:	00078513          	mv	a0,a5
10002ab4:	00008067          	ret
10002ab8:	02068263          	beqz	a3,10002adc <__gesf2+0xa8>
10002abc:	fa0508e3          	beqz	a0,10002a6c <__gesf2+0x38>
10002ac0:	fab796e3          	bne	a5,a1,10002a6c <__gesf2+0x38>
10002ac4:	fad544e3          	blt	a0,a3,10002a6c <__gesf2+0x38>
10002ac8:	fea6c0e3          	blt	a3,a0,10002aa8 <__gesf2+0x74>
10002acc:	fac760e3          	bltu	a4,a2,10002a6c <__gesf2+0x38>
10002ad0:	00000513          	li	a0,0
10002ad4:	00e67a63          	bgeu	a2,a4,10002ae8 <__gesf2+0xb4>
10002ad8:	fd1ff06f          	j	10002aa8 <__gesf2+0x74>
10002adc:	fc0512e3          	bnez	a0,10002aa0 <__gesf2+0x6c>
10002ae0:	00071663          	bnez	a4,10002aec <__gesf2+0xb8>
10002ae4:	f80614e3          	bnez	a2,10002a6c <__gesf2+0x38>
10002ae8:	00008067          	ret
10002aec:	00061e63          	bnez	a2,10002b08 <__gesf2+0xd4>
10002af0:	fff00513          	li	a0,-1
10002af4:	fe058ae3          	beqz	a1,10002ae8 <__gesf2+0xb4>
10002af8:	00058513          	mv	a0,a1
10002afc:	00008067          	ret
10002b00:	ffe00513          	li	a0,-2
10002b04:	00008067          	ret
10002b08:	fcb782e3          	beq	a5,a1,10002acc <__gesf2+0x98>
10002b0c:	f61ff06f          	j	10002a6c <__gesf2+0x38>

10002b10 <__lesf2>:
10002b10:	00800737          	lui	a4,0x800
10002b14:	fff70713          	addi	a4,a4,-1 # 7fffff <__stack_size+0x7ffeff>
10002b18:	01755693          	srli	a3,a0,0x17
10002b1c:	00a77633          	and	a2,a4,a0
10002b20:	01f55793          	srli	a5,a0,0x1f
10002b24:	0ff6f693          	zext.b	a3,a3
10002b28:	0175d513          	srli	a0,a1,0x17
10002b2c:	0ff00813          	li	a6,255
10002b30:	00b77733          	and	a4,a4,a1
10002b34:	0ff57513          	zext.b	a0,a0
10002b38:	01f5d593          	srli	a1,a1,0x1f
10002b3c:	03069863          	bne	a3,a6,10002b6c <__lesf2+0x5c>
10002b40:	08061e63          	bnez	a2,10002bdc <__lesf2+0xcc>
10002b44:	00d50a63          	beq	a0,a3,10002b58 <__lesf2+0x48>
10002b48:	00100513          	li	a0,1
10002b4c:	06078c63          	beqz	a5,10002bc4 <__lesf2+0xb4>
10002b50:	fff00513          	li	a0,-1
10002b54:	00008067          	ret
10002b58:	00200513          	li	a0,2
10002b5c:	06071463          	bnez	a4,10002bc4 <__lesf2+0xb4>
10002b60:	feb794e3          	bne	a5,a1,10002b48 <__lesf2+0x38>
10002b64:	00000513          	li	a0,0
10002b68:	00008067          	ret
10002b6c:	03051463          	bne	a0,a6,10002b94 <__lesf2+0x84>
10002b70:	00200513          	li	a0,2
10002b74:	04071863          	bnez	a4,10002bc4 <__lesf2+0xb4>
10002b78:	00069463          	bnez	a3,10002b80 <__lesf2+0x70>
10002b7c:	04060863          	beqz	a2,10002bcc <__lesf2+0xbc>
10002b80:	fcb794e3          	bne	a5,a1,10002b48 <__lesf2+0x38>
10002b84:	fff00513          	li	a0,-1
10002b88:	02078e63          	beqz	a5,10002bc4 <__lesf2+0xb4>
10002b8c:	00078513          	mv	a0,a5
10002b90:	00008067          	ret
10002b94:	02068263          	beqz	a3,10002bb8 <__lesf2+0xa8>
10002b98:	fa0508e3          	beqz	a0,10002b48 <__lesf2+0x38>
10002b9c:	fab796e3          	bne	a5,a1,10002b48 <__lesf2+0x38>
10002ba0:	fad544e3          	blt	a0,a3,10002b48 <__lesf2+0x38>
10002ba4:	fea6c0e3          	blt	a3,a0,10002b84 <__lesf2+0x74>
10002ba8:	fac760e3          	bltu	a4,a2,10002b48 <__lesf2+0x38>
10002bac:	00000513          	li	a0,0
10002bb0:	00e67a63          	bgeu	a2,a4,10002bc4 <__lesf2+0xb4>
10002bb4:	fd1ff06f          	j	10002b84 <__lesf2+0x74>
10002bb8:	fc0512e3          	bnez	a0,10002b7c <__lesf2+0x6c>
10002bbc:	00071663          	bnez	a4,10002bc8 <__lesf2+0xb8>
10002bc0:	f80614e3          	bnez	a2,10002b48 <__lesf2+0x38>
10002bc4:	00008067          	ret
10002bc8:	00061e63          	bnez	a2,10002be4 <__lesf2+0xd4>
10002bcc:	fff00513          	li	a0,-1
10002bd0:	fe058ae3          	beqz	a1,10002bc4 <__lesf2+0xb4>
10002bd4:	00058513          	mv	a0,a1
10002bd8:	00008067          	ret
10002bdc:	00200513          	li	a0,2
10002be0:	00008067          	ret
10002be4:	fcb782e3          	beq	a5,a1,10002ba8 <__lesf2+0x98>
10002be8:	f61ff06f          	j	10002b48 <__lesf2+0x38>

10002bec <__mulsf3>:
10002bec:	fe010113          	addi	sp,sp,-32
10002bf0:	01212823          	sw	s2,16(sp)
10002bf4:	01755913          	srli	s2,a0,0x17
10002bf8:	00912a23          	sw	s1,20(sp)
10002bfc:	01312623          	sw	s3,12(sp)
10002c00:	01512223          	sw	s5,4(sp)
10002c04:	00951493          	slli	s1,a0,0x9
10002c08:	00112e23          	sw	ra,28(sp)
10002c0c:	00812c23          	sw	s0,24(sp)
10002c10:	01412423          	sw	s4,8(sp)
10002c14:	0ff97913          	zext.b	s2,s2
10002c18:	00058a93          	mv	s5,a1
10002c1c:	0094d493          	srli	s1,s1,0x9
10002c20:	01f55993          	srli	s3,a0,0x1f
10002c24:	1a090e63          	beqz	s2,10002de0 <__mulsf3+0x1f4>
10002c28:	0ff00793          	li	a5,255
10002c2c:	1cf90a63          	beq	s2,a5,10002e00 <__mulsf3+0x214>
10002c30:	00349493          	slli	s1,s1,0x3
10002c34:	040007b7          	lui	a5,0x4000
10002c38:	00f4e4b3          	or	s1,s1,a5
10002c3c:	f8190913          	addi	s2,s2,-127
10002c40:	00000a13          	li	s4,0
10002c44:	017ad793          	srli	a5,s5,0x17
10002c48:	009a9413          	slli	s0,s5,0x9
10002c4c:	0ff7f793          	zext.b	a5,a5
10002c50:	00945413          	srli	s0,s0,0x9
10002c54:	01fada93          	srli	s5,s5,0x1f
10002c58:	1c078463          	beqz	a5,10002e20 <__mulsf3+0x234>
10002c5c:	0ff00713          	li	a4,255
10002c60:	1ee78063          	beq	a5,a4,10002e40 <__mulsf3+0x254>
10002c64:	00341413          	slli	s0,s0,0x3
10002c68:	04000737          	lui	a4,0x4000
10002c6c:	00e46433          	or	s0,s0,a4
10002c70:	f8178793          	addi	a5,a5,-127 # 3ffff81 <__stack_size+0x3fffe81>
10002c74:	00000713          	li	a4,0
10002c78:	00f90933          	add	s2,s2,a5
10002c7c:	002a1793          	slli	a5,s4,0x2
10002c80:	00e7e7b3          	or	a5,a5,a4
10002c84:	00a00693          	li	a3,10
10002c88:	0159c833          	xor	a6,s3,s5
10002c8c:	00190893          	addi	a7,s2,1
10002c90:	20f6cc63          	blt	a3,a5,10002ea8 <__mulsf3+0x2bc>
10002c94:	00200693          	li	a3,2
10002c98:	1cf6c463          	blt	a3,a5,10002e60 <__mulsf3+0x274>
10002c9c:	fff78793          	addi	a5,a5,-1
10002ca0:	00100693          	li	a3,1
10002ca4:	1ef6f063          	bgeu	a3,a5,10002e84 <__mulsf3+0x298>
10002ca8:	00010eb7          	lui	t4,0x10
10002cac:	fffe8313          	addi	t1,t4,-1 # ffff <__stack_size+0xfeff>
10002cb0:	0104df93          	srli	t6,s1,0x10
10002cb4:	01045f13          	srli	t5,s0,0x10
10002cb8:	0064f4b3          	and	s1,s1,t1
10002cbc:	00647433          	and	s0,s0,t1
10002cc0:	00048513          	mv	a0,s1
10002cc4:	00040593          	mv	a1,s0
10002cc8:	211000ef          	jal	ra,100036d8 <__mulsi3>
10002ccc:	00050713          	mv	a4,a0
10002cd0:	000f0593          	mv	a1,t5
10002cd4:	00048513          	mv	a0,s1
10002cd8:	201000ef          	jal	ra,100036d8 <__mulsi3>
10002cdc:	00050793          	mv	a5,a0
10002ce0:	00040593          	mv	a1,s0
10002ce4:	000f8513          	mv	a0,t6
10002ce8:	1f1000ef          	jal	ra,100036d8 <__mulsi3>
10002cec:	00050e13          	mv	t3,a0
10002cf0:	000f0593          	mv	a1,t5
10002cf4:	000f8513          	mv	a0,t6
10002cf8:	1e1000ef          	jal	ra,100036d8 <__mulsi3>
10002cfc:	01075413          	srli	s0,a4,0x10
10002d00:	01c787b3          	add	a5,a5,t3
10002d04:	00f40433          	add	s0,s0,a5
10002d08:	00050693          	mv	a3,a0
10002d0c:	01c47463          	bgeu	s0,t3,10002d14 <__mulsf3+0x128>
10002d10:	01d506b3          	add	a3,a0,t4
10002d14:	006477b3          	and	a5,s0,t1
10002d18:	00677733          	and	a4,a4,t1
10002d1c:	01079793          	slli	a5,a5,0x10
10002d20:	00e787b3          	add	a5,a5,a4
10002d24:	00679713          	slli	a4,a5,0x6
10002d28:	01045413          	srli	s0,s0,0x10
10002d2c:	00e03733          	snez	a4,a4
10002d30:	01a7d793          	srli	a5,a5,0x1a
10002d34:	00d40433          	add	s0,s0,a3
10002d38:	00f767b3          	or	a5,a4,a5
10002d3c:	00641413          	slli	s0,s0,0x6
10002d40:	00f46433          	or	s0,s0,a5
10002d44:	080007b7          	lui	a5,0x8000
10002d48:	00f477b3          	and	a5,s0,a5
10002d4c:	16078e63          	beqz	a5,10002ec8 <__mulsf3+0x2dc>
10002d50:	00145793          	srli	a5,s0,0x1
10002d54:	00147413          	andi	s0,s0,1
10002d58:	0087e433          	or	s0,a5,s0
10002d5c:	07f88513          	addi	a0,a7,127
10002d60:	16a05863          	blez	a0,10002ed0 <__mulsf3+0x2e4>
10002d64:	00747793          	andi	a5,s0,7
10002d68:	00078a63          	beqz	a5,10002d7c <__mulsf3+0x190>
10002d6c:	00f47793          	andi	a5,s0,15
10002d70:	00400713          	li	a4,4
10002d74:	00e78463          	beq	a5,a4,10002d7c <__mulsf3+0x190>
10002d78:	00440413          	addi	s0,s0,4
10002d7c:	080007b7          	lui	a5,0x8000
10002d80:	00f477b3          	and	a5,s0,a5
10002d84:	00078a63          	beqz	a5,10002d98 <__mulsf3+0x1ac>
10002d88:	f80007b7          	lui	a5,0xf8000
10002d8c:	fff78793          	addi	a5,a5,-1 # f7ffffff <__BSS_END__$+0xe7ff5bb7>
10002d90:	00f47433          	and	s0,s0,a5
10002d94:	08088513          	addi	a0,a7,128
10002d98:	0fe00793          	li	a5,254
10002d9c:	1aa7c463          	blt	a5,a0,10002f44 <__mulsf3+0x358>
10002da0:	00345793          	srli	a5,s0,0x3
10002da4:	01c12083          	lw	ra,28(sp)
10002da8:	01812403          	lw	s0,24(sp)
10002dac:	00979793          	slli	a5,a5,0x9
10002db0:	01751513          	slli	a0,a0,0x17
10002db4:	0097d793          	srli	a5,a5,0x9
10002db8:	00f56533          	or	a0,a0,a5
10002dbc:	01f81813          	slli	a6,a6,0x1f
10002dc0:	01412483          	lw	s1,20(sp)
10002dc4:	01012903          	lw	s2,16(sp)
10002dc8:	00c12983          	lw	s3,12(sp)
10002dcc:	00812a03          	lw	s4,8(sp)
10002dd0:	00412a83          	lw	s5,4(sp)
10002dd4:	01056533          	or	a0,a0,a6
10002dd8:	02010113          	addi	sp,sp,32
10002ddc:	00008067          	ret
10002de0:	02048a63          	beqz	s1,10002e14 <__mulsf3+0x228>
10002de4:	00048513          	mv	a0,s1
10002de8:	1c9000ef          	jal	ra,100037b0 <__clzsi2>
10002dec:	ffb50793          	addi	a5,a0,-5
10002df0:	f8a00913          	li	s2,-118
10002df4:	00f494b3          	sll	s1,s1,a5
10002df8:	40a90933          	sub	s2,s2,a0
10002dfc:	e45ff06f          	j	10002c40 <__mulsf3+0x54>
10002e00:	0ff00913          	li	s2,255
10002e04:	00300a13          	li	s4,3
10002e08:	e2049ee3          	bnez	s1,10002c44 <__mulsf3+0x58>
10002e0c:	00200a13          	li	s4,2
10002e10:	e35ff06f          	j	10002c44 <__mulsf3+0x58>
10002e14:	00000913          	li	s2,0
10002e18:	00100a13          	li	s4,1
10002e1c:	e29ff06f          	j	10002c44 <__mulsf3+0x58>
10002e20:	02040a63          	beqz	s0,10002e54 <__mulsf3+0x268>
10002e24:	00040513          	mv	a0,s0
10002e28:	189000ef          	jal	ra,100037b0 <__clzsi2>
10002e2c:	ffb50793          	addi	a5,a0,-5
10002e30:	00f41433          	sll	s0,s0,a5
10002e34:	f8a00793          	li	a5,-118
10002e38:	40a787b3          	sub	a5,a5,a0
10002e3c:	e39ff06f          	j	10002c74 <__mulsf3+0x88>
10002e40:	0ff00793          	li	a5,255
10002e44:	00300713          	li	a4,3
10002e48:	e20418e3          	bnez	s0,10002c78 <__mulsf3+0x8c>
10002e4c:	00200713          	li	a4,2
10002e50:	e29ff06f          	j	10002c78 <__mulsf3+0x8c>
10002e54:	00000793          	li	a5,0
10002e58:	00100713          	li	a4,1
10002e5c:	e1dff06f          	j	10002c78 <__mulsf3+0x8c>
10002e60:	00100693          	li	a3,1
10002e64:	00f697b3          	sll	a5,a3,a5
10002e68:	5307f693          	andi	a3,a5,1328
10002e6c:	04069863          	bnez	a3,10002ebc <__mulsf3+0x2d0>
10002e70:	2407f693          	andi	a3,a5,576
10002e74:	0c069063          	bnez	a3,10002f34 <__mulsf3+0x348>
10002e78:	0887f793          	andi	a5,a5,136
10002e7c:	e20786e3          	beqz	a5,10002ca8 <__mulsf3+0xbc>
10002e80:	000a8813          	mv	a6,s5
10002e84:	00200793          	li	a5,2
10002e88:	0af70e63          	beq	a4,a5,10002f44 <__mulsf3+0x358>
10002e8c:	00300793          	li	a5,3
10002e90:	0af70263          	beq	a4,a5,10002f34 <__mulsf3+0x348>
10002e94:	00100793          	li	a5,1
10002e98:	ecf712e3          	bne	a4,a5,10002d5c <__mulsf3+0x170>
10002e9c:	00000793          	li	a5,0
10002ea0:	00000513          	li	a0,0
10002ea4:	f01ff06f          	j	10002da4 <__mulsf3+0x1b8>
10002ea8:	00f00693          	li	a3,15
10002eac:	08d78463          	beq	a5,a3,10002f34 <__mulsf3+0x348>
10002eb0:	00b00693          	li	a3,11
10002eb4:	00098813          	mv	a6,s3
10002eb8:	fcd784e3          	beq	a5,a3,10002e80 <__mulsf3+0x294>
10002ebc:	00048413          	mv	s0,s1
10002ec0:	000a0713          	mv	a4,s4
10002ec4:	fc1ff06f          	j	10002e84 <__mulsf3+0x298>
10002ec8:	00090893          	mv	a7,s2
10002ecc:	e91ff06f          	j	10002d5c <__mulsf3+0x170>
10002ed0:	00100713          	li	a4,1
10002ed4:	00050c63          	beqz	a0,10002eec <__mulsf3+0x300>
10002ed8:	40a70733          	sub	a4,a4,a0
10002edc:	01b00693          	li	a3,27
10002ee0:	00000793          	li	a5,0
10002ee4:	00000513          	li	a0,0
10002ee8:	eae6cee3          	blt	a3,a4,10002da4 <__mulsf3+0x1b8>
10002eec:	09e88893          	addi	a7,a7,158
10002ef0:	00e45733          	srl	a4,s0,a4
10002ef4:	01141433          	sll	s0,s0,a7
10002ef8:	00803433          	snez	s0,s0
10002efc:	008767b3          	or	a5,a4,s0
10002f00:	0077f713          	andi	a4,a5,7
10002f04:	00070a63          	beqz	a4,10002f18 <__mulsf3+0x32c>
10002f08:	00f7f713          	andi	a4,a5,15
10002f0c:	00400693          	li	a3,4
10002f10:	00d70463          	beq	a4,a3,10002f18 <__mulsf3+0x32c>
10002f14:	00478793          	addi	a5,a5,4
10002f18:	04000737          	lui	a4,0x4000
10002f1c:	00e7f733          	and	a4,a5,a4
10002f20:	0037d793          	srli	a5,a5,0x3
10002f24:	f6070ee3          	beqz	a4,10002ea0 <__mulsf3+0x2b4>
10002f28:	00000793          	li	a5,0
10002f2c:	00100513          	li	a0,1
10002f30:	e75ff06f          	j	10002da4 <__mulsf3+0x1b8>
10002f34:	004007b7          	lui	a5,0x400
10002f38:	0ff00513          	li	a0,255
10002f3c:	00000813          	li	a6,0
10002f40:	e65ff06f          	j	10002da4 <__mulsf3+0x1b8>
10002f44:	00000793          	li	a5,0
10002f48:	0ff00513          	li	a0,255
10002f4c:	e59ff06f          	j	10002da4 <__mulsf3+0x1b8>

10002f50 <__subsf3>:
10002f50:	00800737          	lui	a4,0x800
10002f54:	ff010113          	addi	sp,sp,-16
10002f58:	01755793          	srli	a5,a0,0x17
10002f5c:	fff70713          	addi	a4,a4,-1 # 7fffff <__stack_size+0x7ffeff>
10002f60:	0175d613          	srli	a2,a1,0x17
10002f64:	00912223          	sw	s1,4(sp)
10002f68:	01212023          	sw	s2,0(sp)
10002f6c:	00a776b3          	and	a3,a4,a0
10002f70:	0ff7f913          	zext.b	s2,a5
10002f74:	00112623          	sw	ra,12(sp)
10002f78:	00b777b3          	and	a5,a4,a1
10002f7c:	00812423          	sw	s0,8(sp)
10002f80:	0ff67613          	zext.b	a2,a2
10002f84:	0ff00813          	li	a6,255
10002f88:	01f55493          	srli	s1,a0,0x1f
10002f8c:	01f5d593          	srli	a1,a1,0x1f
10002f90:	00369513          	slli	a0,a3,0x3
10002f94:	00379793          	slli	a5,a5,0x3
10002f98:	09061e63          	bne	a2,a6,10003034 <__subsf3+0xe4>
10002f9c:	f0190713          	addi	a4,s2,-255
10002fa0:	00078e63          	beqz	a5,10002fbc <__subsf3+0x6c>
10002fa4:	00058693          	mv	a3,a1
10002fa8:	2ab49063          	bne	s1,a1,10003248 <__subsf3+0x2f8>
10002fac:	1c070463          	beqz	a4,10003174 <__subsf3+0x224>
10002fb0:	0c091463          	bnez	s2,10003078 <__subsf3+0x128>
10002fb4:	0ff00913          	li	s2,255
10002fb8:	1700006f          	j	10003128 <__subsf3+0x1d8>
10002fbc:	0015c693          	xori	a3,a1,1
10002fc0:	28d49e63          	bne	s1,a3,1000325c <__subsf3+0x30c>
10002fc4:	1a070863          	beqz	a4,10003174 <__subsf3+0x224>
10002fc8:	fe0906e3          	beqz	s2,10002fb4 <__subsf3+0x64>
10002fcc:	0ff00913          	li	s2,255
10002fd0:	04000737          	lui	a4,0x4000
10002fd4:	00e7f733          	and	a4,a5,a4
10002fd8:	40070463          	beqz	a4,100033e0 <__subsf3+0x490>
10002fdc:	00190913          	addi	s2,s2,1
10002fe0:	0ff00713          	li	a4,255
10002fe4:	00000413          	li	s0,0
10002fe8:	00e90a63          	beq	s2,a4,10002ffc <__subsf3+0xac>
10002fec:	0037d413          	srli	s0,a5,0x3
10002ff0:	1f8007b7          	lui	a5,0x1f800
10002ff4:	fff78793          	addi	a5,a5,-1 # 1f7fffff <__BSS_END__$+0xf7f5bb7>
10002ff8:	00f47433          	and	s0,s0,a5
10002ffc:	01791793          	slli	a5,s2,0x17
10003000:	7f800737          	lui	a4,0x7f800
10003004:	00941413          	slli	s0,s0,0x9
10003008:	00945413          	srli	s0,s0,0x9
1000300c:	00e7f7b3          	and	a5,a5,a4
10003010:	00c12083          	lw	ra,12(sp)
10003014:	0087e7b3          	or	a5,a5,s0
10003018:	00812403          	lw	s0,8(sp)
1000301c:	01f49513          	slli	a0,s1,0x1f
10003020:	00012903          	lw	s2,0(sp)
10003024:	00412483          	lw	s1,4(sp)
10003028:	00a7e533          	or	a0,a5,a0
1000302c:	01010113          	addi	sp,sp,16
10003030:	00008067          	ret
10003034:	0015c693          	xori	a3,a1,1
10003038:	40c90733          	sub	a4,s2,a2
1000303c:	18d49a63          	bne	s1,a3,100031d0 <__subsf3+0x280>
10003040:	0ce05663          	blez	a4,1000310c <__subsf3+0x1bc>
10003044:	02061e63          	bnez	a2,10003080 <__subsf3+0x130>
10003048:	38078463          	beqz	a5,100033d0 <__subsf3+0x480>
1000304c:	fff70693          	addi	a3,a4,-1 # 7f7fffff <__BSS_END__$+0x6f7f5bb7>
10003050:	02069063          	bnez	a3,10003070 <__subsf3+0x120>
10003054:	00a787b3          	add	a5,a5,a0
10003058:	04000737          	lui	a4,0x4000
1000305c:	00e7f733          	and	a4,a5,a4
10003060:	00200913          	li	s2,2
10003064:	08071663          	bnez	a4,100030f0 <__subsf3+0x1a0>
10003068:	00100913          	li	s2,1
1000306c:	0300006f          	j	1000309c <__subsf3+0x14c>
10003070:	03071063          	bne	a4,a6,10003090 <__subsf3+0x140>
10003074:	00050793          	mv	a5,a0
10003078:	0ff00913          	li	s2,255
1000307c:	0200006f          	j	1000309c <__subsf3+0x14c>
10003080:	35090c63          	beq	s2,a6,100033d8 <__subsf3+0x488>
10003084:	040006b7          	lui	a3,0x4000
10003088:	00d7e7b3          	or	a5,a5,a3
1000308c:	00070693          	mv	a3,a4
10003090:	01b00713          	li	a4,27
10003094:	02d75263          	bge	a4,a3,100030b8 <__subsf3+0x168>
10003098:	00150793          	addi	a5,a0,1
1000309c:	0077f713          	andi	a4,a5,7
100030a0:	f20708e3          	beqz	a4,10002fd0 <__subsf3+0x80>
100030a4:	00f7f713          	andi	a4,a5,15
100030a8:	00400693          	li	a3,4
100030ac:	f2d702e3          	beq	a4,a3,10002fd0 <__subsf3+0x80>
100030b0:	00478793          	addi	a5,a5,4
100030b4:	f1dff06f          	j	10002fd0 <__subsf3+0x80>
100030b8:	02000713          	li	a4,32
100030bc:	40d70733          	sub	a4,a4,a3
100030c0:	00e79733          	sll	a4,a5,a4
100030c4:	00d7d633          	srl	a2,a5,a3
100030c8:	00e03733          	snez	a4,a4
100030cc:	00e667b3          	or	a5,a2,a4
100030d0:	00a787b3          	add	a5,a5,a0
100030d4:	04000737          	lui	a4,0x4000
100030d8:	00e7f733          	and	a4,a5,a4
100030dc:	fc0700e3          	beqz	a4,1000309c <__subsf3+0x14c>
100030e0:	00190913          	addi	s2,s2,1
100030e4:	0ff00713          	li	a4,255
100030e8:	00000413          	li	s0,0
100030ec:	f0e908e3          	beq	s2,a4,10002ffc <__subsf3+0xac>
100030f0:	7e000737          	lui	a4,0x7e000
100030f4:	0017f693          	andi	a3,a5,1
100030f8:	fff70713          	addi	a4,a4,-1 # 7dffffff <__BSS_END__$+0x6dff5bb7>
100030fc:	0017d793          	srli	a5,a5,0x1
10003100:	00e7f7b3          	and	a5,a5,a4
10003104:	00d7e7b3          	or	a5,a5,a3
10003108:	f95ff06f          	j	1000309c <__subsf3+0x14c>
1000310c:	06070463          	beqz	a4,10003174 <__subsf3+0x224>
10003110:	412606b3          	sub	a3,a2,s2
10003114:	00090863          	beqz	s2,10003124 <__subsf3+0x1d4>
10003118:	04000737          	lui	a4,0x4000
1000311c:	00e56533          	or	a0,a0,a4
10003120:	01c0006f          	j	1000313c <__subsf3+0x1ec>
10003124:	00068913          	mv	s2,a3
10003128:	f6050ae3          	beqz	a0,1000309c <__subsf3+0x14c>
1000312c:	fff90693          	addi	a3,s2,-1
10003130:	f20682e3          	beqz	a3,10003054 <__subsf3+0x104>
10003134:	0ff00713          	li	a4,255
10003138:	f6e902e3          	beq	s2,a4,1000309c <__subsf3+0x14c>
1000313c:	01b00713          	li	a4,27
10003140:	00d75863          	bge	a4,a3,10003150 <__subsf3+0x200>
10003144:	00178793          	addi	a5,a5,1
10003148:	00060913          	mv	s2,a2
1000314c:	f51ff06f          	j	1000309c <__subsf3+0x14c>
10003150:	02000713          	li	a4,32
10003154:	40d70733          	sub	a4,a4,a3
10003158:	00e51733          	sll	a4,a0,a4
1000315c:	00d555b3          	srl	a1,a0,a3
10003160:	00e03733          	snez	a4,a4
10003164:	00e5e733          	or	a4,a1,a4
10003168:	00e787b3          	add	a5,a5,a4
1000316c:	00060913          	mv	s2,a2
10003170:	f65ff06f          	j	100030d4 <__subsf3+0x184>
10003174:	00190713          	addi	a4,s2,1
10003178:	0fe77693          	andi	a3,a4,254
1000317c:	02069e63          	bnez	a3,100031b8 <__subsf3+0x268>
10003180:	02091663          	bnez	s2,100031ac <__subsf3+0x25c>
10003184:	f0050ce3          	beqz	a0,1000309c <__subsf3+0x14c>
10003188:	24078863          	beqz	a5,100033d8 <__subsf3+0x488>
1000318c:	00a787b3          	add	a5,a5,a0
10003190:	04000737          	lui	a4,0x4000
10003194:	00e7f733          	and	a4,a5,a4
10003198:	f00702e3          	beqz	a4,1000309c <__subsf3+0x14c>
1000319c:	fc000737          	lui	a4,0xfc000
100031a0:	fff70713          	addi	a4,a4,-1 # fbffffff <__BSS_END__$+0xebff5bb7>
100031a4:	00e7f7b3          	and	a5,a5,a4
100031a8:	ec1ff06f          	j	10003068 <__subsf3+0x118>
100031ac:	ec0506e3          	beqz	a0,10003078 <__subsf3+0x128>
100031b0:	ec0782e3          	beqz	a5,10003074 <__subsf3+0x124>
100031b4:	1980006f          	j	1000334c <__subsf3+0x3fc>
100031b8:	0ff00693          	li	a3,255
100031bc:	22d70e63          	beq	a4,a3,100033f8 <__subsf3+0x4a8>
100031c0:	00f507b3          	add	a5,a0,a5
100031c4:	0017d793          	srli	a5,a5,0x1
100031c8:	00070913          	mv	s2,a4
100031cc:	ed1ff06f          	j	1000309c <__subsf3+0x14c>
100031d0:	0ae05063          	blez	a4,10003270 <__subsf3+0x320>
100031d4:	06061063          	bnez	a2,10003234 <__subsf3+0x2e4>
100031d8:	1e078c63          	beqz	a5,100033d0 <__subsf3+0x480>
100031dc:	fff70693          	addi	a3,a4,-1
100031e0:	00069863          	bnez	a3,100031f0 <__subsf3+0x2a0>
100031e4:	40f507b3          	sub	a5,a0,a5
100031e8:	00100913          	li	s2,1
100031ec:	0300006f          	j	1000321c <__subsf3+0x2cc>
100031f0:	e90702e3          	beq	a4,a6,10003074 <__subsf3+0x124>
100031f4:	01b00613          	li	a2,27
100031f8:	00100713          	li	a4,1
100031fc:	00d64e63          	blt	a2,a3,10003218 <__subsf3+0x2c8>
10003200:	02000713          	li	a4,32
10003204:	40d70733          	sub	a4,a4,a3
10003208:	00e79733          	sll	a4,a5,a4
1000320c:	00d7d633          	srl	a2,a5,a3
10003210:	00e03733          	snez	a4,a4
10003214:	00e66733          	or	a4,a2,a4
10003218:	40e507b3          	sub	a5,a0,a4
1000321c:	04000437          	lui	s0,0x4000
10003220:	0087f733          	and	a4,a5,s0
10003224:	e6070ce3          	beqz	a4,1000309c <__subsf3+0x14c>
10003228:	fff40413          	addi	s0,s0,-1 # 3ffffff <__stack_size+0x3fffeff>
1000322c:	0087f433          	and	s0,a5,s0
10003230:	1440006f          	j	10003374 <__subsf3+0x424>
10003234:	1b090263          	beq	s2,a6,100033d8 <__subsf3+0x488>
10003238:	040006b7          	lui	a3,0x4000
1000323c:	00d7e7b3          	or	a5,a5,a3
10003240:	00070693          	mv	a3,a4
10003244:	fb1ff06f          	j	100031f4 <__subsf3+0x2a4>
10003248:	0a070663          	beqz	a4,100032f4 <__subsf3+0x3a4>
1000324c:	04090663          	beqz	s2,10003298 <__subsf3+0x348>
10003250:	0ff00913          	li	s2,255
10003254:	00058493          	mv	s1,a1
10003258:	e45ff06f          	j	1000309c <__subsf3+0x14c>
1000325c:	08070c63          	beqz	a4,100032f4 <__subsf3+0x3a4>
10003260:	04090263          	beqz	s2,100032a4 <__subsf3+0x354>
10003264:	0ff00913          	li	s2,255
10003268:	00068493          	mv	s1,a3
1000326c:	d65ff06f          	j	10002fd0 <__subsf3+0x80>
10003270:	08070263          	beqz	a4,100032f4 <__subsf3+0x3a4>
10003274:	412605b3          	sub	a1,a2,s2
10003278:	06091663          	bnez	s2,100032e4 <__subsf3+0x394>
1000327c:	00068493          	mv	s1,a3
10003280:	00058913          	mv	s2,a1
10003284:	e0050ce3          	beqz	a0,1000309c <__subsf3+0x14c>
10003288:	fff90593          	addi	a1,s2,-1
1000328c:	02059063          	bnez	a1,100032ac <__subsf3+0x35c>
10003290:	40a787b3          	sub	a5,a5,a0
10003294:	f55ff06f          	j	100031e8 <__subsf3+0x298>
10003298:	00058493          	mv	s1,a1
1000329c:	0ff00913          	li	s2,255
100032a0:	fe5ff06f          	j	10003284 <__subsf3+0x334>
100032a4:	00068493          	mv	s1,a3
100032a8:	ff5ff06f          	j	1000329c <__subsf3+0x34c>
100032ac:	0ff00713          	li	a4,255
100032b0:	dee906e3          	beq	s2,a4,1000309c <__subsf3+0x14c>
100032b4:	01b00693          	li	a3,27
100032b8:	00100713          	li	a4,1
100032bc:	00b6ce63          	blt	a3,a1,100032d8 <__subsf3+0x388>
100032c0:	02000713          	li	a4,32
100032c4:	40b70733          	sub	a4,a4,a1
100032c8:	00e51733          	sll	a4,a0,a4
100032cc:	00b556b3          	srl	a3,a0,a1
100032d0:	00e03733          	snez	a4,a4
100032d4:	00e6e733          	or	a4,a3,a4
100032d8:	40e787b3          	sub	a5,a5,a4
100032dc:	00060913          	mv	s2,a2
100032e0:	f3dff06f          	j	1000321c <__subsf3+0x2cc>
100032e4:	04000737          	lui	a4,0x4000
100032e8:	00e56533          	or	a0,a0,a4
100032ec:	00068493          	mv	s1,a3
100032f0:	fc5ff06f          	j	100032b4 <__subsf3+0x364>
100032f4:	00190713          	addi	a4,s2,1
100032f8:	0fe77713          	andi	a4,a4,254
100032fc:	06071063          	bnez	a4,1000335c <__subsf3+0x40c>
10003300:	04091063          	bnez	s2,10003340 <__subsf3+0x3f0>
10003304:	00051863          	bnez	a0,10003314 <__subsf3+0x3c4>
10003308:	0e078e63          	beqz	a5,10003404 <__subsf3+0x4b4>
1000330c:	00068493          	mv	s1,a3
10003310:	d8dff06f          	j	1000309c <__subsf3+0x14c>
10003314:	0c078263          	beqz	a5,100033d8 <__subsf3+0x488>
10003318:	40f50433          	sub	s0,a0,a5
1000331c:	04000737          	lui	a4,0x4000
10003320:	00e47733          	and	a4,s0,a4
10003324:	00070663          	beqz	a4,10003330 <__subsf3+0x3e0>
10003328:	40a787b3          	sub	a5,a5,a0
1000332c:	fe1ff06f          	j	1000330c <__subsf3+0x3bc>
10003330:	00040793          	mv	a5,s0
10003334:	d60414e3          	bnez	s0,1000309c <__subsf3+0x14c>
10003338:	00000493          	li	s1,0
1000333c:	cc1ff06f          	j	10002ffc <__subsf3+0xac>
10003340:	e60518e3          	bnez	a0,100031b0 <__subsf3+0x260>
10003344:	00068493          	mv	s1,a3
10003348:	d20798e3          	bnez	a5,10003078 <__subsf3+0x128>
1000334c:	00000493          	li	s1,0
10003350:	0ff00913          	li	s2,255
10003354:	00400437          	lui	s0,0x400
10003358:	ca5ff06f          	j	10002ffc <__subsf3+0xac>
1000335c:	40f50433          	sub	s0,a0,a5
10003360:	04000737          	lui	a4,0x4000
10003364:	00e47733          	and	a4,s0,a4
10003368:	04070463          	beqz	a4,100033b0 <__subsf3+0x460>
1000336c:	40a78433          	sub	s0,a5,a0
10003370:	00068493          	mv	s1,a3
10003374:	00040513          	mv	a0,s0
10003378:	438000ef          	jal	ra,100037b0 <__clzsi2>
1000337c:	ffb50513          	addi	a0,a0,-5
10003380:	00a41433          	sll	s0,s0,a0
10003384:	03254c63          	blt	a0,s2,100033bc <__subsf3+0x46c>
10003388:	41250533          	sub	a0,a0,s2
1000338c:	00150513          	addi	a0,a0,1
10003390:	02000713          	li	a4,32
10003394:	40a70733          	sub	a4,a4,a0
10003398:	00a457b3          	srl	a5,s0,a0
1000339c:	00e41433          	sll	s0,s0,a4
100033a0:	00803433          	snez	s0,s0
100033a4:	0087e7b3          	or	a5,a5,s0
100033a8:	00000913          	li	s2,0
100033ac:	cf1ff06f          	j	1000309c <__subsf3+0x14c>
100033b0:	fc0412e3          	bnez	s0,10003374 <__subsf3+0x424>
100033b4:	00000913          	li	s2,0
100033b8:	f81ff06f          	j	10003338 <__subsf3+0x3e8>
100033bc:	fc0007b7          	lui	a5,0xfc000
100033c0:	fff78793          	addi	a5,a5,-1 # fbffffff <__BSS_END__$+0xebff5bb7>
100033c4:	40a90933          	sub	s2,s2,a0
100033c8:	00f477b3          	and	a5,s0,a5
100033cc:	cd1ff06f          	j	1000309c <__subsf3+0x14c>
100033d0:	00050793          	mv	a5,a0
100033d4:	df5ff06f          	j	100031c8 <__subsf3+0x278>
100033d8:	00050793          	mv	a5,a0
100033dc:	cc1ff06f          	j	1000309c <__subsf3+0x14c>
100033e0:	0037d413          	srli	s0,a5,0x3
100033e4:	0ff00793          	li	a5,255
100033e8:	c0f91ae3          	bne	s2,a5,10002ffc <__subsf3+0xac>
100033ec:	c00408e3          	beqz	s0,10002ffc <__subsf3+0xac>
100033f0:	00400437          	lui	s0,0x400
100033f4:	f45ff06f          	j	10003338 <__subsf3+0x3e8>
100033f8:	0ff00913          	li	s2,255
100033fc:	00000413          	li	s0,0
10003400:	bfdff06f          	j	10002ffc <__subsf3+0xac>
10003404:	00000413          	li	s0,0
10003408:	f31ff06f          	j	10003338 <__subsf3+0x3e8>

1000340c <__fixunssfsi>:
1000340c:	01755793          	srli	a5,a0,0x17
10003410:	00800637          	lui	a2,0x800
10003414:	fff60693          	addi	a3,a2,-1 # 7fffff <__stack_size+0x7ffeff>
10003418:	0ff7f793          	zext.b	a5,a5
1000341c:	07e00593          	li	a1,126
10003420:	00a6f6b3          	and	a3,a3,a0
10003424:	01f55713          	srli	a4,a0,0x1f
10003428:	00000513          	li	a0,0
1000342c:	02f5de63          	bge	a1,a5,10003468 <__fixunssfsi+0x5c>
10003430:	02071c63          	bnez	a4,10003468 <__fixunssfsi+0x5c>
10003434:	09e00713          	li	a4,158
10003438:	fff00513          	li	a0,-1
1000343c:	02f74663          	blt	a4,a5,10003468 <__fixunssfsi+0x5c>
10003440:	09500713          	li	a4,149
10003444:	00c6e533          	or	a0,a3,a2
10003448:	00f75863          	bge	a4,a5,10003458 <__fixunssfsi+0x4c>
1000344c:	f6a78793          	addi	a5,a5,-150
10003450:	00f51533          	sll	a0,a0,a5
10003454:	00008067          	ret
10003458:	09600713          	li	a4,150
1000345c:	40f707b3          	sub	a5,a4,a5
10003460:	00f55533          	srl	a0,a0,a5
10003464:	00008067          	ret
10003468:	00008067          	ret

1000346c <__extendsfdf2>:
1000346c:	01755713          	srli	a4,a0,0x17
10003470:	0ff77713          	zext.b	a4,a4
10003474:	ff010113          	addi	sp,sp,-16
10003478:	00170793          	addi	a5,a4,1 # 4000001 <__stack_size+0x3ffff01>
1000347c:	00812423          	sw	s0,8(sp)
10003480:	00912223          	sw	s1,4(sp)
10003484:	00951413          	slli	s0,a0,0x9
10003488:	00112623          	sw	ra,12(sp)
1000348c:	0fe7f793          	andi	a5,a5,254
10003490:	00945413          	srli	s0,s0,0x9
10003494:	01f55493          	srli	s1,a0,0x1f
10003498:	04078263          	beqz	a5,100034dc <__extendsfdf2+0x70>
1000349c:	00345793          	srli	a5,s0,0x3
100034a0:	38070713          	addi	a4,a4,896
100034a4:	01d41413          	slli	s0,s0,0x1d
100034a8:	00c79793          	slli	a5,a5,0xc
100034ac:	00c7d793          	srli	a5,a5,0xc
100034b0:	01471713          	slli	a4,a4,0x14
100034b4:	01f49513          	slli	a0,s1,0x1f
100034b8:	00f76733          	or	a4,a4,a5
100034bc:	00c12083          	lw	ra,12(sp)
100034c0:	00a767b3          	or	a5,a4,a0
100034c4:	00040513          	mv	a0,s0
100034c8:	00812403          	lw	s0,8(sp)
100034cc:	00412483          	lw	s1,4(sp)
100034d0:	00078593          	mv	a1,a5
100034d4:	01010113          	addi	sp,sp,16
100034d8:	00008067          	ret
100034dc:	04071663          	bnez	a4,10003528 <__extendsfdf2+0xbc>
100034e0:	00000793          	li	a5,0
100034e4:	fc0402e3          	beqz	s0,100034a8 <__extendsfdf2+0x3c>
100034e8:	00040513          	mv	a0,s0
100034ec:	2c4000ef          	jal	ra,100037b0 <__clzsi2>
100034f0:	00a00793          	li	a5,10
100034f4:	02a7c263          	blt	a5,a0,10003518 <__extendsfdf2+0xac>
100034f8:	00b00793          	li	a5,11
100034fc:	40a787b3          	sub	a5,a5,a0
10003500:	01550713          	addi	a4,a0,21
10003504:	00f457b3          	srl	a5,s0,a5
10003508:	00e41433          	sll	s0,s0,a4
1000350c:	38900713          	li	a4,905
10003510:	40a70733          	sub	a4,a4,a0
10003514:	f95ff06f          	j	100034a8 <__extendsfdf2+0x3c>
10003518:	ff550793          	addi	a5,a0,-11
1000351c:	00f417b3          	sll	a5,s0,a5
10003520:	00000413          	li	s0,0
10003524:	fe9ff06f          	j	1000350c <__extendsfdf2+0xa0>
10003528:	00000793          	li	a5,0
1000352c:	00040a63          	beqz	s0,10003540 <__extendsfdf2+0xd4>
10003530:	00345793          	srli	a5,s0,0x3
10003534:	00080737          	lui	a4,0x80
10003538:	01d41413          	slli	s0,s0,0x1d
1000353c:	00e7e7b3          	or	a5,a5,a4
10003540:	7ff00713          	li	a4,2047
10003544:	f65ff06f          	j	100034a8 <__extendsfdf2+0x3c>

10003548 <__truncdfsf2>:
10003548:	00c59713          	slli	a4,a1,0xc
1000354c:	0145d813          	srli	a6,a1,0x14
10003550:	00975713          	srli	a4,a4,0x9
10003554:	7ff87813          	andi	a6,a6,2047
10003558:	01d55793          	srli	a5,a0,0x1d
1000355c:	00e7e7b3          	or	a5,a5,a4
10003560:	00180713          	addi	a4,a6,1
10003564:	7fe77713          	andi	a4,a4,2046
10003568:	01f5d593          	srli	a1,a1,0x1f
1000356c:	00351613          	slli	a2,a0,0x3
10003570:	0e070063          	beqz	a4,10003650 <__truncdfsf2+0x108>
10003574:	c8080693          	addi	a3,a6,-896
10003578:	0fe00713          	li	a4,254
1000357c:	14d74663          	blt	a4,a3,100036c8 <__truncdfsf2+0x180>
10003580:	0ad04463          	bgtz	a3,10003628 <__truncdfsf2+0xe0>
10003584:	fe900713          	li	a4,-23
10003588:	14e6c463          	blt	a3,a4,100036d0 <__truncdfsf2+0x188>
1000358c:	00800537          	lui	a0,0x800
10003590:	01e00713          	li	a4,30
10003594:	00a7e533          	or	a0,a5,a0
10003598:	40d70733          	sub	a4,a4,a3
1000359c:	01f00793          	li	a5,31
100035a0:	04e7c663          	blt	a5,a4,100035ec <__truncdfsf2+0xa4>
100035a4:	c8280813          	addi	a6,a6,-894
100035a8:	00e65733          	srl	a4,a2,a4
100035ac:	01061633          	sll	a2,a2,a6
100035b0:	00c03633          	snez	a2,a2
100035b4:	01051533          	sll	a0,a0,a6
100035b8:	00a66633          	or	a2,a2,a0
100035bc:	00c76733          	or	a4,a4,a2
100035c0:	00777793          	andi	a5,a4,7
100035c4:	0a079663          	bnez	a5,10003670 <__truncdfsf2+0x128>
100035c8:	00375793          	srli	a5,a4,0x3
100035cc:	00000693          	li	a3,0
100035d0:	00979793          	slli	a5,a5,0x9
100035d4:	0097d793          	srli	a5,a5,0x9
100035d8:	01769693          	slli	a3,a3,0x17
100035dc:	00f6e6b3          	or	a3,a3,a5
100035e0:	01f59513          	slli	a0,a1,0x1f
100035e4:	00a6e533          	or	a0,a3,a0
100035e8:	00008067          	ret
100035ec:	ffe00793          	li	a5,-2
100035f0:	40d787b3          	sub	a5,a5,a3
100035f4:	02000893          	li	a7,32
100035f8:	00f557b3          	srl	a5,a0,a5
100035fc:	00000693          	li	a3,0
10003600:	01170663          	beq	a4,a7,1000360c <__truncdfsf2+0xc4>
10003604:	ca280813          	addi	a6,a6,-862
10003608:	010516b3          	sll	a3,a0,a6
1000360c:	00c6e6b3          	or	a3,a3,a2
10003610:	00d036b3          	snez	a3,a3
10003614:	00d7e7b3          	or	a5,a5,a3
10003618:	0077f713          	andi	a4,a5,7
1000361c:	06071463          	bnez	a4,10003684 <__truncdfsf2+0x13c>
10003620:	0037d793          	srli	a5,a5,0x3
10003624:	fa9ff06f          	j	100035cc <__truncdfsf2+0x84>
10003628:	00651713          	slli	a4,a0,0x6
1000362c:	00379793          	slli	a5,a5,0x3
10003630:	00e03733          	snez	a4,a4
10003634:	00f76733          	or	a4,a4,a5
10003638:	01d65613          	srli	a2,a2,0x1d
1000363c:	00c76733          	or	a4,a4,a2
10003640:	00777793          	andi	a5,a4,7
10003644:	04079a63          	bnez	a5,10003698 <__truncdfsf2+0x150>
10003648:	00375793          	srli	a5,a4,0x3
1000364c:	f85ff06f          	j	100035d0 <__truncdfsf2+0x88>
10003650:	08080063          	beqz	a6,100036d0 <__truncdfsf2+0x188>
10003654:	00c7e7b3          	or	a5,a5,a2
10003658:	0ff00693          	li	a3,255
1000365c:	f6078ae3          	beqz	a5,100035d0 <__truncdfsf2+0x88>
10003660:	00000593          	li	a1,0
10003664:	0ff00693          	li	a3,255
10003668:	004007b7          	lui	a5,0x400
1000366c:	f65ff06f          	j	100035d0 <__truncdfsf2+0x88>
10003670:	00f77793          	andi	a5,a4,15
10003674:	00400693          	li	a3,4
10003678:	f4d788e3          	beq	a5,a3,100035c8 <__truncdfsf2+0x80>
1000367c:	00000693          	li	a3,0
10003680:	0280006f          	j	100036a8 <__truncdfsf2+0x160>
10003684:	00f7f713          	andi	a4,a5,15
10003688:	00400693          	li	a3,4
1000368c:	f8d70ae3          	beq	a4,a3,10003620 <__truncdfsf2+0xd8>
10003690:	00478793          	addi	a5,a5,4 # 400004 <__stack_size+0x3fff04>
10003694:	f8dff06f          	j	10003620 <__truncdfsf2+0xd8>
10003698:	00f77613          	andi	a2,a4,15
1000369c:	00400513          	li	a0,4
100036a0:	00375793          	srli	a5,a4,0x3
100036a4:	f2a606e3          	beq	a2,a0,100035d0 <__truncdfsf2+0x88>
100036a8:	00470713          	addi	a4,a4,4 # 80004 <__stack_size+0x7ff04>
100036ac:	04000637          	lui	a2,0x4000
100036b0:	00c77633          	and	a2,a4,a2
100036b4:	00375793          	srli	a5,a4,0x3
100036b8:	f0060ce3          	beqz	a2,100035d0 <__truncdfsf2+0x88>
100036bc:	00168693          	addi	a3,a3,1 # 4000001 <__stack_size+0x3ffff01>
100036c0:	00000793          	li	a5,0
100036c4:	f0dff06f          	j	100035d0 <__truncdfsf2+0x88>
100036c8:	0ff00693          	li	a3,255
100036cc:	ff5ff06f          	j	100036c0 <__truncdfsf2+0x178>
100036d0:	00000693          	li	a3,0
100036d4:	fedff06f          	j	100036c0 <__truncdfsf2+0x178>

100036d8 <__mulsi3>:
100036d8:	00050613          	mv	a2,a0
100036dc:	00000513          	li	a0,0
100036e0:	0015f693          	andi	a3,a1,1
100036e4:	00068463          	beqz	a3,100036ec <__mulsi3+0x14>
100036e8:	00c50533          	add	a0,a0,a2
100036ec:	0015d593          	srli	a1,a1,0x1
100036f0:	00161613          	slli	a2,a2,0x1
100036f4:	fe0596e3          	bnez	a1,100036e0 <__mulsi3+0x8>
100036f8:	00008067          	ret

100036fc <__divsi3>:
100036fc:	06054063          	bltz	a0,1000375c <__umodsi3+0x10>
10003700:	0605c663          	bltz	a1,1000376c <__umodsi3+0x20>

10003704 <__hidden___udivsi3>:
10003704:	00058613          	mv	a2,a1
10003708:	00050593          	mv	a1,a0
1000370c:	fff00513          	li	a0,-1
10003710:	02060c63          	beqz	a2,10003748 <__hidden___udivsi3+0x44>
10003714:	00100693          	li	a3,1
10003718:	00b67a63          	bgeu	a2,a1,1000372c <__hidden___udivsi3+0x28>
1000371c:	00c05863          	blez	a2,1000372c <__hidden___udivsi3+0x28>
10003720:	00161613          	slli	a2,a2,0x1
10003724:	00169693          	slli	a3,a3,0x1
10003728:	feb66ae3          	bltu	a2,a1,1000371c <__hidden___udivsi3+0x18>
1000372c:	00000513          	li	a0,0
10003730:	00c5e663          	bltu	a1,a2,1000373c <__hidden___udivsi3+0x38>
10003734:	40c585b3          	sub	a1,a1,a2
10003738:	00d56533          	or	a0,a0,a3
1000373c:	0016d693          	srli	a3,a3,0x1
10003740:	00165613          	srli	a2,a2,0x1
10003744:	fe0696e3          	bnez	a3,10003730 <__hidden___udivsi3+0x2c>
10003748:	00008067          	ret

1000374c <__umodsi3>:
1000374c:	00008293          	mv	t0,ra
10003750:	fb5ff0ef          	jal	ra,10003704 <__hidden___udivsi3>
10003754:	00058513          	mv	a0,a1
10003758:	00028067          	jr	t0 # 10000114 <memset+0xb4>
1000375c:	40a00533          	neg	a0,a0
10003760:	00b04863          	bgtz	a1,10003770 <__umodsi3+0x24>
10003764:	40b005b3          	neg	a1,a1
10003768:	f9dff06f          	j	10003704 <__hidden___udivsi3>
1000376c:	40b005b3          	neg	a1,a1
10003770:	00008293          	mv	t0,ra
10003774:	f91ff0ef          	jal	ra,10003704 <__hidden___udivsi3>
10003778:	40a00533          	neg	a0,a0
1000377c:	00028067          	jr	t0

10003780 <__modsi3>:
10003780:	00008293          	mv	t0,ra
10003784:	0005ca63          	bltz	a1,10003798 <__modsi3+0x18>
10003788:	00054c63          	bltz	a0,100037a0 <__modsi3+0x20>
1000378c:	f79ff0ef          	jal	ra,10003704 <__hidden___udivsi3>
10003790:	00058513          	mv	a0,a1
10003794:	00028067          	jr	t0
10003798:	40b005b3          	neg	a1,a1
1000379c:	fe0558e3          	bgez	a0,1000378c <__modsi3+0xc>
100037a0:	40a00533          	neg	a0,a0
100037a4:	f61ff0ef          	jal	ra,10003704 <__hidden___udivsi3>
100037a8:	40b00533          	neg	a0,a1
100037ac:	00028067          	jr	t0

100037b0 <__clzsi2>:
100037b0:	000107b7          	lui	a5,0x10
100037b4:	02f57a63          	bgeu	a0,a5,100037e8 <__clzsi2+0x38>
100037b8:	10053793          	sltiu	a5,a0,256
100037bc:	0017c793          	xori	a5,a5,1
100037c0:	00379793          	slli	a5,a5,0x3
100037c4:	10009737          	lui	a4,0x10009
100037c8:	02000693          	li	a3,32
100037cc:	40f686b3          	sub	a3,a3,a5
100037d0:	00f55533          	srl	a0,a0,a5
100037d4:	27870793          	addi	a5,a4,632 # 10009278 <__clz_tab>
100037d8:	00a787b3          	add	a5,a5,a0
100037dc:	0007c503          	lbu	a0,0(a5) # 10000 <__stack_size+0xff00>
100037e0:	40a68533          	sub	a0,a3,a0
100037e4:	00008067          	ret
100037e8:	01000737          	lui	a4,0x1000
100037ec:	01000793          	li	a5,16
100037f0:	fce56ae3          	bltu	a0,a4,100037c4 <__clzsi2+0x14>
100037f4:	01800793          	li	a5,24
100037f8:	fcdff06f          	j	100037c4 <__clzsi2+0x14>

100037fc <__eqdf2>:
100037fc:	0145d813          	srli	a6,a1,0x14
10003800:	00100737          	lui	a4,0x100
10003804:	fff70713          	addi	a4,a4,-1 # fffff <__stack_size+0xffeff>
10003808:	0146d313          	srli	t1,a3,0x14
1000380c:	7ff87813          	andi	a6,a6,2047
10003810:	7ff00e13          	li	t3,2047
10003814:	00b777b3          	and	a5,a4,a1
10003818:	00050893          	mv	a7,a0
1000381c:	00d77733          	and	a4,a4,a3
10003820:	01f5d593          	srli	a1,a1,0x1f
10003824:	7ff37313          	andi	t1,t1,2047
10003828:	01f6d693          	srli	a3,a3,0x1f
1000382c:	00100513          	li	a0,1
10003830:	01c80663          	beq	a6,t3,1000383c <__eqdf2+0x40>
10003834:	03c31463          	bne	t1,t3,1000385c <__eqdf2+0x60>
10003838:	00008067          	ret
1000383c:	05031463          	bne	t1,a6,10003884 <__eqdf2+0x88>
10003840:	00e7e7b3          	or	a5,a5,a4
10003844:	00c7e7b3          	or	a5,a5,a2
10003848:	0117e7b3          	or	a5,a5,a7
1000384c:	02079c63          	bnez	a5,10003884 <__eqdf2+0x88>
10003850:	40d585b3          	sub	a1,a1,a3
10003854:	00b03533          	snez	a0,a1
10003858:	00008067          	ret
1000385c:	00100513          	li	a0,1
10003860:	02681263          	bne	a6,t1,10003884 <__eqdf2+0x88>
10003864:	02e79063          	bne	a5,a4,10003884 <__eqdf2+0x88>
10003868:	00c89e63          	bne	a7,a2,10003884 <__eqdf2+0x88>
1000386c:	00d58a63          	beq	a1,a3,10003880 <__eqdf2+0x84>
10003870:	00081a63          	bnez	a6,10003884 <__eqdf2+0x88>
10003874:	0117e7b3          	or	a5,a5,a7
10003878:	00f03533          	snez	a0,a5
1000387c:	00008067          	ret
10003880:	00000513          	li	a0,0
10003884:	00008067          	ret

10003888 <__eqsf2>:
10003888:	01755693          	srli	a3,a0,0x17
1000388c:	00800737          	lui	a4,0x800
10003890:	fff70713          	addi	a4,a4,-1 # 7fffff <__stack_size+0x7ffeff>
10003894:	0175d813          	srli	a6,a1,0x17
10003898:	0ff6f693          	zext.b	a3,a3
1000389c:	0ff00893          	li	a7,255
100038a0:	00a77633          	and	a2,a4,a0
100038a4:	01f55793          	srli	a5,a0,0x1f
100038a8:	00b77733          	and	a4,a4,a1
100038ac:	0ff87813          	zext.b	a6,a6
100038b0:	01f5d593          	srli	a1,a1,0x1f
100038b4:	00100513          	li	a0,1
100038b8:	01168663          	beq	a3,a7,100038c4 <__eqsf2+0x3c>
100038bc:	01181e63          	bne	a6,a7,100038d8 <__eqsf2+0x50>
100038c0:	00008067          	ret
100038c4:	02d81a63          	bne	a6,a3,100038f8 <__eqsf2+0x70>
100038c8:	00e66633          	or	a2,a2,a4
100038cc:	02061663          	bnez	a2,100038f8 <__eqsf2+0x70>
100038d0:	00b7c533          	xor	a0,a5,a1
100038d4:	00008067          	ret
100038d8:	00100513          	li	a0,1
100038dc:	01069e63          	bne	a3,a6,100038f8 <__eqsf2+0x70>
100038e0:	00e61c63          	bne	a2,a4,100038f8 <__eqsf2+0x70>
100038e4:	00b78863          	beq	a5,a1,100038f4 <__eqsf2+0x6c>
100038e8:	00069863          	bnez	a3,100038f8 <__eqsf2+0x70>
100038ec:	00c03533          	snez	a0,a2
100038f0:	00008067          	ret
100038f4:	00000513          	li	a0,0
100038f8:	00008067          	ret

100038fc <__unordsf2>:
100038fc:	008007b7          	lui	a5,0x800
10003900:	fff78793          	addi	a5,a5,-1 # 7fffff <__stack_size+0x7ffeff>
10003904:	00a7f733          	and	a4,a5,a0
10003908:	01755513          	srli	a0,a0,0x17
1000390c:	00b7f7b3          	and	a5,a5,a1
10003910:	0ff57513          	zext.b	a0,a0
10003914:	0175d593          	srli	a1,a1,0x17
10003918:	0ff00693          	li	a3,255
1000391c:	0ff5f593          	zext.b	a1,a1
10003920:	00d51663          	bne	a0,a3,1000392c <__unordsf2+0x30>
10003924:	00100513          	li	a0,1
10003928:	00071a63          	bnez	a4,1000393c <__unordsf2+0x40>
1000392c:	0ff00713          	li	a4,255
10003930:	00000513          	li	a0,0
10003934:	00e59463          	bne	a1,a4,1000393c <__unordsf2+0x40>
10003938:	00f03533          	snez	a0,a5
1000393c:	00008067          	ret

10003940 <__floatsisf>:
10003940:	ff010113          	addi	sp,sp,-16
10003944:	00112623          	sw	ra,12(sp)
10003948:	00812423          	sw	s0,8(sp)
1000394c:	00912223          	sw	s1,4(sp)
10003950:	00050793          	mv	a5,a0
10003954:	0e050663          	beqz	a0,10003a40 <__floatsisf+0x100>
10003958:	41f55713          	srai	a4,a0,0x1f
1000395c:	00a74433          	xor	s0,a4,a0
10003960:	40e40433          	sub	s0,s0,a4
10003964:	01f55493          	srli	s1,a0,0x1f
10003968:	00040513          	mv	a0,s0
1000396c:	e45ff0ef          	jal	ra,100037b0 <__clzsi2>
10003970:	09e00793          	li	a5,158
10003974:	40a787b3          	sub	a5,a5,a0
10003978:	09600713          	li	a4,150
1000397c:	04f74063          	blt	a4,a5,100039bc <__floatsisf+0x7c>
10003980:	00800713          	li	a4,8
10003984:	0ce50463          	beq	a0,a4,10003a4c <__floatsisf+0x10c>
10003988:	ff850513          	addi	a0,a0,-8 # 7ffff8 <__stack_size+0x7ffef8>
1000398c:	00a41433          	sll	s0,s0,a0
10003990:	00941413          	slli	s0,s0,0x9
10003994:	00945413          	srli	s0,s0,0x9
10003998:	01779793          	slli	a5,a5,0x17
1000399c:	00c12083          	lw	ra,12(sp)
100039a0:	0087e7b3          	or	a5,a5,s0
100039a4:	00812403          	lw	s0,8(sp)
100039a8:	01f49513          	slli	a0,s1,0x1f
100039ac:	00a7e533          	or	a0,a5,a0
100039b0:	00412483          	lw	s1,4(sp)
100039b4:	01010113          	addi	sp,sp,16
100039b8:	00008067          	ret
100039bc:	09900713          	li	a4,153
100039c0:	06f75663          	bge	a4,a5,10003a2c <__floatsisf+0xec>
100039c4:	00500713          	li	a4,5
100039c8:	40a70733          	sub	a4,a4,a0
100039cc:	01b50693          	addi	a3,a0,27
100039d0:	00e45733          	srl	a4,s0,a4
100039d4:	00d41433          	sll	s0,s0,a3
100039d8:	00803433          	snez	s0,s0
100039dc:	00876433          	or	s0,a4,s0
100039e0:	fc000737          	lui	a4,0xfc000
100039e4:	fff70713          	addi	a4,a4,-1 # fbffffff <__BSS_END__$+0xebff5bb7>
100039e8:	00747693          	andi	a3,s0,7
100039ec:	00e47733          	and	a4,s0,a4
100039f0:	00068a63          	beqz	a3,10003a04 <__floatsisf+0xc4>
100039f4:	00f47413          	andi	s0,s0,15
100039f8:	00400693          	li	a3,4
100039fc:	00d40463          	beq	s0,a3,10003a04 <__floatsisf+0xc4>
10003a00:	00470713          	addi	a4,a4,4
10003a04:	040006b7          	lui	a3,0x4000
10003a08:	00d776b3          	and	a3,a4,a3
10003a0c:	00068c63          	beqz	a3,10003a24 <__floatsisf+0xe4>
10003a10:	fc0007b7          	lui	a5,0xfc000
10003a14:	fff78793          	addi	a5,a5,-1 # fbffffff <__BSS_END__$+0xebff5bb7>
10003a18:	00f77733          	and	a4,a4,a5
10003a1c:	09f00793          	li	a5,159
10003a20:	40a787b3          	sub	a5,a5,a0
10003a24:	00375413          	srli	s0,a4,0x3
10003a28:	f69ff06f          	j	10003990 <__floatsisf+0x50>
10003a2c:	00500693          	li	a3,5
10003a30:	ffb50713          	addi	a4,a0,-5
10003a34:	fad506e3          	beq	a0,a3,100039e0 <__floatsisf+0xa0>
10003a38:	00e41433          	sll	s0,s0,a4
10003a3c:	fa5ff06f          	j	100039e0 <__floatsisf+0xa0>
10003a40:	00000493          	li	s1,0
10003a44:	00000413          	li	s0,0
10003a48:	f49ff06f          	j	10003990 <__floatsisf+0x50>
10003a4c:	09600793          	li	a5,150
10003a50:	f41ff06f          	j	10003990 <__floatsisf+0x50>

10003a54 <_ZL14vec3_normalize4vec3>:
10003a54:	fe010113          	addi	sp,sp,-32
10003a58:	01412423          	sw	s4,8(sp)
10003a5c:	0005aa03          	lw	s4,0(a1) # 4000000 <__stack_size+0x3ffff00>
10003a60:	01312623          	sw	s3,12(sp)
10003a64:	0045a983          	lw	s3,4(a1)
10003a68:	00812c23          	sw	s0,24(sp)
10003a6c:	01212823          	sw	s2,16(sp)
10003a70:	00050413          	mv	s0,a0
10003a74:	0085a903          	lw	s2,8(a1)
10003a78:	000a0513          	mv	a0,s4
10003a7c:	000a0593          	mv	a1,s4
10003a80:	00112e23          	sw	ra,28(sp)
10003a84:	00912a23          	sw	s1,20(sp)
10003a88:	964ff0ef          	jal	ra,10002bec <__mulsf3>
10003a8c:	00050493          	mv	s1,a0
10003a90:	00098593          	mv	a1,s3
10003a94:	00098513          	mv	a0,s3
10003a98:	954ff0ef          	jal	ra,10002bec <__mulsf3>
10003a9c:	00050593          	mv	a1,a0
10003aa0:	00048513          	mv	a0,s1
10003aa4:	f98fe0ef          	jal	ra,1000223c <__addsf3>
10003aa8:	00050493          	mv	s1,a0
10003aac:	00090593          	mv	a1,s2
10003ab0:	00090513          	mv	a0,s2
10003ab4:	938ff0ef          	jal	ra,10002bec <__mulsf3>
10003ab8:	00050593          	mv	a1,a0
10003abc:	00048513          	mv	a0,s1
10003ac0:	f7cfe0ef          	jal	ra,1000223c <__addsf3>
10003ac4:	22d020ef          	jal	ra,100064f0 <sqrtf>
10003ac8:	00050593          	mv	a1,a0
10003acc:	00006517          	auipc	a0,0x6
10003ad0:	ae052503          	lw	a0,-1312(a0) # 100095ac <__clz_tab+0x334>
10003ad4:	bd9fe0ef          	jal	ra,100026ac <__divsf3>
10003ad8:	000a0593          	mv	a1,s4
10003adc:	00050493          	mv	s1,a0
10003ae0:	90cff0ef          	jal	ra,10002bec <__mulsf3>
10003ae4:	00a42023          	sw	a0,0(s0) # 400000 <__stack_size+0x3fff00>
10003ae8:	00048593          	mv	a1,s1
10003aec:	00098513          	mv	a0,s3
10003af0:	8fcff0ef          	jal	ra,10002bec <__mulsf3>
10003af4:	00a42223          	sw	a0,4(s0)
10003af8:	00090593          	mv	a1,s2
10003afc:	00048513          	mv	a0,s1
10003b00:	8ecff0ef          	jal	ra,10002bec <__mulsf3>
10003b04:	00a42423          	sw	a0,8(s0)
10003b08:	01c12083          	lw	ra,28(sp)
10003b0c:	00040513          	mv	a0,s0
10003b10:	01812403          	lw	s0,24(sp)
10003b14:	01412483          	lw	s1,20(sp)
10003b18:	01012903          	lw	s2,16(sp)
10003b1c:	00c12983          	lw	s3,12(sp)
10003b20:	00812a03          	lw	s4,8(sp)
10003b24:	02010113          	addi	sp,sp,32
10003b28:	00008067          	ret

10003b2c <_Z18graphics_set_pixeliifff>:
10003b2c:	fe010113          	addi	sp,sp,-32
10003b30:	01312623          	sw	s3,12(sp)
10003b34:	00006997          	auipc	s3,0x6
10003b38:	a789a983          	lw	s3,-1416(s3) # 100095ac <__clz_tab+0x334>
10003b3c:	01412423          	sw	s4,8(sp)
10003b40:	01512223          	sw	s5,4(sp)
10003b44:	00058a13          	mv	s4,a1
10003b48:	00050a93          	mv	s5,a0
10003b4c:	00098593          	mv	a1,s3
10003b50:	00060513          	mv	a0,a2
10003b54:	00812c23          	sw	s0,24(sp)
10003b58:	00912a23          	sw	s1,20(sp)
10003b5c:	01212823          	sw	s2,16(sp)
10003b60:	00112e23          	sw	ra,28(sp)
10003b64:	00060913          	mv	s2,a2
10003b68:	00068493          	mv	s1,a3
10003b6c:	00070413          	mv	s0,a4
10003b70:	ec5fe0ef          	jal	ra,10002a34 <__gesf2>
10003b74:	0aa04a63          	bgtz	a0,10003c28 <_Z18graphics_set_pixeliifff+0xfc>
10003b78:	00000593          	li	a1,0
10003b7c:	00090513          	mv	a0,s2
10003b80:	f91fe0ef          	jal	ra,10002b10 <__lesf2>
10003b84:	00055463          	bgez	a0,10003b8c <_Z18graphics_set_pixeliifff+0x60>
10003b88:	00000913          	li	s2,0
10003b8c:	00098593          	mv	a1,s3
10003b90:	00048513          	mv	a0,s1
10003b94:	ea1fe0ef          	jal	ra,10002a34 <__gesf2>
10003b98:	08a04c63          	bgtz	a0,10003c30 <_Z18graphics_set_pixeliifff+0x104>
10003b9c:	00000593          	li	a1,0
10003ba0:	00048513          	mv	a0,s1
10003ba4:	f6dfe0ef          	jal	ra,10002b10 <__lesf2>
10003ba8:	00055463          	bgez	a0,10003bb0 <_Z18graphics_set_pixeliifff+0x84>
10003bac:	00000493          	li	s1,0
10003bb0:	00098593          	mv	a1,s3
10003bb4:	00040513          	mv	a0,s0
10003bb8:	e7dfe0ef          	jal	ra,10002a34 <__gesf2>
10003bbc:	06a04e63          	bgtz	a0,10003c38 <_Z18graphics_set_pixeliifff+0x10c>
10003bc0:	00000593          	li	a1,0
10003bc4:	00040513          	mv	a0,s0
10003bc8:	f49fe0ef          	jal	ra,10002b10 <__lesf2>
10003bcc:	00055463          	bgez	a0,10003bd4 <_Z18graphics_set_pixeliifff+0xa8>
10003bd0:	00000413          	li	s0,0
10003bd4:	00007797          	auipc	a5,0x7
10003bd8:	8707a783          	lw	a5,-1936(a5) # 1000a444 <_ZL9bench_run>
10003bdc:	06078263          	beqz	a5,10003c40 <_Z18graphics_set_pixeliifff+0x114>
10003be0:	001a7793          	andi	a5,s4,1
10003be4:	10078e63          	beqz	a5,10003d00 <_Z18graphics_set_pixeliifff+0x1d4>
10003be8:	00006797          	auipc	a5,0x6
10003bec:	1247a783          	lw	a5,292(a5) # 10009d0c <_ZL14graphics_width>
10003bf0:	fff78793          	addi	a5,a5,-1
10003bf4:	11579663          	bne	a5,s5,10003d00 <_Z18graphics_set_pixeliifff+0x1d4>
10003bf8:	01812403          	lw	s0,24(sp)
10003bfc:	01fa5513          	srli	a0,s4,0x1f
10003c00:	01c12083          	lw	ra,28(sp)
10003c04:	01412483          	lw	s1,20(sp)
10003c08:	01012903          	lw	s2,16(sp)
10003c0c:	00c12983          	lw	s3,12(sp)
10003c10:	00412a83          	lw	s5,4(sp)
10003c14:	01450533          	add	a0,a0,s4
10003c18:	00812a03          	lw	s4,8(sp)
10003c1c:	40155513          	srai	a0,a0,0x1
10003c20:	02010113          	addi	sp,sp,32
10003c24:	0cc0206f          	j	10005cf0 <_Z16UARTWriteDecimall>
10003c28:	00098913          	mv	s2,s3
10003c2c:	f61ff06f          	j	10003b8c <_Z18graphics_set_pixeliifff+0x60>
10003c30:	00098493          	mv	s1,s3
10003c34:	f7dff06f          	j	10003bb0 <_Z18graphics_set_pixeliifff+0x84>
10003c38:	00098413          	mv	s0,s3
10003c3c:	f99ff06f          	j	10003bd4 <_Z18graphics_set_pixeliifff+0xa8>
10003c40:	00005517          	auipc	a0,0x5
10003c44:	73850513          	addi	a0,a0,1848 # 10009378 <__clz_tab+0x100>
10003c48:	77d010ef          	jal	ra,10005bc4 <_Z9UARTWritePKc>
10003c4c:	00006597          	auipc	a1,0x6
10003c50:	9645a583          	lw	a1,-1692(a1) # 100095b0 <__clz_tab+0x338>
10003c54:	00090513          	mv	a0,s2
10003c58:	f95fe0ef          	jal	ra,10002bec <__mulsf3>
10003c5c:	fb0ff0ef          	jal	ra,1000340c <__fixunssfsi>
10003c60:	0ff57513          	zext.b	a0,a0
10003c64:	08c020ef          	jal	ra,10005cf0 <_Z16UARTWriteDecimall>
10003c68:	00005517          	auipc	a0,0x5
10003c6c:	71850513          	addi	a0,a0,1816 # 10009380 <__clz_tab+0x108>
10003c70:	755010ef          	jal	ra,10005bc4 <_Z9UARTWritePKc>
10003c74:	00006597          	auipc	a1,0x6
10003c78:	93c5a583          	lw	a1,-1732(a1) # 100095b0 <__clz_tab+0x338>
10003c7c:	00048513          	mv	a0,s1
10003c80:	f6dfe0ef          	jal	ra,10002bec <__mulsf3>
10003c84:	f88ff0ef          	jal	ra,1000340c <__fixunssfsi>
10003c88:	0ff57513          	zext.b	a0,a0
10003c8c:	064020ef          	jal	ra,10005cf0 <_Z16UARTWriteDecimall>
10003c90:	00005517          	auipc	a0,0x5
10003c94:	6f050513          	addi	a0,a0,1776 # 10009380 <__clz_tab+0x108>
10003c98:	72d010ef          	jal	ra,10005bc4 <_Z9UARTWritePKc>
10003c9c:	00006597          	auipc	a1,0x6
10003ca0:	9145a583          	lw	a1,-1772(a1) # 100095b0 <__clz_tab+0x338>
10003ca4:	00040513          	mv	a0,s0
10003ca8:	f45fe0ef          	jal	ra,10002bec <__mulsf3>
10003cac:	f60ff0ef          	jal	ra,1000340c <__fixunssfsi>
10003cb0:	0ff57513          	zext.b	a0,a0
10003cb4:	03c020ef          	jal	ra,10005cf0 <_Z16UARTWriteDecimall>
10003cb8:	00005517          	auipc	a0,0x5
10003cbc:	6cc50513          	addi	a0,a0,1740 # 10009384 <__clz_tab+0x10c>
10003cc0:	705010ef          	jal	ra,10005bc4 <_Z9UARTWritePKc>
10003cc4:	00006797          	auipc	a5,0x6
10003cc8:	0487a783          	lw	a5,72(a5) # 10009d0c <_ZL14graphics_width>
10003ccc:	fff78793          	addi	a5,a5,-1
10003cd0:	03579863          	bne	a5,s5,10003d00 <_Z18graphics_set_pixeliifff+0x1d4>
10003cd4:	01812403          	lw	s0,24(sp)
10003cd8:	01c12083          	lw	ra,28(sp)
10003cdc:	01412483          	lw	s1,20(sp)
10003ce0:	01012903          	lw	s2,16(sp)
10003ce4:	00c12983          	lw	s3,12(sp)
10003ce8:	00812a03          	lw	s4,8(sp)
10003cec:	00412a83          	lw	s5,4(sp)
10003cf0:	00005517          	auipc	a0,0x5
10003cf4:	69850513          	addi	a0,a0,1688 # 10009388 <__clz_tab+0x110>
10003cf8:	02010113          	addi	sp,sp,32
10003cfc:	6c90106f          	j	10005bc4 <_Z9UARTWritePKc>
10003d00:	01c12083          	lw	ra,28(sp)
10003d04:	01812403          	lw	s0,24(sp)
10003d08:	01412483          	lw	s1,20(sp)
10003d0c:	01012903          	lw	s2,16(sp)
10003d10:	00c12983          	lw	s3,12(sp)
10003d14:	00812a03          	lw	s4,8(sp)
10003d18:	00412a83          	lw	s5,4(sp)
10003d1c:	02010113          	addi	sp,sp,32
10003d20:	00008067          	ret

10003d24 <_Z10make_Light4vec3f>:
10003d24:	ff010113          	addi	sp,sp,-16
10003d28:	00912223          	sw	s1,4(sp)
10003d2c:	00060493          	mv	s1,a2
10003d30:	00c00613          	li	a2,12
10003d34:	00812423          	sw	s0,8(sp)
10003d38:	00112623          	sw	ra,12(sp)
10003d3c:	00050413          	mv	s0,a0
10003d40:	3b4020ef          	jal	ra,100060f4 <memcpy>
10003d44:	00c12083          	lw	ra,12(sp)
10003d48:	00942623          	sw	s1,12(s0)
10003d4c:	00040513          	mv	a0,s0
10003d50:	00812403          	lw	s0,8(sp)
10003d54:	00412483          	lw	s1,4(sp)
10003d58:	01010113          	addi	sp,sp,16
10003d5c:	00008067          	ret

10003d60 <_Z13make_Materialf4vec44vec3f>:
10003d60:	ff010113          	addi	sp,sp,-16
10003d64:	00112623          	sw	ra,12(sp)
10003d68:	00812423          	sw	s0,8(sp)
10003d6c:	00912223          	sw	s1,4(sp)
10003d70:	01212023          	sw	s2,0(sp)
10003d74:	00060793          	mv	a5,a2
10003d78:	00050413          	mv	s0,a0
10003d7c:	00b52023          	sw	a1,0(a0)
10003d80:	01000613          	li	a2,16
10003d84:	00078593          	mv	a1,a5
10003d88:	00450513          	addi	a0,a0,4
10003d8c:	00068913          	mv	s2,a3
10003d90:	00070493          	mv	s1,a4
10003d94:	360020ef          	jal	ra,100060f4 <memcpy>
10003d98:	00090593          	mv	a1,s2
10003d9c:	01440513          	addi	a0,s0,20
10003da0:	00c00613          	li	a2,12
10003da4:	350020ef          	jal	ra,100060f4 <memcpy>
10003da8:	00c12083          	lw	ra,12(sp)
10003dac:	02942023          	sw	s1,32(s0)
10003db0:	00040513          	mv	a0,s0
10003db4:	00812403          	lw	s0,8(sp)
10003db8:	00412483          	lw	s1,4(sp)
10003dbc:	00012903          	lw	s2,0(sp)
10003dc0:	01010113          	addi	sp,sp,16
10003dc4:	00008067          	ret

10003dc8 <_Z21make_Material_defaultv>:
10003dc8:	00005717          	auipc	a4,0x5
10003dcc:	7e472703          	lw	a4,2020(a4) # 100095ac <__clz_tab+0x334>
10003dd0:	00e52023          	sw	a4,0(a0)
10003dd4:	00e52223          	sw	a4,4(a0)
10003dd8:	00000713          	li	a4,0
10003ddc:	00e52423          	sw	a4,8(a0)
10003de0:	00e52623          	sw	a4,12(a0)
10003de4:	00e52823          	sw	a4,16(a0)
10003de8:	00e52a23          	sw	a4,20(a0)
10003dec:	00e52c23          	sw	a4,24(a0)
10003df0:	00e52e23          	sw	a4,28(a0)
10003df4:	02e52023          	sw	a4,32(a0)
10003df8:	00008067          	ret

10003dfc <_Z11make_Sphere4vec3f8Material>:
10003dfc:	ff010113          	addi	sp,sp,-16
10003e00:	01212023          	sw	s2,0(sp)
10003e04:	00060913          	mv	s2,a2
10003e08:	00c00613          	li	a2,12
10003e0c:	00112623          	sw	ra,12(sp)
10003e10:	00812423          	sw	s0,8(sp)
10003e14:	00912223          	sw	s1,4(sp)
10003e18:	00050413          	mv	s0,a0
10003e1c:	00068493          	mv	s1,a3
10003e20:	2d4020ef          	jal	ra,100060f4 <memcpy>
10003e24:	00048593          	mv	a1,s1
10003e28:	01040513          	addi	a0,s0,16
10003e2c:	02400613          	li	a2,36
10003e30:	01242623          	sw	s2,12(s0)
10003e34:	2c0020ef          	jal	ra,100060f4 <memcpy>
10003e38:	00c12083          	lw	ra,12(sp)
10003e3c:	00040513          	mv	a0,s0
10003e40:	00812403          	lw	s0,8(sp)
10003e44:	00412483          	lw	s1,4(sp)
10003e48:	00012903          	lw	s2,0(sp)
10003e4c:	01010113          	addi	sp,sp,16
10003e50:	00008067          	ret

10003e54 <_Z20Sphere_ray_intersectP6Sphere4vec3S1_Pf>:
10003e54:	fe010113          	addi	sp,sp,-32
10003e58:	00812c23          	sw	s0,24(sp)
10003e5c:	01212823          	sw	s2,16(sp)
10003e60:	00050413          	mv	s0,a0
10003e64:	00058913          	mv	s2,a1
10003e68:	00052503          	lw	a0,0(a0)
10003e6c:	0005a583          	lw	a1,0(a1)
10003e70:	00112e23          	sw	ra,28(sp)
10003e74:	00912a23          	sw	s1,20(sp)
10003e78:	01312623          	sw	s3,12(sp)
10003e7c:	00060493          	mv	s1,a2
10003e80:	00068993          	mv	s3,a3
10003e84:	01412423          	sw	s4,8(sp)
10003e88:	01512223          	sw	s5,4(sp)
10003e8c:	01612023          	sw	s6,0(sp)
10003e90:	8c0ff0ef          	jal	ra,10002f50 <__subsf3>
10003e94:	00050a93          	mv	s5,a0
10003e98:	00492583          	lw	a1,4(s2)
10003e9c:	00442503          	lw	a0,4(s0)
10003ea0:	8b0ff0ef          	jal	ra,10002f50 <__subsf3>
10003ea4:	00050a13          	mv	s4,a0
10003ea8:	00892583          	lw	a1,8(s2)
10003eac:	00842503          	lw	a0,8(s0)
10003eb0:	8a0ff0ef          	jal	ra,10002f50 <__subsf3>
10003eb4:	0004a583          	lw	a1,0(s1)
10003eb8:	00050913          	mv	s2,a0
10003ebc:	000a8513          	mv	a0,s5
10003ec0:	d2dfe0ef          	jal	ra,10002bec <__mulsf3>
10003ec4:	0044a583          	lw	a1,4(s1)
10003ec8:	00050b13          	mv	s6,a0
10003ecc:	000a0513          	mv	a0,s4
10003ed0:	d1dfe0ef          	jal	ra,10002bec <__mulsf3>
10003ed4:	00050593          	mv	a1,a0
10003ed8:	000b0513          	mv	a0,s6
10003edc:	b60fe0ef          	jal	ra,1000223c <__addsf3>
10003ee0:	0084a583          	lw	a1,8(s1)
10003ee4:	00050b13          	mv	s6,a0
10003ee8:	00090513          	mv	a0,s2
10003eec:	d01fe0ef          	jal	ra,10002bec <__mulsf3>
10003ef0:	00050593          	mv	a1,a0
10003ef4:	000b0513          	mv	a0,s6
10003ef8:	b44fe0ef          	jal	ra,1000223c <__addsf3>
10003efc:	00050493          	mv	s1,a0
10003f00:	000a8593          	mv	a1,s5
10003f04:	000a8513          	mv	a0,s5
10003f08:	ce5fe0ef          	jal	ra,10002bec <__mulsf3>
10003f0c:	000a0593          	mv	a1,s4
10003f10:	00050a93          	mv	s5,a0
10003f14:	000a0513          	mv	a0,s4
10003f18:	cd5fe0ef          	jal	ra,10002bec <__mulsf3>
10003f1c:	00050593          	mv	a1,a0
10003f20:	000a8513          	mv	a0,s5
10003f24:	b18fe0ef          	jal	ra,1000223c <__addsf3>
10003f28:	00090593          	mv	a1,s2
10003f2c:	00050a13          	mv	s4,a0
10003f30:	00090513          	mv	a0,s2
10003f34:	cb9fe0ef          	jal	ra,10002bec <__mulsf3>
10003f38:	00050593          	mv	a1,a0
10003f3c:	000a0513          	mv	a0,s4
10003f40:	afcfe0ef          	jal	ra,1000223c <__addsf3>
10003f44:	00050913          	mv	s2,a0
10003f48:	00048593          	mv	a1,s1
10003f4c:	00048513          	mv	a0,s1
10003f50:	c9dfe0ef          	jal	ra,10002bec <__mulsf3>
10003f54:	00050593          	mv	a1,a0
10003f58:	00090513          	mv	a0,s2
10003f5c:	ff5fe0ef          	jal	ra,10002f50 <__subsf3>
10003f60:	00c42583          	lw	a1,12(s0)
10003f64:	00050913          	mv	s2,a0
10003f68:	00058513          	mv	a0,a1
10003f6c:	c81fe0ef          	jal	ra,10002bec <__mulsf3>
10003f70:	00050413          	mv	s0,a0
10003f74:	00050593          	mv	a1,a0
10003f78:	00090513          	mv	a0,s2
10003f7c:	ab9fe0ef          	jal	ra,10002a34 <__gesf2>
10003f80:	08a04463          	bgtz	a0,10004008 <_Z20Sphere_ray_intersectP6Sphere4vec3S1_Pf+0x1b4>
10003f84:	00090593          	mv	a1,s2
10003f88:	00040513          	mv	a0,s0
10003f8c:	fc5fe0ef          	jal	ra,10002f50 <__subsf3>
10003f90:	560020ef          	jal	ra,100064f0 <sqrtf>
10003f94:	00050593          	mv	a1,a0
10003f98:	00050913          	mv	s2,a0
10003f9c:	00048513          	mv	a0,s1
10003fa0:	fb1fe0ef          	jal	ra,10002f50 <__subsf3>
10003fa4:	00000593          	li	a1,0
10003fa8:	00050413          	mv	s0,a0
10003fac:	b65fe0ef          	jal	ra,10002b10 <__lesf2>
10003fb0:	00055a63          	bgez	a0,10003fc4 <_Z20Sphere_ray_intersectP6Sphere4vec3S1_Pf+0x170>
10003fb4:	00048593          	mv	a1,s1
10003fb8:	00090513          	mv	a0,s2
10003fbc:	a80fe0ef          	jal	ra,1000223c <__addsf3>
10003fc0:	00050413          	mv	s0,a0
10003fc4:	0089a023          	sw	s0,0(s3)
10003fc8:	00000593          	li	a1,0
10003fcc:	00040513          	mv	a0,s0
10003fd0:	b41fe0ef          	jal	ra,10002b10 <__lesf2>
10003fd4:	01f55513          	srli	a0,a0,0x1f
10003fd8:	00154513          	xori	a0,a0,1
10003fdc:	0ff57513          	zext.b	a0,a0
10003fe0:	01c12083          	lw	ra,28(sp)
10003fe4:	01812403          	lw	s0,24(sp)
10003fe8:	01412483          	lw	s1,20(sp)
10003fec:	01012903          	lw	s2,16(sp)
10003ff0:	00c12983          	lw	s3,12(sp)
10003ff4:	00812a03          	lw	s4,8(sp)
10003ff8:	00412a83          	lw	s5,4(sp)
10003ffc:	00012b03          	lw	s6,0(sp)
10004000:	02010113          	addi	sp,sp,32
10004004:	00008067          	ret
10004008:	00000513          	li	a0,0
1000400c:	fd5ff06f          	j	10003fe0 <_Z20Sphere_ray_intersectP6Sphere4vec3S1_Pf+0x18c>

10004010 <_Z7reflect4vec3S_>:
10004010:	fd010113          	addi	sp,sp,-48
10004014:	01512a23          	sw	s5,20(sp)
10004018:	01612823          	sw	s6,16(sp)
1000401c:	0005aa83          	lw	s5,0(a1)
10004020:	00062b03          	lw	s6,0(a2) # 4000000 <__stack_size+0x3ffff00>
10004024:	01312e23          	sw	s3,28(sp)
10004028:	01412c23          	sw	s4,24(sp)
1000402c:	0045a983          	lw	s3,4(a1)
10004030:	00462a03          	lw	s4,4(a2)
10004034:	02812423          	sw	s0,40(sp)
10004038:	03212023          	sw	s2,32(sp)
1000403c:	00050413          	mv	s0,a0
10004040:	0085a903          	lw	s2,8(a1)
10004044:	000b0513          	mv	a0,s6
10004048:	000a8593          	mv	a1,s5
1000404c:	02112623          	sw	ra,44(sp)
10004050:	02912223          	sw	s1,36(sp)
10004054:	01712623          	sw	s7,12(sp)
10004058:	00862b83          	lw	s7,8(a2)
1000405c:	b91fe0ef          	jal	ra,10002bec <__mulsf3>
10004060:	00050493          	mv	s1,a0
10004064:	000a0593          	mv	a1,s4
10004068:	00098513          	mv	a0,s3
1000406c:	b81fe0ef          	jal	ra,10002bec <__mulsf3>
10004070:	00050593          	mv	a1,a0
10004074:	00048513          	mv	a0,s1
10004078:	9c4fe0ef          	jal	ra,1000223c <__addsf3>
1000407c:	00050493          	mv	s1,a0
10004080:	000b8593          	mv	a1,s7
10004084:	00090513          	mv	a0,s2
10004088:	b65fe0ef          	jal	ra,10002bec <__mulsf3>
1000408c:	00050593          	mv	a1,a0
10004090:	00048513          	mv	a0,s1
10004094:	9a8fe0ef          	jal	ra,1000223c <__addsf3>
10004098:	00050593          	mv	a1,a0
1000409c:	9a0fe0ef          	jal	ra,1000223c <__addsf3>
100040a0:	000b0593          	mv	a1,s6
100040a4:	00050493          	mv	s1,a0
100040a8:	b45fe0ef          	jal	ra,10002bec <__mulsf3>
100040ac:	00050593          	mv	a1,a0
100040b0:	000a8513          	mv	a0,s5
100040b4:	e9dfe0ef          	jal	ra,10002f50 <__subsf3>
100040b8:	00a42023          	sw	a0,0(s0)
100040bc:	000a0593          	mv	a1,s4
100040c0:	00048513          	mv	a0,s1
100040c4:	b29fe0ef          	jal	ra,10002bec <__mulsf3>
100040c8:	00050593          	mv	a1,a0
100040cc:	00098513          	mv	a0,s3
100040d0:	e81fe0ef          	jal	ra,10002f50 <__subsf3>
100040d4:	00a42223          	sw	a0,4(s0)
100040d8:	000b8593          	mv	a1,s7
100040dc:	00048513          	mv	a0,s1
100040e0:	b0dfe0ef          	jal	ra,10002bec <__mulsf3>
100040e4:	00050593          	mv	a1,a0
100040e8:	00090513          	mv	a0,s2
100040ec:	e65fe0ef          	jal	ra,10002f50 <__subsf3>
100040f0:	00a42423          	sw	a0,8(s0)
100040f4:	02c12083          	lw	ra,44(sp)
100040f8:	00040513          	mv	a0,s0
100040fc:	02812403          	lw	s0,40(sp)
10004100:	02412483          	lw	s1,36(sp)
10004104:	02012903          	lw	s2,32(sp)
10004108:	01c12983          	lw	s3,28(sp)
1000410c:	01812a03          	lw	s4,24(sp)
10004110:	01412a83          	lw	s5,20(sp)
10004114:	01012b03          	lw	s6,16(sp)
10004118:	00c12b83          	lw	s7,12(sp)
1000411c:	03010113          	addi	sp,sp,48
10004120:	00008067          	ret

10004124 <_Z7refract4vec3S_ff>:
10004124:	f9010113          	addi	sp,sp,-112
10004128:	05412c23          	sw	s4,88(sp)
1000412c:	05912223          	sw	s9,68(sp)
10004130:	00062a03          	lw	s4,0(a2)
10004134:	0005ac83          	lw	s9,0(a1)
10004138:	05312e23          	sw	s3,92(sp)
1000413c:	05812423          	sw	s8,72(sp)
10004140:	00462983          	lw	s3,4(a2)
10004144:	0045ac03          	lw	s8,4(a1)
10004148:	06812423          	sw	s0,104(sp)
1000414c:	07212023          	sw	s2,96(sp)
10004150:	05712623          	sw	s7,76(sp)
10004154:	00050413          	mv	s0,a0
10004158:	0085ab83          	lw	s7,8(a1)
1000415c:	00058913          	mv	s2,a1
10004160:	000a0513          	mv	a0,s4
10004164:	000c8593          	mv	a1,s9
10004168:	06112623          	sw	ra,108(sp)
1000416c:	06912223          	sw	s1,100(sp)
10004170:	05512a23          	sw	s5,84(sp)
10004174:	05612823          	sw	s6,80(sp)
10004178:	00070a93          	mv	s5,a4
1000417c:	00862b03          	lw	s6,8(a2)
10004180:	05a12023          	sw	s10,64(sp)
10004184:	03b12e23          	sw	s11,60(sp)
10004188:	00068d93          	mv	s11,a3
1000418c:	a61fe0ef          	jal	ra,10002bec <__mulsf3>
10004190:	00050493          	mv	s1,a0
10004194:	00098593          	mv	a1,s3
10004198:	000c0513          	mv	a0,s8
1000419c:	a51fe0ef          	jal	ra,10002bec <__mulsf3>
100041a0:	00050593          	mv	a1,a0
100041a4:	00048513          	mv	a0,s1
100041a8:	894fe0ef          	jal	ra,1000223c <__addsf3>
100041ac:	00050493          	mv	s1,a0
100041b0:	000b8593          	mv	a1,s7
100041b4:	000b0513          	mv	a0,s6
100041b8:	a35fe0ef          	jal	ra,10002bec <__mulsf3>
100041bc:	00050593          	mv	a1,a0
100041c0:	00048513          	mv	a0,s1
100041c4:	878fe0ef          	jal	ra,1000223c <__addsf3>
100041c8:	00005d17          	auipc	s10,0x5
100041cc:	3e4d2d03          	lw	s10,996(s10) # 100095ac <__clz_tab+0x334>
100041d0:	000d0593          	mv	a1,s10
100041d4:	00050493          	mv	s1,a0
100041d8:	85dfe0ef          	jal	ra,10002a34 <__gesf2>
100041dc:	02a04a63          	bgtz	a0,10004210 <_Z7refract4vec3S_ff+0xec>
100041e0:	00005597          	auipc	a1,0x5
100041e4:	3d45a583          	lw	a1,980(a1) # 100095b4 <__clz_tab+0x33c>
100041e8:	00048513          	mv	a0,s1
100041ec:	925fe0ef          	jal	ra,10002b10 <__lesf2>
100041f0:	00005797          	auipc	a5,0x5
100041f4:	3c478793          	addi	a5,a5,964 # 100095b4 <__clz_tab+0x33c>
100041f8:	0007a583          	lw	a1,0(a5)
100041fc:	0a054863          	bltz	a0,100042ac <_Z7refract4vec3S_ff+0x188>
10004200:	00000593          	li	a1,0
10004204:	00048513          	mv	a0,s1
10004208:	82dfe0ef          	jal	ra,10002a34 <__gesf2>
1000420c:	0aa05263          	blez	a0,100042b0 <_Z7refract4vec3S_ff+0x18c>
10004210:	800007b7          	lui	a5,0x80000
10004214:	01010493          	addi	s1,sp,16
10004218:	0147ca33          	xor	s4,a5,s4
1000421c:	0137c9b3          	xor	s3,a5,s3
10004220:	00c00613          	li	a2,12
10004224:	0167c7b3          	xor	a5,a5,s6
10004228:	00090593          	mv	a1,s2
1000422c:	00048513          	mv	a0,s1
10004230:	02f12623          	sw	a5,44(sp)
10004234:	03412223          	sw	s4,36(sp)
10004238:	03312423          	sw	s3,40(sp)
1000423c:	6b9010ef          	jal	ra,100060f4 <memcpy>
10004240:	00010793          	mv	a5,sp
10004244:	00c00613          	li	a2,12
10004248:	02410593          	addi	a1,sp,36
1000424c:	00078513          	mv	a0,a5
10004250:	6a5010ef          	jal	ra,100060f4 <memcpy>
10004254:	00050613          	mv	a2,a0
10004258:	000d8713          	mv	a4,s11
1000425c:	000a8693          	mv	a3,s5
10004260:	00048593          	mv	a1,s1
10004264:	00040513          	mv	a0,s0
10004268:	ebdff0ef          	jal	ra,10004124 <_Z7refract4vec3S_ff>
1000426c:	06c12083          	lw	ra,108(sp)
10004270:	00040513          	mv	a0,s0
10004274:	06812403          	lw	s0,104(sp)
10004278:	06412483          	lw	s1,100(sp)
1000427c:	06012903          	lw	s2,96(sp)
10004280:	05c12983          	lw	s3,92(sp)
10004284:	05812a03          	lw	s4,88(sp)
10004288:	05412a83          	lw	s5,84(sp)
1000428c:	05012b03          	lw	s6,80(sp)
10004290:	04c12b83          	lw	s7,76(sp)
10004294:	04812c03          	lw	s8,72(sp)
10004298:	04412c83          	lw	s9,68(sp)
1000429c:	04012d03          	lw	s10,64(sp)
100042a0:	03c12d83          	lw	s11,60(sp)
100042a4:	07010113          	addi	sp,sp,112
100042a8:	00008067          	ret
100042ac:	00058493          	mv	s1,a1
100042b0:	000d8593          	mv	a1,s11
100042b4:	000a8513          	mv	a0,s5
100042b8:	bf4fe0ef          	jal	ra,100026ac <__divsf3>
100042bc:	00050913          	mv	s2,a0
100042c0:	00048593          	mv	a1,s1
100042c4:	00048513          	mv	a0,s1
100042c8:	925fe0ef          	jal	ra,10002bec <__mulsf3>
100042cc:	00050593          	mv	a1,a0
100042d0:	00005517          	auipc	a0,0x5
100042d4:	2dc52503          	lw	a0,732(a0) # 100095ac <__clz_tab+0x334>
100042d8:	c79fe0ef          	jal	ra,10002f50 <__subsf3>
100042dc:	00050a93          	mv	s5,a0
100042e0:	00090593          	mv	a1,s2
100042e4:	00090513          	mv	a0,s2
100042e8:	905fe0ef          	jal	ra,10002bec <__mulsf3>
100042ec:	00050593          	mv	a1,a0
100042f0:	000a8513          	mv	a0,s5
100042f4:	8f9fe0ef          	jal	ra,10002bec <__mulsf3>
100042f8:	00050593          	mv	a1,a0
100042fc:	00005517          	auipc	a0,0x5
10004300:	2b052503          	lw	a0,688(a0) # 100095ac <__clz_tab+0x334>
10004304:	c4dfe0ef          	jal	ra,10002f50 <__subsf3>
10004308:	00000593          	li	a1,0
1000430c:	00050d93          	mv	s11,a0
10004310:	801fe0ef          	jal	ra,10002b10 <__lesf2>
10004314:	00055c63          	bgez	a0,1000432c <_Z7refract4vec3S_ff+0x208>
10004318:	00000793          	li	a5,0
1000431c:	01a42023          	sw	s10,0(s0)
10004320:	00f42223          	sw	a5,4(s0)
10004324:	00f42423          	sw	a5,8(s0)
10004328:	f45ff06f          	j	1000426c <_Z7refract4vec3S_ff+0x148>
1000432c:	000c8593          	mv	a1,s9
10004330:	00090513          	mv	a0,s2
10004334:	8b9fe0ef          	jal	ra,10002bec <__mulsf3>
10004338:	00050a93          	mv	s5,a0
1000433c:	00090593          	mv	a1,s2
10004340:	000c0513          	mv	a0,s8
10004344:	8a9fe0ef          	jal	ra,10002bec <__mulsf3>
10004348:	000b8593          	mv	a1,s7
1000434c:	00050c13          	mv	s8,a0
10004350:	00090513          	mv	a0,s2
10004354:	899fe0ef          	jal	ra,10002bec <__mulsf3>
10004358:	00050b93          	mv	s7,a0
1000435c:	80000537          	lui	a0,0x80000
10004360:	00090593          	mv	a1,s2
10004364:	00954533          	xor	a0,a0,s1
10004368:	885fe0ef          	jal	ra,10002bec <__mulsf3>
1000436c:	00050493          	mv	s1,a0
10004370:	000d8513          	mv	a0,s11
10004374:	17c020ef          	jal	ra,100064f0 <sqrtf>
10004378:	00050593          	mv	a1,a0
1000437c:	00048513          	mv	a0,s1
10004380:	bd1fe0ef          	jal	ra,10002f50 <__subsf3>
10004384:	00050493          	mv	s1,a0
10004388:	00050593          	mv	a1,a0
1000438c:	000a0513          	mv	a0,s4
10004390:	85dfe0ef          	jal	ra,10002bec <__mulsf3>
10004394:	000a8593          	mv	a1,s5
10004398:	ea5fd0ef          	jal	ra,1000223c <__addsf3>
1000439c:	00a42023          	sw	a0,0(s0)
100043a0:	00098593          	mv	a1,s3
100043a4:	00048513          	mv	a0,s1
100043a8:	845fe0ef          	jal	ra,10002bec <__mulsf3>
100043ac:	000c0593          	mv	a1,s8
100043b0:	e8dfd0ef          	jal	ra,1000223c <__addsf3>
100043b4:	00a42223          	sw	a0,4(s0)
100043b8:	00048593          	mv	a1,s1
100043bc:	000b0513          	mv	a0,s6
100043c0:	82dfe0ef          	jal	ra,10002bec <__mulsf3>
100043c4:	000b8593          	mv	a1,s7
100043c8:	e75fd0ef          	jal	ra,1000223c <__addsf3>
100043cc:	00a42423          	sw	a0,8(s0)
100043d0:	e9dff06f          	j	1000426c <_Z7refract4vec3S_ff+0x148>

100043d4 <_Z15scene_intersect4vec3S_P6SphereiPS_S2_P8Material>:
100043d4:	f6010113          	addi	sp,sp,-160
100043d8:	07712e23          	sw	s7,124(sp)
100043dc:	00078b93          	mv	s7,a5
100043e0:	00452783          	lw	a5,4(a0) # 80000004 <__BSS_END__$+0x6fff5bbc>
100043e4:	09412423          	sw	s4,136(sp)
100043e8:	07912a23          	sw	s9,116(sp)
100043ec:	00f12423          	sw	a5,8(sp)
100043f0:	00852783          	lw	a5,8(a0)
100043f4:	07a12823          	sw	s10,112(sp)
100043f8:	00052c83          	lw	s9,0(a0)
100043fc:	00f12c23          	sw	a5,24(sp)
10004400:	0085a783          	lw	a5,8(a1)
10004404:	0005ad03          	lw	s10,0(a1)
10004408:	0045aa03          	lw	s4,4(a1)
1000440c:	00f12a23          	sw	a5,20(sp)
10004410:	04010793          	addi	a5,sp,64
10004414:	00f12623          	sw	a5,12(sp)
10004418:	03010793          	addi	a5,sp,48
1000441c:	00f12823          	sw	a5,16(sp)
10004420:	05010793          	addi	a5,sp,80
10004424:	09612023          	sw	s6,128(sp)
10004428:	02f12023          	sw	a5,32(sp)
1000442c:	00005b17          	auipc	s6,0x5
10004430:	18cb2b03          	lw	s6,396(s6) # 100095b8 <__clz_tab+0x340>
10004434:	05410793          	addi	a5,sp,84
10004438:	08812c23          	sw	s0,152(sp)
1000443c:	08912a23          	sw	s1,148(sp)
10004440:	09212823          	sw	s2,144(sp)
10004444:	09312623          	sw	s3,140(sp)
10004448:	09512223          	sw	s5,132(sp)
1000444c:	07812c23          	sw	s8,120(sp)
10004450:	07b12623          	sw	s11,108(sp)
10004454:	08112e23          	sw	ra,156(sp)
10004458:	00050c13          	mv	s8,a0
1000445c:	00058913          	mv	s2,a1
10004460:	00d12e23          	sw	a3,28(sp)
10004464:	00070413          	mv	s0,a4
10004468:	00080a93          	mv	s5,a6
1000446c:	00060493          	mv	s1,a2
10004470:	00000d93          	li	s11,0
10004474:	000b0993          	mv	s3,s6
10004478:	02f12223          	sw	a5,36(sp)
1000447c:	01c12783          	lw	a5,28(sp)
10004480:	1efdc463          	blt	s11,a5,10004668 <_Z15scene_intersect4vec3S_P6SphereiPS_S2_P8Material+0x294>
10004484:	800004b7          	lui	s1,0x80000
10004488:	fff4c913          	not	s2,s1
1000448c:	01497533          	and	a0,s2,s4
10004490:	fddfe0ef          	jal	ra,1000346c <__extendsfdf2>
10004494:	00005797          	auipc	a5,0x5
10004498:	1b478793          	addi	a5,a5,436 # 10009648 <__clz_tab+0x3d0>
1000449c:	0007a603          	lw	a2,0(a5)
100044a0:	0047a683          	lw	a3,4(a5)
100044a4:	c51fc0ef          	jal	ra,100010f4 <__gedf2>
100044a8:	32a05863          	blez	a0,100047d8 <_Z15scene_intersect4vec3S_P6SphereiPS_S2_P8Material+0x404>
100044ac:	00812503          	lw	a0,8(sp)
100044b0:	00005597          	auipc	a1,0x5
100044b4:	1185a583          	lw	a1,280(a1) # 100095c8 <__clz_tab+0x350>
100044b8:	d85fd0ef          	jal	ra,1000223c <__addsf3>
100044bc:	000a0593          	mv	a1,s4
100044c0:	00a4c533          	xor	a0,s1,a0
100044c4:	9e8fe0ef          	jal	ra,100026ac <__divsf3>
100044c8:	00000593          	li	a1,0
100044cc:	00050493          	mv	s1,a0
100044d0:	d64fe0ef          	jal	ra,10002a34 <__gesf2>
100044d4:	30a05263          	blez	a0,100047d8 <_Z15scene_intersect4vec3S_P6SphereiPS_S2_P8Material+0x404>
100044d8:	000d0593          	mv	a1,s10
100044dc:	00048513          	mv	a0,s1
100044e0:	f0cfe0ef          	jal	ra,10002bec <__mulsf3>
100044e4:	000c8593          	mv	a1,s9
100044e8:	d55fd0ef          	jal	ra,1000223c <__addsf3>
100044ec:	00050c93          	mv	s9,a0
100044f0:	00005597          	auipc	a1,0x5
100044f4:	0dc5a583          	lw	a1,220(a1) # 100095cc <__clz_tab+0x354>
100044f8:	00a97533          	and	a0,s2,a0
100044fc:	e14fe0ef          	jal	ra,10002b10 <__lesf2>
10004500:	2c055c63          	bgez	a0,100047d8 <_Z15scene_intersect4vec3S_P6SphereiPS_S2_P8Material+0x404>
10004504:	01412503          	lw	a0,20(sp)
10004508:	00048593          	mv	a1,s1
1000450c:	ee0fe0ef          	jal	ra,10002bec <__mulsf3>
10004510:	01812583          	lw	a1,24(sp)
10004514:	d29fd0ef          	jal	ra,1000223c <__addsf3>
10004518:	00005597          	auipc	a1,0x5
1000451c:	0b85a583          	lw	a1,184(a1) # 100095d0 <__clz_tab+0x358>
10004520:	00050913          	mv	s2,a0
10004524:	decfe0ef          	jal	ra,10002b10 <__lesf2>
10004528:	2a055863          	bgez	a0,100047d8 <_Z15scene_intersect4vec3S_P6SphereiPS_S2_P8Material+0x404>
1000452c:	00005597          	auipc	a1,0x5
10004530:	0a85a583          	lw	a1,168(a1) # 100095d4 <__clz_tab+0x35c>
10004534:	00090513          	mv	a0,s2
10004538:	cfcfe0ef          	jal	ra,10002a34 <__gesf2>
1000453c:	28a05e63          	blez	a0,100047d8 <_Z15scene_intersect4vec3S_P6SphereiPS_S2_P8Material+0x404>
10004540:	00048593          	mv	a1,s1
10004544:	000b0513          	mv	a0,s6
10004548:	cecfe0ef          	jal	ra,10002a34 <__gesf2>
1000454c:	28a05663          	blez	a0,100047d8 <_Z15scene_intersect4vec3S_P6SphereiPS_S2_P8Material+0x404>
10004550:	000a0593          	mv	a1,s4
10004554:	01942023          	sw	s9,0(s0)
10004558:	00048513          	mv	a0,s1
1000455c:	e90fe0ef          	jal	ra,10002bec <__mulsf3>
10004560:	00812583          	lw	a1,8(sp)
10004564:	00005997          	auipc	s3,0x5
10004568:	0ec98993          	addi	s3,s3,236 # 10009650 <__clz_tab+0x3d8>
1000456c:	cd1fd0ef          	jal	ra,1000223c <__addsf3>
10004570:	00000713          	li	a4,0
10004574:	00a42223          	sw	a0,4(s0)
10004578:	01242423          	sw	s2,8(s0)
1000457c:	00eba023          	sw	a4,0(s7)
10004580:	00042503          	lw	a0,0(s0)
10004584:	00005797          	auipc	a5,0x5
10004588:	0287a783          	lw	a5,40(a5) # 100095ac <__clz_tab+0x334>
1000458c:	00eba423          	sw	a4,8(s7)
10004590:	00fba223          	sw	a5,4(s7)
10004594:	ed9fe0ef          	jal	ra,1000346c <__extendsfdf2>
10004598:	0009a603          	lw	a2,0(s3)
1000459c:	0049a683          	lw	a3,4(s3)
100045a0:	c65fc0ef          	jal	ra,10001204 <__muldf3>
100045a4:	00005797          	auipc	a5,0x5
100045a8:	0b478793          	addi	a5,a5,180 # 10009658 <__clz_tab+0x3e0>
100045ac:	0007a603          	lw	a2,0(a5)
100045b0:	0047a683          	lw	a3,4(a5)
100045b4:	b89fb0ef          	jal	ra,1000013c <__adddf3>
100045b8:	b5dfd0ef          	jal	ra,10002114 <__fixdfsi>
100045bc:	00050913          	mv	s2,a0
100045c0:	00842503          	lw	a0,8(s0)
100045c4:	ea9fe0ef          	jal	ra,1000346c <__extendsfdf2>
100045c8:	0009a603          	lw	a2,0(s3)
100045cc:	0049a683          	lw	a3,4(s3)
100045d0:	c35fc0ef          	jal	ra,10001204 <__muldf3>
100045d4:	b41fd0ef          	jal	ra,10002114 <__fixdfsi>
100045d8:	00a90933          	add	s2,s2,a0
100045dc:	00197913          	andi	s2,s2,1
100045e0:	1e090263          	beqz	s2,100047c4 <_Z15scene_intersect4vec3S_P6SphereiPS_S2_P8Material+0x3f0>
100045e4:	00005797          	auipc	a5,0x5
100045e8:	fd87a783          	lw	a5,-40(a5) # 100095bc <__clz_tab+0x344>
100045ec:	00078713          	mv	a4,a5
100045f0:	00005697          	auipc	a3,0x5
100045f4:	fcc6a683          	lw	a3,-52(a3) # 100095bc <__clz_tab+0x344>
100045f8:	00daaa23          	sw	a3,20(s5)
100045fc:	00faac23          	sw	a5,24(s5)
10004600:	00eaae23          	sw	a4,28(s5)
10004604:	00048593          	mv	a1,s1
10004608:	000b0513          	mv	a0,s6
1000460c:	d04fe0ef          	jal	ra,10002b10 <__lesf2>
10004610:	00055463          	bgez	a0,10004618 <_Z15scene_intersect4vec3S_P6SphereiPS_S2_P8Material+0x244>
10004614:	000b0493          	mv	s1,s6
10004618:	00005597          	auipc	a1,0x5
1000461c:	fc05a583          	lw	a1,-64(a1) # 100095d8 <__clz_tab+0x360>
10004620:	00048513          	mv	a0,s1
10004624:	cecfe0ef          	jal	ra,10002b10 <__lesf2>
10004628:	09c12083          	lw	ra,156(sp)
1000462c:	09812403          	lw	s0,152(sp)
10004630:	09412483          	lw	s1,148(sp)
10004634:	09012903          	lw	s2,144(sp)
10004638:	08c12983          	lw	s3,140(sp)
1000463c:	08812a03          	lw	s4,136(sp)
10004640:	08412a83          	lw	s5,132(sp)
10004644:	08012b03          	lw	s6,128(sp)
10004648:	07c12b83          	lw	s7,124(sp)
1000464c:	07812c03          	lw	s8,120(sp)
10004650:	07412c83          	lw	s9,116(sp)
10004654:	07012d03          	lw	s10,112(sp)
10004658:	06c12d83          	lw	s11,108(sp)
1000465c:	00052513          	slti	a0,a0,0
10004660:	0a010113          	addi	sp,sp,160
10004664:	00008067          	ret
10004668:	00812783          	lw	a5,8(sp)
1000466c:	00c12503          	lw	a0,12(sp)
10004670:	00c00613          	li	a2,12
10004674:	00fc2223          	sw	a5,4(s8)
10004678:	01812783          	lw	a5,24(sp)
1000467c:	000c0593          	mv	a1,s8
10004680:	019c2023          	sw	s9,0(s8)
10004684:	00fc2423          	sw	a5,8(s8)
10004688:	01412783          	lw	a5,20(sp)
1000468c:	01a92023          	sw	s10,0(s2)
10004690:	01492223          	sw	s4,4(s2)
10004694:	00f92423          	sw	a5,8(s2)
10004698:	25d010ef          	jal	ra,100060f4 <memcpy>
1000469c:	01012503          	lw	a0,16(sp)
100046a0:	00c00613          	li	a2,12
100046a4:	00090593          	mv	a1,s2
100046a8:	24d010ef          	jal	ra,100060f4 <memcpy>
100046ac:	02012683          	lw	a3,32(sp)
100046b0:	01012603          	lw	a2,16(sp)
100046b4:	00c12583          	lw	a1,12(sp)
100046b8:	00048513          	mv	a0,s1
100046bc:	f98ff0ef          	jal	ra,10003e54 <_Z20Sphere_ray_intersectP6Sphere4vec3S1_Pf>
100046c0:	0e050c63          	beqz	a0,100047b8 <_Z15scene_intersect4vec3S_P6SphereiPS_S2_P8Material+0x3e4>
100046c4:	05012783          	lw	a5,80(sp)
100046c8:	000b0593          	mv	a1,s6
100046cc:	00078513          	mv	a0,a5
100046d0:	00f12223          	sw	a5,4(sp)
100046d4:	c3cfe0ef          	jal	ra,10002b10 <__lesf2>
100046d8:	0e055063          	bgez	a0,100047b8 <_Z15scene_intersect4vec3S_P6SphereiPS_S2_P8Material+0x3e4>
100046dc:	00412503          	lw	a0,4(sp)
100046e0:	000d0593          	mv	a1,s10
100046e4:	d08fe0ef          	jal	ra,10002bec <__mulsf3>
100046e8:	000c8593          	mv	a1,s9
100046ec:	b51fd0ef          	jal	ra,1000223c <__addsf3>
100046f0:	00050b13          	mv	s6,a0
100046f4:	00412503          	lw	a0,4(sp)
100046f8:	000a0593          	mv	a1,s4
100046fc:	cf0fe0ef          	jal	ra,10002bec <__mulsf3>
10004700:	00812583          	lw	a1,8(sp)
10004704:	b39fd0ef          	jal	ra,1000223c <__addsf3>
10004708:	01412583          	lw	a1,20(sp)
1000470c:	02a12423          	sw	a0,40(sp)
10004710:	00412503          	lw	a0,4(sp)
10004714:	cd8fe0ef          	jal	ra,10002bec <__mulsf3>
10004718:	01812583          	lw	a1,24(sp)
1000471c:	b21fd0ef          	jal	ra,1000223c <__addsf3>
10004720:	02812703          	lw	a4,40(sp)
10004724:	01642023          	sw	s6,0(s0)
10004728:	00a42423          	sw	a0,8(s0)
1000472c:	00e42223          	sw	a4,4(s0)
10004730:	0044a583          	lw	a1,4(s1) # 80000004 <__BSS_END__$+0x6fff5bbc>
10004734:	02a12423          	sw	a0,40(sp)
10004738:	00070513          	mv	a0,a4
1000473c:	815fe0ef          	jal	ra,10002f50 <__subsf3>
10004740:	02812783          	lw	a5,40(sp)
10004744:	0084a583          	lw	a1,8(s1)
10004748:	02a12623          	sw	a0,44(sp)
1000474c:	00078513          	mv	a0,a5
10004750:	801fe0ef          	jal	ra,10002f50 <__subsf3>
10004754:	0004a583          	lw	a1,0(s1)
10004758:	02a12423          	sw	a0,40(sp)
1000475c:	000b0513          	mv	a0,s6
10004760:	ff0fe0ef          	jal	ra,10002f50 <__subsf3>
10004764:	02c12703          	lw	a4,44(sp)
10004768:	02812783          	lw	a5,40(sp)
1000476c:	02412583          	lw	a1,36(sp)
10004770:	04a12a23          	sw	a0,84(sp)
10004774:	01012503          	lw	a0,16(sp)
10004778:	00c00613          	li	a2,12
1000477c:	04e12c23          	sw	a4,88(sp)
10004780:	04f12e23          	sw	a5,92(sp)
10004784:	171010ef          	jal	ra,100060f4 <memcpy>
10004788:	01012583          	lw	a1,16(sp)
1000478c:	00c12503          	lw	a0,12(sp)
10004790:	ac4ff0ef          	jal	ra,10003a54 <_ZL14vec3_normalize4vec3>
10004794:	00c12583          	lw	a1,12(sp)
10004798:	00c00613          	li	a2,12
1000479c:	000b8513          	mv	a0,s7
100047a0:	155010ef          	jal	ra,100060f4 <memcpy>
100047a4:	02400613          	li	a2,36
100047a8:	01048593          	addi	a1,s1,16
100047ac:	000a8513          	mv	a0,s5
100047b0:	145010ef          	jal	ra,100060f4 <memcpy>
100047b4:	00412b03          	lw	s6,4(sp)
100047b8:	001d8d93          	addi	s11,s11,1
100047bc:	03448493          	addi	s1,s1,52
100047c0:	cbdff06f          	j	1000447c <_Z15scene_intersect4vec3S_P6SphereiPS_S2_P8Material+0xa8>
100047c4:	00005797          	auipc	a5,0x5
100047c8:	dfc7a783          	lw	a5,-516(a5) # 100095c0 <__clz_tab+0x348>
100047cc:	00005717          	auipc	a4,0x5
100047d0:	df872703          	lw	a4,-520(a4) # 100095c4 <__clz_tab+0x34c>
100047d4:	e1dff06f          	j	100045f0 <_Z15scene_intersect4vec3S_P6SphereiPS_S2_P8Material+0x21c>
100047d8:	00098493          	mv	s1,s3
100047dc:	e29ff06f          	j	10004604 <_Z15scene_intersect4vec3S_P6SphereiPS_S2_P8Material+0x230>

100047e0 <_Z8cast_ray4vec3S_P6SphereiP5Lightii>:
100047e0:	e5010113          	addi	sp,sp,-432
100047e4:	19612823          	sw	s6,400(sp)
100047e8:	00078b13          	mv	s6,a5
100047ec:	00462783          	lw	a5,4(a2)
100047f0:	1a912223          	sw	s1,420(sp)
100047f4:	12810493          	addi	s1,sp,296
100047f8:	19812423          	sw	s8,392(sp)
100047fc:	00050c13          	mv	s8,a0
10004800:	00048513          	mv	a0,s1
10004804:	1a812423          	sw	s0,424(sp)
10004808:	00b12223          	sw	a1,4(sp)
1000480c:	02f12023          	sw	a5,32(sp)
10004810:	1a112623          	sw	ra,428(sp)
10004814:	1b212023          	sw	s2,416(sp)
10004818:	19312e23          	sw	s3,412(sp)
1000481c:	19412c23          	sw	s4,408(sp)
10004820:	19512a23          	sw	s5,404(sp)
10004824:	19712623          	sw	s7,396(sp)
10004828:	19912223          	sw	s9,388(sp)
1000482c:	19a12023          	sw	s10,384(sp)
10004830:	17b12e23          	sw	s11,380(sp)
10004834:	00c12623          	sw	a2,12(sp)
10004838:	00d12823          	sw	a3,16(sp)
1000483c:	00e12a23          	sw	a4,20(sp)
10004840:	01012e23          	sw	a6,28(sp)
10004844:	00088413          	mv	s0,a7
10004848:	d80ff0ef          	jal	ra,10003dc8 <_Z21make_Material_defaultv>
1000484c:	00200793          	li	a5,2
10004850:	00412583          	lw	a1,4(sp)
10004854:	0e87de63          	bge	a5,s0,10004950 <_Z8cast_ray4vec3S_P6SphereiP5Lightii+0x170>
10004858:	02012503          	lw	a0,32(sp)
1000485c:	c11fe0ef          	jal	ra,1000346c <__extendsfdf2>
10004860:	00005797          	auipc	a5,0x5
10004864:	e0078793          	addi	a5,a5,-512 # 10009660 <__clz_tab+0x3e8>
10004868:	0007a603          	lw	a2,0(a5)
1000486c:	0047a683          	lw	a3,4(a5)
10004870:	8cdfb0ef          	jal	ra,1000013c <__adddf3>
10004874:	00005797          	auipc	a5,0x5
10004878:	ddc78793          	addi	a5,a5,-548 # 10009650 <__clz_tab+0x3d8>
1000487c:	0007a603          	lw	a2,0(a5)
10004880:	0047a683          	lw	a3,4(a5)
10004884:	981fc0ef          	jal	ra,10001204 <__muldf3>
10004888:	cc1fe0ef          	jal	ra,10003548 <__truncdfsf2>
1000488c:	00000593          	li	a1,0
10004890:	00050913          	mv	s2,a0
10004894:	b58fe0ef          	jal	ra,10002bec <__mulsf3>
10004898:	00050413          	mv	s0,a0
1000489c:	00005597          	auipc	a1,0x5
100048a0:	d245a583          	lw	a1,-732(a1) # 100095c0 <__clz_tab+0x348>
100048a4:	00090513          	mv	a0,s2
100048a8:	b44fe0ef          	jal	ra,10002bec <__mulsf3>
100048ac:	00040593          	mv	a1,s0
100048b0:	98dfd0ef          	jal	ra,1000223c <__addsf3>
100048b4:	00005597          	auipc	a1,0x5
100048b8:	d285a583          	lw	a1,-728(a1) # 100095dc <__clz_tab+0x364>
100048bc:	00050493          	mv	s1,a0
100048c0:	00090513          	mv	a0,s2
100048c4:	b28fe0ef          	jal	ra,10002bec <__mulsf3>
100048c8:	00040593          	mv	a1,s0
100048cc:	971fd0ef          	jal	ra,1000223c <__addsf3>
100048d0:	00005597          	auipc	a1,0x5
100048d4:	d105a583          	lw	a1,-752(a1) # 100095e0 <__clz_tab+0x368>
100048d8:	00050413          	mv	s0,a0
100048dc:	00090513          	mv	a0,s2
100048e0:	b0cfe0ef          	jal	ra,10002bec <__mulsf3>
100048e4:	00050993          	mv	s3,a0
100048e8:	00005597          	auipc	a1,0x5
100048ec:	cfc5a583          	lw	a1,-772(a1) # 100095e4 <__clz_tab+0x36c>
100048f0:	00090513          	mv	a0,s2
100048f4:	af8fe0ef          	jal	ra,10002bec <__mulsf3>
100048f8:	00050593          	mv	a1,a0
100048fc:	00098513          	mv	a0,s3
10004900:	93dfd0ef          	jal	ra,1000223c <__addsf3>
10004904:	1ac12083          	lw	ra,428(sp)
10004908:	008c2223          	sw	s0,4(s8)
1000490c:	1a812403          	lw	s0,424(sp)
10004910:	009c2023          	sw	s1,0(s8)
10004914:	00ac2423          	sw	a0,8(s8)
10004918:	1a412483          	lw	s1,420(sp)
1000491c:	1a012903          	lw	s2,416(sp)
10004920:	19c12983          	lw	s3,412(sp)
10004924:	19812a03          	lw	s4,408(sp)
10004928:	19412a83          	lw	s5,404(sp)
1000492c:	19012b03          	lw	s6,400(sp)
10004930:	18c12b83          	lw	s7,396(sp)
10004934:	18412c83          	lw	s9,388(sp)
10004938:	18012d03          	lw	s10,384(sp)
1000493c:	17c12d83          	lw	s11,380(sp)
10004940:	000c0513          	mv	a0,s8
10004944:	18812c03          	lw	s8,392(sp)
10004948:	1b010113          	addi	sp,sp,432
1000494c:	00008067          	ret
10004950:	04010793          	addi	a5,sp,64
10004954:	00c00613          	li	a2,12
10004958:	00078513          	mv	a0,a5
1000495c:	00f12223          	sw	a5,4(sp)
10004960:	794010ef          	jal	ra,100060f4 <memcpy>
10004964:	00c12583          	lw	a1,12(sp)
10004968:	03010793          	addi	a5,sp,48
1000496c:	00c00613          	li	a2,12
10004970:	00078513          	mv	a0,a5
10004974:	00f12423          	sw	a5,8(sp)
10004978:	77c010ef          	jal	ra,100060f4 <memcpy>
1000497c:	01412683          	lw	a3,20(sp)
10004980:	01012603          	lw	a2,16(sp)
10004984:	00812583          	lw	a1,8(sp)
10004988:	00412503          	lw	a0,4(sp)
1000498c:	06810793          	addi	a5,sp,104
10004990:	00048813          	mv	a6,s1
10004994:	05c10713          	addi	a4,sp,92
10004998:	00f12c23          	sw	a5,24(sp)
1000499c:	a39ff0ef          	jal	ra,100043d4 <_Z15scene_intersect4vec3S_P6SphereiPS_S2_P8Material>
100049a0:	ea050ce3          	beqz	a0,10004858 <_Z8cast_ray4vec3S_P6SphereiP5Lightii+0x78>
100049a4:	00c12583          	lw	a1,12(sp)
100049a8:	00412503          	lw	a0,4(sp)
100049ac:	00c00613          	li	a2,12
100049b0:	0ec10493          	addi	s1,sp,236
100049b4:	740010ef          	jal	ra,100060f4 <memcpy>
100049b8:	01812583          	lw	a1,24(sp)
100049bc:	00812503          	lw	a0,8(sp)
100049c0:	00c00613          	li	a2,12
100049c4:	08010b93          	addi	s7,sp,128
100049c8:	72c010ef          	jal	ra,100060f4 <memcpy>
100049cc:	00812603          	lw	a2,8(sp)
100049d0:	00412583          	lw	a1,4(sp)
100049d4:	00048513          	mv	a0,s1
100049d8:	e38ff0ef          	jal	ra,10004010 <_Z7reflect4vec3S_>
100049dc:	00412503          	lw	a0,4(sp)
100049e0:	07410793          	addi	a5,sp,116
100049e4:	00c00613          	li	a2,12
100049e8:	00048593          	mv	a1,s1
100049ec:	02f12223          	sw	a5,36(sp)
100049f0:	704010ef          	jal	ra,100060f4 <memcpy>
100049f4:	00412583          	lw	a1,4(sp)
100049f8:	02412503          	lw	a0,36(sp)
100049fc:	0f810493          	addi	s1,sp,248
10004a00:	854ff0ef          	jal	ra,10003a54 <_ZL14vec3_normalize4vec3>
10004a04:	00c12583          	lw	a1,12(sp)
10004a08:	00412503          	lw	a0,4(sp)
10004a0c:	00c00613          	li	a2,12
10004a10:	6e4010ef          	jal	ra,100060f4 <memcpy>
10004a14:	01812583          	lw	a1,24(sp)
10004a18:	00812503          	lw	a0,8(sp)
10004a1c:	00c00613          	li	a2,12
10004a20:	6d4010ef          	jal	ra,100060f4 <memcpy>
10004a24:	12812683          	lw	a3,296(sp)
10004a28:	00812603          	lw	a2,8(sp)
10004a2c:	00412583          	lw	a1,4(sp)
10004a30:	00005717          	auipc	a4,0x5
10004a34:	b7c72703          	lw	a4,-1156(a4) # 100095ac <__clz_tab+0x334>
10004a38:	00048513          	mv	a0,s1
10004a3c:	ee8ff0ef          	jal	ra,10004124 <_Z7refract4vec3S_ff>
10004a40:	00412503          	lw	a0,4(sp)
10004a44:	00c00613          	li	a2,12
10004a48:	00048593          	mv	a1,s1
10004a4c:	6a8010ef          	jal	ra,100060f4 <memcpy>
10004a50:	00412583          	lw	a1,4(sp)
10004a54:	000b8513          	mv	a0,s7
10004a58:	ffdfe0ef          	jal	ra,10003a54 <_ZL14vec3_normalize4vec3>
10004a5c:	06812983          	lw	s3,104(sp)
10004a60:	07412583          	lw	a1,116(sp)
10004a64:	06c12903          	lw	s2,108(sp)
10004a68:	00098513          	mv	a0,s3
10004a6c:	980fe0ef          	jal	ra,10002bec <__mulsf3>
10004a70:	07812583          	lw	a1,120(sp)
10004a74:	00050a13          	mv	s4,a0
10004a78:	00090513          	mv	a0,s2
10004a7c:	970fe0ef          	jal	ra,10002bec <__mulsf3>
10004a80:	00050593          	mv	a1,a0
10004a84:	000a0513          	mv	a0,s4
10004a88:	fb4fd0ef          	jal	ra,1000223c <__addsf3>
10004a8c:	07012483          	lw	s1,112(sp)
10004a90:	07c12583          	lw	a1,124(sp)
10004a94:	00050a13          	mv	s4,a0
10004a98:	00048513          	mv	a0,s1
10004a9c:	950fe0ef          	jal	ra,10002bec <__mulsf3>
10004aa0:	00050593          	mv	a1,a0
10004aa4:	000a0513          	mv	a0,s4
10004aa8:	f94fd0ef          	jal	ra,1000223c <__addsf3>
10004aac:	00000593          	li	a1,0
10004ab0:	860fe0ef          	jal	ra,10002b10 <__lesf2>
10004ab4:	00005597          	auipc	a1,0x5
10004ab8:	b345a583          	lw	a1,-1228(a1) # 100095e8 <__clz_tab+0x370>
10004abc:	2e055e63          	bgez	a0,10004db8 <_Z8cast_ray4vec3S_P6SphereiP5Lightii+0x5d8>
10004ac0:	00098513          	mv	a0,s3
10004ac4:	928fe0ef          	jal	ra,10002bec <__mulsf3>
10004ac8:	00050593          	mv	a1,a0
10004acc:	05c12503          	lw	a0,92(sp)
10004ad0:	c80fe0ef          	jal	ra,10002f50 <__subsf3>
10004ad4:	00005597          	auipc	a1,0x5
10004ad8:	b145a583          	lw	a1,-1260(a1) # 100095e8 <__clz_tab+0x370>
10004adc:	00050a93          	mv	s5,a0
10004ae0:	00090513          	mv	a0,s2
10004ae4:	908fe0ef          	jal	ra,10002bec <__mulsf3>
10004ae8:	00050593          	mv	a1,a0
10004aec:	06012503          	lw	a0,96(sp)
10004af0:	c60fe0ef          	jal	ra,10002f50 <__subsf3>
10004af4:	00005597          	auipc	a1,0x5
10004af8:	af45a583          	lw	a1,-1292(a1) # 100095e8 <__clz_tab+0x370>
10004afc:	00050a13          	mv	s4,a0
10004b00:	00048513          	mv	a0,s1
10004b04:	8e8fe0ef          	jal	ra,10002bec <__mulsf3>
10004b08:	00050593          	mv	a1,a0
10004b0c:	06412503          	lw	a0,100(sp)
10004b10:	c40fe0ef          	jal	ra,10002f50 <__subsf3>
10004b14:	08a12a23          	sw	a0,148(sp)
10004b18:	00005597          	auipc	a1,0x5
10004b1c:	ad05a583          	lw	a1,-1328(a1) # 100095e8 <__clz_tab+0x370>
10004b20:	00098513          	mv	a0,s3
10004b24:	09512623          	sw	s5,140(sp)
10004b28:	09412823          	sw	s4,144(sp)
10004b2c:	8c0fe0ef          	jal	ra,10002bec <__mulsf3>
10004b30:	02a12423          	sw	a0,40(sp)
10004b34:	00005597          	auipc	a1,0x5
10004b38:	ab45a583          	lw	a1,-1356(a1) # 100095e8 <__clz_tab+0x370>
10004b3c:	00090513          	mv	a0,s2
10004b40:	8acfe0ef          	jal	ra,10002bec <__mulsf3>
10004b44:	00005597          	auipc	a1,0x5
10004b48:	aa45a583          	lw	a1,-1372(a1) # 100095e8 <__clz_tab+0x370>
10004b4c:	00050a93          	mv	s5,a0
10004b50:	00048513          	mv	a0,s1
10004b54:	898fe0ef          	jal	ra,10002bec <__mulsf3>
10004b58:	08012583          	lw	a1,128(sp)
10004b5c:	00050a13          	mv	s4,a0
10004b60:	00098513          	mv	a0,s3
10004b64:	888fe0ef          	jal	ra,10002bec <__mulsf3>
10004b68:	08412583          	lw	a1,132(sp)
10004b6c:	00050993          	mv	s3,a0
10004b70:	00090513          	mv	a0,s2
10004b74:	878fe0ef          	jal	ra,10002bec <__mulsf3>
10004b78:	00050593          	mv	a1,a0
10004b7c:	00098513          	mv	a0,s3
10004b80:	ebcfd0ef          	jal	ra,1000223c <__addsf3>
10004b84:	08812583          	lw	a1,136(sp)
10004b88:	00050913          	mv	s2,a0
10004b8c:	00048513          	mv	a0,s1
10004b90:	85cfe0ef          	jal	ra,10002bec <__mulsf3>
10004b94:	00050593          	mv	a1,a0
10004b98:	00090513          	mv	a0,s2
10004b9c:	ea0fd0ef          	jal	ra,1000223c <__addsf3>
10004ba0:	00000593          	li	a1,0
10004ba4:	f6dfd0ef          	jal	ra,10002b10 <__lesf2>
10004ba8:	05c12d83          	lw	s11,92(sp)
10004bac:	06012d03          	lw	s10,96(sp)
10004bb0:	06412c83          	lw	s9,100(sp)
10004bb4:	02812583          	lw	a1,40(sp)
10004bb8:	24055663          	bgez	a0,10004e04 <_Z8cast_ray4vec3S_P6SphereiP5Lightii+0x624>
10004bbc:	000d8513          	mv	a0,s11
10004bc0:	b90fe0ef          	jal	ra,10002f50 <__subsf3>
10004bc4:	000a8593          	mv	a1,s5
10004bc8:	00050493          	mv	s1,a0
10004bcc:	000d0513          	mv	a0,s10
10004bd0:	b80fe0ef          	jal	ra,10002f50 <__subsf3>
10004bd4:	00050913          	mv	s2,a0
10004bd8:	000a0593          	mv	a1,s4
10004bdc:	000c8513          	mv	a0,s9
10004be0:	b70fe0ef          	jal	ra,10002f50 <__subsf3>
10004be4:	0aa12023          	sw	a0,160(sp)
10004be8:	00412503          	lw	a0,4(sp)
10004bec:	00c00613          	li	a2,12
10004bf0:	08c10593          	addi	a1,sp,140
10004bf4:	08912c23          	sw	s1,152(sp)
10004bf8:	09212e23          	sw	s2,156(sp)
10004bfc:	4f8010ef          	jal	ra,100060f4 <memcpy>
10004c00:	02412583          	lw	a1,36(sp)
10004c04:	00812503          	lw	a0,8(sp)
10004c08:	00c00613          	li	a2,12
10004c0c:	00140413          	addi	s0,s0,1
10004c10:	4e4010ef          	jal	ra,100060f4 <memcpy>
10004c14:	01c12803          	lw	a6,28(sp)
10004c18:	01412703          	lw	a4,20(sp)
10004c1c:	01012683          	lw	a3,16(sp)
10004c20:	00812603          	lw	a2,8(sp)
10004c24:	00412583          	lw	a1,4(sp)
10004c28:	00040893          	mv	a7,s0
10004c2c:	000b0793          	mv	a5,s6
10004c30:	0a410513          	addi	a0,sp,164
10004c34:	badff0ef          	jal	ra,100047e0 <_Z8cast_ray4vec3S_P6SphereiP5Lightii>
10004c38:	00412503          	lw	a0,4(sp)
10004c3c:	00c00613          	li	a2,12
10004c40:	09810593          	addi	a1,sp,152
10004c44:	4b0010ef          	jal	ra,100060f4 <memcpy>
10004c48:	00812503          	lw	a0,8(sp)
10004c4c:	00c00613          	li	a2,12
10004c50:	000b8593          	mv	a1,s7
10004c54:	4a0010ef          	jal	ra,100060f4 <memcpy>
10004c58:	01c12803          	lw	a6,28(sp)
10004c5c:	01412703          	lw	a4,20(sp)
10004c60:	01012683          	lw	a3,16(sp)
10004c64:	00812603          	lw	a2,8(sp)
10004c68:	00412583          	lw	a1,4(sp)
10004c6c:	00040893          	mv	a7,s0
10004c70:	000b0793          	mv	a5,s6
10004c74:	0b010513          	addi	a0,sp,176
10004c78:	b69ff0ef          	jal	ra,100047e0 <_Z8cast_ray4vec3S_P6SphereiP5Lightii>
10004c7c:	0bc10793          	addi	a5,sp,188
10004c80:	00000493          	li	s1,0
10004c84:	02f12223          	sw	a5,36(sp)
10004c88:	10410793          	addi	a5,sp,260
10004c8c:	000b0413          	mv	s0,s6
10004c90:	00000993          	li	s3,0
10004c94:	00048913          	mv	s2,s1
10004c98:	02f12623          	sw	a5,44(sp)
10004c9c:	01c12783          	lw	a5,28(sp)
10004ca0:	18f9c863          	blt	s3,a5,10004e30 <_Z8cast_ray4vec3S_P6SphereiP5Lightii+0x650>
10004ca4:	12c12583          	lw	a1,300(sp)
10004ca8:	00090513          	mv	a0,s2
10004cac:	f41fd0ef          	jal	ra,10002bec <__mulsf3>
10004cb0:	13012583          	lw	a1,304(sp)
10004cb4:	00050993          	mv	s3,a0
10004cb8:	00048513          	mv	a0,s1
10004cbc:	f31fd0ef          	jal	ra,10002bec <__mulsf3>
10004cc0:	13c12583          	lw	a1,316(sp)
10004cc4:	00050913          	mv	s2,a0
10004cc8:	00098513          	mv	a0,s3
10004ccc:	f21fd0ef          	jal	ra,10002bec <__mulsf3>
10004cd0:	00090593          	mv	a1,s2
10004cd4:	d68fd0ef          	jal	ra,1000223c <__addsf3>
10004cd8:	13412a83          	lw	s5,308(sp)
10004cdc:	0a412583          	lw	a1,164(sp)
10004ce0:	00050413          	mv	s0,a0
10004ce4:	000a8513          	mv	a0,s5
10004ce8:	f05fd0ef          	jal	ra,10002bec <__mulsf3>
10004cec:	00050593          	mv	a1,a0
10004cf0:	00040513          	mv	a0,s0
10004cf4:	d48fd0ef          	jal	ra,1000223c <__addsf3>
10004cf8:	13812a03          	lw	s4,312(sp)
10004cfc:	0b012583          	lw	a1,176(sp)
10004d00:	00050413          	mv	s0,a0
10004d04:	000a0513          	mv	a0,s4
10004d08:	ee5fd0ef          	jal	ra,10002bec <__mulsf3>
10004d0c:	00050593          	mv	a1,a0
10004d10:	00040513          	mv	a0,s0
10004d14:	d28fd0ef          	jal	ra,1000223c <__addsf3>
10004d18:	14012583          	lw	a1,320(sp)
10004d1c:	00050493          	mv	s1,a0
10004d20:	00098513          	mv	a0,s3
10004d24:	ec9fd0ef          	jal	ra,10002bec <__mulsf3>
10004d28:	00090593          	mv	a1,s2
10004d2c:	d10fd0ef          	jal	ra,1000223c <__addsf3>
10004d30:	0a812583          	lw	a1,168(sp)
10004d34:	00050413          	mv	s0,a0
10004d38:	000a8513          	mv	a0,s5
10004d3c:	eb1fd0ef          	jal	ra,10002bec <__mulsf3>
10004d40:	00050593          	mv	a1,a0
10004d44:	00040513          	mv	a0,s0
10004d48:	cf4fd0ef          	jal	ra,1000223c <__addsf3>
10004d4c:	0b412583          	lw	a1,180(sp)
10004d50:	00050413          	mv	s0,a0
10004d54:	000a0513          	mv	a0,s4
10004d58:	e95fd0ef          	jal	ra,10002bec <__mulsf3>
10004d5c:	00050593          	mv	a1,a0
10004d60:	00040513          	mv	a0,s0
10004d64:	cd8fd0ef          	jal	ra,1000223c <__addsf3>
10004d68:	14412583          	lw	a1,324(sp)
10004d6c:	00050413          	mv	s0,a0
10004d70:	00098513          	mv	a0,s3
10004d74:	e79fd0ef          	jal	ra,10002bec <__mulsf3>
10004d78:	00090593          	mv	a1,s2
10004d7c:	cc0fd0ef          	jal	ra,1000223c <__addsf3>
10004d80:	0ac12583          	lw	a1,172(sp)
10004d84:	00050913          	mv	s2,a0
10004d88:	000a8513          	mv	a0,s5
10004d8c:	e61fd0ef          	jal	ra,10002bec <__mulsf3>
10004d90:	00050593          	mv	a1,a0
10004d94:	00090513          	mv	a0,s2
10004d98:	ca4fd0ef          	jal	ra,1000223c <__addsf3>
10004d9c:	0b812583          	lw	a1,184(sp)
10004da0:	00050913          	mv	s2,a0
10004da4:	000a0513          	mv	a0,s4
10004da8:	e45fd0ef          	jal	ra,10002bec <__mulsf3>
10004dac:	00050593          	mv	a1,a0
10004db0:	00090513          	mv	a0,s2
10004db4:	b4dff06f          	j	10004900 <_Z8cast_ray4vec3S_P6SphereiP5Lightii+0x120>
10004db8:	00098513          	mv	a0,s3
10004dbc:	e31fd0ef          	jal	ra,10002bec <__mulsf3>
10004dc0:	05c12583          	lw	a1,92(sp)
10004dc4:	c78fd0ef          	jal	ra,1000223c <__addsf3>
10004dc8:	00005597          	auipc	a1,0x5
10004dcc:	8205a583          	lw	a1,-2016(a1) # 100095e8 <__clz_tab+0x370>
10004dd0:	00050a93          	mv	s5,a0
10004dd4:	00090513          	mv	a0,s2
10004dd8:	e15fd0ef          	jal	ra,10002bec <__mulsf3>
10004ddc:	06012583          	lw	a1,96(sp)
10004de0:	c5cfd0ef          	jal	ra,1000223c <__addsf3>
10004de4:	00005597          	auipc	a1,0x5
10004de8:	8045a583          	lw	a1,-2044(a1) # 100095e8 <__clz_tab+0x370>
10004dec:	00050a13          	mv	s4,a0
10004df0:	00048513          	mv	a0,s1
10004df4:	df9fd0ef          	jal	ra,10002bec <__mulsf3>
10004df8:	06412583          	lw	a1,100(sp)
10004dfc:	c40fd0ef          	jal	ra,1000223c <__addsf3>
10004e00:	d15ff06f          	j	10004b14 <_Z8cast_ray4vec3S_P6SphereiP5Lightii+0x334>
10004e04:	000d8513          	mv	a0,s11
10004e08:	c34fd0ef          	jal	ra,1000223c <__addsf3>
10004e0c:	000a8593          	mv	a1,s5
10004e10:	00050493          	mv	s1,a0
10004e14:	000d0513          	mv	a0,s10
10004e18:	c24fd0ef          	jal	ra,1000223c <__addsf3>
10004e1c:	00050913          	mv	s2,a0
10004e20:	000a0593          	mv	a1,s4
10004e24:	000c8513          	mv	a0,s9
10004e28:	c14fd0ef          	jal	ra,1000223c <__addsf3>
10004e2c:	db9ff06f          	j	10004be4 <_Z8cast_ray4vec3S_P6SphereiP5Lightii+0x404>
10004e30:	06012583          	lw	a1,96(sp)
10004e34:	00442503          	lw	a0,4(s0)
10004e38:	918fe0ef          	jal	ra,10002f50 <__subsf3>
10004e3c:	06412583          	lw	a1,100(sp)
10004e40:	00050a93          	mv	s5,a0
10004e44:	00842503          	lw	a0,8(s0)
10004e48:	908fe0ef          	jal	ra,10002f50 <__subsf3>
10004e4c:	05c12583          	lw	a1,92(sp)
10004e50:	00050a13          	mv	s4,a0
10004e54:	00042503          	lw	a0,0(s0)
10004e58:	8f8fe0ef          	jal	ra,10002f50 <__subsf3>
10004e5c:	02c12583          	lw	a1,44(sp)
10004e60:	10a12223          	sw	a0,260(sp)
10004e64:	00412503          	lw	a0,4(sp)
10004e68:	00c00613          	li	a2,12
10004e6c:	11512423          	sw	s5,264(sp)
10004e70:	11412623          	sw	s4,268(sp)
10004e74:	280010ef          	jal	ra,100060f4 <memcpy>
10004e78:	00412583          	lw	a1,4(sp)
10004e7c:	02412503          	lw	a0,36(sp)
10004e80:	bd5fe0ef          	jal	ra,10003a54 <_ZL14vec3_normalize4vec3>
10004e84:	05c12583          	lw	a1,92(sp)
10004e88:	00042503          	lw	a0,0(s0)
10004e8c:	8c4fe0ef          	jal	ra,10002f50 <__subsf3>
10004e90:	00050a93          	mv	s5,a0
10004e94:	06012583          	lw	a1,96(sp)
10004e98:	00442503          	lw	a0,4(s0)
10004e9c:	8b4fe0ef          	jal	ra,10002f50 <__subsf3>
10004ea0:	00050b13          	mv	s6,a0
10004ea4:	06412583          	lw	a1,100(sp)
10004ea8:	00842503          	lw	a0,8(s0)
10004eac:	8a4fe0ef          	jal	ra,10002f50 <__subsf3>
10004eb0:	00050a13          	mv	s4,a0
10004eb4:	000a8593          	mv	a1,s5
10004eb8:	000a8513          	mv	a0,s5
10004ebc:	d31fd0ef          	jal	ra,10002bec <__mulsf3>
10004ec0:	00050a93          	mv	s5,a0
10004ec4:	000b0593          	mv	a1,s6
10004ec8:	000b0513          	mv	a0,s6
10004ecc:	d21fd0ef          	jal	ra,10002bec <__mulsf3>
10004ed0:	00050593          	mv	a1,a0
10004ed4:	000a8513          	mv	a0,s5
10004ed8:	b64fd0ef          	jal	ra,1000223c <__addsf3>
10004edc:	00050a93          	mv	s5,a0
10004ee0:	000a0593          	mv	a1,s4
10004ee4:	000a0513          	mv	a0,s4
10004ee8:	d05fd0ef          	jal	ra,10002bec <__mulsf3>
10004eec:	00050593          	mv	a1,a0
10004ef0:	000a8513          	mv	a0,s5
10004ef4:	b48fd0ef          	jal	ra,1000223c <__addsf3>
10004ef8:	5f8010ef          	jal	ra,100064f0 <sqrtf>
10004efc:	0bc12c83          	lw	s9,188(sp)
10004f00:	06812b83          	lw	s7,104(sp)
10004f04:	0c012d03          	lw	s10,192(sp)
10004f08:	06c12b03          	lw	s6,108(sp)
10004f0c:	000b8593          	mv	a1,s7
10004f10:	00050a13          	mv	s4,a0
10004f14:	000c8513          	mv	a0,s9
10004f18:	cd5fd0ef          	jal	ra,10002bec <__mulsf3>
10004f1c:	02a12423          	sw	a0,40(sp)
10004f20:	000b0593          	mv	a1,s6
10004f24:	000d0513          	mv	a0,s10
10004f28:	cc5fd0ef          	jal	ra,10002bec <__mulsf3>
10004f2c:	00050593          	mv	a1,a0
10004f30:	02812503          	lw	a0,40(sp)
10004f34:	0c412d83          	lw	s11,196(sp)
10004f38:	07012a83          	lw	s5,112(sp)
10004f3c:	b00fd0ef          	jal	ra,1000223c <__addsf3>
10004f40:	02a12423          	sw	a0,40(sp)
10004f44:	000a8593          	mv	a1,s5
10004f48:	000d8513          	mv	a0,s11
10004f4c:	ca1fd0ef          	jal	ra,10002bec <__mulsf3>
10004f50:	00050593          	mv	a1,a0
10004f54:	02812503          	lw	a0,40(sp)
10004f58:	ae4fd0ef          	jal	ra,1000223c <__addsf3>
10004f5c:	00000593          	li	a1,0
10004f60:	bb1fd0ef          	jal	ra,10002b10 <__lesf2>
10004f64:	00004797          	auipc	a5,0x4
10004f68:	68478793          	addi	a5,a5,1668 # 100095e8 <__clz_tab+0x370>
10004f6c:	0007a583          	lw	a1,0(a5)
10004f70:	22055663          	bgez	a0,1000519c <_Z8cast_ray4vec3S_P6SphereiP5Lightii+0x9bc>
10004f74:	000b8513          	mv	a0,s7
10004f78:	c75fd0ef          	jal	ra,10002bec <__mulsf3>
10004f7c:	00050593          	mv	a1,a0
10004f80:	05c12503          	lw	a0,92(sp)
10004f84:	fcdfd0ef          	jal	ra,10002f50 <__subsf3>
10004f88:	00004797          	auipc	a5,0x4
10004f8c:	66078793          	addi	a5,a5,1632 # 100095e8 <__clz_tab+0x370>
10004f90:	0007a583          	lw	a1,0(a5)
10004f94:	00050b93          	mv	s7,a0
10004f98:	000b0513          	mv	a0,s6
10004f9c:	c51fd0ef          	jal	ra,10002bec <__mulsf3>
10004fa0:	00050593          	mv	a1,a0
10004fa4:	06012503          	lw	a0,96(sp)
10004fa8:	fa9fd0ef          	jal	ra,10002f50 <__subsf3>
10004fac:	00004797          	auipc	a5,0x4
10004fb0:	63c78793          	addi	a5,a5,1596 # 100095e8 <__clz_tab+0x370>
10004fb4:	0007a583          	lw	a1,0(a5)
10004fb8:	00050b13          	mv	s6,a0
10004fbc:	000a8513          	mv	a0,s5
10004fc0:	c2dfd0ef          	jal	ra,10002bec <__mulsf3>
10004fc4:	00050593          	mv	a1,a0
10004fc8:	06412503          	lw	a0,100(sp)
10004fcc:	f85fd0ef          	jal	ra,10002f50 <__subsf3>
10004fd0:	0ca12823          	sw	a0,208(sp)
10004fd4:	00050a93          	mv	s5,a0
10004fd8:	00412503          	lw	a0,4(sp)
10004fdc:	00c00613          	li	a2,12
10004fe0:	0c810593          	addi	a1,sp,200
10004fe4:	0d712423          	sw	s7,200(sp)
10004fe8:	0d612623          	sw	s6,204(sp)
10004fec:	108010ef          	jal	ra,100060f4 <memcpy>
10004ff0:	02412583          	lw	a1,36(sp)
10004ff4:	00812503          	lw	a0,8(sp)
10004ff8:	00c00613          	li	a2,12
10004ffc:	0f8010ef          	jal	ra,100060f4 <memcpy>
10005000:	01412683          	lw	a3,20(sp)
10005004:	01012603          	lw	a2,16(sp)
10005008:	00812583          	lw	a1,8(sp)
1000500c:	00412503          	lw	a0,4(sp)
10005010:	14c10813          	addi	a6,sp,332
10005014:	0e010793          	addi	a5,sp,224
10005018:	0d410713          	addi	a4,sp,212
1000501c:	bb8ff0ef          	jal	ra,100043d4 <_Z15scene_intersect4vec3S_P6SphereiPS_S2_P8Material>
10005020:	1c051863          	bnez	a0,100051f0 <_Z8cast_ray4vec3S_P6SphereiP5Lightii+0xa10>
10005024:	06812583          	lw	a1,104(sp)
10005028:	000c8513          	mv	a0,s9
1000502c:	00c42a83          	lw	s5,12(s0)
10005030:	bbdfd0ef          	jal	ra,10002bec <__mulsf3>
10005034:	06c12583          	lw	a1,108(sp)
10005038:	00050a13          	mv	s4,a0
1000503c:	000d0513          	mv	a0,s10
10005040:	badfd0ef          	jal	ra,10002bec <__mulsf3>
10005044:	00050593          	mv	a1,a0
10005048:	000a0513          	mv	a0,s4
1000504c:	9f0fd0ef          	jal	ra,1000223c <__addsf3>
10005050:	07012583          	lw	a1,112(sp)
10005054:	00050a13          	mv	s4,a0
10005058:	000d8513          	mv	a0,s11
1000505c:	b91fd0ef          	jal	ra,10002bec <__mulsf3>
10005060:	00050593          	mv	a1,a0
10005064:	000a0513          	mv	a0,s4
10005068:	9d4fd0ef          	jal	ra,1000223c <__addsf3>
1000506c:	00000593          	li	a1,0
10005070:	00050a13          	mv	s4,a0
10005074:	a9dfd0ef          	jal	ra,10002b10 <__lesf2>
10005078:	00055463          	bgez	a0,10005080 <_Z8cast_ray4vec3S_P6SphereiP5Lightii+0x8a0>
1000507c:	00000a13          	li	s4,0
10005080:	000a0593          	mv	a1,s4
10005084:	000a8513          	mv	a0,s5
10005088:	b65fd0ef          	jal	ra,10002bec <__mulsf3>
1000508c:	00050593          	mv	a1,a0
10005090:	00090513          	mv	a0,s2
10005094:	9a8fd0ef          	jal	ra,1000223c <__addsf3>
10005098:	00050913          	mv	s2,a0
1000509c:	00412503          	lw	a0,4(sp)
100050a0:	80000ab7          	lui	s5,0x80000
100050a4:	00c00613          	li	a2,12
100050a8:	11010593          	addi	a1,sp,272
100050ac:	019accb3          	xor	s9,s5,s9
100050b0:	01aacd33          	xor	s10,s5,s10
100050b4:	01bacdb3          	xor	s11,s5,s11
100050b8:	11912823          	sw	s9,272(sp)
100050bc:	11a12a23          	sw	s10,276(sp)
100050c0:	11b12c23          	sw	s11,280(sp)
100050c4:	030010ef          	jal	ra,100060f4 <memcpy>
100050c8:	01812583          	lw	a1,24(sp)
100050cc:	00812503          	lw	a0,8(sp)
100050d0:	00c00613          	li	a2,12
100050d4:	020010ef          	jal	ra,100060f4 <memcpy>
100050d8:	00812603          	lw	a2,8(sp)
100050dc:	00412583          	lw	a1,4(sp)
100050e0:	11c10513          	addi	a0,sp,284
100050e4:	f2dfe0ef          	jal	ra,10004010 <_Z7reflect4vec3S_>
100050e8:	00c12783          	lw	a5,12(sp)
100050ec:	11c12503          	lw	a0,284(sp)
100050f0:	0007a583          	lw	a1,0(a5)
100050f4:	01554533          	xor	a0,a0,s5
100050f8:	af5fd0ef          	jal	ra,10002bec <__mulsf3>
100050fc:	00050a13          	mv	s4,a0
10005100:	12012503          	lw	a0,288(sp)
10005104:	02012583          	lw	a1,32(sp)
10005108:	01554533          	xor	a0,a0,s5
1000510c:	ae1fd0ef          	jal	ra,10002bec <__mulsf3>
10005110:	00050593          	mv	a1,a0
10005114:	000a0513          	mv	a0,s4
10005118:	924fd0ef          	jal	ra,1000223c <__addsf3>
1000511c:	00c12783          	lw	a5,12(sp)
10005120:	00050a13          	mv	s4,a0
10005124:	12412503          	lw	a0,292(sp)
10005128:	0087a583          	lw	a1,8(a5)
1000512c:	01554533          	xor	a0,a0,s5
10005130:	abdfd0ef          	jal	ra,10002bec <__mulsf3>
10005134:	00050593          	mv	a1,a0
10005138:	000a0513          	mv	a0,s4
1000513c:	900fd0ef          	jal	ra,1000223c <__addsf3>
10005140:	00000593          	li	a1,0
10005144:	00050a13          	mv	s4,a0
10005148:	9c9fd0ef          	jal	ra,10002b10 <__lesf2>
1000514c:	12054663          	bltz	a0,10005278 <_Z8cast_ray4vec3S_P6SphereiP5Lightii+0xa98>
10005150:	00000593          	li	a1,0
10005154:	000a0513          	mv	a0,s4
10005158:	8ddfd0ef          	jal	ra,10002a34 <__gesf2>
1000515c:	10a05e63          	blez	a0,10005278 <_Z8cast_ray4vec3S_P6SphereiP5Lightii+0xa98>
10005160:	14812a83          	lw	s5,328(sp)
10005164:	00000593          	li	a1,0
10005168:	000a8513          	mv	a0,s5
1000516c:	8c9fd0ef          	jal	ra,10002a34 <__gesf2>
10005170:	10a05463          	blez	a0,10005278 <_Z8cast_ray4vec3S_P6SphereiP5Lightii+0xa98>
10005174:	000a8593          	mv	a1,s5
10005178:	000a0513          	mv	a0,s4
1000517c:	25c010ef          	jal	ra,100063d8 <powf>
10005180:	00c42583          	lw	a1,12(s0)
10005184:	a69fd0ef          	jal	ra,10002bec <__mulsf3>
10005188:	00050593          	mv	a1,a0
1000518c:	00048513          	mv	a0,s1
10005190:	8acfd0ef          	jal	ra,1000223c <__addsf3>
10005194:	00050493          	mv	s1,a0
10005198:	0e00006f          	j	10005278 <_Z8cast_ray4vec3S_P6SphereiP5Lightii+0xa98>
1000519c:	000b8513          	mv	a0,s7
100051a0:	a4dfd0ef          	jal	ra,10002bec <__mulsf3>
100051a4:	05c12583          	lw	a1,92(sp)
100051a8:	894fd0ef          	jal	ra,1000223c <__addsf3>
100051ac:	00004797          	auipc	a5,0x4
100051b0:	43c78793          	addi	a5,a5,1084 # 100095e8 <__clz_tab+0x370>
100051b4:	0007a583          	lw	a1,0(a5)
100051b8:	00050b93          	mv	s7,a0
100051bc:	000b0513          	mv	a0,s6
100051c0:	a2dfd0ef          	jal	ra,10002bec <__mulsf3>
100051c4:	06012583          	lw	a1,96(sp)
100051c8:	874fd0ef          	jal	ra,1000223c <__addsf3>
100051cc:	00004797          	auipc	a5,0x4
100051d0:	41c78793          	addi	a5,a5,1052 # 100095e8 <__clz_tab+0x370>
100051d4:	0007a583          	lw	a1,0(a5)
100051d8:	00050b13          	mv	s6,a0
100051dc:	000a8513          	mv	a0,s5
100051e0:	a0dfd0ef          	jal	ra,10002bec <__mulsf3>
100051e4:	06412583          	lw	a1,100(sp)
100051e8:	854fd0ef          	jal	ra,1000223c <__addsf3>
100051ec:	de5ff06f          	j	10004fd0 <_Z8cast_ray4vec3S_P6SphereiP5Lightii+0x7f0>
100051f0:	0d412503          	lw	a0,212(sp)
100051f4:	000b8593          	mv	a1,s7
100051f8:	d59fd0ef          	jal	ra,10002f50 <__subsf3>
100051fc:	00050b93          	mv	s7,a0
10005200:	0d812503          	lw	a0,216(sp)
10005204:	000b0593          	mv	a1,s6
10005208:	d49fd0ef          	jal	ra,10002f50 <__subsf3>
1000520c:	00050b13          	mv	s6,a0
10005210:	0dc12503          	lw	a0,220(sp)
10005214:	000a8593          	mv	a1,s5
10005218:	d39fd0ef          	jal	ra,10002f50 <__subsf3>
1000521c:	00050a93          	mv	s5,a0
10005220:	000b8593          	mv	a1,s7
10005224:	000b8513          	mv	a0,s7
10005228:	9c5fd0ef          	jal	ra,10002bec <__mulsf3>
1000522c:	000b0593          	mv	a1,s6
10005230:	00050b93          	mv	s7,a0
10005234:	000b0513          	mv	a0,s6
10005238:	9b5fd0ef          	jal	ra,10002bec <__mulsf3>
1000523c:	00050593          	mv	a1,a0
10005240:	000b8513          	mv	a0,s7
10005244:	ff9fc0ef          	jal	ra,1000223c <__addsf3>
10005248:	00050b13          	mv	s6,a0
1000524c:	000a8593          	mv	a1,s5
10005250:	000a8513          	mv	a0,s5
10005254:	999fd0ef          	jal	ra,10002bec <__mulsf3>
10005258:	00050593          	mv	a1,a0
1000525c:	000b0513          	mv	a0,s6
10005260:	fddfc0ef          	jal	ra,1000223c <__addsf3>
10005264:	28c010ef          	jal	ra,100064f0 <sqrtf>
10005268:	00050593          	mv	a1,a0
1000526c:	000a0513          	mv	a0,s4
10005270:	fc4fd0ef          	jal	ra,10002a34 <__gesf2>
10005274:	daa058e3          	blez	a0,10005024 <_Z8cast_ray4vec3S_P6SphereiP5Lightii+0x844>
10005278:	00198993          	addi	s3,s3,1
1000527c:	01040413          	addi	s0,s0,16
10005280:	a1dff06f          	j	10004c9c <_Z8cast_ray4vec3S_P6SphereiP5Lightii+0x4bc>

10005284 <_Z6renderP6SphereiP5Lighti>:
10005284:	f5010113          	addi	sp,sp,-176
10005288:	04c10793          	addi	a5,sp,76
1000528c:	00f12423          	sw	a5,8(sp)
10005290:	03010793          	addi	a5,sp,48
10005294:	0a812423          	sw	s0,168(sp)
10005298:	0a912223          	sw	s1,164(sp)
1000529c:	09812423          	sw	s8,136(sp)
100052a0:	0a112623          	sw	ra,172(sp)
100052a4:	0b212023          	sw	s2,160(sp)
100052a8:	09312e23          	sw	s3,156(sp)
100052ac:	09412c23          	sw	s4,152(sp)
100052b0:	09512a23          	sw	s5,148(sp)
100052b4:	09612823          	sw	s6,144(sp)
100052b8:	09712623          	sw	s7,140(sp)
100052bc:	09912223          	sw	s9,132(sp)
100052c0:	09a12023          	sw	s10,128(sp)
100052c4:	07b12e23          	sw	s11,124(sp)
100052c8:	00a12623          	sw	a0,12(sp)
100052cc:	00b12823          	sw	a1,16(sp)
100052d0:	00c12a23          	sw	a2,20(sp)
100052d4:	00d12c23          	sw	a3,24(sp)
100052d8:	00000413          	li	s0,0
100052dc:	00004497          	auipc	s1,0x4
100052e0:	37448493          	addi	s1,s1,884 # 10009650 <__clz_tab+0x3d8>
100052e4:	00004c17          	auipc	s8,0x4
100052e8:	384c0c13          	addi	s8,s8,900 # 10009668 <__clz_tab+0x3f0>
100052ec:	00f12223          	sw	a5,4(sp)
100052f0:	00005917          	auipc	s2,0x5
100052f4:	a1890913          	addi	s2,s2,-1512 # 10009d08 <_ZL15graphics_height>
100052f8:	00092783          	lw	a5,0(s2)
100052fc:	1cf44863          	blt	s0,a5,100054cc <_Z6renderP6SphereiP5Lighti+0x248>
10005300:	0ac12083          	lw	ra,172(sp)
10005304:	0a812403          	lw	s0,168(sp)
10005308:	0a412483          	lw	s1,164(sp)
1000530c:	0a012903          	lw	s2,160(sp)
10005310:	09c12983          	lw	s3,156(sp)
10005314:	09812a03          	lw	s4,152(sp)
10005318:	09412a83          	lw	s5,148(sp)
1000531c:	09012b03          	lw	s6,144(sp)
10005320:	08c12b83          	lw	s7,140(sp)
10005324:	08812c03          	lw	s8,136(sp)
10005328:	08412c83          	lw	s9,132(sp)
1000532c:	08012d03          	lw	s10,128(sp)
10005330:	07c12d83          	lw	s11,124(sp)
10005334:	0b010113          	addi	sp,sp,176
10005338:	00008067          	ret
1000533c:	00098513          	mv	a0,s3
10005340:	e55fc0ef          	jal	ra,10002194 <__floatsidf>
10005344:	0004a603          	lw	a2,0(s1)
10005348:	0044a683          	lw	a3,4(s1)
1000534c:	df1fa0ef          	jal	ra,1000013c <__adddf3>
10005350:	00050b93          	mv	s7,a0
10005354:	000a0513          	mv	a0,s4
10005358:	00058b13          	mv	s6,a1
1000535c:	e39fc0ef          	jal	ra,10002194 <__floatsidf>
10005360:	0004a603          	lw	a2,0(s1)
10005364:	0044a683          	lw	a3,4(s1)
10005368:	e9dfb0ef          	jal	ra,10001204 <__muldf3>
1000536c:	00050613          	mv	a2,a0
10005370:	00058693          	mv	a3,a1
10005374:	000b8513          	mv	a0,s7
10005378:	000b0593          	mv	a1,s6
1000537c:	d44fc0ef          	jal	ra,100018c0 <__subdf3>
10005380:	9c8fe0ef          	jal	ra,10003548 <__truncdfsf2>
10005384:	00092a03          	lw	s4,0(s2)
10005388:	00050c93          	mv	s9,a0
1000538c:	000a0513          	mv	a0,s4
10005390:	e05fc0ef          	jal	ra,10002194 <__floatsidf>
10005394:	0004a603          	lw	a2,0(s1)
10005398:	0044a683          	lw	a3,4(s1)
1000539c:	e69fb0ef          	jal	ra,10001204 <__muldf3>
100053a0:	00050b93          	mv	s7,a0
100053a4:	00040513          	mv	a0,s0
100053a8:	00058b13          	mv	s6,a1
100053ac:	de9fc0ef          	jal	ra,10002194 <__floatsidf>
100053b0:	0004a603          	lw	a2,0(s1)
100053b4:	0044a683          	lw	a3,4(s1)
100053b8:	d85fa0ef          	jal	ra,1000013c <__adddf3>
100053bc:	00050613          	mv	a2,a0
100053c0:	00058693          	mv	a3,a1
100053c4:	000b8513          	mv	a0,s7
100053c8:	000b0593          	mv	a1,s6
100053cc:	cf4fc0ef          	jal	ra,100018c0 <__subdf3>
100053d0:	978fe0ef          	jal	ra,10003548 <__truncdfsf2>
100053d4:	00050b93          	mv	s7,a0
100053d8:	41400533          	neg	a0,s4
100053dc:	db9fc0ef          	jal	ra,10002194 <__floatsidf>
100053e0:	00050b13          	mv	s6,a0
100053e4:	00058a13          	mv	s4,a1
100053e8:	000c2503          	lw	a0,0(s8)
100053ec:	004c2583          	lw	a1,4(s8)
100053f0:	745000ef          	jal	ra,10006334 <tan>
100053f4:	00000793          	li	a5,0
100053f8:	00050613          	mv	a2,a0
100053fc:	00058693          	mv	a3,a1
10005400:	06f12223          	sw	a5,100(sp)
10005404:	06f12423          	sw	a5,104(sp)
10005408:	06f12623          	sw	a5,108(sp)
1000540c:	05912c23          	sw	s9,88(sp)
10005410:	05712e23          	sw	s7,92(sp)
10005414:	d29fa0ef          	jal	ra,1000013c <__adddf3>
10005418:	00058693          	mv	a3,a1
1000541c:	00050613          	mv	a2,a0
10005420:	000a0593          	mv	a1,s4
10005424:	000b0513          	mv	a0,s6
10005428:	d00fb0ef          	jal	ra,10000928 <__divdf3>
1000542c:	91cfe0ef          	jal	ra,10003548 <__truncdfsf2>
10005430:	01c12583          	lw	a1,28(sp)
10005434:	06a12023          	sw	a0,96(sp)
10005438:	00412503          	lw	a0,4(sp)
1000543c:	00c00613          	li	a2,12
10005440:	4b5000ef          	jal	ra,100060f4 <memcpy>
10005444:	00412583          	lw	a1,4(sp)
10005448:	00812503          	lw	a0,8(sp)
1000544c:	e08fe0ef          	jal	ra,10003a54 <_ZL14vec3_normalize4vec3>
10005450:	00412503          	lw	a0,4(sp)
10005454:	00c00613          	li	a2,12
10005458:	000d8593          	mv	a1,s11
1000545c:	499000ef          	jal	ra,100060f4 <memcpy>
10005460:	00812583          	lw	a1,8(sp)
10005464:	02010e13          	addi	t3,sp,32
10005468:	000e0513          	mv	a0,t3
1000546c:	00c00613          	li	a2,12
10005470:	485000ef          	jal	ra,100060f4 <memcpy>
10005474:	01812803          	lw	a6,24(sp)
10005478:	01412783          	lw	a5,20(sp)
1000547c:	01012703          	lw	a4,16(sp)
10005480:	00c12683          	lw	a3,12(sp)
10005484:	00412583          	lw	a1,4(sp)
10005488:	00050613          	mv	a2,a0
1000548c:	00000893          	li	a7,0
10005490:	000d0513          	mv	a0,s10
10005494:	b4cff0ef          	jal	ra,100047e0 <_Z8cast_ray4vec3S_P6SphereiP5Lightii>
10005498:	04812703          	lw	a4,72(sp)
1000549c:	04412683          	lw	a3,68(sp)
100054a0:	04012603          	lw	a2,64(sp)
100054a4:	00098513          	mv	a0,s3
100054a8:	00040593          	mv	a1,s0
100054ac:	e80fe0ef          	jal	ra,10003b2c <_Z18graphics_set_pixeliifff>
100054b0:	00198993          	addi	s3,s3,1
100054b4:	000aaa03          	lw	s4,0(s5) # 80000000 <__BSS_END__$+0x6fff5bb8>
100054b8:	e949c2e3          	blt	s3,s4,1000533c <_Z6renderP6SphereiP5Lighti+0xb8>
100054bc:	00040513          	mv	a0,s0
100054c0:	155000ef          	jal	ra,10005e14 <_Z11LEDSetStatem>
100054c4:	00140413          	addi	s0,s0,1
100054c8:	e29ff06f          	j	100052f0 <_Z6renderP6SphereiP5Lighti+0x6c>
100054cc:	05810793          	addi	a5,sp,88
100054d0:	00000993          	li	s3,0
100054d4:	00005a97          	auipc	s5,0x5
100054d8:	838a8a93          	addi	s5,s5,-1992 # 10009d0c <_ZL14graphics_width>
100054dc:	00f12e23          	sw	a5,28(sp)
100054e0:	04010d13          	addi	s10,sp,64
100054e4:	06410d93          	addi	s11,sp,100
100054e8:	fcdff06f          	j	100054b4 <_Z6renderP6SphereiP5Lighti+0x230>

100054ec <_Z10init_scenev>:
100054ec:	dd010113          	addi	sp,sp,-560
100054f0:	22912223          	sw	s1,548(sp)
100054f4:	09010493          	addi	s1,sp,144
100054f8:	21312e23          	sw	s3,540(sp)
100054fc:	21512a23          	sw	s5,532(sp)
10005500:	21612823          	sw	s6,528(sp)
10005504:	21a12023          	sw	s10,512(sp)
10005508:	00004997          	auipc	s3,0x4
1000550c:	0bc9a983          	lw	s3,188(s3) # 100095c4 <__clz_tab+0x34c>
10005510:	00000d13          	li	s10,0
10005514:	00004797          	auipc	a5,0x4
10005518:	0dc7a783          	lw	a5,220(a5) # 100095f0 <__clz_tab+0x378>
1000551c:	00004a97          	auipc	s5,0x4
10005520:	0a0aaa83          	lw	s5,160(s5) # 100095bc <__clz_tab+0x344>
10005524:	00004b17          	auipc	s6,0x4
10005528:	0c8b2b03          	lw	s6,200(s6) # 100095ec <__clz_tab+0x374>
1000552c:	13010593          	addi	a1,sp,304
10005530:	01000613          	li	a2,16
10005534:	00048513          	mv	a0,s1
10005538:	22112623          	sw	ra,556(sp)
1000553c:	22812423          	sw	s0,552(sp)
10005540:	23212023          	sw	s2,544(sp)
10005544:	08010413          	addi	s0,sp,128
10005548:	21412c23          	sw	s4,536(sp)
1000554c:	21712623          	sw	s7,524(sp)
10005550:	21812423          	sw	s8,520(sp)
10005554:	21912223          	sw	s9,516(sp)
10005558:	0af12623          	sw	a5,172(sp)
1000555c:	0af12823          	sw	a5,176(sp)
10005560:	13612823          	sw	s6,304(sp)
10005564:	13512a23          	sw	s5,308(sp)
10005568:	13312c23          	sw	s3,312(sp)
1000556c:	13a12e23          	sw	s10,316(sp)
10005570:	0b512a23          	sw	s5,180(sp)
10005574:	381000ef          	jal	ra,100060f4 <memcpy>
10005578:	0ac10593          	addi	a1,sp,172
1000557c:	00c00613          	li	a2,12
10005580:	00040513          	mv	a0,s0
10005584:	371000ef          	jal	ra,100060f4 <memcpy>
10005588:	17010b93          	addi	s7,sp,368
1000558c:	00004917          	auipc	s2,0x4
10005590:	02092903          	lw	s2,32(s2) # 100095ac <__clz_tab+0x334>
10005594:	00004c97          	auipc	s9,0x4
10005598:	060cac83          	lw	s9,96(s9) # 100095f4 <__clz_tab+0x37c>
1000559c:	000c8713          	mv	a4,s9
100055a0:	00040693          	mv	a3,s0
100055a4:	00048613          	mv	a2,s1
100055a8:	00090593          	mv	a1,s2
100055ac:	000b8513          	mv	a0,s7
100055b0:	fb0fe0ef          	jal	ra,10003d60 <_Z13make_Materialf4vec44vec3f>
100055b4:	00004797          	auipc	a5,0x4
100055b8:	02c7a783          	lw	a5,44(a5) # 100095e0 <__clz_tab+0x368>
100055bc:	00004a17          	auipc	s4,0x4
100055c0:	028a2a03          	lw	s4,40(s4) # 100095e4 <__clz_tab+0x36c>
100055c4:	14f12223          	sw	a5,324(sp)
100055c8:	14010593          	addi	a1,sp,320
100055cc:	00004797          	auipc	a5,0x4
100055d0:	0107a783          	lw	a5,16(a5) # 100095dc <__clz_tab+0x364>
100055d4:	01000613          	li	a2,16
100055d8:	00048513          	mv	a0,s1
100055dc:	0af12e23          	sw	a5,188(sp)
100055e0:	15a12023          	sw	s10,320(sp)
100055e4:	15312423          	sw	s3,328(sp)
100055e8:	15412623          	sw	s4,332(sp)
100055ec:	0b612c23          	sw	s6,184(sp)
100055f0:	0d412023          	sw	s4,192(sp)
100055f4:	301000ef          	jal	ra,100060f4 <memcpy>
100055f8:	0b810593          	addi	a1,sp,184
100055fc:	00c00613          	li	a2,12
10005600:	00040513          	mv	a0,s0
10005604:	2f1000ef          	jal	ra,100060f4 <memcpy>
10005608:	19410b13          	addi	s6,sp,404
1000560c:	00004c17          	auipc	s8,0x4
10005610:	ff0c2c03          	lw	s8,-16(s8) # 100095fc <__clz_tab+0x384>
10005614:	00040693          	mv	a3,s0
10005618:	00004717          	auipc	a4,0x4
1000561c:	fe072703          	lw	a4,-32(a4) # 100095f8 <__clz_tab+0x380>
10005620:	00048613          	mv	a2,s1
10005624:	000c0593          	mv	a1,s8
10005628:	000b0513          	mv	a0,s6
1000562c:	f34fe0ef          	jal	ra,10003d60 <_Z13make_Materialf4vec44vec3f>
10005630:	00004797          	auipc	a5,0x4
10005634:	fd07a783          	lw	a5,-48(a5) # 10009600 <__clz_tab+0x388>
10005638:	15010593          	addi	a1,sp,336
1000563c:	01000613          	li	a2,16
10005640:	00048513          	mv	a0,s1
10005644:	14f12823          	sw	a5,336(sp)
10005648:	15312a23          	sw	s3,340(sp)
1000564c:	15a12c23          	sw	s10,344(sp)
10005650:	15a12e23          	sw	s10,348(sp)
10005654:	0d512223          	sw	s5,196(sp)
10005658:	0d312423          	sw	s3,200(sp)
1000565c:	0d312623          	sw	s3,204(sp)
10005660:	295000ef          	jal	ra,100060f4 <memcpy>
10005664:	0c410593          	addi	a1,sp,196
10005668:	00c00613          	li	a2,12
1000566c:	00040513          	mv	a0,s0
10005670:	285000ef          	jal	ra,100060f4 <memcpy>
10005674:	1b810a93          	addi	s5,sp,440
10005678:	00004997          	auipc	s3,0x4
1000567c:	f549a983          	lw	s3,-172(s3) # 100095cc <__clz_tab+0x354>
10005680:	00098713          	mv	a4,s3
10005684:	00040693          	mv	a3,s0
10005688:	00048613          	mv	a2,s1
1000568c:	00090593          	mv	a1,s2
10005690:	000a8513          	mv	a0,s5
10005694:	eccfe0ef          	jal	ra,10003d60 <_Z13make_Materialf4vec44vec3f>
10005698:	16010593          	addi	a1,sp,352
1000569c:	01000613          	li	a2,16
100056a0:	00048513          	mv	a0,s1
100056a4:	17a12023          	sw	s10,352(sp)
100056a8:	17312223          	sw	s3,356(sp)
100056ac:	17412423          	sw	s4,360(sp)
100056b0:	17a12623          	sw	s10,364(sp)
100056b4:	0d212823          	sw	s2,208(sp)
100056b8:	0d212a23          	sw	s2,212(sp)
100056bc:	0d212c23          	sw	s2,216(sp)
100056c0:	235000ef          	jal	ra,100060f4 <memcpy>
100056c4:	0d010593          	addi	a1,sp,208
100056c8:	00c00613          	li	a2,12
100056cc:	00040513          	mv	a0,s0
100056d0:	225000ef          	jal	ra,100060f4 <memcpy>
100056d4:	1dc10a13          	addi	s4,sp,476
100056d8:	00004717          	auipc	a4,0x4
100056dc:	f2c72703          	lw	a4,-212(a4) # 10009604 <__clz_tab+0x38c>
100056e0:	00040693          	mv	a3,s0
100056e4:	00048613          	mv	a2,s1
100056e8:	00090593          	mv	a1,s2
100056ec:	000a0513          	mv	a0,s4
100056f0:	e70fe0ef          	jal	ra,10003d60 <_Z13make_Materialf4vec44vec3f>
100056f4:	00004797          	auipc	a5,0x4
100056f8:	f147a783          	lw	a5,-236(a5) # 10009608 <__clz_tab+0x390>
100056fc:	0cf12e23          	sw	a5,220(sp)
10005700:	0dc10593          	addi	a1,sp,220
10005704:	00004797          	auipc	a5,0x4
10005708:	f087a783          	lw	a5,-248(a5) # 1000960c <__clz_tab+0x394>
1000570c:	00c00613          	li	a2,12
10005710:	00040513          	mv	a0,s0
10005714:	01010913          	addi	s2,sp,16
10005718:	0ef12223          	sw	a5,228(sp)
1000571c:	0fa12023          	sw	s10,224(sp)
10005720:	1d5000ef          	jal	ra,100060f4 <memcpy>
10005724:	000b8593          	mv	a1,s7
10005728:	02400613          	li	a2,36
1000572c:	00090513          	mv	a0,s2
10005730:	04010493          	addi	s1,sp,64
10005734:	1c1000ef          	jal	ra,100060f4 <memcpy>
10005738:	00004b97          	auipc	s7,0x4
1000573c:	f30bab83          	lw	s7,-208(s7) # 10009668 <__clz_tab+0x3f0>
10005740:	00090693          	mv	a3,s2
10005744:	000b8613          	mv	a2,s7
10005748:	00040593          	mv	a1,s0
1000574c:	00048513          	mv	a0,s1
10005750:	eacfe0ef          	jal	ra,10003dfc <_Z11make_Sphere4vec3f8Material>
10005754:	00005997          	auipc	s3,0x5
10005758:	a009a983          	lw	s3,-1536(s3) # 1000a154 <_GLOBAL_OFFSET_TABLE_+0x14>
1000575c:	00048593          	mv	a1,s1
10005760:	03400613          	li	a2,52
10005764:	00098513          	mv	a0,s3
10005768:	18d000ef          	jal	ra,100060f4 <memcpy>
1000576c:	00004797          	auipc	a5,0x4
10005770:	e487a783          	lw	a5,-440(a5) # 100095b4 <__clz_tab+0x33c>
10005774:	0ef12423          	sw	a5,232(sp)
10005778:	00004797          	auipc	a5,0x4
1000577c:	e987a783          	lw	a5,-360(a5) # 10009610 <__clz_tab+0x398>
10005780:	0ef12623          	sw	a5,236(sp)
10005784:	0e810593          	addi	a1,sp,232
10005788:	00004797          	auipc	a5,0x4
1000578c:	e8c7a783          	lw	a5,-372(a5) # 10009614 <__clz_tab+0x39c>
10005790:	00c00613          	li	a2,12
10005794:	00040513          	mv	a0,s0
10005798:	0ef12823          	sw	a5,240(sp)
1000579c:	159000ef          	jal	ra,100060f4 <memcpy>
100057a0:	000b0593          	mv	a1,s6
100057a4:	02400613          	li	a2,36
100057a8:	00090513          	mv	a0,s2
100057ac:	149000ef          	jal	ra,100060f4 <memcpy>
100057b0:	00090693          	mv	a3,s2
100057b4:	000b8613          	mv	a2,s7
100057b8:	00040593          	mv	a1,s0
100057bc:	00048513          	mv	a0,s1
100057c0:	e3cfe0ef          	jal	ra,10003dfc <_Z11make_Sphere4vec3f8Material>
100057c4:	00048593          	mv	a1,s1
100057c8:	03400613          	li	a2,52
100057cc:	03498513          	addi	a0,s3,52
100057d0:	125000ef          	jal	ra,100060f4 <memcpy>
100057d4:	00004797          	auipc	a5,0x4
100057d8:	e447a783          	lw	a5,-444(a5) # 10009618 <__clz_tab+0x3a0>
100057dc:	00004b17          	auipc	s6,0x4
100057e0:	e40b2b03          	lw	s6,-448(s6) # 1000961c <__clz_tab+0x3a4>
100057e4:	0f410593          	addi	a1,sp,244
100057e8:	00c00613          	li	a2,12
100057ec:	00040513          	mv	a0,s0
100057f0:	0ef12c23          	sw	a5,248(sp)
100057f4:	0f812a23          	sw	s8,244(sp)
100057f8:	0f612e23          	sw	s6,252(sp)
100057fc:	0f9000ef          	jal	ra,100060f4 <memcpy>
10005800:	000a8593          	mv	a1,s5
10005804:	02400613          	li	a2,36
10005808:	00090513          	mv	a0,s2
1000580c:	0e9000ef          	jal	ra,100060f4 <memcpy>
10005810:	00090693          	mv	a3,s2
10005814:	00040593          	mv	a1,s0
10005818:	00048513          	mv	a0,s1
1000581c:	00004617          	auipc	a2,0x4
10005820:	e0462603          	lw	a2,-508(a2) # 10009620 <__clz_tab+0x3a8>
10005824:	dd8fe0ef          	jal	ra,10003dfc <_Z11make_Sphere4vec3f8Material>
10005828:	00048593          	mv	a1,s1
1000582c:	03400613          	li	a2,52
10005830:	06898513          	addi	a0,s3,104
10005834:	0c1000ef          	jal	ra,100060f4 <memcpy>
10005838:	00004797          	auipc	a5,0x4
1000583c:	dec7a783          	lw	a5,-532(a5) # 10009624 <__clz_tab+0x3ac>
10005840:	10f12023          	sw	a5,256(sp)
10005844:	10010593          	addi	a1,sp,256
10005848:	00004797          	auipc	a5,0x4
1000584c:	de07a783          	lw	a5,-544(a5) # 10009628 <__clz_tab+0x3b0>
10005850:	00c00613          	li	a2,12
10005854:	00040513          	mv	a0,s0
10005858:	10f12223          	sw	a5,260(sp)
1000585c:	11612423          	sw	s6,264(sp)
10005860:	095000ef          	jal	ra,100060f4 <memcpy>
10005864:	000a0593          	mv	a1,s4
10005868:	02400613          	li	a2,36
1000586c:	00090513          	mv	a0,s2
10005870:	085000ef          	jal	ra,100060f4 <memcpy>
10005874:	00090693          	mv	a3,s2
10005878:	00040593          	mv	a1,s0
1000587c:	00048513          	mv	a0,s1
10005880:	00004617          	auipc	a2,0x4
10005884:	d4862603          	lw	a2,-696(a2) # 100095c8 <__clz_tab+0x350>
10005888:	d74fe0ef          	jal	ra,10003dfc <_Z11make_Sphere4vec3f8Material>
1000588c:	00048593          	mv	a1,s1
10005890:	03400613          	li	a2,52
10005894:	09c98513          	addi	a0,s3,156
10005898:	05d000ef          	jal	ra,100060f4 <memcpy>
1000589c:	00004797          	auipc	a5,0x4
100058a0:	d907a783          	lw	a5,-624(a5) # 1000962c <__clz_tab+0x3b4>
100058a4:	00004a17          	auipc	s4,0x4
100058a8:	d8ca2a03          	lw	s4,-628(s4) # 10009630 <__clz_tab+0x3b8>
100058ac:	10c10593          	addi	a1,sp,268
100058b0:	00c00613          	li	a2,12
100058b4:	00040513          	mv	a0,s0
100058b8:	00010493          	mv	s1,sp
100058bc:	10f12623          	sw	a5,268(sp)
100058c0:	11412823          	sw	s4,272(sp)
100058c4:	11412a23          	sw	s4,276(sp)
100058c8:	02d000ef          	jal	ra,100060f4 <memcpy>
100058cc:	000c0613          	mv	a2,s8
100058d0:	00040593          	mv	a1,s0
100058d4:	00048513          	mv	a0,s1
100058d8:	c4cfe0ef          	jal	ra,10003d24 <_Z10make_Light4vec3f>
100058dc:	00005917          	auipc	s2,0x5
100058e0:	88092903          	lw	s2,-1920(s2) # 1000a15c <_GLOBAL_OFFSET_TABLE_+0x1c>
100058e4:	00048593          	mv	a1,s1
100058e8:	01000613          	li	a2,16
100058ec:	00090513          	mv	a0,s2
100058f0:	005000ef          	jal	ra,100060f4 <memcpy>
100058f4:	00004797          	auipc	a5,0x4
100058f8:	d447a783          	lw	a5,-700(a5) # 10009638 <__clz_tab+0x3c0>
100058fc:	00004997          	auipc	s3,0x4
10005900:	d389a983          	lw	s3,-712(s3) # 10009634 <__clz_tab+0x3bc>
10005904:	11810593          	addi	a1,sp,280
10005908:	00c00613          	li	a2,12
1000590c:	00040513          	mv	a0,s0
10005910:	12f12023          	sw	a5,288(sp)
10005914:	11312c23          	sw	s3,280(sp)
10005918:	11912e23          	sw	s9,284(sp)
1000591c:	7d8000ef          	jal	ra,100060f4 <memcpy>
10005920:	00040593          	mv	a1,s0
10005924:	00048513          	mv	a0,s1
10005928:	00004617          	auipc	a2,0x4
1000592c:	d1462603          	lw	a2,-748(a2) # 1000963c <__clz_tab+0x3c4>
10005930:	bf4fe0ef          	jal	ra,10003d24 <_Z10make_Light4vec3f>
10005934:	00048593          	mv	a1,s1
10005938:	01000613          	li	a2,16
1000593c:	01090513          	addi	a0,s2,16
10005940:	7b4000ef          	jal	ra,100060f4 <memcpy>
10005944:	12410593          	addi	a1,sp,292
10005948:	00c00613          	li	a2,12
1000594c:	00040513          	mv	a0,s0
10005950:	13312223          	sw	s3,292(sp)
10005954:	13412423          	sw	s4,296(sp)
10005958:	13312623          	sw	s3,300(sp)
1000595c:	798000ef          	jal	ra,100060f4 <memcpy>
10005960:	00040593          	mv	a1,s0
10005964:	00048513          	mv	a0,s1
10005968:	00004617          	auipc	a2,0x4
1000596c:	cd862603          	lw	a2,-808(a2) # 10009640 <__clz_tab+0x3c8>
10005970:	bb4fe0ef          	jal	ra,10003d24 <_Z10make_Light4vec3f>
10005974:	00048593          	mv	a1,s1
10005978:	02090513          	addi	a0,s2,32
1000597c:	01000613          	li	a2,16
10005980:	774000ef          	jal	ra,100060f4 <memcpy>
10005984:	22c12083          	lw	ra,556(sp)
10005988:	22812403          	lw	s0,552(sp)
1000598c:	22412483          	lw	s1,548(sp)
10005990:	22012903          	lw	s2,544(sp)
10005994:	21c12983          	lw	s3,540(sp)
10005998:	21812a03          	lw	s4,536(sp)
1000599c:	21412a83          	lw	s5,532(sp)
100059a0:	21012b03          	lw	s6,528(sp)
100059a4:	20c12b83          	lw	s7,524(sp)
100059a8:	20812c03          	lw	s8,520(sp)
100059ac:	20412c83          	lw	s9,516(sp)
100059b0:	20012d03          	lw	s10,512(sp)
100059b4:	23010113          	addi	sp,sp,560
100059b8:	00008067          	ret

100059bc <main>:
100059bc:	fe010113          	addi	sp,sp,-32
100059c0:	00004517          	auipc	a0,0x4
100059c4:	9f050513          	addi	a0,a0,-1552 # 100093b0 <__clz_tab+0x138>
100059c8:	00112e23          	sw	ra,28(sp)
100059cc:	00812c23          	sw	s0,24(sp)
100059d0:	00912a23          	sw	s1,20(sp)
100059d4:	01212823          	sw	s2,16(sp)
100059d8:	1ec000ef          	jal	ra,10005bc4 <_Z9UARTWritePKc>
100059dc:	0a0007b7          	lui	a5,0xa000
100059e0:	0c000737          	lui	a4,0xc000
100059e4:	0007a023          	sw	zero,0(a5) # a000000 <__stack_size+0x9ffff00>
100059e8:	00478793          	addi	a5,a5,4
100059ec:	fee79ce3          	bne	a5,a4,100059e4 <main+0x28>
100059f0:	00004517          	auipc	a0,0x4
100059f4:	9dc50513          	addi	a0,a0,-1572 # 100093cc <__clz_tab+0x154>
100059f8:	1cc000ef          	jal	ra,10005bc4 <_Z9UARTWritePKc>
100059fc:	00004517          	auipc	a0,0x4
10005a00:	9f850513          	addi	a0,a0,-1544 # 100093f4 <__clz_tab+0x17c>
10005a04:	1c0000ef          	jal	ra,10005bc4 <_Z9UARTWritePKc>
10005a08:	00004517          	auipc	a0,0x4
10005a0c:	a1050513          	addi	a0,a0,-1520 # 10009418 <__clz_tab+0x1a0>
10005a10:	1b4000ef          	jal	ra,10005bc4 <_Z9UARTWritePKc>
10005a14:	00004517          	auipc	a0,0x4
10005a18:	a2850513          	addi	a0,a0,-1496 # 1000943c <__clz_tab+0x1c4>
10005a1c:	1a8000ef          	jal	ra,10005bc4 <_Z9UARTWritePKc>
10005a20:	0a000437          	lui	s0,0xa000
10005a24:	00000493          	li	s1,0
10005a28:	0a040937          	lui	s2,0xa040
10005a2c:	00040513          	mv	a0,s0
10005a30:	3f8000ef          	jal	ra,10005e28 <_Z14memTestDataBusPVm>
10005a34:	00440413          	addi	s0,s0,4 # a000004 <__stack_size+0x9ffff04>
10005a38:	00a484b3          	add	s1,s1,a0
10005a3c:	ff2418e3          	bne	s0,s2,10005a2c <main+0x70>
10005a40:	00004517          	auipc	a0,0x4
10005a44:	95850513          	addi	a0,a0,-1704 # 10009398 <__clz_tab+0x120>
10005a48:	00048663          	beqz	s1,10005a54 <main+0x98>
10005a4c:	00004517          	auipc	a0,0x4
10005a50:	95850513          	addi	a0,a0,-1704 # 100093a4 <__clz_tab+0x12c>
10005a54:	170000ef          	jal	ra,10005bc4 <_Z9UARTWritePKc>
10005a58:	00048513          	mv	a0,s1
10005a5c:	294000ef          	jal	ra,10005cf0 <_Z16UARTWriteDecimall>
10005a60:	00004517          	auipc	a0,0x4
10005a64:	a0850513          	addi	a0,a0,-1528 # 10009468 <__clz_tab+0x1f0>
10005a68:	15c000ef          	jal	ra,10005bc4 <_Z9UARTWritePKc>
10005a6c:	00004517          	auipc	a0,0x4
10005a70:	a0850513          	addi	a0,a0,-1528 # 10009474 <__clz_tab+0x1fc>
10005a74:	150000ef          	jal	ra,10005bc4 <_Z9UARTWritePKc>
10005a78:	00c10613          	addi	a2,sp,12
10005a7c:	000405b7          	lui	a1,0x40
10005a80:	0b000537          	lui	a0,0xb000
10005a84:	00012623          	sw	zero,12(sp)
10005a88:	3d4000ef          	jal	ra,10005e5c <_Z17memTestAddressBusPVmmPi>
10005a8c:	00050413          	mv	s0,a0
10005a90:	00004517          	auipc	a0,0x4
10005a94:	a1050513          	addi	a0,a0,-1520 # 100094a0 <__clz_tab+0x228>
10005a98:	06040263          	beqz	s0,10005afc <main+0x140>
10005a9c:	00004517          	auipc	a0,0x4
10005aa0:	a0c50513          	addi	a0,a0,-1524 # 100094a8 <__clz_tab+0x230>
10005aa4:	120000ef          	jal	ra,10005bc4 <_Z9UARTWritePKc>
10005aa8:	00c12783          	lw	a5,12(sp)
10005aac:	00079863          	bnez	a5,10005abc <main+0x100>
10005ab0:	00004517          	auipc	a0,0x4
10005ab4:	a0050513          	addi	a0,a0,-1536 # 100094b0 <__clz_tab+0x238>
10005ab8:	10c000ef          	jal	ra,10005bc4 <_Z9UARTWritePKc>
10005abc:	00c12703          	lw	a4,12(sp)
10005ac0:	00100793          	li	a5,1
10005ac4:	00f71863          	bne	a4,a5,10005ad4 <main+0x118>
10005ac8:	00004517          	auipc	a0,0x4
10005acc:	a1050513          	addi	a0,a0,-1520 # 100094d8 <__clz_tab+0x260>
10005ad0:	0f4000ef          	jal	ra,10005bc4 <_Z9UARTWritePKc>
10005ad4:	00c12703          	lw	a4,12(sp)
10005ad8:	00200793          	li	a5,2
10005adc:	00f71863          	bne	a4,a5,10005aec <main+0x130>
10005ae0:	00004517          	auipc	a0,0x4
10005ae4:	a1c50513          	addi	a0,a0,-1508 # 100094fc <__clz_tab+0x284>
10005ae8:	0dc000ef          	jal	ra,10005bc4 <_Z9UARTWritePKc>
10005aec:	00040513          	mv	a0,s0
10005af0:	0f8000ef          	jal	ra,10005be8 <_Z12UARTWriteHexm>
10005af4:	00004517          	auipc	a0,0x4
10005af8:	8d450513          	addi	a0,a0,-1836 # 100093c8 <__clz_tab+0x150>
10005afc:	0c8000ef          	jal	ra,10005bc4 <_Z9UARTWritePKc>
10005b00:	00004517          	auipc	a0,0x4
10005b04:	a2050513          	addi	a0,a0,-1504 # 10009520 <__clz_tab+0x2a8>
10005b08:	0bc000ef          	jal	ra,10005bc4 <_Z9UARTWritePKc>
10005b0c:	000405b7          	lui	a1,0x40
10005b10:	0c000537          	lui	a0,0xc000
10005b14:	448000ef          	jal	ra,10005f5c <_Z13memTestDevicePVmm>
10005b18:	00050913          	mv	s2,a0
10005b1c:	04050063          	beqz	a0,10005b5c <main+0x1a0>
10005b20:	00004517          	auipc	a0,0x4
10005b24:	98850513          	addi	a0,a0,-1656 # 100094a8 <__clz_tab+0x230>
10005b28:	09c000ef          	jal	ra,10005bc4 <_Z9UARTWritePKc>
10005b2c:	00004517          	auipc	a0,0x4
10005b30:	a2450513          	addi	a0,a0,-1500 # 10009550 <__clz_tab+0x2d8>
10005b34:	090000ef          	jal	ra,10005bc4 <_Z9UARTWritePKc>
10005b38:	00090513          	mv	a0,s2
10005b3c:	0ac000ef          	jal	ra,10005be8 <_Z12UARTWriteHexm>
10005b40:	00004517          	auipc	a0,0x4
10005b44:	88850513          	addi	a0,a0,-1912 # 100093c8 <__clz_tab+0x150>
10005b48:	07c000ef          	jal	ra,10005bc4 <_Z9UARTWritePKc>
10005b4c:	00004517          	auipc	a0,0x4
10005b50:	a2850513          	addi	a0,a0,-1496 # 10009574 <__clz_tab+0x2fc>
10005b54:	070000ef          	jal	ra,10005bc4 <_Z9UARTWritePKc>
10005b58:	0180006f          	j	10005b70 <main+0x1b4>
10005b5c:	00004517          	auipc	a0,0x4
10005b60:	94450513          	addi	a0,a0,-1724 # 100094a0 <__clz_tab+0x228>
10005b64:	00946433          	or	s0,s0,s1
10005b68:	05c000ef          	jal	ra,10005bc4 <_Z9UARTWritePKc>
10005b6c:	fe0410e3          	bnez	s0,10005b4c <main+0x190>
10005b70:	97dff0ef          	jal	ra,100054ec <_Z10init_scenev>
10005b74:	00005797          	auipc	a5,0x5
10005b78:	8c07a823          	sw	zero,-1840(a5) # 1000a444 <_ZL9bench_run>
10005b7c:	07800793          	li	a5,120
10005b80:	00004717          	auipc	a4,0x4
10005b84:	18f72623          	sw	a5,396(a4) # 10009d0c <_ZL14graphics_width>
10005b88:	03c00793          	li	a5,60
10005b8c:	00004717          	auipc	a4,0x4
10005b90:	16f72e23          	sw	a5,380(a4) # 10009d08 <_ZL15graphics_height>
10005b94:	00004797          	auipc	a5,0x4
10005b98:	5bc7a783          	lw	a5,1468(a5) # 1000a150 <_GLOBAL_OFFSET_TABLE_+0x10>
10005b9c:	0007a683          	lw	a3,0(a5)
10005ba0:	00004797          	auipc	a5,0x4
10005ba4:	5a47a783          	lw	a5,1444(a5) # 1000a144 <_GLOBAL_OFFSET_TABLE_+0x4>
10005ba8:	0007a583          	lw	a1,0(a5)
10005bac:	00004617          	auipc	a2,0x4
10005bb0:	5b062603          	lw	a2,1456(a2) # 1000a15c <_GLOBAL_OFFSET_TABLE_+0x1c>
10005bb4:	00004517          	auipc	a0,0x4
10005bb8:	5a052503          	lw	a0,1440(a0) # 1000a154 <_GLOBAL_OFFSET_TABLE_+0x14>
10005bbc:	ec8ff0ef          	jal	ra,10005284 <_Z6renderP6SphereiP5Lighti>
10005bc0:	0000006f          	j	10005bc0 <main+0x204>

10005bc4 <_Z9UARTWritePKc>:
10005bc4:	00004797          	auipc	a5,0x4
10005bc8:	5a07a783          	lw	a5,1440(a5) # 1000a164 <_GLOBAL_OFFSET_TABLE_+0x24>
10005bcc:	0007a703          	lw	a4,0(a5)
10005bd0:	00054783          	lbu	a5,0(a0)
10005bd4:	00150513          	addi	a0,a0,1
10005bd8:	00079463          	bnez	a5,10005be0 <_Z9UARTWritePKc+0x1c>
10005bdc:	00008067          	ret
10005be0:	00f72023          	sw	a5,0(a4)
10005be4:	fedff06f          	j	10005bd0 <_Z9UARTWritePKc+0xc>

10005be8 <_Z12UARTWriteHexm>:
10005be8:	fd010113          	addi	sp,sp,-48
10005bec:	02812423          	sw	s0,40(sp)
10005bf0:	01100613          	li	a2,17
10005bf4:	00050413          	mv	s0,a0
10005bf8:	00004597          	auipc	a1,0x4
10005bfc:	a7858593          	addi	a1,a1,-1416 # 10009670 <__clz_tab+0x3f8>
10005c00:	00c10513          	addi	a0,sp,12
10005c04:	02112623          	sw	ra,44(sp)
10005c08:	4ec000ef          	jal	ra,100060f4 <memcpy>
10005c0c:	00010713          	mv	a4,sp
10005c10:	00900613          	li	a2,9
10005c14:	00004597          	auipc	a1,0x4
10005c18:	a7058593          	addi	a1,a1,-1424 # 10009684 <__clz_tab+0x40c>
10005c1c:	00070513          	mv	a0,a4
10005c20:	4d4000ef          	jal	ra,100060f4 <memcpy>
10005c24:	01c45793          	srli	a5,s0,0x1c
10005c28:	02078793          	addi	a5,a5,32
10005c2c:	002787b3          	add	a5,a5,sp
10005c30:	fec7c783          	lbu	a5,-20(a5)
10005c34:	00f10023          	sb	a5,0(sp)
10005c38:	01845793          	srli	a5,s0,0x18
10005c3c:	00f7f793          	andi	a5,a5,15
10005c40:	02078793          	addi	a5,a5,32
10005c44:	002787b3          	add	a5,a5,sp
10005c48:	fec7c783          	lbu	a5,-20(a5)
10005c4c:	00f100a3          	sb	a5,1(sp)
10005c50:	01445793          	srli	a5,s0,0x14
10005c54:	00f7f793          	andi	a5,a5,15
10005c58:	02078793          	addi	a5,a5,32
10005c5c:	002787b3          	add	a5,a5,sp
10005c60:	fec7c783          	lbu	a5,-20(a5)
10005c64:	00f10123          	sb	a5,2(sp)
10005c68:	01045793          	srli	a5,s0,0x10
10005c6c:	00f7f793          	andi	a5,a5,15
10005c70:	02078793          	addi	a5,a5,32
10005c74:	002787b3          	add	a5,a5,sp
10005c78:	fec7c783          	lbu	a5,-20(a5)
10005c7c:	00f101a3          	sb	a5,3(sp)
10005c80:	00c45793          	srli	a5,s0,0xc
10005c84:	00f7f793          	andi	a5,a5,15
10005c88:	02078793          	addi	a5,a5,32
10005c8c:	002787b3          	add	a5,a5,sp
10005c90:	fec7c783          	lbu	a5,-20(a5)
10005c94:	00f10223          	sb	a5,4(sp)
10005c98:	00845793          	srli	a5,s0,0x8
10005c9c:	00f7f793          	andi	a5,a5,15
10005ca0:	02078793          	addi	a5,a5,32
10005ca4:	002787b3          	add	a5,a5,sp
10005ca8:	fec7c783          	lbu	a5,-20(a5)
10005cac:	00f102a3          	sb	a5,5(sp)
10005cb0:	00445793          	srli	a5,s0,0x4
10005cb4:	00f7f793          	andi	a5,a5,15
10005cb8:	02078793          	addi	a5,a5,32
10005cbc:	002787b3          	add	a5,a5,sp
10005cc0:	fec7c783          	lbu	a5,-20(a5)
10005cc4:	00f47413          	andi	s0,s0,15
10005cc8:	00f10323          	sb	a5,6(sp)
10005ccc:	02040793          	addi	a5,s0,32
10005cd0:	00278433          	add	s0,a5,sp
10005cd4:	fec44783          	lbu	a5,-20(s0)
10005cd8:	00f103a3          	sb	a5,7(sp)
10005cdc:	ee9ff0ef          	jal	ra,10005bc4 <_Z9UARTWritePKc>
10005ce0:	02c12083          	lw	ra,44(sp)
10005ce4:	02812403          	lw	s0,40(sp)
10005ce8:	03010113          	addi	sp,sp,48
10005cec:	00008067          	ret

10005cf0 <_Z16UARTWriteDecimall>:
10005cf0:	fb010113          	addi	sp,sp,-80
10005cf4:	03312e23          	sw	s3,60(sp)
10005cf8:	00b00613          	li	a2,11
10005cfc:	00004597          	auipc	a1,0x4
10005d00:	99458593          	addi	a1,a1,-1644 # 10009690 <__clz_tab+0x418>
10005d04:	00050993          	mv	s3,a0
10005d08:	00010513          	mv	a0,sp
10005d0c:	04112623          	sw	ra,76(sp)
10005d10:	04912223          	sw	s1,68(sp)
10005d14:	03412c23          	sw	s4,56(sp)
10005d18:	04812423          	sw	s0,72(sp)
10005d1c:	05212023          	sw	s2,64(sp)
10005d20:	03512a23          	sw	s5,52(sp)
10005d24:	03612823          	sw	s6,48(sp)
10005d28:	03712623          	sw	s7,44(sp)
10005d2c:	00c10a13          	addi	s4,sp,12
10005d30:	3c4000ef          	jal	ra,100060f4 <memcpy>
10005d34:	01400613          	li	a2,20
10005d38:	00004597          	auipc	a1,0x4
10005d3c:	96458593          	addi	a1,a1,-1692 # 1000969c <__clz_tab+0x424>
10005d40:	000a0513          	mv	a0,s4
10005d44:	3b0000ef          	jal	ra,100060f4 <memcpy>
10005d48:	00000493          	li	s1,0
10005d4c:	0009d863          	bgez	s3,10005d5c <_Z16UARTWriteDecimall+0x6c>
10005d50:	02d00793          	li	a5,45
10005d54:	00f10623          	sb	a5,12(sp)
10005d58:	00100493          	li	s1,1
10005d5c:	3b9ad437          	lui	s0,0x3b9ad
10005d60:	80000ab7          	lui	s5,0x80000
10005d64:	00a00b93          	li	s7,10
10005d68:	00000913          	li	s2,0
10005d6c:	a0040413          	addi	s0,s0,-1536 # 3b9aca00 <__BSS_END__$+0x2b9a25b8>
10005d70:	fffaca93          	not	s5,s5
10005d74:	00100b13          	li	s6,1
10005d78:	00040593          	mv	a1,s0
10005d7c:	00098513          	mv	a0,s3
10005d80:	97dfd0ef          	jal	ra,100036fc <__divsi3>
10005d84:	00a00593          	li	a1,10
10005d88:	9f9fd0ef          	jal	ra,10003780 <__modsi3>
10005d8c:	015577b3          	and	a5,a0,s5
10005d90:	00f96933          	or	s2,s2,a5
10005d94:	00091463          	bnez	s2,10005d9c <_Z16UARTWriteDecimall+0xac>
10005d98:	03641263          	bne	s0,s6,10005dbc <_Z16UARTWriteDecimall+0xcc>
10005d9c:	02078793          	addi	a5,a5,32
10005da0:	002787b3          	add	a5,a5,sp
10005da4:	fe07c783          	lbu	a5,-32(a5)
10005da8:	02048713          	addi	a4,s1,32
10005dac:	00270733          	add	a4,a4,sp
10005db0:	fef70623          	sb	a5,-20(a4)
10005db4:	00148493          	addi	s1,s1,1
10005db8:	00100913          	li	s2,1
10005dbc:	00040513          	mv	a0,s0
10005dc0:	00a00593          	li	a1,10
10005dc4:	939fd0ef          	jal	ra,100036fc <__divsi3>
10005dc8:	fffb8b93          	addi	s7,s7,-1
10005dcc:	00050413          	mv	s0,a0
10005dd0:	fa0b94e3          	bnez	s7,10005d78 <_Z16UARTWriteDecimall+0x88>
10005dd4:	02048793          	addi	a5,s1,32
10005dd8:	002784b3          	add	s1,a5,sp
10005ddc:	fe048623          	sb	zero,-20(s1)
10005de0:	000a0513          	mv	a0,s4
10005de4:	de1ff0ef          	jal	ra,10005bc4 <_Z9UARTWritePKc>
10005de8:	04c12083          	lw	ra,76(sp)
10005dec:	04812403          	lw	s0,72(sp)
10005df0:	04412483          	lw	s1,68(sp)
10005df4:	04012903          	lw	s2,64(sp)
10005df8:	03c12983          	lw	s3,60(sp)
10005dfc:	03812a03          	lw	s4,56(sp)
10005e00:	03412a83          	lw	s5,52(sp)
10005e04:	03012b03          	lw	s6,48(sp)
10005e08:	02c12b83          	lw	s7,44(sp)
10005e0c:	05010113          	addi	sp,sp,80
10005e10:	00008067          	ret

10005e14 <_Z11LEDSetStatem>:
10005e14:	00004797          	auipc	a5,0x4
10005e18:	3347a783          	lw	a5,820(a5) # 1000a148 <_GLOBAL_OFFSET_TABLE_+0x8>
10005e1c:	0007a783          	lw	a5,0(a5)
10005e20:	00a7a023          	sw	a0,0(a5)
10005e24:	00008067          	ret

10005e28 <_Z14memTestDataBusPVm>:
10005e28:	00050793          	mv	a5,a0
10005e2c:	02000713          	li	a4,32
10005e30:	00100513          	li	a0,1
10005e34:	00a7a023          	sw	a0,0(a5)
10005e38:	0007a683          	lw	a3,0(a5)
10005e3c:	00a69863          	bne	a3,a0,10005e4c <_Z14memTestDataBusPVm+0x24>
10005e40:	00151693          	slli	a3,a0,0x1
10005e44:	fff70513          	addi	a0,a4,-1
10005e48:	00051463          	bnez	a0,10005e50 <_Z14memTestDataBusPVm+0x28>
10005e4c:	00008067          	ret
10005e50:	00050713          	mv	a4,a0
10005e54:	00068513          	mv	a0,a3
10005e58:	fddff06f          	j	10005e34 <_Z14memTestDataBusPVm+0xc>

10005e5c <_Z17memTestAddressBusPVmmPi>:
10005e5c:	0025d693          	srli	a3,a1,0x2
10005e60:	aaaab5b7          	lui	a1,0xaaaab
10005e64:	00050713          	mv	a4,a0
10005e68:	00062023          	sw	zero,0(a2)
10005e6c:	fff68693          	addi	a3,a3,-1
10005e70:	00100793          	li	a5,1
10005e74:	aaa58593          	addi	a1,a1,-1366 # aaaaaaaa <__BSS_END__$+0x9aaa0662>
10005e78:	00d7f533          	and	a0,a5,a3
10005e7c:	04051863          	bnez	a0,10005ecc <_Z17memTestAddressBusPVmmPi+0x70>
10005e80:	555557b7          	lui	a5,0x55555
10005e84:	55578793          	addi	a5,a5,1365 # 55555555 <__BSS_END__$+0x4554b10d>
10005e88:	aaaab837          	lui	a6,0xaaaab
10005e8c:	00f72023          	sw	a5,0(a4)
10005e90:	00100593          	li	a1,1
10005e94:	aaa80813          	addi	a6,a6,-1366 # aaaaaaaa <__BSS_END__$+0x9aaa0662>
10005e98:	00d5f7b3          	and	a5,a1,a3
10005e9c:	04079263          	bnez	a5,10005ee0 <_Z17memTestAddressBusPVmmPi+0x84>
10005ea0:	aaaab837          	lui	a6,0xaaaab
10005ea4:	aaa80813          	addi	a6,a6,-1366 # aaaaaaaa <__BSS_END__$+0x9aaa0662>
10005ea8:	555558b7          	lui	a7,0x55555
10005eac:	01072023          	sw	a6,0(a4)
10005eb0:	00100593          	li	a1,1
10005eb4:	55588893          	addi	a7,a7,1365 # 55555555 <__BSS_END__$+0x4554b10d>
10005eb8:	00080e13          	mv	t3,a6
10005ebc:	00d5f7b3          	and	a5,a1,a3
10005ec0:	04079263          	bnez	a5,10005f04 <_Z17memTestAddressBusPVmmPi+0xa8>
10005ec4:	00000513          	li	a0,0
10005ec8:	00008067          	ret
10005ecc:	00279513          	slli	a0,a5,0x2
10005ed0:	00a70533          	add	a0,a4,a0
10005ed4:	00b52023          	sw	a1,0(a0)
10005ed8:	00179793          	slli	a5,a5,0x1
10005edc:	f9dff06f          	j	10005e78 <_Z17memTestAddressBusPVmmPi+0x1c>
10005ee0:	00259793          	slli	a5,a1,0x2
10005ee4:	00f70533          	add	a0,a4,a5
10005ee8:	00052783          	lw	a5,0(a0)
10005eec:	01078863          	beq	a5,a6,10005efc <_Z17memTestAddressBusPVmmPi+0xa0>
10005ef0:	00100793          	li	a5,1
10005ef4:	00f62023          	sw	a5,0(a2)
10005ef8:	00008067          	ret
10005efc:	00159593          	slli	a1,a1,0x1
10005f00:	f99ff06f          	j	10005e98 <_Z17memTestAddressBusPVmmPi+0x3c>
10005f04:	00259793          	slli	a5,a1,0x2
10005f08:	00f70533          	add	a0,a4,a5
10005f0c:	01152023          	sw	a7,0(a0)
10005f10:	00072783          	lw	a5,0(a4)
10005f14:	05c78063          	beq	a5,t3,10005f54 <_Z17memTestAddressBusPVmmPi+0xf8>
10005f18:	00200793          	li	a5,2
10005f1c:	fd9ff06f          	j	10005ef4 <_Z17memTestAddressBusPVmmPi+0x98>
10005f20:	00300793          	li	a5,3
10005f24:	fd1ff06f          	j	10005ef4 <_Z17memTestAddressBusPVmmPi+0x98>
10005f28:	00279313          	slli	t1,a5,0x2
10005f2c:	00670333          	add	t1,a4,t1
10005f30:	00032303          	lw	t1,0(t1)
10005f34:	01c30463          	beq	t1,t3,10005f3c <_Z17memTestAddressBusPVmmPi+0xe0>
10005f38:	feb794e3          	bne	a5,a1,10005f20 <_Z17memTestAddressBusPVmmPi+0xc4>
10005f3c:	00179793          	slli	a5,a5,0x1
10005f40:	00d7f333          	and	t1,a5,a3
10005f44:	fe0312e3          	bnez	t1,10005f28 <_Z17memTestAddressBusPVmmPi+0xcc>
10005f48:	01052023          	sw	a6,0(a0)
10005f4c:	00159593          	slli	a1,a1,0x1
10005f50:	f6dff06f          	j	10005ebc <_Z17memTestAddressBusPVmmPi+0x60>
10005f54:	00100793          	li	a5,1
10005f58:	fe9ff06f          	j	10005f40 <_Z17memTestAddressBusPVmmPi+0xe4>

10005f5c <_Z13memTestDevicePVmm>:
10005f5c:	00050613          	mv	a2,a0
10005f60:	0025d593          	srli	a1,a1,0x2
10005f64:	00000793          	li	a5,0
10005f68:	00178713          	addi	a4,a5,1
10005f6c:	02b79063          	bne	a5,a1,10005f8c <_Z13memTestDevicePVmm+0x30>
10005f70:	00000713          	li	a4,0
10005f74:	02e59663          	bne	a1,a4,10005fa0 <_Z13memTestDevicePVmm+0x44>
10005f78:	00000693          	li	a3,0
10005f7c:	ffe00593          	li	a1,-2
10005f80:	04e69063          	bne	a3,a4,10005fc0 <_Z13memTestDevicePVmm+0x64>
10005f84:	00000513          	li	a0,0
10005f88:	00008067          	ret
10005f8c:	00279793          	slli	a5,a5,0x2
10005f90:	00f607b3          	add	a5,a2,a5
10005f94:	00e7a023          	sw	a4,0(a5)
10005f98:	00070793          	mv	a5,a4
10005f9c:	fcdff06f          	j	10005f68 <_Z13memTestDevicePVmm+0xc>
10005fa0:	00271793          	slli	a5,a4,0x2
10005fa4:	00f60533          	add	a0,a2,a5
10005fa8:	00052783          	lw	a5,0(a0)
10005fac:	00170713          	addi	a4,a4,1
10005fb0:	fce79ce3          	bne	a5,a4,10005f88 <_Z13memTestDevicePVmm+0x2c>
10005fb4:	fff74793          	not	a5,a4
10005fb8:	00f52023          	sw	a5,0(a0)
10005fbc:	fb9ff06f          	j	10005f74 <_Z13memTestDevicePVmm+0x18>
10005fc0:	00269793          	slli	a5,a3,0x2
10005fc4:	00f60533          	add	a0,a2,a5
10005fc8:	00052803          	lw	a6,0(a0)
10005fcc:	40d587b3          	sub	a5,a1,a3
10005fd0:	faf81ce3          	bne	a6,a5,10005f88 <_Z13memTestDevicePVmm+0x2c>
10005fd4:	00168693          	addi	a3,a3,1
10005fd8:	fa9ff06f          	j	10005f80 <_Z13memTestDevicePVmm+0x24>

10005fdc <atexit>:
10005fdc:	00050593          	mv	a1,a0
10005fe0:	00000693          	li	a3,0
10005fe4:	00000613          	li	a2,0
10005fe8:	00000513          	li	a0,0
10005fec:	2ac0006f          	j	10006298 <__register_exitproc>

10005ff0 <__errno>:
10005ff0:	1000a7b7          	lui	a5,0x1000a
10005ff4:	1787a503          	lw	a0,376(a5) # 1000a178 <_impure_ptr>
10005ff8:	00008067          	ret

10005ffc <__libc_fini_array>:
10005ffc:	ff010113          	addi	sp,sp,-16
10006000:	00812423          	sw	s0,8(sp)
10006004:	1000a7b7          	lui	a5,0x1000a
10006008:	1000a437          	lui	s0,0x1000a
1000600c:	88878793          	addi	a5,a5,-1912 # 10009888 <_etext>
10006010:	88840413          	addi	s0,s0,-1912 # 10009888 <_etext>
10006014:	40f40433          	sub	s0,s0,a5
10006018:	00912223          	sw	s1,4(sp)
1000601c:	00112623          	sw	ra,12(sp)
10006020:	40245493          	srai	s1,s0,0x2
10006024:	02048063          	beqz	s1,10006044 <__libc_fini_array+0x48>
10006028:	ffc40413          	addi	s0,s0,-4
1000602c:	00f40433          	add	s0,s0,a5
10006030:	00042783          	lw	a5,0(s0)
10006034:	fff48493          	addi	s1,s1,-1
10006038:	ffc40413          	addi	s0,s0,-4
1000603c:	000780e7          	jalr	a5
10006040:	fe0498e3          	bnez	s1,10006030 <__libc_fini_array+0x34>
10006044:	00c12083          	lw	ra,12(sp)
10006048:	00812403          	lw	s0,8(sp)
1000604c:	00412483          	lw	s1,4(sp)
10006050:	01010113          	addi	sp,sp,16
10006054:	00008067          	ret

10006058 <__libc_init_array>:
10006058:	ff010113          	addi	sp,sp,-16
1000605c:	00812423          	sw	s0,8(sp)
10006060:	1000a7b7          	lui	a5,0x1000a
10006064:	1000a437          	lui	s0,0x1000a
10006068:	01212023          	sw	s2,0(sp)
1000606c:	88878793          	addi	a5,a5,-1912 # 10009888 <_etext>
10006070:	88840713          	addi	a4,s0,-1912 # 10009888 <_etext>
10006074:	00112623          	sw	ra,12(sp)
10006078:	00912223          	sw	s1,4(sp)
1000607c:	40e78933          	sub	s2,a5,a4
10006080:	02e78263          	beq	a5,a4,100060a4 <__libc_init_array+0x4c>
10006084:	40295913          	srai	s2,s2,0x2
10006088:	88840413          	addi	s0,s0,-1912
1000608c:	00000493          	li	s1,0
10006090:	00042783          	lw	a5,0(s0)
10006094:	00148493          	addi	s1,s1,1
10006098:	00440413          	addi	s0,s0,4
1000609c:	000780e7          	jalr	a5
100060a0:	ff24e8e3          	bltu	s1,s2,10006090 <__libc_init_array+0x38>
100060a4:	1000a437          	lui	s0,0x1000a
100060a8:	1000a7b7          	lui	a5,0x1000a
100060ac:	88878793          	addi	a5,a5,-1912 # 10009888 <_etext>
100060b0:	88840713          	addi	a4,s0,-1912 # 10009888 <_etext>
100060b4:	40e78933          	sub	s2,a5,a4
100060b8:	40295913          	srai	s2,s2,0x2
100060bc:	02e78063          	beq	a5,a4,100060dc <__libc_init_array+0x84>
100060c0:	88840413          	addi	s0,s0,-1912
100060c4:	00000493          	li	s1,0
100060c8:	00042783          	lw	a5,0(s0)
100060cc:	00148493          	addi	s1,s1,1
100060d0:	00440413          	addi	s0,s0,4
100060d4:	000780e7          	jalr	a5
100060d8:	ff24e8e3          	bltu	s1,s2,100060c8 <__libc_init_array+0x70>
100060dc:	00c12083          	lw	ra,12(sp)
100060e0:	00812403          	lw	s0,8(sp)
100060e4:	00412483          	lw	s1,4(sp)
100060e8:	00012903          	lw	s2,0(sp)
100060ec:	01010113          	addi	sp,sp,16
100060f0:	00008067          	ret

100060f4 <memcpy>:
100060f4:	00b547b3          	xor	a5,a0,a1
100060f8:	0037f793          	andi	a5,a5,3
100060fc:	00c508b3          	add	a7,a0,a2
10006100:	06079463          	bnez	a5,10006168 <memcpy+0x74>
10006104:	00300793          	li	a5,3
10006108:	06c7f063          	bgeu	a5,a2,10006168 <memcpy+0x74>
1000610c:	00357793          	andi	a5,a0,3
10006110:	00050713          	mv	a4,a0
10006114:	06079a63          	bnez	a5,10006188 <memcpy+0x94>
10006118:	ffc8f613          	andi	a2,a7,-4
1000611c:	40e606b3          	sub	a3,a2,a4
10006120:	02000793          	li	a5,32
10006124:	08d7ce63          	blt	a5,a3,100061c0 <memcpy+0xcc>
10006128:	00058693          	mv	a3,a1
1000612c:	00070793          	mv	a5,a4
10006130:	02c77863          	bgeu	a4,a2,10006160 <memcpy+0x6c>
10006134:	0006a803          	lw	a6,0(a3)
10006138:	00478793          	addi	a5,a5,4
1000613c:	00468693          	addi	a3,a3,4
10006140:	ff07ae23          	sw	a6,-4(a5)
10006144:	fec7e8e3          	bltu	a5,a2,10006134 <memcpy+0x40>
10006148:	fff60793          	addi	a5,a2,-1
1000614c:	40e787b3          	sub	a5,a5,a4
10006150:	ffc7f793          	andi	a5,a5,-4
10006154:	00478793          	addi	a5,a5,4
10006158:	00f70733          	add	a4,a4,a5
1000615c:	00f585b3          	add	a1,a1,a5
10006160:	01176863          	bltu	a4,a7,10006170 <memcpy+0x7c>
10006164:	00008067          	ret
10006168:	00050713          	mv	a4,a0
1000616c:	05157863          	bgeu	a0,a7,100061bc <memcpy+0xc8>
10006170:	0005c783          	lbu	a5,0(a1)
10006174:	00170713          	addi	a4,a4,1
10006178:	00158593          	addi	a1,a1,1
1000617c:	fef70fa3          	sb	a5,-1(a4)
10006180:	fee898e3          	bne	a7,a4,10006170 <memcpy+0x7c>
10006184:	00008067          	ret
10006188:	0005c683          	lbu	a3,0(a1)
1000618c:	00170713          	addi	a4,a4,1
10006190:	00377793          	andi	a5,a4,3
10006194:	fed70fa3          	sb	a3,-1(a4)
10006198:	00158593          	addi	a1,a1,1
1000619c:	f6078ee3          	beqz	a5,10006118 <memcpy+0x24>
100061a0:	0005c683          	lbu	a3,0(a1)
100061a4:	00170713          	addi	a4,a4,1
100061a8:	00377793          	andi	a5,a4,3
100061ac:	fed70fa3          	sb	a3,-1(a4)
100061b0:	00158593          	addi	a1,a1,1
100061b4:	fc079ae3          	bnez	a5,10006188 <memcpy+0x94>
100061b8:	f61ff06f          	j	10006118 <memcpy+0x24>
100061bc:	00008067          	ret
100061c0:	ff010113          	addi	sp,sp,-16
100061c4:	00812623          	sw	s0,12(sp)
100061c8:	02000413          	li	s0,32
100061cc:	0005a383          	lw	t2,0(a1)
100061d0:	0045a283          	lw	t0,4(a1)
100061d4:	0085af83          	lw	t6,8(a1)
100061d8:	00c5af03          	lw	t5,12(a1)
100061dc:	0105ae83          	lw	t4,16(a1)
100061e0:	0145ae03          	lw	t3,20(a1)
100061e4:	0185a303          	lw	t1,24(a1)
100061e8:	01c5a803          	lw	a6,28(a1)
100061ec:	0205a683          	lw	a3,32(a1)
100061f0:	02470713          	addi	a4,a4,36
100061f4:	40e607b3          	sub	a5,a2,a4
100061f8:	fc772e23          	sw	t2,-36(a4)
100061fc:	fe572023          	sw	t0,-32(a4)
10006200:	fff72223          	sw	t6,-28(a4)
10006204:	ffe72423          	sw	t5,-24(a4)
10006208:	ffd72623          	sw	t4,-20(a4)
1000620c:	ffc72823          	sw	t3,-16(a4)
10006210:	fe672a23          	sw	t1,-12(a4)
10006214:	ff072c23          	sw	a6,-8(a4)
10006218:	fed72e23          	sw	a3,-4(a4)
1000621c:	02458593          	addi	a1,a1,36
10006220:	faf446e3          	blt	s0,a5,100061cc <memcpy+0xd8>
10006224:	00058693          	mv	a3,a1
10006228:	00070793          	mv	a5,a4
1000622c:	02c77863          	bgeu	a4,a2,1000625c <memcpy+0x168>
10006230:	0006a803          	lw	a6,0(a3)
10006234:	00478793          	addi	a5,a5,4
10006238:	00468693          	addi	a3,a3,4
1000623c:	ff07ae23          	sw	a6,-4(a5)
10006240:	fec7e8e3          	bltu	a5,a2,10006230 <memcpy+0x13c>
10006244:	fff60793          	addi	a5,a2,-1
10006248:	40e787b3          	sub	a5,a5,a4
1000624c:	ffc7f793          	andi	a5,a5,-4
10006250:	00478793          	addi	a5,a5,4
10006254:	00f70733          	add	a4,a4,a5
10006258:	00f585b3          	add	a1,a1,a5
1000625c:	01176863          	bltu	a4,a7,1000626c <memcpy+0x178>
10006260:	00c12403          	lw	s0,12(sp)
10006264:	01010113          	addi	sp,sp,16
10006268:	00008067          	ret
1000626c:	0005c783          	lbu	a5,0(a1)
10006270:	00170713          	addi	a4,a4,1
10006274:	00158593          	addi	a1,a1,1
10006278:	fef70fa3          	sb	a5,-1(a4)
1000627c:	fee882e3          	beq	a7,a4,10006260 <memcpy+0x16c>
10006280:	0005c783          	lbu	a5,0(a1)
10006284:	00170713          	addi	a4,a4,1
10006288:	00158593          	addi	a1,a1,1
1000628c:	fef70fa3          	sb	a5,-1(a4)
10006290:	fce89ee3          	bne	a7,a4,1000626c <memcpy+0x178>
10006294:	fcdff06f          	j	10006260 <memcpy+0x16c>

10006298 <__register_exitproc>:
10006298:	1000a7b7          	lui	a5,0x1000a
1000629c:	17c7a703          	lw	a4,380(a5) # 1000a17c <_global_impure_ptr>
100062a0:	14872783          	lw	a5,328(a4)
100062a4:	04078c63          	beqz	a5,100062fc <__register_exitproc+0x64>
100062a8:	0047a703          	lw	a4,4(a5)
100062ac:	01f00813          	li	a6,31
100062b0:	06e84e63          	blt	a6,a4,1000632c <__register_exitproc+0x94>
100062b4:	00271813          	slli	a6,a4,0x2
100062b8:	02050663          	beqz	a0,100062e4 <__register_exitproc+0x4c>
100062bc:	01078333          	add	t1,a5,a6
100062c0:	08c32423          	sw	a2,136(t1)
100062c4:	1887a883          	lw	a7,392(a5)
100062c8:	00100613          	li	a2,1
100062cc:	00e61633          	sll	a2,a2,a4
100062d0:	00c8e8b3          	or	a7,a7,a2
100062d4:	1917a423          	sw	a7,392(a5)
100062d8:	10d32423          	sw	a3,264(t1)
100062dc:	00200693          	li	a3,2
100062e0:	02d50463          	beq	a0,a3,10006308 <__register_exitproc+0x70>
100062e4:	00170713          	addi	a4,a4,1
100062e8:	00e7a223          	sw	a4,4(a5)
100062ec:	010787b3          	add	a5,a5,a6
100062f0:	00b7a423          	sw	a1,8(a5)
100062f4:	00000513          	li	a0,0
100062f8:	00008067          	ret
100062fc:	14c70793          	addi	a5,a4,332
10006300:	14f72423          	sw	a5,328(a4)
10006304:	fa5ff06f          	j	100062a8 <__register_exitproc+0x10>
10006308:	18c7a683          	lw	a3,396(a5)
1000630c:	00170713          	addi	a4,a4,1
10006310:	00e7a223          	sw	a4,4(a5)
10006314:	00c6e6b3          	or	a3,a3,a2
10006318:	18d7a623          	sw	a3,396(a5)
1000631c:	010787b3          	add	a5,a5,a6
10006320:	00b7a423          	sw	a1,8(a5)
10006324:	00000513          	li	a0,0
10006328:	00008067          	ret
1000632c:	fff00513          	li	a0,-1
10006330:	00008067          	ret

10006334 <tan>:
10006334:	00159793          	slli	a5,a1,0x1
10006338:	3fe926b7          	lui	a3,0x3fe92
1000633c:	0017d793          	srli	a5,a5,0x1
10006340:	1fb68693          	addi	a3,a3,507 # 3fe921fb <__BSS_END__$+0x2fe87db3>
10006344:	08f6f263          	bgeu	a3,a5,100063c8 <tan+0x94>
10006348:	fe010113          	addi	sp,sp,-32
1000634c:	00112e23          	sw	ra,28(sp)
10006350:	7ff006b7          	lui	a3,0x7ff00
10006354:	02d7e663          	bltu	a5,a3,10006380 <tan+0x4c>
10006358:	00050613          	mv	a2,a0
1000635c:	00058693          	mv	a3,a1
10006360:	d60fb0ef          	jal	ra,100018c0 <__subdf3>
10006364:	01c12083          	lw	ra,28(sp)
10006368:	00050713          	mv	a4,a0
1000636c:	00058793          	mv	a5,a1
10006370:	00070513          	mv	a0,a4
10006374:	00078593          	mv	a1,a5
10006378:	02010113          	addi	sp,sp,32
1000637c:	00008067          	ret
10006380:	00010613          	mv	a2,sp
10006384:	1f4000ef          	jal	ra,10006578 <__ieee754_rem_pio2>
10006388:	00812603          	lw	a2,8(sp)
1000638c:	00c12683          	lw	a3,12(sp)
10006390:	00412583          	lw	a1,4(sp)
10006394:	00151793          	slli	a5,a0,0x1
10006398:	00012503          	lw	a0,0(sp)
1000639c:	0027f793          	andi	a5,a5,2
100063a0:	00100713          	li	a4,1
100063a4:	40f70733          	sub	a4,a4,a5
100063a8:	270020ef          	jal	ra,10008618 <__kernel_tan>
100063ac:	01c12083          	lw	ra,28(sp)
100063b0:	00050713          	mv	a4,a0
100063b4:	00058793          	mv	a5,a1
100063b8:	00070513          	mv	a0,a4
100063bc:	00078593          	mv	a1,a5
100063c0:	02010113          	addi	sp,sp,32
100063c4:	00008067          	ret
100063c8:	00100713          	li	a4,1
100063cc:	00000613          	li	a2,0
100063d0:	00000693          	li	a3,0
100063d4:	2440206f          	j	10008618 <__kernel_tan>

100063d8 <powf>:
100063d8:	ff010113          	addi	sp,sp,-16
100063dc:	00812423          	sw	s0,8(sp)
100063e0:	00912223          	sw	s1,4(sp)
100063e4:	01212023          	sw	s2,0(sp)
100063e8:	00058413          	mv	s0,a1
100063ec:	00112623          	sw	ra,12(sp)
100063f0:	00050913          	mv	s2,a0
100063f4:	7e8000ef          	jal	ra,10006bdc <__ieee754_powf>
100063f8:	00050493          	mv	s1,a0
100063fc:	00040593          	mv	a1,s0
10006400:	00040513          	mv	a0,s0
10006404:	cf8fd0ef          	jal	ra,100038fc <__unordsf2>
10006408:	02051663          	bnez	a0,10006434 <powf+0x5c>
1000640c:	00000593          	li	a1,0
10006410:	00090513          	mv	a0,s2
10006414:	c74fd0ef          	jal	ra,10003888 <__eqsf2>
10006418:	04051c63          	bnez	a0,10006470 <powf+0x98>
1000641c:	00000593          	li	a1,0
10006420:	00040513          	mv	a0,s0
10006424:	c64fd0ef          	jal	ra,10003888 <__eqsf2>
10006428:	02051463          	bnez	a0,10006450 <powf+0x78>
1000642c:	1000a7b7          	lui	a5,0x1000a
10006430:	1807a483          	lw	s1,384(a5) # 1000a180 <_global_impure_ptr+0x4>
10006434:	00c12083          	lw	ra,12(sp)
10006438:	00812403          	lw	s0,8(sp)
1000643c:	00012903          	lw	s2,0(sp)
10006440:	00048513          	mv	a0,s1
10006444:	00412483          	lw	s1,4(sp)
10006448:	01010113          	addi	sp,sp,16
1000644c:	00008067          	ret
10006450:	00040513          	mv	a0,s0
10006454:	451020ef          	jal	ra,100090a4 <finitef>
10006458:	fc050ee3          	beqz	a0,10006434 <powf+0x5c>
1000645c:	00000593          	li	a1,0
10006460:	00040513          	mv	a0,s0
10006464:	eacfc0ef          	jal	ra,10002b10 <__lesf2>
10006468:	fc0556e3          	bgez	a0,10006434 <powf+0x5c>
1000646c:	0640006f          	j	100064d0 <powf+0xf8>
10006470:	00048513          	mv	a0,s1
10006474:	431020ef          	jal	ra,100090a4 <finitef>
10006478:	02050863          	beqz	a0,100064a8 <powf+0xd0>
1000647c:	00000593          	li	a1,0
10006480:	00048513          	mv	a0,s1
10006484:	c04fd0ef          	jal	ra,10003888 <__eqsf2>
10006488:	fa0516e3          	bnez	a0,10006434 <powf+0x5c>
1000648c:	00090513          	mv	a0,s2
10006490:	415020ef          	jal	ra,100090a4 <finitef>
10006494:	fa0500e3          	beqz	a0,10006434 <powf+0x5c>
10006498:	00040513          	mv	a0,s0
1000649c:	409020ef          	jal	ra,100090a4 <finitef>
100064a0:	f8050ae3          	beqz	a0,10006434 <powf+0x5c>
100064a4:	02c0006f          	j	100064d0 <powf+0xf8>
100064a8:	00090513          	mv	a0,s2
100064ac:	3f9020ef          	jal	ra,100090a4 <finitef>
100064b0:	fc0506e3          	beqz	a0,1000647c <powf+0xa4>
100064b4:	00040513          	mv	a0,s0
100064b8:	3ed020ef          	jal	ra,100090a4 <finitef>
100064bc:	fc0500e3          	beqz	a0,1000647c <powf+0xa4>
100064c0:	00048593          	mv	a1,s1
100064c4:	00048513          	mv	a0,s1
100064c8:	c34fd0ef          	jal	ra,100038fc <__unordsf2>
100064cc:	00051a63          	bnez	a0,100064e0 <powf+0x108>
100064d0:	b21ff0ef          	jal	ra,10005ff0 <__errno>
100064d4:	02200793          	li	a5,34
100064d8:	00f52023          	sw	a5,0(a0)
100064dc:	f59ff06f          	j	10006434 <powf+0x5c>
100064e0:	b11ff0ef          	jal	ra,10005ff0 <__errno>
100064e4:	02100793          	li	a5,33
100064e8:	00f52023          	sw	a5,0(a0)
100064ec:	f49ff06f          	j	10006434 <powf+0x5c>

100064f0 <sqrtf>:
100064f0:	ff010113          	addi	sp,sp,-16
100064f4:	00812423          	sw	s0,8(sp)
100064f8:	00912223          	sw	s1,4(sp)
100064fc:	00050413          	mv	s0,a0
10006500:	00112623          	sw	ra,12(sp)
10006504:	230010ef          	jal	ra,10007734 <__ieee754_sqrtf>
10006508:	00050493          	mv	s1,a0
1000650c:	00040593          	mv	a1,s0
10006510:	00040513          	mv	a0,s0
10006514:	be8fd0ef          	jal	ra,100038fc <__unordsf2>
10006518:	00051a63          	bnez	a0,1000652c <sqrtf+0x3c>
1000651c:	00000593          	li	a1,0
10006520:	00040513          	mv	a0,s0
10006524:	decfc0ef          	jal	ra,10002b10 <__lesf2>
10006528:	00054e63          	bltz	a0,10006544 <sqrtf+0x54>
1000652c:	00c12083          	lw	ra,12(sp)
10006530:	00812403          	lw	s0,8(sp)
10006534:	00048513          	mv	a0,s1
10006538:	00412483          	lw	s1,4(sp)
1000653c:	01010113          	addi	sp,sp,16
10006540:	00008067          	ret
10006544:	aadff0ef          	jal	ra,10005ff0 <__errno>
10006548:	02100793          	li	a5,33
1000654c:	00000593          	li	a1,0
10006550:	00f52023          	sw	a5,0(a0)
10006554:	00058513          	mv	a0,a1
10006558:	954fc0ef          	jal	ra,100026ac <__divsf3>
1000655c:	00c12083          	lw	ra,12(sp)
10006560:	00812403          	lw	s0,8(sp)
10006564:	00050493          	mv	s1,a0
10006568:	00048513          	mv	a0,s1
1000656c:	00412483          	lw	s1,4(sp)
10006570:	01010113          	addi	sp,sp,16
10006574:	00008067          	ret

10006578 <__ieee754_rem_pio2>:
10006578:	f9010113          	addi	sp,sp,-112
1000657c:	06812423          	sw	s0,104(sp)
10006580:	3fe926b7          	lui	a3,0x3fe92
10006584:	00159413          	slli	s0,a1,0x1
10006588:	07212023          	sw	s2,96(sp)
1000658c:	06112623          	sw	ra,108(sp)
10006590:	06912223          	sw	s1,100(sp)
10006594:	05312e23          	sw	s3,92(sp)
10006598:	05412c23          	sw	s4,88(sp)
1000659c:	05512a23          	sw	s5,84(sp)
100065a0:	05612823          	sw	s6,80(sp)
100065a4:	05712623          	sw	s7,76(sp)
100065a8:	05812423          	sw	s8,72(sp)
100065ac:	05912223          	sw	s9,68(sp)
100065b0:	05a12023          	sw	s10,64(sp)
100065b4:	03b12e23          	sw	s11,60(sp)
100065b8:	00145413          	srli	s0,s0,0x1
100065bc:	1fb68693          	addi	a3,a3,507 # 3fe921fb <__BSS_END__$+0x2fe87db3>
100065c0:	00060913          	mv	s2,a2
100065c4:	1e86f463          	bgeu	a3,s0,100067ac <__ieee754_rem_pio2+0x234>
100065c8:	4002e6b7          	lui	a3,0x4002e
100065cc:	97b68693          	addi	a3,a3,-1669 # 4002d97b <__BSS_END__$+0x30023533>
100065d0:	00058993          	mv	s3,a1
100065d4:	0a86ec63          	bltu	a3,s0,1000668c <__ieee754_rem_pio2+0x114>
100065d8:	1000a7b7          	lui	a5,0x1000a
100065dc:	52b05e63          	blez	a1,10006b18 <__ieee754_rem_pio2+0x5a0>
100065e0:	1887a603          	lw	a2,392(a5) # 1000a188 <_global_impure_ptr+0xc>
100065e4:	18c7a683          	lw	a3,396(a5)
100065e8:	ad8fb0ef          	jal	ra,100018c0 <__subdf3>
100065ec:	3ff927b7          	lui	a5,0x3ff92
100065f0:	1fb78793          	addi	a5,a5,507 # 3ff921fb <__BSS_END__$+0x2ff87db3>
100065f4:	00050a13          	mv	s4,a0
100065f8:	00058993          	mv	s3,a1
100065fc:	1ef40663          	beq	s0,a5,100067e8 <__ieee754_rem_pio2+0x270>
10006600:	1000aab7          	lui	s5,0x1000a
10006604:	190aa603          	lw	a2,400(s5) # 1000a190 <_global_impure_ptr+0x14>
10006608:	194aa683          	lw	a3,404(s5)
1000660c:	ab4fb0ef          	jal	ra,100018c0 <__subdf3>
10006610:	00050613          	mv	a2,a0
10006614:	00058693          	mv	a3,a1
10006618:	00050493          	mv	s1,a0
1000661c:	00058413          	mv	s0,a1
10006620:	000a0513          	mv	a0,s4
10006624:	00098593          	mv	a1,s3
10006628:	a98fb0ef          	jal	ra,100018c0 <__subdf3>
1000662c:	190aa603          	lw	a2,400(s5)
10006630:	194aa683          	lw	a3,404(s5)
10006634:	a8cfb0ef          	jal	ra,100018c0 <__subdf3>
10006638:	00992023          	sw	s1,0(s2) # a040000 <__stack_size+0xa03ff00>
1000663c:	00892223          	sw	s0,4(s2)
10006640:	00a92423          	sw	a0,8(s2)
10006644:	00b92623          	sw	a1,12(s2)
10006648:	00100493          	li	s1,1
1000664c:	06c12083          	lw	ra,108(sp)
10006650:	06812403          	lw	s0,104(sp)
10006654:	06012903          	lw	s2,96(sp)
10006658:	05c12983          	lw	s3,92(sp)
1000665c:	05812a03          	lw	s4,88(sp)
10006660:	05412a83          	lw	s5,84(sp)
10006664:	05012b03          	lw	s6,80(sp)
10006668:	04c12b83          	lw	s7,76(sp)
1000666c:	04812c03          	lw	s8,72(sp)
10006670:	04412c83          	lw	s9,68(sp)
10006674:	04012d03          	lw	s10,64(sp)
10006678:	03c12d83          	lw	s11,60(sp)
1000667c:	00048513          	mv	a0,s1
10006680:	06412483          	lw	s1,100(sp)
10006684:	07010113          	addi	sp,sp,112
10006688:	00008067          	ret
1000668c:	413926b7          	lui	a3,0x41392
10006690:	1fb68693          	addi	a3,a3,507 # 413921fb <__BSS_END__$+0x31387db3>
10006694:	1a86f463          	bgeu	a3,s0,1000683c <__ieee754_rem_pio2+0x2c4>
10006698:	7ff006b7          	lui	a3,0x7ff00
1000669c:	12d47463          	bgeu	s0,a3,100067c4 <__ieee754_rem_pio2+0x24c>
100066a0:	41445a13          	srai	s4,s0,0x14
100066a4:	beaa0a13          	addi	s4,s4,-1046
100066a8:	014a1793          	slli	a5,s4,0x14
100066ac:	40f40433          	sub	s0,s0,a5
100066b0:	00040593          	mv	a1,s0
100066b4:	00050493          	mv	s1,a0
100066b8:	a5dfb0ef          	jal	ra,10002114 <__fixdfsi>
100066bc:	ad9fb0ef          	jal	ra,10002194 <__floatsidf>
100066c0:	00050793          	mv	a5,a0
100066c4:	00058693          	mv	a3,a1
100066c8:	00050613          	mv	a2,a0
100066cc:	00040593          	mv	a1,s0
100066d0:	00048513          	mv	a0,s1
100066d4:	1000a437          	lui	s0,0x1000a
100066d8:	00f12c23          	sw	a5,24(sp)
100066dc:	00d12e23          	sw	a3,28(sp)
100066e0:	9e0fb0ef          	jal	ra,100018c0 <__subdf3>
100066e4:	1c842603          	lw	a2,456(s0) # 1000a1c8 <_global_impure_ptr+0x4c>
100066e8:	1cc42683          	lw	a3,460(s0)
100066ec:	01810493          	addi	s1,sp,24
100066f0:	b15fa0ef          	jal	ra,10001204 <__muldf3>
100066f4:	00058a93          	mv	s5,a1
100066f8:	00050b13          	mv	s6,a0
100066fc:	a19fb0ef          	jal	ra,10002114 <__fixdfsi>
10006700:	a95fb0ef          	jal	ra,10002194 <__floatsidf>
10006704:	00050793          	mv	a5,a0
10006708:	00058693          	mv	a3,a1
1000670c:	00050613          	mv	a2,a0
10006710:	000a8593          	mv	a1,s5
10006714:	000b0513          	mv	a0,s6
10006718:	02f12023          	sw	a5,32(sp)
1000671c:	02d12223          	sw	a3,36(sp)
10006720:	9a0fb0ef          	jal	ra,100018c0 <__subdf3>
10006724:	1c842603          	lw	a2,456(s0)
10006728:	1cc42683          	lw	a3,460(s0)
1000672c:	00300413          	li	s0,3
10006730:	ad5fa0ef          	jal	ra,10001204 <__muldf3>
10006734:	02a12423          	sw	a0,40(sp)
10006738:	02b12623          	sw	a1,44(sp)
1000673c:	0104a503          	lw	a0,16(s1)
10006740:	0144a583          	lw	a1,20(s1)
10006744:	00000613          	li	a2,0
10006748:	00000693          	li	a3,0
1000674c:	8b0fd0ef          	jal	ra,100037fc <__eqdf2>
10006750:	00040a93          	mv	s5,s0
10006754:	ff848493          	addi	s1,s1,-8
10006758:	fff40413          	addi	s0,s0,-1
1000675c:	fe0500e3          	beqz	a0,1000673c <__ieee754_rem_pio2+0x1c4>
10006760:	100097b7          	lui	a5,0x10009
10006764:	73078793          	addi	a5,a5,1840 # 10009730 <two_over_pi>
10006768:	00200713          	li	a4,2
1000676c:	000a8693          	mv	a3,s5
10006770:	000a0613          	mv	a2,s4
10006774:	00090593          	mv	a1,s2
10006778:	01810513          	addi	a0,sp,24
1000677c:	108010ef          	jal	ra,10007884 <__kernel_rem_pio2>
10006780:	00050493          	mv	s1,a0
10006784:	ec09d4e3          	bgez	s3,1000664c <__ieee754_rem_pio2+0xd4>
10006788:	00492703          	lw	a4,4(s2)
1000678c:	00c92783          	lw	a5,12(s2)
10006790:	800006b7          	lui	a3,0x80000
10006794:	00d74733          	xor	a4,a4,a3
10006798:	00d7c7b3          	xor	a5,a5,a3
1000679c:	00e92223          	sw	a4,4(s2)
100067a0:	00f92623          	sw	a5,12(s2)
100067a4:	40a004b3          	neg	s1,a0
100067a8:	ea5ff06f          	j	1000664c <__ieee754_rem_pio2+0xd4>
100067ac:	00a92023          	sw	a0,0(s2)
100067b0:	00b92223          	sw	a1,4(s2)
100067b4:	00092423          	sw	zero,8(s2)
100067b8:	00092623          	sw	zero,12(s2)
100067bc:	00000493          	li	s1,0
100067c0:	e8dff06f          	j	1000664c <__ieee754_rem_pio2+0xd4>
100067c4:	00050613          	mv	a2,a0
100067c8:	00058693          	mv	a3,a1
100067cc:	8f4fb0ef          	jal	ra,100018c0 <__subdf3>
100067d0:	00a92423          	sw	a0,8(s2)
100067d4:	00b92623          	sw	a1,12(s2)
100067d8:	00a92023          	sw	a0,0(s2)
100067dc:	00b92223          	sw	a1,4(s2)
100067e0:	00000493          	li	s1,0
100067e4:	e69ff06f          	j	1000664c <__ieee754_rem_pio2+0xd4>
100067e8:	1000a7b7          	lui	a5,0x1000a
100067ec:	1987a603          	lw	a2,408(a5) # 1000a198 <_global_impure_ptr+0x1c>
100067f0:	19c7a683          	lw	a3,412(a5)
100067f4:	1000aab7          	lui	s5,0x1000a
100067f8:	8c8fb0ef          	jal	ra,100018c0 <__subdf3>
100067fc:	1a0aa603          	lw	a2,416(s5) # 1000a1a0 <_global_impure_ptr+0x24>
10006800:	1a4aa683          	lw	a3,420(s5)
10006804:	00050a13          	mv	s4,a0
10006808:	00058993          	mv	s3,a1
1000680c:	8b4fb0ef          	jal	ra,100018c0 <__subdf3>
10006810:	00050613          	mv	a2,a0
10006814:	00058693          	mv	a3,a1
10006818:	00050493          	mv	s1,a0
1000681c:	00058413          	mv	s0,a1
10006820:	000a0513          	mv	a0,s4
10006824:	00098593          	mv	a1,s3
10006828:	898fb0ef          	jal	ra,100018c0 <__subdf3>
1000682c:	1a0aa603          	lw	a2,416(s5)
10006830:	1a4aa683          	lw	a3,420(s5)
10006834:	88cfb0ef          	jal	ra,100018c0 <__subdf3>
10006838:	e01ff06f          	j	10006638 <__ieee754_rem_pio2+0xc0>
1000683c:	494020ef          	jal	ra,10008cd0 <fabs>
10006840:	1000a7b7          	lui	a5,0x1000a
10006844:	1a87a603          	lw	a2,424(a5) # 1000a1a8 <_global_impure_ptr+0x2c>
10006848:	1ac7a683          	lw	a3,428(a5)
1000684c:	00050a93          	mv	s5,a0
10006850:	00058a13          	mv	s4,a1
10006854:	9b1fa0ef          	jal	ra,10001204 <__muldf3>
10006858:	1000a7b7          	lui	a5,0x1000a
1000685c:	1b07a603          	lw	a2,432(a5) # 1000a1b0 <_global_impure_ptr+0x34>
10006860:	1b47a683          	lw	a3,436(a5)
10006864:	8d9f90ef          	jal	ra,1000013c <__adddf3>
10006868:	8adfb0ef          	jal	ra,10002114 <__fixdfsi>
1000686c:	00050493          	mv	s1,a0
10006870:	925fb0ef          	jal	ra,10002194 <__floatsidf>
10006874:	1000a7b7          	lui	a5,0x1000a
10006878:	1887a603          	lw	a2,392(a5) # 1000a188 <_global_impure_ptr+0xc>
1000687c:	18c7a683          	lw	a3,396(a5)
10006880:	00050c93          	mv	s9,a0
10006884:	00058c13          	mv	s8,a1
10006888:	97dfa0ef          	jal	ra,10001204 <__muldf3>
1000688c:	00050613          	mv	a2,a0
10006890:	00058693          	mv	a3,a1
10006894:	000a8513          	mv	a0,s5
10006898:	000a0593          	mv	a1,s4
1000689c:	824fb0ef          	jal	ra,100018c0 <__subdf3>
100068a0:	1000a7b7          	lui	a5,0x1000a
100068a4:	1907a603          	lw	a2,400(a5) # 1000a190 <_global_impure_ptr+0x14>
100068a8:	1947a683          	lw	a3,404(a5)
100068ac:	00050b93          	mv	s7,a0
100068b0:	00058b13          	mv	s6,a1
100068b4:	000c8513          	mv	a0,s9
100068b8:	000c0593          	mv	a1,s8
100068bc:	949fa0ef          	jal	ra,10001204 <__muldf3>
100068c0:	01f00793          	li	a5,31
100068c4:	00050a93          	mv	s5,a0
100068c8:	00058a13          	mv	s4,a1
100068cc:	00050613          	mv	a2,a0
100068d0:	00058693          	mv	a3,a1
100068d4:	000b8513          	mv	a0,s7
100068d8:	000b0593          	mv	a1,s6
100068dc:	0897c463          	blt	a5,s1,10006964 <__ieee754_rem_pio2+0x3ec>
100068e0:	fff48713          	addi	a4,s1,-1
100068e4:	100097b7          	lui	a5,0x10009
100068e8:	00271713          	slli	a4,a4,0x2
100068ec:	6b078793          	addi	a5,a5,1712 # 100096b0 <npio2_hw>
100068f0:	00e787b3          	add	a5,a5,a4
100068f4:	0007a783          	lw	a5,0(a5)
100068f8:	06878663          	beq	a5,s0,10006964 <__ieee754_rem_pio2+0x3ec>
100068fc:	fc5fa0ef          	jal	ra,100018c0 <__subdf3>
10006900:	00050d13          	mv	s10,a0
10006904:	00058413          	mv	s0,a1
10006908:	00050713          	mv	a4,a0
1000690c:	00058793          	mv	a5,a1
10006910:	000d0613          	mv	a2,s10
10006914:	00040693          	mv	a3,s0
10006918:	00e92023          	sw	a4,0(s2)
1000691c:	00f92223          	sw	a5,4(s2)
10006920:	000b8513          	mv	a0,s7
10006924:	000b0593          	mv	a1,s6
10006928:	f99fa0ef          	jal	ra,100018c0 <__subdf3>
1000692c:	000a8613          	mv	a2,s5
10006930:	000a0693          	mv	a3,s4
10006934:	f8dfa0ef          	jal	ra,100018c0 <__subdf3>
10006938:	00a92423          	sw	a0,8(s2)
1000693c:	00b92623          	sw	a1,12(s2)
10006940:	d009d6e3          	bgez	s3,1000664c <__ieee754_rem_pio2+0xd4>
10006944:	800007b7          	lui	a5,0x80000
10006948:	0087c433          	xor	s0,a5,s0
1000694c:	00b7c7b3          	xor	a5,a5,a1
10006950:	01a92023          	sw	s10,0(s2)
10006954:	00892223          	sw	s0,4(s2)
10006958:	00f92623          	sw	a5,12(s2)
1000695c:	409004b3          	neg	s1,s1
10006960:	cedff06f          	j	1000664c <__ieee754_rem_pio2+0xd4>
10006964:	f5dfa0ef          	jal	ra,100018c0 <__subdf3>
10006968:	0145d693          	srli	a3,a1,0x14
1000696c:	41445893          	srai	a7,s0,0x14
10006970:	7ff6f693          	andi	a3,a3,2047
10006974:	40d886b3          	sub	a3,a7,a3
10006978:	01112423          	sw	a7,8(sp)
1000697c:	01000613          	li	a2,16
10006980:	00058793          	mv	a5,a1
10006984:	00050713          	mv	a4,a0
10006988:	00050d13          	mv	s10,a0
1000698c:	00058413          	mv	s0,a1
10006990:	f8d650e3          	bge	a2,a3,10006910 <__ieee754_rem_pio2+0x398>
10006994:	1000a7b7          	lui	a5,0x1000a
10006998:	1987a603          	lw	a2,408(a5) # 1000a198 <_global_impure_ptr+0x1c>
1000699c:	19c7a683          	lw	a3,412(a5)
100069a0:	000c8513          	mv	a0,s9
100069a4:	000c0593          	mv	a1,s8
100069a8:	85dfa0ef          	jal	ra,10001204 <__muldf3>
100069ac:	00050a13          	mv	s4,a0
100069b0:	00058413          	mv	s0,a1
100069b4:	00050613          	mv	a2,a0
100069b8:	00058693          	mv	a3,a1
100069bc:	000b8513          	mv	a0,s7
100069c0:	000b0593          	mv	a1,s6
100069c4:	efdfa0ef          	jal	ra,100018c0 <__subdf3>
100069c8:	00050613          	mv	a2,a0
100069cc:	00058693          	mv	a3,a1
100069d0:	00050d93          	mv	s11,a0
100069d4:	00b12623          	sw	a1,12(sp)
100069d8:	000b8513          	mv	a0,s7
100069dc:	00058b93          	mv	s7,a1
100069e0:	000b0593          	mv	a1,s6
100069e4:	eddfa0ef          	jal	ra,100018c0 <__subdf3>
100069e8:	000a0613          	mv	a2,s4
100069ec:	00040693          	mv	a3,s0
100069f0:	ed1fa0ef          	jal	ra,100018c0 <__subdf3>
100069f4:	1000a7b7          	lui	a5,0x1000a
100069f8:	1a07a603          	lw	a2,416(a5) # 1000a1a0 <_global_impure_ptr+0x24>
100069fc:	1a47a683          	lw	a3,420(a5)
10006a00:	00050a13          	mv	s4,a0
10006a04:	00058413          	mv	s0,a1
10006a08:	000c8513          	mv	a0,s9
10006a0c:	000c0593          	mv	a1,s8
10006a10:	ff4fa0ef          	jal	ra,10001204 <__muldf3>
10006a14:	000a0613          	mv	a2,s4
10006a18:	00040693          	mv	a3,s0
10006a1c:	ea5fa0ef          	jal	ra,100018c0 <__subdf3>
10006a20:	00058693          	mv	a3,a1
10006a24:	00050613          	mv	a2,a0
10006a28:	00050a93          	mv	s5,a0
10006a2c:	00058a13          	mv	s4,a1
10006a30:	000d8513          	mv	a0,s11
10006a34:	000b8593          	mv	a1,s7
10006a38:	e89fa0ef          	jal	ra,100018c0 <__subdf3>
10006a3c:	00812883          	lw	a7,8(sp)
10006a40:	0145d693          	srli	a3,a1,0x14
10006a44:	7ff6f693          	andi	a3,a3,2047
10006a48:	40d888b3          	sub	a7,a7,a3
10006a4c:	03100693          	li	a3,49
10006a50:	00058793          	mv	a5,a1
10006a54:	00050713          	mv	a4,a0
10006a58:	00050d13          	mv	s10,a0
10006a5c:	00058413          	mv	s0,a1
10006a60:	0b16d663          	bge	a3,a7,10006b0c <__ieee754_rem_pio2+0x594>
10006a64:	1000a7b7          	lui	a5,0x1000a
10006a68:	1b87a603          	lw	a2,440(a5) # 1000a1b8 <_global_impure_ptr+0x3c>
10006a6c:	1bc7a683          	lw	a3,444(a5)
10006a70:	000c8513          	mv	a0,s9
10006a74:	000c0593          	mv	a1,s8
10006a78:	f8cfa0ef          	jal	ra,10001204 <__muldf3>
10006a7c:	00050a13          	mv	s4,a0
10006a80:	00058413          	mv	s0,a1
10006a84:	00050613          	mv	a2,a0
10006a88:	00058693          	mv	a3,a1
10006a8c:	000d8513          	mv	a0,s11
10006a90:	000b8593          	mv	a1,s7
10006a94:	e2dfa0ef          	jal	ra,100018c0 <__subdf3>
10006a98:	000b8a93          	mv	s5,s7
10006a9c:	00050613          	mv	a2,a0
10006aa0:	00058693          	mv	a3,a1
10006aa4:	00050b93          	mv	s7,a0
10006aa8:	00058b13          	mv	s6,a1
10006aac:	000d8513          	mv	a0,s11
10006ab0:	000a8593          	mv	a1,s5
10006ab4:	e0dfa0ef          	jal	ra,100018c0 <__subdf3>
10006ab8:	000a0613          	mv	a2,s4
10006abc:	00040693          	mv	a3,s0
10006ac0:	e01fa0ef          	jal	ra,100018c0 <__subdf3>
10006ac4:	1000a7b7          	lui	a5,0x1000a
10006ac8:	1c07a603          	lw	a2,448(a5) # 1000a1c0 <_global_impure_ptr+0x44>
10006acc:	1c47a683          	lw	a3,452(a5)
10006ad0:	00050a13          	mv	s4,a0
10006ad4:	00058413          	mv	s0,a1
10006ad8:	000c8513          	mv	a0,s9
10006adc:	000c0593          	mv	a1,s8
10006ae0:	f24fa0ef          	jal	ra,10001204 <__muldf3>
10006ae4:	000a0613          	mv	a2,s4
10006ae8:	00040693          	mv	a3,s0
10006aec:	dd5fa0ef          	jal	ra,100018c0 <__subdf3>
10006af0:	00050a93          	mv	s5,a0
10006af4:	00058a13          	mv	s4,a1
10006af8:	00050613          	mv	a2,a0
10006afc:	00058693          	mv	a3,a1
10006b00:	000b8513          	mv	a0,s7
10006b04:	000b0593          	mv	a1,s6
10006b08:	df5ff06f          	j	100068fc <__ieee754_rem_pio2+0x384>
10006b0c:	00c12b03          	lw	s6,12(sp)
10006b10:	000d8b93          	mv	s7,s11
10006b14:	dfdff06f          	j	10006910 <__ieee754_rem_pio2+0x398>
10006b18:	1887a603          	lw	a2,392(a5)
10006b1c:	18c7a683          	lw	a3,396(a5)
10006b20:	e1cf90ef          	jal	ra,1000013c <__adddf3>
10006b24:	3ff927b7          	lui	a5,0x3ff92
10006b28:	1fb78793          	addi	a5,a5,507 # 3ff921fb <__BSS_END__$+0x2ff87db3>
10006b2c:	00050993          	mv	s3,a0
10006b30:	00058493          	mv	s1,a1
10006b34:	04f40a63          	beq	s0,a5,10006b88 <__ieee754_rem_pio2+0x610>
10006b38:	1000aa37          	lui	s4,0x1000a
10006b3c:	190a2603          	lw	a2,400(s4) # 1000a190 <_global_impure_ptr+0x14>
10006b40:	194a2683          	lw	a3,404(s4)
10006b44:	df8f90ef          	jal	ra,1000013c <__adddf3>
10006b48:	00050613          	mv	a2,a0
10006b4c:	00058693          	mv	a3,a1
10006b50:	00050a93          	mv	s5,a0
10006b54:	00058413          	mv	s0,a1
10006b58:	00098513          	mv	a0,s3
10006b5c:	00048593          	mv	a1,s1
10006b60:	d61fa0ef          	jal	ra,100018c0 <__subdf3>
10006b64:	190a2603          	lw	a2,400(s4)
10006b68:	194a2683          	lw	a3,404(s4)
10006b6c:	dd0f90ef          	jal	ra,1000013c <__adddf3>
10006b70:	01592023          	sw	s5,0(s2)
10006b74:	00892223          	sw	s0,4(s2)
10006b78:	00a92423          	sw	a0,8(s2)
10006b7c:	00b92623          	sw	a1,12(s2)
10006b80:	fff00493          	li	s1,-1
10006b84:	ac9ff06f          	j	1000664c <__ieee754_rem_pio2+0xd4>
10006b88:	1000a7b7          	lui	a5,0x1000a
10006b8c:	1987a603          	lw	a2,408(a5) # 1000a198 <_global_impure_ptr+0x1c>
10006b90:	19c7a683          	lw	a3,412(a5)
10006b94:	1000aa37          	lui	s4,0x1000a
10006b98:	da4f90ef          	jal	ra,1000013c <__adddf3>
10006b9c:	1a0a2603          	lw	a2,416(s4) # 1000a1a0 <_global_impure_ptr+0x24>
10006ba0:	1a4a2683          	lw	a3,420(s4)
10006ba4:	00050993          	mv	s3,a0
10006ba8:	00058493          	mv	s1,a1
10006bac:	d90f90ef          	jal	ra,1000013c <__adddf3>
10006bb0:	00050613          	mv	a2,a0
10006bb4:	00058693          	mv	a3,a1
10006bb8:	00050a93          	mv	s5,a0
10006bbc:	00058413          	mv	s0,a1
10006bc0:	00098513          	mv	a0,s3
10006bc4:	00048593          	mv	a1,s1
10006bc8:	cf9fa0ef          	jal	ra,100018c0 <__subdf3>
10006bcc:	1a0a2603          	lw	a2,416(s4)
10006bd0:	1a4a2683          	lw	a3,420(s4)
10006bd4:	d68f90ef          	jal	ra,1000013c <__adddf3>
10006bd8:	f99ff06f          	j	10006b70 <__ieee754_rem_pio2+0x5f8>

10006bdc <__ieee754_powf>:
10006bdc:	800007b7          	lui	a5,0x80000
10006be0:	fb010113          	addi	sp,sp,-80
10006be4:	fff7c793          	not	a5,a5
10006be8:	04912223          	sw	s1,68(sp)
10006bec:	03312e23          	sw	s3,60(sp)
10006bf0:	03a12023          	sw	s10,32(sp)
10006bf4:	04112623          	sw	ra,76(sp)
10006bf8:	04812423          	sw	s0,72(sp)
10006bfc:	05212023          	sw	s2,64(sp)
10006c00:	03412c23          	sw	s4,56(sp)
10006c04:	03512a23          	sw	s5,52(sp)
10006c08:	03612823          	sw	s6,48(sp)
10006c0c:	03712623          	sw	s7,44(sp)
10006c10:	03812423          	sw	s8,40(sp)
10006c14:	03912223          	sw	s9,36(sp)
10006c18:	01b12e23          	sw	s11,28(sp)
10006c1c:	00b7f9b3          	and	s3,a5,a1
10006c20:	00058d13          	mv	s10,a1
10006c24:	00050493          	mv	s1,a0
10006c28:	06099463          	bnez	s3,10006c90 <__ieee754_powf+0xb4>
10006c2c:	004007b7          	lui	a5,0x400
10006c30:	00a7c7b3          	xor	a5,a5,a0
10006c34:	00179793          	slli	a5,a5,0x1
10006c38:	ff8006b7          	lui	a3,0xff800
10006c3c:	08f6f263          	bgeu	a3,a5,10006cc0 <__ieee754_powf+0xe4>
10006c40:	000d0593          	mv	a1,s10
10006c44:	00048513          	mv	a0,s1
10006c48:	df4fb0ef          	jal	ra,1000223c <__addsf3>
10006c4c:	00050793          	mv	a5,a0
10006c50:	04c12083          	lw	ra,76(sp)
10006c54:	04812403          	lw	s0,72(sp)
10006c58:	04412483          	lw	s1,68(sp)
10006c5c:	04012903          	lw	s2,64(sp)
10006c60:	03c12983          	lw	s3,60(sp)
10006c64:	03812a03          	lw	s4,56(sp)
10006c68:	03412a83          	lw	s5,52(sp)
10006c6c:	03012b03          	lw	s6,48(sp)
10006c70:	02c12b83          	lw	s7,44(sp)
10006c74:	02812c03          	lw	s8,40(sp)
10006c78:	02412c83          	lw	s9,36(sp)
10006c7c:	02012d03          	lw	s10,32(sp)
10006c80:	01c12d83          	lw	s11,28(sp)
10006c84:	00078513          	mv	a0,a5
10006c88:	05010113          	addi	sp,sp,80
10006c8c:	00008067          	ret
10006c90:	00a7f433          	and	s0,a5,a0
10006c94:	7f800937          	lui	s2,0x7f800
10006c98:	00050a13          	mv	s4,a0
10006c9c:	00896463          	bltu	s2,s0,10006ca4 <__ieee754_powf+0xc8>
10006ca0:	03397663          	bgeu	s2,s3,10006ccc <__ieee754_powf+0xf0>
10006ca4:	3f8007b7          	lui	a5,0x3f800
10006ca8:	f8fa1ce3          	bne	s4,a5,10006c40 <__ieee754_powf+0x64>
10006cac:	004007b7          	lui	a5,0x400
10006cb0:	01a7c7b3          	xor	a5,a5,s10
10006cb4:	00179793          	slli	a5,a5,0x1
10006cb8:	ff8006b7          	lui	a3,0xff800
10006cbc:	f8f6e2e3          	bltu	a3,a5,10006c40 <__ieee754_powf+0x64>
10006cc0:	1000a7b7          	lui	a5,0x1000a
10006cc4:	1807a783          	lw	a5,384(a5) # 1000a180 <_global_impure_ptr+0x4>
10006cc8:	f89ff06f          	j	10006c50 <__ieee754_powf+0x74>
10006ccc:	00058a93          	mv	s5,a1
10006cd0:	00040b13          	mv	s6,s0
10006cd4:	36054a63          	bltz	a0,10007048 <__ieee754_powf+0x46c>
10006cd8:	3b298263          	beq	s3,s2,1000707c <__ieee754_powf+0x4a0>
10006cdc:	3f8007b7          	lui	a5,0x3f800
10006ce0:	44f98663          	beq	s3,a5,1000712c <__ieee754_powf+0x550>
10006ce4:	400007b7          	lui	a5,0x40000
10006ce8:	00000913          	li	s2,0
10006cec:	46f58a63          	beq	a1,a5,10007160 <__ieee754_powf+0x584>
10006cf0:	3f0007b7          	lui	a5,0x3f000
10006cf4:	3cfa9c63          	bne	s5,a5,100070cc <__ieee754_powf+0x4f0>
10006cf8:	00048513          	mv	a0,s1
10006cfc:	460a5c63          	bgez	s4,10007174 <__ieee754_powf+0x598>
10006d00:	398020ef          	jal	ra,10009098 <fabsf>
10006d04:	7f8006b7          	lui	a3,0x7f800
10006d08:	00050793          	mv	a5,a0
10006d0c:	3ed40a63          	beq	s0,a3,10007100 <__ieee754_powf+0x524>
10006d10:	3e040863          	beqz	s0,10007100 <__ieee754_powf+0x524>
10006d14:	3f8006b7          	lui	a3,0x3f800
10006d18:	3cd40663          	beq	s0,a3,100070e4 <__ieee754_powf+0x508>
10006d1c:	01f4d613          	srli	a2,s1,0x1f
10006d20:	fff60c93          	addi	s9,a2,-1
10006d24:	019965b3          	or	a1,s2,s9
10006d28:	48058463          	beqz	a1,100071b0 <__ieee754_powf+0x5d4>
10006d2c:	4d0005b7          	lui	a1,0x4d000
10006d30:	4935f463          	bgeu	a1,s3,100071b8 <__ieee754_powf+0x5dc>
10006d34:	ff368593          	addi	a1,a3,-13 # 3f7ffff3 <__BSS_END__$+0x2f7f5bab>
10006d38:	0885fee3          	bgeu	a1,s0,100075d4 <__ieee754_powf+0x9f8>
10006d3c:	00768693          	addi	a3,a3,7
10006d40:	0c86ece3          	bltu	a3,s0,10007618 <__ieee754_powf+0xa3c>
10006d44:	1000abb7          	lui	s7,0x1000a
10006d48:	180ba583          	lw	a1,384(s7) # 1000a180 <_global_impure_ptr+0x4>
10006d4c:	00078513          	mv	a0,a5
10006d50:	a00fc0ef          	jal	ra,10002f50 <__subsf3>
10006d54:	1000a7b7          	lui	a5,0x1000a
10006d58:	1e07a583          	lw	a1,480(a5) # 1000a1e0 <_global_impure_ptr+0x64>
10006d5c:	00050413          	mv	s0,a0
10006d60:	e8dfb0ef          	jal	ra,10002bec <__mulsf3>
10006d64:	1000a7b7          	lui	a5,0x1000a
10006d68:	1e47a583          	lw	a1,484(a5) # 1000a1e4 <_global_impure_ptr+0x68>
10006d6c:	00050993          	mv	s3,a0
10006d70:	00040513          	mv	a0,s0
10006d74:	e79fb0ef          	jal	ra,10002bec <__mulsf3>
10006d78:	1000a7b7          	lui	a5,0x1000a
10006d7c:	1e87a583          	lw	a1,488(a5) # 1000a1e8 <_global_impure_ptr+0x6c>
10006d80:	00050493          	mv	s1,a0
10006d84:	00040513          	mv	a0,s0
10006d88:	e65fb0ef          	jal	ra,10002bec <__mulsf3>
10006d8c:	1000a7b7          	lui	a5,0x1000a
10006d90:	00050593          	mv	a1,a0
10006d94:	1ec7a503          	lw	a0,492(a5) # 1000a1ec <_global_impure_ptr+0x70>
10006d98:	9b8fc0ef          	jal	ra,10002f50 <__subsf3>
10006d9c:	00040593          	mv	a1,s0
10006da0:	e4dfb0ef          	jal	ra,10002bec <__mulsf3>
10006da4:	1000a7b7          	lui	a5,0x1000a
10006da8:	00050593          	mv	a1,a0
10006dac:	1f07a503          	lw	a0,496(a5) # 1000a1f0 <_global_impure_ptr+0x74>
10006db0:	9a0fc0ef          	jal	ra,10002f50 <__subsf3>
10006db4:	00040593          	mv	a1,s0
10006db8:	00050a13          	mv	s4,a0
10006dbc:	00040513          	mv	a0,s0
10006dc0:	e2dfb0ef          	jal	ra,10002bec <__mulsf3>
10006dc4:	00050593          	mv	a1,a0
10006dc8:	000a0513          	mv	a0,s4
10006dcc:	e21fb0ef          	jal	ra,10002bec <__mulsf3>
10006dd0:	1000a7b7          	lui	a5,0x1000a
10006dd4:	1f47a583          	lw	a1,500(a5) # 1000a1f4 <_global_impure_ptr+0x78>
10006dd8:	fffff437          	lui	s0,0xfffff
10006ddc:	e11fb0ef          	jal	ra,10002bec <__mulsf3>
10006de0:	00050593          	mv	a1,a0
10006de4:	00048513          	mv	a0,s1
10006de8:	968fc0ef          	jal	ra,10002f50 <__subsf3>
10006dec:	00050593          	mv	a1,a0
10006df0:	00050493          	mv	s1,a0
10006df4:	00098513          	mv	a0,s3
10006df8:	c44fb0ef          	jal	ra,1000223c <__addsf3>
10006dfc:	00a47433          	and	s0,s0,a0
10006e00:	00098593          	mv	a1,s3
10006e04:	00040513          	mv	a0,s0
10006e08:	948fc0ef          	jal	ra,10002f50 <__subsf3>
10006e0c:	00050593          	mv	a1,a0
10006e10:	00048513          	mv	a0,s1
10006e14:	93cfc0ef          	jal	ra,10002f50 <__subsf3>
10006e18:	fff90793          	addi	a5,s2,-1 # 7f7fffff <__BSS_END__$+0x6f7f5bb7>
10006e1c:	0197e7b3          	or	a5,a5,s9
10006e20:	00050a13          	mv	s4,a0
10006e24:	6e078c63          	beqz	a5,1000751c <__ieee754_powf+0x940>
10006e28:	180ba483          	lw	s1,384(s7)
10006e2c:	fffff937          	lui	s2,0xfffff
10006e30:	01a97933          	and	s2,s2,s10
10006e34:	00090593          	mv	a1,s2
10006e38:	000d0513          	mv	a0,s10
10006e3c:	914fc0ef          	jal	ra,10002f50 <__subsf3>
10006e40:	00040593          	mv	a1,s0
10006e44:	da9fb0ef          	jal	ra,10002bec <__mulsf3>
10006e48:	00050993          	mv	s3,a0
10006e4c:	000d0593          	mv	a1,s10
10006e50:	000a0513          	mv	a0,s4
10006e54:	d99fb0ef          	jal	ra,10002bec <__mulsf3>
10006e58:	00050593          	mv	a1,a0
10006e5c:	00098513          	mv	a0,s3
10006e60:	bdcfb0ef          	jal	ra,1000223c <__addsf3>
10006e64:	00090593          	mv	a1,s2
10006e68:	00050993          	mv	s3,a0
10006e6c:	00040513          	mv	a0,s0
10006e70:	d7dfb0ef          	jal	ra,10002bec <__mulsf3>
10006e74:	00050593          	mv	a1,a0
10006e78:	00050913          	mv	s2,a0
10006e7c:	00098513          	mv	a0,s3
10006e80:	bbcfb0ef          	jal	ra,1000223c <__addsf3>
10006e84:	00151793          	slli	a5,a0,0x1
10006e88:	00050413          	mv	s0,a0
10006e8c:	00050713          	mv	a4,a0
10006e90:	00050b13          	mv	s6,a0
10006e94:	0017d793          	srli	a5,a5,0x1
10006e98:	68a05863          	blez	a0,10007528 <__ieee754_powf+0x94c>
10006e9c:	430006b7          	lui	a3,0x43000
10006ea0:	7ef6ec63          	bltu	a3,a5,10007698 <__ieee754_powf+0xabc>
10006ea4:	00d784e3          	beq	a5,a3,100076ac <__ieee754_powf+0xad0>
10006ea8:	3f0006b7          	lui	a3,0x3f000
10006eac:	00000a93          	li	s5,0
10006eb0:	00000a13          	li	s4,0
10006eb4:	06f6e2e3          	bltu	a3,a5,10007718 <__ieee754_powf+0xb3c>
10006eb8:	1000a7b7          	lui	a5,0x1000a
10006ebc:	2247a583          	lw	a1,548(a5) # 1000a224 <_global_impure_ptr+0xa8>
10006ec0:	fffff7b7          	lui	a5,0xfffff
10006ec4:	00f77433          	and	s0,a4,a5
10006ec8:	00040513          	mv	a0,s0
10006ecc:	d21fb0ef          	jal	ra,10002bec <__mulsf3>
10006ed0:	00050793          	mv	a5,a0
10006ed4:	00090593          	mv	a1,s2
10006ed8:	00040513          	mv	a0,s0
10006edc:	00078913          	mv	s2,a5
10006ee0:	870fc0ef          	jal	ra,10002f50 <__subsf3>
10006ee4:	00050593          	mv	a1,a0
10006ee8:	00098513          	mv	a0,s3
10006eec:	864fc0ef          	jal	ra,10002f50 <__subsf3>
10006ef0:	1000a7b7          	lui	a5,0x1000a
10006ef4:	2287a583          	lw	a1,552(a5) # 1000a228 <_global_impure_ptr+0xac>
10006ef8:	cf5fb0ef          	jal	ra,10002bec <__mulsf3>
10006efc:	1000a7b7          	lui	a5,0x1000a
10006f00:	22c7a583          	lw	a1,556(a5) # 1000a22c <_global_impure_ptr+0xb0>
10006f04:	00050993          	mv	s3,a0
10006f08:	00040513          	mv	a0,s0
10006f0c:	ce1fb0ef          	jal	ra,10002bec <__mulsf3>
10006f10:	00050593          	mv	a1,a0
10006f14:	00098513          	mv	a0,s3
10006f18:	b24fb0ef          	jal	ra,1000223c <__addsf3>
10006f1c:	00050413          	mv	s0,a0
10006f20:	00050593          	mv	a1,a0
10006f24:	00090513          	mv	a0,s2
10006f28:	b14fb0ef          	jal	ra,1000223c <__addsf3>
10006f2c:	00090593          	mv	a1,s2
10006f30:	00050913          	mv	s2,a0
10006f34:	81cfc0ef          	jal	ra,10002f50 <__subsf3>
10006f38:	00050593          	mv	a1,a0
10006f3c:	00040513          	mv	a0,s0
10006f40:	810fc0ef          	jal	ra,10002f50 <__subsf3>
10006f44:	00050993          	mv	s3,a0
10006f48:	00090593          	mv	a1,s2
10006f4c:	00090513          	mv	a0,s2
10006f50:	c9dfb0ef          	jal	ra,10002bec <__mulsf3>
10006f54:	1000a7b7          	lui	a5,0x1000a
10006f58:	2307a583          	lw	a1,560(a5) # 1000a230 <_global_impure_ptr+0xb4>
10006f5c:	00050413          	mv	s0,a0
10006f60:	c8dfb0ef          	jal	ra,10002bec <__mulsf3>
10006f64:	1000a7b7          	lui	a5,0x1000a
10006f68:	2347a583          	lw	a1,564(a5) # 1000a234 <_global_impure_ptr+0xb8>
10006f6c:	fe5fb0ef          	jal	ra,10002f50 <__subsf3>
10006f70:	00040593          	mv	a1,s0
10006f74:	c79fb0ef          	jal	ra,10002bec <__mulsf3>
10006f78:	1000a7b7          	lui	a5,0x1000a
10006f7c:	2387a583          	lw	a1,568(a5) # 1000a238 <_global_impure_ptr+0xbc>
10006f80:	abcfb0ef          	jal	ra,1000223c <__addsf3>
10006f84:	00040593          	mv	a1,s0
10006f88:	c65fb0ef          	jal	ra,10002bec <__mulsf3>
10006f8c:	1000a7b7          	lui	a5,0x1000a
10006f90:	23c7a583          	lw	a1,572(a5) # 1000a23c <_global_impure_ptr+0xc0>
10006f94:	fbdfb0ef          	jal	ra,10002f50 <__subsf3>
10006f98:	00040593          	mv	a1,s0
10006f9c:	c51fb0ef          	jal	ra,10002bec <__mulsf3>
10006fa0:	1000a7b7          	lui	a5,0x1000a
10006fa4:	2407a583          	lw	a1,576(a5) # 1000a240 <_global_impure_ptr+0xc4>
10006fa8:	a94fb0ef          	jal	ra,1000223c <__addsf3>
10006fac:	00040593          	mv	a1,s0
10006fb0:	c3dfb0ef          	jal	ra,10002bec <__mulsf3>
10006fb4:	00050593          	mv	a1,a0
10006fb8:	00090513          	mv	a0,s2
10006fbc:	f95fb0ef          	jal	ra,10002f50 <__subsf3>
10006fc0:	00050413          	mv	s0,a0
10006fc4:	00050593          	mv	a1,a0
10006fc8:	00090513          	mv	a0,s2
10006fcc:	c21fb0ef          	jal	ra,10002bec <__mulsf3>
10006fd0:	1000a7b7          	lui	a5,0x1000a
10006fd4:	2447a583          	lw	a1,580(a5) # 1000a244 <_global_impure_ptr+0xc8>
10006fd8:	00050b13          	mv	s6,a0
10006fdc:	00040513          	mv	a0,s0
10006fe0:	f71fb0ef          	jal	ra,10002f50 <__subsf3>
10006fe4:	00050593          	mv	a1,a0
10006fe8:	000b0513          	mv	a0,s6
10006fec:	ec0fb0ef          	jal	ra,100026ac <__divsf3>
10006ff0:	00050413          	mv	s0,a0
10006ff4:	00098593          	mv	a1,s3
10006ff8:	00090513          	mv	a0,s2
10006ffc:	bf1fb0ef          	jal	ra,10002bec <__mulsf3>
10007000:	00098593          	mv	a1,s3
10007004:	a38fb0ef          	jal	ra,1000223c <__addsf3>
10007008:	00050593          	mv	a1,a0
1000700c:	00040513          	mv	a0,s0
10007010:	f41fb0ef          	jal	ra,10002f50 <__subsf3>
10007014:	00090593          	mv	a1,s2
10007018:	f39fb0ef          	jal	ra,10002f50 <__subsf3>
1000701c:	00050593          	mv	a1,a0
10007020:	180ba503          	lw	a0,384(s7)
10007024:	f2dfb0ef          	jal	ra,10002f50 <__subsf3>
10007028:	00aa87b3          	add	a5,s5,a0
1000702c:	4177d713          	srai	a4,a5,0x17
10007030:	62e05663          	blez	a4,1000765c <__ieee754_powf+0xa80>
10007034:	00078513          	mv	a0,a5
10007038:	00048593          	mv	a1,s1
1000703c:	bb1fb0ef          	jal	ra,10002bec <__mulsf3>
10007040:	00050793          	mv	a5,a0
10007044:	c0dff06f          	j	10006c50 <__ieee754_powf+0x74>
10007048:	4b8007b7          	lui	a5,0x4b800
1000704c:	04f9f663          	bgeu	s3,a5,10007098 <__ieee754_powf+0x4bc>
10007050:	3f8006b7          	lui	a3,0x3f800
10007054:	04d9f863          	bgeu	s3,a3,100070a4 <__ieee754_powf+0x4c8>
10007058:	400007b7          	lui	a5,0x40000
1000705c:	10f58263          	beq	a1,a5,10007160 <__ieee754_powf+0x584>
10007060:	3f0007b7          	lui	a5,0x3f000
10007064:	06f59263          	bne	a1,a5,100070c8 <__ieee754_powf+0x4ec>
10007068:	030020ef          	jal	ra,10009098 <fabsf>
1000706c:	00050793          	mv	a5,a0
10007070:	bf2400e3          	beq	s0,s2,10006c50 <__ieee754_powf+0x74>
10007074:	00000913          	li	s2,0
10007078:	c99ff06f          	j	10006d10 <__ieee754_powf+0x134>
1000707c:	3f8007b7          	lui	a5,0x3f800
10007080:	c4f400e3          	beq	s0,a5,10006cc0 <__ieee754_powf+0xe4>
10007084:	0c87f463          	bgeu	a5,s0,1000714c <__ieee754_powf+0x570>
10007088:	00000793          	li	a5,0
1000708c:	bc0ac2e3          	bltz	s5,10006c50 <__ieee754_powf+0x74>
10007090:	000d0793          	mv	a5,s10
10007094:	bbdff06f          	j	10006c50 <__ieee754_powf+0x74>
10007098:	ff2982e3          	beq	s3,s2,1000707c <__ieee754_powf+0x4a0>
1000709c:	00200913          	li	s2,2
100070a0:	c51ff06f          	j	10006cf0 <__ieee754_powf+0x114>
100070a4:	4179d613          	srai	a2,s3,0x17
100070a8:	09600793          	li	a5,150
100070ac:	40c787b3          	sub	a5,a5,a2
100070b0:	40f9d633          	sra	a2,s3,a5
100070b4:	00f617b3          	sll	a5,a2,a5
100070b8:	43378a63          	beq	a5,s3,100074ec <__ieee754_powf+0x910>
100070bc:	06d98863          	beq	s3,a3,1000712c <__ieee754_powf+0x550>
100070c0:	400007b7          	lui	a5,0x40000
100070c4:	08f58e63          	beq	a1,a5,10007160 <__ieee754_powf+0x584>
100070c8:	00000913          	li	s2,0
100070cc:	00048513          	mv	a0,s1
100070d0:	7c9010ef          	jal	ra,10009098 <fabsf>
100070d4:	7f8006b7          	lui	a3,0x7f800
100070d8:	00050793          	mv	a5,a0
100070dc:	00d40463          	beq	s0,a3,100070e4 <__ieee754_powf+0x508>
100070e0:	c2041ae3          	bnez	s0,10006d14 <__ieee754_powf+0x138>
100070e4:	000adc63          	bgez	s5,100070fc <__ieee754_powf+0x520>
100070e8:	1000a737          	lui	a4,0x1000a
100070ec:	18072503          	lw	a0,384(a4) # 1000a180 <_global_impure_ptr+0x4>
100070f0:	00078593          	mv	a1,a5
100070f4:	db8fb0ef          	jal	ra,100026ac <__divsf3>
100070f8:	00050793          	mv	a5,a0
100070fc:	b40a5ae3          	bgez	s4,10006c50 <__ieee754_powf+0x74>
10007100:	c0800737          	lui	a4,0xc0800
10007104:	00e40733          	add	a4,s0,a4
10007108:	01276733          	or	a4,a4,s2
1000710c:	00078593          	mv	a1,a5
10007110:	3e071c63          	bnez	a4,10007508 <__ieee754_powf+0x92c>
10007114:	00058513          	mv	a0,a1
10007118:	e39fb0ef          	jal	ra,10002f50 <__subsf3>
1000711c:	00050593          	mv	a1,a0
10007120:	d8cfb0ef          	jal	ra,100026ac <__divsf3>
10007124:	00050793          	mv	a5,a0
10007128:	b29ff06f          	j	10006c50 <__ieee754_powf+0x74>
1000712c:	00048793          	mv	a5,s1
10007130:	b20ad0e3          	bgez	s5,10006c50 <__ieee754_powf+0x74>
10007134:	1000a737          	lui	a4,0x1000a
10007138:	18072503          	lw	a0,384(a4) # 1000a180 <_global_impure_ptr+0x4>
1000713c:	00048593          	mv	a1,s1
10007140:	d6cfb0ef          	jal	ra,100026ac <__divsf3>
10007144:	00050793          	mv	a5,a0
10007148:	b09ff06f          	j	10006c50 <__ieee754_powf+0x74>
1000714c:	00000793          	li	a5,0
10007150:	b00ad0e3          	bgez	s5,10006c50 <__ieee754_powf+0x74>
10007154:	800007b7          	lui	a5,0x80000
10007158:	01a7c7b3          	xor	a5,a5,s10
1000715c:	af5ff06f          	j	10006c50 <__ieee754_powf+0x74>
10007160:	00048593          	mv	a1,s1
10007164:	00048513          	mv	a0,s1
10007168:	a85fb0ef          	jal	ra,10002bec <__mulsf3>
1000716c:	00050793          	mv	a5,a0
10007170:	ae1ff06f          	j	10006c50 <__ieee754_powf+0x74>
10007174:	04812403          	lw	s0,72(sp)
10007178:	04c12083          	lw	ra,76(sp)
1000717c:	04412483          	lw	s1,68(sp)
10007180:	04012903          	lw	s2,64(sp)
10007184:	03c12983          	lw	s3,60(sp)
10007188:	03812a03          	lw	s4,56(sp)
1000718c:	03412a83          	lw	s5,52(sp)
10007190:	03012b03          	lw	s6,48(sp)
10007194:	02c12b83          	lw	s7,44(sp)
10007198:	02812c03          	lw	s8,40(sp)
1000719c:	02412c83          	lw	s9,36(sp)
100071a0:	02012d03          	lw	s10,32(sp)
100071a4:	01c12d83          	lw	s11,28(sp)
100071a8:	05010113          	addi	sp,sp,80
100071ac:	5880006f          	j	10007734 <__ieee754_sqrtf>
100071b0:	00048593          	mv	a1,s1
100071b4:	f61ff06f          	j	10007114 <__ieee754_powf+0x538>
100071b8:	7f8006b7          	lui	a3,0x7f800
100071bc:	0096f6b3          	and	a3,a3,s1
100071c0:	00000513          	li	a0,0
100071c4:	00069e63          	bnez	a3,100071e0 <__ieee754_powf+0x604>
100071c8:	1000a6b7          	lui	a3,0x1000a
100071cc:	1f86a583          	lw	a1,504(a3) # 1000a1f8 <_global_impure_ptr+0x7c>
100071d0:	00078513          	mv	a0,a5
100071d4:	a19fb0ef          	jal	ra,10002bec <__mulsf3>
100071d8:	00050b13          	mv	s6,a0
100071dc:	fe800513          	li	a0,-24
100071e0:	00800837          	lui	a6,0x800
100071e4:	417b5693          	srai	a3,s6,0x17
100071e8:	fff80793          	addi	a5,a6,-1 # 7fffff <__stack_size+0x7ffeff>
100071ec:	001cc5b7          	lui	a1,0x1cc
100071f0:	f8168693          	addi	a3,a3,-127
100071f4:	00fb77b3          	and	a5,s6,a5
100071f8:	3f8009b7          	lui	s3,0x3f800
100071fc:	47158593          	addi	a1,a1,1137 # 1cc471 <__stack_size+0x1cc371>
10007200:	00a686b3          	add	a3,a3,a0
10007204:	0137e9b3          	or	s3,a5,s3
10007208:	3af5d863          	bge	a1,a5,100075b8 <__ieee754_powf+0x9dc>
1000720c:	005db5b7          	lui	a1,0x5db
10007210:	3d658593          	addi	a1,a1,982 # 5db3d6 <__stack_size+0x5db2d6>
10007214:	44f5dc63          	bge	a1,a5,1000766c <__ieee754_powf+0xa90>
10007218:	1000abb7          	lui	s7,0x1000a
1000721c:	180bab03          	lw	s6,384(s7) # 1000a180 <_global_impure_ptr+0x4>
10007220:	00000793          	li	a5,0
10007224:	00168693          	addi	a3,a3,1
10007228:	410989b3          	sub	s3,s3,a6
1000722c:	00f12623          	sw	a5,12(sp)
10007230:	00f12423          	sw	a5,8(sp)
10007234:	00000d93          	li	s11,0
10007238:	000b0593          	mv	a1,s6
1000723c:	00098513          	mv	a0,s3
10007240:	00d12223          	sw	a3,4(sp)
10007244:	d0dfb0ef          	jal	ra,10002f50 <__subsf3>
10007248:	00050a93          	mv	s5,a0
1000724c:	000b0593          	mv	a1,s6
10007250:	00098513          	mv	a0,s3
10007254:	fe9fa0ef          	jal	ra,1000223c <__addsf3>
10007258:	00050593          	mv	a1,a0
1000725c:	180ba503          	lw	a0,384(s7)
10007260:	fffff437          	lui	s0,0xfffff
10007264:	1000ac37          	lui	s8,0x1000a
10007268:	c44fb0ef          	jal	ra,100026ac <__divsf3>
1000726c:	00050593          	mv	a1,a0
10007270:	00a12023          	sw	a0,0(sp)
10007274:	000a8513          	mv	a0,s5
10007278:	975fb0ef          	jal	ra,10002bec <__mulsf3>
1000727c:	4019d793          	srai	a5,s3,0x1
10007280:	200005b7          	lui	a1,0x20000
10007284:	00b7e7b3          	or	a5,a5,a1
10007288:	000405b7          	lui	a1,0x40
1000728c:	00b787b3          	add	a5,a5,a1
10007290:	01b78db3          	add	s11,a5,s11
10007294:	00a47a33          	and	s4,s0,a0
10007298:	00050493          	mv	s1,a0
1000729c:	000d8593          	mv	a1,s11
100072a0:	000a0513          	mv	a0,s4
100072a4:	949fb0ef          	jal	ra,10002bec <__mulsf3>
100072a8:	00050593          	mv	a1,a0
100072ac:	000a8513          	mv	a0,s5
100072b0:	ca1fb0ef          	jal	ra,10002f50 <__subsf3>
100072b4:	00050a93          	mv	s5,a0
100072b8:	000b0593          	mv	a1,s6
100072bc:	000d8513          	mv	a0,s11
100072c0:	c91fb0ef          	jal	ra,10002f50 <__subsf3>
100072c4:	00050593          	mv	a1,a0
100072c8:	00098513          	mv	a0,s3
100072cc:	c85fb0ef          	jal	ra,10002f50 <__subsf3>
100072d0:	000a0593          	mv	a1,s4
100072d4:	919fb0ef          	jal	ra,10002bec <__mulsf3>
100072d8:	00050593          	mv	a1,a0
100072dc:	000a8513          	mv	a0,s5
100072e0:	c71fb0ef          	jal	ra,10002f50 <__subsf3>
100072e4:	00012803          	lw	a6,0(sp)
100072e8:	00080593          	mv	a1,a6
100072ec:	901fb0ef          	jal	ra,10002bec <__mulsf3>
100072f0:	00050a93          	mv	s5,a0
100072f4:	00048593          	mv	a1,s1
100072f8:	00048513          	mv	a0,s1
100072fc:	8f1fb0ef          	jal	ra,10002bec <__mulsf3>
10007300:	1000a7b7          	lui	a5,0x1000a
10007304:	1fc7a583          	lw	a1,508(a5) # 1000a1fc <_global_impure_ptr+0x80>
10007308:	00050993          	mv	s3,a0
1000730c:	8e1fb0ef          	jal	ra,10002bec <__mulsf3>
10007310:	1000a7b7          	lui	a5,0x1000a
10007314:	2007a583          	lw	a1,512(a5) # 1000a200 <_global_impure_ptr+0x84>
10007318:	f25fa0ef          	jal	ra,1000223c <__addsf3>
1000731c:	00098593          	mv	a1,s3
10007320:	8cdfb0ef          	jal	ra,10002bec <__mulsf3>
10007324:	1000a7b7          	lui	a5,0x1000a
10007328:	2047a583          	lw	a1,516(a5) # 1000a204 <_global_impure_ptr+0x88>
1000732c:	f11fa0ef          	jal	ra,1000223c <__addsf3>
10007330:	00098593          	mv	a1,s3
10007334:	8b9fb0ef          	jal	ra,10002bec <__mulsf3>
10007338:	1000a7b7          	lui	a5,0x1000a
1000733c:	1ec7a583          	lw	a1,492(a5) # 1000a1ec <_global_impure_ptr+0x70>
10007340:	efdfa0ef          	jal	ra,1000223c <__addsf3>
10007344:	00098593          	mv	a1,s3
10007348:	8a5fb0ef          	jal	ra,10002bec <__mulsf3>
1000734c:	1000a7b7          	lui	a5,0x1000a
10007350:	2087a583          	lw	a1,520(a5) # 1000a208 <_global_impure_ptr+0x8c>
10007354:	ee9fa0ef          	jal	ra,1000223c <__addsf3>
10007358:	00098593          	mv	a1,s3
1000735c:	891fb0ef          	jal	ra,10002bec <__mulsf3>
10007360:	1000a7b7          	lui	a5,0x1000a
10007364:	20c7a583          	lw	a1,524(a5) # 1000a20c <_global_impure_ptr+0x90>
10007368:	ed5fa0ef          	jal	ra,1000223c <__addsf3>
1000736c:	00050b13          	mv	s6,a0
10007370:	00098593          	mv	a1,s3
10007374:	00098513          	mv	a0,s3
10007378:	875fb0ef          	jal	ra,10002bec <__mulsf3>
1000737c:	00050593          	mv	a1,a0
10007380:	000b0513          	mv	a0,s6
10007384:	869fb0ef          	jal	ra,10002bec <__mulsf3>
10007388:	00050993          	mv	s3,a0
1000738c:	000a0593          	mv	a1,s4
10007390:	00048513          	mv	a0,s1
10007394:	ea9fa0ef          	jal	ra,1000223c <__addsf3>
10007398:	000a8593          	mv	a1,s5
1000739c:	851fb0ef          	jal	ra,10002bec <__mulsf3>
100073a0:	00098593          	mv	a1,s3
100073a4:	e99fa0ef          	jal	ra,1000223c <__addsf3>
100073a8:	00050b13          	mv	s6,a0
100073ac:	000a0593          	mv	a1,s4
100073b0:	000a0513          	mv	a0,s4
100073b4:	839fb0ef          	jal	ra,10002bec <__mulsf3>
100073b8:	210c2583          	lw	a1,528(s8) # 1000a210 <_global_impure_ptr+0x94>
100073bc:	00050d93          	mv	s11,a0
100073c0:	e7dfa0ef          	jal	ra,1000223c <__addsf3>
100073c4:	000b0593          	mv	a1,s6
100073c8:	e75fa0ef          	jal	ra,1000223c <__addsf3>
100073cc:	00a479b3          	and	s3,s0,a0
100073d0:	00098593          	mv	a1,s3
100073d4:	000a0513          	mv	a0,s4
100073d8:	815fb0ef          	jal	ra,10002bec <__mulsf3>
100073dc:	210c2583          	lw	a1,528(s8)
100073e0:	00050a13          	mv	s4,a0
100073e4:	00098513          	mv	a0,s3
100073e8:	b69fb0ef          	jal	ra,10002f50 <__subsf3>
100073ec:	000d8593          	mv	a1,s11
100073f0:	b61fb0ef          	jal	ra,10002f50 <__subsf3>
100073f4:	00050593          	mv	a1,a0
100073f8:	000b0513          	mv	a0,s6
100073fc:	b55fb0ef          	jal	ra,10002f50 <__subsf3>
10007400:	00048593          	mv	a1,s1
10007404:	fe8fb0ef          	jal	ra,10002bec <__mulsf3>
10007408:	00050493          	mv	s1,a0
1000740c:	00098593          	mv	a1,s3
10007410:	000a8513          	mv	a0,s5
10007414:	fd8fb0ef          	jal	ra,10002bec <__mulsf3>
10007418:	00050593          	mv	a1,a0
1000741c:	00048513          	mv	a0,s1
10007420:	e1dfa0ef          	jal	ra,1000223c <__addsf3>
10007424:	00050493          	mv	s1,a0
10007428:	00050593          	mv	a1,a0
1000742c:	000a0513          	mv	a0,s4
10007430:	e0dfa0ef          	jal	ra,1000223c <__addsf3>
10007434:	1000a7b7          	lui	a5,0x1000a
10007438:	2147a583          	lw	a1,532(a5) # 1000a214 <_global_impure_ptr+0x98>
1000743c:	00a47ab3          	and	s5,s0,a0
10007440:	000a8513          	mv	a0,s5
10007444:	fa8fb0ef          	jal	ra,10002bec <__mulsf3>
10007448:	00050993          	mv	s3,a0
1000744c:	000a0593          	mv	a1,s4
10007450:	000a8513          	mv	a0,s5
10007454:	afdfb0ef          	jal	ra,10002f50 <__subsf3>
10007458:	00050593          	mv	a1,a0
1000745c:	00048513          	mv	a0,s1
10007460:	af1fb0ef          	jal	ra,10002f50 <__subsf3>
10007464:	1000a7b7          	lui	a5,0x1000a
10007468:	2187a583          	lw	a1,536(a5) # 1000a218 <_global_impure_ptr+0x9c>
1000746c:	f80fb0ef          	jal	ra,10002bec <__mulsf3>
10007470:	1000a7b7          	lui	a5,0x1000a
10007474:	21c7a583          	lw	a1,540(a5) # 1000a21c <_global_impure_ptr+0xa0>
10007478:	00050493          	mv	s1,a0
1000747c:	000a8513          	mv	a0,s5
10007480:	f6cfb0ef          	jal	ra,10002bec <__mulsf3>
10007484:	00050593          	mv	a1,a0
10007488:	00048513          	mv	a0,s1
1000748c:	db1fa0ef          	jal	ra,1000223c <__addsf3>
10007490:	00812583          	lw	a1,8(sp)
10007494:	da9fa0ef          	jal	ra,1000223c <__addsf3>
10007498:	00412683          	lw	a3,4(sp)
1000749c:	00050493          	mv	s1,a0
100074a0:	00068513          	mv	a0,a3
100074a4:	c9cfc0ef          	jal	ra,10003940 <__floatsisf>
100074a8:	00050a13          	mv	s4,a0
100074ac:	00048593          	mv	a1,s1
100074b0:	00098513          	mv	a0,s3
100074b4:	d89fa0ef          	jal	ra,1000223c <__addsf3>
100074b8:	00c12a83          	lw	s5,12(sp)
100074bc:	000a8593          	mv	a1,s5
100074c0:	d7dfa0ef          	jal	ra,1000223c <__addsf3>
100074c4:	000a0593          	mv	a1,s4
100074c8:	d75fa0ef          	jal	ra,1000223c <__addsf3>
100074cc:	00a47433          	and	s0,s0,a0
100074d0:	000a0593          	mv	a1,s4
100074d4:	00040513          	mv	a0,s0
100074d8:	a79fb0ef          	jal	ra,10002f50 <__subsf3>
100074dc:	000a8593          	mv	a1,s5
100074e0:	a71fb0ef          	jal	ra,10002f50 <__subsf3>
100074e4:	00098593          	mv	a1,s3
100074e8:	921ff06f          	j	10006e08 <__ieee754_powf+0x22c>
100074ec:	c4d980e3          	beq	s3,a3,1000712c <__ieee754_powf+0x550>
100074f0:	400007b7          	lui	a5,0x40000
100074f4:	c6f586e3          	beq	a1,a5,10007160 <__ieee754_powf+0x584>
100074f8:	00167613          	andi	a2,a2,1
100074fc:	00200913          	li	s2,2
10007500:	40c90933          	sub	s2,s2,a2
10007504:	bc9ff06f          	j	100070cc <__ieee754_powf+0x4f0>
10007508:	00100713          	li	a4,1
1000750c:	f4e91263          	bne	s2,a4,10006c50 <__ieee754_powf+0x74>
10007510:	80000737          	lui	a4,0x80000
10007514:	00f747b3          	xor	a5,a4,a5
10007518:	f38ff06f          	j	10006c50 <__ieee754_powf+0x74>
1000751c:	1000a7b7          	lui	a5,0x1000a
10007520:	1dc7a483          	lw	s1,476(a5) # 1000a1dc <_global_impure_ptr+0x60>
10007524:	909ff06f          	j	10006e2c <__ieee754_powf+0x250>
10007528:	431606b7          	lui	a3,0x43160
1000752c:	1ef6ea63          	bltu	a3,a5,10007720 <__ieee754_powf+0xb44>
10007530:	96d79ce3          	bne	a5,a3,10006ea8 <__ieee754_powf+0x2cc>
10007534:	00090593          	mv	a1,s2
10007538:	a19fb0ef          	jal	ra,10002f50 <__subsf3>
1000753c:	00098593          	mv	a1,s3
10007540:	cf4fb0ef          	jal	ra,10002a34 <__gesf2>
10007544:	08600793          	li	a5,134
10007548:	1c055c63          	bgez	a0,10007720 <__ieee754_powf+0xb44>
1000754c:	008006b7          	lui	a3,0x800
10007550:	f8278793          	addi	a5,a5,-126
10007554:	40f6d7b3          	sra	a5,a3,a5
10007558:	008787b3          	add	a5,a5,s0
1000755c:	fff68a13          	addi	s4,a3,-1 # 7fffff <__stack_size+0x7ffeff>
10007560:	4177d713          	srai	a4,a5,0x17
10007564:	0ff77713          	zext.b	a4,a4
10007568:	0147fa33          	and	s4,a5,s4
1000756c:	f8170713          	addi	a4,a4,-127 # 7fffff81 <__BSS_END__$+0x6fff5b39>
10007570:	00da6a33          	or	s4,s4,a3
10007574:	ff8005b7          	lui	a1,0xff800
10007578:	01700693          	li	a3,23
1000757c:	40e5d5b3          	sra	a1,a1,a4
10007580:	40e68733          	sub	a4,a3,a4
10007584:	00f5f5b3          	and	a1,a1,a5
10007588:	40ea5a33          	sra	s4,s4,a4
1000758c:	000b5463          	bgez	s6,10007594 <__ieee754_powf+0x9b8>
10007590:	41400a33          	neg	s4,s4
10007594:	00090513          	mv	a0,s2
10007598:	9b9fb0ef          	jal	ra,10002f50 <__subsf3>
1000759c:	00050593          	mv	a1,a0
100075a0:	00050913          	mv	s2,a0
100075a4:	00098513          	mv	a0,s3
100075a8:	c95fa0ef          	jal	ra,1000223c <__addsf3>
100075ac:	00050713          	mv	a4,a0
100075b0:	017a1a93          	slli	s5,s4,0x17
100075b4:	905ff06f          	j	10006eb8 <__ieee754_powf+0x2dc>
100075b8:	00000793          	li	a5,0
100075bc:	1000abb7          	lui	s7,0x1000a
100075c0:	180bab03          	lw	s6,384(s7) # 1000a180 <_global_impure_ptr+0x4>
100075c4:	00f12623          	sw	a5,12(sp)
100075c8:	00f12423          	sw	a5,8(sp)
100075cc:	00000d93          	li	s11,0
100075d0:	c69ff06f          	j	10007238 <__ieee754_powf+0x65c>
100075d4:	040ac463          	bltz	s5,1000761c <__ieee754_powf+0xa40>
100075d8:	00000513          	li	a0,0
100075dc:	04812403          	lw	s0,72(sp)
100075e0:	04c12083          	lw	ra,76(sp)
100075e4:	04412483          	lw	s1,68(sp)
100075e8:	04012903          	lw	s2,64(sp)
100075ec:	03c12983          	lw	s3,60(sp)
100075f0:	03812a03          	lw	s4,56(sp)
100075f4:	03412a83          	lw	s5,52(sp)
100075f8:	03012b03          	lw	s6,48(sp)
100075fc:	02c12b83          	lw	s7,44(sp)
10007600:	02812c03          	lw	s8,40(sp)
10007604:	02412c83          	lw	s9,36(sp)
10007608:	02012d03          	lw	s10,32(sp)
1000760c:	01c12d83          	lw	s11,28(sp)
10007610:	05010113          	addi	sp,sp,80
10007614:	6a40106f          	j	10008cb8 <__math_uflowf>
10007618:	fd5050e3          	blez	s5,100075d8 <__ieee754_powf+0x9fc>
1000761c:	00000513          	li	a0,0
10007620:	04812403          	lw	s0,72(sp)
10007624:	04c12083          	lw	ra,76(sp)
10007628:	04412483          	lw	s1,68(sp)
1000762c:	04012903          	lw	s2,64(sp)
10007630:	03c12983          	lw	s3,60(sp)
10007634:	03812a03          	lw	s4,56(sp)
10007638:	03412a83          	lw	s5,52(sp)
1000763c:	03012b03          	lw	s6,48(sp)
10007640:	02c12b83          	lw	s7,44(sp)
10007644:	02812c03          	lw	s8,40(sp)
10007648:	02412c83          	lw	s9,36(sp)
1000764c:	02012d03          	lw	s10,32(sp)
10007650:	01c12d83          	lw	s11,28(sp)
10007654:	05010113          	addi	sp,sp,80
10007658:	66c0106f          	j	10008cc4 <__math_oflowf>
1000765c:	000a0593          	mv	a1,s4
10007660:	259010ef          	jal	ra,100090b8 <scalbnf>
10007664:	00050793          	mv	a5,a0
10007668:	9cdff06f          	j	10007034 <__ieee754_powf+0x458>
1000766c:	1000a7b7          	lui	a5,0x1000a
10007670:	1d07a783          	lw	a5,464(a5) # 1000a1d0 <_global_impure_ptr+0x54>
10007674:	00200db7          	lui	s11,0x200
10007678:	1000abb7          	lui	s7,0x1000a
1000767c:	00f12623          	sw	a5,12(sp)
10007680:	1000a7b7          	lui	a5,0x1000a
10007684:	1d47a783          	lw	a5,468(a5) # 1000a1d4 <_global_impure_ptr+0x58>
10007688:	00f12423          	sw	a5,8(sp)
1000768c:	1000a7b7          	lui	a5,0x1000a
10007690:	1d87ab03          	lw	s6,472(a5) # 1000a1d8 <_global_impure_ptr+0x5c>
10007694:	ba5ff06f          	j	10007238 <__ieee754_powf+0x65c>
10007698:	00000593          	li	a1,0
1000769c:	00048513          	mv	a0,s1
100076a0:	c70fb0ef          	jal	ra,10002b10 <__lesf2>
100076a4:	00052513          	slti	a0,a0,0
100076a8:	f79ff06f          	j	10007620 <__ieee754_powf+0xa44>
100076ac:	1000a7b7          	lui	a5,0x1000a
100076b0:	2207a583          	lw	a1,544(a5) # 1000a220 <_global_impure_ptr+0xa4>
100076b4:	00098513          	mv	a0,s3
100076b8:	b85fa0ef          	jal	ra,1000223c <__addsf3>
100076bc:	00050a13          	mv	s4,a0
100076c0:	00090593          	mv	a1,s2
100076c4:	00040513          	mv	a0,s0
100076c8:	889fb0ef          	jal	ra,10002f50 <__subsf3>
100076cc:	00050593          	mv	a1,a0
100076d0:	000a0513          	mv	a0,s4
100076d4:	b60fb0ef          	jal	ra,10002a34 <__gesf2>
100076d8:	fca040e3          	bgtz	a0,10007698 <__ieee754_powf+0xabc>
100076dc:	008006b7          	lui	a3,0x800
100076e0:	000087b7          	lui	a5,0x8
100076e4:	008787b3          	add	a5,a5,s0
100076e8:	fff68a13          	addi	s4,a3,-1 # 7fffff <__stack_size+0x7ffeff>
100076ec:	4177d713          	srai	a4,a5,0x17
100076f0:	0147fa33          	and	s4,a5,s4
100076f4:	f8170713          	addi	a4,a4,-127
100076f8:	00da6a33          	or	s4,s4,a3
100076fc:	ff8005b7          	lui	a1,0xff800
10007700:	01700693          	li	a3,23
10007704:	40e5d5b3          	sra	a1,a1,a4
10007708:	40e68733          	sub	a4,a3,a4
1000770c:	00f5f5b3          	and	a1,a1,a5
10007710:	40ea5a33          	sra	s4,s4,a4
10007714:	e81ff06f          	j	10007594 <__ieee754_powf+0x9b8>
10007718:	4177d793          	srai	a5,a5,0x17
1000771c:	e31ff06f          	j	1000754c <__ieee754_powf+0x970>
10007720:	00000593          	li	a1,0
10007724:	00048513          	mv	a0,s1
10007728:	be8fb0ef          	jal	ra,10002b10 <__lesf2>
1000772c:	00052513          	slti	a0,a0,0
10007730:	eadff06f          	j	100075dc <__ieee754_powf+0xa00>

10007734 <__ieee754_sqrtf>:
10007734:	ff010113          	addi	sp,sp,-16
10007738:	00151793          	slli	a5,a0,0x1
1000773c:	00812423          	sw	s0,8(sp)
10007740:	00112623          	sw	ra,12(sp)
10007744:	0017d793          	srli	a5,a5,0x1
10007748:	7f8006b7          	lui	a3,0x7f800
1000774c:	00050413          	mv	s0,a0
10007750:	00050593          	mv	a1,a0
10007754:	0cd7fa63          	bgeu	a5,a3,10007828 <__ieee754_sqrtf+0xf4>
10007758:	0a078e63          	beqz	a5,10007814 <__ieee754_sqrtf+0xe0>
1000775c:	00050793          	mv	a5,a0
10007760:	0e054a63          	bltz	a0,10007854 <__ieee754_sqrtf+0x120>
10007764:	00a6f6b3          	and	a3,a3,a0
10007768:	41755713          	srai	a4,a0,0x17
1000776c:	02069663          	bnez	a3,10007798 <__ieee754_sqrtf+0x64>
10007770:	008006b7          	lui	a3,0x800
10007774:	00a6f6b3          	and	a3,a3,a0
10007778:	10069063          	bnez	a3,10007878 <__ieee754_sqrtf+0x144>
1000777c:	00800537          	lui	a0,0x800
10007780:	00179793          	slli	a5,a5,0x1
10007784:	00a7f633          	and	a2,a5,a0
10007788:	00068593          	mv	a1,a3
1000778c:	00168693          	addi	a3,a3,1 # 800001 <__stack_size+0x7fff01>
10007790:	fe0608e3          	beqz	a2,10007780 <__ieee754_sqrtf+0x4c>
10007794:	40b70733          	sub	a4,a4,a1
10007798:	008006b7          	lui	a3,0x800
1000779c:	f8170713          	addi	a4,a4,-127
100077a0:	fff68613          	addi	a2,a3,-1 # 7fffff <__stack_size+0x7ffeff>
100077a4:	00c7f5b3          	and	a1,a5,a2
100077a8:	00177793          	andi	a5,a4,1
100077ac:	00d5e5b3          	or	a1,a1,a3
100077b0:	08079e63          	bnez	a5,1000784c <__ieee754_sqrtf+0x118>
100077b4:	40175893          	srai	a7,a4,0x1
100077b8:	00159593          	slli	a1,a1,0x1
100077bc:	01900693          	li	a3,25
100077c0:	00000813          	li	a6,0
100077c4:	00000513          	li	a0,0
100077c8:	01000737          	lui	a4,0x1000
100077cc:	00e50633          	add	a2,a0,a4
100077d0:	00058793          	mv	a5,a1
100077d4:	fff68693          	addi	a3,a3,-1
100077d8:	00c5c863          	blt	a1,a2,100077e8 <__ieee754_sqrtf+0xb4>
100077dc:	00e60533          	add	a0,a2,a4
100077e0:	40c587b3          	sub	a5,a1,a2
100077e4:	00e80833          	add	a6,a6,a4
100077e8:	00179593          	slli	a1,a5,0x1
100077ec:	00175713          	srli	a4,a4,0x1
100077f0:	fc069ee3          	bnez	a3,100077cc <__ieee754_sqrtf+0x98>
100077f4:	00078663          	beqz	a5,10007800 <__ieee754_sqrtf+0xcc>
100077f8:	00180813          	addi	a6,a6,1
100077fc:	ffe87813          	andi	a6,a6,-2
10007800:	40185813          	srai	a6,a6,0x1
10007804:	3f0007b7          	lui	a5,0x3f000
10007808:	00f80833          	add	a6,a6,a5
1000780c:	01789713          	slli	a4,a7,0x17
10007810:	010705b3          	add	a1,a4,a6
10007814:	00c12083          	lw	ra,12(sp)
10007818:	00812403          	lw	s0,8(sp)
1000781c:	00058513          	mv	a0,a1
10007820:	01010113          	addi	sp,sp,16
10007824:	00008067          	ret
10007828:	bc4fb0ef          	jal	ra,10002bec <__mulsf3>
1000782c:	00040593          	mv	a1,s0
10007830:	a0dfa0ef          	jal	ra,1000223c <__addsf3>
10007834:	00c12083          	lw	ra,12(sp)
10007838:	00812403          	lw	s0,8(sp)
1000783c:	00050593          	mv	a1,a0
10007840:	00058513          	mv	a0,a1
10007844:	01010113          	addi	sp,sp,16
10007848:	00008067          	ret
1000784c:	00159593          	slli	a1,a1,0x1
10007850:	f65ff06f          	j	100077b4 <__ieee754_sqrtf+0x80>
10007854:	efcfb0ef          	jal	ra,10002f50 <__subsf3>
10007858:	00050593          	mv	a1,a0
1000785c:	e51fa0ef          	jal	ra,100026ac <__divsf3>
10007860:	00c12083          	lw	ra,12(sp)
10007864:	00812403          	lw	s0,8(sp)
10007868:	00050593          	mv	a1,a0
1000786c:	00058513          	mv	a0,a1
10007870:	01010113          	addi	sp,sp,16
10007874:	00008067          	ret
10007878:	fff00593          	li	a1,-1
1000787c:	40b70733          	sub	a4,a4,a1
10007880:	f19ff06f          	j	10007798 <__ieee754_sqrtf+0x64>

10007884 <__kernel_rem_pio2>:
10007884:	d3010113          	addi	sp,sp,-720
10007888:	00070813          	mv	a6,a4
1000788c:	04e12a23          	sw	a4,84(sp)
10007890:	1000a737          	lui	a4,0x1000a
10007894:	00281813          	slli	a6,a6,0x2
10007898:	87870713          	addi	a4,a4,-1928 # 10009878 <init_jk>
1000789c:	01070733          	add	a4,a4,a6
100078a0:	00072703          	lw	a4,0(a4)
100078a4:	00068893          	mv	a7,a3
100078a8:	2b812423          	sw	s8,680(sp)
100078ac:	2ba12023          	sw	s10,672(sp)
100078b0:	29b12e23          	sw	s11,668(sp)
100078b4:	02d12e23          	sw	a3,60(sp)
100078b8:	2c112623          	sw	ra,716(sp)
100078bc:	2c812423          	sw	s0,712(sp)
100078c0:	2c912223          	sw	s1,708(sp)
100078c4:	2d212023          	sw	s2,704(sp)
100078c8:	2b312e23          	sw	s3,700(sp)
100078cc:	2b412c23          	sw	s4,696(sp)
100078d0:	2b512a23          	sw	s5,692(sp)
100078d4:	2b612823          	sw	s6,688(sp)
100078d8:	2b712623          	sw	s7,684(sp)
100078dc:	2b912223          	sw	s9,676(sp)
100078e0:	fec00693          	li	a3,-20
100078e4:	04e12823          	sw	a4,80(sp)
100078e8:	04b12623          	sw	a1,76(sp)
100078ec:	04f12023          	sw	a5,64(sp)
100078f0:	00060d93          	mv	s11,a2
100078f4:	00050d13          	mv	s10,a0
100078f8:	fff88c13          	addi	s8,a7,-1
100078fc:	32d640e3          	blt	a2,a3,1000841c <__kernel_rem_pio2+0xb98>
10007900:	01800593          	li	a1,24
10007904:	ffd60513          	addi	a0,a2,-3
10007908:	df5fb0ef          	jal	ra,100036fc <__divsi3>
1000790c:	00150713          	addi	a4,a0,1 # 800001 <__stack_size+0x7fff01>
10007910:	00271793          	slli	a5,a4,0x2
10007914:	40f70733          	sub	a4,a4,a5
10007918:	02a12c23          	sw	a0,56(sp)
1000791c:	00371693          	slli	a3,a4,0x3
10007920:	05012783          	lw	a5,80(sp)
10007924:	00dd8db3          	add	s11,s11,a3
10007928:	01878733          	add	a4,a5,s8
1000792c:	03812783          	lw	a5,56(sp)
10007930:	41878433          	sub	s0,a5,s8
10007934:	04074463          	bltz	a4,1000797c <__kernel_rem_pio2+0xf8>
10007938:	04012783          	lw	a5,64(sp)
1000793c:	00241913          	slli	s2,s0,0x2
10007940:	00170713          	addi	a4,a4,1
10007944:	0b010493          	addi	s1,sp,176
10007948:	01278933          	add	s2,a5,s2
1000794c:	00870a33          	add	s4,a4,s0
10007950:	00000513          	li	a0,0
10007954:	00000593          	li	a1,0
10007958:	00044663          	bltz	s0,10007964 <__kernel_rem_pio2+0xe0>
1000795c:	00092503          	lw	a0,0(s2) # fffff000 <__BSS_END__$+0xefff4bb8>
10007960:	835fa0ef          	jal	ra,10002194 <__floatsidf>
10007964:	00a4a023          	sw	a0,0(s1)
10007968:	00b4a223          	sw	a1,4(s1)
1000796c:	00140413          	addi	s0,s0,1 # fffff001 <__BSS_END__$+0xefff4bb9>
10007970:	00848493          	addi	s1,s1,8
10007974:	00490913          	addi	s2,s2,4
10007978:	fd441ce3          	bne	s0,s4,10007950 <__kernel_rem_pio2+0xcc>
1000797c:	05012783          	lw	a5,80(sp)
10007980:	0807c863          	bltz	a5,10007a10 <__kernel_rem_pio2+0x18c>
10007984:	003c1713          	slli	a4,s8,0x3
10007988:	0b010693          	addi	a3,sp,176
1000798c:	00870413          	addi	s0,a4,8
10007990:	00e684b3          	add	s1,a3,a4
10007994:	03c12703          	lw	a4,60(sp)
10007998:	1f010a13          	addi	s4,sp,496
1000799c:	000c0913          	mv	s2,s8
100079a0:	00e78ab3          	add	s5,a5,a4
100079a4:	01a40433          	add	s0,s0,s10
100079a8:	00048c93          	mv	s9,s1
100079ac:	000d0b93          	mv	s7,s10
100079b0:	00000993          	li	s3,0
100079b4:	00000b13          	li	s6,0
100079b8:	040c4063          	bltz	s8,100079f8 <__kernel_rem_pio2+0x174>
100079bc:	000ca603          	lw	a2,0(s9)
100079c0:	004ca683          	lw	a3,4(s9)
100079c4:	000ba503          	lw	a0,0(s7) # 1000a000 <impure_data+0x2e8>
100079c8:	004ba583          	lw	a1,4(s7)
100079cc:	008b8b93          	addi	s7,s7,8
100079d0:	ff8c8c93          	addi	s9,s9,-8
100079d4:	831f90ef          	jal	ra,10001204 <__muldf3>
100079d8:	00050613          	mv	a2,a0
100079dc:	00058693          	mv	a3,a1
100079e0:	00098513          	mv	a0,s3
100079e4:	000b0593          	mv	a1,s6
100079e8:	f54f80ef          	jal	ra,1000013c <__adddf3>
100079ec:	00050993          	mv	s3,a0
100079f0:	00058b13          	mv	s6,a1
100079f4:	fc8b94e3          	bne	s7,s0,100079bc <__kernel_rem_pio2+0x138>
100079f8:	013a2023          	sw	s3,0(s4)
100079fc:	016a2223          	sw	s6,4(s4)
10007a00:	00190913          	addi	s2,s2,1
10007a04:	008a0a13          	addi	s4,s4,8
10007a08:	00848493          	addi	s1,s1,8
10007a0c:	f9591ee3          	bne	s2,s5,100079a8 <__kernel_rem_pio2+0x124>
10007a10:	1000a637          	lui	a2,0x1000a
10007a14:	24862783          	lw	a5,584(a2) # 1000a248 <_global_impure_ptr+0xcc>
10007a18:	24c62803          	lw	a6,588(a2)
10007a1c:	1000a637          	lui	a2,0x1000a
10007a20:	00f12423          	sw	a5,8(sp)
10007a24:	1c862783          	lw	a5,456(a2) # 1000a1c8 <_global_impure_ptr+0x4c>
10007a28:	01012623          	sw	a6,12(sp)
10007a2c:	1cc62803          	lw	a6,460(a2)
10007a30:	1000a637          	lui	a2,0x1000a
10007a34:	00f12823          	sw	a5,16(sp)
10007a38:	25062783          	lw	a5,592(a2) # 1000a250 <_global_impure_ptr+0xd4>
10007a3c:	01012a23          	sw	a6,20(sp)
10007a40:	25462803          	lw	a6,596(a2)
10007a44:	1000a637          	lui	a2,0x1000a
10007a48:	02f12423          	sw	a5,40(sp)
10007a4c:	25862783          	lw	a5,600(a2) # 1000a258 <_global_impure_ptr+0xdc>
10007a50:	03012623          	sw	a6,44(sp)
10007a54:	25c62803          	lw	a6,604(a2)
10007a58:	1000a637          	lui	a2,0x1000a
10007a5c:	02f12823          	sw	a5,48(sp)
10007a60:	1b062783          	lw	a5,432(a2) # 1000a1b0 <_global_impure_ptr+0x34>
10007a64:	05012983          	lw	s3,80(sp)
10007a68:	03012a23          	sw	a6,52(sp)
10007a6c:	04f12c23          	sw	a5,88(sp)
10007a70:	03c12783          	lw	a5,60(sp)
10007a74:	00299693          	slli	a3,s3,0x2
10007a78:	1b462803          	lw	a6,436(a2)
10007a7c:	00379413          	slli	s0,a5,0x3
10007a80:	05c10793          	addi	a5,sp,92
10007a84:	fff98713          	addi	a4,s3,-1 # 3f7fffff <__BSS_END__$+0x2f7f5bb7>
10007a88:	00d78cb3          	add	s9,a5,a3
10007a8c:	05868793          	addi	a5,a3,88
10007a90:	00271713          	slli	a4,a4,0x2
10007a94:	002787b3          	add	a5,a5,sp
10007a98:	04f12223          	sw	a5,68(sp)
10007a9c:	23070793          	addi	a5,a4,560
10007aa0:	06010713          	addi	a4,sp,96
10007aa4:	05012e23          	sw	a6,92(sp)
10007aa8:	008d0433          	add	s0,s10,s0
10007aac:	00e78a33          	add	s4,a5,a4
10007ab0:	00098913          	mv	s2,s3
10007ab4:	01b12c23          	sw	s11,24(sp)
10007ab8:	05a12423          	sw	s10,72(sp)
10007abc:	00391793          	slli	a5,s2,0x3
10007ac0:	23078793          	addi	a5,a5,560 # 3f000230 <__BSS_END__$+0x2eff5de8>
10007ac4:	06010713          	addi	a4,sp,96
10007ac8:	00e787b3          	add	a5,a5,a4
10007acc:	f607ab03          	lw	s6,-160(a5)
10007ad0:	f647aa83          	lw	s5,-156(a5)
10007ad4:	09205e63          	blez	s2,10007b70 <__kernel_rem_pio2+0x2ec>
10007ad8:	00391813          	slli	a6,s2,0x3
10007adc:	1f010b93          	addi	s7,sp,496
10007ae0:	ff880813          	addi	a6,a6,-8
10007ae4:	010b8d33          	add	s10,s7,a6
10007ae8:	00070493          	mv	s1,a4
10007aec:	00812e23          	sw	s0,28(sp)
10007af0:	00812603          	lw	a2,8(sp)
10007af4:	00c12683          	lw	a3,12(sp)
10007af8:	000b0513          	mv	a0,s6
10007afc:	000a8593          	mv	a1,s5
10007b00:	f04f90ef          	jal	ra,10001204 <__muldf3>
10007b04:	e10fa0ef          	jal	ra,10002114 <__fixdfsi>
10007b08:	e8cfa0ef          	jal	ra,10002194 <__floatsidf>
10007b0c:	01012603          	lw	a2,16(sp)
10007b10:	01412683          	lw	a3,20(sp)
10007b14:	00050413          	mv	s0,a0
10007b18:	00058d93          	mv	s11,a1
10007b1c:	ee8f90ef          	jal	ra,10001204 <__muldf3>
10007b20:	00050613          	mv	a2,a0
10007b24:	00058693          	mv	a3,a1
10007b28:	000b0513          	mv	a0,s6
10007b2c:	000a8593          	mv	a1,s5
10007b30:	d91f90ef          	jal	ra,100018c0 <__subdf3>
10007b34:	de0fa0ef          	jal	ra,10002114 <__fixdfsi>
10007b38:	000d2603          	lw	a2,0(s10)
10007b3c:	004d2683          	lw	a3,4(s10)
10007b40:	00050713          	mv	a4,a0
10007b44:	00e4a023          	sw	a4,0(s1)
10007b48:	00040513          	mv	a0,s0
10007b4c:	000d8593          	mv	a1,s11
10007b50:	decf80ef          	jal	ra,1000013c <__adddf3>
10007b54:	000d0793          	mv	a5,s10
10007b58:	00050b13          	mv	s6,a0
10007b5c:	00058a93          	mv	s5,a1
10007b60:	00448493          	addi	s1,s1,4
10007b64:	ff8d0d13          	addi	s10,s10,-8
10007b68:	f8fb94e3          	bne	s7,a5,10007af0 <__kernel_rem_pio2+0x26c>
10007b6c:	01c12403          	lw	s0,28(sp)
10007b70:	01812d03          	lw	s10,24(sp)
10007b74:	000b0513          	mv	a0,s6
10007b78:	000a8593          	mv	a1,s5
10007b7c:	000d0613          	mv	a2,s10
10007b80:	338010ef          	jal	ra,10008eb8 <scalbn>
10007b84:	02812603          	lw	a2,40(sp)
10007b88:	02c12683          	lw	a3,44(sp)
10007b8c:	00050b93          	mv	s7,a0
10007b90:	00058493          	mv	s1,a1
10007b94:	e70f90ef          	jal	ra,10001204 <__muldf3>
10007b98:	144010ef          	jal	ra,10008cdc <floor>
10007b9c:	03012603          	lw	a2,48(sp)
10007ba0:	03412683          	lw	a3,52(sp)
10007ba4:	e60f90ef          	jal	ra,10001204 <__muldf3>
10007ba8:	00050613          	mv	a2,a0
10007bac:	00058693          	mv	a3,a1
10007bb0:	000b8513          	mv	a0,s7
10007bb4:	00048593          	mv	a1,s1
10007bb8:	d09f90ef          	jal	ra,100018c0 <__subdf3>
10007bbc:	00050a93          	mv	s5,a0
10007bc0:	00058493          	mv	s1,a1
10007bc4:	d50fa0ef          	jal	ra,10002114 <__fixdfsi>
10007bc8:	00050b93          	mv	s7,a0
10007bcc:	dc8fa0ef          	jal	ra,10002194 <__floatsidf>
10007bd0:	00050613          	mv	a2,a0
10007bd4:	00058693          	mv	a3,a1
10007bd8:	000a8513          	mv	a0,s5
10007bdc:	00048593          	mv	a1,s1
10007be0:	ce1f90ef          	jal	ra,100018c0 <__subdf3>
10007be4:	00050a93          	mv	s5,a0
10007be8:	00058b13          	mv	s6,a1
10007bec:	1ba05a63          	blez	s10,10007da0 <__kernel_rem_pio2+0x51c>
10007bf0:	fff90793          	addi	a5,s2,-1
10007bf4:	00279793          	slli	a5,a5,0x2
10007bf8:	23078793          	addi	a5,a5,560
10007bfc:	06010713          	addi	a4,sp,96
10007c00:	00e787b3          	add	a5,a5,a4
10007c04:	dd07a483          	lw	s1,-560(a5)
10007c08:	01800693          	li	a3,24
10007c0c:	41a686b3          	sub	a3,a3,s10
10007c10:	40d4d633          	sra	a2,s1,a3
10007c14:	00d616b3          	sll	a3,a2,a3
10007c18:	40d484b3          	sub	s1,s1,a3
10007c1c:	01700693          	li	a3,23
10007c20:	41a686b3          	sub	a3,a3,s10
10007c24:	dc97a823          	sw	s1,-560(a5)
10007c28:	40d4d4b3          	sra	s1,s1,a3
10007c2c:	00cb8bb3          	add	s7,s7,a2
10007c30:	5c904663          	bgtz	s1,100081fc <__kernel_rem_pio2+0x978>
10007c34:	000a8513          	mv	a0,s5
10007c38:	000b0593          	mv	a1,s6
10007c3c:	00000613          	li	a2,0
10007c40:	00000693          	li	a3,0
10007c44:	bb9fb0ef          	jal	ra,100037fc <__eqdf2>
10007c48:	28051663          	bnez	a0,10007ed4 <__kernel_rem_pio2+0x650>
10007c4c:	0329d463          	bge	s3,s2,10007c74 <__kernel_rem_pio2+0x3f0>
10007c50:	00291793          	slli	a5,s2,0x2
10007c54:	05c78793          	addi	a5,a5,92
10007c58:	002787b3          	add	a5,a5,sp
10007c5c:	00000693          	li	a3,0
10007c60:	0007a703          	lw	a4,0(a5)
10007c64:	ffc78793          	addi	a5,a5,-4
10007c68:	00e6e6b3          	or	a3,a3,a4
10007c6c:	ff979ae3          	bne	a5,s9,10007c60 <__kernel_rem_pio2+0x3dc>
10007c70:	5c069e63          	bnez	a3,1000824c <__kernel_rem_pio2+0x9c8>
10007c74:	dd0a2783          	lw	a5,-560(s4)
10007c78:	5c079263          	bnez	a5,1000823c <__kernel_rem_pio2+0x9b8>
10007c7c:	04412783          	lw	a5,68(sp)
10007c80:	00100693          	li	a3,1
10007c84:	0007a703          	lw	a4,0(a5)
10007c88:	00168693          	addi	a3,a3,1
10007c8c:	ffc78793          	addi	a5,a5,-4
10007c90:	fe070ae3          	beqz	a4,10007c84 <__kernel_rem_pio2+0x400>
10007c94:	00190793          	addi	a5,s2,1
10007c98:	00078d13          	mv	s10,a5
10007c9c:	00d90b33          	add	s6,s2,a3
10007ca0:	03812703          	lw	a4,56(sp)
10007ca4:	04812a83          	lw	s5,72(sp)
10007ca8:	01312e23          	sw	s3,28(sp)
10007cac:	00f704b3          	add	s1,a4,a5
10007cb0:	03c12703          	lw	a4,60(sp)
10007cb4:	00249493          	slli	s1,s1,0x2
10007cb8:	03912023          	sw	s9,32(sp)
10007cbc:	01270733          	add	a4,a4,s2
10007cc0:	00371693          	slli	a3,a4,0x3
10007cc4:	00379713          	slli	a4,a5,0x3
10007cc8:	04012783          	lw	a5,64(sp)
10007ccc:	03412223          	sw	s4,36(sp)
10007cd0:	009784b3          	add	s1,a5,s1
10007cd4:	0b010793          	addi	a5,sp,176
10007cd8:	00d78db3          	add	s11,a5,a3
10007cdc:	1f010793          	addi	a5,sp,496
10007ce0:	00e78bb3          	add	s7,a5,a4
10007ce4:	000d8993          	mv	s3,s11
10007ce8:	0004a503          	lw	a0,0(s1)
10007cec:	ca8fa0ef          	jal	ra,10002194 <__floatsidf>
10007cf0:	00a9a023          	sw	a0,0(s3)
10007cf4:	00b9a223          	sw	a1,4(s3)
10007cf8:	080c4063          	bltz	s8,10007d78 <__kernel_rem_pio2+0x4f4>
10007cfc:	00098c93          	mv	s9,s3
10007d00:	000a8a13          	mv	s4,s5
10007d04:	00000d93          	li	s11,0
10007d08:	00000913          	li	s2,0
10007d0c:	000ca603          	lw	a2,0(s9)
10007d10:	004ca683          	lw	a3,4(s9)
10007d14:	000a2503          	lw	a0,0(s4)
10007d18:	004a2583          	lw	a1,4(s4)
10007d1c:	008a0a13          	addi	s4,s4,8
10007d20:	ff8c8c93          	addi	s9,s9,-8
10007d24:	ce0f90ef          	jal	ra,10001204 <__muldf3>
10007d28:	00050613          	mv	a2,a0
10007d2c:	00058693          	mv	a3,a1
10007d30:	000d8513          	mv	a0,s11
10007d34:	00090593          	mv	a1,s2
10007d38:	c04f80ef          	jal	ra,1000013c <__adddf3>
10007d3c:	00050d93          	mv	s11,a0
10007d40:	00058913          	mv	s2,a1
10007d44:	fc8a14e3          	bne	s4,s0,10007d0c <__kernel_rem_pio2+0x488>
10007d48:	01bba023          	sw	s11,0(s7)
10007d4c:	012ba223          	sw	s2,4(s7)
10007d50:	001d0d13          	addi	s10,s10,1
10007d54:	00448493          	addi	s1,s1,4
10007d58:	00898993          	addi	s3,s3,8
10007d5c:	008b8b93          	addi	s7,s7,8
10007d60:	f9ab54e3          	bge	s6,s10,10007ce8 <__kernel_rem_pio2+0x464>
10007d64:	01c12983          	lw	s3,28(sp)
10007d68:	02012c83          	lw	s9,32(sp)
10007d6c:	02412a03          	lw	s4,36(sp)
10007d70:	000b0913          	mv	s2,s6
10007d74:	d49ff06f          	j	10007abc <__kernel_rem_pio2+0x238>
10007d78:	00000d93          	li	s11,0
10007d7c:	00000913          	li	s2,0
10007d80:	01bba023          	sw	s11,0(s7)
10007d84:	012ba223          	sw	s2,4(s7)
10007d88:	001d0d13          	addi	s10,s10,1
10007d8c:	00448493          	addi	s1,s1,4
10007d90:	00898993          	addi	s3,s3,8
10007d94:	008b8b93          	addi	s7,s7,8
10007d98:	f5ab58e3          	bge	s6,s10,10007ce8 <__kernel_rem_pio2+0x464>
10007d9c:	fc9ff06f          	j	10007d64 <__kernel_rem_pio2+0x4e0>
10007da0:	01812783          	lw	a5,24(sp)
10007da4:	40079a63          	bnez	a5,100081b8 <__kernel_rem_pio2+0x934>
10007da8:	fff90793          	addi	a5,s2,-1
10007dac:	00279793          	slli	a5,a5,0x2
10007db0:	23078793          	addi	a5,a5,560
10007db4:	06010713          	addi	a4,sp,96
10007db8:	00e787b3          	add	a5,a5,a4
10007dbc:	dd07a483          	lw	s1,-560(a5)
10007dc0:	4174d493          	srai	s1,s1,0x17
10007dc4:	e69058e3          	blez	s1,10007c34 <__kernel_rem_pio2+0x3b0>
10007dc8:	001b8b93          	addi	s7,s7,1
10007dcc:	7f205463          	blez	s2,100085b4 <__kernel_rem_pio2+0xd30>
10007dd0:	01000537          	lui	a0,0x1000
10007dd4:	06010793          	addi	a5,sp,96
10007dd8:	00000613          	li	a2,0
10007ddc:	00000d13          	li	s10,0
10007de0:	fff50e13          	addi	t3,a0,-1 # ffffff <__stack_size+0xfffeff>
10007de4:	0007a703          	lw	a4,0(a5)
10007de8:	020d1063          	bnez	s10,10007e08 <__kernel_rem_pio2+0x584>
10007dec:	40e506b3          	sub	a3,a0,a4
10007df0:	02070263          	beqz	a4,10007e14 <__kernel_rem_pio2+0x590>
10007df4:	00d7a023          	sw	a3,0(a5)
10007df8:	00160613          	addi	a2,a2,1
10007dfc:	00478793          	addi	a5,a5,4
10007e00:	61265a63          	bge	a2,s2,10008414 <__kernel_rem_pio2+0xb90>
10007e04:	0007a703          	lw	a4,0(a5)
10007e08:	40ee0733          	sub	a4,t3,a4
10007e0c:	00100d13          	li	s10,1
10007e10:	00e7a023          	sw	a4,0(a5)
10007e14:	00160613          	addi	a2,a2,1
10007e18:	00478793          	addi	a5,a5,4
10007e1c:	fd2644e3          	blt	a2,s2,10007de4 <__kernel_rem_pio2+0x560>
10007e20:	01812783          	lw	a5,24(sp)
10007e24:	02f05e63          	blez	a5,10007e60 <__kernel_rem_pio2+0x5dc>
10007e28:	01812703          	lw	a4,24(sp)
10007e2c:	00100793          	li	a5,1
10007e30:	3ef70263          	beq	a4,a5,10008214 <__kernel_rem_pio2+0x990>
10007e34:	00200793          	li	a5,2
10007e38:	02f71463          	bne	a4,a5,10007e60 <__kernel_rem_pio2+0x5dc>
10007e3c:	fff90793          	addi	a5,s2,-1
10007e40:	00279793          	slli	a5,a5,0x2
10007e44:	23078793          	addi	a5,a5,560
10007e48:	06010713          	addi	a4,sp,96
10007e4c:	00e787b3          	add	a5,a5,a4
10007e50:	dd07a683          	lw	a3,-560(a5)
10007e54:	00a69693          	slli	a3,a3,0xa
10007e58:	00a6d693          	srli	a3,a3,0xa
10007e5c:	dcd7a823          	sw	a3,-560(a5)
10007e60:	00200793          	li	a5,2
10007e64:	dcf498e3          	bne	s1,a5,10007c34 <__kernel_rem_pio2+0x3b0>
10007e68:	1000a7b7          	lui	a5,0x1000a
10007e6c:	2607a503          	lw	a0,608(a5) # 1000a260 <_global_impure_ptr+0xe4>
10007e70:	2647a583          	lw	a1,612(a5)
10007e74:	000a8613          	mv	a2,s5
10007e78:	000b0693          	mv	a3,s6
10007e7c:	a45f90ef          	jal	ra,100018c0 <__subdf3>
10007e80:	00050a93          	mv	s5,a0
10007e84:	00058b13          	mv	s6,a1
10007e88:	da0d06e3          	beqz	s10,10007c34 <__kernel_rem_pio2+0x3b0>
10007e8c:	1000a7b7          	lui	a5,0x1000a
10007e90:	2607a503          	lw	a0,608(a5) # 1000a260 <_global_impure_ptr+0xe4>
10007e94:	2647a583          	lw	a1,612(a5)
10007e98:	01812603          	lw	a2,24(sp)
10007e9c:	01c010ef          	jal	ra,10008eb8 <scalbn>
10007ea0:	00050613          	mv	a2,a0
10007ea4:	00058693          	mv	a3,a1
10007ea8:	000a8513          	mv	a0,s5
10007eac:	000b0593          	mv	a1,s6
10007eb0:	a11f90ef          	jal	ra,100018c0 <__subdf3>
10007eb4:	00050a93          	mv	s5,a0
10007eb8:	00058b13          	mv	s6,a1
10007ebc:	000a8513          	mv	a0,s5
10007ec0:	000b0593          	mv	a1,s6
10007ec4:	00000613          	li	a2,0
10007ec8:	00000693          	li	a3,0
10007ecc:	931fb0ef          	jal	ra,100037fc <__eqdf2>
10007ed0:	d6050ee3          	beqz	a0,10007c4c <__kernel_rem_pio2+0x3c8>
10007ed4:	01812d83          	lw	s11,24(sp)
10007ed8:	000b8793          	mv	a5,s7
10007edc:	000a8513          	mv	a0,s5
10007ee0:	000b0593          	mv	a1,s6
10007ee4:	41b00633          	neg	a2,s11
10007ee8:	00090b93          	mv	s7,s2
10007eec:	00078913          	mv	s2,a5
10007ef0:	7c9000ef          	jal	ra,10008eb8 <scalbn>
10007ef4:	1000a737          	lui	a4,0x1000a
10007ef8:	1c872a03          	lw	s4,456(a4) # 1000a1c8 <_global_impure_ptr+0x4c>
10007efc:	1cc72a83          	lw	s5,460(a4)
10007f00:	00050b13          	mv	s6,a0
10007f04:	000a0613          	mv	a2,s4
10007f08:	000a8693          	mv	a3,s5
10007f0c:	00058413          	mv	s0,a1
10007f10:	9e4f90ef          	jal	ra,100010f4 <__gedf2>
10007f14:	5a054263          	bltz	a0,100084b8 <__kernel_rem_pio2+0xc34>
10007f18:	1000a6b7          	lui	a3,0x1000a
10007f1c:	2486a603          	lw	a2,584(a3) # 1000a248 <_global_impure_ptr+0xcc>
10007f20:	24c6a683          	lw	a3,588(a3)
10007f24:	000b0513          	mv	a0,s6
10007f28:	00040593          	mv	a1,s0
10007f2c:	ad8f90ef          	jal	ra,10001204 <__muldf3>
10007f30:	9e4fa0ef          	jal	ra,10002114 <__fixdfsi>
10007f34:	002b9c13          	slli	s8,s7,0x2
10007f38:	230c0793          	addi	a5,s8,560
10007f3c:	06010713          	addi	a4,sp,96
10007f40:	00e78c33          	add	s8,a5,a4
10007f44:	00050993          	mv	s3,a0
10007f48:	a4cfa0ef          	jal	ra,10002194 <__floatsidf>
10007f4c:	000a0613          	mv	a2,s4
10007f50:	000a8693          	mv	a3,s5
10007f54:	ab0f90ef          	jal	ra,10001204 <__muldf3>
10007f58:	00058693          	mv	a3,a1
10007f5c:	00050613          	mv	a2,a0
10007f60:	00040593          	mv	a1,s0
10007f64:	000b0513          	mv	a0,s6
10007f68:	959f90ef          	jal	ra,100018c0 <__subdf3>
10007f6c:	001b8713          	addi	a4,s7,1
10007f70:	00e12423          	sw	a4,8(sp)
10007f74:	9a0fa0ef          	jal	ra,10002114 <__fixdfsi>
10007f78:	00812703          	lw	a4,8(sp)
10007f7c:	dcac2823          	sw	a0,-560(s8)
10007f80:	018d8d93          	addi	s11,s11,24 # 200018 <__stack_size+0x1fff18>
10007f84:	00271693          	slli	a3,a4,0x2
10007f88:	23068793          	addi	a5,a3,560
10007f8c:	06010693          	addi	a3,sp,96
10007f90:	00d786b3          	add	a3,a5,a3
10007f94:	dd36a823          	sw	s3,-560(a3)
10007f98:	1000a7b7          	lui	a5,0x1000a
10007f9c:	2607a503          	lw	a0,608(a5) # 1000a260 <_global_impure_ptr+0xe4>
10007fa0:	2647a583          	lw	a1,612(a5)
10007fa4:	000d8613          	mv	a2,s11
10007fa8:	00e12423          	sw	a4,8(sp)
10007fac:	70d000ef          	jal	ra,10008eb8 <scalbn>
10007fb0:	00812703          	lw	a4,8(sp)
10007fb4:	00050413          	mv	s0,a0
10007fb8:	00058b93          	mv	s7,a1
10007fbc:	5c074a63          	bltz	a4,10008590 <__kernel_rem_pio2+0xd0c>
10007fc0:	1000a6b7          	lui	a3,0x1000a
10007fc4:	00271d13          	slli	s10,a4,0x2
10007fc8:	1f010793          	addi	a5,sp,496
10007fcc:	00371c93          	slli	s9,a4,0x3
10007fd0:	2486aa03          	lw	s4,584(a3) # 1000a248 <_global_impure_ptr+0xcc>
10007fd4:	24c6aa83          	lw	s5,588(a3)
10007fd8:	01978b33          	add	s6,a5,s9
10007fdc:	060d0793          	addi	a5,s10,96
10007fe0:	00278d33          	add	s10,a5,sp
10007fe4:	000b0c13          	mv	s8,s6
10007fe8:	00070993          	mv	s3,a4
10007fec:	000d2503          	lw	a0,0(s10)
10007ff0:	ff8c0c13          	addi	s8,s8,-8
10007ff4:	9a0fa0ef          	jal	ra,10002194 <__floatsidf>
10007ff8:	00040613          	mv	a2,s0
10007ffc:	000b8693          	mv	a3,s7
10008000:	a04f90ef          	jal	ra,10001204 <__muldf3>
10008004:	00050713          	mv	a4,a0
10008008:	00058793          	mv	a5,a1
1000800c:	00040513          	mv	a0,s0
10008010:	000b8593          	mv	a1,s7
10008014:	00ec2423          	sw	a4,8(s8)
10008018:	00fc2623          	sw	a5,12(s8)
1000801c:	000a0613          	mv	a2,s4
10008020:	000a8693          	mv	a3,s5
10008024:	9e0f90ef          	jal	ra,10001204 <__muldf3>
10008028:	000d0793          	mv	a5,s10
1000802c:	06010713          	addi	a4,sp,96
10008030:	00050413          	mv	s0,a0
10008034:	00058b93          	mv	s7,a1
10008038:	ffcd0d13          	addi	s10,s10,-4
1000803c:	faf718e3          	bne	a4,a5,10007fec <__kernel_rem_pio2+0x768>
10008040:	00098713          	mv	a4,s3
10008044:	05012983          	lw	s3,80(sp)
10008048:	15010b93          	addi	s7,sp,336
1000804c:	00912423          	sw	s1,8(sp)
10008050:	01212823          	sw	s2,16(sp)
10008054:	01912c23          	sw	s9,24(sp)
10008058:	000b8a93          	mv	s5,s7
1000805c:	00000a13          	li	s4,0
10008060:	1000ac37          	lui	s8,0x1000a
10008064:	00070d13          	mv	s10,a4
10008068:	0809c063          	bltz	s3,100080e8 <__kernel_rem_pio2+0x864>
1000806c:	838c0c93          	addi	s9,s8,-1992 # 10009838 <PIo2>
10008070:	000b0913          	mv	s2,s6
10008074:	00000d93          	li	s11,0
10008078:	00000413          	li	s0,0
1000807c:	00000493          	li	s1,0
10008080:	00c0006f          	j	1000808c <__kernel_rem_pio2+0x808>
10008084:	00890913          	addi	s2,s2,8
10008088:	049a4063          	blt	s4,s1,100080c8 <__kernel_rem_pio2+0x844>
1000808c:	00092603          	lw	a2,0(s2)
10008090:	00492683          	lw	a3,4(s2)
10008094:	000ca503          	lw	a0,0(s9)
10008098:	004ca583          	lw	a1,4(s9)
1000809c:	00148493          	addi	s1,s1,1
100080a0:	008c8c93          	addi	s9,s9,8
100080a4:	960f90ef          	jal	ra,10001204 <__muldf3>
100080a8:	00050613          	mv	a2,a0
100080ac:	00058693          	mv	a3,a1
100080b0:	000d8513          	mv	a0,s11
100080b4:	00040593          	mv	a1,s0
100080b8:	884f80ef          	jal	ra,1000013c <__adddf3>
100080bc:	00050d93          	mv	s11,a0
100080c0:	00058413          	mv	s0,a1
100080c4:	fc99d0e3          	bge	s3,s1,10008084 <__kernel_rem_pio2+0x800>
100080c8:	01baa023          	sw	s11,0(s5)
100080cc:	008aa223          	sw	s0,4(s5)
100080d0:	001a0793          	addi	a5,s4,1
100080d4:	008a8a93          	addi	s5,s5,8
100080d8:	ff8b0b13          	addi	s6,s6,-8
100080dc:	03aa0663          	beq	s4,s10,10008108 <__kernel_rem_pio2+0x884>
100080e0:	00078a13          	mv	s4,a5
100080e4:	f809d4e3          	bgez	s3,1000806c <__kernel_rem_pio2+0x7e8>
100080e8:	00000d93          	li	s11,0
100080ec:	00000413          	li	s0,0
100080f0:	01baa023          	sw	s11,0(s5)
100080f4:	008aa223          	sw	s0,4(s5)
100080f8:	001a0793          	addi	a5,s4,1
100080fc:	008a8a93          	addi	s5,s5,8
10008100:	ff8b0b13          	addi	s6,s6,-8
10008104:	fdaa1ee3          	bne	s4,s10,100080e0 <__kernel_rem_pio2+0x85c>
10008108:	05412683          	lw	a3,84(sp)
1000810c:	00200793          	li	a5,2
10008110:	00812483          	lw	s1,8(sp)
10008114:	01012903          	lw	s2,16(sp)
10008118:	01812c83          	lw	s9,24(sp)
1000811c:	000d0713          	mv	a4,s10
10008120:	18d7c063          	blt	a5,a3,100082a0 <__kernel_rem_pio2+0xa1c>
10008124:	30d04263          	bgtz	a3,10008428 <__kernel_rem_pio2+0xba4>
10008128:	04069863          	bnez	a3,10008178 <__kernel_rem_pio2+0x8f4>
1000812c:	00000713          	li	a4,0
10008130:	019b8cb3          	add	s9,s7,s9
10008134:	00000793          	li	a5,0
10008138:	00070513          	mv	a0,a4
1000813c:	000ca603          	lw	a2,0(s9)
10008140:	004ca683          	lw	a3,4(s9)
10008144:	00078593          	mv	a1,a5
10008148:	ff5f70ef          	jal	ra,1000013c <__adddf3>
1000814c:	000c8713          	mv	a4,s9
10008150:	00058793          	mv	a5,a1
10008154:	ff8c8c93          	addi	s9,s9,-8
10008158:	feeb92e3          	bne	s7,a4,1000813c <__kernel_rem_pio2+0x8b8>
1000815c:	00050713          	mv	a4,a0
10008160:	00048663          	beqz	s1,1000816c <__kernel_rem_pio2+0x8e8>
10008164:	800006b7          	lui	a3,0x80000
10008168:	00f6c7b3          	xor	a5,a3,a5
1000816c:	04c12683          	lw	a3,76(sp)
10008170:	00e6a023          	sw	a4,0(a3) # 80000000 <__BSS_END__$+0x6fff5bb8>
10008174:	00f6a223          	sw	a5,4(a3)
10008178:	2cc12083          	lw	ra,716(sp)
1000817c:	2c812403          	lw	s0,712(sp)
10008180:	2c412483          	lw	s1,708(sp)
10008184:	2bc12983          	lw	s3,700(sp)
10008188:	2b812a03          	lw	s4,696(sp)
1000818c:	2b412a83          	lw	s5,692(sp)
10008190:	2b012b03          	lw	s6,688(sp)
10008194:	2ac12b83          	lw	s7,684(sp)
10008198:	2a812c03          	lw	s8,680(sp)
1000819c:	2a412c83          	lw	s9,676(sp)
100081a0:	2a012d03          	lw	s10,672(sp)
100081a4:	29c12d83          	lw	s11,668(sp)
100081a8:	00797513          	andi	a0,s2,7
100081ac:	2c012903          	lw	s2,704(sp)
100081b0:	2d010113          	addi	sp,sp,720
100081b4:	00008067          	ret
100081b8:	05812603          	lw	a2,88(sp)
100081bc:	05c12683          	lw	a3,92(sp)
100081c0:	00000493          	li	s1,0
100081c4:	f31f80ef          	jal	ra,100010f4 <__gedf2>
100081c8:	a60546e3          	bltz	a0,10007c34 <__kernel_rem_pio2+0x3b0>
100081cc:	001b8b93          	addi	s7,s7,1
100081d0:	00200493          	li	s1,2
100081d4:	bf204ee3          	bgtz	s2,10007dd0 <__kernel_rem_pio2+0x54c>
100081d8:	1000a7b7          	lui	a5,0x1000a
100081dc:	2607a503          	lw	a0,608(a5) # 1000a260 <_global_impure_ptr+0xe4>
100081e0:	2647a583          	lw	a1,612(a5)
100081e4:	000a8613          	mv	a2,s5
100081e8:	000b0693          	mv	a3,s6
100081ec:	ed4f90ef          	jal	ra,100018c0 <__subdf3>
100081f0:	00050a93          	mv	s5,a0
100081f4:	00058b13          	mv	s6,a1
100081f8:	a3dff06f          	j	10007c34 <__kernel_rem_pio2+0x3b0>
100081fc:	001b8b93          	addi	s7,s7,1
10008200:	00000d13          	li	s10,0
10008204:	bd2046e3          	bgtz	s2,10007dd0 <__kernel_rem_pio2+0x54c>
10008208:	01812703          	lw	a4,24(sp)
1000820c:	00100793          	li	a5,1
10008210:	c2f712e3          	bne	a4,a5,10007e34 <__kernel_rem_pio2+0x5b0>
10008214:	fff90793          	addi	a5,s2,-1
10008218:	00279793          	slli	a5,a5,0x2
1000821c:	23078793          	addi	a5,a5,560
10008220:	06010713          	addi	a4,sp,96
10008224:	00e787b3          	add	a5,a5,a4
10008228:	dd07a683          	lw	a3,-560(a5)
1000822c:	00969693          	slli	a3,a3,0x9
10008230:	0096d693          	srli	a3,a3,0x9
10008234:	dcd7a823          	sw	a3,-560(a5)
10008238:	c29ff06f          	j	10007e60 <__kernel_rem_pio2+0x5dc>
1000823c:	00190793          	addi	a5,s2,1
10008240:	00078d13          	mv	s10,a5
10008244:	00078b13          	mv	s6,a5
10008248:	a59ff06f          	j	10007ca0 <__kernel_rem_pio2+0x41c>
1000824c:	000b8793          	mv	a5,s7
10008250:	00090b93          	mv	s7,s2
10008254:	fffb8713          	addi	a4,s7,-1
10008258:	00271693          	slli	a3,a4,0x2
1000825c:	00078913          	mv	s2,a5
10008260:	23068793          	addi	a5,a3,560
10008264:	06010693          	addi	a3,sp,96
10008268:	00d786b3          	add	a3,a5,a3
1000826c:	01812d83          	lw	s11,24(sp)
10008270:	dd06a683          	lw	a3,-560(a3)
10008274:	fe8d8d93          	addi	s11,s11,-24
10008278:	d20690e3          	bnez	a3,10007f98 <__kernel_rem_pio2+0x714>
1000827c:	002b9693          	slli	a3,s7,0x2
10008280:	05868793          	addi	a5,a3,88
10008284:	002786b3          	add	a3,a5,sp
10008288:	0006a783          	lw	a5,0(a3)
1000828c:	fff70713          	addi	a4,a4,-1
10008290:	ffc68693          	addi	a3,a3,-4
10008294:	fe8d8d93          	addi	s11,s11,-24
10008298:	fe0788e3          	beqz	a5,10008288 <__kernel_rem_pio2+0xa04>
1000829c:	cfdff06f          	j	10007f98 <__kernel_rem_pio2+0x714>
100082a0:	05412683          	lw	a3,84(sp)
100082a4:	00300793          	li	a5,3
100082a8:	ecf698e3          	bne	a3,a5,10008178 <__kernel_rem_pio2+0x8f4>
100082ac:	320d0063          	beqz	s10,100085cc <__kernel_rem_pio2+0xd48>
100082b0:	019b89b3          	add	s3,s7,s9
100082b4:	ff8c8413          	addi	s0,s9,-8
100082b8:	0009ad03          	lw	s10,0(s3)
100082bc:	0049ac03          	lw	s8,4(s3)
100082c0:	008b8433          	add	s0,s7,s0
100082c4:	00040b13          	mv	s6,s0
100082c8:	00812423          	sw	s0,8(sp)
100082cc:	00070c93          	mv	s9,a4
100082d0:	000b2a03          	lw	s4,0(s6)
100082d4:	004b2a83          	lw	s5,4(s6)
100082d8:	000d0513          	mv	a0,s10
100082dc:	000c0593          	mv	a1,s8
100082e0:	000a0613          	mv	a2,s4
100082e4:	000a8693          	mv	a3,s5
100082e8:	e55f70ef          	jal	ra,1000013c <__adddf3>
100082ec:	00050613          	mv	a2,a0
100082f0:	00058693          	mv	a3,a1
100082f4:	000d0413          	mv	s0,s10
100082f8:	000c0d93          	mv	s11,s8
100082fc:	00050d13          	mv	s10,a0
10008300:	00058c13          	mv	s8,a1
10008304:	000a0513          	mv	a0,s4
10008308:	000a8593          	mv	a1,s5
1000830c:	db4f90ef          	jal	ra,100018c0 <__subdf3>
10008310:	000d8693          	mv	a3,s11
10008314:	00040613          	mv	a2,s0
10008318:	e25f70ef          	jal	ra,1000013c <__adddf3>
1000831c:	000b0693          	mv	a3,s6
10008320:	00ab2423          	sw	a0,8(s6)
10008324:	00bb2623          	sw	a1,12(s6)
10008328:	01ab2023          	sw	s10,0(s6)
1000832c:	018b2223          	sw	s8,4(s6)
10008330:	ff8b0b13          	addi	s6,s6,-8
10008334:	f9769ee3          	bne	a3,s7,100082d0 <__kernel_rem_pio2+0xa4c>
10008338:	00100793          	li	a5,1
1000833c:	00812403          	lw	s0,8(sp)
10008340:	28fc8663          	beq	s9,a5,100085cc <__kernel_rem_pio2+0xd48>
10008344:	0009aa83          	lw	s5,0(s3)
10008348:	0049aa03          	lw	s4,4(s3)
1000834c:	00042c03          	lw	s8,0(s0)
10008350:	00442c83          	lw	s9,4(s0)
10008354:	000a8513          	mv	a0,s5
10008358:	000a0593          	mv	a1,s4
1000835c:	000c0613          	mv	a2,s8
10008360:	000c8693          	mv	a3,s9
10008364:	dd9f70ef          	jal	ra,1000013c <__adddf3>
10008368:	000a0b13          	mv	s6,s4
1000836c:	00050613          	mv	a2,a0
10008370:	00058693          	mv	a3,a1
10008374:	000a8d13          	mv	s10,s5
10008378:	00058a13          	mv	s4,a1
1000837c:	00050a93          	mv	s5,a0
10008380:	000c8593          	mv	a1,s9
10008384:	000c0513          	mv	a0,s8
10008388:	d38f90ef          	jal	ra,100018c0 <__subdf3>
1000838c:	000b0693          	mv	a3,s6
10008390:	000d0613          	mv	a2,s10
10008394:	da9f70ef          	jal	ra,1000013c <__adddf3>
10008398:	00040b13          	mv	s6,s0
1000839c:	00a42423          	sw	a0,8(s0)
100083a0:	00b42623          	sw	a1,12(s0)
100083a4:	01542023          	sw	s5,0(s0)
100083a8:	01442223          	sw	s4,4(s0)
100083ac:	ff840413          	addi	s0,s0,-8
100083b0:	f88b9ee3          	bne	s7,s0,1000834c <__kernel_rem_pio2+0xac8>
100083b4:	00000793          	li	a5,0
100083b8:	00000713          	li	a4,0
100083bc:	00078513          	mv	a0,a5
100083c0:	0009a603          	lw	a2,0(s3)
100083c4:	0049a683          	lw	a3,4(s3)
100083c8:	00070593          	mv	a1,a4
100083cc:	ff898993          	addi	s3,s3,-8
100083d0:	d6df70ef          	jal	ra,1000013c <__adddf3>
100083d4:	00058713          	mv	a4,a1
100083d8:	ff3b14e3          	bne	s6,s3,100083c0 <__kernel_rem_pio2+0xb3c>
100083dc:	00050793          	mv	a5,a0
100083e0:	15012803          	lw	a6,336(sp)
100083e4:	15412603          	lw	a2,340(sp)
100083e8:	15812503          	lw	a0,344(sp)
100083ec:	15c12683          	lw	a3,348(sp)
100083f0:	0e049863          	bnez	s1,100084e0 <__kernel_rem_pio2+0xc5c>
100083f4:	04c12583          	lw	a1,76(sp)
100083f8:	0105a023          	sw	a6,0(a1) # ff800000 <__BSS_END__$+0xef7f5bb8>
100083fc:	00c5a223          	sw	a2,4(a1)
10008400:	00a5a423          	sw	a0,8(a1)
10008404:	00d5a623          	sw	a3,12(a1)
10008408:	00f5a823          	sw	a5,16(a1)
1000840c:	00e5aa23          	sw	a4,20(a1)
10008410:	d69ff06f          	j	10008178 <__kernel_rem_pio2+0x8f4>
10008414:	00100d13          	li	s10,1
10008418:	a09ff06f          	j	10007e20 <__kernel_rem_pio2+0x59c>
1000841c:	fe800693          	li	a3,-24
10008420:	02012c23          	sw	zero,56(sp)
10008424:	cfcff06f          	j	10007920 <__kernel_rem_pio2+0x9c>
10008428:	00000593          	li	a1,0
1000842c:	00000613          	li	a2,0
10008430:	019b8cb3          	add	s9,s7,s9
10008434:	000d0413          	mv	s0,s10
10008438:	00058793          	mv	a5,a1
1000843c:	00060713          	mv	a4,a2
10008440:	004ca683          	lw	a3,4(s9)
10008444:	000ca603          	lw	a2,0(s9)
10008448:	00078513          	mv	a0,a5
1000844c:	00070593          	mv	a1,a4
10008450:	cedf70ef          	jal	ra,1000013c <__adddf3>
10008454:	000c8693          	mv	a3,s9
10008458:	00050793          	mv	a5,a0
1000845c:	00058713          	mv	a4,a1
10008460:	ff8c8c93          	addi	s9,s9,-8
10008464:	fcdb9ee3          	bne	s7,a3,10008440 <__kernel_rem_pio2+0xbbc>
10008468:	00812423          	sw	s0,8(sp)
1000846c:	00050693          	mv	a3,a0
10008470:	00058793          	mv	a5,a1
10008474:	08048e63          	beqz	s1,10008510 <__kernel_rem_pio2+0xc8c>
10008478:	04c12703          	lw	a4,76(sp)
1000847c:	00058313          	mv	t1,a1
10008480:	80000637          	lui	a2,0x80000
10008484:	15012503          	lw	a0,336(sp)
10008488:	15412583          	lw	a1,340(sp)
1000848c:	00f647b3          	xor	a5,a2,a5
10008490:	00d72023          	sw	a3,0(a4)
10008494:	00f72223          	sw	a5,4(a4)
10008498:	00068613          	mv	a2,a3
1000849c:	00030693          	mv	a3,t1
100084a0:	c20f90ef          	jal	ra,100018c0 <__subdf3>
100084a4:	00050693          	mv	a3,a0
100084a8:	00058793          	mv	a5,a1
100084ac:	00040713          	mv	a4,s0
100084b0:	08041863          	bnez	s0,10008540 <__kernel_rem_pio2+0xcbc>
100084b4:	0c40006f          	j	10008578 <__kernel_rem_pio2+0xcf4>
100084b8:	00040593          	mv	a1,s0
100084bc:	002b9413          	slli	s0,s7,0x2
100084c0:	06010713          	addi	a4,sp,96
100084c4:	23040793          	addi	a5,s0,560
100084c8:	000b0513          	mv	a0,s6
100084cc:	00e78433          	add	s0,a5,a4
100084d0:	c45f90ef          	jal	ra,10002114 <__fixdfsi>
100084d4:	dca42823          	sw	a0,-560(s0)
100084d8:	000b8713          	mv	a4,s7
100084dc:	abdff06f          	j	10007f98 <__kernel_rem_pio2+0x714>
100084e0:	800005b7          	lui	a1,0x80000
100084e4:	00c5c633          	xor	a2,a1,a2
100084e8:	00d5c6b3          	xor	a3,a1,a3
100084ec:	00e5c5b3          	xor	a1,a1,a4
100084f0:	04c12703          	lw	a4,76(sp)
100084f4:	01072023          	sw	a6,0(a4)
100084f8:	00c72223          	sw	a2,4(a4)
100084fc:	00a72423          	sw	a0,8(a4)
10008500:	00d72623          	sw	a3,12(a4)
10008504:	00f72823          	sw	a5,16(a4)
10008508:	00b72a23          	sw	a1,20(a4)
1000850c:	c6dff06f          	j	10008178 <__kernel_rem_pio2+0x8f4>
10008510:	04c12703          	lw	a4,76(sp)
10008514:	15012503          	lw	a0,336(sp)
10008518:	15412583          	lw	a1,340(sp)
1000851c:	00d72023          	sw	a3,0(a4)
10008520:	00f72223          	sw	a5,4(a4)
10008524:	00068613          	mv	a2,a3
10008528:	00078693          	mv	a3,a5
1000852c:	b94f90ef          	jal	ra,100018c0 <__subdf3>
10008530:	00812703          	lw	a4,8(sp)
10008534:	00050693          	mv	a3,a0
10008538:	00058793          	mv	a5,a1
1000853c:	04070263          	beqz	a4,10008580 <__kernel_rem_pio2+0xcfc>
10008540:	15810993          	addi	s3,sp,344
10008544:	00100413          	li	s0,1
10008548:	00070a13          	mv	s4,a4
1000854c:	00068513          	mv	a0,a3
10008550:	0009a603          	lw	a2,0(s3)
10008554:	0049a683          	lw	a3,4(s3)
10008558:	00078593          	mv	a1,a5
1000855c:	00140413          	addi	s0,s0,1
10008560:	bddf70ef          	jal	ra,1000013c <__adddf3>
10008564:	00058793          	mv	a5,a1
10008568:	00898993          	addi	s3,s3,8
1000856c:	fe8a52e3          	bge	s4,s0,10008550 <__kernel_rem_pio2+0xccc>
10008570:	00050693          	mv	a3,a0
10008574:	00048663          	beqz	s1,10008580 <__kernel_rem_pio2+0xcfc>
10008578:	80000737          	lui	a4,0x80000
1000857c:	00f747b3          	xor	a5,a4,a5
10008580:	04c12703          	lw	a4,76(sp)
10008584:	00d72423          	sw	a3,8(a4) # 80000008 <__BSS_END__$+0x6fff5bc0>
10008588:	00f72623          	sw	a5,12(a4)
1000858c:	bedff06f          	j	10008178 <__kernel_rem_pio2+0x8f4>
10008590:	05412683          	lw	a3,84(sp)
10008594:	00200793          	li	a5,2
10008598:	02d7c463          	blt	a5,a3,100085c0 <__kernel_rem_pio2+0xd3c>
1000859c:	02d04e63          	bgtz	a3,100085d8 <__kernel_rem_pio2+0xd54>
100085a0:	00000713          	li	a4,0
100085a4:	00000793          	li	a5,0
100085a8:	bc0698e3          	bnez	a3,10008178 <__kernel_rem_pio2+0x8f4>
100085ac:	bc0480e3          	beqz	s1,1000816c <__kernel_rem_pio2+0x8e8>
100085b0:	bb5ff06f          	j	10008164 <__kernel_rem_pio2+0x8e0>
100085b4:	00200793          	li	a5,2
100085b8:	e6f49e63          	bne	s1,a5,10007c34 <__kernel_rem_pio2+0x3b0>
100085bc:	c1dff06f          	j	100081d8 <__kernel_rem_pio2+0x954>
100085c0:	05412703          	lw	a4,84(sp)
100085c4:	00300793          	li	a5,3
100085c8:	baf718e3          	bne	a4,a5,10008178 <__kernel_rem_pio2+0x8f4>
100085cc:	00000793          	li	a5,0
100085d0:	00000713          	li	a4,0
100085d4:	e0dff06f          	j	100083e0 <__kernel_rem_pio2+0xb5c>
100085d8:	02048463          	beqz	s1,10008600 <__kernel_rem_pio2+0xd7c>
100085dc:	1000a737          	lui	a4,0x1000a
100085e0:	26872503          	lw	a0,616(a4) # 1000a268 <_global_impure_ptr+0xec>
100085e4:	26c72583          	lw	a1,620(a4)
100085e8:	04c12703          	lw	a4,76(sp)
100085ec:	15012683          	lw	a3,336(sp)
100085f0:	15412783          	lw	a5,340(sp)
100085f4:	00a72023          	sw	a0,0(a4)
100085f8:	00b72223          	sw	a1,4(a4)
100085fc:	f7dff06f          	j	10008578 <__kernel_rem_pio2+0xcf4>
10008600:	04c12703          	lw	a4,76(sp)
10008604:	15012683          	lw	a3,336(sp)
10008608:	15412783          	lw	a5,340(sp)
1000860c:	00072023          	sw	zero,0(a4)
10008610:	00072223          	sw	zero,4(a4)
10008614:	f6dff06f          	j	10008580 <__kernel_rem_pio2+0xcfc>

10008618 <__kernel_tan>:
10008618:	fb010113          	addi	sp,sp,-80
1000861c:	800007b7          	lui	a5,0x80000
10008620:	04812423          	sw	s0,72(sp)
10008624:	fff7c813          	not	a6,a5
10008628:	00058413          	mv	s0,a1
1000862c:	04912223          	sw	s1,68(sp)
10008630:	05212023          	sw	s2,64(sp)
10008634:	03312e23          	sw	s3,60(sp)
10008638:	03412c23          	sw	s4,56(sp)
1000863c:	03512a23          	sw	s5,52(sp)
10008640:	04112623          	sw	ra,76(sp)
10008644:	0105fab3          	and	s5,a1,a6
10008648:	03612823          	sw	s6,48(sp)
1000864c:	03712623          	sw	s7,44(sp)
10008650:	03812423          	sw	s8,40(sp)
10008654:	03912223          	sw	s9,36(sp)
10008658:	03a12023          	sw	s10,32(sp)
1000865c:	01b12e23          	sw	s11,28(sp)
10008660:	3e3005b7          	lui	a1,0x3e300
10008664:	00812623          	sw	s0,12(sp)
10008668:	00050493          	mv	s1,a0
1000866c:	00060993          	mv	s3,a2
10008670:	00068913          	mv	s2,a3
10008674:	00070a13          	mv	s4,a4
10008678:	0ebaf663          	bgeu	s5,a1,10008764 <__kernel_tan+0x14c>
1000867c:	00040593          	mv	a1,s0
10008680:	a95f90ef          	jal	ra,10002114 <__fixdfsi>
10008684:	14051263          	bnez	a0,100087c8 <__kernel_tan+0x1b0>
10008688:	001a0793          	addi	a5,s4,1
1000868c:	0097e7b3          	or	a5,a5,s1
10008690:	0157e7b3          	or	a5,a5,s5
10008694:	56078863          	beqz	a5,10008c04 <__kernel_tan+0x5ec>
10008698:	00100793          	li	a5,1
1000869c:	58fa0c63          	beq	s4,a5,10008c34 <__kernel_tan+0x61c>
100086a0:	00098613          	mv	a2,s3
100086a4:	00090693          	mv	a3,s2
100086a8:	00048513          	mv	a0,s1
100086ac:	00040593          	mv	a1,s0
100086b0:	a8df70ef          	jal	ra,1000013c <__adddf3>
100086b4:	1000a737          	lui	a4,0x1000a
100086b8:	00058a13          	mv	s4,a1
100086bc:	00050793          	mv	a5,a0
100086c0:	27472583          	lw	a1,628(a4) # 1000a274 <_global_impure_ptr+0xf8>
100086c4:	27072503          	lw	a0,624(a4)
100086c8:	00078613          	mv	a2,a5
100086cc:	000a0693          	mv	a3,s4
100086d0:	a58f80ef          	jal	ra,10000928 <__divdf3>
100086d4:	00000a93          	li	s5,0
100086d8:	00058793          	mv	a5,a1
100086dc:	00048613          	mv	a2,s1
100086e0:	00040693          	mv	a3,s0
100086e4:	00050b13          	mv	s6,a0
100086e8:	000a0593          	mv	a1,s4
100086ec:	000a8513          	mv	a0,s5
100086f0:	00078413          	mv	s0,a5
100086f4:	9ccf90ef          	jal	ra,100018c0 <__subdf3>
100086f8:	00050613          	mv	a2,a0
100086fc:	00058693          	mv	a3,a1
10008700:	00098513          	mv	a0,s3
10008704:	00090593          	mv	a1,s2
10008708:	9b8f90ef          	jal	ra,100018c0 <__subdf3>
1000870c:	00000493          	li	s1,0
10008710:	00048613          	mv	a2,s1
10008714:	00040693          	mv	a3,s0
10008718:	aedf80ef          	jal	ra,10001204 <__muldf3>
1000871c:	00050993          	mv	s3,a0
10008720:	00058913          	mv	s2,a1
10008724:	00048613          	mv	a2,s1
10008728:	00040693          	mv	a3,s0
1000872c:	000a8513          	mv	a0,s5
10008730:	000a0593          	mv	a1,s4
10008734:	ad1f80ef          	jal	ra,10001204 <__muldf3>
10008738:	1000a7b7          	lui	a5,0x1000a
1000873c:	2607a603          	lw	a2,608(a5) # 1000a260 <_global_impure_ptr+0xe4>
10008740:	2647a683          	lw	a3,612(a5)
10008744:	9f9f70ef          	jal	ra,1000013c <__adddf3>
10008748:	00050613          	mv	a2,a0
1000874c:	00058693          	mv	a3,a1
10008750:	00098513          	mv	a0,s3
10008754:	00090593          	mv	a1,s2
10008758:	9e5f70ef          	jal	ra,1000013c <__adddf3>
1000875c:	000b0613          	mv	a2,s6
10008760:	35c0006f          	j	10008abc <__kernel_tan+0x4a4>
10008764:	3fe59737          	lui	a4,0x3fe59
10008768:	42770713          	addi	a4,a4,1063 # 3fe59427 <__BSS_END__$+0x2fe4efdf>
1000876c:	05577e63          	bgeu	a4,s5,100087c8 <__kernel_tan+0x1b0>
10008770:	48044463          	bltz	s0,10008bf8 <__kernel_tan+0x5e0>
10008774:	1000a7b7          	lui	a5,0x1000a
10008778:	2787a503          	lw	a0,632(a5) # 1000a278 <_global_impure_ptr+0xfc>
1000877c:	27c7a583          	lw	a1,636(a5)
10008780:	00048613          	mv	a2,s1
10008784:	00040693          	mv	a3,s0
10008788:	938f90ef          	jal	ra,100018c0 <__subdf3>
1000878c:	1000a7b7          	lui	a5,0x1000a
10008790:	00050493          	mv	s1,a0
10008794:	00058413          	mv	s0,a1
10008798:	2807a503          	lw	a0,640(a5) # 1000a280 <_global_impure_ptr+0x104>
1000879c:	2847a583          	lw	a1,644(a5)
100087a0:	00098613          	mv	a2,s3
100087a4:	00090693          	mv	a3,s2
100087a8:	918f90ef          	jal	ra,100018c0 <__subdf3>
100087ac:	00048613          	mv	a2,s1
100087b0:	00040693          	mv	a3,s0
100087b4:	989f70ef          	jal	ra,1000013c <__adddf3>
100087b8:	00050493          	mv	s1,a0
100087bc:	00058413          	mv	s0,a1
100087c0:	00000993          	li	s3,0
100087c4:	00000913          	li	s2,0
100087c8:	00048613          	mv	a2,s1
100087cc:	00040693          	mv	a3,s0
100087d0:	00048513          	mv	a0,s1
100087d4:	00040593          	mv	a1,s0
100087d8:	a2df80ef          	jal	ra,10001204 <__muldf3>
100087dc:	00050613          	mv	a2,a0
100087e0:	00058693          	mv	a3,a1
100087e4:	00050c93          	mv	s9,a0
100087e8:	00058c13          	mv	s8,a1
100087ec:	a19f80ef          	jal	ra,10001204 <__muldf3>
100087f0:	00050d93          	mv	s11,a0
100087f4:	00058d13          	mv	s10,a1
100087f8:	000c8613          	mv	a2,s9
100087fc:	000c0693          	mv	a3,s8
10008800:	00048513          	mv	a0,s1
10008804:	00040593          	mv	a1,s0
10008808:	9fdf80ef          	jal	ra,10001204 <__muldf3>
1000880c:	1000a7b7          	lui	a5,0x1000a
10008810:	2887a603          	lw	a2,648(a5) # 1000a288 <_global_impure_ptr+0x10c>
10008814:	28c7a683          	lw	a3,652(a5)
10008818:	00050b93          	mv	s7,a0
1000881c:	00058b13          	mv	s6,a1
10008820:	000d8513          	mv	a0,s11
10008824:	000d0593          	mv	a1,s10
10008828:	9ddf80ef          	jal	ra,10001204 <__muldf3>
1000882c:	1000a7b7          	lui	a5,0x1000a
10008830:	2907a603          	lw	a2,656(a5) # 1000a290 <_global_impure_ptr+0x114>
10008834:	2947a683          	lw	a3,660(a5)
10008838:	905f70ef          	jal	ra,1000013c <__adddf3>
1000883c:	000d8613          	mv	a2,s11
10008840:	000d0693          	mv	a3,s10
10008844:	9c1f80ef          	jal	ra,10001204 <__muldf3>
10008848:	1000a7b7          	lui	a5,0x1000a
1000884c:	2987a603          	lw	a2,664(a5) # 1000a298 <_global_impure_ptr+0x11c>
10008850:	29c7a683          	lw	a3,668(a5)
10008854:	8e9f70ef          	jal	ra,1000013c <__adddf3>
10008858:	000d8613          	mv	a2,s11
1000885c:	000d0693          	mv	a3,s10
10008860:	9a5f80ef          	jal	ra,10001204 <__muldf3>
10008864:	1000a7b7          	lui	a5,0x1000a
10008868:	2a07a603          	lw	a2,672(a5) # 1000a2a0 <_global_impure_ptr+0x124>
1000886c:	2a47a683          	lw	a3,676(a5)
10008870:	8cdf70ef          	jal	ra,1000013c <__adddf3>
10008874:	000d8613          	mv	a2,s11
10008878:	000d0693          	mv	a3,s10
1000887c:	989f80ef          	jal	ra,10001204 <__muldf3>
10008880:	1000a7b7          	lui	a5,0x1000a
10008884:	2a87a603          	lw	a2,680(a5) # 1000a2a8 <_global_impure_ptr+0x12c>
10008888:	2ac7a683          	lw	a3,684(a5)
1000888c:	8b1f70ef          	jal	ra,1000013c <__adddf3>
10008890:	000d8613          	mv	a2,s11
10008894:	000d0693          	mv	a3,s10
10008898:	96df80ef          	jal	ra,10001204 <__muldf3>
1000889c:	1000a7b7          	lui	a5,0x1000a
100088a0:	2b07a603          	lw	a2,688(a5) # 1000a2b0 <_global_impure_ptr+0x134>
100088a4:	2b47a683          	lw	a3,692(a5)
100088a8:	895f70ef          	jal	ra,1000013c <__adddf3>
100088ac:	000c8613          	mv	a2,s9
100088b0:	000c0693          	mv	a3,s8
100088b4:	951f80ef          	jal	ra,10001204 <__muldf3>
100088b8:	1000a6b7          	lui	a3,0x1000a
100088bc:	2b86a603          	lw	a2,696(a3) # 1000a2b8 <_global_impure_ptr+0x13c>
100088c0:	2bc6a683          	lw	a3,700(a3)
100088c4:	00050713          	mv	a4,a0
100088c8:	00058793          	mv	a5,a1
100088cc:	000d8513          	mv	a0,s11
100088d0:	000d0593          	mv	a1,s10
100088d4:	00e12423          	sw	a4,8(sp)
100088d8:	00f12223          	sw	a5,4(sp)
100088dc:	929f80ef          	jal	ra,10001204 <__muldf3>
100088e0:	1000a6b7          	lui	a3,0x1000a
100088e4:	2c06a603          	lw	a2,704(a3) # 1000a2c0 <_global_impure_ptr+0x144>
100088e8:	2c46a683          	lw	a3,708(a3)
100088ec:	851f70ef          	jal	ra,1000013c <__adddf3>
100088f0:	000d8613          	mv	a2,s11
100088f4:	000d0693          	mv	a3,s10
100088f8:	90df80ef          	jal	ra,10001204 <__muldf3>
100088fc:	1000a6b7          	lui	a3,0x1000a
10008900:	2c86a603          	lw	a2,712(a3) # 1000a2c8 <_global_impure_ptr+0x14c>
10008904:	2cc6a683          	lw	a3,716(a3)
10008908:	835f70ef          	jal	ra,1000013c <__adddf3>
1000890c:	000d8613          	mv	a2,s11
10008910:	000d0693          	mv	a3,s10
10008914:	8f1f80ef          	jal	ra,10001204 <__muldf3>
10008918:	1000a6b7          	lui	a3,0x1000a
1000891c:	2d06a603          	lw	a2,720(a3) # 1000a2d0 <_global_impure_ptr+0x154>
10008920:	2d46a683          	lw	a3,724(a3)
10008924:	819f70ef          	jal	ra,1000013c <__adddf3>
10008928:	000d8613          	mv	a2,s11
1000892c:	000d0693          	mv	a3,s10
10008930:	8d5f80ef          	jal	ra,10001204 <__muldf3>
10008934:	1000a6b7          	lui	a3,0x1000a
10008938:	2d86a603          	lw	a2,728(a3) # 1000a2d8 <_global_impure_ptr+0x15c>
1000893c:	2dc6a683          	lw	a3,732(a3)
10008940:	ffcf70ef          	jal	ra,1000013c <__adddf3>
10008944:	000d8613          	mv	a2,s11
10008948:	000d0693          	mv	a3,s10
1000894c:	8b9f80ef          	jal	ra,10001204 <__muldf3>
10008950:	1000a6b7          	lui	a3,0x1000a
10008954:	2e06a603          	lw	a2,736(a3) # 1000a2e0 <_global_impure_ptr+0x164>
10008958:	2e46a683          	lw	a3,740(a3)
1000895c:	fe0f70ef          	jal	ra,1000013c <__adddf3>
10008960:	00812703          	lw	a4,8(sp)
10008964:	00412783          	lw	a5,4(sp)
10008968:	00050613          	mv	a2,a0
1000896c:	00058693          	mv	a3,a1
10008970:	00070513          	mv	a0,a4
10008974:	00078593          	mv	a1,a5
10008978:	fc4f70ef          	jal	ra,1000013c <__adddf3>
1000897c:	000b8613          	mv	a2,s7
10008980:	000b0693          	mv	a3,s6
10008984:	881f80ef          	jal	ra,10001204 <__muldf3>
10008988:	00098613          	mv	a2,s3
1000898c:	00090693          	mv	a3,s2
10008990:	facf70ef          	jal	ra,1000013c <__adddf3>
10008994:	000c8613          	mv	a2,s9
10008998:	000c0693          	mv	a3,s8
1000899c:	869f80ef          	jal	ra,10001204 <__muldf3>
100089a0:	00098613          	mv	a2,s3
100089a4:	00090693          	mv	a3,s2
100089a8:	f94f70ef          	jal	ra,1000013c <__adddf3>
100089ac:	1000a7b7          	lui	a5,0x1000a
100089b0:	2e87a603          	lw	a2,744(a5) # 1000a2e8 <_global_impure_ptr+0x16c>
100089b4:	2ec7a683          	lw	a3,748(a5)
100089b8:	00050993          	mv	s3,a0
100089bc:	00058913          	mv	s2,a1
100089c0:	000b8513          	mv	a0,s7
100089c4:	000b0593          	mv	a1,s6
100089c8:	83df80ef          	jal	ra,10001204 <__muldf3>
100089cc:	00098613          	mv	a2,s3
100089d0:	00090693          	mv	a3,s2
100089d4:	f68f70ef          	jal	ra,1000013c <__adddf3>
100089d8:	00058693          	mv	a3,a1
100089dc:	00050613          	mv	a2,a0
100089e0:	00050b13          	mv	s6,a0
100089e4:	00058993          	mv	s3,a1
100089e8:	00048513          	mv	a0,s1
100089ec:	00040593          	mv	a1,s0
100089f0:	f4cf70ef          	jal	ra,1000013c <__adddf3>
100089f4:	3fe59737          	lui	a4,0x3fe59
100089f8:	42770713          	addi	a4,a4,1063 # 3fe59427 <__BSS_END__$+0x2fe4efdf>
100089fc:	00050913          	mv	s2,a0
10008a00:	00058b93          	mv	s7,a1
10008a04:	00050693          	mv	a3,a0
10008a08:	00058793          	mv	a5,a1
10008a0c:	11576863          	bltu	a4,s5,10008b1c <__kernel_tan+0x504>
10008a10:	00100713          	li	a4,1
10008a14:	0cea0263          	beq	s4,a4,10008ad8 <__kernel_tan+0x4c0>
10008a18:	1000a7b7          	lui	a5,0x1000a
10008a1c:	2707a503          	lw	a0,624(a5) # 1000a270 <_global_impure_ptr+0xf4>
10008a20:	2747a583          	lw	a1,628(a5)
10008a24:	00090613          	mv	a2,s2
10008a28:	000b8693          	mv	a3,s7
10008a2c:	efdf70ef          	jal	ra,10000928 <__divdf3>
10008a30:	00000a93          	li	s5,0
10008a34:	00058793          	mv	a5,a1
10008a38:	00048613          	mv	a2,s1
10008a3c:	00040693          	mv	a3,s0
10008a40:	00050913          	mv	s2,a0
10008a44:	000b8593          	mv	a1,s7
10008a48:	000a8513          	mv	a0,s5
10008a4c:	00078413          	mv	s0,a5
10008a50:	e71f80ef          	jal	ra,100018c0 <__subdf3>
10008a54:	00050613          	mv	a2,a0
10008a58:	00058693          	mv	a3,a1
10008a5c:	000b0513          	mv	a0,s6
10008a60:	00098593          	mv	a1,s3
10008a64:	e5df80ef          	jal	ra,100018c0 <__subdf3>
10008a68:	00000493          	li	s1,0
10008a6c:	00048613          	mv	a2,s1
10008a70:	00040693          	mv	a3,s0
10008a74:	f90f80ef          	jal	ra,10001204 <__muldf3>
10008a78:	00050a13          	mv	s4,a0
10008a7c:	00058993          	mv	s3,a1
10008a80:	00048613          	mv	a2,s1
10008a84:	00040693          	mv	a3,s0
10008a88:	000a8513          	mv	a0,s5
10008a8c:	000b8593          	mv	a1,s7
10008a90:	f74f80ef          	jal	ra,10001204 <__muldf3>
10008a94:	1000a7b7          	lui	a5,0x1000a
10008a98:	2607a603          	lw	a2,608(a5) # 1000a260 <_global_impure_ptr+0xe4>
10008a9c:	2647a683          	lw	a3,612(a5)
10008aa0:	e9cf70ef          	jal	ra,1000013c <__adddf3>
10008aa4:	00050613          	mv	a2,a0
10008aa8:	00058693          	mv	a3,a1
10008aac:	000a0513          	mv	a0,s4
10008ab0:	00098593          	mv	a1,s3
10008ab4:	e88f70ef          	jal	ra,1000013c <__adddf3>
10008ab8:	00090613          	mv	a2,s2
10008abc:	00040693          	mv	a3,s0
10008ac0:	f44f80ef          	jal	ra,10001204 <__muldf3>
10008ac4:	00040693          	mv	a3,s0
10008ac8:	00048613          	mv	a2,s1
10008acc:	e70f70ef          	jal	ra,1000013c <__adddf3>
10008ad0:	00050693          	mv	a3,a0
10008ad4:	00058793          	mv	a5,a1
10008ad8:	04c12083          	lw	ra,76(sp)
10008adc:	04812403          	lw	s0,72(sp)
10008ae0:	04412483          	lw	s1,68(sp)
10008ae4:	04012903          	lw	s2,64(sp)
10008ae8:	03c12983          	lw	s3,60(sp)
10008aec:	03812a03          	lw	s4,56(sp)
10008af0:	03412a83          	lw	s5,52(sp)
10008af4:	03012b03          	lw	s6,48(sp)
10008af8:	02c12b83          	lw	s7,44(sp)
10008afc:	02812c03          	lw	s8,40(sp)
10008b00:	02412c83          	lw	s9,36(sp)
10008b04:	02012d03          	lw	s10,32(sp)
10008b08:	01c12d83          	lw	s11,28(sp)
10008b0c:	00068513          	mv	a0,a3
10008b10:	00078593          	mv	a1,a5
10008b14:	05010113          	addi	sp,sp,80
10008b18:	00008067          	ret
10008b1c:	000a0513          	mv	a0,s4
10008b20:	e74f90ef          	jal	ra,10002194 <__floatsidf>
10008b24:	00050c13          	mv	s8,a0
10008b28:	00058a13          	mv	s4,a1
10008b2c:	00090613          	mv	a2,s2
10008b30:	000b8693          	mv	a3,s7
10008b34:	00090513          	mv	a0,s2
10008b38:	000b8593          	mv	a1,s7
10008b3c:	ec8f80ef          	jal	ra,10001204 <__muldf3>
10008b40:	00050713          	mv	a4,a0
10008b44:	00058793          	mv	a5,a1
10008b48:	000c0613          	mv	a2,s8
10008b4c:	00090513          	mv	a0,s2
10008b50:	000a0693          	mv	a3,s4
10008b54:	000b8593          	mv	a1,s7
10008b58:	00078913          	mv	s2,a5
10008b5c:	00070b93          	mv	s7,a4
10008b60:	ddcf70ef          	jal	ra,1000013c <__adddf3>
10008b64:	00050613          	mv	a2,a0
10008b68:	00058693          	mv	a3,a1
10008b6c:	000b8513          	mv	a0,s7
10008b70:	00090593          	mv	a1,s2
10008b74:	db5f70ef          	jal	ra,10000928 <__divdf3>
10008b78:	000b0613          	mv	a2,s6
10008b7c:	00098693          	mv	a3,s3
10008b80:	d41f80ef          	jal	ra,100018c0 <__subdf3>
10008b84:	00050613          	mv	a2,a0
10008b88:	00058693          	mv	a3,a1
10008b8c:	00048513          	mv	a0,s1
10008b90:	00040593          	mv	a1,s0
10008b94:	d2df80ef          	jal	ra,100018c0 <__subdf3>
10008b98:	00050613          	mv	a2,a0
10008b9c:	00058693          	mv	a3,a1
10008ba0:	d9cf70ef          	jal	ra,1000013c <__adddf3>
10008ba4:	00050613          	mv	a2,a0
10008ba8:	00058693          	mv	a3,a1
10008bac:	000c0513          	mv	a0,s8
10008bb0:	000a0593          	mv	a1,s4
10008bb4:	d0df80ef          	jal	ra,100018c0 <__subdf3>
10008bb8:	00c12783          	lw	a5,12(sp)
10008bbc:	00050493          	mv	s1,a0
10008bc0:	00100513          	li	a0,1
10008bc4:	41e7da93          	srai	s5,a5,0x1e
10008bc8:	002afa93          	andi	s5,s5,2
10008bcc:	41550533          	sub	a0,a0,s5
10008bd0:	00058413          	mv	s0,a1
10008bd4:	dc0f90ef          	jal	ra,10002194 <__floatsidf>
10008bd8:	00058693          	mv	a3,a1
10008bdc:	00050613          	mv	a2,a0
10008be0:	00040593          	mv	a1,s0
10008be4:	00048513          	mv	a0,s1
10008be8:	e1cf80ef          	jal	ra,10001204 <__muldf3>
10008bec:	00050693          	mv	a3,a0
10008bf0:	00058793          	mv	a5,a1
10008bf4:	ee5ff06f          	j	10008ad8 <__kernel_tan+0x4c0>
10008bf8:	0087c433          	xor	s0,a5,s0
10008bfc:	00d7c933          	xor	s2,a5,a3
10008c00:	b75ff06f          	j	10008774 <__kernel_tan+0x15c>
10008c04:	00048513          	mv	a0,s1
10008c08:	00040593          	mv	a1,s0
10008c0c:	0c4000ef          	jal	ra,10008cd0 <fabs>
10008c10:	1000a7b7          	lui	a5,0x1000a
10008c14:	00058693          	mv	a3,a1
10008c18:	00050613          	mv	a2,a0
10008c1c:	2647a583          	lw	a1,612(a5) # 1000a264 <_global_impure_ptr+0xe8>
10008c20:	2607a503          	lw	a0,608(a5)
10008c24:	d05f70ef          	jal	ra,10000928 <__divdf3>
10008c28:	00050693          	mv	a3,a0
10008c2c:	00058793          	mv	a5,a1
10008c30:	ea9ff06f          	j	10008ad8 <__kernel_tan+0x4c0>
10008c34:	00048693          	mv	a3,s1
10008c38:	00040793          	mv	a5,s0
10008c3c:	e9dff06f          	j	10008ad8 <__kernel_tan+0x4c0>

10008c40 <with_errnof>:
10008c40:	ff010113          	addi	sp,sp,-16
10008c44:	00812423          	sw	s0,8(sp)
10008c48:	00912223          	sw	s1,4(sp)
10008c4c:	00112623          	sw	ra,12(sp)
10008c50:	00050413          	mv	s0,a0
10008c54:	00058493          	mv	s1,a1
10008c58:	b98fd0ef          	jal	ra,10005ff0 <__errno>
10008c5c:	00952023          	sw	s1,0(a0)
10008c60:	00c12083          	lw	ra,12(sp)
10008c64:	00040513          	mv	a0,s0
10008c68:	00812403          	lw	s0,8(sp)
10008c6c:	00412483          	lw	s1,4(sp)
10008c70:	01010113          	addi	sp,sp,16
10008c74:	00008067          	ret

10008c78 <xflowf>:
10008c78:	ff010113          	addi	sp,sp,-16
10008c7c:	00112623          	sw	ra,12(sp)
10008c80:	02050063          	beqz	a0,10008ca0 <xflowf+0x28>
10008c84:	80000537          	lui	a0,0x80000
10008c88:	00b54533          	xor	a0,a0,a1
10008c8c:	f61f90ef          	jal	ra,10002bec <__mulsf3>
10008c90:	00c12083          	lw	ra,12(sp)
10008c94:	02200593          	li	a1,34
10008c98:	01010113          	addi	sp,sp,16
10008c9c:	fa5ff06f          	j	10008c40 <with_errnof>
10008ca0:	00058513          	mv	a0,a1
10008ca4:	f49f90ef          	jal	ra,10002bec <__mulsf3>
10008ca8:	00c12083          	lw	ra,12(sp)
10008cac:	02200593          	li	a1,34
10008cb0:	01010113          	addi	sp,sp,16
10008cb4:	f8dff06f          	j	10008c40 <with_errnof>

10008cb8 <__math_uflowf>:
10008cb8:	1000a7b7          	lui	a5,0x1000a
10008cbc:	2f07a583          	lw	a1,752(a5) # 1000a2f0 <_global_impure_ptr+0x174>
10008cc0:	fb9ff06f          	j	10008c78 <xflowf>

10008cc4 <__math_oflowf>:
10008cc4:	1000a7b7          	lui	a5,0x1000a
10008cc8:	2f47a583          	lw	a1,756(a5) # 1000a2f4 <_global_impure_ptr+0x178>
10008ccc:	fadff06f          	j	10008c78 <xflowf>

10008cd0 <fabs>:
10008cd0:	00159593          	slli	a1,a1,0x1
10008cd4:	0015d593          	srli	a1,a1,0x1
10008cd8:	00008067          	ret

10008cdc <floor>:
10008cdc:	4145d793          	srai	a5,a1,0x14
10008ce0:	fd010113          	addi	sp,sp,-48
10008ce4:	7ff7f793          	andi	a5,a5,2047
10008ce8:	02812423          	sw	s0,40(sp)
10008cec:	02912223          	sw	s1,36(sp)
10008cf0:	03212023          	sw	s2,32(sp)
10008cf4:	01312e23          	sw	s3,28(sp)
10008cf8:	01412c23          	sw	s4,24(sp)
10008cfc:	02112623          	sw	ra,44(sp)
10008d00:	01512a23          	sw	s5,20(sp)
10008d04:	01612823          	sw	s6,16(sp)
10008d08:	01712623          	sw	s7,12(sp)
10008d0c:	c0178913          	addi	s2,a5,-1023
10008d10:	01300713          	li	a4,19
10008d14:	00058413          	mv	s0,a1
10008d18:	00050493          	mv	s1,a0
10008d1c:	00058a13          	mv	s4,a1
10008d20:	00050993          	mv	s3,a0
10008d24:	0d274863          	blt	a4,s2,10008df4 <floor+0x118>
10008d28:	08094e63          	bltz	s2,10008dc4 <floor+0xe8>
10008d2c:	00100bb7          	lui	s7,0x100
10008d30:	fffb8a93          	addi	s5,s7,-1 # fffff <__stack_size+0xffeff>
10008d34:	412adab3          	sra	s5,s5,s2
10008d38:	00baf6b3          	and	a3,s5,a1
10008d3c:	00a6e6b3          	or	a3,a3,a0
10008d40:	00050713          	mv	a4,a0
10008d44:	00058793          	mv	a5,a1
10008d48:	04068463          	beqz	a3,10008d90 <floor+0xb4>
10008d4c:	1000a7b7          	lui	a5,0x1000a
10008d50:	2f87a603          	lw	a2,760(a5) # 1000a2f8 <_global_impure_ptr+0x17c>
10008d54:	2fc7a683          	lw	a3,764(a5)
10008d58:	00058b13          	mv	s6,a1
10008d5c:	be0f70ef          	jal	ra,1000013c <__adddf3>
10008d60:	00000613          	li	a2,0
10008d64:	00000693          	li	a3,0
10008d68:	b8cf80ef          	jal	ra,100010f4 <__gedf2>
10008d6c:	00a05e63          	blez	a0,10008d88 <floor+0xac>
10008d70:	00045663          	bgez	s0,10008d7c <floor+0xa0>
10008d74:	412bdbb3          	sra	s7,s7,s2
10008d78:	008b8b33          	add	s6,s7,s0
10008d7c:	fffaca93          	not	s5,s5
10008d80:	016afa33          	and	s4,s5,s6
10008d84:	00000993          	li	s3,0
10008d88:	00098713          	mv	a4,s3
10008d8c:	000a0793          	mv	a5,s4
10008d90:	02c12083          	lw	ra,44(sp)
10008d94:	02812403          	lw	s0,40(sp)
10008d98:	02412483          	lw	s1,36(sp)
10008d9c:	02012903          	lw	s2,32(sp)
10008da0:	01c12983          	lw	s3,28(sp)
10008da4:	01812a03          	lw	s4,24(sp)
10008da8:	01412a83          	lw	s5,20(sp)
10008dac:	01012b03          	lw	s6,16(sp)
10008db0:	00c12b83          	lw	s7,12(sp)
10008db4:	00070513          	mv	a0,a4
10008db8:	00078593          	mv	a1,a5
10008dbc:	03010113          	addi	sp,sp,48
10008dc0:	00008067          	ret
10008dc4:	1000a7b7          	lui	a5,0x1000a
10008dc8:	2f87a603          	lw	a2,760(a5) # 1000a2f8 <_global_impure_ptr+0x17c>
10008dcc:	2fc7a683          	lw	a3,764(a5)
10008dd0:	b6cf70ef          	jal	ra,1000013c <__adddf3>
10008dd4:	00000613          	li	a2,0
10008dd8:	00000693          	li	a3,0
10008ddc:	b18f80ef          	jal	ra,100010f4 <__gedf2>
10008de0:	faa054e3          	blez	a0,10008d88 <floor+0xac>
10008de4:	08044663          	bltz	s0,10008e70 <floor+0x194>
10008de8:	00000993          	li	s3,0
10008dec:	00000a13          	li	s4,0
10008df0:	f99ff06f          	j	10008d88 <floor+0xac>
10008df4:	03300713          	li	a4,51
10008df8:	03275663          	bge	a4,s2,10008e24 <floor+0x148>
10008dfc:	40000693          	li	a3,1024
10008e00:	00050713          	mv	a4,a0
10008e04:	00058793          	mv	a5,a1
10008e08:	f8d914e3          	bne	s2,a3,10008d90 <floor+0xb4>
10008e0c:	00050613          	mv	a2,a0
10008e10:	00058693          	mv	a3,a1
10008e14:	b28f70ef          	jal	ra,1000013c <__adddf3>
10008e18:	00050713          	mv	a4,a0
10008e1c:	00058793          	mv	a5,a1
10008e20:	f71ff06f          	j	10008d90 <floor+0xb4>
10008e24:	bed78793          	addi	a5,a5,-1043
10008e28:	fff00a93          	li	s5,-1
10008e2c:	00fadab3          	srl	s5,s5,a5
10008e30:	00aaf6b3          	and	a3,s5,a0
10008e34:	00050713          	mv	a4,a0
10008e38:	00058793          	mv	a5,a1
10008e3c:	f4068ae3          	beqz	a3,10008d90 <floor+0xb4>
10008e40:	1000a7b7          	lui	a5,0x1000a
10008e44:	2f87a603          	lw	a2,760(a5) # 1000a2f8 <_global_impure_ptr+0x17c>
10008e48:	2fc7a683          	lw	a3,764(a5)
10008e4c:	af0f70ef          	jal	ra,1000013c <__adddf3>
10008e50:	00000613          	li	a2,0
10008e54:	00000693          	li	a3,0
10008e58:	a9cf80ef          	jal	ra,100010f4 <__gedf2>
10008e5c:	f2a056e3          	blez	a0,10008d88 <floor+0xac>
10008e60:	02044863          	bltz	s0,10008e90 <floor+0x1b4>
10008e64:	fffaca93          	not	s5,s5
10008e68:	013af9b3          	and	s3,s5,s3
10008e6c:	f1dff06f          	j	10008d88 <floor+0xac>
10008e70:	00141993          	slli	s3,s0,0x1
10008e74:	0019d993          	srli	s3,s3,0x1
10008e78:	0099e9b3          	or	s3,s3,s1
10008e7c:	80000a37          	lui	s4,0x80000
10008e80:	f00984e3          	beqz	s3,10008d88 <floor+0xac>
10008e84:	00000993          	li	s3,0
10008e88:	bff00a37          	lui	s4,0xbff00
10008e8c:	efdff06f          	j	10008d88 <floor+0xac>
10008e90:	01400793          	li	a5,20
10008e94:	00f90e63          	beq	s2,a5,10008eb0 <floor+0x1d4>
10008e98:	03400793          	li	a5,52
10008e9c:	412787b3          	sub	a5,a5,s2
10008ea0:	00100993          	li	s3,1
10008ea4:	00f999b3          	sll	s3,s3,a5
10008ea8:	009989b3          	add	s3,s3,s1
10008eac:	fa99fce3          	bgeu	s3,s1,10008e64 <floor+0x188>
10008eb0:	00140a13          	addi	s4,s0,1
10008eb4:	fb1ff06f          	j	10008e64 <floor+0x188>

10008eb8 <scalbn>:
10008eb8:	ff010113          	addi	sp,sp,-16
10008ebc:	4145d793          	srai	a5,a1,0x14
10008ec0:	00812423          	sw	s0,8(sp)
10008ec4:	00112623          	sw	ra,12(sp)
10008ec8:	7ff7f793          	andi	a5,a5,2047
10008ecc:	00060413          	mv	s0,a2
10008ed0:	0a079063          	bnez	a5,10008f70 <scalbn+0xb8>
10008ed4:	00159793          	slli	a5,a1,0x1
10008ed8:	0017d793          	srli	a5,a5,0x1
10008edc:	00a7e7b3          	or	a5,a5,a0
10008ee0:	10078463          	beqz	a5,10008fe8 <scalbn+0x130>
10008ee4:	1000a7b7          	lui	a5,0x1000a
10008ee8:	3047a683          	lw	a3,772(a5) # 1000a304 <_global_impure_ptr+0x188>
10008eec:	3007a603          	lw	a2,768(a5)
10008ef0:	b14f80ef          	jal	ra,10001204 <__muldf3>
10008ef4:	ffff46b7          	lui	a3,0xffff4
10008ef8:	cb068693          	addi	a3,a3,-848 # ffff3cb0 <__BSS_END__$+0xeffe9868>
10008efc:	00050793          	mv	a5,a0
10008f00:	00058713          	mv	a4,a1
10008f04:	14d44a63          	blt	s0,a3,10009058 <scalbn+0x1a0>
10008f08:	4145d793          	srai	a5,a1,0x14
10008f0c:	7ff7f793          	andi	a5,a5,2047
10008f10:	fca78793          	addi	a5,a5,-54
10008f14:	00f40633          	add	a2,s0,a5
10008f18:	7fe00793          	li	a5,2046
10008f1c:	08c7c263          	blt	a5,a2,10008fa0 <scalbn+0xe8>
10008f20:	10c04663          	bgtz	a2,1000902c <scalbn+0x174>
10008f24:	fcb00793          	li	a5,-53
10008f28:	0cf64c63          	blt	a2,a5,10009000 <scalbn+0x148>
10008f2c:	801006b7          	lui	a3,0x80100
10008f30:	03660793          	addi	a5,a2,54 # 80000036 <__BSS_END__$+0x6fff5bee>
10008f34:	fff68693          	addi	a3,a3,-1 # 800fffff <__BSS_END__$+0x700f5bb7>
10008f38:	00d77733          	and	a4,a4,a3
10008f3c:	01479793          	slli	a5,a5,0x14
10008f40:	00e7e7b3          	or	a5,a5,a4
10008f44:	1000a737          	lui	a4,0x1000a
10008f48:	32072603          	lw	a2,800(a4) # 1000a320 <_global_impure_ptr+0x1a4>
10008f4c:	32472683          	lw	a3,804(a4)
10008f50:	00078593          	mv	a1,a5
10008f54:	ab0f80ef          	jal	ra,10001204 <__muldf3>
10008f58:	00c12083          	lw	ra,12(sp)
10008f5c:	00812403          	lw	s0,8(sp)
10008f60:	00050793          	mv	a5,a0
10008f64:	00078513          	mv	a0,a5
10008f68:	01010113          	addi	sp,sp,16
10008f6c:	00008067          	ret
10008f70:	7ff00693          	li	a3,2047
10008f74:	00058713          	mv	a4,a1
10008f78:	f8d79ee3          	bne	a5,a3,10008f14 <scalbn+0x5c>
10008f7c:	00050613          	mv	a2,a0
10008f80:	00058693          	mv	a3,a1
10008f84:	9b8f70ef          	jal	ra,1000013c <__adddf3>
10008f88:	00c12083          	lw	ra,12(sp)
10008f8c:	00812403          	lw	s0,8(sp)
10008f90:	00050793          	mv	a5,a0
10008f94:	00078513          	mv	a0,a5
10008f98:	01010113          	addi	sp,sp,16
10008f9c:	00008067          	ret
10008fa0:	1000a7b7          	lui	a5,0x1000a
10008fa4:	2f87a803          	lw	a6,760(a5) # 1000a2f8 <_global_impure_ptr+0x17c>
10008fa8:	2fc7a883          	lw	a7,764(a5)
10008fac:	0005d863          	bgez	a1,10008fbc <scalbn+0x104>
10008fb0:	1000a737          	lui	a4,0x1000a
10008fb4:	31072803          	lw	a6,784(a4) # 1000a310 <_global_impure_ptr+0x194>
10008fb8:	31472883          	lw	a7,788(a4)
10008fbc:	2f87a603          	lw	a2,760(a5)
10008fc0:	2fc7a683          	lw	a3,764(a5)
10008fc4:	00080513          	mv	a0,a6
10008fc8:	00088593          	mv	a1,a7
10008fcc:	a38f80ef          	jal	ra,10001204 <__muldf3>
10008fd0:	00050793          	mv	a5,a0
10008fd4:	00c12083          	lw	ra,12(sp)
10008fd8:	00812403          	lw	s0,8(sp)
10008fdc:	00078513          	mv	a0,a5
10008fe0:	01010113          	addi	sp,sp,16
10008fe4:	00008067          	ret
10008fe8:	00c12083          	lw	ra,12(sp)
10008fec:	00812403          	lw	s0,8(sp)
10008ff0:	00050793          	mv	a5,a0
10008ff4:	00078513          	mv	a0,a5
10008ff8:	01010113          	addi	sp,sp,16
10008ffc:	00008067          	ret
10009000:	1000a7b7          	lui	a5,0x1000a
10009004:	3087a803          	lw	a6,776(a5) # 1000a308 <_global_impure_ptr+0x18c>
10009008:	30c7a883          	lw	a7,780(a5)
1000900c:	0605ce63          	bltz	a1,10009088 <scalbn+0x1d0>
10009010:	3087a603          	lw	a2,776(a5)
10009014:	30c7a683          	lw	a3,780(a5)
10009018:	00080513          	mv	a0,a6
1000901c:	00088593          	mv	a1,a7
10009020:	9e4f80ef          	jal	ra,10001204 <__muldf3>
10009024:	00050793          	mv	a5,a0
10009028:	fadff06f          	j	10008fd4 <scalbn+0x11c>
1000902c:	00c12083          	lw	ra,12(sp)
10009030:	00812403          	lw	s0,8(sp)
10009034:	801007b7          	lui	a5,0x80100
10009038:	fff78793          	addi	a5,a5,-1 # 800fffff <__BSS_END__$+0x700f5bb7>
1000903c:	00f77733          	and	a4,a4,a5
10009040:	01461613          	slli	a2,a2,0x14
10009044:	00050793          	mv	a5,a0
10009048:	00e665b3          	or	a1,a2,a4
1000904c:	00078513          	mv	a0,a5
10009050:	01010113          	addi	sp,sp,16
10009054:	00008067          	ret
10009058:	1000a6b7          	lui	a3,0x1000a
1000905c:	3086a603          	lw	a2,776(a3) # 1000a308 <_global_impure_ptr+0x18c>
10009060:	30c6a683          	lw	a3,780(a3)
10009064:	00078513          	mv	a0,a5
10009068:	00070593          	mv	a1,a4
1000906c:	998f80ef          	jal	ra,10001204 <__muldf3>
10009070:	00c12083          	lw	ra,12(sp)
10009074:	00812403          	lw	s0,8(sp)
10009078:	00050793          	mv	a5,a0
1000907c:	00078513          	mv	a0,a5
10009080:	01010113          	addi	sp,sp,16
10009084:	00008067          	ret
10009088:	1000a737          	lui	a4,0x1000a
1000908c:	31872803          	lw	a6,792(a4) # 1000a318 <_global_impure_ptr+0x19c>
10009090:	31c72883          	lw	a7,796(a4)
10009094:	f7dff06f          	j	10009010 <scalbn+0x158>

10009098 <fabsf>:
10009098:	00151513          	slli	a0,a0,0x1
1000909c:	00155513          	srli	a0,a0,0x1
100090a0:	00008067          	ret

100090a4 <finitef>:
100090a4:	00151513          	slli	a0,a0,0x1
100090a8:	7f8007b7          	lui	a5,0x7f800
100090ac:	00155513          	srli	a0,a0,0x1
100090b0:	00f52533          	slt	a0,a0,a5
100090b4:	00008067          	ret

100090b8 <scalbnf>:
100090b8:	00151693          	slli	a3,a0,0x1
100090bc:	00050793          	mv	a5,a0
100090c0:	0a068063          	beqz	a3,10009160 <scalbnf+0xa8>
100090c4:	ff010113          	addi	sp,sp,-16
100090c8:	0016d713          	srli	a4,a3,0x1
100090cc:	00112623          	sw	ra,12(sp)
100090d0:	00812423          	sw	s0,8(sp)
100090d4:	7f8006b7          	lui	a3,0x7f800
100090d8:	06d77863          	bgeu	a4,a3,10009148 <scalbnf+0x90>
100090dc:	00d57633          	and	a2,a0,a3
100090e0:	00058413          	mv	s0,a1
100090e4:	08061063          	bnez	a2,10009164 <scalbnf+0xac>
100090e8:	1000a7b7          	lui	a5,0x1000a
100090ec:	3287a583          	lw	a1,808(a5) # 1000a328 <_global_impure_ptr+0x1ac>
100090f0:	afdf90ef          	jal	ra,10002bec <__mulsf3>
100090f4:	ffff4737          	lui	a4,0xffff4
100090f8:	cb070713          	addi	a4,a4,-848 # ffff3cb0 <__BSS_END__$+0xeffe9868>
100090fc:	00050793          	mv	a5,a0
10009100:	0ce44663          	blt	s0,a4,100091cc <scalbnf+0x114>
10009104:	41755713          	srai	a4,a0,0x17
10009108:	0ff77713          	zext.b	a4,a4
1000910c:	fe770713          	addi	a4,a4,-25
10009110:	008705b3          	add	a1,a4,s0
10009114:	0fe00713          	li	a4,254
10009118:	04b75e63          	bge	a4,a1,10009174 <scalbnf+0xbc>
1000911c:	1000a737          	lui	a4,0x1000a
10009120:	33072503          	lw	a0,816(a4) # 1000a330 <_global_impure_ptr+0x1b4>
10009124:	0007d663          	bgez	a5,10009130 <scalbnf+0x78>
10009128:	1000a7b7          	lui	a5,0x1000a
1000912c:	3347a503          	lw	a0,820(a5) # 1000a334 <_global_impure_ptr+0x1b8>
10009130:	33072583          	lw	a1,816(a4)
10009134:	ab9f90ef          	jal	ra,10002bec <__mulsf3>
10009138:	00c12083          	lw	ra,12(sp)
1000913c:	00812403          	lw	s0,8(sp)
10009140:	01010113          	addi	sp,sp,16
10009144:	00008067          	ret
10009148:	00050593          	mv	a1,a0
1000914c:	8f0f90ef          	jal	ra,1000223c <__addsf3>
10009150:	00c12083          	lw	ra,12(sp)
10009154:	00812403          	lw	s0,8(sp)
10009158:	01010113          	addi	sp,sp,16
1000915c:	00008067          	ret
10009160:	00008067          	ret
10009164:	01775713          	srli	a4,a4,0x17
10009168:	008705b3          	add	a1,a4,s0
1000916c:	0fe00713          	li	a4,254
10009170:	fab746e3          	blt	a4,a1,1000911c <scalbnf+0x64>
10009174:	02b04a63          	bgtz	a1,100091a8 <scalbnf+0xf0>
10009178:	fea00713          	li	a4,-22
1000917c:	06e5c063          	blt	a1,a4,100091dc <scalbnf+0x124>
10009180:	1000a7b7          	lui	a5,0x1000a
10009184:	01958713          	addi	a4,a1,25 # 3e300019 <__BSS_END__$+0x2e2f5bd1>
10009188:	33c7a583          	lw	a1,828(a5) # 1000a33c <_global_impure_ptr+0x1c0>
1000918c:	808007b7          	lui	a5,0x80800
10009190:	fff78793          	addi	a5,a5,-1 # 807fffff <__BSS_END__$+0x707f5bb7>
10009194:	01771713          	slli	a4,a4,0x17
10009198:	00f57533          	and	a0,a0,a5
1000919c:	00a76533          	or	a0,a4,a0
100091a0:	a4df90ef          	jal	ra,10002bec <__mulsf3>
100091a4:	fadff06f          	j	10009150 <scalbnf+0x98>
100091a8:	00c12083          	lw	ra,12(sp)
100091ac:	00812403          	lw	s0,8(sp)
100091b0:	808007b7          	lui	a5,0x80800
100091b4:	fff78793          	addi	a5,a5,-1 # 807fffff <__BSS_END__$+0x707f5bb7>
100091b8:	01759593          	slli	a1,a1,0x17
100091bc:	00f57533          	and	a0,a0,a5
100091c0:	00a5e533          	or	a0,a1,a0
100091c4:	01010113          	addi	sp,sp,16
100091c8:	00008067          	ret
100091cc:	1000a7b7          	lui	a5,0x1000a
100091d0:	32c7a583          	lw	a1,812(a5) # 1000a32c <_global_impure_ptr+0x1b0>
100091d4:	a19f90ef          	jal	ra,10002bec <__mulsf3>
100091d8:	f79ff06f          	j	10009150 <scalbnf+0x98>
100091dc:	1000a737          	lui	a4,0x1000a
100091e0:	32c72503          	lw	a0,812(a4) # 1000a32c <_global_impure_ptr+0x1b0>
100091e4:	0007d663          	bgez	a5,100091f0 <scalbnf+0x138>
100091e8:	1000a7b7          	lui	a5,0x1000a
100091ec:	3387a503          	lw	a0,824(a5) # 1000a338 <_global_impure_ptr+0x1bc>
100091f0:	32c72583          	lw	a1,812(a4)
100091f4:	9f9f90ef          	jal	ra,10002bec <__mulsf3>
100091f8:	f59ff06f          	j	10009150 <scalbnf+0x98>

Disassembly of section .rodata:

10009200 <__clz_tab-0x78>:
10009200:	10d4                	.2byte	0x10d4
10009202:	1000                	.2byte	0x1000
10009204:	0b90                	.2byte	0xb90
10009206:	1000                	.2byte	0x1000
10009208:	0ffc                	.2byte	0xffc
1000920a:	1000                	.2byte	0x1000
1000920c:	0b90                	.2byte	0xb90
1000920e:	1000                	.2byte	0x1000
10009210:	10c0                	.2byte	0x10c0
10009212:	1000                	.2byte	0x1000
10009214:	0b90                	.2byte	0xb90
10009216:	1000                	.2byte	0x1000
10009218:	0ffc                	.2byte	0xffc
1000921a:	1000                	.2byte	0x1000
1000921c:	10d4                	.2byte	0x10d4
1000921e:	1000                	.2byte	0x1000
10009220:	10d4                	.2byte	0x10d4
10009222:	1000                	.2byte	0x1000
10009224:	10c0                	.2byte	0x10c0
10009226:	1000                	.2byte	0x1000
10009228:	0ffc                	.2byte	0xffc
1000922a:	1000                	.2byte	0x1000
1000922c:	0b6c                	.2byte	0xb6c
1000922e:	1000                	.2byte	0x1000
10009230:	0b6c                	.2byte	0xb6c
10009232:	1000                	.2byte	0x1000
10009234:	0b6c                	.2byte	0xb6c
10009236:	1000                	.2byte	0x1000
10009238:	10c0                	.2byte	0x10c0
1000923a:	1000                	.2byte	0x1000
1000923c:	2a28                	.2byte	0x2a28
1000923e:	1000                	.2byte	0x1000
10009240:	281c                	.2byte	0x281c
10009242:	1000                	.2byte	0x1000
10009244:	29ac                	.2byte	0x29ac
10009246:	1000                	.2byte	0x1000
10009248:	281c                	.2byte	0x281c
1000924a:	1000                	.2byte	0x1000
1000924c:	2a18                	.2byte	0x2a18
1000924e:	1000                	.2byte	0x1000
10009250:	281c                	.2byte	0x281c
10009252:	1000                	.2byte	0x1000
10009254:	29ac                	.2byte	0x29ac
10009256:	1000                	.2byte	0x1000
10009258:	2a28                	.2byte	0x2a28
1000925a:	1000                	.2byte	0x1000
1000925c:	2a28                	.2byte	0x2a28
1000925e:	1000                	.2byte	0x1000
10009260:	2a18                	.2byte	0x2a18
10009262:	1000                	.2byte	0x1000
10009264:	29ac                	.2byte	0x29ac
10009266:	1000                	.2byte	0x1000
10009268:	27f8                	.2byte	0x27f8
1000926a:	1000                	.2byte	0x1000
1000926c:	27f8                	.2byte	0x27f8
1000926e:	1000                	.2byte	0x1000
10009270:	27f8                	.2byte	0x27f8
10009272:	1000                	.2byte	0x1000
10009274:	2a18                	.2byte	0x2a18
10009276:	1000                	.2byte	0x1000

10009278 <__clz_tab>:
10009278:	0100                	.2byte	0x100
1000927a:	0202                	.2byte	0x202
1000927c:	03030303          	lb	t1,48(t1)
10009280:	0404                	.2byte	0x404
10009282:	0404                	.2byte	0x404
10009284:	0404                	.2byte	0x404
10009286:	0404                	.2byte	0x404
10009288:	0505                	.2byte	0x505
1000928a:	0505                	.2byte	0x505
1000928c:	0505                	.2byte	0x505
1000928e:	0505                	.2byte	0x505
10009290:	0505                	.2byte	0x505
10009292:	0505                	.2byte	0x505
10009294:	0505                	.2byte	0x505
10009296:	0505                	.2byte	0x505
10009298:	0606                	.2byte	0x606
1000929a:	0606                	.2byte	0x606
1000929c:	0606                	.2byte	0x606
1000929e:	0606                	.2byte	0x606
100092a0:	0606                	.2byte	0x606
100092a2:	0606                	.2byte	0x606
100092a4:	0606                	.2byte	0x606
100092a6:	0606                	.2byte	0x606
100092a8:	0606                	.2byte	0x606
100092aa:	0606                	.2byte	0x606
100092ac:	0606                	.2byte	0x606
100092ae:	0606                	.2byte	0x606
100092b0:	0606                	.2byte	0x606
100092b2:	0606                	.2byte	0x606
100092b4:	0606                	.2byte	0x606
100092b6:	0606                	.2byte	0x606
100092b8:	07070707          	.4byte	0x7070707
100092bc:	07070707          	.4byte	0x7070707
100092c0:	07070707          	.4byte	0x7070707
100092c4:	07070707          	.4byte	0x7070707
100092c8:	07070707          	.4byte	0x7070707
100092cc:	07070707          	.4byte	0x7070707
100092d0:	07070707          	.4byte	0x7070707
100092d4:	07070707          	.4byte	0x7070707
100092d8:	07070707          	.4byte	0x7070707
100092dc:	07070707          	.4byte	0x7070707
100092e0:	07070707          	.4byte	0x7070707
100092e4:	07070707          	.4byte	0x7070707
100092e8:	07070707          	.4byte	0x7070707
100092ec:	07070707          	.4byte	0x7070707
100092f0:	07070707          	.4byte	0x7070707
100092f4:	07070707          	.4byte	0x7070707
100092f8:	0808                	.2byte	0x808
100092fa:	0808                	.2byte	0x808
100092fc:	0808                	.2byte	0x808
100092fe:	0808                	.2byte	0x808
10009300:	0808                	.2byte	0x808
10009302:	0808                	.2byte	0x808
10009304:	0808                	.2byte	0x808
10009306:	0808                	.2byte	0x808
10009308:	0808                	.2byte	0x808
1000930a:	0808                	.2byte	0x808
1000930c:	0808                	.2byte	0x808
1000930e:	0808                	.2byte	0x808
10009310:	0808                	.2byte	0x808
10009312:	0808                	.2byte	0x808
10009314:	0808                	.2byte	0x808
10009316:	0808                	.2byte	0x808
10009318:	0808                	.2byte	0x808
1000931a:	0808                	.2byte	0x808
1000931c:	0808                	.2byte	0x808
1000931e:	0808                	.2byte	0x808
10009320:	0808                	.2byte	0x808
10009322:	0808                	.2byte	0x808
10009324:	0808                	.2byte	0x808
10009326:	0808                	.2byte	0x808
10009328:	0808                	.2byte	0x808
1000932a:	0808                	.2byte	0x808
1000932c:	0808                	.2byte	0x808
1000932e:	0808                	.2byte	0x808
10009330:	0808                	.2byte	0x808
10009332:	0808                	.2byte	0x808
10009334:	0808                	.2byte	0x808
10009336:	0808                	.2byte	0x808
10009338:	0808                	.2byte	0x808
1000933a:	0808                	.2byte	0x808
1000933c:	0808                	.2byte	0x808
1000933e:	0808                	.2byte	0x808
10009340:	0808                	.2byte	0x808
10009342:	0808                	.2byte	0x808
10009344:	0808                	.2byte	0x808
10009346:	0808                	.2byte	0x808
10009348:	0808                	.2byte	0x808
1000934a:	0808                	.2byte	0x808
1000934c:	0808                	.2byte	0x808
1000934e:	0808                	.2byte	0x808
10009350:	0808                	.2byte	0x808
10009352:	0808                	.2byte	0x808
10009354:	0808                	.2byte	0x808
10009356:	0808                	.2byte	0x808
10009358:	0808                	.2byte	0x808
1000935a:	0808                	.2byte	0x808
1000935c:	0808                	.2byte	0x808
1000935e:	0808                	.2byte	0x808
10009360:	0808                	.2byte	0x808
10009362:	0808                	.2byte	0x808
10009364:	0808                	.2byte	0x808
10009366:	0808                	.2byte	0x808
10009368:	0808                	.2byte	0x808
1000936a:	0808                	.2byte	0x808
1000936c:	0808                	.2byte	0x808
1000936e:	0808                	.2byte	0x808
10009370:	0808                	.2byte	0x808
10009372:	0808                	.2byte	0x808
10009374:	0808                	.2byte	0x808
10009376:	0808                	.2byte	0x808
10009378:	38345b1b          	.4byte	0x38345b1b
1000937c:	003b323b          	.4byte	0x3b323b
10009380:	0000003b          	.4byte	0x3b
10009384:	206d                	.2byte	0x206d
10009386:	0000                	.2byte	0x0
10009388:	38345b1b          	.4byte	0x38345b1b
1000938c:	303b323b          	.4byte	0x303b323b
10009390:	303b303b          	.4byte	0x303b303b
10009394:	006d                	.2byte	0x6d
10009396:	0000                	.2byte	0x0
10009398:	6170                	.2byte	0x6170
1000939a:	64657373          	csrrci	t1,0x646,10
1000939e:	2820                	.2byte	0x2820
100093a0:	0000                	.2byte	0x0
100093a2:	0000                	.2byte	0x0
100093a4:	6166                	.2byte	0x6166
100093a6:	6c69                	.2byte	0x6c69
100093a8:	6465                	.2byte	0x6465
100093aa:	2820                	.2byte	0x2820
100093ac:	0000                	.2byte	0x0
100093ae:	0000                	.2byte	0x0
100093b0:	61656c43          	.4byte	0x61656c43
100093b4:	6972                	.2byte	0x6972
100093b6:	676e                	.2byte	0x676e
100093b8:	6520                	.2byte	0x6520
100093ba:	7478                	.2byte	0x7478
100093bc:	6e65                	.2byte	0x6e65
100093be:	6564                	.2byte	0x6564
100093c0:	2064                	.2byte	0x2064
100093c2:	656d                	.2byte	0x656d
100093c4:	6f6d                	.2byte	0x6f6d
100093c6:	7972                	.2byte	0x7972
100093c8:	000a                	.2byte	0xa
100093ca:	0000                	.2byte	0x0
100093cc:	2d0a                	.2byte	0x2d0a
100093ce:	2d2d                	.2byte	0x2d2d
100093d0:	2d2d                	.2byte	0x2d2d
100093d2:	2d2d                	.2byte	0x2d2d
100093d4:	2d2d                	.2byte	0x2d2d
100093d6:	2d2d                	.2byte	0x2d2d
100093d8:	2d2d                	.2byte	0x2d2d
100093da:	654d                	.2byte	0x654d
100093dc:	546d                	.2byte	0x546d
100093de:	7365                	.2byte	0x7365
100093e0:	2d74                	.2byte	0x2d74
100093e2:	2d2d                	.2byte	0x2d2d
100093e4:	2d2d                	.2byte	0x2d2d
100093e6:	2d2d                	.2byte	0x2d2d
100093e8:	2d2d                	.2byte	0x2d2d
100093ea:	2d2d                	.2byte	0x2d2d
100093ec:	2d2d                	.2byte	0x2d2d
100093ee:	0a2d                	.2byte	0xa2d
100093f0:	0000                	.2byte	0x0
100093f2:	0000                	.2byte	0x0
100093f4:	79706f43          	.4byte	0x79706f43
100093f8:	6972                	.2byte	0x6972
100093fa:	20746867          	.4byte	0x20746867
100093fe:	6328                	.2byte	0x6328
10009400:	2029                	.2byte	0x2029
10009402:	3032                	.2byte	0x3032
10009404:	3030                	.2byte	0x3030
10009406:	6220                	.2byte	0x6220
10009408:	2079                	.2byte	0x2079
1000940a:	694d                	.2byte	0x694d
1000940c:	65616863          	bltu	sp,s6,10009a5c <_etext+0x1d4>
10009410:	206c                	.2byte	0x206c
10009412:	6142                	.2byte	0x6142
10009414:	7272                	.2byte	0x7272
10009416:	000a                	.2byte	0xa
10009418:	2d2d                	.2byte	0x2d2d
1000941a:	2d2d                	.2byte	0x2d2d
1000941c:	2d2d                	.2byte	0x2d2d
1000941e:	2d2d                	.2byte	0x2d2d
10009420:	2d2d                	.2byte	0x2d2d
10009422:	2d2d                	.2byte	0x2d2d
10009424:	2d2d                	.2byte	0x2d2d
10009426:	2d2d                	.2byte	0x2d2d
10009428:	2d2d                	.2byte	0x2d2d
1000942a:	2d2d                	.2byte	0x2d2d
1000942c:	2d2d                	.2byte	0x2d2d
1000942e:	2d2d                	.2byte	0x2d2d
10009430:	2d2d                	.2byte	0x2d2d
10009432:	2d2d                	.2byte	0x2d2d
10009434:	2d2d                	.2byte	0x2d2d
10009436:	2d2d                	.2byte	0x2d2d
10009438:	2d2d                	.2byte	0x2d2d
1000943a:	000a                	.2byte	0xa
1000943c:	6144                	.2byte	0x6144
1000943e:	6174                	.2byte	0x6174
10009440:	6220                	.2byte	0x6220
10009442:	7375                	.2byte	0x7375
10009444:	7420                	.2byte	0x7420
10009446:	7365                	.2byte	0x7365
10009448:	2074                	.2byte	0x2074
1000944a:	3028                	.2byte	0x3028
1000944c:	3078                	.2byte	0x3078
1000944e:	3041                	.2byte	0x3041
10009450:	3030                	.2byte	0x3030
10009452:	3030                	.2byte	0x3030
10009454:	2d30                	.2byte	0x2d30
10009456:	7830                	.2byte	0x7830
10009458:	4130                	.2byte	0x4130
1000945a:	3330                	.2byte	0x3330
1000945c:	4646                	.2byte	0x4646
1000945e:	4646                	.2byte	0x4646
10009460:	2e29                	.2byte	0x2e29
10009462:	2e2e                	.2byte	0x2e2e
10009464:	0000                	.2byte	0x0
10009466:	0000                	.2byte	0x0
10009468:	6620                	.2byte	0x6620
1000946a:	6961                	.2byte	0x6961
1000946c:	756c                	.2byte	0x756c
1000946e:	6572                	.2byte	0x6572
10009470:	000a2973          	csrrs	s2,ustatus,s4
10009474:	6441                	.2byte	0x6441
10009476:	7264                	.2byte	0x7264
10009478:	7365                	.2byte	0x7365
1000947a:	75622073          	csrs	0x756,tp
1000947e:	65742073          	csrs	0x657,s0
10009482:	28207473          	csrrci	s0,0x282,0
10009486:	7830                	.2byte	0x7830
10009488:	4230                	.2byte	0x4230
1000948a:	3030                	.2byte	0x3030
1000948c:	3030                	.2byte	0x3030
1000948e:	3030                	.2byte	0x3030
10009490:	302d                	.2byte	0x302d
10009492:	3078                	.2byte	0x3078
10009494:	3042                	.2byte	0x3042
10009496:	46464633          	.4byte	0x46464633
1000949a:	2946                	.2byte	0x2946
1000949c:	2e2e                	.2byte	0x2e2e
1000949e:	002e                	.2byte	0x2e
100094a0:	6170                	.2byte	0x6170
100094a2:	64657373          	csrrci	t1,0x646,10
100094a6:	000a                	.2byte	0xa
100094a8:	6166                	.2byte	0x6166
100094aa:	6c69                	.2byte	0x6c69
100094ac:	6465                	.2byte	0x6465
100094ae:	000a                	.2byte	0xa
100094b0:	6552                	.2byte	0x6552
100094b2:	7361                	.2byte	0x7361
100094b4:	203a6e6f          	jal	t3,100afeb6 <__BSS_END__$+0xa5a6e>
100094b8:	6441                	.2byte	0x6441
100094ba:	7264                	.2byte	0x7264
100094bc:	7365                	.2byte	0x7365
100094be:	69622073          	csrs	0x696,tp
100094c2:	2074                	.2byte	0x2074
100094c4:	63757473          	csrrci	s0,0x637,10
100094c8:	6968206b          	.4byte	0x6968206b
100094cc:	61206867          	.4byte	0x61206867
100094d0:	2074                	.2byte	0x2074
100094d2:	7830                	.2byte	0x7830
100094d4:	0000                	.2byte	0x0
100094d6:	0000                	.2byte	0x0
100094d8:	6552                	.2byte	0x6552
100094da:	7361                	.2byte	0x7361
100094dc:	203a6e6f          	jal	t3,100afede <__BSS_END__$+0xa5a96>
100094e0:	6441                	.2byte	0x6441
100094e2:	7264                	.2byte	0x7264
100094e4:	7365                	.2byte	0x7365
100094e6:	69622073          	csrs	0x696,tp
100094ea:	2074                	.2byte	0x2074
100094ec:	63757473          	csrrci	s0,0x637,10
100094f0:	6f6c206b          	.4byte	0x6f6c206b
100094f4:	74612077          	.4byte	0x74612077
100094f8:	3020                	.2byte	0x3020
100094fa:	0078                	.2byte	0x78
100094fc:	6552                	.2byte	0x6552
100094fe:	7361                	.2byte	0x7361
10009500:	203a6e6f          	jal	t3,100aff02 <__BSS_END__$+0xa5aba>
10009504:	6441                	.2byte	0x6441
10009506:	7264                	.2byte	0x7264
10009508:	7365                	.2byte	0x7365
1000950a:	69622073          	csrs	0x696,tp
1000950e:	2074                	.2byte	0x2074
10009510:	726f6873          	csrrsi	a6,mhpmevent6h,30
10009514:	6574                	.2byte	0x6574
10009516:	2064                	.2byte	0x2064
10009518:	7461                	.2byte	0x7461
1000951a:	3020                	.2byte	0x3020
1000951c:	0078                	.2byte	0x78
1000951e:	0000                	.2byte	0x0
10009520:	654d                	.2byte	0x654d
10009522:	6f6d                	.2byte	0x6f6d
10009524:	7972                	.2byte	0x7972
10009526:	6420                	.2byte	0x6420
10009528:	7665                	.2byte	0x7665
1000952a:	6369                	.2byte	0x6369
1000952c:	2065                	.2byte	0x2065
1000952e:	6574                	.2byte	0x6574
10009530:	28207473          	csrrci	s0,0x282,0
10009534:	7830                	.2byte	0x7830
10009536:	4330                	.2byte	0x4330
10009538:	3030                	.2byte	0x3030
1000953a:	3030                	.2byte	0x3030
1000953c:	3030                	.2byte	0x3030
1000953e:	302d                	.2byte	0x302d
10009540:	3078                	.2byte	0x3078
10009542:	46333043          	.4byte	0x46333043
10009546:	4646                	.2byte	0x4646
10009548:	2946                	.2byte	0x2946
1000954a:	2e2e                	.2byte	0x2e2e
1000954c:	002e                	.2byte	0x2e
1000954e:	0000                	.2byte	0x0
10009550:	6552                	.2byte	0x6552
10009552:	7361                	.2byte	0x7361
10009554:	203a6e6f          	jal	t3,100aff56 <__BSS_END__$+0xa5b0e>
10009558:	6e69                	.2byte	0x6e69
1000955a:	72726f63          	bltu	tp,t2,10009c98 <_etext+0x410>
1000955e:	6365                	.2byte	0x6365
10009560:	2074                	.2byte	0x2074
10009562:	6176                	.2byte	0x6176
10009564:	756c                	.2byte	0x756c
10009566:	2065                	.2byte	0x2065
10009568:	6572                	.2byte	0x6572
1000956a:	6461                	.2byte	0x6461
1000956c:	6120                	.2byte	0x6120
1000956e:	2074                	.2byte	0x2074
10009570:	7830                	.2byte	0x7830
10009572:	0000                	.2byte	0x0
10009574:	654d                	.2byte	0x654d
10009576:	6f6d                	.2byte	0x6f6d
10009578:	7972                	.2byte	0x7972
1000957a:	6420                	.2byte	0x6420
1000957c:	7665                	.2byte	0x7665
1000957e:	6369                	.2byte	0x6369
10009580:	2065                	.2byte	0x2065
10009582:	6f64                	.2byte	0x6f64
10009584:	7365                	.2byte	0x7365
10009586:	6e20                	.2byte	0x6e20
10009588:	6120746f          	jal	s0,10010b9a <__BSS_END__$+0x6752>
1000958c:	7070                	.2byte	0x7070
1000958e:	6165                	.2byte	0x6165
10009590:	2072                	.2byte	0x2072
10009592:	6f74                	.2byte	0x6f74
10009594:	6220                	.2byte	0x6220
10009596:	2065                	.2byte	0x2065
10009598:	6b726f77          	.4byte	0x6b726f77
1000959c:	6e69                	.2byte	0x6e69
1000959e:	6f632067          	.4byte	0x6f632067
100095a2:	7272                	.2byte	0x7272
100095a4:	6365                	.2byte	0x6365
100095a6:	6c74                	.2byte	0x6c74
100095a8:	2e79                	.2byte	0x2e79
100095aa:	000a                	.2byte	0xa
100095ac:	0000                	.2byte	0x0
100095ae:	3f80                	.2byte	0x3f80
100095b0:	0000                	.2byte	0x0
100095b2:	437f                	.2byte	0x437f
100095b4:	0000                	.2byte	0x0
100095b6:	bf80                	.2byte	0xbf80
100095b8:	f2ca                	.2byte	0xf2ca
100095ba:	7149                	.2byte	0x7149
100095bc:	999a                	.2byte	0x999a
100095be:	3e99                	.2byte	0x3e99
100095c0:	cccd                	.2byte	0xcccd
100095c2:	3e4c                	.2byte	0x3e4c
100095c4:	cccd                	.2byte	0xcccd
100095c6:	3dcc                	.2byte	0x3dcc
100095c8:	0000                	.2byte	0x0
100095ca:	4080                	.2byte	0x4080
100095cc:	0000                	.2byte	0x0
100095ce:	4120                	.2byte	0x4120
100095d0:	0000                	.2byte	0x0
100095d2:	c120                	.2byte	0xc120
100095d4:	0000                	.2byte	0x0
100095d6:	c1f0                	.2byte	0xc1f0
100095d8:	0000                	.2byte	0x0
100095da:	447a                	.2byte	0x447a
100095dc:	3f333333          	.4byte	0x3f333333
100095e0:	0000                	.2byte	0x0
100095e2:	3f00                	.2byte	0x3f00
100095e4:	cccd                	.2byte	0xcccd
100095e6:	3f4c                	.2byte	0x3f4c
100095e8:	3a83126f          	jal	tp,1003a990 <__BSS_END__$+0x30548>
100095ec:	999a                	.2byte	0x999a
100095ee:	3f19                	.2byte	0x3f19
100095f0:	cccd                	.2byte	0xcccd
100095f2:	3ecc                	.2byte	0x3ecc
100095f4:	0000                	.2byte	0x0
100095f6:	4248                	.2byte	0x4248
100095f8:	0000                	.2byte	0x0
100095fa:	42fa                	.2byte	0x42fa
100095fc:	0000                	.2byte	0x0
100095fe:	3fc0                	.2byte	0x3fc0
10009600:	6666                	.2byte	0x6666
10009602:	3f66                	.2byte	0x3f66
10009604:	0000                	.2byte	0x0
10009606:	430e                	.2byte	0x430e
10009608:	0000                	.2byte	0x0
1000960a:	c040                	.2byte	0xc040
1000960c:	0000                	.2byte	0x0
1000960e:	c180                	.2byte	0xc180
10009610:	0000                	.2byte	0x0
10009612:	bfc0                	.2byte	0xbfc0
10009614:	0000                	.2byte	0x0
10009616:	c140                	.2byte	0xc140
10009618:	0000                	.2byte	0x0
1000961a:	bf00                	.2byte	0xbf00
1000961c:	0000                	.2byte	0x0
1000961e:	c190                	.2byte	0xc190
10009620:	0000                	.2byte	0x0
10009622:	4040                	.2byte	0x4040
10009624:	0000                	.2byte	0x0
10009626:	40e0                	.2byte	0x40e0
10009628:	0000                	.2byte	0x0
1000962a:	40a0                	.2byte	0x40a0
1000962c:	0000                	.2byte	0x0
1000962e:	c1a0                	.2byte	0xc1a0
10009630:	0000                	.2byte	0x0
10009632:	41a0                	.2byte	0x41a0
10009634:	0000                	.2byte	0x0
10009636:	41f0                	.2byte	0x41f0
10009638:	0000                	.2byte	0x0
1000963a:	c1c8                	.2byte	0xc1c8
1000963c:	6666                	.2byte	0x6666
1000963e:	3fe6                	.2byte	0x3fe6
10009640:	999a                	.2byte	0x999a
10009642:	3fd9                	.2byte	0x3fd9
10009644:	0000                	.2byte	0x0
10009646:	0000                	.2byte	0x0
10009648:	a9fc                	.2byte	0xa9fc
1000964a:	d2f1                	.2byte	0xd2f1
1000964c:	624d                	.2byte	0x624d
1000964e:	3f50                	.2byte	0x3f50
10009650:	0000                	.2byte	0x0
10009652:	0000                	.2byte	0x0
10009654:	0000                	.2byte	0x0
10009656:	3fe0                	.2byte	0x3fe0
10009658:	0000                	.2byte	0x0
1000965a:	0000                	.2byte	0x0
1000965c:	4000                	.2byte	0x4000
1000965e:	0000408f          	.4byte	0x408f
10009662:	0000                	.2byte	0x0
10009664:	0000                	.2byte	0x0
10009666:	3ff0                	.2byte	0x3ff0
10009668:	0000                	.2byte	0x0
1000966a:	4000                	.2byte	0x4000
1000966c:	c152                	.2byte	0xc152
1000966e:	3fe0                	.2byte	0x3fe0
10009670:	3130                	.2byte	0x3130
10009672:	3332                	.2byte	0x3332
10009674:	3534                	.2byte	0x3534
10009676:	3736                	.2byte	0x3736
10009678:	3938                	.2byte	0x3938
1000967a:	4241                	.2byte	0x4241
1000967c:	46454443          	.4byte	0x46454443
10009680:	0000                	.2byte	0x0
10009682:	0000                	.2byte	0x0
10009684:	2020                	.2byte	0x2020
10009686:	2020                	.2byte	0x2020
10009688:	2020                	.2byte	0x2020
1000968a:	2020                	.2byte	0x2020
1000968c:	0000                	.2byte	0x0
1000968e:	0000                	.2byte	0x0
10009690:	3130                	.2byte	0x3130
10009692:	3332                	.2byte	0x3332
10009694:	3534                	.2byte	0x3534
10009696:	3736                	.2byte	0x3736
10009698:	3938                	.2byte	0x3938
1000969a:	0000                	.2byte	0x0
1000969c:	2020                	.2byte	0x2020
1000969e:	2020                	.2byte	0x2020
100096a0:	2020                	.2byte	0x2020
100096a2:	2020                	.2byte	0x2020
100096a4:	2020                	.2byte	0x2020
100096a6:	2020                	.2byte	0x2020
100096a8:	2020                	.2byte	0x2020
100096aa:	2020                	.2byte	0x2020
100096ac:	2020                	.2byte	0x2020
100096ae:	0020                	.2byte	0x20

100096b0 <npio2_hw>:
100096b0:	3ff921fb          	.4byte	0x3ff921fb
100096b4:	400921fb          	.4byte	0x400921fb
100096b8:	d97c                	.2byte	0xd97c
100096ba:	4012                	.2byte	0x4012
100096bc:	401921fb          	.4byte	0x401921fb
100096c0:	6a7a                	.2byte	0x6a7a
100096c2:	401f d97c 4022      	.byte	0x1f, 0x40, 0x7c, 0xd9, 0x22, 0x40
100096c8:	4025fdbb          	.4byte	0x4025fdbb
100096cc:	402921fb          	.4byte	0x402921fb
100096d0:	463a                	.2byte	0x463a
100096d2:	402c                	.2byte	0x402c
100096d4:	6a7a                	.2byte	0x6a7a
100096d6:	475c402f          	.4byte	0x475c402f
100096da:	4031                	.2byte	0x4031
100096dc:	d97c                	.2byte	0xd97c
100096de:	4032                	.2byte	0x4032
100096e0:	6b9c                	.2byte	0x6b9c
100096e2:	4034                	.2byte	0x4034
100096e4:	4035fdbb          	.4byte	0x4035fdbb
100096e8:	40378fdb          	.4byte	0x40378fdb
100096ec:	403921fb          	.4byte	0x403921fb
100096f0:	403ab41b          	.4byte	0x403ab41b
100096f4:	463a                	.2byte	0x463a
100096f6:	403c                	.2byte	0x403c
100096f8:	d85a                	.2byte	0xd85a
100096fa:	403d                	.2byte	0x403d
100096fc:	6a7a                	.2byte	0x6a7a
100096fe:	7e4c403f 475c4040 	.8byte	0x475c40407e4c403f
10009706:	4041                	.2byte	0x4041
10009708:	106c                	.2byte	0x106c
1000970a:	4042                	.2byte	0x4042
1000970c:	d97c                	.2byte	0xd97c
1000970e:	4042                	.2byte	0x4042
10009710:	a28c                	.2byte	0xa28c
10009712:	6b9c4043          	.4byte	0x6b9c4043
10009716:	4044                	.2byte	0x4044
10009718:	34ac                	.2byte	0x34ac
1000971a:	4045                	.2byte	0x4045
1000971c:	4045fdbb          	.4byte	0x4045fdbb
10009720:	4046c6cb          	.4byte	0x4046c6cb
10009724:	40478fdb          	.4byte	0x40478fdb
10009728:	404858eb          	.4byte	0x404858eb
1000972c:	404921fb          	.4byte	0x404921fb

10009730 <two_over_pi>:
10009730:	00a2f983          	.4byte	0xa2f983
10009734:	4e44                	.2byte	0x4e44
10009736:	006e                	.2byte	0x6e
10009738:	29fc                	.2byte	0x29fc
1000973a:	0015                	.2byte	0x15
1000973c:	57d1                	.2byte	0x57d1
1000973e:	34dd0027          	.4byte	0x34dd0027
10009742:	00f5                	.2byte	0xf5
10009744:	db62                	.2byte	0xdb62
10009746:	00c0                	.2byte	0xc0
10009748:	993c                	.2byte	0x993c
1000974a:	0095                	.2byte	0x95
1000974c:	9041                	.2byte	0x9041
1000974e:	51630043          	.4byte	0x51630043
10009752:	00fe                	.2byte	0xfe
10009754:	00abdebb          	.4byte	0xabdebb
10009758:	00c561b7          	lui	gp,0xc56
1000975c:	6e3a                	.2byte	0x6e3a
1000975e:	0024                	.2byte	0x24
10009760:	4dd2                	.2byte	0x4dd2
10009762:	0042                	.2byte	0x42
10009764:	0649                	.2byte	0x649
10009766:	00e0                	.2byte	0xe0
10009768:	ea09                	.2byte	0xea09
1000976a:	002e                	.2byte	0x2e
1000976c:	921c                	.2byte	0x921c
1000976e:	00d1                	.2byte	0xd1
10009770:	00fe1deb          	.4byte	0xfe1deb
10009774:	b129                	.2byte	0xb129
10009776:	001c                	.2byte	0x1c
10009778:	3ee8                	.2byte	0x3ee8
1000977a:	35f500a7          	.4byte	0x35f500a7
1000977e:	0082                	.2byte	0x82
10009780:	bb44                	.2byte	0xbb44
10009782:	002e                	.2byte	0x2e
10009784:	e99c                	.2byte	0xe99c
10009786:	0084                	.2byte	0x84
10009788:	26b4                	.2byte	0x26b4
1000978a:	0070                	.2byte	0x70
1000978c:	7e41                	.2byte	0x7e41
1000978e:	005f 91d6 0039      	.byte	0x5f, 0x00, 0xd6, 0x91, 0x39, 0x00
10009794:	00398353          	.4byte	0x398353
10009798:	f49c                	.2byte	0xf49c
1000979a:	0039                	.2byte	0x39
1000979c:	00845f8b          	.4byte	0x845f8b
100097a0:	f928                	.2byte	0xf928
100097a2:	00bd                	.2byte	0xbd
100097a4:	1ff8                	.2byte	0x1ff8
100097a6:	ffde003b          	.4byte	0xffde003b
100097aa:	980f0097          	auipc	ra,0x980f0
100097ae:	0005                	.2byte	0x5
100097b0:	2f11                	.2byte	0x2f11
100097b2:	5a0a00ef          	jal	ra,100a9d52 <__BSS_END__$+0x9f90a>
100097b6:	1f6d008b          	.4byte	0x1f6d008b
100097ba:	006d                	.2byte	0x6d
100097bc:	00367ecf          	.4byte	0x367ecf
100097c0:	cb09                	.2byte	0xcb09
100097c2:	4f460027          	.4byte	0x4f460027
100097c6:	669e00b7          	lui	ra,0x669e0
100097ca:	ea2d003f 27ba005f 	.8byte	0x27ba005fea2d003f
100097d2:	0075                	.2byte	0x75
100097d4:	ebe5                	.2byte	0xebe5
100097d6:	7b3d00c7          	.4byte	0x7b3d00c7
100097da:	00f1                	.2byte	0xf1
100097dc:	000739f7          	.4byte	0x739f7
100097e0:	5292                	.2byte	0x5292
100097e2:	008a                	.2byte	0x8a
100097e4:	00ea6bfb          	.4byte	0xea6bfb
100097e8:	b11f 005f 5d08      	.byte	0x1f, 0xb1, 0x5f, 0x00, 0x08, 0x5d
100097ee:	008d                	.2byte	0x8d
100097f0:	0330                	.2byte	0x330
100097f2:	0056                	.2byte	0x56
100097f4:	0046fc7b          	.4byte	0x46fc7b
100097f8:	abf0                	.2byte	0xabf0
100097fa:	bc20006b          	.4byte	0xbc20006b
100097fe:	f43600cf          	.4byte	0xf43600cf
10009802:	009a                	.2byte	0x9a
10009804:	001da9e3          	.4byte	0x1da9e3
10009808:	615e                	.2byte	0x615e
1000980a:	0091                	.2byte	0x91
1000980c:	1b08                	.2byte	0x1b08
1000980e:	00e6                	.2byte	0xe6
10009810:	9985                	.2byte	0x9985
10009812:	0065                	.2byte	0x65
10009814:	14a0                	.2byte	0x14a0
10009816:	005f 408d 0068      	.byte	0x5f, 0x00, 0x8d, 0x40, 0x68, 0x00
1000981c:	d880                	.2byte	0xd880
1000981e:	00ff                	.2byte	0xff
10009820:	004d7327          	.4byte	0x4d7327
10009824:	0606                	.2byte	0x606
10009826:	0031                	.2byte	0x31
10009828:	56ca                	.2byte	0x56ca
1000982a:	0015                	.2byte	0x15
1000982c:	a8c9                	.2byte	0xa8c9
1000982e:	e27b0073          	.4byte	0xe27b0073
10009832:	0060                	.2byte	0x60
10009834:	00c08c6b          	.4byte	0xc08c6b

10009838 <PIo2>:
10009838:	0000                	.2byte	0x0
1000983a:	4000                	.2byte	0x4000
1000983c:	3ff921fb          	.4byte	0x3ff921fb
10009840:	0000                	.2byte	0x0
10009842:	0000                	.2byte	0x0
10009844:	442d                	.2byte	0x442d
10009846:	3e74                	.2byte	0x3e74
10009848:	0000                	.2byte	0x0
1000984a:	8000                	.2byte	0x8000
1000984c:	4698                	.2byte	0x4698
1000984e:	3cf8                	.2byte	0x3cf8
10009850:	0000                	.2byte	0x0
10009852:	6000                	.2byte	0x6000
10009854:	cc51                	.2byte	0xcc51
10009856:	3b78                	.2byte	0x3b78
10009858:	0000                	.2byte	0x0
1000985a:	8000                	.2byte	0x8000
1000985c:	39f01b83          	lh	s7,927(zero) # 39f <__stack_size+0x29f>
10009860:	0000                	.2byte	0x0
10009862:	4000                	.2byte	0x4000
10009864:	2520                	.2byte	0x2520
10009866:	387a                	.2byte	0x387a
10009868:	0000                	.2byte	0x0
1000986a:	8000                	.2byte	0x8000
1000986c:	8222                	.2byte	0x8222
1000986e:	000036e3          	.4byte	0x36e3
10009872:	0000                	.2byte	0x0
10009874:	f31d                	.2byte	0xf31d
10009876:	3569                	.2byte	0x3569

10009878 <init_jk>:
10009878:	0002                	.2byte	0x2
1000987a:	0000                	.2byte	0x0
1000987c:	00000003          	lb	zero,0(zero) # 0 <__stack_size-0x100>
10009880:	0004                	.2byte	0x4
10009882:	0000                	.2byte	0x0
10009884:	0006                	.2byte	0x6
	...

Disassembly of section .eh_frame:

10009888 <__fini_array_end>:
10009888:	0010                	.2byte	0x10
1000988a:	0000                	.2byte	0x0
1000988c:	0000                	.2byte	0x0
1000988e:	0000                	.2byte	0x0
10009890:	00527a03          	.4byte	0x527a03
10009894:	7c01                	.2byte	0x7c01
10009896:	0101                	.2byte	0x101
10009898:	00020d1b          	.4byte	0x20d1b
1000989c:	0030                	.2byte	0x30
1000989e:	0000                	.2byte	0x0
100098a0:	0018                	.2byte	0x18
100098a2:	0000                	.2byte	0x0
100098a4:	a1b0                	.2byte	0xa1b0
100098a6:	ffff                	.2byte	0xffff
100098a8:	00d8                	.2byte	0xd8
100098aa:	0000                	.2byte	0x0
100098ac:	4400                	.2byte	0x4400
100098ae:	200e                	.2byte	0x200e
100098b0:	9444                	.2byte	0x9444
100098b2:	4806                	.2byte	0x4806
100098b4:	884c0593          	addi	a1,s8,-1916
100098b8:	9202                	.2byte	0x9202
100098ba:	5804                	.2byte	0x5804
100098bc:	0181                	.2byte	0x181
100098be:	0389                	.2byte	0x389
100098c0:	8402                	.2byte	0x8402
100098c2:	48c1                	.2byte	0x48c1
100098c4:	44c8                	.2byte	0x44c8
100098c6:	44c9                	.2byte	0x44c9
100098c8:	44d2                	.2byte	0x44d2
100098ca:	44d444d3          	.4byte	0x44d444d3
100098ce:	000e                	.2byte	0xe
100098d0:	0010                	.2byte	0x10
100098d2:	0000                	.2byte	0x0
100098d4:	004c                	.2byte	0x4c
100098d6:	0000                	.2byte	0x0
100098d8:	6728                	.2byte	0x6728
100098da:	ffff                	.2byte	0xffff
100098dc:	005c                	.2byte	0x5c
100098de:	0000                	.2byte	0x0
100098e0:	0000                	.2byte	0x0
100098e2:	0000                	.2byte	0x0
100098e4:	0010                	.2byte	0x10
100098e6:	0000                	.2byte	0x0
100098e8:	0060                	.2byte	0x60
100098ea:	0000                	.2byte	0x0
100098ec:	6770                	.2byte	0x6770
100098ee:	ffff                	.2byte	0xffff
100098f0:	0004                	.2byte	0x4
100098f2:	0000                	.2byte	0x0
100098f4:	0000                	.2byte	0x0
100098f6:	0000                	.2byte	0x0
100098f8:	005c                	.2byte	0x5c
100098fa:	0000                	.2byte	0x0
100098fc:	0074                	.2byte	0x74
100098fe:	0000                	.2byte	0x0
10009900:	a22c                	.2byte	0xa22c
10009902:	ffff                	.2byte	0xffff
10009904:	01f8                	.2byte	0x1f8
10009906:	0000                	.2byte	0x0
10009908:	4400                	.2byte	0x4400
1000990a:	200e                	.2byte	0x200e
1000990c:	9344                	.2byte	0x9344
1000990e:	5005                	.2byte	0x5005
10009910:	0694                	.2byte	0x694
10009912:	0795                	.2byte	0x795
10009914:	8860                	.2byte	0x8860
10009916:	8902                	.2byte	0x8902
10009918:	81049203          	lh	tp,-2032(s1)
1000991c:	0201                	.2byte	0x201
1000991e:	0a98                	.2byte	0xa98
10009920:	48c8                	.2byte	0x48c8
10009922:	44c1                	.2byte	0x44c1
10009924:	44c9                	.2byte	0x44c9
10009926:	44d2                	.2byte	0x44d2
10009928:	48d544d3          	.4byte	0x48d544d3
1000992c:	48d4                	.2byte	0x48d4
1000992e:	000e                	.2byte	0xe
10009930:	0b44                	.2byte	0xb44
10009932:	b002                	.2byte	0xb002
10009934:	c80a                	.2byte	0xc80a
10009936:	c144                	.2byte	0xc144
10009938:	c944                	.2byte	0xc944
1000993a:	d244                	.2byte	0xd244
1000993c:	d344                	.2byte	0xd344
1000993e:	d444                	.2byte	0xd444
10009940:	d544                	.2byte	0xd544
10009942:	0e4c                	.2byte	0xe4c
10009944:	4400                	.2byte	0x4400
10009946:	44c1440b          	.4byte	0x44c1440b
1000994a:	44c8                	.2byte	0x44c8
1000994c:	44c9                	.2byte	0x44c9
1000994e:	44d2                	.2byte	0x44d2
10009950:	44d444d3          	.4byte	0x44d444d3
10009954:	44d5                	.2byte	0x44d5
10009956:	000e                	.2byte	0xe
10009958:	0024                	.2byte	0x24
1000995a:	0000                	.2byte	0x0
1000995c:	00d4                	.2byte	0xd4
1000995e:	0000                	.2byte	0x0
10009960:	a3c4                	.2byte	0xa3c4
10009962:	ffff                	.2byte	0xffff
10009964:	003c                	.2byte	0x3c
10009966:	0000                	.2byte	0x0
10009968:	4400                	.2byte	0x4400
1000996a:	100e                	.2byte	0x100e
1000996c:	8944                	.2byte	0x8944
1000996e:	02885003          	lhu	zero,40(a6)
10009972:	0181                	.2byte	0x181
10009974:	c14c                	.2byte	0xc14c
10009976:	c84c                	.2byte	0xc84c
10009978:	c944                	.2byte	0xc944
1000997a:	0e44                	.2byte	0xe44
1000997c:	0000                	.2byte	0x0
1000997e:	0000                	.2byte	0x0
10009980:	0028                	.2byte	0x28
10009982:	0000                	.2byte	0x0
10009984:	00fc                	.2byte	0xfc
10009986:	0000                	.2byte	0x0
10009988:	a3d8                	.2byte	0xa3d8
1000998a:	ffff                	.2byte	0xffff
1000998c:	0068                	.2byte	0x68
1000998e:	0000                	.2byte	0x0
10009990:	4400                	.2byte	0x4400
10009992:	100e                	.2byte	0x100e
10009994:	8150                	.2byte	0x8150
10009996:	8801                	.2byte	0x8801
10009998:	8902                	.2byte	0x8902
1000999a:	02049203          	lh	tp,32(s1)
1000999e:	c138                	.2byte	0xc138
100099a0:	c84c                	.2byte	0xc84c
100099a2:	c944                	.2byte	0xc944
100099a4:	d244                	.2byte	0xd244
100099a6:	0e44                	.2byte	0xe44
100099a8:	0000                	.2byte	0x0
100099aa:	0000                	.2byte	0x0
100099ac:	0010                	.2byte	0x10
100099ae:	0000                	.2byte	0x0
100099b0:	0128                	.2byte	0x128
100099b2:	0000                	.2byte	0x0
100099b4:	a414                	.2byte	0xa414
100099b6:	ffff                	.2byte	0xffff
100099b8:	0034                	.2byte	0x34
100099ba:	0000                	.2byte	0x0
100099bc:	0000                	.2byte	0x0
100099be:	0000                	.2byte	0x0
100099c0:	0028                	.2byte	0x28
100099c2:	0000                	.2byte	0x0
100099c4:	013c                	.2byte	0x13c
100099c6:	0000                	.2byte	0x0
100099c8:	a434                	.2byte	0xa434
100099ca:	ffff                	.2byte	0xffff
100099cc:	0058                	.2byte	0x58
100099ce:	0000                	.2byte	0x0
100099d0:	4400                	.2byte	0x4400
100099d2:	100e                	.2byte	0x100e
100099d4:	9244                	.2byte	0x9244
100099d6:	5404                	.2byte	0x5404
100099d8:	0181                	.2byte	0x181
100099da:	0288                	.2byte	0x288
100099dc:	0389                	.2byte	0x389
100099de:	c164                	.2byte	0xc164
100099e0:	c848                	.2byte	0xc848
100099e2:	c944                	.2byte	0xc944
100099e4:	d244                	.2byte	0xd244
100099e6:	0e44                	.2byte	0xe44
100099e8:	0000                	.2byte	0x0
100099ea:	0000                	.2byte	0x0
100099ec:	003c                	.2byte	0x3c
100099ee:	0000                	.2byte	0x0
100099f0:	0168                	.2byte	0x168
100099f2:	0000                	.2byte	0x0
100099f4:	a460                	.2byte	0xa460
100099f6:	ffff                	.2byte	0xffff
100099f8:	01bc                	.2byte	0x1bc
100099fa:	0000                	.2byte	0x0
100099fc:	4400                	.2byte	0x4400
100099fe:	200e                	.2byte	0x200e
10009a00:	8848                	.2byte	0x8848
10009a02:	9202                	.2byte	0x9202
10009a04:	5c04                	.2byte	0x5c04
10009a06:	0181                	.2byte	0x181
10009a08:	0389                	.2byte	0x389
10009a0a:	94540593          	addi	a1,s0,-1723
10009a0e:	9506                	.2byte	0x9506
10009a10:	03089607          	.4byte	0x3089607
10009a14:	0154                	.2byte	0x154
10009a16:	c10a                	.2byte	0xc10a
10009a18:	c844                	.2byte	0xc844
10009a1a:	c944                	.2byte	0xc944
10009a1c:	d244                	.2byte	0xd244
10009a1e:	d344                	.2byte	0xd344
10009a20:	d444                	.2byte	0xd444
10009a22:	d544                	.2byte	0xd544
10009a24:	d644                	.2byte	0xd644
10009a26:	0e44                	.2byte	0xe44
10009a28:	4400                	.2byte	0x4400
10009a2a:	003c000b          	.4byte	0x3c000b
10009a2e:	0000                	.2byte	0x0
10009a30:	01a8                	.2byte	0x1a8
10009a32:	0000                	.2byte	0x0
10009a34:	a5dc                	.2byte	0xa5dc
10009a36:	ffff                	.2byte	0xffff
10009a38:	0114                	.2byte	0x114
10009a3a:	0000                	.2byte	0x0
10009a3c:	4400                	.2byte	0x4400
10009a3e:	300e                	.2byte	0x300e
10009a40:	9548                	.2byte	0x9548
10009a42:	50089607          	.4byte	0x50089607
10009a46:	06940593          	addi	a1,s0,105
10009a4a:	8850                	.2byte	0x8850
10009a4c:	9202                	.2byte	0x9202
10009a4e:	5c04                	.2byte	0x5c04
10009a50:	0181                	.2byte	0x181
10009a52:	0389                	.2byte	0x389
10009a54:	a0020997          	auipc	s3,0xa0020
10009a58:	48c1                	.2byte	0x48c1
10009a5a:	44c8                	.2byte	0x44c8
10009a5c:	44c9                	.2byte	0x44c9
10009a5e:	44d2                	.2byte	0x44d2
10009a60:	44d444d3          	.4byte	0x44d444d3
10009a64:	44d5                	.2byte	0x44d5
10009a66:	44d6                	.2byte	0x44d6
10009a68:	000e44d7          	.4byte	0xe44d7
10009a6c:	0054                	.2byte	0x54
10009a6e:	0000                	.2byte	0x0
10009a70:	01e8                	.2byte	0x1e8
10009a72:	0000                	.2byte	0x0
10009a74:	a6b0                	.2byte	0xa6b0
10009a76:	ffff                	.2byte	0xffff
10009a78:	02b0                	.2byte	0x2b0
10009a7a:	0000                	.2byte	0x0
10009a7c:	4400                	.2byte	0x4400
10009a7e:	700e                	.2byte	0x700e
10009a80:	9448                	.2byte	0x9448
10009a82:	9906                	.2byte	0x9906
10009a84:	0593500b          	.4byte	0x593500b
10009a88:	0a98                	.2byte	0xa98
10009a8a:	8854                	.2byte	0x8854
10009a8c:	9202                	.2byte	0x9202
10009a8e:	9704                	.2byte	0x9704
10009a90:	6409                	.2byte	0x6409
10009a92:	0181                	.2byte	0x181
10009a94:	0389                	.2byte	0x389
10009a96:	0795                	.2byte	0x795
10009a98:	0896                	.2byte	0x896
10009a9a:	9a50                	.2byte	0x9a50
10009a9c:	9b0c                	.2byte	0x9b0c
10009a9e:	030d                	.2byte	0x30d
10009aa0:	00e8                	.2byte	0xe8
10009aa2:	c10a                	.2byte	0xc10a
10009aa4:	c848                	.2byte	0xc848
10009aa6:	c944                	.2byte	0xc944
10009aa8:	d244                	.2byte	0xd244
10009aaa:	d344                	.2byte	0xd344
10009aac:	d444                	.2byte	0xd444
10009aae:	d544                	.2byte	0xd544
10009ab0:	d644                	.2byte	0xd644
10009ab2:	d744                	.2byte	0xd744
10009ab4:	d844                	.2byte	0xd844
10009ab6:	d944                	.2byte	0xd944
10009ab8:	da44                	.2byte	0xda44
10009aba:	db44                	.2byte	0xdb44
10009abc:	0e44                	.2byte	0xe44
10009abe:	4400                	.2byte	0x4400
10009ac0:	0000000b          	.4byte	0xb
10009ac4:	0054                	.2byte	0x54
10009ac6:	0000                	.2byte	0x0
10009ac8:	0240                	.2byte	0x240
10009aca:	0000                	.2byte	0x0
10009acc:	a908                	.2byte	0xa908
10009ace:	ffff                	.2byte	0xffff
10009ad0:	040c                	.2byte	0x40c
10009ad2:	0000                	.2byte	0x0
10009ad4:	4400                	.2byte	0x4400
10009ad6:	a00e                	.2byte	0xa00e
10009ad8:	4401                	.2byte	0x4401
10009ada:	945c0997          	auipc	s3,0x945c0
10009ade:	9906                	.2byte	0x9906
10009ae0:	740c9a0b          	.4byte	0x740c9a0b
10009ae4:	0896                	.2byte	0x896
10009ae6:	886c                	.2byte	0x886c
10009ae8:	8902                	.2byte	0x8902
10009aea:	93049203          	lh	tp,-1744(s1)
10009aee:	9505                	.2byte	0x9505
10009af0:	9b0a9807          	.4byte	0x9b0a9807
10009af4:	810d                	.2byte	0x810d
10009af6:	0301                	.2byte	0x301
10009af8:	01d4                	.2byte	0x1d4
10009afa:	c10a                	.2byte	0xc10a
10009afc:	c844                	.2byte	0xc844
10009afe:	c944                	.2byte	0xc944
10009b00:	d244                	.2byte	0xd244
10009b02:	d344                	.2byte	0xd344
10009b04:	d444                	.2byte	0xd444
10009b06:	d544                	.2byte	0xd544
10009b08:	d644                	.2byte	0xd644
10009b0a:	d744                	.2byte	0xd744
10009b0c:	d844                	.2byte	0xd844
10009b0e:	d944                	.2byte	0xd944
10009b10:	da44                	.2byte	0xda44
10009b12:	db44                	.2byte	0xdb44
10009b14:	0e48                	.2byte	0xe48
10009b16:	4400                	.2byte	0x4400
10009b18:	0000000b          	.4byte	0xb
10009b1c:	0054                	.2byte	0x54
10009b1e:	0000                	.2byte	0x0
10009b20:	0298                	.2byte	0x298
10009b22:	0000                	.2byte	0x0
10009b24:	acbc                	.2byte	0xacbc
10009b26:	ffff                	.2byte	0xffff
10009b28:	0aa4                	.2byte	0xaa4
10009b2a:	0000                	.2byte	0x0
10009b2c:	4400                	.2byte	0x4400
10009b2e:	b00e                	.2byte	0xb00e
10009b30:	08964403          	lbu	s0,137(a2)
10009b34:	894c                	.2byte	0x894c
10009b36:	0a984803          	lbu	a6,169(a6)
10009b3a:	8878                	.2byte	0x8878
10009b3c:	8102                	.2byte	0x8102
10009b3e:	9201                	.2byte	0x9201
10009b40:	9304                	.2byte	0x9304
10009b42:	9405                	.2byte	0x9405
10009b44:	9506                	.2byte	0x9506
10009b46:	99099707          	.4byte	0x99099707
10009b4a:	9b0c9a0b          	.4byte	0x9b0c9a0b
10009b4e:	030d                	.2byte	0x30d
10009b50:	00d4                	.2byte	0xd4
10009b52:	c10a                	.2byte	0xc10a
10009b54:	c848                	.2byte	0xc848
10009b56:	c94c                	.2byte	0xc94c
10009b58:	d244                	.2byte	0xd244
10009b5a:	d344                	.2byte	0xd344
10009b5c:	d444                	.2byte	0xd444
10009b5e:	d544                	.2byte	0xd544
10009b60:	d644                	.2byte	0xd644
10009b62:	d744                	.2byte	0xd744
10009b64:	d944                	.2byte	0xd944
10009b66:	da44                	.2byte	0xda44
10009b68:	db44                	.2byte	0xdb44
10009b6a:	d848                	.2byte	0xd848
10009b6c:	0e44                	.2byte	0xe44
10009b6e:	4400                	.2byte	0x4400
10009b70:	0000000b          	.4byte	0xb
10009b74:	0050                	.2byte	0x50
10009b76:	0000                	.2byte	0x0
10009b78:	02f0                	.2byte	0x2f0
10009b7a:	0000                	.2byte	0x0
10009b7c:	b708                	.2byte	0xb708
10009b7e:	ffff                	.2byte	0xffff
10009b80:	0268                	.2byte	0x268
10009b82:	0000                	.2byte	0x0
10009b84:	4400                	.2byte	0x4400
10009b86:	b00e                	.2byte	0xb00e
10009b88:	0201                	.2byte	0x201
10009b8a:	8840                	.2byte	0x8840
10009b8c:	8902                	.2byte	0x8902
10009b8e:	810a9803          	lh	a6,-2032(s5)
10009b92:	9201                	.2byte	0x9201
10009b94:	9304                	.2byte	0x9304
10009b96:	9405                	.2byte	0x9405
10009b98:	9506                	.2byte	0x9506
10009b9a:	97089607          	.4byte	0x97089607
10009b9e:	9909                	.2byte	0x9909
10009ba0:	9b0c9a0b          	.4byte	0x9b0c9a0b
10009ba4:	7c0d                	.2byte	0x7c0d
10009ba6:	c10a                	.2byte	0xc10a
10009ba8:	c844                	.2byte	0xc844
10009baa:	c944                	.2byte	0xc944
10009bac:	d244                	.2byte	0xd244
10009bae:	d344                	.2byte	0xd344
10009bb0:	d444                	.2byte	0xd444
10009bb2:	d544                	.2byte	0xd544
10009bb4:	d644                	.2byte	0xd644
10009bb6:	d744                	.2byte	0xd744
10009bb8:	d844                	.2byte	0xd844
10009bba:	d944                	.2byte	0xd944
10009bbc:	da44                	.2byte	0xda44
10009bbe:	db44                	.2byte	0xdb44
10009bc0:	0e44                	.2byte	0xe44
10009bc2:	4400                	.2byte	0x4400
10009bc4:	0000000b          	.4byte	0xb
10009bc8:	004c                	.2byte	0x4c
10009bca:	0000                	.2byte	0x0
10009bcc:	0344                	.2byte	0x344
10009bce:	0000                	.2byte	0x0
10009bd0:	b91c                	.2byte	0xb91c
10009bd2:	ffff                	.2byte	0xffff
10009bd4:	04d0                	.2byte	0x4d0
10009bd6:	0000                	.2byte	0x0
10009bd8:	4400                	.2byte	0x4400
10009bda:	b00e                	.2byte	0xb00e
10009bdc:	4404                	.2byte	0x4404
10009bde:	0389                	.2byte	0x389
10009be0:	9354                	.2byte	0x9354
10009be2:	9505                	.2byte	0x9505
10009be4:	9a089607          	.4byte	0x9a089607
10009be8:	7c0c                	.2byte	0x7c0c
10009bea:	0181                	.2byte	0x181
10009bec:	0288                	.2byte	0x288
10009bee:	0492                	.2byte	0x492
10009bf0:	9454                	.2byte	0x9454
10009bf2:	9706                	.2byte	0x9706
10009bf4:	9809                	.2byte	0x9809
10009bf6:	990a                	.2byte	0x990a
10009bf8:	0430030b          	.4byte	0x430030b
10009bfc:	44c1                	.2byte	0x44c1
10009bfe:	44c8                	.2byte	0x44c8
10009c00:	44c9                	.2byte	0x44c9
10009c02:	44d2                	.2byte	0x44d2
10009c04:	44d444d3          	.4byte	0x44d444d3
10009c08:	44d5                	.2byte	0x44d5
10009c0a:	44d6                	.2byte	0x44d6
10009c0c:	44d844d7          	.4byte	0x44d844d7
10009c10:	44d9                	.2byte	0x44d9
10009c12:	44da                	.2byte	0x44da
10009c14:	000e                	.2byte	0xe
10009c16:	0000                	.2byte	0x0
10009c18:	001c                	.2byte	0x1c
10009c1a:	0000                	.2byte	0x0
10009c1c:	0394                	.2byte	0x394
10009c1e:	0000                	.2byte	0x0
10009c20:	bd9c                	.2byte	0xbd9c
10009c22:	ffff                	.2byte	0xffff
10009c24:	0208                	.2byte	0x208
10009c26:	0000                	.2byte	0x0
10009c28:	4400                	.2byte	0x4400
10009c2a:	200e                	.2byte	0x200e
10009c2c:	8158                	.2byte	0x8158
10009c2e:	8801                	.2byte	0x8801
10009c30:	8902                	.2byte	0x8902
10009c32:	00049203          	lh	tp,0(s1)
10009c36:	0000                	.2byte	0x0
10009c38:	0010                	.2byte	0x10
10009c3a:	0000                	.2byte	0x0
10009c3c:	03b4                	.2byte	0x3b4
10009c3e:	0000                	.2byte	0x0
10009c40:	bf84                	.2byte	0xbf84
10009c42:	ffff                	.2byte	0xffff
10009c44:	0024                	.2byte	0x24
10009c46:	0000                	.2byte	0x0
10009c48:	0000                	.2byte	0x0
10009c4a:	0000                	.2byte	0x0
10009c4c:	0020                	.2byte	0x20
10009c4e:	0000                	.2byte	0x0
10009c50:	03c8                	.2byte	0x3c8
10009c52:	0000                	.2byte	0x0
10009c54:	bf94                	.2byte	0xbf94
10009c56:	ffff                	.2byte	0xffff
10009c58:	0108                	.2byte	0x108
10009c5a:	0000                	.2byte	0x0
10009c5c:	4400                	.2byte	0x4400
10009c5e:	300e                	.2byte	0x300e
10009c60:	8848                	.2byte	0x8848
10009c62:	5402                	.2byte	0x5402
10009c64:	0181                	.2byte	0x181
10009c66:	dc02                	.2byte	0xdc02
10009c68:	44c1                	.2byte	0x44c1
10009c6a:	44c8                	.2byte	0x44c8
10009c6c:	000e                	.2byte	0xe
10009c6e:	0000                	.2byte	0x0
10009c70:	003c                	.2byte	0x3c
10009c72:	0000                	.2byte	0x0
10009c74:	03ec                	.2byte	0x3ec
10009c76:	0000                	.2byte	0x0
10009c78:	c078                	.2byte	0xc078
10009c7a:	ffff                	.2byte	0xffff
10009c7c:	0124                	.2byte	0x124
10009c7e:	0000                	.2byte	0x0
10009c80:	4400                	.2byte	0x4400
10009c82:	500e                	.2byte	0x500e
10009c84:	9350                	.2byte	0x9350
10009c86:	6805                	.2byte	0x6805
10009c88:	0181                	.2byte	0x181
10009c8a:	0389                	.2byte	0x389
10009c8c:	0694                	.2byte	0x694
10009c8e:	0288                	.2byte	0x288
10009c90:	0492                	.2byte	0x492
10009c92:	0795                	.2byte	0x795
10009c94:	0896                	.2byte	0x896
10009c96:	c0020997          	auipc	s3,0xc0020
10009c9a:	44c1                	.2byte	0x44c1
10009c9c:	44c8                	.2byte	0x44c8
10009c9e:	44c9                	.2byte	0x44c9
10009ca0:	44d2                	.2byte	0x44d2
10009ca2:	44d444d3          	.4byte	0x44d444d3
10009ca6:	44d5                	.2byte	0x44d5
10009ca8:	44d6                	.2byte	0x44d6
10009caa:	000e44d7          	.4byte	0xe44d7
10009cae:	0000                	.2byte	0x0
10009cb0:	0010                	.2byte	0x10
10009cb2:	0000                	.2byte	0x0
10009cb4:	042c                	.2byte	0x42c
10009cb6:	0000                	.2byte	0x0
10009cb8:	c15c                	.2byte	0xc15c
10009cba:	ffff                	.2byte	0xffff
10009cbc:	0014                	.2byte	0x14
10009cbe:	0000                	.2byte	0x0
10009cc0:	0000                	.2byte	0x0
10009cc2:	0000                	.2byte	0x0
10009cc4:	0010                	.2byte	0x10
10009cc6:	0000                	.2byte	0x0
10009cc8:	0440                	.2byte	0x440
10009cca:	0000                	.2byte	0x0
10009ccc:	c15c                	.2byte	0xc15c
10009cce:	ffff                	.2byte	0xffff
10009cd0:	0034                	.2byte	0x34
10009cd2:	0000                	.2byte	0x0
10009cd4:	0000                	.2byte	0x0
10009cd6:	0000                	.2byte	0x0
10009cd8:	0010                	.2byte	0x10
10009cda:	0000                	.2byte	0x0
10009cdc:	0454                	.2byte	0x454
10009cde:	0000                	.2byte	0x0
10009ce0:	c17c                	.2byte	0xc17c
10009ce2:	ffff                	.2byte	0xffff
10009ce4:	0100                	.2byte	0x100
10009ce6:	0000                	.2byte	0x0
10009ce8:	0000                	.2byte	0x0
10009cea:	0000                	.2byte	0x0
10009cec:	0010                	.2byte	0x10
10009cee:	0000                	.2byte	0x0
10009cf0:	0468                	.2byte	0x468
10009cf2:	0000                	.2byte	0x0
10009cf4:	c268                	.2byte	0xc268
10009cf6:	ffff                	.2byte	0xffff
10009cf8:	0080                	.2byte	0x80
10009cfa:	0000                	.2byte	0x0
10009cfc:	0000                	.2byte	0x0
	...

Disassembly of section .data:

10009d00 <nb_lights>:
10009d00:	00000003          	lb	zero,0(zero) # 0 <__stack_size-0x100>

10009d04 <nb_spheres>:
10009d04:	0004                	.2byte	0x4
	...

10009d08 <_ZL15graphics_height>:
10009d08:	003c                	.2byte	0x3c
	...

10009d0c <_ZL14graphics_width>:
10009d0c:	0078                	.2byte	0x78
	...

10009d10 <IO_UARTTX>:
10009d10:	0004                	.2byte	0x4
10009d12:	8000                	.2byte	0x8000

10009d14 <LEDSTATE>:
10009d14:	1000                	.2byte	0x1000
10009d16:	8000                	.2byte	0x8000

10009d18 <impure_data>:
10009d18:	0000                	.2byte	0x0
10009d1a:	0000                	.2byte	0x0
10009d1c:	a004                	.2byte	0xa004
10009d1e:	1000                	.2byte	0x1000
10009d20:	a06c                	.2byte	0xa06c
10009d22:	1000                	.2byte	0x1000
10009d24:	a0d4                	.2byte	0xa0d4
10009d26:	1000                	.2byte	0x1000
	...
10009dc0:	0001                	.2byte	0x1
10009dc2:	0000                	.2byte	0x0
10009dc4:	0000                	.2byte	0x0
10009dc6:	0000                	.2byte	0x0
10009dc8:	330e                	.2byte	0x330e
10009dca:	abcd                	.2byte	0xabcd
10009dcc:	1234                	.2byte	0x1234
10009dce:	e66d                	.2byte	0xe66d
10009dd0:	deec                	.2byte	0xdeec
10009dd2:	0005                	.2byte	0x5
10009dd4:	0000000b          	.4byte	0xb
	...

Disassembly of section .got:

1000a140 <_GLOBAL_OFFSET_TABLE_>:
1000a140:	0000                	.2byte	0x0
1000a142:	0000                	.2byte	0x0
1000a144:	9d04                	.2byte	0x9d04
1000a146:	1000                	.2byte	0x1000
1000a148:	9d14                	.2byte	0x9d14
1000a14a:	1000                	.2byte	0x1000
1000a14c:	5ffc                	.2byte	0x5ffc
1000a14e:	1000                	.2byte	0x1000
1000a150:	9d00                	.2byte	0x9d00
1000a152:	1000                	.2byte	0x1000
1000a154:	a374                	.2byte	0xa374
1000a156:	1000                	.2byte	0x1000
1000a158:	a340                	.2byte	0xa340
1000a15a:	1000                	.2byte	0x1000
1000a15c:	a344                	.2byte	0xa344
1000a15e:	1000                	.2byte	0x1000
1000a160:	5fdc                	.2byte	0x5fdc
1000a162:	1000                	.2byte	0x1000
1000a164:	9d10                	.2byte	0x9d10
1000a166:	1000                	.2byte	0x1000
1000a168:	a448                	.2byte	0xa448
1000a16a:	1000                	.2byte	0x1000

Disassembly of section .got.plt:

1000a16c <.got.plt>:
1000a16c:	ffff                	.2byte	0xffff
1000a16e:	ffff                	.2byte	0xffff
1000a170:	0000                	.2byte	0x0
	...

Disassembly of section .sdata:

1000a178 <_impure_ptr>:
1000a178:	9d18                	.2byte	0x9d18
1000a17a:	1000                	.2byte	0x1000

1000a17c <_global_impure_ptr>:
1000a17c:	9d18                	.2byte	0x9d18
1000a17e:	1000                	.2byte	0x1000
1000a180:	0000                	.2byte	0x0
1000a182:	3f80                	.2byte	0x3f80
1000a184:	0000                	.2byte	0x0
1000a186:	0000                	.2byte	0x0
1000a188:	0000                	.2byte	0x0
1000a18a:	5440                	.2byte	0x5440
1000a18c:	3ff921fb          	.4byte	0x3ff921fb
1000a190:	6331                	.2byte	0x6331
1000a192:	1a62                	.2byte	0x1a62
1000a194:	b461                	.2byte	0xb461
1000a196:	3dd0                	.2byte	0x3dd0
1000a198:	0000                	.2byte	0x0
1000a19a:	1a60                	.2byte	0x1a60
1000a19c:	b461                	.2byte	0xb461
1000a19e:	3dd0                	.2byte	0x3dd0
1000a1a0:	2e037073          	csrci	0x2e0,6
1000a1a4:	198a                	.2byte	0x198a
1000a1a6:	c8833ba3          	.4byte	0xc8833ba3
1000a1aa:	6dc9                	.2byte	0x6dc9
1000a1ac:	5f30                	.2byte	0x5f30
1000a1ae:	3fe4                	.2byte	0x3fe4
1000a1b0:	0000                	.2byte	0x0
1000a1b2:	0000                	.2byte	0x0
1000a1b4:	0000                	.2byte	0x0
1000a1b6:	3fe0                	.2byte	0x3fe0
1000a1b8:	0000                	.2byte	0x0
1000a1ba:	2e00                	.2byte	0x2e00
1000a1bc:	198a                	.2byte	0x198a
1000a1be:	49c13ba3          	.4byte	0x49c13ba3
1000a1c2:	2520                	.2byte	0x2520
1000a1c4:	839a                	.2byte	0x839a
1000a1c6:	0000397b          	.4byte	0x397b
1000a1ca:	0000                	.2byte	0x0
1000a1cc:	0000                	.2byte	0x0
1000a1ce:	4170                	.2byte	0x4170
1000a1d0:	c000                	.2byte	0xc000
1000a1d2:	3f15                	.2byte	0x3f15
1000a1d4:	cfdc                	.2byte	0xcfdc
1000a1d6:	35d1                	.2byte	0x35d1
1000a1d8:	0000                	.2byte	0x0
1000a1da:	3fc0                	.2byte	0x3fc0
1000a1dc:	0000                	.2byte	0x0
1000a1de:	bf80                	.2byte	0xbf80
1000a1e0:	aa00                	.2byte	0xaa00
1000a1e2:	3fb8                	.2byte	0x3fb8
1000a1e4:	a570                	.2byte	0xa570
1000a1e6:	36ec                	.2byte	0x36ec
1000a1e8:	0000                	.2byte	0x0
1000a1ea:	3e80                	.2byte	0x3e80
1000a1ec:	3eaaaaab          	.4byte	0x3eaaaaab
1000a1f0:	0000                	.2byte	0x0
1000a1f2:	3f00                	.2byte	0x3f00
1000a1f4:	3fb8aa3b          	.4byte	0x3fb8aa3b
1000a1f8:	0000                	.2byte	0x0
1000a1fa:	4b80                	.2byte	0x4b80
1000a1fc:	f142                	.2byte	0xf142
1000a1fe:	32553e53          	.4byte	0x32553e53
1000a202:	3e6c                	.2byte	0x3e6c
1000a204:	a305                	.2byte	0xa305
1000a206:	6db73e8b          	.4byte	0x6db73e8b
1000a20a:	999a3edb          	.4byte	0x999a3edb
1000a20e:	3f19                	.2byte	0x3f19
1000a210:	0000                	.2byte	0x0
1000a212:	4040                	.2byte	0x4040
1000a214:	3800                	.2byte	0x3800
1000a216:	3f76                	.2byte	0x3f76
1000a218:	3f76384f          	.4byte	0x3f76384f
1000a21c:	c3a0                	.2byte	0xc3a0
1000a21e:	369d                	.2byte	0x369d
1000a220:	aa3c                	.2byte	0xaa3c
1000a222:	3338                	.2byte	0x3338
1000a224:	7200                	.2byte	0x7200
1000a226:	3f31                	.2byte	0x3f31
1000a228:	7218                	.2byte	0x7218
1000a22a:	3f31                	.2byte	0x3f31
1000a22c:	be8c                	.2byte	0xbe8c
1000a22e:	bb4c35bf ea0e3331 	.8byte	0xea0e3331bb4c35bf
1000a236:	35dd                	.2byte	0x35dd
1000a238:	b355                	.2byte	0xb355
1000a23a:	388a                	.2byte	0x388a
1000a23c:	0b61                	.2byte	0xb61
1000a23e:	3b36                	.2byte	0x3b36
1000a240:	3e2aaaab          	.4byte	0x3e2aaaab
1000a244:	0000                	.2byte	0x0
1000a246:	4000                	.2byte	0x4000
1000a248:	0000                	.2byte	0x0
1000a24a:	0000                	.2byte	0x0
1000a24c:	0000                	.2byte	0x0
1000a24e:	3e70                	.2byte	0x3e70
1000a250:	0000                	.2byte	0x0
1000a252:	0000                	.2byte	0x0
1000a254:	0000                	.2byte	0x0
1000a256:	3fc0                	.2byte	0x3fc0
1000a258:	0000                	.2byte	0x0
1000a25a:	0000                	.2byte	0x0
1000a25c:	0000                	.2byte	0x0
1000a25e:	4020                	.2byte	0x4020
1000a260:	0000                	.2byte	0x0
1000a262:	0000                	.2byte	0x0
1000a264:	0000                	.2byte	0x0
1000a266:	3ff0                	.2byte	0x3ff0
1000a268:	0000                	.2byte	0x0
1000a26a:	0000                	.2byte	0x0
1000a26c:	0000                	.2byte	0x0
1000a26e:	8000                	.2byte	0x8000
1000a270:	0000                	.2byte	0x0
1000a272:	0000                	.2byte	0x0
1000a274:	0000                	.2byte	0x0
1000a276:	bff0                	.2byte	0xbff0
1000a278:	2d18                	.2byte	0x2d18
1000a27a:	5444                	.2byte	0x5444
1000a27c:	3fe921fb          	.4byte	0x3fe921fb
1000a280:	33145c07          	.4byte	0x33145c07
1000a284:	a626                	.2byte	0xa626
1000a286:	3c81                	.2byte	0x3c81
1000a288:	7ad4                	.2byte	0x7ad4
1000a28a:	2a7074bf a7e93efb 	.8byte	0xa7e93efb2a7074bf
1000a292:	32f0                	.2byte	0x32f0
1000a294:	3f12b80f          	.4byte	0x3f12b80f
1000a298:	1068                	.2byte	0x1068
1000a29a:	1a8d                	.2byte	0x1a8d
1000a29c:	3f3026f7          	.4byte	0x3f3026f7
1000a2a0:	8315                	.2byte	0x8315
1000a2a2:	fee0                	.2byte	0xfee0
1000a2a4:	dbc8                	.2byte	0xdbc8
1000a2a6:	84933f57          	.4byte	0x84933f57
1000a2aa:	e96e                	.2byte	0xe96e
1000a2ac:	3f8226e3          	.4byte	0x3f8226e3
1000a2b0:	41fe                	.2byte	0x41fe
1000a2b2:	a1ba1bb3          	.4byte	0xa1ba1bb3
1000a2b6:	53733fab          	.4byte	0x53733fab
1000a2ba:	db60                	.2byte	0xdb60
1000a2bc:	bef375cb          	.4byte	0xbef375cb
1000a2c0:	92a6                	.2byte	0x92a6
1000a2c2:	7e88a037          	lui	zero,0x7e88a
1000a2c6:	3f14                	.2byte	0x3f14
1000a2c8:	6501                	.2byte	0x6501
1000a2ca:	f2f2                	.2byte	0xf2f2
1000a2cc:	44d8                	.2byte	0x44d8
1000a2ce:	03283f43          	.4byte	0x3283f43
1000a2d2:	c956                	.2byte	0xc956
1000a2d4:	6d22                	.2byte	0x6d22
1000a2d6:	3f6d                	.2byte	0x3f6d
1000a2d8:	8406d637          	lui	a2,0x8406d
1000a2dc:	64f4                	.2byte	0x64f4
1000a2de:	3f96                	.2byte	0x3f96
1000a2e0:	fe7a                	.2byte	0xfe7a
1000a2e2:	1110                	.2byte	0x1110
1000a2e4:	1111                	.2byte	0x1111
1000a2e6:	3fc1                	.2byte	0x3fc1
1000a2e8:	55555563          	bge	a0,s5,1000a832 <__BSS_END__$+0x3ea>
1000a2ec:	5555                	.2byte	0x5555
1000a2ee:	3fd5                	.2byte	0x3fd5
1000a2f0:	0000                	.2byte	0x0
1000a2f2:	1000                	.2byte	0x1000
1000a2f4:	0000                	.2byte	0x0
1000a2f6:	7000                	.2byte	0x7000
1000a2f8:	759c                	.2byte	0x759c
1000a2fa:	8800                	.2byte	0x8800
1000a2fc:	e43c                	.2byte	0xe43c
1000a2fe:	00007e37          	lui	t3,0x7
1000a302:	0000                	.2byte	0x0
1000a304:	0000                	.2byte	0x0
1000a306:	4350                	.2byte	0x4350
1000a308:	f359                	.2byte	0xf359
1000a30a:	c2f8                	.2byte	0xc2f8
1000a30c:	6e1f 01a5 759c      	.byte	0x1f, 0x6e, 0xa5, 0x01, 0x9c, 0x75
1000a312:	8800                	.2byte	0x8800
1000a314:	e43c                	.2byte	0xe43c
1000a316:	f359fe37          	lui	t3,0xf359f
1000a31a:	c2f8                	.2byte	0xc2f8
1000a31c:	6e1f 81a5 0000      	.byte	0x1f, 0x6e, 0xa5, 0x81, 0x00, 0x00
1000a322:	0000                	.2byte	0x0
1000a324:	0000                	.2byte	0x0
1000a326:	3c90                	.2byte	0x3c90
1000a328:	0000                	.2byte	0x0
1000a32a:	4c00                	.2byte	0x4c00
1000a32c:	4260                	.2byte	0x4260
1000a32e:	0da2                	.2byte	0xda2
1000a330:	f2ca                	.2byte	0xf2ca
1000a332:	7149                	.2byte	0x7149
1000a334:	f2ca                	.2byte	0xf2ca
1000a336:	f149                	.2byte	0xf149
1000a338:	4260                	.2byte	0x4260
1000a33a:	8da2                	.2byte	0x8da2
1000a33c:	0000                	.2byte	0x0
1000a33e:	3300                	.2byte	0x3300

Disassembly of section .sbss:

1000a340 <__malloc_max_total_mem>:
1000a340:	0000                	.2byte	0x0
	...

Disassembly of section .bss:

1000a344 <lights>:
	...

1000a374 <spheres>:
	...

1000a444 <_ZL9bench_run>:
1000a444:	0000                	.2byte	0x0
	...

Disassembly of section .comment:

00000000 <.comment>:
   0:	3a434347          	.4byte	0x3a434347
   4:	2820                	.2byte	0x2820
   6:	61653167          	.4byte	0x61653167
   a:	3739                	.2byte	0x3739
   c:	6538                	.2byte	0x6538
   e:	36363033          	.4byte	0x36363033
  12:	2029                	.2byte	0x2029
  14:	3231                	.2byte	0x3231
  16:	312e                	.2byte	0x312e
  18:	302e                	.2byte	0x302e
  1a:	4700                	.2byte	0x4700
  1c:	203a4343          	.4byte	0x203a4343
  20:	4728                	.2byte	0x4728
  22:	554e                	.2byte	0x554e
  24:	2029                	.2byte	0x2029
  26:	3231                	.2byte	0x3231
  28:	312e                	.2byte	0x312e
  2a:	302e                	.2byte	0x302e
	...

Disassembly of section .riscv.attributes:

00000000 <.riscv.attributes>:
   0:	1f41                	.2byte	0x1f41
   2:	0000                	.2byte	0x0
   4:	7200                	.2byte	0x7200
   6:	7369                	.2byte	0x7369
   8:	01007663          	bgeu	zero,a6,14 <__stack_size-0xec>
   c:	0015                	.2byte	0x15
   e:	0000                	.2byte	0x0
  10:	1004                	.2byte	0x1004
  12:	7205                	.2byte	0x7205
  14:	3376                	.2byte	0x3376
  16:	6932                	.2byte	0x6932
  18:	7032                	.2byte	0x7032
  1a:	0030                	.2byte	0x30
  1c:	0108                	.2byte	0x108
  1e:	0b0a                	.2byte	0xb0a
