
./BOOT.elf:     file format elf32-littleriscv
./BOOT.elf
architecture: riscv:rv32, flags 0x00000112:
EXEC_P, HAS_SYMS, D_PAGED
start address 0x0fff0000

Program Header:
0x70000003 off    0x000088b9 vaddr 0x00000000 paddr 0x00000000 align 2**0
         filesz 0x00000025 memsz 0x00000000 flags r--
    LOAD off    0x00001000 vaddr 0x0fff0000 paddr 0x0fff0000 align 2**12
         filesz 0x0000788c memsz 0x00008d68 flags rwx

Sections:
Idx Name          Size      VMA       LMA       File off  Algn
  0 .boot         00000060  0fff0000  0fff0000  00001000  2**2
                  CONTENTS, ALLOC, LOAD, READONLY, CODE
  1 .text         000054cc  0fff0060  0fff0060  00001060  2**4
                  CONTENTS, ALLOC, LOAD, READONLY, CODE
  2 .rodata       00000d40  0fff552c  0fff552c  0000652c  2**2
                  CONTENTS, ALLOC, LOAD, READONLY, DATA
  3 .eh_frame     00000b10  0fff626c  0fff626c  0000726c  2**2
                  CONTENTS, ALLOC, LOAD, READONLY, DATA
  4 .data         00000ab0  0fff6d80  0fff6d80  00007d80  2**3
                  CONTENTS, ALLOC, LOAD, DATA
  5 .got          00000044  0fff7830  0fff7830  00008830  2**2
                  CONTENTS, ALLOC, LOAD, DATA
  6 .got.plt      00000008  0fff7874  0fff7874  00008874  2**2
                  CONTENTS, ALLOC, LOAD, DATA
  7 .sdata        00000010  0fff787c  0fff787c  0000887c  2**2
                  CONTENTS, ALLOC, LOAD, DATA
  8 .sbss         00000010  0fff788c  0fff788c  0000888c  2**2
                  ALLOC
  9 .bss          000014cc  0fff789c  0fff789c  0000888c  2**2
                  ALLOC
 10 .comment      0000002d  00000000  00000000  0000888c  2**0
                  CONTENTS, READONLY
 11 .riscv.attributes 00000025  00000000  00000000  000088b9  2**0
                  CONTENTS, READONLY
SYMBOL TABLE:
0fff0000 l    d  .boot	00000000 .boot
0fff0060 l    d  .text	00000000 .text
0fff552c l    d  .rodata	00000000 .rodata
0fff626c l    d  .eh_frame	00000000 .eh_frame
0fff6d80 l    d  .data	00000000 .data
0fff7830 l    d  .got	00000000 .got
0fff7874 l    d  .got.plt	00000000 .got.plt
0fff787c l    d  .sdata	00000000 .sdata
0fff788c l    d  .sbss	00000000 .sbss
0fff789c l    d  .bss	00000000 .bss
00000000 l    d  .comment	00000000 .comment
00000000 l    d  .riscv.attributes	00000000 .riscv.attributes
00000000 l    df *ABS*	00000000 rom.cpp
0fff8b24 l     O .bss	00000004 _ZL14s_startAddress
0fff0044 l       .boot	00000000 noatexitfound
0fff005c l       .boot	00000000 _romfreeze
00000000 l    df *ABS*	00000000 lib_a-memset.o
00000000 l    df *ABS*	00000000 isr.cpp
0fff789c l     O .bss	00001288 _ZL9g_taskctx
00000000 l    df *ABS*	00000000 fileops.cpp
0fff8b2c l     O .bss	00000004 _ZL9havedrive
0fff6dd0 l     O .data	00000200 _ZL10currentdir
00000000 l    df *ABS*	00000000 uart.c
00000000 l    df *ABS*	00000000 task.c
00000000 l    df *ABS*	00000000 core.c
0fff6fdc l     O .data	00000004 _ZL10heap_start
00000000 l    df *ABS*	00000000 leds.c
00000000 l    df *ABS*	00000000 ringbuffer.c
00000000 l    df *ABS*	00000000 sdcard.c
00000000 l    df *ABS*	00000000 ff.c
0fff1858 l     F .text	0000002c _ZL8ld_dwordPKh
0fff1884 l     F .text	0000002c _ZL9clst2sectP5FATFSm
0fff18b0 l     F .text	0000003c _ZL10clmt_clustP3FILm
0fff18ec l     F .text	00000030 _ZL7sum_sfnPKh
0fff191c l     F .text	000000e4 _ZL12get_ldnumberPPKc
0fff6ff0 l     O .data	0000000c _ZL9VolumeStr
0fff8d30 l     O .bss	00000001 _ZL7CurrVol
0fff1a00 l     F .text	00000070 _ZL8validateP7FFOBJIDPP5FATFS
0fff1a70 l     F .text	00000094 _ZL11sync_windowP5FATFS
0fff1b04 l     F .text	00000068 _ZL11move_windowP5FATFSm
0fff1b6c l     F .text	0000018c _ZL8check_fsP5FATFSm
0fff1cf8 l     F .text	000001f0 _ZL7put_fatP5FATFSmm
0fff1ee8 l     F .text	000003e8 _ZL12mount_volumePPKcPP5FATFSh
0fff8d34 l     O .bss	0000000c _ZL5FatFs
0fff8d32 l     O .bss	00000002 _ZL4Fsid
0fff8b30 l     O .bss	00000200 _ZL6LfnBuf
0fff22d0 l     F .text	00000038 _ZL8ld_clustP5FATFSPKh.isra.0
0fff2308 l     F .text	00000150 _ZL7get_fatP7FFOBJIDm.isra.0
0fff2458 l     F .text	000001ac _ZL12create_chainP7FFOBJIDm
0fff2604 l     F .text	000001ac _ZL8dir_nextP3DIRi
0fff27b0 l     F .text	00000128 _ZL7dir_sdiP3DIRm
0fff28d8 l     F .text	00000274 _ZL8dir_findP3DIR
0fff5e7c l     O .rodata	0000000d _ZL6LfnOfs
0fff2b4c l     F .text	00000544 _ZL11follow_pathP3DIRPKc
0fff5dfc l     O .rodata	00000080 _ZL5ExCvt
00000000 l    df *ABS*	00000000 ffunicode.c
0fff616c l     O .rodata	00000100 _ZL5uc437
0fff5f78 l     O .rodata	000001f2 _ZZ11ff_wtoupperE4cvt1
0fff5ebc l     O .rodata	000000bc _ZZ11ff_wtoupperE4cvt2
00000000 l    df *ABS*	00000000 diskio.c
00000000 l    df *ABS*	00000000 atexit.c
00000000 l    df *ABS*	00000000 fini.c
00000000 l    df *ABS*	00000000 init.c
00000000 l    df *ABS*	00000000 malloc.c
00000000 l    df *ABS*	00000000 mallocr.c
00000000 l    df *ABS*	00000000 memcmp.c
00000000 l    df *ABS*	00000000 memcpy.c
00000000 l    df *ABS*	00000000 mlock.c
00000000 l    df *ABS*	00000000 sbrkr.c
00000000 l    df *ABS*	00000000 strchr.c
00000000 l    df *ABS*	00000000 strcpy.c
00000000 l    df *ABS*	00000000 __atexit.c
00000000 l    df *ABS*	00000000 mallocr.c
00000000 l    df *ABS*	00000000 console.c
00000000 l    df *ABS*	00000000 gpu.c
00000000 l    df *ABS*	00000000 dma.c
00000000 l    df *ABS*	00000000 debugger.c
00000000 l    df *ABS*	00000000 spi.c
00000000 l    df *ABS*	00000000 impure.c
0fff7000 l     O .data	00000428 impure_data
0fff626c l       .eh_frame	00000000 __fini_array_end
0fff626c l       .eh_frame	00000000 __fini_array_start
0fff626c l       .eh_frame	00000000 __init_array_end
0fff626c l       .eh_frame	00000000 __preinit_array_end
0fff7830 l     O .got	00000000 _GLOBAL_OFFSET_TABLE_
0fff626c l       .eh_frame	00000000 __init_array_start
0fff626c l       .eh_frame	00000000 __preinit_array_start
0fff4f94 g     F .text	000000b0 strcpy
0fff0ff8 g     F .text	00000014 _Z11LEDSetStatem
0fff6d80 g       .data	00000000 _fdata
0fff4df0 g     F .text	00000004 __malloc_unlock
0fff1500 g     F .text	00000120 _Z17SDReadSingleBlockmPhS_
0fff0aa0 g     F .text	0000006c _Z14TaskInitSystemP12STaskContext
0fff06c0 g     F .text	00000050 _Z12UnmountDrivev
0fff0fb0 g     F .text	00000014 _Z17E32SetTimeComparey
0fff7898 g     O .sbss	00000004 errno
0fff626c g       .rodata	00000000 _etext
00000100 g       *ABS*	00000000 __stack_size
0fff6fd8 g     O .data	00000004 IO_UARTRX
0fff4150 g     F .text	000000f0 ff_wtoupper
0fff0060 g       .boot	00000000 _boot
0fff0b0c g     F .text	000000a8 _Z7TaskAddP12STaskContextPKcPFvvEm
0fff4c48 g     F .text	000001a4 memcpy
0fff0bb4 g     F .text	00000020 _Z19TaskExitCurrentTaskP12STaskContext
0fff424c g     F .text	00000030 disk_initialize
0fff6fe0 g     O .data	00000004 LEDSTATE
0fff0164 g     F .text	00000054 _Z10HandleUARTv
0fff1158 g     F .text	0000001c _Z7SPITxRxh
0fff4418 g     F .text	00000010 malloc
0fff789c g       .bss	00000000 _bss_start
0fff7894 g     O .sbss	00000004 __malloc_top_pad
0fff4240 g     F .text	0000000c disk_status
0fff4df4 g     F .text	00000060 _sbrk_r
0fff16c0 g     F .text	000000a8 _Z20SDReadMultipleBlocksPhmm
0fff42fc g     F .text	00000010 disk_ioctl
0fff7890 g     O .sbss	00000004 __malloc_max_sbrked_mem
0fff7888 g     O .sdata	00000004 _global_impure_ptr
0fff437c g     F .text	0000009c __libc_init_array
0fff6fe4 g     O .data	00000004 m_writeOffset
0fff0fc4 g     F .text	00000034 _sbrk
0fff8d68 g       .bss	00000000 _bss_end
0fff40b4 g     F .text	00000064 ff_uni2oem
0fff4320 g     F .text	0000005c __libc_fini_array
0fff095c g     F .text	00000018 _Z20UARTInputFifoHasDatav
0fff124c g     F .text	0000003c _Z11SDResponse1v
0fff1030 g     F .text	00000090 _Z14RingBufferReadPvm
0fff04e8 g     F .text	00000008 _Z9_stubTaskv
0fff6fec g     O .data	00000004 IO_SPIRXTX
0fff5220 g     F .text	0000030c _free_r
0fff132c g     F .text	0000007c _Z6SDIdlev
0fff04f0 g     F .text	00000014 _Z11RunExecTaskv
0fff3ce0 g     F .text	0000003c f_close
0fff0060 g       .boot	00000000 _ftext
0fff7880 g     O .sdata	00000004 __malloc_sbrk_base
0fff0000 g     F .boot	0000005c _start
0fff5044 g     F .text	0000009c __register_exitproc
0fff3860 g     F .text	00000264 f_read
0fff0498 g     F .text	00000050 _Z10InstallISRv
0fff8d40 g     O .bss	00000028 __malloc_current_mallinfo
0fff0f2c g     F .text	00000014 _Z13E32ReadCyclesv
0fff0f40 g     F .text	00000070 _Z8E32Sleepy
0fff4bd0 g     F .text	00000078 memcmp
0fff7428 g     O .data	00000408 __malloc_av_
0fff4dec g     F .text	00000004 __malloc_lock
0fff0060 g     F .text	000000dc memset
0fff0504 g     F .text	00000120 main
0fff788c g     O .sbss	00000004 __malloc_max_total_mem
0fff0974 g     F .text	00000024 _Z9UARTWritePKc
0fff3ac4 g     F .text	0000021c f_sync
0fff0624 g     F .text	0000009c _Z10MountDrivev
0fff1434 g     F .text	000000cc _Z10SDCardInitv
0fff4438 g     F .text	00000798 _malloc_r
0fff013c g     F .text	00000028 _Z17CreateTaskContextv
0fff3090 g     F .text	00000088 f_mount
0fff100c g     F .text	00000024 _Z15RingBufferResetv
0fff1620 g     F .text	000000a0 _Z18SDWriteSingleBlockmPhS_
0fff50e0 g     F .text	00000140 _malloc_trim_r
0fff4118 g     F .text	00000038 ff_oem2uni
0fff3d1c g     F .text	00000398 f_lseek
0fff1810 g     F .text	00000048 _Z13SDCardStartupv
0fff1174 g     F .text	000000d8 _Z5SDCmd13SDCardCommandm
0fff430c g     F .text	00000014 atexit
0fff6fd4 g     O .data	00000004 IO_UARTTX
0fff13a8 g     F .text	0000008c _Z19SDCheckVoltageRangev
0fff787c g     O .sdata	00000004 _impure_ptr
0fff1288 g     F .text	000000a4 _Z11SDResponse7Pm
0fff8d68 g       .bss	00000000 __BSS_END__$
0fff0888 g     F .text	000000d4 _Z14LoadExecutablePKcb
0fff7830 g       .data	00000000 _edata
0fff8d68 g       .bss	00000000 _end
0fff6fe8 g     O .data	00000004 m_readOffset
0fff7884 g     O .sdata	00000004 __malloc_trim_threshold
0fff3118 g     F .text	00000748 f_open
0fff42bc g     F .text	00000040 disk_write
0fff0710 g     F .text	00000178 _Z29ParseELFHeaderAndLoadSectionsP3FILP16SElfFileHeader32Rm
0fff6fd0 g     O .data	00000004 IO_UARTStatus
0fff005c g     F .boot	00000004 _exit
0fff0f18 g     F .text	00000014 _Z11E32ReadTimev
0fff427c g     F .text	00000040 disk_read
0fff01c0 g     F .text	000002cc _Z25interrupt_service_routinev
0fff4e54 g     F .text	00000140 strchr
0fff10c0 g     F .text	00000098 _Z15RingBufferWritePKvm
0fff0bd4 g     F .text	00000344 _Z16TaskSwitchToNextP12STaskContext
0fff6d80 g     O .data	00000050 FRtoString
0fff1768 g     F .text	000000a8 _Z21SDWriteMultipleBlocksPKhmm
0fff8b28 g     O .bss	00000004 Fs
0fff0998 g     F .text	00000108 _Z12UARTWriteHexm
0fff7890 g       .sbss	00000000 _fbss
0fff4428 g     F .text	00000010 free



Disassembly of section .boot:

0fff0000 <_start>:
 fff0000:	0fff0137          	lui	sp,0xfff0
 fff0004:	ffc10113          	addi	sp,sp,-4 # ffefffc <__stack_size+0xffefefc>
 fff0008:	00010413          	mv	s0,sp
 fff000c:	00008517          	auipc	a0,0x8
 fff0010:	84452503          	lw	a0,-1980(a0) # fff7850 <_GLOBAL_OFFSET_TABLE_+0x20>
 fff0014:	00008617          	auipc	a2,0x8
 fff0018:	84862603          	lw	a2,-1976(a2) # fff785c <_GLOBAL_OFFSET_TABLE_+0x2c>
 fff001c:	40a60633          	sub	a2,a2,a0
 fff0020:	00000593          	li	a1,0
 fff0024:	03c000ef          	jal	ra,fff0060 <_boot>
 fff0028:	00008517          	auipc	a0,0x8
 fff002c:	82c52503          	lw	a0,-2004(a0) # fff7854 <_GLOBAL_OFFSET_TABLE_+0x24>
 fff0030:	00050a63          	beqz	a0,fff0044 <noatexitfound>
 fff0034:	00001517          	auipc	a0,0x1
 fff0038:	00008517          	auipc	a0,0x8
 fff003c:	80852503          	lw	a0,-2040(a0) # fff7840 <_GLOBAL_OFFSET_TABLE_+0x10>
 fff0040:	2cc040ef          	jal	ra,fff430c <atexit>

0fff0044 <noatexitfound>:
 fff0044:	338040ef          	jal	ra,fff437c <__libc_init_array>
 fff0048:	00012503          	lw	a0,0(sp)
 fff004c:	00410593          	addi	a1,sp,4
 fff0050:	00000613          	li	a2,0
 fff0054:	4b00006f          	j	fff0504 <main>
 fff0058:	00100073          	ebreak

0fff005c <_exit>:
 fff005c:	0000006f          	j	fff005c <_exit>

Disassembly of section .text:

0fff0060 <memset>:
 fff0060:	00f00313          	li	t1,15
 fff0064:	00050713          	mv	a4,a0
 fff0068:	02c37e63          	bgeu	t1,a2,fff00a4 <memset+0x44>
 fff006c:	00f77793          	andi	a5,a4,15
 fff0070:	0a079063          	bnez	a5,fff0110 <memset+0xb0>
 fff0074:	08059263          	bnez	a1,fff00f8 <memset+0x98>
 fff0078:	ff067693          	andi	a3,a2,-16
 fff007c:	00f67613          	andi	a2,a2,15
 fff0080:	00e686b3          	add	a3,a3,a4
 fff0084:	00b72023          	sw	a1,0(a4)
 fff0088:	00b72223          	sw	a1,4(a4)
 fff008c:	00b72423          	sw	a1,8(a4)
 fff0090:	00b72623          	sw	a1,12(a4)
 fff0094:	01070713          	addi	a4,a4,16
 fff0098:	fed766e3          	bltu	a4,a3,fff0084 <memset+0x24>
 fff009c:	00061463          	bnez	a2,fff00a4 <memset+0x44>
 fff00a0:	00008067          	ret
 fff00a4:	40c306b3          	sub	a3,t1,a2
 fff00a8:	00269693          	slli	a3,a3,0x2
 fff00ac:	00000297          	auipc	t0,0x0
 fff00b0:	005686b3          	add	a3,a3,t0
 fff00b4:	00c68067          	jr	12(a3)
 fff00b8:	00b70723          	sb	a1,14(a4)
 fff00bc:	00b706a3          	sb	a1,13(a4)
 fff00c0:	00b70623          	sb	a1,12(a4)
 fff00c4:	00b705a3          	sb	a1,11(a4)
 fff00c8:	00b70523          	sb	a1,10(a4)
 fff00cc:	00b704a3          	sb	a1,9(a4)
 fff00d0:	00b70423          	sb	a1,8(a4)
 fff00d4:	00b703a3          	sb	a1,7(a4)
 fff00d8:	00b70323          	sb	a1,6(a4)
 fff00dc:	00b702a3          	sb	a1,5(a4)
 fff00e0:	00b70223          	sb	a1,4(a4)
 fff00e4:	00b701a3          	sb	a1,3(a4)
 fff00e8:	00b70123          	sb	a1,2(a4)
 fff00ec:	00b700a3          	sb	a1,1(a4)
 fff00f0:	00b70023          	sb	a1,0(a4)
 fff00f4:	00008067          	ret
 fff00f8:	0ff5f593          	zext.b	a1,a1
 fff00fc:	00859693          	slli	a3,a1,0x8
 fff0100:	00d5e5b3          	or	a1,a1,a3
 fff0104:	01059693          	slli	a3,a1,0x10
 fff0108:	00d5e5b3          	or	a1,a1,a3
 fff010c:	f6dff06f          	j	fff0078 <memset+0x18>
 fff0110:	00279693          	slli	a3,a5,0x2
 fff0114:	00000297          	auipc	t0,0x0
 fff0118:	005686b3          	add	a3,a3,t0
 fff011c:	00008293          	mv	t0,ra
 fff0120:	fa0680e7          	jalr	-96(a3)
 fff0124:	00028093          	mv	ra,t0
 fff0128:	ff078793          	addi	a5,a5,-16
 fff012c:	40f70733          	sub	a4,a4,a5
 fff0130:	00f60633          	add	a2,a2,a5
 fff0134:	f6c378e3          	bgeu	t1,a2,fff00a4 <memset+0x44>
 fff0138:	f3dff06f          	j	fff0074 <memset+0x14>

0fff013c <_Z17CreateTaskContextv>:
 fff013c:	ff010113          	addi	sp,sp,-16
 fff0140:	00007517          	auipc	a0,0x7
 fff0144:	75c50513          	addi	a0,a0,1884 # fff789c <_ZL9g_taskctx>
 fff0148:	00112623          	sw	ra,12(sp)
 fff014c:	155000ef          	jal	ra,fff0aa0 <_Z14TaskInitSystemP12STaskContext>
 fff0150:	00c12083          	lw	ra,12(sp)
 fff0154:	00007517          	auipc	a0,0x7
 fff0158:	74850513          	addi	a0,a0,1864 # fff789c <_ZL9g_taskctx>
 fff015c:	01010113          	addi	sp,sp,16
 fff0160:	00008067          	ret

0fff0164 <_Z10HandleUARTv>:
 fff0164:	fe010113          	addi	sp,sp,-32
 fff0168:	00812c23          	sw	s0,24(sp)
 fff016c:	00912a23          	sw	s1,20(sp)
 fff0170:	00112e23          	sw	ra,28(sp)
 fff0174:	00007417          	auipc	s0,0x7
 fff0178:	6c042403          	lw	s0,1728(s0) # fff7834 <_GLOBAL_OFFSET_TABLE_+0x4>
 fff017c:	00c10493          	addi	s1,sp,12
 fff0180:	7dc000ef          	jal	ra,fff095c <_Z20UARTInputFifoHasDatav>
 fff0184:	00051c63          	bnez	a0,fff019c <_Z10HandleUARTv+0x38>
 fff0188:	01c12083          	lw	ra,28(sp)
 fff018c:	01812403          	lw	s0,24(sp)
 fff0190:	01412483          	lw	s1,20(sp)
 fff0194:	02010113          	addi	sp,sp,32
 fff0198:	00008067          	ret
 fff019c:	00042783          	lw	a5,0(s0)
 fff01a0:	00400593          	li	a1,4
 fff01a4:	00048513          	mv	a0,s1
 fff01a8:	0007a783          	lw	a5,0(a5)
 fff01ac:	00f12623          	sw	a5,12(sp)
 fff01b0:	711000ef          	jal	ra,fff10c0 <_Z15RingBufferWritePKvm>
 fff01b4:	fcdff06f          	j	fff0180 <_Z10HandleUARTv+0x1c>
	...

0fff01c0 <_Z25interrupt_service_routinev>:
 fff01c0:	00109073          	csrw	fflags,ra
 fff01c4:	00211073          	csrw	frm,sp
 fff01c8:	00319073          	csrw	fcsr,gp
 fff01cc:	00421073          	csrw	uie,tp
 fff01d0:	00529073          	csrw	utvec,t0
 fff01d4:	00631073          	csrw	0x6,t1
 fff01d8:	00739073          	csrw	0x7,t2
 fff01dc:	00841073          	csrw	vstart,s0
 fff01e0:	00949073          	csrw	vxsat,s1
 fff01e4:	00a51073          	csrw	vxrm,a0
 fff01e8:	00b59073          	csrw	0xb,a1
 fff01ec:	00c61073          	csrw	0xc,a2
 fff01f0:	00d69073          	csrw	0xd,a3
 fff01f4:	00e71073          	csrw	0xe,a4
 fff01f8:	00f79073          	csrw	vcsr,a5
 fff01fc:	01081073          	csrw	0x10,a6
 fff0200:	01189073          	csrw	0x11,a7
 fff0204:	01291073          	csrw	0x12,s2
 fff0208:	01399073          	csrw	0x13,s3
 fff020c:	014a1073          	csrw	0x14,s4
 fff0210:	015a9073          	csrw	seed,s5
 fff0214:	016b1073          	csrw	0x16,s6
 fff0218:	017b9073          	csrw	0x17,s7
 fff021c:	018c1073          	csrw	0x18,s8
 fff0220:	019c9073          	csrw	0x19,s9
 fff0224:	01ad1073          	csrw	0x1a,s10
 fff0228:	01bd9073          	csrw	0x1b,s11
 fff022c:	01ce1073          	csrw	0x1c,t3
 fff0230:	01de9073          	csrw	0x1d,t4
 fff0234:	01ef1073          	csrw	0x1e,t5
 fff0238:	01ff9073          	csrw	0x1f,t6
 fff023c:	341027f3          	csrr	a5,mepc
 fff0240:	00079073          	csrw	ustatus,a5
 fff0244:	01102973          	csrr	s2,0x11
 fff0248:	342029f3          	csrr	s3,mcause
 fff024c:	341024f3          	csrr	s1,mepc
 fff0250:	00199413          	slli	s0,s3,0x1
 fff0254:	00145413          	srli	s0,s0,0x1
 fff0258:	0e09d863          	bgez	s3,fff0348 <_Z25interrupt_service_routinev+0x188>
 fff025c:	00700793          	li	a5,7
 fff0260:	08f40c63          	beq	s0,a5,fff02f8 <_Z25interrupt_service_routinev+0x138>
 fff0264:	00b00793          	li	a5,11
 fff0268:	0af41c63          	bne	s0,a5,fff0320 <_Z25interrupt_service_routinev+0x160>
 fff026c:	ef9ff0ef          	jal	ra,fff0164 <_Z10HandleUARTv>
 fff0270:	000027f3          	csrr	a5,ustatus
 fff0274:	34179073          	csrw	mepc,a5
 fff0278:	001020f3          	csrr	ra,fflags
 fff027c:	00202173          	csrr	sp,frm
 fff0280:	003021f3          	csrr	gp,fcsr
 fff0284:	00402273          	csrr	tp,uie
 fff0288:	005022f3          	csrr	t0,utvec
 fff028c:	00602373          	csrr	t1,0x6
 fff0290:	007023f3          	csrr	t2,0x7
 fff0294:	00802473          	csrr	s0,vstart
 fff0298:	009024f3          	csrr	s1,vxsat
 fff029c:	00a02573          	csrr	a0,vxrm
 fff02a0:	00b025f3          	csrr	a1,0xb
 fff02a4:	00c02673          	csrr	a2,0xc
 fff02a8:	00d026f3          	csrr	a3,0xd
 fff02ac:	00e02773          	csrr	a4,0xe
 fff02b0:	00f027f3          	csrr	a5,vcsr
 fff02b4:	01002873          	csrr	a6,0x10
 fff02b8:	011028f3          	csrr	a7,0x11
 fff02bc:	01202973          	csrr	s2,0x12
 fff02c0:	013029f3          	csrr	s3,0x13
 fff02c4:	01402a73          	csrr	s4,0x14
 fff02c8:	01502af3          	csrr	s5,seed
 fff02cc:	01602b73          	csrr	s6,0x16
 fff02d0:	01702bf3          	csrr	s7,0x17
 fff02d4:	01802c73          	csrr	s8,0x18
 fff02d8:	01902cf3          	csrr	s9,0x19
 fff02dc:	01a02d73          	csrr	s10,0x1a
 fff02e0:	01b02df3          	csrr	s11,0x1b
 fff02e4:	01c02e73          	csrr	t3,0x1c
 fff02e8:	01d02ef3          	csrr	t4,0x1d
 fff02ec:	01e02f73          	csrr	t5,0x1e
 fff02f0:	01f02ff3          	csrr	t6,0x1f
 fff02f4:	30200073          	mret
 fff02f8:	00007517          	auipc	a0,0x7
 fff02fc:	5a450513          	addi	a0,a0,1444 # fff789c <_ZL9g_taskctx>
 fff0300:	0d5000ef          	jal	ra,fff0bd4 <_Z16TaskSwitchToNextP12STaskContext>
 fff0304:	00050413          	mv	s0,a0
 fff0308:	411000ef          	jal	ra,fff0f18 <_Z11E32ReadTimev>
 fff030c:	00a40533          	add	a0,s0,a0
 fff0310:	00853433          	sltu	s0,a0,s0
 fff0314:	00b405b3          	add	a1,s0,a1
 fff0318:	499000ef          	jal	ra,fff0fb0 <_Z17E32SetTimeComparey>
 fff031c:	f55ff06f          	j	fff0270 <_Z25interrupt_service_routinev+0xb0>
 fff0320:	00005517          	auipc	a0,0x5
 fff0324:	20c50513          	addi	a0,a0,524 # fff552c <_free_r+0x30c>
 fff0328:	64c000ef          	jal	ra,fff0974 <_Z9UARTWritePKc>
 fff032c:	00040513          	mv	a0,s0
 fff0330:	668000ef          	jal	ra,fff0998 <_Z12UARTWriteHexm>
 fff0334:	00005517          	auipc	a0,0x5
 fff0338:	26050513          	addi	a0,a0,608 # fff5594 <_free_r+0x374>
 fff033c:	638000ef          	jal	ra,fff0974 <_Z9UARTWritePKc>
 fff0340:	10500073          	wfi
 fff0344:	ffdff06f          	j	fff0340 <_Z25interrupt_service_routinev+0x180>
 fff0348:	00300793          	li	a5,3
 fff034c:	ffc48493          	addi	s1,s1,-4
 fff0350:	08f40c63          	beq	s0,a5,fff03e8 <_Z25interrupt_service_routinev+0x228>
 fff0354:	00b00793          	li	a5,11
 fff0358:	0af40063          	beq	s0,a5,fff03f8 <_Z25interrupt_service_routinev+0x238>
 fff035c:	00005517          	auipc	a0,0x5
 fff0360:	24050513          	addi	a0,a0,576 # fff559c <_free_r+0x37c>
 fff0364:	610000ef          	jal	ra,fff0974 <_Z9UARTWritePKc>
 fff0368:	00005517          	auipc	a0,0x5
 fff036c:	24850513          	addi	a0,a0,584 # fff55b0 <_free_r+0x390>
 fff0370:	604000ef          	jal	ra,fff0974 <_Z9UARTWritePKc>
 fff0374:	00005517          	auipc	a0,0x5
 fff0378:	43450513          	addi	a0,a0,1076 # fff57a8 <_free_r+0x588>
 fff037c:	5f8000ef          	jal	ra,fff0974 <_Z9UARTWritePKc>
 fff0380:	00005517          	auipc	a0,0x5
 fff0384:	46450513          	addi	a0,a0,1124 # fff57e4 <_free_r+0x5c4>
 fff0388:	5ec000ef          	jal	ra,fff0974 <_Z9UARTWritePKc>
 fff038c:	00098513          	mv	a0,s3
 fff0390:	608000ef          	jal	ra,fff0998 <_Z12UARTWriteHexm>
 fff0394:	00005517          	auipc	a0,0x5
 fff0398:	46850513          	addi	a0,a0,1128 # fff57fc <_free_r+0x5dc>
 fff039c:	5d8000ef          	jal	ra,fff0974 <_Z9UARTWritePKc>
 fff03a0:	00090513          	mv	a0,s2
 fff03a4:	5f4000ef          	jal	ra,fff0998 <_Z12UARTWriteHexm>
 fff03a8:	00005517          	auipc	a0,0x5
 fff03ac:	32c50513          	addi	a0,a0,812 # fff56d4 <_free_r+0x4b4>
 fff03b0:	5c4000ef          	jal	ra,fff0974 <_Z9UARTWritePKc>
 fff03b4:	00048513          	mv	a0,s1
 fff03b8:	5e0000ef          	jal	ra,fff0998 <_Z12UARTWriteHexm>
 fff03bc:	00005517          	auipc	a0,0x5
 fff03c0:	44450513          	addi	a0,a0,1092 # fff5800 <_free_r+0x5e0>
 fff03c4:	5b0000ef          	jal	ra,fff0974 <_Z9UARTWritePKc>
 fff03c8:	00005517          	auipc	a0,0x5
 fff03cc:	33450513          	addi	a0,a0,820 # fff56fc <_free_r+0x4dc>
 fff03d0:	5a4000ef          	jal	ra,fff0974 <_Z9UARTWritePKc>
 fff03d4:	00005517          	auipc	a0,0x5
 fff03d8:	3cc50513          	addi	a0,a0,972 # fff57a0 <_free_r+0x580>
 fff03dc:	598000ef          	jal	ra,fff0974 <_Z9UARTWritePKc>
 fff03e0:	10500073          	wfi
 fff03e4:	ffdff06f          	j	fff03e0 <_Z25interrupt_service_routinev+0x220>
 fff03e8:	00005517          	auipc	a0,0x5
 fff03ec:	17450513          	addi	a0,a0,372 # fff555c <_free_r+0x33c>
 fff03f0:	584000ef          	jal	ra,fff0974 <_Z9UARTWritePKc>
 fff03f4:	e7dff06f          	j	fff0270 <_Z25interrupt_service_routinev+0xb0>
 fff03f8:	05d00793          	li	a5,93
 fff03fc:	00f91a63          	bne	s2,a5,fff0410 <_Z25interrupt_service_routinev+0x250>
 fff0400:	00007517          	auipc	a0,0x7
 fff0404:	49c50513          	addi	a0,a0,1180 # fff789c <_ZL9g_taskctx>
 fff0408:	7ac000ef          	jal	ra,fff0bb4 <_Z19TaskExitCurrentTaskP12STaskContext>
 fff040c:	e65ff06f          	j	fff0270 <_Z25interrupt_service_routinev+0xb0>
 fff0410:	00005517          	auipc	a0,0x5
 fff0414:	18c50513          	addi	a0,a0,396 # fff559c <_free_r+0x37c>
 fff0418:	55c000ef          	jal	ra,fff0974 <_Z9UARTWritePKc>
 fff041c:	00005517          	auipc	a0,0x5
 fff0420:	19450513          	addi	a0,a0,404 # fff55b0 <_free_r+0x390>
 fff0424:	550000ef          	jal	ra,fff0974 <_Z9UARTWritePKc>
 fff0428:	00005517          	auipc	a0,0x5
 fff042c:	22c50513          	addi	a0,a0,556 # fff5654 <_free_r+0x434>
 fff0430:	544000ef          	jal	ra,fff0974 <_Z9UARTWritePKc>
 fff0434:	00005517          	auipc	a0,0x5
 fff0438:	25c50513          	addi	a0,a0,604 # fff5690 <_free_r+0x470>
 fff043c:	538000ef          	jal	ra,fff0974 <_Z9UARTWritePKc>
 fff0440:	00005517          	auipc	a0,0x5
 fff0444:	28c50513          	addi	a0,a0,652 # fff56cc <_free_r+0x4ac>
 fff0448:	52c000ef          	jal	ra,fff0974 <_Z9UARTWritePKc>
 fff044c:	00090513          	mv	a0,s2
 fff0450:	548000ef          	jal	ra,fff0998 <_Z12UARTWriteHexm>
 fff0454:	00005517          	auipc	a0,0x5
 fff0458:	28050513          	addi	a0,a0,640 # fff56d4 <_free_r+0x4b4>
 fff045c:	518000ef          	jal	ra,fff0974 <_Z9UARTWritePKc>
 fff0460:	00048513          	mv	a0,s1
 fff0464:	534000ef          	jal	ra,fff0998 <_Z12UARTWriteHexm>
 fff0468:	00005517          	auipc	a0,0x5
 fff046c:	27050513          	addi	a0,a0,624 # fff56d8 <_free_r+0x4b8>
 fff0470:	504000ef          	jal	ra,fff0974 <_Z9UARTWritePKc>
 fff0474:	00005517          	auipc	a0,0x5
 fff0478:	28850513          	addi	a0,a0,648 # fff56fc <_free_r+0x4dc>
 fff047c:	4f8000ef          	jal	ra,fff0974 <_Z9UARTWritePKc>
 fff0480:	00005517          	auipc	a0,0x5
 fff0484:	32050513          	addi	a0,a0,800 # fff57a0 <_free_r+0x580>
 fff0488:	f69ff06f          	j	fff03f0 <_Z25interrupt_service_routinev+0x230>
	...

0fff0498 <_Z10InstallISRv>:
 fff0498:	ff010113          	addi	sp,sp,-16
 fff049c:	00112623          	sw	ra,12(sp)
 fff04a0:	00007797          	auipc	a5,0x7
 fff04a4:	3c87a783          	lw	a5,968(a5) # fff7868 <_GLOBAL_OFFSET_TABLE_+0x38>
 fff04a8:	30579073          	csrw	mtvec,a5
 fff04ac:	26d000ef          	jal	ra,fff0f18 <_Z11E32ReadTimev>
 fff04b0:	00050793          	mv	a5,a0
 fff04b4:	00262537          	lui	a0,0x262
 fff04b8:	5a050513          	addi	a0,a0,1440 # 2625a0 <__stack_size+0x2624a0>
 fff04bc:	00a78533          	add	a0,a5,a0
 fff04c0:	00f537b3          	sltu	a5,a0,a5
 fff04c4:	00b785b3          	add	a1,a5,a1
 fff04c8:	2e9000ef          	jal	ra,fff0fb0 <_Z17E32SetTimeComparey>
 fff04cc:	000017b7          	lui	a5,0x1
 fff04d0:	88878793          	addi	a5,a5,-1912 # 888 <__stack_size+0x788>
 fff04d4:	30479073          	csrw	mie,a5
 fff04d8:	30045073          	csrwi	mstatus,8
 fff04dc:	00c12083          	lw	ra,12(sp)
 fff04e0:	01010113          	addi	sp,sp,16
 fff04e4:	00008067          	ret

0fff04e8 <_Z9_stubTaskv>:
 fff04e8:	00000013          	nop
 fff04ec:	00008067          	ret

0fff04f0 <_Z11RunExecTaskv>:
 fff04f0:	00008797          	auipc	a5,0x8
 fff04f4:	63478793          	addi	a5,a5,1588 # fff8b24 <_ZL14s_startAddress>
 fff04f8:	0007a403          	lw	s0,0(a5)
 fff04fc:	000400e7          	jalr	s0
 fff0500:	00008067          	ret

0fff0504 <main>:
 fff0504:	fc010113          	addi	sp,sp,-64
 fff0508:	00005517          	auipc	a0,0x5
 fff050c:	30450513          	addi	a0,a0,772 # fff580c <_free_r+0x5ec>
 fff0510:	02112e23          	sw	ra,60(sp)
 fff0514:	02812c23          	sw	s0,56(sp)
 fff0518:	02912a23          	sw	s1,52(sp)
 fff051c:	03212823          	sw	s2,48(sp)
 fff0520:	03312623          	sw	s3,44(sp)
 fff0524:	03412423          	sw	s4,40(sp)
 fff0528:	03512223          	sw	s5,36(sp)
 fff052c:	03612023          	sw	s6,32(sp)
 fff0530:	01712e23          	sw	s7,28(sp)
 fff0534:	440000ef          	jal	ra,fff0974 <_Z9UARTWritePKc>
 fff0538:	2d5000ef          	jal	ra,fff100c <_Z15RingBufferResetv>
 fff053c:	0e8000ef          	jal	ra,fff0624 <_Z10MountDrivev>
 fff0540:	00100593          	li	a1,1
 fff0544:	00005517          	auipc	a0,0x5
 fff0548:	2e450513          	addi	a0,a0,740 # fff5828 <_free_r+0x608>
 fff054c:	33c000ef          	jal	ra,fff0888 <_Z14LoadExecutablePKcb>
 fff0550:	00008497          	auipc	s1,0x8
 fff0554:	5d448493          	addi	s1,s1,1492 # fff8b24 <_ZL14s_startAddress>
 fff0558:	00a4a023          	sw	a0,0(s1)
 fff055c:	be1ff0ef          	jal	ra,fff013c <_Z17CreateTaskContextv>
 fff0560:	000016b7          	lui	a3,0x1
 fff0564:	38868693          	addi	a3,a3,904 # 1388 <__stack_size+0x1288>
 fff0568:	00007617          	auipc	a2,0x7
 fff056c:	2dc62603          	lw	a2,732(a2) # fff7844 <_GLOBAL_OFFSET_TABLE_+0x14>
 fff0570:	00005597          	auipc	a1,0x5
 fff0574:	2c858593          	addi	a1,a1,712 # fff5838 <_free_r+0x618>
 fff0578:	00050413          	mv	s0,a0
 fff057c:	590000ef          	jal	ra,fff0b0c <_Z7TaskAddP12STaskContextPKcPFvvEm>
 fff0580:	0004a783          	lw	a5,0(s1)
 fff0584:	02078263          	beqz	a5,fff05a8 <main+0xa4>
 fff0588:	000f46b7          	lui	a3,0xf4
 fff058c:	24068693          	addi	a3,a3,576 # f4240 <__stack_size+0xf4140>
 fff0590:	00007617          	auipc	a2,0x7
 fff0594:	2bc62603          	lw	a2,700(a2) # fff784c <_GLOBAL_OFFSET_TABLE_+0x1c>
 fff0598:	00005597          	auipc	a1,0x5
 fff059c:	2a858593          	addi	a1,a1,680 # fff5840 <_free_r+0x620>
 fff05a0:	00040513          	mv	a0,s0
 fff05a4:	568000ef          	jal	ra,fff0b0c <_Z7TaskAddP12STaskContextPKcPFvvEm>
 fff05a8:	009894b7          	lui	s1,0x989
 fff05ac:	eedff0ef          	jal	ra,fff0498 <_Z10InstallISRv>
 fff05b0:	00000413          	li	s0,0
 fff05b4:	00000993          	li	s3,0
 fff05b8:	00000a13          	li	s4,0
 fff05bc:	68048493          	addi	s1,s1,1664 # 989680 <__stack_size+0x989580>
 fff05c0:	00c10a93          	addi	s5,sp,12
 fff05c4:	00007b17          	auipc	s6,0x7
 fff05c8:	294b2b03          	lw	s6,660(s6) # fff7858 <_GLOBAL_OFFSET_TABLE_+0x28>
 fff05cc:	14d000ef          	jal	ra,fff0f18 <_Z11E32ReadTimev>
 fff05d0:	41350933          	sub	s2,a0,s3
 fff05d4:	01253533          	sltu	a0,a0,s2
 fff05d8:	414585b3          	sub	a1,a1,s4
 fff05dc:	40a58bb3          	sub	s7,a1,a0
 fff05e0:	00a59463          	bne	a1,a0,fff05e8 <main+0xe4>
 fff05e4:	0124fe63          	bgeu	s1,s2,fff0600 <main+0xfc>
 fff05e8:	00147513          	andi	a0,s0,1
 fff05ec:	fff50513          	addi	a0,a0,-1
 fff05f0:	209000ef          	jal	ra,fff0ff8 <_Z11LEDSetStatem>
 fff05f4:	00140413          	addi	s0,s0,1
 fff05f8:	00090993          	mv	s3,s2
 fff05fc:	000b8a13          	mv	s4,s7
 fff0600:	00012623          	sw	zero,12(sp)
 fff0604:	00400593          	li	a1,4
 fff0608:	000a8513          	mv	a0,s5
 fff060c:	225000ef          	jal	ra,fff1030 <_Z14RingBufferReadPvm>
 fff0610:	fa050ee3          	beqz	a0,fff05cc <main+0xc8>
 fff0614:	000b2783          	lw	a5,0(s6)
 fff0618:	00c12703          	lw	a4,12(sp)
 fff061c:	00e7a023          	sw	a4,0(a5)
 fff0620:	fe5ff06f          	j	fff0604 <main+0x100>

0fff0624 <_Z10MountDrivev>:
 fff0624:	ff010113          	addi	sp,sp,-16
 fff0628:	00812423          	sw	s0,8(sp)
 fff062c:	00008417          	auipc	s0,0x8
 fff0630:	50040413          	addi	s0,s0,1280 # fff8b2c <_ZL9havedrive>
 fff0634:	00042783          	lw	a5,0(s0)
 fff0638:	00112623          	sw	ra,12(sp)
 fff063c:	06079a63          	bnez	a5,fff06b0 <_Z10MountDrivev+0x8c>
 fff0640:	23800513          	li	a0,568
 fff0644:	5d5030ef          	jal	ra,fff4418 <malloc>
 fff0648:	00007797          	auipc	a5,0x7
 fff064c:	2287a783          	lw	a5,552(a5) # fff7870 <_GLOBAL_OFFSET_TABLE_+0x40>
 fff0650:	00100613          	li	a2,1
 fff0654:	00005597          	auipc	a1,0x5
 fff0658:	1f858593          	addi	a1,a1,504 # fff584c <_free_r+0x62c>
 fff065c:	00a7a023          	sw	a0,0(a5)
 fff0660:	231020ef          	jal	ra,fff3090 <f_mount>
 fff0664:	02050863          	beqz	a0,fff0694 <_Z10MountDrivev+0x70>
 fff0668:	00008797          	auipc	a5,0x8
 fff066c:	4c07a223          	sw	zero,1220(a5) # fff8b2c <_ZL9havedrive>
 fff0670:	00251513          	slli	a0,a0,0x2
 fff0674:	00007797          	auipc	a5,0x7
 fff0678:	1f87a783          	lw	a5,504(a5) # fff786c <_GLOBAL_OFFSET_TABLE_+0x3c>
 fff067c:	00812403          	lw	s0,8(sp)
 fff0680:	00a787b3          	add	a5,a5,a0
 fff0684:	00c12083          	lw	ra,12(sp)
 fff0688:	0007a503          	lw	a0,0(a5)
 fff068c:	01010113          	addi	sp,sp,16
 fff0690:	2e40006f          	j	fff0974 <_Z9UARTWritePKc>
 fff0694:	00005597          	auipc	a1,0x5
 fff0698:	1bc58593          	addi	a1,a1,444 # fff5850 <_free_r+0x630>
 fff069c:	00006517          	auipc	a0,0x6
 fff06a0:	73450513          	addi	a0,a0,1844 # fff6dd0 <_ZL10currentdir>
 fff06a4:	0f1040ef          	jal	ra,fff4f94 <strcpy>
 fff06a8:	00100793          	li	a5,1
 fff06ac:	00f42023          	sw	a5,0(s0)
 fff06b0:	00c12083          	lw	ra,12(sp)
 fff06b4:	00812403          	lw	s0,8(sp)
 fff06b8:	01010113          	addi	sp,sp,16
 fff06bc:	00008067          	ret

0fff06c0 <_Z12UnmountDrivev>:
 fff06c0:	00008797          	auipc	a5,0x8
 fff06c4:	46c7a783          	lw	a5,1132(a5) # fff8b2c <_ZL9havedrive>
 fff06c8:	04078263          	beqz	a5,fff070c <_Z12UnmountDrivev+0x4c>
 fff06cc:	ff010113          	addi	sp,sp,-16
 fff06d0:	00100613          	li	a2,1
 fff06d4:	00005597          	auipc	a1,0x5
 fff06d8:	17858593          	addi	a1,a1,376 # fff584c <_free_r+0x62c>
 fff06dc:	00000513          	li	a0,0
 fff06e0:	00112623          	sw	ra,12(sp)
 fff06e4:	1ad020ef          	jal	ra,fff3090 <f_mount>
 fff06e8:	00007797          	auipc	a5,0x7
 fff06ec:	1887a783          	lw	a5,392(a5) # fff7870 <_GLOBAL_OFFSET_TABLE_+0x40>
 fff06f0:	0007a503          	lw	a0,0(a5)
 fff06f4:	535030ef          	jal	ra,fff4428 <free>
 fff06f8:	00c12083          	lw	ra,12(sp)
 fff06fc:	00008797          	auipc	a5,0x8
 fff0700:	4207a823          	sw	zero,1072(a5) # fff8b2c <_ZL9havedrive>
 fff0704:	01010113          	addi	sp,sp,16
 fff0708:	00008067          	ret
 fff070c:	00008067          	ret

0fff0710 <_Z29ParseELFHeaderAndLoadSectionsP3FILP16SElfFileHeader32Rm>:
 fff0710:	0015c783          	lbu	a5,1(a1)
 fff0714:	0005c703          	lbu	a4,0(a1)
 fff0718:	00879793          	slli	a5,a5,0x8
 fff071c:	00e7e7b3          	or	a5,a5,a4
 fff0720:	0025c703          	lbu	a4,2(a1)
 fff0724:	01071713          	slli	a4,a4,0x10
 fff0728:	00f76733          	or	a4,a4,a5
 fff072c:	0035c783          	lbu	a5,3(a1)
 fff0730:	01879793          	slli	a5,a5,0x18
 fff0734:	00e7e7b3          	or	a5,a5,a4
 fff0738:	464c4737          	lui	a4,0x464c4
 fff073c:	57f70713          	addi	a4,a4,1407 # 464c457f <__BSS_END__$+0x364cb817>
 fff0740:	00e78863          	beq	a5,a4,fff0750 <_Z29ParseELFHeaderAndLoadSectionsP3FILP16SElfFileHeader32Rm+0x40>
 fff0744:	00005517          	auipc	a0,0x5
 fff0748:	11450513          	addi	a0,a0,276 # fff5858 <_free_r+0x638>
 fff074c:	2280006f          	j	fff0974 <_Z9UARTWritePKc>
 fff0750:	fb010113          	addi	sp,sp,-80
 fff0754:	04812423          	sw	s0,72(sp)
 fff0758:	04912223          	sw	s1,68(sp)
 fff075c:	05212023          	sw	s2,64(sp)
 fff0760:	03312e23          	sw	s3,60(sp)
 fff0764:	03412c23          	sw	s4,56(sp)
 fff0768:	04112623          	sw	ra,76(sp)
 fff076c:	03512a23          	sw	s5,52(sp)
 fff0770:	0195c783          	lbu	a5,25(a1)
 fff0774:	0185c703          	lbu	a4,24(a1)
 fff0778:	00050493          	mv	s1,a0
 fff077c:	00879793          	slli	a5,a5,0x8
 fff0780:	00e7e7b3          	or	a5,a5,a4
 fff0784:	01a5c703          	lbu	a4,26(a1)
 fff0788:	00058413          	mv	s0,a1
 fff078c:	00000a13          	li	s4,0
 fff0790:	01071713          	slli	a4,a4,0x10
 fff0794:	00f76733          	or	a4,a4,a5
 fff0798:	01b5c783          	lbu	a5,27(a1)
 fff079c:	00c10913          	addi	s2,sp,12
 fff07a0:	00012623          	sw	zero,12(sp)
 fff07a4:	01879793          	slli	a5,a5,0x18
 fff07a8:	00e7e7b3          	or	a5,a5,a4
 fff07ac:	00f62023          	sw	a5,0(a2)
 fff07b0:	01010993          	addi	s3,sp,16
 fff07b4:	02d44783          	lbu	a5,45(s0)
 fff07b8:	02c44703          	lbu	a4,44(s0)
 fff07bc:	00879793          	slli	a5,a5,0x8
 fff07c0:	00e7e7b3          	or	a5,a5,a4
 fff07c4:	02fa6463          	bltu	s4,a5,fff07ec <_Z29ParseELFHeaderAndLoadSectionsP3FILP16SElfFileHeader32Rm+0xdc>
 fff07c8:	04c12083          	lw	ra,76(sp)
 fff07cc:	04812403          	lw	s0,72(sp)
 fff07d0:	04412483          	lw	s1,68(sp)
 fff07d4:	04012903          	lw	s2,64(sp)
 fff07d8:	03c12983          	lw	s3,60(sp)
 fff07dc:	03812a03          	lw	s4,56(sp)
 fff07e0:	03412a83          	lw	s5,52(sp)
 fff07e4:	05010113          	addi	sp,sp,80
 fff07e8:	00008067          	ret
 fff07ec:	02b44783          	lbu	a5,43(s0)
 fff07f0:	02a44703          	lbu	a4,42(s0)
 fff07f4:	01d44683          	lbu	a3,29(s0)
 fff07f8:	00879793          	slli	a5,a5,0x8
 fff07fc:	00e7e7b3          	or	a5,a5,a4
 fff0800:	034787b3          	mul	a5,a5,s4
 fff0804:	01c44703          	lbu	a4,28(s0)
 fff0808:	00869693          	slli	a3,a3,0x8
 fff080c:	01f44583          	lbu	a1,31(s0)
 fff0810:	00e6e6b3          	or	a3,a3,a4
 fff0814:	01e44703          	lbu	a4,30(s0)
 fff0818:	01859593          	slli	a1,a1,0x18
 fff081c:	00048513          	mv	a0,s1
 fff0820:	01071713          	slli	a4,a4,0x10
 fff0824:	00d76733          	or	a4,a4,a3
 fff0828:	00e5e5b3          	or	a1,a1,a4
 fff082c:	00b785b3          	add	a1,a5,a1
 fff0830:	4ec030ef          	jal	ra,fff3d1c <f_lseek>
 fff0834:	02000613          	li	a2,32
 fff0838:	00090693          	mv	a3,s2
 fff083c:	00098593          	mv	a1,s3
 fff0840:	00048513          	mv	a0,s1
 fff0844:	01c030ef          	jal	ra,fff3860 <f_read>
 fff0848:	02412603          	lw	a2,36(sp)
 fff084c:	02060a63          	beqz	a2,fff0880 <_Z29ParseELFHeaderAndLoadSectionsP3FILP16SElfFileHeader32Rm+0x170>
 fff0850:	01c12a83          	lw	s5,28(sp)
 fff0854:	00000593          	li	a1,0
 fff0858:	000a8513          	mv	a0,s5
 fff085c:	805ff0ef          	jal	ra,fff0060 <memset>
 fff0860:	01412583          	lw	a1,20(sp)
 fff0864:	00048513          	mv	a0,s1
 fff0868:	4b4030ef          	jal	ra,fff3d1c <f_lseek>
 fff086c:	02012603          	lw	a2,32(sp)
 fff0870:	00090693          	mv	a3,s2
 fff0874:	000a8593          	mv	a1,s5
 fff0878:	00048513          	mv	a0,s1
 fff087c:	7e5020ef          	jal	ra,fff3860 <f_read>
 fff0880:	001a0a13          	addi	s4,s4,1
 fff0884:	f31ff06f          	j	fff07b4 <_Z29ParseELFHeaderAndLoadSectionsP3FILP16SElfFileHeader32Rm+0xa4>

0fff0888 <_Z14LoadExecutablePKcb>:
 fff0888:	d7010113          	addi	sp,sp,-656
 fff088c:	28912223          	sw	s1,644(sp)
 fff0890:	05410493          	addi	s1,sp,84
 fff0894:	28812423          	sw	s0,648(sp)
 fff0898:	29212023          	sw	s2,640(sp)
 fff089c:	00050413          	mv	s0,a0
 fff08a0:	00058913          	mv	s2,a1
 fff08a4:	00100613          	li	a2,1
 fff08a8:	00050593          	mv	a1,a0
 fff08ac:	00048513          	mv	a0,s1
 fff08b0:	28112623          	sw	ra,652(sp)
 fff08b4:	065020ef          	jal	ra,fff3118 <f_open>
 fff08b8:	06051a63          	bnez	a0,fff092c <_Z14LoadExecutablePKcb+0xa4>
 fff08bc:	00005517          	auipc	a0,0x5
 fff08c0:	fbc50513          	addi	a0,a0,-68 # fff5878 <_free_r+0x658>
 fff08c4:	0b0000ef          	jal	ra,fff0974 <_Z9UARTWritePKc>
 fff08c8:	01810693          	addi	a3,sp,24
 fff08cc:	02010593          	addi	a1,sp,32
 fff08d0:	03400613          	li	a2,52
 fff08d4:	00048513          	mv	a0,s1
 fff08d8:	00b12623          	sw	a1,12(sp)
 fff08dc:	785020ef          	jal	ra,fff3860 <f_read>
 fff08e0:	00c12583          	lw	a1,12(sp)
 fff08e4:	01c10613          	addi	a2,sp,28
 fff08e8:	00048513          	mv	a0,s1
 fff08ec:	e25ff0ef          	jal	ra,fff0710 <_Z29ParseELFHeaderAndLoadSectionsP3FILP16SElfFileHeader32Rm>
 fff08f0:	00048513          	mv	a0,s1
 fff08f4:	3ec030ef          	jal	ra,fff3ce0 <f_close>
 fff08f8:	dc9ff0ef          	jal	ra,fff06c0 <_Z12UnmountDrivev>
 fff08fc:	fc000073          	.4byte	0xfc000073
 fff0900:	0000100f          	fence.i
 fff0904:	00005517          	auipc	a0,0x5
 fff0908:	f9050513          	addi	a0,a0,-112 # fff5894 <_free_r+0x674>
 fff090c:	068000ef          	jal	ra,fff0974 <_Z9UARTWritePKc>
 fff0910:	01c12503          	lw	a0,28(sp)
 fff0914:	28c12083          	lw	ra,652(sp)
 fff0918:	28812403          	lw	s0,648(sp)
 fff091c:	28412483          	lw	s1,644(sp)
 fff0920:	28012903          	lw	s2,640(sp)
 fff0924:	29010113          	addi	sp,sp,656
 fff0928:	00008067          	ret
 fff092c:	00091663          	bnez	s2,fff0938 <_Z14LoadExecutablePKcb+0xb0>
 fff0930:	00000513          	li	a0,0
 fff0934:	fe1ff06f          	j	fff0914 <_Z14LoadExecutablePKcb+0x8c>
 fff0938:	00005517          	auipc	a0,0x5
 fff093c:	f6450513          	addi	a0,a0,-156 # fff589c <_free_r+0x67c>
 fff0940:	034000ef          	jal	ra,fff0974 <_Z9UARTWritePKc>
 fff0944:	00040513          	mv	a0,s0
 fff0948:	02c000ef          	jal	ra,fff0974 <_Z9UARTWritePKc>
 fff094c:	00005517          	auipc	a0,0x5
 fff0950:	f6050513          	addi	a0,a0,-160 # fff58ac <_free_r+0x68c>
 fff0954:	020000ef          	jal	ra,fff0974 <_Z9UARTWritePKc>
 fff0958:	fd9ff06f          	j	fff0930 <_Z14LoadExecutablePKcb+0xa8>

0fff095c <_Z20UARTInputFifoHasDatav>:
 fff095c:	00007797          	auipc	a5,0x7
 fff0960:	f087a783          	lw	a5,-248(a5) # fff7864 <_GLOBAL_OFFSET_TABLE_+0x34>
 fff0964:	0007a783          	lw	a5,0(a5)
 fff0968:	0007a503          	lw	a0,0(a5)
 fff096c:	00157513          	andi	a0,a0,1
 fff0970:	00008067          	ret

0fff0974 <_Z9UARTWritePKc>:
 fff0974:	00007797          	auipc	a5,0x7
 fff0978:	ee47a783          	lw	a5,-284(a5) # fff7858 <_GLOBAL_OFFSET_TABLE_+0x28>
 fff097c:	0007a703          	lw	a4,0(a5)
 fff0980:	00054783          	lbu	a5,0(a0)
 fff0984:	00150513          	addi	a0,a0,1
 fff0988:	00079463          	bnez	a5,fff0990 <_Z9UARTWritePKc+0x1c>
 fff098c:	00008067          	ret
 fff0990:	00f72023          	sw	a5,0(a4)
 fff0994:	fedff06f          	j	fff0980 <_Z9UARTWritePKc+0xc>

0fff0998 <_Z12UARTWriteHexm>:
 fff0998:	fd010113          	addi	sp,sp,-48
 fff099c:	02812423          	sw	s0,40(sp)
 fff09a0:	01100613          	li	a2,17
 fff09a4:	00050413          	mv	s0,a0
 fff09a8:	00005597          	auipc	a1,0x5
 fff09ac:	22058593          	addi	a1,a1,544 # fff5bc8 <_free_r+0x9a8>
 fff09b0:	00c10513          	addi	a0,sp,12
 fff09b4:	02112623          	sw	ra,44(sp)
 fff09b8:	290040ef          	jal	ra,fff4c48 <memcpy>
 fff09bc:	00010713          	mv	a4,sp
 fff09c0:	00900613          	li	a2,9
 fff09c4:	00005597          	auipc	a1,0x5
 fff09c8:	21858593          	addi	a1,a1,536 # fff5bdc <_free_r+0x9bc>
 fff09cc:	00070513          	mv	a0,a4
 fff09d0:	278040ef          	jal	ra,fff4c48 <memcpy>
 fff09d4:	01c45793          	srli	a5,s0,0x1c
 fff09d8:	02078793          	addi	a5,a5,32
 fff09dc:	002787b3          	add	a5,a5,sp
 fff09e0:	fec7c783          	lbu	a5,-20(a5)
 fff09e4:	00f10023          	sb	a5,0(sp)
 fff09e8:	01845793          	srli	a5,s0,0x18
 fff09ec:	00f7f793          	andi	a5,a5,15
 fff09f0:	02078793          	addi	a5,a5,32
 fff09f4:	002787b3          	add	a5,a5,sp
 fff09f8:	fec7c783          	lbu	a5,-20(a5)
 fff09fc:	00f100a3          	sb	a5,1(sp)
 fff0a00:	01445793          	srli	a5,s0,0x14
 fff0a04:	00f7f793          	andi	a5,a5,15
 fff0a08:	02078793          	addi	a5,a5,32
 fff0a0c:	002787b3          	add	a5,a5,sp
 fff0a10:	fec7c783          	lbu	a5,-20(a5)
 fff0a14:	00f10123          	sb	a5,2(sp)
 fff0a18:	01045793          	srli	a5,s0,0x10
 fff0a1c:	00f7f793          	andi	a5,a5,15
 fff0a20:	02078793          	addi	a5,a5,32
 fff0a24:	002787b3          	add	a5,a5,sp
 fff0a28:	fec7c783          	lbu	a5,-20(a5)
 fff0a2c:	00f101a3          	sb	a5,3(sp)
 fff0a30:	00c45793          	srli	a5,s0,0xc
 fff0a34:	00f7f793          	andi	a5,a5,15
 fff0a38:	02078793          	addi	a5,a5,32
 fff0a3c:	002787b3          	add	a5,a5,sp
 fff0a40:	fec7c783          	lbu	a5,-20(a5)
 fff0a44:	00f10223          	sb	a5,4(sp)
 fff0a48:	00845793          	srli	a5,s0,0x8
 fff0a4c:	00f7f793          	andi	a5,a5,15
 fff0a50:	02078793          	addi	a5,a5,32
 fff0a54:	002787b3          	add	a5,a5,sp
 fff0a58:	fec7c783          	lbu	a5,-20(a5)
 fff0a5c:	00f102a3          	sb	a5,5(sp)
 fff0a60:	00445793          	srli	a5,s0,0x4
 fff0a64:	00f7f793          	andi	a5,a5,15
 fff0a68:	02078793          	addi	a5,a5,32
 fff0a6c:	002787b3          	add	a5,a5,sp
 fff0a70:	fec7c783          	lbu	a5,-20(a5)
 fff0a74:	00f47413          	andi	s0,s0,15
 fff0a78:	00f10323          	sb	a5,6(sp)
 fff0a7c:	02040793          	addi	a5,s0,32
 fff0a80:	00278433          	add	s0,a5,sp
 fff0a84:	fec44783          	lbu	a5,-20(s0)
 fff0a88:	00f103a3          	sb	a5,7(sp)
 fff0a8c:	ee9ff0ef          	jal	ra,fff0974 <_Z9UARTWritePKc>
 fff0a90:	02c12083          	lw	ra,44(sp)
 fff0a94:	02812403          	lw	s0,40(sp)
 fff0a98:	03010113          	addi	sp,sp,48
 fff0a9c:	00008067          	ret

0fff0aa0 <_Z14TaskInitSystemP12STaskContext>:
 fff0aa0:	000017b7          	lui	a5,0x1
 fff0aa4:	00f507b3          	add	a5,a0,a5
 fff0aa8:	2807a023          	sw	zero,640(a5) # 1280 <__stack_size+0x1180>
 fff0aac:	2807a223          	sw	zero,644(a5)
 fff0ab0:	00000713          	li	a4,0
 fff0ab4:	00100613          	li	a2,1
 fff0ab8:	01000593          	li	a1,16
 fff0abc:	00c52023          	sw	a2,0(a0)
 fff0ac0:	00052623          	sw	zero,12(a0)
 fff0ac4:	00052a23          	sw	zero,20(a0)
 fff0ac8:	00e52e23          	sw	a4,28(a0)
 fff0acc:	02052623          	sw	zero,44(a0)
 fff0ad0:	08052e23          	sw	zero,156(a0)
 fff0ad4:	0a052023          	sw	zero,160(a0)
 fff0ad8:	08050623          	sb	zero,140(a0)
 fff0adc:	0a052223          	sw	zero,164(a0)
 fff0ae0:	00050693          	mv	a3,a0
 fff0ae4:	00000793          	li	a5,0
 fff0ae8:	0a06a423          	sw	zero,168(a3)
 fff0aec:	0a06a623          	sw	zero,172(a3)
 fff0af0:	00178793          	addi	a5,a5,1
 fff0af4:	00868693          	addi	a3,a3,8
 fff0af8:	feb798e3          	bne	a5,a1,fff0ae8 <_Z14TaskInitSystemP12STaskContext+0x48>
 fff0afc:	00170713          	addi	a4,a4,1
 fff0b00:	12850513          	addi	a0,a0,296
 fff0b04:	faf71ce3          	bne	a4,a5,fff0abc <_Z14TaskInitSystemP12STaskContext+0x1c>
 fff0b08:	00008067          	ret

0fff0b0c <_Z7TaskAddP12STaskContextPKcPFvvEm>:
 fff0b0c:	000017b7          	lui	a5,0x1
 fff0b10:	00f507b3          	add	a5,a0,a5
 fff0b14:	2847a803          	lw	a6,644(a5) # 1284 <__stack_size+0x1184>
 fff0b18:	00f00713          	li	a4,15
 fff0b1c:	09074863          	blt	a4,a6,fff0bac <_Z7TaskAddP12STaskContextPKcPFvvEm+0xa0>
 fff0b20:	2847a703          	lw	a4,644(a5)
 fff0b24:	00170713          	addi	a4,a4,1
 fff0b28:	28e7a223          	sw	a4,644(a5)
 fff0b2c:	12800793          	li	a5,296
 fff0b30:	02f807b3          	mul	a5,a6,a5
 fff0b34:	00040737          	lui	a4,0x40
 fff0b38:	fb870713          	addi	a4,a4,-72 # 3ffb8 <__stack_size+0x3feb8>
 fff0b3c:	41070733          	sub	a4,a4,a6
 fff0b40:	00a71713          	slli	a4,a4,0xa
 fff0b44:	00f507b3          	add	a5,a0,a5
 fff0b48:	00c7a623          	sw	a2,12(a5)
 fff0b4c:	00e7aa23          	sw	a4,20(a5)
 fff0b50:	02e7a623          	sw	a4,44(a5)
 fff0b54:	00d7a223          	sw	a3,4(a5)
 fff0b58:	0107ae23          	sw	a6,28(a5)
 fff0b5c:	00078693          	mv	a3,a5
 fff0b60:	00000713          	li	a4,0
 fff0b64:	00f00613          	li	a2,15
 fff0b68:	02059c63          	bnez	a1,fff0ba0 <_Z7TaskAddP12STaskContextPKcPFvvEm+0x94>
 fff0b6c:	12800693          	li	a3,296
 fff0b70:	02d80833          	mul	a6,a6,a3
 fff0b74:	01050533          	add	a0,a0,a6
 fff0b78:	00e50533          	add	a0,a0,a4
 fff0b7c:	08050623          	sb	zero,140(a0)
 fff0b80:	00100713          	li	a4,1
 fff0b84:	00e7a423          	sw	a4,8(a5)
 fff0b88:	00100513          	li	a0,1
 fff0b8c:	00008067          	ret
 fff0b90:	0005c883          	lbu	a7,0(a1)
 fff0b94:	00170713          	addi	a4,a4,1
 fff0b98:	00158593          	addi	a1,a1,1
 fff0b9c:	091685a3          	sb	a7,139(a3)
 fff0ba0:	00168693          	addi	a3,a3,1
 fff0ba4:	fec716e3          	bne	a4,a2,fff0b90 <_Z7TaskAddP12STaskContextPKcPFvvEm+0x84>
 fff0ba8:	fc5ff06f          	j	fff0b6c <_Z7TaskAddP12STaskContextPKcPFvvEm+0x60>
 fff0bac:	00000513          	li	a0,0
 fff0bb0:	00008067          	ret

0fff0bb4 <_Z19TaskExitCurrentTaskP12STaskContext>:
 fff0bb4:	004027f3          	csrr	a5,uie
 fff0bb8:	12800713          	li	a4,296
 fff0bbc:	02e787b3          	mul	a5,a5,a4
 fff0bc0:	00f50533          	add	a0,a0,a5
 fff0bc4:	00200793          	li	a5,2
 fff0bc8:	00f52423          	sw	a5,8(a0)
 fff0bcc:	00a05073          	csrwi	vxrm,0
 fff0bd0:	00008067          	ret

0fff0bd4 <_Z16TaskSwitchToNextP12STaskContext>:
 fff0bd4:	fe010113          	addi	sp,sp,-32
 fff0bd8:	01512223          	sw	s5,4(sp)
 fff0bdc:	00001ab7          	lui	s5,0x1
 fff0be0:	01550ab3          	add	s5,a0,s5
 fff0be4:	00912a23          	sw	s1,20(sp)
 fff0be8:	280aa483          	lw	s1,640(s5) # 1280 <__stack_size+0x1180>
 fff0bec:	01612023          	sw	s6,0(sp)
 fff0bf0:	12800b13          	li	s6,296
 fff0bf4:	00812c23          	sw	s0,24(sp)
 fff0bf8:	03648433          	mul	s0,s1,s6
 fff0bfc:	01412423          	sw	s4,8(sp)
 fff0c00:	00112e23          	sw	ra,28(sp)
 fff0c04:	01212823          	sw	s2,16(sp)
 fff0c08:	01312623          	sw	s3,12(sp)
 fff0c0c:	00050a13          	mv	s4,a0
 fff0c10:	00c40413          	addi	s0,s0,12
 fff0c14:	00850433          	add	s0,a0,s0
 fff0c18:	000027f3          	csrr	a5,ustatus
 fff0c1c:	00f42023          	sw	a5,0(s0)
 fff0c20:	001027f3          	csrr	a5,fflags
 fff0c24:	00f42223          	sw	a5,4(s0)
 fff0c28:	002027f3          	csrr	a5,frm
 fff0c2c:	00f42423          	sw	a5,8(s0)
 fff0c30:	003027f3          	csrr	a5,fcsr
 fff0c34:	00f42623          	sw	a5,12(s0)
 fff0c38:	004027f3          	csrr	a5,uie
 fff0c3c:	00f42823          	sw	a5,16(s0)
 fff0c40:	005027f3          	csrr	a5,utvec
 fff0c44:	00f42a23          	sw	a5,20(s0)
 fff0c48:	006027f3          	csrr	a5,0x6
 fff0c4c:	00f42c23          	sw	a5,24(s0)
 fff0c50:	007027f3          	csrr	a5,0x7
 fff0c54:	00f42e23          	sw	a5,28(s0)
 fff0c58:	008027f3          	csrr	a5,vstart
 fff0c5c:	02f42023          	sw	a5,32(s0)
 fff0c60:	009027f3          	csrr	a5,vxsat
 fff0c64:	02f42223          	sw	a5,36(s0)
 fff0c68:	00a027f3          	csrr	a5,vxrm
 fff0c6c:	02f42423          	sw	a5,40(s0)
 fff0c70:	00b027f3          	csrr	a5,0xb
 fff0c74:	02f42623          	sw	a5,44(s0)
 fff0c78:	00c027f3          	csrr	a5,0xc
 fff0c7c:	02f42823          	sw	a5,48(s0)
 fff0c80:	00d027f3          	csrr	a5,0xd
 fff0c84:	02f42a23          	sw	a5,52(s0)
 fff0c88:	00e027f3          	csrr	a5,0xe
 fff0c8c:	02f42c23          	sw	a5,56(s0)
 fff0c90:	00f027f3          	csrr	a5,vcsr
 fff0c94:	02f42e23          	sw	a5,60(s0)
 fff0c98:	010027f3          	csrr	a5,0x10
 fff0c9c:	04f42023          	sw	a5,64(s0)
 fff0ca0:	011027f3          	csrr	a5,0x11
 fff0ca4:	04f42223          	sw	a5,68(s0)
 fff0ca8:	012027f3          	csrr	a5,0x12
 fff0cac:	04f42423          	sw	a5,72(s0)
 fff0cb0:	013027f3          	csrr	a5,0x13
 fff0cb4:	04f42623          	sw	a5,76(s0)
 fff0cb8:	014027f3          	csrr	a5,0x14
 fff0cbc:	04f42823          	sw	a5,80(s0)
 fff0cc0:	015027f3          	csrr	a5,seed
 fff0cc4:	04f42a23          	sw	a5,84(s0)
 fff0cc8:	016027f3          	csrr	a5,0x16
 fff0ccc:	04f42c23          	sw	a5,88(s0)
 fff0cd0:	017027f3          	csrr	a5,0x17
 fff0cd4:	04f42e23          	sw	a5,92(s0)
 fff0cd8:	018027f3          	csrr	a5,0x18
 fff0cdc:	06f42023          	sw	a5,96(s0)
 fff0ce0:	019027f3          	csrr	a5,0x19
 fff0ce4:	06f42223          	sw	a5,100(s0)
 fff0ce8:	01a027f3          	csrr	a5,0x1a
 fff0cec:	06f42423          	sw	a5,104(s0)
 fff0cf0:	01b027f3          	csrr	a5,0x1b
 fff0cf4:	06f42623          	sw	a5,108(s0)
 fff0cf8:	01c027f3          	csrr	a5,0x1c
 fff0cfc:	06f42823          	sw	a5,112(s0)
 fff0d00:	01d027f3          	csrr	a5,0x1d
 fff0d04:	06f42a23          	sw	a5,116(s0)
 fff0d08:	01e027f3          	csrr	a5,0x1e
 fff0d0c:	06f42c23          	sw	a5,120(s0)
 fff0d10:	01f027f3          	csrr	a5,0x1f
 fff0d14:	06f42e23          	sw	a5,124(s0)
 fff0d18:	284aa703          	lw	a4,644(s5)
 fff0d1c:	00100793          	li	a5,1
 fff0d20:	14e7c663          	blt	a5,a4,fff0e6c <_Z16TaskSwitchToNextP12STaskContext+0x298>
 fff0d24:	280aa023          	sw	zero,640(s5)
 fff0d28:	00000493          	li	s1,0
 fff0d2c:	12800793          	li	a5,296
 fff0d30:	02f484b3          	mul	s1,s1,a5
 fff0d34:	00c48793          	addi	a5,s1,12
 fff0d38:	00fa07b3          	add	a5,s4,a5
 fff0d3c:	0007a703          	lw	a4,0(a5)
 fff0d40:	00071073          	csrw	ustatus,a4
 fff0d44:	0047a703          	lw	a4,4(a5)
 fff0d48:	00171073          	csrw	fflags,a4
 fff0d4c:	0087a703          	lw	a4,8(a5)
 fff0d50:	00271073          	csrw	frm,a4
 fff0d54:	00c7a703          	lw	a4,12(a5)
 fff0d58:	00371073          	csrw	fcsr,a4
 fff0d5c:	0107a703          	lw	a4,16(a5)
 fff0d60:	00471073          	csrw	uie,a4
 fff0d64:	0147a703          	lw	a4,20(a5)
 fff0d68:	00571073          	csrw	utvec,a4
 fff0d6c:	0187a703          	lw	a4,24(a5)
 fff0d70:	00671073          	csrw	0x6,a4
 fff0d74:	01c7a703          	lw	a4,28(a5)
 fff0d78:	00771073          	csrw	0x7,a4
 fff0d7c:	0207a703          	lw	a4,32(a5)
 fff0d80:	00871073          	csrw	vstart,a4
 fff0d84:	0247a703          	lw	a4,36(a5)
 fff0d88:	00971073          	csrw	vxsat,a4
 fff0d8c:	0287a703          	lw	a4,40(a5)
 fff0d90:	00a71073          	csrw	vxrm,a4
 fff0d94:	02c7a703          	lw	a4,44(a5)
 fff0d98:	00b71073          	csrw	0xb,a4
 fff0d9c:	0307a703          	lw	a4,48(a5)
 fff0da0:	00c71073          	csrw	0xc,a4
 fff0da4:	0347a703          	lw	a4,52(a5)
 fff0da8:	00d71073          	csrw	0xd,a4
 fff0dac:	0387a703          	lw	a4,56(a5)
 fff0db0:	00e71073          	csrw	0xe,a4
 fff0db4:	03c7a703          	lw	a4,60(a5)
 fff0db8:	00f71073          	csrw	vcsr,a4
 fff0dbc:	0407a703          	lw	a4,64(a5)
 fff0dc0:	01071073          	csrw	0x10,a4
 fff0dc4:	0447a703          	lw	a4,68(a5)
 fff0dc8:	01171073          	csrw	0x11,a4
 fff0dcc:	0487a703          	lw	a4,72(a5)
 fff0dd0:	01271073          	csrw	0x12,a4
 fff0dd4:	04c7a703          	lw	a4,76(a5)
 fff0dd8:	01371073          	csrw	0x13,a4
 fff0ddc:	0507a703          	lw	a4,80(a5)
 fff0de0:	01471073          	csrw	0x14,a4
 fff0de4:	0547a703          	lw	a4,84(a5)
 fff0de8:	01571073          	csrw	seed,a4
 fff0dec:	0587a703          	lw	a4,88(a5)
 fff0df0:	01671073          	csrw	0x16,a4
 fff0df4:	05c7a703          	lw	a4,92(a5)
 fff0df8:	01771073          	csrw	0x17,a4
 fff0dfc:	0607a703          	lw	a4,96(a5)
 fff0e00:	01871073          	csrw	0x18,a4
 fff0e04:	0647a703          	lw	a4,100(a5)
 fff0e08:	01971073          	csrw	0x19,a4
 fff0e0c:	0687a703          	lw	a4,104(a5)
 fff0e10:	01a71073          	csrw	0x1a,a4
 fff0e14:	06c7a703          	lw	a4,108(a5)
 fff0e18:	01b71073          	csrw	0x1b,a4
 fff0e1c:	0707a703          	lw	a4,112(a5)
 fff0e20:	01c71073          	csrw	0x1c,a4
 fff0e24:	0747a703          	lw	a4,116(a5)
 fff0e28:	01d71073          	csrw	0x1d,a4
 fff0e2c:	0787a703          	lw	a4,120(a5)
 fff0e30:	01e71073          	csrw	0x1e,a4
 fff0e34:	07c7a783          	lw	a5,124(a5)
 fff0e38:	01f79073          	csrw	0x1f,a5
 fff0e3c:	01c12083          	lw	ra,28(sp)
 fff0e40:	01812403          	lw	s0,24(sp)
 fff0e44:	009a0533          	add	a0,s4,s1
 fff0e48:	00452503          	lw	a0,4(a0)
 fff0e4c:	01412483          	lw	s1,20(sp)
 fff0e50:	01012903          	lw	s2,16(sp)
 fff0e54:	00c12983          	lw	s3,12(sp)
 fff0e58:	00812a03          	lw	s4,8(sp)
 fff0e5c:	00412a83          	lw	s5,4(sp)
 fff0e60:	00012b03          	lw	s6,0(sp)
 fff0e64:	02010113          	addi	sp,sp,32
 fff0e68:	00008067          	ret
 fff0e6c:	284aa783          	lw	a5,644(s5)
 fff0e70:	00148493          	addi	s1,s1,1
 fff0e74:	02f4e4b3          	rem	s1,s1,a5
 fff0e78:	00200793          	li	a5,2
 fff0e7c:	03648933          	mul	s2,s1,s6
 fff0e80:	289aa023          	sw	s1,640(s5)
 fff0e84:	012509b3          	add	s3,a0,s2
 fff0e88:	0089a703          	lw	a4,8(s3)
 fff0e8c:	eaf710e3          	bne	a4,a5,fff0d2c <_Z16TaskSwitchToNextP12STaskContext+0x158>
 fff0e90:	e8048ce3          	beqz	s1,fff0d28 <_Z16TaskSwitchToNextP12STaskContext+0x154>
 fff0e94:	00005517          	auipc	a0,0x5
 fff0e98:	d5450513          	addi	a0,a0,-684 # fff5be8 <_free_r+0x9c8>
 fff0e9c:	ad9ff0ef          	jal	ra,fff0974 <_Z9UARTWritePKc>
 fff0ea0:	08c90913          	addi	s2,s2,140
 fff0ea4:	012a0533          	add	a0,s4,s2
 fff0ea8:	acdff0ef          	jal	ra,fff0974 <_Z9UARTWritePKc>
 fff0eac:	00005517          	auipc	a0,0x5
 fff0eb0:	d5050513          	addi	a0,a0,-688 # fff5bfc <_free_r+0x9dc>
 fff0eb4:	ac1ff0ef          	jal	ra,fff0974 <_Z9UARTWritePKc>
 fff0eb8:	02842503          	lw	a0,40(s0)
 fff0ebc:	addff0ef          	jal	ra,fff0998 <_Z12UARTWriteHexm>
 fff0ec0:	00005517          	auipc	a0,0x5
 fff0ec4:	8e050513          	addi	a0,a0,-1824 # fff57a0 <_free_r+0x580>
 fff0ec8:	aadff0ef          	jal	ra,fff0974 <_Z9UARTWritePKc>
 fff0ecc:	00300793          	li	a5,3
 fff0ed0:	00f9a423          	sw	a5,8(s3)
 fff0ed4:	284aa783          	lw	a5,644(s5)
 fff0ed8:	fff78793          	addi	a5,a5,-1
 fff0edc:	02978063          	beq	a5,s1,fff0efc <_Z16TaskSwitchToNextP12STaskContext+0x328>
 fff0ee0:	284aa583          	lw	a1,644(s5)
 fff0ee4:	12800613          	li	a2,296
 fff0ee8:	00098513          	mv	a0,s3
 fff0eec:	fff58593          	addi	a1,a1,-1
 fff0ef0:	036585b3          	mul	a1,a1,s6
 fff0ef4:	00ba05b3          	add	a1,s4,a1
 fff0ef8:	551030ef          	jal	ra,fff4c48 <memcpy>
 fff0efc:	000017b7          	lui	a5,0x1
 fff0f00:	00fa07b3          	add	a5,s4,a5
 fff0f04:	2847a703          	lw	a4,644(a5) # 1284 <__stack_size+0x1184>
 fff0f08:	fff70713          	addi	a4,a4,-1
 fff0f0c:	28e7a223          	sw	a4,644(a5)
 fff0f10:	2807a023          	sw	zero,640(a5)
 fff0f14:	e15ff06f          	j	fff0d28 <_Z16TaskSwitchToNextP12STaskContext+0x154>

0fff0f18 <_Z11E32ReadTimev>:
 fff0f18:	c81025f3          	rdtimeh	a1
 fff0f1c:	c0102573          	rdtime	a0
 fff0f20:	c81027f3          	rdtimeh	a5
 fff0f24:	fef59ae3          	bne	a1,a5,fff0f18 <_Z11E32ReadTimev>
 fff0f28:	00008067          	ret

0fff0f2c <_Z13E32ReadCyclesv>:
 fff0f2c:	c80025f3          	rdcycleh	a1
 fff0f30:	c0002573          	rdcycle	a0
 fff0f34:	c80027f3          	rdcycleh	a5
 fff0f38:	fef59ae3          	bne	a1,a5,fff0f2c <_Z13E32ReadCyclesv>
 fff0f3c:	00008067          	ret

0fff0f40 <_Z8E32Sleepy>:
 fff0f40:	ff010113          	addi	sp,sp,-16
 fff0f44:	00812423          	sw	s0,8(sp)
 fff0f48:	00912223          	sw	s1,4(sp)
 fff0f4c:	00058413          	mv	s0,a1
 fff0f50:	00050493          	mv	s1,a0
 fff0f54:	00112623          	sw	ra,12(sp)
 fff0f58:	fd5ff0ef          	jal	ra,fff0f2c <_Z13E32ReadCyclesv>
 fff0f5c:	00002737          	lui	a4,0x2
 fff0f60:	71070713          	addi	a4,a4,1808 # 2710 <__stack_size+0x2610>
 fff0f64:	02e487b3          	mul	a5,s1,a4
 fff0f68:	02e40433          	mul	s0,s0,a4
 fff0f6c:	02e4b4b3          	mulhu	s1,s1,a4
 fff0f70:	00940433          	add	s0,s0,s1
 fff0f74:	00a784b3          	add	s1,a5,a0
 fff0f78:	00f4b7b3          	sltu	a5,s1,a5
 fff0f7c:	00b40433          	add	s0,s0,a1
 fff0f80:	00878433          	add	s0,a5,s0
 fff0f84:	fa9ff0ef          	jal	ra,fff0f2c <_Z13E32ReadCyclesv>
 fff0f88:	0285e063          	bltu	a1,s0,fff0fa8 <_Z8E32Sleepy+0x68>
 fff0f8c:	00b41463          	bne	s0,a1,fff0f94 <_Z8E32Sleepy+0x54>
 fff0f90:	00956c63          	bltu	a0,s1,fff0fa8 <_Z8E32Sleepy+0x68>
 fff0f94:	00c12083          	lw	ra,12(sp)
 fff0f98:	00812403          	lw	s0,8(sp)
 fff0f9c:	00412483          	lw	s1,4(sp)
 fff0fa0:	01010113          	addi	sp,sp,16
 fff0fa4:	00008067          	ret
 fff0fa8:	00000013          	nop
 fff0fac:	fd9ff06f          	j	fff0f84 <_Z8E32Sleepy+0x44>

0fff0fb0 <_Z17E32SetTimeComparey>:
 fff0fb0:	00058713          	mv	a4,a1
 fff0fb4:	00000793          	li	a5,0
 fff0fb8:	80171773          	csrrw	a4,0x801,a4
 fff0fbc:	80051573          	csrrw	a0,0x800,a0
 fff0fc0:	00008067          	ret

0fff0fc4 <_sbrk>:
 fff0fc4:	00006697          	auipc	a3,0x6
 fff0fc8:	01868693          	addi	a3,a3,24 # fff6fdc <_ZL10heap_start>
 fff0fcc:	00050793          	mv	a5,a0
 fff0fd0:	0006a503          	lw	a0,0(a3)
 fff0fd4:	0ffe0737          	lui	a4,0xffe0
 fff0fd8:	00e50c63          	beq	a0,a4,fff0ff0 <_sbrk+0x2c>
 fff0fdc:	00f50633          	add	a2,a0,a5
 fff0fe0:	00e67463          	bgeu	a2,a4,fff0fe8 <_sbrk+0x24>
 fff0fe4:	00f60733          	add	a4,a2,a5
 fff0fe8:	00e6a023          	sw	a4,0(a3)
 fff0fec:	00008067          	ret
 fff0ff0:	00000513          	li	a0,0
 fff0ff4:	00008067          	ret

0fff0ff8 <_Z11LEDSetStatem>:
 fff0ff8:	00007797          	auipc	a5,0x7
 fff0ffc:	8407a783          	lw	a5,-1984(a5) # fff7838 <_GLOBAL_OFFSET_TABLE_+0x8>
 fff1000:	0007a783          	lw	a5,0(a5)
 fff1004:	00a7a023          	sw	a0,0(a5)
 fff1008:	00008067          	ret

0fff100c <_Z15RingBufferResetv>:
 fff100c:	00007797          	auipc	a5,0x7
 fff1010:	8547a783          	lw	a5,-1964(a5) # fff7860 <_GLOBAL_OFFSET_TABLE_+0x30>
 fff1014:	0007a783          	lw	a5,0(a5)
 fff1018:	0007a023          	sw	zero,0(a5)
 fff101c:	00007797          	auipc	a5,0x7
 fff1020:	8207a783          	lw	a5,-2016(a5) # fff783c <_GLOBAL_OFFSET_TABLE_+0xc>
 fff1024:	0007a783          	lw	a5,0(a5)
 fff1028:	0007a023          	sw	zero,0(a5)
 fff102c:	00008067          	ret

0fff1030 <_Z14RingBufferReadPvm>:
 fff1030:	ff010113          	addi	sp,sp,-16
 fff1034:	01212023          	sw	s2,0(sp)
 fff1038:	00007917          	auipc	s2,0x7
 fff103c:	82892903          	lw	s2,-2008(s2) # fff7860 <_GLOBAL_OFFSET_TABLE_+0x30>
 fff1040:	00092783          	lw	a5,0(s2)
 fff1044:	00912223          	sw	s1,4(sp)
 fff1048:	00112623          	sw	ra,12(sp)
 fff104c:	0007a483          	lw	s1,0(a5)
 fff1050:	00006797          	auipc	a5,0x6
 fff1054:	7ec7a783          	lw	a5,2028(a5) # fff783c <_GLOBAL_OFFSET_TABLE_+0xc>
 fff1058:	0007a783          	lw	a5,0(a5)
 fff105c:	00812423          	sw	s0,8(sp)
 fff1060:	0007a783          	lw	a5,0(a5)
 fff1064:	409787b3          	sub	a5,a5,s1
 fff1068:	04b7e863          	bltu	a5,a1,fff10b8 <_Z14RingBufferReadPvm+0x88>
 fff106c:	00058413          	mv	s0,a1
 fff1070:	00000013          	nop
 fff1074:	40000613          	li	a2,1024
 fff1078:	3ff4f593          	andi	a1,s1,1023
 fff107c:	40b60633          	sub	a2,a2,a1
 fff1080:	00c47463          	bgeu	s0,a2,fff1088 <_Z14RingBufferReadPvm+0x58>
 fff1084:	00040613          	mv	a2,s0
 fff1088:	20058593          	addi	a1,a1,512
 fff108c:	3bd030ef          	jal	ra,fff4c48 <memcpy>
 fff1090:	00092783          	lw	a5,0(s2)
 fff1094:	008484b3          	add	s1,s1,s0
 fff1098:	00100513          	li	a0,1
 fff109c:	0097a023          	sw	s1,0(a5)
 fff10a0:	00c12083          	lw	ra,12(sp)
 fff10a4:	00812403          	lw	s0,8(sp)
 fff10a8:	00412483          	lw	s1,4(sp)
 fff10ac:	00012903          	lw	s2,0(sp)
 fff10b0:	01010113          	addi	sp,sp,16
 fff10b4:	00008067          	ret
 fff10b8:	00000513          	li	a0,0
 fff10bc:	fe5ff06f          	j	fff10a0 <_Z14RingBufferReadPvm+0x70>

0fff10c0 <_Z15RingBufferWritePKvm>:
 fff10c0:	ff010113          	addi	sp,sp,-16
 fff10c4:	00006797          	auipc	a5,0x6
 fff10c8:	79c7a783          	lw	a5,1948(a5) # fff7860 <_GLOBAL_OFFSET_TABLE_+0x30>
 fff10cc:	0007a783          	lw	a5,0(a5)
 fff10d0:	01212023          	sw	s2,0(sp)
 fff10d4:	00006917          	auipc	s2,0x6
 fff10d8:	76892903          	lw	s2,1896(s2) # fff783c <_GLOBAL_OFFSET_TABLE_+0xc>
 fff10dc:	00092703          	lw	a4,0(s2)
 fff10e0:	0007a783          	lw	a5,0(a5)
 fff10e4:	00912223          	sw	s1,4(sp)
 fff10e8:	00072483          	lw	s1,0(a4) # ffe0000 <__stack_size+0xffdff00>
 fff10ec:	40078793          	addi	a5,a5,1024
 fff10f0:	00112623          	sw	ra,12(sp)
 fff10f4:	00812423          	sw	s0,8(sp)
 fff10f8:	409787b3          	sub	a5,a5,s1
 fff10fc:	04b7ea63          	bltu	a5,a1,fff1150 <_Z15RingBufferWritePKvm+0x90>
 fff1100:	3ff4f793          	andi	a5,s1,1023
 fff1104:	40000613          	li	a2,1024
 fff1108:	40f60633          	sub	a2,a2,a5
 fff110c:	00058413          	mv	s0,a1
 fff1110:	00c5f463          	bgeu	a1,a2,fff1118 <_Z15RingBufferWritePKvm+0x58>
 fff1114:	00058613          	mv	a2,a1
 fff1118:	00050593          	mv	a1,a0
 fff111c:	20078513          	addi	a0,a5,512
 fff1120:	329030ef          	jal	ra,fff4c48 <memcpy>
 fff1124:	00000013          	nop
 fff1128:	00092783          	lw	a5,0(s2)
 fff112c:	008484b3          	add	s1,s1,s0
 fff1130:	00100513          	li	a0,1
 fff1134:	0097a023          	sw	s1,0(a5)
 fff1138:	00c12083          	lw	ra,12(sp)
 fff113c:	00812403          	lw	s0,8(sp)
 fff1140:	00412483          	lw	s1,4(sp)
 fff1144:	00012903          	lw	s2,0(sp)
 fff1148:	01010113          	addi	sp,sp,16
 fff114c:	00008067          	ret
 fff1150:	00000513          	li	a0,0
 fff1154:	fe5ff06f          	j	fff1138 <_Z15RingBufferWritePKvm+0x78>

0fff1158 <_Z7SPITxRxh>:
 fff1158:	00006797          	auipc	a5,0x6
 fff115c:	6f07a783          	lw	a5,1776(a5) # fff7848 <_GLOBAL_OFFSET_TABLE_+0x18>
 fff1160:	0007a703          	lw	a4,0(a5)
 fff1164:	00a70023          	sb	a0,0(a4)
 fff1168:	0007a783          	lw	a5,0(a5)
 fff116c:	0007c503          	lbu	a0,0(a5)
 fff1170:	00008067          	ret

0fff1174 <_Z5SDCmd13SDCardCommandm>:
 fff1174:	fe010113          	addi	sp,sp,-32
 fff1178:	0185d793          	srli	a5,a1,0x18
 fff117c:	03f57513          	andi	a0,a0,63
 fff1180:	00f104a3          	sb	a5,9(sp)
 fff1184:	0105d793          	srli	a5,a1,0x10
 fff1188:	04056513          	ori	a0,a0,64
 fff118c:	00f10523          	sb	a5,10(sp)
 fff1190:	0085d793          	srli	a5,a1,0x8
 fff1194:	00912a23          	sw	s1,20(sp)
 fff1198:	00a10423          	sb	a0,8(sp)
 fff119c:	00f105a3          	sb	a5,11(sp)
 fff11a0:	00112e23          	sw	ra,28(sp)
 fff11a4:	00812c23          	sw	s0,24(sp)
 fff11a8:	01212823          	sw	s2,16(sp)
 fff11ac:	00b10623          	sb	a1,12(sp)
 fff11b0:	00000613          	li	a2,0
 fff11b4:	00000793          	li	a5,0
 fff11b8:	00810493          	addi	s1,sp,8
 fff11bc:	00500513          	li	a0,5
 fff11c0:	00c48733          	add	a4,s1,a2
 fff11c4:	00074683          	lbu	a3,0(a4)
 fff11c8:	00800713          	li	a4,8
 fff11cc:	00179793          	slli	a5,a5,0x1
 fff11d0:	0ff7f793          	zext.b	a5,a5
 fff11d4:	00d7c5b3          	xor	a1,a5,a3
 fff11d8:	01859593          	slli	a1,a1,0x18
 fff11dc:	4185d593          	srai	a1,a1,0x18
 fff11e0:	0005d463          	bgez	a1,fff11e8 <_Z5SDCmd13SDCardCommandm+0x74>
 fff11e4:	0097c793          	xori	a5,a5,9
 fff11e8:	fff70713          	addi	a4,a4,-1
 fff11ec:	00169693          	slli	a3,a3,0x1
 fff11f0:	0ff77713          	zext.b	a4,a4
 fff11f4:	0ff6f693          	zext.b	a3,a3
 fff11f8:	fc071ae3          	bnez	a4,fff11cc <_Z5SDCmd13SDCardCommandm+0x58>
 fff11fc:	00160613          	addi	a2,a2,1
 fff1200:	fca610e3          	bne	a2,a0,fff11c0 <_Z5SDCmd13SDCardCommandm+0x4c>
 fff1204:	00179793          	slli	a5,a5,0x1
 fff1208:	0017e793          	ori	a5,a5,1
 fff120c:	0ff00513          	li	a0,255
 fff1210:	00f106a3          	sb	a5,13(sp)
 fff1214:	00000413          	li	s0,0
 fff1218:	f41ff0ef          	jal	ra,fff1158 <_Z7SPITxRxh>
 fff121c:	00600913          	li	s2,6
 fff1220:	008487b3          	add	a5,s1,s0
 fff1224:	0007c503          	lbu	a0,0(a5)
 fff1228:	00140413          	addi	s0,s0,1
 fff122c:	f2dff0ef          	jal	ra,fff1158 <_Z7SPITxRxh>
 fff1230:	ff2418e3          	bne	s0,s2,fff1220 <_Z5SDCmd13SDCardCommandm+0xac>
 fff1234:	01c12083          	lw	ra,28(sp)
 fff1238:	01812403          	lw	s0,24(sp)
 fff123c:	01412483          	lw	s1,20(sp)
 fff1240:	01012903          	lw	s2,16(sp)
 fff1244:	02010113          	addi	sp,sp,32
 fff1248:	00008067          	ret

0fff124c <_Z11SDResponse1v>:
 fff124c:	ff010113          	addi	sp,sp,-16
 fff1250:	00812423          	sw	s0,8(sp)
 fff1254:	00010437          	lui	s0,0x10
 fff1258:	00112623          	sw	ra,12(sp)
 fff125c:	00140413          	addi	s0,s0,1 # 10001 <__stack_size+0xff01>
 fff1260:	0ff00513          	li	a0,255
 fff1264:	ef5ff0ef          	jal	ra,fff1158 <_Z7SPITxRxh>
 fff1268:	0ff00793          	li	a5,255
 fff126c:	00f51663          	bne	a0,a5,fff1278 <_Z11SDResponse1v+0x2c>
 fff1270:	fff40413          	addi	s0,s0,-1
 fff1274:	fe0416e3          	bnez	s0,fff1260 <_Z11SDResponse1v+0x14>
 fff1278:	00c12083          	lw	ra,12(sp)
 fff127c:	00812403          	lw	s0,8(sp)
 fff1280:	01010113          	addi	sp,sp,16
 fff1284:	00008067          	ret

0fff1288 <_Z11SDResponse7Pm>:
 fff1288:	fe010113          	addi	sp,sp,-32
 fff128c:	00912a23          	sw	s1,20(sp)
 fff1290:	01312623          	sw	s3,12(sp)
 fff1294:	00112e23          	sw	ra,28(sp)
 fff1298:	00812c23          	sw	s0,24(sp)
 fff129c:	01212823          	sw	s2,16(sp)
 fff12a0:	01412423          	sw	s4,8(sp)
 fff12a4:	00052023          	sw	zero,0(a0)
 fff12a8:	00050993          	mv	s3,a0
 fff12ac:	fa1ff0ef          	jal	ra,fff124c <_Z11SDResponse1v>
 fff12b0:	00100793          	li	a5,1
 fff12b4:	0ff00493          	li	s1,255
 fff12b8:	04a7e863          	bltu	a5,a0,fff1308 <_Z11SDResponse7Pm+0x80>
 fff12bc:	00050493          	mv	s1,a0
 fff12c0:	0ff00513          	li	a0,255
 fff12c4:	e95ff0ef          	jal	ra,fff1158 <_Z7SPITxRxh>
 fff12c8:	00050413          	mv	s0,a0
 fff12cc:	0ff00513          	li	a0,255
 fff12d0:	e89ff0ef          	jal	ra,fff1158 <_Z7SPITxRxh>
 fff12d4:	00050a13          	mv	s4,a0
 fff12d8:	0ff00513          	li	a0,255
 fff12dc:	e7dff0ef          	jal	ra,fff1158 <_Z7SPITxRxh>
 fff12e0:	00050913          	mv	s2,a0
 fff12e4:	01841413          	slli	s0,s0,0x18
 fff12e8:	0ff00513          	li	a0,255
 fff12ec:	010a1a13          	slli	s4,s4,0x10
 fff12f0:	e69ff0ef          	jal	ra,fff1158 <_Z7SPITxRxh>
 fff12f4:	01446433          	or	s0,s0,s4
 fff12f8:	00a46433          	or	s0,s0,a0
 fff12fc:	00891913          	slli	s2,s2,0x8
 fff1300:	01246433          	or	s0,s0,s2
 fff1304:	0089a023          	sw	s0,0(s3)
 fff1308:	01c12083          	lw	ra,28(sp)
 fff130c:	01812403          	lw	s0,24(sp)
 fff1310:	01012903          	lw	s2,16(sp)
 fff1314:	00c12983          	lw	s3,12(sp)
 fff1318:	00812a03          	lw	s4,8(sp)
 fff131c:	00048513          	mv	a0,s1
 fff1320:	01412483          	lw	s1,20(sp)
 fff1324:	02010113          	addi	sp,sp,32
 fff1328:	00008067          	ret

0fff132c <_Z6SDIdlev>:
 fff132c:	ff010113          	addi	sp,sp,-16
 fff1330:	00100513          	li	a0,1
 fff1334:	00000593          	li	a1,0
 fff1338:	00812423          	sw	s0,8(sp)
 fff133c:	00112623          	sw	ra,12(sp)
 fff1340:	05000413          	li	s0,80
 fff1344:	bfdff0ef          	jal	ra,fff0f40 <_Z8E32Sleepy>
 fff1348:	0ff00513          	li	a0,255
 fff134c:	fff40413          	addi	s0,s0,-1
 fff1350:	e09ff0ef          	jal	ra,fff1158 <_Z7SPITxRxh>
 fff1354:	fe041ae3          	bnez	s0,fff1348 <_Z6SDIdlev+0x1c>
 fff1358:	00000593          	li	a1,0
 fff135c:	00000513          	li	a0,0
 fff1360:	e15ff0ef          	jal	ra,fff1174 <_Z5SDCmd13SDCardCommandm>
 fff1364:	ee9ff0ef          	jal	ra,fff124c <_Z11SDResponse1v>
 fff1368:	00100793          	li	a5,1
 fff136c:	00050413          	mv	s0,a0
 fff1370:	02f50263          	beq	a0,a5,fff1394 <_Z6SDIdlev+0x68>
 fff1374:	00005517          	auipc	a0,0x5
 fff1378:	8a850513          	addi	a0,a0,-1880 # fff5c1c <_free_r+0x9fc>
 fff137c:	df8ff0ef          	jal	ra,fff0974 <_Z9UARTWritePKc>
 fff1380:	00040513          	mv	a0,s0
 fff1384:	e14ff0ef          	jal	ra,fff0998 <_Z12UARTWriteHexm>
 fff1388:	00004517          	auipc	a0,0x4
 fff138c:	53050513          	addi	a0,a0,1328 # fff58b8 <_free_r+0x698>
 fff1390:	de4ff0ef          	jal	ra,fff0974 <_Z9UARTWritePKc>
 fff1394:	00c12083          	lw	ra,12(sp)
 fff1398:	00040513          	mv	a0,s0
 fff139c:	00812403          	lw	s0,8(sp)
 fff13a0:	01010113          	addi	sp,sp,16
 fff13a4:	00008067          	ret

0fff13a8 <_Z19SDCheckVoltageRangev>:
 fff13a8:	fe010113          	addi	sp,sp,-32
 fff13ac:	1aa00593          	li	a1,426
 fff13b0:	00800513          	li	a0,8
 fff13b4:	00112e23          	sw	ra,28(sp)
 fff13b8:	00812c23          	sw	s0,24(sp)
 fff13bc:	db9ff0ef          	jal	ra,fff1174 <_Z5SDCmd13SDCardCommandm>
 fff13c0:	00c10513          	addi	a0,sp,12
 fff13c4:	ec5ff0ef          	jal	ra,fff1288 <_Z11SDResponse7Pm>
 fff13c8:	00100793          	li	a5,1
 fff13cc:	00050413          	mv	s0,a0
 fff13d0:	02f50263          	beq	a0,a5,fff13f4 <_Z19SDCheckVoltageRangev+0x4c>
 fff13d4:	00005517          	auipc	a0,0x5
 fff13d8:	86850513          	addi	a0,a0,-1944 # fff5c3c <_free_r+0xa1c>
 fff13dc:	d98ff0ef          	jal	ra,fff0974 <_Z9UARTWritePKc>
 fff13e0:	00040513          	mv	a0,s0
 fff13e4:	db4ff0ef          	jal	ra,fff0998 <_Z12UARTWriteHexm>
 fff13e8:	00004517          	auipc	a0,0x4
 fff13ec:	4d050513          	addi	a0,a0,1232 # fff58b8 <_free_r+0x698>
 fff13f0:	d84ff0ef          	jal	ra,fff0974 <_Z9UARTWritePKc>
 fff13f4:	00c12703          	lw	a4,12(sp)
 fff13f8:	1aa00793          	li	a5,426
 fff13fc:	02f70263          	beq	a4,a5,fff1420 <_Z19SDCheckVoltageRangev+0x78>
 fff1400:	00005517          	auipc	a0,0x5
 fff1404:	86850513          	addi	a0,a0,-1944 # fff5c68 <_free_r+0xa48>
 fff1408:	d6cff0ef          	jal	ra,fff0974 <_Z9UARTWritePKc>
 fff140c:	00c12503          	lw	a0,12(sp)
 fff1410:	d88ff0ef          	jal	ra,fff0998 <_Z12UARTWriteHexm>
 fff1414:	00004517          	auipc	a0,0x4
 fff1418:	4a450513          	addi	a0,a0,1188 # fff58b8 <_free_r+0x698>
 fff141c:	d58ff0ef          	jal	ra,fff0974 <_Z9UARTWritePKc>
 fff1420:	01c12083          	lw	ra,28(sp)
 fff1424:	00040513          	mv	a0,s0
 fff1428:	01812403          	lw	s0,24(sp)
 fff142c:	02010113          	addi	sp,sp,32
 fff1430:	00008067          	ret

0fff1434 <_Z10SDCardInitv>:
 fff1434:	ff010113          	addi	sp,sp,-16
 fff1438:	01212023          	sw	s2,0(sp)
 fff143c:	00112623          	sw	ra,12(sp)
 fff1440:	00812423          	sw	s0,8(sp)
 fff1444:	00912223          	sw	s1,4(sp)
 fff1448:	00010937          	lui	s2,0x10
 fff144c:	00000593          	li	a1,0
 fff1450:	03700513          	li	a0,55
 fff1454:	d21ff0ef          	jal	ra,fff1174 <_Z5SDCmd13SDCardCommandm>
 fff1458:	df5ff0ef          	jal	ra,fff124c <_Z11SDResponse1v>
 fff145c:	400005b7          	lui	a1,0x40000
 fff1460:	00050413          	mv	s0,a0
 fff1464:	02900513          	li	a0,41
 fff1468:	d0dff0ef          	jal	ra,fff1174 <_Z5SDCmd13SDCardCommandm>
 fff146c:	de1ff0ef          	jal	ra,fff124c <_Z11SDResponse1v>
 fff1470:	00050493          	mv	s1,a0
 fff1474:	04050463          	beqz	a0,fff14bc <_Z10SDCardInitv+0x88>
 fff1478:	fff90913          	addi	s2,s2,-1 # ffff <__stack_size+0xfeff>
 fff147c:	fc0918e3          	bnez	s2,fff144c <_Z10SDCardInitv+0x18>
 fff1480:	00100793          	li	a5,1
 fff1484:	02f40263          	beq	s0,a5,fff14a8 <_Z10SDCardInitv+0x74>
 fff1488:	00005517          	auipc	a0,0x5
 fff148c:	81050513          	addi	a0,a0,-2032 # fff5c98 <_free_r+0xa78>
 fff1490:	ce4ff0ef          	jal	ra,fff0974 <_Z9UARTWritePKc>
 fff1494:	00040513          	mv	a0,s0
 fff1498:	d00ff0ef          	jal	ra,fff0998 <_Z12UARTWriteHexm>
 fff149c:	00004517          	auipc	a0,0x4
 fff14a0:	41c50513          	addi	a0,a0,1052 # fff58b8 <_free_r+0x698>
 fff14a4:	cd0ff0ef          	jal	ra,fff0974 <_Z9UARTWritePKc>
 fff14a8:	00005517          	auipc	a0,0x5
 fff14ac:	81450513          	addi	a0,a0,-2028 # fff5cbc <_free_r+0xa9c>
 fff14b0:	cc4ff0ef          	jal	ra,fff0974 <_Z9UARTWritePKc>
 fff14b4:	00048513          	mv	a0,s1
 fff14b8:	01c0006f          	j	fff14d4 <_Z10SDCardInitv+0xa0>
 fff14bc:	00100793          	li	a5,1
 fff14c0:	02f40263          	beq	s0,a5,fff14e4 <_Z10SDCardInitv+0xb0>
 fff14c4:	00004517          	auipc	a0,0x4
 fff14c8:	7d450513          	addi	a0,a0,2004 # fff5c98 <_free_r+0xa78>
 fff14cc:	ca8ff0ef          	jal	ra,fff0974 <_Z9UARTWritePKc>
 fff14d0:	00040513          	mv	a0,s0
 fff14d4:	cc4ff0ef          	jal	ra,fff0998 <_Z12UARTWriteHexm>
 fff14d8:	00004517          	auipc	a0,0x4
 fff14dc:	3e050513          	addi	a0,a0,992 # fff58b8 <_free_r+0x698>
 fff14e0:	c94ff0ef          	jal	ra,fff0974 <_Z9UARTWritePKc>
 fff14e4:	00c12083          	lw	ra,12(sp)
 fff14e8:	00812403          	lw	s0,8(sp)
 fff14ec:	00012903          	lw	s2,0(sp)
 fff14f0:	00048513          	mv	a0,s1
 fff14f4:	00412483          	lw	s1,4(sp)
 fff14f8:	01010113          	addi	sp,sp,16
 fff14fc:	00008067          	ret

0fff1500 <_Z17SDReadSingleBlockmPhS_>:
 fff1500:	fe010113          	addi	sp,sp,-32
 fff1504:	00912a23          	sw	s1,20(sp)
 fff1508:	01312623          	sw	s3,12(sp)
 fff150c:	00050493          	mv	s1,a0
 fff1510:	00058993          	mv	s3,a1
 fff1514:	00050593          	mv	a1,a0
 fff1518:	01100513          	li	a0,17
 fff151c:	00112e23          	sw	ra,28(sp)
 fff1520:	00812c23          	sw	s0,24(sp)
 fff1524:	01212823          	sw	s2,16(sp)
 fff1528:	01412423          	sw	s4,8(sp)
 fff152c:	00060913          	mv	s2,a2
 fff1530:	c45ff0ef          	jal	ra,fff1174 <_Z5SDCmd13SDCardCommandm>
 fff1534:	d19ff0ef          	jal	ra,fff124c <_Z11SDResponse1v>
 fff1538:	0ff00793          	li	a5,255
 fff153c:	00050413          	mv	s0,a0
 fff1540:	04f50663          	beq	a0,a5,fff158c <_Z17SDReadSingleBlockmPhS_+0x8c>
 fff1544:	d09ff0ef          	jal	ra,fff124c <_Z11SDResponse1v>
 fff1548:	0fe00793          	li	a5,254
 fff154c:	00050413          	mv	s0,a0
 fff1550:	06f51063          	bne	a0,a5,fff15b0 <_Z17SDReadSingleBlockmPhS_+0xb0>
 fff1554:	00000493          	li	s1,0
 fff1558:	20000a13          	li	s4,512
 fff155c:	0ff00513          	li	a0,255
 fff1560:	bf9ff0ef          	jal	ra,fff1158 <_Z7SPITxRxh>
 fff1564:	009987b3          	add	a5,s3,s1
 fff1568:	00a78023          	sb	a0,0(a5)
 fff156c:	00148493          	addi	s1,s1,1
 fff1570:	ff4496e3          	bne	s1,s4,fff155c <_Z17SDReadSingleBlockmPhS_+0x5c>
 fff1574:	0ff00513          	li	a0,255
 fff1578:	be1ff0ef          	jal	ra,fff1158 <_Z7SPITxRxh>
 fff157c:	00a90023          	sb	a0,0(s2)
 fff1580:	0ff00513          	li	a0,255
 fff1584:	bd5ff0ef          	jal	ra,fff1158 <_Z7SPITxRxh>
 fff1588:	00a900a3          	sb	a0,1(s2)
 fff158c:	01c12083          	lw	ra,28(sp)
 fff1590:	00040513          	mv	a0,s0
 fff1594:	01812403          	lw	s0,24(sp)
 fff1598:	01412483          	lw	s1,20(sp)
 fff159c:	01012903          	lw	s2,16(sp)
 fff15a0:	00c12983          	lw	s3,12(sp)
 fff15a4:	00812a03          	lw	s4,8(sp)
 fff15a8:	02010113          	addi	sp,sp,32
 fff15ac:	00008067          	ret
 fff15b0:	00f00793          	li	a5,15
 fff15b4:	fca7ece3          	bltu	a5,a0,fff158c <_Z17SDReadSingleBlockmPhS_+0x8c>
 fff15b8:	00157793          	andi	a5,a0,1
 fff15bc:	00078863          	beqz	a5,fff15cc <_Z17SDReadSingleBlockmPhS_+0xcc>
 fff15c0:	00004517          	auipc	a0,0x4
 fff15c4:	72050513          	addi	a0,a0,1824 # fff5ce0 <_free_r+0xac0>
 fff15c8:	bacff0ef          	jal	ra,fff0974 <_Z9UARTWritePKc>
 fff15cc:	00247793          	andi	a5,s0,2
 fff15d0:	00078863          	beqz	a5,fff15e0 <_Z17SDReadSingleBlockmPhS_+0xe0>
 fff15d4:	00004517          	auipc	a0,0x4
 fff15d8:	73c50513          	addi	a0,a0,1852 # fff5d10 <_free_r+0xaf0>
 fff15dc:	b98ff0ef          	jal	ra,fff0974 <_Z9UARTWritePKc>
 fff15e0:	00447793          	andi	a5,s0,4
 fff15e4:	00078863          	beqz	a5,fff15f4 <_Z17SDReadSingleBlockmPhS_+0xf4>
 fff15e8:	00004517          	auipc	a0,0x4
 fff15ec:	75850513          	addi	a0,a0,1880 # fff5d40 <_free_r+0xb20>
 fff15f0:	b84ff0ef          	jal	ra,fff0974 <_Z9UARTWritePKc>
 fff15f4:	00847793          	andi	a5,s0,8
 fff15f8:	f8078ae3          	beqz	a5,fff158c <_Z17SDReadSingleBlockmPhS_+0x8c>
 fff15fc:	00004517          	auipc	a0,0x4
 fff1600:	77c50513          	addi	a0,a0,1916 # fff5d78 <_free_r+0xb58>
 fff1604:	b70ff0ef          	jal	ra,fff0974 <_Z9UARTWritePKc>
 fff1608:	00048513          	mv	a0,s1
 fff160c:	b8cff0ef          	jal	ra,fff0998 <_Z12UARTWriteHexm>
 fff1610:	00004517          	auipc	a0,0x4
 fff1614:	2a850513          	addi	a0,a0,680 # fff58b8 <_free_r+0x698>
 fff1618:	b5cff0ef          	jal	ra,fff0974 <_Z9UARTWritePKc>
 fff161c:	f71ff06f          	j	fff158c <_Z17SDReadSingleBlockmPhS_+0x8c>

0fff1620 <_Z18SDWriteSingleBlockmPhS_>:
 fff1620:	ff010113          	addi	sp,sp,-16
 fff1624:	00912223          	sw	s1,4(sp)
 fff1628:	00058493          	mv	s1,a1
 fff162c:	00050593          	mv	a1,a0
 fff1630:	01100513          	li	a0,17
 fff1634:	00112623          	sw	ra,12(sp)
 fff1638:	00812423          	sw	s0,8(sp)
 fff163c:	01212023          	sw	s2,0(sp)
 fff1640:	b35ff0ef          	jal	ra,fff1174 <_Z5SDCmd13SDCardCommandm>
 fff1644:	c09ff0ef          	jal	ra,fff124c <_Z11SDResponse1v>
 fff1648:	06051063          	bnez	a0,fff16a8 <_Z18SDWriteSingleBlockmPhS_+0x88>
 fff164c:	0fe00513          	li	a0,254
 fff1650:	b09ff0ef          	jal	ra,fff1158 <_Z7SPITxRxh>
 fff1654:	00000413          	li	s0,0
 fff1658:	20000913          	li	s2,512
 fff165c:	008487b3          	add	a5,s1,s0
 fff1660:	0007c503          	lbu	a0,0(a5)
 fff1664:	00140413          	addi	s0,s0,1
 fff1668:	af1ff0ef          	jal	ra,fff1158 <_Z7SPITxRxh>
 fff166c:	ff2418e3          	bne	s0,s2,fff165c <_Z18SDWriteSingleBlockmPhS_+0x3c>
 fff1670:	bddff0ef          	jal	ra,fff124c <_Z11SDResponse1v>
 fff1674:	01f57513          	andi	a0,a0,31
 fff1678:	00500793          	li	a5,5
 fff167c:	00f51e63          	bne	a0,a5,fff1698 <_Z18SDWriteSingleBlockmPhS_+0x78>
 fff1680:	00812403          	lw	s0,8(sp)
 fff1684:	00c12083          	lw	ra,12(sp)
 fff1688:	00412483          	lw	s1,4(sp)
 fff168c:	00012903          	lw	s2,0(sp)
 fff1690:	01010113          	addi	sp,sp,16
 fff1694:	bb9ff06f          	j	fff124c <_Z11SDResponse1v>
 fff1698:	00004517          	auipc	a0,0x4
 fff169c:	72050513          	addi	a0,a0,1824 # fff5db8 <_free_r+0xb98>
 fff16a0:	ad4ff0ef          	jal	ra,fff0974 <_Z9UARTWritePKc>
 fff16a4:	0ff00513          	li	a0,255
 fff16a8:	00c12083          	lw	ra,12(sp)
 fff16ac:	00812403          	lw	s0,8(sp)
 fff16b0:	00412483          	lw	s1,4(sp)
 fff16b4:	00012903          	lw	s2,0(sp)
 fff16b8:	01010113          	addi	sp,sp,16
 fff16bc:	00008067          	ret

0fff16c0 <_Z20SDReadMultipleBlocksPhmm>:
 fff16c0:	dd010113          	addi	sp,sp,-560
 fff16c4:	21412c23          	sw	s4,536(sp)
 fff16c8:	22112623          	sw	ra,556(sp)
 fff16cc:	22812423          	sw	s0,552(sp)
 fff16d0:	22912223          	sw	s1,548(sp)
 fff16d4:	23212023          	sw	s2,544(sp)
 fff16d8:	21312e23          	sw	s3,540(sp)
 fff16dc:	21512a23          	sw	s5,532(sp)
 fff16e0:	21612823          	sw	s6,528(sp)
 fff16e4:	00c58a33          	add	s4,a1,a2
 fff16e8:	04058a63          	beqz	a1,fff173c <_Z20SDReadMultipleBlocksPhmm+0x7c>
 fff16ec:	00050913          	mv	s2,a0
 fff16f0:	00060493          	mv	s1,a2
 fff16f4:	00000413          	li	s0,0
 fff16f8:	00c10a93          	addi	s5,sp,12
 fff16fc:	01010993          	addi	s3,sp,16
 fff1700:	0fe00b13          	li	s6,254
 fff1704:	000a8613          	mv	a2,s5
 fff1708:	00098593          	mv	a1,s3
 fff170c:	00048513          	mv	a0,s1
 fff1710:	df1ff0ef          	jal	ra,fff1500 <_Z17SDReadSingleBlockmPhS_>
 fff1714:	03651463          	bne	a0,s6,fff173c <_Z20SDReadMultipleBlocksPhmm+0x7c>
 fff1718:	00890533          	add	a0,s2,s0
 fff171c:	20000613          	li	a2,512
 fff1720:	00098593          	mv	a1,s3
 fff1724:	00148493          	addi	s1,s1,1
 fff1728:	520030ef          	jal	ra,fff4c48 <memcpy>
 fff172c:	20040413          	addi	s0,s0,512
 fff1730:	fc9a1ae3          	bne	s4,s1,fff1704 <_Z20SDReadMultipleBlocksPhmm+0x44>
 fff1734:	00040513          	mv	a0,s0
 fff1738:	0080006f          	j	fff1740 <_Z20SDReadMultipleBlocksPhmm+0x80>
 fff173c:	fff00513          	li	a0,-1
 fff1740:	22c12083          	lw	ra,556(sp)
 fff1744:	22812403          	lw	s0,552(sp)
 fff1748:	22412483          	lw	s1,548(sp)
 fff174c:	22012903          	lw	s2,544(sp)
 fff1750:	21c12983          	lw	s3,540(sp)
 fff1754:	21812a03          	lw	s4,536(sp)
 fff1758:	21412a83          	lw	s5,532(sp)
 fff175c:	21012b03          	lw	s6,528(sp)
 fff1760:	23010113          	addi	sp,sp,560
 fff1764:	00008067          	ret

0fff1768 <_Z21SDWriteMultipleBlocksPKhmm>:
 fff1768:	dd010113          	addi	sp,sp,-560
 fff176c:	21412c23          	sw	s4,536(sp)
 fff1770:	22112623          	sw	ra,556(sp)
 fff1774:	22812423          	sw	s0,552(sp)
 fff1778:	22912223          	sw	s1,548(sp)
 fff177c:	23212023          	sw	s2,544(sp)
 fff1780:	21312e23          	sw	s3,540(sp)
 fff1784:	21512a23          	sw	s5,532(sp)
 fff1788:	21612823          	sw	s6,528(sp)
 fff178c:	00c58a33          	add	s4,a1,a2
 fff1790:	04058a63          	beqz	a1,fff17e4 <_Z21SDWriteMultipleBlocksPKhmm+0x7c>
 fff1794:	00050913          	mv	s2,a0
 fff1798:	00060493          	mv	s1,a2
 fff179c:	00000413          	li	s0,0
 fff17a0:	01010993          	addi	s3,sp,16
 fff17a4:	00c10a93          	addi	s5,sp,12
 fff17a8:	0fe00b13          	li	s6,254
 fff17ac:	20000613          	li	a2,512
 fff17b0:	008905b3          	add	a1,s2,s0
 fff17b4:	00098513          	mv	a0,s3
 fff17b8:	490030ef          	jal	ra,fff4c48 <memcpy>
 fff17bc:	000a8613          	mv	a2,s5
 fff17c0:	00098593          	mv	a1,s3
 fff17c4:	00048513          	mv	a0,s1
 fff17c8:	e59ff0ef          	jal	ra,fff1620 <_Z18SDWriteSingleBlockmPhS_>
 fff17cc:	01651c63          	bne	a0,s6,fff17e4 <_Z21SDWriteMultipleBlocksPKhmm+0x7c>
 fff17d0:	00148493          	addi	s1,s1,1
 fff17d4:	20040413          	addi	s0,s0,512
 fff17d8:	fc9a1ae3          	bne	s4,s1,fff17ac <_Z21SDWriteMultipleBlocksPKhmm+0x44>
 fff17dc:	00040513          	mv	a0,s0
 fff17e0:	0080006f          	j	fff17e8 <_Z21SDWriteMultipleBlocksPKhmm+0x80>
 fff17e4:	fff00513          	li	a0,-1
 fff17e8:	22c12083          	lw	ra,556(sp)
 fff17ec:	22812403          	lw	s0,552(sp)
 fff17f0:	22412483          	lw	s1,548(sp)
 fff17f4:	22012903          	lw	s2,544(sp)
 fff17f8:	21c12983          	lw	s3,540(sp)
 fff17fc:	21812a03          	lw	s4,536(sp)
 fff1800:	21412a83          	lw	s5,532(sp)
 fff1804:	21012b03          	lw	s6,528(sp)
 fff1808:	23010113          	addi	sp,sp,560
 fff180c:	00008067          	ret

0fff1810 <_Z13SDCardStartupv>:
 fff1810:	ff010113          	addi	sp,sp,-16
 fff1814:	00112623          	sw	ra,12(sp)
 fff1818:	00812423          	sw	s0,8(sp)
 fff181c:	b11ff0ef          	jal	ra,fff132c <_Z6SDIdlev>
 fff1820:	00100793          	li	a5,1
 fff1824:	00f50c63          	beq	a0,a5,fff183c <_Z13SDCardStartupv+0x2c>
 fff1828:	fff00513          	li	a0,-1
 fff182c:	00c12083          	lw	ra,12(sp)
 fff1830:	00812403          	lw	s0,8(sp)
 fff1834:	01010113          	addi	sp,sp,16
 fff1838:	00008067          	ret
 fff183c:	00050413          	mv	s0,a0
 fff1840:	b69ff0ef          	jal	ra,fff13a8 <_Z19SDCheckVoltageRangev>
 fff1844:	fe8512e3          	bne	a0,s0,fff1828 <_Z13SDCardStartupv+0x18>
 fff1848:	bedff0ef          	jal	ra,fff1434 <_Z10SDCardInitv>
 fff184c:	00a03533          	snez	a0,a0
 fff1850:	40a00533          	neg	a0,a0
 fff1854:	fd9ff06f          	j	fff182c <_Z13SDCardStartupv+0x1c>

0fff1858 <_ZL8ld_dwordPKh>:
 fff1858:	00154703          	lbu	a4,1(a0)
 fff185c:	00054783          	lbu	a5,0(a0)
 fff1860:	00871713          	slli	a4,a4,0x8
 fff1864:	00f76733          	or	a4,a4,a5
 fff1868:	00254783          	lbu	a5,2(a0)
 fff186c:	00354503          	lbu	a0,3(a0)
 fff1870:	01079793          	slli	a5,a5,0x10
 fff1874:	00e7e7b3          	or	a5,a5,a4
 fff1878:	01851513          	slli	a0,a0,0x18
 fff187c:	00f56533          	or	a0,a0,a5
 fff1880:	00008067          	ret

0fff1884 <_ZL9clst2sectP5FATFSm>:
 fff1884:	01c52783          	lw	a5,28(a0)
 fff1888:	ffe58593          	addi	a1,a1,-2 # 3ffffffe <__BSS_END__$+0x30007296>
 fff188c:	ffe78793          	addi	a5,a5,-2
 fff1890:	00f5fc63          	bgeu	a1,a5,fff18a8 <_ZL9clst2sectP5FATFSm+0x24>
 fff1894:	00a55783          	lhu	a5,10(a0)
 fff1898:	03052703          	lw	a4,48(a0)
 fff189c:	02b787b3          	mul	a5,a5,a1
 fff18a0:	00e78533          	add	a0,a5,a4
 fff18a4:	00008067          	ret
 fff18a8:	00000513          	li	a0,0
 fff18ac:	00008067          	ret

0fff18b0 <_ZL10clmt_clustP3FILm>:
 fff18b0:	00052703          	lw	a4,0(a0)
 fff18b4:	0095d593          	srli	a1,a1,0x9
 fff18b8:	02852783          	lw	a5,40(a0)
 fff18bc:	00a75703          	lhu	a4,10(a4)
 fff18c0:	00478793          	addi	a5,a5,4
 fff18c4:	02e5d5b3          	divu	a1,a1,a4
 fff18c8:	0007a503          	lw	a0,0(a5)
 fff18cc:	00050e63          	beqz	a0,fff18e8 <_ZL10clmt_clustP3FILm+0x38>
 fff18d0:	00a5e863          	bltu	a1,a0,fff18e0 <_ZL10clmt_clustP3FILm+0x30>
 fff18d4:	40a585b3          	sub	a1,a1,a0
 fff18d8:	00878793          	addi	a5,a5,8
 fff18dc:	fedff06f          	j	fff18c8 <_ZL10clmt_clustP3FILm+0x18>
 fff18e0:	0047a503          	lw	a0,4(a5)
 fff18e4:	00a58533          	add	a0,a1,a0
 fff18e8:	00008067          	ret

0fff18ec <_ZL7sum_sfnPKh>:
 fff18ec:	00050793          	mv	a5,a0
 fff18f0:	00b50693          	addi	a3,a0,11
 fff18f4:	00000513          	li	a0,0
 fff18f8:	0007c603          	lbu	a2,0(a5)
 fff18fc:	00155713          	srli	a4,a0,0x1
 fff1900:	00751513          	slli	a0,a0,0x7
 fff1904:	00a76733          	or	a4,a4,a0
 fff1908:	00178793          	addi	a5,a5,1
 fff190c:	00c70733          	add	a4,a4,a2
 fff1910:	0ff77513          	zext.b	a0,a4
 fff1914:	fed792e3          	bne	a5,a3,fff18f8 <_ZL7sum_sfnPKh+0xc>
 fff1918:	00008067          	ret

0fff191c <_ZL12get_ldnumberPPKc>:
 fff191c:	00052603          	lw	a2,0(a0)
 fff1920:	00050593          	mv	a1,a0
 fff1924:	0a060c63          	beqz	a2,fff19dc <_ZL12get_ldnumberPPKc+0xc0>
 fff1928:	00060693          	mv	a3,a2
 fff192c:	01f00513          	li	a0,31
 fff1930:	03a00713          	li	a4,58
 fff1934:	0006c783          	lbu	a5,0(a3)
 fff1938:	00168693          	addi	a3,a3,1
 fff193c:	08f57263          	bgeu	a0,a5,fff19c0 <_ZL12get_ldnumberPPKc+0xa4>
 fff1940:	fee79ae3          	bne	a5,a4,fff1934 <_ZL12get_ldnumberPPKc+0x18>
 fff1944:	00064783          	lbu	a5,0(a2)
 fff1948:	fd078513          	addi	a0,a5,-48
 fff194c:	0ff57713          	zext.b	a4,a0
 fff1950:	00900793          	li	a5,9
 fff1954:	06e7fc63          	bgeu	a5,a4,fff19cc <_ZL12get_ldnumberPPKc+0xb0>
 fff1958:	00005317          	auipc	t1,0x5
 fff195c:	69830313          	addi	t1,t1,1688 # fff6ff0 <_ZL9VolumeStr>
 fff1960:	00000513          	li	a0,0
 fff1964:	01900e13          	li	t3,25
 fff1968:	00300f93          	li	t6,3
 fff196c:	00032e83          	lw	t4,0(t1)
 fff1970:	00060813          	mv	a6,a2
 fff1974:	000ec703          	lbu	a4,0(t4)
 fff1978:	00084783          	lbu	a5,0(a6)
 fff197c:	001e8e93          	addi	t4,t4,1
 fff1980:	f9f70f13          	addi	t5,a4,-97
 fff1984:	f9f78893          	addi	a7,a5,-97
 fff1988:	0fff7f13          	zext.b	t5,t5
 fff198c:	00180813          	addi	a6,a6,1
 fff1990:	0ff8f893          	zext.b	a7,a7
 fff1994:	05ee6863          	bltu	t3,t5,fff19e4 <_ZL12get_ldnumberPPKc+0xc8>
 fff1998:	fe070713          	addi	a4,a4,-32
 fff199c:	0ff77713          	zext.b	a4,a4
 fff19a0:	011e6663          	bltu	t3,a7,fff19ac <_ZL12get_ldnumberPPKc+0x90>
 fff19a4:	fe078793          	addi	a5,a5,-32
 fff19a8:	0ff7f793          	zext.b	a5,a5
 fff19ac:	fce784e3          	beq	a5,a4,fff1974 <_ZL12get_ldnumberPPKc+0x58>
 fff19b0:	00150513          	addi	a0,a0,1
 fff19b4:	00430313          	addi	t1,t1,4
 fff19b8:	fbf51ae3          	bne	a0,t6,fff196c <_ZL12get_ldnumberPPKc+0x50>
 fff19bc:	0200006f          	j	fff19dc <_ZL12get_ldnumberPPKc+0xc0>
 fff19c0:	00007517          	auipc	a0,0x7
 fff19c4:	37054503          	lbu	a0,880(a0) # fff8d30 <_ZL7CurrVol>
 fff19c8:	00008067          	ret
 fff19cc:	00260793          	addi	a5,a2,2
 fff19d0:	f8f694e3          	bne	a3,a5,fff1958 <_ZL12get_ldnumberPPKc+0x3c>
 fff19d4:	00200793          	li	a5,2
 fff19d8:	02a7d063          	bge	a5,a0,fff19f8 <_ZL12get_ldnumberPPKc+0xdc>
 fff19dc:	fff00513          	li	a0,-1
 fff19e0:	00008067          	ret
 fff19e4:	011e6663          	bltu	t3,a7,fff19f0 <_ZL12get_ldnumberPPKc+0xd4>
 fff19e8:	fe078793          	addi	a5,a5,-32
 fff19ec:	0ff7f793          	zext.b	a5,a5
 fff19f0:	fa071ee3          	bnez	a4,fff19ac <_ZL12get_ldnumberPPKc+0x90>
 fff19f4:	fb069ee3          	bne	a3,a6,fff19b0 <_ZL12get_ldnumberPPKc+0x94>
 fff19f8:	00d5a023          	sw	a3,0(a1)
 fff19fc:	00008067          	ret

0fff1a00 <_ZL8validateP7FFOBJIDPP5FATFS>:
 fff1a00:	ff010113          	addi	sp,sp,-16
 fff1a04:	00912223          	sw	s1,4(sp)
 fff1a08:	00112623          	sw	ra,12(sp)
 fff1a0c:	00812423          	sw	s0,8(sp)
 fff1a10:	00058493          	mv	s1,a1
 fff1a14:	02051263          	bnez	a0,fff1a38 <_ZL8validateP7FFOBJIDPP5FATFS+0x38>
 fff1a18:	00900513          	li	a0,9
 fff1a1c:	00000793          	li	a5,0
 fff1a20:	00c12083          	lw	ra,12(sp)
 fff1a24:	00812403          	lw	s0,8(sp)
 fff1a28:	00f4a023          	sw	a5,0(s1)
 fff1a2c:	00412483          	lw	s1,4(sp)
 fff1a30:	01010113          	addi	sp,sp,16
 fff1a34:	00008067          	ret
 fff1a38:	00052783          	lw	a5,0(a0)
 fff1a3c:	00050413          	mv	s0,a0
 fff1a40:	fc078ce3          	beqz	a5,fff1a18 <_ZL8validateP7FFOBJIDPP5FATFS+0x18>
 fff1a44:	0007c703          	lbu	a4,0(a5)
 fff1a48:	fc0708e3          	beqz	a4,fff1a18 <_ZL8validateP7FFOBJIDPP5FATFS+0x18>
 fff1a4c:	00455683          	lhu	a3,4(a0)
 fff1a50:	0067d703          	lhu	a4,6(a5)
 fff1a54:	fce692e3          	bne	a3,a4,fff1a18 <_ZL8validateP7FFOBJIDPP5FATFS+0x18>
 fff1a58:	0017c503          	lbu	a0,1(a5)
 fff1a5c:	7e4020ef          	jal	ra,fff4240 <disk_status>
 fff1a60:	00157513          	andi	a0,a0,1
 fff1a64:	fa051ae3          	bnez	a0,fff1a18 <_ZL8validateP7FFOBJIDPP5FATFS+0x18>
 fff1a68:	00042783          	lw	a5,0(s0)
 fff1a6c:	fb5ff06f          	j	fff1a20 <_ZL8validateP7FFOBJIDPP5FATFS+0x20>

0fff1a70 <_ZL11sync_windowP5FATFS>:
 fff1a70:	00354783          	lbu	a5,3(a0)
 fff1a74:	08078263          	beqz	a5,fff1af8 <_ZL11sync_windowP5FATFS+0x88>
 fff1a78:	fe010113          	addi	sp,sp,-32
 fff1a7c:	00812c23          	sw	s0,24(sp)
 fff1a80:	00112e23          	sw	ra,28(sp)
 fff1a84:	03850593          	addi	a1,a0,56
 fff1a88:	03452603          	lw	a2,52(a0)
 fff1a8c:	00050413          	mv	s0,a0
 fff1a90:	00154503          	lbu	a0,1(a0)
 fff1a94:	00100693          	li	a3,1
 fff1a98:	00b12623          	sw	a1,12(sp)
 fff1a9c:	021020ef          	jal	ra,fff42bc <disk_write>
 fff1aa0:	00100793          	li	a5,1
 fff1aa4:	04051063          	bnez	a0,fff1ae4 <_ZL11sync_windowP5FATFS+0x74>
 fff1aa8:	03442603          	lw	a2,52(s0)
 fff1aac:	02842783          	lw	a5,40(s0)
 fff1ab0:	02042703          	lw	a4,32(s0)
 fff1ab4:	000401a3          	sb	zero,3(s0)
 fff1ab8:	40f607b3          	sub	a5,a2,a5
 fff1abc:	02e7f263          	bgeu	a5,a4,fff1ae0 <_ZL11sync_windowP5FATFS+0x70>
 fff1ac0:	00244683          	lbu	a3,2(s0)
 fff1ac4:	00200793          	li	a5,2
 fff1ac8:	00c12583          	lw	a1,12(sp)
 fff1acc:	00f69a63          	bne	a3,a5,fff1ae0 <_ZL11sync_windowP5FATFS+0x70>
 fff1ad0:	00144503          	lbu	a0,1(s0)
 fff1ad4:	00100693          	li	a3,1
 fff1ad8:	00e60633          	add	a2,a2,a4
 fff1adc:	7e0020ef          	jal	ra,fff42bc <disk_write>
 fff1ae0:	00000793          	li	a5,0
 fff1ae4:	01c12083          	lw	ra,28(sp)
 fff1ae8:	01812403          	lw	s0,24(sp)
 fff1aec:	00078513          	mv	a0,a5
 fff1af0:	02010113          	addi	sp,sp,32
 fff1af4:	00008067          	ret
 fff1af8:	00000793          	li	a5,0
 fff1afc:	00078513          	mv	a0,a5
 fff1b00:	00008067          	ret

0fff1b04 <_ZL11move_windowP5FATFSm>:
 fff1b04:	03452783          	lw	a5,52(a0)
 fff1b08:	04b78e63          	beq	a5,a1,fff1b64 <_ZL11move_windowP5FATFSm+0x60>
 fff1b0c:	ff010113          	addi	sp,sp,-16
 fff1b10:	00812423          	sw	s0,8(sp)
 fff1b14:	00912223          	sw	s1,4(sp)
 fff1b18:	00112623          	sw	ra,12(sp)
 fff1b1c:	00050413          	mv	s0,a0
 fff1b20:	00058493          	mv	s1,a1
 fff1b24:	f4dff0ef          	jal	ra,fff1a70 <_ZL11sync_windowP5FATFS>
 fff1b28:	02051463          	bnez	a0,fff1b50 <_ZL11move_windowP5FATFSm+0x4c>
 fff1b2c:	00144503          	lbu	a0,1(s0)
 fff1b30:	00100693          	li	a3,1
 fff1b34:	00048613          	mv	a2,s1
 fff1b38:	03840593          	addi	a1,s0,56
 fff1b3c:	740020ef          	jal	ra,fff427c <disk_read>
 fff1b40:	00050663          	beqz	a0,fff1b4c <_ZL11move_windowP5FATFSm+0x48>
 fff1b44:	00100513          	li	a0,1
 fff1b48:	fff00493          	li	s1,-1
 fff1b4c:	02942a23          	sw	s1,52(s0)
 fff1b50:	00c12083          	lw	ra,12(sp)
 fff1b54:	00812403          	lw	s0,8(sp)
 fff1b58:	00412483          	lw	s1,4(sp)
 fff1b5c:	01010113          	addi	sp,sp,16
 fff1b60:	00008067          	ret
 fff1b64:	00000513          	li	a0,0
 fff1b68:	00008067          	ret

0fff1b6c <_ZL8check_fsP5FATFSm>:
 fff1b6c:	ff010113          	addi	sp,sp,-16
 fff1b70:	00812423          	sw	s0,8(sp)
 fff1b74:	00912223          	sw	s1,4(sp)
 fff1b78:	00112623          	sw	ra,12(sp)
 fff1b7c:	01212023          	sw	s2,0(sp)
 fff1b80:	fff00793          	li	a5,-1
 fff1b84:	000501a3          	sb	zero,3(a0)
 fff1b88:	02f52a23          	sw	a5,52(a0)
 fff1b8c:	00050413          	mv	s0,a0
 fff1b90:	f75ff0ef          	jal	ra,fff1b04 <_ZL11move_windowP5FATFSm>
 fff1b94:	00400493          	li	s1,4
 fff1b98:	04051263          	bnez	a0,fff1bdc <_ZL8check_fsP5FATFSm+0x70>
 fff1b9c:	23744903          	lbu	s2,567(s0)
 fff1ba0:	23644783          	lbu	a5,566(s0)
 fff1ba4:	0eb00713          	li	a4,235
 fff1ba8:	00891913          	slli	s2,s2,0x8
 fff1bac:	00f96933          	or	s2,s2,a5
 fff1bb0:	03844783          	lbu	a5,56(s0)
 fff1bb4:	00050493          	mv	s1,a0
 fff1bb8:	04e78063          	beq	a5,a4,fff1bf8 <_ZL8check_fsP5FATFSm+0x8c>
 fff1bbc:	01878793          	addi	a5,a5,24
 fff1bc0:	0ff7f793          	zext.b	a5,a5
 fff1bc4:	00100713          	li	a4,1
 fff1bc8:	02f77863          	bgeu	a4,a5,fff1bf8 <_ZL8check_fsP5FATFSm+0x8c>
 fff1bcc:	0000b7b7          	lui	a5,0xb
 fff1bd0:	a5578793          	addi	a5,a5,-1451 # aa55 <__stack_size+0xa955>
 fff1bd4:	04f91863          	bne	s2,a5,fff1c24 <_ZL8check_fsP5FATFSm+0xb8>
 fff1bd8:	00200493          	li	s1,2
 fff1bdc:	00c12083          	lw	ra,12(sp)
 fff1be0:	00812403          	lw	s0,8(sp)
 fff1be4:	00012903          	lw	s2,0(sp)
 fff1be8:	00048513          	mv	a0,s1
 fff1bec:	00412483          	lw	s1,4(sp)
 fff1bf0:	01010113          	addi	sp,sp,16
 fff1bf4:	00008067          	ret
 fff1bf8:	0000b7b7          	lui	a5,0xb
 fff1bfc:	a5578793          	addi	a5,a5,-1451 # aa55 <__stack_size+0xa955>
 fff1c00:	02f90663          	beq	s2,a5,fff1c2c <_ZL8check_fsP5FATFSm+0xc0>
 fff1c04:	04444783          	lbu	a5,68(s0)
 fff1c08:	04344683          	lbu	a3,67(s0)
 fff1c0c:	04544703          	lbu	a4,69(s0)
 fff1c10:	00879793          	slli	a5,a5,0x8
 fff1c14:	00d7e7b3          	or	a5,a5,a3
 fff1c18:	20000693          	li	a3,512
 fff1c1c:	00d79463          	bne	a5,a3,fff1c24 <_ZL8check_fsP5FATFSm+0xb8>
 fff1c20:	0c071463          	bnez	a4,fff1ce8 <_ZL8check_fsP5FATFSm+0x17c>
 fff1c24:	00300493          	li	s1,3
 fff1c28:	fb5ff06f          	j	fff1bdc <_ZL8check_fsP5FATFSm+0x70>
 fff1c2c:	00800613          	li	a2,8
 fff1c30:	00004597          	auipc	a1,0x4
 fff1c34:	1ac58593          	addi	a1,a1,428 # fff5ddc <_free_r+0xbbc>
 fff1c38:	08a40513          	addi	a0,s0,138
 fff1c3c:	795020ef          	jal	ra,fff4bd0 <memcmp>
 fff1c40:	f8050ee3          	beqz	a0,fff1bdc <_ZL8check_fsP5FATFSm+0x70>
 fff1c44:	04444783          	lbu	a5,68(s0)
 fff1c48:	04344683          	lbu	a3,67(s0)
 fff1c4c:	04544703          	lbu	a4,69(s0)
 fff1c50:	00879793          	slli	a5,a5,0x8
 fff1c54:	00d7e7b3          	or	a5,a5,a3
 fff1c58:	20000693          	li	a3,512
 fff1c5c:	f6d79ee3          	bne	a5,a3,fff1bd8 <_ZL8check_fsP5FATFSm+0x6c>
 fff1c60:	f6070ce3          	beqz	a4,fff1bd8 <_ZL8check_fsP5FATFSm+0x6c>
 fff1c64:	fff70793          	addi	a5,a4,-1
 fff1c68:	00e7f7b3          	and	a5,a5,a4
 fff1c6c:	f60796e3          	bnez	a5,fff1bd8 <_ZL8check_fsP5FATFSm+0x6c>
 fff1c70:	04744783          	lbu	a5,71(s0)
 fff1c74:	04644703          	lbu	a4,70(s0)
 fff1c78:	00879793          	slli	a5,a5,0x8
 fff1c7c:	00e7e7b3          	or	a5,a5,a4
 fff1c80:	f40786e3          	beqz	a5,fff1bcc <_ZL8check_fsP5FATFSm+0x60>
 fff1c84:	04844783          	lbu	a5,72(s0)
 fff1c88:	00100713          	li	a4,1
 fff1c8c:	fff78793          	addi	a5,a5,-1
 fff1c90:	f2f76ee3          	bltu	a4,a5,fff1bcc <_ZL8check_fsP5FATFSm+0x60>
 fff1c94:	04a44783          	lbu	a5,74(s0)
 fff1c98:	04944703          	lbu	a4,73(s0)
 fff1c9c:	00879793          	slli	a5,a5,0x8
 fff1ca0:	00e7e7b3          	or	a5,a5,a4
 fff1ca4:	f20784e3          	beqz	a5,fff1bcc <_ZL8check_fsP5FATFSm+0x60>
 fff1ca8:	04c44783          	lbu	a5,76(s0)
 fff1cac:	04b44703          	lbu	a4,75(s0)
 fff1cb0:	00879793          	slli	a5,a5,0x8
 fff1cb4:	00e7e7b3          	or	a5,a5,a4
 fff1cb8:	07f00713          	li	a4,127
 fff1cbc:	00f76a63          	bltu	a4,a5,fff1cd0 <_ZL8check_fsP5FATFSm+0x164>
 fff1cc0:	05840513          	addi	a0,s0,88
 fff1cc4:	b95ff0ef          	jal	ra,fff1858 <_ZL8ld_dwordPKh>
 fff1cc8:	000107b7          	lui	a5,0x10
 fff1ccc:	f0f560e3          	bltu	a0,a5,fff1bcc <_ZL8check_fsP5FATFSm+0x60>
 fff1cd0:	04f44783          	lbu	a5,79(s0)
 fff1cd4:	04e44703          	lbu	a4,78(s0)
 fff1cd8:	00879793          	slli	a5,a5,0x8
 fff1cdc:	00e7e7b3          	or	a5,a5,a4
 fff1ce0:	ee0786e3          	beqz	a5,fff1bcc <_ZL8check_fsP5FATFSm+0x60>
 fff1ce4:	ef9ff06f          	j	fff1bdc <_ZL8check_fsP5FATFSm+0x70>
 fff1ce8:	fff70793          	addi	a5,a4,-1
 fff1cec:	00e7f7b3          	and	a5,a5,a4
 fff1cf0:	f2079ae3          	bnez	a5,fff1c24 <_ZL8check_fsP5FATFSm+0xb8>
 fff1cf4:	f7dff06f          	j	fff1c70 <_ZL8check_fsP5FATFSm+0x104>

0fff1cf8 <_ZL7put_fatP5FATFSmm>:
 fff1cf8:	00100693          	li	a3,1
 fff1cfc:	1eb6f063          	bgeu	a3,a1,fff1edc <_ZL7put_fatP5FATFSmm+0x1e4>
 fff1d00:	01c52703          	lw	a4,28(a0)
 fff1d04:	fe010113          	addi	sp,sp,-32
 fff1d08:	00912a23          	sw	s1,20(sp)
 fff1d0c:	01212823          	sw	s2,16(sp)
 fff1d10:	00112e23          	sw	ra,28(sp)
 fff1d14:	00812c23          	sw	s0,24(sp)
 fff1d18:	01312623          	sw	s3,12(sp)
 fff1d1c:	01412423          	sw	s4,8(sp)
 fff1d20:	01512223          	sw	s5,4(sp)
 fff1d24:	00050913          	mv	s2,a0
 fff1d28:	00058493          	mv	s1,a1
 fff1d2c:	00200793          	li	a5,2
 fff1d30:	0ce5f463          	bgeu	a1,a4,fff1df8 <_ZL7put_fatP5FATFSmm+0x100>
 fff1d34:	00054703          	lbu	a4,0(a0)
 fff1d38:	00060413          	mv	s0,a2
 fff1d3c:	0ef70e63          	beq	a4,a5,fff1e38 <_ZL7put_fatP5FATFSmm+0x140>
 fff1d40:	00300793          	li	a5,3
 fff1d44:	12f70a63          	beq	a4,a5,fff1e78 <_ZL7put_fatP5FATFSmm+0x180>
 fff1d48:	00200793          	li	a5,2
 fff1d4c:	0ad71663          	bne	a4,a3,fff1df8 <_ZL7put_fatP5FATFSmm+0x100>
 fff1d50:	02852783          	lw	a5,40(a0)
 fff1d54:	0015d993          	srli	s3,a1,0x1
 fff1d58:	00b989b3          	add	s3,s3,a1
 fff1d5c:	0099d593          	srli	a1,s3,0x9
 fff1d60:	00f585b3          	add	a1,a1,a5
 fff1d64:	da1ff0ef          	jal	ra,fff1b04 <_ZL11move_windowP5FATFSm>
 fff1d68:	00050793          	mv	a5,a0
 fff1d6c:	08051663          	bnez	a0,fff1df8 <_ZL7put_fatP5FATFSmm+0x100>
 fff1d70:	03890a13          	addi	s4,s2,56
 fff1d74:	00198a93          	addi	s5,s3,1
 fff1d78:	0014f493          	andi	s1,s1,1
 fff1d7c:	1ff9f993          	andi	s3,s3,511
 fff1d80:	013a09b3          	add	s3,s4,s3
 fff1d84:	0ff47793          	zext.b	a5,s0
 fff1d88:	02048263          	beqz	s1,fff1dac <_ZL7put_fatP5FATFSmm+0xb4>
 fff1d8c:	0009c783          	lbu	a5,0(s3)
 fff1d90:	000016b7          	lui	a3,0x1
 fff1d94:	00441713          	slli	a4,s0,0x4
 fff1d98:	ff068693          	addi	a3,a3,-16 # ff0 <__stack_size+0xef0>
 fff1d9c:	00f7f793          	andi	a5,a5,15
 fff1da0:	00d77733          	and	a4,a4,a3
 fff1da4:	00e7e7b3          	or	a5,a5,a4
 fff1da8:	0ff7f793          	zext.b	a5,a5
 fff1dac:	00f98023          	sb	a5,0(s3)
 fff1db0:	00100793          	li	a5,1
 fff1db4:	00f901a3          	sb	a5,3(s2)
 fff1db8:	02892783          	lw	a5,40(s2)
 fff1dbc:	009ad593          	srli	a1,s5,0x9
 fff1dc0:	00090513          	mv	a0,s2
 fff1dc4:	00f585b3          	add	a1,a1,a5
 fff1dc8:	d3dff0ef          	jal	ra,fff1b04 <_ZL11move_windowP5FATFSm>
 fff1dcc:	00050793          	mv	a5,a0
 fff1dd0:	02051463          	bnez	a0,fff1df8 <_ZL7put_fatP5FATFSmm+0x100>
 fff1dd4:	1ffafa93          	andi	s5,s5,511
 fff1dd8:	015a0a33          	add	s4,s4,s5
 fff1ddc:	04048263          	beqz	s1,fff1e20 <_ZL7put_fatP5FATFSmm+0x128>
 fff1de0:	00445793          	srli	a5,s0,0x4
 fff1de4:	0ff7f793          	zext.b	a5,a5
 fff1de8:	00fa0023          	sb	a5,0(s4)
 fff1dec:	00100793          	li	a5,1
 fff1df0:	00f901a3          	sb	a5,3(s2)
 fff1df4:	00000793          	li	a5,0
 fff1df8:	01c12083          	lw	ra,28(sp)
 fff1dfc:	01812403          	lw	s0,24(sp)
 fff1e00:	01412483          	lw	s1,20(sp)
 fff1e04:	01012903          	lw	s2,16(sp)
 fff1e08:	00c12983          	lw	s3,12(sp)
 fff1e0c:	00812a03          	lw	s4,8(sp)
 fff1e10:	00412a83          	lw	s5,4(sp)
 fff1e14:	00078513          	mv	a0,a5
 fff1e18:	02010113          	addi	sp,sp,32
 fff1e1c:	00008067          	ret
 fff1e20:	000a4783          	lbu	a5,0(s4)
 fff1e24:	00845413          	srli	s0,s0,0x8
 fff1e28:	00f47413          	andi	s0,s0,15
 fff1e2c:	ff07f793          	andi	a5,a5,-16
 fff1e30:	0087e7b3          	or	a5,a5,s0
 fff1e34:	fb5ff06f          	j	fff1de8 <_ZL7put_fatP5FATFSmm+0xf0>
 fff1e38:	02852783          	lw	a5,40(a0)
 fff1e3c:	0085d593          	srli	a1,a1,0x8
 fff1e40:	00f585b3          	add	a1,a1,a5
 fff1e44:	cc1ff0ef          	jal	ra,fff1b04 <_ZL11move_windowP5FATFSm>
 fff1e48:	00050793          	mv	a5,a0
 fff1e4c:	fa0516e3          	bnez	a0,fff1df8 <_ZL7put_fatP5FATFSmm+0x100>
 fff1e50:	00149493          	slli	s1,s1,0x1
 fff1e54:	03890793          	addi	a5,s2,56
 fff1e58:	1fe4f493          	andi	s1,s1,510
 fff1e5c:	009787b3          	add	a5,a5,s1
 fff1e60:	00878023          	sb	s0,0(a5) # 10000 <__stack_size+0xff00>
 fff1e64:	01041413          	slli	s0,s0,0x10
 fff1e68:	01045413          	srli	s0,s0,0x10
 fff1e6c:	00845413          	srli	s0,s0,0x8
 fff1e70:	008780a3          	sb	s0,1(a5)
 fff1e74:	f79ff06f          	j	fff1dec <_ZL7put_fatP5FATFSmm+0xf4>
 fff1e78:	02852783          	lw	a5,40(a0)
 fff1e7c:	0075d593          	srli	a1,a1,0x7
 fff1e80:	00f585b3          	add	a1,a1,a5
 fff1e84:	c81ff0ef          	jal	ra,fff1b04 <_ZL11move_windowP5FATFSm>
 fff1e88:	00050793          	mv	a5,a0
 fff1e8c:	f60516e3          	bnez	a0,fff1df8 <_ZL7put_fatP5FATFSmm+0x100>
 fff1e90:	00249493          	slli	s1,s1,0x2
 fff1e94:	03890793          	addi	a5,s2,56
 fff1e98:	1fc4f493          	andi	s1,s1,508
 fff1e9c:	009784b3          	add	s1,a5,s1
 fff1ea0:	00048513          	mv	a0,s1
 fff1ea4:	9b5ff0ef          	jal	ra,fff1858 <_ZL8ld_dwordPKh>
 fff1ea8:	f00007b7          	lui	a5,0xf0000
 fff1eac:	00441413          	slli	s0,s0,0x4
 fff1eb0:	00f57533          	and	a0,a0,a5
 fff1eb4:	00445413          	srli	s0,s0,0x4
 fff1eb8:	00a46433          	or	s0,s0,a0
 fff1ebc:	00845793          	srli	a5,s0,0x8
 fff1ec0:	00848023          	sb	s0,0(s1)
 fff1ec4:	00f480a3          	sb	a5,1(s1)
 fff1ec8:	01045793          	srli	a5,s0,0x10
 fff1ecc:	01845413          	srli	s0,s0,0x18
 fff1ed0:	00f48123          	sb	a5,2(s1)
 fff1ed4:	008481a3          	sb	s0,3(s1)
 fff1ed8:	f15ff06f          	j	fff1dec <_ZL7put_fatP5FATFSmm+0xf4>
 fff1edc:	00200793          	li	a5,2
 fff1ee0:	00078513          	mv	a0,a5
 fff1ee4:	00008067          	ret

0fff1ee8 <_ZL12mount_volumePPKcPP5FATFSh>:
 fff1ee8:	fd010113          	addi	sp,sp,-48
 fff1eec:	03212023          	sw	s2,32(sp)
 fff1ef0:	01312e23          	sw	s3,28(sp)
 fff1ef4:	02112623          	sw	ra,44(sp)
 fff1ef8:	02812423          	sw	s0,40(sp)
 fff1efc:	02912223          	sw	s1,36(sp)
 fff1f00:	01412c23          	sw	s4,24(sp)
 fff1f04:	01512a23          	sw	s5,20(sp)
 fff1f08:	0005a023          	sw	zero,0(a1)
 fff1f0c:	00058993          	mv	s3,a1
 fff1f10:	00060913          	mv	s2,a2
 fff1f14:	a09ff0ef          	jal	ra,fff191c <_ZL12get_ldnumberPPKc>
 fff1f18:	3a054863          	bltz	a0,fff22c8 <_ZL12mount_volumePPKcPP5FATFSh+0x3e0>
 fff1f1c:	00251713          	slli	a4,a0,0x2
 fff1f20:	00007797          	auipc	a5,0x7
 fff1f24:	e1478793          	addi	a5,a5,-492 # fff8d34 <_ZL5FatFs>
 fff1f28:	00e787b3          	add	a5,a5,a4
 fff1f2c:	0007a403          	lw	s0,0(a5)
 fff1f30:	00050493          	mv	s1,a0
 fff1f34:	00c00513          	li	a0,12
 fff1f38:	02040a63          	beqz	s0,fff1f6c <_ZL12mount_volumePPKcPP5FATFSh+0x84>
 fff1f3c:	0089a023          	sw	s0,0(s3)
 fff1f40:	00044783          	lbu	a5,0(s0)
 fff1f44:	0fe97913          	andi	s2,s2,254
 fff1f48:	04078863          	beqz	a5,fff1f98 <_ZL12mount_volumePPKcPP5FATFSh+0xb0>
 fff1f4c:	00144503          	lbu	a0,1(s0)
 fff1f50:	2f0020ef          	jal	ra,fff4240 <disk_status>
 fff1f54:	00157793          	andi	a5,a0,1
 fff1f58:	04079063          	bnez	a5,fff1f98 <_ZL12mount_volumePPKcPP5FATFSh+0xb0>
 fff1f5c:	00090663          	beqz	s2,fff1f68 <_ZL12mount_volumePPKcPP5FATFSh+0x80>
 fff1f60:	00457513          	andi	a0,a0,4
 fff1f64:	02051663          	bnez	a0,fff1f90 <_ZL12mount_volumePPKcPP5FATFSh+0xa8>
 fff1f68:	00000513          	li	a0,0
 fff1f6c:	02c12083          	lw	ra,44(sp)
 fff1f70:	02812403          	lw	s0,40(sp)
 fff1f74:	02412483          	lw	s1,36(sp)
 fff1f78:	02012903          	lw	s2,32(sp)
 fff1f7c:	01c12983          	lw	s3,28(sp)
 fff1f80:	01812a03          	lw	s4,24(sp)
 fff1f84:	01412a83          	lw	s5,20(sp)
 fff1f88:	03010113          	addi	sp,sp,48
 fff1f8c:	00008067          	ret
 fff1f90:	00a00513          	li	a0,10
 fff1f94:	fd9ff06f          	j	fff1f6c <_ZL12mount_volumePPKcPP5FATFSh+0x84>
 fff1f98:	0ff4f513          	zext.b	a0,s1
 fff1f9c:	00040023          	sb	zero,0(s0)
 fff1fa0:	00a400a3          	sb	a0,1(s0)
 fff1fa4:	2a8020ef          	jal	ra,fff424c <disk_initialize>
 fff1fa8:	00157713          	andi	a4,a0,1
 fff1fac:	00050793          	mv	a5,a0
 fff1fb0:	00300513          	li	a0,3
 fff1fb4:	fa071ce3          	bnez	a4,fff1f6c <_ZL12mount_volumePPKcPP5FATFSh+0x84>
 fff1fb8:	00090663          	beqz	s2,fff1fc4 <_ZL12mount_volumePPKcPP5FATFSh+0xdc>
 fff1fbc:	0047f793          	andi	a5,a5,4
 fff1fc0:	fc0798e3          	bnez	a5,fff1f90 <_ZL12mount_volumePPKcPP5FATFSh+0xa8>
 fff1fc4:	00000593          	li	a1,0
 fff1fc8:	00040513          	mv	a0,s0
 fff1fcc:	ba1ff0ef          	jal	ra,fff1b6c <_ZL8check_fsP5FATFSm>
 fff1fd0:	00200793          	li	a5,2
 fff1fd4:	06f51263          	bne	a0,a5,fff2038 <_ZL12mount_volumePPKcPP5FATFSh+0x150>
 fff1fd8:	00010493          	mv	s1,sp
 fff1fdc:	1fe40913          	addi	s2,s0,510
 fff1fe0:	23e40a13          	addi	s4,s0,574
 fff1fe4:	00048993          	mv	s3,s1
 fff1fe8:	00090513          	mv	a0,s2
 fff1fec:	86dff0ef          	jal	ra,fff1858 <_ZL8ld_dwordPKh>
 fff1ff0:	00a9a023          	sw	a0,0(s3)
 fff1ff4:	01090913          	addi	s2,s2,16
 fff1ff8:	00498993          	addi	s3,s3,4
 fff1ffc:	ff4916e3          	bne	s2,s4,fff1fe8 <_ZL12mount_volumePPKcPP5FATFSh+0x100>
 fff2000:	01048913          	addi	s2,s1,16
 fff2004:	00100993          	li	s3,1
 fff2008:	0004a583          	lw	a1,0(s1)
 fff200c:	00300513          	li	a0,3
 fff2010:	00058863          	beqz	a1,fff2020 <_ZL12mount_volumePPKcPP5FATFSh+0x138>
 fff2014:	00040513          	mv	a0,s0
 fff2018:	b55ff0ef          	jal	ra,fff1b6c <_ZL8check_fsP5FATFSm>
 fff201c:	02a9fa63          	bgeu	s3,a0,fff2050 <_ZL12mount_volumePPKcPP5FATFSh+0x168>
 fff2020:	00448493          	addi	s1,s1,4
 fff2024:	fe9912e3          	bne	s2,s1,fff2008 <_ZL12mount_volumePPKcPP5FATFSh+0x120>
 fff2028:	00400793          	li	a5,4
 fff202c:	00f51e63          	bne	a0,a5,fff2048 <_ZL12mount_volumePPKcPP5FATFSh+0x160>
 fff2030:	00100513          	li	a0,1
 fff2034:	f39ff06f          	j	fff1f6c <_ZL12mount_volumePPKcPP5FATFSh+0x84>
 fff2038:	00400793          	li	a5,4
 fff203c:	fef50ae3          	beq	a0,a5,fff2030 <_ZL12mount_volumePPKcPP5FATFSh+0x148>
 fff2040:	00100793          	li	a5,1
 fff2044:	00a7f663          	bgeu	a5,a0,fff2050 <_ZL12mount_volumePPKcPP5FATFSh+0x168>
 fff2048:	00d00513          	li	a0,13
 fff204c:	f21ff06f          	j	fff1f6c <_ZL12mount_volumePPKcPP5FATFSh+0x84>
 fff2050:	04444783          	lbu	a5,68(s0)
 fff2054:	04344703          	lbu	a4,67(s0)
 fff2058:	03442a03          	lw	s4,52(s0)
 fff205c:	00879793          	slli	a5,a5,0x8
 fff2060:	00e7e7b3          	or	a5,a5,a4
 fff2064:	20000713          	li	a4,512
 fff2068:	fee790e3          	bne	a5,a4,fff2048 <_ZL12mount_volumePPKcPP5FATFSh+0x160>
 fff206c:	04f44983          	lbu	s3,79(s0)
 fff2070:	04e44783          	lbu	a5,78(s0)
 fff2074:	00899993          	slli	s3,s3,0x8
 fff2078:	00f9e9b3          	or	s3,s3,a5
 fff207c:	00099863          	bnez	s3,fff208c <_ZL12mount_volumePPKcPP5FATFSh+0x1a4>
 fff2080:	05c40513          	addi	a0,s0,92
 fff2084:	fd4ff0ef          	jal	ra,fff1858 <_ZL8ld_dwordPKh>
 fff2088:	00050993          	mv	s3,a0
 fff208c:	04844483          	lbu	s1,72(s0)
 fff2090:	03342023          	sw	s3,32(s0)
 fff2094:	00100713          	li	a4,1
 fff2098:	fff48793          	addi	a5,s1,-1
 fff209c:	00940123          	sb	s1,2(s0)
 fff20a0:	0ff7f793          	zext.b	a5,a5
 fff20a4:	faf762e3          	bltu	a4,a5,fff2048 <_ZL12mount_volumePPKcPP5FATFSh+0x160>
 fff20a8:	04544a83          	lbu	s5,69(s0)
 fff20ac:	01541523          	sh	s5,10(s0)
 fff20b0:	f80a8ce3          	beqz	s5,fff2048 <_ZL12mount_volumePPKcPP5FATFSh+0x160>
 fff20b4:	fffa8793          	addi	a5,s5,-1
 fff20b8:	0157f7b3          	and	a5,a5,s5
 fff20bc:	f80796e3          	bnez	a5,fff2048 <_ZL12mount_volumePPKcPP5FATFSh+0x160>
 fff20c0:	04a44903          	lbu	s2,74(s0)
 fff20c4:	04944783          	lbu	a5,73(s0)
 fff20c8:	00891913          	slli	s2,s2,0x8
 fff20cc:	00f96933          	or	s2,s2,a5
 fff20d0:	01241423          	sh	s2,8(s0)
 fff20d4:	00f97793          	andi	a5,s2,15
 fff20d8:	f60798e3          	bnez	a5,fff2048 <_ZL12mount_volumePPKcPP5FATFSh+0x160>
 fff20dc:	04c44783          	lbu	a5,76(s0)
 fff20e0:	04b44703          	lbu	a4,75(s0)
 fff20e4:	00879793          	slli	a5,a5,0x8
 fff20e8:	00e7e533          	or	a0,a5,a4
 fff20ec:	00051663          	bnez	a0,fff20f8 <_ZL12mount_volumePPKcPP5FATFSh+0x210>
 fff20f0:	05840513          	addi	a0,s0,88
 fff20f4:	f64ff0ef          	jal	ra,fff1858 <_ZL8ld_dwordPKh>
 fff20f8:	04744703          	lbu	a4,71(s0)
 fff20fc:	04644783          	lbu	a5,70(s0)
 fff2100:	00871713          	slli	a4,a4,0x8
 fff2104:	00f76733          	or	a4,a4,a5
 fff2108:	f40700e3          	beqz	a4,fff2048 <_ZL12mount_volumePPKcPP5FATFSh+0x160>
 fff210c:	033487b3          	mul	a5,s1,s3
 fff2110:	00495693          	srli	a3,s2,0x4
 fff2114:	00e686b3          	add	a3,a3,a4
 fff2118:	00f68633          	add	a2,a3,a5
 fff211c:	f2c566e3          	bltu	a0,a2,fff2048 <_ZL12mount_volumePPKcPP5FATFSh+0x160>
 fff2120:	40c506b3          	sub	a3,a0,a2
 fff2124:	0356d5b3          	divu	a1,a3,s5
 fff2128:	f356e0e3          	bltu	a3,s5,fff2048 <_ZL12mount_volumePPKcPP5FATFSh+0x160>
 fff212c:	100006b7          	lui	a3,0x10000
 fff2130:	ff568693          	addi	a3,a3,-11 # ffffff5 <__BSS_END__$+0x728d>
 fff2134:	f0b6eae3          	bltu	a3,a1,fff2048 <_ZL12mount_volumePPKcPP5FATFSh+0x160>
 fff2138:	00ca06b3          	add	a3,s4,a2
 fff213c:	00010637          	lui	a2,0x10
 fff2140:	ff560613          	addi	a2,a2,-11 # fff5 <__stack_size+0xfef5>
 fff2144:	01470733          	add	a4,a4,s4
 fff2148:	00258493          	addi	s1,a1,2
 fff214c:	04b66c63          	bltu	a2,a1,fff21a4 <_ZL12mount_volumePPKcPP5FATFSh+0x2bc>
 fff2150:	00001637          	lui	a2,0x1
 fff2154:	ff560613          	addi	a2,a2,-11 # ff5 <__stack_size+0xef5>
 fff2158:	00942e23          	sw	s1,28(s0)
 fff215c:	03442223          	sw	s4,36(s0)
 fff2160:	02e42423          	sw	a4,40(s0)
 fff2164:	02d42823          	sw	a3,48(s0)
 fff2168:	02b66463          	bltu	a2,a1,fff2190 <_ZL12mount_volumePPKcPP5FATFSh+0x2a8>
 fff216c:	ec090ee3          	beqz	s2,fff2048 <_ZL12mount_volumePPKcPP5FATFSh+0x160>
 fff2170:	00e78533          	add	a0,a5,a4
 fff2174:	00300793          	li	a5,3
 fff2178:	00100913          	li	s2,1
 fff217c:	02f487b3          	mul	a5,s1,a5
 fff2180:	0014f493          	andi	s1,s1,1
 fff2184:	0017d793          	srli	a5,a5,0x1
 fff2188:	009784b3          	add	s1,a5,s1
 fff218c:	0500006f          	j	fff21dc <_ZL12mount_volumePPKcPP5FATFSh+0x2f4>
 fff2190:	ea090ce3          	beqz	s2,fff2048 <_ZL12mount_volumePPKcPP5FATFSh+0x160>
 fff2194:	00e78533          	add	a0,a5,a4
 fff2198:	00149493          	slli	s1,s1,0x1
 fff219c:	00200913          	li	s2,2
 fff21a0:	03c0006f          	j	fff21dc <_ZL12mount_volumePPKcPP5FATFSh+0x2f4>
 fff21a4:	06344783          	lbu	a5,99(s0)
 fff21a8:	02e42423          	sw	a4,40(s0)
 fff21ac:	06244703          	lbu	a4,98(s0)
 fff21b0:	00879793          	slli	a5,a5,0x8
 fff21b4:	00942e23          	sw	s1,28(s0)
 fff21b8:	00e7e7b3          	or	a5,a5,a4
 fff21bc:	03442223          	sw	s4,36(s0)
 fff21c0:	02d42823          	sw	a3,48(s0)
 fff21c4:	00f96933          	or	s2,s2,a5
 fff21c8:	e80910e3          	bnez	s2,fff2048 <_ZL12mount_volumePPKcPP5FATFSh+0x160>
 fff21cc:	06440513          	addi	a0,s0,100
 fff21d0:	e88ff0ef          	jal	ra,fff1858 <_ZL8ld_dwordPKh>
 fff21d4:	00249493          	slli	s1,s1,0x2
 fff21d8:	00300913          	li	s2,3
 fff21dc:	1ff48493          	addi	s1,s1,511
 fff21e0:	02a42623          	sw	a0,44(s0)
 fff21e4:	0094d493          	srli	s1,s1,0x9
 fff21e8:	e699e0e3          	bltu	s3,s1,fff2048 <_ZL12mount_volumePPKcPP5FATFSh+0x160>
 fff21ec:	fff00793          	li	a5,-1
 fff21f0:	00f42a23          	sw	a5,20(s0)
 fff21f4:	00f42823          	sw	a5,16(s0)
 fff21f8:	f8000793          	li	a5,-128
 fff21fc:	00f40223          	sb	a5,4(s0)
 fff2200:	00300793          	li	a5,3
 fff2204:	08f91663          	bne	s2,a5,fff2290 <_ZL12mount_volumePPKcPP5FATFSh+0x3a8>
 fff2208:	06944783          	lbu	a5,105(s0)
 fff220c:	06844703          	lbu	a4,104(s0)
 fff2210:	00879793          	slli	a5,a5,0x8
 fff2214:	00e7e7b3          	or	a5,a5,a4
 fff2218:	00100713          	li	a4,1
 fff221c:	06e79a63          	bne	a5,a4,fff2290 <_ZL12mount_volumePPKcPP5FATFSh+0x3a8>
 fff2220:	001a0593          	addi	a1,s4,1
 fff2224:	00040513          	mv	a0,s0
 fff2228:	8ddff0ef          	jal	ra,fff1b04 <_ZL11move_windowP5FATFSm>
 fff222c:	06051263          	bnez	a0,fff2290 <_ZL12mount_volumePPKcPP5FATFSh+0x3a8>
 fff2230:	23744783          	lbu	a5,567(s0)
 fff2234:	23644703          	lbu	a4,566(s0)
 fff2238:	00040223          	sb	zero,4(s0)
 fff223c:	00879793          	slli	a5,a5,0x8
 fff2240:	00e7e7b3          	or	a5,a5,a4
 fff2244:	0000b737          	lui	a4,0xb
 fff2248:	a5570713          	addi	a4,a4,-1451 # aa55 <__stack_size+0xa955>
 fff224c:	04e79263          	bne	a5,a4,fff2290 <_ZL12mount_volumePPKcPP5FATFSh+0x3a8>
 fff2250:	03840513          	addi	a0,s0,56
 fff2254:	e04ff0ef          	jal	ra,fff1858 <_ZL8ld_dwordPKh>
 fff2258:	416157b7          	lui	a5,0x41615
 fff225c:	25278793          	addi	a5,a5,594 # 41615252 <__BSS_END__$+0x3161c4ea>
 fff2260:	02f51863          	bne	a0,a5,fff2290 <_ZL12mount_volumePPKcPP5FATFSh+0x3a8>
 fff2264:	21c40513          	addi	a0,s0,540
 fff2268:	df0ff0ef          	jal	ra,fff1858 <_ZL8ld_dwordPKh>
 fff226c:	614177b7          	lui	a5,0x61417
 fff2270:	27278793          	addi	a5,a5,626 # 61417272 <__BSS_END__$+0x5141e50a>
 fff2274:	00f51e63          	bne	a0,a5,fff2290 <_ZL12mount_volumePPKcPP5FATFSh+0x3a8>
 fff2278:	22040513          	addi	a0,s0,544
 fff227c:	ddcff0ef          	jal	ra,fff1858 <_ZL8ld_dwordPKh>
 fff2280:	00a42a23          	sw	a0,20(s0)
 fff2284:	22440513          	addi	a0,s0,548
 fff2288:	dd0ff0ef          	jal	ra,fff1858 <_ZL8ld_dwordPKh>
 fff228c:	00a42823          	sw	a0,16(s0)
 fff2290:	00007717          	auipc	a4,0x7
 fff2294:	aa270713          	addi	a4,a4,-1374 # fff8d32 <_ZL4Fsid>
 fff2298:	00075783          	lhu	a5,0(a4)
 fff229c:	01240023          	sb	s2,0(s0)
 fff22a0:	00042c23          	sw	zero,24(s0)
 fff22a4:	00178793          	addi	a5,a5,1
 fff22a8:	01079793          	slli	a5,a5,0x10
 fff22ac:	0107d793          	srli	a5,a5,0x10
 fff22b0:	00f71023          	sh	a5,0(a4)
 fff22b4:	00f41323          	sh	a5,6(s0)
 fff22b8:	00007797          	auipc	a5,0x7
 fff22bc:	87878793          	addi	a5,a5,-1928 # fff8b30 <_ZL6LfnBuf>
 fff22c0:	00f42623          	sw	a5,12(s0)
 fff22c4:	ca5ff06f          	j	fff1f68 <_ZL12mount_volumePPKcPP5FATFSh+0x80>
 fff22c8:	00b00513          	li	a0,11
 fff22cc:	ca1ff06f          	j	fff1f6c <_ZL12mount_volumePPKcPP5FATFSh+0x84>

0fff22d0 <_ZL8ld_clustP5FATFSPKh.isra.0>:
 fff22d0:	01b5c783          	lbu	a5,27(a1)
 fff22d4:	01a5c683          	lbu	a3,26(a1)
 fff22d8:	00050713          	mv	a4,a0
 fff22dc:	00879793          	slli	a5,a5,0x8
 fff22e0:	00d7e533          	or	a0,a5,a3
 fff22e4:	00300793          	li	a5,3
 fff22e8:	00f71e63          	bne	a4,a5,fff2304 <_ZL8ld_clustP5FATFSPKh.isra.0+0x34>
 fff22ec:	0155c783          	lbu	a5,21(a1)
 fff22f0:	0145c703          	lbu	a4,20(a1)
 fff22f4:	00879793          	slli	a5,a5,0x8
 fff22f8:	00e7e7b3          	or	a5,a5,a4
 fff22fc:	01079793          	slli	a5,a5,0x10
 fff2300:	00f56533          	or	a0,a0,a5
 fff2304:	00008067          	ret

0fff2308 <_ZL7get_fatP7FFOBJIDm.isra.0>:
 fff2308:	00100793          	li	a5,1
 fff230c:	14b7f063          	bgeu	a5,a1,fff244c <_ZL7get_fatP7FFOBJIDm.isra.0+0x144>
 fff2310:	01c52703          	lw	a4,28(a0)
 fff2314:	fe010113          	addi	sp,sp,-32
 fff2318:	00812c23          	sw	s0,24(sp)
 fff231c:	00912a23          	sw	s1,20(sp)
 fff2320:	00112e23          	sw	ra,28(sp)
 fff2324:	01212823          	sw	s2,16(sp)
 fff2328:	01312623          	sw	s3,12(sp)
 fff232c:	00050493          	mv	s1,a0
 fff2330:	00058413          	mv	s0,a1
 fff2334:	02e5fe63          	bgeu	a1,a4,fff2370 <_ZL7get_fatP7FFOBJIDm.isra.0+0x68>
 fff2338:	00054703          	lbu	a4,0(a0)
 fff233c:	00200693          	li	a3,2
 fff2340:	0ad70463          	beq	a4,a3,fff23e8 <_ZL7get_fatP7FFOBJIDm.isra.0+0xe0>
 fff2344:	00300693          	li	a3,3
 fff2348:	0cd70a63          	beq	a4,a3,fff241c <_ZL7get_fatP7FFOBJIDm.isra.0+0x114>
 fff234c:	02f71263          	bne	a4,a5,fff2370 <_ZL7get_fatP7FFOBJIDm.isra.0+0x68>
 fff2350:	0015d913          	srli	s2,a1,0x1
 fff2354:	02852783          	lw	a5,40(a0)
 fff2358:	00b90933          	add	s2,s2,a1
 fff235c:	00995593          	srli	a1,s2,0x9
 fff2360:	00f585b3          	add	a1,a1,a5
 fff2364:	fa0ff0ef          	jal	ra,fff1b04 <_ZL11move_windowP5FATFSm>
 fff2368:	02050463          	beqz	a0,fff2390 <_ZL7get_fatP7FFOBJIDm.isra.0+0x88>
 fff236c:	fff00793          	li	a5,-1
 fff2370:	01c12083          	lw	ra,28(sp)
 fff2374:	01812403          	lw	s0,24(sp)
 fff2378:	01412483          	lw	s1,20(sp)
 fff237c:	01012903          	lw	s2,16(sp)
 fff2380:	00c12983          	lw	s3,12(sp)
 fff2384:	00078513          	mv	a0,a5
 fff2388:	02010113          	addi	sp,sp,32
 fff238c:	00008067          	ret
 fff2390:	0284a783          	lw	a5,40(s1)
 fff2394:	00190993          	addi	s3,s2,1
 fff2398:	0099d593          	srli	a1,s3,0x9
 fff239c:	1ff97913          	andi	s2,s2,511
 fff23a0:	01248933          	add	s2,s1,s2
 fff23a4:	00f585b3          	add	a1,a1,a5
 fff23a8:	00048513          	mv	a0,s1
 fff23ac:	03894903          	lbu	s2,56(s2)
 fff23b0:	f54ff0ef          	jal	ra,fff1b04 <_ZL11move_windowP5FATFSm>
 fff23b4:	fa051ce3          	bnez	a0,fff236c <_ZL7get_fatP7FFOBJIDm.isra.0+0x64>
 fff23b8:	1ff9f993          	andi	s3,s3,511
 fff23bc:	013489b3          	add	s3,s1,s3
 fff23c0:	0389c783          	lbu	a5,56(s3)
 fff23c4:	00147413          	andi	s0,s0,1
 fff23c8:	00879793          	slli	a5,a5,0x8
 fff23cc:	0127e7b3          	or	a5,a5,s2
 fff23d0:	00040663          	beqz	s0,fff23dc <_ZL7get_fatP7FFOBJIDm.isra.0+0xd4>
 fff23d4:	0047d793          	srli	a5,a5,0x4
 fff23d8:	f99ff06f          	j	fff2370 <_ZL7get_fatP7FFOBJIDm.isra.0+0x68>
 fff23dc:	01479793          	slli	a5,a5,0x14
 fff23e0:	0147d793          	srli	a5,a5,0x14
 fff23e4:	f8dff06f          	j	fff2370 <_ZL7get_fatP7FFOBJIDm.isra.0+0x68>
 fff23e8:	02852783          	lw	a5,40(a0)
 fff23ec:	0085d593          	srli	a1,a1,0x8
 fff23f0:	00f585b3          	add	a1,a1,a5
 fff23f4:	f10ff0ef          	jal	ra,fff1b04 <_ZL11move_windowP5FATFSm>
 fff23f8:	f6051ae3          	bnez	a0,fff236c <_ZL7get_fatP7FFOBJIDm.isra.0+0x64>
 fff23fc:	00141413          	slli	s0,s0,0x1
 fff2400:	1fe47413          	andi	s0,s0,510
 fff2404:	00848433          	add	s0,s1,s0
 fff2408:	03944783          	lbu	a5,57(s0)
 fff240c:	03844703          	lbu	a4,56(s0)
 fff2410:	00879793          	slli	a5,a5,0x8
 fff2414:	00e7e7b3          	or	a5,a5,a4
 fff2418:	f59ff06f          	j	fff2370 <_ZL7get_fatP7FFOBJIDm.isra.0+0x68>
 fff241c:	02852783          	lw	a5,40(a0)
 fff2420:	0075d593          	srli	a1,a1,0x7
 fff2424:	00f585b3          	add	a1,a1,a5
 fff2428:	edcff0ef          	jal	ra,fff1b04 <_ZL11move_windowP5FATFSm>
 fff242c:	f40510e3          	bnez	a0,fff236c <_ZL7get_fatP7FFOBJIDm.isra.0+0x64>
 fff2430:	00241413          	slli	s0,s0,0x2
 fff2434:	03848513          	addi	a0,s1,56
 fff2438:	1fc47413          	andi	s0,s0,508
 fff243c:	00850533          	add	a0,a0,s0
 fff2440:	c18ff0ef          	jal	ra,fff1858 <_ZL8ld_dwordPKh>
 fff2444:	00451793          	slli	a5,a0,0x4
 fff2448:	f8dff06f          	j	fff23d4 <_ZL7get_fatP7FFOBJIDm.isra.0+0xcc>
 fff244c:	00100793          	li	a5,1
 fff2450:	00078513          	mv	a0,a5
 fff2454:	00008067          	ret

0fff2458 <_ZL12create_chainP7FFOBJIDm>:
 fff2458:	fe010113          	addi	sp,sp,-32
 fff245c:	00912a23          	sw	s1,20(sp)
 fff2460:	01312623          	sw	s3,12(sp)
 fff2464:	01412423          	sw	s4,8(sp)
 fff2468:	00112e23          	sw	ra,28(sp)
 fff246c:	00812c23          	sw	s0,24(sp)
 fff2470:	01212823          	sw	s2,16(sp)
 fff2474:	01512223          	sw	s5,4(sp)
 fff2478:	01612023          	sw	s6,0(sp)
 fff247c:	00052483          	lw	s1,0(a0)
 fff2480:	00050a13          	mv	s4,a0
 fff2484:	00058993          	mv	s3,a1
 fff2488:	08059a63          	bnez	a1,fff251c <_ZL12create_chainP7FFOBJIDm+0xc4>
 fff248c:	0104a903          	lw	s2,16(s1)
 fff2490:	0144a783          	lw	a5,20(s1)
 fff2494:	04090063          	beqz	s2,fff24d4 <_ZL12create_chainP7FFOBJIDm+0x7c>
 fff2498:	01c4a703          	lw	a4,28(s1)
 fff249c:	02e97c63          	bgeu	s2,a4,fff24d4 <_ZL12create_chainP7FFOBJIDm+0x7c>
 fff24a0:	02079e63          	bnez	a5,fff24dc <_ZL12create_chainP7FFOBJIDm+0x84>
 fff24a4:	00000413          	li	s0,0
 fff24a8:	01c12083          	lw	ra,28(sp)
 fff24ac:	00040513          	mv	a0,s0
 fff24b0:	01812403          	lw	s0,24(sp)
 fff24b4:	01412483          	lw	s1,20(sp)
 fff24b8:	01012903          	lw	s2,16(sp)
 fff24bc:	00c12983          	lw	s3,12(sp)
 fff24c0:	00812a03          	lw	s4,8(sp)
 fff24c4:	00412a83          	lw	s5,4(sp)
 fff24c8:	00012b03          	lw	s6,0(sp)
 fff24cc:	02010113          	addi	sp,sp,32
 fff24d0:	00008067          	ret
 fff24d4:	00100913          	li	s2,1
 fff24d8:	fc0786e3          	beqz	a5,fff24a4 <_ZL12create_chainP7FFOBJIDm+0x4c>
 fff24dc:	00090413          	mv	s0,s2
 fff24e0:	00100a93          	li	s5,1
 fff24e4:	fff00b13          	li	s6,-1
 fff24e8:	01c4a783          	lw	a5,28(s1)
 fff24ec:	00140413          	addi	s0,s0,1
 fff24f0:	00f46663          	bltu	s0,a5,fff24fc <_ZL12create_chainP7FFOBJIDm+0xa4>
 fff24f4:	fb5908e3          	beq	s2,s5,fff24a4 <_ZL12create_chainP7FFOBJIDm+0x4c>
 fff24f8:	00200413          	li	s0,2
 fff24fc:	000a2503          	lw	a0,0(s4)
 fff2500:	00040593          	mv	a1,s0
 fff2504:	e05ff0ef          	jal	ra,fff2308 <_ZL7get_fatP7FFOBJIDm.isra.0>
 fff2508:	08050863          	beqz	a0,fff2598 <_ZL12create_chainP7FFOBJIDm+0x140>
 fff250c:	03550263          	beq	a0,s5,fff2530 <_ZL12create_chainP7FFOBJIDm+0xd8>
 fff2510:	0f650063          	beq	a0,s6,fff25f0 <_ZL12create_chainP7FFOBJIDm+0x198>
 fff2514:	fd241ae3          	bne	s0,s2,fff24e8 <_ZL12create_chainP7FFOBJIDm+0x90>
 fff2518:	f8dff06f          	j	fff24a4 <_ZL12create_chainP7FFOBJIDm+0x4c>
 fff251c:	00048513          	mv	a0,s1
 fff2520:	de9ff0ef          	jal	ra,fff2308 <_ZL7get_fatP7FFOBJIDm.isra.0>
 fff2524:	00100793          	li	a5,1
 fff2528:	00050413          	mv	s0,a0
 fff252c:	00a7e663          	bltu	a5,a0,fff2538 <_ZL12create_chainP7FFOBJIDm+0xe0>
 fff2530:	00100413          	li	s0,1
 fff2534:	f75ff06f          	j	fff24a8 <_ZL12create_chainP7FFOBJIDm+0x50>
 fff2538:	fff00793          	li	a5,-1
 fff253c:	0af50a63          	beq	a0,a5,fff25f0 <_ZL12create_chainP7FFOBJIDm+0x198>
 fff2540:	01c4a783          	lw	a5,28(s1)
 fff2544:	f6f562e3          	bltu	a0,a5,fff24a8 <_ZL12create_chainP7FFOBJIDm+0x50>
 fff2548:	0144a703          	lw	a4,20(s1)
 fff254c:	f4070ce3          	beqz	a4,fff24a4 <_ZL12create_chainP7FFOBJIDm+0x4c>
 fff2550:	00198413          	addi	s0,s3,1
 fff2554:	00f46463          	bltu	s0,a5,fff255c <_ZL12create_chainP7FFOBJIDm+0x104>
 fff2558:	00200413          	li	s0,2
 fff255c:	000a2503          	lw	a0,0(s4)
 fff2560:	00040593          	mv	a1,s0
 fff2564:	da5ff0ef          	jal	ra,fff2308 <_ZL7get_fatP7FFOBJIDm.isra.0>
 fff2568:	00100793          	li	a5,1
 fff256c:	fcf502e3          	beq	a0,a5,fff2530 <_ZL12create_chainP7FFOBJIDm+0xd8>
 fff2570:	fff00713          	li	a4,-1
 fff2574:	06e50e63          	beq	a0,a4,fff25f0 <_ZL12create_chainP7FFOBJIDm+0x198>
 fff2578:	00050e63          	beqz	a0,fff2594 <_ZL12create_chainP7FFOBJIDm+0x13c>
 fff257c:	0104a903          	lw	s2,16(s1)
 fff2580:	0127f663          	bgeu	a5,s2,fff258c <_ZL12create_chainP7FFOBJIDm+0x134>
 fff2584:	01c4a783          	lw	a5,28(s1)
 fff2588:	f4f96ae3          	bltu	s2,a5,fff24dc <_ZL12create_chainP7FFOBJIDm+0x84>
 fff258c:	00098913          	mv	s2,s3
 fff2590:	f4dff06f          	j	fff24dc <_ZL12create_chainP7FFOBJIDm+0x84>
 fff2594:	fe040ce3          	beqz	s0,fff258c <_ZL12create_chainP7FFOBJIDm+0x134>
 fff2598:	fff00613          	li	a2,-1
 fff259c:	00040593          	mv	a1,s0
 fff25a0:	00048513          	mv	a0,s1
 fff25a4:	f54ff0ef          	jal	ra,fff1cf8 <_ZL7put_fatP5FATFSmm>
 fff25a8:	04051063          	bnez	a0,fff25e8 <_ZL12create_chainP7FFOBJIDm+0x190>
 fff25ac:	02099463          	bnez	s3,fff25d4 <_ZL12create_chainP7FFOBJIDm+0x17c>
 fff25b0:	01c4a703          	lw	a4,28(s1)
 fff25b4:	0144a783          	lw	a5,20(s1)
 fff25b8:	0084a823          	sw	s0,16(s1)
 fff25bc:	ffe70713          	addi	a4,a4,-2
 fff25c0:	02f77c63          	bgeu	a4,a5,fff25f8 <_ZL12create_chainP7FFOBJIDm+0x1a0>
 fff25c4:	0044c783          	lbu	a5,4(s1)
 fff25c8:	0017e793          	ori	a5,a5,1
 fff25cc:	00f48223          	sb	a5,4(s1)
 fff25d0:	ed9ff06f          	j	fff24a8 <_ZL12create_chainP7FFOBJIDm+0x50>
 fff25d4:	00040613          	mv	a2,s0
 fff25d8:	00098593          	mv	a1,s3
 fff25dc:	00048513          	mv	a0,s1
 fff25e0:	f18ff0ef          	jal	ra,fff1cf8 <_ZL7put_fatP5FATFSmm>
 fff25e4:	fc0506e3          	beqz	a0,fff25b0 <_ZL12create_chainP7FFOBJIDm+0x158>
 fff25e8:	00100793          	li	a5,1
 fff25ec:	f4f512e3          	bne	a0,a5,fff2530 <_ZL12create_chainP7FFOBJIDm+0xd8>
 fff25f0:	fff00413          	li	s0,-1
 fff25f4:	eb5ff06f          	j	fff24a8 <_ZL12create_chainP7FFOBJIDm+0x50>
 fff25f8:	fff78793          	addi	a5,a5,-1
 fff25fc:	00f4aa23          	sw	a5,20(s1)
 fff2600:	fc5ff06f          	j	fff25c4 <_ZL12create_chainP7FFOBJIDm+0x16c>

0fff2604 <_ZL8dir_nextP3DIRi>:
 fff2604:	fd010113          	addi	sp,sp,-48
 fff2608:	01412c23          	sw	s4,24(sp)
 fff260c:	01052a03          	lw	s4,16(a0)
 fff2610:	02812423          	sw	s0,40(sp)
 fff2614:	02912223          	sw	s1,36(sp)
 fff2618:	01312e23          	sw	s3,28(sp)
 fff261c:	02112623          	sw	ra,44(sp)
 fff2620:	03212023          	sw	s2,32(sp)
 fff2624:	01512a23          	sw	s5,20(sp)
 fff2628:	01612823          	sw	s6,16(sp)
 fff262c:	01712623          	sw	s7,12(sp)
 fff2630:	020a0a13          	addi	s4,s4,32
 fff2634:	002007b7          	lui	a5,0x200
 fff2638:	00052403          	lw	s0,0(a0)
 fff263c:	00050493          	mv	s1,a0
 fff2640:	00058993          	mv	s3,a1
 fff2644:	00fa6463          	bltu	s4,a5,fff264c <_ZL8dir_nextP3DIRi+0x48>
 fff2648:	00052c23          	sw	zero,24(a0)
 fff264c:	0184a783          	lw	a5,24(s1)
 fff2650:	02078663          	beqz	a5,fff267c <_ZL8dir_nextP3DIRi+0x78>
 fff2654:	1ffa7a93          	andi	s5,s4,511
 fff2658:	140a9063          	bnez	s5,fff2798 <_ZL8dir_nextP3DIRi+0x194>
 fff265c:	0144a583          	lw	a1,20(s1)
 fff2660:	00178793          	addi	a5,a5,1 # 200001 <__stack_size+0x1fff01>
 fff2664:	00f4ac23          	sw	a5,24(s1)
 fff2668:	04059263          	bnez	a1,fff26ac <_ZL8dir_nextP3DIRi+0xa8>
 fff266c:	00845703          	lhu	a4,8(s0)
 fff2670:	005a5793          	srli	a5,s4,0x5
 fff2674:	12e7e263          	bltu	a5,a4,fff2798 <_ZL8dir_nextP3DIRi+0x194>
 fff2678:	0004ac23          	sw	zero,24(s1)
 fff267c:	00400513          	li	a0,4
 fff2680:	02c12083          	lw	ra,44(sp)
 fff2684:	02812403          	lw	s0,40(sp)
 fff2688:	02412483          	lw	s1,36(sp)
 fff268c:	02012903          	lw	s2,32(sp)
 fff2690:	01c12983          	lw	s3,28(sp)
 fff2694:	01812a03          	lw	s4,24(sp)
 fff2698:	01412a83          	lw	s5,20(sp)
 fff269c:	01012b03          	lw	s6,16(sp)
 fff26a0:	00c12b83          	lw	s7,12(sp)
 fff26a4:	03010113          	addi	sp,sp,48
 fff26a8:	00008067          	ret
 fff26ac:	00a45783          	lhu	a5,10(s0)
 fff26b0:	009a5713          	srli	a4,s4,0x9
 fff26b4:	fff78793          	addi	a5,a5,-1
 fff26b8:	00e7f7b3          	and	a5,a5,a4
 fff26bc:	0c079e63          	bnez	a5,fff2798 <_ZL8dir_nextP3DIRi+0x194>
 fff26c0:	00040513          	mv	a0,s0
 fff26c4:	c45ff0ef          	jal	ra,fff2308 <_ZL7get_fatP7FFOBJIDm.isra.0>
 fff26c8:	00100b13          	li	s6,1
 fff26cc:	00050913          	mv	s2,a0
 fff26d0:	00ab6663          	bltu	s6,a0,fff26dc <_ZL8dir_nextP3DIRi+0xd8>
 fff26d4:	00200513          	li	a0,2
 fff26d8:	fa9ff06f          	j	fff2680 <_ZL8dir_nextP3DIRi+0x7c>
 fff26dc:	fff00793          	li	a5,-1
 fff26e0:	00f51663          	bne	a0,a5,fff26ec <_ZL8dir_nextP3DIRi+0xe8>
 fff26e4:	00100513          	li	a0,1
 fff26e8:	f99ff06f          	j	fff2680 <_ZL8dir_nextP3DIRi+0x7c>
 fff26ec:	01c42783          	lw	a5,28(s0)
 fff26f0:	08f56a63          	bltu	a0,a5,fff2784 <_ZL8dir_nextP3DIRi+0x180>
 fff26f4:	f80982e3          	beqz	s3,fff2678 <_ZL8dir_nextP3DIRi+0x74>
 fff26f8:	0144a583          	lw	a1,20(s1)
 fff26fc:	00048513          	mv	a0,s1
 fff2700:	d59ff0ef          	jal	ra,fff2458 <_ZL12create_chainP7FFOBJIDm>
 fff2704:	00050913          	mv	s2,a0
 fff2708:	00700513          	li	a0,7
 fff270c:	f6090ae3          	beqz	s2,fff2680 <_ZL8dir_nextP3DIRi+0x7c>
 fff2710:	fd6902e3          	beq	s2,s6,fff26d4 <_ZL8dir_nextP3DIRi+0xd0>
 fff2714:	fff00793          	li	a5,-1
 fff2718:	fcf906e3          	beq	s2,a5,fff26e4 <_ZL8dir_nextP3DIRi+0xe0>
 fff271c:	00040513          	mv	a0,s0
 fff2720:	b50ff0ef          	jal	ra,fff1a70 <_ZL11sync_windowP5FATFS>
 fff2724:	00050993          	mv	s3,a0
 fff2728:	fa051ee3          	bnez	a0,fff26e4 <_ZL8dir_nextP3DIRi+0xe0>
 fff272c:	00090593          	mv	a1,s2
 fff2730:	00040513          	mv	a0,s0
 fff2734:	950ff0ef          	jal	ra,fff1884 <_ZL9clst2sectP5FATFSm>
 fff2738:	03840b93          	addi	s7,s0,56
 fff273c:	00050b13          	mv	s6,a0
 fff2740:	02a42a23          	sw	a0,52(s0)
 fff2744:	20000613          	li	a2,512
 fff2748:	00000593          	li	a1,0
 fff274c:	000b8513          	mv	a0,s7
 fff2750:	911fd0ef          	jal	ra,fff0060 <memset>
 fff2754:	00a45783          	lhu	a5,10(s0)
 fff2758:	02f9f263          	bgeu	s3,a5,fff277c <_ZL8dir_nextP3DIRi+0x178>
 fff275c:	00144503          	lbu	a0,1(s0)
 fff2760:	00100693          	li	a3,1
 fff2764:	013b0633          	add	a2,s6,s3
 fff2768:	000b8593          	mv	a1,s7
 fff276c:	351010ef          	jal	ra,fff42bc <disk_write>
 fff2770:	00051663          	bnez	a0,fff277c <_ZL8dir_nextP3DIRi+0x178>
 fff2774:	00198993          	addi	s3,s3,1
 fff2778:	fddff06f          	j	fff2754 <_ZL8dir_nextP3DIRi+0x150>
 fff277c:	00a45783          	lhu	a5,10(s0)
 fff2780:	f6f992e3          	bne	s3,a5,fff26e4 <_ZL8dir_nextP3DIRi+0xe0>
 fff2784:	0124aa23          	sw	s2,20(s1)
 fff2788:	00090593          	mv	a1,s2
 fff278c:	00040513          	mv	a0,s0
 fff2790:	8f4ff0ef          	jal	ra,fff1884 <_ZL9clst2sectP5FATFSm>
 fff2794:	00a4ac23          	sw	a0,24(s1)
 fff2798:	03840413          	addi	s0,s0,56
 fff279c:	01540433          	add	s0,s0,s5
 fff27a0:	0144a823          	sw	s4,16(s1)
 fff27a4:	0084ae23          	sw	s0,28(s1)
 fff27a8:	00000513          	li	a0,0
 fff27ac:	ed5ff06f          	j	fff2680 <_ZL8dir_nextP3DIRi+0x7c>

0fff27b0 <_ZL7dir_sdiP3DIRm>:
 fff27b0:	fd010113          	addi	sp,sp,-48
 fff27b4:	02912223          	sw	s1,36(sp)
 fff27b8:	02112623          	sw	ra,44(sp)
 fff27bc:	02812423          	sw	s0,40(sp)
 fff27c0:	03212023          	sw	s2,32(sp)
 fff27c4:	01312e23          	sw	s3,28(sp)
 fff27c8:	01412c23          	sw	s4,24(sp)
 fff27cc:	01512a23          	sw	s5,20(sp)
 fff27d0:	01612823          	sw	s6,16(sp)
 fff27d4:	002007b7          	lui	a5,0x200
 fff27d8:	00052483          	lw	s1,0(a0)
 fff27dc:	02f5ea63          	bltu	a1,a5,fff2810 <_ZL7dir_sdiP3DIRm+0x60>
 fff27e0:	00200993          	li	s3,2
 fff27e4:	02c12083          	lw	ra,44(sp)
 fff27e8:	02812403          	lw	s0,40(sp)
 fff27ec:	02412483          	lw	s1,36(sp)
 fff27f0:	02012903          	lw	s2,32(sp)
 fff27f4:	01812a03          	lw	s4,24(sp)
 fff27f8:	01412a83          	lw	s5,20(sp)
 fff27fc:	01012b03          	lw	s6,16(sp)
 fff2800:	00098513          	mv	a0,s3
 fff2804:	01c12983          	lw	s3,28(sp)
 fff2808:	03010113          	addi	sp,sp,48
 fff280c:	00008067          	ret
 fff2810:	01f5f993          	andi	s3,a1,31
 fff2814:	00058413          	mv	s0,a1
 fff2818:	fc0994e3          	bnez	s3,fff27e0 <_ZL7dir_sdiP3DIRm+0x30>
 fff281c:	00b52823          	sw	a1,16(a0)
 fff2820:	00852583          	lw	a1,8(a0)
 fff2824:	00050913          	mv	s2,a0
 fff2828:	04059a63          	bnez	a1,fff287c <_ZL7dir_sdiP3DIRm+0xcc>
 fff282c:	0004c703          	lbu	a4,0(s1)
 fff2830:	00200793          	li	a5,2
 fff2834:	00e7f663          	bgeu	a5,a4,fff2840 <_ZL7dir_sdiP3DIRm+0x90>
 fff2838:	02c4a783          	lw	a5,44(s1)
 fff283c:	04079263          	bnez	a5,fff2880 <_ZL7dir_sdiP3DIRm+0xd0>
 fff2840:	0084d703          	lhu	a4,8(s1)
 fff2844:	00545793          	srli	a5,s0,0x5
 fff2848:	f8e7fce3          	bgeu	a5,a4,fff27e0 <_ZL7dir_sdiP3DIRm+0x30>
 fff284c:	02c4a503          	lw	a0,44(s1)
 fff2850:	00a92c23          	sw	a0,24(s2)
 fff2854:	00b92a23          	sw	a1,20(s2)
 fff2858:	f80504e3          	beqz	a0,fff27e0 <_ZL7dir_sdiP3DIRm+0x30>
 fff285c:	00945793          	srli	a5,s0,0x9
 fff2860:	03848493          	addi	s1,s1,56
 fff2864:	1ff47413          	andi	s0,s0,511
 fff2868:	00a787b3          	add	a5,a5,a0
 fff286c:	008484b3          	add	s1,s1,s0
 fff2870:	00f92c23          	sw	a5,24(s2)
 fff2874:	00992e23          	sw	s1,28(s2)
 fff2878:	f6dff06f          	j	fff27e4 <_ZL7dir_sdiP3DIRm+0x34>
 fff287c:	00058793          	mv	a5,a1
 fff2880:	00a4da03          	lhu	s4,10(s1)
 fff2884:	00078593          	mv	a1,a5
 fff2888:	fff00a93          	li	s5,-1
 fff288c:	009a1a13          	slli	s4,s4,0x9
 fff2890:	00100b13          	li	s6,1
 fff2894:	01447c63          	bgeu	s0,s4,fff28ac <_ZL7dir_sdiP3DIRm+0xfc>
 fff2898:	00048513          	mv	a0,s1
 fff289c:	00b12623          	sw	a1,12(sp)
 fff28a0:	fe5fe0ef          	jal	ra,fff1884 <_ZL9clst2sectP5FATFSm>
 fff28a4:	00c12583          	lw	a1,12(sp)
 fff28a8:	fa9ff06f          	j	fff2850 <_ZL7dir_sdiP3DIRm+0xa0>
 fff28ac:	00092503          	lw	a0,0(s2)
 fff28b0:	a59ff0ef          	jal	ra,fff2308 <_ZL7get_fatP7FFOBJIDm.isra.0>
 fff28b4:	00050593          	mv	a1,a0
 fff28b8:	01550c63          	beq	a0,s5,fff28d0 <_ZL7dir_sdiP3DIRm+0x120>
 fff28bc:	f2ab72e3          	bgeu	s6,a0,fff27e0 <_ZL7dir_sdiP3DIRm+0x30>
 fff28c0:	01c4a783          	lw	a5,28(s1)
 fff28c4:	f0f57ee3          	bgeu	a0,a5,fff27e0 <_ZL7dir_sdiP3DIRm+0x30>
 fff28c8:	41440433          	sub	s0,s0,s4
 fff28cc:	fc9ff06f          	j	fff2894 <_ZL7dir_sdiP3DIRm+0xe4>
 fff28d0:	00100993          	li	s3,1
 fff28d4:	f11ff06f          	j	fff27e4 <_ZL7dir_sdiP3DIRm+0x34>

0fff28d8 <_ZL8dir_findP3DIR>:
 fff28d8:	fb010113          	addi	sp,sp,-80
 fff28dc:	00000593          	li	a1,0
 fff28e0:	04812423          	sw	s0,72(sp)
 fff28e4:	03412c23          	sw	s4,56(sp)
 fff28e8:	03912223          	sw	s9,36(sp)
 fff28ec:	00052a03          	lw	s4,0(a0)
 fff28f0:	04112623          	sw	ra,76(sp)
 fff28f4:	04912223          	sw	s1,68(sp)
 fff28f8:	05212023          	sw	s2,64(sp)
 fff28fc:	03312e23          	sw	s3,60(sp)
 fff2900:	03512a23          	sw	s5,52(sp)
 fff2904:	03612823          	sw	s6,48(sp)
 fff2908:	03712623          	sw	s7,44(sp)
 fff290c:	03812423          	sw	s8,40(sp)
 fff2910:	03a12023          	sw	s10,32(sp)
 fff2914:	01b12e23          	sw	s11,28(sp)
 fff2918:	00050c93          	mv	s9,a0
 fff291c:	e95ff0ef          	jal	ra,fff27b0 <_ZL7dir_sdiP3DIRm>
 fff2920:	00050413          	mv	s0,a0
 fff2924:	1e051063          	bnez	a0,fff2b04 <_ZL8dir_findP3DIR+0x22c>
 fff2928:	fff00793          	li	a5,-1
 fff292c:	02fca623          	sw	a5,44(s9)
 fff2930:	0ff00993          	li	s3,255
 fff2934:	0ff00493          	li	s1,255
 fff2938:	0e500b93          	li	s7,229
 fff293c:	fff00a93          	li	s5,-1
 fff2940:	00f00b13          	li	s6,15
 fff2944:	018ca583          	lw	a1,24(s9)
 fff2948:	000a0513          	mv	a0,s4
 fff294c:	9b8ff0ef          	jal	ra,fff1b04 <_ZL11move_windowP5FATFSm>
 fff2950:	00050413          	mv	s0,a0
 fff2954:	1a051863          	bnez	a0,fff2b04 <_ZL8dir_findP3DIR+0x22c>
 fff2958:	01ccad03          	lw	s10,28(s9)
 fff295c:	000d4d83          	lbu	s11,0(s10)
 fff2960:	1e0d8263          	beqz	s11,fff2b44 <_ZL8dir_findP3DIR+0x26c>
 fff2964:	00bd4783          	lbu	a5,11(s10)
 fff2968:	03f7f713          	andi	a4,a5,63
 fff296c:	00ec8323          	sb	a4,6(s9)
 fff2970:	017d8863          	beq	s11,s7,fff2980 <_ZL8dir_findP3DIR+0xa8>
 fff2974:	0087f793          	andi	a5,a5,8
 fff2978:	00078863          	beqz	a5,fff2988 <_ZL8dir_findP3DIR+0xb0>
 fff297c:	01670863          	beq	a4,s6,fff298c <_ZL8dir_findP3DIR+0xb4>
 fff2980:	035ca623          	sw	s5,44(s9)
 fff2984:	1400006f          	j	fff2ac4 <_ZL8dir_findP3DIR+0x1ec>
 fff2988:	15671663          	bne	a4,s6,fff2ad4 <_ZL8dir_findP3DIR+0x1fc>
 fff298c:	02bcc783          	lbu	a5,43(s9)
 fff2990:	0407f793          	andi	a5,a5,64
 fff2994:	10079a63          	bnez	a5,fff2aa8 <_ZL8dir_findP3DIR+0x1d0>
 fff2998:	040df793          	andi	a5,s11,64
 fff299c:	12078263          	beqz	a5,fff2ac0 <_ZL8dir_findP3DIR+0x1e8>
 fff29a0:	010ca783          	lw	a5,16(s9)
 fff29a4:	00dd4983          	lbu	s3,13(s10)
 fff29a8:	0bfdfd93          	andi	s11,s11,191
 fff29ac:	02fca623          	sw	a5,44(s9)
 fff29b0:	00dd4783          	lbu	a5,13(s10)
 fff29b4:	0ff00493          	li	s1,255
 fff29b8:	0f379863          	bne	a5,s3,fff2aa8 <_ZL8dir_findP3DIR+0x1d0>
 fff29bc:	01bd4783          	lbu	a5,27(s10)
 fff29c0:	01ad4703          	lbu	a4,26(s10)
 fff29c4:	00879793          	slli	a5,a5,0x8
 fff29c8:	00e7e7b3          	or	a5,a5,a4
 fff29cc:	0e079c63          	bnez	a5,fff2ac4 <_ZL8dir_findP3DIR+0x1ec>
 fff29d0:	000d4483          	lbu	s1,0(s10)
 fff29d4:	00d00793          	li	a5,13
 fff29d8:	00ca2c03          	lw	s8,12(s4)
 fff29dc:	03f4f493          	andi	s1,s1,63
 fff29e0:	fff48493          	addi	s1,s1,-1
 fff29e4:	02f484b3          	mul	s1,s1,a5
 fff29e8:	000106b7          	lui	a3,0x10
 fff29ec:	00100713          	li	a4,1
 fff29f0:	00003597          	auipc	a1,0x3
 fff29f4:	48c58593          	addi	a1,a1,1164 # fff5e7c <_ZL6LfnOfs>
 fff29f8:	fff68693          	addi	a3,a3,-1 # ffff <__stack_size+0xfeff>
 fff29fc:	0ff00813          	li	a6,255
 fff2a00:	00d00613          	li	a2,13
 fff2a04:	00b407b3          	add	a5,s0,a1
 fff2a08:	0007c783          	lbu	a5,0(a5) # 200000 <__stack_size+0x1fff00>
 fff2a0c:	00fd07b3          	add	a5,s10,a5
 fff2a10:	0017c903          	lbu	s2,1(a5)
 fff2a14:	0007c503          	lbu	a0,0(a5)
 fff2a18:	00891913          	slli	s2,s2,0x8
 fff2a1c:	00a96933          	or	s2,s2,a0
 fff2a20:	0a070663          	beqz	a4,fff2acc <_ZL8dir_findP3DIR+0x1f4>
 fff2a24:	0a986063          	bltu	a6,s1,fff2ac4 <_ZL8dir_findP3DIR+0x1ec>
 fff2a28:	00090513          	mv	a0,s2
 fff2a2c:	724010ef          	jal	ra,fff4150 <ff_wtoupper>
 fff2a30:	00148893          	addi	a7,s1,1
 fff2a34:	00149493          	slli	s1,s1,0x1
 fff2a38:	009c04b3          	add	s1,s8,s1
 fff2a3c:	00a12623          	sw	a0,12(sp)
 fff2a40:	0004d503          	lhu	a0,0(s1)
 fff2a44:	01112423          	sw	a7,8(sp)
 fff2a48:	708010ef          	jal	ra,fff4150 <ff_wtoupper>
 fff2a4c:	00c12783          	lw	a5,12(sp)
 fff2a50:	06a79a63          	bne	a5,a0,fff2ac4 <_ZL8dir_findP3DIR+0x1ec>
 fff2a54:	00812883          	lw	a7,8(sp)
 fff2a58:	000107b7          	lui	a5,0x10
 fff2a5c:	00090713          	mv	a4,s2
 fff2a60:	00088493          	mv	s1,a7
 fff2a64:	0ff00813          	li	a6,255
 fff2a68:	00003597          	auipc	a1,0x3
 fff2a6c:	41458593          	addi	a1,a1,1044 # fff5e7c <_ZL6LfnOfs>
 fff2a70:	fff78693          	addi	a3,a5,-1 # ffff <__stack_size+0xfeff>
 fff2a74:	00d00613          	li	a2,13
 fff2a78:	00140413          	addi	s0,s0,1
 fff2a7c:	f8c414e3          	bne	s0,a2,fff2a04 <_ZL8dir_findP3DIR+0x12c>
 fff2a80:	000d4783          	lbu	a5,0(s10)
 fff2a84:	0407f793          	andi	a5,a5,64
 fff2a88:	00078c63          	beqz	a5,fff2aa0 <_ZL8dir_findP3DIR+0x1c8>
 fff2a8c:	00070a63          	beqz	a4,fff2aa0 <_ZL8dir_findP3DIR+0x1c8>
 fff2a90:	00149493          	slli	s1,s1,0x1
 fff2a94:	009c0c33          	add	s8,s8,s1
 fff2a98:	000c5783          	lhu	a5,0(s8)
 fff2a9c:	02079463          	bnez	a5,fff2ac4 <_ZL8dir_findP3DIR+0x1ec>
 fff2aa0:	fffd8793          	addi	a5,s11,-1
 fff2aa4:	0ff7f493          	zext.b	s1,a5
 fff2aa8:	00000593          	li	a1,0
 fff2aac:	000c8513          	mv	a0,s9
 fff2ab0:	b55ff0ef          	jal	ra,fff2604 <_ZL8dir_nextP3DIRi>
 fff2ab4:	00050413          	mv	s0,a0
 fff2ab8:	e80506e3          	beqz	a0,fff2944 <_ZL8dir_findP3DIR+0x6c>
 fff2abc:	0480006f          	j	fff2b04 <_ZL8dir_findP3DIR+0x22c>
 fff2ac0:	efb488e3          	beq	s1,s11,fff29b0 <_ZL8dir_findP3DIR+0xd8>
 fff2ac4:	0ff00493          	li	s1,255
 fff2ac8:	fe1ff06f          	j	fff2aa8 <_ZL8dir_findP3DIR+0x1d0>
 fff2acc:	fad906e3          	beq	s2,a3,fff2a78 <_ZL8dir_findP3DIR+0x1a0>
 fff2ad0:	ff5ff06f          	j	fff2ac4 <_ZL8dir_findP3DIR+0x1ec>
 fff2ad4:	00049863          	bnez	s1,fff2ae4 <_ZL8dir_findP3DIR+0x20c>
 fff2ad8:	000d0513          	mv	a0,s10
 fff2adc:	e11fe0ef          	jal	ra,fff18ec <_ZL7sum_sfnPKh>
 fff2ae0:	03350263          	beq	a0,s3,fff2b04 <_ZL8dir_findP3DIR+0x22c>
 fff2ae4:	02bcc783          	lbu	a5,43(s9)
 fff2ae8:	0017f793          	andi	a5,a5,1
 fff2aec:	e8079ae3          	bnez	a5,fff2980 <_ZL8dir_findP3DIR+0xa8>
 fff2af0:	00b00613          	li	a2,11
 fff2af4:	020c8593          	addi	a1,s9,32
 fff2af8:	000d0513          	mv	a0,s10
 fff2afc:	0d4020ef          	jal	ra,fff4bd0 <memcmp>
 fff2b00:	e80510e3          	bnez	a0,fff2980 <_ZL8dir_findP3DIR+0xa8>
 fff2b04:	04c12083          	lw	ra,76(sp)
 fff2b08:	00040513          	mv	a0,s0
 fff2b0c:	04812403          	lw	s0,72(sp)
 fff2b10:	04412483          	lw	s1,68(sp)
 fff2b14:	04012903          	lw	s2,64(sp)
 fff2b18:	03c12983          	lw	s3,60(sp)
 fff2b1c:	03812a03          	lw	s4,56(sp)
 fff2b20:	03412a83          	lw	s5,52(sp)
 fff2b24:	03012b03          	lw	s6,48(sp)
 fff2b28:	02c12b83          	lw	s7,44(sp)
 fff2b2c:	02812c03          	lw	s8,40(sp)
 fff2b30:	02412c83          	lw	s9,36(sp)
 fff2b34:	02012d03          	lw	s10,32(sp)
 fff2b38:	01c12d83          	lw	s11,28(sp)
 fff2b3c:	05010113          	addi	sp,sp,80
 fff2b40:	00008067          	ret
 fff2b44:	00400413          	li	s0,4
 fff2b48:	fbdff06f          	j	fff2b04 <_ZL8dir_findP3DIR+0x22c>

0fff2b4c <_ZL11follow_pathP3DIRPKc>:
 fff2b4c:	fb010113          	addi	sp,sp,-80
 fff2b50:	05212023          	sw	s2,64(sp)
 fff2b54:	03312e23          	sw	s3,60(sp)
 fff2b58:	03412c23          	sw	s4,56(sp)
 fff2b5c:	04112623          	sw	ra,76(sp)
 fff2b60:	04812423          	sw	s0,72(sp)
 fff2b64:	04912223          	sw	s1,68(sp)
 fff2b68:	03512a23          	sw	s5,52(sp)
 fff2b6c:	03612823          	sw	s6,48(sp)
 fff2b70:	03712623          	sw	s7,44(sp)
 fff2b74:	03812423          	sw	s8,40(sp)
 fff2b78:	03912223          	sw	s9,36(sp)
 fff2b7c:	03a12023          	sw	s10,32(sp)
 fff2b80:	01b12e23          	sw	s11,28(sp)
 fff2b84:	0005c783          	lbu	a5,0(a1)
 fff2b88:	02f00713          	li	a4,47
 fff2b8c:	00052a03          	lw	s4,0(a0)
 fff2b90:	00050913          	mv	s2,a0
 fff2b94:	00058993          	mv	s3,a1
 fff2b98:	08e78c63          	beq	a5,a4,fff2c30 <_ZL11follow_pathP3DIRPKc+0xe4>
 fff2b9c:	05c00713          	li	a4,92
 fff2ba0:	08e78863          	beq	a5,a4,fff2c30 <_ZL11follow_pathP3DIRPKc+0xe4>
 fff2ba4:	018a2783          	lw	a5,24(s4)
 fff2ba8:	00f92423          	sw	a5,8(s2)
 fff2bac:	0009c703          	lbu	a4,0(s3)
 fff2bb0:	01f00793          	li	a5,31
 fff2bb4:	08e7f463          	bgeu	a5,a4,fff2c3c <_ZL11follow_pathP3DIRPKc+0xf0>
 fff2bb8:	02090793          	addi	a5,s2,32
 fff2bbc:	00f12623          	sw	a5,12(sp)
 fff2bc0:	00092783          	lw	a5,0(s2)
 fff2bc4:	00000b13          	li	s6,0
 fff2bc8:	07f00413          	li	s0,127
 fff2bcc:	00c7aa83          	lw	s5,12(a5)
 fff2bd0:	0ff00493          	li	s1,255
 fff2bd4:	0009c503          	lbu	a0,0(s3)
 fff2bd8:	00198993          	addi	s3,s3,1
 fff2bdc:	1a050e63          	beqz	a0,fff2d98 <_ZL11follow_pathP3DIRPKc+0x24c>
 fff2be0:	1b500593          	li	a1,437
 fff2be4:	534010ef          	jal	ra,fff4118 <ff_oem2uni>
 fff2be8:	00050d13          	mv	s10,a0
 fff2bec:	02050263          	beqz	a0,fff2c10 <_ZL11follow_pathP3DIRPKc+0xc4>
 fff2bf0:	01f00793          	li	a5,31
 fff2bf4:	1aa7f263          	bgeu	a5,a0,fff2d98 <_ZL11follow_pathP3DIRPKc+0x24c>
 fff2bf8:	02f00793          	li	a5,47
 fff2bfc:	18f50863          	beq	a0,a5,fff2d8c <_ZL11follow_pathP3DIRPKc+0x240>
 fff2c00:	05c00793          	li	a5,92
 fff2c04:	18f50463          	beq	a0,a5,fff2d8c <_ZL11follow_pathP3DIRPKc+0x240>
 fff2c08:	08a47063          	bgeu	s0,a0,fff2c88 <_ZL11follow_pathP3DIRPKc+0x13c>
 fff2c0c:	089b1a63          	bne	s6,s1,fff2ca0 <_ZL11follow_pathP3DIRPKc+0x154>
 fff2c10:	00600513          	li	a0,6
 fff2c14:	13c0006f          	j	fff2d50 <_ZL11follow_pathP3DIRPKc+0x204>
 fff2c18:	00198993          	addi	s3,s3,1
 fff2c1c:	0009c783          	lbu	a5,0(s3)
 fff2c20:	fed78ce3          	beq	a5,a3,fff2c18 <_ZL11follow_pathP3DIRPKc+0xcc>
 fff2c24:	fee78ae3          	beq	a5,a4,fff2c18 <_ZL11follow_pathP3DIRPKc+0xcc>
 fff2c28:	00000793          	li	a5,0
 fff2c2c:	f7dff06f          	j	fff2ba8 <_ZL11follow_pathP3DIRPKc+0x5c>
 fff2c30:	02f00693          	li	a3,47
 fff2c34:	05c00713          	li	a4,92
 fff2c38:	fe5ff06f          	j	fff2c1c <_ZL11follow_pathP3DIRPKc+0xd0>
 fff2c3c:	f8000793          	li	a5,-128
 fff2c40:	02f905a3          	sb	a5,43(s2)
 fff2c44:	04812403          	lw	s0,72(sp)
 fff2c48:	04c12083          	lw	ra,76(sp)
 fff2c4c:	04412483          	lw	s1,68(sp)
 fff2c50:	03c12983          	lw	s3,60(sp)
 fff2c54:	03812a03          	lw	s4,56(sp)
 fff2c58:	03412a83          	lw	s5,52(sp)
 fff2c5c:	03012b03          	lw	s6,48(sp)
 fff2c60:	02c12b83          	lw	s7,44(sp)
 fff2c64:	02812c03          	lw	s8,40(sp)
 fff2c68:	02412c83          	lw	s9,36(sp)
 fff2c6c:	02012d03          	lw	s10,32(sp)
 fff2c70:	01c12d83          	lw	s11,28(sp)
 fff2c74:	00090513          	mv	a0,s2
 fff2c78:	04012903          	lw	s2,64(sp)
 fff2c7c:	00000593          	li	a1,0
 fff2c80:	05010113          	addi	sp,sp,80
 fff2c84:	b2dff06f          	j	fff27b0 <_ZL7dir_sdiP3DIRm>
 fff2c88:	00050593          	mv	a1,a0
 fff2c8c:	00003517          	auipc	a0,0x3
 fff2c90:	15c50513          	addi	a0,a0,348 # fff5de8 <_free_r+0xbc8>
 fff2c94:	1c0020ef          	jal	ra,fff4e54 <strchr>
 fff2c98:	f6050ae3          	beqz	a0,fff2c0c <_ZL11follow_pathP3DIRPKc+0xc0>
 fff2c9c:	f75ff06f          	j	fff2c10 <_ZL11follow_pathP3DIRPKc+0xc4>
 fff2ca0:	001b1713          	slli	a4,s6,0x1
 fff2ca4:	00ea8733          	add	a4,s5,a4
 fff2ca8:	01a71023          	sh	s10,0(a4)
 fff2cac:	001b0b13          	addi	s6,s6,1
 fff2cb0:	f25ff06f          	j	fff2bd4 <_ZL11follow_pathP3DIRPKc+0x88>
 fff2cb4:	00198993          	addi	s3,s3,1
 fff2cb8:	0009c403          	lbu	s0,0(s3)
 fff2cbc:	fec40ce3          	beq	s0,a2,fff2cb4 <_ZL11follow_pathP3DIRPKc+0x168>
 fff2cc0:	fee40ae3          	beq	s0,a4,fff2cb4 <_ZL11follow_pathP3DIRPKc+0x168>
 fff2cc4:	02043413          	sltiu	s0,s0,32
 fff2cc8:	00241413          	slli	s0,s0,0x2
 fff2ccc:	00100713          	li	a4,1
 fff2cd0:	0ceb1863          	bne	s6,a4,fff2da0 <_ZL11follow_pathP3DIRPKc+0x254>
 fff2cd4:	000ad603          	lhu	a2,0(s5)
 fff2cd8:	02e00713          	li	a4,46
 fff2cdc:	1ae61663          	bne	a2,a4,fff2e88 <_ZL11follow_pathP3DIRPKc+0x33c>
 fff2ce0:	001b1713          	slli	a4,s6,0x1
 fff2ce4:	00ea8733          	add	a4,s5,a4
 fff2ce8:	00071023          	sh	zero,0(a4)
 fff2cec:	00b00613          	li	a2,11
 fff2cf0:	00000713          	li	a4,0
 fff2cf4:	02e00693          	li	a3,46
 fff2cf8:	01676463          	bltu	a4,s6,fff2d00 <_ZL11follow_pathP3DIRPKc+0x1b4>
 fff2cfc:	02000693          	li	a3,32
 fff2d00:	00e905b3          	add	a1,s2,a4
 fff2d04:	02d58023          	sb	a3,32(a1)
 fff2d08:	00170713          	addi	a4,a4,1
 fff2d0c:	fec714e3          	bne	a4,a2,fff2cf4 <_ZL11follow_pathP3DIRPKc+0x1a8>
 fff2d10:	02046413          	ori	s0,s0,32
 fff2d14:	0ff47413          	zext.b	s0,s0
 fff2d18:	028905a3          	sb	s0,43(s2)
 fff2d1c:	00090513          	mv	a0,s2
 fff2d20:	bb9ff0ef          	jal	ra,fff28d8 <_ZL8dir_findP3DIR>
 fff2d24:	02b94783          	lbu	a5,43(s2)
 fff2d28:	32050a63          	beqz	a0,fff305c <_ZL11follow_pathP3DIRPKc+0x510>
 fff2d2c:	00400713          	li	a4,4
 fff2d30:	02e51063          	bne	a0,a4,fff2d50 <_ZL11follow_pathP3DIRPKc+0x204>
 fff2d34:	0047f713          	andi	a4,a5,4
 fff2d38:	0207f793          	andi	a5,a5,32
 fff2d3c:	30078a63          	beqz	a5,fff3050 <_ZL11follow_pathP3DIRPKc+0x504>
 fff2d40:	e80700e3          	beqz	a4,fff2bc0 <_ZL11follow_pathP3DIRPKc+0x74>
 fff2d44:	f8000793          	li	a5,-128
 fff2d48:	02f905a3          	sb	a5,43(s2)
 fff2d4c:	00000513          	li	a0,0
 fff2d50:	04c12083          	lw	ra,76(sp)
 fff2d54:	04812403          	lw	s0,72(sp)
 fff2d58:	04412483          	lw	s1,68(sp)
 fff2d5c:	04012903          	lw	s2,64(sp)
 fff2d60:	03c12983          	lw	s3,60(sp)
 fff2d64:	03812a03          	lw	s4,56(sp)
 fff2d68:	03412a83          	lw	s5,52(sp)
 fff2d6c:	03012b03          	lw	s6,48(sp)
 fff2d70:	02c12b83          	lw	s7,44(sp)
 fff2d74:	02812c03          	lw	s8,40(sp)
 fff2d78:	02412c83          	lw	s9,36(sp)
 fff2d7c:	02012d03          	lw	s10,32(sp)
 fff2d80:	01c12d83          	lw	s11,28(sp)
 fff2d84:	05010113          	addi	sp,sp,80
 fff2d88:	00008067          	ret
 fff2d8c:	02f00613          	li	a2,47
 fff2d90:	05c00713          	li	a4,92
 fff2d94:	f25ff06f          	j	fff2cb8 <_ZL11follow_pathP3DIRPKc+0x16c>
 fff2d98:	00400413          	li	s0,4
 fff2d9c:	f31ff06f          	j	fff2ccc <_ZL11follow_pathP3DIRPKc+0x180>
 fff2da0:	00200713          	li	a4,2
 fff2da4:	0eeb1263          	bne	s6,a4,fff2e88 <_ZL11follow_pathP3DIRPKc+0x33c>
 fff2da8:	002ad703          	lhu	a4,2(s5)
 fff2dac:	02e00613          	li	a2,46
 fff2db0:	0cc71c63          	bne	a4,a2,fff2e88 <_ZL11follow_pathP3DIRPKc+0x33c>
 fff2db4:	000ad603          	lhu	a2,0(s5)
 fff2db8:	f25ff06f          	j	fff2cdc <_ZL11follow_pathP3DIRPKc+0x190>
 fff2dbc:	00ea8633          	add	a2,s5,a4
 fff2dc0:	ffe65603          	lhu	a2,-2(a2)
 fff2dc4:	00b60463          	beq	a2,a1,fff2dcc <_ZL11follow_pathP3DIRPKc+0x280>
 fff2dc8:	00a61863          	bne	a2,a0,fff2dd8 <_ZL11follow_pathP3DIRPKc+0x28c>
 fff2dcc:	fffb0b13          	addi	s6,s6,-1
 fff2dd0:	001b1713          	slli	a4,s6,0x1
 fff2dd4:	fe0b14e3          	bnez	s6,fff2dbc <_ZL11follow_pathP3DIRPKc+0x270>
 fff2dd8:	00ea8733          	add	a4,s5,a4
 fff2ddc:	00071023          	sh	zero,0(a4)
 fff2de0:	e20b08e3          	beqz	s6,fff2c10 <_ZL11follow_pathP3DIRPKc+0xc4>
 fff2de4:	00000713          	li	a4,0
 fff2de8:	02000593          	li	a1,32
 fff2dec:	00171613          	slli	a2,a4,0x1
 fff2df0:	00ca8633          	add	a2,s5,a2
 fff2df4:	00065603          	lhu	a2,0(a2)
 fff2df8:	00070493          	mv	s1,a4
 fff2dfc:	00170713          	addi	a4,a4,1
 fff2e00:	feb606e3          	beq	a2,a1,fff2dec <_ZL11follow_pathP3DIRPKc+0x2a0>
 fff2e04:	00049663          	bnez	s1,fff2e10 <_ZL11follow_pathP3DIRPKc+0x2c4>
 fff2e08:	02e00713          	li	a4,46
 fff2e0c:	00e61663          	bne	a2,a4,fff2e18 <_ZL11follow_pathP3DIRPKc+0x2cc>
 fff2e10:	00346413          	ori	s0,s0,3
 fff2e14:	0ff47413          	zext.b	s0,s0
 fff2e18:	02e00613          	li	a2,46
 fff2e1c:	001b1713          	slli	a4,s6,0x1
 fff2e20:	00ea8733          	add	a4,s5,a4
 fff2e24:	ffe75703          	lhu	a4,-2(a4)
 fff2e28:	00c70663          	beq	a4,a2,fff2e34 <_ZL11follow_pathP3DIRPKc+0x2e8>
 fff2e2c:	fffb0b13          	addi	s6,s6,-1
 fff2e30:	fe0b16e3          	bnez	s6,fff2e1c <_ZL11follow_pathP3DIRPKc+0x2d0>
 fff2e34:	00c12503          	lw	a0,12(sp)
 fff2e38:	00b00613          	li	a2,11
 fff2e3c:	02000593          	li	a1,32
 fff2e40:	a20fd0ef          	jal	ra,fff0060 <memset>
 fff2e44:	00800c93          	li	s9,8
 fff2e48:	00000d13          	li	s10,0
 fff2e4c:	00000c13          	li	s8,0
 fff2e50:	00148d93          	addi	s11,s1,1
 fff2e54:	00149493          	slli	s1,s1,0x1
 fff2e58:	009a84b3          	add	s1,s5,s1
 fff2e5c:	0004d483          	lhu	s1,0(s1)
 fff2e60:	1c048463          	beqz	s1,fff3028 <_ZL11follow_pathP3DIRPKc+0x4dc>
 fff2e64:	02000793          	li	a5,32
 fff2e68:	00f48863          	beq	s1,a5,fff2e78 <_ZL11follow_pathP3DIRPKc+0x32c>
 fff2e6c:	02e00793          	li	a5,46
 fff2e70:	02f49263          	bne	s1,a5,fff2e94 <_ZL11follow_pathP3DIRPKc+0x348>
 fff2e74:	036d8463          	beq	s11,s6,fff2e9c <_ZL11follow_pathP3DIRPKc+0x350>
 fff2e78:	00346413          	ori	s0,s0,3
 fff2e7c:	0ff47413          	zext.b	s0,s0
 fff2e80:	000d8493          	mv	s1,s11
 fff2e84:	fcdff06f          	j	fff2e50 <_ZL11follow_pathP3DIRPKc+0x304>
 fff2e88:	02000593          	li	a1,32
 fff2e8c:	02e00513          	li	a0,46
 fff2e90:	f41ff06f          	j	fff2dd0 <_ZL11follow_pathP3DIRPKc+0x284>
 fff2e94:	019d7a63          	bgeu	s10,s9,fff2ea8 <_ZL11follow_pathP3DIRPKc+0x35c>
 fff2e98:	0b6d9263          	bne	s11,s6,fff2f3c <_ZL11follow_pathP3DIRPKc+0x3f0>
 fff2e9c:	00b00613          	li	a2,11
 fff2ea0:	08cc9263          	bne	s9,a2,fff2f24 <_ZL11follow_pathP3DIRPKc+0x3d8>
 fff2ea4:	00c0006f          	j	fff2eb0 <_ZL11follow_pathP3DIRPKc+0x364>
 fff2ea8:	00b00613          	li	a2,11
 fff2eac:	06cc9463          	bne	s9,a2,fff2f14 <_ZL11follow_pathP3DIRPKc+0x3c8>
 fff2eb0:	02094683          	lbu	a3,32(s2)
 fff2eb4:	0e500793          	li	a5,229
 fff2eb8:	00f69663          	bne	a3,a5,fff2ec4 <_ZL11follow_pathP3DIRPKc+0x378>
 fff2ebc:	00500793          	li	a5,5
 fff2ec0:	02f90023          	sb	a5,32(s2)
 fff2ec4:	00346413          	ori	s0,s0,3
 fff2ec8:	0ff47413          	zext.b	s0,s0
 fff2ecc:	00cc7793          	andi	a5,s8,12
 fff2ed0:	00c00693          	li	a3,12
 fff2ed4:	00d78863          	beq	a5,a3,fff2ee4 <_ZL11follow_pathP3DIRPKc+0x398>
 fff2ed8:	003c7793          	andi	a5,s8,3
 fff2edc:	00300693          	li	a3,3
 fff2ee0:	00d79663          	bne	a5,a3,fff2eec <_ZL11follow_pathP3DIRPKc+0x3a0>
 fff2ee4:	00246413          	ori	s0,s0,2
 fff2ee8:	0ff47413          	zext.b	s0,s0
 fff2eec:	00247793          	andi	a5,s0,2
 fff2ef0:	e20794e3          	bnez	a5,fff2d18 <_ZL11follow_pathP3DIRPKc+0x1cc>
 fff2ef4:	001c7793          	andi	a5,s8,1
 fff2ef8:	00078663          	beqz	a5,fff2f04 <_ZL11follow_pathP3DIRPKc+0x3b8>
 fff2efc:	01046413          	ori	s0,s0,16
 fff2f00:	0ff47413          	zext.b	s0,s0
 fff2f04:	004c7713          	andi	a4,s8,4
 fff2f08:	e00708e3          	beqz	a4,fff2d18 <_ZL11follow_pathP3DIRPKc+0x1cc>
 fff2f0c:	00846413          	ori	s0,s0,8
 fff2f10:	e05ff06f          	j	fff2d14 <_ZL11follow_pathP3DIRPKc+0x1c8>
 fff2f14:	016d8863          	beq	s11,s6,fff2f24 <_ZL11follow_pathP3DIRPKc+0x3d8>
 fff2f18:	00346413          	ori	s0,s0,3
 fff2f1c:	0ff47413          	zext.b	s0,s0
 fff2f20:	11bb6463          	bltu	s6,s11,fff3028 <_ZL11follow_pathP3DIRPKc+0x4dc>
 fff2f24:	002c1713          	slli	a4,s8,0x2
 fff2f28:	0ff77c13          	zext.b	s8,a4
 fff2f2c:	000b0d93          	mv	s11,s6
 fff2f30:	00b00c93          	li	s9,11
 fff2f34:	00800d13          	li	s10,8
 fff2f38:	f49ff06f          	j	fff2e80 <_ZL11follow_pathP3DIRPKc+0x334>
 fff2f3c:	07f00593          	li	a1,127
 fff2f40:	00040b93          	mv	s7,s0
 fff2f44:	0295fe63          	bgeu	a1,s1,fff2f80 <_ZL11follow_pathP3DIRPKc+0x434>
 fff2f48:	00246813          	ori	a6,s0,2
 fff2f4c:	1b500593          	li	a1,437
 fff2f50:	00048513          	mv	a0,s1
 fff2f54:	0ff87b93          	zext.b	s7,a6
 fff2f58:	15c010ef          	jal	ra,fff40b4 <ff_uni2oem>
 fff2f5c:	08057593          	andi	a1,a0,128
 fff2f60:	00050493          	mv	s1,a0
 fff2f64:	06058463          	beqz	a1,fff2fcc <_ZL11follow_pathP3DIRPKc+0x480>
 fff2f68:	07f57493          	andi	s1,a0,127
 fff2f6c:	00003597          	auipc	a1,0x3
 fff2f70:	e9058593          	addi	a1,a1,-368 # fff5dfc <_ZL5ExCvt>
 fff2f74:	009584b3          	add	s1,a1,s1
 fff2f78:	0004c483          	lbu	s1,0(s1)
 fff2f7c:	08048a63          	beqz	s1,fff3010 <_ZL11follow_pathP3DIRPKc+0x4c4>
 fff2f80:	00048593          	mv	a1,s1
 fff2f84:	00003517          	auipc	a0,0x3
 fff2f88:	e7050513          	addi	a0,a0,-400 # fff5df4 <_free_r+0xbd4>
 fff2f8c:	6c9010ef          	jal	ra,fff4e54 <strchr>
 fff2f90:	08051063          	bnez	a0,fff3010 <_ZL11follow_pathP3DIRPKc+0x4c4>
 fff2f94:	fbf48593          	addi	a1,s1,-65
 fff2f98:	01059593          	slli	a1,a1,0x10
 fff2f9c:	0105d593          	srli	a1,a1,0x10
 fff2fa0:	01900513          	li	a0,25
 fff2fa4:	06b57e63          	bgeu	a0,a1,fff3020 <_ZL11follow_pathP3DIRPKc+0x4d4>
 fff2fa8:	f9f48593          	addi	a1,s1,-97
 fff2fac:	01059593          	slli	a1,a1,0x10
 fff2fb0:	0105d593          	srli	a1,a1,0x10
 fff2fb4:	04b56463          	bltu	a0,a1,fff2ffc <_ZL11follow_pathP3DIRPKc+0x4b0>
 fff2fb8:	fe048493          	addi	s1,s1,-32
 fff2fbc:	01049493          	slli	s1,s1,0x10
 fff2fc0:	001c6c13          	ori	s8,s8,1
 fff2fc4:	0104d493          	srli	s1,s1,0x10
 fff2fc8:	0340006f          	j	fff2ffc <_ZL11follow_pathP3DIRPKc+0x4b0>
 fff2fcc:	0ff00593          	li	a1,255
 fff2fd0:	faa5f6e3          	bgeu	a1,a0,fff2f7c <_ZL11follow_pathP3DIRPKc+0x430>
 fff2fd4:	fffc8593          	addi	a1,s9,-1
 fff2fd8:	00bd6a63          	bltu	s10,a1,fff2fec <_ZL11follow_pathP3DIRPKc+0x4a0>
 fff2fdc:	00346413          	ori	s0,s0,3
 fff2fe0:	0ff47413          	zext.b	s0,s0
 fff2fe4:	000c8d13          	mv	s10,s9
 fff2fe8:	e99ff06f          	j	fff2e80 <_ZL11follow_pathP3DIRPKc+0x334>
 fff2fec:	01a905b3          	add	a1,s2,s10
 fff2ff0:	00855513          	srli	a0,a0,0x8
 fff2ff4:	02a58023          	sb	a0,32(a1)
 fff2ff8:	001d0d13          	addi	s10,s10,1
 fff2ffc:	01a905b3          	add	a1,s2,s10
 fff3000:	02958023          	sb	s1,32(a1)
 fff3004:	001d0d13          	addi	s10,s10,1
 fff3008:	000b8413          	mv	s0,s7
 fff300c:	e75ff06f          	j	fff2e80 <_ZL11follow_pathP3DIRPKc+0x334>
 fff3010:	003be813          	ori	a6,s7,3
 fff3014:	0ff87b93          	zext.b	s7,a6
 fff3018:	05f00493          	li	s1,95
 fff301c:	fe1ff06f          	j	fff2ffc <_ZL11follow_pathP3DIRPKc+0x4b0>
 fff3020:	002c6c13          	ori	s8,s8,2
 fff3024:	fd9ff06f          	j	fff2ffc <_ZL11follow_pathP3DIRPKc+0x4b0>
 fff3028:	02094683          	lbu	a3,32(s2)
 fff302c:	0e500793          	li	a5,229
 fff3030:	00f69663          	bne	a3,a5,fff303c <_ZL11follow_pathP3DIRPKc+0x4f0>
 fff3034:	00500793          	li	a5,5
 fff3038:	02f90023          	sb	a5,32(s2)
 fff303c:	00800793          	li	a5,8
 fff3040:	e8fc96e3          	bne	s9,a5,fff2ecc <_ZL11follow_pathP3DIRPKc+0x380>
 fff3044:	002c1713          	slli	a4,s8,0x2
 fff3048:	0ff77c13          	zext.b	s8,a4
 fff304c:	e81ff06f          	j	fff2ecc <_ZL11follow_pathP3DIRPKc+0x380>
 fff3050:	d00710e3          	bnez	a4,fff2d50 <_ZL11follow_pathP3DIRPKc+0x204>
 fff3054:	00500513          	li	a0,5
 fff3058:	cf9ff06f          	j	fff2d50 <_ZL11follow_pathP3DIRPKc+0x204>
 fff305c:	0047f793          	andi	a5,a5,4
 fff3060:	ce0796e3          	bnez	a5,fff2d4c <_ZL11follow_pathP3DIRPKc+0x200>
 fff3064:	00694783          	lbu	a5,6(s2)
 fff3068:	0107f793          	andi	a5,a5,16
 fff306c:	fe0784e3          	beqz	a5,fff3054 <_ZL11follow_pathP3DIRPKc+0x508>
 fff3070:	01092783          	lw	a5,16(s2)
 fff3074:	000a4503          	lbu	a0,0(s4)
 fff3078:	038a0593          	addi	a1,s4,56
 fff307c:	1ff7f793          	andi	a5,a5,511
 fff3080:	00f585b3          	add	a1,a1,a5
 fff3084:	a4cff0ef          	jal	ra,fff22d0 <_ZL8ld_clustP5FATFSPKh.isra.0>
 fff3088:	00a92423          	sw	a0,8(s2)
 fff308c:	b35ff06f          	j	fff2bc0 <_ZL11follow_pathP3DIRPKc+0x74>

0fff3090 <f_mount>:
 fff3090:	fd010113          	addi	sp,sp,-48
 fff3094:	00a12623          	sw	a0,12(sp)
 fff3098:	01c10513          	addi	a0,sp,28
 fff309c:	02812423          	sw	s0,40(sp)
 fff30a0:	02112623          	sw	ra,44(sp)
 fff30a4:	00b12423          	sw	a1,8(sp)
 fff30a8:	00060413          	mv	s0,a2
 fff30ac:	00b12e23          	sw	a1,28(sp)
 fff30b0:	86dfe0ef          	jal	ra,fff191c <_ZL12get_ldnumberPPKc>
 fff30b4:	04054e63          	bltz	a0,fff3110 <f_mount+0x80>
 fff30b8:	00006797          	auipc	a5,0x6
 fff30bc:	c7c78793          	addi	a5,a5,-900 # fff8d34 <_ZL5FatFs>
 fff30c0:	00251513          	slli	a0,a0,0x2
 fff30c4:	00a78733          	add	a4,a5,a0
 fff30c8:	00072703          	lw	a4,0(a4)
 fff30cc:	00070463          	beqz	a4,fff30d4 <f_mount+0x44>
 fff30d0:	00070023          	sb	zero,0(a4)
 fff30d4:	00c12703          	lw	a4,12(sp)
 fff30d8:	00070463          	beqz	a4,fff30e0 <f_mount+0x50>
 fff30dc:	00070023          	sb	zero,0(a4)
 fff30e0:	00a787b3          	add	a5,a5,a0
 fff30e4:	00e7a023          	sw	a4,0(a5)
 fff30e8:	00000513          	li	a0,0
 fff30ec:	00040a63          	beqz	s0,fff3100 <f_mount+0x70>
 fff30f0:	00000613          	li	a2,0
 fff30f4:	00c10593          	addi	a1,sp,12
 fff30f8:	00810513          	addi	a0,sp,8
 fff30fc:	dedfe0ef          	jal	ra,fff1ee8 <_ZL12mount_volumePPKcPP5FATFSh>
 fff3100:	02c12083          	lw	ra,44(sp)
 fff3104:	02812403          	lw	s0,40(sp)
 fff3108:	03010113          	addi	sp,sp,48
 fff310c:	00008067          	ret
 fff3110:	00b00513          	li	a0,11
 fff3114:	fedff06f          	j	fff3100 <f_mount+0x70>

0fff3118 <f_open>:
 fff3118:	f6010113          	addi	sp,sp,-160
 fff311c:	09512223          	sw	s5,132(sp)
 fff3120:	08112e23          	sw	ra,156(sp)
 fff3124:	08812c23          	sw	s0,152(sp)
 fff3128:	08912a23          	sw	s1,148(sp)
 fff312c:	09212823          	sw	s2,144(sp)
 fff3130:	09312623          	sw	s3,140(sp)
 fff3134:	09412423          	sw	s4,136(sp)
 fff3138:	09612023          	sw	s6,128(sp)
 fff313c:	07712e23          	sw	s7,124(sp)
 fff3140:	07812c23          	sw	s8,120(sp)
 fff3144:	07912a23          	sw	s9,116(sp)
 fff3148:	07a12823          	sw	s10,112(sp)
 fff314c:	07b12623          	sw	s11,108(sp)
 fff3150:	00b12623          	sw	a1,12(sp)
 fff3154:	00900a93          	li	s5,9
 fff3158:	04050e63          	beqz	a0,fff31b4 <f_open+0x9c>
 fff315c:	03f67993          	andi	s3,a2,63
 fff3160:	00050493          	mv	s1,a0
 fff3164:	00060b13          	mv	s6,a2
 fff3168:	01810593          	addi	a1,sp,24
 fff316c:	00098613          	mv	a2,s3
 fff3170:	00c10513          	addi	a0,sp,12
 fff3174:	d75fe0ef          	jal	ra,fff1ee8 <_ZL12mount_volumePPKcPP5FATFSh>
 fff3178:	00050a93          	mv	s5,a0
 fff317c:	00050413          	mv	s0,a0
 fff3180:	02051663          	bnez	a0,fff31ac <f_open+0x94>
 fff3184:	01812903          	lw	s2,24(sp)
 fff3188:	00c12583          	lw	a1,12(sp)
 fff318c:	03010a13          	addi	s4,sp,48
 fff3190:	000a0513          	mv	a0,s4
 fff3194:	03212823          	sw	s2,48(sp)
 fff3198:	9b5ff0ef          	jal	ra,fff2b4c <_ZL11follow_pathP3DIRPKc>
 fff319c:	00050413          	mv	s0,a0
 fff31a0:	04050a63          	beqz	a0,fff31f4 <f_open+0xdc>
 fff31a4:	01cb7b13          	andi	s6,s6,28
 fff31a8:	060b1e63          	bnez	s6,fff3224 <f_open+0x10c>
 fff31ac:	0004a023          	sw	zero,0(s1)
 fff31b0:	00040a93          	mv	s5,s0
 fff31b4:	09c12083          	lw	ra,156(sp)
 fff31b8:	09812403          	lw	s0,152(sp)
 fff31bc:	09412483          	lw	s1,148(sp)
 fff31c0:	09012903          	lw	s2,144(sp)
 fff31c4:	08c12983          	lw	s3,140(sp)
 fff31c8:	08812a03          	lw	s4,136(sp)
 fff31cc:	08012b03          	lw	s6,128(sp)
 fff31d0:	07c12b83          	lw	s7,124(sp)
 fff31d4:	07812c03          	lw	s8,120(sp)
 fff31d8:	07412c83          	lw	s9,116(sp)
 fff31dc:	07012d03          	lw	s10,112(sp)
 fff31e0:	06c12d83          	lw	s11,108(sp)
 fff31e4:	000a8513          	mv	a0,s5
 fff31e8:	08412a83          	lw	s5,132(sp)
 fff31ec:	0a010113          	addi	sp,sp,160
 fff31f0:	00008067          	ret
 fff31f4:	05b10783          	lb	a5,91(sp)
 fff31f8:	2a07c063          	bltz	a5,fff3498 <f_open+0x380>
 fff31fc:	01cb7713          	andi	a4,s6,28
 fff3200:	03614783          	lbu	a5,54(sp)
 fff3204:	28071e63          	bnez	a4,fff34a0 <f_open+0x388>
 fff3208:	0107f713          	andi	a4,a5,16
 fff320c:	44071a63          	bnez	a4,fff3660 <f_open+0x548>
 fff3210:	002b7b13          	andi	s6,s6,2
 fff3214:	2e0b0863          	beqz	s6,fff3504 <f_open+0x3ec>
 fff3218:	0017f793          	andi	a5,a5,1
 fff321c:	2e078463          	beqz	a5,fff3504 <f_open+0x3ec>
 fff3220:	14c0006f          	j	fff336c <f_open+0x254>
 fff3224:	00400793          	li	a5,4
 fff3228:	f8f512e3          	bne	a0,a5,fff31ac <f_open+0x94>
 fff322c:	05b14783          	lbu	a5,91(sp)
 fff3230:	03012b03          	lw	s6,48(sp)
 fff3234:	0a07f793          	andi	a5,a5,160
 fff3238:	26079063          	bnez	a5,fff3498 <f_open+0x380>
 fff323c:	00cb2703          	lw	a4,12(s6)
 fff3240:	00000c13          	li	s8,0
 fff3244:	001c1793          	slli	a5,s8,0x1
 fff3248:	00f707b3          	add	a5,a4,a5
 fff324c:	0007d783          	lhu	a5,0(a5)
 fff3250:	12079263          	bnez	a5,fff3374 <f_open+0x25c>
 fff3254:	05010793          	addi	a5,sp,80
 fff3258:	02410d13          	addi	s10,sp,36
 fff325c:	00078593          	mv	a1,a5
 fff3260:	00c00613          	li	a2,12
 fff3264:	000d0513          	mv	a0,s10
 fff3268:	00f12223          	sw	a5,4(sp)
 fff326c:	1dd010ef          	jal	ra,fff4c48 <memcpy>
 fff3270:	02f14783          	lbu	a5,47(sp)
 fff3274:	0017f793          	andi	a5,a5,1
 fff3278:	16078263          	beqz	a5,fff33dc <f_open+0x2c4>
 fff327c:	04000793          	li	a5,64
 fff3280:	00011cb7          	lui	s9,0x11
 fff3284:	04f10da3          	sb	a5,91(sp)
 fff3288:	00100b93          	li	s7,1
 fff328c:	00010db7          	lui	s11,0x10
 fff3290:	021c8c93          	addi	s9,s9,33 # 11021 <__stack_size+0x10f21>
 fff3294:	00412503          	lw	a0,4(sp)
 fff3298:	00b00613          	li	a2,11
 fff329c:	000d0593          	mv	a1,s10
 fff32a0:	00cb2403          	lw	s0,12(s6)
 fff32a4:	1a5010ef          	jal	ra,fff4c48 <memcpy>
 fff32a8:	00500793          	li	a5,5
 fff32ac:	1177e463          	bltu	a5,s7,fff33b4 <f_open+0x29c>
 fff32b0:	000b8793          	mv	a5,s7
 fff32b4:	00700613          	li	a2,7
 fff32b8:	03900893          	li	a7,57
 fff32bc:	01c10313          	addi	t1,sp,28
 fff32c0:	00f00513          	li	a0,15
 fff32c4:	00f7f713          	andi	a4,a5,15
 fff32c8:	03070593          	addi	a1,a4,48
 fff32cc:	00078813          	mv	a6,a5
 fff32d0:	0047d793          	srli	a5,a5,0x4
 fff32d4:	00b8f463          	bgeu	a7,a1,fff32dc <f_open+0x1c4>
 fff32d8:	03770593          	addi	a1,a4,55
 fff32dc:	fff60713          	addi	a4,a2,-1
 fff32e0:	00c30633          	add	a2,t1,a2
 fff32e4:	00b60023          	sb	a1,0(a2)
 fff32e8:	00070463          	beqz	a4,fff32f0 <f_open+0x1d8>
 fff32ec:	0d056863          	bltu	a0,a6,fff33bc <f_open+0x2a4>
 fff32f0:	06070793          	addi	a5,a4,96
 fff32f4:	07e00613          	li	a2,126
 fff32f8:	002787b3          	add	a5,a5,sp
 fff32fc:	fac78e23          	sb	a2,-68(a5)
 fff3300:	02000593          	li	a1,32
 fff3304:	000a0613          	mv	a2,s4
 fff3308:	00000793          	li	a5,0
 fff330c:	00f70a63          	beq	a4,a5,fff3320 <f_open+0x208>
 fff3310:	02064503          	lbu	a0,32(a2)
 fff3314:	00178813          	addi	a6,a5,1
 fff3318:	00160613          	addi	a2,a2,1
 fff331c:	0ab51463          	bne	a0,a1,fff33c4 <f_open+0x2ac>
 fff3320:	00700813          	li	a6,7
 fff3324:	00800593          	li	a1,8
 fff3328:	02000613          	li	a2,32
 fff332c:	00e86a63          	bltu	a6,a4,fff3340 <f_open+0x228>
 fff3330:	06070693          	addi	a3,a4,96
 fff3334:	00268633          	add	a2,a3,sp
 fff3338:	fbc64603          	lbu	a2,-68(a2)
 fff333c:	00170713          	addi	a4,a4,1
 fff3340:	00178793          	addi	a5,a5,1
 fff3344:	00fa0533          	add	a0,s4,a5
 fff3348:	00c50fa3          	sb	a2,31(a0)
 fff334c:	fcb79ee3          	bne	a5,a1,fff3328 <f_open+0x210>
 fff3350:	000a0513          	mv	a0,s4
 fff3354:	d84ff0ef          	jal	ra,fff28d8 <_ZL8dir_findP3DIR>
 fff3358:	00050413          	mv	s0,a0
 fff335c:	06051863          	bnez	a0,fff33cc <f_open+0x2b4>
 fff3360:	001b8b93          	addi	s7,s7,1
 fff3364:	06400793          	li	a5,100
 fff3368:	f2fb96e3          	bne	s7,a5,fff3294 <f_open+0x17c>
 fff336c:	00700413          	li	s0,7
 fff3370:	e3dff06f          	j	fff31ac <f_open+0x94>
 fff3374:	001c0c13          	addi	s8,s8,1
 fff3378:	ecdff06f          	j	fff3244 <f_open+0x12c>
 fff337c:	00240413          	addi	s0,s0,2
 fff3380:	01000613          	li	a2,16
 fff3384:	00177593          	andi	a1,a4,1
 fff3388:	00179793          	slli	a5,a5,0x1
 fff338c:	00f587b3          	add	a5,a1,a5
 fff3390:	01b7f5b3          	and	a1,a5,s11
 fff3394:	00175713          	srli	a4,a4,0x1
 fff3398:	00058463          	beqz	a1,fff33a0 <f_open+0x288>
 fff339c:	0197c7b3          	xor	a5,a5,s9
 fff33a0:	fff60613          	addi	a2,a2,-1
 fff33a4:	fe0610e3          	bnez	a2,fff3384 <f_open+0x26c>
 fff33a8:	00045703          	lhu	a4,0(s0)
 fff33ac:	fc0718e3          	bnez	a4,fff337c <f_open+0x264>
 fff33b0:	f05ff06f          	j	fff32b4 <f_open+0x19c>
 fff33b4:	000b8793          	mv	a5,s7
 fff33b8:	ff1ff06f          	j	fff33a8 <f_open+0x290>
 fff33bc:	00070613          	mv	a2,a4
 fff33c0:	f05ff06f          	j	fff32c4 <f_open+0x1ac>
 fff33c4:	00080793          	mv	a5,a6
 fff33c8:	f45ff06f          	j	fff330c <f_open+0x1f4>
 fff33cc:	00400793          	li	a5,4
 fff33d0:	dcf51ee3          	bne	a0,a5,fff31ac <f_open+0x94>
 fff33d4:	02f14783          	lbu	a5,47(sp)
 fff33d8:	04f10da3          	sb	a5,91(sp)
 fff33dc:	02f14783          	lbu	a5,47(sp)
 fff33e0:	00100c93          	li	s9,1
 fff33e4:	0027f793          	andi	a5,a5,2
 fff33e8:	00078a63          	beqz	a5,fff33fc <f_open+0x2e4>
 fff33ec:	00cc0c13          	addi	s8,s8,12
 fff33f0:	00d00793          	li	a5,13
 fff33f4:	02fc5c33          	divu	s8,s8,a5
 fff33f8:	001c0c93          	addi	s9,s8,1
 fff33fc:	00000593          	li	a1,0
 fff3400:	000a0513          	mv	a0,s4
 fff3404:	03012d03          	lw	s10,48(sp)
 fff3408:	ba8ff0ef          	jal	ra,fff27b0 <_ZL7dir_sdiP3DIRm>
 fff340c:	00050413          	mv	s0,a0
 fff3410:	0e500d93          	li	s11,229
 fff3414:	00050a63          	beqz	a0,fff3428 <f_open+0x310>
 fff3418:	00400793          	li	a5,4
 fff341c:	f4f408e3          	beq	s0,a5,fff336c <f_open+0x254>
 fff3420:	d8dff06f          	j	fff31ac <f_open+0x94>
 fff3424:	000c0413          	mv	s0,s8
 fff3428:	04812583          	lw	a1,72(sp)
 fff342c:	000d0513          	mv	a0,s10
 fff3430:	ed4fe0ef          	jal	ra,fff1b04 <_ZL11move_windowP5FATFSm>
 fff3434:	00050c13          	mv	s8,a0
 fff3438:	42051063          	bnez	a0,fff3858 <f_open+0x740>
 fff343c:	04c12783          	lw	a5,76(sp)
 fff3440:	0007c783          	lbu	a5,0(a5)
 fff3444:	01b78463          	beq	a5,s11,fff344c <f_open+0x334>
 fff3448:	00079663          	bnez	a5,fff3454 <f_open+0x33c>
 fff344c:	00140c13          	addi	s8,s0,1
 fff3450:	218c8c63          	beq	s9,s8,fff3668 <f_open+0x550>
 fff3454:	00100593          	li	a1,1
 fff3458:	000a0513          	mv	a0,s4
 fff345c:	9a8ff0ef          	jal	ra,fff2604 <_ZL8dir_nextP3DIRi>
 fff3460:	00050413          	mv	s0,a0
 fff3464:	fc0500e3          	beqz	a0,fff3424 <f_open+0x30c>
 fff3468:	fb1ff06f          	j	fff3418 <f_open+0x300>
 fff346c:	00178313          	addi	t1,a5,1
 fff3470:	00179793          	slli	a5,a5,0x1
 fff3474:	00f507b3          	add	a5,a0,a5
 fff3478:	0007d603          	lhu	a2,0(a5)
 fff347c:	00865793          	srli	a5,a2,0x8
 fff3480:	00f580a3          	sb	a5,1(a1)
 fff3484:	00c58023          	sb	a2,0(a1)
 fff3488:	00030793          	mv	a5,t1
 fff348c:	28061663          	bnez	a2,fff3718 <f_open+0x600>
 fff3490:	000c0613          	mv	a2,s8
 fff3494:	2840006f          	j	fff3718 <f_open+0x600>
 fff3498:	00600413          	li	s0,6
 fff349c:	d11ff06f          	j	fff31ac <f_open+0x94>
 fff34a0:	0117f793          	andi	a5,a5,17
 fff34a4:	ec0794e3          	bnez	a5,fff336c <f_open+0x254>
 fff34a8:	004b7b13          	andi	s6,s6,4
 fff34ac:	300b0263          	beqz	s6,fff37b0 <f_open+0x698>
 fff34b0:	00800413          	li	s0,8
 fff34b4:	cf9ff06f          	j	fff31ac <f_open+0x94>
 fff34b8:	01cba783          	lw	a5,28(s7)
 fff34bc:	38fa7a63          	bgeu	s4,a5,fff3850 <f_open+0x738>
 fff34c0:	000a0b13          	mv	s6,s4
 fff34c4:	00100c93          	li	s9,1
 fff34c8:	fff00d13          	li	s10,-1
 fff34cc:	03012503          	lw	a0,48(sp)
 fff34d0:	000b0593          	mv	a1,s6
 fff34d4:	01612223          	sw	s6,4(sp)
 fff34d8:	e31fe0ef          	jal	ra,fff2308 <_ZL7get_fatP7FFOBJIDm.isra.0>
 fff34dc:	00412583          	lw	a1,4(sp)
 fff34e0:	00050b13          	mv	s6,a0
 fff34e4:	0e051263          	bnez	a0,fff35c8 <f_open+0x4b0>
 fff34e8:	000c0593          	mv	a1,s8
 fff34ec:	00090513          	mv	a0,s2
 fff34f0:	fffa0a13          	addi	s4,s4,-1
 fff34f4:	e10fe0ef          	jal	ra,fff1b04 <_ZL11move_windowP5FATFSm>
 fff34f8:	01492823          	sw	s4,16(s2)
 fff34fc:	00050413          	mv	s0,a0
 fff3500:	ca0516e3          	bnez	a0,fff31ac <f_open+0x94>
 fff3504:	0089f793          	andi	a5,s3,8
 fff3508:	00078463          	beqz	a5,fff3510 <f_open+0x3f8>
 fff350c:	0409e993          	ori	s3,s3,64
 fff3510:	03492783          	lw	a5,52(s2)
 fff3514:	04c12403          	lw	s0,76(sp)
 fff3518:	02c48a13          	addi	s4,s1,44
 fff351c:	02f4a023          	sw	a5,32(s1)
 fff3520:	0284a223          	sw	s0,36(s1)
 fff3524:	00094503          	lbu	a0,0(s2)
 fff3528:	00040593          	mv	a1,s0
 fff352c:	da5fe0ef          	jal	ra,fff22d0 <_ZL8ld_clustP5FATFSPKh.isra.0>
 fff3530:	00a4a423          	sw	a0,8(s1)
 fff3534:	01c40513          	addi	a0,s0,28
 fff3538:	b20fe0ef          	jal	ra,fff1858 <_ZL8ld_dwordPKh>
 fff353c:	00695783          	lhu	a5,6(s2)
 fff3540:	00a4a623          	sw	a0,12(s1)
 fff3544:	01348823          	sb	s3,16(s1)
 fff3548:	0204a423          	sw	zero,40(s1)
 fff354c:	0124a023          	sw	s2,0(s1)
 fff3550:	00f49223          	sh	a5,4(s1)
 fff3554:	000488a3          	sb	zero,17(s1)
 fff3558:	0004ae23          	sw	zero,28(s1)
 fff355c:	0004aa23          	sw	zero,20(s1)
 fff3560:	20000613          	li	a2,512
 fff3564:	00000593          	li	a1,0
 fff3568:	000a0513          	mv	a0,s4
 fff356c:	0209f993          	andi	s3,s3,32
 fff3570:	af1fc0ef          	jal	ra,fff0060 <memset>
 fff3574:	c40980e3          	beqz	s3,fff31b4 <f_open+0x9c>
 fff3578:	00c4a983          	lw	s3,12(s1)
 fff357c:	c2098ce3          	beqz	s3,fff31b4 <f_open+0x9c>
 fff3580:	00a95403          	lhu	s0,10(s2)
 fff3584:	0134aa23          	sw	s3,20(s1)
 fff3588:	0084a583          	lw	a1,8(s1)
 fff358c:	00941413          	slli	s0,s0,0x9
 fff3590:	09347063          	bgeu	s0,s3,fff3610 <f_open+0x4f8>
 fff3594:	00100b13          	li	s6,1
 fff3598:	fff00b93          	li	s7,-1
 fff359c:	0004a503          	lw	a0,0(s1)
 fff35a0:	408989b3          	sub	s3,s3,s0
 fff35a4:	d65fe0ef          	jal	ra,fff2308 <_ZL7get_fatP7FFOBJIDm.isra.0>
 fff35a8:	00050593          	mv	a1,a0
 fff35ac:	0aab7263          	bgeu	s6,a0,fff3650 <f_open+0x538>
 fff35b0:	0b750463          	beq	a0,s7,fff3658 <f_open+0x540>
 fff35b4:	ff3464e3          	bltu	s0,s3,fff359c <f_open+0x484>
 fff35b8:	00000413          	li	s0,0
 fff35bc:	00b4ac23          	sw	a1,24(s1)
 fff35c0:	be0416e3          	bnez	s0,fff31ac <f_open+0x94>
 fff35c4:	0500006f          	j	fff3614 <f_open+0x4fc>
 fff35c8:	29950463          	beq	a0,s9,fff3850 <f_open+0x738>
 fff35cc:	07a50e63          	beq	a0,s10,fff3648 <f_open+0x530>
 fff35d0:	00000613          	li	a2,0
 fff35d4:	000b8513          	mv	a0,s7
 fff35d8:	f20fe0ef          	jal	ra,fff1cf8 <_ZL7put_fatP5FATFSmm>
 fff35dc:	00050413          	mv	s0,a0
 fff35e0:	bc0516e3          	bnez	a0,fff31ac <f_open+0x94>
 fff35e4:	01cba703          	lw	a4,28(s7)
 fff35e8:	014ba783          	lw	a5,20(s7)
 fff35ec:	ffe70693          	addi	a3,a4,-2
 fff35f0:	00d7fc63          	bgeu	a5,a3,fff3608 <f_open+0x4f0>
 fff35f4:	00178793          	addi	a5,a5,1
 fff35f8:	00fbaa23          	sw	a5,20(s7)
 fff35fc:	004bc783          	lbu	a5,4(s7)
 fff3600:	0017e793          	ori	a5,a5,1
 fff3604:	00fb8223          	sb	a5,4(s7)
 fff3608:	eceb62e3          	bltu	s6,a4,fff34cc <f_open+0x3b4>
 fff360c:	eddff06f          	j	fff34e8 <f_open+0x3d0>
 fff3610:	00b4ac23          	sw	a1,24(s1)
 fff3614:	1ff9f793          	andi	a5,s3,511
 fff3618:	b8078ee3          	beqz	a5,fff31b4 <f_open+0x9c>
 fff361c:	00090513          	mv	a0,s2
 fff3620:	a64fe0ef          	jal	ra,fff1884 <_ZL9clst2sectP5FATFSm>
 fff3624:	22050663          	beqz	a0,fff3850 <f_open+0x738>
 fff3628:	0099d613          	srli	a2,s3,0x9
 fff362c:	00a60633          	add	a2,a2,a0
 fff3630:	00c4ae23          	sw	a2,28(s1)
 fff3634:	00194503          	lbu	a0,1(s2)
 fff3638:	00100693          	li	a3,1
 fff363c:	000a0593          	mv	a1,s4
 fff3640:	43d000ef          	jal	ra,fff427c <disk_read>
 fff3644:	b60508e3          	beqz	a0,fff31b4 <f_open+0x9c>
 fff3648:	00100413          	li	s0,1
 fff364c:	b61ff06f          	j	fff31ac <f_open+0x94>
 fff3650:	00200413          	li	s0,2
 fff3654:	f69ff06f          	j	fff35bc <f_open+0x4a4>
 fff3658:	00100413          	li	s0,1
 fff365c:	f61ff06f          	j	fff35bc <f_open+0x4a4>
 fff3660:	00400413          	li	s0,4
 fff3664:	b49ff06f          	j	fff31ac <f_open+0x94>
 fff3668:	00040b93          	mv	s7,s0
 fff366c:	0e040a63          	beqz	s0,fff3760 <f_open+0x648>
 fff3670:	04012783          	lw	a5,64(sp)
 fff3674:	005b9593          	slli	a1,s7,0x5
 fff3678:	000a0513          	mv	a0,s4
 fff367c:	40b785b3          	sub	a1,a5,a1
 fff3680:	930ff0ef          	jal	ra,fff27b0 <_ZL7dir_sdiP3DIRm>
 fff3684:	00050413          	mv	s0,a0
 fff3688:	b20512e3          	bnez	a0,fff31ac <f_open+0x94>
 fff368c:	00412503          	lw	a0,4(sp)
 fff3690:	00f00d13          	li	s10,15
 fff3694:	00002d97          	auipc	s11,0x2
 fff3698:	7e8d8d93          	addi	s11,s11,2024 # fff5e7c <_ZL6LfnOfs>
 fff369c:	a50fe0ef          	jal	ra,fff18ec <_ZL7sum_sfnPKh>
 fff36a0:	00010837          	lui	a6,0x10
 fff36a4:	00a12423          	sw	a0,8(sp)
 fff36a8:	fff80c13          	addi	s8,a6,-1 # ffff <__stack_size+0xfeff>
 fff36ac:	fff00c93          	li	s9,-1
 fff36b0:	04812583          	lw	a1,72(sp)
 fff36b4:	000b0513          	mv	a0,s6
 fff36b8:	c4cfe0ef          	jal	ra,fff1b04 <_ZL11move_windowP5FATFSm>
 fff36bc:	00050413          	mv	s0,a0
 fff36c0:	ae0516e3          	bnez	a0,fff31ac <f_open+0x94>
 fff36c4:	04c12683          	lw	a3,76(sp)
 fff36c8:	00812783          	lw	a5,8(sp)
 fff36cc:	00cb2503          	lw	a0,12(s6)
 fff36d0:	00d00613          	li	a2,13
 fff36d4:	00f686a3          	sb	a5,13(a3)
 fff36d8:	0ffbf793          	zext.b	a5,s7
 fff36dc:	fff78793          	addi	a5,a5,-1
 fff36e0:	02c787b3          	mul	a5,a5,a2
 fff36e4:	0ffbf893          	zext.b	a7,s7
 fff36e8:	01a685a3          	sb	s10,11(a3)
 fff36ec:	00068623          	sb	zero,12(a3)
 fff36f0:	00068d23          	sb	zero,26(a3)
 fff36f4:	00068da3          	sb	zero,27(a3)
 fff36f8:	00000613          	li	a2,0
 fff36fc:	00d00e13          	li	t3,13
 fff3700:	01b405b3          	add	a1,s0,s11
 fff3704:	0005c583          	lbu	a1,0(a1)
 fff3708:	00b685b3          	add	a1,a3,a1
 fff370c:	d78610e3          	bne	a2,s8,fff346c <f_open+0x354>
 fff3710:	01958023          	sb	s9,0(a1)
 fff3714:	019580a3          	sb	s9,1(a1)
 fff3718:	00140413          	addi	s0,s0,1
 fff371c:	ffc412e3          	bne	s0,t3,fff3700 <f_open+0x5e8>
 fff3720:	01860a63          	beq	a2,s8,fff3734 <f_open+0x61c>
 fff3724:	00179793          	slli	a5,a5,0x1
 fff3728:	00f50533          	add	a0,a0,a5
 fff372c:	00055783          	lhu	a5,0(a0)
 fff3730:	00079463          	bnez	a5,fff3738 <f_open+0x620>
 fff3734:	0408e893          	ori	a7,a7,64
 fff3738:	01168023          	sb	a7,0(a3)
 fff373c:	00100793          	li	a5,1
 fff3740:	00fb01a3          	sb	a5,3(s6)
 fff3744:	00000593          	li	a1,0
 fff3748:	000a0513          	mv	a0,s4
 fff374c:	eb9fe0ef          	jal	ra,fff2604 <_ZL8dir_nextP3DIRi>
 fff3750:	00050413          	mv	s0,a0
 fff3754:	a4051ce3          	bnez	a0,fff31ac <f_open+0x94>
 fff3758:	fffb8b93          	addi	s7,s7,-1
 fff375c:	f40b9ae3          	bnez	s7,fff36b0 <f_open+0x598>
 fff3760:	04812583          	lw	a1,72(sp)
 fff3764:	000b0513          	mv	a0,s6
 fff3768:	b9cfe0ef          	jal	ra,fff1b04 <_ZL11move_windowP5FATFSm>
 fff376c:	00050413          	mv	s0,a0
 fff3770:	a2051ee3          	bnez	a0,fff31ac <f_open+0x94>
 fff3774:	04c12503          	lw	a0,76(sp)
 fff3778:	02000613          	li	a2,32
 fff377c:	00000593          	li	a1,0
 fff3780:	8e1fc0ef          	jal	ra,fff0060 <memset>
 fff3784:	00412583          	lw	a1,4(sp)
 fff3788:	04c12503          	lw	a0,76(sp)
 fff378c:	00b00613          	li	a2,11
 fff3790:	0089e993          	ori	s3,s3,8
 fff3794:	4b4010ef          	jal	ra,fff4c48 <memcpy>
 fff3798:	05b14783          	lbu	a5,91(sp)
 fff379c:	04c12703          	lw	a4,76(sp)
 fff37a0:	0187f793          	andi	a5,a5,24
 fff37a4:	00f70623          	sb	a5,12(a4)
 fff37a8:	00100793          	li	a5,1
 fff37ac:	00fb01a3          	sb	a5,3(s6)
 fff37b0:	0089f713          	andi	a4,s3,8
 fff37b4:	04c12783          	lw	a5,76(sp)
 fff37b8:	d40706e3          	beqz	a4,fff3504 <f_open+0x3ec>
 fff37bc:	02100693          	li	a3,33
 fff37c0:	05200713          	li	a4,82
 fff37c4:	00d78823          	sb	a3,16(a5)
 fff37c8:	00e788a3          	sb	a4,17(a5)
 fff37cc:	00078723          	sb	zero,14(a5)
 fff37d0:	000787a3          	sb	zero,15(a5)
 fff37d4:	04c12783          	lw	a5,76(sp)
 fff37d8:	00d78c23          	sb	a3,24(a5)
 fff37dc:	00e78ca3          	sb	a4,25(a5)
 fff37e0:	00078b23          	sb	zero,22(a5)
 fff37e4:	00078ba3          	sb	zero,23(a5)
 fff37e8:	04c12403          	lw	s0,76(sp)
 fff37ec:	00094503          	lbu	a0,0(s2)
 fff37f0:	00040593          	mv	a1,s0
 fff37f4:	addfe0ef          	jal	ra,fff22d0 <_ZL8ld_clustP5FATFSPKh.isra.0>
 fff37f8:	02000793          	li	a5,32
 fff37fc:	00f405a3          	sb	a5,11(s0)
 fff3800:	04c12783          	lw	a5,76(sp)
 fff3804:	00300713          	li	a4,3
 fff3808:	00050a13          	mv	s4,a0
 fff380c:	00078d23          	sb	zero,26(a5)
 fff3810:	00078da3          	sb	zero,27(a5)
 fff3814:	00094683          	lbu	a3,0(s2)
 fff3818:	00e69663          	bne	a3,a4,fff3824 <f_open+0x70c>
 fff381c:	00078a23          	sb	zero,20(a5)
 fff3820:	00078aa3          	sb	zero,21(a5)
 fff3824:	04c12783          	lw	a5,76(sp)
 fff3828:	00078e23          	sb	zero,28(a5)
 fff382c:	00078ea3          	sb	zero,29(a5)
 fff3830:	00078f23          	sb	zero,30(a5)
 fff3834:	00078fa3          	sb	zero,31(a5)
 fff3838:	00100793          	li	a5,1
 fff383c:	00f901a3          	sb	a5,3(s2)
 fff3840:	cc0a02e3          	beqz	s4,fff3504 <f_open+0x3ec>
 fff3844:	03492c03          	lw	s8,52(s2)
 fff3848:	03012b83          	lw	s7,48(sp)
 fff384c:	c6fa16e3          	bne	s4,a5,fff34b8 <f_open+0x3a0>
 fff3850:	00200413          	li	s0,2
 fff3854:	959ff06f          	j	fff31ac <f_open+0x94>
 fff3858:	00050413          	mv	s0,a0
 fff385c:	bbdff06f          	j	fff3418 <f_open+0x300>

0fff3860 <f_read>:
 fff3860:	fa010113          	addi	sp,sp,-96
 fff3864:	04812c23          	sw	s0,88(sp)
 fff3868:	04912a23          	sw	s1,84(sp)
 fff386c:	05212823          	sw	s2,80(sp)
 fff3870:	05512223          	sw	s5,68(sp)
 fff3874:	05612023          	sw	s6,64(sp)
 fff3878:	04112e23          	sw	ra,92(sp)
 fff387c:	05312623          	sw	s3,76(sp)
 fff3880:	05412423          	sw	s4,72(sp)
 fff3884:	03712e23          	sw	s7,60(sp)
 fff3888:	03812c23          	sw	s8,56(sp)
 fff388c:	03912a23          	sw	s9,52(sp)
 fff3890:	03a12823          	sw	s10,48(sp)
 fff3894:	03b12623          	sw	s11,44(sp)
 fff3898:	00058a93          	mv	s5,a1
 fff389c:	0006a023          	sw	zero,0(a3)
 fff38a0:	01c10593          	addi	a1,sp,28
 fff38a4:	00050413          	mv	s0,a0
 fff38a8:	00060913          	mv	s2,a2
 fff38ac:	00068b13          	mv	s6,a3
 fff38b0:	950fe0ef          	jal	ra,fff1a00 <_ZL8validateP7FFOBJIDPP5FATFS>
 fff38b4:	00050493          	mv	s1,a0
 fff38b8:	08051063          	bnez	a0,fff3938 <f_read+0xd8>
 fff38bc:	01144483          	lbu	s1,17(s0)
 fff38c0:	06049c63          	bnez	s1,fff3938 <f_read+0xd8>
 fff38c4:	01044783          	lbu	a5,16(s0)
 fff38c8:	00700493          	li	s1,7
 fff38cc:	0017f793          	andi	a5,a5,1
 fff38d0:	06078463          	beqz	a5,fff3938 <f_read+0xd8>
 fff38d4:	00c42483          	lw	s1,12(s0)
 fff38d8:	01442783          	lw	a5,20(s0)
 fff38dc:	40f484b3          	sub	s1,s1,a5
 fff38e0:	00997463          	bgeu	s2,s1,fff38e8 <f_read+0x88>
 fff38e4:	00090493          	mv	s1,s2
 fff38e8:	02c40c13          	addi	s8,s0,44
 fff38ec:	1ff00c93          	li	s9,511
 fff38f0:	00100d13          	li	s10,1
 fff38f4:	fff00d93          	li	s11,-1
 fff38f8:	04048063          	beqz	s1,fff3938 <f_read+0xd8>
 fff38fc:	01442583          	lw	a1,20(s0)
 fff3900:	1ff5f793          	andi	a5,a1,511
 fff3904:	18079a63          	bnez	a5,fff3a98 <f_read+0x238>
 fff3908:	01c12903          	lw	s2,28(sp)
 fff390c:	0095d793          	srli	a5,a1,0x9
 fff3910:	00a95a03          	lhu	s4,10(s2)
 fff3914:	fffa0a13          	addi	s4,s4,-1
 fff3918:	00fa7a33          	and	s4,s4,a5
 fff391c:	080a1c63          	bnez	s4,fff39b4 <f_read+0x154>
 fff3920:	04059c63          	bnez	a1,fff3978 <f_read+0x118>
 fff3924:	00842503          	lw	a0,8(s0)
 fff3928:	06ad6a63          	bltu	s10,a0,fff399c <f_read+0x13c>
 fff392c:	00200793          	li	a5,2
 fff3930:	00f408a3          	sb	a5,17(s0)
 fff3934:	00200493          	li	s1,2
 fff3938:	05c12083          	lw	ra,92(sp)
 fff393c:	05812403          	lw	s0,88(sp)
 fff3940:	05012903          	lw	s2,80(sp)
 fff3944:	04c12983          	lw	s3,76(sp)
 fff3948:	04812a03          	lw	s4,72(sp)
 fff394c:	04412a83          	lw	s5,68(sp)
 fff3950:	04012b03          	lw	s6,64(sp)
 fff3954:	03c12b83          	lw	s7,60(sp)
 fff3958:	03812c03          	lw	s8,56(sp)
 fff395c:	03412c83          	lw	s9,52(sp)
 fff3960:	03012d03          	lw	s10,48(sp)
 fff3964:	02c12d83          	lw	s11,44(sp)
 fff3968:	00048513          	mv	a0,s1
 fff396c:	05412483          	lw	s1,84(sp)
 fff3970:	06010113          	addi	sp,sp,96
 fff3974:	00008067          	ret
 fff3978:	02842783          	lw	a5,40(s0)
 fff397c:	00078863          	beqz	a5,fff398c <f_read+0x12c>
 fff3980:	00040513          	mv	a0,s0
 fff3984:	f2dfd0ef          	jal	ra,fff18b0 <_ZL10clmt_clustP3FILm>
 fff3988:	fa1ff06f          	j	fff3928 <f_read+0xc8>
 fff398c:	01842583          	lw	a1,24(s0)
 fff3990:	00042503          	lw	a0,0(s0)
 fff3994:	975fe0ef          	jal	ra,fff2308 <_ZL7get_fatP7FFOBJIDm.isra.0>
 fff3998:	f91ff06f          	j	fff3928 <f_read+0xc8>
 fff399c:	01b51a63          	bne	a0,s11,fff39b0 <f_read+0x150>
 fff39a0:	00100793          	li	a5,1
 fff39a4:	00f408a3          	sb	a5,17(s0)
 fff39a8:	00100493          	li	s1,1
 fff39ac:	f8dff06f          	j	fff3938 <f_read+0xd8>
 fff39b0:	00a42c23          	sw	a0,24(s0)
 fff39b4:	01842583          	lw	a1,24(s0)
 fff39b8:	00090513          	mv	a0,s2
 fff39bc:	ec9fd0ef          	jal	ra,fff1884 <_ZL9clst2sectP5FATFSm>
 fff39c0:	f60506e3          	beqz	a0,fff392c <f_read+0xcc>
 fff39c4:	00aa09b3          	add	s3,s4,a0
 fff39c8:	089cf063          	bgeu	s9,s1,fff3a48 <f_read+0x1e8>
 fff39cc:	00a95783          	lhu	a5,10(s2)
 fff39d0:	0094db93          	srli	s7,s1,0x9
 fff39d4:	017a0733          	add	a4,s4,s7
 fff39d8:	00e7f463          	bgeu	a5,a4,fff39e0 <f_read+0x180>
 fff39dc:	41478bb3          	sub	s7,a5,s4
 fff39e0:	00194503          	lbu	a0,1(s2)
 fff39e4:	000b8693          	mv	a3,s7
 fff39e8:	00098613          	mv	a2,s3
 fff39ec:	000a8593          	mv	a1,s5
 fff39f0:	08d000ef          	jal	ra,fff427c <disk_read>
 fff39f4:	fa0516e3          	bnez	a0,fff39a0 <f_read+0x140>
 fff39f8:	01040783          	lb	a5,16(s0)
 fff39fc:	0207d263          	bgez	a5,fff3a20 <f_read+0x1c0>
 fff3a00:	01c42503          	lw	a0,28(s0)
 fff3a04:	41350533          	sub	a0,a0,s3
 fff3a08:	01757c63          	bgeu	a0,s7,fff3a20 <f_read+0x1c0>
 fff3a0c:	00951513          	slli	a0,a0,0x9
 fff3a10:	20000613          	li	a2,512
 fff3a14:	02c40593          	addi	a1,s0,44
 fff3a18:	00aa8533          	add	a0,s5,a0
 fff3a1c:	22c010ef          	jal	ra,fff4c48 <memcpy>
 fff3a20:	009b9913          	slli	s2,s7,0x9
 fff3a24:	000b2783          	lw	a5,0(s6)
 fff3a28:	412484b3          	sub	s1,s1,s2
 fff3a2c:	012a8ab3          	add	s5,s5,s2
 fff3a30:	012787b3          	add	a5,a5,s2
 fff3a34:	00fb2023          	sw	a5,0(s6)
 fff3a38:	01442783          	lw	a5,20(s0)
 fff3a3c:	012787b3          	add	a5,a5,s2
 fff3a40:	00f42a23          	sw	a5,20(s0)
 fff3a44:	eb5ff06f          	j	fff38f8 <f_read+0x98>
 fff3a48:	01c42603          	lw	a2,28(s0)
 fff3a4c:	05360463          	beq	a2,s3,fff3a94 <f_read+0x234>
 fff3a50:	01040783          	lb	a5,16(s0)
 fff3a54:	00194503          	lbu	a0,1(s2)
 fff3a58:	02c40593          	addi	a1,s0,44
 fff3a5c:	0207d263          	bgez	a5,fff3a80 <f_read+0x220>
 fff3a60:	00100693          	li	a3,1
 fff3a64:	00b12623          	sw	a1,12(sp)
 fff3a68:	055000ef          	jal	ra,fff42bc <disk_write>
 fff3a6c:	f2051ae3          	bnez	a0,fff39a0 <f_read+0x140>
 fff3a70:	01044783          	lbu	a5,16(s0)
 fff3a74:	00c12583          	lw	a1,12(sp)
 fff3a78:	07f7f793          	andi	a5,a5,127
 fff3a7c:	00f40823          	sb	a5,16(s0)
 fff3a80:	00194503          	lbu	a0,1(s2)
 fff3a84:	00100693          	li	a3,1
 fff3a88:	00098613          	mv	a2,s3
 fff3a8c:	7f0000ef          	jal	ra,fff427c <disk_read>
 fff3a90:	f00518e3          	bnez	a0,fff39a0 <f_read+0x140>
 fff3a94:	01342e23          	sw	s3,28(s0)
 fff3a98:	01442583          	lw	a1,20(s0)
 fff3a9c:	20000793          	li	a5,512
 fff3aa0:	1ff5f593          	andi	a1,a1,511
 fff3aa4:	40b78933          	sub	s2,a5,a1
 fff3aa8:	0124f463          	bgeu	s1,s2,fff3ab0 <f_read+0x250>
 fff3aac:	00048913          	mv	s2,s1
 fff3ab0:	00090613          	mv	a2,s2
 fff3ab4:	00bc05b3          	add	a1,s8,a1
 fff3ab8:	000a8513          	mv	a0,s5
 fff3abc:	18c010ef          	jal	ra,fff4c48 <memcpy>
 fff3ac0:	f65ff06f          	j	fff3a24 <f_read+0x1c4>

0fff3ac4 <f_sync>:
 fff3ac4:	fd010113          	addi	sp,sp,-48
 fff3ac8:	00c10593          	addi	a1,sp,12
 fff3acc:	02912223          	sw	s1,36(sp)
 fff3ad0:	02112623          	sw	ra,44(sp)
 fff3ad4:	02812423          	sw	s0,40(sp)
 fff3ad8:	03212023          	sw	s2,32(sp)
 fff3adc:	01312e23          	sw	s3,28(sp)
 fff3ae0:	00050493          	mv	s1,a0
 fff3ae4:	f1dfd0ef          	jal	ra,fff1a00 <_ZL8validateP7FFOBJIDPP5FATFS>
 fff3ae8:	1c051e63          	bnez	a0,fff3cc4 <f_sync+0x200>
 fff3aec:	0104c783          	lbu	a5,16(s1)
 fff3af0:	0407f713          	andi	a4,a5,64
 fff3af4:	1c070863          	beqz	a4,fff3cc4 <f_sync+0x200>
 fff3af8:	01879793          	slli	a5,a5,0x18
 fff3afc:	4187d793          	srai	a5,a5,0x18
 fff3b00:	00c12403          	lw	s0,12(sp)
 fff3b04:	0207d863          	bgez	a5,fff3b34 <f_sync+0x70>
 fff3b08:	01c4a603          	lw	a2,28(s1)
 fff3b0c:	00144503          	lbu	a0,1(s0)
 fff3b10:	00100693          	li	a3,1
 fff3b14:	02c48593          	addi	a1,s1,44
 fff3b18:	7a4000ef          	jal	ra,fff42bc <disk_write>
 fff3b1c:	00050793          	mv	a5,a0
 fff3b20:	00100513          	li	a0,1
 fff3b24:	1a079063          	bnez	a5,fff3cc4 <f_sync+0x200>
 fff3b28:	0104c783          	lbu	a5,16(s1)
 fff3b2c:	07f7f793          	andi	a5,a5,127
 fff3b30:	00f48823          	sb	a5,16(s1)
 fff3b34:	0204a583          	lw	a1,32(s1)
 fff3b38:	00040513          	mv	a0,s0
 fff3b3c:	fc9fd0ef          	jal	ra,fff1b04 <_ZL11move_windowP5FATFSm>
 fff3b40:	18051263          	bnez	a0,fff3cc4 <f_sync+0x200>
 fff3b44:	0244a783          	lw	a5,36(s1)
 fff3b48:	00b7c703          	lbu	a4,11(a5)
 fff3b4c:	02076713          	ori	a4,a4,32
 fff3b50:	00e785a3          	sb	a4,11(a5)
 fff3b54:	0084a703          	lw	a4,8(s1)
 fff3b58:	0004a603          	lw	a2,0(s1)
 fff3b5c:	01071693          	slli	a3,a4,0x10
 fff3b60:	0106d693          	srli	a3,a3,0x10
 fff3b64:	0086d693          	srli	a3,a3,0x8
 fff3b68:	00d78da3          	sb	a3,27(a5)
 fff3b6c:	00e78d23          	sb	a4,26(a5)
 fff3b70:	00064603          	lbu	a2,0(a2)
 fff3b74:	00300693          	li	a3,3
 fff3b78:	00d61a63          	bne	a2,a3,fff3b8c <f_sync+0xc8>
 fff3b7c:	01075713          	srli	a4,a4,0x10
 fff3b80:	00e78a23          	sb	a4,20(a5)
 fff3b84:	00875713          	srli	a4,a4,0x8
 fff3b88:	00e78aa3          	sb	a4,21(a5)
 fff3b8c:	00c4a703          	lw	a4,12(s1)
 fff3b90:	05200993          	li	s3,82
 fff3b94:	00078b23          	sb	zero,22(a5)
 fff3b98:	00875693          	srli	a3,a4,0x8
 fff3b9c:	00e78e23          	sb	a4,28(a5)
 fff3ba0:	00d78ea3          	sb	a3,29(a5)
 fff3ba4:	01075693          	srli	a3,a4,0x10
 fff3ba8:	01875713          	srli	a4,a4,0x18
 fff3bac:	00e78fa3          	sb	a4,31(a5)
 fff3bb0:	02100713          	li	a4,33
 fff3bb4:	00d78f23          	sb	a3,30(a5)
 fff3bb8:	00078ba3          	sb	zero,23(a5)
 fff3bbc:	00e78c23          	sb	a4,24(a5)
 fff3bc0:	01378ca3          	sb	s3,25(a5)
 fff3bc4:	00078923          	sb	zero,18(a5)
 fff3bc8:	000789a3          	sb	zero,19(a5)
 fff3bcc:	00100913          	li	s2,1
 fff3bd0:	012401a3          	sb	s2,3(s0)
 fff3bd4:	00040513          	mv	a0,s0
 fff3bd8:	e99fd0ef          	jal	ra,fff1a70 <_ZL11sync_windowP5FATFS>
 fff3bdc:	0c051e63          	bnez	a0,fff3cb8 <f_sync+0x1f4>
 fff3be0:	00044703          	lbu	a4,0(s0)
 fff3be4:	00300793          	li	a5,3
 fff3be8:	0af71e63          	bne	a4,a5,fff3ca4 <f_sync+0x1e0>
 fff3bec:	00444783          	lbu	a5,4(s0)
 fff3bf0:	0b279a63          	bne	a5,s2,fff3ca4 <f_sync+0x1e0>
 fff3bf4:	03840913          	addi	s2,s0,56
 fff3bf8:	20000613          	li	a2,512
 fff3bfc:	00000593          	li	a1,0
 fff3c00:	00090513          	mv	a0,s2
 fff3c04:	c5cfc0ef          	jal	ra,fff0060 <memset>
 fff3c08:	05500793          	li	a5,85
 fff3c0c:	22f40b23          	sb	a5,566(s0)
 fff3c10:	faa00793          	li	a5,-86
 fff3c14:	22f40ba3          	sb	a5,567(s0)
 fff3c18:	06100793          	li	a5,97
 fff3c1c:	02f40d23          	sb	a5,58(s0)
 fff3c20:	20f40fa3          	sb	a5,543(s0)
 fff3c24:	01442783          	lw	a5,20(s0)
 fff3c28:	04100713          	li	a4,65
 fff3c2c:	02e40da3          	sb	a4,59(s0)
 fff3c30:	20e40f23          	sb	a4,542(s0)
 fff3c34:	0087d713          	srli	a4,a5,0x8
 fff3c38:	22f40023          	sb	a5,544(s0)
 fff3c3c:	22e400a3          	sb	a4,545(s0)
 fff3c40:	0107d713          	srli	a4,a5,0x10
 fff3c44:	0187d793          	srli	a5,a5,0x18
 fff3c48:	22f401a3          	sb	a5,547(s0)
 fff3c4c:	01042783          	lw	a5,16(s0)
 fff3c50:	02442603          	lw	a2,36(s0)
 fff3c54:	22e40123          	sb	a4,546(s0)
 fff3c58:	00144503          	lbu	a0,1(s0)
 fff3c5c:	0087d713          	srli	a4,a5,0x8
 fff3c60:	07200693          	li	a3,114
 fff3c64:	22f40223          	sb	a5,548(s0)
 fff3c68:	22e402a3          	sb	a4,549(s0)
 fff3c6c:	00160613          	addi	a2,a2,1
 fff3c70:	0107d713          	srli	a4,a5,0x10
 fff3c74:	0187d793          	srli	a5,a5,0x18
 fff3c78:	20d40e23          	sb	a3,540(s0)
 fff3c7c:	20d40ea3          	sb	a3,541(s0)
 fff3c80:	03340c23          	sb	s3,56(s0)
 fff3c84:	03340ca3          	sb	s3,57(s0)
 fff3c88:	22e40323          	sb	a4,550(s0)
 fff3c8c:	22f403a3          	sb	a5,551(s0)
 fff3c90:	02c42a23          	sw	a2,52(s0)
 fff3c94:	00100693          	li	a3,1
 fff3c98:	00090593          	mv	a1,s2
 fff3c9c:	620000ef          	jal	ra,fff42bc <disk_write>
 fff3ca0:	00040223          	sb	zero,4(s0)
 fff3ca4:	00144503          	lbu	a0,1(s0)
 fff3ca8:	00000613          	li	a2,0
 fff3cac:	00000593          	li	a1,0
 fff3cb0:	64c000ef          	jal	ra,fff42fc <disk_ioctl>
 fff3cb4:	00a03533          	snez	a0,a0
 fff3cb8:	0104c783          	lbu	a5,16(s1)
 fff3cbc:	fbf7f793          	andi	a5,a5,-65
 fff3cc0:	00f48823          	sb	a5,16(s1)
 fff3cc4:	02c12083          	lw	ra,44(sp)
 fff3cc8:	02812403          	lw	s0,40(sp)
 fff3ccc:	02412483          	lw	s1,36(sp)
 fff3cd0:	02012903          	lw	s2,32(sp)
 fff3cd4:	01c12983          	lw	s3,28(sp)
 fff3cd8:	03010113          	addi	sp,sp,48
 fff3cdc:	00008067          	ret

0fff3ce0 <f_close>:
 fff3ce0:	fe010113          	addi	sp,sp,-32
 fff3ce4:	00812c23          	sw	s0,24(sp)
 fff3ce8:	00112e23          	sw	ra,28(sp)
 fff3cec:	00050413          	mv	s0,a0
 fff3cf0:	dd5ff0ef          	jal	ra,fff3ac4 <f_sync>
 fff3cf4:	00051c63          	bnez	a0,fff3d0c <f_close+0x2c>
 fff3cf8:	00c10593          	addi	a1,sp,12
 fff3cfc:	00040513          	mv	a0,s0
 fff3d00:	d01fd0ef          	jal	ra,fff1a00 <_ZL8validateP7FFOBJIDPP5FATFS>
 fff3d04:	00051463          	bnez	a0,fff3d0c <f_close+0x2c>
 fff3d08:	00042023          	sw	zero,0(s0)
 fff3d0c:	01c12083          	lw	ra,28(sp)
 fff3d10:	01812403          	lw	s0,24(sp)
 fff3d14:	02010113          	addi	sp,sp,32
 fff3d18:	00008067          	ret

0fff3d1c <f_lseek>:
 fff3d1c:	fb010113          	addi	sp,sp,-80
 fff3d20:	04912223          	sw	s1,68(sp)
 fff3d24:	00058493          	mv	s1,a1
 fff3d28:	01c10593          	addi	a1,sp,28
 fff3d2c:	04812423          	sw	s0,72(sp)
 fff3d30:	05212023          	sw	s2,64(sp)
 fff3d34:	04112623          	sw	ra,76(sp)
 fff3d38:	03312e23          	sw	s3,60(sp)
 fff3d3c:	03412c23          	sw	s4,56(sp)
 fff3d40:	03512a23          	sw	s5,52(sp)
 fff3d44:	03612823          	sw	s6,48(sp)
 fff3d48:	03712623          	sw	s7,44(sp)
 fff3d4c:	03812423          	sw	s8,40(sp)
 fff3d50:	03912223          	sw	s9,36(sp)
 fff3d54:	00050413          	mv	s0,a0
 fff3d58:	ca9fd0ef          	jal	ra,fff1a00 <_ZL8validateP7FFOBJIDPP5FATFS>
 fff3d5c:	00050913          	mv	s2,a0
 fff3d60:	06051263          	bnez	a0,fff3dc4 <f_lseek+0xa8>
 fff3d64:	01144903          	lbu	s2,17(s0)
 fff3d68:	04091e63          	bnez	s2,fff3dc4 <f_lseek+0xa8>
 fff3d6c:	02842783          	lw	a5,40(s0)
 fff3d70:	18078863          	beqz	a5,fff3f00 <f_lseek+0x1e4>
 fff3d74:	fff00713          	li	a4,-1
 fff3d78:	0ce49e63          	bne	s1,a4,fff3e54 <f_lseek+0x138>
 fff3d7c:	00842a03          	lw	s4,8(s0)
 fff3d80:	0007ab83          	lw	s7,0(a5)
 fff3d84:	00478993          	addi	s3,a5,4
 fff3d88:	00200493          	li	s1,2
 fff3d8c:	0a0a0a63          	beqz	s4,fff3e40 <f_lseek+0x124>
 fff3d90:	00100c13          	li	s8,1
 fff3d94:	fff00c93          	li	s9,-1
 fff3d98:	00000b13          	li	s6,0
 fff3d9c:	000a0513          	mv	a0,s4
 fff3da0:	00050a93          	mv	s5,a0
 fff3da4:	00050593          	mv	a1,a0
 fff3da8:	00042503          	lw	a0,0(s0)
 fff3dac:	001b0b13          	addi	s6,s6,1
 fff3db0:	d58fe0ef          	jal	ra,fff2308 <_ZL7get_fatP7FFOBJIDm.isra.0>
 fff3db4:	04ac6863          	bltu	s8,a0,fff3e04 <f_lseek+0xe8>
 fff3db8:	00200793          	li	a5,2
 fff3dbc:	00f408a3          	sb	a5,17(s0)
 fff3dc0:	00200913          	li	s2,2
 fff3dc4:	04c12083          	lw	ra,76(sp)
 fff3dc8:	04812403          	lw	s0,72(sp)
 fff3dcc:	04412483          	lw	s1,68(sp)
 fff3dd0:	03c12983          	lw	s3,60(sp)
 fff3dd4:	03812a03          	lw	s4,56(sp)
 fff3dd8:	03412a83          	lw	s5,52(sp)
 fff3ddc:	03012b03          	lw	s6,48(sp)
 fff3de0:	02c12b83          	lw	s7,44(sp)
 fff3de4:	02812c03          	lw	s8,40(sp)
 fff3de8:	02412c83          	lw	s9,36(sp)
 fff3dec:	00090513          	mv	a0,s2
 fff3df0:	04012903          	lw	s2,64(sp)
 fff3df4:	05010113          	addi	sp,sp,80
 fff3df8:	00008067          	ret
 fff3dfc:	00050a13          	mv	s4,a0
 fff3e00:	f99ff06f          	j	fff3d98 <f_lseek+0x7c>
 fff3e04:	01951a63          	bne	a0,s9,fff3e18 <f_lseek+0xfc>
 fff3e08:	00100793          	li	a5,1
 fff3e0c:	00f408a3          	sb	a5,17(s0)
 fff3e10:	00100913          	li	s2,1
 fff3e14:	fb1ff06f          	j	fff3dc4 <f_lseek+0xa8>
 fff3e18:	001a8a93          	addi	s5,s5,1
 fff3e1c:	f8aa82e3          	beq	s5,a0,fff3da0 <f_lseek+0x84>
 fff3e20:	00248493          	addi	s1,s1,2
 fff3e24:	009be863          	bltu	s7,s1,fff3e34 <f_lseek+0x118>
 fff3e28:	0169a023          	sw	s6,0(s3)
 fff3e2c:	0149a223          	sw	s4,4(s3)
 fff3e30:	00898993          	addi	s3,s3,8
 fff3e34:	01c12783          	lw	a5,28(sp)
 fff3e38:	01c7a783          	lw	a5,28(a5)
 fff3e3c:	fcf560e3          	bltu	a0,a5,fff3dfc <f_lseek+0xe0>
 fff3e40:	02842783          	lw	a5,40(s0)
 fff3e44:	0097a023          	sw	s1,0(a5)
 fff3e48:	269be263          	bltu	s7,s1,fff40ac <f_lseek+0x390>
 fff3e4c:	0009a023          	sw	zero,0(s3)
 fff3e50:	f75ff06f          	j	fff3dc4 <f_lseek+0xa8>
 fff3e54:	00c42983          	lw	s3,12(s0)
 fff3e58:	0134f463          	bgeu	s1,s3,fff3e60 <f_lseek+0x144>
 fff3e5c:	00048993          	mv	s3,s1
 fff3e60:	01342a23          	sw	s3,20(s0)
 fff3e64:	f60980e3          	beqz	s3,fff3dc4 <f_lseek+0xa8>
 fff3e68:	fff98493          	addi	s1,s3,-1
 fff3e6c:	00048593          	mv	a1,s1
 fff3e70:	00040513          	mv	a0,s0
 fff3e74:	a3dfd0ef          	jal	ra,fff18b0 <_ZL10clmt_clustP3FILm>
 fff3e78:	01c12a03          	lw	s4,28(sp)
 fff3e7c:	00050593          	mv	a1,a0
 fff3e80:	00a42c23          	sw	a0,24(s0)
 fff3e84:	000a0513          	mv	a0,s4
 fff3e88:	9fdfd0ef          	jal	ra,fff1884 <_ZL9clst2sectP5FATFSm>
 fff3e8c:	f20506e3          	beqz	a0,fff3db8 <f_lseek+0x9c>
 fff3e90:	1ff9f993          	andi	s3,s3,511
 fff3e94:	00aa5783          	lhu	a5,10(s4)
 fff3e98:	f20986e3          	beqz	s3,fff3dc4 <f_lseek+0xa8>
 fff3e9c:	0094d493          	srli	s1,s1,0x9
 fff3ea0:	fff78793          	addi	a5,a5,-1
 fff3ea4:	01c42603          	lw	a2,28(s0)
 fff3ea8:	00f4f4b3          	and	s1,s1,a5
 fff3eac:	00a484b3          	add	s1,s1,a0
 fff3eb0:	f0960ae3          	beq	a2,s1,fff3dc4 <f_lseek+0xa8>
 fff3eb4:	01040783          	lb	a5,16(s0)
 fff3eb8:	001a4503          	lbu	a0,1(s4)
 fff3ebc:	02c40593          	addi	a1,s0,44
 fff3ec0:	0207d263          	bgez	a5,fff3ee4 <f_lseek+0x1c8>
 fff3ec4:	00100693          	li	a3,1
 fff3ec8:	00b12623          	sw	a1,12(sp)
 fff3ecc:	3f0000ef          	jal	ra,fff42bc <disk_write>
 fff3ed0:	f2051ce3          	bnez	a0,fff3e08 <f_lseek+0xec>
 fff3ed4:	01044783          	lbu	a5,16(s0)
 fff3ed8:	00c12583          	lw	a1,12(sp)
 fff3edc:	07f7f793          	andi	a5,a5,127
 fff3ee0:	00f40823          	sb	a5,16(s0)
 fff3ee4:	001a4503          	lbu	a0,1(s4)
 fff3ee8:	00100693          	li	a3,1
 fff3eec:	00048613          	mv	a2,s1
 fff3ef0:	38c000ef          	jal	ra,fff427c <disk_read>
 fff3ef4:	f0051ae3          	bnez	a0,fff3e08 <f_lseek+0xec>
 fff3ef8:	00942e23          	sw	s1,28(s0)
 fff3efc:	ec9ff06f          	j	fff3dc4 <f_lseek+0xa8>
 fff3f00:	00c42683          	lw	a3,12(s0)
 fff3f04:	01442783          	lw	a5,20(s0)
 fff3f08:	0496fc63          	bgeu	a3,s1,fff3f60 <f_lseek+0x244>
 fff3f0c:	01044703          	lbu	a4,16(s0)
 fff3f10:	00277713          	andi	a4,a4,2
 fff3f14:	04070463          	beqz	a4,fff3f5c <f_lseek+0x240>
 fff3f18:	00042a23          	sw	zero,20(s0)
 fff3f1c:	01c12a03          	lw	s4,28(sp)
 fff3f20:	00aa5983          	lhu	s3,10(s4)
 fff3f24:	00999993          	slli	s3,s3,0x9
 fff3f28:	0a078a63          	beqz	a5,fff3fdc <f_lseek+0x2c0>
 fff3f2c:	fff78793          	addi	a5,a5,-1
 fff3f30:	fff48713          	addi	a4,s1,-1
 fff3f34:	03375733          	divu	a4,a4,s3
 fff3f38:	0337d6b3          	divu	a3,a5,s3
 fff3f3c:	0ad76063          	bltu	a4,a3,fff3fdc <f_lseek+0x2c0>
 fff3f40:	41300733          	neg	a4,s3
 fff3f44:	01842583          	lw	a1,24(s0)
 fff3f48:	00f777b3          	and	a5,a4,a5
 fff3f4c:	00f42a23          	sw	a5,20(s0)
 fff3f50:	40f484b3          	sub	s1,s1,a5
 fff3f54:	00058a63          	beqz	a1,fff3f68 <f_lseek+0x24c>
 fff3f58:	0900006f          	j	fff3fe8 <f_lseek+0x2cc>
 fff3f5c:	00068493          	mv	s1,a3
 fff3f60:	00042a23          	sw	zero,20(s0)
 fff3f64:	fa049ce3          	bnez	s1,fff3f1c <f_lseek+0x200>
 fff3f68:	00000493          	li	s1,0
 fff3f6c:	01442783          	lw	a5,20(s0)
 fff3f70:	00c42703          	lw	a4,12(s0)
 fff3f74:	00f77a63          	bgeu	a4,a5,fff3f88 <f_lseek+0x26c>
 fff3f78:	01044703          	lbu	a4,16(s0)
 fff3f7c:	00f42623          	sw	a5,12(s0)
 fff3f80:	04076713          	ori	a4,a4,64
 fff3f84:	00e40823          	sb	a4,16(s0)
 fff3f88:	1ff7f793          	andi	a5,a5,511
 fff3f8c:	e2078ce3          	beqz	a5,fff3dc4 <f_lseek+0xa8>
 fff3f90:	01c42603          	lw	a2,28(s0)
 fff3f94:	e29608e3          	beq	a2,s1,fff3dc4 <f_lseek+0xa8>
 fff3f98:	01c12983          	lw	s3,28(sp)
 fff3f9c:	01040783          	lb	a5,16(s0)
 fff3fa0:	02c40593          	addi	a1,s0,44
 fff3fa4:	0019c503          	lbu	a0,1(s3)
 fff3fa8:	0207d263          	bgez	a5,fff3fcc <f_lseek+0x2b0>
 fff3fac:	00100693          	li	a3,1
 fff3fb0:	00b12623          	sw	a1,12(sp)
 fff3fb4:	308000ef          	jal	ra,fff42bc <disk_write>
 fff3fb8:	e40518e3          	bnez	a0,fff3e08 <f_lseek+0xec>
 fff3fbc:	01044783          	lbu	a5,16(s0)
 fff3fc0:	00c12583          	lw	a1,12(sp)
 fff3fc4:	07f7f793          	andi	a5,a5,127
 fff3fc8:	00f40823          	sb	a5,16(s0)
 fff3fcc:	0019c503          	lbu	a0,1(s3)
 fff3fd0:	00100693          	li	a3,1
 fff3fd4:	00048613          	mv	a2,s1
 fff3fd8:	f19ff06f          	j	fff3ef0 <f_lseek+0x1d4>
 fff3fdc:	00842583          	lw	a1,8(s0)
 fff3fe0:	04058263          	beqz	a1,fff4024 <f_lseek+0x308>
 fff3fe4:	00b42c23          	sw	a1,24(s0)
 fff3fe8:	fff00a93          	li	s5,-1
 fff3fec:	00100b13          	li	s6,1
 fff3ff0:	01442783          	lw	a5,20(s0)
 fff3ff4:	0499ee63          	bltu	s3,s1,fff4050 <f_lseek+0x334>
 fff3ff8:	01442783          	lw	a5,20(s0)
 fff3ffc:	009787b3          	add	a5,a5,s1
 fff4000:	00f42a23          	sw	a5,20(s0)
 fff4004:	1ff4f793          	andi	a5,s1,511
 fff4008:	f60780e3          	beqz	a5,fff3f68 <f_lseek+0x24c>
 fff400c:	000a0513          	mv	a0,s4
 fff4010:	875fd0ef          	jal	ra,fff1884 <_ZL9clst2sectP5FATFSm>
 fff4014:	da0502e3          	beqz	a0,fff3db8 <f_lseek+0x9c>
 fff4018:	0094d493          	srli	s1,s1,0x9
 fff401c:	00a484b3          	add	s1,s1,a0
 fff4020:	f4dff06f          	j	fff3f6c <f_lseek+0x250>
 fff4024:	00000593          	li	a1,0
 fff4028:	00040513          	mv	a0,s0
 fff402c:	c2cfe0ef          	jal	ra,fff2458 <_ZL12create_chainP7FFOBJIDm>
 fff4030:	00100793          	li	a5,1
 fff4034:	00050593          	mv	a1,a0
 fff4038:	d8f500e3          	beq	a0,a5,fff3db8 <f_lseek+0x9c>
 fff403c:	fff00793          	li	a5,-1
 fff4040:	dcf504e3          	beq	a0,a5,fff3e08 <f_lseek+0xec>
 fff4044:	00a42423          	sw	a0,8(s0)
 fff4048:	00a42c23          	sw	a0,24(s0)
 fff404c:	f09ff06f          	j	fff3f54 <f_lseek+0x238>
 fff4050:	00f987b3          	add	a5,s3,a5
 fff4054:	00f42a23          	sw	a5,20(s0)
 fff4058:	01044783          	lbu	a5,16(s0)
 fff405c:	41348bb3          	sub	s7,s1,s3
 fff4060:	0027f793          	andi	a5,a5,2
 fff4064:	00078e63          	beqz	a5,fff4080 <f_lseek+0x364>
 fff4068:	00040513          	mv	a0,s0
 fff406c:	becfe0ef          	jal	ra,fff2458 <_ZL12create_chainP7FFOBJIDm>
 fff4070:	00050493          	mv	s1,a0
 fff4074:	00051c63          	bnez	a0,fff408c <f_lseek+0x370>
 fff4078:	00000593          	li	a1,0
 fff407c:	f7dff06f          	j	fff3ff8 <f_lseek+0x2dc>
 fff4080:	00042503          	lw	a0,0(s0)
 fff4084:	a84fe0ef          	jal	ra,fff2308 <_ZL7get_fatP7FFOBJIDm.isra.0>
 fff4088:	00050493          	mv	s1,a0
 fff408c:	d7548ee3          	beq	s1,s5,fff3e08 <f_lseek+0xec>
 fff4090:	d29b74e3          	bgeu	s6,s1,fff3db8 <f_lseek+0x9c>
 fff4094:	01ca2783          	lw	a5,28(s4)
 fff4098:	d2f4f0e3          	bgeu	s1,a5,fff3db8 <f_lseek+0x9c>
 fff409c:	00942c23          	sw	s1,24(s0)
 fff40a0:	00048593          	mv	a1,s1
 fff40a4:	000b8493          	mv	s1,s7
 fff40a8:	f49ff06f          	j	fff3ff0 <f_lseek+0x2d4>
 fff40ac:	01100913          	li	s2,17
 fff40b0:	d15ff06f          	j	fff3dc4 <f_lseek+0xa8>

0fff40b4 <ff_uni2oem>:
 fff40b4:	07f00793          	li	a5,127
 fff40b8:	00050713          	mv	a4,a0
 fff40bc:	00a7e863          	bltu	a5,a0,fff40cc <ff_uni2oem+0x18>
 fff40c0:	01051513          	slli	a0,a0,0x10
 fff40c4:	01055513          	srli	a0,a0,0x10
 fff40c8:	00008067          	ret
 fff40cc:	000107b7          	lui	a5,0x10
 fff40d0:	00000513          	li	a0,0
 fff40d4:	04f77063          	bgeu	a4,a5,fff4114 <ff_uni2oem+0x60>
 fff40d8:	1b500793          	li	a5,437
 fff40dc:	02f59c63          	bne	a1,a5,fff4114 <ff_uni2oem+0x60>
 fff40e0:	00002697          	auipc	a3,0x2
 fff40e4:	08c68693          	addi	a3,a3,140 # fff616c <_ZL5uc437>
 fff40e8:	00000793          	li	a5,0
 fff40ec:	08000593          	li	a1,128
 fff40f0:	0006d603          	lhu	a2,0(a3)
 fff40f4:	00e60c63          	beq	a2,a4,fff410c <ff_uni2oem+0x58>
 fff40f8:	00178793          	addi	a5,a5,1 # 10001 <__stack_size+0xff01>
 fff40fc:	01079793          	slli	a5,a5,0x10
 fff4100:	0107d793          	srli	a5,a5,0x10
 fff4104:	00268693          	addi	a3,a3,2
 fff4108:	feb794e3          	bne	a5,a1,fff40f0 <ff_uni2oem+0x3c>
 fff410c:	08078513          	addi	a0,a5,128
 fff4110:	0ff57513          	zext.b	a0,a0
 fff4114:	00008067          	ret

0fff4118 <ff_oem2uni>:
 fff4118:	07f00793          	li	a5,127
 fff411c:	02a7f863          	bgeu	a5,a0,fff414c <ff_oem2uni+0x34>
 fff4120:	1b500793          	li	a5,437
 fff4124:	02f59263          	bne	a1,a5,fff4148 <ff_oem2uni+0x30>
 fff4128:	0ff00793          	li	a5,255
 fff412c:	00a7ee63          	bltu	a5,a0,fff4148 <ff_oem2uni+0x30>
 fff4130:	00002797          	auipc	a5,0x2
 fff4134:	f3c78793          	addi	a5,a5,-196 # fff606c <_ZZ11ff_wtoupperE4cvt1+0xf4>
 fff4138:	00151513          	slli	a0,a0,0x1
 fff413c:	00f50533          	add	a0,a0,a5
 fff4140:	00055503          	lhu	a0,0(a0)
 fff4144:	00008067          	ret
 fff4148:	00000513          	li	a0,0
 fff414c:	00008067          	ret

0fff4150 <ff_wtoupper>:
 fff4150:	000107b7          	lui	a5,0x10
 fff4154:	08f57063          	bgeu	a0,a5,fff41d4 <ff_wtoupper+0x84>
 fff4158:	01051793          	slli	a5,a0,0x10
 fff415c:	000016b7          	lui	a3,0x1
 fff4160:	0107d793          	srli	a5,a5,0x10
 fff4164:	00002717          	auipc	a4,0x2
 fff4168:	e1470713          	addi	a4,a4,-492 # fff5f78 <_ZZ11ff_wtoupperE4cvt1>
 fff416c:	00d56663          	bltu	a0,a3,fff4178 <ff_wtoupper+0x28>
 fff4170:	00002717          	auipc	a4,0x2
 fff4174:	d4c70713          	addi	a4,a4,-692 # fff5ebc <_ZZ11ff_wtoupperE4cvt2>
 fff4178:	00075683          	lhu	a3,0(a4)
 fff417c:	04068a63          	beqz	a3,fff41d0 <ff_wtoupper+0x80>
 fff4180:	04d7e863          	bltu	a5,a3,fff41d0 <ff_wtoupper+0x80>
 fff4184:	00275603          	lhu	a2,2(a4)
 fff4188:	00470713          	addi	a4,a4,4
 fff418c:	00865593          	srli	a1,a2,0x8
 fff4190:	0ff67613          	zext.b	a2,a2
 fff4194:	00d60833          	add	a6,a2,a3
 fff4198:	09055c63          	bge	a0,a6,fff4230 <ff_wtoupper+0xe0>
 fff419c:	00800613          	li	a2,8
 fff41a0:	02b66863          	bltu	a2,a1,fff41d0 <ff_wtoupper+0x80>
 fff41a4:	00002817          	auipc	a6,0x2
 fff41a8:	cf480813          	addi	a6,a6,-780 # fff5e98 <_ZL6LfnOfs+0x1c>
 fff41ac:	00259593          	slli	a1,a1,0x2
 fff41b0:	010585b3          	add	a1,a1,a6
 fff41b4:	0005a603          	lw	a2,0(a1)
 fff41b8:	01060633          	add	a2,a2,a6
 fff41bc:	00060067          	jr	a2
 fff41c0:	40d50533          	sub	a0,a0,a3
 fff41c4:	00151513          	slli	a0,a0,0x1
 fff41c8:	00a70733          	add	a4,a4,a0
 fff41cc:	00075783          	lhu	a5,0(a4)
 fff41d0:	00078513          	mv	a0,a5
 fff41d4:	00008067          	ret
 fff41d8:	40d786b3          	sub	a3,a5,a3
 fff41dc:	0016f693          	andi	a3,a3,1
 fff41e0:	40d787b3          	sub	a5,a5,a3
 fff41e4:	01079793          	slli	a5,a5,0x10
 fff41e8:	0107d793          	srli	a5,a5,0x10
 fff41ec:	fe5ff06f          	j	fff41d0 <ff_wtoupper+0x80>
 fff41f0:	ff078793          	addi	a5,a5,-16 # fff0 <__stack_size+0xfef0>
 fff41f4:	ff1ff06f          	j	fff41e4 <ff_wtoupper+0x94>
 fff41f8:	fe078793          	addi	a5,a5,-32
 fff41fc:	fe9ff06f          	j	fff41e4 <ff_wtoupper+0x94>
 fff4200:	fd078793          	addi	a5,a5,-48
 fff4204:	fe1ff06f          	j	fff41e4 <ff_wtoupper+0x94>
 fff4208:	fe678793          	addi	a5,a5,-26
 fff420c:	fd9ff06f          	j	fff41e4 <ff_wtoupper+0x94>
 fff4210:	00878793          	addi	a5,a5,8
 fff4214:	fd1ff06f          	j	fff41e4 <ff_wtoupper+0x94>
 fff4218:	fb078793          	addi	a5,a5,-80
 fff421c:	fc9ff06f          	j	fff41e4 <ff_wtoupper+0x94>
 fff4220:	ffffe737          	lui	a4,0xffffe
 fff4224:	3a070713          	addi	a4,a4,928 # ffffe3a0 <__BSS_END__$+0xf0005638>
 fff4228:	00e787b3          	add	a5,a5,a4
 fff422c:	fb9ff06f          	j	fff41e4 <ff_wtoupper+0x94>
 fff4230:	f40594e3          	bnez	a1,fff4178 <ff_wtoupper+0x28>
 fff4234:	00161613          	slli	a2,a2,0x1
 fff4238:	00c70733          	add	a4,a4,a2
 fff423c:	f3dff06f          	j	fff4178 <ff_wtoupper+0x28>

0fff4240 <disk_status>:
 fff4240:	fff50513          	addi	a0,a0,-1
 fff4244:	00a03533          	snez	a0,a0
 fff4248:	00008067          	ret

0fff424c <disk_initialize>:
 fff424c:	00100793          	li	a5,1
 fff4250:	02f51263          	bne	a0,a5,fff4274 <disk_initialize+0x28>
 fff4254:	ff010113          	addi	sp,sp,-16
 fff4258:	00112623          	sw	ra,12(sp)
 fff425c:	db4fd0ef          	jal	ra,fff1810 <_Z13SDCardStartupv>
 fff4260:	00c12083          	lw	ra,12(sp)
 fff4264:	00150513          	addi	a0,a0,1
 fff4268:	00153513          	seqz	a0,a0
 fff426c:	01010113          	addi	sp,sp,16
 fff4270:	00008067          	ret
 fff4274:	00100513          	li	a0,1
 fff4278:	00008067          	ret

0fff427c <disk_read>:
 fff427c:	00100713          	li	a4,1
 fff4280:	00e50a63          	beq	a0,a4,fff4294 <disk_read+0x18>
 fff4284:	0fd57513          	andi	a0,a0,253
 fff4288:	00a03533          	snez	a0,a0
 fff428c:	00350513          	addi	a0,a0,3
 fff4290:	00008067          	ret
 fff4294:	ff010113          	addi	sp,sp,-16
 fff4298:	00058513          	mv	a0,a1
 fff429c:	00068593          	mv	a1,a3
 fff42a0:	00112623          	sw	ra,12(sp)
 fff42a4:	c1cfd0ef          	jal	ra,fff16c0 <_Z20SDReadMultipleBlocksPhmm>
 fff42a8:	00c12083          	lw	ra,12(sp)
 fff42ac:	00150513          	addi	a0,a0,1
 fff42b0:	00153513          	seqz	a0,a0
 fff42b4:	01010113          	addi	sp,sp,16
 fff42b8:	00008067          	ret

0fff42bc <disk_write>:
 fff42bc:	00100713          	li	a4,1
 fff42c0:	00e50a63          	beq	a0,a4,fff42d4 <disk_write+0x18>
 fff42c4:	0fd57513          	andi	a0,a0,253
 fff42c8:	00a03533          	snez	a0,a0
 fff42cc:	00350513          	addi	a0,a0,3
 fff42d0:	00008067          	ret
 fff42d4:	ff010113          	addi	sp,sp,-16
 fff42d8:	00058513          	mv	a0,a1
 fff42dc:	00068593          	mv	a1,a3
 fff42e0:	00112623          	sw	ra,12(sp)
 fff42e4:	c84fd0ef          	jal	ra,fff1768 <_Z21SDWriteMultipleBlocksPKhmm>
 fff42e8:	00c12083          	lw	ra,12(sp)
 fff42ec:	00150513          	addi	a0,a0,1
 fff42f0:	00153513          	seqz	a0,a0
 fff42f4:	01010113          	addi	sp,sp,16
 fff42f8:	00008067          	ret

0fff42fc <disk_ioctl>:
 fff42fc:	00353513          	sltiu	a0,a0,3
 fff4300:	00154513          	xori	a0,a0,1
 fff4304:	00251513          	slli	a0,a0,0x2
 fff4308:	00008067          	ret

0fff430c <atexit>:
 fff430c:	00050593          	mv	a1,a0
 fff4310:	00000693          	li	a3,0
 fff4314:	00000613          	li	a2,0
 fff4318:	00000513          	li	a0,0
 fff431c:	5290006f          	j	fff5044 <__register_exitproc>

0fff4320 <__libc_fini_array>:
 fff4320:	ff010113          	addi	sp,sp,-16
 fff4324:	00812423          	sw	s0,8(sp)
 fff4328:	0fff67b7          	lui	a5,0xfff6
 fff432c:	0fff6437          	lui	s0,0xfff6
 fff4330:	26c78793          	addi	a5,a5,620 # fff626c <_etext>
 fff4334:	26c40413          	addi	s0,s0,620 # fff626c <_etext>
 fff4338:	40f40433          	sub	s0,s0,a5
 fff433c:	00912223          	sw	s1,4(sp)
 fff4340:	00112623          	sw	ra,12(sp)
 fff4344:	40245493          	srai	s1,s0,0x2
 fff4348:	02048063          	beqz	s1,fff4368 <__libc_fini_array+0x48>
 fff434c:	ffc40413          	addi	s0,s0,-4
 fff4350:	00f40433          	add	s0,s0,a5
 fff4354:	00042783          	lw	a5,0(s0)
 fff4358:	fff48493          	addi	s1,s1,-1
 fff435c:	ffc40413          	addi	s0,s0,-4
 fff4360:	000780e7          	jalr	a5
 fff4364:	fe0498e3          	bnez	s1,fff4354 <__libc_fini_array+0x34>
 fff4368:	00c12083          	lw	ra,12(sp)
 fff436c:	00812403          	lw	s0,8(sp)
 fff4370:	00412483          	lw	s1,4(sp)
 fff4374:	01010113          	addi	sp,sp,16
 fff4378:	00008067          	ret

0fff437c <__libc_init_array>:
 fff437c:	ff010113          	addi	sp,sp,-16
 fff4380:	00812423          	sw	s0,8(sp)
 fff4384:	0fff67b7          	lui	a5,0xfff6
 fff4388:	0fff6437          	lui	s0,0xfff6
 fff438c:	01212023          	sw	s2,0(sp)
 fff4390:	26c78793          	addi	a5,a5,620 # fff626c <_etext>
 fff4394:	26c40713          	addi	a4,s0,620 # fff626c <_etext>
 fff4398:	00112623          	sw	ra,12(sp)
 fff439c:	00912223          	sw	s1,4(sp)
 fff43a0:	40e78933          	sub	s2,a5,a4
 fff43a4:	02e78263          	beq	a5,a4,fff43c8 <__libc_init_array+0x4c>
 fff43a8:	40295913          	srai	s2,s2,0x2
 fff43ac:	26c40413          	addi	s0,s0,620
 fff43b0:	00000493          	li	s1,0
 fff43b4:	00042783          	lw	a5,0(s0)
 fff43b8:	00148493          	addi	s1,s1,1
 fff43bc:	00440413          	addi	s0,s0,4
 fff43c0:	000780e7          	jalr	a5
 fff43c4:	ff24e8e3          	bltu	s1,s2,fff43b4 <__libc_init_array+0x38>
 fff43c8:	0fff6437          	lui	s0,0xfff6
 fff43cc:	0fff67b7          	lui	a5,0xfff6
 fff43d0:	26c78793          	addi	a5,a5,620 # fff626c <_etext>
 fff43d4:	26c40713          	addi	a4,s0,620 # fff626c <_etext>
 fff43d8:	40e78933          	sub	s2,a5,a4
 fff43dc:	40295913          	srai	s2,s2,0x2
 fff43e0:	02e78063          	beq	a5,a4,fff4400 <__libc_init_array+0x84>
 fff43e4:	26c40413          	addi	s0,s0,620
 fff43e8:	00000493          	li	s1,0
 fff43ec:	00042783          	lw	a5,0(s0)
 fff43f0:	00148493          	addi	s1,s1,1
 fff43f4:	00440413          	addi	s0,s0,4
 fff43f8:	000780e7          	jalr	a5
 fff43fc:	ff24e8e3          	bltu	s1,s2,fff43ec <__libc_init_array+0x70>
 fff4400:	00c12083          	lw	ra,12(sp)
 fff4404:	00812403          	lw	s0,8(sp)
 fff4408:	00412483          	lw	s1,4(sp)
 fff440c:	00012903          	lw	s2,0(sp)
 fff4410:	01010113          	addi	sp,sp,16
 fff4414:	00008067          	ret

0fff4418 <malloc>:
 fff4418:	0fff87b7          	lui	a5,0xfff8
 fff441c:	00050593          	mv	a1,a0
 fff4420:	87c7a503          	lw	a0,-1924(a5) # fff787c <_impure_ptr>
 fff4424:	0140006f          	j	fff4438 <_malloc_r>

0fff4428 <free>:
 fff4428:	0fff87b7          	lui	a5,0xfff8
 fff442c:	00050593          	mv	a1,a0
 fff4430:	87c7a503          	lw	a0,-1924(a5) # fff787c <_impure_ptr>
 fff4434:	5ed0006f          	j	fff5220 <_free_r>

0fff4438 <_malloc_r>:
 fff4438:	fd010113          	addi	sp,sp,-48
 fff443c:	01312e23          	sw	s3,28(sp)
 fff4440:	02112623          	sw	ra,44(sp)
 fff4444:	02812423          	sw	s0,40(sp)
 fff4448:	02912223          	sw	s1,36(sp)
 fff444c:	03212023          	sw	s2,32(sp)
 fff4450:	01412c23          	sw	s4,24(sp)
 fff4454:	01512a23          	sw	s5,20(sp)
 fff4458:	01612823          	sw	s6,16(sp)
 fff445c:	01712623          	sw	s7,12(sp)
 fff4460:	01812423          	sw	s8,8(sp)
 fff4464:	01912223          	sw	s9,4(sp)
 fff4468:	00b58793          	addi	a5,a1,11
 fff446c:	01600713          	li	a4,22
 fff4470:	00050993          	mv	s3,a0
 fff4474:	08f76e63          	bltu	a4,a5,fff4510 <_malloc_r+0xd8>
 fff4478:	01000793          	li	a5,16
 fff447c:	22b7e063          	bltu	a5,a1,fff469c <_malloc_r+0x264>
 fff4480:	16d000ef          	jal	ra,fff4dec <__malloc_lock>
 fff4484:	01000493          	li	s1,16
 fff4488:	01800793          	li	a5,24
 fff448c:	00200593          	li	a1,2
 fff4490:	0fff7937          	lui	s2,0xfff7
 fff4494:	42890913          	addi	s2,s2,1064 # fff7428 <__malloc_av_>
 fff4498:	00f907b3          	add	a5,s2,a5
 fff449c:	0047a403          	lw	s0,4(a5)
 fff44a0:	ff878713          	addi	a4,a5,-8
 fff44a4:	30e40e63          	beq	s0,a4,fff47c0 <_malloc_r+0x388>
 fff44a8:	00442783          	lw	a5,4(s0)
 fff44ac:	00c42683          	lw	a3,12(s0)
 fff44b0:	00842603          	lw	a2,8(s0)
 fff44b4:	ffc7f793          	andi	a5,a5,-4
 fff44b8:	00f407b3          	add	a5,s0,a5
 fff44bc:	0047a703          	lw	a4,4(a5)
 fff44c0:	00d62623          	sw	a3,12(a2)
 fff44c4:	00c6a423          	sw	a2,8(a3) # 1008 <__stack_size+0xf08>
 fff44c8:	00176713          	ori	a4,a4,1
 fff44cc:	00098513          	mv	a0,s3
 fff44d0:	00e7a223          	sw	a4,4(a5)
 fff44d4:	11d000ef          	jal	ra,fff4df0 <__malloc_unlock>
 fff44d8:	00840513          	addi	a0,s0,8
 fff44dc:	02c12083          	lw	ra,44(sp)
 fff44e0:	02812403          	lw	s0,40(sp)
 fff44e4:	02412483          	lw	s1,36(sp)
 fff44e8:	02012903          	lw	s2,32(sp)
 fff44ec:	01c12983          	lw	s3,28(sp)
 fff44f0:	01812a03          	lw	s4,24(sp)
 fff44f4:	01412a83          	lw	s5,20(sp)
 fff44f8:	01012b03          	lw	s6,16(sp)
 fff44fc:	00c12b83          	lw	s7,12(sp)
 fff4500:	00812c03          	lw	s8,8(sp)
 fff4504:	00412c83          	lw	s9,4(sp)
 fff4508:	03010113          	addi	sp,sp,48
 fff450c:	00008067          	ret
 fff4510:	ff87f493          	andi	s1,a5,-8
 fff4514:	1807c463          	bltz	a5,fff469c <_malloc_r+0x264>
 fff4518:	18b4e263          	bltu	s1,a1,fff469c <_malloc_r+0x264>
 fff451c:	0d1000ef          	jal	ra,fff4dec <__malloc_lock>
 fff4520:	1f700793          	li	a5,503
 fff4524:	3a97f863          	bgeu	a5,s1,fff48d4 <_malloc_r+0x49c>
 fff4528:	0094d793          	srli	a5,s1,0x9
 fff452c:	18078063          	beqz	a5,fff46ac <_malloc_r+0x274>
 fff4530:	00400713          	li	a4,4
 fff4534:	2ef76e63          	bltu	a4,a5,fff4830 <_malloc_r+0x3f8>
 fff4538:	0064d793          	srli	a5,s1,0x6
 fff453c:	03978593          	addi	a1,a5,57
 fff4540:	03878513          	addi	a0,a5,56
 fff4544:	00359693          	slli	a3,a1,0x3
 fff4548:	0fff7937          	lui	s2,0xfff7
 fff454c:	42890913          	addi	s2,s2,1064 # fff7428 <__malloc_av_>
 fff4550:	00d906b3          	add	a3,s2,a3
 fff4554:	0046a403          	lw	s0,4(a3)
 fff4558:	ff868693          	addi	a3,a3,-8
 fff455c:	02868663          	beq	a3,s0,fff4588 <_malloc_r+0x150>
 fff4560:	00f00613          	li	a2,15
 fff4564:	0100006f          	j	fff4574 <_malloc_r+0x13c>
 fff4568:	24075663          	bgez	a4,fff47b4 <_malloc_r+0x37c>
 fff456c:	00c42403          	lw	s0,12(s0)
 fff4570:	00868c63          	beq	a3,s0,fff4588 <_malloc_r+0x150>
 fff4574:	00442783          	lw	a5,4(s0)
 fff4578:	ffc7f793          	andi	a5,a5,-4
 fff457c:	40978733          	sub	a4,a5,s1
 fff4580:	fee654e3          	bge	a2,a4,fff4568 <_malloc_r+0x130>
 fff4584:	00050593          	mv	a1,a0
 fff4588:	01092403          	lw	s0,16(s2)
 fff458c:	0fff7837          	lui	a6,0xfff7
 fff4590:	43080813          	addi	a6,a6,1072 # fff7430 <__malloc_av_+0x8>
 fff4594:	1f040863          	beq	s0,a6,fff4784 <_malloc_r+0x34c>
 fff4598:	00442783          	lw	a5,4(s0)
 fff459c:	00f00693          	li	a3,15
 fff45a0:	ffc7f793          	andi	a5,a5,-4
 fff45a4:	40978733          	sub	a4,a5,s1
 fff45a8:	32e6cc63          	blt	a3,a4,fff48e0 <_malloc_r+0x4a8>
 fff45ac:	01092a23          	sw	a6,20(s2)
 fff45b0:	01092823          	sw	a6,16(s2)
 fff45b4:	30075063          	bgez	a4,fff48b4 <_malloc_r+0x47c>
 fff45b8:	1ff00713          	li	a4,511
 fff45bc:	00492503          	lw	a0,4(s2)
 fff45c0:	20f76863          	bltu	a4,a5,fff47d0 <_malloc_r+0x398>
 fff45c4:	ff87f713          	andi	a4,a5,-8
 fff45c8:	00870713          	addi	a4,a4,8
 fff45cc:	00e90733          	add	a4,s2,a4
 fff45d0:	00072683          	lw	a3,0(a4)
 fff45d4:	0057d613          	srli	a2,a5,0x5
 fff45d8:	00100793          	li	a5,1
 fff45dc:	00c797b3          	sll	a5,a5,a2
 fff45e0:	00f56533          	or	a0,a0,a5
 fff45e4:	ff870793          	addi	a5,a4,-8
 fff45e8:	00f42623          	sw	a5,12(s0)
 fff45ec:	00d42423          	sw	a3,8(s0)
 fff45f0:	00a92223          	sw	a0,4(s2)
 fff45f4:	00872023          	sw	s0,0(a4)
 fff45f8:	0086a623          	sw	s0,12(a3)
 fff45fc:	4025d793          	srai	a5,a1,0x2
 fff4600:	00100613          	li	a2,1
 fff4604:	00f61633          	sll	a2,a2,a5
 fff4608:	0ac56a63          	bltu	a0,a2,fff46bc <_malloc_r+0x284>
 fff460c:	00a677b3          	and	a5,a2,a0
 fff4610:	02079463          	bnez	a5,fff4638 <_malloc_r+0x200>
 fff4614:	00161613          	slli	a2,a2,0x1
 fff4618:	ffc5f593          	andi	a1,a1,-4
 fff461c:	00a677b3          	and	a5,a2,a0
 fff4620:	00458593          	addi	a1,a1,4
 fff4624:	00079a63          	bnez	a5,fff4638 <_malloc_r+0x200>
 fff4628:	00161613          	slli	a2,a2,0x1
 fff462c:	00a677b3          	and	a5,a2,a0
 fff4630:	00458593          	addi	a1,a1,4
 fff4634:	fe078ae3          	beqz	a5,fff4628 <_malloc_r+0x1f0>
 fff4638:	00f00893          	li	a7,15
 fff463c:	00359313          	slli	t1,a1,0x3
 fff4640:	00690333          	add	t1,s2,t1
 fff4644:	00030513          	mv	a0,t1
 fff4648:	00c52783          	lw	a5,12(a0)
 fff464c:	00058e13          	mv	t3,a1
 fff4650:	20f50263          	beq	a0,a5,fff4854 <_malloc_r+0x41c>
 fff4654:	0047a703          	lw	a4,4(a5)
 fff4658:	00078413          	mv	s0,a5
 fff465c:	00c7a783          	lw	a5,12(a5)
 fff4660:	ffc77713          	andi	a4,a4,-4
 fff4664:	409706b3          	sub	a3,a4,s1
 fff4668:	20d8c263          	blt	a7,a3,fff486c <_malloc_r+0x434>
 fff466c:	fe06c2e3          	bltz	a3,fff4650 <_malloc_r+0x218>
 fff4670:	00e40733          	add	a4,s0,a4
 fff4674:	00472683          	lw	a3,4(a4)
 fff4678:	00842603          	lw	a2,8(s0)
 fff467c:	00098513          	mv	a0,s3
 fff4680:	0016e693          	ori	a3,a3,1
 fff4684:	00d72223          	sw	a3,4(a4)
 fff4688:	00f62623          	sw	a5,12(a2)
 fff468c:	00c7a423          	sw	a2,8(a5)
 fff4690:	760000ef          	jal	ra,fff4df0 <__malloc_unlock>
 fff4694:	00840513          	addi	a0,s0,8
 fff4698:	e45ff06f          	j	fff44dc <_malloc_r+0xa4>
 fff469c:	00c00793          	li	a5,12
 fff46a0:	00f9a023          	sw	a5,0(s3)
 fff46a4:	00000513          	li	a0,0
 fff46a8:	e35ff06f          	j	fff44dc <_malloc_r+0xa4>
 fff46ac:	20000693          	li	a3,512
 fff46b0:	04000593          	li	a1,64
 fff46b4:	03f00513          	li	a0,63
 fff46b8:	e91ff06f          	j	fff4548 <_malloc_r+0x110>
 fff46bc:	00892403          	lw	s0,8(s2)
 fff46c0:	00442783          	lw	a5,4(s0)
 fff46c4:	ffc7fb13          	andi	s6,a5,-4
 fff46c8:	009b6863          	bltu	s6,s1,fff46d8 <_malloc_r+0x2a0>
 fff46cc:	409b0733          	sub	a4,s6,s1
 fff46d0:	00f00793          	li	a5,15
 fff46d4:	0ae7cc63          	blt	a5,a4,fff478c <_malloc_r+0x354>
 fff46d8:	0fff87b7          	lui	a5,0xfff8
 fff46dc:	0fff8cb7          	lui	s9,0xfff8
 fff46e0:	8947aa83          	lw	s5,-1900(a5) # fff7894 <__malloc_top_pad>
 fff46e4:	880ca703          	lw	a4,-1920(s9) # fff7880 <__malloc_sbrk_base>
 fff46e8:	fff00793          	li	a5,-1
 fff46ec:	01640a33          	add	s4,s0,s6
 fff46f0:	01548ab3          	add	s5,s1,s5
 fff46f4:	3af70c63          	beq	a4,a5,fff4aac <_malloc_r+0x674>
 fff46f8:	000017b7          	lui	a5,0x1
 fff46fc:	00f78793          	addi	a5,a5,15 # 100f <__stack_size+0xf0f>
 fff4700:	00fa8ab3          	add	s5,s5,a5
 fff4704:	fffff7b7          	lui	a5,0xfffff
 fff4708:	00fafab3          	and	s5,s5,a5
 fff470c:	000a8593          	mv	a1,s5
 fff4710:	00098513          	mv	a0,s3
 fff4714:	6e0000ef          	jal	ra,fff4df4 <_sbrk_r>
 fff4718:	fff00793          	li	a5,-1
 fff471c:	00050b93          	mv	s7,a0
 fff4720:	20f50a63          	beq	a0,a5,fff4934 <_malloc_r+0x4fc>
 fff4724:	21456663          	bltu	a0,s4,fff4930 <_malloc_r+0x4f8>
 fff4728:	0fff9c37          	lui	s8,0xfff9
 fff472c:	d40c0c13          	addi	s8,s8,-704 # fff8d40 <__malloc_current_mallinfo>
 fff4730:	000c2583          	lw	a1,0(s8)
 fff4734:	00ba85b3          	add	a1,s5,a1
 fff4738:	00bc2023          	sw	a1,0(s8)
 fff473c:	00058713          	mv	a4,a1
 fff4740:	28aa1c63          	bne	s4,a0,fff49d8 <_malloc_r+0x5a0>
 fff4744:	01451793          	slli	a5,a0,0x14
 fff4748:	28079863          	bnez	a5,fff49d8 <_malloc_r+0x5a0>
 fff474c:	00892b83          	lw	s7,8(s2)
 fff4750:	015b07b3          	add	a5,s6,s5
 fff4754:	0017e793          	ori	a5,a5,1
 fff4758:	00fba223          	sw	a5,4(s7)
 fff475c:	0fff8737          	lui	a4,0xfff8
 fff4760:	89072683          	lw	a3,-1904(a4) # fff7890 <__malloc_max_sbrked_mem>
 fff4764:	00b6f463          	bgeu	a3,a1,fff476c <_malloc_r+0x334>
 fff4768:	88b72823          	sw	a1,-1904(a4)
 fff476c:	0fff8737          	lui	a4,0xfff8
 fff4770:	88c72683          	lw	a3,-1908(a4) # fff788c <__malloc_max_total_mem>
 fff4774:	00b6f463          	bgeu	a3,a1,fff477c <_malloc_r+0x344>
 fff4778:	88b72623          	sw	a1,-1908(a4)
 fff477c:	000b8413          	mv	s0,s7
 fff4780:	1bc0006f          	j	fff493c <_malloc_r+0x504>
 fff4784:	00492503          	lw	a0,4(s2)
 fff4788:	e75ff06f          	j	fff45fc <_malloc_r+0x1c4>
 fff478c:	0014e793          	ori	a5,s1,1
 fff4790:	00f42223          	sw	a5,4(s0)
 fff4794:	009404b3          	add	s1,s0,s1
 fff4798:	00992423          	sw	s1,8(s2)
 fff479c:	00176713          	ori	a4,a4,1
 fff47a0:	00098513          	mv	a0,s3
 fff47a4:	00e4a223          	sw	a4,4(s1)
 fff47a8:	648000ef          	jal	ra,fff4df0 <__malloc_unlock>
 fff47ac:	00840513          	addi	a0,s0,8
 fff47b0:	d2dff06f          	j	fff44dc <_malloc_r+0xa4>
 fff47b4:	00c42683          	lw	a3,12(s0)
 fff47b8:	00842603          	lw	a2,8(s0)
 fff47bc:	cfdff06f          	j	fff44b8 <_malloc_r+0x80>
 fff47c0:	00c7a403          	lw	s0,12(a5) # fffff00c <__BSS_END__$+0xf00062a4>
 fff47c4:	00258593          	addi	a1,a1,2
 fff47c8:	dc8780e3          	beq	a5,s0,fff4588 <_malloc_r+0x150>
 fff47cc:	cddff06f          	j	fff44a8 <_malloc_r+0x70>
 fff47d0:	0097d713          	srli	a4,a5,0x9
 fff47d4:	00400693          	li	a3,4
 fff47d8:	14e6f263          	bgeu	a3,a4,fff491c <_malloc_r+0x4e4>
 fff47dc:	01400693          	li	a3,20
 fff47e0:	30e6ec63          	bltu	a3,a4,fff4af8 <_malloc_r+0x6c0>
 fff47e4:	05c70613          	addi	a2,a4,92
 fff47e8:	05b70693          	addi	a3,a4,91
 fff47ec:	00361613          	slli	a2,a2,0x3
 fff47f0:	00c90633          	add	a2,s2,a2
 fff47f4:	00062703          	lw	a4,0(a2)
 fff47f8:	ff860613          	addi	a2,a2,-8
 fff47fc:	00e61863          	bne	a2,a4,fff480c <_malloc_r+0x3d4>
 fff4800:	2b40006f          	j	fff4ab4 <_malloc_r+0x67c>
 fff4804:	00872703          	lw	a4,8(a4)
 fff4808:	00e60863          	beq	a2,a4,fff4818 <_malloc_r+0x3e0>
 fff480c:	00472683          	lw	a3,4(a4)
 fff4810:	ffc6f693          	andi	a3,a3,-4
 fff4814:	fed7e8e3          	bltu	a5,a3,fff4804 <_malloc_r+0x3cc>
 fff4818:	00c72603          	lw	a2,12(a4)
 fff481c:	00c42623          	sw	a2,12(s0)
 fff4820:	00e42423          	sw	a4,8(s0)
 fff4824:	00862423          	sw	s0,8(a2)
 fff4828:	00872623          	sw	s0,12(a4)
 fff482c:	dd1ff06f          	j	fff45fc <_malloc_r+0x1c4>
 fff4830:	01400713          	li	a4,20
 fff4834:	12f77663          	bgeu	a4,a5,fff4960 <_malloc_r+0x528>
 fff4838:	05400713          	li	a4,84
 fff483c:	2cf76c63          	bltu	a4,a5,fff4b14 <_malloc_r+0x6dc>
 fff4840:	00c4d793          	srli	a5,s1,0xc
 fff4844:	06f78593          	addi	a1,a5,111
 fff4848:	06e78513          	addi	a0,a5,110
 fff484c:	00359693          	slli	a3,a1,0x3
 fff4850:	cf9ff06f          	j	fff4548 <_malloc_r+0x110>
 fff4854:	001e0e13          	addi	t3,t3,1
 fff4858:	003e7793          	andi	a5,t3,3
 fff485c:	00850513          	addi	a0,a0,8
 fff4860:	10078e63          	beqz	a5,fff497c <_malloc_r+0x544>
 fff4864:	00c52783          	lw	a5,12(a0)
 fff4868:	de9ff06f          	j	fff4650 <_malloc_r+0x218>
 fff486c:	00842603          	lw	a2,8(s0)
 fff4870:	0014e593          	ori	a1,s1,1
 fff4874:	00b42223          	sw	a1,4(s0)
 fff4878:	00f62623          	sw	a5,12(a2)
 fff487c:	00c7a423          	sw	a2,8(a5)
 fff4880:	009404b3          	add	s1,s0,s1
 fff4884:	00992a23          	sw	s1,20(s2)
 fff4888:	00992823          	sw	s1,16(s2)
 fff488c:	0016e793          	ori	a5,a3,1
 fff4890:	0104a623          	sw	a6,12(s1)
 fff4894:	0104a423          	sw	a6,8(s1)
 fff4898:	00f4a223          	sw	a5,4(s1)
 fff489c:	00e40733          	add	a4,s0,a4
 fff48a0:	00098513          	mv	a0,s3
 fff48a4:	00d72023          	sw	a3,0(a4)
 fff48a8:	548000ef          	jal	ra,fff4df0 <__malloc_unlock>
 fff48ac:	00840513          	addi	a0,s0,8
 fff48b0:	c2dff06f          	j	fff44dc <_malloc_r+0xa4>
 fff48b4:	00f407b3          	add	a5,s0,a5
 fff48b8:	0047a703          	lw	a4,4(a5)
 fff48bc:	00098513          	mv	a0,s3
 fff48c0:	00176713          	ori	a4,a4,1
 fff48c4:	00e7a223          	sw	a4,4(a5)
 fff48c8:	528000ef          	jal	ra,fff4df0 <__malloc_unlock>
 fff48cc:	00840513          	addi	a0,s0,8
 fff48d0:	c0dff06f          	j	fff44dc <_malloc_r+0xa4>
 fff48d4:	0034d593          	srli	a1,s1,0x3
 fff48d8:	00848793          	addi	a5,s1,8
 fff48dc:	bb5ff06f          	j	fff4490 <_malloc_r+0x58>
 fff48e0:	0014e693          	ori	a3,s1,1
 fff48e4:	00d42223          	sw	a3,4(s0)
 fff48e8:	009404b3          	add	s1,s0,s1
 fff48ec:	00992a23          	sw	s1,20(s2)
 fff48f0:	00992823          	sw	s1,16(s2)
 fff48f4:	00176693          	ori	a3,a4,1
 fff48f8:	0104a623          	sw	a6,12(s1)
 fff48fc:	0104a423          	sw	a6,8(s1)
 fff4900:	00d4a223          	sw	a3,4(s1)
 fff4904:	00f407b3          	add	a5,s0,a5
 fff4908:	00098513          	mv	a0,s3
 fff490c:	00e7a023          	sw	a4,0(a5)
 fff4910:	4e0000ef          	jal	ra,fff4df0 <__malloc_unlock>
 fff4914:	00840513          	addi	a0,s0,8
 fff4918:	bc5ff06f          	j	fff44dc <_malloc_r+0xa4>
 fff491c:	0067d713          	srli	a4,a5,0x6
 fff4920:	03970613          	addi	a2,a4,57
 fff4924:	03870693          	addi	a3,a4,56
 fff4928:	00361613          	slli	a2,a2,0x3
 fff492c:	ec5ff06f          	j	fff47f0 <_malloc_r+0x3b8>
 fff4930:	09240a63          	beq	s0,s2,fff49c4 <_malloc_r+0x58c>
 fff4934:	00892403          	lw	s0,8(s2)
 fff4938:	00442783          	lw	a5,4(s0)
 fff493c:	ffc7f793          	andi	a5,a5,-4
 fff4940:	40978733          	sub	a4,a5,s1
 fff4944:	0097e663          	bltu	a5,s1,fff4950 <_malloc_r+0x518>
 fff4948:	00f00793          	li	a5,15
 fff494c:	e4e7c0e3          	blt	a5,a4,fff478c <_malloc_r+0x354>
 fff4950:	00098513          	mv	a0,s3
 fff4954:	49c000ef          	jal	ra,fff4df0 <__malloc_unlock>
 fff4958:	00000513          	li	a0,0
 fff495c:	b81ff06f          	j	fff44dc <_malloc_r+0xa4>
 fff4960:	05c78593          	addi	a1,a5,92
 fff4964:	05b78513          	addi	a0,a5,91
 fff4968:	00359693          	slli	a3,a1,0x3
 fff496c:	bddff06f          	j	fff4548 <_malloc_r+0x110>
 fff4970:	00832783          	lw	a5,8(t1)
 fff4974:	fff58593          	addi	a1,a1,-1
 fff4978:	24679863          	bne	a5,t1,fff4bc8 <_malloc_r+0x790>
 fff497c:	0035f793          	andi	a5,a1,3
 fff4980:	ff830313          	addi	t1,t1,-8
 fff4984:	fe0796e3          	bnez	a5,fff4970 <_malloc_r+0x538>
 fff4988:	00492703          	lw	a4,4(s2)
 fff498c:	fff64793          	not	a5,a2
 fff4990:	00e7f7b3          	and	a5,a5,a4
 fff4994:	00f92223          	sw	a5,4(s2)
 fff4998:	00161613          	slli	a2,a2,0x1
 fff499c:	d2c7e0e3          	bltu	a5,a2,fff46bc <_malloc_r+0x284>
 fff49a0:	d0060ee3          	beqz	a2,fff46bc <_malloc_r+0x284>
 fff49a4:	00f67733          	and	a4,a2,a5
 fff49a8:	00071a63          	bnez	a4,fff49bc <_malloc_r+0x584>
 fff49ac:	00161613          	slli	a2,a2,0x1
 fff49b0:	00f67733          	and	a4,a2,a5
 fff49b4:	004e0e13          	addi	t3,t3,4
 fff49b8:	fe070ae3          	beqz	a4,fff49ac <_malloc_r+0x574>
 fff49bc:	000e0593          	mv	a1,t3
 fff49c0:	c7dff06f          	j	fff463c <_malloc_r+0x204>
 fff49c4:	0fff9c37          	lui	s8,0xfff9
 fff49c8:	d40c0c13          	addi	s8,s8,-704 # fff8d40 <__malloc_current_mallinfo>
 fff49cc:	000c2703          	lw	a4,0(s8)
 fff49d0:	00ea8733          	add	a4,s5,a4
 fff49d4:	00ec2023          	sw	a4,0(s8)
 fff49d8:	880ca683          	lw	a3,-1920(s9)
 fff49dc:	fff00793          	li	a5,-1
 fff49e0:	14f68863          	beq	a3,a5,fff4b30 <_malloc_r+0x6f8>
 fff49e4:	414b87b3          	sub	a5,s7,s4
 fff49e8:	00e787b3          	add	a5,a5,a4
 fff49ec:	00fc2023          	sw	a5,0(s8)
 fff49f0:	007bfc93          	andi	s9,s7,7
 fff49f4:	0c0c8c63          	beqz	s9,fff4acc <_malloc_r+0x694>
 fff49f8:	00001737          	lui	a4,0x1
 fff49fc:	419b8bb3          	sub	s7,s7,s9
 fff4a00:	00870593          	addi	a1,a4,8 # 1008 <__stack_size+0xf08>
 fff4a04:	008b8b93          	addi	s7,s7,8
 fff4a08:	419585b3          	sub	a1,a1,s9
 fff4a0c:	015b8ab3          	add	s5,s7,s5
 fff4a10:	415585b3          	sub	a1,a1,s5
 fff4a14:	fff70713          	addi	a4,a4,-1
 fff4a18:	00e5fa33          	and	s4,a1,a4
 fff4a1c:	000a0593          	mv	a1,s4
 fff4a20:	00098513          	mv	a0,s3
 fff4a24:	3d0000ef          	jal	ra,fff4df4 <_sbrk_r>
 fff4a28:	fff00793          	li	a5,-1
 fff4a2c:	14f50863          	beq	a0,a5,fff4b7c <_malloc_r+0x744>
 fff4a30:	41750533          	sub	a0,a0,s7
 fff4a34:	01450ab3          	add	s5,a0,s4
 fff4a38:	000c2703          	lw	a4,0(s8)
 fff4a3c:	01792423          	sw	s7,8(s2)
 fff4a40:	001ae793          	ori	a5,s5,1
 fff4a44:	00ea05b3          	add	a1,s4,a4
 fff4a48:	00bc2023          	sw	a1,0(s8)
 fff4a4c:	00fba223          	sw	a5,4(s7)
 fff4a50:	d12406e3          	beq	s0,s2,fff475c <_malloc_r+0x324>
 fff4a54:	00f00693          	li	a3,15
 fff4a58:	0f66f063          	bgeu	a3,s6,fff4b38 <_malloc_r+0x700>
 fff4a5c:	00442703          	lw	a4,4(s0)
 fff4a60:	ff4b0793          	addi	a5,s6,-12
 fff4a64:	ff87f793          	andi	a5,a5,-8
 fff4a68:	00177713          	andi	a4,a4,1
 fff4a6c:	00f76733          	or	a4,a4,a5
 fff4a70:	00e42223          	sw	a4,4(s0)
 fff4a74:	00500613          	li	a2,5
 fff4a78:	00f40733          	add	a4,s0,a5
 fff4a7c:	00c72223          	sw	a2,4(a4)
 fff4a80:	00c72423          	sw	a2,8(a4)
 fff4a84:	00f6e663          	bltu	a3,a5,fff4a90 <_malloc_r+0x658>
 fff4a88:	004ba783          	lw	a5,4(s7)
 fff4a8c:	cd1ff06f          	j	fff475c <_malloc_r+0x324>
 fff4a90:	00840593          	addi	a1,s0,8
 fff4a94:	00098513          	mv	a0,s3
 fff4a98:	788000ef          	jal	ra,fff5220 <_free_r>
 fff4a9c:	00892b83          	lw	s7,8(s2)
 fff4aa0:	000c2583          	lw	a1,0(s8)
 fff4aa4:	004ba783          	lw	a5,4(s7)
 fff4aa8:	cb5ff06f          	j	fff475c <_malloc_r+0x324>
 fff4aac:	010a8a93          	addi	s5,s5,16
 fff4ab0:	c5dff06f          	j	fff470c <_malloc_r+0x2d4>
 fff4ab4:	4026d693          	srai	a3,a3,0x2
 fff4ab8:	00100793          	li	a5,1
 fff4abc:	00d797b3          	sll	a5,a5,a3
 fff4ac0:	00f56533          	or	a0,a0,a5
 fff4ac4:	00a92223          	sw	a0,4(s2)
 fff4ac8:	d55ff06f          	j	fff481c <_malloc_r+0x3e4>
 fff4acc:	015b85b3          	add	a1,s7,s5
 fff4ad0:	40b005b3          	neg	a1,a1
 fff4ad4:	01459593          	slli	a1,a1,0x14
 fff4ad8:	0145da13          	srli	s4,a1,0x14
 fff4adc:	000a0593          	mv	a1,s4
 fff4ae0:	00098513          	mv	a0,s3
 fff4ae4:	310000ef          	jal	ra,fff4df4 <_sbrk_r>
 fff4ae8:	fff00793          	li	a5,-1
 fff4aec:	f4f512e3          	bne	a0,a5,fff4a30 <_malloc_r+0x5f8>
 fff4af0:	00000a13          	li	s4,0
 fff4af4:	f45ff06f          	j	fff4a38 <_malloc_r+0x600>
 fff4af8:	05400693          	li	a3,84
 fff4afc:	04e6e463          	bltu	a3,a4,fff4b44 <_malloc_r+0x70c>
 fff4b00:	00c7d713          	srli	a4,a5,0xc
 fff4b04:	06f70613          	addi	a2,a4,111
 fff4b08:	06e70693          	addi	a3,a4,110
 fff4b0c:	00361613          	slli	a2,a2,0x3
 fff4b10:	ce1ff06f          	j	fff47f0 <_malloc_r+0x3b8>
 fff4b14:	15400713          	li	a4,340
 fff4b18:	04f76463          	bltu	a4,a5,fff4b60 <_malloc_r+0x728>
 fff4b1c:	00f4d793          	srli	a5,s1,0xf
 fff4b20:	07878593          	addi	a1,a5,120
 fff4b24:	07778513          	addi	a0,a5,119
 fff4b28:	00359693          	slli	a3,a1,0x3
 fff4b2c:	a1dff06f          	j	fff4548 <_malloc_r+0x110>
 fff4b30:	897ca023          	sw	s7,-1920(s9)
 fff4b34:	ebdff06f          	j	fff49f0 <_malloc_r+0x5b8>
 fff4b38:	00100793          	li	a5,1
 fff4b3c:	00fba223          	sw	a5,4(s7)
 fff4b40:	e11ff06f          	j	fff4950 <_malloc_r+0x518>
 fff4b44:	15400693          	li	a3,340
 fff4b48:	04e6e463          	bltu	a3,a4,fff4b90 <_malloc_r+0x758>
 fff4b4c:	00f7d713          	srli	a4,a5,0xf
 fff4b50:	07870613          	addi	a2,a4,120
 fff4b54:	07770693          	addi	a3,a4,119
 fff4b58:	00361613          	slli	a2,a2,0x3
 fff4b5c:	c95ff06f          	j	fff47f0 <_malloc_r+0x3b8>
 fff4b60:	55400713          	li	a4,1364
 fff4b64:	04f76463          	bltu	a4,a5,fff4bac <_malloc_r+0x774>
 fff4b68:	0124d793          	srli	a5,s1,0x12
 fff4b6c:	07d78593          	addi	a1,a5,125
 fff4b70:	07c78513          	addi	a0,a5,124
 fff4b74:	00359693          	slli	a3,a1,0x3
 fff4b78:	9d1ff06f          	j	fff4548 <_malloc_r+0x110>
 fff4b7c:	ff8c8c93          	addi	s9,s9,-8
 fff4b80:	019a8ab3          	add	s5,s5,s9
 fff4b84:	417a8ab3          	sub	s5,s5,s7
 fff4b88:	00000a13          	li	s4,0
 fff4b8c:	eadff06f          	j	fff4a38 <_malloc_r+0x600>
 fff4b90:	55400693          	li	a3,1364
 fff4b94:	02e6e463          	bltu	a3,a4,fff4bbc <_malloc_r+0x784>
 fff4b98:	0127d713          	srli	a4,a5,0x12
 fff4b9c:	07d70613          	addi	a2,a4,125
 fff4ba0:	07c70693          	addi	a3,a4,124
 fff4ba4:	00361613          	slli	a2,a2,0x3
 fff4ba8:	c49ff06f          	j	fff47f0 <_malloc_r+0x3b8>
 fff4bac:	3f800693          	li	a3,1016
 fff4bb0:	07f00593          	li	a1,127
 fff4bb4:	07e00513          	li	a0,126
 fff4bb8:	991ff06f          	j	fff4548 <_malloc_r+0x110>
 fff4bbc:	3f800613          	li	a2,1016
 fff4bc0:	07e00693          	li	a3,126
 fff4bc4:	c2dff06f          	j	fff47f0 <_malloc_r+0x3b8>
 fff4bc8:	00492783          	lw	a5,4(s2)
 fff4bcc:	dcdff06f          	j	fff4998 <_malloc_r+0x560>

0fff4bd0 <memcmp>:
 fff4bd0:	00300793          	li	a5,3
 fff4bd4:	02c7fc63          	bgeu	a5,a2,fff4c0c <memcmp+0x3c>
 fff4bd8:	00b567b3          	or	a5,a0,a1
 fff4bdc:	0037f793          	andi	a5,a5,3
 fff4be0:	00300693          	li	a3,3
 fff4be4:	00078e63          	beqz	a5,fff4c00 <memcmp+0x30>
 fff4be8:	fff60693          	addi	a3,a2,-1
 fff4bec:	0280006f          	j	fff4c14 <memcmp+0x44>
 fff4bf0:	ffc60613          	addi	a2,a2,-4
 fff4bf4:	00450513          	addi	a0,a0,4
 fff4bf8:	00458593          	addi	a1,a1,4
 fff4bfc:	00c6f863          	bgeu	a3,a2,fff4c0c <memcmp+0x3c>
 fff4c00:	00052703          	lw	a4,0(a0)
 fff4c04:	0005a783          	lw	a5,0(a1)
 fff4c08:	fef704e3          	beq	a4,a5,fff4bf0 <memcmp+0x20>
 fff4c0c:	fff60693          	addi	a3,a2,-1
 fff4c10:	02060863          	beqz	a2,fff4c40 <memcmp+0x70>
 fff4c14:	00168693          	addi	a3,a3,1
 fff4c18:	00d586b3          	add	a3,a1,a3
 fff4c1c:	0080006f          	j	fff4c24 <memcmp+0x54>
 fff4c20:	02d58063          	beq	a1,a3,fff4c40 <memcmp+0x70>
 fff4c24:	00054783          	lbu	a5,0(a0)
 fff4c28:	0005c703          	lbu	a4,0(a1)
 fff4c2c:	00150513          	addi	a0,a0,1
 fff4c30:	00158593          	addi	a1,a1,1
 fff4c34:	fee786e3          	beq	a5,a4,fff4c20 <memcmp+0x50>
 fff4c38:	40e78533          	sub	a0,a5,a4
 fff4c3c:	00008067          	ret
 fff4c40:	00000513          	li	a0,0
 fff4c44:	00008067          	ret

0fff4c48 <memcpy>:
 fff4c48:	00b547b3          	xor	a5,a0,a1
 fff4c4c:	0037f793          	andi	a5,a5,3
 fff4c50:	00c508b3          	add	a7,a0,a2
 fff4c54:	06079463          	bnez	a5,fff4cbc <memcpy+0x74>
 fff4c58:	00300793          	li	a5,3
 fff4c5c:	06c7f063          	bgeu	a5,a2,fff4cbc <memcpy+0x74>
 fff4c60:	00357793          	andi	a5,a0,3
 fff4c64:	00050713          	mv	a4,a0
 fff4c68:	06079a63          	bnez	a5,fff4cdc <memcpy+0x94>
 fff4c6c:	ffc8f613          	andi	a2,a7,-4
 fff4c70:	40e606b3          	sub	a3,a2,a4
 fff4c74:	02000793          	li	a5,32
 fff4c78:	08d7ce63          	blt	a5,a3,fff4d14 <memcpy+0xcc>
 fff4c7c:	00058693          	mv	a3,a1
 fff4c80:	00070793          	mv	a5,a4
 fff4c84:	02c77863          	bgeu	a4,a2,fff4cb4 <memcpy+0x6c>
 fff4c88:	0006a803          	lw	a6,0(a3)
 fff4c8c:	00478793          	addi	a5,a5,4
 fff4c90:	00468693          	addi	a3,a3,4
 fff4c94:	ff07ae23          	sw	a6,-4(a5)
 fff4c98:	fec7e8e3          	bltu	a5,a2,fff4c88 <memcpy+0x40>
 fff4c9c:	fff60793          	addi	a5,a2,-1
 fff4ca0:	40e787b3          	sub	a5,a5,a4
 fff4ca4:	ffc7f793          	andi	a5,a5,-4
 fff4ca8:	00478793          	addi	a5,a5,4
 fff4cac:	00f70733          	add	a4,a4,a5
 fff4cb0:	00f585b3          	add	a1,a1,a5
 fff4cb4:	01176863          	bltu	a4,a7,fff4cc4 <memcpy+0x7c>
 fff4cb8:	00008067          	ret
 fff4cbc:	00050713          	mv	a4,a0
 fff4cc0:	05157863          	bgeu	a0,a7,fff4d10 <memcpy+0xc8>
 fff4cc4:	0005c783          	lbu	a5,0(a1)
 fff4cc8:	00170713          	addi	a4,a4,1
 fff4ccc:	00158593          	addi	a1,a1,1
 fff4cd0:	fef70fa3          	sb	a5,-1(a4)
 fff4cd4:	fee898e3          	bne	a7,a4,fff4cc4 <memcpy+0x7c>
 fff4cd8:	00008067          	ret
 fff4cdc:	0005c683          	lbu	a3,0(a1)
 fff4ce0:	00170713          	addi	a4,a4,1
 fff4ce4:	00377793          	andi	a5,a4,3
 fff4ce8:	fed70fa3          	sb	a3,-1(a4)
 fff4cec:	00158593          	addi	a1,a1,1
 fff4cf0:	f6078ee3          	beqz	a5,fff4c6c <memcpy+0x24>
 fff4cf4:	0005c683          	lbu	a3,0(a1)
 fff4cf8:	00170713          	addi	a4,a4,1
 fff4cfc:	00377793          	andi	a5,a4,3
 fff4d00:	fed70fa3          	sb	a3,-1(a4)
 fff4d04:	00158593          	addi	a1,a1,1
 fff4d08:	fc079ae3          	bnez	a5,fff4cdc <memcpy+0x94>
 fff4d0c:	f61ff06f          	j	fff4c6c <memcpy+0x24>
 fff4d10:	00008067          	ret
 fff4d14:	ff010113          	addi	sp,sp,-16
 fff4d18:	00812623          	sw	s0,12(sp)
 fff4d1c:	02000413          	li	s0,32
 fff4d20:	0005a383          	lw	t2,0(a1)
 fff4d24:	0045a283          	lw	t0,4(a1)
 fff4d28:	0085af83          	lw	t6,8(a1)
 fff4d2c:	00c5af03          	lw	t5,12(a1)
 fff4d30:	0105ae83          	lw	t4,16(a1)
 fff4d34:	0145ae03          	lw	t3,20(a1)
 fff4d38:	0185a303          	lw	t1,24(a1)
 fff4d3c:	01c5a803          	lw	a6,28(a1)
 fff4d40:	0205a683          	lw	a3,32(a1)
 fff4d44:	02470713          	addi	a4,a4,36
 fff4d48:	40e607b3          	sub	a5,a2,a4
 fff4d4c:	fc772e23          	sw	t2,-36(a4)
 fff4d50:	fe572023          	sw	t0,-32(a4)
 fff4d54:	fff72223          	sw	t6,-28(a4)
 fff4d58:	ffe72423          	sw	t5,-24(a4)
 fff4d5c:	ffd72623          	sw	t4,-20(a4)
 fff4d60:	ffc72823          	sw	t3,-16(a4)
 fff4d64:	fe672a23          	sw	t1,-12(a4)
 fff4d68:	ff072c23          	sw	a6,-8(a4)
 fff4d6c:	fed72e23          	sw	a3,-4(a4)
 fff4d70:	02458593          	addi	a1,a1,36
 fff4d74:	faf446e3          	blt	s0,a5,fff4d20 <memcpy+0xd8>
 fff4d78:	00058693          	mv	a3,a1
 fff4d7c:	00070793          	mv	a5,a4
 fff4d80:	02c77863          	bgeu	a4,a2,fff4db0 <memcpy+0x168>
 fff4d84:	0006a803          	lw	a6,0(a3)
 fff4d88:	00478793          	addi	a5,a5,4
 fff4d8c:	00468693          	addi	a3,a3,4
 fff4d90:	ff07ae23          	sw	a6,-4(a5)
 fff4d94:	fec7e8e3          	bltu	a5,a2,fff4d84 <memcpy+0x13c>
 fff4d98:	fff60793          	addi	a5,a2,-1
 fff4d9c:	40e787b3          	sub	a5,a5,a4
 fff4da0:	ffc7f793          	andi	a5,a5,-4
 fff4da4:	00478793          	addi	a5,a5,4
 fff4da8:	00f70733          	add	a4,a4,a5
 fff4dac:	00f585b3          	add	a1,a1,a5
 fff4db0:	01176863          	bltu	a4,a7,fff4dc0 <memcpy+0x178>
 fff4db4:	00c12403          	lw	s0,12(sp)
 fff4db8:	01010113          	addi	sp,sp,16
 fff4dbc:	00008067          	ret
 fff4dc0:	0005c783          	lbu	a5,0(a1)
 fff4dc4:	00170713          	addi	a4,a4,1
 fff4dc8:	00158593          	addi	a1,a1,1
 fff4dcc:	fef70fa3          	sb	a5,-1(a4)
 fff4dd0:	fee882e3          	beq	a7,a4,fff4db4 <memcpy+0x16c>
 fff4dd4:	0005c783          	lbu	a5,0(a1)
 fff4dd8:	00170713          	addi	a4,a4,1
 fff4ddc:	00158593          	addi	a1,a1,1
 fff4de0:	fef70fa3          	sb	a5,-1(a4)
 fff4de4:	fce89ee3          	bne	a7,a4,fff4dc0 <memcpy+0x178>
 fff4de8:	fcdff06f          	j	fff4db4 <memcpy+0x16c>

0fff4dec <__malloc_lock>:
 fff4dec:	00008067          	ret

0fff4df0 <__malloc_unlock>:
 fff4df0:	00008067          	ret

0fff4df4 <_sbrk_r>:
 fff4df4:	ff010113          	addi	sp,sp,-16
 fff4df8:	00812423          	sw	s0,8(sp)
 fff4dfc:	00912223          	sw	s1,4(sp)
 fff4e00:	00050413          	mv	s0,a0
 fff4e04:	0fff84b7          	lui	s1,0xfff8
 fff4e08:	00058513          	mv	a0,a1
 fff4e0c:	00112623          	sw	ra,12(sp)
 fff4e10:	8804ac23          	sw	zero,-1896(s1) # fff7898 <errno>
 fff4e14:	9b0fc0ef          	jal	ra,fff0fc4 <_sbrk>
 fff4e18:	fff00793          	li	a5,-1
 fff4e1c:	00f50c63          	beq	a0,a5,fff4e34 <_sbrk_r+0x40>
 fff4e20:	00c12083          	lw	ra,12(sp)
 fff4e24:	00812403          	lw	s0,8(sp)
 fff4e28:	00412483          	lw	s1,4(sp)
 fff4e2c:	01010113          	addi	sp,sp,16
 fff4e30:	00008067          	ret
 fff4e34:	8984a783          	lw	a5,-1896(s1)
 fff4e38:	fe0784e3          	beqz	a5,fff4e20 <_sbrk_r+0x2c>
 fff4e3c:	00c12083          	lw	ra,12(sp)
 fff4e40:	00f42023          	sw	a5,0(s0)
 fff4e44:	00812403          	lw	s0,8(sp)
 fff4e48:	00412483          	lw	s1,4(sp)
 fff4e4c:	01010113          	addi	sp,sp,16
 fff4e50:	00008067          	ret

0fff4e54 <strchr>:
 fff4e54:	0ff5f693          	zext.b	a3,a1
 fff4e58:	00357793          	andi	a5,a0,3
 fff4e5c:	0c068063          	beqz	a3,fff4f1c <strchr+0xc8>
 fff4e60:	00078e63          	beqz	a5,fff4e7c <strchr+0x28>
 fff4e64:	00054783          	lbu	a5,0(a0)
 fff4e68:	0a078663          	beqz	a5,fff4f14 <strchr+0xc0>
 fff4e6c:	0ad78663          	beq	a5,a3,fff4f18 <strchr+0xc4>
 fff4e70:	00150513          	addi	a0,a0,1
 fff4e74:	00357793          	andi	a5,a0,3
 fff4e78:	fe0796e3          	bnez	a5,fff4e64 <strchr+0x10>
 fff4e7c:	0ff5f593          	zext.b	a1,a1
 fff4e80:	00859793          	slli	a5,a1,0x8
 fff4e84:	00b787b3          	add	a5,a5,a1
 fff4e88:	00052703          	lw	a4,0(a0)
 fff4e8c:	01079313          	slli	t1,a5,0x10
 fff4e90:	00f36333          	or	t1,t1,a5
 fff4e94:	feff0837          	lui	a6,0xfeff0
 fff4e98:	00e34633          	xor	a2,t1,a4
 fff4e9c:	eff80813          	addi	a6,a6,-257 # fefefeff <__BSS_END__$+0xeeff7197>
 fff4ea0:	010707b3          	add	a5,a4,a6
 fff4ea4:	010605b3          	add	a1,a2,a6
 fff4ea8:	fff74713          	not	a4,a4
 fff4eac:	fff64613          	not	a2,a2
 fff4eb0:	00e7f7b3          	and	a5,a5,a4
 fff4eb4:	808088b7          	lui	a7,0x80808
 fff4eb8:	00c5f733          	and	a4,a1,a2
 fff4ebc:	00e7e7b3          	or	a5,a5,a4
 fff4ec0:	08088893          	addi	a7,a7,128 # 80808080 <__BSS_END__$+0x7080f318>
 fff4ec4:	0117f7b3          	and	a5,a5,a7
 fff4ec8:	02079a63          	bnez	a5,fff4efc <strchr+0xa8>
 fff4ecc:	00452703          	lw	a4,4(a0)
 fff4ed0:	00450513          	addi	a0,a0,4
 fff4ed4:	00674633          	xor	a2,a4,t1
 fff4ed8:	010707b3          	add	a5,a4,a6
 fff4edc:	010605b3          	add	a1,a2,a6
 fff4ee0:	fff74713          	not	a4,a4
 fff4ee4:	fff64613          	not	a2,a2
 fff4ee8:	00e7f7b3          	and	a5,a5,a4
 fff4eec:	00c5f733          	and	a4,a1,a2
 fff4ef0:	00e7e7b3          	or	a5,a5,a4
 fff4ef4:	0117f7b3          	and	a5,a5,a7
 fff4ef8:	fc078ae3          	beqz	a5,fff4ecc <strchr+0x78>
 fff4efc:	00054783          	lbu	a5,0(a0)
 fff4f00:	00078a63          	beqz	a5,fff4f14 <strchr+0xc0>
 fff4f04:	08f68663          	beq	a3,a5,fff4f90 <strchr+0x13c>
 fff4f08:	00154783          	lbu	a5,1(a0)
 fff4f0c:	00150513          	addi	a0,a0,1
 fff4f10:	fe079ae3          	bnez	a5,fff4f04 <strchr+0xb0>
 fff4f14:	00000513          	li	a0,0
 fff4f18:	00008067          	ret
 fff4f1c:	00078c63          	beqz	a5,fff4f34 <strchr+0xe0>
 fff4f20:	00054783          	lbu	a5,0(a0)
 fff4f24:	fe078ae3          	beqz	a5,fff4f18 <strchr+0xc4>
 fff4f28:	00150513          	addi	a0,a0,1
 fff4f2c:	00357793          	andi	a5,a0,3
 fff4f30:	fe0798e3          	bnez	a5,fff4f20 <strchr+0xcc>
 fff4f34:	00052703          	lw	a4,0(a0)
 fff4f38:	feff0637          	lui	a2,0xfeff0
 fff4f3c:	eff60613          	addi	a2,a2,-257 # fefefeff <__BSS_END__$+0xeeff7197>
 fff4f40:	fff74793          	not	a5,a4
 fff4f44:	808086b7          	lui	a3,0x80808
 fff4f48:	00c70733          	add	a4,a4,a2
 fff4f4c:	00e7f7b3          	and	a5,a5,a4
 fff4f50:	08068693          	addi	a3,a3,128 # 80808080 <__BSS_END__$+0x7080f318>
 fff4f54:	00d7f7b3          	and	a5,a5,a3
 fff4f58:	02079063          	bnez	a5,fff4f78 <strchr+0x124>
 fff4f5c:	00452703          	lw	a4,4(a0)
 fff4f60:	00450513          	addi	a0,a0,4
 fff4f64:	00c707b3          	add	a5,a4,a2
 fff4f68:	fff74713          	not	a4,a4
 fff4f6c:	00e7f7b3          	and	a5,a5,a4
 fff4f70:	00d7f7b3          	and	a5,a5,a3
 fff4f74:	fe0784e3          	beqz	a5,fff4f5c <strchr+0x108>
 fff4f78:	00054783          	lbu	a5,0(a0)
 fff4f7c:	f8078ee3          	beqz	a5,fff4f18 <strchr+0xc4>
 fff4f80:	00154783          	lbu	a5,1(a0)
 fff4f84:	00150513          	addi	a0,a0,1
 fff4f88:	fe079ce3          	bnez	a5,fff4f80 <strchr+0x12c>
 fff4f8c:	00008067          	ret
 fff4f90:	00008067          	ret

0fff4f94 <strcpy>:
 fff4f94:	00b567b3          	or	a5,a0,a1
 fff4f98:	0037f793          	andi	a5,a5,3
 fff4f9c:	08079263          	bnez	a5,fff5020 <strcpy+0x8c>
 fff4fa0:	0005a703          	lw	a4,0(a1)
 fff4fa4:	7f7f86b7          	lui	a3,0x7f7f8
 fff4fa8:	f7f68693          	addi	a3,a3,-129 # 7f7f7f7f <__BSS_END__$+0x6f7ff217>
 fff4fac:	00d777b3          	and	a5,a4,a3
 fff4fb0:	00d787b3          	add	a5,a5,a3
 fff4fb4:	00e7e7b3          	or	a5,a5,a4
 fff4fb8:	00d7e7b3          	or	a5,a5,a3
 fff4fbc:	fff00613          	li	a2,-1
 fff4fc0:	06c79e63          	bne	a5,a2,fff503c <strcpy+0xa8>
 fff4fc4:	00050613          	mv	a2,a0
 fff4fc8:	fff00813          	li	a6,-1
 fff4fcc:	00e62023          	sw	a4,0(a2)
 fff4fd0:	0045a703          	lw	a4,4(a1)
 fff4fd4:	00458593          	addi	a1,a1,4
 fff4fd8:	00460613          	addi	a2,a2,4
 fff4fdc:	00d777b3          	and	a5,a4,a3
 fff4fe0:	00d787b3          	add	a5,a5,a3
 fff4fe4:	00e7e7b3          	or	a5,a5,a4
 fff4fe8:	00d7e7b3          	or	a5,a5,a3
 fff4fec:	ff0780e3          	beq	a5,a6,fff4fcc <strcpy+0x38>
 fff4ff0:	0005c783          	lbu	a5,0(a1)
 fff4ff4:	0015c703          	lbu	a4,1(a1)
 fff4ff8:	0025c683          	lbu	a3,2(a1)
 fff4ffc:	00f60023          	sb	a5,0(a2)
 fff5000:	00078a63          	beqz	a5,fff5014 <strcpy+0x80>
 fff5004:	00e600a3          	sb	a4,1(a2)
 fff5008:	00070663          	beqz	a4,fff5014 <strcpy+0x80>
 fff500c:	00d60123          	sb	a3,2(a2)
 fff5010:	00069463          	bnez	a3,fff5018 <strcpy+0x84>
 fff5014:	00008067          	ret
 fff5018:	000601a3          	sb	zero,3(a2)
 fff501c:	00008067          	ret
 fff5020:	00050793          	mv	a5,a0
 fff5024:	0005c703          	lbu	a4,0(a1)
 fff5028:	00178793          	addi	a5,a5,1
 fff502c:	00158593          	addi	a1,a1,1
 fff5030:	fee78fa3          	sb	a4,-1(a5)
 fff5034:	fe0718e3          	bnez	a4,fff5024 <strcpy+0x90>
 fff5038:	00008067          	ret
 fff503c:	00050613          	mv	a2,a0
 fff5040:	fb1ff06f          	j	fff4ff0 <strcpy+0x5c>

0fff5044 <__register_exitproc>:
 fff5044:	0fff87b7          	lui	a5,0xfff8
 fff5048:	8887a703          	lw	a4,-1912(a5) # fff7888 <_global_impure_ptr>
 fff504c:	14872783          	lw	a5,328(a4)
 fff5050:	04078c63          	beqz	a5,fff50a8 <__register_exitproc+0x64>
 fff5054:	0047a703          	lw	a4,4(a5)
 fff5058:	01f00813          	li	a6,31
 fff505c:	06e84e63          	blt	a6,a4,fff50d8 <__register_exitproc+0x94>
 fff5060:	00271813          	slli	a6,a4,0x2
 fff5064:	02050663          	beqz	a0,fff5090 <__register_exitproc+0x4c>
 fff5068:	01078333          	add	t1,a5,a6
 fff506c:	08c32423          	sw	a2,136(t1)
 fff5070:	1887a883          	lw	a7,392(a5)
 fff5074:	00100613          	li	a2,1
 fff5078:	00e61633          	sll	a2,a2,a4
 fff507c:	00c8e8b3          	or	a7,a7,a2
 fff5080:	1917a423          	sw	a7,392(a5)
 fff5084:	10d32423          	sw	a3,264(t1)
 fff5088:	00200693          	li	a3,2
 fff508c:	02d50463          	beq	a0,a3,fff50b4 <__register_exitproc+0x70>
 fff5090:	00170713          	addi	a4,a4,1
 fff5094:	00e7a223          	sw	a4,4(a5)
 fff5098:	010787b3          	add	a5,a5,a6
 fff509c:	00b7a423          	sw	a1,8(a5)
 fff50a0:	00000513          	li	a0,0
 fff50a4:	00008067          	ret
 fff50a8:	14c70793          	addi	a5,a4,332
 fff50ac:	14f72423          	sw	a5,328(a4)
 fff50b0:	fa5ff06f          	j	fff5054 <__register_exitproc+0x10>
 fff50b4:	18c7a683          	lw	a3,396(a5)
 fff50b8:	00170713          	addi	a4,a4,1
 fff50bc:	00e7a223          	sw	a4,4(a5)
 fff50c0:	00c6e6b3          	or	a3,a3,a2
 fff50c4:	18d7a623          	sw	a3,396(a5)
 fff50c8:	010787b3          	add	a5,a5,a6
 fff50cc:	00b7a423          	sw	a1,8(a5)
 fff50d0:	00000513          	li	a0,0
 fff50d4:	00008067          	ret
 fff50d8:	fff00513          	li	a0,-1
 fff50dc:	00008067          	ret

0fff50e0 <_malloc_trim_r>:
 fff50e0:	fe010113          	addi	sp,sp,-32
 fff50e4:	01312623          	sw	s3,12(sp)
 fff50e8:	0fff79b7          	lui	s3,0xfff7
 fff50ec:	00812c23          	sw	s0,24(sp)
 fff50f0:	00912a23          	sw	s1,20(sp)
 fff50f4:	01212823          	sw	s2,16(sp)
 fff50f8:	01412423          	sw	s4,8(sp)
 fff50fc:	00112e23          	sw	ra,28(sp)
 fff5100:	00058a13          	mv	s4,a1
 fff5104:	00050913          	mv	s2,a0
 fff5108:	42898993          	addi	s3,s3,1064 # fff7428 <__malloc_av_>
 fff510c:	ce1ff0ef          	jal	ra,fff4dec <__malloc_lock>
 fff5110:	0089a703          	lw	a4,8(s3)
 fff5114:	000017b7          	lui	a5,0x1
 fff5118:	fef78413          	addi	s0,a5,-17 # fef <__stack_size+0xeef>
 fff511c:	00472483          	lw	s1,4(a4)
 fff5120:	ffc4f493          	andi	s1,s1,-4
 fff5124:	00848433          	add	s0,s1,s0
 fff5128:	41440433          	sub	s0,s0,s4
 fff512c:	00c45413          	srli	s0,s0,0xc
 fff5130:	fff40413          	addi	s0,s0,-1
 fff5134:	00c41413          	slli	s0,s0,0xc
 fff5138:	00f44e63          	blt	s0,a5,fff5154 <_malloc_trim_r+0x74>
 fff513c:	00000593          	li	a1,0
 fff5140:	00090513          	mv	a0,s2
 fff5144:	cb1ff0ef          	jal	ra,fff4df4 <_sbrk_r>
 fff5148:	0089a783          	lw	a5,8(s3)
 fff514c:	009787b3          	add	a5,a5,s1
 fff5150:	02f50863          	beq	a0,a5,fff5180 <_malloc_trim_r+0xa0>
 fff5154:	00090513          	mv	a0,s2
 fff5158:	c99ff0ef          	jal	ra,fff4df0 <__malloc_unlock>
 fff515c:	01c12083          	lw	ra,28(sp)
 fff5160:	01812403          	lw	s0,24(sp)
 fff5164:	01412483          	lw	s1,20(sp)
 fff5168:	01012903          	lw	s2,16(sp)
 fff516c:	00c12983          	lw	s3,12(sp)
 fff5170:	00812a03          	lw	s4,8(sp)
 fff5174:	00000513          	li	a0,0
 fff5178:	02010113          	addi	sp,sp,32
 fff517c:	00008067          	ret
 fff5180:	408005b3          	neg	a1,s0
 fff5184:	00090513          	mv	a0,s2
 fff5188:	c6dff0ef          	jal	ra,fff4df4 <_sbrk_r>
 fff518c:	fff00793          	li	a5,-1
 fff5190:	04f50a63          	beq	a0,a5,fff51e4 <_malloc_trim_r+0x104>
 fff5194:	0fff97b7          	lui	a5,0xfff9
 fff5198:	d4078793          	addi	a5,a5,-704 # fff8d40 <__malloc_current_mallinfo>
 fff519c:	0007a703          	lw	a4,0(a5)
 fff51a0:	0089a683          	lw	a3,8(s3)
 fff51a4:	408484b3          	sub	s1,s1,s0
 fff51a8:	0014e493          	ori	s1,s1,1
 fff51ac:	40870733          	sub	a4,a4,s0
 fff51b0:	00090513          	mv	a0,s2
 fff51b4:	0096a223          	sw	s1,4(a3)
 fff51b8:	00e7a023          	sw	a4,0(a5)
 fff51bc:	c35ff0ef          	jal	ra,fff4df0 <__malloc_unlock>
 fff51c0:	01c12083          	lw	ra,28(sp)
 fff51c4:	01812403          	lw	s0,24(sp)
 fff51c8:	01412483          	lw	s1,20(sp)
 fff51cc:	01012903          	lw	s2,16(sp)
 fff51d0:	00c12983          	lw	s3,12(sp)
 fff51d4:	00812a03          	lw	s4,8(sp)
 fff51d8:	00100513          	li	a0,1
 fff51dc:	02010113          	addi	sp,sp,32
 fff51e0:	00008067          	ret
 fff51e4:	00000593          	li	a1,0
 fff51e8:	00090513          	mv	a0,s2
 fff51ec:	c09ff0ef          	jal	ra,fff4df4 <_sbrk_r>
 fff51f0:	0089a703          	lw	a4,8(s3)
 fff51f4:	00f00693          	li	a3,15
 fff51f8:	40e507b3          	sub	a5,a0,a4
 fff51fc:	f4f6dce3          	bge	a3,a5,fff5154 <_malloc_trim_r+0x74>
 fff5200:	0fff86b7          	lui	a3,0xfff8
 fff5204:	8806a683          	lw	a3,-1920(a3) # fff7880 <__malloc_sbrk_base>
 fff5208:	0017e793          	ori	a5,a5,1
 fff520c:	00f72223          	sw	a5,4(a4)
 fff5210:	40d50533          	sub	a0,a0,a3
 fff5214:	0fff96b7          	lui	a3,0xfff9
 fff5218:	d4a6a023          	sw	a0,-704(a3) # fff8d40 <__malloc_current_mallinfo>
 fff521c:	f39ff06f          	j	fff5154 <_malloc_trim_r+0x74>

0fff5220 <_free_r>:
 fff5220:	18058263          	beqz	a1,fff53a4 <_free_r+0x184>
 fff5224:	ff010113          	addi	sp,sp,-16
 fff5228:	00812423          	sw	s0,8(sp)
 fff522c:	00912223          	sw	s1,4(sp)
 fff5230:	00058413          	mv	s0,a1
 fff5234:	00050493          	mv	s1,a0
 fff5238:	00112623          	sw	ra,12(sp)
 fff523c:	bb1ff0ef          	jal	ra,fff4dec <__malloc_lock>
 fff5240:	ffc42503          	lw	a0,-4(s0)
 fff5244:	ff840713          	addi	a4,s0,-8
 fff5248:	0fff75b7          	lui	a1,0xfff7
 fff524c:	ffe57793          	andi	a5,a0,-2
 fff5250:	00f70633          	add	a2,a4,a5
 fff5254:	42858593          	addi	a1,a1,1064 # fff7428 <__malloc_av_>
 fff5258:	00462683          	lw	a3,4(a2)
 fff525c:	0085a803          	lw	a6,8(a1)
 fff5260:	ffc6f693          	andi	a3,a3,-4
 fff5264:	1ac80263          	beq	a6,a2,fff5408 <_free_r+0x1e8>
 fff5268:	00d62223          	sw	a3,4(a2)
 fff526c:	00157513          	andi	a0,a0,1
 fff5270:	00d60833          	add	a6,a2,a3
 fff5274:	0a051063          	bnez	a0,fff5314 <_free_r+0xf4>
 fff5278:	ff842303          	lw	t1,-8(s0)
 fff527c:	00482803          	lw	a6,4(a6)
 fff5280:	0fff7537          	lui	a0,0xfff7
 fff5284:	40670733          	sub	a4,a4,t1
 fff5288:	00872883          	lw	a7,8(a4)
 fff528c:	43050513          	addi	a0,a0,1072 # fff7430 <__malloc_av_+0x8>
 fff5290:	006787b3          	add	a5,a5,t1
 fff5294:	00187813          	andi	a6,a6,1
 fff5298:	14a88263          	beq	a7,a0,fff53dc <_free_r+0x1bc>
 fff529c:	00c72303          	lw	t1,12(a4)
 fff52a0:	0068a623          	sw	t1,12(a7)
 fff52a4:	01132423          	sw	a7,8(t1)
 fff52a8:	1a080a63          	beqz	a6,fff545c <_free_r+0x23c>
 fff52ac:	0017e693          	ori	a3,a5,1
 fff52b0:	00d72223          	sw	a3,4(a4)
 fff52b4:	00f62023          	sw	a5,0(a2)
 fff52b8:	1ff00693          	li	a3,511
 fff52bc:	06f6ec63          	bltu	a3,a5,fff5334 <_free_r+0x114>
 fff52c0:	ff87f693          	andi	a3,a5,-8
 fff52c4:	00868693          	addi	a3,a3,8
 fff52c8:	0045a503          	lw	a0,4(a1)
 fff52cc:	00d586b3          	add	a3,a1,a3
 fff52d0:	0006a603          	lw	a2,0(a3)
 fff52d4:	0057d813          	srli	a6,a5,0x5
 fff52d8:	00100793          	li	a5,1
 fff52dc:	010797b3          	sll	a5,a5,a6
 fff52e0:	00a7e7b3          	or	a5,a5,a0
 fff52e4:	ff868513          	addi	a0,a3,-8
 fff52e8:	00a72623          	sw	a0,12(a4)
 fff52ec:	00c72423          	sw	a2,8(a4)
 fff52f0:	00f5a223          	sw	a5,4(a1)
 fff52f4:	00e6a023          	sw	a4,0(a3)
 fff52f8:	00e62623          	sw	a4,12(a2)
 fff52fc:	00812403          	lw	s0,8(sp)
 fff5300:	00c12083          	lw	ra,12(sp)
 fff5304:	00048513          	mv	a0,s1
 fff5308:	00412483          	lw	s1,4(sp)
 fff530c:	01010113          	addi	sp,sp,16
 fff5310:	ae1ff06f          	j	fff4df0 <__malloc_unlock>
 fff5314:	00482503          	lw	a0,4(a6)
 fff5318:	00157513          	andi	a0,a0,1
 fff531c:	08050663          	beqz	a0,fff53a8 <_free_r+0x188>
 fff5320:	0017e693          	ori	a3,a5,1
 fff5324:	fed42e23          	sw	a3,-4(s0)
 fff5328:	00f62023          	sw	a5,0(a2)
 fff532c:	1ff00693          	li	a3,511
 fff5330:	f8f6f8e3          	bgeu	a3,a5,fff52c0 <_free_r+0xa0>
 fff5334:	0097d693          	srli	a3,a5,0x9
 fff5338:	00400613          	li	a2,4
 fff533c:	12d66463          	bltu	a2,a3,fff5464 <_free_r+0x244>
 fff5340:	0067d693          	srli	a3,a5,0x6
 fff5344:	03968513          	addi	a0,a3,57
 fff5348:	03868613          	addi	a2,a3,56
 fff534c:	00351513          	slli	a0,a0,0x3
 fff5350:	00a58533          	add	a0,a1,a0
 fff5354:	00052683          	lw	a3,0(a0)
 fff5358:	ff850513          	addi	a0,a0,-8
 fff535c:	00d51863          	bne	a0,a3,fff536c <_free_r+0x14c>
 fff5360:	15c0006f          	j	fff54bc <_free_r+0x29c>
 fff5364:	0086a683          	lw	a3,8(a3)
 fff5368:	00d50863          	beq	a0,a3,fff5378 <_free_r+0x158>
 fff536c:	0046a603          	lw	a2,4(a3)
 fff5370:	ffc67613          	andi	a2,a2,-4
 fff5374:	fec7e8e3          	bltu	a5,a2,fff5364 <_free_r+0x144>
 fff5378:	00c6a503          	lw	a0,12(a3)
 fff537c:	00a72623          	sw	a0,12(a4)
 fff5380:	00d72423          	sw	a3,8(a4)
 fff5384:	00812403          	lw	s0,8(sp)
 fff5388:	00e52423          	sw	a4,8(a0)
 fff538c:	00c12083          	lw	ra,12(sp)
 fff5390:	00048513          	mv	a0,s1
 fff5394:	00412483          	lw	s1,4(sp)
 fff5398:	00e6a623          	sw	a4,12(a3)
 fff539c:	01010113          	addi	sp,sp,16
 fff53a0:	a51ff06f          	j	fff4df0 <__malloc_unlock>
 fff53a4:	00008067          	ret
 fff53a8:	0fff7537          	lui	a0,0xfff7
 fff53ac:	00d787b3          	add	a5,a5,a3
 fff53b0:	43050513          	addi	a0,a0,1072 # fff7430 <__malloc_av_+0x8>
 fff53b4:	00862683          	lw	a3,8(a2)
 fff53b8:	0ea68063          	beq	a3,a0,fff5498 <_free_r+0x278>
 fff53bc:	00c62803          	lw	a6,12(a2)
 fff53c0:	0017e513          	ori	a0,a5,1
 fff53c4:	00f70633          	add	a2,a4,a5
 fff53c8:	0106a623          	sw	a6,12(a3)
 fff53cc:	00d82423          	sw	a3,8(a6)
 fff53d0:	00a72223          	sw	a0,4(a4)
 fff53d4:	00f62023          	sw	a5,0(a2)
 fff53d8:	ee1ff06f          	j	fff52b8 <_free_r+0x98>
 fff53dc:	14081063          	bnez	a6,fff551c <_free_r+0x2fc>
 fff53e0:	00862583          	lw	a1,8(a2)
 fff53e4:	00c62603          	lw	a2,12(a2)
 fff53e8:	00f686b3          	add	a3,a3,a5
 fff53ec:	0016e793          	ori	a5,a3,1
 fff53f0:	00c5a623          	sw	a2,12(a1)
 fff53f4:	00b62423          	sw	a1,8(a2)
 fff53f8:	00f72223          	sw	a5,4(a4)
 fff53fc:	00d70733          	add	a4,a4,a3
 fff5400:	00d72023          	sw	a3,0(a4)
 fff5404:	ef9ff06f          	j	fff52fc <_free_r+0xdc>
 fff5408:	00157513          	andi	a0,a0,1
 fff540c:	00d786b3          	add	a3,a5,a3
 fff5410:	02051063          	bnez	a0,fff5430 <_free_r+0x210>
 fff5414:	ff842503          	lw	a0,-8(s0)
 fff5418:	40a70733          	sub	a4,a4,a0
 fff541c:	00c72783          	lw	a5,12(a4)
 fff5420:	00872603          	lw	a2,8(a4)
 fff5424:	00a686b3          	add	a3,a3,a0
 fff5428:	00f62623          	sw	a5,12(a2)
 fff542c:	00c7a423          	sw	a2,8(a5)
 fff5430:	0fff87b7          	lui	a5,0xfff8
 fff5434:	0016e613          	ori	a2,a3,1
 fff5438:	8847a783          	lw	a5,-1916(a5) # fff7884 <__malloc_trim_threshold>
 fff543c:	00c72223          	sw	a2,4(a4)
 fff5440:	00e5a423          	sw	a4,8(a1)
 fff5444:	eaf6ece3          	bltu	a3,a5,fff52fc <_free_r+0xdc>
 fff5448:	0fff87b7          	lui	a5,0xfff8
 fff544c:	8947a583          	lw	a1,-1900(a5) # fff7894 <__malloc_top_pad>
 fff5450:	00048513          	mv	a0,s1
 fff5454:	c8dff0ef          	jal	ra,fff50e0 <_malloc_trim_r>
 fff5458:	ea5ff06f          	j	fff52fc <_free_r+0xdc>
 fff545c:	00d787b3          	add	a5,a5,a3
 fff5460:	f55ff06f          	j	fff53b4 <_free_r+0x194>
 fff5464:	01400613          	li	a2,20
 fff5468:	02d67063          	bgeu	a2,a3,fff5488 <_free_r+0x268>
 fff546c:	05400613          	li	a2,84
 fff5470:	06d66463          	bltu	a2,a3,fff54d8 <_free_r+0x2b8>
 fff5474:	00c7d693          	srli	a3,a5,0xc
 fff5478:	06f68513          	addi	a0,a3,111
 fff547c:	06e68613          	addi	a2,a3,110
 fff5480:	00351513          	slli	a0,a0,0x3
 fff5484:	ecdff06f          	j	fff5350 <_free_r+0x130>
 fff5488:	05c68513          	addi	a0,a3,92
 fff548c:	05b68613          	addi	a2,a3,91
 fff5490:	00351513          	slli	a0,a0,0x3
 fff5494:	ebdff06f          	j	fff5350 <_free_r+0x130>
 fff5498:	00e5aa23          	sw	a4,20(a1)
 fff549c:	00e5a823          	sw	a4,16(a1)
 fff54a0:	0017e693          	ori	a3,a5,1
 fff54a4:	00a72623          	sw	a0,12(a4)
 fff54a8:	00a72423          	sw	a0,8(a4)
 fff54ac:	00d72223          	sw	a3,4(a4)
 fff54b0:	00f70733          	add	a4,a4,a5
 fff54b4:	00f72023          	sw	a5,0(a4)
 fff54b8:	e45ff06f          	j	fff52fc <_free_r+0xdc>
 fff54bc:	0045a803          	lw	a6,4(a1)
 fff54c0:	40265613          	srai	a2,a2,0x2
 fff54c4:	00100793          	li	a5,1
 fff54c8:	00c797b3          	sll	a5,a5,a2
 fff54cc:	0107e7b3          	or	a5,a5,a6
 fff54d0:	00f5a223          	sw	a5,4(a1)
 fff54d4:	ea9ff06f          	j	fff537c <_free_r+0x15c>
 fff54d8:	15400613          	li	a2,340
 fff54dc:	00d66c63          	bltu	a2,a3,fff54f4 <_free_r+0x2d4>
 fff54e0:	00f7d693          	srli	a3,a5,0xf
 fff54e4:	07868513          	addi	a0,a3,120
 fff54e8:	07768613          	addi	a2,a3,119
 fff54ec:	00351513          	slli	a0,a0,0x3
 fff54f0:	e61ff06f          	j	fff5350 <_free_r+0x130>
 fff54f4:	55400613          	li	a2,1364
 fff54f8:	00d66c63          	bltu	a2,a3,fff5510 <_free_r+0x2f0>
 fff54fc:	0127d693          	srli	a3,a5,0x12
 fff5500:	07d68513          	addi	a0,a3,125
 fff5504:	07c68613          	addi	a2,a3,124
 fff5508:	00351513          	slli	a0,a0,0x3
 fff550c:	e45ff06f          	j	fff5350 <_free_r+0x130>
 fff5510:	3f800513          	li	a0,1016
 fff5514:	07e00613          	li	a2,126
 fff5518:	e39ff06f          	j	fff5350 <_free_r+0x130>
 fff551c:	0017e693          	ori	a3,a5,1
 fff5520:	00d72223          	sw	a3,4(a4)
 fff5524:	00f62023          	sw	a5,0(a2)
 fff5528:	dd5ff06f          	j	fff52fc <_free_r+0xdc>

Disassembly of section .rodata:

0fff552c <_ZL5ExCvt-0x8d0>:
 fff552c:	6d305b1b          	.4byte	0x6d305b1b
 fff5530:	0a0a                	.2byte	0xa0a
 fff5532:	31335b1b          	.4byte	0x31335b1b
 fff5536:	1b6d                	.2byte	0x1b6d
 fff5538:	6d30345b          	.4byte	0x6d30345b
 fff553c:	6e55                	.2byte	0x6e55
 fff553e:	776f6e6b          	.4byte	0x776f6e6b
 fff5542:	206e                	.2byte	0x206e
 fff5544:	6168                	.2byte	0x6168
 fff5546:	6472                	.2byte	0x6472
 fff5548:	65726177          	.4byte	0x65726177
 fff554c:	6920                	.2byte	0x6920
 fff554e:	746e                	.2byte	0x746e
 fff5550:	7265                	.2byte	0x7265
 fff5552:	7572                	.2byte	0x7572
 fff5554:	7470                	.2byte	0x7470
 fff5556:	3020                	.2byte	0x3020
 fff5558:	0078                	.2byte	0x78
 fff555a:	0000                	.2byte	0x0
 fff555c:	6d305b1b          	.4byte	0x6d305b1b
 fff5560:	0a0a                	.2byte	0xa0a
 fff5562:	31335b1b          	.4byte	0x31335b1b
 fff5566:	1b6d                	.2byte	0x1b6d
 fff5568:	6d30345b          	.4byte	0x6d30345b
 fff556c:	74666f53          	.4byte	0x74666f53
 fff5570:	65726177          	.4byte	0x65726177
 fff5574:	6220                	.2byte	0x6220
 fff5576:	6572                	.2byte	0x6572
 fff5578:	6b61                	.2byte	0x6b61
 fff557a:	6f70                	.2byte	0x6f70
 fff557c:	6e69                	.2byte	0x6e69
 fff557e:	7374                	.2byte	0x7374
 fff5580:	6120                	.2byte	0x6120
 fff5582:	6572                	.2byte	0x6572
 fff5584:	6e20                	.2byte	0x6e20
 fff5586:	6920746f          	jal	s0,fffcc18 <__BSS_END__$+0x3eb0>
 fff558a:	706d                	.2byte	0x706d
 fff558c:	656c                	.2byte	0x656c
 fff558e:	656d                	.2byte	0x656d
 fff5590:	746e                	.2byte	0x746e
 fff5592:	6465                	.2byte	0x6465
 fff5594:	1b0a                	.2byte	0x1b0a
 fff5596:	0a6d305b          	.4byte	0xa6d305b
 fff559a:	0000                	.2byte	0x0
 fff559c:	6d305b1b          	.4byte	0x6d305b1b
 fff55a0:	0a0a                	.2byte	0xa0a
 fff55a2:	31335b1b          	.4byte	0x31335b1b
 fff55a6:	1b6d                	.2byte	0x1b6d
 fff55a8:	6d30345b          	.4byte	0x6d30345b
 fff55ac:	0000                	.2byte	0x0
 fff55ae:	0000                	.2byte	0x0
 fff55b0:	94e2                	.2byte	0x94e2
 fff55b2:	e28c                	.2byte	0xe28c
 fff55b4:	8094                	.2byte	0x8094
 fff55b6:	94e2                	.2byte	0x94e2
 fff55b8:	e280                	.2byte	0xe280
 fff55ba:	8094                	.2byte	0x8094
 fff55bc:	94e2                	.2byte	0x94e2
 fff55be:	e280                	.2byte	0xe280
 fff55c0:	8094                	.2byte	0x8094
 fff55c2:	94e2                	.2byte	0x94e2
 fff55c4:	e280                	.2byte	0xe280
 fff55c6:	8094                	.2byte	0x8094
 fff55c8:	94e2                	.2byte	0x94e2
 fff55ca:	e280                	.2byte	0xe280
 fff55cc:	8094                	.2byte	0x8094
 fff55ce:	94e2                	.2byte	0x94e2
 fff55d0:	e280                	.2byte	0xe280
 fff55d2:	8094                	.2byte	0x8094
 fff55d4:	94e2                	.2byte	0x94e2
 fff55d6:	e280                	.2byte	0xe280
 fff55d8:	8094                	.2byte	0x8094
 fff55da:	94e2                	.2byte	0x94e2
 fff55dc:	e280                	.2byte	0xe280
 fff55de:	8094                	.2byte	0x8094
 fff55e0:	94e2                	.2byte	0x94e2
 fff55e2:	e280                	.2byte	0xe280
 fff55e4:	8094                	.2byte	0x8094
 fff55e6:	94e2                	.2byte	0x94e2
 fff55e8:	e280                	.2byte	0xe280
 fff55ea:	8094                	.2byte	0x8094
 fff55ec:	94e2                	.2byte	0x94e2
 fff55ee:	e280                	.2byte	0xe280
 fff55f0:	8094                	.2byte	0x8094
 fff55f2:	94e2                	.2byte	0x94e2
 fff55f4:	e280                	.2byte	0xe280
 fff55f6:	8094                	.2byte	0x8094
 fff55f8:	94e2                	.2byte	0x94e2
 fff55fa:	e280                	.2byte	0xe280
 fff55fc:	8094                	.2byte	0x8094
 fff55fe:	94e2                	.2byte	0x94e2
 fff5600:	e280                	.2byte	0xe280
 fff5602:	8094                	.2byte	0x8094
 fff5604:	94e2                	.2byte	0x94e2
 fff5606:	e280                	.2byte	0xe280
 fff5608:	8094                	.2byte	0x8094
 fff560a:	94e2                	.2byte	0x94e2
 fff560c:	e280                	.2byte	0xe280
 fff560e:	8094                	.2byte	0x8094
 fff5610:	94e2                	.2byte	0x94e2
 fff5612:	e280                	.2byte	0xe280
 fff5614:	8094                	.2byte	0x8094
 fff5616:	94e2                	.2byte	0x94e2
 fff5618:	e280                	.2byte	0xe280
 fff561a:	8094                	.2byte	0x8094
 fff561c:	94e2                	.2byte	0x94e2
 fff561e:	e280                	.2byte	0xe280
 fff5620:	8094                	.2byte	0x8094
 fff5622:	94e2                	.2byte	0x94e2
 fff5624:	e280                	.2byte	0xe280
 fff5626:	8094                	.2byte	0x8094
 fff5628:	94e2                	.2byte	0x94e2
 fff562a:	e280                	.2byte	0xe280
 fff562c:	8094                	.2byte	0x8094
 fff562e:	94e2                	.2byte	0x94e2
 fff5630:	e280                	.2byte	0xe280
 fff5632:	8094                	.2byte	0x8094
 fff5634:	94e2                	.2byte	0x94e2
 fff5636:	e280                	.2byte	0xe280
 fff5638:	8094                	.2byte	0x8094
 fff563a:	94e2                	.2byte	0x94e2
 fff563c:	e280                	.2byte	0xe280
 fff563e:	8094                	.2byte	0x8094
 fff5640:	94e2                	.2byte	0x94e2
 fff5642:	e280                	.2byte	0xe280
 fff5644:	8094                	.2byte	0x8094
 fff5646:	94e2                	.2byte	0x94e2
 fff5648:	e280                	.2byte	0xe280
 fff564a:	8094                	.2byte	0x8094
 fff564c:	94e2                	.2byte	0x94e2
 fff564e:	0a90                	.2byte	0xa90
 fff5650:	0000                	.2byte	0x0
 fff5652:	0000                	.2byte	0x0
 fff5654:	94e2                	.2byte	0x94e2
 fff5656:	2082                	.2byte	0x2082
 fff5658:	6e55                	.2byte	0x6e55
 fff565a:	6d69                	.2byte	0x6d69
 fff565c:	6c70                	.2byte	0x6c70
 fff565e:	6d65                	.2byte	0x6d65
 fff5660:	6e65                	.2byte	0x6e65
 fff5662:	6574                	.2byte	0x6574
 fff5664:	2064                	.2byte	0x2064
 fff5666:	616d                	.2byte	0x616d
 fff5668:	6e696863          	bltu	s2,t1,fff5d58 <_free_r+0xb38>
 fff566c:	2065                	.2byte	0x2065
 fff566e:	4345                	.2byte	0x4345
 fff5670:	4c41                	.2byte	0x4c41
 fff5672:	2e4c                	.2byte	0x2e4c
 fff5674:	5020                	.2byte	0x5020
 fff5676:	6f72                	.2byte	0x6f72
 fff5678:	6d617267          	.4byte	0x6d617267
 fff567c:	7720                	.2byte	0x7720
 fff567e:	6c69                	.2byte	0x6c69
 fff5680:	206c                	.2byte	0x206c
 fff5682:	6572                	.2byte	0x6572
 fff5684:	656d7573          	csrrci	a0,0x656,26
 fff5688:	2020                	.2byte	0x2020
 fff568a:	94e2                	.2byte	0x94e2
 fff568c:	0a82                	.2byte	0xa82
 fff568e:	0000                	.2byte	0x0
 fff5690:	94e2                	.2byte	0x94e2
 fff5692:	2082                	.2byte	0x2082
 fff5694:	7865                	.2byte	0x7865
 fff5696:	6365                	.2byte	0x6365
 fff5698:	7475                	.2byte	0x7475
 fff569a:	6f69                	.2byte	0x6f69
 fff569c:	206e                	.2byte	0x206e
 fff569e:	6170                	.2byte	0x6170
 fff56a0:	74207473          	csrrci	s0,0x742,0
 fff56a4:	6568                	.2byte	0x6568
 fff56a6:	6320                	.2byte	0x6320
 fff56a8:	6c61                	.2byte	0x6c61
 fff56aa:	2c6c                	.2byte	0x2c6c
 fff56ac:	6120                	.2byte	0x6120
 fff56ae:	646e                	.2byte	0x646e
 fff56b0:	6d20                	.2byte	0x6d20
 fff56b2:	6769                	.2byte	0x6769
 fff56b4:	7468                	.2byte	0x7468
 fff56b6:	6320                	.2byte	0x6320
 fff56b8:	6172                	.2byte	0x6172
 fff56ba:	6f206873          	csrrsi	a6,0x6f2,0
 fff56be:	2072                	.2byte	0x2072
 fff56c0:	6168                	.2byte	0x6168
 fff56c2:	676e                	.2byte	0x676e
 fff56c4:	202e                	.2byte	0x202e
 fff56c6:	94e2                	.2byte	0x94e2
 fff56c8:	0a82                	.2byte	0xa82
 fff56ca:	0000                	.2byte	0x0
 fff56cc:	94e2                	.2byte	0x94e2
 fff56ce:	2082                	.2byte	0x2082
 fff56d0:	00000023          	sb	zero,0(zero) # 0 <__stack_size-0x100>
 fff56d4:	4020                	.2byte	0x4020
 fff56d6:	0000                	.2byte	0x0
 fff56d8:	2020                	.2byte	0x2020
 fff56da:	2020                	.2byte	0x2020
 fff56dc:	2020                	.2byte	0x2020
 fff56de:	2020                	.2byte	0x2020
 fff56e0:	2020                	.2byte	0x2020
 fff56e2:	2020                	.2byte	0x2020
 fff56e4:	2020                	.2byte	0x2020
 fff56e6:	2020                	.2byte	0x2020
 fff56e8:	2020                	.2byte	0x2020
 fff56ea:	2020                	.2byte	0x2020
 fff56ec:	2020                	.2byte	0x2020
 fff56ee:	2020                	.2byte	0x2020
 fff56f0:	2020                	.2byte	0x2020
 fff56f2:	2020                	.2byte	0x2020
 fff56f4:	2020                	.2byte	0x2020
 fff56f6:	e220                	.2byte	0xe220
 fff56f8:	8294                	.2byte	0x8294
 fff56fa:	000a                	.2byte	0xa
 fff56fc:	94e2                	.2byte	0x94e2
 fff56fe:	e294                	.2byte	0xe294
 fff5700:	8094                	.2byte	0x8094
 fff5702:	94e2                	.2byte	0x94e2
 fff5704:	e280                	.2byte	0xe280
 fff5706:	8094                	.2byte	0x8094
 fff5708:	94e2                	.2byte	0x94e2
 fff570a:	e280                	.2byte	0xe280
 fff570c:	8094                	.2byte	0x8094
 fff570e:	94e2                	.2byte	0x94e2
 fff5710:	e280                	.2byte	0xe280
 fff5712:	8094                	.2byte	0x8094
 fff5714:	94e2                	.2byte	0x94e2
 fff5716:	e280                	.2byte	0xe280
 fff5718:	8094                	.2byte	0x8094
 fff571a:	94e2                	.2byte	0x94e2
 fff571c:	e280                	.2byte	0xe280
 fff571e:	8094                	.2byte	0x8094
 fff5720:	94e2                	.2byte	0x94e2
 fff5722:	e280                	.2byte	0xe280
 fff5724:	8094                	.2byte	0x8094
 fff5726:	94e2                	.2byte	0x94e2
 fff5728:	e280                	.2byte	0xe280
 fff572a:	8094                	.2byte	0x8094
 fff572c:	94e2                	.2byte	0x94e2
 fff572e:	e280                	.2byte	0xe280
 fff5730:	8094                	.2byte	0x8094
 fff5732:	94e2                	.2byte	0x94e2
 fff5734:	e280                	.2byte	0xe280
 fff5736:	8094                	.2byte	0x8094
 fff5738:	94e2                	.2byte	0x94e2
 fff573a:	e280                	.2byte	0xe280
 fff573c:	8094                	.2byte	0x8094
 fff573e:	94e2                	.2byte	0x94e2
 fff5740:	e280                	.2byte	0xe280
 fff5742:	8094                	.2byte	0x8094
 fff5744:	94e2                	.2byte	0x94e2
 fff5746:	e280                	.2byte	0xe280
 fff5748:	8094                	.2byte	0x8094
 fff574a:	94e2                	.2byte	0x94e2
 fff574c:	e280                	.2byte	0xe280
 fff574e:	8094                	.2byte	0x8094
 fff5750:	94e2                	.2byte	0x94e2
 fff5752:	e280                	.2byte	0xe280
 fff5754:	8094                	.2byte	0x8094
 fff5756:	94e2                	.2byte	0x94e2
 fff5758:	e280                	.2byte	0xe280
 fff575a:	8094                	.2byte	0x8094
 fff575c:	94e2                	.2byte	0x94e2
 fff575e:	e280                	.2byte	0xe280
 fff5760:	8094                	.2byte	0x8094
 fff5762:	94e2                	.2byte	0x94e2
 fff5764:	e280                	.2byte	0xe280
 fff5766:	8094                	.2byte	0x8094
 fff5768:	94e2                	.2byte	0x94e2
 fff576a:	e280                	.2byte	0xe280
 fff576c:	8094                	.2byte	0x8094
 fff576e:	94e2                	.2byte	0x94e2
 fff5770:	e280                	.2byte	0xe280
 fff5772:	8094                	.2byte	0x8094
 fff5774:	94e2                	.2byte	0x94e2
 fff5776:	e280                	.2byte	0xe280
 fff5778:	8094                	.2byte	0x8094
 fff577a:	94e2                	.2byte	0x94e2
 fff577c:	e280                	.2byte	0xe280
 fff577e:	8094                	.2byte	0x8094
 fff5780:	94e2                	.2byte	0x94e2
 fff5782:	e280                	.2byte	0xe280
 fff5784:	8094                	.2byte	0x8094
 fff5786:	94e2                	.2byte	0x94e2
 fff5788:	e280                	.2byte	0xe280
 fff578a:	8094                	.2byte	0x8094
 fff578c:	94e2                	.2byte	0x94e2
 fff578e:	e280                	.2byte	0xe280
 fff5790:	8094                	.2byte	0x8094
 fff5792:	94e2                	.2byte	0x94e2
 fff5794:	e280                	.2byte	0xe280
 fff5796:	8094                	.2byte	0x8094
 fff5798:	94e2                	.2byte	0x94e2
 fff579a:	0a98                	.2byte	0xa98
 fff579c:	0000                	.2byte	0x0
 fff579e:	0000                	.2byte	0x0
 fff57a0:	6d305b1b          	.4byte	0x6d305b1b
 fff57a4:	000a                	.2byte	0xa
 fff57a6:	0000                	.2byte	0x0
 fff57a8:	94e2                	.2byte	0x94e2
 fff57aa:	2082                	.2byte	0x2082
 fff57ac:	74666f53          	.4byte	0x74666f53
 fff57b0:	65726177          	.4byte	0x65726177
 fff57b4:	4620                	.2byte	0x4620
 fff57b6:	6961                	.2byte	0x6961
 fff57b8:	756c                	.2byte	0x756c
 fff57ba:	6572                	.2byte	0x6572
 fff57bc:	202e                	.2byte	0x202e
 fff57be:	7250                	.2byte	0x7250
 fff57c0:	7365                	.2byte	0x7365
 fff57c2:	65722073          	csrs	0x657,tp
 fff57c6:	20746573          	csrrsi	a0,0x207,8
 fff57ca:	7562                	.2byte	0x7562
 fff57cc:	7474                	.2byte	0x7474
 fff57ce:	74206e6f          	jal	t3,fffbf10 <__BSS_END__$+0x31a8>
 fff57d2:	6f63206f          	j	10027ec8 <__BSS_END__$+0x2f160>
 fff57d6:	746e                	.2byte	0x746e
 fff57d8:	6e69                	.2byte	0x6e69
 fff57da:	6575                	.2byte	0x6575
 fff57dc:	202e                	.2byte	0x202e
 fff57de:	94e2                	.2byte	0x94e2
 fff57e0:	0a82                	.2byte	0xa82
 fff57e2:	0000                	.2byte	0x0
 fff57e4:	94e2                	.2byte	0x94e2
 fff57e6:	2082                	.2byte	0x2082
 fff57e8:	2020                	.2byte	0x2020
 fff57ea:	75727547          	.4byte	0x75727547
 fff57ee:	4d20                	.2byte	0x4d20
 fff57f0:	6465                	.2byte	0x6465
 fff57f2:	7469                	.2byte	0x7469
 fff57f4:	7461                	.2byte	0x7461
 fff57f6:	6f69                	.2byte	0x6f69
 fff57f8:	206e                	.2byte	0x206e
 fff57fa:	002e0023          	sb	sp,0(t3)
 fff57fe:	0000                	.2byte	0x0
 fff5800:	2020                	.2byte	0x2020
 fff5802:	2020                	.2byte	0x2020
 fff5804:	94e2                	.2byte	0x94e2
 fff5806:	0a82                	.2byte	0xa82
 fff5808:	0000                	.2byte	0x0
 fff580a:	0000                	.2byte	0x0
 fff580c:	1b485b1b          	.4byte	0x1b485b1b
 fff5810:	1b6d305b          	.4byte	0x1b6d305b
 fff5814:	744a325b          	.4byte	0x744a325b
 fff5818:	6e69                	.2byte	0x6e69
 fff581a:	7379                	.2byte	0x7379
 fff581c:	7379                	.2byte	0x7379
 fff581e:	7620                	.2byte	0x7620
 fff5820:	2e30                	.2byte	0x2e30
 fff5822:	0a38                	.2byte	0xa38
 fff5824:	0000                	.2byte	0x0
 fff5826:	0000                	.2byte	0x0
 fff5828:	5c3a6473          	csrrsi	s0,0x5c3,20
 fff582c:	6f62                	.2byte	0x6f62
 fff582e:	652e746f          	jal	s0,100dce80 <__BSS_END__$+0xe4118>
 fff5832:	666c                	.2byte	0x666c
 fff5834:	0000                	.2byte	0x0
 fff5836:	0000                	.2byte	0x0
 fff5838:	735f 7574 0062      	.byte	0x5f, 0x73, 0x74, 0x75, 0x62, 0x00
 fff583e:	0000                	.2byte	0x0
 fff5840:	6f42                	.2byte	0x6f42
 fff5842:	6154746f          	jal	s0,1003d656 <__BSS_END__$+0x448ee>
 fff5846:	00006b73          	csrrsi	s6,ustatus,0
 fff584a:	0000                	.2byte	0x0
 fff584c:	003a6473          	csrrsi	s0,fcsr,20
 fff5850:	5c3a6473          	csrrsi	s0,0x5c3,20
 fff5854:	0000                	.2byte	0x0
 fff5856:	0000                	.2byte	0x0
 fff5858:	6620                	.2byte	0x6620
 fff585a:	6961                	.2byte	0x6961
 fff585c:	656c                	.2byte	0x656c
 fff585e:	3a64                	.2byte	0x3a64
 fff5860:	6520                	.2byte	0x6520
 fff5862:	7078                	.2byte	0x7078
 fff5864:	6365                	.2byte	0x6365
 fff5866:	6974                	.2byte	0x6974
 fff5868:	676e                	.2byte	0x676e
 fff586a:	3020                	.2byte	0x3020
 fff586c:	3778                	.2byte	0x3778
 fff586e:	2b46                	.2byte	0x2b46
 fff5870:	464c4527          	.4byte	0x464c4527
 fff5874:	00000027          	.4byte	0x27
 fff5878:	6f4c                	.2byte	0x6f4c
 fff587a:	6461                	.2byte	0x6461
 fff587c:	6e69                	.2byte	0x6e69
 fff587e:	6f622067          	.4byte	0x6f622067
 fff5882:	6520746f          	jal	s0,fffced4 <__BSS_END__$+0x416c>
 fff5886:	6578                	.2byte	0x6578
 fff5888:	61747563          	bgeu	s0,s7,fff5e92 <_ZL6LfnOfs+0x16>
 fff588c:	6c62                	.2byte	0x6c62
 fff588e:	2e65                	.2byte	0x2e65
 fff5890:	2e2e                	.2byte	0x2e2e
 fff5892:	0000                	.2byte	0x0
 fff5894:	6f64                	.2byte	0x6f64
 fff5896:	656e                	.2byte	0x656e
 fff5898:	0a2e                	.2byte	0xa2e
 fff589a:	0000                	.2byte	0x0
 fff589c:	7845                	.2byte	0x7845
 fff589e:	6365                	.2byte	0x6365
 fff58a0:	7475                	.2byte	0x7475
 fff58a2:	6261                	.2byte	0x6261
 fff58a4:	656c                	.2byte	0x656c
 fff58a6:	2720                	.2byte	0x2720
 fff58a8:	0000                	.2byte	0x0
 fff58aa:	0000                	.2byte	0x0
 fff58ac:	6f6e2027          	.4byte	0x6f6e2027
 fff58b0:	2074                	.2byte	0x2074
 fff58b2:	6f66                	.2byte	0x6f66
 fff58b4:	6e75                	.2byte	0x6e75
 fff58b6:	2e64                	.2byte	0x2e64
 fff58b8:	000a                	.2byte	0xa
 fff58ba:	0000                	.2byte	0x0
 fff58bc:	63637553          	.4byte	0x63637553
 fff58c0:	6565                	.2byte	0x6565
 fff58c2:	6564                	.2byte	0x6564
 fff58c4:	0a64                	.2byte	0xa64
 fff58c6:	0000                	.2byte	0x0
 fff58c8:	2041                	.2byte	0x2041
 fff58ca:	6168                	.2byte	0x6168
 fff58cc:	6472                	.2byte	0x6472
 fff58ce:	6520                	.2byte	0x6520
 fff58d0:	7272                	.2byte	0x7272
 fff58d2:	6f20726f          	jal	tp,fffcfc4 <__BSS_END__$+0x425c>
 fff58d6:	72756363          	bltu	a0,t2,fff5ffc <_ZZ11ff_wtoupperE4cvt1+0x84>
 fff58da:	6572                	.2byte	0x6572
 fff58dc:	2064                	.2byte	0x2064
 fff58de:	6e69                	.2byte	0x6e69
 fff58e0:	7420                	.2byte	0x7420
 fff58e2:	6568                	.2byte	0x6568
 fff58e4:	6c20                	.2byte	0x6c20
 fff58e6:	6c20776f          	jal	a4,fffcfa8 <__BSS_END__$+0x4240>
 fff58ea:	7665                	.2byte	0x7665
 fff58ec:	6c65                	.2byte	0x6c65
 fff58ee:	6420                	.2byte	0x6420
 fff58f0:	7369                	.2byte	0x7369
 fff58f2:	2f49206b          	.4byte	0x2f49206b
 fff58f6:	616c204f          	.4byte	0x616c204f
 fff58fa:	6579                	.2byte	0x6579
 fff58fc:	0a72                	.2byte	0xa72
 fff58fe:	0000                	.2byte	0x0
 fff5900:	7341                	.2byte	0x7341
 fff5902:	74726573          	csrrsi	a0,0x747,4
 fff5906:	6f69                	.2byte	0x6f69
 fff5908:	206e                	.2byte	0x206e
 fff590a:	6166                	.2byte	0x6166
 fff590c:	6c69                	.2byte	0x6c69
 fff590e:	6465                	.2byte	0x6465
 fff5910:	000a                	.2byte	0xa
 fff5912:	0000                	.2byte	0x0
 fff5914:	6854                	.2byte	0x6854
 fff5916:	2065                	.2byte	0x2065
 fff5918:	6870                	.2byte	0x6870
 fff591a:	7379                	.2byte	0x7379
 fff591c:	6369                	.2byte	0x6369
 fff591e:	6c61                	.2byte	0x6c61
 fff5920:	6420                	.2byte	0x6420
 fff5922:	6972                	.2byte	0x6972
 fff5924:	6576                	.2byte	0x6576
 fff5926:	6320                	.2byte	0x6320
 fff5928:	6e61                	.2byte	0x6e61
 fff592a:	6f6e                	.2byte	0x6f6e
 fff592c:	2074                	.2byte	0x2074
 fff592e:	6b726f77          	.4byte	0x6b726f77
 fff5932:	000a                	.2byte	0xa
 fff5934:	6c756f43          	.4byte	0x6c756f43
 fff5938:	2064                	.2byte	0x2064
 fff593a:	6f6e                	.2byte	0x6f6e
 fff593c:	2074                	.2byte	0x2074
 fff593e:	6966                	.2byte	0x6966
 fff5940:	646e                	.2byte	0x646e
 fff5942:	7420                	.2byte	0x7420
 fff5944:	6568                	.2byte	0x6568
 fff5946:	6620                	.2byte	0x6620
 fff5948:	6c69                	.2byte	0x6c69
 fff594a:	0a65                	.2byte	0xa65
 fff594c:	0000                	.2byte	0x0
 fff594e:	0000                	.2byte	0x0
 fff5950:	6c756f43          	.4byte	0x6c756f43
 fff5954:	2064                	.2byte	0x2064
 fff5956:	6f6e                	.2byte	0x6f6e
 fff5958:	2074                	.2byte	0x2074
 fff595a:	6966                	.2byte	0x6966
 fff595c:	646e                	.2byte	0x646e
 fff595e:	7420                	.2byte	0x7420
 fff5960:	6568                	.2byte	0x6568
 fff5962:	7020                	.2byte	0x7020
 fff5964:	7461                	.2byte	0x7461
 fff5966:	0a68                	.2byte	0xa68
 fff5968:	0000                	.2byte	0x0
 fff596a:	0000                	.2byte	0x0
 fff596c:	6854                	.2byte	0x6854
 fff596e:	2065                	.2byte	0x2065
 fff5970:	6170                	.2byte	0x6170
 fff5972:	6874                	.2byte	0x6874
 fff5974:	6e20                	.2byte	0x6e20
 fff5976:	6d61                	.2byte	0x6d61
 fff5978:	2065                	.2byte	0x2065
 fff597a:	6f66                	.2byte	0x6f66
 fff597c:	6d72                	.2byte	0x6d72
 fff597e:	7461                	.2byte	0x7461
 fff5980:	6920                	.2byte	0x6920
 fff5982:	6e692073          	csrs	0x6e6,s2
 fff5986:	6176                	.2byte	0x6176
 fff5988:	696c                	.2byte	0x696c
 fff598a:	0a64                	.2byte	0xa64
 fff598c:	0000                	.2byte	0x0
 fff598e:	0000                	.2byte	0x0
 fff5990:	6341                	.2byte	0x6341
 fff5992:	73736563          	bltu	t1,s7,fff60bc <_ZZ11ff_wtoupperE4cvt1+0x144>
 fff5996:	6420                	.2byte	0x6420
 fff5998:	6e65                	.2byte	0x6e65
 fff599a:	6569                	.2byte	0x6569
 fff599c:	2064                	.2byte	0x2064
 fff599e:	7564                	.2byte	0x7564
 fff59a0:	2065                	.2byte	0x2065
 fff59a2:	6f74                	.2byte	0x6f74
 fff59a4:	7020                	.2byte	0x7020
 fff59a6:	6f72                	.2byte	0x6f72
 fff59a8:	6968                	.2byte	0x6968
 fff59aa:	6962                	.2byte	0x6962
 fff59ac:	6574                	.2byte	0x6574
 fff59ae:	2064                	.2byte	0x2064
 fff59b0:	6361                	.2byte	0x6361
 fff59b2:	73736563          	bltu	t1,s7,fff60dc <_ZZ11ff_wtoupperE4cvt1+0x164>
 fff59b6:	6f20                	.2byte	0x6f20
 fff59b8:	2072                	.2byte	0x2072
 fff59ba:	6964                	.2byte	0x6964
 fff59bc:	6572                	.2byte	0x6572
 fff59be:	726f7463          	bgeu	t5,t1,fff60e6 <_ZZ11ff_wtoupperE4cvt1+0x16e>
 fff59c2:	2079                	.2byte	0x2079
 fff59c4:	7566                	.2byte	0x7566
 fff59c6:	6c6c                	.2byte	0x6c6c
 fff59c8:	000a                	.2byte	0xa
 fff59ca:	0000                	.2byte	0x0
 fff59cc:	6341                	.2byte	0x6341
 fff59ce:	73736563          	bltu	t1,s7,fff60f8 <_ZZ11ff_wtoupperE4cvt1+0x180>
 fff59d2:	6420                	.2byte	0x6420
 fff59d4:	6e65                	.2byte	0x6e65
 fff59d6:	6569                	.2byte	0x6569
 fff59d8:	2064                	.2byte	0x2064
 fff59da:	7564                	.2byte	0x7564
 fff59dc:	2065                	.2byte	0x2065
 fff59de:	6f74                	.2byte	0x6f74
 fff59e0:	7020                	.2byte	0x7020
 fff59e2:	6f72                	.2byte	0x6f72
 fff59e4:	6968                	.2byte	0x6968
 fff59e6:	6962                	.2byte	0x6962
 fff59e8:	6574                	.2byte	0x6574
 fff59ea:	2064                	.2byte	0x2064
 fff59ec:	6361                	.2byte	0x6361
 fff59ee:	73736563          	bltu	t1,s7,fff6118 <_ZZ11ff_wtoupperE4cvt1+0x1a0>
 fff59f2:	000a                	.2byte	0xa
 fff59f4:	6854                	.2byte	0x6854
 fff59f6:	2065                	.2byte	0x2065
 fff59f8:	6966                	.2byte	0x6966
 fff59fa:	656c                	.2byte	0x656c
 fff59fc:	7269642f          	.4byte	0x7269642f
 fff5a00:	6365                	.2byte	0x6365
 fff5a02:	6f74                	.2byte	0x6f74
 fff5a04:	7972                	.2byte	0x7972
 fff5a06:	6f20                	.2byte	0x6f20
 fff5a08:	6a62                	.2byte	0x6a62
 fff5a0a:	6365                	.2byte	0x6365
 fff5a0c:	2074                	.2byte	0x2074
 fff5a0e:	7369                	.2byte	0x7369
 fff5a10:	6920                	.2byte	0x6920
 fff5a12:	766e                	.2byte	0x766e
 fff5a14:	6c61                	.2byte	0x6c61
 fff5a16:	6469                	.2byte	0x6469
 fff5a18:	000a                	.2byte	0xa
 fff5a1a:	0000                	.2byte	0x0
 fff5a1c:	6854                	.2byte	0x6854
 fff5a1e:	2065                	.2byte	0x2065
 fff5a20:	6870                	.2byte	0x6870
 fff5a22:	7379                	.2byte	0x7379
 fff5a24:	6369                	.2byte	0x6369
 fff5a26:	6c61                	.2byte	0x6c61
 fff5a28:	6420                	.2byte	0x6420
 fff5a2a:	6972                	.2byte	0x6972
 fff5a2c:	6576                	.2byte	0x6576
 fff5a2e:	6920                	.2byte	0x6920
 fff5a30:	72772073          	csrs	mhpmevent7h,a4
 fff5a34:	7469                	.2byte	0x7469
 fff5a36:	2065                	.2byte	0x2065
 fff5a38:	7270                	.2byte	0x7270
 fff5a3a:	6365746f          	jal	s0,1004d070 <__BSS_END__$+0x54308>
 fff5a3e:	6574                	.2byte	0x6574
 fff5a40:	0a64                	.2byte	0xa64
 fff5a42:	0000                	.2byte	0x0
 fff5a44:	6854                	.2byte	0x6854
 fff5a46:	2065                	.2byte	0x2065
 fff5a48:	6f6c                	.2byte	0x6f6c
 fff5a4a:	61636967          	.4byte	0x61636967
 fff5a4e:	206c                	.2byte	0x206c
 fff5a50:	7264                	.2byte	0x7264
 fff5a52:	7669                	.2byte	0x7669
 fff5a54:	2065                	.2byte	0x2065
 fff5a56:	756e                	.2byte	0x756e
 fff5a58:	626d                	.2byte	0x626d
 fff5a5a:	7265                	.2byte	0x7265
 fff5a5c:	6920                	.2byte	0x6920
 fff5a5e:	6e692073          	csrs	0x6e6,s2
 fff5a62:	6176                	.2byte	0x6176
 fff5a64:	696c                	.2byte	0x696c
 fff5a66:	0a64                	.2byte	0xa64
 fff5a68:	0000                	.2byte	0x0
 fff5a6a:	0000                	.2byte	0x0
 fff5a6c:	6854                	.2byte	0x6854
 fff5a6e:	2065                	.2byte	0x2065
 fff5a70:	6f76                	.2byte	0x6f76
 fff5a72:	756c                	.2byte	0x756c
 fff5a74:	656d                	.2byte	0x656d
 fff5a76:	6820                	.2byte	0x6820
 fff5a78:	7361                	.2byte	0x7361
 fff5a7a:	6e20                	.2byte	0x6e20
 fff5a7c:	6f77206f          	j	10068972 <__BSS_END__$+0x6fc0a>
 fff5a80:	6b72                	.2byte	0x6b72
 fff5a82:	6120                	.2byte	0x6120
 fff5a84:	6572                	.2byte	0x6572
 fff5a86:	0a61                	.2byte	0xa61
 fff5a88:	0000                	.2byte	0x0
 fff5a8a:	0000                	.2byte	0x0
 fff5a8c:	6854                	.2byte	0x6854
 fff5a8e:	7265                	.2byte	0x7265
 fff5a90:	2065                	.2byte	0x2065
 fff5a92:	7369                	.2byte	0x7369
 fff5a94:	6e20                	.2byte	0x6e20
 fff5a96:	6176206f          	j	100588ac <__BSS_END__$+0x5fb44>
 fff5a9a:	696c                	.2byte	0x696c
 fff5a9c:	2064                	.2byte	0x2064
 fff5a9e:	4146                	.2byte	0x4146
 fff5aa0:	2054                	.2byte	0x2054
 fff5aa2:	6f76                	.2byte	0x6f76
 fff5aa4:	756c                	.2byte	0x756c
 fff5aa6:	656d                	.2byte	0x656d
 fff5aa8:	000a                	.2byte	0xa
 fff5aaa:	0000                	.2byte	0x0
 fff5aac:	6854                	.2byte	0x6854
 fff5aae:	2065                	.2byte	0x2065
 fff5ab0:	5f66                	.2byte	0x5f66
 fff5ab2:	6b6d                	.2byte	0x6b6d
 fff5ab4:	7366                	.2byte	0x7366
 fff5ab6:	2928                	.2byte	0x2928
 fff5ab8:	6120                	.2byte	0x6120
 fff5aba:	6f62                	.2byte	0x6f62
 fff5abc:	7472                	.2byte	0x7472
 fff5abe:	6465                	.2byte	0x6465
 fff5ac0:	6420                	.2byte	0x6420
 fff5ac2:	6575                	.2byte	0x6575
 fff5ac4:	7420                	.2byte	0x7420
 fff5ac6:	6e61206f          	j	100081ac <__BSS_END__$+0xf444>
 fff5aca:	2079                	.2byte	0x2079
 fff5acc:	7270                	.2byte	0x7270
 fff5ace:	656c626f          	jal	tp,100bc124 <__BSS_END__$+0xc33bc>
 fff5ad2:	0a6d                	.2byte	0xa6d
 fff5ad4:	0000                	.2byte	0x0
 fff5ad6:	0000                	.2byte	0x0
 fff5ad8:	6c756f43          	.4byte	0x6c756f43
 fff5adc:	2064                	.2byte	0x2064
 fff5ade:	6f6e                	.2byte	0x6f6e
 fff5ae0:	2074                	.2byte	0x2074
 fff5ae2:	20746567          	.4byte	0x20746567
 fff5ae6:	2061                	.2byte	0x2061
 fff5ae8:	6e617267          	.4byte	0x6e617267
 fff5aec:	2074                	.2byte	0x2074
 fff5aee:	6f74                	.2byte	0x6f74
 fff5af0:	6120                	.2byte	0x6120
 fff5af2:	73656363          	bltu	a0,s6,fff6218 <_ZL5uc437+0xac>
 fff5af6:	68742073          	csrs	0x687,s0
 fff5afa:	2065                	.2byte	0x2065
 fff5afc:	6f76                	.2byte	0x6f76
 fff5afe:	756c                	.2byte	0x756c
 fff5b00:	656d                	.2byte	0x656d
 fff5b02:	7720                	.2byte	0x7720
 fff5b04:	7469                	.2byte	0x7469
 fff5b06:	6968                	.2byte	0x6968
 fff5b08:	206e                	.2byte	0x206e
 fff5b0a:	6564                	.2byte	0x6564
 fff5b0c:	6966                	.2byte	0x6966
 fff5b0e:	656e                	.2byte	0x656e
 fff5b10:	2064                	.2byte	0x2064
 fff5b12:	6570                	.2byte	0x6570
 fff5b14:	6972                	.2byte	0x6972
 fff5b16:	000a646f          	jal	s0,1009bb16 <__BSS_END__$+0xa2dae>
 fff5b1a:	0000                	.2byte	0x0
 fff5b1c:	6854                	.2byte	0x6854
 fff5b1e:	2065                	.2byte	0x2065
 fff5b20:	7265706f          	j	1004d246 <__BSS_END__$+0x544de>
 fff5b24:	7461                	.2byte	0x7461
 fff5b26:	6f69                	.2byte	0x6f69
 fff5b28:	206e                	.2byte	0x206e
 fff5b2a:	7369                	.2byte	0x7369
 fff5b2c:	7220                	.2byte	0x7220
 fff5b2e:	6a65                	.2byte	0x6a65
 fff5b30:	6365                	.2byte	0x6365
 fff5b32:	6574                	.2byte	0x6574
 fff5b34:	2064                	.2byte	0x2064
 fff5b36:	6361                	.2byte	0x6361
 fff5b38:	64726f63          	bltu	tp,t2,fff6196 <_ZL5uc437+0x2a>
 fff5b3c:	6e69                	.2byte	0x6e69
 fff5b3e:	6f742067          	.4byte	0x6f742067
 fff5b42:	7420                	.2byte	0x7420
 fff5b44:	6568                	.2byte	0x6568
 fff5b46:	6620                	.2byte	0x6620
 fff5b48:	6c69                	.2byte	0x6c69
 fff5b4a:	2065                	.2byte	0x2065
 fff5b4c:	72616873          	csrrsi	a6,mhpmevent6h,2
 fff5b50:	6e69                	.2byte	0x6e69
 fff5b52:	6f702067          	.4byte	0x6f702067
 fff5b56:	696c                	.2byte	0x696c
 fff5b58:	000a7963          	bgeu	s4,zero,fff5b6a <_free_r+0x94a>
 fff5b5c:	464c                	.2byte	0x464c
 fff5b5e:	204e                	.2byte	0x204e
 fff5b60:	6b726f77          	.4byte	0x6b726f77
 fff5b64:	6e69                	.2byte	0x6e69
 fff5b66:	75622067          	.4byte	0x75622067
 fff5b6a:	6666                	.2byte	0x6666
 fff5b6c:	7265                	.2byte	0x7265
 fff5b6e:	6320                	.2byte	0x6320
 fff5b70:	646c756f          	jal	a0,100bd1b6 <__BSS_END__$+0xc444e>
 fff5b74:	6e20                	.2byte	0x6e20
 fff5b76:	6220746f          	jal	s0,fffd198 <__BSS_END__$+0x4430>
 fff5b7a:	2065                	.2byte	0x2065
 fff5b7c:	6c61                	.2byte	0x6c61
 fff5b7e:	6f6c                	.2byte	0x6f6c
 fff5b80:	65746163          	bltu	s0,s7,fff61c2 <_ZL5uc437+0x56>
 fff5b84:	0a64                	.2byte	0xa64
 fff5b86:	0000                	.2byte	0x0
 fff5b88:	754e                	.2byte	0x754e
 fff5b8a:	626d                	.2byte	0x626d
 fff5b8c:	7265                	.2byte	0x7265
 fff5b8e:	6f20                	.2byte	0x6f20
 fff5b90:	2066                	.2byte	0x2066
 fff5b92:	6e65706f          	j	1004d278 <__BSS_END__$+0x54510>
 fff5b96:	6620                	.2byte	0x6620
 fff5b98:	6c69                	.2byte	0x6c69
 fff5b9a:	7365                	.2byte	0x7365
 fff5b9c:	3e20                	.2byte	0x3e20
 fff5b9e:	4620                	.2byte	0x4620
 fff5ba0:	5f46                	.2byte	0x5f46
 fff5ba2:	5346                	.2byte	0x5346
 fff5ba4:	4c5f 434f 0a4b      	.byte	0x5f, 0x4c, 0x4f, 0x43, 0x4b, 0x0a
 fff5baa:	0000                	.2byte	0x0
 fff5bac:	65766947          	.4byte	0x65766947
 fff5bb0:	206e                	.2byte	0x206e
 fff5bb2:	6170                	.2byte	0x6170
 fff5bb4:	6172                	.2byte	0x6172
 fff5bb6:	656d                	.2byte	0x656d
 fff5bb8:	6574                	.2byte	0x6574
 fff5bba:	2072                	.2byte	0x2072
 fff5bbc:	7369                	.2byte	0x7369
 fff5bbe:	6920                	.2byte	0x6920
 fff5bc0:	766e                	.2byte	0x766e
 fff5bc2:	6c61                	.2byte	0x6c61
 fff5bc4:	6469                	.2byte	0x6469
 fff5bc6:	000a                	.2byte	0xa
 fff5bc8:	3130                	.2byte	0x3130
 fff5bca:	3332                	.2byte	0x3332
 fff5bcc:	3534                	.2byte	0x3534
 fff5bce:	3736                	.2byte	0x3736
 fff5bd0:	3938                	.2byte	0x3938
 fff5bd2:	4241                	.2byte	0x4241
 fff5bd4:	46454443          	.4byte	0x46454443
 fff5bd8:	0000                	.2byte	0x0
 fff5bda:	0000                	.2byte	0x0
 fff5bdc:	2020                	.2byte	0x2020
 fff5bde:	2020                	.2byte	0x2020
 fff5be0:	2020                	.2byte	0x2020
 fff5be2:	2020                	.2byte	0x2020
 fff5be4:	0000                	.2byte	0x0
 fff5be6:	0000                	.2byte	0x0
 fff5be8:	31335b1b          	.4byte	0x31335b1b
 fff5bec:	1b6d                	.2byte	0x1b6d
 fff5bee:	6d30345b          	.4byte	0x6d30345b
 fff5bf2:	6154                	.2byte	0x6154
 fff5bf4:	27206b73          	csrrsi	s6,0x272,0
 fff5bf8:	0000                	.2byte	0x0
 fff5bfa:	0000                	.2byte	0x0
 fff5bfc:	78652027          	.4byte	0x78652027
 fff5c00:	7469                	.2byte	0x7469
 fff5c02:	6465                	.2byte	0x6465
 fff5c04:	7720                	.2byte	0x7720
 fff5c06:	7469                	.2byte	0x7469
 fff5c08:	2068                	.2byte	0x2068
 fff5c0a:	6572                	.2byte	0x6572
 fff5c0c:	7574                	.2byte	0x7574
 fff5c0e:	6e72                	.2byte	0x6e72
 fff5c10:	6320                	.2byte	0x6320
 fff5c12:	2065646f          	jal	s0,1004be18 <__BSS_END__$+0x530b0>
 fff5c16:	7830                	.2byte	0x7830
 fff5c18:	0000                	.2byte	0x0
 fff5c1a:	0000                	.2byte	0x0
 fff5c1c:	64494453          	.4byte	0x64494453
 fff5c20:	656c                	.2byte	0x656c
 fff5c22:	6520                	.2byte	0x6520
 fff5c24:	7078                	.2byte	0x7078
 fff5c26:	6365                	.2byte	0x6365
 fff5c28:	6574                	.2byte	0x6574
 fff5c2a:	2064                	.2byte	0x2064
 fff5c2c:	7830                	.2byte	0x7830
 fff5c2e:	3130                	.2byte	0x3130
 fff5c30:	202c                	.2byte	0x202c
 fff5c32:	20746f67          	.4byte	0x20746f67
 fff5c36:	7830                	.2byte	0x7830
 fff5c38:	0000                	.2byte	0x0
 fff5c3a:	0000                	.2byte	0x0
 fff5c3c:	68434453          	.4byte	0x68434453
 fff5c40:	6365                	.2byte	0x6365
 fff5c42:	6c6f566b          	.4byte	0x6c6f566b
 fff5c46:	6174                	.2byte	0x6174
 fff5c48:	61526567          	.4byte	0x61526567
 fff5c4c:	676e                	.2byte	0x676e
 fff5c4e:	2065                	.2byte	0x2065
 fff5c50:	7865                	.2byte	0x7865
 fff5c52:	6570                	.2byte	0x6570
 fff5c54:	64657463          	bgeu	a0,t1,fff629c <_etext+0x30>
 fff5c58:	3020                	.2byte	0x3020
 fff5c5a:	3078                	.2byte	0x3078
 fff5c5c:	2c31                	.2byte	0x2c31
 fff5c5e:	6720                	.2byte	0x6720
 fff5c60:	3020746f          	jal	s0,fffcf62 <__BSS_END__$+0x41fa>
 fff5c64:	0078                	.2byte	0x78
 fff5c66:	0000                	.2byte	0x0
 fff5c68:	68434453          	.4byte	0x68434453
 fff5c6c:	6365                	.2byte	0x6365
 fff5c6e:	6c6f566b          	.4byte	0x6c6f566b
 fff5c72:	6174                	.2byte	0x6174
 fff5c74:	61526567          	.4byte	0x61526567
 fff5c78:	676e                	.2byte	0x676e
 fff5c7a:	2065                	.2byte	0x2065
 fff5c7c:	7865                	.2byte	0x7865
 fff5c7e:	6570                	.2byte	0x6570
 fff5c80:	64657463          	bgeu	a0,t1,fff62c8 <_etext+0x5c>
 fff5c84:	3020                	.2byte	0x3020
 fff5c86:	3078                	.2byte	0x3078
 fff5c88:	3030                	.2byte	0x3030
 fff5c8a:	3030                	.2byte	0x3030
 fff5c8c:	4131                	.2byte	0x4131
 fff5c8e:	2c41                	.2byte	0x2c41
 fff5c90:	6720                	.2byte	0x6720
 fff5c92:	3020746f          	jal	s0,fffcf94 <__BSS_END__$+0x422c>
 fff5c96:	0078                	.2byte	0x78
 fff5c98:	61434453          	.4byte	0x61434453
 fff5c9c:	6472                	.2byte	0x6472
 fff5c9e:	6e49                	.2byte	0x6e49
 fff5ca0:	7469                	.2byte	0x7469
 fff5ca2:	6520                	.2byte	0x6520
 fff5ca4:	7078                	.2byte	0x7078
 fff5ca6:	6365                	.2byte	0x6365
 fff5ca8:	6574                	.2byte	0x6574
 fff5caa:	2064                	.2byte	0x2064
 fff5cac:	7830                	.2byte	0x7830
 fff5cae:	3130                	.2byte	0x3130
 fff5cb0:	202c                	.2byte	0x202c
 fff5cb2:	20746f67          	.4byte	0x20746f67
 fff5cb6:	7830                	.2byte	0x7830
 fff5cb8:	0000                	.2byte	0x0
 fff5cba:	0000                	.2byte	0x0
 fff5cbc:	61434453          	.4byte	0x61434453
 fff5cc0:	6472                	.2byte	0x6472
 fff5cc2:	6e49                	.2byte	0x6e49
 fff5cc4:	7469                	.2byte	0x7469
 fff5cc6:	6520                	.2byte	0x6520
 fff5cc8:	7078                	.2byte	0x7078
 fff5cca:	6365                	.2byte	0x6365
 fff5ccc:	6574                	.2byte	0x6574
 fff5cce:	2064                	.2byte	0x2064
 fff5cd0:	7830                	.2byte	0x7830
 fff5cd2:	3030                	.2byte	0x3030
 fff5cd4:	202c                	.2byte	0x202c
 fff5cd6:	20746f67          	.4byte	0x20746f67
 fff5cda:	7830                	.2byte	0x7830
 fff5cdc:	0000                	.2byte	0x0
 fff5cde:	0000                	.2byte	0x0
 fff5ce0:	65524453          	.4byte	0x65524453
 fff5ce4:	6461                	.2byte	0x6461
 fff5ce6:	676e6953          	.4byte	0x676e6953
 fff5cea:	656c                	.2byte	0x656c
 fff5cec:	6c42                	.2byte	0x6c42
 fff5cee:	3a6b636f          	jal	t1,100ac094 <__BSS_END__$+0xb332c>
 fff5cf2:	6520                	.2byte	0x6520
 fff5cf4:	7272                	.2byte	0x7272
 fff5cf6:	7220726f          	jal	tp,fffd418 <__BSS_END__$+0x46b0>
 fff5cfa:	7365                	.2byte	0x7365
 fff5cfc:	6f70                	.2byte	0x6f70
 fff5cfe:	736e                	.2byte	0x736e
 fff5d00:	2065                	.2byte	0x2065
 fff5d02:	203d                	.2byte	0x203d
 fff5d04:	72726527          	.4byte	0x72726527
 fff5d08:	0a27726f          	jal	tp,1006cdaa <__BSS_END__$+0x74042>
 fff5d0c:	0000                	.2byte	0x0
 fff5d0e:	0000                	.2byte	0x0
 fff5d10:	65524453          	.4byte	0x65524453
 fff5d14:	6461                	.2byte	0x6461
 fff5d16:	676e6953          	.4byte	0x676e6953
 fff5d1a:	656c                	.2byte	0x656c
 fff5d1c:	6c42                	.2byte	0x6c42
 fff5d1e:	3a6b636f          	jal	t1,100ac0c4 <__BSS_END__$+0xb335c>
 fff5d22:	6520                	.2byte	0x6520
 fff5d24:	7272                	.2byte	0x7272
 fff5d26:	7220726f          	jal	tp,fffd448 <__BSS_END__$+0x46e0>
 fff5d2a:	7365                	.2byte	0x7365
 fff5d2c:	6f70                	.2byte	0x6f70
 fff5d2e:	736e                	.2byte	0x736e
 fff5d30:	2065                	.2byte	0x2065
 fff5d32:	203d                	.2byte	0x203d
 fff5d34:	20434327          	.4byte	0x20434327
 fff5d38:	7265                	.2byte	0x7265
 fff5d3a:	6f72                	.2byte	0x6f72
 fff5d3c:	2772                	.2byte	0x2772
 fff5d3e:	000a                	.2byte	0xa
 fff5d40:	65524453          	.4byte	0x65524453
 fff5d44:	6461                	.2byte	0x6461
 fff5d46:	676e6953          	.4byte	0x676e6953
 fff5d4a:	656c                	.2byte	0x656c
 fff5d4c:	6c42                	.2byte	0x6c42
 fff5d4e:	3a6b636f          	jal	t1,100ac0f4 <__BSS_END__$+0xb338c>
 fff5d52:	6520                	.2byte	0x6520
 fff5d54:	7272                	.2byte	0x7272
 fff5d56:	7220726f          	jal	tp,fffd478 <__BSS_END__$+0x4710>
 fff5d5a:	7365                	.2byte	0x7365
 fff5d5c:	6f70                	.2byte	0x6f70
 fff5d5e:	736e                	.2byte	0x736e
 fff5d60:	2065                	.2byte	0x2065
 fff5d62:	203d                	.2byte	0x203d
 fff5d64:	72614327          	.4byte	0x72614327
 fff5d68:	2064                	.2byte	0x2064
 fff5d6a:	4345                	.2byte	0x4345
 fff5d6c:	61662043          	.4byte	0x61662043
 fff5d70:	6c69                	.2byte	0x6c69
 fff5d72:	6465                	.2byte	0x6465
 fff5d74:	00000a27          	.4byte	0xa27
 fff5d78:	65524453          	.4byte	0x65524453
 fff5d7c:	6461                	.2byte	0x6461
 fff5d7e:	676e6953          	.4byte	0x676e6953
 fff5d82:	656c                	.2byte	0x656c
 fff5d84:	6c42                	.2byte	0x6c42
 fff5d86:	3a6b636f          	jal	t1,100ac12c <__BSS_END__$+0xb33c4>
 fff5d8a:	6520                	.2byte	0x6520
 fff5d8c:	7272                	.2byte	0x7272
 fff5d8e:	7220726f          	jal	tp,fffd4b0 <__BSS_END__$+0x4748>
 fff5d92:	7365                	.2byte	0x7365
 fff5d94:	6f70                	.2byte	0x6f70
 fff5d96:	736e                	.2byte	0x736e
 fff5d98:	2065                	.2byte	0x2065
 fff5d9a:	203d                	.2byte	0x203d
 fff5d9c:	74754f27          	.4byte	0x74754f27
 fff5da0:	6f20                	.2byte	0x6f20
 fff5da2:	2066                	.2byte	0x2066
 fff5da4:	6172                	.2byte	0x6172
 fff5da6:	676e                	.2byte	0x676e
 fff5da8:	2765                	.2byte	0x2765
 fff5daa:	7320                	.2byte	0x7320
 fff5dac:	6365                	.2byte	0x6365
 fff5dae:	6f74                	.2byte	0x6f74
 fff5db0:	3a72                	.2byte	0x3a72
 fff5db2:	3020                	.2byte	0x3020
 fff5db4:	0078                	.2byte	0x78
 fff5db6:	0000                	.2byte	0x0
 fff5db8:	72574453          	.4byte	0x72574453
 fff5dbc:	7469                	.2byte	0x7469
 fff5dbe:	5365                	.2byte	0x5365
 fff5dc0:	6e69                	.2byte	0x6e69
 fff5dc2:	42656c67          	.4byte	0x42656c67
 fff5dc6:	6f6c                	.2byte	0x6f6c
 fff5dc8:	203a6b63          	bltu	s4,gp,fff5fde <_ZZ11ff_wtoupperE4cvt1+0x66>
 fff5dcc:	74697277          	.4byte	0x74697277
 fff5dd0:	2065                	.2byte	0x2065
 fff5dd2:	7265                	.2byte	0x7265
 fff5dd4:	6f72                	.2byte	0x6f72
 fff5dd6:	0a72                	.2byte	0xa72
 fff5dd8:	0000                	.2byte	0x0
 fff5dda:	0000                	.2byte	0x0
 fff5ddc:	4146                	.2byte	0x4146
 fff5dde:	3354                	.2byte	0x3354
 fff5de0:	2032                	.2byte	0x2032
 fff5de2:	2020                	.2byte	0x2020
 fff5de4:	0000                	.2byte	0x0
 fff5de6:	0000                	.2byte	0x0
 fff5de8:	3a2a                	.2byte	0x3a2a
 fff5dea:	3e3c                	.2byte	0x3e3c
 fff5dec:	227c                	.2byte	0x227c
 fff5dee:	00007f3f 2c2b0000 	.8byte	0x2c2b000000007f3f
 fff5df6:	5d5b3d3b          	.4byte	0x5d5b3d3b
	...

0fff5dfc <_ZL5ExCvt>:
 fff5dfc:	9a80                	.2byte	0x9a80
 fff5dfe:	4145                	.2byte	0x4145
 fff5e00:	418e                	.2byte	0x418e
 fff5e02:	4545808f          	.4byte	0x4545808f
 fff5e06:	4945                	.2byte	0x4945
 fff5e08:	4949                	.2byte	0x4949
 fff5e0a:	8f8e                	.2byte	0x8f8e
 fff5e0c:	9290                	.2byte	0x9290
 fff5e0e:	4f92                	.2byte	0x4f92
 fff5e10:	4f99                	.2byte	0x4f99
 fff5e12:	5555                	.2byte	0x5555
 fff5e14:	9959                	.2byte	0x9959
 fff5e16:	9b9a                	.2byte	0x9b9a
 fff5e18:	9d9c                	.2byte	0x9d9c
 fff5e1a:	9f9e                	.2byte	0x9f9e
 fff5e1c:	4941                	.2byte	0x4941
 fff5e1e:	a5a5554f          	.4byte	0xa5a5554f
 fff5e22:	a7a6                	.2byte	0xa7a6
 fff5e24:	a9a8                	.2byte	0xa9a8
 fff5e26:	abaa                	.2byte	0xabaa
 fff5e28:	adac                	.2byte	0xadac
 fff5e2a:	afae                	.2byte	0xafae
 fff5e2c:	b1b0                	.2byte	0xb1b0
 fff5e2e:	b3b2                	.2byte	0xb3b2
 fff5e30:	b5b4                	.2byte	0xb5b4
 fff5e32:	b7b6                	.2byte	0xb7b6
 fff5e34:	b9b8                	.2byte	0xb9b8
 fff5e36:	bbba                	.2byte	0xbbba
 fff5e38:	bdbc                	.2byte	0xbdbc
 fff5e3a:	bfbe                	.2byte	0xbfbe
 fff5e3c:	c1c0                	.2byte	0xc1c0
 fff5e3e:	c3c2                	.2byte	0xc3c2
 fff5e40:	c5c4                	.2byte	0xc5c4
 fff5e42:	c7c6                	.2byte	0xc7c6
 fff5e44:	c9c8                	.2byte	0xc9c8
 fff5e46:	cbca                	.2byte	0xcbca
 fff5e48:	cdcc                	.2byte	0xcdcc
 fff5e4a:	cfce                	.2byte	0xcfce
 fff5e4c:	d1d0                	.2byte	0xd1d0
 fff5e4e:	d3d2                	.2byte	0xd3d2
 fff5e50:	d5d4                	.2byte	0xd5d4
 fff5e52:	d7d6                	.2byte	0xd7d6
 fff5e54:	d9d8                	.2byte	0xd9d8
 fff5e56:	dbda                	.2byte	0xdbda
 fff5e58:	dddc                	.2byte	0xdddc
 fff5e5a:	dfde                	.2byte	0xdfde
 fff5e5c:	e1e0                	.2byte	0xe1e0
 fff5e5e:	e3e2                	.2byte	0xe3e2
 fff5e60:	e5e4                	.2byte	0xe5e4
 fff5e62:	e7e6                	.2byte	0xe7e6
 fff5e64:	e9e8                	.2byte	0xe9e8
 fff5e66:	ebea                	.2byte	0xebea
 fff5e68:	edec                	.2byte	0xedec
 fff5e6a:	efee                	.2byte	0xefee
 fff5e6c:	f1f0                	.2byte	0xf1f0
 fff5e6e:	f3f2                	.2byte	0xf3f2
 fff5e70:	f5f4                	.2byte	0xf5f4
 fff5e72:	f7f6                	.2byte	0xf7f6
 fff5e74:	f9f8                	.2byte	0xf9f8
 fff5e76:	fbfa                	.2byte	0xfbfa
 fff5e78:	fdfc                	.2byte	0xfdfc
 fff5e7a:	fffe                	.2byte	0xfffe

0fff5e7c <_ZL6LfnOfs>:
 fff5e7c:	0301                	.2byte	0x301
 fff5e7e:	0705                	.2byte	0x705
 fff5e80:	0e09                	.2byte	0xe09
 fff5e82:	1210                	.2byte	0x1210
 fff5e84:	1614                	.2byte	0x1614
 fff5e86:	1c18                	.2byte	0x1c18
 fff5e88:	001e                	.2byte	0x1e
 fff5e8a:	0000                	.2byte	0x0
 fff5e8c:	4152                	.2byte	0x4152
 fff5e8e:	004d                	.2byte	0x4d
 fff5e90:	00004453          	.4byte	0x4453
 fff5e94:	5355                	.2byte	0x5355
 fff5e96:	0042                	.2byte	0x42
 fff5e98:	e328                	.2byte	0xe328
 fff5e9a:	ffff                	.2byte	0xffff
 fff5e9c:	e340                	.2byte	0xe340
 fff5e9e:	ffff                	.2byte	0xffff
 fff5ea0:	e358                	.2byte	0xe358
 fff5ea2:	ffff                	.2byte	0xffff
 fff5ea4:	e360                	.2byte	0xe360
 fff5ea6:	ffff                	.2byte	0xffff
 fff5ea8:	e368                	.2byte	0xe368
 fff5eaa:	ffff                	.2byte	0xffff
 fff5eac:	e370                	.2byte	0xe370
 fff5eae:	ffff                	.2byte	0xffff
 fff5eb0:	e378                	.2byte	0xe378
 fff5eb2:	ffff                	.2byte	0xffff
 fff5eb4:	e380                	.2byte	0xe380
 fff5eb6:	ffff                	.2byte	0xffff
 fff5eb8:	e388                	.2byte	0xe388
 fff5eba:	ffff                	.2byte	0xffff

0fff5ebc <_ZZ11ff_wtoupperE4cvt2>:
 fff5ebc:	1d7d                	.2byte	0x1d7d
 fff5ebe:	0001                	.2byte	0x1
 fff5ec0:	1e002c63          	.4byte	0x1e002c63
 fff5ec4:	0196                	.2byte	0x196
 fff5ec6:	1ea0                	.2byte	0x1ea0
 fff5ec8:	015a                	.2byte	0x15a
 fff5eca:	1f00                	.2byte	0x1f00
 fff5ecc:	0608                	.2byte	0x608
 fff5ece:	1f10                	.2byte	0x1f10
 fff5ed0:	0606                	.2byte	0x606
 fff5ed2:	1f20                	.2byte	0x1f20
 fff5ed4:	0608                	.2byte	0x608
 fff5ed6:	1f30                	.2byte	0x1f30
 fff5ed8:	0608                	.2byte	0x608
 fff5eda:	1f40                	.2byte	0x1f40
 fff5edc:	0606                	.2byte	0x606
 fff5ede:	1f51                	.2byte	0x1f51
 fff5ee0:	1f590007          	.4byte	0x1f590007
 fff5ee4:	1f52                	.2byte	0x1f52
 fff5ee6:	1f541f5b          	.4byte	0x1f541f5b
 fff5eea:	1f5d                	.2byte	0x1f5d
 fff5eec:	1f56                	.2byte	0x1f56
 fff5eee:	1f5f 1f60 0608      	.byte	0x5f, 0x1f, 0x60, 0x1f, 0x08, 0x06
 fff5ef4:	1f70                	.2byte	0x1f70
 fff5ef6:	000e                	.2byte	0xe
 fff5ef8:	1fba                	.2byte	0x1fba
 fff5efa:	1fc81fbb          	.4byte	0x1fc81fbb
 fff5efe:	1fc9                	.2byte	0x1fc9
 fff5f00:	1fca                	.2byte	0x1fca
 fff5f02:	1fda1fcb          	.4byte	0x1fda1fcb
 fff5f06:	1ff81fdb          	.4byte	0x1ff81fdb
 fff5f0a:	1ff9                	.2byte	0x1ff9
 fff5f0c:	1fea                	.2byte	0x1fea
 fff5f0e:	1ffa1feb          	.4byte	0x1ffa1feb
 fff5f12:	1f801ffb          	.4byte	0x1f801ffb
 fff5f16:	0608                	.2byte	0x608
 fff5f18:	1f90                	.2byte	0x1f90
 fff5f1a:	0608                	.2byte	0x608
 fff5f1c:	1fa0                	.2byte	0x1fa0
 fff5f1e:	0608                	.2byte	0x608
 fff5f20:	1fb0                	.2byte	0x1fb0
 fff5f22:	0004                	.2byte	0x4
 fff5f24:	1fb8                	.2byte	0x1fb8
 fff5f26:	1fb9                	.2byte	0x1fb9
 fff5f28:	1fb2                	.2byte	0x1fb2
 fff5f2a:	1fbc                	.2byte	0x1fbc
 fff5f2c:	1fcc                	.2byte	0x1fcc
 fff5f2e:	0001                	.2byte	0x1
 fff5f30:	1fd01fc3          	.4byte	0x1fd01fc3
 fff5f34:	0602                	.2byte	0x602
 fff5f36:	1fe0                	.2byte	0x1fe0
 fff5f38:	0602                	.2byte	0x602
 fff5f3a:	1fe5                	.2byte	0x1fe5
 fff5f3c:	0001                	.2byte	0x1
 fff5f3e:	1fec                	.2byte	0x1fec
 fff5f40:	00011ff3          	csrrw	t6,ustatus,sp
 fff5f44:	1ffc                	.2byte	0x1ffc
 fff5f46:	214e                	.2byte	0x214e
 fff5f48:	0001                	.2byte	0x1
 fff5f4a:	2132                	.2byte	0x2132
 fff5f4c:	2170                	.2byte	0x2170
 fff5f4e:	0210                	.2byte	0x210
 fff5f50:	2184                	.2byte	0x2184
 fff5f52:	0001                	.2byte	0x1
 fff5f54:	24d02183          	lw	gp,589(zero) # 24d <__stack_size+0x14d>
 fff5f58:	051a                	.2byte	0x51a
 fff5f5a:	2c30                	.2byte	0x2c30
 fff5f5c:	2c60042f          	.4byte	0x2c60042f
 fff5f60:	0102                	.2byte	0x102
 fff5f62:	01062c67          	.4byte	0x1062c67
 fff5f66:	2c75                	.2byte	0x2c75
 fff5f68:	0102                	.2byte	0x102
 fff5f6a:	2c80                	.2byte	0x2c80
 fff5f6c:	0164                	.2byte	0x164
 fff5f6e:	2d00                	.2byte	0x2d00
 fff5f70:	0826                	.2byte	0x826
 fff5f72:	ff41                	.2byte	0xff41
 fff5f74:	031a                	.2byte	0x31a
	...

0fff5f78 <_ZZ11ff_wtoupperE4cvt1>:
 fff5f78:	0061                	.2byte	0x61
 fff5f7a:	031a                	.2byte	0x31a
 fff5f7c:	00e0                	.2byte	0xe0
 fff5f7e:	00f80317          	auipc	t1,0xf80
 fff5f82:	00ff0307          	.4byte	0xff0307
 fff5f86:	0001                	.2byte	0x1
 fff5f88:	0178                	.2byte	0x178
 fff5f8a:	0100                	.2byte	0x100
 fff5f8c:	0130                	.2byte	0x130
 fff5f8e:	0132                	.2byte	0x132
 fff5f90:	0106                	.2byte	0x106
 fff5f92:	0139                	.2byte	0x139
 fff5f94:	0110                	.2byte	0x110
 fff5f96:	014a                	.2byte	0x14a
 fff5f98:	012e                	.2byte	0x12e
 fff5f9a:	0179                	.2byte	0x179
 fff5f9c:	0106                	.2byte	0x106
 fff5f9e:	0180                	.2byte	0x180
 fff5fa0:	004d                	.2byte	0x4d
 fff5fa2:	01810243          	.4byte	0x1810243
 fff5fa6:	0182                	.2byte	0x182
 fff5fa8:	0182                	.2byte	0x182
 fff5faa:	0184                	.2byte	0x184
 fff5fac:	0184                	.2byte	0x184
 fff5fae:	0186                	.2byte	0x186
 fff5fb0:	01870187          	.4byte	0x1870187
 fff5fb4:	0189                	.2byte	0x189
 fff5fb6:	018a                	.2byte	0x18a
 fff5fb8:	018b018b          	.4byte	0x18b018b
 fff5fbc:	018d                	.2byte	0x18d
 fff5fbe:	018e                	.2byte	0x18e
 fff5fc0:	0190018f          	.4byte	0x190018f
 fff5fc4:	0191                	.2byte	0x191
 fff5fc6:	0191                	.2byte	0x191
 fff5fc8:	01940193          	addi	gp,s0,25
 fff5fcc:	01f6                	.2byte	0x1f6
 fff5fce:	0196                	.2byte	0x196
 fff5fd0:	01980197          	auipc	gp,0x1980
 fff5fd4:	0198                	.2byte	0x198
 fff5fd6:	023d                	.2byte	0x23d
 fff5fd8:	019c019b          	.4byte	0x19c019b
 fff5fdc:	019d                	.2byte	0x19d
 fff5fde:	0220                	.2byte	0x220
 fff5fe0:	019f 01a0 01a0      	.byte	0x9f, 0x01, 0xa0, 0x01, 0xa0, 0x01
 fff5fe6:	01a2                	.2byte	0x1a2
 fff5fe8:	01a2                	.2byte	0x1a2
 fff5fea:	01a4                	.2byte	0x1a4
 fff5fec:	01a4                	.2byte	0x1a4
 fff5fee:	01a6                	.2byte	0x1a6
 fff5ff0:	01a701a7          	.4byte	0x1a701a7
 fff5ff4:	01a9                	.2byte	0x1a9
 fff5ff6:	01aa                	.2byte	0x1aa
 fff5ff8:	01ac01ab          	.4byte	0x1ac01ab
 fff5ffc:	01ac                	.2byte	0x1ac
 fff5ffe:	01ae                	.2byte	0x1ae
 fff6000:	01af01af          	.4byte	0x1af01af
 fff6004:	01b1                	.2byte	0x1b1
 fff6006:	01b2                	.2byte	0x1b2
 fff6008:	01b301b3          	add	gp,t1,s11
 fff600c:	01b5                	.2byte	0x1b5
 fff600e:	01b5                	.2byte	0x1b5
 fff6010:	01b801b7          	lui	gp,0x1b80
 fff6014:	01b8                	.2byte	0x1b8
 fff6016:	01ba                	.2byte	0x1ba
 fff6018:	01bc01bb          	.4byte	0x1bc01bb
 fff601c:	01bc                	.2byte	0x1bc
 fff601e:	01be                	.2byte	0x1be
 fff6020:	01c001f7          	.4byte	0x1c001f7
 fff6024:	01c1                	.2byte	0x1c1
 fff6026:	01c2                	.2byte	0x1c2
 fff6028:	01c401c3          	.4byte	0x1c401c3
 fff602c:	01c5                	.2byte	0x1c5
 fff602e:	01c4                	.2byte	0x1c4
 fff6030:	01c801c7          	.4byte	0x1c801c7
 fff6034:	01ca01c7          	.4byte	0x1ca01c7
 fff6038:	01ca01cb          	.4byte	0x1ca01cb
 fff603c:	01cd                	.2byte	0x1cd
 fff603e:	0110                	.2byte	0x110
 fff6040:	01dd                	.2byte	0x1dd
 fff6042:	0001                	.2byte	0x1
 fff6044:	018e                	.2byte	0x18e
 fff6046:	01de                	.2byte	0x1de
 fff6048:	0112                	.2byte	0x112
 fff604a:	000301f3          	.4byte	0x301f3
 fff604e:	01f1                	.2byte	0x1f1
 fff6050:	01f4                	.2byte	0x1f4
 fff6052:	01f4                	.2byte	0x1f4
 fff6054:	01f8                	.2byte	0x1f8
 fff6056:	0128                	.2byte	0x128
 fff6058:	0222                	.2byte	0x222
 fff605a:	0112                	.2byte	0x112
 fff605c:	023a                	.2byte	0x23a
 fff605e:	0009                	.2byte	0x9
 fff6060:	2c65                	.2byte	0x2c65
 fff6062:	023b023b          	.4byte	0x23b023b
 fff6066:	023d                	.2byte	0x23d
 fff6068:	2c66                	.2byte	0x2c66
 fff606a:	0240023f 02410241 	.8byte	0x24102410240023f
 fff6072:	0246                	.2byte	0x246
 fff6074:	010a                	.2byte	0x10a
 fff6076:	00400253          	.4byte	0x400253
 fff607a:	0181                	.2byte	0x181
 fff607c:	0186                	.2byte	0x186
 fff607e:	0255                	.2byte	0x255
 fff6080:	0189                	.2byte	0x189
 fff6082:	018a                	.2byte	0x18a
 fff6084:	0258                	.2byte	0x258
 fff6086:	025a018f          	.4byte	0x25a018f
 fff608a:	0190                	.2byte	0x190
 fff608c:	025c                	.2byte	0x25c
 fff608e:	025d                	.2byte	0x25d
 fff6090:	025e                	.2byte	0x25e
 fff6092:	025f 0193 0261      	.byte	0x5f, 0x02, 0x93, 0x01, 0x61, 0x02
 fff6098:	0262                	.2byte	0x262
 fff609a:	0194                	.2byte	0x194
 fff609c:	0264                	.2byte	0x264
 fff609e:	0265                	.2byte	0x265
 fff60a0:	0266                	.2byte	0x266
 fff60a2:	01970267          	jalr	tp,25(a4)
 fff60a6:	0196                	.2byte	0x196
 fff60a8:	026a                	.2byte	0x26a
 fff60aa:	2c62                	.2byte	0x2c62
 fff60ac:	026c                	.2byte	0x26c
 fff60ae:	026d                	.2byte	0x26d
 fff60b0:	026e                	.2byte	0x26e
 fff60b2:	019c                	.2byte	0x19c
 fff60b4:	0270                	.2byte	0x270
 fff60b6:	0271                	.2byte	0x271
 fff60b8:	019d                	.2byte	0x19d
 fff60ba:	02740273          	.4byte	0x2740273
 fff60be:	019f 0276 0277      	.byte	0x9f, 0x01, 0x76, 0x02, 0x77, 0x02
 fff60c4:	0278                	.2byte	0x278
 fff60c6:	0279                	.2byte	0x279
 fff60c8:	027a                	.2byte	0x27a
 fff60ca:	027c027b          	.4byte	0x27c027b
 fff60ce:	2c64                	.2byte	0x2c64
 fff60d0:	027e                	.2byte	0x27e
 fff60d2:	027f                	.2byte	0x27f
 fff60d4:	01a6                	.2byte	0x1a6
 fff60d6:	0281                	.2byte	0x281
 fff60d8:	0282                	.2byte	0x282
 fff60da:	01a9                	.2byte	0x1a9
 fff60dc:	0284                	.2byte	0x284
 fff60de:	0285                	.2byte	0x285
 fff60e0:	0286                	.2byte	0x286
 fff60e2:	01ae0287          	.4byte	0x1ae0287
 fff60e6:	0244                	.2byte	0x244
 fff60e8:	01b1                	.2byte	0x1b1
 fff60ea:	01b2                	.2byte	0x1b2
 fff60ec:	0245                	.2byte	0x245
 fff60ee:	028d                	.2byte	0x28d
 fff60f0:	028e                	.2byte	0x28e
 fff60f2:	0290028f          	.4byte	0x290028f
 fff60f6:	0291                	.2byte	0x291
 fff60f8:	037b01b7          	lui	gp,0x37b0
 fff60fc:	03fd0003          	lb	zero,63(s10)
 fff6100:	03fe                	.2byte	0x3fe
 fff6102:	03ff                	.2byte	0x3ff
 fff6104:	03ac                	.2byte	0x3ac
 fff6106:	0004                	.2byte	0x4
 fff6108:	0386                	.2byte	0x386
 fff610a:	0388                	.2byte	0x388
 fff610c:	0389                	.2byte	0x389
 fff610e:	038a                	.2byte	0x38a
 fff6110:	03b1                	.2byte	0x3b1
 fff6112:	0311                	.2byte	0x311
 fff6114:	03c2                	.2byte	0x3c2
 fff6116:	0002                	.2byte	0x2
 fff6118:	03a303a3          	sb	s10,39(t1) # 10f75fa5 <__BSS_END__$+0xf7d23d>
 fff611c:	03c4                	.2byte	0x3c4
 fff611e:	0308                	.2byte	0x308
 fff6120:	03cc                	.2byte	0x3cc
 fff6122:	038c0003          	lb	zero,56(s8)
 fff6126:	038e                	.2byte	0x38e
 fff6128:	03d8038f          	.4byte	0x3d8038f
 fff612c:	0118                	.2byte	0x118
 fff612e:	03f2                	.2byte	0x3f2
 fff6130:	000a                	.2byte	0xa
 fff6132:	03f9                	.2byte	0x3f9
 fff6134:	03f403f3          	.4byte	0x3f403f3
 fff6138:	03f5                	.2byte	0x3f5
 fff613a:	03f6                	.2byte	0x3f6
 fff613c:	03f703f7          	.4byte	0x3f703f7
 fff6140:	03f9                	.2byte	0x3f9
 fff6142:	03fa                	.2byte	0x3fa
 fff6144:	03fa                	.2byte	0x3fa
 fff6146:	0430                	.2byte	0x430
 fff6148:	0320                	.2byte	0x320
 fff614a:	0450                	.2byte	0x450
 fff614c:	0710                	.2byte	0x710
 fff614e:	0460                	.2byte	0x460
 fff6150:	0122                	.2byte	0x122
 fff6152:	048a                	.2byte	0x48a
 fff6154:	0136                	.2byte	0x136
 fff6156:	04c1                	.2byte	0x4c1
 fff6158:	010e                	.2byte	0x10e
 fff615a:	000104cf          	.4byte	0x104cf
 fff615e:	04c0                	.2byte	0x4c0
 fff6160:	04d0                	.2byte	0x4d0
 fff6162:	0144                	.2byte	0x144
 fff6164:	0561                	.2byte	0x561
 fff6166:	0426                	.2byte	0x426
 fff6168:	0000                	.2byte	0x0
	...

0fff616c <_ZL5uc437>:
 fff616c:	00fc00c7          	.4byte	0xfc00c7
 fff6170:	00e9                	.2byte	0xe9
 fff6172:	00e2                	.2byte	0xe2
 fff6174:	00e4                	.2byte	0xe4
 fff6176:	00e0                	.2byte	0xe0
 fff6178:	00e5                	.2byte	0xe5
 fff617a:	00ea00e7          	jalr	14(s4)
 fff617e:	00e800eb          	.4byte	0xe800eb
 fff6182:	00ee00ef          	jal	ra,100d6190 <__BSS_END__$+0xdd428>
 fff6186:	00ec                	.2byte	0xec
 fff6188:	00c4                	.2byte	0xc4
 fff618a:	00c5                	.2byte	0xc5
 fff618c:	00c9                	.2byte	0xc9
 fff618e:	00e6                	.2byte	0xe6
 fff6190:	00c6                	.2byte	0xc6
 fff6192:	00f4                	.2byte	0xf4
 fff6194:	00f6                	.2byte	0xf6
 fff6196:	00f2                	.2byte	0xf2
 fff6198:	00f900fb          	.4byte	0xf900fb
 fff619c:	00ff                	.2byte	0xff
 fff619e:	00d6                	.2byte	0xd6
 fff61a0:	00dc                	.2byte	0xdc
 fff61a2:	00a2                	.2byte	0xa2
 fff61a4:	00a500a3          	sb	a0,1(a0)
 fff61a8:	019220a7          	.4byte	0x19220a7
 fff61ac:	00e1                	.2byte	0xe1
 fff61ae:	00ed                	.2byte	0xed
 fff61b0:	00fa00f3          	.4byte	0xfa00f3
 fff61b4:	00f1                	.2byte	0xf1
 fff61b6:	00d1                	.2byte	0xd1
 fff61b8:	00aa                	.2byte	0xaa
 fff61ba:	00ba                	.2byte	0xba
 fff61bc:	231000bf 00bd00ac 	.8byte	0xbd00ac231000bf
 fff61c4:	00bc                	.2byte	0xbc
 fff61c6:	00a1                	.2byte	0xa1
 fff61c8:	00bb00ab          	.4byte	0xbb00ab
 fff61cc:	2591                	.2byte	0x2591
 fff61ce:	2592                	.2byte	0x2592
 fff61d0:	25022593          	slti	a1,tp,592
 fff61d4:	2524                	.2byte	0x2524
 fff61d6:	2561                	.2byte	0x2561
 fff61d8:	2562                	.2byte	0x2562
 fff61da:	2556                	.2byte	0x2556
 fff61dc:	2555                	.2byte	0x2555
 fff61de:	25512563          	.4byte	0x25512563
 fff61e2:	255d2557          	.4byte	0x255d2557
 fff61e6:	255c                	.2byte	0x255c
 fff61e8:	2510255b          	.4byte	0x2510255b
 fff61ec:	2514                	.2byte	0x2514
 fff61ee:	2534                	.2byte	0x2534
 fff61f0:	252c                	.2byte	0x252c
 fff61f2:	251c                	.2byte	0x251c
 fff61f4:	2500                	.2byte	0x2500
 fff61f6:	253c                	.2byte	0x253c
 fff61f8:	255e                	.2byte	0x255e
 fff61fa:	255f 255a 2554      	.byte	0x5f, 0x25, 0x5a, 0x25, 0x54, 0x25
 fff6200:	2569                	.2byte	0x2569
 fff6202:	2566                	.2byte	0x2566
 fff6204:	2560                	.2byte	0x2560
 fff6206:	2550                	.2byte	0x2550
 fff6208:	256c                	.2byte	0x256c
 fff620a:	25682567          	.4byte	0x25682567
 fff620e:	2564                	.2byte	0x2564
 fff6210:	2565                	.2byte	0x2565
 fff6212:	2559                	.2byte	0x2559
 fff6214:	2558                	.2byte	0x2558
 fff6216:	2552                	.2byte	0x2552
 fff6218:	256b2553          	.4byte	0x256b2553
 fff621c:	256a                	.2byte	0x256a
 fff621e:	2518                	.2byte	0x2518
 fff6220:	250c                	.2byte	0x250c
 fff6222:	2588                	.2byte	0x2588
 fff6224:	2584                	.2byte	0x2584
 fff6226:	258c                	.2byte	0x258c
 fff6228:	2590                	.2byte	0x2590
 fff622a:	2580                	.2byte	0x2580
 fff622c:	03b1                	.2byte	0x3b1
 fff622e:	00df 0393 03c0      	.byte	0xdf, 0x00, 0x93, 0x03, 0xc0, 0x03
 fff6234:	03c303a3          	sb	t3,39(t1)
 fff6238:	00b5                	.2byte	0xb5
 fff623a:	03c4                	.2byte	0x3c4
 fff623c:	03a6                	.2byte	0x3a6
 fff623e:	0398                	.2byte	0x398
 fff6240:	03a9                	.2byte	0x3a9
 fff6242:	03b4                	.2byte	0x3b4
 fff6244:	221e                	.2byte	0x221e
 fff6246:	03c6                	.2byte	0x3c6
 fff6248:	03b5                	.2byte	0x3b5
 fff624a:	2229                	.2byte	0x2229
 fff624c:	2261                	.2byte	0x2261
 fff624e:	00b1                	.2byte	0xb1
 fff6250:	2265                	.2byte	0x2265
 fff6252:	2264                	.2byte	0x2264
 fff6254:	2320                	.2byte	0x2320
 fff6256:	2321                	.2byte	0x2321
 fff6258:	224800f7          	.4byte	0x224800f7
 fff625c:	00b0                	.2byte	0xb0
 fff625e:	2219                	.2byte	0x2219
 fff6260:	221a00b7          	lui	ra,0x221a0
 fff6264:	207f                	.2byte	0x207f
 fff6266:	00b2                	.2byte	0xb2
 fff6268:	25a0                	.2byte	0x25a0
 fff626a:	00a0                	.2byte	0xa0

Disassembly of section .eh_frame:

0fff626c <__fini_array_end>:
 fff626c:	0010                	.2byte	0x10
 fff626e:	0000                	.2byte	0x0
 fff6270:	0000                	.2byte	0x0
 fff6272:	0000                	.2byte	0x0
 fff6274:	00527a03          	.4byte	0x527a03
 fff6278:	7c01                	.2byte	0x7c01
 fff627a:	0101                	.2byte	0x101
 fff627c:	00020d1b          	.4byte	0x20d1b
 fff6280:	0018                	.2byte	0x18
 fff6282:	0000                	.2byte	0x0
 fff6284:	0018                	.2byte	0x18
 fff6286:	0000                	.2byte	0x0
 fff6288:	9eb4                	.2byte	0x9eb4
 fff628a:	ffff                	.2byte	0xffff
 fff628c:	0028                	.2byte	0x28
 fff628e:	0000                	.2byte	0x0
 fff6290:	4400                	.2byte	0x4400
 fff6292:	100e                	.2byte	0x100e
 fff6294:	814c                	.2byte	0x814c
 fff6296:	4801                	.2byte	0x4801
 fff6298:	4cc1                	.2byte	0x4cc1
 fff629a:	000e                	.2byte	0xe
 fff629c:	0024                	.2byte	0x24
 fff629e:	0000                	.2byte	0x0
 fff62a0:	0034                	.2byte	0x34
 fff62a2:	0000                	.2byte	0x0
 fff62a4:	9ec0                	.2byte	0x9ec0
 fff62a6:	ffff                	.2byte	0xffff
 fff62a8:	0054                	.2byte	0x54
 fff62aa:	0000                	.2byte	0x0
 fff62ac:	4400                	.2byte	0x4400
 fff62ae:	200e                	.2byte	0x200e
 fff62b0:	884c                	.2byte	0x884c
 fff62b2:	8902                	.2byte	0x8902
 fff62b4:	58018103          	lb	sp,1408(gp) # 37b0580 <__stack_size+0x37b0480>
 fff62b8:	c10a                	.2byte	0xc10a
 fff62ba:	c844                	.2byte	0xc844
 fff62bc:	c944                	.2byte	0xc944
 fff62be:	0e44                	.2byte	0xe44
 fff62c0:	4400                	.2byte	0x4400
 fff62c2:	0010000b          	.4byte	0x10000b
 fff62c6:	0000                	.2byte	0x0
 fff62c8:	005c                	.2byte	0x5c
 fff62ca:	0000                	.2byte	0x0
 fff62cc:	9ef4                	.2byte	0x9ef4
 fff62ce:	ffff                	.2byte	0xffff
 fff62d0:	02cc                	.2byte	0x2cc
 fff62d2:	0000                	.2byte	0x0
 fff62d4:	0000                	.2byte	0x0
 fff62d6:	0000                	.2byte	0x0
 fff62d8:	001c                	.2byte	0x1c
 fff62da:	0000                	.2byte	0x0
 fff62dc:	0070                	.2byte	0x70
 fff62de:	0000                	.2byte	0x0
 fff62e0:	a1b8                	.2byte	0xa1b8
 fff62e2:	ffff                	.2byte	0xffff
 fff62e4:	0050                	.2byte	0x50
 fff62e6:	0000                	.2byte	0x0
 fff62e8:	4400                	.2byte	0x4400
 fff62ea:	100e                	.2byte	0x100e
 fff62ec:	8144                	.2byte	0x8144
 fff62ee:	0201                	.2byte	0x201
 fff62f0:	c140                	.2byte	0xc140
 fff62f2:	0e44                	.2byte	0xe44
 fff62f4:	0000                	.2byte	0x0
 fff62f6:	0000                	.2byte	0x0
 fff62f8:	0010                	.2byte	0x10
 fff62fa:	0000                	.2byte	0x0
 fff62fc:	0090                	.2byte	0x90
 fff62fe:	0000                	.2byte	0x0
 fff6300:	a1e8                	.2byte	0xa1e8
 fff6302:	ffff                	.2byte	0xffff
 fff6304:	0008                	.2byte	0x8
 fff6306:	0000                	.2byte	0x0
 fff6308:	0000                	.2byte	0x0
 fff630a:	0000                	.2byte	0x0
 fff630c:	0010                	.2byte	0x10
 fff630e:	0000                	.2byte	0x0
 fff6310:	00a4                	.2byte	0xa4
 fff6312:	0000                	.2byte	0x0
 fff6314:	a1dc                	.2byte	0xa1dc
 fff6316:	ffff                	.2byte	0xffff
 fff6318:	0014                	.2byte	0x14
 fff631a:	0000                	.2byte	0x0
 fff631c:	0000                	.2byte	0x0
 fff631e:	0000                	.2byte	0x0
 fff6320:	0010                	.2byte	0x10
 fff6322:	0000                	.2byte	0x0
 fff6324:	00b8                	.2byte	0xb8
 fff6326:	0000                	.2byte	0x0
 fff6328:	9cd8                	.2byte	0x9cd8
 fff632a:	ffff                	.2byte	0xffff
 fff632c:	005c                	.2byte	0x5c
 fff632e:	0000                	.2byte	0x0
 fff6330:	0000                	.2byte	0x0
 fff6332:	0000                	.2byte	0x0
 fff6334:	0010                	.2byte	0x10
 fff6336:	0000                	.2byte	0x0
 fff6338:	00cc                	.2byte	0xcc
 fff633a:	0000                	.2byte	0x0
 fff633c:	9d20                	.2byte	0x9d20
 fff633e:	ffff                	.2byte	0xffff
 fff6340:	0004                	.2byte	0x4
 fff6342:	0000                	.2byte	0x0
 fff6344:	0000                	.2byte	0x0
 fff6346:	0000                	.2byte	0x0
 fff6348:	0024                	.2byte	0x24
 fff634a:	0000                	.2byte	0x0
 fff634c:	00e0                	.2byte	0xe0
 fff634e:	0000                	.2byte	0x0
 fff6350:	a1b4                	.2byte	0xa1b4
 fff6352:	ffff                	.2byte	0xffff
 fff6354:	0120                	.2byte	0x120
 fff6356:	0000                	.2byte	0x0
 fff6358:	4400                	.2byte	0x4400
 fff635a:	400e                	.2byte	0x400e
 fff635c:	816c                	.2byte	0x816c
 fff635e:	8801                	.2byte	0x8801
 fff6360:	8902                	.2byte	0x8902
 fff6362:	93049203          	lh	tp,-1744(s1)
 fff6366:	9405                	.2byte	0x9405
 fff6368:	9506                	.2byte	0x9506
 fff636a:	97089607          	.4byte	0x97089607
 fff636e:	0009                	.2byte	0x9
 fff6370:	0028                	.2byte	0x28
 fff6372:	0000                	.2byte	0x0
 fff6374:	0108                	.2byte	0x108
 fff6376:	0000                	.2byte	0x0
 fff6378:	a2ac                	.2byte	0xa2ac
 fff637a:	ffff                	.2byte	0xffff
 fff637c:	009c                	.2byte	0x9c
 fff637e:	0000                	.2byte	0x0
 fff6380:	4400                	.2byte	0x4400
 fff6382:	100e                	.2byte	0x100e
 fff6384:	8844                	.2byte	0x8844
 fff6386:	5002                	.2byte	0x5002
 fff6388:	0181                	.2byte	0x181
 fff638a:	4402                	.2byte	0x4402
 fff638c:	c80a                	.2byte	0xc80a
 fff638e:	c148                	.2byte	0xc148
 fff6390:	0e48                	.2byte	0xe48
 fff6392:	4400                	.2byte	0x4400
 fff6394:	44c1600b          	.4byte	0x44c1600b
 fff6398:	44c8                	.2byte	0x44c8
 fff639a:	000e                	.2byte	0xe
 fff639c:	0018                	.2byte	0x18
 fff639e:	0000                	.2byte	0x0
 fff63a0:	0134                	.2byte	0x134
 fff63a2:	0000                	.2byte	0x0
 fff63a4:	a31c                	.2byte	0xa31c
 fff63a6:	ffff                	.2byte	0xffff
 fff63a8:	0050                	.2byte	0x50
 fff63aa:	0000                	.2byte	0x0
 fff63ac:	5000                	.2byte	0x5000
 fff63ae:	100e                	.2byte	0x100e
 fff63b0:	8154                	.2byte	0x8154
 fff63b2:	5801                	.2byte	0x5801
 fff63b4:	4cc1                	.2byte	0x4cc1
 fff63b6:	000e                	.2byte	0xe
 fff63b8:	0038                	.2byte	0x38
 fff63ba:	0000                	.2byte	0x0
 fff63bc:	0150                	.2byte	0x150
 fff63be:	0000                	.2byte	0x0
 fff63c0:	a350                	.2byte	0xa350
 fff63c2:	ffff                	.2byte	0xffff
 fff63c4:	0178                	.2byte	0x178
 fff63c6:	0000                	.2byte	0x0
 fff63c8:	0200                	.2byte	0x200
 fff63ca:	0e44                	.2byte	0xe44
 fff63cc:	5c50                	.2byte	0x5c50
 fff63ce:	0288                	.2byte	0x288
 fff63d0:	0389                	.2byte	0x389
 fff63d2:	0492                	.2byte	0x492
 fff63d4:	06940593          	addi	a1,s0,105
 fff63d8:	0181                	.2byte	0x181
 fff63da:	0795                	.2byte	0x795
 fff63dc:	5c02                	.2byte	0x5c02
 fff63de:	c10a                	.2byte	0xc10a
 fff63e0:	c844                	.2byte	0xc844
 fff63e2:	c944                	.2byte	0xc944
 fff63e4:	d244                	.2byte	0xd244
 fff63e6:	d344                	.2byte	0xd344
 fff63e8:	d444                	.2byte	0xd444
 fff63ea:	d544                	.2byte	0xd544
 fff63ec:	0e44                	.2byte	0xe44
 fff63ee:	4400                	.2byte	0x4400
 fff63f0:	0000000b          	.4byte	0xb
 fff63f4:	002c                	.2byte	0x2c
 fff63f6:	0000                	.2byte	0x0
 fff63f8:	018c                	.2byte	0x18c
 fff63fa:	0000                	.2byte	0x0
 fff63fc:	a48c                	.2byte	0xa48c
 fff63fe:	ffff                	.2byte	0xffff
 fff6400:	00d4                	.2byte	0xd4
 fff6402:	0000                	.2byte	0x0
 fff6404:	4400                	.2byte	0x4400
 fff6406:	900e                	.2byte	0x900e
 fff6408:	4405                	.2byte	0x4405
 fff640a:	0389                	.2byte	0x389
 fff640c:	884c                	.2byte	0x884c
 fff640e:	9202                	.2byte	0x9202
 fff6410:	5804                	.2byte	0x5804
 fff6412:	0181                	.2byte	0x181
 fff6414:	6402                	.2byte	0x6402
 fff6416:	c10a                	.2byte	0xc10a
 fff6418:	c844                	.2byte	0xc844
 fff641a:	c944                	.2byte	0xc944
 fff641c:	d244                	.2byte	0xd244
 fff641e:	0e44                	.2byte	0xe44
 fff6420:	4400                	.2byte	0x4400
 fff6422:	0010000b          	.4byte	0x10000b
 fff6426:	0000                	.2byte	0x0
 fff6428:	01bc                	.2byte	0x1bc
 fff642a:	0000                	.2byte	0x0
 fff642c:	a530                	.2byte	0xa530
 fff642e:	ffff                	.2byte	0xffff
 fff6430:	0018                	.2byte	0x18
 fff6432:	0000                	.2byte	0x0
 fff6434:	0000                	.2byte	0x0
 fff6436:	0000                	.2byte	0x0
 fff6438:	0010                	.2byte	0x10
 fff643a:	0000                	.2byte	0x0
 fff643c:	01d0                	.2byte	0x1d0
 fff643e:	0000                	.2byte	0x0
 fff6440:	a534                	.2byte	0xa534
 fff6442:	ffff                	.2byte	0xffff
 fff6444:	0024                	.2byte	0x24
 fff6446:	0000                	.2byte	0x0
 fff6448:	0000                	.2byte	0x0
 fff644a:	0000                	.2byte	0x0
 fff644c:	0020                	.2byte	0x20
 fff644e:	0000                	.2byte	0x0
 fff6450:	01e4                	.2byte	0x1e4
 fff6452:	0000                	.2byte	0x0
 fff6454:	a544                	.2byte	0xa544
 fff6456:	ffff                	.2byte	0xffff
 fff6458:	0108                	.2byte	0x108
 fff645a:	0000                	.2byte	0x0
 fff645c:	4400                	.2byte	0x4400
 fff645e:	300e                	.2byte	0x300e
 fff6460:	8848                	.2byte	0x8848
 fff6462:	5402                	.2byte	0x5402
 fff6464:	0181                	.2byte	0x181
 fff6466:	dc02                	.2byte	0xdc02
 fff6468:	44c1                	.2byte	0x44c1
 fff646a:	44c8                	.2byte	0x44c8
 fff646c:	000e                	.2byte	0xe
 fff646e:	0000                	.2byte	0x0
 fff6470:	0010                	.2byte	0x10
 fff6472:	0000                	.2byte	0x0
 fff6474:	0208                	.2byte	0x208
 fff6476:	0000                	.2byte	0x0
 fff6478:	a628                	.2byte	0xa628
 fff647a:	ffff                	.2byte	0xffff
 fff647c:	006c                	.2byte	0x6c
 fff647e:	0000                	.2byte	0x0
 fff6480:	0000                	.2byte	0x0
 fff6482:	0000                	.2byte	0x0
 fff6484:	0010                	.2byte	0x10
 fff6486:	0000                	.2byte	0x0
 fff6488:	021c                	.2byte	0x21c
 fff648a:	0000                	.2byte	0x0
 fff648c:	a680                	.2byte	0xa680
 fff648e:	ffff                	.2byte	0xffff
 fff6490:	00a8                	.2byte	0xa8
 fff6492:	0000                	.2byte	0x0
 fff6494:	0000                	.2byte	0x0
 fff6496:	0000                	.2byte	0x0
 fff6498:	0010                	.2byte	0x10
 fff649a:	0000                	.2byte	0x0
 fff649c:	0230                	.2byte	0x230
 fff649e:	0000                	.2byte	0x0
 fff64a0:	a714                	.2byte	0xa714
 fff64a2:	ffff                	.2byte	0xffff
 fff64a4:	0020                	.2byte	0x20
 fff64a6:	0000                	.2byte	0x0
 fff64a8:	0000                	.2byte	0x0
 fff64aa:	0000                	.2byte	0x0
 fff64ac:	0040                	.2byte	0x40
 fff64ae:	0000                	.2byte	0x0
 fff64b0:	0244                	.2byte	0x244
 fff64b2:	0000                	.2byte	0x0
 fff64b4:	a720                	.2byte	0xa720
 fff64b6:	ffff                	.2byte	0xffff
 fff64b8:	0344                	.2byte	0x344
 fff64ba:	0000                	.2byte	0x0
 fff64bc:	4400                	.2byte	0x4400
 fff64be:	200e                	.2byte	0x200e
 fff64c0:	9544                	.2byte	0x9544
 fff64c2:	03894c07          	.4byte	0x3894c07
 fff64c6:	9648                	.2byte	0x9648
 fff64c8:	4808                	.2byte	0x4808
 fff64ca:	0288                	.2byte	0x288
 fff64cc:	9454                	.2byte	0x9454
 fff64ce:	8106                	.2byte	0x8106
 fff64d0:	9201                	.2byte	0x9201
 fff64d2:	9304                	.2byte	0x9304
 fff64d4:	0305                	.2byte	0x305
 fff64d6:	0234                	.2byte	0x234
 fff64d8:	c10a                	.2byte	0xc10a
 fff64da:	c844                	.2byte	0xc844
 fff64dc:	c94c                	.2byte	0xc94c
 fff64de:	d244                	.2byte	0xd244
 fff64e0:	d344                	.2byte	0xd344
 fff64e2:	d444                	.2byte	0xd444
 fff64e4:	d544                	.2byte	0xd544
 fff64e6:	d644                	.2byte	0xd644
 fff64e8:	0e44                	.2byte	0xe44
 fff64ea:	4400                	.2byte	0x4400
 fff64ec:	0000000b          	.4byte	0xb
 fff64f0:	0010                	.2byte	0x10
 fff64f2:	0000                	.2byte	0x0
 fff64f4:	0288                	.2byte	0x288
 fff64f6:	0000                	.2byte	0x0
 fff64f8:	aa20                	.2byte	0xaa20
 fff64fa:	ffff                	.2byte	0xffff
 fff64fc:	0014                	.2byte	0x14
 fff64fe:	0000                	.2byte	0x0
 fff6500:	0000                	.2byte	0x0
 fff6502:	0000                	.2byte	0x0
 fff6504:	0010                	.2byte	0x10
 fff6506:	0000                	.2byte	0x0
 fff6508:	029c                	.2byte	0x29c
 fff650a:	0000                	.2byte	0x0
 fff650c:	aa20                	.2byte	0xaa20
 fff650e:	ffff                	.2byte	0xffff
 fff6510:	0014                	.2byte	0x14
 fff6512:	0000                	.2byte	0x0
 fff6514:	0000                	.2byte	0x0
 fff6516:	0000                	.2byte	0x0
 fff6518:	0028                	.2byte	0x28
 fff651a:	0000                	.2byte	0x0
 fff651c:	02b0                	.2byte	0x2b0
 fff651e:	0000                	.2byte	0x0
 fff6520:	aa20                	.2byte	0xaa20
 fff6522:	ffff                	.2byte	0xffff
 fff6524:	0070                	.2byte	0x70
 fff6526:	0000                	.2byte	0x0
 fff6528:	4400                	.2byte	0x4400
 fff652a:	100e                	.2byte	0x100e
 fff652c:	8848                	.2byte	0x8848
 fff652e:	8902                	.2byte	0x8902
 fff6530:	01814c03          	lbu	s8,24(sp)
 fff6534:	4002                	.2byte	0x4002
 fff6536:	c10a                	.2byte	0xc10a
 fff6538:	c844                	.2byte	0xc844
 fff653a:	c944                	.2byte	0xc944
 fff653c:	0e44                	.2byte	0xe44
 fff653e:	4400                	.2byte	0x4400
 fff6540:	0000000b          	.4byte	0xb
 fff6544:	0010                	.2byte	0x10
 fff6546:	0000                	.2byte	0x0
 fff6548:	02dc                	.2byte	0x2dc
 fff654a:	0000                	.2byte	0x0
 fff654c:	aa64                	.2byte	0xaa64
 fff654e:	ffff                	.2byte	0xffff
 fff6550:	0014                	.2byte	0x14
 fff6552:	0000                	.2byte	0x0
 fff6554:	0000                	.2byte	0x0
 fff6556:	0000                	.2byte	0x0
 fff6558:	0010                	.2byte	0x10
 fff655a:	0000                	.2byte	0x0
 fff655c:	02f0                	.2byte	0x2f0
 fff655e:	0000                	.2byte	0x0
 fff6560:	aa64                	.2byte	0xaa64
 fff6562:	ffff                	.2byte	0xffff
 fff6564:	0034                	.2byte	0x34
 fff6566:	0000                	.2byte	0x0
 fff6568:	0000                	.2byte	0x0
 fff656a:	0000                	.2byte	0x0
 fff656c:	0010                	.2byte	0x10
 fff656e:	0000                	.2byte	0x0
 fff6570:	0304                	.2byte	0x304
 fff6572:	0000                	.2byte	0x0
 fff6574:	aa84                	.2byte	0xaa84
 fff6576:	ffff                	.2byte	0xffff
 fff6578:	0014                	.2byte	0x14
 fff657a:	0000                	.2byte	0x0
 fff657c:	0000                	.2byte	0x0
 fff657e:	0000                	.2byte	0x0
 fff6580:	0010                	.2byte	0x10
 fff6582:	0000                	.2byte	0x0
 fff6584:	0318                	.2byte	0x318
 fff6586:	0000                	.2byte	0x0
 fff6588:	aa84                	.2byte	0xaa84
 fff658a:	ffff                	.2byte	0xffff
 fff658c:	0024                	.2byte	0x24
 fff658e:	0000                	.2byte	0x0
 fff6590:	0000                	.2byte	0x0
 fff6592:	0000                	.2byte	0x0
 fff6594:	002c                	.2byte	0x2c
 fff6596:	0000                	.2byte	0x0
 fff6598:	032c                	.2byte	0x32c
 fff659a:	0000                	.2byte	0x0
 fff659c:	aa94                	.2byte	0xaa94
 fff659e:	ffff                	.2byte	0xffff
 fff65a0:	0090                	.2byte	0x90
 fff65a2:	0000                	.2byte	0x0
 fff65a4:	4400                	.2byte	0x4400
 fff65a6:	100e                	.2byte	0x100e
 fff65a8:	9244                	.2byte	0x9244
 fff65aa:	5404                	.2byte	0x5404
 fff65ac:	0389                	.2byte	0x389
 fff65ae:	0181                	.2byte	0x181
 fff65b0:	8854                	.2byte	0x8854
 fff65b2:	0202                	.2byte	0x202
 fff65b4:	0a44                	.2byte	0xa44
 fff65b6:	44c1                	.2byte	0x44c1
 fff65b8:	44c8                	.2byte	0x44c8
 fff65ba:	44c9                	.2byte	0x44c9
 fff65bc:	44d2                	.2byte	0x44d2
 fff65be:	000e                	.2byte	0xe
 fff65c0:	0b44                	.2byte	0xb44
 fff65c2:	0000                	.2byte	0x0
 fff65c4:	002c                	.2byte	0x2c
 fff65c6:	0000                	.2byte	0x0
 fff65c8:	035c                	.2byte	0x35c
 fff65ca:	0000                	.2byte	0x0
 fff65cc:	aaf4                	.2byte	0xaaf4
 fff65ce:	ffff                	.2byte	0xffff
 fff65d0:	0098                	.2byte	0x98
 fff65d2:	0000                	.2byte	0x0
 fff65d4:	4400                	.2byte	0x4400
 fff65d6:	100e                	.2byte	0x100e
 fff65d8:	9250                	.2byte	0x9250
 fff65da:	5404                	.2byte	0x5404
 fff65dc:	0389                	.2byte	0x389
 fff65de:	8150                	.2byte	0x8150
 fff65e0:	8801                	.2byte	0x8801
 fff65e2:	0202                	.2byte	0x202
 fff65e4:	0a44                	.2byte	0xa44
 fff65e6:	44c1                	.2byte	0x44c1
 fff65e8:	44c8                	.2byte	0x44c8
 fff65ea:	44c9                	.2byte	0x44c9
 fff65ec:	44d2                	.2byte	0x44d2
 fff65ee:	000e                	.2byte	0xe
 fff65f0:	0b44                	.2byte	0xb44
 fff65f2:	0000                	.2byte	0x0
 fff65f4:	0010                	.2byte	0x10
 fff65f6:	0000                	.2byte	0x0
 fff65f8:	038c                	.2byte	0x38c
 fff65fa:	0000                	.2byte	0x0
 fff65fc:	ab5c                	.2byte	0xab5c
 fff65fe:	ffff                	.2byte	0xffff
 fff6600:	001c                	.2byte	0x1c
 fff6602:	0000                	.2byte	0x0
 fff6604:	0000                	.2byte	0x0
 fff6606:	0000                	.2byte	0x0
 fff6608:	0028                	.2byte	0x28
 fff660a:	0000                	.2byte	0x0
 fff660c:	03a0                	.2byte	0x3a0
 fff660e:	0000                	.2byte	0x0
 fff6610:	ab64                	.2byte	0xab64
 fff6612:	ffff                	.2byte	0xffff
 fff6614:	00d8                	.2byte	0xd8
 fff6616:	0000                	.2byte	0x0
 fff6618:	4400                	.2byte	0x4400
 fff661a:	200e                	.2byte	0x200e
 fff661c:	8974                	.2byte	0x8974
 fff661e:	88018103          	lb	sp,-1920(gp)
 fff6622:	9202                	.2byte	0x9202
 fff6624:	0204                	.2byte	0x204
 fff6626:	c18c                	.2byte	0xc18c
 fff6628:	c844                	.2byte	0xc844
 fff662a:	c944                	.2byte	0xc944
 fff662c:	d244                	.2byte	0xd244
 fff662e:	0e44                	.2byte	0xe44
 fff6630:	0000                	.2byte	0x0
 fff6632:	0000                	.2byte	0x0
 fff6634:	0020                	.2byte	0x20
 fff6636:	0000                	.2byte	0x0
 fff6638:	03cc                	.2byte	0x3cc
 fff663a:	0000                	.2byte	0x0
 fff663c:	ac10                	.2byte	0xac10
 fff663e:	ffff                	.2byte	0xffff
 fff6640:	003c                	.2byte	0x3c
 fff6642:	0000                	.2byte	0x0
 fff6644:	4400                	.2byte	0x4400
 fff6646:	100e                	.2byte	0x100e
 fff6648:	8844                	.2byte	0x8844
 fff664a:	4802                	.2byte	0x4802
 fff664c:	0181                	.2byte	0x181
 fff664e:	c160                	.2byte	0xc160
 fff6650:	c844                	.2byte	0xc844
 fff6652:	0e44                	.2byte	0xe44
 fff6654:	0000                	.2byte	0x0
 fff6656:	0000                	.2byte	0x0
 fff6658:	0030                	.2byte	0x30
 fff665a:	0000                	.2byte	0x0
 fff665c:	03f0                	.2byte	0x3f0
 fff665e:	0000                	.2byte	0x0
 fff6660:	ac28                	.2byte	0xac28
 fff6662:	ffff                	.2byte	0xffff
 fff6664:	00a4                	.2byte	0xa4
 fff6666:	0000                	.2byte	0x0
 fff6668:	4400                	.2byte	0x4400
 fff666a:	200e                	.2byte	0x200e
 fff666c:	8958                	.2byte	0x8958
 fff666e:	81059303          	lh	t1,-2032(a1)
 fff6672:	8801                	.2byte	0x8801
 fff6674:	9202                	.2byte	0x9202
 fff6676:	9404                	.2byte	0x9404
 fff6678:	0206                	.2byte	0x206
 fff667a:	c168                	.2byte	0xc168
 fff667c:	c844                	.2byte	0xc844
 fff667e:	d244                	.2byte	0xd244
 fff6680:	d344                	.2byte	0xd344
 fff6682:	d444                	.2byte	0xd444
 fff6684:	c948                	.2byte	0xc948
 fff6686:	0e44                	.2byte	0xe44
 fff6688:	0000                	.2byte	0x0
 fff668a:	0000                	.2byte	0x0
 fff668c:	0020                	.2byte	0x20
 fff668e:	0000                	.2byte	0x0
 fff6690:	0424                	.2byte	0x424
 fff6692:	0000                	.2byte	0x0
 fff6694:	ac98                	.2byte	0xac98
 fff6696:	ffff                	.2byte	0xffff
 fff6698:	007c                	.2byte	0x7c
 fff669a:	0000                	.2byte	0x0
 fff669c:	4400                	.2byte	0x4400
 fff669e:	100e                	.2byte	0x100e
 fff66a0:	8850                	.2byte	0x8850
 fff66a2:	8102                	.2byte	0x8102
 fff66a4:	0201                	.2byte	0x201
 fff66a6:	c158                	.2byte	0xc158
 fff66a8:	c848                	.2byte	0xc848
 fff66aa:	0e44                	.2byte	0xe44
 fff66ac:	0000                	.2byte	0x0
 fff66ae:	0000                	.2byte	0x0
 fff66b0:	0020                	.2byte	0x20
 fff66b2:	0000                	.2byte	0x0
 fff66b4:	0448                	.2byte	0x448
 fff66b6:	0000                	.2byte	0x0
 fff66b8:	acf0                	.2byte	0xacf0
 fff66ba:	ffff                	.2byte	0xffff
 fff66bc:	008c                	.2byte	0x8c
 fff66be:	0000                	.2byte	0x0
 fff66c0:	4400                	.2byte	0x4400
 fff66c2:	200e                	.2byte	0x200e
 fff66c4:	8150                	.2byte	0x8150
 fff66c6:	8801                	.2byte	0x8801
 fff66c8:	0202                	.2byte	0x202
 fff66ca:	c168                	.2byte	0xc168
 fff66cc:	c848                	.2byte	0xc848
 fff66ce:	0e44                	.2byte	0xe44
 fff66d0:	0000                	.2byte	0x0
 fff66d2:	0000                	.2byte	0x0
 fff66d4:	0028                	.2byte	0x28
 fff66d6:	0000                	.2byte	0x0
 fff66d8:	046c                	.2byte	0x46c
 fff66da:	0000                	.2byte	0x0
 fff66dc:	ad58                	.2byte	0xad58
 fff66de:	ffff                	.2byte	0xffff
 fff66e0:	00cc                	.2byte	0xcc
 fff66e2:	0000                	.2byte	0x0
 fff66e4:	4400                	.2byte	0x4400
 fff66e6:	100e                	.2byte	0x100e
 fff66e8:	9250                	.2byte	0x9250
 fff66ea:	8104                	.2byte	0x8104
 fff66ec:	8801                	.2byte	0x8801
 fff66ee:	8902                	.2byte	0x8902
 fff66f0:	c1a00203          	lb	tp,-998(zero) # fffffc1a <__BSS_END__$+0xf0006eb2>
 fff66f4:	c844                	.2byte	0xc844
 fff66f6:	d244                	.2byte	0xd244
 fff66f8:	c948                	.2byte	0xc948
 fff66fa:	0e44                	.2byte	0xe44
 fff66fc:	0000                	.2byte	0x0
 fff66fe:	0000                	.2byte	0x0
 fff6700:	0034                	.2byte	0x34
 fff6702:	0000                	.2byte	0x0
 fff6704:	0498                	.2byte	0x498
 fff6706:	0000                	.2byte	0x0
 fff6708:	adf8                	.2byte	0xadf8
 fff670a:	ffff                	.2byte	0xffff
 fff670c:	0120                	.2byte	0x120
 fff670e:	0000                	.2byte	0x0
 fff6710:	4400                	.2byte	0x4400
 fff6712:	200e                	.2byte	0x200e
 fff6714:	8948                	.2byte	0x8948
 fff6716:	60059303          	lh	t1,1536(a1)
 fff671a:	0181                	.2byte	0x181
 fff671c:	0288                	.2byte	0x288
 fff671e:	0492                	.2byte	0x492
 fff6720:	0694                	.2byte	0x694
 fff6722:	6402                	.2byte	0x6402
 fff6724:	c10a                	.2byte	0xc10a
 fff6726:	c848                	.2byte	0xc848
 fff6728:	c944                	.2byte	0xc944
 fff672a:	d244                	.2byte	0xd244
 fff672c:	d344                	.2byte	0xd344
 fff672e:	d444                	.2byte	0xd444
 fff6730:	0e44                	.2byte	0xe44
 fff6732:	4400                	.2byte	0x4400
 fff6734:	0000000b          	.4byte	0xb
 fff6738:	0034                	.2byte	0x34
 fff673a:	0000                	.2byte	0x0
 fff673c:	04d0                	.2byte	0x4d0
 fff673e:	0000                	.2byte	0x0
 fff6740:	aee0                	.2byte	0xaee0
 fff6742:	ffff                	.2byte	0xffff
 fff6744:	00a0                	.2byte	0xa0
 fff6746:	0000                	.2byte	0x0
 fff6748:	4400                	.2byte	0x4400
 fff674a:	100e                	.2byte	0x100e
 fff674c:	8944                	.2byte	0x8944
 fff674e:	01815803          	lhu	a6,24(sp)
 fff6752:	0288                	.2byte	0x288
 fff6754:	0492                	.2byte	0x492
 fff6756:	4402                	.2byte	0x4402
 fff6758:	c80a                	.2byte	0xc80a
 fff675a:	c144                	.2byte	0xc144
 fff675c:	c944                	.2byte	0xc944
 fff675e:	d244                	.2byte	0xd244
 fff6760:	0e44                	.2byte	0xe44
 fff6762:	4400                	.2byte	0x4400
 fff6764:	44c1540b          	.4byte	0x44c1540b
 fff6768:	44c8                	.2byte	0x44c8
 fff676a:	44c9                	.2byte	0x44c9
 fff676c:	44d2                	.2byte	0x44d2
 fff676e:	000e                	.2byte	0xe
 fff6770:	0038                	.2byte	0x38
 fff6772:	0000                	.2byte	0x0
 fff6774:	0508                	.2byte	0x508
 fff6776:	0000                	.2byte	0x0
 fff6778:	af48                	.2byte	0xaf48
 fff677a:	ffff                	.2byte	0xffff
 fff677c:	00a8                	.2byte	0xa8
 fff677e:	0000                	.2byte	0x0
 fff6780:	4400                	.2byte	0x4400
 fff6782:	b00e                	.2byte	0xb00e
 fff6784:	6004                	.2byte	0x6004
 fff6786:	0694                	.2byte	0x694
 fff6788:	0181                	.2byte	0x181
 fff678a:	0288                	.2byte	0x288
 fff678c:	0389                	.2byte	0x389
 fff678e:	0492                	.2byte	0x492
 fff6790:	07950593          	addi	a1,a0,121
 fff6794:	0896                	.2byte	0x896
 fff6796:	6002                	.2byte	0x6002
 fff6798:	44c1                	.2byte	0x44c1
 fff679a:	44c8                	.2byte	0x44c8
 fff679c:	44c9                	.2byte	0x44c9
 fff679e:	44d2                	.2byte	0x44d2
 fff67a0:	44d444d3          	.4byte	0x44d444d3
 fff67a4:	44d5                	.2byte	0x44d5
 fff67a6:	44d6                	.2byte	0x44d6
 fff67a8:	000e                	.2byte	0xe
 fff67aa:	0000                	.2byte	0x0
 fff67ac:	0038                	.2byte	0x38
 fff67ae:	0000                	.2byte	0x0
 fff67b0:	0544                	.2byte	0x544
 fff67b2:	0000                	.2byte	0x0
 fff67b4:	afb4                	.2byte	0xafb4
 fff67b6:	ffff                	.2byte	0xffff
 fff67b8:	00a8                	.2byte	0xa8
 fff67ba:	0000                	.2byte	0x0
 fff67bc:	4400                	.2byte	0x4400
 fff67be:	b00e                	.2byte	0xb00e
 fff67c0:	6004                	.2byte	0x6004
 fff67c2:	0694                	.2byte	0x694
 fff67c4:	0181                	.2byte	0x181
 fff67c6:	0288                	.2byte	0x288
 fff67c8:	0389                	.2byte	0x389
 fff67ca:	0492                	.2byte	0x492
 fff67cc:	07950593          	addi	a1,a0,121
 fff67d0:	0896                	.2byte	0x896
 fff67d2:	6002                	.2byte	0x6002
 fff67d4:	44c1                	.2byte	0x44c1
 fff67d6:	44c8                	.2byte	0x44c8
 fff67d8:	44c9                	.2byte	0x44c9
 fff67da:	44d2                	.2byte	0x44d2
 fff67dc:	44d444d3          	.4byte	0x44d444d3
 fff67e0:	44d5                	.2byte	0x44d5
 fff67e2:	44d6                	.2byte	0x44d6
 fff67e4:	000e                	.2byte	0xe
 fff67e6:	0000                	.2byte	0x0
 fff67e8:	0020                	.2byte	0x20
 fff67ea:	0000                	.2byte	0x0
 fff67ec:	0580                	.2byte	0x580
 fff67ee:	0000                	.2byte	0x0
 fff67f0:	b020                	.2byte	0xb020
 fff67f2:	ffff                	.2byte	0xffff
 fff67f4:	0048                	.2byte	0x48
 fff67f6:	0000                	.2byte	0x0
 fff67f8:	4400                	.2byte	0x4400
 fff67fa:	100e                	.2byte	0x100e
 fff67fc:	8148                	.2byte	0x8148
 fff67fe:	8801                	.2byte	0x8801
 fff6800:	5402                	.2byte	0x5402
 fff6802:	c10a                	.2byte	0xc10a
 fff6804:	c844                	.2byte	0xc844
 fff6806:	0e44                	.2byte	0xe44
 fff6808:	4400                	.2byte	0x4400
 fff680a:	0010000b          	.4byte	0x10000b
 fff680e:	0000                	.2byte	0x0
 fff6810:	05a4                	.2byte	0x5a4
 fff6812:	0000                	.2byte	0x0
 fff6814:	b044                	.2byte	0xb044
 fff6816:	ffff                	.2byte	0xffff
 fff6818:	002c                	.2byte	0x2c
 fff681a:	0000                	.2byte	0x0
 fff681c:	0000                	.2byte	0x0
 fff681e:	0000                	.2byte	0x0
 fff6820:	0010                	.2byte	0x10
 fff6822:	0000                	.2byte	0x0
 fff6824:	05b8                	.2byte	0x5b8
 fff6826:	0000                	.2byte	0x0
 fff6828:	b05c                	.2byte	0xb05c
 fff682a:	ffff                	.2byte	0xffff
 fff682c:	002c                	.2byte	0x2c
 fff682e:	0000                	.2byte	0x0
 fff6830:	0000                	.2byte	0x0
 fff6832:	0000                	.2byte	0x0
 fff6834:	0010                	.2byte	0x10
 fff6836:	0000                	.2byte	0x0
 fff6838:	05cc                	.2byte	0x5cc
 fff683a:	0000                	.2byte	0x0
 fff683c:	b074                	.2byte	0xb074
 fff683e:	ffff                	.2byte	0xffff
 fff6840:	003c                	.2byte	0x3c
 fff6842:	0000                	.2byte	0x0
 fff6844:	0000                	.2byte	0x0
 fff6846:	0000                	.2byte	0x0
 fff6848:	0010                	.2byte	0x10
 fff684a:	0000                	.2byte	0x0
 fff684c:	05e0                	.2byte	0x5e0
 fff684e:	0000                	.2byte	0x0
 fff6850:	b09c                	.2byte	0xb09c
 fff6852:	ffff                	.2byte	0xffff
 fff6854:	0030                	.2byte	0x30
 fff6856:	0000                	.2byte	0x0
 fff6858:	0000                	.2byte	0x0
 fff685a:	0000                	.2byte	0x0
 fff685c:	0010                	.2byte	0x10
 fff685e:	0000                	.2byte	0x0
 fff6860:	05f4                	.2byte	0x5f4
 fff6862:	0000                	.2byte	0x0
 fff6864:	b0b8                	.2byte	0xb0b8
 fff6866:	ffff                	.2byte	0xffff
 fff6868:	00e4                	.2byte	0xe4
 fff686a:	0000                	.2byte	0x0
 fff686c:	0000                	.2byte	0x0
 fff686e:	0000                	.2byte	0x0
 fff6870:	0024                	.2byte	0x24
 fff6872:	0000                	.2byte	0x0
 fff6874:	0608                	.2byte	0x608
 fff6876:	0000                	.2byte	0x0
 fff6878:	b188                	.2byte	0xb188
 fff687a:	ffff                	.2byte	0xffff
 fff687c:	0070                	.2byte	0x70
 fff687e:	0000                	.2byte	0x0
 fff6880:	4400                	.2byte	0x4400
 fff6882:	100e                	.2byte	0x100e
 fff6884:	894c                	.2byte	0x894c
 fff6886:	88018103          	lb	sp,-1920(gp)
 fff688a:	5402                	.2byte	0x5402
 fff688c:	c10a                	.2byte	0xc10a
 fff688e:	c844                	.2byte	0xc844
 fff6890:	c948                	.2byte	0xc948
 fff6892:	0e44                	.2byte	0xe44
 fff6894:	4400                	.2byte	0x4400
 fff6896:	0020000b          	.4byte	0x20000b
 fff689a:	0000                	.2byte	0x0
 fff689c:	0630                	.2byte	0x630
 fff689e:	0000                	.2byte	0x0
 fff68a0:	b1d0                	.2byte	0xb1d0
 fff68a2:	ffff                	.2byte	0xffff
 fff68a4:	0094                	.2byte	0x94
 fff68a6:	0000                	.2byte	0x0
 fff68a8:	4c00                	.2byte	0x4c00
 fff68aa:	200e                	.2byte	0x200e
 fff68ac:	8848                	.2byte	0x8848
 fff68ae:	8102                	.2byte	0x8102
 fff68b0:	0201                	.2byte	0x201
 fff68b2:	c164                	.2byte	0xc164
 fff68b4:	c844                	.2byte	0xc844
 fff68b6:	0e48                	.2byte	0xe48
 fff68b8:	0000                	.2byte	0x0
 fff68ba:	0000                	.2byte	0x0
 fff68bc:	0024                	.2byte	0x24
 fff68be:	0000                	.2byte	0x0
 fff68c0:	0654                	.2byte	0x654
 fff68c2:	0000                	.2byte	0x0
 fff68c4:	b240                	.2byte	0xb240
 fff68c6:	ffff                	.2byte	0xffff
 fff68c8:	0068                	.2byte	0x68
 fff68ca:	0000                	.2byte	0x0
 fff68cc:	4c00                	.2byte	0x4c00
 fff68ce:	100e                	.2byte	0x100e
 fff68d0:	884c                	.2byte	0x884c
 fff68d2:	8902                	.2byte	0x8902
 fff68d4:	02018103          	lb	sp,32(gp)
 fff68d8:	c138                	.2byte	0xc138
 fff68da:	c844                	.2byte	0xc844
 fff68dc:	c944                	.2byte	0xc944
 fff68de:	0e44                	.2byte	0xe44
 fff68e0:	0000                	.2byte	0x0
 fff68e2:	0000                	.2byte	0x0
 fff68e4:	0028                	.2byte	0x28
 fff68e6:	0000                	.2byte	0x0
 fff68e8:	067c                	.2byte	0x67c
 fff68ea:	0000                	.2byte	0x0
 fff68ec:	b280                	.2byte	0xb280
 fff68ee:	ffff                	.2byte	0xffff
 fff68f0:	018c                	.2byte	0x18c
 fff68f2:	0000                	.2byte	0x0
 fff68f4:	4400                	.2byte	0x4400
 fff68f6:	100e                	.2byte	0x100e
 fff68f8:	8850                	.2byte	0x8850
 fff68fa:	8902                	.2byte	0x8902
 fff68fc:	92018103          	lb	sp,-1760(gp)
 fff6900:	0204                	.2byte	0x204
 fff6902:	0a60                	.2byte	0xa60
 fff6904:	44c1                	.2byte	0x44c1
 fff6906:	44c8                	.2byte	0x44c8
 fff6908:	48d2                	.2byte	0x48d2
 fff690a:	44c9                	.2byte	0x44c9
 fff690c:	000e                	.2byte	0xe
 fff690e:	0b44                	.2byte	0xb44
 fff6910:	0040                	.2byte	0x40
 fff6912:	0000                	.2byte	0x0
 fff6914:	06a8                	.2byte	0x6a8
 fff6916:	0000                	.2byte	0x0
 fff6918:	b3e0                	.2byte	0xb3e0
 fff691a:	ffff                	.2byte	0xffff
 fff691c:	01f0                	.2byte	0x1f0
 fff691e:	0000                	.2byte	0x0
 fff6920:	5000                	.2byte	0x5000
 fff6922:	200e                	.2byte	0x200e
 fff6924:	895c                	.2byte	0x895c
 fff6926:	81049203          	lh	tp,-2032(s1)
 fff692a:	8801                	.2byte	0x8801
 fff692c:	9302                	.2byte	0x9302
 fff692e:	9405                	.2byte	0x9405
 fff6930:	9506                	.2byte	0x9506
 fff6932:	0ad80207          	.4byte	0xad80207
 fff6936:	44c1                	.2byte	0x44c1
 fff6938:	44c8                	.2byte	0x44c8
 fff693a:	44c9                	.2byte	0x44c9
 fff693c:	44d2                	.2byte	0x44d2
 fff693e:	44d444d3          	.4byte	0x44d444d3
 fff6942:	48d5                	.2byte	0x48d5
 fff6944:	000e                	.2byte	0xe
 fff6946:	0b44                	.2byte	0xb44
 fff6948:	bc02                	.2byte	0xbc02
 fff694a:	000e                	.2byte	0xe
 fff694c:	c8c1                	.2byte	0xc8c1
 fff694e:	d2c9                	.2byte	0xd2c9
 fff6950:	00d5d4d3          	.4byte	0xd5d4d3
 fff6954:	0034                	.2byte	0x34
 fff6956:	0000                	.2byte	0x0
 fff6958:	06ec                	.2byte	0x6ec
 fff695a:	0000                	.2byte	0x0
 fff695c:	b58c                	.2byte	0xb58c
 fff695e:	ffff                	.2byte	0xffff
 fff6960:	03e8                	.2byte	0x3e8
 fff6962:	0000                	.2byte	0x0
 fff6964:	4400                	.2byte	0x4400
 fff6966:	300e                	.2byte	0x300e
 fff6968:	925c                	.2byte	0x925c
 fff696a:	9304                	.2byte	0x9304
 fff696c:	8105                	.2byte	0x8105
 fff696e:	8801                	.2byte	0x8801
 fff6970:	8902                	.2byte	0x8902
 fff6972:	95069403          	lh	s0,-1712(a3)
 fff6976:	0a680207          	.4byte	0xa680207
 fff697a:	44c1                	.2byte	0x44c1
 fff697c:	44c8                	.2byte	0x44c8
 fff697e:	44c9                	.2byte	0x44c9
 fff6980:	44d2                	.2byte	0x44d2
 fff6982:	44d444d3          	.4byte	0x44d444d3
 fff6986:	44d5                	.2byte	0x44d5
 fff6988:	000e                	.2byte	0xe
 fff698a:	0b44                	.2byte	0xb44
 fff698c:	0010                	.2byte	0x10
 fff698e:	0000                	.2byte	0x0
 fff6990:	0724                	.2byte	0x724
 fff6992:	0000                	.2byte	0x0
 fff6994:	b93c                	.2byte	0xb93c
 fff6996:	ffff                	.2byte	0xffff
 fff6998:	0038                	.2byte	0x38
 fff699a:	0000                	.2byte	0x0
 fff699c:	0000                	.2byte	0x0
 fff699e:	0000                	.2byte	0x0
 fff69a0:	0038                	.2byte	0x38
 fff69a2:	0000                	.2byte	0x0
 fff69a4:	0738                	.2byte	0x738
 fff69a6:	0000                	.2byte	0x0
 fff69a8:	b960                	.2byte	0xb960
 fff69aa:	ffff                	.2byte	0xffff
 fff69ac:	0150                	.2byte	0x150
 fff69ae:	0000                	.2byte	0x0
 fff69b0:	5000                	.2byte	0x5000
 fff69b2:	200e                	.2byte	0x200e
 fff69b4:	8854                	.2byte	0x8854
 fff69b6:	8902                	.2byte	0x8902
 fff69b8:	92018103          	lb	sp,-1760(gp)
 fff69bc:	9304                	.2byte	0x9304
 fff69be:	0205                	.2byte	0x205
 fff69c0:	0a48                	.2byte	0xa48
 fff69c2:	44c1                	.2byte	0x44c1
 fff69c4:	44c8                	.2byte	0x44c8
 fff69c6:	44c9                	.2byte	0x44c9
 fff69c8:	44d2                	.2byte	0x44d2
 fff69ca:	000e48d3          	.4byte	0xe48d3
 fff69ce:	0b44                	.2byte	0xb44
 fff69d0:	bc02                	.2byte	0xbc02
 fff69d2:	000e                	.2byte	0xe
 fff69d4:	c8c1                	.2byte	0xc8c1
 fff69d6:	d2c9                	.2byte	0xd2c9
 fff69d8:	000000d3          	.4byte	0xd3
 fff69dc:	0038                	.2byte	0x38
 fff69de:	0000                	.2byte	0x0
 fff69e0:	0774                	.2byte	0x774
 fff69e2:	0000                	.2byte	0x0
 fff69e4:	ba74                	.2byte	0xba74
 fff69e6:	ffff                	.2byte	0xffff
 fff69e8:	01ac                	.2byte	0x1ac
 fff69ea:	0000                	.2byte	0x0
 fff69ec:	4400                	.2byte	0x4400
 fff69ee:	200e                	.2byte	0x200e
 fff69f0:	8960                	.2byte	0x8960
 fff69f2:	94059303          	lh	t1,-1728(a1)
 fff69f6:	8106                	.2byte	0x8106
 fff69f8:	8801                	.2byte	0x8801
 fff69fa:	9202                	.2byte	0x9202
 fff69fc:	9504                	.2byte	0x9504
 fff69fe:	70089607          	.4byte	0x70089607
 fff6a02:	c10a                	.2byte	0xc10a
 fff6a04:	c848                	.2byte	0xc848
 fff6a06:	c944                	.2byte	0xc944
 fff6a08:	d244                	.2byte	0xd244
 fff6a0a:	d344                	.2byte	0xd344
 fff6a0c:	d444                	.2byte	0xd444
 fff6a0e:	d544                	.2byte	0xd544
 fff6a10:	d644                	.2byte	0xd644
 fff6a12:	0e44                	.2byte	0xe44
 fff6a14:	4400                	.2byte	0x4400
 fff6a16:	0040000b          	.4byte	0x40000b
 fff6a1a:	0000                	.2byte	0x0
 fff6a1c:	07b0                	.2byte	0x7b0
 fff6a1e:	0000                	.2byte	0x0
 fff6a20:	bbe4                	.2byte	0xbbe4
 fff6a22:	ffff                	.2byte	0xffff
 fff6a24:	01ac                	.2byte	0x1ac
 fff6a26:	0000                	.2byte	0x0
 fff6a28:	4400                	.2byte	0x4400
 fff6a2a:	300e                	.2byte	0x300e
 fff6a2c:	9444                	.2byte	0x9444
 fff6a2e:	6406                	.2byte	0x6406
 fff6a30:	0288                	.2byte	0x288
 fff6a32:	0389                	.2byte	0x389
 fff6a34:	01810593          	addi	a1,sp,24
 fff6a38:	0492                	.2byte	0x492
 fff6a3a:	0795                	.2byte	0x795
 fff6a3c:	0896                	.2byte	0x896
 fff6a3e:	54020997          	auipc	s3,0x54020
 fff6a42:	c10a                	.2byte	0xc10a
 fff6a44:	c844                	.2byte	0xc844
 fff6a46:	c944                	.2byte	0xc944
 fff6a48:	d244                	.2byte	0xd244
 fff6a4a:	d344                	.2byte	0xd344
 fff6a4c:	d444                	.2byte	0xd444
 fff6a4e:	d544                	.2byte	0xd544
 fff6a50:	d644                	.2byte	0xd644
 fff6a52:	d744                	.2byte	0xd744
 fff6a54:	0e44                	.2byte	0xe44
 fff6a56:	4400                	.2byte	0x4400
 fff6a58:	0000000b          	.4byte	0xb
 fff6a5c:	0038                	.2byte	0x38
 fff6a5e:	0000                	.2byte	0x0
 fff6a60:	07f4                	.2byte	0x7f4
 fff6a62:	0000                	.2byte	0x0
 fff6a64:	bd4c                	.2byte	0xbd4c
 fff6a66:	ffff                	.2byte	0xffff
 fff6a68:	0128                	.2byte	0x128
 fff6a6a:	0000                	.2byte	0x0
 fff6a6c:	4400                	.2byte	0x4400
 fff6a6e:	300e                	.2byte	0x300e
 fff6a70:	8960                	.2byte	0x8960
 fff6a72:	88018103          	lb	sp,-1920(gp)
 fff6a76:	9202                	.2byte	0x9202
 fff6a78:	9304                	.2byte	0x9304
 fff6a7a:	9405                	.2byte	0x9405
 fff6a7c:	9506                	.2byte	0x9506
 fff6a7e:	54089607          	.4byte	0x54089607
 fff6a82:	c10a                	.2byte	0xc10a
 fff6a84:	c844                	.2byte	0xc844
 fff6a86:	c944                	.2byte	0xc944
 fff6a88:	d244                	.2byte	0xd244
 fff6a8a:	d444                	.2byte	0xd444
 fff6a8c:	d544                	.2byte	0xd544
 fff6a8e:	d644                	.2byte	0xd644
 fff6a90:	d348                	.2byte	0xd348
 fff6a92:	0e44                	.2byte	0xe44
 fff6a94:	4400                	.2byte	0x4400
 fff6a96:	0050000b          	.4byte	0x50000b
 fff6a9a:	0000                	.2byte	0x0
 fff6a9c:	0830                	.2byte	0x830
 fff6a9e:	0000                	.2byte	0x0
 fff6aa0:	be38                	.2byte	0xbe38
 fff6aa2:	ffff                	.2byte	0xffff
 fff6aa4:	0274                	.2byte	0x274
 fff6aa6:	0000                	.2byte	0x0
 fff6aa8:	4400                	.2byte	0x4400
 fff6aaa:	500e                	.2byte	0x500e
 fff6aac:	8850                	.2byte	0x8850
 fff6aae:	9402                	.2byte	0x9402
 fff6ab0:	9906                	.2byte	0x9906
 fff6ab2:	01816c0b          	.4byte	0x1816c0b
 fff6ab6:	0389                	.2byte	0x389
 fff6ab8:	0492                	.2byte	0x492
 fff6aba:	07950593          	addi	a1,a0,121
 fff6abe:	0896                	.2byte	0x896
 fff6ac0:	0a980997          	auipc	s3,0xa980
 fff6ac4:	0c9a                	.2byte	0xc9a
 fff6ac6:	f0030d9b          	.4byte	0xf0030d9b
 fff6aca:	0a01                	.2byte	0xa01
 fff6acc:	48c1                	.2byte	0x48c1
 fff6ace:	44c8                	.2byte	0x44c8
 fff6ad0:	44c9                	.2byte	0x44c9
 fff6ad2:	44d2                	.2byte	0x44d2
 fff6ad4:	44d444d3          	.4byte	0x44d444d3
 fff6ad8:	44d5                	.2byte	0x44d5
 fff6ada:	44d6                	.2byte	0x44d6
 fff6adc:	44d844d7          	.4byte	0x44d844d7
 fff6ae0:	44d9                	.2byte	0x44d9
 fff6ae2:	44da                	.2byte	0x44da
 fff6ae4:	000e44db          	.4byte	0xe44db
 fff6ae8:	0b44                	.2byte	0xb44
 fff6aea:	0000                	.2byte	0x0
 fff6aec:	0070                	.2byte	0x70
 fff6aee:	0000                	.2byte	0x0
 fff6af0:	0884                	.2byte	0x884
 fff6af2:	0000                	.2byte	0x0
 fff6af4:	c058                	.2byte	0xc058
 fff6af6:	ffff                	.2byte	0xffff
 fff6af8:	0544                	.2byte	0x544
 fff6afa:	0000                	.2byte	0x0
 fff6afc:	4400                	.2byte	0x4400
 fff6afe:	500e                	.2byte	0x500e
 fff6b00:	9274                	.2byte	0x9274
 fff6b02:	9304                	.2byte	0x9304
 fff6b04:	9405                	.2byte	0x9405
 fff6b06:	8106                	.2byte	0x8106
 fff6b08:	8801                	.2byte	0x8801
 fff6b0a:	8902                	.2byte	0x8902
 fff6b0c:	96079503          	lh	a0,-1696(a5)
 fff6b10:	9708                	.2byte	0x9708
 fff6b12:	9809                	.2byte	0x9809
 fff6b14:	990a                	.2byte	0x990a
 fff6b16:	9b0c9a0b          	.4byte	0x9b0c9a0b
 fff6b1a:	020d                	.2byte	0x20d
 fff6b1c:	0ac4                	.2byte	0xac4
 fff6b1e:	44c8                	.2byte	0x44c8
 fff6b20:	44c1                	.2byte	0x44c1
 fff6b22:	44c9                	.2byte	0x44c9
 fff6b24:	44d444d3          	.4byte	0x44d444d3
 fff6b28:	44d5                	.2byte	0x44d5
 fff6b2a:	44d6                	.2byte	0x44d6
 fff6b2c:	44d844d7          	.4byte	0x44d844d7
 fff6b30:	44d9                	.2byte	0x44d9
 fff6b32:	44da                	.2byte	0x44da
 fff6b34:	48d248db          	.4byte	0x48d248db
 fff6b38:	000e                	.2byte	0xe
 fff6b3a:	0b44                	.2byte	0xb44
 fff6b3c:	cc02                	.2byte	0xcc02
 fff6b3e:	c10a                	.2byte	0xc10a
 fff6b40:	c844                	.2byte	0xc844
 fff6b42:	c944                	.2byte	0xc944
 fff6b44:	d244                	.2byte	0xd244
 fff6b46:	d344                	.2byte	0xd344
 fff6b48:	d444                	.2byte	0xd444
 fff6b4a:	d544                	.2byte	0xd544
 fff6b4c:	d644                	.2byte	0xd644
 fff6b4e:	d744                	.2byte	0xd744
 fff6b50:	d844                	.2byte	0xd844
 fff6b52:	d944                	.2byte	0xd944
 fff6b54:	da44                	.2byte	0xda44
 fff6b56:	db44                	.2byte	0xdb44
 fff6b58:	0e44                	.2byte	0xe44
 fff6b5a:	4400                	.2byte	0x4400
 fff6b5c:	0000000b          	.4byte	0xb
 fff6b60:	0020                	.2byte	0x20
 fff6b62:	0000                	.2byte	0x0
 fff6b64:	08f8                	.2byte	0x8f8
 fff6b66:	0000                	.2byte	0x0
 fff6b68:	c528                	.2byte	0xc528
 fff6b6a:	ffff                	.2byte	0xffff
 fff6b6c:	0088                	.2byte	0x88
 fff6b6e:	0000                	.2byte	0x0
 fff6b70:	4400                	.2byte	0x4400
 fff6b72:	300e                	.2byte	0x300e
 fff6b74:	8850                	.2byte	0x8850
 fff6b76:	8102                	.2byte	0x8102
 fff6b78:	0201                	.2byte	0x201
 fff6b7a:	0a60                	.2byte	0xa60
 fff6b7c:	44c1                	.2byte	0x44c1
 fff6b7e:	44c8                	.2byte	0x44c8
 fff6b80:	000e                	.2byte	0xe
 fff6b82:	0b44                	.2byte	0xb44
 fff6b84:	0050                	.2byte	0x50
 fff6b86:	0000                	.2byte	0x0
 fff6b88:	091c                	.2byte	0x91c
 fff6b8a:	0000                	.2byte	0x0
 fff6b8c:	c58c                	.2byte	0xc58c
 fff6b8e:	ffff                	.2byte	0xffff
 fff6b90:	0748                	.2byte	0x748
 fff6b92:	0000                	.2byte	0x0
 fff6b94:	4400                	.2byte	0x4400
 fff6b96:	a00e                	.2byte	0xa00e
 fff6b98:	7401                	.2byte	0x7401
 fff6b9a:	0795                	.2byte	0x795
 fff6b9c:	0181                	.2byte	0x181
 fff6b9e:	0288                	.2byte	0x288
 fff6ba0:	0389                	.2byte	0x389
 fff6ba2:	0492                	.2byte	0x492
 fff6ba4:	06940593          	addi	a1,s0,105
 fff6ba8:	0896                	.2byte	0x896
 fff6baa:	0a980997          	auipc	s3,0xa980
 fff6bae:	0b99                	.2byte	0xb99
 fff6bb0:	0c9a                	.2byte	0xc9a
 fff6bb2:	68020d9b          	.4byte	0x68020d9b
 fff6bb6:	c10a                	.2byte	0xc10a
 fff6bb8:	c844                	.2byte	0xc844
 fff6bba:	c944                	.2byte	0xc944
 fff6bbc:	d244                	.2byte	0xd244
 fff6bbe:	d344                	.2byte	0xd344
 fff6bc0:	d444                	.2byte	0xd444
 fff6bc2:	d644                	.2byte	0xd644
 fff6bc4:	d744                	.2byte	0xd744
 fff6bc6:	d844                	.2byte	0xd844
 fff6bc8:	d944                	.2byte	0xd944
 fff6bca:	da44                	.2byte	0xda44
 fff6bcc:	db44                	.2byte	0xdb44
 fff6bce:	d548                	.2byte	0xd548
 fff6bd0:	0e44                	.2byte	0xe44
 fff6bd2:	4400                	.2byte	0x4400
 fff6bd4:	0000000b          	.4byte	0xb
 fff6bd8:	004c                	.2byte	0x4c
 fff6bda:	0000                	.2byte	0x0
 fff6bdc:	0970                	.2byte	0x970
 fff6bde:	0000                	.2byte	0x0
 fff6be0:	cc80                	.2byte	0xcc80
 fff6be2:	ffff                	.2byte	0xffff
 fff6be4:	0264                	.2byte	0x264
 fff6be6:	0000                	.2byte	0x0
 fff6be8:	4400                	.2byte	0x4400
 fff6bea:	600e                	.2byte	0x600e
 fff6bec:	8874                	.2byte	0x8874
 fff6bee:	8902                	.2byte	0x8902
 fff6bf0:	95049203          	lh	tp,-1712(s1)
 fff6bf4:	81089607          	.4byte	0x81089607
 fff6bf8:	9301                	.2byte	0x9301
 fff6bfa:	9405                	.2byte	0x9405
 fff6bfc:	9706                	.2byte	0x9706
 fff6bfe:	9809                	.2byte	0x9809
 fff6c00:	990a                	.2byte	0x990a
 fff6c02:	9b0c9a0b          	.4byte	0x9b0c9a0b
 fff6c06:	020d                	.2byte	0x20d
 fff6c08:	0aa4                	.2byte	0xaa4
 fff6c0a:	44c1                	.2byte	0x44c1
 fff6c0c:	44c8                	.2byte	0x44c8
 fff6c0e:	44d2                	.2byte	0x44d2
 fff6c10:	44d444d3          	.4byte	0x44d444d3
 fff6c14:	44d5                	.2byte	0x44d5
 fff6c16:	44d6                	.2byte	0x44d6
 fff6c18:	44d844d7          	.4byte	0x44d844d7
 fff6c1c:	44d9                	.2byte	0x44d9
 fff6c1e:	44da                	.2byte	0x44da
 fff6c20:	44c948db          	.4byte	0x44c948db
 fff6c24:	000e                	.2byte	0xe
 fff6c26:	0b44                	.2byte	0xb44
 fff6c28:	002c                	.2byte	0x2c
 fff6c2a:	0000                	.2byte	0x0
 fff6c2c:	09c0                	.2byte	0x9c0
 fff6c2e:	0000                	.2byte	0x0
 fff6c30:	ce94                	.2byte	0xce94
 fff6c32:	ffff                	.2byte	0xffff
 fff6c34:	021c                	.2byte	0x21c
 fff6c36:	0000                	.2byte	0x0
 fff6c38:	4400                	.2byte	0x4400
 fff6c3a:	300e                	.2byte	0x300e
 fff6c3c:	8958                	.2byte	0x8958
 fff6c3e:	88018103          	lb	sp,-1920(gp)
 fff6c42:	9202                	.2byte	0x9202
 fff6c44:	9304                	.2byte	0x9304
 fff6c46:	0305                	.2byte	0x305
 fff6c48:	01e8                	.2byte	0x1e8
 fff6c4a:	44c1                	.2byte	0x44c1
 fff6c4c:	44c8                	.2byte	0x44c8
 fff6c4e:	44c9                	.2byte	0x44c9
 fff6c50:	44d2                	.2byte	0x44d2
 fff6c52:	000e44d3          	.4byte	0xe44d3
 fff6c56:	0000                	.2byte	0x0
 fff6c58:	001c                	.2byte	0x1c
 fff6c5a:	0000                	.2byte	0x0
 fff6c5c:	09f0                	.2byte	0x9f0
 fff6c5e:	0000                	.2byte	0x0
 fff6c60:	d080                	.2byte	0xd080
 fff6c62:	ffff                	.2byte	0xffff
 fff6c64:	003c                	.2byte	0x3c
 fff6c66:	0000                	.2byte	0x0
 fff6c68:	4400                	.2byte	0x4400
 fff6c6a:	200e                	.2byte	0x200e
 fff6c6c:	8848                	.2byte	0x8848
 fff6c6e:	8102                	.2byte	0x8102
 fff6c70:	6401                	.2byte	0x6401
 fff6c72:	44c1                	.2byte	0x44c1
 fff6c74:	44c8                	.2byte	0x44c8
 fff6c76:	000e                	.2byte	0xe
 fff6c78:	0048                	.2byte	0x48
 fff6c7a:	0000                	.2byte	0x0
 fff6c7c:	0a10                	.2byte	0xa10
 fff6c7e:	0000                	.2byte	0x0
 fff6c80:	d09c                	.2byte	0xd09c
 fff6c82:	ffff                	.2byte	0xffff
 fff6c84:	0398                	.2byte	0x398
 fff6c86:	0000                	.2byte	0x0
 fff6c88:	4400                	.2byte	0x4400
 fff6c8a:	500e                	.2byte	0x500e
 fff6c8c:	8944                	.2byte	0x8944
 fff6c8e:	02887003          	.4byte	0x2887003
 fff6c92:	0492                	.2byte	0x492
 fff6c94:	0181                	.2byte	0x181
 fff6c96:	06940593          	addi	a1,s0,105
 fff6c9a:	0795                	.2byte	0x795
 fff6c9c:	0896                	.2byte	0x896
 fff6c9e:	0a980997          	auipc	s3,0xa980
 fff6ca2:	0b99                	.2byte	0xb99
 fff6ca4:	7402                	.2byte	0x7402
 fff6ca6:	c10a                	.2byte	0xc10a
 fff6ca8:	c844                	.2byte	0xc844
 fff6caa:	c944                	.2byte	0xc944
 fff6cac:	d344                	.2byte	0xd344
 fff6cae:	d444                	.2byte	0xd444
 fff6cb0:	d544                	.2byte	0xd544
 fff6cb2:	d644                	.2byte	0xd644
 fff6cb4:	d744                	.2byte	0xd744
 fff6cb6:	d844                	.2byte	0xd844
 fff6cb8:	d944                	.2byte	0xd944
 fff6cba:	d248                	.2byte	0xd248
 fff6cbc:	0e44                	.2byte	0xe44
 fff6cbe:	4400                	.2byte	0x4400
 fff6cc0:	0000000b          	.4byte	0xb
 fff6cc4:	0010                	.2byte	0x10
 fff6cc6:	0000                	.2byte	0x0
 fff6cc8:	0a5c                	.2byte	0xa5c
 fff6cca:	0000                	.2byte	0x0
 fff6ccc:	d3e8                	.2byte	0xd3e8
 fff6cce:	ffff                	.2byte	0xffff
 fff6cd0:	0064                	.2byte	0x64
 fff6cd2:	0000                	.2byte	0x0
 fff6cd4:	0000                	.2byte	0x0
 fff6cd6:	0000                	.2byte	0x0
 fff6cd8:	0010                	.2byte	0x10
 fff6cda:	0000                	.2byte	0x0
 fff6cdc:	0a70                	.2byte	0xa70
 fff6cde:	0000                	.2byte	0x0
 fff6ce0:	d438                	.2byte	0xd438
 fff6ce2:	ffff                	.2byte	0xffff
 fff6ce4:	0038                	.2byte	0x38
 fff6ce6:	0000                	.2byte	0x0
 fff6ce8:	0000                	.2byte	0x0
 fff6cea:	0000                	.2byte	0x0
 fff6cec:	0010                	.2byte	0x10
 fff6cee:	0000                	.2byte	0x0
 fff6cf0:	0a84                	.2byte	0xa84
 fff6cf2:	0000                	.2byte	0x0
 fff6cf4:	d45c                	.2byte	0xd45c
 fff6cf6:	ffff                	.2byte	0xffff
 fff6cf8:	00f0                	.2byte	0xf0
 fff6cfa:	0000                	.2byte	0x0
 fff6cfc:	0000                	.2byte	0x0
 fff6cfe:	0000                	.2byte	0x0
 fff6d00:	0010                	.2byte	0x10
 fff6d02:	0000                	.2byte	0x0
 fff6d04:	0a98                	.2byte	0xa98
 fff6d06:	0000                	.2byte	0x0
 fff6d08:	d538                	.2byte	0xd538
 fff6d0a:	ffff                	.2byte	0xffff
 fff6d0c:	000c                	.2byte	0xc
 fff6d0e:	0000                	.2byte	0x0
 fff6d10:	0000                	.2byte	0x0
 fff6d12:	0000                	.2byte	0x0
 fff6d14:	0018                	.2byte	0x18
 fff6d16:	0000                	.2byte	0x0
 fff6d18:	0aac                	.2byte	0xaac
 fff6d1a:	0000                	.2byte	0x0
 fff6d1c:	d530                	.2byte	0xd530
 fff6d1e:	ffff                	.2byte	0xffff
 fff6d20:	0030                	.2byte	0x30
 fff6d22:	0000                	.2byte	0x0
 fff6d24:	4c00                	.2byte	0x4c00
 fff6d26:	100e                	.2byte	0x100e
 fff6d28:	8144                	.2byte	0x8144
 fff6d2a:	4801                	.2byte	0x4801
 fff6d2c:	4cc1                	.2byte	0x4cc1
 fff6d2e:	000e                	.2byte	0xe
 fff6d30:	0018                	.2byte	0x18
 fff6d32:	0000                	.2byte	0x0
 fff6d34:	0ac8                	.2byte	0xac8
 fff6d36:	0000                	.2byte	0x0
 fff6d38:	d544                	.2byte	0xd544
 fff6d3a:	ffff                	.2byte	0xffff
 fff6d3c:	0040                	.2byte	0x40
 fff6d3e:	0000                	.2byte	0x0
 fff6d40:	5c00                	.2byte	0x5c00
 fff6d42:	100e                	.2byte	0x100e
 fff6d44:	814c                	.2byte	0x814c
 fff6d46:	4801                	.2byte	0x4801
 fff6d48:	4cc1                	.2byte	0x4cc1
 fff6d4a:	000e                	.2byte	0xe
 fff6d4c:	0018                	.2byte	0x18
 fff6d4e:	0000                	.2byte	0x0
 fff6d50:	0ae4                	.2byte	0xae4
 fff6d52:	0000                	.2byte	0x0
 fff6d54:	d568                	.2byte	0xd568
 fff6d56:	ffff                	.2byte	0xffff
 fff6d58:	0040                	.2byte	0x40
 fff6d5a:	0000                	.2byte	0x0
 fff6d5c:	5c00                	.2byte	0x5c00
 fff6d5e:	100e                	.2byte	0x100e
 fff6d60:	814c                	.2byte	0x814c
 fff6d62:	4801                	.2byte	0x4801
 fff6d64:	4cc1                	.2byte	0x4cc1
 fff6d66:	000e                	.2byte	0xe
 fff6d68:	0010                	.2byte	0x10
 fff6d6a:	0000                	.2byte	0x0
 fff6d6c:	0b00                	.2byte	0xb00
 fff6d6e:	0000                	.2byte	0x0
 fff6d70:	d58c                	.2byte	0xd58c
 fff6d72:	ffff                	.2byte	0xffff
 fff6d74:	0010                	.2byte	0x10
 fff6d76:	0000                	.2byte	0x0
 fff6d78:	0000                	.2byte	0x0
	...

Disassembly of section .data:

0fff6d80 <FRtoString>:
 fff6d80:	58bc                	.2byte	0x58bc
 fff6d82:	0fff                	.2byte	0xfff
 fff6d84:	58c8                	.2byte	0x58c8
 fff6d86:	0fff                	.2byte	0xfff
 fff6d88:	5900                	.2byte	0x5900
 fff6d8a:	0fff                	.2byte	0xfff
 fff6d8c:	5914                	.2byte	0x5914
 fff6d8e:	0fff                	.2byte	0xfff
 fff6d90:	5934                	.2byte	0x5934
 fff6d92:	0fff                	.2byte	0xfff
 fff6d94:	5950                	.2byte	0x5950
 fff6d96:	0fff                	.2byte	0xfff
 fff6d98:	596c                	.2byte	0x596c
 fff6d9a:	0fff                	.2byte	0xfff
 fff6d9c:	5990                	.2byte	0x5990
 fff6d9e:	0fff                	.2byte	0xfff
 fff6da0:	59cc                	.2byte	0x59cc
 fff6da2:	0fff                	.2byte	0xfff
 fff6da4:	59f4                	.2byte	0x59f4
 fff6da6:	0fff                	.2byte	0xfff
 fff6da8:	5a1c                	.2byte	0x5a1c
 fff6daa:	0fff                	.2byte	0xfff
 fff6dac:	5a44                	.2byte	0x5a44
 fff6dae:	0fff                	.2byte	0xfff
 fff6db0:	5a6c                	.2byte	0x5a6c
 fff6db2:	0fff                	.2byte	0xfff
 fff6db4:	5a8c                	.2byte	0x5a8c
 fff6db6:	0fff                	.2byte	0xfff
 fff6db8:	5aac                	.2byte	0x5aac
 fff6dba:	0fff                	.2byte	0xfff
 fff6dbc:	5ad8                	.2byte	0x5ad8
 fff6dbe:	0fff                	.2byte	0xfff
 fff6dc0:	5b1c                	.2byte	0x5b1c
 fff6dc2:	0fff                	.2byte	0xfff
 fff6dc4:	5b5c                	.2byte	0x5b5c
 fff6dc6:	0fff                	.2byte	0xfff
 fff6dc8:	5b88                	.2byte	0x5b88
 fff6dca:	0fff                	.2byte	0xfff
 fff6dcc:	5bac                	.2byte	0x5bac
 fff6dce:	0fff                	.2byte	0xfff

0fff6dd0 <_ZL10currentdir>:
 fff6dd0:	5c3a6473          	csrrsi	s0,0x5c3,20
	...

0fff6fd0 <IO_UARTStatus>:
 fff6fd0:	0008                	.2byte	0x8
 fff6fd2:	8000                	.2byte	0x8000

0fff6fd4 <IO_UARTTX>:
 fff6fd4:	0004                	.2byte	0x4
 fff6fd6:	8000                	.2byte	0x8000

0fff6fd8 <IO_UARTRX>:
 fff6fd8:	0000                	.2byte	0x0
 fff6fda:	8000                	.2byte	0x8000

0fff6fdc <_ZL10heap_start>:
 fff6fdc:	0000                	.2byte	0x0
 fff6fde:	0200                	.2byte	0x200

0fff6fe0 <LEDSTATE>:
 fff6fe0:	1000                	.2byte	0x1000
 fff6fe2:	8000                	.2byte	0x8000

0fff6fe4 <m_writeOffset>:
 fff6fe4:	03fc                	.2byte	0x3fc
	...

0fff6fe8 <m_readOffset>:
 fff6fe8:	03f8                	.2byte	0x3f8
	...

0fff6fec <IO_SPIRXTX>:
 fff6fec:	3000                	.2byte	0x3000
 fff6fee:	8000                	.2byte	0x8000

0fff6ff0 <_ZL9VolumeStr>:
 fff6ff0:	5e8c                	.2byte	0x5e8c
 fff6ff2:	0fff                	.2byte	0xfff
 fff6ff4:	5e90                	.2byte	0x5e90
 fff6ff6:	0fff                	.2byte	0xfff
 fff6ff8:	5e94                	.2byte	0x5e94
 fff6ffa:	0fff                	.2byte	0xfff
 fff6ffc:	0000                	.2byte	0x0
	...

0fff7000 <impure_data>:
 fff7000:	0000                	.2byte	0x0
 fff7002:	0000                	.2byte	0x0
 fff7004:	72ec                	.2byte	0x72ec
 fff7006:	0fff                	.2byte	0xfff
 fff7008:	7354                	.2byte	0x7354
 fff700a:	0fff                	.2byte	0xfff
 fff700c:	73bc                	.2byte	0x73bc
 fff700e:	0fff                	.2byte	0xfff
	...
 fff70a8:	0001                	.2byte	0x1
 fff70aa:	0000                	.2byte	0x0
 fff70ac:	0000                	.2byte	0x0
 fff70ae:	0000                	.2byte	0x0
 fff70b0:	330e                	.2byte	0x330e
 fff70b2:	abcd                	.2byte	0xabcd
 fff70b4:	1234                	.2byte	0x1234
 fff70b6:	e66d                	.2byte	0xe66d
 fff70b8:	deec                	.2byte	0xdeec
 fff70ba:	0005                	.2byte	0x5
 fff70bc:	0000000b          	.4byte	0xb
	...

0fff7428 <__malloc_av_>:
	...
 fff7430:	7428                	.2byte	0x7428
 fff7432:	0fff                	.2byte	0xfff
 fff7434:	7428                	.2byte	0x7428
 fff7436:	0fff                	.2byte	0xfff
 fff7438:	7430                	.2byte	0x7430
 fff743a:	0fff                	.2byte	0xfff
 fff743c:	7430                	.2byte	0x7430
 fff743e:	0fff                	.2byte	0xfff
 fff7440:	7438                	.2byte	0x7438
 fff7442:	0fff                	.2byte	0xfff
 fff7444:	7438                	.2byte	0x7438
 fff7446:	0fff                	.2byte	0xfff
 fff7448:	7440                	.2byte	0x7440
 fff744a:	0fff                	.2byte	0xfff
 fff744c:	7440                	.2byte	0x7440
 fff744e:	0fff                	.2byte	0xfff
 fff7450:	7448                	.2byte	0x7448
 fff7452:	0fff                	.2byte	0xfff
 fff7454:	7448                	.2byte	0x7448
 fff7456:	0fff                	.2byte	0xfff
 fff7458:	7450                	.2byte	0x7450
 fff745a:	0fff                	.2byte	0xfff
 fff745c:	7450                	.2byte	0x7450
 fff745e:	0fff                	.2byte	0xfff
 fff7460:	7458                	.2byte	0x7458
 fff7462:	0fff                	.2byte	0xfff
 fff7464:	7458                	.2byte	0x7458
 fff7466:	0fff                	.2byte	0xfff
 fff7468:	7460                	.2byte	0x7460
 fff746a:	0fff                	.2byte	0xfff
 fff746c:	7460                	.2byte	0x7460
 fff746e:	0fff                	.2byte	0xfff
 fff7470:	7468                	.2byte	0x7468
 fff7472:	0fff                	.2byte	0xfff
 fff7474:	7468                	.2byte	0x7468
 fff7476:	0fff                	.2byte	0xfff
 fff7478:	7470                	.2byte	0x7470
 fff747a:	0fff                	.2byte	0xfff
 fff747c:	7470                	.2byte	0x7470
 fff747e:	0fff                	.2byte	0xfff
 fff7480:	7478                	.2byte	0x7478
 fff7482:	0fff                	.2byte	0xfff
 fff7484:	7478                	.2byte	0x7478
 fff7486:	0fff                	.2byte	0xfff
 fff7488:	7480                	.2byte	0x7480
 fff748a:	0fff                	.2byte	0xfff
 fff748c:	7480                	.2byte	0x7480
 fff748e:	0fff                	.2byte	0xfff
 fff7490:	7488                	.2byte	0x7488
 fff7492:	0fff                	.2byte	0xfff
 fff7494:	7488                	.2byte	0x7488
 fff7496:	0fff                	.2byte	0xfff
 fff7498:	7490                	.2byte	0x7490
 fff749a:	0fff                	.2byte	0xfff
 fff749c:	7490                	.2byte	0x7490
 fff749e:	0fff                	.2byte	0xfff
 fff74a0:	7498                	.2byte	0x7498
 fff74a2:	0fff                	.2byte	0xfff
 fff74a4:	7498                	.2byte	0x7498
 fff74a6:	0fff                	.2byte	0xfff
 fff74a8:	74a0                	.2byte	0x74a0
 fff74aa:	0fff                	.2byte	0xfff
 fff74ac:	74a0                	.2byte	0x74a0
 fff74ae:	0fff                	.2byte	0xfff
 fff74b0:	74a8                	.2byte	0x74a8
 fff74b2:	0fff                	.2byte	0xfff
 fff74b4:	74a8                	.2byte	0x74a8
 fff74b6:	0fff                	.2byte	0xfff
 fff74b8:	74b0                	.2byte	0x74b0
 fff74ba:	0fff                	.2byte	0xfff
 fff74bc:	74b0                	.2byte	0x74b0
 fff74be:	0fff                	.2byte	0xfff
 fff74c0:	74b8                	.2byte	0x74b8
 fff74c2:	0fff                	.2byte	0xfff
 fff74c4:	74b8                	.2byte	0x74b8
 fff74c6:	0fff                	.2byte	0xfff
 fff74c8:	74c0                	.2byte	0x74c0
 fff74ca:	0fff                	.2byte	0xfff
 fff74cc:	74c0                	.2byte	0x74c0
 fff74ce:	0fff                	.2byte	0xfff
 fff74d0:	74c8                	.2byte	0x74c8
 fff74d2:	0fff                	.2byte	0xfff
 fff74d4:	74c8                	.2byte	0x74c8
 fff74d6:	0fff                	.2byte	0xfff
 fff74d8:	74d0                	.2byte	0x74d0
 fff74da:	0fff                	.2byte	0xfff
 fff74dc:	74d0                	.2byte	0x74d0
 fff74de:	0fff                	.2byte	0xfff
 fff74e0:	74d8                	.2byte	0x74d8
 fff74e2:	0fff                	.2byte	0xfff
 fff74e4:	74d8                	.2byte	0x74d8
 fff74e6:	0fff                	.2byte	0xfff
 fff74e8:	74e0                	.2byte	0x74e0
 fff74ea:	0fff                	.2byte	0xfff
 fff74ec:	74e0                	.2byte	0x74e0
 fff74ee:	0fff                	.2byte	0xfff
 fff74f0:	74e8                	.2byte	0x74e8
 fff74f2:	0fff                	.2byte	0xfff
 fff74f4:	74e8                	.2byte	0x74e8
 fff74f6:	0fff                	.2byte	0xfff
 fff74f8:	74f0                	.2byte	0x74f0
 fff74fa:	0fff                	.2byte	0xfff
 fff74fc:	74f0                	.2byte	0x74f0
 fff74fe:	0fff                	.2byte	0xfff
 fff7500:	74f8                	.2byte	0x74f8
 fff7502:	0fff                	.2byte	0xfff
 fff7504:	74f8                	.2byte	0x74f8
 fff7506:	0fff                	.2byte	0xfff
 fff7508:	7500                	.2byte	0x7500
 fff750a:	0fff                	.2byte	0xfff
 fff750c:	7500                	.2byte	0x7500
 fff750e:	0fff                	.2byte	0xfff
 fff7510:	7508                	.2byte	0x7508
 fff7512:	0fff                	.2byte	0xfff
 fff7514:	7508                	.2byte	0x7508
 fff7516:	0fff                	.2byte	0xfff
 fff7518:	7510                	.2byte	0x7510
 fff751a:	0fff                	.2byte	0xfff
 fff751c:	7510                	.2byte	0x7510
 fff751e:	0fff                	.2byte	0xfff
 fff7520:	7518                	.2byte	0x7518
 fff7522:	0fff                	.2byte	0xfff
 fff7524:	7518                	.2byte	0x7518
 fff7526:	0fff                	.2byte	0xfff
 fff7528:	7520                	.2byte	0x7520
 fff752a:	0fff                	.2byte	0xfff
 fff752c:	7520                	.2byte	0x7520
 fff752e:	0fff                	.2byte	0xfff
 fff7530:	7528                	.2byte	0x7528
 fff7532:	0fff                	.2byte	0xfff
 fff7534:	7528                	.2byte	0x7528
 fff7536:	0fff                	.2byte	0xfff
 fff7538:	7530                	.2byte	0x7530
 fff753a:	0fff                	.2byte	0xfff
 fff753c:	7530                	.2byte	0x7530
 fff753e:	0fff                	.2byte	0xfff
 fff7540:	7538                	.2byte	0x7538
 fff7542:	0fff                	.2byte	0xfff
 fff7544:	7538                	.2byte	0x7538
 fff7546:	0fff                	.2byte	0xfff
 fff7548:	7540                	.2byte	0x7540
 fff754a:	0fff                	.2byte	0xfff
 fff754c:	7540                	.2byte	0x7540
 fff754e:	0fff                	.2byte	0xfff
 fff7550:	7548                	.2byte	0x7548
 fff7552:	0fff                	.2byte	0xfff
 fff7554:	7548                	.2byte	0x7548
 fff7556:	0fff                	.2byte	0xfff
 fff7558:	7550                	.2byte	0x7550
 fff755a:	0fff                	.2byte	0xfff
 fff755c:	7550                	.2byte	0x7550
 fff755e:	0fff                	.2byte	0xfff
 fff7560:	7558                	.2byte	0x7558
 fff7562:	0fff                	.2byte	0xfff
 fff7564:	7558                	.2byte	0x7558
 fff7566:	0fff                	.2byte	0xfff
 fff7568:	7560                	.2byte	0x7560
 fff756a:	0fff                	.2byte	0xfff
 fff756c:	7560                	.2byte	0x7560
 fff756e:	0fff                	.2byte	0xfff
 fff7570:	7568                	.2byte	0x7568
 fff7572:	0fff                	.2byte	0xfff
 fff7574:	7568                	.2byte	0x7568
 fff7576:	0fff                	.2byte	0xfff
 fff7578:	7570                	.2byte	0x7570
 fff757a:	0fff                	.2byte	0xfff
 fff757c:	7570                	.2byte	0x7570
 fff757e:	0fff                	.2byte	0xfff
 fff7580:	7578                	.2byte	0x7578
 fff7582:	0fff                	.2byte	0xfff
 fff7584:	7578                	.2byte	0x7578
 fff7586:	0fff                	.2byte	0xfff
 fff7588:	7580                	.2byte	0x7580
 fff758a:	0fff                	.2byte	0xfff
 fff758c:	7580                	.2byte	0x7580
 fff758e:	0fff                	.2byte	0xfff
 fff7590:	7588                	.2byte	0x7588
 fff7592:	0fff                	.2byte	0xfff
 fff7594:	7588                	.2byte	0x7588
 fff7596:	0fff                	.2byte	0xfff
 fff7598:	7590                	.2byte	0x7590
 fff759a:	0fff                	.2byte	0xfff
 fff759c:	7590                	.2byte	0x7590
 fff759e:	0fff                	.2byte	0xfff
 fff75a0:	7598                	.2byte	0x7598
 fff75a2:	0fff                	.2byte	0xfff
 fff75a4:	7598                	.2byte	0x7598
 fff75a6:	0fff                	.2byte	0xfff
 fff75a8:	75a0                	.2byte	0x75a0
 fff75aa:	0fff                	.2byte	0xfff
 fff75ac:	75a0                	.2byte	0x75a0
 fff75ae:	0fff                	.2byte	0xfff
 fff75b0:	75a8                	.2byte	0x75a8
 fff75b2:	0fff                	.2byte	0xfff
 fff75b4:	75a8                	.2byte	0x75a8
 fff75b6:	0fff                	.2byte	0xfff
 fff75b8:	75b0                	.2byte	0x75b0
 fff75ba:	0fff                	.2byte	0xfff
 fff75bc:	75b0                	.2byte	0x75b0
 fff75be:	0fff                	.2byte	0xfff
 fff75c0:	75b8                	.2byte	0x75b8
 fff75c2:	0fff                	.2byte	0xfff
 fff75c4:	75b8                	.2byte	0x75b8
 fff75c6:	0fff                	.2byte	0xfff
 fff75c8:	75c0                	.2byte	0x75c0
 fff75ca:	0fff                	.2byte	0xfff
 fff75cc:	75c0                	.2byte	0x75c0
 fff75ce:	0fff                	.2byte	0xfff
 fff75d0:	75c8                	.2byte	0x75c8
 fff75d2:	0fff                	.2byte	0xfff
 fff75d4:	75c8                	.2byte	0x75c8
 fff75d6:	0fff                	.2byte	0xfff
 fff75d8:	75d0                	.2byte	0x75d0
 fff75da:	0fff                	.2byte	0xfff
 fff75dc:	75d0                	.2byte	0x75d0
 fff75de:	0fff                	.2byte	0xfff
 fff75e0:	75d8                	.2byte	0x75d8
 fff75e2:	0fff                	.2byte	0xfff
 fff75e4:	75d8                	.2byte	0x75d8
 fff75e6:	0fff                	.2byte	0xfff
 fff75e8:	75e0                	.2byte	0x75e0
 fff75ea:	0fff                	.2byte	0xfff
 fff75ec:	75e0                	.2byte	0x75e0
 fff75ee:	0fff                	.2byte	0xfff
 fff75f0:	75e8                	.2byte	0x75e8
 fff75f2:	0fff                	.2byte	0xfff
 fff75f4:	75e8                	.2byte	0x75e8
 fff75f6:	0fff                	.2byte	0xfff
 fff75f8:	75f0                	.2byte	0x75f0
 fff75fa:	0fff                	.2byte	0xfff
 fff75fc:	75f0                	.2byte	0x75f0
 fff75fe:	0fff                	.2byte	0xfff
 fff7600:	75f8                	.2byte	0x75f8
 fff7602:	0fff                	.2byte	0xfff
 fff7604:	75f8                	.2byte	0x75f8
 fff7606:	0fff                	.2byte	0xfff
 fff7608:	7600                	.2byte	0x7600
 fff760a:	0fff                	.2byte	0xfff
 fff760c:	7600                	.2byte	0x7600
 fff760e:	0fff                	.2byte	0xfff
 fff7610:	7608                	.2byte	0x7608
 fff7612:	0fff                	.2byte	0xfff
 fff7614:	7608                	.2byte	0x7608
 fff7616:	0fff                	.2byte	0xfff
 fff7618:	7610                	.2byte	0x7610
 fff761a:	0fff                	.2byte	0xfff
 fff761c:	7610                	.2byte	0x7610
 fff761e:	0fff                	.2byte	0xfff
 fff7620:	7618                	.2byte	0x7618
 fff7622:	0fff                	.2byte	0xfff
 fff7624:	7618                	.2byte	0x7618
 fff7626:	0fff                	.2byte	0xfff
 fff7628:	7620                	.2byte	0x7620
 fff762a:	0fff                	.2byte	0xfff
 fff762c:	7620                	.2byte	0x7620
 fff762e:	0fff                	.2byte	0xfff
 fff7630:	7628                	.2byte	0x7628
 fff7632:	0fff                	.2byte	0xfff
 fff7634:	7628                	.2byte	0x7628
 fff7636:	0fff                	.2byte	0xfff
 fff7638:	7630                	.2byte	0x7630
 fff763a:	0fff                	.2byte	0xfff
 fff763c:	7630                	.2byte	0x7630
 fff763e:	0fff                	.2byte	0xfff
 fff7640:	7638                	.2byte	0x7638
 fff7642:	0fff                	.2byte	0xfff
 fff7644:	7638                	.2byte	0x7638
 fff7646:	0fff                	.2byte	0xfff
 fff7648:	7640                	.2byte	0x7640
 fff764a:	0fff                	.2byte	0xfff
 fff764c:	7640                	.2byte	0x7640
 fff764e:	0fff                	.2byte	0xfff
 fff7650:	7648                	.2byte	0x7648
 fff7652:	0fff                	.2byte	0xfff
 fff7654:	7648                	.2byte	0x7648
 fff7656:	0fff                	.2byte	0xfff
 fff7658:	7650                	.2byte	0x7650
 fff765a:	0fff                	.2byte	0xfff
 fff765c:	7650                	.2byte	0x7650
 fff765e:	0fff                	.2byte	0xfff
 fff7660:	7658                	.2byte	0x7658
 fff7662:	0fff                	.2byte	0xfff
 fff7664:	7658                	.2byte	0x7658
 fff7666:	0fff                	.2byte	0xfff
 fff7668:	7660                	.2byte	0x7660
 fff766a:	0fff                	.2byte	0xfff
 fff766c:	7660                	.2byte	0x7660
 fff766e:	0fff                	.2byte	0xfff
 fff7670:	7668                	.2byte	0x7668
 fff7672:	0fff                	.2byte	0xfff
 fff7674:	7668                	.2byte	0x7668
 fff7676:	0fff                	.2byte	0xfff
 fff7678:	7670                	.2byte	0x7670
 fff767a:	0fff                	.2byte	0xfff
 fff767c:	7670                	.2byte	0x7670
 fff767e:	0fff                	.2byte	0xfff
 fff7680:	7678                	.2byte	0x7678
 fff7682:	0fff                	.2byte	0xfff
 fff7684:	7678                	.2byte	0x7678
 fff7686:	0fff                	.2byte	0xfff
 fff7688:	7680                	.2byte	0x7680
 fff768a:	0fff                	.2byte	0xfff
 fff768c:	7680                	.2byte	0x7680
 fff768e:	0fff                	.2byte	0xfff
 fff7690:	7688                	.2byte	0x7688
 fff7692:	0fff                	.2byte	0xfff
 fff7694:	7688                	.2byte	0x7688
 fff7696:	0fff                	.2byte	0xfff
 fff7698:	7690                	.2byte	0x7690
 fff769a:	0fff                	.2byte	0xfff
 fff769c:	7690                	.2byte	0x7690
 fff769e:	0fff                	.2byte	0xfff
 fff76a0:	7698                	.2byte	0x7698
 fff76a2:	0fff                	.2byte	0xfff
 fff76a4:	7698                	.2byte	0x7698
 fff76a6:	0fff                	.2byte	0xfff
 fff76a8:	76a0                	.2byte	0x76a0
 fff76aa:	0fff                	.2byte	0xfff
 fff76ac:	76a0                	.2byte	0x76a0
 fff76ae:	0fff                	.2byte	0xfff
 fff76b0:	76a8                	.2byte	0x76a8
 fff76b2:	0fff                	.2byte	0xfff
 fff76b4:	76a8                	.2byte	0x76a8
 fff76b6:	0fff                	.2byte	0xfff
 fff76b8:	76b0                	.2byte	0x76b0
 fff76ba:	0fff                	.2byte	0xfff
 fff76bc:	76b0                	.2byte	0x76b0
 fff76be:	0fff                	.2byte	0xfff
 fff76c0:	76b8                	.2byte	0x76b8
 fff76c2:	0fff                	.2byte	0xfff
 fff76c4:	76b8                	.2byte	0x76b8
 fff76c6:	0fff                	.2byte	0xfff
 fff76c8:	76c0                	.2byte	0x76c0
 fff76ca:	0fff                	.2byte	0xfff
 fff76cc:	76c0                	.2byte	0x76c0
 fff76ce:	0fff                	.2byte	0xfff
 fff76d0:	76c8                	.2byte	0x76c8
 fff76d2:	0fff                	.2byte	0xfff
 fff76d4:	76c8                	.2byte	0x76c8
 fff76d6:	0fff                	.2byte	0xfff
 fff76d8:	76d0                	.2byte	0x76d0
 fff76da:	0fff                	.2byte	0xfff
 fff76dc:	76d0                	.2byte	0x76d0
 fff76de:	0fff                	.2byte	0xfff
 fff76e0:	76d8                	.2byte	0x76d8
 fff76e2:	0fff                	.2byte	0xfff
 fff76e4:	76d8                	.2byte	0x76d8
 fff76e6:	0fff                	.2byte	0xfff
 fff76e8:	76e0                	.2byte	0x76e0
 fff76ea:	0fff                	.2byte	0xfff
 fff76ec:	76e0                	.2byte	0x76e0
 fff76ee:	0fff                	.2byte	0xfff
 fff76f0:	76e8                	.2byte	0x76e8
 fff76f2:	0fff                	.2byte	0xfff
 fff76f4:	76e8                	.2byte	0x76e8
 fff76f6:	0fff                	.2byte	0xfff
 fff76f8:	76f0                	.2byte	0x76f0
 fff76fa:	0fff                	.2byte	0xfff
 fff76fc:	76f0                	.2byte	0x76f0
 fff76fe:	0fff                	.2byte	0xfff
 fff7700:	76f8                	.2byte	0x76f8
 fff7702:	0fff                	.2byte	0xfff
 fff7704:	76f8                	.2byte	0x76f8
 fff7706:	0fff                	.2byte	0xfff
 fff7708:	7700                	.2byte	0x7700
 fff770a:	0fff                	.2byte	0xfff
 fff770c:	7700                	.2byte	0x7700
 fff770e:	0fff                	.2byte	0xfff
 fff7710:	7708                	.2byte	0x7708
 fff7712:	0fff                	.2byte	0xfff
 fff7714:	7708                	.2byte	0x7708
 fff7716:	0fff                	.2byte	0xfff
 fff7718:	7710                	.2byte	0x7710
 fff771a:	0fff                	.2byte	0xfff
 fff771c:	7710                	.2byte	0x7710
 fff771e:	0fff                	.2byte	0xfff
 fff7720:	7718                	.2byte	0x7718
 fff7722:	0fff                	.2byte	0xfff
 fff7724:	7718                	.2byte	0x7718
 fff7726:	0fff                	.2byte	0xfff
 fff7728:	7720                	.2byte	0x7720
 fff772a:	0fff                	.2byte	0xfff
 fff772c:	7720                	.2byte	0x7720
 fff772e:	0fff                	.2byte	0xfff
 fff7730:	7728                	.2byte	0x7728
 fff7732:	0fff                	.2byte	0xfff
 fff7734:	7728                	.2byte	0x7728
 fff7736:	0fff                	.2byte	0xfff
 fff7738:	7730                	.2byte	0x7730
 fff773a:	0fff                	.2byte	0xfff
 fff773c:	7730                	.2byte	0x7730
 fff773e:	0fff                	.2byte	0xfff
 fff7740:	7738                	.2byte	0x7738
 fff7742:	0fff                	.2byte	0xfff
 fff7744:	7738                	.2byte	0x7738
 fff7746:	0fff                	.2byte	0xfff
 fff7748:	7740                	.2byte	0x7740
 fff774a:	0fff                	.2byte	0xfff
 fff774c:	7740                	.2byte	0x7740
 fff774e:	0fff                	.2byte	0xfff
 fff7750:	7748                	.2byte	0x7748
 fff7752:	0fff                	.2byte	0xfff
 fff7754:	7748                	.2byte	0x7748
 fff7756:	0fff                	.2byte	0xfff
 fff7758:	7750                	.2byte	0x7750
 fff775a:	0fff                	.2byte	0xfff
 fff775c:	7750                	.2byte	0x7750
 fff775e:	0fff                	.2byte	0xfff
 fff7760:	7758                	.2byte	0x7758
 fff7762:	0fff                	.2byte	0xfff
 fff7764:	7758                	.2byte	0x7758
 fff7766:	0fff                	.2byte	0xfff
 fff7768:	7760                	.2byte	0x7760
 fff776a:	0fff                	.2byte	0xfff
 fff776c:	7760                	.2byte	0x7760
 fff776e:	0fff                	.2byte	0xfff
 fff7770:	7768                	.2byte	0x7768
 fff7772:	0fff                	.2byte	0xfff
 fff7774:	7768                	.2byte	0x7768
 fff7776:	0fff                	.2byte	0xfff
 fff7778:	7770                	.2byte	0x7770
 fff777a:	0fff                	.2byte	0xfff
 fff777c:	7770                	.2byte	0x7770
 fff777e:	0fff                	.2byte	0xfff
 fff7780:	7778                	.2byte	0x7778
 fff7782:	0fff                	.2byte	0xfff
 fff7784:	7778                	.2byte	0x7778
 fff7786:	0fff                	.2byte	0xfff
 fff7788:	7780                	.2byte	0x7780
 fff778a:	0fff                	.2byte	0xfff
 fff778c:	7780                	.2byte	0x7780
 fff778e:	0fff                	.2byte	0xfff
 fff7790:	7788                	.2byte	0x7788
 fff7792:	0fff                	.2byte	0xfff
 fff7794:	7788                	.2byte	0x7788
 fff7796:	0fff                	.2byte	0xfff
 fff7798:	7790                	.2byte	0x7790
 fff779a:	0fff                	.2byte	0xfff
 fff779c:	7790                	.2byte	0x7790
 fff779e:	0fff                	.2byte	0xfff
 fff77a0:	7798                	.2byte	0x7798
 fff77a2:	0fff                	.2byte	0xfff
 fff77a4:	7798                	.2byte	0x7798
 fff77a6:	0fff                	.2byte	0xfff
 fff77a8:	77a0                	.2byte	0x77a0
 fff77aa:	0fff                	.2byte	0xfff
 fff77ac:	77a0                	.2byte	0x77a0
 fff77ae:	0fff                	.2byte	0xfff
 fff77b0:	77a8                	.2byte	0x77a8
 fff77b2:	0fff                	.2byte	0xfff
 fff77b4:	77a8                	.2byte	0x77a8
 fff77b6:	0fff                	.2byte	0xfff
 fff77b8:	77b0                	.2byte	0x77b0
 fff77ba:	0fff                	.2byte	0xfff
 fff77bc:	77b0                	.2byte	0x77b0
 fff77be:	0fff                	.2byte	0xfff
 fff77c0:	77b8                	.2byte	0x77b8
 fff77c2:	0fff                	.2byte	0xfff
 fff77c4:	77b8                	.2byte	0x77b8
 fff77c6:	0fff                	.2byte	0xfff
 fff77c8:	77c0                	.2byte	0x77c0
 fff77ca:	0fff                	.2byte	0xfff
 fff77cc:	77c0                	.2byte	0x77c0
 fff77ce:	0fff                	.2byte	0xfff
 fff77d0:	77c8                	.2byte	0x77c8
 fff77d2:	0fff                	.2byte	0xfff
 fff77d4:	77c8                	.2byte	0x77c8
 fff77d6:	0fff                	.2byte	0xfff
 fff77d8:	77d0                	.2byte	0x77d0
 fff77da:	0fff                	.2byte	0xfff
 fff77dc:	77d0                	.2byte	0x77d0
 fff77de:	0fff                	.2byte	0xfff
 fff77e0:	77d8                	.2byte	0x77d8
 fff77e2:	0fff                	.2byte	0xfff
 fff77e4:	77d8                	.2byte	0x77d8
 fff77e6:	0fff                	.2byte	0xfff
 fff77e8:	77e0                	.2byte	0x77e0
 fff77ea:	0fff                	.2byte	0xfff
 fff77ec:	77e0                	.2byte	0x77e0
 fff77ee:	0fff                	.2byte	0xfff
 fff77f0:	77e8                	.2byte	0x77e8
 fff77f2:	0fff                	.2byte	0xfff
 fff77f4:	77e8                	.2byte	0x77e8
 fff77f6:	0fff                	.2byte	0xfff
 fff77f8:	77f0                	.2byte	0x77f0
 fff77fa:	0fff                	.2byte	0xfff
 fff77fc:	77f0                	.2byte	0x77f0
 fff77fe:	0fff                	.2byte	0xfff
 fff7800:	77f8                	.2byte	0x77f8
 fff7802:	0fff                	.2byte	0xfff
 fff7804:	77f8                	.2byte	0x77f8
 fff7806:	0fff                	.2byte	0xfff
 fff7808:	7800                	.2byte	0x7800
 fff780a:	0fff                	.2byte	0xfff
 fff780c:	7800                	.2byte	0x7800
 fff780e:	0fff                	.2byte	0xfff
 fff7810:	7808                	.2byte	0x7808
 fff7812:	0fff                	.2byte	0xfff
 fff7814:	7808                	.2byte	0x7808
 fff7816:	0fff                	.2byte	0xfff
 fff7818:	7810                	.2byte	0x7810
 fff781a:	0fff                	.2byte	0xfff
 fff781c:	7810                	.2byte	0x7810
 fff781e:	0fff                	.2byte	0xfff
 fff7820:	7818                	.2byte	0x7818
 fff7822:	0fff                	.2byte	0xfff
 fff7824:	7818                	.2byte	0x7818
 fff7826:	0fff                	.2byte	0xfff
 fff7828:	7820                	.2byte	0x7820
 fff782a:	0fff                	.2byte	0xfff
 fff782c:	7820                	.2byte	0x7820
 fff782e:	0fff                	.2byte	0xfff

Disassembly of section .got:

0fff7830 <_GLOBAL_OFFSET_TABLE_>:
 fff7830:	0000                	.2byte	0x0
 fff7832:	0000                	.2byte	0x0
 fff7834:	6fd8                	.2byte	0x6fd8
 fff7836:	0fff                	.2byte	0xfff
 fff7838:	6fe0                	.2byte	0x6fe0
 fff783a:	0fff                	.2byte	0xfff
 fff783c:	6fe4                	.2byte	0x6fe4
 fff783e:	0fff                	.2byte	0xfff
 fff7840:	4320                	.2byte	0x4320
 fff7842:	0fff                	.2byte	0xfff
 fff7844:	04e8                	.2byte	0x4e8
 fff7846:	0fff                	.2byte	0xfff
 fff7848:	6fec                	.2byte	0x6fec
 fff784a:	0fff                	.2byte	0xfff
 fff784c:	04f0                	.2byte	0x4f0
 fff784e:	0fff                	.2byte	0xfff
 fff7850:	788c                	.2byte	0x788c
 fff7852:	0fff                	.2byte	0xfff
 fff7854:	430c                	.2byte	0x430c
 fff7856:	0fff                	.2byte	0xfff
 fff7858:	6fd4                	.2byte	0x6fd4
 fff785a:	0fff                	.2byte	0xfff
 fff785c:	8d68                	.2byte	0x8d68
 fff785e:	0fff                	.2byte	0xfff
 fff7860:	6fe8                	.2byte	0x6fe8
 fff7862:	0fff                	.2byte	0xfff
 fff7864:	6fd0                	.2byte	0x6fd0
 fff7866:	0fff                	.2byte	0xfff
 fff7868:	01c0                	.2byte	0x1c0
 fff786a:	0fff                	.2byte	0xfff
 fff786c:	6d80                	.2byte	0x6d80
 fff786e:	0fff                	.2byte	0xfff
 fff7870:	8b28                	.2byte	0x8b28
 fff7872:	0fff                	.2byte	0xfff

Disassembly of section .got.plt:

0fff7874 <.got.plt>:
 fff7874:	ffff                	.2byte	0xffff
 fff7876:	ffff                	.2byte	0xffff
 fff7878:	0000                	.2byte	0x0
	...

Disassembly of section .sdata:

0fff787c <_impure_ptr>:
 fff787c:	7000                	.2byte	0x7000
 fff787e:	0fff                	.2byte	0xfff

0fff7880 <__malloc_sbrk_base>:
 fff7880:	ffff                	.2byte	0xffff
 fff7882:	ffff                	.2byte	0xffff

0fff7884 <__malloc_trim_threshold>:
 fff7884:	0000                	.2byte	0x0
 fff7886:	0002                	.2byte	0x2

0fff7888 <_global_impure_ptr>:
 fff7888:	7000                	.2byte	0x7000
 fff788a:	0fff                	.2byte	0xfff

Disassembly of section .sbss:

0fff788c <__malloc_max_total_mem>:
 fff788c:	0000                	.2byte	0x0
	...

0fff7890 <__malloc_max_sbrked_mem>:
 fff7890:	0000                	.2byte	0x0
	...

0fff7894 <__malloc_top_pad>:
 fff7894:	0000                	.2byte	0x0
	...

0fff7898 <errno>:
 fff7898:	0000                	.2byte	0x0
	...

Disassembly of section .bss:

0fff789c <_ZL9g_taskctx>:
	...

0fff8b24 <_ZL14s_startAddress>:
 fff8b24:	0000                	.2byte	0x0
	...

0fff8b28 <Fs>:
 fff8b28:	0000                	.2byte	0x0
	...

0fff8b2c <_ZL9havedrive>:
 fff8b2c:	0000                	.2byte	0x0
	...

0fff8b30 <_ZL6LfnBuf>:
	...

0fff8d30 <_ZL7CurrVol>:
	...

0fff8d32 <_ZL4Fsid>:
	...

0fff8d34 <_ZL5FatFs>:
	...

0fff8d40 <__malloc_current_mallinfo>:
	...

Disassembly of section .comment:

00000000 <.comment>:
   0:	3a434347          	.4byte	0x3a434347
   4:	2820                	.2byte	0x2820
   6:	61653167          	.4byte	0x61653167
   a:	3739                	.2byte	0x3739
   c:	6538                	.2byte	0x6538
   e:	36363033          	.4byte	0x36363033
  12:	2029                	.2byte	0x2029
  14:	3231                	.2byte	0x3231
  16:	312e                	.2byte	0x312e
  18:	302e                	.2byte	0x302e
  1a:	4700                	.2byte	0x4700
  1c:	203a4343          	.4byte	0x203a4343
  20:	4728                	.2byte	0x4728
  22:	554e                	.2byte	0x554e
  24:	2029                	.2byte	0x2029
  26:	3231                	.2byte	0x3231
  28:	312e                	.2byte	0x312e
  2a:	302e                	.2byte	0x302e
	...

Disassembly of section .riscv.attributes:

00000000 <.riscv.attributes>:
   0:	2441                	.2byte	0x2441
   2:	0000                	.2byte	0x0
   4:	7200                	.2byte	0x7200
   6:	7369                	.2byte	0x7369
   8:	01007663          	bgeu	zero,a6,14 <__stack_size-0xec>
   c:	001a                	.2byte	0x1a
   e:	0000                	.2byte	0x0
  10:	1004                	.2byte	0x1004
  12:	7205                	.2byte	0x7205
  14:	3376                	.2byte	0x3376
  16:	6932                	.2byte	0x6932
  18:	7032                	.2byte	0x7032
  1a:	5f30                	.2byte	0x5f30
  1c:	326d                	.2byte	0x326d
  1e:	3070                	.2byte	0x3070
  20:	0800                	.2byte	0x800
  22:	0a01                	.2byte	0xa01
  24:	0b              	Address 0x0000000000000024 is out of bounds.

