
./gputest.elf:     file format elf32-littleriscv
./gputest.elf
architecture: riscv:rv32, flags 0x00000112:
EXEC_P, HAS_SYMS, D_PAGED
start address 0x000101f4

Program Header:
    LOAD off    0x00000000 vaddr 0x00010000 paddr 0x00010000 align 2**12
         filesz 0x0000209c memsz 0x0000209c flags r-x
    LOAD off    0x0000209c vaddr 0x0001309c paddr 0x0001309c align 2**12
         filesz 0x000004e8 memsz 0x00000508 flags rw-

Sections:
Idx Name          Size      VMA       LMA       File off  Algn
  0 .text         000007c8  00010074  00010074  00000074  2**2
                  CONTENTS, ALLOC, LOAD, READONLY, CODE
  1 .rodata       00001860  0001083c  0001083c  0000083c  2**2
                  CONTENTS, ALLOC, LOAD, READONLY, DATA
  2 .eh_frame     00000078  0001309c  0001309c  0000209c  2**2
                  CONTENTS, ALLOC, LOAD, DATA
  3 .init_array   0000000c  00013114  00013114  00002114  2**2
                  CONTENTS, ALLOC, LOAD, DATA
  4 .fini_array   00000004  00013120  00013120  00002120  2**2
                  CONTENTS, ALLOC, LOAD, DATA
  5 .data         00000438  00013128  00013128  00002128  2**3
                  CONTENTS, ALLOC, LOAD, DATA
  6 .got          0000001c  00013560  00013560  00002560  2**2
                  CONTENTS, ALLOC, LOAD, DATA
  7 .sdata        00000008  0001357c  0001357c  0000257c  2**2
                  CONTENTS, ALLOC, LOAD, DATA
  8 .bss          00000020  00013584  00013584  00002584  2**2
                  ALLOC
  9 .comment      00000012  00000000  00000000  00002584  2**0
                  CONTENTS, READONLY
 10 .riscv.attributes 00000020  00000000  00000000  00002596  2**0
                  CONTENTS, READONLY
 11 .debug_aranges 00000020  00000000  00000000  000025b6  2**0
                  CONTENTS, READONLY, DEBUGGING, OCTETS
 12 .debug_info   000009a6  00000000  00000000  000025d6  2**0
                  CONTENTS, READONLY, DEBUGGING, OCTETS
 13 .debug_abbrev 000001be  00000000  00000000  00002f7c  2**0
                  CONTENTS, READONLY, DEBUGGING, OCTETS
 14 .debug_line   00000789  00000000  00000000  0000313a  2**0
                  CONTENTS, READONLY, DEBUGGING, OCTETS
 15 .debug_str    000002ae  00000000  00000000  000038c3  2**0
                  CONTENTS, READONLY, DEBUGGING, OCTETS
 16 .debug_loc    00000b0c  00000000  00000000  00003b71  2**0
                  CONTENTS, READONLY, DEBUGGING, OCTETS
 17 .debug_ranges 00000118  00000000  00000000  0000467d  2**0
                  CONTENTS, READONLY, DEBUGGING, OCTETS
SYMBOL TABLE:
00010074 l    d  .text	00000000 .text
0001083c l    d  .rodata	00000000 .rodata
0001309c l    d  .eh_frame	00000000 .eh_frame
00013114 l    d  .init_array	00000000 .init_array
00013120 l    d  .fini_array	00000000 .fini_array
00013128 l    d  .data	00000000 .data
00013560 l    d  .got	00000000 .got
0001357c l    d  .sdata	00000000 .sdata
00013584 l    d  .bss	00000000 .bss
00000000 l    d  .comment	00000000 .comment
00000000 l    d  .riscv.attributes	00000000 .riscv.attributes
00000000 l    d  .debug_aranges	00000000 .debug_aranges
00000000 l    d  .debug_info	00000000 .debug_info
00000000 l    d  .debug_abbrev	00000000 .debug_abbrev
00000000 l    d  .debug_line	00000000 .debug_line
00000000 l    d  .debug_str	00000000 .debug_str
00000000 l    d  .debug_loc	00000000 .debug_loc
00000000 l    d  .debug_ranges	00000000 .debug_ranges
00000000 l    df *ABS*	00000000 gputest.cpp
00000000 l    df *ABS*	00000000 gpu.cpp
000101c0 l     F .text	0000001c _GLOBAL__sub_I_gpu.cpp
00000000 l    df *ABS*	00000000 __call_atexit.c
000101dc l     F .text	00000018 register_fini
00000000 l    df *ABS*	00000000 crtstuff.c
0001309c l     O .eh_frame	00000000 __EH_FRAME_BEGIN__
00010240 l     F .text	00000000 __do_global_dtors_aux
00013584 l     O .bss	00000001 completed.1
00013120 l     O .fini_array	00000000 __do_global_dtors_aux_fini_array_entry
0001028c l     F .text	00000000 frame_dummy
00013588 l     O .bss	00000018 object.0
00013118 l     O .init_array	00000000 __frame_dummy_init_array_entry
00000000 l    df *ABS*	00000000 uart.cpp
00000000 l    df *ABS*	00000000 errno.c
00000000 l    df *ABS*	00000000 exit.c
00000000 l    df *ABS*	00000000 init.c
00000000 l    df *ABS*	00000000 memcpy.c
00000000 l    df *ABS*	00000000 fini.c
00000000 l    df *ABS*	00000000 atexit.c
00000000 l    df *ABS*	00000000 __atexit.c
00000000 l    df *ABS*	00000000 sys_exit.c
00000000 l    df *ABS*	00000000 sdcard.cpp
00000000 l    df *ABS*	00000000 core.cpp
00000000 l    df *ABS*	00000000 crtstuff.c
00013110 l     O .eh_frame	00000000 __FRAME_END__
00000000 l    df *ABS*	00000000 impure.c
00013138 l     O .data	00000428 impure_data
00000000 l    df *ABS*	00000000 libgcc2.c
00000000 l    df *ABS*	00000000 
00013124 l       .fini_array	00000000 __fini_array_end
00013120 l       .fini_array	00000000 __fini_array_start
00013120 l       .init_array	00000000 __init_array_end
00013114 l       .init_array	00000000 __preinit_array_end
00013568 l     O .got	00000000 _GLOBAL_OFFSET_TABLE_
00013114 l       .init_array	00000000 __init_array_start
00013114 l       .init_array	00000000 __preinit_array_start
00013928 g       *ABS*	00000000 __global_pointer$
00013130 g     O .data	00000004 IO_GPUCommandFIFO
0001312c g     O .data	00000004 GraphicsFontStart
0001030c g     F .text	00000008 __errno
0001357c g       .sdata	00000000 __SDATA_BEGIN__
000135a0 g     O .bss	00000004 font
000103e0 g     F .text	00000128 memcpy
0001357c g     O .sdata	00000004 _global_impure_ptr
00010344 g     F .text	0000009c __libc_init_array
00010704 g     F .text	0000005c __libc_fini_array
000105e4 g     F .text	00000120 __call_exitprocs
000101f4 g     F .text	0000004c _start
00010774 g     F .text	00000098 __register_exitproc
000135a4 g       .bss	00000000 __BSS_END__
00013584 g       .bss	00000000 __bss_start
000102d8 g     F .text	00000034 _Z8InitFontv
00010508 g     F .text	000000dc memset
00010074 g     F .text	0000014c main
00010760 g     F .text	00000014 atexit
00013128 g     O .data	00000004 IO_UARTTX
00013580 g     O .sdata	00000004 _impure_ptr
00013128 g       .data	00000000 __DATA_BEGIN__
000102ac g     F .text	0000002c _Z8EchoUARTPKc
00013584 g       .sdata	00000000 _edata
000135a4 g       .bss	00000000 _end
00010314 g     F .text	00000030 exit
0001080c g     F .text	00000030 _exit



Disassembly of section .text:

00010074 <main>:
   10074:	ff010113          	addi	sp,sp,-16
   10078:	00000517          	auipc	a0,0x0
   1007c:	7c450513          	addi	a0,a0,1988 # 1083c <_exit+0x30>
   10080:	00112623          	sw	ra,12(sp)
   10084:	00812423          	sw	s0,8(sp)
   10088:	00912223          	sw	s1,4(sp)
   1008c:	220000ef          	jal	ra,102ac <_Z8EchoUARTPKc>
   10090:	00000517          	auipc	a0,0x0
   10094:	7b850513          	addi	a0,a0,1976 # 10848 <_exit+0x3c>
   10098:	214000ef          	jal	ra,102ac <_Z8EchoUARTPKc>
   1009c:	00003497          	auipc	s1,0x3
   100a0:	4d04a483          	lw	s1,1232(s1) # 1356c <_GLOBAL_OFFSET_TABLE_+0x4>
   100a4:	0004a783          	lw	a5,0(s1)
   100a8:	00010437          	lui	s0,0x10
   100ac:	00900713          	li	a4,9
   100b0:	00e7a023          	sw	a4,0(a5)
   100b4:	f0140713          	addi	a4,s0,-255 # ff01 <main-0x173>
   100b8:	00e7a023          	sw	a4,0(a5)
   100bc:	01000737          	lui	a4,0x1000
   100c0:	f1970713          	addi	a4,a4,-231 # ffff19 <__global_pointer$+0xfec5f1>
   100c4:	00e7a023          	sw	a4,0(a5)
   100c8:	f1140713          	addi	a4,s0,-239
   100cc:	00e7a023          	sw	a4,0(a5)
   100d0:	10200713          	li	a4,258
   100d4:	00000517          	auipc	a0,0x0
   100d8:	79050513          	addi	a0,a0,1936 # 10864 <_exit+0x58>
   100dc:	00e7a023          	sw	a4,0(a5)
   100e0:	1cc000ef          	jal	ra,102ac <_Z8EchoUARTPKc>
   100e4:	00000517          	auipc	a0,0x0
   100e8:	78850513          	addi	a0,a0,1928 # 1086c <_exit+0x60>
   100ec:	1c0000ef          	jal	ra,102ac <_Z8EchoUARTPKc>
   100f0:	0004a583          	lw	a1,0(s1)
   100f4:	0000f337          	lui	t1,0xf
   100f8:	00000e93          	li	t4,0
   100fc:	fff40513          	addi	a0,s0,-1
   10100:	23530313          	addi	t1,t1,565 # f235 <main-0xe3f>
   10104:	14000e13          	li	t3,320
   10108:	0e000f13          	li	t5,224
   1010c:	005ed793          	srli	a5,t4,0x5
   10110:	00279893          	slli	a7,a5,0x2
   10114:	00f888b3          	add	a7,a7,a5
   10118:	01fef813          	andi	a6,t4,31
   1011c:	00189893          	slli	a7,a7,0x1
   10120:	00581813          	slli	a6,a6,0x5
   10124:	00000613          	li	a2,0
   10128:	00565693          	srli	a3,a2,0x5
   1012c:	011686b3          	add	a3,a3,a7
   10130:	00869f93          	slli	t6,a3,0x8
   10134:	01869713          	slli	a4,a3,0x18
   10138:	01f76733          	or	a4,a4,t6
   1013c:	01f67793          	andi	a5,a2,31
   10140:	00d76733          	or	a4,a4,a3
   10144:	01069693          	slli	a3,a3,0x10
   10148:	00d76733          	or	a4,a4,a3
   1014c:	010787b3          	add	a5,a5,a6
   10150:	f0077693          	andi	a3,a4,-256
   10154:	0027d793          	srli	a5,a5,0x2
   10158:	00871713          	slli	a4,a4,0x8
   1015c:	01f7e7b3          	or	a5,a5,t6
   10160:	0296e693          	ori	a3,a3,41
   10164:	00a77733          	and	a4,a4,a0
   10168:	00d5a023          	sw	a3,0(a1)
   1016c:	02176713          	ori	a4,a4,33
   10170:	f007f693          	andi	a3,a5,-256
   10174:	00879793          	slli	a5,a5,0x8
   10178:	00e5a023          	sw	a4,0(a1)
   1017c:	00a7f7b3          	and	a5,a5,a0
   10180:	0396e713          	ori	a4,a3,57
   10184:	00e5a023          	sw	a4,0(a1)
   10188:	0317e793          	ori	a5,a5,49
   1018c:	00f5a023          	sw	a5,0(a1)
   10190:	0065a023          	sw	t1,0(a1)
   10194:	00460613          	addi	a2,a2,4
   10198:	f9c618e3          	bne	a2,t3,10128 <main+0xb4>
   1019c:	001e8e93          	addi	t4,t4,1
   101a0:	f7ee96e3          	bne	t4,t5,1010c <main+0x98>
   101a4:	00000517          	auipc	a0,0x0
   101a8:	6c050513          	addi	a0,a0,1728 # 10864 <_exit+0x58>
   101ac:	100000ef          	jal	ra,102ac <_Z8EchoUARTPKc>
   101b0:	00000517          	auipc	a0,0x0
   101b4:	6d050513          	addi	a0,a0,1744 # 10880 <_exit+0x74>
   101b8:	0f4000ef          	jal	ra,102ac <_Z8EchoUARTPKc>
   101bc:	0000006f          	j	101bc <main+0x148>

000101c0 <_GLOBAL__sub_I_gpu.cpp>:
   101c0:	00003797          	auipc	a5,0x3
   101c4:	3b07a783          	lw	a5,944(a5) # 13570 <_GLOBAL_OFFSET_TABLE_+0x8>
   101c8:	0007a703          	lw	a4,0(a5)
   101cc:	00003797          	auipc	a5,0x3
   101d0:	3a87a783          	lw	a5,936(a5) # 13574 <_GLOBAL_OFFSET_TABLE_+0xc>
   101d4:	00e7a023          	sw	a4,0(a5)
   101d8:	00008067          	ret

000101dc <register_fini>:
   101dc:	00000793          	li	a5,0
   101e0:	00078863          	beqz	a5,101f0 <register_fini+0x14>
   101e4:	00010537          	lui	a0,0x10
   101e8:	70450513          	addi	a0,a0,1796 # 10704 <__libc_fini_array>
   101ec:	5740006f          	j	10760 <atexit>
   101f0:	00008067          	ret

000101f4 <_start>:
   101f4:	00003197          	auipc	gp,0x3
   101f8:	73418193          	addi	gp,gp,1844 # 13928 <__global_pointer$>
   101fc:	c5c18513          	addi	a0,gp,-932 # 13584 <completed.1>
   10200:	c7c18613          	addi	a2,gp,-900 # 135a4 <__BSS_END__>
   10204:	40a60633          	sub	a2,a2,a0
   10208:	00000593          	li	a1,0
   1020c:	2fc000ef          	jal	ra,10508 <memset>
   10210:	00000517          	auipc	a0,0x0
   10214:	55050513          	addi	a0,a0,1360 # 10760 <atexit>
   10218:	00050863          	beqz	a0,10228 <_start+0x34>
   1021c:	00000517          	auipc	a0,0x0
   10220:	4e850513          	addi	a0,a0,1256 # 10704 <__libc_fini_array>
   10224:	53c000ef          	jal	ra,10760 <atexit>
   10228:	11c000ef          	jal	ra,10344 <__libc_init_array>
   1022c:	00012503          	lw	a0,0(sp)
   10230:	00410593          	addi	a1,sp,4
   10234:	00000613          	li	a2,0
   10238:	e3dff0ef          	jal	ra,10074 <main>
   1023c:	0d80006f          	j	10314 <exit>

00010240 <__do_global_dtors_aux>:
   10240:	c5c1c703          	lbu	a4,-932(gp) # 13584 <completed.1>
   10244:	04071263          	bnez	a4,10288 <__do_global_dtors_aux+0x48>
   10248:	ff010113          	addi	sp,sp,-16
   1024c:	00812423          	sw	s0,8(sp)
   10250:	00078413          	mv	s0,a5
   10254:	00112623          	sw	ra,12(sp)
   10258:	00000793          	li	a5,0
   1025c:	00078a63          	beqz	a5,10270 <__do_global_dtors_aux+0x30>
   10260:	00013537          	lui	a0,0x13
   10264:	09c50513          	addi	a0,a0,156 # 1309c <__EH_FRAME_BEGIN__>
   10268:	00000097          	auipc	ra,0x0
   1026c:	000000e7          	jalr	zero # 0 <main-0x10074>
   10270:	00100793          	li	a5,1
   10274:	00c12083          	lw	ra,12(sp)
   10278:	c4f18e23          	sb	a5,-932(gp) # 13584 <completed.1>
   1027c:	00812403          	lw	s0,8(sp)
   10280:	01010113          	addi	sp,sp,16
   10284:	00008067          	ret
   10288:	00008067          	ret

0001028c <frame_dummy>:
   1028c:	00000793          	li	a5,0
   10290:	00078c63          	beqz	a5,102a8 <frame_dummy+0x1c>
   10294:	00013537          	lui	a0,0x13
   10298:	c6018593          	addi	a1,gp,-928 # 13588 <object.0>
   1029c:	09c50513          	addi	a0,a0,156 # 1309c <__EH_FRAME_BEGIN__>
   102a0:	00000317          	auipc	t1,0x0
   102a4:	00000067          	jr	zero # 0 <main-0x10074>
   102a8:	00008067          	ret

000102ac <_Z8EchoUARTPKc>:
   102ac:	00054783          	lbu	a5,0(a0)
   102b0:	02078263          	beqz	a5,102d4 <_Z8EchoUARTPKc+0x28>
   102b4:	00150513          	addi	a0,a0,1
   102b8:	00003697          	auipc	a3,0x3
   102bc:	2c06a683          	lw	a3,704(a3) # 13578 <_GLOBAL_OFFSET_TABLE_+0x10>
   102c0:	0006a703          	lw	a4,0(a3)
   102c4:	00150513          	addi	a0,a0,1
   102c8:	00f70023          	sb	a5,0(a4)
   102cc:	fff54783          	lbu	a5,-1(a0)
   102d0:	fe0798e3          	bnez	a5,102c0 <_Z8EchoUARTPKc+0x14>
   102d4:	00008067          	ret

000102d8 <_Z8InitFontv>:
   102d8:	00003797          	auipc	a5,0x3
   102dc:	29c7a783          	lw	a5,668(a5) # 13574 <_GLOBAL_OFFSET_TABLE_+0xc>
   102e0:	0007a503          	lw	a0,0(a5)
   102e4:	00002637          	lui	a2,0x2
   102e8:	ff010113          	addi	sp,sp,-16
   102ec:	80060613          	addi	a2,a2,-2048 # 1800 <main-0xe874>
   102f0:	00000597          	auipc	a1,0x0
   102f4:	5ac58593          	addi	a1,a1,1452 # 1089c <_exit+0x90>
   102f8:	00112623          	sw	ra,12(sp)
   102fc:	0e4000ef          	jal	ra,103e0 <memcpy>
   10300:	00c12083          	lw	ra,12(sp)
   10304:	01010113          	addi	sp,sp,16
   10308:	00008067          	ret

0001030c <__errno>:
   1030c:	c581a503          	lw	a0,-936(gp) # 13580 <_impure_ptr>
   10310:	00008067          	ret

00010314 <exit>:
   10314:	ff010113          	addi	sp,sp,-16
   10318:	00000593          	li	a1,0
   1031c:	00812423          	sw	s0,8(sp)
   10320:	00112623          	sw	ra,12(sp)
   10324:	00050413          	mv	s0,a0
   10328:	2bc000ef          	jal	ra,105e4 <__call_exitprocs>
   1032c:	c541a503          	lw	a0,-940(gp) # 1357c <_global_impure_ptr>
   10330:	03c52783          	lw	a5,60(a0)
   10334:	00078463          	beqz	a5,1033c <exit+0x28>
   10338:	000780e7          	jalr	a5
   1033c:	00040513          	mv	a0,s0
   10340:	4cc000ef          	jal	ra,1080c <_exit>

00010344 <__libc_init_array>:
   10344:	ff010113          	addi	sp,sp,-16
   10348:	00812423          	sw	s0,8(sp)
   1034c:	01212023          	sw	s2,0(sp)
   10350:	00013437          	lui	s0,0x13
   10354:	00013937          	lui	s2,0x13
   10358:	11440793          	addi	a5,s0,276 # 13114 <__init_array_start>
   1035c:	11490913          	addi	s2,s2,276 # 13114 <__init_array_start>
   10360:	40f90933          	sub	s2,s2,a5
   10364:	00112623          	sw	ra,12(sp)
   10368:	00912223          	sw	s1,4(sp)
   1036c:	40295913          	srai	s2,s2,0x2
   10370:	02090063          	beqz	s2,10390 <__libc_init_array+0x4c>
   10374:	11440413          	addi	s0,s0,276
   10378:	00000493          	li	s1,0
   1037c:	00042783          	lw	a5,0(s0)
   10380:	00148493          	addi	s1,s1,1
   10384:	00440413          	addi	s0,s0,4
   10388:	000780e7          	jalr	a5
   1038c:	fe9918e3          	bne	s2,s1,1037c <__libc_init_array+0x38>
   10390:	00013437          	lui	s0,0x13
   10394:	00013937          	lui	s2,0x13
   10398:	11440793          	addi	a5,s0,276 # 13114 <__init_array_start>
   1039c:	12090913          	addi	s2,s2,288 # 13120 <__do_global_dtors_aux_fini_array_entry>
   103a0:	40f90933          	sub	s2,s2,a5
   103a4:	40295913          	srai	s2,s2,0x2
   103a8:	02090063          	beqz	s2,103c8 <__libc_init_array+0x84>
   103ac:	11440413          	addi	s0,s0,276
   103b0:	00000493          	li	s1,0
   103b4:	00042783          	lw	a5,0(s0)
   103b8:	00148493          	addi	s1,s1,1
   103bc:	00440413          	addi	s0,s0,4
   103c0:	000780e7          	jalr	a5
   103c4:	fe9918e3          	bne	s2,s1,103b4 <__libc_init_array+0x70>
   103c8:	00c12083          	lw	ra,12(sp)
   103cc:	00812403          	lw	s0,8(sp)
   103d0:	00412483          	lw	s1,4(sp)
   103d4:	00012903          	lw	s2,0(sp)
   103d8:	01010113          	addi	sp,sp,16
   103dc:	00008067          	ret

000103e0 <memcpy>:
   103e0:	00a5c7b3          	xor	a5,a1,a0
   103e4:	0037f793          	andi	a5,a5,3
   103e8:	00c508b3          	add	a7,a0,a2
   103ec:	06079663          	bnez	a5,10458 <memcpy+0x78>
   103f0:	00300793          	li	a5,3
   103f4:	06c7f263          	bgeu	a5,a2,10458 <memcpy+0x78>
   103f8:	00357793          	andi	a5,a0,3
   103fc:	00050713          	mv	a4,a0
   10400:	0c079a63          	bnez	a5,104d4 <memcpy+0xf4>
   10404:	ffc8f613          	andi	a2,a7,-4
   10408:	40e606b3          	sub	a3,a2,a4
   1040c:	02000793          	li	a5,32
   10410:	02000293          	li	t0,32
   10414:	06d7c263          	blt	a5,a3,10478 <memcpy+0x98>
   10418:	00058693          	mv	a3,a1
   1041c:	00070793          	mv	a5,a4
   10420:	02c77863          	bgeu	a4,a2,10450 <memcpy+0x70>
   10424:	0006a803          	lw	a6,0(a3)
   10428:	00478793          	addi	a5,a5,4
   1042c:	00468693          	addi	a3,a3,4
   10430:	ff07ae23          	sw	a6,-4(a5)
   10434:	fec7e8e3          	bltu	a5,a2,10424 <memcpy+0x44>
   10438:	fff60793          	addi	a5,a2,-1
   1043c:	40e787b3          	sub	a5,a5,a4
   10440:	ffc7f793          	andi	a5,a5,-4
   10444:	00478793          	addi	a5,a5,4
   10448:	00f70733          	add	a4,a4,a5
   1044c:	00f585b3          	add	a1,a1,a5
   10450:	01176863          	bltu	a4,a7,10460 <memcpy+0x80>
   10454:	00008067          	ret
   10458:	00050713          	mv	a4,a0
   1045c:	ff157ce3          	bgeu	a0,a7,10454 <memcpy+0x74>
   10460:	0005c783          	lbu	a5,0(a1)
   10464:	00170713          	addi	a4,a4,1
   10468:	00158593          	addi	a1,a1,1
   1046c:	fef70fa3          	sb	a5,-1(a4)
   10470:	ff1768e3          	bltu	a4,a7,10460 <memcpy+0x80>
   10474:	00008067          	ret
   10478:	0045a683          	lw	a3,4(a1)
   1047c:	01c5a783          	lw	a5,28(a1)
   10480:	0005af83          	lw	t6,0(a1)
   10484:	0085af03          	lw	t5,8(a1)
   10488:	00c5ae83          	lw	t4,12(a1)
   1048c:	0105ae03          	lw	t3,16(a1)
   10490:	0145a303          	lw	t1,20(a1)
   10494:	0185a803          	lw	a6,24(a1)
   10498:	00d72223          	sw	a3,4(a4)
   1049c:	0205a683          	lw	a3,32(a1)
   104a0:	01f72023          	sw	t6,0(a4)
   104a4:	01e72423          	sw	t5,8(a4)
   104a8:	01d72623          	sw	t4,12(a4)
   104ac:	01c72823          	sw	t3,16(a4)
   104b0:	00672a23          	sw	t1,20(a4)
   104b4:	01072c23          	sw	a6,24(a4)
   104b8:	00f72e23          	sw	a5,28(a4)
   104bc:	02470713          	addi	a4,a4,36
   104c0:	40e607b3          	sub	a5,a2,a4
   104c4:	fed72e23          	sw	a3,-4(a4)
   104c8:	02458593          	addi	a1,a1,36
   104cc:	faf2c6e3          	blt	t0,a5,10478 <memcpy+0x98>
   104d0:	f49ff06f          	j	10418 <memcpy+0x38>
   104d4:	0005c683          	lbu	a3,0(a1)
   104d8:	00170713          	addi	a4,a4,1
   104dc:	00377793          	andi	a5,a4,3
   104e0:	fed70fa3          	sb	a3,-1(a4)
   104e4:	00158593          	addi	a1,a1,1
   104e8:	f0078ee3          	beqz	a5,10404 <memcpy+0x24>
   104ec:	0005c683          	lbu	a3,0(a1)
   104f0:	00170713          	addi	a4,a4,1
   104f4:	00377793          	andi	a5,a4,3
   104f8:	fed70fa3          	sb	a3,-1(a4)
   104fc:	00158593          	addi	a1,a1,1
   10500:	fc079ae3          	bnez	a5,104d4 <memcpy+0xf4>
   10504:	f01ff06f          	j	10404 <memcpy+0x24>

00010508 <memset>:
   10508:	00f00313          	li	t1,15
   1050c:	00050713          	mv	a4,a0
   10510:	02c37e63          	bgeu	t1,a2,1054c <memset+0x44>
   10514:	00f77793          	andi	a5,a4,15
   10518:	0a079063          	bnez	a5,105b8 <memset+0xb0>
   1051c:	08059263          	bnez	a1,105a0 <memset+0x98>
   10520:	ff067693          	andi	a3,a2,-16
   10524:	00f67613          	andi	a2,a2,15
   10528:	00e686b3          	add	a3,a3,a4
   1052c:	00b72023          	sw	a1,0(a4)
   10530:	00b72223          	sw	a1,4(a4)
   10534:	00b72423          	sw	a1,8(a4)
   10538:	00b72623          	sw	a1,12(a4)
   1053c:	01070713          	addi	a4,a4,16
   10540:	fed766e3          	bltu	a4,a3,1052c <memset+0x24>
   10544:	00061463          	bnez	a2,1054c <memset+0x44>
   10548:	00008067          	ret
   1054c:	40c306b3          	sub	a3,t1,a2
   10550:	00269693          	slli	a3,a3,0x2
   10554:	00000297          	auipc	t0,0x0
   10558:	005686b3          	add	a3,a3,t0
   1055c:	00c68067          	jr	12(a3)
   10560:	00b70723          	sb	a1,14(a4)
   10564:	00b706a3          	sb	a1,13(a4)
   10568:	00b70623          	sb	a1,12(a4)
   1056c:	00b705a3          	sb	a1,11(a4)
   10570:	00b70523          	sb	a1,10(a4)
   10574:	00b704a3          	sb	a1,9(a4)
   10578:	00b70423          	sb	a1,8(a4)
   1057c:	00b703a3          	sb	a1,7(a4)
   10580:	00b70323          	sb	a1,6(a4)
   10584:	00b702a3          	sb	a1,5(a4)
   10588:	00b70223          	sb	a1,4(a4)
   1058c:	00b701a3          	sb	a1,3(a4)
   10590:	00b70123          	sb	a1,2(a4)
   10594:	00b700a3          	sb	a1,1(a4)
   10598:	00b70023          	sb	a1,0(a4)
   1059c:	00008067          	ret
   105a0:	0ff5f593          	andi	a1,a1,255
   105a4:	00859693          	slli	a3,a1,0x8
   105a8:	00d5e5b3          	or	a1,a1,a3
   105ac:	01059693          	slli	a3,a1,0x10
   105b0:	00d5e5b3          	or	a1,a1,a3
   105b4:	f6dff06f          	j	10520 <memset+0x18>
   105b8:	00279693          	slli	a3,a5,0x2
   105bc:	00000297          	auipc	t0,0x0
   105c0:	005686b3          	add	a3,a3,t0
   105c4:	00008293          	mv	t0,ra
   105c8:	fa0680e7          	jalr	-96(a3)
   105cc:	00028093          	mv	ra,t0
   105d0:	ff078793          	addi	a5,a5,-16
   105d4:	40f70733          	sub	a4,a4,a5
   105d8:	00f60633          	add	a2,a2,a5
   105dc:	f6c378e3          	bgeu	t1,a2,1054c <memset+0x44>
   105e0:	f3dff06f          	j	1051c <memset+0x14>

000105e4 <__call_exitprocs>:
   105e4:	fd010113          	addi	sp,sp,-48
   105e8:	01412c23          	sw	s4,24(sp)
   105ec:	c541aa03          	lw	s4,-940(gp) # 1357c <_global_impure_ptr>
   105f0:	03212023          	sw	s2,32(sp)
   105f4:	02112623          	sw	ra,44(sp)
   105f8:	148a2903          	lw	s2,328(s4)
   105fc:	02812423          	sw	s0,40(sp)
   10600:	02912223          	sw	s1,36(sp)
   10604:	01312e23          	sw	s3,28(sp)
   10608:	01512a23          	sw	s5,20(sp)
   1060c:	01612823          	sw	s6,16(sp)
   10610:	01712623          	sw	s7,12(sp)
   10614:	01812423          	sw	s8,8(sp)
   10618:	04090063          	beqz	s2,10658 <__call_exitprocs+0x74>
   1061c:	00050b13          	mv	s6,a0
   10620:	00058b93          	mv	s7,a1
   10624:	00100a93          	li	s5,1
   10628:	fff00993          	li	s3,-1
   1062c:	00492483          	lw	s1,4(s2)
   10630:	fff48413          	addi	s0,s1,-1
   10634:	02044263          	bltz	s0,10658 <__call_exitprocs+0x74>
   10638:	00249493          	slli	s1,s1,0x2
   1063c:	009904b3          	add	s1,s2,s1
   10640:	040b8463          	beqz	s7,10688 <__call_exitprocs+0xa4>
   10644:	1044a783          	lw	a5,260(s1)
   10648:	05778063          	beq	a5,s7,10688 <__call_exitprocs+0xa4>
   1064c:	fff40413          	addi	s0,s0,-1
   10650:	ffc48493          	addi	s1,s1,-4
   10654:	ff3416e3          	bne	s0,s3,10640 <__call_exitprocs+0x5c>
   10658:	02c12083          	lw	ra,44(sp)
   1065c:	02812403          	lw	s0,40(sp)
   10660:	02412483          	lw	s1,36(sp)
   10664:	02012903          	lw	s2,32(sp)
   10668:	01c12983          	lw	s3,28(sp)
   1066c:	01812a03          	lw	s4,24(sp)
   10670:	01412a83          	lw	s5,20(sp)
   10674:	01012b03          	lw	s6,16(sp)
   10678:	00c12b83          	lw	s7,12(sp)
   1067c:	00812c03          	lw	s8,8(sp)
   10680:	03010113          	addi	sp,sp,48
   10684:	00008067          	ret
   10688:	00492783          	lw	a5,4(s2)
   1068c:	0044a683          	lw	a3,4(s1)
   10690:	fff78793          	addi	a5,a5,-1
   10694:	04878e63          	beq	a5,s0,106f0 <__call_exitprocs+0x10c>
   10698:	0004a223          	sw	zero,4(s1)
   1069c:	fa0688e3          	beqz	a3,1064c <__call_exitprocs+0x68>
   106a0:	18892783          	lw	a5,392(s2)
   106a4:	008a9733          	sll	a4,s5,s0
   106a8:	00492c03          	lw	s8,4(s2)
   106ac:	00f777b3          	and	a5,a4,a5
   106b0:	02079263          	bnez	a5,106d4 <__call_exitprocs+0xf0>
   106b4:	000680e7          	jalr	a3
   106b8:	00492703          	lw	a4,4(s2)
   106bc:	148a2783          	lw	a5,328(s4)
   106c0:	01871463          	bne	a4,s8,106c8 <__call_exitprocs+0xe4>
   106c4:	f92784e3          	beq	a5,s2,1064c <__call_exitprocs+0x68>
   106c8:	f80788e3          	beqz	a5,10658 <__call_exitprocs+0x74>
   106cc:	00078913          	mv	s2,a5
   106d0:	f5dff06f          	j	1062c <__call_exitprocs+0x48>
   106d4:	18c92783          	lw	a5,396(s2)
   106d8:	0844a583          	lw	a1,132(s1)
   106dc:	00f77733          	and	a4,a4,a5
   106e0:	00071c63          	bnez	a4,106f8 <__call_exitprocs+0x114>
   106e4:	000b0513          	mv	a0,s6
   106e8:	000680e7          	jalr	a3
   106ec:	fcdff06f          	j	106b8 <__call_exitprocs+0xd4>
   106f0:	00892223          	sw	s0,4(s2)
   106f4:	fa9ff06f          	j	1069c <__call_exitprocs+0xb8>
   106f8:	00058513          	mv	a0,a1
   106fc:	000680e7          	jalr	a3
   10700:	fb9ff06f          	j	106b8 <__call_exitprocs+0xd4>

00010704 <__libc_fini_array>:
   10704:	ff010113          	addi	sp,sp,-16
   10708:	00812423          	sw	s0,8(sp)
   1070c:	000137b7          	lui	a5,0x13
   10710:	00013437          	lui	s0,0x13
   10714:	12040413          	addi	s0,s0,288 # 13120 <__do_global_dtors_aux_fini_array_entry>
   10718:	12478793          	addi	a5,a5,292 # 13124 <__fini_array_end>
   1071c:	408787b3          	sub	a5,a5,s0
   10720:	00912223          	sw	s1,4(sp)
   10724:	00112623          	sw	ra,12(sp)
   10728:	4027d493          	srai	s1,a5,0x2
   1072c:	02048063          	beqz	s1,1074c <__libc_fini_array+0x48>
   10730:	ffc78793          	addi	a5,a5,-4
   10734:	00878433          	add	s0,a5,s0
   10738:	00042783          	lw	a5,0(s0)
   1073c:	fff48493          	addi	s1,s1,-1
   10740:	ffc40413          	addi	s0,s0,-4
   10744:	000780e7          	jalr	a5
   10748:	fe0498e3          	bnez	s1,10738 <__libc_fini_array+0x34>
   1074c:	00c12083          	lw	ra,12(sp)
   10750:	00812403          	lw	s0,8(sp)
   10754:	00412483          	lw	s1,4(sp)
   10758:	01010113          	addi	sp,sp,16
   1075c:	00008067          	ret

00010760 <atexit>:
   10760:	00050593          	mv	a1,a0
   10764:	00000693          	li	a3,0
   10768:	00000613          	li	a2,0
   1076c:	00000513          	li	a0,0
   10770:	0040006f          	j	10774 <__register_exitproc>

00010774 <__register_exitproc>:
   10774:	c541a703          	lw	a4,-940(gp) # 1357c <_global_impure_ptr>
   10778:	14872783          	lw	a5,328(a4)
   1077c:	04078c63          	beqz	a5,107d4 <__register_exitproc+0x60>
   10780:	0047a703          	lw	a4,4(a5)
   10784:	01f00813          	li	a6,31
   10788:	06e84e63          	blt	a6,a4,10804 <__register_exitproc+0x90>
   1078c:	00271813          	slli	a6,a4,0x2
   10790:	02050663          	beqz	a0,107bc <__register_exitproc+0x48>
   10794:	01078333          	add	t1,a5,a6
   10798:	08c32423          	sw	a2,136(t1) # 10328 <exit+0x14>
   1079c:	1887a883          	lw	a7,392(a5)
   107a0:	00100613          	li	a2,1
   107a4:	00e61633          	sll	a2,a2,a4
   107a8:	00c8e8b3          	or	a7,a7,a2
   107ac:	1917a423          	sw	a7,392(a5)
   107b0:	10d32423          	sw	a3,264(t1)
   107b4:	00200693          	li	a3,2
   107b8:	02d50463          	beq	a0,a3,107e0 <__register_exitproc+0x6c>
   107bc:	00170713          	addi	a4,a4,1
   107c0:	00e7a223          	sw	a4,4(a5)
   107c4:	010787b3          	add	a5,a5,a6
   107c8:	00b7a423          	sw	a1,8(a5)
   107cc:	00000513          	li	a0,0
   107d0:	00008067          	ret
   107d4:	14c70793          	addi	a5,a4,332
   107d8:	14f72423          	sw	a5,328(a4)
   107dc:	fa5ff06f          	j	10780 <__register_exitproc+0xc>
   107e0:	18c7a683          	lw	a3,396(a5)
   107e4:	00170713          	addi	a4,a4,1
   107e8:	00e7a223          	sw	a4,4(a5)
   107ec:	00c6e633          	or	a2,a3,a2
   107f0:	18c7a623          	sw	a2,396(a5)
   107f4:	010787b3          	add	a5,a5,a6
   107f8:	00b7a423          	sw	a1,8(a5)
   107fc:	00000513          	li	a0,0
   10800:	00008067          	ret
   10804:	fff00513          	li	a0,-1
   10808:	00008067          	ret

0001080c <_exit>:
   1080c:	05d00893          	li	a7,93
   10810:	00000073          	ecall
   10814:	00054463          	bltz	a0,1081c <_exit+0x10>
   10818:	0000006f          	j	10818 <_exit+0xc>
   1081c:	ff010113          	addi	sp,sp,-16
   10820:	00812423          	sw	s0,8(sp)
   10824:	00050413          	mv	s0,a0
   10828:	00112623          	sw	ra,12(sp)
   1082c:	40800433          	neg	s0,s0
   10830:	addff0ef          	jal	ra,1030c <__errno>
   10834:	00852023          	sw	s0,0(a0)
   10838:	0000006f          	j	10838 <_exit+0x2c>

Disassembly of section .rodata:

0001083c <.rodata>:
   1083c:	20555047          	fmsub.s	ft0,fa0,ft5,ft4,unknown
   10840:	6554                	flw	fa3,12(a0)
   10842:	000a7473          	csrrci	s0,ustatus,20
   10846:	0000                	unimp
   10848:	74697257          	0x74697257
   1084c:	6e69                	lui	t3,0x1a
   1084e:	61702067          	0x61702067
   10852:	656c                	flw	fa1,76(a0)
   10854:	7474                	flw	fa3,108(s0)
   10856:	2065                	jal	108fe <_exit+0xf2>
   10858:	6e65                	lui	t3,0x19
   1085a:	7274                	flw	fa3,100(a2)
   1085c:	2e79                	jal	10bfa <_exit+0x3ee>
   1085e:	2e2e                	fld	ft8,200(sp)
   10860:	0000                	unimp
   10862:	0000                	unimp
   10864:	6f64                	flw	fs1,92(a4)
   10866:	656e                	flw	fa0,216(sp)
   10868:	000a                	c.slli	zero,0x2
   1086a:	0000                	unimp
   1086c:	74697257          	0x74697257
   10870:	6e69                	lui	t3,0x1a
   10872:	6f742067          	0x6f742067
   10876:	5620                	lw	s0,104(a2)
   10878:	4152                	lw	sp,20(sp)
   1087a:	2e4d                	jal	10c2c <_exit+0x420>
   1087c:	2e2e                	fld	ft8,200(sp)
   1087e:	0000                	unimp
   10880:	20555047          	fmsub.s	ft0,fa0,ft5,ft4,unknown
   10884:	74697277          	0x74697277
   10888:	2065                	jal	10930 <_exit+0x124>
   1088a:	6574                	flw	fa3,76(a0)
   1088c:	20737473          	csrrci	s0,0x207,6
   10890:	706d6f63          	bltu	s10,t1,10fae <_exit+0x7a2>
   10894:	656c                	flw	fa1,76(a0)
   10896:	6574                	flw	fa3,76(a0)
   10898:	000a                	c.slli	zero,0x2
	...
   108a6:	00ff                	0xff
   108a8:	0000                	unimp
   108aa:	0000                	unimp
   108ac:	ff00                	fsw	fs0,56(a4)
   108ae:	ff00                	fsw	fs0,56(a4)
   108b0:	0000                	unimp
   108b2:	0000                	unimp
   108b4:	0000                	unimp
   108b6:	00ff                	0xff
   108b8:	00ff                	0xff
   108ba:	0000                	unimp
   108bc:	ff00                	fsw	fs0,56(a4)
   108be:	ffff                	0xffff
   108c0:	0000                	unimp
   108c2:	0000                	unimp
   108c4:	ff00                	fsw	fs0,56(a4)
   108c6:	ffff                	0xffff
   108c8:	00ff                	0xff
   108ca:	0000                	unimp
   108cc:	0000                	unimp
   108ce:	00ff                	0xff
   108d0:	0000                	unimp
   108d2:	0000                	unimp
   108d4:	0000                	unimp
   108d6:	00ff                	0xff
   108d8:	0000                	unimp
   108da:	0000                	unimp
   108dc:	0000                	unimp
   108de:	ff00                	fsw	fs0,56(a4)
   108e0:	0000                	unimp
   108e2:	0000                	unimp
   108e4:	ff00                	fsw	fs0,56(a4)
	...
   108ee:	00ff                	0xff
	...
   10918:	00ff                	0xff
   1091a:	0000                	unimp
   1091c:	ff00                	fsw	fs0,56(a4)
   1091e:	ffff                	0xffff
   10920:	0000                	unimp
   10922:	0000                	unimp
   10924:	0000                	unimp
   10926:	00ff                	0xff
   10928:	0000                	unimp
   1092a:	0000                	unimp
   1092c:	ff00                	fsw	fs0,56(a4)
   1092e:	ffff                	0xffff
   10930:	0000                	unimp
   10932:	0000                	unimp
   10934:	ffff                	0xffff
   10936:	ffff                	0xffff
   10938:	00ff                	0xff
   1093a:	0000                	unimp
   1093c:	0000                	unimp
   1093e:	ff00                	fsw	fs0,56(a4)
   10940:	0000                	unimp
   10942:	0000                	unimp
   10944:	ffff                	0xffff
   10946:	ffff                	0xffff
   10948:	00ff                	0xff
   1094a:	0000                	unimp
   1094c:	0000                	unimp
   1094e:	ffff                	0xffff
   10950:	0000                	unimp
   10952:	0000                	unimp
   10954:	ffff                	0xffff
   10956:	ffff                	0xffff
   10958:	00ff                	0xff
   1095a:	0000                	unimp
   1095c:	ff00                	fsw	fs0,56(a4)
   1095e:	ffff                	0xffff
   10960:	0000                	unimp
   10962:	0000                	unimp
   10964:	ff00                	fsw	fs0,56(a4)
   10966:	ffff                	0xffff
	...
   10994:	0000                	unimp
   10996:	ffff                	0xffff
	...
   109a4:	0000                	unimp
   109a6:	00ff                	0xff
   109a8:	0000                	unimp
   109aa:	0000                	unimp
   109ac:	ff00                	fsw	fs0,56(a4)
   109ae:	ff00                	fsw	fs0,56(a4)
   109b0:	0000                	unimp
   109b2:	0000                	unimp
   109b4:	ffff                	0xffff
   109b6:	ffff                	0xffff
   109b8:	00ff                	0xff
   109ba:	0000                	unimp
   109bc:	00ff                	0xff
   109be:	00ff                	0xff
   109c0:	00ff                	0xff
   109c2:	0000                	unimp
   109c4:	00ff                	0xff
   109c6:	00ff                	0xff
   109c8:	00ff                	0xff
   109ca:	0000                	unimp
   109cc:	ff00                	fsw	fs0,56(a4)
   109ce:	ff00                	fsw	fs0,56(a4)
   109d0:	0000                	unimp
   109d2:	0000                	unimp
   109d4:	0000                	unimp
   109d6:	00ff                	0xff
   109d8:	0000                	unimp
   109da:	0000                	unimp
   109dc:	0000                	unimp
   109de:	00ff                	0xff
   109e0:	0000                	unimp
   109e2:	0000                	unimp
   109e4:	0000                	unimp
   109e6:	00ff                	0xff
   109e8:	0000                	unimp
   109ea:	0000                	unimp
   109ec:	00ff                	0xff
   109ee:	00ff                	0xff
   109f0:	00ff                	0xff
   109f2:	0000                	unimp
   109f4:	0000                	unimp
   109f6:	00ff                	0xff
	...
   10a18:	00ff                	0xff
   10a1a:	0000                	unimp
   10a1c:	00ff                	0xff
   10a1e:	0000                	unimp
   10a20:	00ff                	0xff
   10a22:	0000                	unimp
   10a24:	ff00                	fsw	fs0,56(a4)
   10a26:	00ff                	0xff
   10a28:	0000                	unimp
   10a2a:	0000                	unimp
   10a2c:	00ff                	0xff
   10a2e:	0000                	unimp
   10a30:	00ff                	0xff
   10a32:	0000                	unimp
   10a34:	0000                	unimp
   10a36:	ff00                	fsw	fs0,56(a4)
   10a38:	0000                	unimp
   10a3a:	0000                	unimp
   10a3c:	0000                	unimp
   10a3e:	ffff                	0xffff
   10a40:	0000                	unimp
   10a42:	0000                	unimp
   10a44:	00ff                	0xff
   10a46:	0000                	unimp
   10a48:	0000                	unimp
   10a4a:	0000                	unimp
   10a4c:	ff00                	fsw	fs0,56(a4)
	...
   10a56:	0000                	unimp
   10a58:	00ff                	0xff
   10a5a:	0000                	unimp
   10a5c:	00ff                	0xff
   10a5e:	0000                	unimp
   10a60:	00ff                	0xff
   10a62:	0000                	unimp
   10a64:	00ff                	0xff
   10a66:	0000                	unimp
   10a68:	00ff                	0xff
	...
   10a7e:	ff00                	fsw	fs0,56(a4)
	...
   10a8c:	ff00                	fsw	fs0,56(a4)
   10a8e:	0000                	unimp
   10a90:	0000                	unimp
   10a92:	0000                	unimp
   10a94:	ff00                	fsw	fs0,56(a4)
   10a96:	0000                	unimp
   10a98:	00ff                	0xff
	...
   10aa6:	00ff                	0xff
	...
   10ab4:	ff00                	fsw	fs0,56(a4)
   10ab6:	ff00                	fsw	fs0,56(a4)
   10ab8:	0000                	unimp
   10aba:	0000                	unimp
   10abc:	00ff                	0xff
   10abe:	00ff                	0xff
   10ac0:	0000                	unimp
   10ac2:	0000                	unimp
   10ac4:	00ff                	0xff
   10ac6:	ffff                	0xffff
   10ac8:	0000                	unimp
   10aca:	0000                	unimp
   10acc:	0000                	unimp
   10ace:	00ff                	0xff
	...
   10adc:	ff00                	fsw	fs0,56(a4)
	...
   10ae6:	ff00                	fsw	fs0,56(a4)
   10ae8:	0000                	unimp
   10aea:	0000                	unimp
   10aec:	ff00                	fsw	fs0,56(a4)
   10aee:	ffff                	0xffff
   10af0:	0000                	unimp
   10af2:	0000                	unimp
   10af4:	0000                	unimp
   10af6:	00ff                	0xff
	...
   10b14:	0000                	unimp
   10b16:	ff00                	fsw	fs0,56(a4)
   10b18:	0000                	unimp
   10b1a:	0000                	unimp
   10b1c:	00ff                	0xff
   10b1e:	ff00                	fsw	fs0,56(a4)
   10b20:	00ff                	0xff
   10b22:	0000                	unimp
   10b24:	0000                	unimp
   10b26:	00ff                	0xff
	...
   10b30:	00ff                	0xff
   10b32:	0000                	unimp
   10b34:	0000                	unimp
   10b36:	00ff                	0xff
   10b38:	0000                	unimp
   10b3a:	0000                	unimp
   10b3c:	ff00                	fsw	fs0,56(a4)
   10b3e:	ff00                	fsw	fs0,56(a4)
   10b40:	0000                	unimp
   10b42:	0000                	unimp
   10b44:	ffff                	0xffff
   10b46:	ffff                	0xffff
   10b48:	0000                	unimp
   10b4a:	0000                	unimp
   10b4c:	00ff                	0xff
	...
   10b56:	ff00                	fsw	fs0,56(a4)
   10b58:	0000                	unimp
   10b5a:	0000                	unimp
   10b5c:	00ff                	0xff
   10b5e:	0000                	unimp
   10b60:	00ff                	0xff
   10b62:	0000                	unimp
   10b64:	00ff                	0xff
   10b66:	0000                	unimp
   10b68:	00ff                	0xff
   10b6a:	0000                	unimp
   10b6c:	0000                	unimp
   10b6e:	00ff                	0xff
   10b70:	0000                	unimp
   10b72:	0000                	unimp
   10b74:	0000                	unimp
   10b76:	00ff                	0xff
   10b78:	0000                	unimp
   10b7a:	0000                	unimp
   10b7c:	0000                	unimp
   10b7e:	00ff                	0xff
   10b80:	0000                	unimp
   10b82:	0000                	unimp
   10b84:	ffff                	0xffff
   10b86:	ffff                	0xffff
   10b88:	00ff                	0xff
   10b8a:	0000                	unimp
   10b8c:	0000                	unimp
   10b8e:	00ff                	0xff
	...
   10b98:	00ff                	0xff
	...
   10ba6:	00ff                	0xff
	...
   10bb4:	ffff                	0xffff
   10bb6:	ffff                	0xffff
   10bb8:	00ff                	0xff
   10bba:	0000                	unimp
   10bbc:	ff00                	fsw	fs0,56(a4)
   10bbe:	ffff                	0xffff
   10bc0:	0000                	unimp
   10bc2:	0000                	unimp
   10bc4:	ff00                	fsw	fs0,56(a4)
   10bc6:	ffff                	0xffff
   10bc8:	00ff                	0xff
   10bca:	0000                	unimp
   10bcc:	ff00                	fsw	fs0,56(a4)
   10bce:	ff00                	fsw	fs0,56(a4)
   10bd0:	ff00                	fsw	fs0,56(a4)
	...
   10bda:	0000                	unimp
   10bdc:	ff00                	fsw	fs0,56(a4)
	...
   10be6:	ff00                	fsw	fs0,56(a4)
   10be8:	0000                	unimp
   10bea:	0000                	unimp
   10bec:	ff00                	fsw	fs0,56(a4)
   10bee:	ff00                	fsw	fs0,56(a4)
   10bf0:	0000                	unimp
   10bf2:	0000                	unimp
   10bf4:	ffff                	0xffff
   10bf6:	ffff                	0xffff
   10bf8:	00ff                	0xff
	...
   10c02:	0000                	unimp
   10c04:	ff00                	fsw	fs0,56(a4)
   10c06:	ffff                	0xffff
   10c08:	00ff                	0xff
	...
   10c16:	ff00                	fsw	fs0,56(a4)
   10c18:	0000                	unimp
   10c1a:	0000                	unimp
   10c1c:	00ff                	0xff
   10c1e:	00ff                	0xff
   10c20:	00ff                	0xff
   10c22:	0000                	unimp
   10c24:	0000                	unimp
   10c26:	00ff                	0xff
   10c28:	0000                	unimp
   10c2a:	0000                	unimp
   10c2c:	0000                	unimp
   10c2e:	ff00                	fsw	fs0,56(a4)
   10c30:	0000                	unimp
   10c32:	0000                	unimp
   10c34:	ff00                	fsw	fs0,56(a4)
   10c36:	ffff                	0xffff
   10c38:	0000                	unimp
   10c3a:	0000                	unimp
   10c3c:	00ff                	0xff
   10c3e:	ff00                	fsw	fs0,56(a4)
	...
   10c48:	00ff                	0xff
   10c4a:	0000                	unimp
   10c4c:	ffff                	0xffff
   10c4e:	ffff                	0xffff
   10c50:	0000                	unimp
   10c52:	0000                	unimp
   10c54:	0000                	unimp
   10c56:	ff00                	fsw	fs0,56(a4)
   10c58:	0000                	unimp
   10c5a:	0000                	unimp
   10c5c:	ff00                	fsw	fs0,56(a4)
   10c5e:	ffff                	0xffff
   10c60:	0000                	unimp
   10c62:	0000                	unimp
   10c64:	ff00                	fsw	fs0,56(a4)
   10c66:	ffff                	0xffff
   10c68:	00ff                	0xff
	...
   10c7a:	0000                	unimp
   10c7c:	ff00                	fsw	fs0,56(a4)
	...
   10c8e:	ff00                	fsw	fs0,56(a4)
   10c90:	0000                	unimp
   10c92:	0000                	unimp
   10c94:	0000                	unimp
   10c96:	ff00                	fsw	fs0,56(a4)
	...
   10ca4:	0000                	unimp
   10ca6:	00ff                	0xff
	...
   10cb4:	00ff                	0xff
   10cb6:	00ff                	0xff
   10cb8:	0000                	unimp
   10cba:	0000                	unimp
   10cbc:	0000                	unimp
   10cbe:	00ff                	0xff
   10cc0:	00ff                	0xff
   10cc2:	0000                	unimp
   10cc4:	0000                	unimp
   10cc6:	ffff                	0xffff
   10cc8:	ff00                	fsw	fs0,56(a4)
   10cca:	0000                	unimp
   10ccc:	00ff                	0xff
   10cce:	0000                	unimp
   10cd0:	00ff                	0xff
	...
   10cda:	0000                	unimp
   10cdc:	ff00                	fsw	fs0,56(a4)
	...
   10ce6:	ff00                	fsw	fs0,56(a4)
   10ce8:	0000                	unimp
   10cea:	0000                	unimp
   10cec:	00ff                	0xff
   10cee:	0000                	unimp
   10cf0:	00ff                	0xff
   10cf2:	0000                	unimp
   10cf4:	0000                	unimp
   10cf6:	00ff                	0xff
	...
   10d14:	0000                	unimp
   10d16:	00ff                	0xff
   10d18:	0000                	unimp
   10d1a:	0000                	unimp
   10d1c:	ffff                	0xffff
   10d1e:	0000                	unimp
   10d20:	00ff                	0xff
   10d22:	0000                	unimp
   10d24:	0000                	unimp
   10d26:	00ff                	0xff
   10d28:	0000                	unimp
   10d2a:	0000                	unimp
   10d2c:	0000                	unimp
   10d2e:	00ff                	0xff
	...
   10d38:	00ff                	0xff
   10d3a:	0000                	unimp
   10d3c:	ffff                	0xffff
   10d3e:	ffff                	0xffff
   10d40:	00ff                	0xff
   10d42:	0000                	unimp
   10d44:	0000                	unimp
   10d46:	0000                	unimp
   10d48:	00ff                	0xff
   10d4a:	0000                	unimp
   10d4c:	00ff                	0xff
   10d4e:	0000                	unimp
   10d50:	00ff                	0xff
   10d52:	0000                	unimp
   10d54:	0000                	unimp
   10d56:	00ff                	0xff
   10d58:	0000                	unimp
   10d5a:	0000                	unimp
   10d5c:	00ff                	0xff
   10d5e:	0000                	unimp
   10d60:	00ff                	0xff
   10d62:	0000                	unimp
   10d64:	0000                	unimp
   10d66:	0000                	unimp
   10d68:	00ff                	0xff
	...
   10d7e:	00ff                	0xff
   10d80:	0000                	unimp
   10d82:	0000                	unimp
   10d84:	ffff                	0xffff
   10d86:	ffff                	0xffff
   10d88:	00ff                	0xff
   10d8a:	0000                	unimp
   10d8c:	0000                	unimp
   10d8e:	00ff                	0xff
   10d90:	0000                	unimp
   10d92:	0000                	unimp
   10d94:	0000                	unimp
   10d96:	00ff                	0xff
	...
   10dbc:	00ff                	0xff
   10dbe:	00ff                	0xff
   10dc0:	00ff                	0xff
   10dc2:	0000                	unimp
   10dc4:	ff00                	fsw	fs0,56(a4)
   10dc6:	ff00                	fsw	fs0,56(a4)
   10dc8:	ff00                	fsw	fs0,56(a4)
   10dca:	0000                	unimp
   10dcc:	00ff                	0xff
   10dce:	0000                	unimp
   10dd0:	00ff                	0xff
	...
   10dda:	0000                	unimp
   10ddc:	ff00                	fsw	fs0,56(a4)
	...
   10de6:	ff00                	fsw	fs0,56(a4)
	...
   10df4:	0000                	unimp
   10df6:	00ff                	0xff
   10df8:	0000                	unimp
   10dfa:	0000                	unimp
   10dfc:	0000                	unimp
   10dfe:	00ff                	0xff
	...
   10e14:	0000                	unimp
   10e16:	00ff                	0xff
   10e18:	0000                	unimp
   10e1a:	0000                	unimp
   10e1c:	00ff                	0xff
   10e1e:	0000                	unimp
   10e20:	00ff                	0xff
   10e22:	0000                	unimp
   10e24:	0000                	unimp
   10e26:	00ff                	0xff
   10e28:	0000                	unimp
   10e2a:	0000                	unimp
   10e2c:	ff00                	fsw	fs0,56(a4)
   10e2e:	0000                	unimp
   10e30:	0000                	unimp
   10e32:	0000                	unimp
   10e34:	00ff                	0xff
   10e36:	0000                	unimp
   10e38:	00ff                	0xff
   10e3a:	0000                	unimp
   10e3c:	0000                	unimp
   10e3e:	ff00                	fsw	fs0,56(a4)
   10e40:	0000                	unimp
   10e42:	0000                	unimp
   10e44:	00ff                	0xff
   10e46:	0000                	unimp
   10e48:	00ff                	0xff
   10e4a:	0000                	unimp
   10e4c:	00ff                	0xff
   10e4e:	0000                	unimp
   10e50:	00ff                	0xff
   10e52:	0000                	unimp
   10e54:	0000                	unimp
   10e56:	00ff                	0xff
   10e58:	0000                	unimp
   10e5a:	0000                	unimp
   10e5c:	00ff                	0xff
   10e5e:	0000                	unimp
   10e60:	00ff                	0xff
   10e62:	0000                	unimp
   10e64:	0000                	unimp
   10e66:	ff00                	fsw	fs0,56(a4)
	...
   10e74:	0000                	unimp
   10e76:	00ff                	0xff
   10e78:	0000                	unimp
   10e7a:	0000                	unimp
   10e7c:	0000                	unimp
   10e7e:	ff00                	fsw	fs0,56(a4)
	...
   10e8c:	ff00                	fsw	fs0,56(a4)
	...
   10ea6:	00ff                	0xff
	...
   10ebc:	ff00                	fsw	fs0,56(a4)
   10ebe:	ffff                	0xffff
   10ec0:	0000                	unimp
   10ec2:	0000                	unimp
   10ec4:	ff00                	fsw	fs0,56(a4)
   10ec6:	0000                	unimp
   10ec8:	00ff                	0xff
   10eca:	0000                	unimp
   10ecc:	ff00                	fsw	fs0,56(a4)
   10ece:	ffff                	0xffff
   10ed0:	ff00                	fsw	fs0,56(a4)
	...
   10ede:	00ff                	0xff
   10ee0:	0000                	unimp
   10ee2:	0000                	unimp
   10ee4:	0000                	unimp
   10ee6:	00ff                	0xff
	...
   10efc:	0000                	unimp
   10efe:	00ff                	0xff
	...
   10f0c:	0000                	unimp
   10f0e:	00ff                	0xff
   10f10:	0000                	unimp
   10f12:	0000                	unimp
   10f14:	ff00                	fsw	fs0,56(a4)
   10f16:	0000                	unimp
   10f18:	0000                	unimp
   10f1a:	0000                	unimp
   10f1c:	ff00                	fsw	fs0,56(a4)
   10f1e:	ffff                	0xffff
   10f20:	0000                	unimp
   10f22:	0000                	unimp
   10f24:	0000                	unimp
   10f26:	00ff                	0xff
   10f28:	0000                	unimp
   10f2a:	0000                	unimp
   10f2c:	ffff                	0xffff
   10f2e:	ffff                	0xffff
   10f30:	00ff                	0xff
   10f32:	0000                	unimp
   10f34:	ff00                	fsw	fs0,56(a4)
   10f36:	ffff                	0xffff
   10f38:	0000                	unimp
   10f3a:	0000                	unimp
   10f3c:	0000                	unimp
   10f3e:	ff00                	fsw	fs0,56(a4)
   10f40:	0000                	unimp
   10f42:	0000                	unimp
   10f44:	ff00                	fsw	fs0,56(a4)
   10f46:	ffff                	0xffff
   10f48:	0000                	unimp
   10f4a:	0000                	unimp
   10f4c:	ff00                	fsw	fs0,56(a4)
   10f4e:	ffff                	0xffff
   10f50:	0000                	unimp
   10f52:	0000                	unimp
   10f54:	0000                	unimp
   10f56:	00ff                	0xff
   10f58:	0000                	unimp
   10f5a:	0000                	unimp
   10f5c:	ff00                	fsw	fs0,56(a4)
   10f5e:	ffff                	0xffff
   10f60:	0000                	unimp
   10f62:	0000                	unimp
   10f64:	ff00                	fsw	fs0,56(a4)
   10f66:	00ff                	0xff
   10f68:	0000                	unimp
   10f6a:	0000                	unimp
   10f6c:	0000                	unimp
   10f6e:	00ff                	0xff
   10f70:	0000                	unimp
   10f72:	0000                	unimp
   10f74:	0000                	unimp
   10f76:	00ff                	0xff
	...
   10f94:	0000                	unimp
   10f96:	00ff                	0xff
	...
   10fbc:	0000                	unimp
   10fbe:	00ff                	0xff
	...
   10fdc:	0000                	unimp
   10fde:	ff00                	fsw	fs0,56(a4)
   10fe0:	0000                	unimp
   10fe2:	0000                	unimp
   10fe4:	ff00                	fsw	fs0,56(a4)
	...
   10ffa:	0000                	unimp
   10ffc:	ff00                	fsw	fs0,56(a4)
	...
   11012:	0000                	unimp
   11014:	ff00                	fsw	fs0,56(a4)
	...
   11072:	0000                	unimp
   11074:	ff00                	fsw	fs0,56(a4)
	...
   1109e:	ffff                	0xffff
   110a0:	0000                	unimp
   110a2:	0000                	unimp
   110a4:	0000                	unimp
   110a6:	00ff                	0xff
   110a8:	0000                	unimp
   110aa:	0000                	unimp
   110ac:	ffff                	0xffff
   110ae:	ffff                	0xffff
   110b0:	0000                	unimp
   110b2:	0000                	unimp
   110b4:	ff00                	fsw	fs0,56(a4)
   110b6:	ffff                	0xffff
   110b8:	0000                	unimp
   110ba:	0000                	unimp
   110bc:	ffff                	0xffff
   110be:	00ff                	0xff
   110c0:	0000                	unimp
   110c2:	0000                	unimp
   110c4:	ff00                	fsw	fs0,56(a4)
   110c6:	ffff                	0xffff
   110c8:	00ff                	0xff
   110ca:	0000                	unimp
   110cc:	ff00                	fsw	fs0,56(a4)
   110ce:	ffff                	0xffff
   110d0:	00ff                	0xff
   110d2:	0000                	unimp
   110d4:	ff00                	fsw	fs0,56(a4)
   110d6:	ffff                	0xffff
   110d8:	0000                	unimp
   110da:	0000                	unimp
   110dc:	00ff                	0xff
   110de:	0000                	unimp
   110e0:	00ff                	0xff
   110e2:	0000                	unimp
   110e4:	0000                	unimp
   110e6:	00ff                	0xff
	...
   110f0:	00ff                	0xff
   110f2:	0000                	unimp
   110f4:	00ff                	0xff
   110f6:	0000                	unimp
   110f8:	00ff                	0xff
   110fa:	0000                	unimp
   110fc:	ff00                	fsw	fs0,56(a4)
   110fe:	0000                	unimp
   11100:	0000                	unimp
   11102:	0000                	unimp
   11104:	00ff                	0xff
   11106:	0000                	unimp
   11108:	00ff                	0xff
   1110a:	0000                	unimp
   1110c:	ffff                	0xffff
   1110e:	0000                	unimp
   11110:	00ff                	0xff
   11112:	0000                	unimp
   11114:	ff00                	fsw	fs0,56(a4)
   11116:	ffff                	0xffff
   11118:	0000                	unimp
   1111a:	0000                	unimp
   1111c:	ffff                	0xffff
   1111e:	ffff                	0xffff
   11120:	0000                	unimp
   11122:	0000                	unimp
   11124:	ff00                	fsw	fs0,56(a4)
   11126:	ffff                	0xffff
   11128:	0000                	unimp
   1112a:	0000                	unimp
   1112c:	ffff                	0xffff
   1112e:	ffff                	0xffff
   11130:	0000                	unimp
   11132:	0000                	unimp
   11134:	ff00                	fsw	fs0,56(a4)
   11136:	ffff                	0xffff
   11138:	0000                	unimp
   1113a:	0000                	unimp
   1113c:	ffff                	0xffff
   1113e:	ffff                	0xffff
   11140:	00ff                	0xff
   11142:	0000                	unimp
   11144:	00ff                	0xff
   11146:	0000                	unimp
   11148:	00ff                	0xff
   1114a:	0000                	unimp
   1114c:	00ff                	0xff
   1114e:	0000                	unimp
   11150:	00ff                	0xff
   11152:	0000                	unimp
   11154:	00ff                	0xff
   11156:	0000                	unimp
   11158:	00ff                	0xff
   1115a:	0000                	unimp
   1115c:	00ff                	0xff
   1115e:	0000                	unimp
   11160:	00ff                	0xff
   11162:	0000                	unimp
   11164:	00ff                	0xff
   11166:	0000                	unimp
   11168:	00ff                	0xff
   1116a:	0000                	unimp
   1116c:	ff00                	fsw	fs0,56(a4)
   1116e:	ffff                	0xffff
   11170:	00ff                	0xff
   11172:	0000                	unimp
   11174:	0000                	unimp
   11176:	ffff                	0xffff
   11178:	0000                	unimp
   1117a:	0000                	unimp
   1117c:	ff00                	fsw	fs0,56(a4)
   1117e:	0000                	unimp
   11180:	0000                	unimp
   11182:	0000                	unimp
   11184:	ff00                	fsw	fs0,56(a4)
   11186:	00ff                	0xff
   11188:	0000                	unimp
   1118a:	0000                	unimp
   1118c:	0000                	unimp
   1118e:	00ff                	0xff
	...
   1119c:	ff00                	fsw	fs0,56(a4)
   1119e:	0000                	unimp
   111a0:	00ff                	0xff
   111a2:	0000                	unimp
   111a4:	0000                	unimp
   111a6:	00ff                	0xff
   111a8:	0000                	unimp
   111aa:	0000                	unimp
   111ac:	00ff                	0xff
   111ae:	0000                	unimp
   111b0:	00ff                	0xff
   111b2:	0000                	unimp
   111b4:	00ff                	0xff
   111b6:	0000                	unimp
   111b8:	00ff                	0xff
   111ba:	0000                	unimp
   111bc:	00ff                	0xff
   111be:	ff00                	fsw	fs0,56(a4)
   111c0:	0000                	unimp
   111c2:	0000                	unimp
   111c4:	ff00                	fsw	fs0,56(a4)
   111c6:	0000                	unimp
   111c8:	0000                	unimp
   111ca:	0000                	unimp
   111cc:	ff00                	fsw	fs0,56(a4)
   111ce:	0000                	unimp
   111d0:	0000                	unimp
   111d2:	0000                	unimp
   111d4:	00ff                	0xff
   111d6:	0000                	unimp
   111d8:	00ff                	0xff
   111da:	0000                	unimp
   111dc:	00ff                	0xff
   111de:	0000                	unimp
   111e0:	00ff                	0xff
   111e2:	0000                	unimp
   111e4:	0000                	unimp
   111e6:	00ff                	0xff
	...
   111f0:	00ff                	0xff
   111f2:	0000                	unimp
   111f4:	00ff                	0xff
   111f6:	ff00                	fsw	fs0,56(a4)
   111f8:	0000                	unimp
   111fa:	0000                	unimp
   111fc:	ff00                	fsw	fs0,56(a4)
   111fe:	0000                	unimp
   11200:	0000                	unimp
   11202:	0000                	unimp
   11204:	ffff                	0xffff
   11206:	ff00                	fsw	fs0,56(a4)
   11208:	00ff                	0xff
   1120a:	0000                	unimp
   1120c:	ffff                	0xffff
   1120e:	0000                	unimp
   11210:	00ff                	0xff
   11212:	0000                	unimp
   11214:	00ff                	0xff
   11216:	0000                	unimp
   11218:	00ff                	0xff
   1121a:	0000                	unimp
   1121c:	00ff                	0xff
   1121e:	0000                	unimp
   11220:	00ff                	0xff
   11222:	0000                	unimp
   11224:	00ff                	0xff
   11226:	0000                	unimp
   11228:	00ff                	0xff
   1122a:	0000                	unimp
   1122c:	00ff                	0xff
   1122e:	0000                	unimp
   11230:	00ff                	0xff
   11232:	0000                	unimp
   11234:	00ff                	0xff
   11236:	0000                	unimp
   11238:	00ff                	0xff
   1123a:	0000                	unimp
   1123c:	0000                	unimp
   1123e:	00ff                	0xff
   11240:	0000                	unimp
   11242:	0000                	unimp
   11244:	00ff                	0xff
   11246:	0000                	unimp
   11248:	00ff                	0xff
   1124a:	0000                	unimp
   1124c:	00ff                	0xff
   1124e:	0000                	unimp
   11250:	00ff                	0xff
   11252:	0000                	unimp
   11254:	00ff                	0xff
   11256:	0000                	unimp
   11258:	00ff                	0xff
   1125a:	0000                	unimp
   1125c:	00ff                	0xff
   1125e:	0000                	unimp
   11260:	00ff                	0xff
   11262:	0000                	unimp
   11264:	00ff                	0xff
   11266:	0000                	unimp
   11268:	00ff                	0xff
   1126a:	0000                	unimp
   1126c:	0000                	unimp
   1126e:	0000                	unimp
   11270:	00ff                	0xff
   11272:	0000                	unimp
   11274:	0000                	unimp
   11276:	00ff                	0xff
   11278:	0000                	unimp
   1127a:	0000                	unimp
   1127c:	ff00                	fsw	fs0,56(a4)
	...
   11286:	00ff                	0xff
   11288:	0000                	unimp
   1128a:	0000                	unimp
   1128c:	ff00                	fsw	fs0,56(a4)
   1128e:	ff00                	fsw	fs0,56(a4)
	...
   1129c:	00ff                	0xff
   1129e:	ffff                	0xffff
   112a0:	ff00                	fsw	fs0,56(a4)
   112a2:	0000                	unimp
   112a4:	ff00                	fsw	fs0,56(a4)
   112a6:	ff00                	fsw	fs0,56(a4)
   112a8:	0000                	unimp
   112aa:	0000                	unimp
   112ac:	00ff                	0xff
   112ae:	0000                	unimp
   112b0:	00ff                	0xff
   112b2:	0000                	unimp
   112b4:	00ff                	0xff
   112b6:	0000                	unimp
   112b8:	0000                	unimp
   112ba:	0000                	unimp
   112bc:	00ff                	0xff
   112be:	0000                	unimp
   112c0:	00ff                	0xff
   112c2:	0000                	unimp
   112c4:	ff00                	fsw	fs0,56(a4)
   112c6:	0000                	unimp
   112c8:	0000                	unimp
   112ca:	0000                	unimp
   112cc:	ff00                	fsw	fs0,56(a4)
   112ce:	0000                	unimp
   112d0:	0000                	unimp
   112d2:	0000                	unimp
   112d4:	00ff                	0xff
   112d6:	0000                	unimp
   112d8:	0000                	unimp
   112da:	0000                	unimp
   112dc:	00ff                	0xff
   112de:	0000                	unimp
   112e0:	00ff                	0xff
   112e2:	0000                	unimp
   112e4:	0000                	unimp
   112e6:	00ff                	0xff
	...
   112f0:	00ff                	0xff
   112f2:	0000                	unimp
   112f4:	00ff                	0xff
   112f6:	00ff                	0xff
   112f8:	0000                	unimp
   112fa:	0000                	unimp
   112fc:	ff00                	fsw	fs0,56(a4)
   112fe:	0000                	unimp
   11300:	0000                	unimp
   11302:	0000                	unimp
   11304:	00ff                	0xff
   11306:	00ff                	0xff
   11308:	00ff                	0xff
   1130a:	0000                	unimp
   1130c:	00ff                	0xff
   1130e:	00ff                	0xff
   11310:	00ff                	0xff
   11312:	0000                	unimp
   11314:	00ff                	0xff
   11316:	0000                	unimp
   11318:	00ff                	0xff
   1131a:	0000                	unimp
   1131c:	00ff                	0xff
   1131e:	0000                	unimp
   11320:	00ff                	0xff
   11322:	0000                	unimp
   11324:	00ff                	0xff
   11326:	0000                	unimp
   11328:	00ff                	0xff
   1132a:	0000                	unimp
   1132c:	00ff                	0xff
   1132e:	0000                	unimp
   11330:	00ff                	0xff
   11332:	0000                	unimp
   11334:	00ff                	0xff
	...
   1133e:	00ff                	0xff
   11340:	0000                	unimp
   11342:	0000                	unimp
   11344:	00ff                	0xff
   11346:	0000                	unimp
   11348:	00ff                	0xff
   1134a:	0000                	unimp
   1134c:	00ff                	0xff
   1134e:	0000                	unimp
   11350:	00ff                	0xff
   11352:	0000                	unimp
   11354:	00ff                	0xff
   11356:	00ff                	0xff
   11358:	00ff                	0xff
   1135a:	0000                	unimp
   1135c:	ff00                	fsw	fs0,56(a4)
   1135e:	ff00                	fsw	fs0,56(a4)
   11360:	0000                	unimp
   11362:	0000                	unimp
   11364:	ff00                	fsw	fs0,56(a4)
   11366:	ff00                	fsw	fs0,56(a4)
   11368:	0000                	unimp
   1136a:	0000                	unimp
   1136c:	0000                	unimp
   1136e:	ff00                	fsw	fs0,56(a4)
   11370:	0000                	unimp
   11372:	0000                	unimp
   11374:	0000                	unimp
   11376:	00ff                	0xff
   11378:	0000                	unimp
   1137a:	0000                	unimp
   1137c:	0000                	unimp
   1137e:	00ff                	0xff
   11380:	0000                	unimp
   11382:	0000                	unimp
   11384:	0000                	unimp
   11386:	00ff                	0xff
	...
   1139c:	ffff                	0xffff
   1139e:	ff00                	fsw	fs0,56(a4)
   113a0:	ff00                	fsw	fs0,56(a4)
   113a2:	0000                	unimp
   113a4:	ff00                	fsw	fs0,56(a4)
   113a6:	ff00                	fsw	fs0,56(a4)
   113a8:	0000                	unimp
   113aa:	0000                	unimp
   113ac:	ffff                	0xffff
   113ae:	ffff                	0xffff
   113b0:	0000                	unimp
   113b2:	0000                	unimp
   113b4:	00ff                	0xff
   113b6:	0000                	unimp
   113b8:	0000                	unimp
   113ba:	0000                	unimp
   113bc:	00ff                	0xff
   113be:	0000                	unimp
   113c0:	00ff                	0xff
   113c2:	0000                	unimp
   113c4:	ff00                	fsw	fs0,56(a4)
   113c6:	ffff                	0xffff
   113c8:	0000                	unimp
   113ca:	0000                	unimp
   113cc:	ff00                	fsw	fs0,56(a4)
   113ce:	ffff                	0xffff
   113d0:	0000                	unimp
   113d2:	0000                	unimp
   113d4:	00ff                	0xff
   113d6:	ff00                	fsw	fs0,56(a4)
   113d8:	00ff                	0xff
   113da:	0000                	unimp
   113dc:	ffff                	0xffff
   113de:	ffff                	0xffff
   113e0:	00ff                	0xff
   113e2:	0000                	unimp
   113e4:	0000                	unimp
   113e6:	00ff                	0xff
	...
   113f0:	00ff                	0xff
   113f2:	0000                	unimp
   113f4:	ffff                	0xffff
   113f6:	0000                	unimp
   113f8:	0000                	unimp
   113fa:	0000                	unimp
   113fc:	ff00                	fsw	fs0,56(a4)
   113fe:	0000                	unimp
   11400:	0000                	unimp
   11402:	0000                	unimp
   11404:	00ff                	0xff
   11406:	0000                	unimp
   11408:	00ff                	0xff
   1140a:	0000                	unimp
   1140c:	00ff                	0xff
   1140e:	00ff                	0xff
   11410:	00ff                	0xff
   11412:	0000                	unimp
   11414:	00ff                	0xff
   11416:	0000                	unimp
   11418:	00ff                	0xff
   1141a:	0000                	unimp
   1141c:	ffff                	0xffff
   1141e:	ffff                	0xffff
   11420:	0000                	unimp
   11422:	0000                	unimp
   11424:	00ff                	0xff
   11426:	0000                	unimp
   11428:	00ff                	0xff
   1142a:	0000                	unimp
   1142c:	ffff                	0xffff
   1142e:	ffff                	0xffff
   11430:	0000                	unimp
   11432:	0000                	unimp
   11434:	ff00                	fsw	fs0,56(a4)
   11436:	ffff                	0xffff
   11438:	0000                	unimp
   1143a:	0000                	unimp
   1143c:	0000                	unimp
   1143e:	00ff                	0xff
   11440:	0000                	unimp
   11442:	0000                	unimp
   11444:	00ff                	0xff
   11446:	0000                	unimp
   11448:	00ff                	0xff
   1144a:	0000                	unimp
   1144c:	ff00                	fsw	fs0,56(a4)
   1144e:	ff00                	fsw	fs0,56(a4)
   11450:	0000                	unimp
   11452:	0000                	unimp
   11454:	00ff                	0xff
   11456:	00ff                	0xff
   11458:	00ff                	0xff
   1145a:	0000                	unimp
   1145c:	0000                	unimp
   1145e:	00ff                	0xff
   11460:	0000                	unimp
   11462:	0000                	unimp
   11464:	0000                	unimp
   11466:	00ff                	0xff
   11468:	0000                	unimp
   1146a:	0000                	unimp
   1146c:	0000                	unimp
   1146e:	00ff                	0xff
   11470:	0000                	unimp
   11472:	0000                	unimp
   11474:	0000                	unimp
   11476:	00ff                	0xff
   11478:	0000                	unimp
   1147a:	0000                	unimp
   1147c:	0000                	unimp
   1147e:	00ff                	0xff
   11480:	0000                	unimp
   11482:	0000                	unimp
   11484:	0000                	unimp
   11486:	00ff                	0xff
	...
   1149c:	ffff                	0xffff
   1149e:	ff00                	fsw	fs0,56(a4)
   114a0:	ff00                	fsw	fs0,56(a4)
   114a2:	0000                	unimp
   114a4:	ffff                	0xffff
   114a6:	ffff                	0xffff
   114a8:	00ff                	0xff
   114aa:	0000                	unimp
   114ac:	00ff                	0xff
   114ae:	0000                	unimp
   114b0:	00ff                	0xff
   114b2:	0000                	unimp
   114b4:	00ff                	0xff
   114b6:	0000                	unimp
   114b8:	0000                	unimp
   114ba:	0000                	unimp
   114bc:	00ff                	0xff
   114be:	0000                	unimp
   114c0:	00ff                	0xff
   114c2:	0000                	unimp
   114c4:	ff00                	fsw	fs0,56(a4)
   114c6:	0000                	unimp
   114c8:	0000                	unimp
   114ca:	0000                	unimp
   114cc:	ff00                	fsw	fs0,56(a4)
   114ce:	0000                	unimp
   114d0:	0000                	unimp
   114d2:	0000                	unimp
   114d4:	00ff                	0xff
   114d6:	0000                	unimp
   114d8:	00ff                	0xff
   114da:	0000                	unimp
   114dc:	00ff                	0xff
   114de:	0000                	unimp
   114e0:	00ff                	0xff
   114e2:	0000                	unimp
   114e4:	0000                	unimp
   114e6:	00ff                	0xff
   114e8:	0000                	unimp
   114ea:	0000                	unimp
   114ec:	00ff                	0xff
   114ee:	0000                	unimp
   114f0:	00ff                	0xff
   114f2:	0000                	unimp
   114f4:	00ff                	0xff
   114f6:	00ff                	0xff
   114f8:	0000                	unimp
   114fa:	0000                	unimp
   114fc:	ff00                	fsw	fs0,56(a4)
   114fe:	0000                	unimp
   11500:	0000                	unimp
   11502:	0000                	unimp
   11504:	00ff                	0xff
   11506:	0000                	unimp
   11508:	00ff                	0xff
   1150a:	0000                	unimp
   1150c:	00ff                	0xff
   1150e:	ff00                	fsw	fs0,56(a4)
   11510:	00ff                	0xff
   11512:	0000                	unimp
   11514:	00ff                	0xff
   11516:	0000                	unimp
   11518:	00ff                	0xff
   1151a:	0000                	unimp
   1151c:	00ff                	0xff
   1151e:	0000                	unimp
   11520:	0000                	unimp
   11522:	0000                	unimp
   11524:	00ff                	0xff
   11526:	0000                	unimp
   11528:	00ff                	0xff
   1152a:	0000                	unimp
   1152c:	00ff                	0xff
   1152e:	00ff                	0xff
	...
   11538:	00ff                	0xff
   1153a:	0000                	unimp
   1153c:	0000                	unimp
   1153e:	00ff                	0xff
   11540:	0000                	unimp
   11542:	0000                	unimp
   11544:	00ff                	0xff
   11546:	0000                	unimp
   11548:	00ff                	0xff
   1154a:	0000                	unimp
   1154c:	ff00                	fsw	fs0,56(a4)
   1154e:	ff00                	fsw	fs0,56(a4)
   11550:	0000                	unimp
   11552:	0000                	unimp
   11554:	ff00                	fsw	fs0,56(a4)
   11556:	ff00                	fsw	fs0,56(a4)
   11558:	0000                	unimp
   1155a:	0000                	unimp
   1155c:	ff00                	fsw	fs0,56(a4)
   1155e:	ff00                	fsw	fs0,56(a4)
   11560:	0000                	unimp
   11562:	0000                	unimp
   11564:	0000                	unimp
   11566:	00ff                	0xff
   11568:	0000                	unimp
   1156a:	0000                	unimp
   1156c:	ff00                	fsw	fs0,56(a4)
	...
   11576:	00ff                	0xff
   11578:	0000                	unimp
   1157a:	0000                	unimp
   1157c:	0000                	unimp
   1157e:	ff00                	fsw	fs0,56(a4)
   11580:	0000                	unimp
   11582:	0000                	unimp
   11584:	0000                	unimp
   11586:	00ff                	0xff
	...
   1159c:	00ff                	0xff
   1159e:	ffff                	0xffff
   115a0:	00ff                	0xff
   115a2:	0000                	unimp
   115a4:	00ff                	0xff
   115a6:	0000                	unimp
   115a8:	00ff                	0xff
   115aa:	0000                	unimp
   115ac:	00ff                	0xff
   115ae:	0000                	unimp
   115b0:	00ff                	0xff
   115b2:	0000                	unimp
   115b4:	00ff                	0xff
   115b6:	0000                	unimp
   115b8:	00ff                	0xff
   115ba:	0000                	unimp
   115bc:	00ff                	0xff
   115be:	ff00                	fsw	fs0,56(a4)
   115c0:	0000                	unimp
   115c2:	0000                	unimp
   115c4:	ff00                	fsw	fs0,56(a4)
   115c6:	0000                	unimp
   115c8:	0000                	unimp
   115ca:	0000                	unimp
   115cc:	ff00                	fsw	fs0,56(a4)
   115ce:	0000                	unimp
   115d0:	0000                	unimp
   115d2:	0000                	unimp
   115d4:	00ff                	0xff
   115d6:	0000                	unimp
   115d8:	00ff                	0xff
   115da:	0000                	unimp
   115dc:	00ff                	0xff
   115de:	0000                	unimp
   115e0:	00ff                	0xff
   115e2:	0000                	unimp
   115e4:	0000                	unimp
   115e6:	00ff                	0xff
   115e8:	0000                	unimp
   115ea:	0000                	unimp
   115ec:	00ff                	0xff
   115ee:	0000                	unimp
   115f0:	00ff                	0xff
   115f2:	0000                	unimp
   115f4:	00ff                	0xff
   115f6:	ff00                	fsw	fs0,56(a4)
   115f8:	0000                	unimp
   115fa:	0000                	unimp
   115fc:	ff00                	fsw	fs0,56(a4)
   115fe:	0000                	unimp
   11600:	0000                	unimp
   11602:	0000                	unimp
   11604:	00ff                	0xff
   11606:	0000                	unimp
   11608:	00ff                	0xff
   1160a:	0000                	unimp
   1160c:	00ff                	0xff
   1160e:	ff00                	fsw	fs0,56(a4)
   11610:	00ff                	0xff
   11612:	0000                	unimp
   11614:	00ff                	0xff
   11616:	0000                	unimp
   11618:	00ff                	0xff
   1161a:	0000                	unimp
   1161c:	00ff                	0xff
   1161e:	0000                	unimp
   11620:	0000                	unimp
   11622:	0000                	unimp
   11624:	00ff                	0xff
   11626:	00ff                	0xff
   11628:	00ff                	0xff
   1162a:	0000                	unimp
   1162c:	00ff                	0xff
   1162e:	ff00                	fsw	fs0,56(a4)
   11630:	0000                	unimp
   11632:	0000                	unimp
   11634:	00ff                	0xff
   11636:	0000                	unimp
   11638:	00ff                	0xff
   1163a:	0000                	unimp
   1163c:	0000                	unimp
   1163e:	00ff                	0xff
   11640:	0000                	unimp
   11642:	0000                	unimp
   11644:	00ff                	0xff
   11646:	0000                	unimp
   11648:	00ff                	0xff
   1164a:	0000                	unimp
   1164c:	0000                	unimp
   1164e:	00ff                	0xff
   11650:	0000                	unimp
   11652:	0000                	unimp
   11654:	ff00                	fsw	fs0,56(a4)
   11656:	ff00                	fsw	fs0,56(a4)
   11658:	0000                	unimp
   1165a:	0000                	unimp
   1165c:	00ff                	0xff
   1165e:	0000                	unimp
   11660:	00ff                	0xff
   11662:	0000                	unimp
   11664:	0000                	unimp
   11666:	00ff                	0xff
   11668:	0000                	unimp
   1166a:	0000                	unimp
   1166c:	ff00                	fsw	fs0,56(a4)
	...
   11676:	00ff                	0xff
   11678:	0000                	unimp
   1167a:	0000                	unimp
   1167c:	0000                	unimp
   1167e:	ff00                	fsw	fs0,56(a4)
   11680:	0000                	unimp
   11682:	0000                	unimp
   11684:	0000                	unimp
   11686:	00ff                	0xff
	...
   1169c:	ff00                	fsw	fs0,56(a4)
   1169e:	0000                	unimp
   116a0:	0000                	unimp
   116a2:	0000                	unimp
   116a4:	00ff                	0xff
   116a6:	0000                	unimp
   116a8:	00ff                	0xff
   116aa:	0000                	unimp
   116ac:	ffff                	0xffff
   116ae:	ffff                	0xffff
   116b0:	0000                	unimp
   116b2:	0000                	unimp
   116b4:	ff00                	fsw	fs0,56(a4)
   116b6:	ffff                	0xffff
   116b8:	0000                	unimp
   116ba:	0000                	unimp
   116bc:	ffff                	0xffff
   116be:	00ff                	0xff
   116c0:	0000                	unimp
   116c2:	0000                	unimp
   116c4:	ff00                	fsw	fs0,56(a4)
   116c6:	ffff                	0xffff
   116c8:	00ff                	0xff
   116ca:	0000                	unimp
   116cc:	ff00                	fsw	fs0,56(a4)
   116ce:	0000                	unimp
   116d0:	0000                	unimp
   116d2:	0000                	unimp
   116d4:	ff00                	fsw	fs0,56(a4)
   116d6:	ffff                	0xffff
   116d8:	0000                	unimp
   116da:	0000                	unimp
   116dc:	00ff                	0xff
   116de:	0000                	unimp
   116e0:	00ff                	0xff
   116e2:	0000                	unimp
   116e4:	0000                	unimp
   116e6:	00ff                	0xff
   116e8:	0000                	unimp
   116ea:	0000                	unimp
   116ec:	ff00                	fsw	fs0,56(a4)
   116ee:	ffff                	0xffff
   116f0:	0000                	unimp
   116f2:	0000                	unimp
   116f4:	00ff                	0xff
   116f6:	0000                	unimp
   116f8:	00ff                	0xff
   116fa:	0000                	unimp
   116fc:	ff00                	fsw	fs0,56(a4)
   116fe:	ffff                	0xffff
   11700:	00ff                	0xff
   11702:	0000                	unimp
   11704:	00ff                	0xff
   11706:	0000                	unimp
   11708:	00ff                	0xff
   1170a:	0000                	unimp
   1170c:	00ff                	0xff
   1170e:	0000                	unimp
   11710:	00ff                	0xff
   11712:	0000                	unimp
   11714:	ff00                	fsw	fs0,56(a4)
   11716:	ffff                	0xffff
   11718:	0000                	unimp
   1171a:	0000                	unimp
   1171c:	00ff                	0xff
   1171e:	0000                	unimp
   11720:	0000                	unimp
   11722:	0000                	unimp
   11724:	ff00                	fsw	fs0,56(a4)
   11726:	ffff                	0xffff
   11728:	0000                	unimp
   1172a:	0000                	unimp
   1172c:	00ff                	0xff
   1172e:	0000                	unimp
   11730:	00ff                	0xff
   11732:	0000                	unimp
   11734:	ff00                	fsw	fs0,56(a4)
   11736:	ffff                	0xffff
   11738:	0000                	unimp
   1173a:	0000                	unimp
   1173c:	0000                	unimp
   1173e:	00ff                	0xff
   11740:	0000                	unimp
   11742:	0000                	unimp
   11744:	ff00                	fsw	fs0,56(a4)
   11746:	ffff                	0xffff
   11748:	0000                	unimp
   1174a:	0000                	unimp
   1174c:	0000                	unimp
   1174e:	00ff                	0xff
   11750:	0000                	unimp
   11752:	0000                	unimp
   11754:	ff00                	fsw	fs0,56(a4)
   11756:	ff00                	fsw	fs0,56(a4)
   11758:	0000                	unimp
   1175a:	0000                	unimp
   1175c:	00ff                	0xff
   1175e:	0000                	unimp
   11760:	00ff                	0xff
   11762:	0000                	unimp
   11764:	0000                	unimp
   11766:	00ff                	0xff
   11768:	0000                	unimp
   1176a:	0000                	unimp
   1176c:	ff00                	fsw	fs0,56(a4)
   1176e:	ffff                	0xffff
   11770:	00ff                	0xff
   11772:	0000                	unimp
   11774:	0000                	unimp
   11776:	00ff                	0xff
	...
   11780:	00ff                	0xff
   11782:	0000                	unimp
   11784:	0000                	unimp
   11786:	00ff                	0xff
	...
   1179c:	0000                	unimp
   1179e:	ffff                	0xffff
	...
   11824:	0000                	unimp
   11826:	ff00                	fsw	fs0,56(a4)
	...
   11874:	0000                	unimp
   11876:	ffff                	0xffff
	...
   11880:	00ff                	0xff
   11882:	0000                	unimp
   11884:	ff00                	fsw	fs0,56(a4)
   11886:	00ff                	0xff
	...
   11894:	ffff                	0xffff
   11896:	ffff                	0xffff
   11898:	ffff                	0xffff
   1189a:	0000                	unimp
   1189c:	0000                	unimp
   1189e:	ffff                	0xffff
	...
   118ac:	ff00                	fsw	fs0,56(a4)
	...
   118be:	0000                	unimp
   118c0:	00ff                	0xff
	...
   118ce:	ff00                	fsw	fs0,56(a4)
   118d0:	00ff                	0xff
	...
   118da:	0000                	unimp
   118dc:	ff00                	fsw	fs0,56(a4)
	...
   118e6:	00ff                	0xff
   118e8:	0000                	unimp
   118ea:	0000                	unimp
   118ec:	0000                	unimp
   118ee:	ff00                	fsw	fs0,56(a4)
   118f0:	0000                	unimp
   118f2:	0000                	unimp
   118f4:	ff00                	fsw	fs0,56(a4)
	...
   118fe:	00ff                	0xff
	...
   1193c:	0000                	unimp
   1193e:	00ff                	0xff
	...
   11974:	0000                	unimp
   11976:	ff00                	fsw	fs0,56(a4)
   11978:	0000                	unimp
   1197a:	0000                	unimp
   1197c:	0000                	unimp
   1197e:	00ff                	0xff
   11980:	0000                	unimp
   11982:	0000                	unimp
   11984:	ff00                	fsw	fs0,56(a4)
   11986:	0000                	unimp
   11988:	0000                	unimp
   1198a:	0000                	unimp
   1198c:	ff00                	fsw	fs0,56(a4)
   1198e:	00ff                	0xff
   11990:	00ff                	0xff
   11992:	0000                	unimp
   11994:	0000                	unimp
   11996:	ffff                	0xffff
   11998:	0000                	unimp
   1199a:	0000                	unimp
   1199c:	ff00                	fsw	fs0,56(a4)
	...
   119aa:	0000                	unimp
   119ac:	ff00                	fsw	fs0,56(a4)
	...
   119be:	0000                	unimp
   119c0:	00ff                	0xff
	...
   119ce:	00ff                	0xff
	...
   119dc:	ff00                	fsw	fs0,56(a4)
	...
   119f2:	0000                	unimp
   119f4:	ff00                	fsw	fs0,56(a4)
	...
   119fe:	00ff                	0xff
	...
   11a3c:	0000                	unimp
   11a3e:	00ff                	0xff
	...
   11a74:	0000                	unimp
   11a76:	00ff                	0xff
   11a78:	0000                	unimp
   11a7a:	0000                	unimp
   11a7c:	0000                	unimp
   11a7e:	00ff                	0xff
   11a80:	0000                	unimp
   11a82:	0000                	unimp
   11a84:	0000                	unimp
   11a86:	00ff                	0xff
   11a88:	0000                	unimp
   11a8a:	0000                	unimp
   11a8c:	00ff                	0xff
   11a8e:	ffff                	0xffff
   11a90:	0000                	unimp
   11a92:	0000                	unimp
   11a94:	ff00                	fsw	fs0,56(a4)
   11a96:	0000                	unimp
   11a98:	00ff                	0xff
   11a9a:	0000                	unimp
   11a9c:	ff00                	fsw	fs0,56(a4)
	...
   11aa6:	ffff                	0xffff
   11aa8:	0000                	unimp
   11aaa:	0000                	unimp
   11aac:	ff00                	fsw	fs0,56(a4)
   11aae:	ffff                	0xffff
   11ab0:	0000                	unimp
   11ab2:	0000                	unimp
   11ab4:	0000                	unimp
   11ab6:	ffff                	0xffff
   11ab8:	0000                	unimp
   11aba:	0000                	unimp
   11abc:	0000                	unimp
   11abe:	ffff                	0xffff
   11ac0:	00ff                	0xff
   11ac2:	0000                	unimp
   11ac4:	0000                	unimp
   11ac6:	ffff                	0xffff
   11ac8:	0000                	unimp
   11aca:	0000                	unimp
   11acc:	ff00                	fsw	fs0,56(a4)
   11ace:	ffff                	0xffff
   11ad0:	0000                	unimp
   11ad2:	0000                	unimp
   11ad4:	0000                	unimp
   11ad6:	ffff                	0xffff
   11ad8:	00ff                	0xff
   11ada:	0000                	unimp
   11adc:	ff00                	fsw	fs0,56(a4)
   11ade:	ffff                	0xffff
   11ae0:	0000                	unimp
   11ae2:	0000                	unimp
   11ae4:	0000                	unimp
   11ae6:	00ff                	0xff
   11ae8:	0000                	unimp
   11aea:	0000                	unimp
   11aec:	0000                	unimp
   11aee:	ff00                	fsw	fs0,56(a4)
   11af0:	0000                	unimp
   11af2:	0000                	unimp
   11af4:	ff00                	fsw	fs0,56(a4)
   11af6:	0000                	unimp
   11af8:	00ff                	0xff
   11afa:	0000                	unimp
   11afc:	0000                	unimp
   11afe:	00ff                	0xff
   11b00:	0000                	unimp
   11b02:	0000                	unimp
   11b04:	ffff                	0xffff
   11b06:	ff00                	fsw	fs0,56(a4)
   11b08:	0000                	unimp
   11b0a:	0000                	unimp
   11b0c:	ff00                	fsw	fs0,56(a4)
   11b0e:	ffff                	0xffff
   11b10:	0000                	unimp
   11b12:	0000                	unimp
   11b14:	0000                	unimp
   11b16:	ffff                	0xffff
   11b18:	0000                	unimp
   11b1a:	0000                	unimp
   11b1c:	ff00                	fsw	fs0,56(a4)
   11b1e:	ffff                	0xffff
   11b20:	0000                	unimp
   11b22:	0000                	unimp
   11b24:	0000                	unimp
   11b26:	ffff                	0xffff
   11b28:	00ff                	0xff
   11b2a:	0000                	unimp
   11b2c:	ff00                	fsw	fs0,56(a4)
   11b2e:	ff00                	fsw	fs0,56(a4)
   11b30:	00ff                	0xff
   11b32:	0000                	unimp
   11b34:	0000                	unimp
   11b36:	ffff                	0xffff
   11b38:	00ff                	0xff
   11b3a:	0000                	unimp
   11b3c:	ff00                	fsw	fs0,56(a4)
   11b3e:	ffff                	0xffff
   11b40:	0000                	unimp
   11b42:	0000                	unimp
   11b44:	ff00                	fsw	fs0,56(a4)
   11b46:	0000                	unimp
   11b48:	00ff                	0xff
   11b4a:	0000                	unimp
   11b4c:	00ff                	0xff
   11b4e:	0000                	unimp
   11b50:	00ff                	0xff
   11b52:	0000                	unimp
   11b54:	00ff                	0xff
   11b56:	0000                	unimp
   11b58:	00ff                	0xff
   11b5a:	0000                	unimp
   11b5c:	00ff                	0xff
   11b5e:	0000                	unimp
   11b60:	00ff                	0xff
   11b62:	0000                	unimp
   11b64:	00ff                	0xff
   11b66:	0000                	unimp
   11b68:	00ff                	0xff
   11b6a:	0000                	unimp
   11b6c:	ff00                	fsw	fs0,56(a4)
   11b6e:	ffff                	0xffff
   11b70:	00ff                	0xff
   11b72:	0000                	unimp
   11b74:	0000                	unimp
   11b76:	00ff                	0xff
   11b78:	0000                	unimp
   11b7a:	0000                	unimp
   11b7c:	0000                	unimp
   11b7e:	00ff                	0xff
   11b80:	0000                	unimp
   11b82:	0000                	unimp
   11b84:	0000                	unimp
   11b86:	00ff                	0xff
	...
   11b94:	00ff                	0xff
   11b96:	ffff                	0xffff
   11b98:	ff00                	fsw	fs0,56(a4)
   11b9a:	0000                	unimp
   11b9c:	ffff                	0xffff
   11b9e:	00ff                	0xff
	...
   11ba8:	00ff                	0xff
   11baa:	0000                	unimp
   11bac:	ff00                	fsw	fs0,56(a4)
   11bae:	0000                	unimp
   11bb0:	00ff                	0xff
   11bb2:	0000                	unimp
   11bb4:	ff00                	fsw	fs0,56(a4)
   11bb6:	0000                	unimp
   11bb8:	00ff                	0xff
   11bba:	0000                	unimp
   11bbc:	ff00                	fsw	fs0,56(a4)
   11bbe:	0000                	unimp
   11bc0:	00ff                	0xff
   11bc2:	0000                	unimp
   11bc4:	ff00                	fsw	fs0,56(a4)
   11bc6:	0000                	unimp
   11bc8:	00ff                	0xff
   11bca:	0000                	unimp
   11bcc:	0000                	unimp
   11bce:	00ff                	0xff
   11bd0:	0000                	unimp
   11bd2:	0000                	unimp
   11bd4:	ff00                	fsw	fs0,56(a4)
   11bd6:	0000                	unimp
   11bd8:	00ff                	0xff
   11bda:	0000                	unimp
   11bdc:	ff00                	fsw	fs0,56(a4)
   11bde:	0000                	unimp
   11be0:	00ff                	0xff
   11be2:	0000                	unimp
   11be4:	0000                	unimp
   11be6:	00ff                	0xff
   11be8:	0000                	unimp
   11bea:	0000                	unimp
   11bec:	0000                	unimp
   11bee:	ff00                	fsw	fs0,56(a4)
   11bf0:	0000                	unimp
   11bf2:	0000                	unimp
   11bf4:	ff00                	fsw	fs0,56(a4)
   11bf6:	ff00                	fsw	fs0,56(a4)
   11bf8:	0000                	unimp
   11bfa:	0000                	unimp
   11bfc:	0000                	unimp
   11bfe:	00ff                	0xff
   11c00:	0000                	unimp
   11c02:	0000                	unimp
   11c04:	00ff                	0xff
   11c06:	00ff                	0xff
   11c08:	00ff                	0xff
   11c0a:	0000                	unimp
   11c0c:	ff00                	fsw	fs0,56(a4)
   11c0e:	0000                	unimp
   11c10:	00ff                	0xff
   11c12:	0000                	unimp
   11c14:	ff00                	fsw	fs0,56(a4)
   11c16:	0000                	unimp
   11c18:	00ff                	0xff
   11c1a:	0000                	unimp
   11c1c:	ff00                	fsw	fs0,56(a4)
   11c1e:	0000                	unimp
   11c20:	00ff                	0xff
   11c22:	0000                	unimp
   11c24:	ff00                	fsw	fs0,56(a4)
   11c26:	0000                	unimp
   11c28:	00ff                	0xff
   11c2a:	0000                	unimp
   11c2c:	ff00                	fsw	fs0,56(a4)
   11c2e:	00ff                	0xff
   11c30:	0000                	unimp
   11c32:	0000                	unimp
   11c34:	ff00                	fsw	fs0,56(a4)
	...
   11c3e:	00ff                	0xff
   11c40:	0000                	unimp
   11c42:	0000                	unimp
   11c44:	ff00                	fsw	fs0,56(a4)
   11c46:	0000                	unimp
   11c48:	00ff                	0xff
   11c4a:	0000                	unimp
   11c4c:	ff00                	fsw	fs0,56(a4)
   11c4e:	ff00                	fsw	fs0,56(a4)
   11c50:	0000                	unimp
   11c52:	0000                	unimp
   11c54:	00ff                	0xff
   11c56:	0000                	unimp
   11c58:	00ff                	0xff
   11c5a:	0000                	unimp
   11c5c:	ff00                	fsw	fs0,56(a4)
   11c5e:	ff00                	fsw	fs0,56(a4)
   11c60:	0000                	unimp
   11c62:	0000                	unimp
   11c64:	ff00                	fsw	fs0,56(a4)
   11c66:	ff00                	fsw	fs0,56(a4)
   11c68:	0000                	unimp
   11c6a:	0000                	unimp
   11c6c:	0000                	unimp
   11c6e:	ff00                	fsw	fs0,56(a4)
   11c70:	0000                	unimp
   11c72:	0000                	unimp
   11c74:	ff00                	fsw	fs0,56(a4)
	...
   11c86:	ff00                	fsw	fs0,56(a4)
	...
   11c94:	ffff                	0xffff
   11c96:	0000                	unimp
   11c98:	ff00                	fsw	fs0,56(a4)
   11c9a:	0000                	unimp
   11c9c:	ff00                	fsw	fs0,56(a4)
	...
   11ca6:	ffff                	0xffff
   11ca8:	00ff                	0xff
   11caa:	0000                	unimp
   11cac:	ff00                	fsw	fs0,56(a4)
   11cae:	0000                	unimp
   11cb0:	00ff                	0xff
   11cb2:	0000                	unimp
   11cb4:	ff00                	fsw	fs0,56(a4)
   11cb6:	0000                	unimp
   11cb8:	0000                	unimp
   11cba:	0000                	unimp
   11cbc:	ff00                	fsw	fs0,56(a4)
   11cbe:	0000                	unimp
   11cc0:	00ff                	0xff
   11cc2:	0000                	unimp
   11cc4:	ff00                	fsw	fs0,56(a4)
   11cc6:	ffff                	0xffff
   11cc8:	00ff                	0xff
   11cca:	0000                	unimp
   11ccc:	0000                	unimp
   11cce:	00ff                	0xff
   11cd0:	0000                	unimp
   11cd2:	0000                	unimp
   11cd4:	ff00                	fsw	fs0,56(a4)
   11cd6:	0000                	unimp
   11cd8:	00ff                	0xff
   11cda:	0000                	unimp
   11cdc:	ff00                	fsw	fs0,56(a4)
   11cde:	0000                	unimp
   11ce0:	00ff                	0xff
   11ce2:	0000                	unimp
   11ce4:	0000                	unimp
   11ce6:	00ff                	0xff
   11ce8:	0000                	unimp
   11cea:	0000                	unimp
   11cec:	0000                	unimp
   11cee:	ff00                	fsw	fs0,56(a4)
   11cf0:	0000                	unimp
   11cf2:	0000                	unimp
   11cf4:	ff00                	fsw	fs0,56(a4)
   11cf6:	00ff                	0xff
   11cf8:	0000                	unimp
   11cfa:	0000                	unimp
   11cfc:	0000                	unimp
   11cfe:	00ff                	0xff
   11d00:	0000                	unimp
   11d02:	0000                	unimp
   11d04:	00ff                	0xff
   11d06:	00ff                	0xff
   11d08:	00ff                	0xff
   11d0a:	0000                	unimp
   11d0c:	ff00                	fsw	fs0,56(a4)
   11d0e:	0000                	unimp
   11d10:	00ff                	0xff
   11d12:	0000                	unimp
   11d14:	ff00                	fsw	fs0,56(a4)
   11d16:	0000                	unimp
   11d18:	00ff                	0xff
   11d1a:	0000                	unimp
   11d1c:	ff00                	fsw	fs0,56(a4)
   11d1e:	0000                	unimp
   11d20:	00ff                	0xff
   11d22:	0000                	unimp
   11d24:	ff00                	fsw	fs0,56(a4)
   11d26:	0000                	unimp
   11d28:	00ff                	0xff
   11d2a:	0000                	unimp
   11d2c:	ff00                	fsw	fs0,56(a4)
	...
   11d36:	ffff                	0xffff
   11d38:	0000                	unimp
   11d3a:	0000                	unimp
   11d3c:	0000                	unimp
   11d3e:	00ff                	0xff
   11d40:	0000                	unimp
   11d42:	0000                	unimp
   11d44:	ff00                	fsw	fs0,56(a4)
   11d46:	0000                	unimp
   11d48:	00ff                	0xff
   11d4a:	0000                	unimp
   11d4c:	ff00                	fsw	fs0,56(a4)
   11d4e:	ff00                	fsw	fs0,56(a4)
   11d50:	0000                	unimp
   11d52:	0000                	unimp
   11d54:	00ff                	0xff
   11d56:	00ff                	0xff
   11d58:	00ff                	0xff
   11d5a:	0000                	unimp
   11d5c:	0000                	unimp
   11d5e:	00ff                	0xff
   11d60:	0000                	unimp
   11d62:	0000                	unimp
   11d64:	ff00                	fsw	fs0,56(a4)
   11d66:	ff00                	fsw	fs0,56(a4)
   11d68:	0000                	unimp
   11d6a:	0000                	unimp
   11d6c:	0000                	unimp
   11d6e:	00ff                	0xff
   11d70:	0000                	unimp
   11d72:	0000                	unimp
   11d74:	0000                	unimp
   11d76:	00ff                	0xff
	...
   11d84:	0000                	unimp
   11d86:	00ff                	0xff
	...
   11d94:	ffff                	0xffff
   11d96:	0000                	unimp
   11d98:	ff00                	fsw	fs0,56(a4)
   11d9a:	0000                	unimp
   11d9c:	ff00                	fsw	fs0,56(a4)
   11d9e:	0000                	unimp
   11da0:	00ff                	0xff
   11da2:	0000                	unimp
   11da4:	ff00                	fsw	fs0,56(a4)
   11da6:	0000                	unimp
   11da8:	00ff                	0xff
   11daa:	0000                	unimp
   11dac:	ff00                	fsw	fs0,56(a4)
   11dae:	0000                	unimp
   11db0:	00ff                	0xff
   11db2:	0000                	unimp
   11db4:	ff00                	fsw	fs0,56(a4)
   11db6:	0000                	unimp
   11db8:	00ff                	0xff
   11dba:	0000                	unimp
   11dbc:	ff00                	fsw	fs0,56(a4)
   11dbe:	0000                	unimp
   11dc0:	00ff                	0xff
   11dc2:	0000                	unimp
   11dc4:	ff00                	fsw	fs0,56(a4)
	...
   11dce:	00ff                	0xff
   11dd0:	0000                	unimp
   11dd2:	0000                	unimp
   11dd4:	0000                	unimp
   11dd6:	ffff                	0xffff
   11dd8:	00ff                	0xff
   11dda:	0000                	unimp
   11ddc:	ff00                	fsw	fs0,56(a4)
   11dde:	0000                	unimp
   11de0:	00ff                	0xff
   11de2:	0000                	unimp
   11de4:	0000                	unimp
   11de6:	00ff                	0xff
   11de8:	0000                	unimp
   11dea:	0000                	unimp
   11dec:	0000                	unimp
   11dee:	ff00                	fsw	fs0,56(a4)
   11df0:	0000                	unimp
   11df2:	0000                	unimp
   11df4:	ff00                	fsw	fs0,56(a4)
   11df6:	ff00                	fsw	fs0,56(a4)
   11df8:	0000                	unimp
   11dfa:	0000                	unimp
   11dfc:	0000                	unimp
   11dfe:	00ff                	0xff
   11e00:	0000                	unimp
   11e02:	0000                	unimp
   11e04:	00ff                	0xff
   11e06:	00ff                	0xff
   11e08:	00ff                	0xff
   11e0a:	0000                	unimp
   11e0c:	ff00                	fsw	fs0,56(a4)
   11e0e:	0000                	unimp
   11e10:	00ff                	0xff
   11e12:	0000                	unimp
   11e14:	ff00                	fsw	fs0,56(a4)
   11e16:	0000                	unimp
   11e18:	00ff                	0xff
   11e1a:	0000                	unimp
   11e1c:	ff00                	fsw	fs0,56(a4)
   11e1e:	ffff                	0xffff
   11e20:	0000                	unimp
   11e22:	0000                	unimp
   11e24:	0000                	unimp
   11e26:	ffff                	0xffff
   11e28:	00ff                	0xff
   11e2a:	0000                	unimp
   11e2c:	ff00                	fsw	fs0,56(a4)
	...
   11e36:	0000                	unimp
   11e38:	00ff                	0xff
   11e3a:	0000                	unimp
   11e3c:	0000                	unimp
   11e3e:	00ff                	0xff
   11e40:	0000                	unimp
   11e42:	0000                	unimp
   11e44:	ff00                	fsw	fs0,56(a4)
   11e46:	0000                	unimp
   11e48:	00ff                	0xff
   11e4a:	0000                	unimp
   11e4c:	0000                	unimp
   11e4e:	00ff                	0xff
   11e50:	0000                	unimp
   11e52:	0000                	unimp
   11e54:	ff00                	fsw	fs0,56(a4)
   11e56:	ff00                	fsw	fs0,56(a4)
   11e58:	0000                	unimp
   11e5a:	0000                	unimp
   11e5c:	ff00                	fsw	fs0,56(a4)
   11e5e:	ff00                	fsw	fs0,56(a4)
   11e60:	0000                	unimp
   11e62:	0000                	unimp
   11e64:	0000                	unimp
   11e66:	00ff                	0xff
   11e68:	0000                	unimp
   11e6a:	0000                	unimp
   11e6c:	ff00                	fsw	fs0,56(a4)
	...
   11e76:	00ff                	0xff
   11e78:	0000                	unimp
   11e7a:	0000                	unimp
   11e7c:	0000                	unimp
   11e7e:	00ff                	0xff
   11e80:	0000                	unimp
   11e82:	0000                	unimp
   11e84:	0000                	unimp
   11e86:	00ff                	0xff
	...
   11e94:	00ff                	0xff
   11e96:	ffff                	0xffff
   11e98:	ff00                	fsw	fs0,56(a4)
   11e9a:	0000                	unimp
   11e9c:	ffff                	0xffff
   11e9e:	ffff                	0xffff
   11ea0:	0000                	unimp
   11ea2:	0000                	unimp
   11ea4:	0000                	unimp
   11ea6:	ffff                	0xffff
   11ea8:	00ff                	0xff
   11eaa:	0000                	unimp
   11eac:	ff00                	fsw	fs0,56(a4)
   11eae:	ffff                	0xffff
   11eb0:	0000                	unimp
   11eb2:	0000                	unimp
   11eb4:	0000                	unimp
   11eb6:	ffff                	0xffff
   11eb8:	0000                	unimp
   11eba:	0000                	unimp
   11ebc:	0000                	unimp
   11ebe:	ffff                	0xffff
   11ec0:	00ff                	0xff
   11ec2:	0000                	unimp
   11ec4:	0000                	unimp
   11ec6:	ffff                	0xffff
   11ec8:	0000                	unimp
   11eca:	0000                	unimp
   11ecc:	0000                	unimp
   11ece:	00ff                	0xff
	...
   11ed8:	00ff                	0xff
   11eda:	0000                	unimp
   11edc:	ff00                	fsw	fs0,56(a4)
   11ede:	0000                	unimp
   11ee0:	00ff                	0xff
   11ee2:	0000                	unimp
   11ee4:	0000                	unimp
   11ee6:	00ff                	0xff
   11ee8:	0000                	unimp
   11eea:	0000                	unimp
   11eec:	0000                	unimp
   11eee:	ff00                	fsw	fs0,56(a4)
   11ef0:	0000                	unimp
   11ef2:	0000                	unimp
   11ef4:	ff00                	fsw	fs0,56(a4)
   11ef6:	0000                	unimp
   11ef8:	00ff                	0xff
   11efa:	0000                	unimp
   11efc:	0000                	unimp
   11efe:	ff00                	fsw	fs0,56(a4)
   11f00:	0000                	unimp
   11f02:	0000                	unimp
   11f04:	00ff                	0xff
   11f06:	00ff                	0xff
   11f08:	00ff                	0xff
   11f0a:	0000                	unimp
   11f0c:	ff00                	fsw	fs0,56(a4)
   11f0e:	0000                	unimp
   11f10:	00ff                	0xff
   11f12:	0000                	unimp
   11f14:	0000                	unimp
   11f16:	ffff                	0xffff
   11f18:	0000                	unimp
   11f1a:	0000                	unimp
   11f1c:	ff00                	fsw	fs0,56(a4)
	...
   11f26:	0000                	unimp
   11f28:	00ff                	0xff
   11f2a:	0000                	unimp
   11f2c:	ff00                	fsw	fs0,56(a4)
   11f2e:	0000                	unimp
   11f30:	0000                	unimp
   11f32:	0000                	unimp
   11f34:	ff00                	fsw	fs0,56(a4)
   11f36:	ffff                	0xffff
   11f38:	0000                	unimp
   11f3a:	0000                	unimp
   11f3c:	0000                	unimp
   11f3e:	ff00                	fsw	fs0,56(a4)
   11f40:	0000                	unimp
   11f42:	0000                	unimp
   11f44:	0000                	unimp
   11f46:	ffff                	0xffff
   11f48:	0000                	unimp
   11f4a:	0000                	unimp
   11f4c:	0000                	unimp
   11f4e:	00ff                	0xff
   11f50:	0000                	unimp
   11f52:	0000                	unimp
   11f54:	ff00                	fsw	fs0,56(a4)
   11f56:	ff00                	fsw	fs0,56(a4)
   11f58:	0000                	unimp
   11f5a:	0000                	unimp
   11f5c:	00ff                	0xff
   11f5e:	0000                	unimp
   11f60:	00ff                	0xff
   11f62:	0000                	unimp
   11f64:	0000                	unimp
   11f66:	00ff                	0xff
   11f68:	0000                	unimp
   11f6a:	0000                	unimp
   11f6c:	ff00                	fsw	fs0,56(a4)
   11f6e:	ffff                	0xffff
   11f70:	00ff                	0xff
   11f72:	0000                	unimp
   11f74:	0000                	unimp
   11f76:	00ff                	0xff
   11f78:	0000                	unimp
   11f7a:	0000                	unimp
   11f7c:	0000                	unimp
   11f7e:	00ff                	0xff
   11f80:	0000                	unimp
   11f82:	0000                	unimp
   11f84:	0000                	unimp
   11f86:	00ff                	0xff
	...
   11f94:	ff00                	fsw	fs0,56(a4)
   11f96:	0000                	unimp
   11f98:	00ff                	0xff
	...
   11fd6:	ffff                	0xffff
	...
   11fec:	ff00                	fsw	fs0,56(a4)
   11fee:	00ff                	0xff
	...
   1201c:	ff00                	fsw	fs0,56(a4)
	...
   12026:	0000                	unimp
   12028:	00ff                	0xff
	...
   12062:	0000                	unimp
   12064:	ffff                	0xffff
	...
   12076:	ff00                	fsw	fs0,56(a4)
   12078:	0000                	unimp
   1207a:	0000                	unimp
   1207c:	0000                	unimp
   1207e:	00ff                	0xff
   12080:	0000                	unimp
   12082:	0000                	unimp
   12084:	ff00                	fsw	fs0,56(a4)
	...
   12096:	ffff                	0xffff
   12098:	0000                	unimp
	...

Disassembly of section .eh_frame:

0001309c <__EH_FRAME_BEGIN__>:
   1309c:	0010                	0x10
   1309e:	0000                	unimp
   130a0:	0000                	unimp
   130a2:	0000                	unimp
   130a4:	00527a03          	0x527a03
   130a8:	7c01                	lui	s8,0xfffe0
   130aa:	0101                	addi	sp,sp,0
   130ac:	00020d1b          	0x20d1b
   130b0:	0018                	0x18
   130b2:	0000                	unimp
   130b4:	0018                	0x18
   130b6:	0000                	unimp
   130b8:	cfbc                	sw	a5,88(a5)
   130ba:	ffff                	0xffff
   130bc:	014c                	addi	a1,sp,132
   130be:	0000                	unimp
   130c0:	4400                	lw	s0,8(s0)
   130c2:	100e                	c.slli	zero,0x23
   130c4:	8154                	0x8154
   130c6:	8801                	andi	s0,s0,0
   130c8:	8902                	jr	s2
   130ca:	00100003          	lb	zero,1(zero) # 1 <main-0x10073>
   130ce:	0000                	unimp
   130d0:	0034                	addi	a3,sp,8
   130d2:	0000                	unimp
   130d4:	d1d8                	sw	a4,36(a1)
   130d6:	ffff                	0xffff
   130d8:	002c                	addi	a1,sp,8
   130da:	0000                	unimp
   130dc:	0000                	unimp
   130de:	0000                	unimp
   130e0:	0018                	0x18
   130e2:	0000                	unimp
   130e4:	0048                	addi	a0,sp,4
   130e6:	0000                	unimp
   130e8:	d1f0                	sw	a2,100(a1)
   130ea:	ffff                	0xffff
   130ec:	0034                	addi	a3,sp,8
   130ee:	0000                	unimp
   130f0:	5400                	lw	s0,40(s0)
   130f2:	100e                	c.slli	zero,0x23
   130f4:	8150                	0x8150
   130f6:	4801                	li	a6,0
   130f8:	44c1                	li	s1,16
   130fa:	000e                	c.slli	zero,0x3
   130fc:	0010                	0x10
   130fe:	0000                	unimp
   13100:	0064                	addi	s1,sp,12
   13102:	0000                	unimp
   13104:	d0bc                	sw	a5,96(s1)
   13106:	ffff                	0xffff
   13108:	001c                	0x1c
   1310a:	0000                	unimp
   1310c:	0000                	unimp
	...

00013110 <__FRAME_END__>:
   13110:	0000                	unimp
	...

Disassembly of section .init_array:

00013114 <__init_array_start>:
   13114:	01dc                	addi	a5,sp,196
   13116:	0001                	nop

00013118 <__frame_dummy_init_array_entry>:
   13118:	028c                	addi	a1,sp,320
   1311a:	0001                	nop
   1311c:	01c0                	addi	s0,sp,196
   1311e:	0001                	nop

Disassembly of section .fini_array:

00013120 <__do_global_dtors_aux_fini_array_entry>:
   13120:	0240                	addi	s0,sp,260
   13122:	0001                	nop

Disassembly of section .data:

00013128 <IO_UARTTX>:
   13128:	000c                	0xc
   1312a:	8000                	0x8000

0001312c <GraphicsFontStart>:
   1312c:	e800                	fsw	fs0,16(s0)
   1312e:	1001                	c.nop	-32

00013130 <IO_GPUCommandFIFO>:
   13130:	0000                	unimp
   13132:	8000                	0x8000
   13134:	0000                	unimp
	...

00013138 <impure_data>:
   13138:	0000                	unimp
   1313a:	0000                	unimp
   1313c:	3424                	fld	fs1,104(s0)
   1313e:	0001                	nop
   13140:	348c                	fld	fa1,40(s1)
   13142:	0001                	nop
   13144:	34f4                	fld	fa3,232(s1)
   13146:	0001                	nop
	...
   131e0:	0001                	nop
   131e2:	0000                	unimp
   131e4:	0000                	unimp
   131e6:	0000                	unimp
   131e8:	330e                	fld	ft6,224(sp)
   131ea:	abcd                	j	137dc <__BSS_END__+0x238>
   131ec:	1234                	addi	a3,sp,296
   131ee:	e66d                	bnez	a2,132d8 <impure_data+0x1a0>
   131f0:	deec                	sw	a1,124(a3)
   131f2:	0005                	c.nop	1
   131f4:	0000000b          	0xb
	...

Disassembly of section .got:

00013560 <.got>:
   13560:	ffff                	0xffff
   13562:	ffff                	0xffff
   13564:	0000                	unimp
	...

00013568 <_GLOBAL_OFFSET_TABLE_>:
   13568:	0000                	unimp
   1356a:	0000                	unimp
   1356c:	3130                	fld	fa2,96(a0)
   1356e:	0001                	nop
   13570:	312c                	fld	fa1,96(a0)
   13572:	0001                	nop
   13574:	35a0                	fld	fs0,104(a1)
   13576:	0001                	nop
   13578:	3128                	fld	fa0,96(a0)
   1357a:	0001                	nop

Disassembly of section .sdata:

0001357c <_global_impure_ptr>:
   1357c:	3138                	fld	fa4,96(a0)
   1357e:	0001                	nop

00013580 <_impure_ptr>:
   13580:	3138                	fld	fa4,96(a0)
   13582:	0001                	nop

Disassembly of section .bss:

00013584 <completed.1>:
   13584:	0000                	unimp
	...

00013588 <object.0>:
	...

000135a0 <font>:
   135a0:	0000                	unimp
	...

Disassembly of section .comment:

00000000 <.comment>:
   0:	3a434347          	fmsub.d	ft6,ft6,ft4,ft7,rmm
   4:	2820                	fld	fs0,80(s0)
   6:	29554e47          	fmsub.s	ft8,fa0,fs5,ft5,rmm
   a:	3120                	fld	fs0,96(a0)
   c:	2e30                	fld	fa2,88(a2)
   e:	2e32                	fld	ft8,264(sp)
  10:	0030                	addi	a2,sp,8

Disassembly of section .riscv.attributes:

00000000 <.riscv.attributes>:
   0:	1f41                	addi	t5,t5,-16
   2:	0000                	unimp
   4:	7200                	flw	fs0,32(a2)
   6:	7369                	lui	t1,0xffffa
   8:	01007663          	bgeu	zero,a6,14 <main-0x10060>
   c:	0015                	c.nop	5
   e:	0000                	unimp
  10:	1004                	addi	s1,sp,32
  12:	7205                	lui	tp,0xfffe1
  14:	3376                	fld	ft6,376(sp)
  16:	6932                	flw	fs2,12(sp)
  18:	7032                	flw	ft0,44(sp)
  1a:	0030                	addi	a2,sp,8
  1c:	0108                	addi	a0,sp,128
  1e:	0b0a                	slli	s6,s6,0x2

Disassembly of section .debug_aranges:

00000000 <.debug_aranges>:
   0:	001c                	0x1c
   2:	0000                	unimp
   4:	0002                	c.slli64	zero
   6:	0000                	unimp
   8:	0000                	unimp
   a:	0004                	0x4
	...

Disassembly of section .debug_info:

00000000 <.debug_info>:
   0:	09a2                	slli	s3,s3,0x8
   2:	0000                	unimp
   4:	0004                	0x4
   6:	0000                	unimp
   8:	0000                	unimp
   a:	0104                	addi	s1,sp,128
   c:	00a6                	slli	ra,ra,0x9
   e:	0000                	unimp
  10:	910c                	0x910c
  12:	0001                	nop
  14:	2900                	fld	fs0,16(a0)
	...
  22:	0000                	unimp
  24:	0200                	addi	s0,sp,256
  26:	0708                	addi	a0,sp,896
  28:	000001cb          	fnmsub.s	ft3,ft0,ft0,ft0,rne
  2c:	69050403          	lb	s0,1680(a0)
  30:	746e                	flw	fs0,248(sp)
  32:	0200                	addi	s0,sp,256
  34:	0704                	addi	s1,sp,896
  36:	01d5                	addi	gp,gp,21
  38:	0000                	unimp
  3a:	0802                	c.slli64	a6
  3c:	bd05                	j	fffffe6c <__global_pointer$+0xfffec544>
  3e:	0001                	nop
  40:	0200                	addi	s0,sp,256
  42:	0410                	addi	a2,sp,512
  44:	0281                	addi	t0,t0,0
  46:	0000                	unimp
  48:	0102                	c.slli64	sp
  4a:	f306                	fsw	ft1,164(sp)
  4c:	0001                	nop
  4e:	0200                	addi	s0,sp,256
  50:	0801                	addi	a6,a6,0
  52:	01f1                	addi	gp,gp,28
  54:	0000                	unimp
  56:	0202                	c.slli64	tp
  58:	9c05                	0x9c05
  5a:	0000                	unimp
  5c:	0200                	addi	s0,sp,256
  5e:	0702                	c.slli64	a4
  60:	0224                	addi	s1,sp,264
  62:	0000                	unimp
  64:	0402                	c.slli64	s0
  66:	c205                	beqz	a2,86 <main-0xffee>
  68:	0001                	nop
  6a:	0200                	addi	s0,sp,256
  6c:	0704                	addi	s1,sp,896
  6e:	01d0                	addi	a2,sp,196
  70:	0000                	unimp
  72:	0102                	c.slli64	sp
  74:	fa08                	fsw	fa0,48(a2)
  76:	0001                	nop
  78:	0400                	addi	s0,sp,512
  7a:	00000213          	li	tp,0
  7e:	7b02                	flw	fs6,32(sp)
  80:	4f16                	lw	t5,68(sp)
  82:	0000                	unimp
  84:	0500                	addi	s0,sp,640
  86:	0079                	c.nop	30
  88:	0000                	unimp
  8a:	8e04                	0x8e04
  8c:	0002                	c.slli64	zero
  8e:	0200                	addi	s0,sp,256
  90:	0f80                	addi	s0,sp,976
  92:	002c                	addi	a1,sp,8
  94:	0000                	unimp
  96:	8d04                	0x8d04
  98:	0002                	c.slli64	zero
  9a:	0200                	addi	s0,sp,256
  9c:	1681                	addi	a3,a3,-32
  9e:	00000033          	add	zero,zero,zero
  a2:	3804                	fld	fs1,48(s0)
  a4:	0002                	c.slli64	zero
  a6:	0200                	addi	s0,sp,256
  a8:	0f84                	addi	s1,sp,976
  aa:	003a                	c.slli	zero,0xe
  ac:	0000                	unimp
  ae:	3704                	fld	fs1,40(a4)
  b0:	0002                	c.slli64	zero
  b2:	0200                	addi	s0,sp,256
  b4:	1685                	addi	a3,a3,-31
  b6:	0025                	c.nop	9
  b8:	0000                	unimp
  ba:	0402                	c.slli64	s0
  bc:	1a04                	addi	s1,sp,304
  be:	0000                	unimp
  c0:	0200                	addi	s0,sp,256
  c2:	0308                	addi	a0,sp,384
  c4:	0012                	c.slli	zero,0x4
  c6:	0000                	unimp
  c8:	0802                	c.slli64	a6
  ca:	8604                	0x8604
  cc:	0002                	c.slli64	zero
  ce:	0200                	addi	s0,sp,256
  d0:	0310                	addi	a2,sp,384
  d2:	0258                	addi	a4,sp,260
  d4:	0000                	unimp
  d6:	2002                	fld	ft0,0(sp)
  d8:	00027903          	0x27903
  dc:	0600                	addi	s0,sp,768
  de:	0000021b          	0x21b
  e2:	0208                	addi	a0,sp,256
  e4:	01ed                	addi	gp,gp,27
  e6:	080a                	slli	a6,a6,0x2
  e8:	0001                	nop
  ea:	0700                	addi	s0,sp,896
  ec:	6f6c                	flw	fa1,92(a4)
  ee:	ed020077          	0xed020077
  f2:	1a01                	addi	s4,s4,-32
  f4:	008a                	slli	ra,ra,0x2
  f6:	0000                	unimp
  f8:	0800                	addi	s0,sp,16
  fa:	01e2                	slli	gp,gp,0x18
  fc:	0000                	unimp
  fe:	ed02                	fsw	ft0,152(sp)
 100:	1f01                	addi	t5,t5,-32
 102:	008a                	slli	ra,ra,0x2
 104:	0000                	unimp
 106:	0004                	0x4
 108:	0809                	addi	a6,a6,2
 10a:	f402                	fsw	ft0,40(sp)
 10c:	0901                	addi	s2,s2,0
 10e:	012a                	slli	sp,sp,0xa
 110:	0000                	unimp
 112:	730a                	flw	ft6,160(sp)
 114:	0200                	addi	s0,sp,256
 116:	01f6                	slli	gp,gp,0x1d
 118:	0000dd13          	srli	s10,ra,0x0
 11c:	0a00                	addi	s0,sp,272
 11e:	6c6c                	flw	fa1,92(s0)
 120:	0200                	addi	s0,sp,256
 122:	a20a01f7          	0xa20a01f7
 126:	0000                	unimp
 128:	0000                	unimp
 12a:	0000000b          	0xb
 12e:	0200                	addi	s0,sp,256
 130:	01f8                	addi	a4,sp,204
 132:	00010803          	lb	a6,0(sp)
 136:	0500                	addi	s0,sp,640
 138:	012a                	slli	sp,sp,0xa
 13a:	0000                	unimp
 13c:	850c                	0x850c
 13e:	0000                	unimp
 140:	4c00                	lw	s0,24(s0)
 142:	0001                	nop
 144:	0d00                	addi	s0,sp,656
 146:	00000033          	add	zero,zero,zero
 14a:	00ff                	0xff
 14c:	3c05                	jal	fffffb7c <__global_pointer$+0xfffec254>
 14e:	0001                	nop
 150:	0e00                	addi	s0,sp,784
 152:	000001e7          	jalr	gp,zero # 0 <main-0x10074>
 156:	0202                	c.slli64	tp
 158:	1602                	slli	a2,a2,0x20
 15a:	014c                	addi	a1,sp,132
 15c:	0000                	unimp
 15e:	0000080f          	0x80f
 162:	0100                	addi	s0,sp,128
 164:	0526                	slli	a0,a0,0x9
 166:	ae01                	j	476 <main-0xfbfe>
	...
 170:	0000                	unimp
 172:	0100                	addi	s0,sp,128
 174:	979c                	0x979c
 176:	0005                	c.nop	1
 178:	1000                	addi	s0,sp,32
 17a:	006e                	c.slli	zero,0x1b
 17c:	2601                	jal	47c <main-0xfbf8>
 17e:	1405                	addi	s0,s0,-31
 180:	00ae                	slli	ra,ra,0xb
 182:	0000                	unimp
 184:	0000                	unimp
 186:	0000                	unimp
 188:	6410                	flw	fa2,8(s0)
 18a:	0100                	addi	s0,sp,128
 18c:	0526                	slli	a0,a0,0x9
 18e:	ae1f 0000 7800      	0x78000000ae1f
 194:	0000                	unimp
 196:	1100                	addi	s0,sp,160
 198:	00000597          	auipc	a1,0x0
	...
 1a4:	2801                	jal	1b4 <main-0xfec0>
 1a6:	0a05                	addi	s4,s4,1
 1a8:	bf12                	fsd	ft4,440(sp)
 1aa:	0005                	c.nop	1
 1ac:	1000                	addi	s0,sp,32
 1ae:	0001                	nop
 1b0:	1200                	addi	s0,sp,288
 1b2:	05b4                	addi	a3,sp,712
 1b4:	0000                	unimp
 1b6:	0130                	addi	a2,sp,136
 1b8:	0000                	unimp
 1ba:	a912                	fsd	ft4,144(sp)
 1bc:	0005                	c.nop	1
 1be:	9800                	0x9800
 1c0:	0001                	nop
 1c2:	1300                	addi	s0,sp,416
 1c4:	0000                	unimp
 1c6:	0000                	unimp
 1c8:	cb14                	sw	a3,16(a4)
 1ca:	0005                	c.nop	1
 1cc:	1400                	addi	s0,sp,544
 1ce:	000005d7          	0x5d7
 1d2:	e314                	fsw	fa3,0(a4)
 1d4:	0005                	c.nop	1
 1d6:	1500                	addi	s0,sp,672
 1d8:	000005ef          	jal	a1,1d8 <main-0xfe9c>
 1dc:	0200                	addi	s0,sp,256
 1de:	0000                	unimp
 1e0:	fb15                	bnez	a4,114 <main-0xff60>
 1e2:	0005                	c.nop	1
 1e4:	9100                	0x9100
 1e6:	0002                	c.slli64	zero
 1e8:	1500                	addi	s0,sp,672
 1ea:	00000607          	0x607
 1ee:	02e6                	slli	t0,t0,0x19
 1f0:	0000                	unimp
 1f2:	1315                	addi	t1,t1,-27
 1f4:	0006                	c.slli	zero,0x1
 1f6:	5600                	lw	s0,40(a2)
 1f8:	15000003          	lb	zero,336(zero) # 150 <main-0xff24>
 1fc:	061f 0000 03b6      	0x3b60000061f
 202:	0000                	unimp
 204:	2b15                	jal	738 <main-0xf93c>
 206:	0006                	c.slli	zero,0x1
 208:	df00                	sw	s0,56(a4)
 20a:	15000003          	lb	zero,336(zero) # 150 <main-0xff24>
 20e:	00000637          	lui	a2,0x0
 212:	03fd                	addi	t2,t2,31
 214:	0000                	unimp
 216:	4315                	li	t1,5
 218:	0006                	c.slli	zero,0x1
 21a:	2700                	fld	fs0,8(a4)
 21c:	0004                	0x4
 21e:	1500                	addi	s0,sp,672
 220:	064e                	slli	a2,a2,0x13
 222:	0000                	unimp
 224:	0445                	addi	s0,s0,17
 226:	0000                	unimp
 228:	5a14                	lw	a3,48(a2)
 22a:	0006                	c.slli	zero,0x1
 22c:	1600                	addi	s0,sp,800
 22e:	0666                	slli	a2,a2,0x19
 230:	0000                	unimp
 232:	0028                	addi	a0,sp,8
 234:	0000                	unimp
 236:	024d                	addi	tp,tp,19
 238:	0000                	unimp
 23a:	6b15                	lui	s6,0x5
 23c:	0006                	c.slli	zero,0x1
 23e:	8400                	0x8400
 240:	0004                	0x4
 242:	1500                	addi	s0,sp,672
 244:	0678                	addi	a4,sp,780
 246:	0000                	unimp
 248:	04c0                	addi	s0,sp,580
 24a:	0000                	unimp
 24c:	1700                	addi	s0,sp,928
 24e:	0686                	slli	a3,a3,0x1
	...
 258:	0000                	unimp
 25a:	02d4                	addi	a3,sp,324
 25c:	0000                	unimp
 25e:	8b15                	andi	a4,a4,5
 260:	0006                	c.slli	zero,0x1
 262:	d300                	sw	s0,32(a4)
 264:	0004                	0x4
 266:	1500                	addi	s0,sp,672
 268:	0698                	addi	a4,sp,832
 26a:	0000                	unimp
 26c:	04e6                	slli	s1,s1,0x19
 26e:	0000                	unimp
 270:	a515                	j	894 <main-0xf7e0>
 272:	0006                	c.slli	zero,0x1
 274:	f900                	fsw	fs0,48(a0)
 276:	0004                	0x4
 278:	1500                	addi	s0,sp,672
 27a:	06b2                	slli	a3,a3,0xc
 27c:	0000                	unimp
 27e:	00000517          	auipc	a0,0x0
 282:	bf15                	j	1b6 <main-0xfebe>
 284:	0006                	c.slli	zero,0x1
 286:	3500                	fld	fs0,40(a0)
 288:	0005                	c.nop	1
 28a:	1500                	addi	s0,sp,672
 28c:	06cc                	addi	a1,sp,836
 28e:	0000                	unimp
 290:	0000057b          	0x57b
 294:	d915                	beqz	a0,1c8 <main-0xfeac>
 296:	0006                	c.slli	zero,0x1
 298:	9900                	0x9900
 29a:	0005                	c.nop	1
 29c:	1800                	addi	s0,sp,48
 29e:	0000                	unimp
 2a0:	0000                	unimp
 2a2:	098a                	slli	s3,s3,0x2
 2a4:	0000                	unimp
 2a6:	0018                	0x18
 2a8:	0000                	unimp
 2aa:	9300                	0x9300
 2ac:	0009                	c.nop	2
 2ae:	1800                	addi	s0,sp,48
 2b0:	0000                	unimp
 2b2:	0000                	unimp
 2b4:	099c                	addi	a5,sp,208
 2b6:	0000                	unimp
 2b8:	0018                	0x18
 2ba:	0000                	unimp
 2bc:	8a00                	0x8a00
 2be:	0009                	c.nop	2
 2c0:	1800                	addi	s0,sp,48
 2c2:	0000                	unimp
 2c4:	0000                	unimp
 2c6:	00000993          	li	s3,0
 2ca:	0018                	0x18
 2cc:	0000                	unimp
 2ce:	9c00                	0x9c00
 2d0:	0009                	c.nop	2
 2d2:	0000                	unimp
 2d4:	fc16                	fsw	ft5,56(sp)
 2d6:	48000007          	0x48000007
 2da:	0000                	unimp
 2dc:	4100                	lw	s0,0(a0)
 2de:	0004                	0x4
 2e0:	1500                	addi	s0,sp,672
 2e2:	07fd                	addi	a5,a5,31
 2e4:	0000                	unimp
 2e6:	000005b7          	lui	a1,0x0
 2ea:	0915                	addi	s2,s2,5
 2ec:	0008                	0x8
 2ee:	ca00                	sw	s0,16(a2)
 2f0:	0005                	c.nop	1
 2f2:	1600                	addi	s0,sp,800
 2f4:	0815                	addi	a6,a6,5
 2f6:	0000                	unimp
 2f8:	0060                	addi	s0,sp,12
 2fa:	0000                	unimp
 2fc:	0376                	slli	t1,t1,0x1d
 2fe:	0000                	unimp
 300:	1a15                	addi	s4,s4,-27
 302:	0008                	0x8
 304:	0b00                	addi	s0,sp,400
 306:	0006                	c.slli	zero,0x1
 308:	1500                	addi	s0,sp,672
 30a:	00000827          	0x827
 30e:	062d                	addi	a2,a2,11
 310:	0000                	unimp
 312:	3415                	jal	fffffd36 <__global_pointer$+0xfffec40e>
 314:	0008                	0x8
 316:	4000                	lw	s0,0(s0)
 318:	0006                	c.slli	zero,0x1
 31a:	1500                	addi	s0,sp,672
 31c:	0841                	addi	a6,a6,16
 31e:	0000                	unimp
 320:	0674                	addi	a3,sp,780
 322:	0000                	unimp
 324:	4e15                	li	t3,5
 326:	0008                	0x8
 328:	a800                	fsd	fs0,16(s0)
 32a:	0006                	c.slli	zero,0x1
 32c:	1500                	addi	s0,sp,672
 32e:	0000085b          	0x85b
 332:	06ee                	slli	a3,a3,0x1b
 334:	0000                	unimp
 336:	6815                	lui	a6,0x5
 338:	0008                	0x8
 33a:	3600                	fld	fs0,40(a2)
 33c:	18000007          	0x18000007
 340:	0000                	unimp
 342:	0000                	unimp
 344:	098a                	slli	s3,s3,0x2
 346:	0000                	unimp
 348:	0018                	0x18
 34a:	0000                	unimp
 34c:	9300                	0x9300
 34e:	0009                	c.nop	2
 350:	1800                	addi	s0,sp,48
 352:	0000                	unimp
 354:	0000                	unimp
 356:	099c                	addi	a5,sp,208
 358:	0000                	unimp
 35a:	0018                	0x18
 35c:	0000                	unimp
 35e:	8a00                	0x8a00
 360:	0009                	c.nop	2
 362:	1800                	addi	s0,sp,48
 364:	0000                	unimp
 366:	0000                	unimp
 368:	00000993          	li	s3,0
 36c:	0018                	0x18
 36e:	0000                	unimp
 370:	9c00                	0x9c00
 372:	0009                	c.nop	2
 374:	0000                	unimp
 376:	7619                	lui	a2,0xfffe6
 378:	0008                	0x8
 37a:	8800                	0x8800
 37c:	0000                	unimp
 37e:	1500                	addi	s0,sp,672
 380:	0000087b          	0x87b
 384:	0754                	addi	a3,sp,900
 386:	0000                	unimp
 388:	8815                	andi	s0,s0,5
 38a:	0008                	0x8
 38c:	7200                	flw	fs0,32(a2)
 38e:	15000007          	0x15000007
 392:	0895                	addi	a7,a7,5
 394:	0000                	unimp
 396:	07ad                	addi	a5,a5,11
 398:	0000                	unimp
 39a:	a215                	j	4be <main-0xfbb6>
 39c:	0008                	0x8
 39e:	c000                	sw	s0,0(s0)
 3a0:	15000007          	0x15000007
 3a4:	000008af          	0x8af
 3a8:	07de                	slli	a5,a5,0x17
 3aa:	0000                	unimp
 3ac:	bc15                	j	fffffde0 <__global_pointer$+0xfffec4b8>
 3ae:	0008                	0x8
 3b0:	3100                	fld	fs0,32(a0)
 3b2:	0008                	0x8
 3b4:	1500                	addi	s0,sp,672
 3b6:	08c9                	addi	a7,a7,18
 3b8:	0000                	unimp
 3ba:	0844                	addi	s1,sp,20
 3bc:	0000                	unimp
 3be:	d615                	beqz	a2,2ea <main-0xfd8a>
 3c0:	0008                	0x8
 3c2:	5700                	lw	s0,40(a4)
 3c4:	0008                	0x8
 3c6:	1700                	addi	s0,sp,928
 3c8:	000008e3          	beqz	zero,bd8 <main-0xf49c>
	...
 3d4:	000003e7          	jalr	t2,zero # 0 <main-0x10074>
 3d8:	e81a                	fsw	ft6,16(sp)
 3da:	0008                	0x8
 3dc:	0100                	addi	s0,sp,128
 3de:	1a5a                	slli	s4,s4,0x36
 3e0:	08f5                	addi	a7,a7,29
 3e2:	0000                	unimp
 3e4:	5b01                	li	s6,-32
 3e6:	1700                	addi	s0,sp,928
 3e8:	00000903          	lb	s2,0(zero) # 0 <main-0x10074>
	...
 3f4:	00000407          	0x407
 3f8:	081a                	slli	a6,a6,0x6
 3fa:	0009                	c.nop	2
 3fc:	0100                	addi	s0,sp,128
 3fe:	1a5a                	slli	s4,s4,0x36
 400:	0915                	addi	s2,s2,5
 402:	0000                	unimp
 404:	5b01                	li	s6,-32
 406:	1700                	addi	s0,sp,928
 408:	00000923          	sb	zero,18(zero) # 12 <main-0x10062>
	...
 414:	00000427          	0x427
 418:	281a                	fld	fa6,384(sp)
 41a:	0009                	c.nop	2
 41c:	0100                	addi	s0,sp,128
 41e:	1a5a                	slli	s4,s4,0x36
 420:	0935                	addi	s2,s2,13
 422:	0000                	unimp
 424:	5b01                	li	s6,-32
 426:	1900                	addi	s0,sp,176
 428:	00000943          	fmadd.s	fs2,ft0,ft0,ft0,rne
 42c:	00b8                	addi	a4,sp,72
 42e:	0000                	unimp
 430:	441a                	lw	s0,132(sp)
 432:	0009                	c.nop	2
 434:	0100                	addi	s0,sp,128
 436:	1a5a                	slli	s4,s4,0x36
 438:	0951                	addi	s2,s2,20
 43a:	0000                	unimp
 43c:	5b01                	li	s6,-32
 43e:	0000                	unimp
 440:	1600                	addi	s0,sp,800
 442:	000006e7          	jalr	a3,zero # 0 <main-0x10074>
 446:	00d0                	addi	a2,sp,68
 448:	0000                	unimp
 44a:	0461                	addi	s0,s0,24
 44c:	0000                	unimp
 44e:	ec15                	bnez	s0,48a <main-0xfbea>
 450:	0006                	c.slli	zero,0x1
 452:	6a00                	flw	fs0,16(a2)
 454:	0008                	0x8
 456:	1500                	addi	s0,sp,672
 458:	06f9                	addi	a3,a3,30
 45a:	0000                	unimp
 45c:	0890                	addi	a2,sp,80
 45e:	0000                	unimp
 460:	1700                	addi	s0,sp,928
 462:	0768                	addi	a0,sp,908
	...
 46c:	0000                	unimp
 46e:	04e8                	addi	a0,sp,588
 470:	0000                	unimp
 472:	6d15                	lui	s10,0x5
 474:	ae000007          	0xae000007
 478:	0008                	0x8
 47a:	1500                	addi	s0,sp,672
 47c:	077a                	slli	a4,a4,0x1e
 47e:	0000                	unimp
 480:	08c1                	addi	a7,a7,16
 482:	0000                	unimp
 484:	8715                	srai	a4,a4,0x5
 486:	d4000007          	0xd4000007
 48a:	0008                	0x8
 48c:	1500                	addi	s0,sp,672
 48e:	0794                	addi	a3,sp,960
 490:	0000                	unimp
 492:	08f2                	slli	a7,a7,0x1c
 494:	0000                	unimp
 496:	a115                	j	8ba <main-0xf7ba>
 498:	10000007          	0x10000007
 49c:	0009                	c.nop	2
 49e:	1500                	addi	s0,sp,672
 4a0:	07ae                	slli	a5,a5,0xb
 4a2:	0000                	unimp
 4a4:	0956                	slli	s2,s2,0x15
 4a6:	0000                	unimp
 4a8:	bb15                	j	1dc <main-0xfe98>
 4aa:	7f000007          	0x7f000007
 4ae:	0009                	c.nop	2
 4b0:	1800                	addi	s0,sp,48
 4b2:	0000                	unimp
 4b4:	0000                	unimp
 4b6:	098a                	slli	s3,s3,0x2
 4b8:	0000                	unimp
 4ba:	0018                	0x18
 4bc:	0000                	unimp
 4be:	9300                	0x9300
 4c0:	0009                	c.nop	2
 4c2:	1800                	addi	s0,sp,48
 4c4:	0000                	unimp
 4c6:	0000                	unimp
 4c8:	099c                	addi	a5,sp,208
 4ca:	0000                	unimp
 4cc:	0018                	0x18
 4ce:	0000                	unimp
 4d0:	8a00                	0x8a00
 4d2:	0009                	c.nop	2
 4d4:	1800                	addi	s0,sp,48
 4d6:	0000                	unimp
 4d8:	0000                	unimp
 4da:	00000993          	li	s3,0
 4de:	0018                	0x18
 4e0:	0000                	unimp
 4e2:	9c00                	0x9c00
 4e4:	0009                	c.nop	2
 4e6:	0000                	unimp
 4e8:	0716                	slli	a4,a4,0x5
 4ea:	e8000007          	0xe8000007
 4ee:	0000                	unimp
 4f0:	6b00                	flw	fs0,16(a4)
 4f2:	0005                	c.nop	1
 4f4:	1500                	addi	s0,sp,672
 4f6:	070c                	addi	a1,sp,896
 4f8:	0000                	unimp
 4fa:	099d                	addi	s3,s3,7
 4fc:	0000                	unimp
 4fe:	1915                	addi	s2,s2,-27
 500:	bf000007          	0xbf000007
 504:	0009                	c.nop	2
 506:	1500                	addi	s0,sp,672
 508:	0726                	slli	a4,a4,0x9
 50a:	0000                	unimp
 50c:	09d2                	slli	s3,s3,0x14
 50e:	0000                	unimp
 510:	3315                	jal	234 <main-0xfe40>
 512:	06000007          	0x6000007
 516:	000a                	c.slli	zero,0x2
 518:	1500                	addi	s0,sp,672
 51a:	0740                	addi	s0,sp,900
 51c:	0000                	unimp
 51e:	0a3a                	slli	s4,s4,0xe
 520:	0000                	unimp
 522:	4d15                	li	s10,5
 524:	80000007          	0x80000007
 528:	000a                	c.slli	zero,0x2
 52a:	1500                	addi	s0,sp,672
 52c:	075a                	slli	a4,a4,0x16
 52e:	0000                	unimp
 530:	0abd                	addi	s5,s5,15
 532:	0000                	unimp
 534:	0018                	0x18
 536:	0000                	unimp
 538:	8a00                	0x8a00
 53a:	0009                	c.nop	2
 53c:	1800                	addi	s0,sp,48
 53e:	0000                	unimp
 540:	0000                	unimp
 542:	00000993          	li	s3,0
 546:	0018                	0x18
 548:	0000                	unimp
 54a:	9c00                	0x9c00
 54c:	0009                	c.nop	2
 54e:	1800                	addi	s0,sp,48
 550:	0000                	unimp
 552:	0000                	unimp
 554:	098a                	slli	s3,s3,0x2
 556:	0000                	unimp
 558:	0018                	0x18
 55a:	0000                	unimp
 55c:	9300                	0x9300
 55e:	0009                	c.nop	2
 560:	1800                	addi	s0,sp,48
 562:	0000                	unimp
 564:	0000                	unimp
 566:	099c                	addi	a5,sp,208
 568:	0000                	unimp
 56a:	1600                	addi	s0,sp,800
 56c:	07c9                	addi	a5,a5,18
 56e:	0000                	unimp
 570:	0100                	addi	s0,sp,128
 572:	0000                	unimp
 574:	0000058b          	0x58b
 578:	ce15                	beqz	a2,5b4 <main-0xfac0>
 57a:	db000007          	0xdb000007
 57e:	000a                	c.slli	zero,0x2
 580:	1500                	addi	s0,sp,672
 582:	000007db          	0x7db
 586:	0aee                	slli	s5,s5,0x1b
 588:	0000                	unimp
 58a:	1800                	addi	s0,sp,48
 58c:	0000                	unimp
 58e:	0000                	unimp
 590:	00000993          	li	s3,0
 594:	0000                	unimp
 596:	1b00                	addi	s0,sp,432
 598:	026c                	addi	a1,sp,268
 59a:	0000                	unimp
 59c:	f701                	bnez	a4,4a4 <main-0xfbd0>
 59e:	00ae0103          	lb	sp,10(t3) # 1a00a <__global_pointer$+0x66e2>
 5a2:	0000                	unimp
 5a4:	00098403          	lb	s0,0(s3)
 5a8:	1c00                	addi	s0,sp,560
 5aa:	006e                	c.slli	zero,0x1b
 5ac:	f701                	bnez	a4,4b4 <main-0xfbc0>
 5ae:	00ae1703          	lh	a4,10(t3)
 5b2:	0000                	unimp
 5b4:	641c                	flw	fa5,8(s0)
 5b6:	0100                	addi	s0,sp,128
 5b8:	ae2203f7          	0xae2203f7
 5bc:	0000                	unimp
 5be:	1c00                	addi	s0,sp,560
 5c0:	7072                	flw	ft0,60(sp)
 5c2:	0100                	addi	s0,sp,128
 5c4:	842e03f7          	0x842e03f7
 5c8:	0009                	c.nop	2
 5ca:	1d00                	addi	s0,sp,688
 5cc:	6e6e                	flw	ft8,216(sp)
 5ce:	0100                	addi	s0,sp,128
 5d0:	03f9                	addi	t2,t2,30
 5d2:	3711                	jal	4d6 <main-0xfb9e>
 5d4:	0001                	nop
 5d6:	1d00                	addi	s0,sp,688
 5d8:	6464                	flw	fs1,76(s0)
 5da:	0100                	addi	s0,sp,128
 5dc:	03fa                	slli	t2,t2,0x1e
 5de:	3711                	jal	4e2 <main-0xfb92>
 5e0:	0001                	nop
 5e2:	1d00                	addi	s0,sp,688
 5e4:	7272                	flw	ft4,60(sp)
 5e6:	0100                	addi	s0,sp,128
 5e8:	2a0b03fb          	0x2a0b03fb
 5ec:	0001                	nop
 5ee:	1d00                	addi	s0,sp,688
 5f0:	3064                	fld	fs1,224(s0)
 5f2:	0100                	addi	s0,sp,128
 5f4:	03fc                	addi	a5,sp,460
 5f6:	960a                	add	a2,a2,sp
 5f8:	0000                	unimp
 5fa:	1d00                	addi	s0,sp,688
 5fc:	3164                	fld	fs1,224(a0)
 5fe:	0100                	addi	s0,sp,128
 600:	03fc                	addi	a5,sp,460
 602:	960e                	add	a2,a2,gp
 604:	0000                	unimp
 606:	1d00                	addi	s0,sp,688
 608:	306e                	fld	ft0,248(sp)
 60a:	0100                	addi	s0,sp,128
 60c:	03fc                	addi	a5,sp,460
 60e:	9612                	add	a2,a2,tp
 610:	0000                	unimp
 612:	1d00                	addi	s0,sp,688
 614:	316e                	fld	ft2,248(sp)
 616:	0100                	addi	s0,sp,128
 618:	03fc                	addi	a5,sp,460
 61a:	9616                	add	a2,a2,t0
 61c:	0000                	unimp
 61e:	1d00                	addi	s0,sp,688
 620:	326e                	fld	ft4,248(sp)
 622:	0100                	addi	s0,sp,128
 624:	03fc                	addi	a5,sp,460
 626:	961a                	add	a2,a2,t1
 628:	0000                	unimp
 62a:	1d00                	addi	s0,sp,688
 62c:	3071                	jal	fffffeb8 <__global_pointer$+0xfffec590>
 62e:	0100                	addi	s0,sp,128
 630:	03fd                	addi	t2,t2,31
 632:	960a                	add	a2,a2,sp
 634:	0000                	unimp
 636:	1d00                	addi	s0,sp,688
 638:	3171                	jal	2c4 <main-0xfdb0>
 63a:	0100                	addi	s0,sp,128
 63c:	03fd                	addi	t2,t2,31
 63e:	960e                	add	a2,a2,gp
 640:	0000                	unimp
 642:	1d00                	addi	s0,sp,688
 644:	0062                	c.slli	zero,0x18
 646:	fe01                	bnez	a2,55e <main-0xfb16>
 648:	00960a03          	lb	s4,9(a2) # fffe6009 <__global_pointer$+0xfffd26e1>
 64c:	0000                	unimp
 64e:	621d                	lui	tp,0x7
 650:	006d                	c.nop	27
 652:	fe01                	bnez	a2,56a <main-0xfb0a>
 654:	00960d03          	lb	s10,9(a2)
 658:	0000                	unimp
 65a:	771d                	lui	a4,0xfffe7
 65c:	c7010077          	0xc7010077
 660:	1104                	addi	s1,sp,160
 662:	00000137          	lui	sp,0x0
 666:	861e                	mv	a2,t2
 668:	0006                	c.slli	zero,0x1
 66a:	1f00                	addi	s0,sp,944
 66c:	0295                	addi	t0,t0,5
 66e:	0000                	unimp
 670:	2e01                	jal	980 <main-0xf6f4>
 672:	0404                	addi	s1,sp,512
 674:	0096                	slli	ra,ra,0x5
 676:	0000                	unimp
 678:	5f1d                	li	t5,-25
 67a:	615f 0100 042e      	0x42e0100615f
 680:	9604                	0x9604
 682:	0000                	unimp
 684:	0000                	unimp
 686:	e71e                	fsw	ft7,140(sp)
 688:	0006                	c.slli	zero,0x1
 68a:	1f00                	addi	s0,sp,944
 68c:	0249                	addi	tp,tp,18
 68e:	0000                	unimp
 690:	3a01                	jal	ffffffa0 <__global_pointer$+0xfffec678>
 692:	0404                	addi	s1,sp,512
 694:	0096                	slli	ra,ra,0x5
 696:	0000                	unimp
 698:	971f 0000 0100      	0x1000000971f
 69e:	043a                	slli	s0,s0,0xe
 6a0:	9604                	0x9604
 6a2:	0000                	unimp
 6a4:	1f00                	addi	s0,sp,944
 6a6:	0244                	addi	s1,sp,260
 6a8:	0000                	unimp
 6aa:	3a01                	jal	ffffffba <__global_pointer$+0xfffec692>
 6ac:	0404                	addi	s1,sp,512
 6ae:	0096                	slli	ra,ra,0x5
 6b0:	0000                	unimp
 6b2:	3f1f 0002 0100      	0x10000023f1f
 6b8:	043a                	slli	s0,s0,0xe
 6ba:	9604                	0x9604
 6bc:	0000                	unimp
 6be:	1f00                	addi	s0,sp,944
 6c0:	029f 0000 3a01      	0x3a010000029f
 6c6:	0404                	addi	s1,sp,512
 6c8:	0096                	slli	ra,ra,0x5
 6ca:	0000                	unimp
 6cc:	9a1f 0002 0100      	0x10000029a1f
 6d2:	043a                	slli	s0,s0,0xe
 6d4:	9604                	0x9604
 6d6:	0000                	unimp
 6d8:	1d00                	addi	s0,sp,688
 6da:	5f5f 006d 3a01      	0x3a01006d5f5f
 6e0:	0404                	addi	s1,sp,512
 6e2:	0096                	slli	ra,ra,0x5
 6e4:	0000                	unimp
 6e6:	1e00                	addi	s0,sp,816
 6e8:	00000707          	0x707
 6ec:	951f 0002 0100      	0x1000002951f
 6f2:	0446                	slli	s0,s0,0x11
 6f4:	9604                	0x9604
 6f6:	0000                	unimp
 6f8:	1d00                	addi	s0,sp,688
 6fa:	5f5f 0061 4601      	0x460100615f5f
 700:	0404                	addi	s1,sp,512
 702:	0096                	slli	ra,ra,0x5
 704:	0000                	unimp
 706:	1e00                	addi	s0,sp,816
 708:	0768                	addi	a0,sp,908
 70a:	0000                	unimp
 70c:	491f 0002 0100      	0x1000002491f
 712:	045f 9608 0000      	0x9608045f
 718:	1f00                	addi	s0,sp,944
 71a:	00000097          	auipc	ra,0x0
 71e:	5f01                	li	t5,-32
 720:	0804                	addi	s1,sp,16
 722:	0096                	slli	ra,ra,0x5
 724:	0000                	unimp
 726:	441f 0002 0100      	0x1000002441f
 72c:	045f 9608 0000      	0x9608045f
 732:	1f00                	addi	s0,sp,944
 734:	0000023f 08045f01 	0x8045f010000023f
 73c:	0096                	slli	ra,ra,0x5
 73e:	0000                	unimp
 740:	9f1f 0002 0100      	0x10000029f1f
 746:	045f 9608 0000      	0x9608045f
 74c:	1f00                	addi	s0,sp,944
 74e:	029a                	slli	t0,t0,0x6
 750:	0000                	unimp
 752:	5f01                	li	t5,-32
 754:	0804                	addi	s1,sp,16
 756:	0096                	slli	ra,ra,0x5
 758:	0000                	unimp
 75a:	5f1d                	li	t5,-25
 75c:	6d5f 0100 045f      	0x45f01006d5f
 762:	9608                	0x9608
 764:	0000                	unimp
 766:	0000                	unimp
 768:	c91e                	sw	t2,144(sp)
 76a:	1f000007          	0x1f000007
 76e:	0249                	addi	tp,tp,18
 770:	0000                	unimp
 772:	6401                	0x6401
 774:	0404                	addi	s1,sp,512
 776:	0096                	slli	ra,ra,0x5
 778:	0000                	unimp
 77a:	971f 0000 0100      	0x1000000971f
 780:	0464                	addi	s1,sp,524
 782:	9604                	0x9604
 784:	0000                	unimp
 786:	1f00                	addi	s0,sp,944
 788:	0244                	addi	s1,sp,260
 78a:	0000                	unimp
 78c:	6401                	0x6401
 78e:	0404                	addi	s1,sp,512
 790:	0096                	slli	ra,ra,0x5
 792:	0000                	unimp
 794:	3f1f 0002 0100      	0x10000023f1f
 79a:	0464                	addi	s1,sp,524
 79c:	9604                	0x9604
 79e:	0000                	unimp
 7a0:	1f00                	addi	s0,sp,944
 7a2:	029f 0000 6401      	0x64010000029f
 7a8:	0404                	addi	s1,sp,512
 7aa:	0096                	slli	ra,ra,0x5
 7ac:	0000                	unimp
 7ae:	9a1f 0002 0100      	0x10000029a1f
 7b4:	0464                	addi	s1,sp,524
 7b6:	9604                	0x9604
 7b8:	0000                	unimp
 7ba:	1d00                	addi	s0,sp,688
 7bc:	5f5f 006d 6401      	0x6401006d5f5f
 7c2:	0404                	addi	s1,sp,512
 7c4:	0096                	slli	ra,ra,0x5
 7c6:	0000                	unimp
 7c8:	1e00                	addi	s0,sp,816
 7ca:	07e9                	addi	a5,a5,26
 7cc:	0000                	unimp
 7ce:	951f 0002 0100      	0x1000002951f
 7d4:	96040487          	0x96040487
 7d8:	0000                	unimp
 7da:	1d00                	addi	s0,sp,688
 7dc:	5f5f 0061 8701      	0x870100615f5f
 7e2:	0404                	addi	s1,sp,512
 7e4:	0096                	slli	ra,ra,0x5
 7e6:	0000                	unimp
 7e8:	1e00                	addi	s0,sp,816
 7ea:	07fc                	addi	a5,sp,972
 7ec:	0000                	unimp
 7ee:	5f1d                	li	t5,-25
 7f0:	785f 0100 0495      	0x4950100785f
 7f6:	9605                	srai	a2,a2,0x21
 7f8:	0000                	unimp
 7fa:	0000                	unimp
 7fc:	1d20                	addi	s0,sp,696
 7fe:	316d                	jal	4a8 <main-0xfbcc>
 800:	0100                	addi	s0,sp,128
 802:	04a5                	addi	s1,s1,9
 804:	0000960f          	0x960f
 808:	1d00                	addi	s0,sp,688
 80a:	306d                	jal	b4 <main-0xffc0>
 80c:	0100                	addi	s0,sp,128
 80e:	04a5                	addi	s1,s1,9
 810:	00009613          	slli	a2,ra,0x0
 814:	1e00                	addi	s0,sp,816
 816:	0876                	slli	a6,a6,0x1d
 818:	0000                	unimp
 81a:	491f 0002 0100      	0x1000002491f
 820:	04b0                	addi	a2,sp,584
 822:	9608                	0x9608
 824:	0000                	unimp
 826:	1f00                	addi	s0,sp,944
 828:	00000097          	auipc	ra,0x0
 82c:	b001                	j	2c <main-0x10048>
 82e:	0804                	addi	s1,sp,16
 830:	0096                	slli	ra,ra,0x5
 832:	0000                	unimp
 834:	441f 0002 0100      	0x1000002441f
 83a:	04b0                	addi	a2,sp,584
 83c:	9608                	0x9608
 83e:	0000                	unimp
 840:	1f00                	addi	s0,sp,944
 842:	0000023f 0804b001 	0x804b0010000023f
 84a:	0096                	slli	ra,ra,0x5
 84c:	0000                	unimp
 84e:	9f1f 0002 0100      	0x10000029f1f
 854:	04b0                	addi	a2,sp,584
 856:	9608                	0x9608
 858:	0000                	unimp
 85a:	1f00                	addi	s0,sp,944
 85c:	029a                	slli	t0,t0,0x6
 85e:	0000                	unimp
 860:	b001                	j	60 <main-0x10014>
 862:	0804                	addi	s1,sp,16
 864:	0096                	slli	ra,ra,0x5
 866:	0000                	unimp
 868:	5f1d                	li	t5,-25
 86a:	6d5f 0100 04b0      	0x4b001006d5f
 870:	9608                	0x9608
 872:	0000                	unimp
 874:	0000                	unimp
 876:	601e                	flw	ft0,196(sp)
 878:	0009                	c.nop	2
 87a:	1f00                	addi	s0,sp,944
 87c:	01ff                	0x1ff
 87e:	0000                	unimp
 880:	b101                	j	480 <main-0xfbf4>
 882:	0804                	addi	s1,sp,16
 884:	0096                	slli	ra,ra,0x5
 886:	0000                	unimp
 888:	041f 0002 0100      	0x1000002041f
 88e:	04b1                	addi	s1,s1,12
 890:	9608                	0x9608
 892:	0000                	unimp
 894:	1f00                	addi	s0,sp,944
 896:	0209                	addi	tp,tp,2
 898:	0000                	unimp
 89a:	b101                	j	49a <main-0xfbda>
 89c:	0804                	addi	s1,sp,16
 89e:	0096                	slli	ra,ra,0x5
 8a0:	0000                	unimp
 8a2:	0e1f 0002 0100      	0x10000020e1f
 8a8:	04b1                	addi	s1,s1,12
 8aa:	9608                	0x9608
 8ac:	0000                	unimp
 8ae:	1f00                	addi	s0,sp,944
 8b0:	02a9                	addi	t0,t0,10
 8b2:	0000                	unimp
 8b4:	b101                	j	4b4 <main-0xfbc0>
 8b6:	0804                	addi	s1,sp,16
 8b8:	0096                	slli	ra,ra,0x5
 8ba:	0000                	unimp
 8bc:	671f 0002 0100      	0x1000002671f
 8c2:	04b1                	addi	s1,s1,12
 8c4:	9608                	0x9608
 8c6:	0000                	unimp
 8c8:	1f00                	addi	s0,sp,944
 8ca:	02a4                	addi	s1,sp,328
 8cc:	0000                	unimp
 8ce:	b101                	j	4ce <main-0xfba6>
 8d0:	0804                	addi	s1,sp,16
 8d2:	0096                	slli	ra,ra,0x5
 8d4:	0000                	unimp
 8d6:	761f 0001 0100      	0x1000001761f
 8dc:	04b1                	addi	s1,s1,12
 8de:	9608                	0x9608
 8e0:	0000                	unimp
 8e2:	1e00                	addi	s0,sp,816
 8e4:	00000903          	lb	s2,0(zero) # 0 <main-0x10074>
 8e8:	7b1f 0001 0100      	0x10000017b1f
 8ee:	04b1                	addi	s1,s1,12
 8f0:	9608                	0x9608
 8f2:	0000                	unimp
 8f4:	1f00                	addi	s0,sp,944
 8f6:	0181                	addi	gp,gp,0
 8f8:	0000                	unimp
 8fa:	b101                	j	4fa <main-0xfb7a>
 8fc:	0804                	addi	s1,sp,16
 8fe:	0096                	slli	ra,ra,0x5
 900:	0000                	unimp
 902:	1e00                	addi	s0,sp,816
 904:	00000923          	sb	zero,18(zero) # 12 <main-0x10062>
 908:	7b1f 0001 0100      	0x10000017b1f
 90e:	04b1                	addi	s1,s1,12
 910:	9608                	0x9608
 912:	0000                	unimp
 914:	1f00                	addi	s0,sp,944
 916:	0181                	addi	gp,gp,0
 918:	0000                	unimp
 91a:	b101                	j	51a <main-0xfb5a>
 91c:	0804                	addi	s1,sp,16
 91e:	0096                	slli	ra,ra,0x5
 920:	0000                	unimp
 922:	1e00                	addi	s0,sp,816
 924:	00000943          	fmadd.s	fs2,ft0,ft0,ft0,rne
 928:	7b1f 0001 0100      	0x10000017b1f
 92e:	04b1                	addi	s1,s1,12
 930:	9608                	0x9608
 932:	0000                	unimp
 934:	1f00                	addi	s0,sp,944
 936:	0181                	addi	gp,gp,0
 938:	0000                	unimp
 93a:	b101                	j	53a <main-0xfb3a>
 93c:	0804                	addi	s1,sp,16
 93e:	0096                	slli	ra,ra,0x5
 940:	0000                	unimp
 942:	2000                	fld	fs0,0(s0)
 944:	7b1f 0001 0100      	0x10000017b1f
 94a:	04b1                	addi	s1,s1,12
 94c:	9608                	0x9608
 94e:	0000                	unimp
 950:	1f00                	addi	s0,sp,944
 952:	0181                	addi	gp,gp,0
 954:	0000                	unimp
 956:	b101                	j	556 <main-0xfb1e>
 958:	0804                	addi	s1,sp,16
 95a:	0096                	slli	ra,ra,0x5
 95c:	0000                	unimp
 95e:	0000                	unimp
 960:	731e                	flw	ft6,228(sp)
 962:	0009                	c.nop	2
 964:	1d00                	addi	s0,sp,688
 966:	5f5f 0078 b601      	0xb60100785f5f
 96c:	0504                	addi	s1,sp,640
 96e:	0096                	slli	ra,ra,0x5
 970:	0000                	unimp
 972:	2000                	fld	fs0,0(s0)
 974:	5f1d                	li	t5,-25
 976:	785f 0100 04be      	0x4be0100785f
 97c:	9605                	srai	a2,a2,0x21
 97e:	0000                	unimp
 980:	0000                	unimp
 982:	0000                	unimp
 984:	0421                	addi	s0,s0,8
 986:	00ae                	slli	ra,ra,0xb
 988:	0000                	unimp
 98a:	4e22                	lw	t3,8(sp)
 98c:	0002                	c.slli64	zero
 98e:	4e00                	lw	s0,24(a2)
 990:	0002                	c.slli64	zero
 992:	2200                	fld	fs0,0(a2)
 994:	00000187          	0x187
 998:	00000187          	0x187
 99c:	2022                	fld	ft0,8(sp)
 99e:	0000                	unimp
 9a0:	2000                	fld	fs0,0(s0)
 9a2:	0000                	unimp
	...

Disassembly of section .debug_abbrev:

00000000 <.debug_abbrev>:
   0:	1101                	addi	sp,sp,-32
   2:	2501                	jal	602 <main-0xfa72>
   4:	130e                	slli	t1,t1,0x23
   6:	1b0e030b          	0x1b0e030b
   a:	110e                	slli	sp,sp,0x23
   c:	1201                	addi	tp,tp,-32
   e:	1006                	c.slli	zero,0x21
  10:	02000017          	auipc	zero,0x2000
  14:	0024                	addi	s1,sp,8
  16:	0b3e0b0b          	0xb3e0b0b
  1a:	00000e03          	lb	t3,0(zero) # 0 <main-0x10074>
  1e:	0b002403          	lw	s0,176(zero) # b0 <main-0xffc4>
  22:	030b3e0b          	0x30b3e0b
  26:	0008                	0x8
  28:	0400                	addi	s0,sp,512
  2a:	0016                	c.slli	zero,0x5
  2c:	0b3a0e03          	lb	t3,179(s4)
  30:	0b390b3b          	0xb390b3b
  34:	1349                	addi	t1,t1,-14
  36:	0000                	unimp
  38:	2605                	jal	358 <main-0xfd1c>
  3a:	4900                	lw	s0,16(a0)
  3c:	06000013          	li	zero,96
  40:	0e030113          	addi	sp,t1,224 # ffffa0e0 <__global_pointer$+0xfffe67b8>
  44:	0b3a0b0b          	0xb3a0b0b
  48:	0b39053b          	0xb39053b
  4c:	1301                	addi	t1,t1,-32
  4e:	0000                	unimp
  50:	03000d07          	0x3000d07
  54:	3a08                	fld	fa0,48(a2)
  56:	39053b0b          	0x39053b0b
  5a:	3813490b          	0x3813490b
  5e:	0800000b          	0x800000b
  62:	000d                	c.nop	3
  64:	0b3a0e03          	lb	t3,179(s4)
  68:	0b39053b          	0xb39053b
  6c:	1349                	addi	t1,t1,-14
  6e:	0b38                	addi	a4,sp,408
  70:	0000                	unimp
  72:	1709                	addi	a4,a4,-30
  74:	0b01                	addi	s6,s6,0
  76:	3b0b3a0b          	0x3b0b3a0b
  7a:	3905                	jal	fffffcaa <__global_pointer$+0xfffec382>
  7c:	0013010b          	0x13010b
  80:	0a00                	addi	s0,sp,272
  82:	000d                	c.nop	3
  84:	0b3a0803          	lb	a6,179(s4)
  88:	0b39053b          	0xb39053b
  8c:	1349                	addi	t1,t1,-14
  8e:	0000                	unimp
  90:	0300160b          	0x300160b
  94:	3a0e                	fld	fs4,224(sp)
  96:	39053b0b          	0x39053b0b
  9a:	0013490b          	0x13490b
  9e:	0c00                	addi	s0,sp,528
  a0:	0101                	addi	sp,sp,0
  a2:	1349                	addi	t1,t1,-14
  a4:	1301                	addi	t1,t1,-32
  a6:	0000                	unimp
  a8:	210d                	jal	4ca <main-0xfbaa>
  aa:	4900                	lw	s0,16(a0)
  ac:	000b2f13          	slti	t5,s6,0
  b0:	0e00                	addi	s0,sp,784
  b2:	0034                	addi	a3,sp,8
  b4:	0b3a0e03          	lb	t3,179(s4)
  b8:	0b39053b          	0xb39053b
  bc:	1349                	addi	t1,t1,-14
  be:	193c193f 2e0f0000 	0x2e0f0000193c193f
  c6:	3f01                	jal	ffffffd6 <__global_pointer$+0xfffec6ae>
  c8:	0319                	addi	t1,t1,6
  ca:	3a0e                	fld	fs4,224(sp)
  cc:	39053b0b          	0x39053b0b
  d0:	4919270b          	0x4919270b
  d4:	12011113          	0x12011113
  d8:	4006                	0x4006
  da:	9718                	0x9718
  dc:	1942                	slli	s2,s2,0x30
  de:	1301                	addi	t1,t1,-32
  e0:	0000                	unimp
  e2:	0510                	addi	a2,sp,640
  e4:	0300                	addi	s0,sp,384
  e6:	3a08                	fld	fa0,48(a2)
  e8:	39053b0b          	0x39053b0b
  ec:	0213490b          	0x213490b
  f0:	11000017          	auipc	zero,0x11000
  f4:	011d                	addi	sp,sp,7
  f6:	1331                	addi	t1,t1,-20
  f8:	0152                	slli	sp,sp,0x14
  fa:	1755                	addi	a4,a4,-11
  fc:	0b58                	addi	a4,sp,404
  fe:	0559                	addi	a0,a0,22
 100:	00000b57          	0xb57
 104:	0512                	slli	a0,a0,0x4
 106:	3100                	fld	fs0,32(a0)
 108:	00170213          	addi	tp,a4,1 # fffe7001 <__global_pointer$+0xfffd36d9>
 10c:	1300                	addi	s0,sp,416
 10e:	1755010b          	0x1755010b
 112:	0000                	unimp
 114:	3414                	fld	fa3,40(s0)
 116:	3100                	fld	fs0,32(a0)
 118:	15000013          	li	zero,336
 11c:	0034                	addi	a3,sp,8
 11e:	1331                	addi	t1,t1,-20
 120:	1702                	slli	a4,a4,0x20
 122:	0000                	unimp
 124:	0b16                	slli	s6,s6,0x5
 126:	3101                	jal	fffffd26 <__global_pointer$+0xfffec3fe>
 128:	01175513          	srli	a0,a4,0x11
 12c:	17000013          	li	zero,368
 130:	1331010b          	0x1331010b
 134:	0111                	addi	sp,sp,4
 136:	0612                	slli	a2,a2,0x4
 138:	1301                	addi	t1,t1,-32
 13a:	0000                	unimp
 13c:	8918                	0x8918
 13e:	0182                	c.slli64	gp
 140:	1100                	addi	s0,sp,160
 142:	3101                	jal	fffffd42 <__global_pointer$+0xfffec41a>
 144:	19000013          	li	zero,400
 148:	1331010b          	0x1331010b
 14c:	1755                	addi	a4,a4,-11
 14e:	0000                	unimp
 150:	341a                	fld	fs0,416(sp)
 152:	3100                	fld	fs0,32(a0)
 154:	00180213          	addi	tp,a6,1 # 5001 <main-0xb073>
 158:	1b00                	addi	s0,sp,432
 15a:	012e                	slli	sp,sp,0xb
 15c:	0b3a0e03          	lb	t3,179(s4)
 160:	0b39053b          	0xb39053b
 164:	13491927          	0x13491927
 168:	0b20                	addi	s0,sp,408
 16a:	1301                	addi	t1,t1,-32
 16c:	0000                	unimp
 16e:	051c                	addi	a5,sp,640
 170:	0300                	addi	s0,sp,384
 172:	3a08                	fld	fa0,48(a2)
 174:	39053b0b          	0x39053b0b
 178:	0013490b          	0x13490b
 17c:	1d00                	addi	s0,sp,688
 17e:	0034                	addi	a3,sp,8
 180:	0b3a0803          	lb	a6,179(s4)
 184:	0b39053b          	0xb39053b
 188:	1349                	addi	t1,t1,-14
 18a:	0000                	unimp
 18c:	0b1e                	slli	s6,s6,0x7
 18e:	0101                	addi	sp,sp,0
 190:	1f000013          	li	zero,496
 194:	0034                	addi	a3,sp,8
 196:	0b3a0e03          	lb	t3,179(s4)
 19a:	0b39053b          	0xb39053b
 19e:	1349                	addi	t1,t1,-14
 1a0:	0000                	unimp
 1a2:	0b20                	addi	s0,sp,408
 1a4:	0001                	nop
 1a6:	2100                	fld	fs0,0(a0)
 1a8:	0b0b000f          	0xb0b000f
 1ac:	1349                	addi	t1,t1,-14
 1ae:	0000                	unimp
 1b0:	2e22                	fld	ft8,8(sp)
 1b2:	3f00                	fld	fs0,56(a4)
 1b4:	3c19                	jal	fffffbca <__global_pointer$+0xfffec2a2>
 1b6:	6e19                	lui	t3,0x6
 1b8:	030e                	slli	t1,t1,0x3
 1ba:	000e                	c.slli	zero,0x3
	...

Disassembly of section .debug_line:

00000000 <.debug_line>:
   0:	0785                	addi	a5,a5,1
   2:	0000                	unimp
   4:	004f0003          	lb	zero,4(t5)
   8:	0000                	unimp
   a:	0101                	addi	sp,sp,0
   c:	000d0efb          	0xd0efb
  10:	0101                	addi	sp,sp,0
  12:	0101                	addi	sp,sp,0
  14:	0000                	unimp
  16:	0100                	addi	s0,sp,128
  18:	0000                	unimp
  1a:	2e01                	jal	32a <main-0xfd4a>
  1c:	2f2e                	fld	ft10,200(sp)
  1e:	2e2e                	fld	ft8,200(sp)
  20:	2f2e2e2f          	0x2f2e2e2f
  24:	2e2e                	fld	ft8,200(sp)
  26:	2f2e2e2f          	0x2f2e2e2f
  2a:	2f2e                	fld	ft10,200(sp)
  2c:	6972                	flw	fs2,28(sp)
  2e:	2d766373          	csrrsi	t1,0x2d7,12
  32:	2f636367          	0x2f636367
  36:	696c                	flw	fa1,84(a0)
  38:	6762                	flw	fa4,24(sp)
  3a:	00006363          	bltu	zero,zero,40 <main-0x10034>
  3e:	696c                	flw	fa1,84(a0)
  40:	6762                	flw	fa4,24(sp)
  42:	2e326363          	bltu	tp,gp,328 <main-0xfd4c>
  46:	00010063          	beqz	sp,46 <main-0x1002e>
  4a:	6c00                	flw	fs0,24(s0)
  4c:	6269                	lui	tp,0x1a
  4e:	32636367          	0x32636367
  52:	682e                	flw	fa6,200(sp)
  54:	0100                	addi	s0,sp,128
  56:	0000                	unimp
  58:	0500                	addi	s0,sp,640
  5a:	0001                	nop
  5c:	0205                	addi	tp,tp,1
  5e:	0000                	unimp
  60:	0000                	unimp
  62:	010aa603          	lw	a2,16(s5)
  66:	0305                	addi	t1,t1,1
  68:	00090103          	lb	sp,0(s2)
  6c:	0100                	addi	s0,sp,128
  6e:	097dd103          	lhu	sp,151(s11)
  72:	0000                	unimp
  74:	0301                	addi	t1,t1,0
  76:	0901                	addi	s2,s2,0
  78:	0000                	unimp
  7a:	0301                	addi	t1,t1,0
  7c:	0901                	addi	s2,s2,0
  7e:	0000                	unimp
  80:	0301                	addi	t1,t1,0
  82:	0901                	addi	s2,s2,0
  84:	0000                	unimp
  86:	0301                	addi	t1,t1,0
  88:	0901                	addi	s2,s2,0
  8a:	0000                	unimp
  8c:	0301                	addi	t1,t1,0
  8e:	0901                	addi	s2,s2,0
  90:	0000                	unimp
  92:	0301                	addi	t1,t1,0
  94:	0902                	c.slli64	s2
  96:	0000                	unimp
  98:	0301                	addi	t1,t1,0
  9a:	0901                	addi	s2,s2,0
  9c:	0000                	unimp
  9e:	0301                	addi	t1,t1,0
  a0:	0901                	addi	s2,s2,0
  a2:	0000                	unimp
  a4:	0301                	addi	t1,t1,0
  a6:	0901                	addi	s2,s2,0
  a8:	0000                	unimp
  aa:	0301                	addi	t1,t1,0
  ac:	0925                	addi	s2,s2,9
  ae:	0000                	unimp
  b0:	0501                	addi	a0,a0,0
  b2:	0601                	addi	a2,a2,0
  b4:	0901ff03          	0x901ff03
  b8:	0000                	unimp
  ba:	0301                	addi	t1,t1,0
  bc:	0900                	addi	s0,sp,144
  be:	0000                	unimp
  c0:	0501                	addi	a0,a0,0
  c2:	0306                	slli	t1,t1,0x1
  c4:	7e81                	lui	t4,0xfffe0
  c6:	0009                	c.nop	2
  c8:	0100                	addi	s0,sp,128
  ca:	0705                	addi	a4,a4,1
  cc:	0306                	slli	t1,t1,0x1
  ce:	0902                	c.slli64	s2
  d0:	0000                	unimp
  d2:	0501                	addi	a0,a0,0
  d4:	060a                	slli	a2,a2,0x2
  d6:	00090003          	lb	zero,0(s2)
  da:	0100                	addi	s0,sp,128
  dc:	0405                	addi	s0,s0,1
  de:	00090403          	lb	s0,0(s2)
  e2:	0100                	addi	s0,sp,128
  e4:	0306                	slli	t1,t1,0x1
  e6:	0900                	addi	s0,sp,144
  e8:	0000                	unimp
  ea:	0301                	addi	t1,t1,0
  ec:	0900                	addi	s0,sp,144
  ee:	0000                	unimp
  f0:	0301                	addi	t1,t1,0
  f2:	0900                	addi	s0,sp,144
  f4:	0000                	unimp
  f6:	0301                	addi	t1,t1,0
  f8:	0900                	addi	s0,sp,144
  fa:	0000                	unimp
  fc:	0301                	addi	t1,t1,0
  fe:	0900                	addi	s0,sp,144
 100:	0000                	unimp
 102:	0301                	addi	t1,t1,0
 104:	0900                	addi	s0,sp,144
 106:	0000                	unimp
 108:	0301                	addi	t1,t1,0
 10a:	0900                	addi	s0,sp,144
 10c:	0000                	unimp
 10e:	0301                	addi	t1,t1,0
 110:	0902                	c.slli64	s2
 112:	0000                	unimp
 114:	0501                	addi	a0,a0,0
 116:	00030607          	0x30607
 11a:	0009                	c.nop	2
 11c:	0100                	addi	s0,sp,128
 11e:	0805                	addi	a6,a6,1
 120:	0306                	slli	t1,t1,0x1
 122:	0905                	addi	s2,s2,1
 124:	0000                	unimp
 126:	0501                	addi	a0,a0,0
 128:	0611                	addi	a2,a2,4
 12a:	00090103          	lb	sp,0(s2)
 12e:	0100                	addi	s0,sp,128
 130:	1e05                	addi	t3,t3,-31
 132:	00090003          	lb	zero,0(s2)
 136:	0100                	addi	s0,sp,128
 138:	0b05                	addi	s6,s6,1
 13a:	00097f03          	0x97f03
 13e:	0100                	addi	s0,sp,128
 140:	0805                	addi	a6,a6,1
 142:	0306                	slli	t1,t1,0x1
 144:	0901                	addi	s2,s2,0
 146:	0000                	unimp
 148:	0501                	addi	a0,a0,0
 14a:	0003060b          	0x3060b
 14e:	0009                	c.nop	2
 150:	0100                	addi	s0,sp,128
 152:	0805                	addi	a6,a6,1
 154:	0306                	slli	t1,t1,0x1
 156:	0901                	addi	s2,s2,0
 158:	0000                	unimp
 15a:	0501                	addi	a0,a0,0
 15c:	0003060b          	0x3060b
 160:	0009                	c.nop	2
 162:	0100                	addi	s0,sp,128
 164:	0405                	addi	s0,s0,1
 166:	0306                	slli	t1,t1,0x1
 168:	00000903          	lb	s2,0(zero) # 0 <main-0x10074>
 16c:	0301                	addi	t1,t1,0
 16e:	0900                	addi	s0,sp,144
 170:	0000                	unimp
 172:	0301                	addi	t1,t1,0
 174:	0900                	addi	s0,sp,144
 176:	0000                	unimp
 178:	0301                	addi	t1,t1,0
 17a:	0900                	addi	s0,sp,144
 17c:	0000                	unimp
 17e:	0301                	addi	t1,t1,0
 180:	0900                	addi	s0,sp,144
 182:	0000                	unimp
 184:	0301                	addi	t1,t1,0
 186:	0900                	addi	s0,sp,144
 188:	0000                	unimp
 18a:	0301                	addi	t1,t1,0
 18c:	0900                	addi	s0,sp,144
 18e:	0000                	unimp
 190:	0301                	addi	t1,t1,0
 192:	0900                	addi	s0,sp,144
 194:	0000                	unimp
 196:	0301                	addi	t1,t1,0
 198:	0900                	addi	s0,sp,144
 19a:	0000                	unimp
 19c:	0301                	addi	t1,t1,0
 19e:	0900                	addi	s0,sp,144
 1a0:	0000                	unimp
 1a2:	0301                	addi	t1,t1,0
 1a4:	0900                	addi	s0,sp,144
 1a6:	0000                	unimp
 1a8:	0301                	addi	t1,t1,0
 1aa:	0900                	addi	s0,sp,144
 1ac:	0000                	unimp
 1ae:	0301                	addi	t1,t1,0
 1b0:	0900                	addi	s0,sp,144
 1b2:	0000                	unimp
 1b4:	0301                	addi	t1,t1,0
 1b6:	0900                	addi	s0,sp,144
 1b8:	0000                	unimp
 1ba:	0301                	addi	t1,t1,0
 1bc:	0900                	addi	s0,sp,144
 1be:	0000                	unimp
 1c0:	0301                	addi	t1,t1,0
 1c2:	0900                	addi	s0,sp,144
 1c4:	0000                	unimp
 1c6:	0301                	addi	t1,t1,0
 1c8:	0900                	addi	s0,sp,144
 1ca:	0000                	unimp
 1cc:	0301                	addi	t1,t1,0
 1ce:	0900                	addi	s0,sp,144
 1d0:	0000                	unimp
 1d2:	0301                	addi	t1,t1,0
 1d4:	0900                	addi	s0,sp,144
 1d6:	0000                	unimp
 1d8:	0301                	addi	t1,t1,0
 1da:	0900                	addi	s0,sp,144
 1dc:	0000                	unimp
 1de:	0301                	addi	t1,t1,0
 1e0:	0900                	addi	s0,sp,144
 1e2:	0000                	unimp
 1e4:	0301                	addi	t1,t1,0
 1e6:	0900                	addi	s0,sp,144
 1e8:	0000                	unimp
 1ea:	0301                	addi	t1,t1,0
 1ec:	0900                	addi	s0,sp,144
 1ee:	0000                	unimp
 1f0:	0301                	addi	t1,t1,0
 1f2:	0900                	addi	s0,sp,144
 1f4:	0000                	unimp
 1f6:	0301                	addi	t1,t1,0
 1f8:	0900                	addi	s0,sp,144
 1fa:	0000                	unimp
 1fc:	0301                	addi	t1,t1,0
 1fe:	0900                	addi	s0,sp,144
 200:	0000                	unimp
 202:	0301                	addi	t1,t1,0
 204:	0900                	addi	s0,sp,144
 206:	0000                	unimp
 208:	0301                	addi	t1,t1,0
 20a:	0900                	addi	s0,sp,144
 20c:	0000                	unimp
 20e:	0301                	addi	t1,t1,0
 210:	0901                	addi	s2,s2,0
 212:	0000                	unimp
 214:	0501                	addi	a0,a0,0
 216:	fe03060b          	0xfe03060b
 21a:	0900                	addi	s0,sp,144
 21c:	0000                	unimp
 21e:	0501                	addi	a0,a0,0
 220:	0304                	addi	s1,sp,384
 222:	7ef5                	lui	t4,0xffffd
 224:	0009                	c.nop	2
 226:	0100                	addi	s0,sp,128
 228:	0306                	slli	t1,t1,0x1
 22a:	0915                	addi	s2,s2,5
 22c:	0000                	unimp
 22e:	0501                	addi	a0,a0,0
 230:	00030607          	0x30607
 234:	0009                	c.nop	2
 236:	0100                	addi	s0,sp,128
 238:	0605                	addi	a2,a2,1
 23a:	0306                	slli	t1,t1,0x1
 23c:	0901                	addi	s2,s2,0
 23e:	0000                	unimp
 240:	0501                	addi	a0,a0,0
 242:	0609                	addi	a2,a2,2
 244:	00090003          	lb	zero,0(s2)
 248:	0100                	addi	s0,sp,128
 24a:	0405                	addi	s0,s0,1
 24c:	0306                	slli	t1,t1,0x1
 24e:	0902                	c.slli64	s2
 250:	0000                	unimp
 252:	0301                	addi	t1,t1,0
 254:	0900                	addi	s0,sp,144
 256:	0000                	unimp
 258:	0301                	addi	t1,t1,0
 25a:	0900                	addi	s0,sp,144
 25c:	0000                	unimp
 25e:	0301                	addi	t1,t1,0
 260:	0900                	addi	s0,sp,144
 262:	0000                	unimp
 264:	0301                	addi	t1,t1,0
 266:	0900                	addi	s0,sp,144
 268:	0000                	unimp
 26a:	0301                	addi	t1,t1,0
 26c:	0900                	addi	s0,sp,144
 26e:	0000                	unimp
 270:	0301                	addi	t1,t1,0
 272:	0900                	addi	s0,sp,144
 274:	0000                	unimp
 276:	0301                	addi	t1,t1,0
 278:	0902                	c.slli64	s2
 27a:	0000                	unimp
 27c:	0501                	addi	a0,a0,0
 27e:	00030607          	0x30607
 282:	0009                	c.nop	2
 284:	0100                	addi	s0,sp,128
 286:	0805                	addi	a6,a6,1
 288:	0306                	slli	t1,t1,0x1
 28a:	0909                	addi	s2,s2,2
 28c:	0000                	unimp
 28e:	0501                	addi	a0,a0,0
 290:	0003060b          	0x3060b
 294:	0009                	c.nop	2
 296:	0100                	addi	s0,sp,128
 298:	0805                	addi	a6,a6,1
 29a:	0306                	slli	t1,t1,0x1
 29c:	0901                	addi	s2,s2,0
 29e:	0000                	unimp
 2a0:	0501                	addi	a0,a0,0
 2a2:	0003060b          	0x3060b
 2a6:	0009                	c.nop	2
 2a8:	0100                	addi	s0,sp,128
 2aa:	0805                	addi	a6,a6,1
 2ac:	0306                	slli	t1,t1,0x1
 2ae:	090d                	addi	s2,s2,3
 2b0:	0000                	unimp
 2b2:	0501                	addi	a0,a0,0
 2b4:	0304                	addi	s1,sp,384
 2b6:	0905                	addi	s2,s2,1
 2b8:	0000                	unimp
 2ba:	0301                	addi	t1,t1,0
 2bc:	0900                	addi	s0,sp,144
 2be:	0000                	unimp
 2c0:	0301                	addi	t1,t1,0
 2c2:	0900                	addi	s0,sp,144
 2c4:	0000                	unimp
 2c6:	0301                	addi	t1,t1,0
 2c8:	0900                	addi	s0,sp,144
 2ca:	0000                	unimp
 2cc:	0301                	addi	t1,t1,0
 2ce:	0900                	addi	s0,sp,144
 2d0:	0000                	unimp
 2d2:	0301                	addi	t1,t1,0
 2d4:	0900                	addi	s0,sp,144
 2d6:	0000                	unimp
 2d8:	0301                	addi	t1,t1,0
 2da:	0900                	addi	s0,sp,144
 2dc:	0000                	unimp
 2de:	0301                	addi	t1,t1,0
 2e0:	0900                	addi	s0,sp,144
 2e2:	0000                	unimp
 2e4:	0301                	addi	t1,t1,0
 2e6:	0900                	addi	s0,sp,144
 2e8:	0000                	unimp
 2ea:	0301                	addi	t1,t1,0
 2ec:	0900                	addi	s0,sp,144
 2ee:	0000                	unimp
 2f0:	0301                	addi	t1,t1,0
 2f2:	0900                	addi	s0,sp,144
 2f4:	0000                	unimp
 2f6:	0301                	addi	t1,t1,0
 2f8:	0900                	addi	s0,sp,144
 2fa:	0000                	unimp
 2fc:	0301                	addi	t1,t1,0
 2fe:	0900                	addi	s0,sp,144
 300:	0000                	unimp
 302:	0301                	addi	t1,t1,0
 304:	0900                	addi	s0,sp,144
 306:	0000                	unimp
 308:	0301                	addi	t1,t1,0
 30a:	0900                	addi	s0,sp,144
 30c:	0000                	unimp
 30e:	0301                	addi	t1,t1,0
 310:	0900                	addi	s0,sp,144
 312:	0000                	unimp
 314:	0301                	addi	t1,t1,0
 316:	0900                	addi	s0,sp,144
 318:	0000                	unimp
 31a:	0301                	addi	t1,t1,0
 31c:	0900                	addi	s0,sp,144
 31e:	0000                	unimp
 320:	0301                	addi	t1,t1,0
 322:	0900                	addi	s0,sp,144
 324:	0000                	unimp
 326:	0301                	addi	t1,t1,0
 328:	0900                	addi	s0,sp,144
 32a:	0000                	unimp
 32c:	0301                	addi	t1,t1,0
 32e:	0900                	addi	s0,sp,144
 330:	0000                	unimp
 332:	0301                	addi	t1,t1,0
 334:	0900                	addi	s0,sp,144
 336:	0000                	unimp
 338:	0301                	addi	t1,t1,0
 33a:	0900                	addi	s0,sp,144
 33c:	0000                	unimp
 33e:	0301                	addi	t1,t1,0
 340:	0900                	addi	s0,sp,144
 342:	0000                	unimp
 344:	0301                	addi	t1,t1,0
 346:	0900                	addi	s0,sp,144
 348:	0000                	unimp
 34a:	0301                	addi	t1,t1,0
 34c:	0900                	addi	s0,sp,144
 34e:	0000                	unimp
 350:	0301                	addi	t1,t1,0
 352:	0900                	addi	s0,sp,144
 354:	0000                	unimp
 356:	0501                	addi	a0,a0,0
 358:	00e30303          	lb	t1,14(t1)
 35c:	0009                	c.nop	2
 35e:	0100                	addi	s0,sp,128
 360:	00090103          	lb	sp,0(s2)
 364:	0100                	addi	s0,sp,128
 366:	0105                	addi	sp,sp,1
 368:	0306                	slli	t1,t1,0x1
 36a:	00e1                	addi	ra,ra,24
 36c:	0009                	c.nop	2
 36e:	0100                	addi	s0,sp,128
 370:	0405                	addi	s0,s0,1
 372:	097e9d03          	lh	s10,151(t4) # ffffd097 <__global_pointer$+0xfffe976f>
 376:	0000                	unimp
 378:	0501                	addi	a0,a0,0
 37a:	0608                	addi	a0,sp,768
 37c:	00091203          	lh	tp,0(s2)
 380:	0100                	addi	s0,sp,128
 382:	00090203          	lb	tp,0(s2)
 386:	0100                	addi	s0,sp,128
 388:	0b05                	addi	s6,s6,1
 38a:	0306                	slli	t1,t1,0x1
 38c:	0900                	addi	s0,sp,144
 38e:	0000                	unimp
 390:	0501                	addi	a0,a0,0
 392:	0608                	addi	a0,sp,768
 394:	00090103          	lb	sp,0(s2)
 398:	0100                	addi	s0,sp,128
 39a:	0b05                	addi	s6,s6,1
 39c:	0306                	slli	t1,t1,0x1
 39e:	0900                	addi	s0,sp,144
 3a0:	0000                	unimp
 3a2:	0501                	addi	a0,a0,0
 3a4:	0608                	addi	a0,sp,768
 3a6:	00090103          	lb	sp,0(s2)
 3aa:	0100                	addi	s0,sp,128
 3ac:	1e05                	addi	t3,t3,-31
 3ae:	0306                	slli	t1,t1,0x1
 3b0:	0900                	addi	s0,sp,144
 3b2:	0000                	unimp
 3b4:	0501                	addi	a0,a0,0
 3b6:	0311                	addi	t1,t1,4
 3b8:	0900                	addi	s0,sp,144
 3ba:	0000                	unimp
 3bc:	0501                	addi	a0,a0,0
 3be:	0900030b          	0x900030b
 3c2:	0000                	unimp
 3c4:	0501                	addi	a0,a0,0
 3c6:	0608                	addi	a0,sp,768
 3c8:	00090103          	lb	sp,0(s2)
 3cc:	0100                	addi	s0,sp,128
 3ce:	0306                	slli	t1,t1,0x1
 3d0:	0902                	c.slli64	s2
 3d2:	0000                	unimp
 3d4:	0501                	addi	a0,a0,0
 3d6:	097e030b          	0x97e030b
 3da:	0000                	unimp
 3dc:	0501                	addi	a0,a0,0
 3de:	0608                	addi	a0,sp,768
 3e0:	00090203          	lb	tp,0(s2)
 3e4:	0100                	addi	s0,sp,128
 3e6:	00090003          	lb	zero,0(s2)
 3ea:	0100                	addi	s0,sp,128
 3ec:	00090003          	lb	zero,0(s2)
 3f0:	0100                	addi	s0,sp,128
 3f2:	00090003          	lb	zero,0(s2)
 3f6:	0100                	addi	s0,sp,128
 3f8:	00090003          	lb	zero,0(s2)
 3fc:	0100                	addi	s0,sp,128
 3fe:	00090003          	lb	zero,0(s2)
 402:	0100                	addi	s0,sp,128
 404:	00090003          	lb	zero,0(s2)
 408:	0100                	addi	s0,sp,128
 40a:	00090003          	lb	zero,0(s2)
 40e:	0100                	addi	s0,sp,128
 410:	00090003          	lb	zero,0(s2)
 414:	0100                	addi	s0,sp,128
 416:	00090003          	lb	zero,0(s2)
 41a:	0100                	addi	s0,sp,128
 41c:	00090003          	lb	zero,0(s2)
 420:	0100                	addi	s0,sp,128
 422:	00090003          	lb	zero,0(s2)
 426:	0100                	addi	s0,sp,128
 428:	00090003          	lb	zero,0(s2)
 42c:	0100                	addi	s0,sp,128
 42e:	00090003          	lb	zero,0(s2)
 432:	0100                	addi	s0,sp,128
 434:	00090003          	lb	zero,0(s2)
 438:	0100                	addi	s0,sp,128
 43a:	00090003          	lb	zero,0(s2)
 43e:	0100                	addi	s0,sp,128
 440:	00090003          	lb	zero,0(s2)
 444:	0100                	addi	s0,sp,128
 446:	00090003          	lb	zero,0(s2)
 44a:	0100                	addi	s0,sp,128
 44c:	00090003          	lb	zero,0(s2)
 450:	0100                	addi	s0,sp,128
 452:	00090003          	lb	zero,0(s2)
 456:	0100                	addi	s0,sp,128
 458:	00090003          	lb	zero,0(s2)
 45c:	0100                	addi	s0,sp,128
 45e:	00090003          	lb	zero,0(s2)
 462:	0100                	addi	s0,sp,128
 464:	00090003          	lb	zero,0(s2)
 468:	0100                	addi	s0,sp,128
 46a:	00090003          	lb	zero,0(s2)
 46e:	0100                	addi	s0,sp,128
 470:	00090003          	lb	zero,0(s2)
 474:	0100                	addi	s0,sp,128
 476:	00090003          	lb	zero,0(s2)
 47a:	0100                	addi	s0,sp,128
 47c:	00090003          	lb	zero,0(s2)
 480:	0100                	addi	s0,sp,128
 482:	0705                	addi	a4,a4,1
 484:	00091503          	lh	a0,0(s2)
 488:	0100                	addi	s0,sp,128
 48a:	0a05                	addi	s4,s4,1
 48c:	0306                	slli	t1,t1,0x1
 48e:	0900                	addi	s0,sp,144
 490:	0000                	unimp
 492:	0501                	addi	a0,a0,0
 494:	0604                	addi	s1,sp,768
 496:	00091303          	lh	t1,0(s2)
 49a:	0100                	addi	s0,sp,128
 49c:	00090003          	lb	zero,0(s2)
 4a0:	0100                	addi	s0,sp,128
 4a2:	00090003          	lb	zero,0(s2)
 4a6:	0100                	addi	s0,sp,128
 4a8:	00090003          	lb	zero,0(s2)
 4ac:	0100                	addi	s0,sp,128
 4ae:	00090003          	lb	zero,0(s2)
 4b2:	0100                	addi	s0,sp,128
 4b4:	00090003          	lb	zero,0(s2)
 4b8:	0100                	addi	s0,sp,128
 4ba:	00090003          	lb	zero,0(s2)
 4be:	0100                	addi	s0,sp,128
 4c0:	00090103          	lb	sp,0(s2)
 4c4:	0100                	addi	s0,sp,128
 4c6:	0705                	addi	a4,a4,1
 4c8:	0306                	slli	t1,t1,0x1
 4ca:	0900                	addi	s0,sp,144
 4cc:	0000                	unimp
 4ce:	0501                	addi	a0,a0,0
 4d0:	0608                	addi	a0,sp,768
 4d2:	00090a03          	lb	s4,0(s2)
 4d6:	0100                	addi	s0,sp,128
 4d8:	0306                	slli	t1,t1,0x1
 4da:	0902                	c.slli64	s2
 4dc:	0000                	unimp
 4de:	0501                	addi	a0,a0,0
 4e0:	097e030b          	0x97e030b
 4e4:	0000                	unimp
 4e6:	0501                	addi	a0,a0,0
 4e8:	0314                	addi	a3,sp,384
 4ea:	0900                	addi	s0,sp,144
 4ec:	0000                	unimp
 4ee:	0501                	addi	a0,a0,0
 4f0:	0304                	addi	s1,sp,384
 4f2:	0975                	addi	s2,s2,29
 4f4:	0000                	unimp
 4f6:	0501                	addi	a0,a0,0
 4f8:	0608                	addi	a0,sp,768
 4fa:	00091e03          	lh	t3,0(s2)
 4fe:	0100                	addi	s0,sp,128
 500:	00090303          	lb	t1,0(s2)
 504:	0100                	addi	s0,sp,128
 506:	00090203          	lb	tp,0(s2)
 50a:	0100                	addi	s0,sp,128
 50c:	1e05                	addi	t3,t3,-31
 50e:	0306                	slli	t1,t1,0x1
 510:	0900                	addi	s0,sp,144
 512:	0000                	unimp
 514:	0501                	addi	a0,a0,0
 516:	0311                	addi	t1,t1,4
 518:	0900                	addi	s0,sp,144
 51a:	0000                	unimp
 51c:	0501                	addi	a0,a0,0
 51e:	0900030b          	0x900030b
 522:	0000                	unimp
 524:	0501                	addi	a0,a0,0
 526:	0608                	addi	a0,sp,768
 528:	00090103          	lb	sp,0(s2)
 52c:	0100                	addi	s0,sp,128
 52e:	0b05                	addi	s6,s6,1
 530:	0306                	slli	t1,t1,0x1
 532:	0901                	addi	s2,s2,0
 534:	0000                	unimp
 536:	0501                	addi	a0,a0,0
 538:	0311                	addi	t1,t1,4
 53a:	0901                	addi	s2,s2,0
 53c:	0000                	unimp
 53e:	0501                	addi	a0,a0,0
 540:	031e                	slli	t1,t1,0x7
 542:	0900                	addi	s0,sp,144
 544:	0000                	unimp
 546:	0501                	addi	a0,a0,0
 548:	0900030b          	0x900030b
 54c:	0000                	unimp
 54e:	0501                	addi	a0,a0,0
 550:	0308                	addi	a0,sp,384
 552:	00000903          	lb	s2,0(zero) # 0 <main-0x10074>
 556:	0501                	addi	a0,a0,0
 558:	097b030b          	0x97b030b
 55c:	0000                	unimp
 55e:	0501                	addi	a0,a0,0
 560:	0608                	addi	a0,sp,768
 562:	00090103          	lb	sp,0(s2)
 566:	0100                	addi	s0,sp,128
 568:	00090103          	lb	sp,0(s2)
 56c:	0100                	addi	s0,sp,128
 56e:	00090103          	lb	sp,0(s2)
 572:	0100                	addi	s0,sp,128
 574:	00090203          	lb	tp,0(s2)
 578:	0100                	addi	s0,sp,128
 57a:	00090003          	lb	zero,0(s2)
 57e:	0100                	addi	s0,sp,128
 580:	00090003          	lb	zero,0(s2)
 584:	0100                	addi	s0,sp,128
 586:	00090003          	lb	zero,0(s2)
 58a:	0100                	addi	s0,sp,128
 58c:	00090003          	lb	zero,0(s2)
 590:	0100                	addi	s0,sp,128
 592:	00090003          	lb	zero,0(s2)
 596:	0100                	addi	s0,sp,128
 598:	00090003          	lb	zero,0(s2)
 59c:	0100                	addi	s0,sp,128
 59e:	00090003          	lb	zero,0(s2)
 5a2:	0100                	addi	s0,sp,128
 5a4:	00090003          	lb	zero,0(s2)
 5a8:	0100                	addi	s0,sp,128
 5aa:	00090003          	lb	zero,0(s2)
 5ae:	0100                	addi	s0,sp,128
 5b0:	00090003          	lb	zero,0(s2)
 5b4:	0100                	addi	s0,sp,128
 5b6:	00090003          	lb	zero,0(s2)
 5ba:	0100                	addi	s0,sp,128
 5bc:	00090003          	lb	zero,0(s2)
 5c0:	0100                	addi	s0,sp,128
 5c2:	00090003          	lb	zero,0(s2)
 5c6:	0100                	addi	s0,sp,128
 5c8:	00090003          	lb	zero,0(s2)
 5cc:	0100                	addi	s0,sp,128
 5ce:	00090003          	lb	zero,0(s2)
 5d2:	0100                	addi	s0,sp,128
 5d4:	00090003          	lb	zero,0(s2)
 5d8:	0100                	addi	s0,sp,128
 5da:	00090003          	lb	zero,0(s2)
 5de:	0100                	addi	s0,sp,128
 5e0:	00090003          	lb	zero,0(s2)
 5e4:	0100                	addi	s0,sp,128
 5e6:	00090003          	lb	zero,0(s2)
 5ea:	0100                	addi	s0,sp,128
 5ec:	00090003          	lb	zero,0(s2)
 5f0:	0100                	addi	s0,sp,128
 5f2:	00090003          	lb	zero,0(s2)
 5f6:	0100                	addi	s0,sp,128
 5f8:	00090003          	lb	zero,0(s2)
 5fc:	0100                	addi	s0,sp,128
 5fe:	00090003          	lb	zero,0(s2)
 602:	0100                	addi	s0,sp,128
 604:	00090003          	lb	zero,0(s2)
 608:	0100                	addi	s0,sp,128
 60a:	0306                	slli	t1,t1,0x1
 60c:	0901                	addi	s2,s2,0
 60e:	0000                	unimp
 610:	0301                	addi	t1,t1,0
 612:	097f                	0x97f
 614:	0000                	unimp
 616:	0301                	addi	t1,t1,0
 618:	0901                	addi	s2,s2,0
 61a:	0000                	unimp
 61c:	0301                	addi	t1,t1,0
 61e:	097f                	0x97f
 620:	0000                	unimp
 622:	0601                	addi	a2,a2,0
 624:	00090003          	lb	zero,0(s2)
 628:	0100                	addi	s0,sp,128
 62a:	00090003          	lb	zero,0(s2)
 62e:	0100                	addi	s0,sp,128
 630:	00090003          	lb	zero,0(s2)
 634:	0100                	addi	s0,sp,128
 636:	00090103          	lb	sp,0(s2)
 63a:	0100                	addi	s0,sp,128
 63c:	00090003          	lb	zero,0(s2)
 640:	0100                	addi	s0,sp,128
 642:	00090003          	lb	zero,0(s2)
 646:	0100                	addi	s0,sp,128
 648:	00090003          	lb	zero,0(s2)
 64c:	0100                	addi	s0,sp,128
 64e:	00090003          	lb	zero,0(s2)
 652:	0100                	addi	s0,sp,128
 654:	00090003          	lb	zero,0(s2)
 658:	0100                	addi	s0,sp,128
 65a:	00090003          	lb	zero,0(s2)
 65e:	0100                	addi	s0,sp,128
 660:	00090003          	lb	zero,0(s2)
 664:	0100                	addi	s0,sp,128
 666:	00090003          	lb	zero,0(s2)
 66a:	0100                	addi	s0,sp,128
 66c:	00090003          	lb	zero,0(s2)
 670:	0100                	addi	s0,sp,128
 672:	00090003          	lb	zero,0(s2)
 676:	0100                	addi	s0,sp,128
 678:	00090003          	lb	zero,0(s2)
 67c:	0100                	addi	s0,sp,128
 67e:	00090003          	lb	zero,0(s2)
 682:	0100                	addi	s0,sp,128
 684:	00090003          	lb	zero,0(s2)
 688:	0100                	addi	s0,sp,128
 68a:	00090003          	lb	zero,0(s2)
 68e:	0100                	addi	s0,sp,128
 690:	00090003          	lb	zero,0(s2)
 694:	0100                	addi	s0,sp,128
 696:	00090003          	lb	zero,0(s2)
 69a:	0100                	addi	s0,sp,128
 69c:	00090003          	lb	zero,0(s2)
 6a0:	0100                	addi	s0,sp,128
 6a2:	00090003          	lb	zero,0(s2)
 6a6:	0100                	addi	s0,sp,128
 6a8:	00090003          	lb	zero,0(s2)
 6ac:	0100                	addi	s0,sp,128
 6ae:	00090003          	lb	zero,0(s2)
 6b2:	0100                	addi	s0,sp,128
 6b4:	00090003          	lb	zero,0(s2)
 6b8:	0100                	addi	s0,sp,128
 6ba:	00090003          	lb	zero,0(s2)
 6be:	0100                	addi	s0,sp,128
 6c0:	00090003          	lb	zero,0(s2)
 6c4:	0100                	addi	s0,sp,128
 6c6:	00090003          	lb	zero,0(s2)
 6ca:	0100                	addi	s0,sp,128
 6cc:	00090003          	lb	zero,0(s2)
 6d0:	0100                	addi	s0,sp,128
 6d2:	00090003          	lb	zero,0(s2)
 6d6:	0100                	addi	s0,sp,128
 6d8:	00090003          	lb	zero,0(s2)
 6dc:	0100                	addi	s0,sp,128
 6de:	00090003          	lb	zero,0(s2)
 6e2:	0100                	addi	s0,sp,128
 6e4:	00090003          	lb	zero,0(s2)
 6e8:	0100                	addi	s0,sp,128
 6ea:	00090003          	lb	zero,0(s2)
 6ee:	0100                	addi	s0,sp,128
 6f0:	00090003          	lb	zero,0(s2)
 6f4:	0100                	addi	s0,sp,128
 6f6:	00090003          	lb	zero,0(s2)
 6fa:	0100                	addi	s0,sp,128
 6fc:	00090003          	lb	zero,0(s2)
 700:	0100                	addi	s0,sp,128
 702:	00090203          	lb	tp,0(s2)
 706:	0100                	addi	s0,sp,128
 708:	0b05                	addi	s6,s6,1
 70a:	0306                	slli	t1,t1,0x1
 70c:	0900                	addi	s0,sp,144
 70e:	0000                	unimp
 710:	0501                	addi	a0,a0,0
 712:	0314                	addi	a3,sp,384
 714:	0900                	addi	s0,sp,144
 716:	0000                	unimp
 718:	0501                	addi	a0,a0,0
 71a:	0308                	addi	a0,sp,384
 71c:	097e                	slli	s2,s2,0x1f
 71e:	0000                	unimp
 720:	0501                	addi	a0,a0,0
 722:	097d030b          	0x97d030b
 726:	0000                	unimp
 728:	0501                	addi	a0,a0,0
 72a:	0308                	addi	a0,sp,384
 72c:	00000903          	lb	s2,0(zero) # 0 <main-0x10074>
 730:	0501                	addi	a0,a0,0
 732:	0908030b          	0x908030b
 736:	0000                	unimp
 738:	0501                	addi	a0,a0,0
 73a:	0321                	addi	t1,t1,8
 73c:	097a                	slli	s2,s2,0x1e
 73e:	0000                	unimp
 740:	0501                	addi	a0,a0,0
 742:	0605                	addi	a2,a2,1
 744:	00090203          	lb	tp,0(s2)
 748:	0100                	addi	s0,sp,128
 74a:	0705                	addi	a4,a4,1
 74c:	0306                	slli	t1,t1,0x1
 74e:	0900                	addi	s0,sp,144
 750:	0000                	unimp
 752:	0501                	addi	a0,a0,0
 754:	0605                	addi	a2,a2,1
 756:	00090103          	lb	sp,0(s2)
 75a:	0100                	addi	s0,sp,128
 75c:	00090003          	lb	zero,0(s2)
 760:	0100                	addi	s0,sp,128
 762:	00090003          	lb	zero,0(s2)
 766:	0100                	addi	s0,sp,128
 768:	00090003          	lb	zero,0(s2)
 76c:	0100                	addi	s0,sp,128
 76e:	00090003          	lb	zero,0(s2)
 772:	0100                	addi	s0,sp,128
 774:	0705                	addi	a4,a4,1
 776:	0306                	slli	t1,t1,0x1
 778:	00000943          	fmadd.s	fs2,ft0,ft0,ft0,rne
 77c:	0301                	addi	t1,t1,0
 77e:	097f                	0x97f
 780:	0000                	unimp
 782:	0901                	addi	s2,s2,0
 784:	0000                	unimp
 786:	0100                	addi	s0,sp,128
 788:	01              	Address 0x0000000000000788 is out of bounds.


Disassembly of section .debug_str:

00000000 <.debug_str>:
   0:	5744                	lw	s1,44(a4)
   2:	6e75                	lui	t3,0x1d
   4:	6f69                	lui	t5,0x1a
   6:	006e                	c.slli	zero,0x1b
   8:	5f5f 6475 7669      	0x766964755f5f
   e:	6964                	flw	fs1,84(a0)
  10:	6f630033          	0x6f630033
  14:	706d                	c.lui	zero,0xffffb
  16:	656c                	flw	fa1,76(a0)
  18:	2078                	fld	fa4,192(s0)
  1a:	6c66                	flw	fs8,88(sp)
  1c:	0074616f          	jal	sp,46822 <__global_pointer$+0x32efa>
  20:	5f5f 756d 736c      	0x736c756d5f5f
  26:	3369                	jal	fffffdb0 <__global_pointer$+0xfffec488>
  28:	2f00                	fld	fs0,24(a4)
  2a:	656d                	lui	a0,0x1b
  2c:	6964                	flw	fs1,84(a0)
  2e:	2f61                	jal	7c6 <main-0xf8ae>
  30:	6e65                	lui	t3,0x19
  32:	2f6e6967          	0x2f6e6967
  36:	726f7453          	0x726f7453
  3a:	6761                	lui	a4,0x18
  3c:	4165                	li	sp,25
  3e:	4750462f          	0x4750462f
  42:	2f41                	jal	7d2 <main-0xf8a2>
  44:	6972                	flw	fs2,28(sp)
  46:	2d766373          	csrrsi	t1,0x2d7,12
  4a:	2d756e67          	0x2d756e67
  4e:	6f74                	flw	fa3,92(a4)
  50:	68636c6f          	jal	s8,366d6 <__global_pointer$+0x22dae>
  54:	6961                	lui	s2,0x18
  56:	2f6e                	fld	ft10,216(sp)
  58:	7562                	flw	fa0,56(sp)
  5a:	6c69                	lui	s8,0x1a
  5c:	2d64                	fld	fs1,216(a0)
  5e:	2d636367          	0x2d636367
  62:	656e                	flw	fa0,216(sp)
  64:	62696c77          	0x62696c77
  68:	732d                	lui	t1,0xfffeb
  6a:	6174                	flw	fa3,68(a0)
  6c:	2f326567          	0x2f326567
  70:	6972                	flw	fs2,28(sp)
  72:	36766373          	csrrsi	t1,0x367,12
  76:	2d34                	fld	fa3,88(a0)
  78:	6e75                	lui	t3,0x1d
  7a:	776f6e6b          	0x776f6e6b
  7e:	2d6e                	fld	fs10,216(sp)
  80:	6c65                	lui	s8,0x19
  82:	2f66                	fld	ft10,88(sp)
  84:	7672                	flw	fa2,60(sp)
  86:	2f693233          	0x2f693233
  8a:	6c69                	lui	s8,0x1a
  8c:	3370                	fld	fa2,224(a4)
  8e:	2f32                	fld	ft10,264(sp)
  90:	696c                	flw	fa1,84(a0)
  92:	6762                	flw	fa4,24(sp)
  94:	5f006363          	bltu	zero,a6,67a <main-0xf9fa>
  98:	645f 0030 6873      	0x68730030645f
  9e:	2074726f          	jal	tp,47aa4 <__global_pointer$+0x3417c>
  a2:	6e69                	lui	t3,0x1a
  a4:	0074                	addi	a3,sp,12
  a6:	20554e47          	fmsub.s	ft8,fa0,ft5,ft4,rmm
  aa:	20373143          	fmadd.s	ft2,fa4,ft3,ft4,rup
  ae:	3031                	jal	fffff8ba <__global_pointer$+0xfffebf92>
  b0:	322e                	fld	ft4,232(sp)
  b2:	302e                	fld	ft0,232(sp)
  b4:	2d20                	fld	fs0,88(a0)
  b6:	636d                	lui	t1,0x1b
  b8:	6f6d                	lui	t5,0x1b
  ba:	6564                	flw	fs1,76(a0)
  bc:	3d6c                	fld	fa1,248(a0)
  be:	656d                	lui	a0,0x1b
  c0:	6c64                	flw	fs1,92(s0)
  c2:	2d20776f          	jal	a4,7394 <main-0x8ce0>
  c6:	616d                	addi	sp,sp,240
  c8:	6372                	flw	ft6,28(sp)
  ca:	3d68                	fld	fa0,248(a0)
  cc:	7672                	flw	fa2,60(sp)
  ce:	20693233          	0x20693233
  d2:	6d2d                	lui	s10,0xb
  d4:	6261                	lui	tp,0x18
  d6:	3d69                	jal	ffffff70 <__global_pointer$+0xfffec648>
  d8:	6c69                	lui	s8,0x1a
  da:	3370                	fld	fa2,224(a4)
  dc:	2032                	fld	ft0,264(sp)
  de:	6d2d                	lui	s10,0xb
  e0:	646f6d63          	bltu	t5,t1,73a <main-0xf93a>
  e4:	6c65                	lui	s8,0x19
  e6:	6d3d                	lui	s10,0xf
  e8:	6465                	lui	s0,0x19
  ea:	6f6c                	flw	fa1,92(a4)
  ec:	6d2d2077          	0x6d2d2077
  f0:	7574                	flw	fa3,108(a0)
  f2:	656e                	flw	fa0,216(sp)
  f4:	723d                	lui	tp,0xfffef
  f6:	656b636f          	jal	t1,b674c <__global_pointer$+0xa2e24>
  fa:	2074                	fld	fa3,192(s0)
  fc:	6d2d                	lui	s10,0xb
  fe:	7261                	lui	tp,0xffff8
 100:	723d6863          	bltu	s10,gp,830 <main-0xf844>
 104:	3376                	fld	ft6,376(sp)
 106:	6932                	flw	fs2,12(sp)
 108:	2d20                	fld	fs0,88(a0)
 10a:	4f2d2067          	0x4f2d2067
 10e:	4f2d2073          	csrs	0x4f2,s10
 112:	2032                	fld	ft0,264(sp)
 114:	4f2d                	li	t5,11
 116:	662d2073          	csrs	0x662,s10
 11a:	7562                	flw	fa0,56(sp)
 11c:	6c69                	lui	s8,0x1a
 11e:	6964                	flw	fs1,84(a0)
 120:	676e                	flw	fa4,216(sp)
 122:	6c2d                	lui	s8,0xb
 124:	6269                	lui	tp,0x1a
 126:	20636367          	0x20636367
 12a:	662d                	lui	a2,0xb
 12c:	6f6e                	flw	ft10,216(sp)
 12e:	732d                	lui	t1,0xfffeb
 130:	6174                	flw	fa3,68(a0)
 132:	702d6b63          	bltu	s10,sp,848 <main-0xf82c>
 136:	6f72                	flw	ft10,28(sp)
 138:	6574                	flw	fa3,76(a0)
 13a:	726f7463          	bgeu	t5,t1,862 <main-0xf812>
 13e:	2d20                	fld	fs0,88(a0)
 140:	6566                	flw	fa0,88(sp)
 142:	6378                	flw	fa4,68(a4)
 144:	7065                	c.lui	zero,0xffff9
 146:	6974                	flw	fa3,84(a0)
 148:	20736e6f          	jal	t3,36b4e <__global_pointer$+0x23226>
 14c:	662d                	lui	a2,0xb
 14e:	6f6e                	flw	ft10,216(sp)
 150:	2d6e                	fld	fs10,216(sp)
 152:	6c6c6163          	bltu	s8,t1,814 <main-0xf860>
 156:	652d                	lui	a0,0xb
 158:	6378                	flw	fa4,68(a4)
 15a:	7065                	c.lui	zero,0xffff9
 15c:	6974                	flw	fa3,84(a0)
 15e:	20736e6f          	jal	t3,36b64 <__global_pointer$+0x2323c>
 162:	662d                	lui	a2,0xb
 164:	6976                	flw	fs2,92(sp)
 166:	69626973          	csrrsi	s2,0x696,4
 16a:	696c                	flw	fa1,84(a0)
 16c:	7974                	flw	fa3,116(a0)
 16e:	683d                	lui	a6,0xf
 170:	6469                	lui	s0,0x1a
 172:	6564                	flw	fs1,76(a0)
 174:	006e                	c.slli	zero,0x1b
 176:	5f5f 6876 5f00      	0x5f0068765f5f
 17c:	6f5f 3070 5f00      	0x5f0030706f5f
 182:	6f5f 3170 5f00      	0x5f0031706f5f
 188:	755f 6964 7376      	0x73766964755f
 18e:	3369                	jal	ffffff18 <__global_pointer$+0xfffec5f0>
 190:	2e00                	fld	fs0,24(a2)
 192:	2f2e                	fld	ft10,200(sp)
 194:	2e2e                	fld	ft8,200(sp)
 196:	2f2e2e2f          	0x2f2e2e2f
 19a:	2e2e                	fld	ft8,200(sp)
 19c:	2f2e2e2f          	0x2f2e2e2f
 1a0:	2f2e                	fld	ft10,200(sp)
 1a2:	6972                	flw	fs2,28(sp)
 1a4:	2d766373          	csrrsi	t1,0x2d7,12
 1a8:	2f636367          	0x2f636367
 1ac:	696c                	flw	fa1,84(a0)
 1ae:	6762                	flw	fa4,24(sp)
 1b0:	6c2f6363          	bltu	t5,sp,876 <main-0xf7fe>
 1b4:	6269                	lui	tp,0x1a
 1b6:	32636367          	0x32636367
 1ba:	632e                	flw	ft6,200(sp)
 1bc:	6c00                	flw	fs0,24(s0)
 1be:	20676e6f          	jal	t3,763c4 <__global_pointer$+0x62a9c>
 1c2:	6f6c                	flw	fa1,92(a4)
 1c4:	676e                	flw	fa4,216(sp)
 1c6:	6920                	flw	fs0,80(a0)
 1c8:	746e                	flw	fs0,248(sp)
 1ca:	6c00                	flw	fs0,24(s0)
 1cc:	20676e6f          	jal	t3,763d2 <__global_pointer$+0x62aaa>
 1d0:	6f6c                	flw	fa1,92(a4)
 1d2:	676e                	flw	fa4,216(sp)
 1d4:	7520                	flw	fs0,104(a0)
 1d6:	736e                	flw	ft6,248(sp)
 1d8:	6769                	lui	a4,0x1a
 1da:	656e                	flw	fa0,216(sp)
 1dc:	2064                	fld	fs1,192(s0)
 1de:	6e69                	lui	t3,0x1a
 1e0:	0074                	addi	a3,sp,12
 1e2:	6968                	flw	fa0,84(a0)
 1e4:	5f006867          	0x5f006867
 1e8:	635f 7a6c 745f      	0x745f7a6c635f
 1ee:	6261                	lui	tp,0x18
 1f0:	7500                	flw	fs0,40(a0)
 1f2:	736e                	flw	ft6,248(sp)
 1f4:	6769                	lui	a4,0x1a
 1f6:	656e                	flw	fa0,216(sp)
 1f8:	2064                	fld	fs1,192(s0)
 1fa:	72616863          	bltu	sp,t1,92a <main-0xf74a>
 1fe:	5f00                	lw	s0,56(a4)
 200:	785f 0030 5f5f      	0x5f5f0030785f
 206:	3178                	fld	fa4,224(a0)
 208:	5f00                	lw	s0,56(a4)
 20a:	785f 0032 5f5f      	0x5f5f0032785f
 210:	3378                	fld	fa4,224(a4)
 212:	5500                	lw	s0,40(a0)
 214:	4951                	li	s2,20
 216:	7974                	flw	fa3,116(a0)
 218:	6570                	flw	fa2,76(a0)
 21a:	4400                	lw	s0,8(s0)
 21c:	72747357          	0x72747357
 220:	6375                	lui	t1,0x1d
 222:	0074                	addi	a3,sp,12
 224:	726f6873          	csrrsi	a6,0x726,30
 228:	2074                	fld	fa3,192(s0)
 22a:	6e75                	lui	t3,0x1d
 22c:	6e676973          	csrrsi	s2,0x6e6,14
 230:	6465                	lui	s0,0x19
 232:	6920                	flw	fs0,80(a0)
 234:	746e                	flw	fs0,248(sp)
 236:	5500                	lw	s0,40(a0)
 238:	4944                	lw	s1,20(a0)
 23a:	7974                	flw	fa3,116(a0)
 23c:	6570                	flw	fa2,76(a0)
 23e:	5f00                	lw	s0,56(a4)
 240:	715f 0030 5f5f      	0x5f5f0030715f
 246:	3171                	jal	fffffed2 <__global_pointer$+0xfffec5aa>
 248:	5f00                	lw	s0,56(a4)
 24a:	645f 0031 5f5f      	0x5f5f0031645f
 250:	6d75                	lui	s10,0x1d
 252:	6973646f          	jal	s0,370e8 <__global_pointer$+0x237c0>
 256:	6f630033          	0x6f630033
 25a:	706d                	c.lui	zero,0xffffb
 25c:	656c                	flw	fa1,76(a0)
 25e:	2078                	fld	fa4,192(s0)
 260:	6f64                	flw	fs1,92(a4)
 262:	6275                	lui	tp,0x1d
 264:	656c                	flw	fa1,76(a0)
 266:	5f00                	lw	s0,56(a4)
 268:	765f 006c 5f5f      	0x5f5f006c765f
 26e:	6475                	lui	s0,0x1d
 270:	7669                	lui	a2,0xffffa
 272:	6f6d                	lui	t5,0x1b
 274:	6464                	flw	fs1,76(s0)
 276:	3469                	jal	fffffd00 <__global_pointer$+0xfffec3d8>
 278:	6300                	flw	fs0,0(a4)
 27a:	6c706d6f          	jal	s10,7140 <main-0x8f34>
 27e:	7865                	lui	a6,0xffff9
 280:	6c20                	flw	fs0,88(s0)
 282:	20676e6f          	jal	t3,76488 <__global_pointer$+0x62b60>
 286:	6f64                	flw	fs1,92(a4)
 288:	6275                	lui	tp,0x1d
 28a:	656c                	flw	fa1,76(a0)
 28c:	5500                	lw	s0,40(a0)
 28e:	79744953          	0x79744953
 292:	6570                	flw	fa2,76(a0)
 294:	5f00                	lw	s0,56(a4)
 296:	785f 0072 5f5f      	0x5f5f0072785f
 29c:	3072                	fld	ft0,312(sp)
 29e:	5f00                	lw	s0,56(a4)
 2a0:	725f 0031 5f5f      	0x5f5f0031725f
 2a6:	6875                	lui	a6,0x1d
 2a8:	5f00                	lw	s0,56(a4)
 2aa:	755f 006c       	0x6c755f

Disassembly of section .debug_loc:

00000000 <.debug_loc>:
	...
   8:	0006                	c.slli	zero,0x1
   a:	935a                	add	t1,t1,s6
   c:	5b04                	lw	s1,48(a4)
   e:	00000493          	li	s1,0
  12:	0000                	unimp
  14:	0000                	unimp
  16:	0000                	unimp
  18:	0006                	c.slli	zero,0x1
  1a:	0af503f3          	0xaf503f3
  1e:	9f25                	0x9f25
	...
  28:	0006                	c.slli	zero,0x1
  2a:	935a                	add	t1,t1,s6
  2c:	5b04                	lw	s1,48(a4)
  2e:	00000493          	li	s1,0
  32:	0000                	unimp
  34:	0000                	unimp
  36:	0000                	unimp
  38:	0006                	c.slli	zero,0x1
  3a:	0af503f3          	0xaf503f3
  3e:	9f25                	0x9f25
	...
  48:	0006                	c.slli	zero,0x1
  4a:	935a                	add	t1,t1,s6
  4c:	5b04                	lw	s1,48(a4)
  4e:	00000493          	li	s1,0
  52:	0000                	unimp
  54:	0000                	unimp
  56:	0000                	unimp
  58:	0006                	c.slli	zero,0x1
  5a:	0af503f3          	0xaf503f3
  5e:	9f25                	0x9f25
	...
  68:	0006                	c.slli	zero,0x1
  6a:	935a                	add	t1,t1,s6
  6c:	5b04                	lw	s1,48(a4)
  6e:	00000493          	li	s1,0
	...
  7e:	0000                	unimp
  80:	0006                	c.slli	zero,0x1
  82:	935c                	0x935c
  84:	5d04                	lw	s1,56(a0)
  86:	00000493          	li	s1,0
  8a:	0000                	unimp
  8c:	0000                	unimp
  8e:	0000                	unimp
  90:	0006                	c.slli	zero,0x1
  92:	0cf503f3          	0xcf503f3
  96:	9f25                	0x9f25
	...
  a0:	0006                	c.slli	zero,0x1
  a2:	935c                	0x935c
  a4:	5d04                	lw	s1,56(a0)
  a6:	00000493          	li	s1,0
  aa:	0000                	unimp
  ac:	0000                	unimp
  ae:	0000                	unimp
  b0:	0006                	c.slli	zero,0x1
  b2:	0cf503f3          	0xcf503f3
  b6:	9f25                	0x9f25
	...
  c0:	0006                	c.slli	zero,0x1
  c2:	935c                	0x935c
  c4:	5d04                	lw	s1,56(a0)
  c6:	00000493          	li	s1,0
  ca:	0000                	unimp
  cc:	0000                	unimp
  ce:	0000                	unimp
  d0:	0006                	c.slli	zero,0x1
  d2:	0cf503f3          	0xcf503f3
  d6:	9f25                	0x9f25
	...
  e0:	0006                	c.slli	zero,0x1
  e2:	935c                	0x935c
  e4:	5d04                	lw	s1,56(a0)
  e6:	00000493          	li	s1,0
  ea:	0000                	unimp
  ec:	0000                	unimp
  ee:	0000                	unimp
  f0:	0006                	c.slli	zero,0x1
  f2:	0cf503f3          	0xcf503f3
  f6:	9f25                	0x9f25
	...
 100:	0006                	c.slli	zero,0x1
 102:	935c                	0x935c
 104:	5d04                	lw	s1,56(a0)
 106:	00000493          	li	s1,0
	...
 116:	0000                	unimp
 118:	0002                	c.slli64	zero
 11a:	9f30                	0x9f30
	...
 124:	0002                	c.slli64	zero
 126:	9f30                	0x9f30
	...
 138:	0006                	c.slli	zero,0x1
 13a:	935c                	0x935c
 13c:	5d04                	lw	s1,56(a0)
 13e:	00000493          	li	s1,0
 142:	0000                	unimp
 144:	0000                	unimp
 146:	0000                	unimp
 148:	0006                	c.slli	zero,0x1
 14a:	935c                	0x935c
 14c:	5d04                	lw	s1,56(a0)
 14e:	00000493          	li	s1,0
 152:	0000                	unimp
 154:	0000                	unimp
 156:	0000                	unimp
 158:	0006                	c.slli	zero,0x1
 15a:	9362                	add	t1,t1,s8
 15c:	6304                	flw	fs1,0(a4)
 15e:	00000493          	li	s1,0
 162:	0000                	unimp
 164:	0000                	unimp
 166:	0000                	unimp
 168:	0006                	c.slli	zero,0x1
 16a:	935c                	0x935c
 16c:	5d04                	lw	s1,56(a0)
 16e:	00000493          	li	s1,0
 172:	0000                	unimp
 174:	0000                	unimp
 176:	0000                	unimp
 178:	0006                	c.slli	zero,0x1
 17a:	935c                	0x935c
 17c:	5d04                	lw	s1,56(a0)
 17e:	00000493          	li	s1,0
 182:	0000                	unimp
 184:	0000                	unimp
 186:	0000                	unimp
 188:	0006                	c.slli	zero,0x1
 18a:	935c                	0x935c
 18c:	5d04                	lw	s1,56(a0)
 18e:	00000493          	li	s1,0
	...
 19e:	0000                	unimp
 1a0:	0006                	c.slli	zero,0x1
 1a2:	935a                	add	t1,t1,s6
 1a4:	5b04                	lw	s1,48(a4)
 1a6:	00000493          	li	s1,0
 1aa:	0000                	unimp
 1ac:	0000                	unimp
 1ae:	0000                	unimp
 1b0:	0006                	c.slli	zero,0x1
 1b2:	935a                	add	t1,t1,s6
 1b4:	5804                	lw	s1,48(s0)
 1b6:	00000493          	li	s1,0
 1ba:	0000                	unimp
 1bc:	0000                	unimp
 1be:	0000                	unimp
 1c0:	0006                	c.slli	zero,0x1
 1c2:	9364                	0x9364
 1c4:	5804                	lw	s1,48(s0)
 1c6:	00000493          	li	s1,0
 1ca:	0000                	unimp
 1cc:	0000                	unimp
 1ce:	0000                	unimp
 1d0:	0006                	c.slli	zero,0x1
 1d2:	9364                	0x9364
 1d4:	5804                	lw	s1,48(s0)
 1d6:	00000493          	li	s1,0
 1da:	0000                	unimp
 1dc:	0000                	unimp
 1de:	0000                	unimp
 1e0:	0006                	c.slli	zero,0x1
 1e2:	935a                	add	t1,t1,s6
 1e4:	5804                	lw	s1,48(s0)
 1e6:	00000493          	li	s1,0
 1ea:	0000                	unimp
 1ec:	0000                	unimp
 1ee:	0000                	unimp
 1f0:	0006                	c.slli	zero,0x1
 1f2:	935a                	add	t1,t1,s6
 1f4:	5804                	lw	s1,48(s0)
 1f6:	00000493          	li	s1,0
	...
 206:	0000                	unimp
 208:	0001                	nop
 20a:	005c                	addi	a5,sp,4
 20c:	0000                	unimp
 20e:	0000                	unimp
 210:	0000                	unimp
 212:	0900                	addi	s0,sp,144
 214:	7c00                	flw	fs0,56(s0)
 216:	7f00                	flw	fs0,56(a4)
 218:	0800                	addi	s0,sp,16
 21a:	1aff                	0x1aff
 21c:	9f24                	0x9f24
	...
 226:	0001                	nop
 228:	0062                	c.slli	zero,0x18
 22a:	0000                	unimp
 22c:	0000                	unimp
 22e:	0000                	unimp
 230:	0100                	addi	s0,sp,128
 232:	5c00                	lw	s0,56(s0)
	...
 23c:	0001                	nop
 23e:	0062                	c.slli	zero,0x18
 240:	0000                	unimp
 242:	0000                	unimp
 244:	0000                	unimp
 246:	0900                	addi	s0,sp,144
 248:	8200                	0x8200
 24a:	7e00                	flw	fs0,56(a2)
 24c:	0800                	addi	s0,sp,16
 24e:	1aff                	0x1aff
 250:	9f24                	0x9f24
	...
 25a:	0001                	nop
 25c:	0062                	c.slli	zero,0x18
 25e:	0000                	unimp
 260:	0000                	unimp
 262:	0000                	unimp
 264:	0100                	addi	s0,sp,128
 266:	5c00                	lw	s0,56(s0)
	...
 270:	0001                	nop
 272:	005c                	addi	a5,sp,4
 274:	0000                	unimp
 276:	0000                	unimp
 278:	0000                	unimp
 27a:	0100                	addi	s0,sp,128
 27c:	6200                	flw	fs0,0(a2)
	...
 286:	0001                	nop
 288:	005c                	addi	a5,sp,4
	...
 296:	0000                	unimp
 298:	0100                	addi	s0,sp,128
 29a:	5d00                	lw	s0,56(a0)
	...
 2a4:	0001                	nop
 2a6:	005d                	c.nop	23
 2a8:	0000                	unimp
 2aa:	0000                	unimp
 2ac:	0000                	unimp
 2ae:	0100                	addi	s0,sp,128
 2b0:	6300                	flw	fs0,0(a4)
	...
 2ba:	0001                	nop
 2bc:	00000063          	beqz	zero,2bc <main-0xfdb8>
 2c0:	0000                	unimp
 2c2:	0000                	unimp
 2c4:	0100                	addi	s0,sp,128
 2c6:	5d00                	lw	s0,56(a0)
	...
 2d0:	0001                	nop
 2d2:	0069                	c.nop	26
 2d4:	0000                	unimp
 2d6:	0000                	unimp
 2d8:	0000                	unimp
 2da:	0100                	addi	s0,sp,128
 2dc:	5d00                	lw	s0,56(a0)
	...
 2ee:	0001                	nop
 2f0:	005a                	c.slli	zero,0x16
 2f2:	0000                	unimp
 2f4:	0000                	unimp
 2f6:	0000                	unimp
 2f8:	0100                	addi	s0,sp,128
 2fa:	6400                	flw	fs0,8(s0)
	...
 304:	0001                	nop
 306:	005a                	c.slli	zero,0x16
 308:	0000                	unimp
 30a:	0000                	unimp
 30c:	0000                	unimp
 30e:	0100                	addi	s0,sp,128
 310:	6400                	flw	fs0,8(s0)
	...
 31a:	0001                	nop
 31c:	0064                	addi	s1,sp,12
 31e:	0000                	unimp
 320:	0000                	unimp
 322:	0000                	unimp
 324:	0100                	addi	s0,sp,128
 326:	5a00                	lw	s0,48(a2)
	...
 330:	0001                	nop
 332:	00000067          	jr	zero # 0 <main-0x10074>
 336:	0000                	unimp
 338:	0000                	unimp
 33a:	0600                	addi	s0,sp,768
 33c:	8700                	0x8700
 33e:	7900                	flw	fs0,48(a0)
 340:	2400                	fld	fs0,8(s0)
 342:	009f 0000 0000      	0x9f
 348:	0000                	unimp
 34a:	0100                	addi	s0,sp,128
 34c:	5a00                	lw	s0,48(a2)
	...
 35e:	0001                	nop
 360:	0000005b          	0x5b
 364:	0000                	unimp
 366:	0000                	unimp
 368:	0100                	addi	s0,sp,128
 36a:	6800                	flw	fs0,16(s0)
	...
 374:	0001                	nop
 376:	0058                	addi	a4,sp,4
 378:	0000                	unimp
 37a:	0000                	unimp
 37c:	0000                	unimp
 37e:	0100                	addi	s0,sp,128
 380:	5800                	lw	s0,48(s0)
	...
 38a:	0001                	nop
 38c:	0065                	c.nop	25
 38e:	0000                	unimp
 390:	0000                	unimp
 392:	0000                	unimp
 394:	0100                	addi	s0,sp,128
 396:	5800                	lw	s0,48(s0)
	...
 3a0:	0001                	nop
 3a2:	0065                	c.nop	25
 3a4:	0000                	unimp
 3a6:	0000                	unimp
 3a8:	0000                	unimp
 3aa:	0100                	addi	s0,sp,128
 3ac:	5800                	lw	s0,48(s0)
	...
 3be:	0001                	nop
 3c0:	00000063          	beqz	zero,3c0 <main-0xfcb4>
 3c4:	0000                	unimp
 3c6:	0000                	unimp
 3c8:	0100                	addi	s0,sp,128
 3ca:	5a00                	lw	s0,48(a2)
	...
 3d4:	0001                	nop
 3d6:	00000063          	beqz	zero,3d6 <main-0xfc9e>
	...
 3e6:	0100                	addi	s0,sp,128
 3e8:	5f00                	lw	s0,56(a4)
	...
 3f2:	0001                	nop
 3f4:	005f 0000 0000      	0x5f
	...
 402:	0000                	unimp
 404:	0200                	addi	s0,sp,256
 406:	3100                	fld	fs0,32(a0)
 408:	009f 0000 0000      	0x9f
 40e:	0000                	unimp
 410:	0100                	addi	s0,sp,128
 412:	5900                	lw	s0,48(a0)
	...
 41c:	0001                	nop
 41e:	0059                	c.nop	22
	...
 42c:	0000                	unimp
 42e:	0100                	addi	s0,sp,128
 430:	5f00                	lw	s0,56(a4)
	...
 43a:	0001                	nop
 43c:	0065                	c.nop	25
	...
 44a:	0000                	unimp
 44c:	0100                	addi	s0,sp,128
 44e:	5f00                	lw	s0,56(a4)
	...
 458:	0001                	nop
 45a:	005e                	c.slli	zero,0x17
 45c:	0000                	unimp
 45e:	0000                	unimp
 460:	0000                	unimp
 462:	0100                	addi	s0,sp,128
 464:	5e00                	lw	s0,56(a2)
	...
 46e:	0001                	nop
 470:	0059                	c.nop	22
 472:	0000                	unimp
 474:	0000                	unimp
 476:	0000                	unimp
 478:	0100                	addi	s0,sp,128
 47a:	5900                	lw	s0,48(a0)
	...
 48c:	0001                	nop
 48e:	005c                	addi	a5,sp,4
 490:	0000                	unimp
 492:	0000                	unimp
 494:	0000                	unimp
 496:	0900                	addi	s0,sp,144
 498:	7c00                	flw	fs0,56(s0)
 49a:	7f00                	flw	fs0,56(a4)
 49c:	0800                	addi	s0,sp,16
 49e:	1aff                	0x1aff
 4a0:	9f24                	0x9f24
	...
 4aa:	0001                	nop
 4ac:	0062                	c.slli	zero,0x18
 4ae:	0000                	unimp
 4b0:	0000                	unimp
 4b2:	0000                	unimp
 4b4:	0100                	addi	s0,sp,128
 4b6:	5c00                	lw	s0,56(s0)
	...
 4c8:	0001                	nop
 4ca:	005e                	c.slli	zero,0x17
	...
 4d8:	0000                	unimp
 4da:	0100                	addi	s0,sp,128
 4dc:	6600                	flw	fs0,8(a2)
	...
 4ee:	0001                	nop
 4f0:	0065                	c.nop	25
	...
 4fe:	0000                	unimp
 500:	0100                	addi	s0,sp,128
 502:	5800                	lw	s0,48(s0)
	...
 50c:	0001                	nop
 50e:	00000063          	beqz	zero,50e <main-0xfb66>
	...
 51e:	0100                	addi	s0,sp,128
 520:	5800                	lw	s0,48(s0)
	...
 52a:	0001                	nop
 52c:	005c                	addi	a5,sp,4
	...
 53a:	0000                	unimp
 53c:	0100                	addi	s0,sp,128
 53e:	5900                	lw	s0,48(a0)
	...
 548:	0001                	nop
 54a:	005e                	c.slli	zero,0x17
 54c:	0000                	unimp
 54e:	0000                	unimp
 550:	0000                	unimp
 552:	0800                	addi	s0,sp,16
 554:	8400                	0x8400
 556:	4000                	lw	s0,0(s0)
 558:	7925                	lui	s2,0xfffe9
 55a:	2100                	fld	fs0,0(a0)
 55c:	009f 0000 0000      	0x9f
 562:	0000                	unimp
 564:	0100                	addi	s0,sp,128
 566:	5e00                	lw	s0,56(a2)
	...
 570:	0001                	nop
 572:	0058                	addi	a4,sp,4
	...
 580:	0000                	unimp
 582:	0100                	addi	s0,sp,128
 584:	5900                	lw	s0,48(a0)
	...
 58e:	0001                	nop
 590:	0064                	addi	s1,sp,12
	...
 59e:	0000                	unimp
 5a0:	0100                	addi	s0,sp,128
 5a2:	5a00                	lw	s0,48(a2)
	...
 5ac:	0001                	nop
 5ae:	005a                	c.slli	zero,0x16
	...
 5bc:	0000                	unimp
 5be:	0100                	addi	s0,sp,128
 5c0:	5d00                	lw	s0,56(a0)
	...
 5d2:	0010                	0x10
 5d4:	0080                	addi	s0,sp,64
 5d6:	ff0a                	fsw	ft2,188(sp)
 5d8:	1aff                	0x1aff
 5da:	007e                	c.slli	zero,0x1f
 5dc:	ff0a                	fsw	ft2,188(sp)
 5de:	1aff                	0x1aff
 5e0:	2440                	fld	fs0,136(s0)
 5e2:	9f22                	add	t5,t5,s0
	...
 5ec:	0015                	c.nop	5
 5ee:	0080                	addi	s0,sp,64
 5f0:	ff0a                	fsw	ft2,188(sp)
 5f2:	1aff                	0x1aff
 5f4:	0080                	addi	s0,sp,64
 5f6:	2540                	fld	fs0,136(a0)
 5f8:	0081                	addi	ra,ra,0
 5fa:	0a22                	slli	s4,s4,0x8
 5fc:	ffff                	0xffff
 5fe:	401a                	0x401a
 600:	2224                	fld	fs1,64(a2)
 602:	009f 0000 0000      	0x9f
	...
 610:	0000                	unimp
 612:	0100                	addi	s0,sp,128
 614:	5800                	lw	s0,48(s0)
	...
 61e:	0005                	c.nop	1
 620:	0089                	addi	ra,ra,2
 622:	2540                	fld	fs0,136(a0)
 624:	009f 0000 0000      	0x9f
	...
 632:	0000                	unimp
 634:	0100                	addi	s0,sp,128
 636:	6600                	flw	fs0,8(a2)
	...
 648:	0001                	nop
 64a:	005a                	c.slli	zero,0x16
 64c:	0000                	unimp
 64e:	0000                	unimp
 650:	0000                	unimp
 652:	0100                	addi	s0,sp,128
 654:	5b00                	lw	s0,48(a4)
	...
 65e:	0001                	nop
 660:	00000063          	beqz	zero,660 <main-0xfa14>
 664:	0000                	unimp
 666:	0000                	unimp
 668:	0100                	addi	s0,sp,128
 66a:	6800                	flw	fs0,16(s0)
	...
 67c:	0001                	nop
 67e:	005a                	c.slli	zero,0x16
 680:	0000                	unimp
 682:	0000                	unimp
 684:	0000                	unimp
 686:	0100                	addi	s0,sp,128
 688:	5b00                	lw	s0,48(a4)
	...
 692:	0001                	nop
 694:	00000063          	beqz	zero,694 <main-0xf9e0>
 698:	0000                	unimp
 69a:	0000                	unimp
 69c:	0100                	addi	s0,sp,128
 69e:	5c00                	lw	s0,56(s0)
	...
 6b0:	0001                	nop
 6b2:	0064                	addi	s1,sp,12
 6b4:	0000                	unimp
 6b6:	0000                	unimp
 6b8:	0000                	unimp
 6ba:	0100                	addi	s0,sp,128
 6bc:	5e00                	lw	s0,56(a2)
	...
 6c6:	0008                	0x8
 6c8:	0085                	addi	ra,ra,1
 6ca:	2540                	fld	fs0,136(a0)
 6cc:	0084                	addi	s1,sp,64
 6ce:	9f21                	0x9f21
	...
 6d8:	0001                	nop
 6da:	005e                	c.slli	zero,0x17
 6dc:	0000                	unimp
 6de:	0000                	unimp
 6e0:	0000                	unimp
 6e2:	0100                	addi	s0,sp,128
 6e4:	6300                	flw	fs0,0(a4)
	...
 6f6:	0001                	nop
 6f8:	005a                	c.slli	zero,0x16
 6fa:	0000                	unimp
 6fc:	0000                	unimp
 6fe:	0000                	unimp
 700:	0100                	addi	s0,sp,128
 702:	6400                	flw	fs0,8(s0)
	...
 70c:	0001                	nop
 70e:	0058                	addi	a4,sp,4
 710:	0000                	unimp
 712:	0000                	unimp
 714:	0000                	unimp
 716:	0a00                	addi	s0,sp,272
 718:	8500                	0x8500
 71a:	4000                	lw	s0,0(s0)
 71c:	4024                	lw	s1,64(s0)
 71e:	8425                	srai	s0,s0,0x9
 720:	2100                	fld	fs0,0(a0)
 722:	009f 0000 0000      	0x9f
 728:	0000                	unimp
 72a:	0100                	addi	s0,sp,128
 72c:	5800                	lw	s0,48(s0)
	...
 73e:	0001                	nop
 740:	005a                	c.slli	zero,0x16
 742:	0000                	unimp
 744:	0000                	unimp
 746:	0000                	unimp
 748:	0100                	addi	s0,sp,128
 74a:	5a00                	lw	s0,48(a2)
	...
 75c:	0001                	nop
 75e:	005a                	c.slli	zero,0x16
 760:	0000                	unimp
 762:	0000                	unimp
 764:	0000                	unimp
 766:	0100                	addi	s0,sp,128
 768:	6000                	flw	fs0,0(s0)
	...
 77a:	0001                	nop
 77c:	005a                	c.slli	zero,0x16
 77e:	0000                	unimp
 780:	0000                	unimp
 782:	0000                	unimp
 784:	0100                	addi	s0,sp,128
 786:	6100                	flw	fs0,0(a0)
	...
 790:	0001                	nop
 792:	005e                	c.slli	zero,0x17
 794:	0000                	unimp
 796:	0000                	unimp
 798:	0000                	unimp
 79a:	0800                	addi	s0,sp,16
 79c:	8000                	0x8000
 79e:	4000                	lw	s0,0(s0)
 7a0:	8125                	srli	a0,a0,0x9
 7a2:	2200                	fld	fs0,0(a2)
 7a4:	009f 0000 0000      	0x9f
	...
 7b2:	0000                	unimp
 7b4:	0100                	addi	s0,sp,128
 7b6:	5600                	lw	s0,40(a2)
	...
 7c8:	0001                	nop
 7ca:	005a                	c.slli	zero,0x16
 7cc:	0000                	unimp
 7ce:	0000                	unimp
 7d0:	0000                	unimp
 7d2:	0100                	addi	s0,sp,128
 7d4:	5d00                	lw	s0,56(a0)
	...
 7e6:	0001                	nop
 7e8:	0061                	c.nop	24
 7ea:	0000                	unimp
 7ec:	0000                	unimp
 7ee:	0000                	unimp
 7f0:	0600                	addi	s0,sp,768
 7f2:	8c00                	0x8c00
 7f4:	7f7f                	0x7f7f
 7f6:	1a00                	addi	s0,sp,304
 7f8:	009f 0000 0000      	0x9f
 7fe:	0000                	unimp
 800:	0600                	addi	s0,sp,768
 802:	7f00                	flw	fs0,56(a4)
 804:	7a00                	flw	fs0,48(a2)
 806:	1a00                	addi	s0,sp,304
 808:	009f 0000 0000      	0x9f
 80e:	0000                	unimp
 810:	0600                	addi	s0,sp,768
 812:	8c00                	0x8c00
 814:	7f7f                	0x7f7f
 816:	1a00                	addi	s0,sp,304
 818:	009f 0000 0000      	0x9f
 81e:	0000                	unimp
 820:	0600                	addi	s0,sp,768
 822:	7f00                	flw	fs0,56(a4)
 824:	8c01                	sub	s0,s0,s0
 826:	1a7f                	0x1a7f
 828:	009f 0000 0000      	0x9f
	...
 836:	0000                	unimp
 838:	0100                	addi	s0,sp,128
 83a:	5600                	lw	s0,40(a2)
	...
 84c:	0001                	nop
 84e:	006d                	c.nop	27
	...
 85c:	0000                	unimp
 85e:	0100                	addi	s0,sp,128
 860:	6200                	flw	fs0,0(a2)
	...
 872:	0009                	c.nop	2
 874:	0082                	c.slli64	ra
 876:	007e                	c.slli	zero,0x1f
 878:	ff08                	fsw	fa0,56(a4)
 87a:	241a                	fld	fs0,384(sp)
 87c:	009f 0000 0000      	0x9f
 882:	0000                	unimp
 884:	0100                	addi	s0,sp,128
 886:	6200                	flw	fs0,0(a2)
	...
 898:	0001                	nop
 89a:	00000063          	beqz	zero,89a <main-0xf7da>
 89e:	0000                	unimp
 8a0:	0000                	unimp
 8a2:	0100                	addi	s0,sp,128
 8a4:	6300                	flw	fs0,0(a4)
	...
 8b6:	0001                	nop
 8b8:	0065                	c.nop	25
	...
 8c6:	0000                	unimp
 8c8:	0100                	addi	s0,sp,128
 8ca:	6600                	flw	fs0,8(a2)
	...
 8dc:	0001                	nop
 8de:	0058                	addi	a4,sp,4
 8e0:	0000                	unimp
 8e2:	0000                	unimp
 8e4:	0000                	unimp
 8e6:	0100                	addi	s0,sp,128
 8e8:	6700                	flw	fs0,8(a4)
	...
 8fa:	0001                	nop
 8fc:	0058                	addi	a4,sp,4
 8fe:	0000                	unimp
 900:	0000                	unimp
 902:	0000                	unimp
 904:	0100                	addi	s0,sp,128
 906:	5c00                	lw	s0,56(s0)
	...
 918:	0001                	nop
 91a:	00000063          	beqz	zero,91a <main-0xf75a>
 91e:	0000                	unimp
 920:	0000                	unimp
 922:	0100                	addi	s0,sp,128
 924:	5e00                	lw	s0,56(a2)
	...
 92e:	0008                	0x8
 930:	0084                	addi	s1,sp,64
 932:	2540                	fld	fs0,136(a0)
 934:	9f210083          	lb	ra,-1550(sp) # fffff9f2 <__global_pointer$+0xfffec0ca>
	...
 940:	0001                	nop
 942:	005e                	c.slli	zero,0x17
 944:	0000                	unimp
 946:	0000                	unimp
 948:	0000                	unimp
 94a:	0100                	addi	s0,sp,128
 94c:	5800                	lw	s0,48(s0)
	...
 95e:	0001                	nop
 960:	005a                	c.slli	zero,0x16
 962:	0000                	unimp
 964:	0000                	unimp
 966:	0000                	unimp
 968:	0100                	addi	s0,sp,128
 96a:	6300                	flw	fs0,0(a4)
	...
 974:	0001                	nop
 976:	0064                	addi	s1,sp,12
	...
 984:	0000                	unimp
 986:	0100                	addi	s0,sp,128
 988:	5a00                	lw	s0,48(a2)
	...
 992:	0001                	nop
 994:	005a                	c.slli	zero,0x16
	...
 9a2:	0000                	unimp
 9a4:	0100                	addi	s0,sp,128
 9a6:	5800                	lw	s0,48(s0)
	...
 9b0:	0005                	c.nop	1
 9b2:	0082                	c.slli64	ra
 9b4:	2540                	fld	fs0,136(a0)
 9b6:	009f 0000 0000      	0x9f
	...
 9c4:	0000                	unimp
 9c6:	0100                	addi	s0,sp,128
 9c8:	6600                	flw	fs0,8(a2)
	...
 9da:	0001                	nop
 9dc:	005a                	c.slli	zero,0x16
 9de:	0000                	unimp
 9e0:	0000                	unimp
 9e2:	0000                	unimp
 9e4:	0100                	addi	s0,sp,128
 9e6:	5b00                	lw	s0,48(a4)
	...
 9f0:	0001                	nop
 9f2:	00000063          	beqz	zero,9f2 <main-0xf682>
 9f6:	0000                	unimp
 9f8:	0000                	unimp
 9fa:	0100                	addi	s0,sp,128
 9fc:	6700                	flw	fs0,8(a4)
	...
 a0e:	0001                	nop
 a10:	005a                	c.slli	zero,0x16
 a12:	0000                	unimp
 a14:	0000                	unimp
 a16:	0000                	unimp
 a18:	0100                	addi	s0,sp,128
 a1a:	5b00                	lw	s0,48(a4)
	...
 a24:	0001                	nop
 a26:	00000063          	beqz	zero,a26 <main-0xf64e>
 a2a:	0000                	unimp
 a2c:	0000                	unimp
 a2e:	0100                	addi	s0,sp,128
 a30:	5f00                	lw	s0,56(a4)
	...
 a42:	0001                	nop
 a44:	0059                	c.nop	22
 a46:	0000                	unimp
 a48:	0000                	unimp
 a4a:	0000                	unimp
 a4c:	0100                	addi	s0,sp,128
 a4e:	5f00                	lw	s0,56(a4)
	...
 a58:	0008                	0x8
 a5a:	0085                	addi	ra,ra,1
 a5c:	2540                	fld	fs0,136(a0)
 a5e:	0079                	c.nop	30
 a60:	9f21                	0x9f21
	...
 a6a:	0001                	nop
 a6c:	005f 0000 0000      	0x5f
 a72:	0000                	unimp
 a74:	0100                	addi	s0,sp,128
 a76:	6300                	flw	fs0,0(a4)
	...
 a88:	0001                	nop
 a8a:	0059                	c.nop	22
 a8c:	0000                	unimp
 a8e:	0000                	unimp
 a90:	0000                	unimp
 a92:	0100                	addi	s0,sp,128
 a94:	5800                	lw	s0,48(s0)
	...
 a9e:	000a                	c.slli	zero,0x2
 aa0:	0085                	addi	ra,ra,1
 aa2:	2440                	fld	fs0,136(s0)
 aa4:	2540                	fld	fs0,136(a0)
 aa6:	0079                	c.nop	30
 aa8:	9f21                	0x9f21
	...
 ab2:	0001                	nop
 ab4:	0058                	addi	a4,sp,4
	...
 ac2:	0000                	unimp
 ac4:	0100                	addi	s0,sp,128
 ac6:	5a00                	lw	s0,48(a2)
	...
 ad0:	0001                	nop
 ad2:	005a                	c.slli	zero,0x16
	...
 ae0:	0000                	unimp
 ae2:	0100                	addi	s0,sp,128
 ae4:	5d00                	lw	s0,56(a0)
	...
 af6:	0001                	nop
 af8:	005e                	c.slli	zero,0x17
 afa:	0000                	unimp
 afc:	0000                	unimp
 afe:	0000                	unimp
 b00:	0100                	addi	s0,sp,128
 b02:	5e00                	lw	s0,56(a2)
	...

Disassembly of section .debug_ranges:

00000000 <.debug_ranges>:
   0:	0001                	nop
   2:	0000                	unimp
   4:	0001                	nop
   6:	0000                	unimp
   8:	0001                	nop
   a:	0000                	unimp
   c:	0001                	nop
   e:	0000                	unimp
  10:	0001                	nop
  12:	0000                	unimp
  14:	0001                	nop
  16:	0000                	unimp
  18:	0001                	nop
  1a:	0000                	unimp
  1c:	0001                	nop
	...
  26:	0000                	unimp
  28:	0001                	nop
  2a:	0000                	unimp
  2c:	0001                	nop
  2e:	0000                	unimp
  30:	0001                	nop
  32:	0000                	unimp
  34:	0001                	nop
  36:	0000                	unimp
  38:	0001                	nop
  3a:	0000                	unimp
  3c:	0001                	nop
	...
  46:	0000                	unimp
  48:	0001                	nop
  4a:	0000                	unimp
  4c:	0001                	nop
  4e:	0000                	unimp
  50:	0001                	nop
  52:	0000                	unimp
  54:	0001                	nop
	...
  5e:	0000                	unimp
  60:	0001                	nop
  62:	0000                	unimp
  64:	0001                	nop
  66:	0000                	unimp
  68:	0001                	nop
  6a:	0000                	unimp
  6c:	0001                	nop
  6e:	0000                	unimp
  70:	0001                	nop
  72:	0000                	unimp
  74:	0001                	nop
  76:	0000                	unimp
  78:	0001                	nop
  7a:	0000                	unimp
  7c:	0001                	nop
	...
  86:	0000                	unimp
  88:	0001                	nop
  8a:	0000                	unimp
  8c:	0001                	nop
  8e:	0000                	unimp
  90:	0001                	nop
  92:	0000                	unimp
  94:	0001                	nop
  96:	0000                	unimp
  98:	0001                	nop
  9a:	0000                	unimp
  9c:	0001                	nop
  9e:	0000                	unimp
  a0:	0001                	nop
  a2:	0000                	unimp
  a4:	0001                	nop
  a6:	0000                	unimp
  a8:	0001                	nop
  aa:	0000                	unimp
  ac:	0001                	nop
	...
  b6:	0000                	unimp
  b8:	0001                	nop
  ba:	0000                	unimp
  bc:	0001                	nop
  be:	0000                	unimp
  c0:	0001                	nop
  c2:	0000                	unimp
  c4:	0001                	nop
	...
  ce:	0000                	unimp
  d0:	0001                	nop
  d2:	0000                	unimp
  d4:	0001                	nop
  d6:	0000                	unimp
  d8:	0001                	nop
  da:	0000                	unimp
  dc:	0001                	nop
	...
  e6:	0000                	unimp
  e8:	0001                	nop
  ea:	0000                	unimp
  ec:	0001                	nop
  ee:	0000                	unimp
  f0:	0001                	nop
  f2:	0000                	unimp
  f4:	0001                	nop
	...
  fe:	0000                	unimp
 100:	0001                	nop
 102:	0000                	unimp
 104:	0001                	nop
 106:	0000                	unimp
 108:	0001                	nop
 10a:	0000                	unimp
 10c:	0001                	nop
	...
