
./ROMnekoni.elf:     file format elf32-littleriscv
./ROMnekoni.elf
architecture: riscv:rv32, flags 0x00000112:
EXEC_P, HAS_SYMS, D_PAGED
start address 0x20000000

Program Header:
    LOAD off    0x00001000 vaddr 0x20000000 paddr 0x20000000 align 2**12
         filesz 0x00002948 memsz 0x00002958 flags rwx

Sections:
Idx Name          Size      VMA       LMA       File off  Algn
  0 .boot         00000064  20000000  20000000  00001000  2**2
                  CONTENTS, ALLOC, LOAD, READONLY, CODE
  1 .text         00000a34  20000064  20000064  00001064  2**2
                  CONTENTS, ALLOC, LOAD, READONLY, CODE
  2 .rodata       000018ad  20000a98  20000a98  00001a98  2**2
                  CONTENTS, ALLOC, LOAD, READONLY, DATA
  3 .srodata      00000004  20002348  20002348  00003348  2**2
                  CONTENTS, ALLOC, LOAD, READONLY, DATA
  4 .init_array   00000004  2000234c  2000234c  0000334c  2**2
                  CONTENTS, ALLOC, LOAD, DATA
  5 .eh_frame     00000184  20002350  20002350  00003350  2**2
                  CONTENTS, ALLOC, LOAD, READONLY, DATA
  6 .data         00000438  200024d8  200024d8  000034d8  2**3
                  CONTENTS, ALLOC, LOAD, DATA
  7 .got          00000030  20002910  20002910  00003910  2**2
                  CONTENTS, ALLOC, LOAD, DATA
  8 .got.plt      00000008  20002940  20002940  00003940  2**2
                  CONTENTS, ALLOC, LOAD, DATA
  9 .sbss         0000000c  20002948  20002948  00003948  2**2
                  ALLOC
 10 .bss          00000004  20002954  20002954  00003948  2**2
                  ALLOC
 11 .comment      00000012  00000000  00000000  00003948  2**0
                  CONTENTS, READONLY
 12 .riscv.attributes 00000020  00000000  00000000  0000395a  2**0
                  CONTENTS, READONLY
SYMBOL TABLE:
20000000 l    d  .boot	00000000 .boot
20000064 l    d  .text	00000000 .text
20000a98 l    d  .rodata	00000000 .rodata
20002348 l    d  .srodata	00000000 .srodata
2000234c l    d  .init_array	00000000 .init_array
20002350 l    d  .eh_frame	00000000 .eh_frame
200024d8 l    d  .data	00000000 .data
20002910 l    d  .got	00000000 .got
20002940 l    d  .got.plt	00000000 .got.plt
20002948 l    d  .sbss	00000000 .sbss
20002954 l    d  .bss	00000000 .bss
00000000 l    d  .comment	00000000 .comment
00000000 l    d  .riscv.attributes	00000000 .riscv.attributes
00000000 l    df *ABS*	00000000 rom.cpp
2000004c l       .boot	00000000 noatexitfound
00000000 l    df *ABS*	00000000 atexit.c
00000000 l    df *ABS*	00000000 fini.c
00000000 l    df *ABS*	00000000 init.c
00000000 l    df *ABS*	00000000 memcpy.c
00000000 l    df *ABS*	00000000 __atexit.c
00000000 l    df *ABS*	00000000 uart.cpp
00000000 l    df *ABS*	00000000 gpu.cpp
20000a7c l     F .text	0000001c _GLOBAL__sub_I_gpu.cpp
00000000 l    df *ABS*	00000000 impure.c
200024d8 l     O .data	00000428 impure_data
00000000 l    df *ABS*	00000000 sdcard.cpp
00000000 l    df *ABS*	00000000 core.cpp
00000000 l    df *ABS*	00000000 
20002345 l       .init_array	00000000 __fini_array_end
20002345 l       .init_array	00000000 __fini_array_start
20002350 l       .init_array	00000000 __init_array_end
20002345 l       .init_array	00000000 __preinit_array_end
20002910 l     O .got	00000000 _GLOBAL_OFFSET_TABLE_
2000234c l       .init_array	00000000 __init_array_start
20002345 l       .init_array	00000000 __preinit_array_start
20000740 g     F .text	000000fc _Z13RunBinaryBlobv
20003150 g       *ABS*	00000000 __global_pointer$
200024e0 g       .data	00000000 _fdata
2000290c g     O .data	00000004 GraphicsFontStart
200004c4 g     F .text	0000008c _Z29illegal_instruction_exceptionv
20002345 g       .rodata	00000000 _etext
20003150 g       .sbss	00000000 _gp
20002900 g     O .data	00000004 IO_UARTRX
20000064 g       .boot	00000000 _boot
20002954 g     O .bss	00000004 font
20000170 g     F .text	00000128 memcpy
20000418 g     F .text	00000048 .hidden __udivsi3
20002954 g       .bss	00000000 _bss_start
20002950 g     O .sbss	00000004 __malloc_top_pad
2000294c g     O .sbss	00000004 __malloc_max_sbrked_mem
20002348 g     O .srodata	00000004 _global_impure_ptr
200000d4 g     F .text	0000009c __libc_init_array
20002958 g       .bss	00000000 _bss_end
20000078 g     F .text	0000005c __libc_fini_array
20000460 g     F .text	00000010 .hidden __umodsi3
20000064 g       .boot	00000000 _ftext
20000000 g     F .boot	00000064 _start
20000374 g     F .text	0000009c __register_exitproc
00000a00 g       *ABS*	00000000 _STACK_SIZE
20000a48 g     F .text	00000034 _Z8InitFontv
20000298 g     F .text	000000dc memset
2000083c g     F .text	000000a4 main
20000570 g     F .text	000001d0 _Z14LoadBinaryBlobv
20002948 g     O .sbss	00000004 __malloc_max_total_mem
2000090c g     F .text	0000013c _Z7EchoHexm
20000410 g     F .text	00000084 .hidden __divsi3
20000064 g     F .text	00000014 atexit
20002908 g     O .data	00000004 IO_UARTTX
20002904 g     O .data	00000004 IO_UARTRXByteCount
20002958 g       .bss	00000000 __BSS_END__$
200008e0 g     F .text	0000002c _Z8EchoUARTPKc
20002910 g       .data	00000000 _edata
20002958 g       .bss	00000000 _end
20000494 g     F .text	00000030 .hidden __modsi3
20000064 g     F .boot	00000000 _exit
20000550 g     F .text	00000020 _Z32InstallIllegalInstructionHandlerv
20002950 g       .sbss	00000000 _fbss



Disassembly of section .boot:

20000000 <_start>:
20000000:	00003197          	auipc	gp,0x3
20000004:	9141a183          	lw	gp,-1772(gp) # 20002914 <_GLOBAL_OFFSET_TABLE_+0x4>
20000008:	20008137          	lui	sp,0x20008
2000000c:	ff010113          	addi	sp,sp,-16 # 20007ff0 <__global_pointer$+0x4ea0>
20000010:	00010413          	mv	s0,sp
20000014:	00003517          	auipc	a0,0x3
20000018:	91852503          	lw	a0,-1768(a0) # 2000292c <_GLOBAL_OFFSET_TABLE_+0x1c>
2000001c:	00003617          	auipc	a2,0x3
20000020:	92062603          	lw	a2,-1760(a2) # 2000293c <_GLOBAL_OFFSET_TABLE_+0x2c>
20000024:	40a60633          	sub	a2,a2,a0
20000028:	00000593          	li	a1,0
2000002c:	26c000ef          	jal	ra,20000298 <memset>
20000030:	00003517          	auipc	a0,0x3
20000034:	90052503          	lw	a0,-1792(a0) # 20002930 <_GLOBAL_OFFSET_TABLE_+0x20>
20000038:	00050a63          	beqz	a0,2000004c <noatexitfound>
2000003c:	00001517          	auipc	a0,0x1
20000040:	00003517          	auipc	a0,0x3
20000044:	8e852503          	lw	a0,-1816(a0) # 20002928 <_GLOBAL_OFFSET_TABLE_+0x18>
20000048:	01c000ef          	jal	ra,20000064 <_exit>

2000004c <noatexitfound>:
2000004c:	088000ef          	jal	ra,200000d4 <__libc_init_array>
20000050:	00012503          	lw	a0,0(sp)
20000054:	00410593          	addi	a1,sp,4
20000058:	00000613          	li	a2,0
2000005c:	7e00006f          	j	2000083c <main>
20000060:	00100073          	ebreak

Disassembly of section .text:

20000064 <atexit>:
20000064:	00050593          	mv	a1,a0
20000068:	00000693          	li	a3,0
2000006c:	00000613          	li	a2,0
20000070:	00000513          	li	a0,0
20000074:	3000006f          	j	20000374 <__register_exitproc>

20000078 <__libc_fini_array>:
20000078:	ff010113          	addi	sp,sp,-16
2000007c:	00812423          	sw	s0,8(sp)
20000080:	200027b7          	lui	a5,0x20002
20000084:	20002437          	lui	s0,0x20002
20000088:	34540413          	addi	s0,s0,837 # 20002345 <_etext>
2000008c:	34578793          	addi	a5,a5,837 # 20002345 <_etext>
20000090:	408787b3          	sub	a5,a5,s0
20000094:	00912223          	sw	s1,4(sp)
20000098:	00112623          	sw	ra,12(sp)
2000009c:	4027d493          	srai	s1,a5,0x2
200000a0:	02048063          	beqz	s1,200000c0 <__libc_fini_array+0x48>
200000a4:	ffc78793          	addi	a5,a5,-4
200000a8:	00878433          	add	s0,a5,s0
200000ac:	00042783          	lw	a5,0(s0)
200000b0:	fff48493          	addi	s1,s1,-1
200000b4:	ffc40413          	addi	s0,s0,-4
200000b8:	000780e7          	jalr	a5
200000bc:	fe0498e3          	bnez	s1,200000ac <__libc_fini_array+0x34>
200000c0:	00c12083          	lw	ra,12(sp)
200000c4:	00812403          	lw	s0,8(sp)
200000c8:	00412483          	lw	s1,4(sp)
200000cc:	01010113          	addi	sp,sp,16
200000d0:	00008067          	ret

200000d4 <__libc_init_array>:
200000d4:	ff010113          	addi	sp,sp,-16
200000d8:	00812423          	sw	s0,8(sp)
200000dc:	01212023          	sw	s2,0(sp)
200000e0:	20002437          	lui	s0,0x20002
200000e4:	20002937          	lui	s2,0x20002
200000e8:	34540793          	addi	a5,s0,837 # 20002345 <_etext>
200000ec:	34590913          	addi	s2,s2,837 # 20002345 <_etext>
200000f0:	40f90933          	sub	s2,s2,a5
200000f4:	00112623          	sw	ra,12(sp)
200000f8:	00912223          	sw	s1,4(sp)
200000fc:	40295913          	srai	s2,s2,0x2
20000100:	02090063          	beqz	s2,20000120 <__libc_init_array+0x4c>
20000104:	34540413          	addi	s0,s0,837
20000108:	00000493          	li	s1,0
2000010c:	00042783          	lw	a5,0(s0)
20000110:	00148493          	addi	s1,s1,1
20000114:	00440413          	addi	s0,s0,4
20000118:	000780e7          	jalr	a5
2000011c:	fe9918e3          	bne	s2,s1,2000010c <__libc_init_array+0x38>
20000120:	20002437          	lui	s0,0x20002
20000124:	20002937          	lui	s2,0x20002
20000128:	34c40793          	addi	a5,s0,844 # 2000234c <__init_array_start>
2000012c:	35090913          	addi	s2,s2,848 # 20002350 <__init_array_end>
20000130:	40f90933          	sub	s2,s2,a5
20000134:	40295913          	srai	s2,s2,0x2
20000138:	02090063          	beqz	s2,20000158 <__libc_init_array+0x84>
2000013c:	34c40413          	addi	s0,s0,844
20000140:	00000493          	li	s1,0
20000144:	00042783          	lw	a5,0(s0)
20000148:	00148493          	addi	s1,s1,1
2000014c:	00440413          	addi	s0,s0,4
20000150:	000780e7          	jalr	a5
20000154:	fe9918e3          	bne	s2,s1,20000144 <__libc_init_array+0x70>
20000158:	00c12083          	lw	ra,12(sp)
2000015c:	00812403          	lw	s0,8(sp)
20000160:	00412483          	lw	s1,4(sp)
20000164:	00012903          	lw	s2,0(sp)
20000168:	01010113          	addi	sp,sp,16
2000016c:	00008067          	ret

20000170 <memcpy>:
20000170:	00a5c7b3          	xor	a5,a1,a0
20000174:	0037f793          	andi	a5,a5,3
20000178:	00c508b3          	add	a7,a0,a2
2000017c:	06079663          	bnez	a5,200001e8 <memcpy+0x78>
20000180:	00300793          	li	a5,3
20000184:	06c7f263          	bgeu	a5,a2,200001e8 <memcpy+0x78>
20000188:	00357793          	andi	a5,a0,3
2000018c:	00050713          	mv	a4,a0
20000190:	0c079a63          	bnez	a5,20000264 <memcpy+0xf4>
20000194:	ffc8f613          	andi	a2,a7,-4
20000198:	40e606b3          	sub	a3,a2,a4
2000019c:	02000793          	li	a5,32
200001a0:	02000293          	li	t0,32
200001a4:	06d7c263          	blt	a5,a3,20000208 <memcpy+0x98>
200001a8:	00058693          	mv	a3,a1
200001ac:	00070793          	mv	a5,a4
200001b0:	02c77863          	bgeu	a4,a2,200001e0 <memcpy+0x70>
200001b4:	0006a803          	lw	a6,0(a3)
200001b8:	00478793          	addi	a5,a5,4
200001bc:	00468693          	addi	a3,a3,4
200001c0:	ff07ae23          	sw	a6,-4(a5)
200001c4:	fec7e8e3          	bltu	a5,a2,200001b4 <memcpy+0x44>
200001c8:	fff60793          	addi	a5,a2,-1
200001cc:	40e787b3          	sub	a5,a5,a4
200001d0:	ffc7f793          	andi	a5,a5,-4
200001d4:	00478793          	addi	a5,a5,4
200001d8:	00f70733          	add	a4,a4,a5
200001dc:	00f585b3          	add	a1,a1,a5
200001e0:	01176863          	bltu	a4,a7,200001f0 <memcpy+0x80>
200001e4:	00008067          	ret
200001e8:	00050713          	mv	a4,a0
200001ec:	ff157ce3          	bgeu	a0,a7,200001e4 <memcpy+0x74>
200001f0:	0005c783          	lbu	a5,0(a1)
200001f4:	00170713          	addi	a4,a4,1
200001f8:	00158593          	addi	a1,a1,1
200001fc:	fef70fa3          	sb	a5,-1(a4)
20000200:	ff1768e3          	bltu	a4,a7,200001f0 <memcpy+0x80>
20000204:	00008067          	ret
20000208:	0045a683          	lw	a3,4(a1)
2000020c:	01c5a783          	lw	a5,28(a1)
20000210:	0005af83          	lw	t6,0(a1)
20000214:	0085af03          	lw	t5,8(a1)
20000218:	00c5ae83          	lw	t4,12(a1)
2000021c:	0105ae03          	lw	t3,16(a1)
20000220:	0145a303          	lw	t1,20(a1)
20000224:	0185a803          	lw	a6,24(a1)
20000228:	00d72223          	sw	a3,4(a4)
2000022c:	0205a683          	lw	a3,32(a1)
20000230:	01f72023          	sw	t6,0(a4)
20000234:	01e72423          	sw	t5,8(a4)
20000238:	01d72623          	sw	t4,12(a4)
2000023c:	01c72823          	sw	t3,16(a4)
20000240:	00672a23          	sw	t1,20(a4)
20000244:	01072c23          	sw	a6,24(a4)
20000248:	00f72e23          	sw	a5,28(a4)
2000024c:	02470713          	addi	a4,a4,36
20000250:	40e607b3          	sub	a5,a2,a4
20000254:	fed72e23          	sw	a3,-4(a4)
20000258:	02458593          	addi	a1,a1,36
2000025c:	faf2c6e3          	blt	t0,a5,20000208 <memcpy+0x98>
20000260:	f49ff06f          	j	200001a8 <memcpy+0x38>
20000264:	0005c683          	lbu	a3,0(a1)
20000268:	00170713          	addi	a4,a4,1
2000026c:	00377793          	andi	a5,a4,3
20000270:	fed70fa3          	sb	a3,-1(a4)
20000274:	00158593          	addi	a1,a1,1
20000278:	f0078ee3          	beqz	a5,20000194 <memcpy+0x24>
2000027c:	0005c683          	lbu	a3,0(a1)
20000280:	00170713          	addi	a4,a4,1
20000284:	00377793          	andi	a5,a4,3
20000288:	fed70fa3          	sb	a3,-1(a4)
2000028c:	00158593          	addi	a1,a1,1
20000290:	fc079ae3          	bnez	a5,20000264 <memcpy+0xf4>
20000294:	f01ff06f          	j	20000194 <memcpy+0x24>

20000298 <memset>:
20000298:	00f00313          	li	t1,15
2000029c:	00050713          	mv	a4,a0
200002a0:	02c37e63          	bgeu	t1,a2,200002dc <memset+0x44>
200002a4:	00f77793          	andi	a5,a4,15
200002a8:	0a079063          	bnez	a5,20000348 <memset+0xb0>
200002ac:	08059263          	bnez	a1,20000330 <memset+0x98>
200002b0:	ff067693          	andi	a3,a2,-16
200002b4:	00f67613          	andi	a2,a2,15
200002b8:	00e686b3          	add	a3,a3,a4
200002bc:	00b72023          	sw	a1,0(a4)
200002c0:	00b72223          	sw	a1,4(a4)
200002c4:	00b72423          	sw	a1,8(a4)
200002c8:	00b72623          	sw	a1,12(a4)
200002cc:	01070713          	addi	a4,a4,16
200002d0:	fed766e3          	bltu	a4,a3,200002bc <memset+0x24>
200002d4:	00061463          	bnez	a2,200002dc <memset+0x44>
200002d8:	00008067          	ret
200002dc:	40c306b3          	sub	a3,t1,a2
200002e0:	00269693          	slli	a3,a3,0x2
200002e4:	00000297          	auipc	t0,0x0
200002e8:	005686b3          	add	a3,a3,t0
200002ec:	00c68067          	jr	12(a3)
200002f0:	00b70723          	sb	a1,14(a4)
200002f4:	00b706a3          	sb	a1,13(a4)
200002f8:	00b70623          	sb	a1,12(a4)
200002fc:	00b705a3          	sb	a1,11(a4)
20000300:	00b70523          	sb	a1,10(a4)
20000304:	00b704a3          	sb	a1,9(a4)
20000308:	00b70423          	sb	a1,8(a4)
2000030c:	00b703a3          	sb	a1,7(a4)
20000310:	00b70323          	sb	a1,6(a4)
20000314:	00b702a3          	sb	a1,5(a4)
20000318:	00b70223          	sb	a1,4(a4)
2000031c:	00b701a3          	sb	a1,3(a4)
20000320:	00b70123          	sb	a1,2(a4)
20000324:	00b700a3          	sb	a1,1(a4)
20000328:	00b70023          	sb	a1,0(a4)
2000032c:	00008067          	ret
20000330:	0ff5f593          	andi	a1,a1,255
20000334:	00859693          	slli	a3,a1,0x8
20000338:	00d5e5b3          	or	a1,a1,a3
2000033c:	01059693          	slli	a3,a1,0x10
20000340:	00d5e5b3          	or	a1,a1,a3
20000344:	f6dff06f          	j	200002b0 <memset+0x18>
20000348:	00279693          	slli	a3,a5,0x2
2000034c:	00000297          	auipc	t0,0x0
20000350:	005686b3          	add	a3,a3,t0
20000354:	00008293          	mv	t0,ra
20000358:	fa0680e7          	jalr	-96(a3)
2000035c:	00028093          	mv	ra,t0
20000360:	ff078793          	addi	a5,a5,-16
20000364:	40f70733          	sub	a4,a4,a5
20000368:	00f60633          	add	a2,a2,a5
2000036c:	f6c378e3          	bgeu	t1,a2,200002dc <memset+0x44>
20000370:	f3dff06f          	j	200002ac <memset+0x14>

20000374 <__register_exitproc>:
20000374:	200027b7          	lui	a5,0x20002
20000378:	3487a703          	lw	a4,840(a5) # 20002348 <_global_impure_ptr>
2000037c:	14872783          	lw	a5,328(a4)
20000380:	04078c63          	beqz	a5,200003d8 <__register_exitproc+0x64>
20000384:	0047a703          	lw	a4,4(a5)
20000388:	01f00813          	li	a6,31
2000038c:	06e84e63          	blt	a6,a4,20000408 <__register_exitproc+0x94>
20000390:	00271813          	slli	a6,a4,0x2
20000394:	02050663          	beqz	a0,200003c0 <__register_exitproc+0x4c>
20000398:	01078333          	add	t1,a5,a6
2000039c:	08c32423          	sw	a2,136(t1)
200003a0:	1887a883          	lw	a7,392(a5)
200003a4:	00100613          	li	a2,1
200003a8:	00e61633          	sll	a2,a2,a4
200003ac:	00c8e8b3          	or	a7,a7,a2
200003b0:	1917a423          	sw	a7,392(a5)
200003b4:	10d32423          	sw	a3,264(t1)
200003b8:	00200693          	li	a3,2
200003bc:	02d50463          	beq	a0,a3,200003e4 <__register_exitproc+0x70>
200003c0:	00170713          	addi	a4,a4,1
200003c4:	00e7a223          	sw	a4,4(a5)
200003c8:	010787b3          	add	a5,a5,a6
200003cc:	00b7a423          	sw	a1,8(a5)
200003d0:	00000513          	li	a0,0
200003d4:	00008067          	ret
200003d8:	14c70793          	addi	a5,a4,332
200003dc:	14f72423          	sw	a5,328(a4)
200003e0:	fa5ff06f          	j	20000384 <__register_exitproc+0x10>
200003e4:	18c7a683          	lw	a3,396(a5)
200003e8:	00170713          	addi	a4,a4,1
200003ec:	00e7a223          	sw	a4,4(a5)
200003f0:	00c6e633          	or	a2,a3,a2
200003f4:	18c7a623          	sw	a2,396(a5)
200003f8:	010787b3          	add	a5,a5,a6
200003fc:	00b7a423          	sw	a1,8(a5)
20000400:	00000513          	li	a0,0
20000404:	00008067          	ret
20000408:	fff00513          	li	a0,-1
2000040c:	00008067          	ret

20000410 <__divsi3>:
20000410:	06054063          	bltz	a0,20000470 <__umodsi3+0x10>
20000414:	0605c663          	bltz	a1,20000480 <__umodsi3+0x20>

20000418 <__udivsi3>:
20000418:	00058613          	mv	a2,a1
2000041c:	00050593          	mv	a1,a0
20000420:	fff00513          	li	a0,-1
20000424:	02060c63          	beqz	a2,2000045c <__udivsi3+0x44>
20000428:	00100693          	li	a3,1
2000042c:	00b67a63          	bgeu	a2,a1,20000440 <__udivsi3+0x28>
20000430:	00c05863          	blez	a2,20000440 <__udivsi3+0x28>
20000434:	00161613          	slli	a2,a2,0x1
20000438:	00169693          	slli	a3,a3,0x1
2000043c:	feb66ae3          	bltu	a2,a1,20000430 <__udivsi3+0x18>
20000440:	00000513          	li	a0,0
20000444:	00c5e663          	bltu	a1,a2,20000450 <__udivsi3+0x38>
20000448:	40c585b3          	sub	a1,a1,a2
2000044c:	00d56533          	or	a0,a0,a3
20000450:	0016d693          	srli	a3,a3,0x1
20000454:	00165613          	srli	a2,a2,0x1
20000458:	fe0696e3          	bnez	a3,20000444 <__udivsi3+0x2c>
2000045c:	00008067          	ret

20000460 <__umodsi3>:
20000460:	00008293          	mv	t0,ra
20000464:	fb5ff0ef          	jal	ra,20000418 <__udivsi3>
20000468:	00058513          	mv	a0,a1
2000046c:	00028067          	jr	t0 # 2000034c <memset+0xb4>
20000470:	40a00533          	neg	a0,a0
20000474:	00b04863          	bgtz	a1,20000484 <__umodsi3+0x24>
20000478:	40b005b3          	neg	a1,a1
2000047c:	f9dff06f          	j	20000418 <__udivsi3>
20000480:	40b005b3          	neg	a1,a1
20000484:	00008293          	mv	t0,ra
20000488:	f91ff0ef          	jal	ra,20000418 <__udivsi3>
2000048c:	40a00533          	neg	a0,a0
20000490:	00028067          	jr	t0

20000494 <__modsi3>:
20000494:	00008293          	mv	t0,ra
20000498:	0005ca63          	bltz	a1,200004ac <__modsi3+0x18>
2000049c:	00054c63          	bltz	a0,200004b4 <__modsi3+0x20>
200004a0:	f79ff0ef          	jal	ra,20000418 <__udivsi3>
200004a4:	00058513          	mv	a0,a1
200004a8:	00028067          	jr	t0
200004ac:	40b005b3          	neg	a1,a1
200004b0:	fe0558e3          	bgez	a0,200004a0 <__modsi3+0xc>
200004b4:	40a00533          	neg	a0,a0
200004b8:	f61ff0ef          	jal	ra,20000418 <__udivsi3>
200004bc:	40b00533          	neg	a0,a1
200004c0:	00028067          	jr	t0

200004c4 <_Z29illegal_instruction_exceptionv>:
200004c4:	fb010113          	addi	sp,sp,-80
200004c8:	04112623          	sw	ra,76(sp)
200004cc:	04512423          	sw	t0,72(sp)
200004d0:	04612223          	sw	t1,68(sp)
200004d4:	04712023          	sw	t2,64(sp)
200004d8:	02812e23          	sw	s0,60(sp)
200004dc:	02912c23          	sw	s1,56(sp)
200004e0:	02a12a23          	sw	a0,52(sp)
200004e4:	02b12823          	sw	a1,48(sp)
200004e8:	02c12623          	sw	a2,44(sp)
200004ec:	02d12423          	sw	a3,40(sp)
200004f0:	02e12223          	sw	a4,36(sp)
200004f4:	02f12023          	sw	a5,32(sp)
200004f8:	01012e23          	sw	a6,28(sp)
200004fc:	01112c23          	sw	a7,24(sp)
20000500:	01c12a23          	sw	t3,20(sp)
20000504:	01d12823          	sw	t4,16(sp)
20000508:	01e12623          	sw	t5,12(sp)
2000050c:	01f12423          	sw	t6,8(sp)
20000510:	34302473          	csrr	s0,mtval
20000514:	340024f3          	csrr	s1,mscratch
20000518:	00002517          	auipc	a0,0x2
2000051c:	d8050513          	addi	a0,a0,-640 # 20002298 <_GLOBAL__sub_I_gpu.cpp+0x181c>
20000520:	3c0000ef          	jal	ra,200008e0 <_Z8EchoUARTPKc>
20000524:	00048513          	mv	a0,s1
20000528:	3e4000ef          	jal	ra,2000090c <_Z7EchoHexm>
2000052c:	00002517          	auipc	a0,0x2
20000530:	d8c50513          	addi	a0,a0,-628 # 200022b8 <_GLOBAL__sub_I_gpu.cpp+0x183c>
20000534:	3ac000ef          	jal	ra,200008e0 <_Z8EchoUARTPKc>
20000538:	00040513          	mv	a0,s0
2000053c:	3d0000ef          	jal	ra,2000090c <_Z7EchoHexm>
20000540:	00002517          	auipc	a0,0x2
20000544:	d8050513          	addi	a0,a0,-640 # 200022c0 <_GLOBAL__sub_I_gpu.cpp+0x1844>
20000548:	398000ef          	jal	ra,200008e0 <_Z8EchoUARTPKc>
2000054c:	0000006f          	j	2000054c <_Z29illegal_instruction_exceptionv+0x88>

20000550 <_Z32InstallIllegalInstructionHandlerv>:
20000550:	00002797          	auipc	a5,0x2
20000554:	3cc7a783          	lw	a5,972(a5) # 2000291c <_GLOBAL_OFFSET_TABLE_+0xc>
20000558:	30579073          	csrw	mtvec,a5
2000055c:	00400793          	li	a5,4
20000560:	30479073          	csrw	mie,a5
20000564:	00800793          	li	a5,8
20000568:	30079073          	csrw	mstatus,a5
2000056c:	00008067          	ret

20000570 <_Z14LoadBinaryBlobv>:
20000570:	fa010113          	addi	sp,sp,-96
20000574:	05512223          	sw	s5,68(sp)
20000578:	05612023          	sw	s6,64(sp)
2000057c:	00002a97          	auipc	s5,0x2
20000580:	3bcaaa83          	lw	s5,956(s5) # 20002938 <_GLOBAL_OFFSET_TABLE_+0x28>
20000584:	00002b17          	auipc	s6,0x2
20000588:	39cb2b03          	lw	s6,924(s6) # 20002920 <_GLOBAL_OFFSET_TABLE_+0x10>
2000058c:	000aa783          	lw	a5,0(s5)
20000590:	000b2583          	lw	a1,0(s6)
20000594:	01c10613          	addi	a2,sp,28
20000598:	02010713          	addi	a4,sp,32
2000059c:	04112e23          	sw	ra,92(sp)
200005a0:	04812c23          	sw	s0,88(sp)
200005a4:	04912a23          	sw	s1,84(sp)
200005a8:	05212823          	sw	s2,80(sp)
200005ac:	05312623          	sw	s3,76(sp)
200005b0:	05412423          	sw	s4,72(sp)
200005b4:	03712e23          	sw	s7,60(sp)
200005b8:	03812c23          	sw	s8,56(sp)
200005bc:	03912a23          	sw	s9,52(sp)
200005c0:	03a12823          	sw	s10,48(sp)
200005c4:	03b12623          	sw	s11,44(sp)
200005c8:	00012c23          	sw	zero,24(sp)
200005cc:	00012e23          	sw	zero,28(sp)
200005d0:	00060693          	mv	a3,a2
200005d4:	00e12623          	sw	a4,12(sp)
200005d8:	0007a703          	lw	a4,0(a5)
200005dc:	fe070ee3          	beqz	a4,200005d8 <_Z14LoadBinaryBlobv+0x68>
200005e0:	0005c703          	lbu	a4,0(a1)
200005e4:	00168693          	addi	a3,a3,1
200005e8:	fee68fa3          	sb	a4,-1(a3)
200005ec:	00c12703          	lw	a4,12(sp)
200005f0:	fed714e3          	bne	a4,a3,200005d8 <_Z14LoadBinaryBlobv+0x68>
200005f4:	01810693          	addi	a3,sp,24
200005f8:	0007a703          	lw	a4,0(a5)
200005fc:	fe070ee3          	beqz	a4,200005f8 <_Z14LoadBinaryBlobv+0x88>
20000600:	0005c703          	lbu	a4,0(a1)
20000604:	00168693          	addi	a3,a3,1
20000608:	fee68fa3          	sb	a4,-1(a3)
2000060c:	fec696e3          	bne	a3,a2,200005f8 <_Z14LoadBinaryBlobv+0x88>
20000610:	01812903          	lw	s2,24(sp)
20000614:	01c12b83          	lw	s7,28(sp)
20000618:	1ff90c13          	addi	s8,s2,511
2000061c:	009c5c13          	srli	s8,s8,0x9
20000620:	0c090e63          	beqz	s2,200006fc <_Z14LoadBinaryBlobv+0x18c>
20000624:	00002737          	lui	a4,0x2
20000628:	7ec70713          	addi	a4,a4,2028 # 27ec <_STACK_SIZE+0x1dec>
2000062c:	00000493          	li	s1,0
20000630:	00000413          	li	s0,0
20000634:	00002d97          	auipc	s11,0x2
20000638:	c90d8d93          	addi	s11,s11,-880 # 200022c4 <_GLOBAL__sub_I_gpu.cpp+0x1848>
2000063c:	00002a17          	auipc	s4,0x2
20000640:	ca0a0a13          	addi	s4,s4,-864 # 200022dc <_GLOBAL__sub_I_gpu.cpp+0x1860>
20000644:	00002997          	auipc	s3,0x2
20000648:	c9c98993          	addi	s3,s3,-868 # 200022e0 <_GLOBAL__sub_I_gpu.cpp+0x1864>
2000064c:	00002c97          	auipc	s9,0x2
20000650:	c88c8c93          	addi	s9,s9,-888 # 200022d4 <_GLOBAL__sub_I_gpu.cpp+0x1858>
20000654:	00e12623          	sw	a4,12(sp)
20000658:	0007a783          	lw	a5,0(a5)
2000065c:	00078e63          	beqz	a5,20000678 <_Z14LoadBinaryBlobv+0x108>
20000660:	000b2703          	lw	a4,0(s6)
20000664:	008b87b3          	add	a5,s7,s0
20000668:	00140413          	addi	s0,s0,1
2000066c:	00074703          	lbu	a4,0(a4)
20000670:	0ff77713          	andi	a4,a4,255
20000674:	00e78023          	sb	a4,0(a5)
20000678:	1ff47793          	andi	a5,s0,511
2000067c:	00078863          	beqz	a5,2000068c <_Z14LoadBinaryBlobv+0x11c>
20000680:	07247e63          	bgeu	s0,s2,200006fc <_Z14LoadBinaryBlobv+0x18c>
20000684:	000aa783          	lw	a5,0(s5)
20000688:	fd1ff06f          	j	20000658 <_Z14LoadBinaryBlobv+0xe8>
2000068c:	000d8513          	mv	a0,s11
20000690:	250000ef          	jal	ra,200008e0 <_Z8EchoUARTPKc>
20000694:	00000d13          	li	s10,0
20000698:	00048a63          	beqz	s1,200006ac <_Z14LoadBinaryBlobv+0x13c>
2000069c:	001d0d13          	addi	s10,s10,1
200006a0:	000a0513          	mv	a0,s4
200006a4:	23c000ef          	jal	ra,200008e0 <_Z8EchoUARTPKc>
200006a8:	fe9d1ae3          	bne	s10,s1,2000069c <_Z14LoadBinaryBlobv+0x12c>
200006ac:	01300793          	li	a5,19
200006b0:	409784b3          	sub	s1,a5,s1
200006b4:	00000d13          	li	s10,0
200006b8:	00905a63          	blez	s1,200006cc <_Z14LoadBinaryBlobv+0x15c>
200006bc:	001d0d13          	addi	s10,s10,1
200006c0:	00098513          	mv	a0,s3
200006c4:	21c000ef          	jal	ra,200008e0 <_Z8EchoUARTPKc>
200006c8:	fe9d1ae3          	bne	s10,s1,200006bc <_Z14LoadBinaryBlobv+0x14c>
200006cc:	000c8513          	mv	a0,s9
200006d0:	210000ef          	jal	ra,200008e0 <_Z8EchoUARTPKc>
200006d4:	00c12783          	lw	a5,12(sp)
200006d8:	00241513          	slli	a0,s0,0x2
200006dc:	00850533          	add	a0,a0,s0
200006e0:	00251513          	slli	a0,a0,0x2
200006e4:	00f50533          	add	a0,a0,a5
200006e8:	000c0593          	mv	a1,s8
200006ec:	00955513          	srli	a0,a0,0x9
200006f0:	d29ff0ef          	jal	ra,20000418 <__udivsi3>
200006f4:	00050493          	mv	s1,a0
200006f8:	f92466e3          	bltu	s0,s2,20000684 <_Z14LoadBinaryBlobv+0x114>
200006fc:	05812403          	lw	s0,88(sp)
20000700:	05c12083          	lw	ra,92(sp)
20000704:	05412483          	lw	s1,84(sp)
20000708:	05012903          	lw	s2,80(sp)
2000070c:	04c12983          	lw	s3,76(sp)
20000710:	04812a03          	lw	s4,72(sp)
20000714:	04412a83          	lw	s5,68(sp)
20000718:	04012b03          	lw	s6,64(sp)
2000071c:	03c12b83          	lw	s7,60(sp)
20000720:	03812c03          	lw	s8,56(sp)
20000724:	03412c83          	lw	s9,52(sp)
20000728:	03012d03          	lw	s10,48(sp)
2000072c:	02c12d83          	lw	s11,44(sp)
20000730:	00002517          	auipc	a0,0x2
20000734:	b9050513          	addi	a0,a0,-1136 # 200022c0 <_GLOBAL__sub_I_gpu.cpp+0x1844>
20000738:	06010113          	addi	sp,sp,96
2000073c:	1a40006f          	j	200008e0 <_Z8EchoUARTPKc>

20000740 <_Z13RunBinaryBlobv>:
20000740:	00002797          	auipc	a5,0x2
20000744:	1f87a783          	lw	a5,504(a5) # 20002938 <_GLOBAL_OFFSET_TABLE_+0x28>
20000748:	fd010113          	addi	sp,sp,-48
2000074c:	0007a703          	lw	a4,0(a5)
20000750:	00002797          	auipc	a5,0x2
20000754:	1d07a783          	lw	a5,464(a5) # 20002920 <_GLOBAL_OFFSET_TABLE_+0x10>
20000758:	0007a603          	lw	a2,0(a5)
2000075c:	02010793          	addi	a5,sp,32
20000760:	02112623          	sw	ra,44(sp)
20000764:	00012e23          	sw	zero,28(sp)
20000768:	01c10693          	addi	a3,sp,28
2000076c:	00f12623          	sw	a5,12(sp)
20000770:	00072783          	lw	a5,0(a4)
20000774:	fe078ee3          	beqz	a5,20000770 <_Z13RunBinaryBlobv+0x30>
20000778:	00064783          	lbu	a5,0(a2)
2000077c:	00168693          	addi	a3,a3,1
20000780:	fef68fa3          	sb	a5,-1(a3)
20000784:	00c12783          	lw	a5,12(sp)
20000788:	fed794e3          	bne	a5,a3,20000770 <_Z13RunBinaryBlobv+0x30>
2000078c:	00002517          	auipc	a0,0x2
20000790:	b5850513          	addi	a0,a0,-1192 # 200022e4 <_GLOBAL__sub_I_gpu.cpp+0x1868>
20000794:	14c000ef          	jal	ra,200008e0 <_Z8EchoUARTPKc>
20000798:	01c12503          	lw	a0,28(sp)
2000079c:	170000ef          	jal	ra,2000090c <_Z7EchoHexm>
200007a0:	00002517          	auipc	a0,0x2
200007a4:	b2050513          	addi	a0,a0,-1248 # 200022c0 <_GLOBAL__sub_I_gpu.cpp+0x1844>
200007a8:	138000ef          	jal	ra,200008e0 <_Z8EchoUARTPKc>
200007ac:	00000193          	li	gp,0
200007b0:	00000213          	li	tp,0
200007b4:	00000293          	li	t0,0
200007b8:	00000313          	li	t1,0
200007bc:	00000393          	li	t2,0
200007c0:	00000413          	li	s0,0
200007c4:	00000493          	li	s1,0
200007c8:	00000513          	li	a0,0
200007cc:	00000593          	li	a1,0
200007d0:	00000613          	li	a2,0
200007d4:	00000693          	li	a3,0
200007d8:	00000713          	li	a4,0
200007dc:	00000793          	li	a5,0
200007e0:	00000813          	li	a6,0
200007e4:	00000893          	li	a7,0
200007e8:	00000913          	li	s2,0
200007ec:	00000993          	li	s3,0
200007f0:	00000a13          	li	s4,0
200007f4:	00000a93          	li	s5,0
200007f8:	00000b13          	li	s6,0
200007fc:	00000b93          	li	s7,0
20000800:	00000c13          	li	s8,0
20000804:	00000c93          	li	s9,0
20000808:	00000d13          	li	s10,0
2000080c:	00000d93          	li	s11,0
20000810:	00000e13          	li	t3,0
20000814:	00000e93          	li	t4,0
20000818:	00000f13          	li	t5,0
2000081c:	00000f93          	li	t6,0
20000820:	01c12083          	lw	ra,28(sp)
20000824:	0ffff637          	lui	a2,0xffff
20000828:	00060113          	mv	sp,a2
2000082c:	00008067          	ret
20000830:	02c12083          	lw	ra,44(sp)
20000834:	03010113          	addi	sp,sp,48
20000838:	00008067          	ret

2000083c <main>:
2000083c:	fe010113          	addi	sp,sp,-32
20000840:	00112e23          	sw	ra,28(sp)
20000844:	00912a23          	sw	s1,20(sp)
20000848:	01212823          	sw	s2,16(sp)
2000084c:	01312623          	sw	s3,12(sp)
20000850:	01412423          	sw	s4,8(sp)
20000854:	01512223          	sw	s5,4(sp)
20000858:	00812c23          	sw	s0,24(sp)
2000085c:	cf5ff0ef          	jal	ra,20000550 <_Z32InstallIllegalInstructionHandlerv>
20000860:	00002517          	auipc	a0,0x2
20000864:	a9450513          	addi	a0,a0,-1388 # 200022f4 <_GLOBAL__sub_I_gpu.cpp+0x1878>
20000868:	078000ef          	jal	ra,200008e0 <_Z8EchoUARTPKc>
2000086c:	00002a97          	auipc	s5,0x2
20000870:	0ccaaa83          	lw	s5,204(s5) # 20002938 <_GLOBAL_OFFSET_TABLE_+0x28>
20000874:	00002a17          	auipc	s4,0x2
20000878:	0aca2a03          	lw	s4,172(s4) # 20002920 <_GLOBAL_OFFSET_TABLE_+0x10>
2000087c:	000aa703          	lw	a4,0(s5)
20000880:	000a2603          	lw	a2,0(s4)
20000884:	00d00493          	li	s1,13
20000888:	0ff00693          	li	a3,255
2000088c:	04200913          	li	s2,66
20000890:	05200993          	li	s3,82
20000894:	00072783          	lw	a5,0(a4)
20000898:	fe078ee3          	beqz	a5,20000894 <main+0x58>
2000089c:	00064403          	lbu	s0,0(a2) # ffff000 <_STACK_SIZE+0xfffe600>
200008a0:	0ff47413          	andi	s0,s0,255
200008a4:	00940663          	beq	s0,s1,200008b0 <main+0x74>
200008a8:	00040693          	mv	a3,s0
200008ac:	fe9ff06f          	j	20000894 <main+0x58>
200008b0:	01268e63          	beq	a3,s2,200008cc <main+0x90>
200008b4:	ff369ae3          	bne	a3,s3,200008a8 <main+0x6c>
200008b8:	e89ff0ef          	jal	ra,20000740 <_Z13RunBinaryBlobv>
200008bc:	000aa703          	lw	a4,0(s5)
200008c0:	000a2603          	lw	a2,0(s4)
200008c4:	00040693          	mv	a3,s0
200008c8:	fcdff06f          	j	20000894 <main+0x58>
200008cc:	ca5ff0ef          	jal	ra,20000570 <_Z14LoadBinaryBlobv>
200008d0:	000aa703          	lw	a4,0(s5)
200008d4:	000a2603          	lw	a2,0(s4)
200008d8:	00040693          	mv	a3,s0
200008dc:	fb9ff06f          	j	20000894 <main+0x58>

200008e0 <_Z8EchoUARTPKc>:
200008e0:	00054783          	lbu	a5,0(a0)
200008e4:	02078263          	beqz	a5,20000908 <_Z8EchoUARTPKc+0x28>
200008e8:	00150513          	addi	a0,a0,1
200008ec:	00002697          	auipc	a3,0x2
200008f0:	0486a683          	lw	a3,72(a3) # 20002934 <_GLOBAL_OFFSET_TABLE_+0x24>
200008f4:	0006a703          	lw	a4,0(a3)
200008f8:	00150513          	addi	a0,a0,1
200008fc:	00f70023          	sb	a5,0(a4)
20000900:	fff54783          	lbu	a5,-1(a0)
20000904:	fe0798e3          	bnez	a5,200008f4 <_Z8EchoUARTPKc+0x14>
20000908:	00008067          	ret

2000090c <_Z7EchoHexm>:
2000090c:	00002617          	auipc	a2,0x2
20000910:	a2860613          	addi	a2,a2,-1496 # 20002334 <_GLOBAL__sub_I_gpu.cpp+0x18b8>
20000914:	00c62803          	lw	a6,12(a2)
20000918:	00062e03          	lw	t3,0(a2)
2000091c:	00462303          	lw	t1,4(a2)
20000920:	00862883          	lw	a7,8(a2)
20000924:	fd010113          	addi	sp,sp,-48
20000928:	00c55793          	srli	a5,a0,0xc
2000092c:	00855693          	srli	a3,a0,0x8
20000930:	01855713          	srli	a4,a0,0x18
20000934:	01012c23          	sw	a6,24(sp)
20000938:	01c55593          	srli	a1,a0,0x1c
2000093c:	02010813          	addi	a6,sp,32
20000940:	00f7f793          	andi	a5,a5,15
20000944:	00f6f693          	andi	a3,a3,15
20000948:	00f77713          	andi	a4,a4,15
2000094c:	02112623          	sw	ra,44(sp)
20000950:	01112a23          	sw	a7,20(sp)
20000954:	01c12623          	sw	t3,12(sp)
20000958:	00612823          	sw	t1,16(sp)
2000095c:	00d806b3          	add	a3,a6,a3
20000960:	00b805b3          	add	a1,a6,a1
20000964:	00e80733          	add	a4,a6,a4
20000968:	00f807b3          	add	a5,a6,a5
2000096c:	00455893          	srli	a7,a0,0x4
20000970:	01455813          	srli	a6,a0,0x14
20000974:	fec6ce83          	lbu	t4,-20(a3)
20000978:	fec74e03          	lbu	t3,-20(a4)
2000097c:	fec5c683          	lbu	a3,-20(a1)
20000980:	02010713          	addi	a4,sp,32
20000984:	fec7c783          	lbu	a5,-20(a5)
20000988:	00f8f893          	andi	a7,a7,15
2000098c:	00f87813          	andi	a6,a6,15
20000990:	011708b3          	add	a7,a4,a7
20000994:	01070833          	add	a6,a4,a6
20000998:	01055593          	srli	a1,a0,0x10
2000099c:	ffff0737          	lui	a4,0xffff0
200009a0:	fec8c303          	lbu	t1,-20(a7)
200009a4:	0ff70713          	addi	a4,a4,255 # ffff00ff <__global_pointer$+0xdffecfaf>
200009a8:	fec84883          	lbu	a7,-20(a6)
200009ac:	00f5f593          	andi	a1,a1,15
200009b0:	02010813          	addi	a6,sp,32
200009b4:	00f57513          	andi	a0,a0,15
200009b8:	008e9e93          	slli	t4,t4,0x8
200009bc:	00e7f7b3          	and	a5,a5,a4
200009c0:	00a80533          	add	a0,a6,a0
200009c4:	008e1e13          	slli	t3,t3,0x8
200009c8:	00e6f733          	and	a4,a3,a4
200009cc:	00b806b3          	add	a3,a6,a1
200009d0:	ff0105b7          	lui	a1,0xff010
200009d4:	fec54803          	lbu	a6,-20(a0)
200009d8:	fff58593          	addi	a1,a1,-1 # ff00ffff <__global_pointer$+0xdf00ceaf>
200009dc:	fec6c503          	lbu	a0,-20(a3)
200009e0:	01d7e7b3          	or	a5,a5,t4
200009e4:	01c76733          	or	a4,a4,t3
200009e8:	01031313          	slli	t1,t1,0x10
200009ec:	00b7f7b3          	and	a5,a5,a1
200009f0:	01089893          	slli	a7,a7,0x10
200009f4:	00b77733          	and	a4,a4,a1
200009f8:	010006b7          	lui	a3,0x1000
200009fc:	01064e03          	lbu	t3,16(a2)
20000a00:	fff68693          	addi	a3,a3,-1 # ffffff <_STACK_SIZE+0xfff5ff>
20000a04:	0067e7b3          	or	a5,a5,t1
20000a08:	01176733          	or	a4,a4,a7
20000a0c:	01851613          	slli	a2,a0,0x18
20000a10:	01881593          	slli	a1,a6,0x18
20000a14:	00d7f7b3          	and	a5,a5,a3
20000a18:	00d77733          	and	a4,a4,a3
20000a1c:	00b7e7b3          	or	a5,a5,a1
20000a20:	00c76733          	or	a4,a4,a2
20000a24:	00010513          	mv	a0,sp
20000a28:	01c10e23          	sb	t3,28(sp)
20000a2c:	00010423          	sb	zero,8(sp)
20000a30:	00e12023          	sw	a4,0(sp)
20000a34:	00f12223          	sw	a5,4(sp)
20000a38:	ea9ff0ef          	jal	ra,200008e0 <_Z8EchoUARTPKc>
20000a3c:	02c12083          	lw	ra,44(sp)
20000a40:	03010113          	addi	sp,sp,48
20000a44:	00008067          	ret

20000a48 <_Z8InitFontv>:
20000a48:	00002797          	auipc	a5,0x2
20000a4c:	edc7a783          	lw	a5,-292(a5) # 20002924 <_GLOBAL_OFFSET_TABLE_+0x14>
20000a50:	0007a503          	lw	a0,0(a5)
20000a54:	00002637          	lui	a2,0x2
20000a58:	ff010113          	addi	sp,sp,-16
20000a5c:	80060613          	addi	a2,a2,-2048 # 1800 <_STACK_SIZE+0xe00>
20000a60:	00000597          	auipc	a1,0x0
20000a64:	03858593          	addi	a1,a1,56 # 20000a98 <_GLOBAL__sub_I_gpu.cpp+0x1c>
20000a68:	00112623          	sw	ra,12(sp)
20000a6c:	f04ff0ef          	jal	ra,20000170 <memcpy>
20000a70:	00c12083          	lw	ra,12(sp)
20000a74:	01010113          	addi	sp,sp,16
20000a78:	00008067          	ret

20000a7c <_GLOBAL__sub_I_gpu.cpp>:
20000a7c:	00002797          	auipc	a5,0x2
20000a80:	e9c7a783          	lw	a5,-356(a5) # 20002918 <_GLOBAL_OFFSET_TABLE_+0x8>
20000a84:	0007a703          	lw	a4,0(a5)
20000a88:	00002797          	auipc	a5,0x2
20000a8c:	e9c7a783          	lw	a5,-356(a5) # 20002924 <_GLOBAL_OFFSET_TABLE_+0x14>
20000a90:	00e7a023          	sw	a4,0(a5)
20000a94:	00008067          	ret

Disassembly of section .rodata:

20000a98 <_etext-0x18ad>:
	...
20000aa0:	0000                	unimp
20000aa2:	00ff                	0xff
20000aa4:	0000                	unimp
20000aa6:	0000                	unimp
20000aa8:	ff00                	fsw	fs0,56(a4)
20000aaa:	ff00                	fsw	fs0,56(a4)
20000aac:	0000                	unimp
20000aae:	0000                	unimp
20000ab0:	0000                	unimp
20000ab2:	00ff                	0xff
20000ab4:	00ff                	0xff
20000ab6:	0000                	unimp
20000ab8:	ff00                	fsw	fs0,56(a4)
20000aba:	ffff                	0xffff
20000abc:	0000                	unimp
20000abe:	0000                	unimp
20000ac0:	ff00                	fsw	fs0,56(a4)
20000ac2:	ffff                	0xffff
20000ac4:	00ff                	0xff
20000ac6:	0000                	unimp
20000ac8:	0000                	unimp
20000aca:	00ff                	0xff
20000acc:	0000                	unimp
20000ace:	0000                	unimp
20000ad0:	0000                	unimp
20000ad2:	00ff                	0xff
20000ad4:	0000                	unimp
20000ad6:	0000                	unimp
20000ad8:	0000                	unimp
20000ada:	ff00                	fsw	fs0,56(a4)
20000adc:	0000                	unimp
20000ade:	0000                	unimp
20000ae0:	ff00                	fsw	fs0,56(a4)
	...
20000aea:	00ff                	0xff
	...
20000b14:	00ff                	0xff
20000b16:	0000                	unimp
20000b18:	ff00                	fsw	fs0,56(a4)
20000b1a:	ffff                	0xffff
20000b1c:	0000                	unimp
20000b1e:	0000                	unimp
20000b20:	0000                	unimp
20000b22:	00ff                	0xff
20000b24:	0000                	unimp
20000b26:	0000                	unimp
20000b28:	ff00                	fsw	fs0,56(a4)
20000b2a:	ffff                	0xffff
20000b2c:	0000                	unimp
20000b2e:	0000                	unimp
20000b30:	ffff                	0xffff
20000b32:	ffff                	0xffff
20000b34:	00ff                	0xff
20000b36:	0000                	unimp
20000b38:	0000                	unimp
20000b3a:	ff00                	fsw	fs0,56(a4)
20000b3c:	0000                	unimp
20000b3e:	0000                	unimp
20000b40:	ffff                	0xffff
20000b42:	ffff                	0xffff
20000b44:	00ff                	0xff
20000b46:	0000                	unimp
20000b48:	0000                	unimp
20000b4a:	ffff                	0xffff
20000b4c:	0000                	unimp
20000b4e:	0000                	unimp
20000b50:	ffff                	0xffff
20000b52:	ffff                	0xffff
20000b54:	00ff                	0xff
20000b56:	0000                	unimp
20000b58:	ff00                	fsw	fs0,56(a4)
20000b5a:	ffff                	0xffff
20000b5c:	0000                	unimp
20000b5e:	0000                	unimp
20000b60:	ff00                	fsw	fs0,56(a4)
20000b62:	ffff                	0xffff
	...
20000b90:	0000                	unimp
20000b92:	ffff                	0xffff
	...
20000ba0:	0000                	unimp
20000ba2:	00ff                	0xff
20000ba4:	0000                	unimp
20000ba6:	0000                	unimp
20000ba8:	ff00                	fsw	fs0,56(a4)
20000baa:	ff00                	fsw	fs0,56(a4)
20000bac:	0000                	unimp
20000bae:	0000                	unimp
20000bb0:	ffff                	0xffff
20000bb2:	ffff                	0xffff
20000bb4:	00ff                	0xff
20000bb6:	0000                	unimp
20000bb8:	00ff                	0xff
20000bba:	00ff                	0xff
20000bbc:	00ff                	0xff
20000bbe:	0000                	unimp
20000bc0:	00ff                	0xff
20000bc2:	00ff                	0xff
20000bc4:	00ff                	0xff
20000bc6:	0000                	unimp
20000bc8:	ff00                	fsw	fs0,56(a4)
20000bca:	ff00                	fsw	fs0,56(a4)
20000bcc:	0000                	unimp
20000bce:	0000                	unimp
20000bd0:	0000                	unimp
20000bd2:	00ff                	0xff
20000bd4:	0000                	unimp
20000bd6:	0000                	unimp
20000bd8:	0000                	unimp
20000bda:	00ff                	0xff
20000bdc:	0000                	unimp
20000bde:	0000                	unimp
20000be0:	0000                	unimp
20000be2:	00ff                	0xff
20000be4:	0000                	unimp
20000be6:	0000                	unimp
20000be8:	00ff                	0xff
20000bea:	00ff                	0xff
20000bec:	00ff                	0xff
20000bee:	0000                	unimp
20000bf0:	0000                	unimp
20000bf2:	00ff                	0xff
	...
20000c14:	00ff                	0xff
20000c16:	0000                	unimp
20000c18:	00ff                	0xff
20000c1a:	0000                	unimp
20000c1c:	00ff                	0xff
20000c1e:	0000                	unimp
20000c20:	ff00                	fsw	fs0,56(a4)
20000c22:	00ff                	0xff
20000c24:	0000                	unimp
20000c26:	0000                	unimp
20000c28:	00ff                	0xff
20000c2a:	0000                	unimp
20000c2c:	00ff                	0xff
20000c2e:	0000                	unimp
20000c30:	0000                	unimp
20000c32:	ff00                	fsw	fs0,56(a4)
20000c34:	0000                	unimp
20000c36:	0000                	unimp
20000c38:	0000                	unimp
20000c3a:	ffff                	0xffff
20000c3c:	0000                	unimp
20000c3e:	0000                	unimp
20000c40:	00ff                	0xff
20000c42:	0000                	unimp
20000c44:	0000                	unimp
20000c46:	0000                	unimp
20000c48:	ff00                	fsw	fs0,56(a4)
	...
20000c52:	0000                	unimp
20000c54:	00ff                	0xff
20000c56:	0000                	unimp
20000c58:	00ff                	0xff
20000c5a:	0000                	unimp
20000c5c:	00ff                	0xff
20000c5e:	0000                	unimp
20000c60:	00ff                	0xff
20000c62:	0000                	unimp
20000c64:	00ff                	0xff
	...
20000c7a:	ff00                	fsw	fs0,56(a4)
	...
20000c88:	ff00                	fsw	fs0,56(a4)
20000c8a:	0000                	unimp
20000c8c:	0000                	unimp
20000c8e:	0000                	unimp
20000c90:	ff00                	fsw	fs0,56(a4)
20000c92:	0000                	unimp
20000c94:	00ff                	0xff
	...
20000ca2:	00ff                	0xff
	...
20000cb0:	ff00                	fsw	fs0,56(a4)
20000cb2:	ff00                	fsw	fs0,56(a4)
20000cb4:	0000                	unimp
20000cb6:	0000                	unimp
20000cb8:	00ff                	0xff
20000cba:	00ff                	0xff
20000cbc:	0000                	unimp
20000cbe:	0000                	unimp
20000cc0:	00ff                	0xff
20000cc2:	ffff                	0xffff
20000cc4:	0000                	unimp
20000cc6:	0000                	unimp
20000cc8:	0000                	unimp
20000cca:	00ff                	0xff
	...
20000cd8:	ff00                	fsw	fs0,56(a4)
	...
20000ce2:	ff00                	fsw	fs0,56(a4)
20000ce4:	0000                	unimp
20000ce6:	0000                	unimp
20000ce8:	ff00                	fsw	fs0,56(a4)
20000cea:	ffff                	0xffff
20000cec:	0000                	unimp
20000cee:	0000                	unimp
20000cf0:	0000                	unimp
20000cf2:	00ff                	0xff
	...
20000d10:	0000                	unimp
20000d12:	ff00                	fsw	fs0,56(a4)
20000d14:	0000                	unimp
20000d16:	0000                	unimp
20000d18:	00ff                	0xff
20000d1a:	ff00                	fsw	fs0,56(a4)
20000d1c:	00ff                	0xff
20000d1e:	0000                	unimp
20000d20:	0000                	unimp
20000d22:	00ff                	0xff
	...
20000d2c:	00ff                	0xff
20000d2e:	0000                	unimp
20000d30:	0000                	unimp
20000d32:	00ff                	0xff
20000d34:	0000                	unimp
20000d36:	0000                	unimp
20000d38:	ff00                	fsw	fs0,56(a4)
20000d3a:	ff00                	fsw	fs0,56(a4)
20000d3c:	0000                	unimp
20000d3e:	0000                	unimp
20000d40:	ffff                	0xffff
20000d42:	ffff                	0xffff
20000d44:	0000                	unimp
20000d46:	0000                	unimp
20000d48:	00ff                	0xff
	...
20000d52:	ff00                	fsw	fs0,56(a4)
20000d54:	0000                	unimp
20000d56:	0000                	unimp
20000d58:	00ff                	0xff
20000d5a:	0000                	unimp
20000d5c:	00ff                	0xff
20000d5e:	0000                	unimp
20000d60:	00ff                	0xff
20000d62:	0000                	unimp
20000d64:	00ff                	0xff
20000d66:	0000                	unimp
20000d68:	0000                	unimp
20000d6a:	00ff                	0xff
20000d6c:	0000                	unimp
20000d6e:	0000                	unimp
20000d70:	0000                	unimp
20000d72:	00ff                	0xff
20000d74:	0000                	unimp
20000d76:	0000                	unimp
20000d78:	0000                	unimp
20000d7a:	00ff                	0xff
20000d7c:	0000                	unimp
20000d7e:	0000                	unimp
20000d80:	ffff                	0xffff
20000d82:	ffff                	0xffff
20000d84:	00ff                	0xff
20000d86:	0000                	unimp
20000d88:	0000                	unimp
20000d8a:	00ff                	0xff
	...
20000d94:	00ff                	0xff
	...
20000da2:	00ff                	0xff
	...
20000db0:	ffff                	0xffff
20000db2:	ffff                	0xffff
20000db4:	00ff                	0xff
20000db6:	0000                	unimp
20000db8:	ff00                	fsw	fs0,56(a4)
20000dba:	ffff                	0xffff
20000dbc:	0000                	unimp
20000dbe:	0000                	unimp
20000dc0:	ff00                	fsw	fs0,56(a4)
20000dc2:	ffff                	0xffff
20000dc4:	00ff                	0xff
20000dc6:	0000                	unimp
20000dc8:	ff00                	fsw	fs0,56(a4)
20000dca:	ff00                	fsw	fs0,56(a4)
20000dcc:	ff00                	fsw	fs0,56(a4)
	...
20000dd6:	0000                	unimp
20000dd8:	ff00                	fsw	fs0,56(a4)
	...
20000de2:	ff00                	fsw	fs0,56(a4)
20000de4:	0000                	unimp
20000de6:	0000                	unimp
20000de8:	ff00                	fsw	fs0,56(a4)
20000dea:	ff00                	fsw	fs0,56(a4)
20000dec:	0000                	unimp
20000dee:	0000                	unimp
20000df0:	ffff                	0xffff
20000df2:	ffff                	0xffff
20000df4:	00ff                	0xff
	...
20000dfe:	0000                	unimp
20000e00:	ff00                	fsw	fs0,56(a4)
20000e02:	ffff                	0xffff
20000e04:	00ff                	0xff
	...
20000e12:	ff00                	fsw	fs0,56(a4)
20000e14:	0000                	unimp
20000e16:	0000                	unimp
20000e18:	00ff                	0xff
20000e1a:	00ff                	0xff
20000e1c:	00ff                	0xff
20000e1e:	0000                	unimp
20000e20:	0000                	unimp
20000e22:	00ff                	0xff
20000e24:	0000                	unimp
20000e26:	0000                	unimp
20000e28:	0000                	unimp
20000e2a:	ff00                	fsw	fs0,56(a4)
20000e2c:	0000                	unimp
20000e2e:	0000                	unimp
20000e30:	ff00                	fsw	fs0,56(a4)
20000e32:	ffff                	0xffff
20000e34:	0000                	unimp
20000e36:	0000                	unimp
20000e38:	00ff                	0xff
20000e3a:	ff00                	fsw	fs0,56(a4)
	...
20000e44:	00ff                	0xff
20000e46:	0000                	unimp
20000e48:	ffff                	0xffff
20000e4a:	ffff                	0xffff
20000e4c:	0000                	unimp
20000e4e:	0000                	unimp
20000e50:	0000                	unimp
20000e52:	ff00                	fsw	fs0,56(a4)
20000e54:	0000                	unimp
20000e56:	0000                	unimp
20000e58:	ff00                	fsw	fs0,56(a4)
20000e5a:	ffff                	0xffff
20000e5c:	0000                	unimp
20000e5e:	0000                	unimp
20000e60:	ff00                	fsw	fs0,56(a4)
20000e62:	ffff                	0xffff
20000e64:	00ff                	0xff
	...
20000e76:	0000                	unimp
20000e78:	ff00                	fsw	fs0,56(a4)
	...
20000e8a:	ff00                	fsw	fs0,56(a4)
20000e8c:	0000                	unimp
20000e8e:	0000                	unimp
20000e90:	0000                	unimp
20000e92:	ff00                	fsw	fs0,56(a4)
	...
20000ea0:	0000                	unimp
20000ea2:	00ff                	0xff
	...
20000eb0:	00ff                	0xff
20000eb2:	00ff                	0xff
20000eb4:	0000                	unimp
20000eb6:	0000                	unimp
20000eb8:	0000                	unimp
20000eba:	00ff                	0xff
20000ebc:	00ff                	0xff
20000ebe:	0000                	unimp
20000ec0:	0000                	unimp
20000ec2:	ffff                	0xffff
20000ec4:	ff00                	fsw	fs0,56(a4)
20000ec6:	0000                	unimp
20000ec8:	00ff                	0xff
20000eca:	0000                	unimp
20000ecc:	00ff                	0xff
	...
20000ed6:	0000                	unimp
20000ed8:	ff00                	fsw	fs0,56(a4)
	...
20000ee2:	ff00                	fsw	fs0,56(a4)
20000ee4:	0000                	unimp
20000ee6:	0000                	unimp
20000ee8:	00ff                	0xff
20000eea:	0000                	unimp
20000eec:	00ff                	0xff
20000eee:	0000                	unimp
20000ef0:	0000                	unimp
20000ef2:	00ff                	0xff
	...
20000f10:	0000                	unimp
20000f12:	00ff                	0xff
20000f14:	0000                	unimp
20000f16:	0000                	unimp
20000f18:	ffff                	0xffff
20000f1a:	0000                	unimp
20000f1c:	00ff                	0xff
20000f1e:	0000                	unimp
20000f20:	0000                	unimp
20000f22:	00ff                	0xff
20000f24:	0000                	unimp
20000f26:	0000                	unimp
20000f28:	0000                	unimp
20000f2a:	00ff                	0xff
	...
20000f34:	00ff                	0xff
20000f36:	0000                	unimp
20000f38:	ffff                	0xffff
20000f3a:	ffff                	0xffff
20000f3c:	00ff                	0xff
20000f3e:	0000                	unimp
20000f40:	0000                	unimp
20000f42:	0000                	unimp
20000f44:	00ff                	0xff
20000f46:	0000                	unimp
20000f48:	00ff                	0xff
20000f4a:	0000                	unimp
20000f4c:	00ff                	0xff
20000f4e:	0000                	unimp
20000f50:	0000                	unimp
20000f52:	00ff                	0xff
20000f54:	0000                	unimp
20000f56:	0000                	unimp
20000f58:	00ff                	0xff
20000f5a:	0000                	unimp
20000f5c:	00ff                	0xff
20000f5e:	0000                	unimp
20000f60:	0000                	unimp
20000f62:	0000                	unimp
20000f64:	00ff                	0xff
	...
20000f7a:	00ff                	0xff
20000f7c:	0000                	unimp
20000f7e:	0000                	unimp
20000f80:	ffff                	0xffff
20000f82:	ffff                	0xffff
20000f84:	00ff                	0xff
20000f86:	0000                	unimp
20000f88:	0000                	unimp
20000f8a:	00ff                	0xff
20000f8c:	0000                	unimp
20000f8e:	0000                	unimp
20000f90:	0000                	unimp
20000f92:	00ff                	0xff
	...
20000fb8:	00ff                	0xff
20000fba:	00ff                	0xff
20000fbc:	00ff                	0xff
20000fbe:	0000                	unimp
20000fc0:	ff00                	fsw	fs0,56(a4)
20000fc2:	ff00                	fsw	fs0,56(a4)
20000fc4:	ff00                	fsw	fs0,56(a4)
20000fc6:	0000                	unimp
20000fc8:	00ff                	0xff
20000fca:	0000                	unimp
20000fcc:	00ff                	0xff
	...
20000fd6:	0000                	unimp
20000fd8:	ff00                	fsw	fs0,56(a4)
	...
20000fe2:	ff00                	fsw	fs0,56(a4)
	...
20000ff0:	0000                	unimp
20000ff2:	00ff                	0xff
20000ff4:	0000                	unimp
20000ff6:	0000                	unimp
20000ff8:	0000                	unimp
20000ffa:	00ff                	0xff
	...
20001010:	0000                	unimp
20001012:	00ff                	0xff
20001014:	0000                	unimp
20001016:	0000                	unimp
20001018:	00ff                	0xff
2000101a:	0000                	unimp
2000101c:	00ff                	0xff
2000101e:	0000                	unimp
20001020:	0000                	unimp
20001022:	00ff                	0xff
20001024:	0000                	unimp
20001026:	0000                	unimp
20001028:	ff00                	fsw	fs0,56(a4)
2000102a:	0000                	unimp
2000102c:	0000                	unimp
2000102e:	0000                	unimp
20001030:	00ff                	0xff
20001032:	0000                	unimp
20001034:	00ff                	0xff
20001036:	0000                	unimp
20001038:	0000                	unimp
2000103a:	ff00                	fsw	fs0,56(a4)
2000103c:	0000                	unimp
2000103e:	0000                	unimp
20001040:	00ff                	0xff
20001042:	0000                	unimp
20001044:	00ff                	0xff
20001046:	0000                	unimp
20001048:	00ff                	0xff
2000104a:	0000                	unimp
2000104c:	00ff                	0xff
2000104e:	0000                	unimp
20001050:	0000                	unimp
20001052:	00ff                	0xff
20001054:	0000                	unimp
20001056:	0000                	unimp
20001058:	00ff                	0xff
2000105a:	0000                	unimp
2000105c:	00ff                	0xff
2000105e:	0000                	unimp
20001060:	0000                	unimp
20001062:	ff00                	fsw	fs0,56(a4)
	...
20001070:	0000                	unimp
20001072:	00ff                	0xff
20001074:	0000                	unimp
20001076:	0000                	unimp
20001078:	0000                	unimp
2000107a:	ff00                	fsw	fs0,56(a4)
	...
20001088:	ff00                	fsw	fs0,56(a4)
	...
200010a2:	00ff                	0xff
	...
200010b8:	ff00                	fsw	fs0,56(a4)
200010ba:	ffff                	0xffff
200010bc:	0000                	unimp
200010be:	0000                	unimp
200010c0:	ff00                	fsw	fs0,56(a4)
200010c2:	0000                	unimp
200010c4:	00ff                	0xff
200010c6:	0000                	unimp
200010c8:	ff00                	fsw	fs0,56(a4)
200010ca:	ffff                	0xffff
200010cc:	ff00                	fsw	fs0,56(a4)
	...
200010da:	00ff                	0xff
200010dc:	0000                	unimp
200010de:	0000                	unimp
200010e0:	0000                	unimp
200010e2:	00ff                	0xff
	...
200010f8:	0000                	unimp
200010fa:	00ff                	0xff
	...
20001108:	0000                	unimp
2000110a:	00ff                	0xff
2000110c:	0000                	unimp
2000110e:	0000                	unimp
20001110:	ff00                	fsw	fs0,56(a4)
20001112:	0000                	unimp
20001114:	0000                	unimp
20001116:	0000                	unimp
20001118:	ff00                	fsw	fs0,56(a4)
2000111a:	ffff                	0xffff
2000111c:	0000                	unimp
2000111e:	0000                	unimp
20001120:	0000                	unimp
20001122:	00ff                	0xff
20001124:	0000                	unimp
20001126:	0000                	unimp
20001128:	ffff                	0xffff
2000112a:	ffff                	0xffff
2000112c:	00ff                	0xff
2000112e:	0000                	unimp
20001130:	ff00                	fsw	fs0,56(a4)
20001132:	ffff                	0xffff
20001134:	0000                	unimp
20001136:	0000                	unimp
20001138:	0000                	unimp
2000113a:	ff00                	fsw	fs0,56(a4)
2000113c:	0000                	unimp
2000113e:	0000                	unimp
20001140:	ff00                	fsw	fs0,56(a4)
20001142:	ffff                	0xffff
20001144:	0000                	unimp
20001146:	0000                	unimp
20001148:	ff00                	fsw	fs0,56(a4)
2000114a:	ffff                	0xffff
2000114c:	0000                	unimp
2000114e:	0000                	unimp
20001150:	0000                	unimp
20001152:	00ff                	0xff
20001154:	0000                	unimp
20001156:	0000                	unimp
20001158:	ff00                	fsw	fs0,56(a4)
2000115a:	ffff                	0xffff
2000115c:	0000                	unimp
2000115e:	0000                	unimp
20001160:	ff00                	fsw	fs0,56(a4)
20001162:	00ff                	0xff
20001164:	0000                	unimp
20001166:	0000                	unimp
20001168:	0000                	unimp
2000116a:	00ff                	0xff
2000116c:	0000                	unimp
2000116e:	0000                	unimp
20001170:	0000                	unimp
20001172:	00ff                	0xff
	...
20001190:	0000                	unimp
20001192:	00ff                	0xff
	...
200011b8:	0000                	unimp
200011ba:	00ff                	0xff
	...
200011d8:	0000                	unimp
200011da:	ff00                	fsw	fs0,56(a4)
200011dc:	0000                	unimp
200011de:	0000                	unimp
200011e0:	ff00                	fsw	fs0,56(a4)
	...
200011f6:	0000                	unimp
200011f8:	ff00                	fsw	fs0,56(a4)
	...
2000120e:	0000                	unimp
20001210:	ff00                	fsw	fs0,56(a4)
	...
2000126e:	0000                	unimp
20001270:	ff00                	fsw	fs0,56(a4)
	...
2000129a:	ffff                	0xffff
2000129c:	0000                	unimp
2000129e:	0000                	unimp
200012a0:	0000                	unimp
200012a2:	00ff                	0xff
200012a4:	0000                	unimp
200012a6:	0000                	unimp
200012a8:	ffff                	0xffff
200012aa:	ffff                	0xffff
200012ac:	0000                	unimp
200012ae:	0000                	unimp
200012b0:	ff00                	fsw	fs0,56(a4)
200012b2:	ffff                	0xffff
200012b4:	0000                	unimp
200012b6:	0000                	unimp
200012b8:	ffff                	0xffff
200012ba:	00ff                	0xff
200012bc:	0000                	unimp
200012be:	0000                	unimp
200012c0:	ff00                	fsw	fs0,56(a4)
200012c2:	ffff                	0xffff
200012c4:	00ff                	0xff
200012c6:	0000                	unimp
200012c8:	ff00                	fsw	fs0,56(a4)
200012ca:	ffff                	0xffff
200012cc:	00ff                	0xff
200012ce:	0000                	unimp
200012d0:	ff00                	fsw	fs0,56(a4)
200012d2:	ffff                	0xffff
200012d4:	0000                	unimp
200012d6:	0000                	unimp
200012d8:	00ff                	0xff
200012da:	0000                	unimp
200012dc:	00ff                	0xff
200012de:	0000                	unimp
200012e0:	0000                	unimp
200012e2:	00ff                	0xff
	...
200012ec:	00ff                	0xff
200012ee:	0000                	unimp
200012f0:	00ff                	0xff
200012f2:	0000                	unimp
200012f4:	00ff                	0xff
200012f6:	0000                	unimp
200012f8:	ff00                	fsw	fs0,56(a4)
200012fa:	0000                	unimp
200012fc:	0000                	unimp
200012fe:	0000                	unimp
20001300:	00ff                	0xff
20001302:	0000                	unimp
20001304:	00ff                	0xff
20001306:	0000                	unimp
20001308:	ffff                	0xffff
2000130a:	0000                	unimp
2000130c:	00ff                	0xff
2000130e:	0000                	unimp
20001310:	ff00                	fsw	fs0,56(a4)
20001312:	ffff                	0xffff
20001314:	0000                	unimp
20001316:	0000                	unimp
20001318:	ffff                	0xffff
2000131a:	ffff                	0xffff
2000131c:	0000                	unimp
2000131e:	0000                	unimp
20001320:	ff00                	fsw	fs0,56(a4)
20001322:	ffff                	0xffff
20001324:	0000                	unimp
20001326:	0000                	unimp
20001328:	ffff                	0xffff
2000132a:	ffff                	0xffff
2000132c:	0000                	unimp
2000132e:	0000                	unimp
20001330:	ff00                	fsw	fs0,56(a4)
20001332:	ffff                	0xffff
20001334:	0000                	unimp
20001336:	0000                	unimp
20001338:	ffff                	0xffff
2000133a:	ffff                	0xffff
2000133c:	00ff                	0xff
2000133e:	0000                	unimp
20001340:	00ff                	0xff
20001342:	0000                	unimp
20001344:	00ff                	0xff
20001346:	0000                	unimp
20001348:	00ff                	0xff
2000134a:	0000                	unimp
2000134c:	00ff                	0xff
2000134e:	0000                	unimp
20001350:	00ff                	0xff
20001352:	0000                	unimp
20001354:	00ff                	0xff
20001356:	0000                	unimp
20001358:	00ff                	0xff
2000135a:	0000                	unimp
2000135c:	00ff                	0xff
2000135e:	0000                	unimp
20001360:	00ff                	0xff
20001362:	0000                	unimp
20001364:	00ff                	0xff
20001366:	0000                	unimp
20001368:	ff00                	fsw	fs0,56(a4)
2000136a:	ffff                	0xffff
2000136c:	00ff                	0xff
2000136e:	0000                	unimp
20001370:	0000                	unimp
20001372:	ffff                	0xffff
20001374:	0000                	unimp
20001376:	0000                	unimp
20001378:	ff00                	fsw	fs0,56(a4)
2000137a:	0000                	unimp
2000137c:	0000                	unimp
2000137e:	0000                	unimp
20001380:	ff00                	fsw	fs0,56(a4)
20001382:	00ff                	0xff
20001384:	0000                	unimp
20001386:	0000                	unimp
20001388:	0000                	unimp
2000138a:	00ff                	0xff
	...
20001398:	ff00                	fsw	fs0,56(a4)
2000139a:	0000                	unimp
2000139c:	00ff                	0xff
2000139e:	0000                	unimp
200013a0:	0000                	unimp
200013a2:	00ff                	0xff
200013a4:	0000                	unimp
200013a6:	0000                	unimp
200013a8:	00ff                	0xff
200013aa:	0000                	unimp
200013ac:	00ff                	0xff
200013ae:	0000                	unimp
200013b0:	00ff                	0xff
200013b2:	0000                	unimp
200013b4:	00ff                	0xff
200013b6:	0000                	unimp
200013b8:	00ff                	0xff
200013ba:	ff00                	fsw	fs0,56(a4)
200013bc:	0000                	unimp
200013be:	0000                	unimp
200013c0:	ff00                	fsw	fs0,56(a4)
200013c2:	0000                	unimp
200013c4:	0000                	unimp
200013c6:	0000                	unimp
200013c8:	ff00                	fsw	fs0,56(a4)
200013ca:	0000                	unimp
200013cc:	0000                	unimp
200013ce:	0000                	unimp
200013d0:	00ff                	0xff
200013d2:	0000                	unimp
200013d4:	00ff                	0xff
200013d6:	0000                	unimp
200013d8:	00ff                	0xff
200013da:	0000                	unimp
200013dc:	00ff                	0xff
200013de:	0000                	unimp
200013e0:	0000                	unimp
200013e2:	00ff                	0xff
	...
200013ec:	00ff                	0xff
200013ee:	0000                	unimp
200013f0:	00ff                	0xff
200013f2:	ff00                	fsw	fs0,56(a4)
200013f4:	0000                	unimp
200013f6:	0000                	unimp
200013f8:	ff00                	fsw	fs0,56(a4)
200013fa:	0000                	unimp
200013fc:	0000                	unimp
200013fe:	0000                	unimp
20001400:	ffff                	0xffff
20001402:	ff00                	fsw	fs0,56(a4)
20001404:	00ff                	0xff
20001406:	0000                	unimp
20001408:	ffff                	0xffff
2000140a:	0000                	unimp
2000140c:	00ff                	0xff
2000140e:	0000                	unimp
20001410:	00ff                	0xff
20001412:	0000                	unimp
20001414:	00ff                	0xff
20001416:	0000                	unimp
20001418:	00ff                	0xff
2000141a:	0000                	unimp
2000141c:	00ff                	0xff
2000141e:	0000                	unimp
20001420:	00ff                	0xff
20001422:	0000                	unimp
20001424:	00ff                	0xff
20001426:	0000                	unimp
20001428:	00ff                	0xff
2000142a:	0000                	unimp
2000142c:	00ff                	0xff
2000142e:	0000                	unimp
20001430:	00ff                	0xff
20001432:	0000                	unimp
20001434:	00ff                	0xff
20001436:	0000                	unimp
20001438:	0000                	unimp
2000143a:	00ff                	0xff
2000143c:	0000                	unimp
2000143e:	0000                	unimp
20001440:	00ff                	0xff
20001442:	0000                	unimp
20001444:	00ff                	0xff
20001446:	0000                	unimp
20001448:	00ff                	0xff
2000144a:	0000                	unimp
2000144c:	00ff                	0xff
2000144e:	0000                	unimp
20001450:	00ff                	0xff
20001452:	0000                	unimp
20001454:	00ff                	0xff
20001456:	0000                	unimp
20001458:	00ff                	0xff
2000145a:	0000                	unimp
2000145c:	00ff                	0xff
2000145e:	0000                	unimp
20001460:	00ff                	0xff
20001462:	0000                	unimp
20001464:	00ff                	0xff
20001466:	0000                	unimp
20001468:	0000                	unimp
2000146a:	0000                	unimp
2000146c:	00ff                	0xff
2000146e:	0000                	unimp
20001470:	0000                	unimp
20001472:	00ff                	0xff
20001474:	0000                	unimp
20001476:	0000                	unimp
20001478:	ff00                	fsw	fs0,56(a4)
	...
20001482:	00ff                	0xff
20001484:	0000                	unimp
20001486:	0000                	unimp
20001488:	ff00                	fsw	fs0,56(a4)
2000148a:	ff00                	fsw	fs0,56(a4)
	...
20001498:	00ff                	0xff
2000149a:	ffff                	0xffff
2000149c:	ff00                	fsw	fs0,56(a4)
2000149e:	0000                	unimp
200014a0:	ff00                	fsw	fs0,56(a4)
200014a2:	ff00                	fsw	fs0,56(a4)
200014a4:	0000                	unimp
200014a6:	0000                	unimp
200014a8:	00ff                	0xff
200014aa:	0000                	unimp
200014ac:	00ff                	0xff
200014ae:	0000                	unimp
200014b0:	00ff                	0xff
200014b2:	0000                	unimp
200014b4:	0000                	unimp
200014b6:	0000                	unimp
200014b8:	00ff                	0xff
200014ba:	0000                	unimp
200014bc:	00ff                	0xff
200014be:	0000                	unimp
200014c0:	ff00                	fsw	fs0,56(a4)
200014c2:	0000                	unimp
200014c4:	0000                	unimp
200014c6:	0000                	unimp
200014c8:	ff00                	fsw	fs0,56(a4)
200014ca:	0000                	unimp
200014cc:	0000                	unimp
200014ce:	0000                	unimp
200014d0:	00ff                	0xff
200014d2:	0000                	unimp
200014d4:	0000                	unimp
200014d6:	0000                	unimp
200014d8:	00ff                	0xff
200014da:	0000                	unimp
200014dc:	00ff                	0xff
200014de:	0000                	unimp
200014e0:	0000                	unimp
200014e2:	00ff                	0xff
	...
200014ec:	00ff                	0xff
200014ee:	0000                	unimp
200014f0:	00ff                	0xff
200014f2:	00ff                	0xff
200014f4:	0000                	unimp
200014f6:	0000                	unimp
200014f8:	ff00                	fsw	fs0,56(a4)
200014fa:	0000                	unimp
200014fc:	0000                	unimp
200014fe:	0000                	unimp
20001500:	00ff                	0xff
20001502:	00ff                	0xff
20001504:	00ff                	0xff
20001506:	0000                	unimp
20001508:	00ff                	0xff
2000150a:	00ff                	0xff
2000150c:	00ff                	0xff
2000150e:	0000                	unimp
20001510:	00ff                	0xff
20001512:	0000                	unimp
20001514:	00ff                	0xff
20001516:	0000                	unimp
20001518:	00ff                	0xff
2000151a:	0000                	unimp
2000151c:	00ff                	0xff
2000151e:	0000                	unimp
20001520:	00ff                	0xff
20001522:	0000                	unimp
20001524:	00ff                	0xff
20001526:	0000                	unimp
20001528:	00ff                	0xff
2000152a:	0000                	unimp
2000152c:	00ff                	0xff
2000152e:	0000                	unimp
20001530:	00ff                	0xff
	...
2000153a:	00ff                	0xff
2000153c:	0000                	unimp
2000153e:	0000                	unimp
20001540:	00ff                	0xff
20001542:	0000                	unimp
20001544:	00ff                	0xff
20001546:	0000                	unimp
20001548:	00ff                	0xff
2000154a:	0000                	unimp
2000154c:	00ff                	0xff
2000154e:	0000                	unimp
20001550:	00ff                	0xff
20001552:	00ff                	0xff
20001554:	00ff                	0xff
20001556:	0000                	unimp
20001558:	ff00                	fsw	fs0,56(a4)
2000155a:	ff00                	fsw	fs0,56(a4)
2000155c:	0000                	unimp
2000155e:	0000                	unimp
20001560:	ff00                	fsw	fs0,56(a4)
20001562:	ff00                	fsw	fs0,56(a4)
20001564:	0000                	unimp
20001566:	0000                	unimp
20001568:	0000                	unimp
2000156a:	ff00                	fsw	fs0,56(a4)
2000156c:	0000                	unimp
2000156e:	0000                	unimp
20001570:	0000                	unimp
20001572:	00ff                	0xff
20001574:	0000                	unimp
20001576:	0000                	unimp
20001578:	0000                	unimp
2000157a:	00ff                	0xff
2000157c:	0000                	unimp
2000157e:	0000                	unimp
20001580:	0000                	unimp
20001582:	00ff                	0xff
	...
20001598:	ffff                	0xffff
2000159a:	ff00                	fsw	fs0,56(a4)
2000159c:	ff00                	fsw	fs0,56(a4)
2000159e:	0000                	unimp
200015a0:	ff00                	fsw	fs0,56(a4)
200015a2:	ff00                	fsw	fs0,56(a4)
200015a4:	0000                	unimp
200015a6:	0000                	unimp
200015a8:	ffff                	0xffff
200015aa:	ffff                	0xffff
200015ac:	0000                	unimp
200015ae:	0000                	unimp
200015b0:	00ff                	0xff
200015b2:	0000                	unimp
200015b4:	0000                	unimp
200015b6:	0000                	unimp
200015b8:	00ff                	0xff
200015ba:	0000                	unimp
200015bc:	00ff                	0xff
200015be:	0000                	unimp
200015c0:	ff00                	fsw	fs0,56(a4)
200015c2:	ffff                	0xffff
200015c4:	0000                	unimp
200015c6:	0000                	unimp
200015c8:	ff00                	fsw	fs0,56(a4)
200015ca:	ffff                	0xffff
200015cc:	0000                	unimp
200015ce:	0000                	unimp
200015d0:	00ff                	0xff
200015d2:	ff00                	fsw	fs0,56(a4)
200015d4:	00ff                	0xff
200015d6:	0000                	unimp
200015d8:	ffff                	0xffff
200015da:	ffff                	0xffff
200015dc:	00ff                	0xff
200015de:	0000                	unimp
200015e0:	0000                	unimp
200015e2:	00ff                	0xff
	...
200015ec:	00ff                	0xff
200015ee:	0000                	unimp
200015f0:	ffff                	0xffff
200015f2:	0000                	unimp
200015f4:	0000                	unimp
200015f6:	0000                	unimp
200015f8:	ff00                	fsw	fs0,56(a4)
200015fa:	0000                	unimp
200015fc:	0000                	unimp
200015fe:	0000                	unimp
20001600:	00ff                	0xff
20001602:	0000                	unimp
20001604:	00ff                	0xff
20001606:	0000                	unimp
20001608:	00ff                	0xff
2000160a:	00ff                	0xff
2000160c:	00ff                	0xff
2000160e:	0000                	unimp
20001610:	00ff                	0xff
20001612:	0000                	unimp
20001614:	00ff                	0xff
20001616:	0000                	unimp
20001618:	ffff                	0xffff
2000161a:	ffff                	0xffff
2000161c:	0000                	unimp
2000161e:	0000                	unimp
20001620:	00ff                	0xff
20001622:	0000                	unimp
20001624:	00ff                	0xff
20001626:	0000                	unimp
20001628:	ffff                	0xffff
2000162a:	ffff                	0xffff
2000162c:	0000                	unimp
2000162e:	0000                	unimp
20001630:	ff00                	fsw	fs0,56(a4)
20001632:	ffff                	0xffff
20001634:	0000                	unimp
20001636:	0000                	unimp
20001638:	0000                	unimp
2000163a:	00ff                	0xff
2000163c:	0000                	unimp
2000163e:	0000                	unimp
20001640:	00ff                	0xff
20001642:	0000                	unimp
20001644:	00ff                	0xff
20001646:	0000                	unimp
20001648:	ff00                	fsw	fs0,56(a4)
2000164a:	ff00                	fsw	fs0,56(a4)
2000164c:	0000                	unimp
2000164e:	0000                	unimp
20001650:	00ff                	0xff
20001652:	00ff                	0xff
20001654:	00ff                	0xff
20001656:	0000                	unimp
20001658:	0000                	unimp
2000165a:	00ff                	0xff
2000165c:	0000                	unimp
2000165e:	0000                	unimp
20001660:	0000                	unimp
20001662:	00ff                	0xff
20001664:	0000                	unimp
20001666:	0000                	unimp
20001668:	0000                	unimp
2000166a:	00ff                	0xff
2000166c:	0000                	unimp
2000166e:	0000                	unimp
20001670:	0000                	unimp
20001672:	00ff                	0xff
20001674:	0000                	unimp
20001676:	0000                	unimp
20001678:	0000                	unimp
2000167a:	00ff                	0xff
2000167c:	0000                	unimp
2000167e:	0000                	unimp
20001680:	0000                	unimp
20001682:	00ff                	0xff
	...
20001698:	ffff                	0xffff
2000169a:	ff00                	fsw	fs0,56(a4)
2000169c:	ff00                	fsw	fs0,56(a4)
2000169e:	0000                	unimp
200016a0:	ffff                	0xffff
200016a2:	ffff                	0xffff
200016a4:	00ff                	0xff
200016a6:	0000                	unimp
200016a8:	00ff                	0xff
200016aa:	0000                	unimp
200016ac:	00ff                	0xff
200016ae:	0000                	unimp
200016b0:	00ff                	0xff
200016b2:	0000                	unimp
200016b4:	0000                	unimp
200016b6:	0000                	unimp
200016b8:	00ff                	0xff
200016ba:	0000                	unimp
200016bc:	00ff                	0xff
200016be:	0000                	unimp
200016c0:	ff00                	fsw	fs0,56(a4)
200016c2:	0000                	unimp
200016c4:	0000                	unimp
200016c6:	0000                	unimp
200016c8:	ff00                	fsw	fs0,56(a4)
200016ca:	0000                	unimp
200016cc:	0000                	unimp
200016ce:	0000                	unimp
200016d0:	00ff                	0xff
200016d2:	0000                	unimp
200016d4:	00ff                	0xff
200016d6:	0000                	unimp
200016d8:	00ff                	0xff
200016da:	0000                	unimp
200016dc:	00ff                	0xff
200016de:	0000                	unimp
200016e0:	0000                	unimp
200016e2:	00ff                	0xff
200016e4:	0000                	unimp
200016e6:	0000                	unimp
200016e8:	00ff                	0xff
200016ea:	0000                	unimp
200016ec:	00ff                	0xff
200016ee:	0000                	unimp
200016f0:	00ff                	0xff
200016f2:	00ff                	0xff
200016f4:	0000                	unimp
200016f6:	0000                	unimp
200016f8:	ff00                	fsw	fs0,56(a4)
200016fa:	0000                	unimp
200016fc:	0000                	unimp
200016fe:	0000                	unimp
20001700:	00ff                	0xff
20001702:	0000                	unimp
20001704:	00ff                	0xff
20001706:	0000                	unimp
20001708:	00ff                	0xff
2000170a:	ff00                	fsw	fs0,56(a4)
2000170c:	00ff                	0xff
2000170e:	0000                	unimp
20001710:	00ff                	0xff
20001712:	0000                	unimp
20001714:	00ff                	0xff
20001716:	0000                	unimp
20001718:	00ff                	0xff
2000171a:	0000                	unimp
2000171c:	0000                	unimp
2000171e:	0000                	unimp
20001720:	00ff                	0xff
20001722:	0000                	unimp
20001724:	00ff                	0xff
20001726:	0000                	unimp
20001728:	00ff                	0xff
2000172a:	00ff                	0xff
	...
20001734:	00ff                	0xff
20001736:	0000                	unimp
20001738:	0000                	unimp
2000173a:	00ff                	0xff
2000173c:	0000                	unimp
2000173e:	0000                	unimp
20001740:	00ff                	0xff
20001742:	0000                	unimp
20001744:	00ff                	0xff
20001746:	0000                	unimp
20001748:	ff00                	fsw	fs0,56(a4)
2000174a:	ff00                	fsw	fs0,56(a4)
2000174c:	0000                	unimp
2000174e:	0000                	unimp
20001750:	ff00                	fsw	fs0,56(a4)
20001752:	ff00                	fsw	fs0,56(a4)
20001754:	0000                	unimp
20001756:	0000                	unimp
20001758:	ff00                	fsw	fs0,56(a4)
2000175a:	ff00                	fsw	fs0,56(a4)
2000175c:	0000                	unimp
2000175e:	0000                	unimp
20001760:	0000                	unimp
20001762:	00ff                	0xff
20001764:	0000                	unimp
20001766:	0000                	unimp
20001768:	ff00                	fsw	fs0,56(a4)
	...
20001772:	00ff                	0xff
20001774:	0000                	unimp
20001776:	0000                	unimp
20001778:	0000                	unimp
2000177a:	ff00                	fsw	fs0,56(a4)
2000177c:	0000                	unimp
2000177e:	0000                	unimp
20001780:	0000                	unimp
20001782:	00ff                	0xff
	...
20001798:	00ff                	0xff
2000179a:	ffff                	0xffff
2000179c:	00ff                	0xff
2000179e:	0000                	unimp
200017a0:	00ff                	0xff
200017a2:	0000                	unimp
200017a4:	00ff                	0xff
200017a6:	0000                	unimp
200017a8:	00ff                	0xff
200017aa:	0000                	unimp
200017ac:	00ff                	0xff
200017ae:	0000                	unimp
200017b0:	00ff                	0xff
200017b2:	0000                	unimp
200017b4:	00ff                	0xff
200017b6:	0000                	unimp
200017b8:	00ff                	0xff
200017ba:	ff00                	fsw	fs0,56(a4)
200017bc:	0000                	unimp
200017be:	0000                	unimp
200017c0:	ff00                	fsw	fs0,56(a4)
200017c2:	0000                	unimp
200017c4:	0000                	unimp
200017c6:	0000                	unimp
200017c8:	ff00                	fsw	fs0,56(a4)
200017ca:	0000                	unimp
200017cc:	0000                	unimp
200017ce:	0000                	unimp
200017d0:	00ff                	0xff
200017d2:	0000                	unimp
200017d4:	00ff                	0xff
200017d6:	0000                	unimp
200017d8:	00ff                	0xff
200017da:	0000                	unimp
200017dc:	00ff                	0xff
200017de:	0000                	unimp
200017e0:	0000                	unimp
200017e2:	00ff                	0xff
200017e4:	0000                	unimp
200017e6:	0000                	unimp
200017e8:	00ff                	0xff
200017ea:	0000                	unimp
200017ec:	00ff                	0xff
200017ee:	0000                	unimp
200017f0:	00ff                	0xff
200017f2:	ff00                	fsw	fs0,56(a4)
200017f4:	0000                	unimp
200017f6:	0000                	unimp
200017f8:	ff00                	fsw	fs0,56(a4)
200017fa:	0000                	unimp
200017fc:	0000                	unimp
200017fe:	0000                	unimp
20001800:	00ff                	0xff
20001802:	0000                	unimp
20001804:	00ff                	0xff
20001806:	0000                	unimp
20001808:	00ff                	0xff
2000180a:	ff00                	fsw	fs0,56(a4)
2000180c:	00ff                	0xff
2000180e:	0000                	unimp
20001810:	00ff                	0xff
20001812:	0000                	unimp
20001814:	00ff                	0xff
20001816:	0000                	unimp
20001818:	00ff                	0xff
2000181a:	0000                	unimp
2000181c:	0000                	unimp
2000181e:	0000                	unimp
20001820:	00ff                	0xff
20001822:	00ff                	0xff
20001824:	00ff                	0xff
20001826:	0000                	unimp
20001828:	00ff                	0xff
2000182a:	ff00                	fsw	fs0,56(a4)
2000182c:	0000                	unimp
2000182e:	0000                	unimp
20001830:	00ff                	0xff
20001832:	0000                	unimp
20001834:	00ff                	0xff
20001836:	0000                	unimp
20001838:	0000                	unimp
2000183a:	00ff                	0xff
2000183c:	0000                	unimp
2000183e:	0000                	unimp
20001840:	00ff                	0xff
20001842:	0000                	unimp
20001844:	00ff                	0xff
20001846:	0000                	unimp
20001848:	0000                	unimp
2000184a:	00ff                	0xff
2000184c:	0000                	unimp
2000184e:	0000                	unimp
20001850:	ff00                	fsw	fs0,56(a4)
20001852:	ff00                	fsw	fs0,56(a4)
20001854:	0000                	unimp
20001856:	0000                	unimp
20001858:	00ff                	0xff
2000185a:	0000                	unimp
2000185c:	00ff                	0xff
2000185e:	0000                	unimp
20001860:	0000                	unimp
20001862:	00ff                	0xff
20001864:	0000                	unimp
20001866:	0000                	unimp
20001868:	ff00                	fsw	fs0,56(a4)
	...
20001872:	00ff                	0xff
20001874:	0000                	unimp
20001876:	0000                	unimp
20001878:	0000                	unimp
2000187a:	ff00                	fsw	fs0,56(a4)
2000187c:	0000                	unimp
2000187e:	0000                	unimp
20001880:	0000                	unimp
20001882:	00ff                	0xff
	...
20001898:	ff00                	fsw	fs0,56(a4)
2000189a:	0000                	unimp
2000189c:	0000                	unimp
2000189e:	0000                	unimp
200018a0:	00ff                	0xff
200018a2:	0000                	unimp
200018a4:	00ff                	0xff
200018a6:	0000                	unimp
200018a8:	ffff                	0xffff
200018aa:	ffff                	0xffff
200018ac:	0000                	unimp
200018ae:	0000                	unimp
200018b0:	ff00                	fsw	fs0,56(a4)
200018b2:	ffff                	0xffff
200018b4:	0000                	unimp
200018b6:	0000                	unimp
200018b8:	ffff                	0xffff
200018ba:	00ff                	0xff
200018bc:	0000                	unimp
200018be:	0000                	unimp
200018c0:	ff00                	fsw	fs0,56(a4)
200018c2:	ffff                	0xffff
200018c4:	00ff                	0xff
200018c6:	0000                	unimp
200018c8:	ff00                	fsw	fs0,56(a4)
200018ca:	0000                	unimp
200018cc:	0000                	unimp
200018ce:	0000                	unimp
200018d0:	ff00                	fsw	fs0,56(a4)
200018d2:	ffff                	0xffff
200018d4:	0000                	unimp
200018d6:	0000                	unimp
200018d8:	00ff                	0xff
200018da:	0000                	unimp
200018dc:	00ff                	0xff
200018de:	0000                	unimp
200018e0:	0000                	unimp
200018e2:	00ff                	0xff
200018e4:	0000                	unimp
200018e6:	0000                	unimp
200018e8:	ff00                	fsw	fs0,56(a4)
200018ea:	ffff                	0xffff
200018ec:	0000                	unimp
200018ee:	0000                	unimp
200018f0:	00ff                	0xff
200018f2:	0000                	unimp
200018f4:	00ff                	0xff
200018f6:	0000                	unimp
200018f8:	ff00                	fsw	fs0,56(a4)
200018fa:	ffff                	0xffff
200018fc:	00ff                	0xff
200018fe:	0000                	unimp
20001900:	00ff                	0xff
20001902:	0000                	unimp
20001904:	00ff                	0xff
20001906:	0000                	unimp
20001908:	00ff                	0xff
2000190a:	0000                	unimp
2000190c:	00ff                	0xff
2000190e:	0000                	unimp
20001910:	ff00                	fsw	fs0,56(a4)
20001912:	ffff                	0xffff
20001914:	0000                	unimp
20001916:	0000                	unimp
20001918:	00ff                	0xff
2000191a:	0000                	unimp
2000191c:	0000                	unimp
2000191e:	0000                	unimp
20001920:	ff00                	fsw	fs0,56(a4)
20001922:	ffff                	0xffff
20001924:	0000                	unimp
20001926:	0000                	unimp
20001928:	00ff                	0xff
2000192a:	0000                	unimp
2000192c:	00ff                	0xff
2000192e:	0000                	unimp
20001930:	ff00                	fsw	fs0,56(a4)
20001932:	ffff                	0xffff
20001934:	0000                	unimp
20001936:	0000                	unimp
20001938:	0000                	unimp
2000193a:	00ff                	0xff
2000193c:	0000                	unimp
2000193e:	0000                	unimp
20001940:	ff00                	fsw	fs0,56(a4)
20001942:	ffff                	0xffff
20001944:	0000                	unimp
20001946:	0000                	unimp
20001948:	0000                	unimp
2000194a:	00ff                	0xff
2000194c:	0000                	unimp
2000194e:	0000                	unimp
20001950:	ff00                	fsw	fs0,56(a4)
20001952:	ff00                	fsw	fs0,56(a4)
20001954:	0000                	unimp
20001956:	0000                	unimp
20001958:	00ff                	0xff
2000195a:	0000                	unimp
2000195c:	00ff                	0xff
2000195e:	0000                	unimp
20001960:	0000                	unimp
20001962:	00ff                	0xff
20001964:	0000                	unimp
20001966:	0000                	unimp
20001968:	ff00                	fsw	fs0,56(a4)
2000196a:	ffff                	0xffff
2000196c:	00ff                	0xff
2000196e:	0000                	unimp
20001970:	0000                	unimp
20001972:	00ff                	0xff
	...
2000197c:	00ff                	0xff
2000197e:	0000                	unimp
20001980:	0000                	unimp
20001982:	00ff                	0xff
	...
20001998:	0000                	unimp
2000199a:	ffff                	0xffff
	...
20001a20:	0000                	unimp
20001a22:	ff00                	fsw	fs0,56(a4)
	...
20001a70:	0000                	unimp
20001a72:	ffff                	0xffff
	...
20001a7c:	00ff                	0xff
20001a7e:	0000                	unimp
20001a80:	ff00                	fsw	fs0,56(a4)
20001a82:	00ff                	0xff
	...
20001a90:	ffff                	0xffff
20001a92:	ffff                	0xffff
20001a94:	ffff                	0xffff
20001a96:	0000                	unimp
20001a98:	0000                	unimp
20001a9a:	ffff                	0xffff
	...
20001aa8:	ff00                	fsw	fs0,56(a4)
	...
20001aba:	0000                	unimp
20001abc:	00ff                	0xff
	...
20001aca:	ff00                	fsw	fs0,56(a4)
20001acc:	00ff                	0xff
	...
20001ad6:	0000                	unimp
20001ad8:	ff00                	fsw	fs0,56(a4)
	...
20001ae2:	00ff                	0xff
20001ae4:	0000                	unimp
20001ae6:	0000                	unimp
20001ae8:	0000                	unimp
20001aea:	ff00                	fsw	fs0,56(a4)
20001aec:	0000                	unimp
20001aee:	0000                	unimp
20001af0:	ff00                	fsw	fs0,56(a4)
	...
20001afa:	00ff                	0xff
	...
20001b38:	0000                	unimp
20001b3a:	00ff                	0xff
	...
20001b70:	0000                	unimp
20001b72:	ff00                	fsw	fs0,56(a4)
20001b74:	0000                	unimp
20001b76:	0000                	unimp
20001b78:	0000                	unimp
20001b7a:	00ff                	0xff
20001b7c:	0000                	unimp
20001b7e:	0000                	unimp
20001b80:	ff00                	fsw	fs0,56(a4)
20001b82:	0000                	unimp
20001b84:	0000                	unimp
20001b86:	0000                	unimp
20001b88:	ff00                	fsw	fs0,56(a4)
20001b8a:	00ff                	0xff
20001b8c:	00ff                	0xff
20001b8e:	0000                	unimp
20001b90:	0000                	unimp
20001b92:	ffff                	0xffff
20001b94:	0000                	unimp
20001b96:	0000                	unimp
20001b98:	ff00                	fsw	fs0,56(a4)
	...
20001ba6:	0000                	unimp
20001ba8:	ff00                	fsw	fs0,56(a4)
	...
20001bba:	0000                	unimp
20001bbc:	00ff                	0xff
	...
20001bca:	00ff                	0xff
	...
20001bd8:	ff00                	fsw	fs0,56(a4)
	...
20001bee:	0000                	unimp
20001bf0:	ff00                	fsw	fs0,56(a4)
	...
20001bfa:	00ff                	0xff
	...
20001c38:	0000                	unimp
20001c3a:	00ff                	0xff
	...
20001c70:	0000                	unimp
20001c72:	00ff                	0xff
20001c74:	0000                	unimp
20001c76:	0000                	unimp
20001c78:	0000                	unimp
20001c7a:	00ff                	0xff
20001c7c:	0000                	unimp
20001c7e:	0000                	unimp
20001c80:	0000                	unimp
20001c82:	00ff                	0xff
20001c84:	0000                	unimp
20001c86:	0000                	unimp
20001c88:	00ff                	0xff
20001c8a:	ffff                	0xffff
20001c8c:	0000                	unimp
20001c8e:	0000                	unimp
20001c90:	ff00                	fsw	fs0,56(a4)
20001c92:	0000                	unimp
20001c94:	00ff                	0xff
20001c96:	0000                	unimp
20001c98:	ff00                	fsw	fs0,56(a4)
	...
20001ca2:	ffff                	0xffff
20001ca4:	0000                	unimp
20001ca6:	0000                	unimp
20001ca8:	ff00                	fsw	fs0,56(a4)
20001caa:	ffff                	0xffff
20001cac:	0000                	unimp
20001cae:	0000                	unimp
20001cb0:	0000                	unimp
20001cb2:	ffff                	0xffff
20001cb4:	0000                	unimp
20001cb6:	0000                	unimp
20001cb8:	0000                	unimp
20001cba:	ffff                	0xffff
20001cbc:	00ff                	0xff
20001cbe:	0000                	unimp
20001cc0:	0000                	unimp
20001cc2:	ffff                	0xffff
20001cc4:	0000                	unimp
20001cc6:	0000                	unimp
20001cc8:	ff00                	fsw	fs0,56(a4)
20001cca:	ffff                	0xffff
20001ccc:	0000                	unimp
20001cce:	0000                	unimp
20001cd0:	0000                	unimp
20001cd2:	ffff                	0xffff
20001cd4:	00ff                	0xff
20001cd6:	0000                	unimp
20001cd8:	ff00                	fsw	fs0,56(a4)
20001cda:	ffff                	0xffff
20001cdc:	0000                	unimp
20001cde:	0000                	unimp
20001ce0:	0000                	unimp
20001ce2:	00ff                	0xff
20001ce4:	0000                	unimp
20001ce6:	0000                	unimp
20001ce8:	0000                	unimp
20001cea:	ff00                	fsw	fs0,56(a4)
20001cec:	0000                	unimp
20001cee:	0000                	unimp
20001cf0:	ff00                	fsw	fs0,56(a4)
20001cf2:	0000                	unimp
20001cf4:	00ff                	0xff
20001cf6:	0000                	unimp
20001cf8:	0000                	unimp
20001cfa:	00ff                	0xff
20001cfc:	0000                	unimp
20001cfe:	0000                	unimp
20001d00:	ffff                	0xffff
20001d02:	ff00                	fsw	fs0,56(a4)
20001d04:	0000                	unimp
20001d06:	0000                	unimp
20001d08:	ff00                	fsw	fs0,56(a4)
20001d0a:	ffff                	0xffff
20001d0c:	0000                	unimp
20001d0e:	0000                	unimp
20001d10:	0000                	unimp
20001d12:	ffff                	0xffff
20001d14:	0000                	unimp
20001d16:	0000                	unimp
20001d18:	ff00                	fsw	fs0,56(a4)
20001d1a:	ffff                	0xffff
20001d1c:	0000                	unimp
20001d1e:	0000                	unimp
20001d20:	0000                	unimp
20001d22:	ffff                	0xffff
20001d24:	00ff                	0xff
20001d26:	0000                	unimp
20001d28:	ff00                	fsw	fs0,56(a4)
20001d2a:	ff00                	fsw	fs0,56(a4)
20001d2c:	00ff                	0xff
20001d2e:	0000                	unimp
20001d30:	0000                	unimp
20001d32:	ffff                	0xffff
20001d34:	00ff                	0xff
20001d36:	0000                	unimp
20001d38:	ff00                	fsw	fs0,56(a4)
20001d3a:	ffff                	0xffff
20001d3c:	0000                	unimp
20001d3e:	0000                	unimp
20001d40:	ff00                	fsw	fs0,56(a4)
20001d42:	0000                	unimp
20001d44:	00ff                	0xff
20001d46:	0000                	unimp
20001d48:	00ff                	0xff
20001d4a:	0000                	unimp
20001d4c:	00ff                	0xff
20001d4e:	0000                	unimp
20001d50:	00ff                	0xff
20001d52:	0000                	unimp
20001d54:	00ff                	0xff
20001d56:	0000                	unimp
20001d58:	00ff                	0xff
20001d5a:	0000                	unimp
20001d5c:	00ff                	0xff
20001d5e:	0000                	unimp
20001d60:	00ff                	0xff
20001d62:	0000                	unimp
20001d64:	00ff                	0xff
20001d66:	0000                	unimp
20001d68:	ff00                	fsw	fs0,56(a4)
20001d6a:	ffff                	0xffff
20001d6c:	00ff                	0xff
20001d6e:	0000                	unimp
20001d70:	0000                	unimp
20001d72:	00ff                	0xff
20001d74:	0000                	unimp
20001d76:	0000                	unimp
20001d78:	0000                	unimp
20001d7a:	00ff                	0xff
20001d7c:	0000                	unimp
20001d7e:	0000                	unimp
20001d80:	0000                	unimp
20001d82:	00ff                	0xff
	...
20001d90:	00ff                	0xff
20001d92:	ffff                	0xffff
20001d94:	ff00                	fsw	fs0,56(a4)
20001d96:	0000                	unimp
20001d98:	ffff                	0xffff
20001d9a:	00ff                	0xff
	...
20001da4:	00ff                	0xff
20001da6:	0000                	unimp
20001da8:	ff00                	fsw	fs0,56(a4)
20001daa:	0000                	unimp
20001dac:	00ff                	0xff
20001dae:	0000                	unimp
20001db0:	ff00                	fsw	fs0,56(a4)
20001db2:	0000                	unimp
20001db4:	00ff                	0xff
20001db6:	0000                	unimp
20001db8:	ff00                	fsw	fs0,56(a4)
20001dba:	0000                	unimp
20001dbc:	00ff                	0xff
20001dbe:	0000                	unimp
20001dc0:	ff00                	fsw	fs0,56(a4)
20001dc2:	0000                	unimp
20001dc4:	00ff                	0xff
20001dc6:	0000                	unimp
20001dc8:	0000                	unimp
20001dca:	00ff                	0xff
20001dcc:	0000                	unimp
20001dce:	0000                	unimp
20001dd0:	ff00                	fsw	fs0,56(a4)
20001dd2:	0000                	unimp
20001dd4:	00ff                	0xff
20001dd6:	0000                	unimp
20001dd8:	ff00                	fsw	fs0,56(a4)
20001dda:	0000                	unimp
20001ddc:	00ff                	0xff
20001dde:	0000                	unimp
20001de0:	0000                	unimp
20001de2:	00ff                	0xff
20001de4:	0000                	unimp
20001de6:	0000                	unimp
20001de8:	0000                	unimp
20001dea:	ff00                	fsw	fs0,56(a4)
20001dec:	0000                	unimp
20001dee:	0000                	unimp
20001df0:	ff00                	fsw	fs0,56(a4)
20001df2:	ff00                	fsw	fs0,56(a4)
20001df4:	0000                	unimp
20001df6:	0000                	unimp
20001df8:	0000                	unimp
20001dfa:	00ff                	0xff
20001dfc:	0000                	unimp
20001dfe:	0000                	unimp
20001e00:	00ff                	0xff
20001e02:	00ff                	0xff
20001e04:	00ff                	0xff
20001e06:	0000                	unimp
20001e08:	ff00                	fsw	fs0,56(a4)
20001e0a:	0000                	unimp
20001e0c:	00ff                	0xff
20001e0e:	0000                	unimp
20001e10:	ff00                	fsw	fs0,56(a4)
20001e12:	0000                	unimp
20001e14:	00ff                	0xff
20001e16:	0000                	unimp
20001e18:	ff00                	fsw	fs0,56(a4)
20001e1a:	0000                	unimp
20001e1c:	00ff                	0xff
20001e1e:	0000                	unimp
20001e20:	ff00                	fsw	fs0,56(a4)
20001e22:	0000                	unimp
20001e24:	00ff                	0xff
20001e26:	0000                	unimp
20001e28:	ff00                	fsw	fs0,56(a4)
20001e2a:	00ff                	0xff
20001e2c:	0000                	unimp
20001e2e:	0000                	unimp
20001e30:	ff00                	fsw	fs0,56(a4)
	...
20001e3a:	00ff                	0xff
20001e3c:	0000                	unimp
20001e3e:	0000                	unimp
20001e40:	ff00                	fsw	fs0,56(a4)
20001e42:	0000                	unimp
20001e44:	00ff                	0xff
20001e46:	0000                	unimp
20001e48:	ff00                	fsw	fs0,56(a4)
20001e4a:	ff00                	fsw	fs0,56(a4)
20001e4c:	0000                	unimp
20001e4e:	0000                	unimp
20001e50:	00ff                	0xff
20001e52:	0000                	unimp
20001e54:	00ff                	0xff
20001e56:	0000                	unimp
20001e58:	ff00                	fsw	fs0,56(a4)
20001e5a:	ff00                	fsw	fs0,56(a4)
20001e5c:	0000                	unimp
20001e5e:	0000                	unimp
20001e60:	ff00                	fsw	fs0,56(a4)
20001e62:	ff00                	fsw	fs0,56(a4)
20001e64:	0000                	unimp
20001e66:	0000                	unimp
20001e68:	0000                	unimp
20001e6a:	ff00                	fsw	fs0,56(a4)
20001e6c:	0000                	unimp
20001e6e:	0000                	unimp
20001e70:	ff00                	fsw	fs0,56(a4)
	...
20001e82:	ff00                	fsw	fs0,56(a4)
	...
20001e90:	ffff                	0xffff
20001e92:	0000                	unimp
20001e94:	ff00                	fsw	fs0,56(a4)
20001e96:	0000                	unimp
20001e98:	ff00                	fsw	fs0,56(a4)
	...
20001ea2:	ffff                	0xffff
20001ea4:	00ff                	0xff
20001ea6:	0000                	unimp
20001ea8:	ff00                	fsw	fs0,56(a4)
20001eaa:	0000                	unimp
20001eac:	00ff                	0xff
20001eae:	0000                	unimp
20001eb0:	ff00                	fsw	fs0,56(a4)
20001eb2:	0000                	unimp
20001eb4:	0000                	unimp
20001eb6:	0000                	unimp
20001eb8:	ff00                	fsw	fs0,56(a4)
20001eba:	0000                	unimp
20001ebc:	00ff                	0xff
20001ebe:	0000                	unimp
20001ec0:	ff00                	fsw	fs0,56(a4)
20001ec2:	ffff                	0xffff
20001ec4:	00ff                	0xff
20001ec6:	0000                	unimp
20001ec8:	0000                	unimp
20001eca:	00ff                	0xff
20001ecc:	0000                	unimp
20001ece:	0000                	unimp
20001ed0:	ff00                	fsw	fs0,56(a4)
20001ed2:	0000                	unimp
20001ed4:	00ff                	0xff
20001ed6:	0000                	unimp
20001ed8:	ff00                	fsw	fs0,56(a4)
20001eda:	0000                	unimp
20001edc:	00ff                	0xff
20001ede:	0000                	unimp
20001ee0:	0000                	unimp
20001ee2:	00ff                	0xff
20001ee4:	0000                	unimp
20001ee6:	0000                	unimp
20001ee8:	0000                	unimp
20001eea:	ff00                	fsw	fs0,56(a4)
20001eec:	0000                	unimp
20001eee:	0000                	unimp
20001ef0:	ff00                	fsw	fs0,56(a4)
20001ef2:	00ff                	0xff
20001ef4:	0000                	unimp
20001ef6:	0000                	unimp
20001ef8:	0000                	unimp
20001efa:	00ff                	0xff
20001efc:	0000                	unimp
20001efe:	0000                	unimp
20001f00:	00ff                	0xff
20001f02:	00ff                	0xff
20001f04:	00ff                	0xff
20001f06:	0000                	unimp
20001f08:	ff00                	fsw	fs0,56(a4)
20001f0a:	0000                	unimp
20001f0c:	00ff                	0xff
20001f0e:	0000                	unimp
20001f10:	ff00                	fsw	fs0,56(a4)
20001f12:	0000                	unimp
20001f14:	00ff                	0xff
20001f16:	0000                	unimp
20001f18:	ff00                	fsw	fs0,56(a4)
20001f1a:	0000                	unimp
20001f1c:	00ff                	0xff
20001f1e:	0000                	unimp
20001f20:	ff00                	fsw	fs0,56(a4)
20001f22:	0000                	unimp
20001f24:	00ff                	0xff
20001f26:	0000                	unimp
20001f28:	ff00                	fsw	fs0,56(a4)
	...
20001f32:	ffff                	0xffff
20001f34:	0000                	unimp
20001f36:	0000                	unimp
20001f38:	0000                	unimp
20001f3a:	00ff                	0xff
20001f3c:	0000                	unimp
20001f3e:	0000                	unimp
20001f40:	ff00                	fsw	fs0,56(a4)
20001f42:	0000                	unimp
20001f44:	00ff                	0xff
20001f46:	0000                	unimp
20001f48:	ff00                	fsw	fs0,56(a4)
20001f4a:	ff00                	fsw	fs0,56(a4)
20001f4c:	0000                	unimp
20001f4e:	0000                	unimp
20001f50:	00ff                	0xff
20001f52:	00ff                	0xff
20001f54:	00ff                	0xff
20001f56:	0000                	unimp
20001f58:	0000                	unimp
20001f5a:	00ff                	0xff
20001f5c:	0000                	unimp
20001f5e:	0000                	unimp
20001f60:	ff00                	fsw	fs0,56(a4)
20001f62:	ff00                	fsw	fs0,56(a4)
20001f64:	0000                	unimp
20001f66:	0000                	unimp
20001f68:	0000                	unimp
20001f6a:	00ff                	0xff
20001f6c:	0000                	unimp
20001f6e:	0000                	unimp
20001f70:	0000                	unimp
20001f72:	00ff                	0xff
	...
20001f80:	0000                	unimp
20001f82:	00ff                	0xff
	...
20001f90:	ffff                	0xffff
20001f92:	0000                	unimp
20001f94:	ff00                	fsw	fs0,56(a4)
20001f96:	0000                	unimp
20001f98:	ff00                	fsw	fs0,56(a4)
20001f9a:	0000                	unimp
20001f9c:	00ff                	0xff
20001f9e:	0000                	unimp
20001fa0:	ff00                	fsw	fs0,56(a4)
20001fa2:	0000                	unimp
20001fa4:	00ff                	0xff
20001fa6:	0000                	unimp
20001fa8:	ff00                	fsw	fs0,56(a4)
20001faa:	0000                	unimp
20001fac:	00ff                	0xff
20001fae:	0000                	unimp
20001fb0:	ff00                	fsw	fs0,56(a4)
20001fb2:	0000                	unimp
20001fb4:	00ff                	0xff
20001fb6:	0000                	unimp
20001fb8:	ff00                	fsw	fs0,56(a4)
20001fba:	0000                	unimp
20001fbc:	00ff                	0xff
20001fbe:	0000                	unimp
20001fc0:	ff00                	fsw	fs0,56(a4)
	...
20001fca:	00ff                	0xff
20001fcc:	0000                	unimp
20001fce:	0000                	unimp
20001fd0:	0000                	unimp
20001fd2:	ffff                	0xffff
20001fd4:	00ff                	0xff
20001fd6:	0000                	unimp
20001fd8:	ff00                	fsw	fs0,56(a4)
20001fda:	0000                	unimp
20001fdc:	00ff                	0xff
20001fde:	0000                	unimp
20001fe0:	0000                	unimp
20001fe2:	00ff                	0xff
20001fe4:	0000                	unimp
20001fe6:	0000                	unimp
20001fe8:	0000                	unimp
20001fea:	ff00                	fsw	fs0,56(a4)
20001fec:	0000                	unimp
20001fee:	0000                	unimp
20001ff0:	ff00                	fsw	fs0,56(a4)
20001ff2:	ff00                	fsw	fs0,56(a4)
20001ff4:	0000                	unimp
20001ff6:	0000                	unimp
20001ff8:	0000                	unimp
20001ffa:	00ff                	0xff
20001ffc:	0000                	unimp
20001ffe:	0000                	unimp
20002000:	00ff                	0xff
20002002:	00ff                	0xff
20002004:	00ff                	0xff
20002006:	0000                	unimp
20002008:	ff00                	fsw	fs0,56(a4)
2000200a:	0000                	unimp
2000200c:	00ff                	0xff
2000200e:	0000                	unimp
20002010:	ff00                	fsw	fs0,56(a4)
20002012:	0000                	unimp
20002014:	00ff                	0xff
20002016:	0000                	unimp
20002018:	ff00                	fsw	fs0,56(a4)
2000201a:	ffff                	0xffff
2000201c:	0000                	unimp
2000201e:	0000                	unimp
20002020:	0000                	unimp
20002022:	ffff                	0xffff
20002024:	00ff                	0xff
20002026:	0000                	unimp
20002028:	ff00                	fsw	fs0,56(a4)
	...
20002032:	0000                	unimp
20002034:	00ff                	0xff
20002036:	0000                	unimp
20002038:	0000                	unimp
2000203a:	00ff                	0xff
2000203c:	0000                	unimp
2000203e:	0000                	unimp
20002040:	ff00                	fsw	fs0,56(a4)
20002042:	0000                	unimp
20002044:	00ff                	0xff
20002046:	0000                	unimp
20002048:	0000                	unimp
2000204a:	00ff                	0xff
2000204c:	0000                	unimp
2000204e:	0000                	unimp
20002050:	ff00                	fsw	fs0,56(a4)
20002052:	ff00                	fsw	fs0,56(a4)
20002054:	0000                	unimp
20002056:	0000                	unimp
20002058:	ff00                	fsw	fs0,56(a4)
2000205a:	ff00                	fsw	fs0,56(a4)
2000205c:	0000                	unimp
2000205e:	0000                	unimp
20002060:	0000                	unimp
20002062:	00ff                	0xff
20002064:	0000                	unimp
20002066:	0000                	unimp
20002068:	ff00                	fsw	fs0,56(a4)
	...
20002072:	00ff                	0xff
20002074:	0000                	unimp
20002076:	0000                	unimp
20002078:	0000                	unimp
2000207a:	00ff                	0xff
2000207c:	0000                	unimp
2000207e:	0000                	unimp
20002080:	0000                	unimp
20002082:	00ff                	0xff
	...
20002090:	00ff                	0xff
20002092:	ffff                	0xffff
20002094:	ff00                	fsw	fs0,56(a4)
20002096:	0000                	unimp
20002098:	ffff                	0xffff
2000209a:	ffff                	0xffff
2000209c:	0000                	unimp
2000209e:	0000                	unimp
200020a0:	0000                	unimp
200020a2:	ffff                	0xffff
200020a4:	00ff                	0xff
200020a6:	0000                	unimp
200020a8:	ff00                	fsw	fs0,56(a4)
200020aa:	ffff                	0xffff
200020ac:	0000                	unimp
200020ae:	0000                	unimp
200020b0:	0000                	unimp
200020b2:	ffff                	0xffff
200020b4:	0000                	unimp
200020b6:	0000                	unimp
200020b8:	0000                	unimp
200020ba:	ffff                	0xffff
200020bc:	00ff                	0xff
200020be:	0000                	unimp
200020c0:	0000                	unimp
200020c2:	ffff                	0xffff
200020c4:	0000                	unimp
200020c6:	0000                	unimp
200020c8:	0000                	unimp
200020ca:	00ff                	0xff
	...
200020d4:	00ff                	0xff
200020d6:	0000                	unimp
200020d8:	ff00                	fsw	fs0,56(a4)
200020da:	0000                	unimp
200020dc:	00ff                	0xff
200020de:	0000                	unimp
200020e0:	0000                	unimp
200020e2:	00ff                	0xff
200020e4:	0000                	unimp
200020e6:	0000                	unimp
200020e8:	0000                	unimp
200020ea:	ff00                	fsw	fs0,56(a4)
200020ec:	0000                	unimp
200020ee:	0000                	unimp
200020f0:	ff00                	fsw	fs0,56(a4)
200020f2:	0000                	unimp
200020f4:	00ff                	0xff
200020f6:	0000                	unimp
200020f8:	0000                	unimp
200020fa:	ff00                	fsw	fs0,56(a4)
200020fc:	0000                	unimp
200020fe:	0000                	unimp
20002100:	00ff                	0xff
20002102:	00ff                	0xff
20002104:	00ff                	0xff
20002106:	0000                	unimp
20002108:	ff00                	fsw	fs0,56(a4)
2000210a:	0000                	unimp
2000210c:	00ff                	0xff
2000210e:	0000                	unimp
20002110:	0000                	unimp
20002112:	ffff                	0xffff
20002114:	0000                	unimp
20002116:	0000                	unimp
20002118:	ff00                	fsw	fs0,56(a4)
	...
20002122:	0000                	unimp
20002124:	00ff                	0xff
20002126:	0000                	unimp
20002128:	ff00                	fsw	fs0,56(a4)
2000212a:	0000                	unimp
2000212c:	0000                	unimp
2000212e:	0000                	unimp
20002130:	ff00                	fsw	fs0,56(a4)
20002132:	ffff                	0xffff
20002134:	0000                	unimp
20002136:	0000                	unimp
20002138:	0000                	unimp
2000213a:	ff00                	fsw	fs0,56(a4)
2000213c:	0000                	unimp
2000213e:	0000                	unimp
20002140:	0000                	unimp
20002142:	ffff                	0xffff
20002144:	0000                	unimp
20002146:	0000                	unimp
20002148:	0000                	unimp
2000214a:	00ff                	0xff
2000214c:	0000                	unimp
2000214e:	0000                	unimp
20002150:	ff00                	fsw	fs0,56(a4)
20002152:	ff00                	fsw	fs0,56(a4)
20002154:	0000                	unimp
20002156:	0000                	unimp
20002158:	00ff                	0xff
2000215a:	0000                	unimp
2000215c:	00ff                	0xff
2000215e:	0000                	unimp
20002160:	0000                	unimp
20002162:	00ff                	0xff
20002164:	0000                	unimp
20002166:	0000                	unimp
20002168:	ff00                	fsw	fs0,56(a4)
2000216a:	ffff                	0xffff
2000216c:	00ff                	0xff
2000216e:	0000                	unimp
20002170:	0000                	unimp
20002172:	00ff                	0xff
20002174:	0000                	unimp
20002176:	0000                	unimp
20002178:	0000                	unimp
2000217a:	00ff                	0xff
2000217c:	0000                	unimp
2000217e:	0000                	unimp
20002180:	0000                	unimp
20002182:	00ff                	0xff
	...
20002190:	ff00                	fsw	fs0,56(a4)
20002192:	0000                	unimp
20002194:	00ff                	0xff
	...
200021d2:	ffff                	0xffff
	...
200021e8:	ff00                	fsw	fs0,56(a4)
200021ea:	00ff                	0xff
	...
20002218:	ff00                	fsw	fs0,56(a4)
	...
20002222:	0000                	unimp
20002224:	00ff                	0xff
	...
2000225e:	0000                	unimp
20002260:	ffff                	0xffff
	...
20002272:	ff00                	fsw	fs0,56(a4)
20002274:	0000                	unimp
20002276:	0000                	unimp
20002278:	0000                	unimp
2000227a:	00ff                	0xff
2000227c:	0000                	unimp
2000227e:	0000                	unimp
20002280:	ff00                	fsw	fs0,56(a4)
	...
20002292:	ffff                	0xffff
20002294:	0000                	unimp
20002296:	0000                	unimp
20002298:	5845                	li	a6,-15
2000229a:	54504543          	0x54504543
2000229e:	4f49                	li	t5,18
200022a0:	3a4e                	fld	fs4,240(sp)
200022a2:	6920                	flw	fs0,80(a0)
200022a4:	6c6c                	flw	fa1,92(s0)
200022a6:	6765                	lui	a4,0x19
200022a8:	6c61                	lui	s8,0x18
200022aa:	6920                	flw	fs0,80(a0)
200022ac:	736e                	flw	ft6,248(sp)
200022ae:	7274                	flw	fa3,100(a2)
200022b0:	6375                	lui	t1,0x1d
200022b2:	6974                	flw	fa3,84(a0)
200022b4:	00206e6f          	jal	t3,200082b6 <__global_pointer$+0x5166>
200022b8:	6120                	flw	fs0,64(a0)
200022ba:	2074                	fld	fa3,192(s0)
200022bc:	0000                	unimp
200022be:	0000                	unimp
200022c0:	000a                	c.slli	zero,0x2
200022c2:	0000                	unimp
200022c4:	4c20371b          	0x4c20371b
200022c8:	6964616f          	jal	sp,2004895e <__global_pointer$+0x4580e>
200022cc:	676e                	flw	fa4,216(sp)
200022ce:	5b20                	lw	s0,112(a4)
200022d0:	0000                	unimp
200022d2:	0000                	unimp
200022d4:	205d                	jal	2000237a <__init_array_end+0x2a>
200022d6:	0000381b          	0x381b
200022da:	0000                	unimp
200022dc:	003a                	c.slli	zero,0xe
200022de:	0000                	unimp
200022e0:	0020                	addi	s0,sp,8
200022e2:	0000                	unimp
200022e4:	530a                	lw	t1,160(sp)
200022e6:	6174                	flw	fa3,68(a0)
200022e8:	7472                	flw	fs0,60(sp)
200022ea:	6e69                	lui	t3,0x1a
200022ec:	30402067          	0x30402067
200022f0:	0078                	addi	a4,sp,12
200022f2:	0000                	unimp
200022f4:	4a325b1b          	0x4a325b1b
200022f8:	4e0a                	lw	t3,128(sp)
200022fa:	6b65                	lui	s6,0x19
200022fc:	20694e6f          	jal	t3,20096502 <__global_pointer$+0x933b2>
20002300:	3030765b          	0x3030765b
20002304:	5d32                	lw	s10,44(sp)
20002306:	5b20                	lw	s0,112(a4)
20002308:	5652                	lw	a2,52(sp)
2000230a:	5a493233          	0x5a493233
2000230e:	6369                	lui	t1,0x1a
20002310:	2b5d7273          	csrrci	tp,0x2b5,26
20002314:	5550475b          	0x5550475b
20002318:	0a5d                	addi	s4,s4,23
2000231a:	a9c2                	fsd	fa6,208(sp)
2000231c:	3220                	fld	fs0,96(a2)
2000231e:	3230                	fld	fa2,96(a2)
20002320:	2031                	jal	2000232c <_GLOBAL__sub_I_gpu.cpp+0x18b0>
20002322:	6e45                	lui	t3,0x11
20002324:	206e6967          	0x206e6967
20002328:	616c6943          	fmadd.s	fs2,fs8,fs6,fa2,unknown
2000232c:	0a6e7573          	csrrci	a0,0xa6,28
20002330:	0000                	unimp
20002332:	0000                	unimp
20002334:	3130                	fld	fa2,96(a0)
20002336:	3332                	fld	ft6,296(sp)
20002338:	3534                	fld	fa3,104(a0)
2000233a:	3736                	fld	fa4,360(sp)
2000233c:	3938                	fld	fa4,112(a0)
2000233e:	4241                	li	tp,16
20002340:	46454443          	fmadd.q	fs0,fa0,ft4,fs0,rmm
	...

Disassembly of section .srodata:

20002348 <_global_impure_ptr>:
20002348:	24d8                	fld	fa4,136(s1)
2000234a:	2000                	fld	fs0,0(s0)

Disassembly of section .init_array:

2000234c <__init_array_start>:
2000234c:	0a7c                	addi	a5,sp,284
2000234e:	2000                	fld	fs0,0(s0)

Disassembly of section .eh_frame:

20002350 <.eh_frame>:
20002350:	0010                	0x10
20002352:	0000                	unimp
20002354:	0000                	unimp
20002356:	0000                	unimp
20002358:	00527a03          	0x527a03
2000235c:	7c01                	lui	s8,0xfffe0
2000235e:	0101                	addi	sp,sp,0
20002360:	00020d1b          	0x20d1b
20002364:	0038                	addi	a4,sp,8
20002366:	0000                	unimp
20002368:	0018                	0x18
2000236a:	0000                	unimp
2000236c:	e158                	fsw	fa4,4(a0)
2000236e:	ffff                	0xffff
20002370:	008c                	addi	a1,sp,64
20002372:	0000                	unimp
20002374:	4400                	lw	s0,8(s0)
20002376:	500e                	0x500e
20002378:	4802                	lw	a6,0(sp)
2000237a:	0181                	addi	gp,gp,0
2000237c:	0285                	addi	t0,t0,1
2000237e:	0386                	slli	t2,t2,0x1
20002380:	05880487          	0x5880487
20002384:	0689                	addi	a3,a3,2
20002386:	078a                	slli	a5,a5,0x2
20002388:	098c088b          	0x98c088b
2000238c:	0a8d                	addi	s5,s5,3
2000238e:	0b8e                	slli	s7,s7,0x3
20002390:	0d900c8f          	0xd900c8f
20002394:	0e91                	addi	t4,t4,4
20002396:	0f9c                	addi	a5,sp,976
20002398:	109d                	addi	ra,ra,-25
2000239a:	119e                	slli	gp,gp,0x27
2000239c:	129f 0000 0010      	0x100000129f
200023a2:	0000                	unimp
200023a4:	0054                	addi	a3,sp,4
200023a6:	0000                	unimp
200023a8:	dc58                	sw	a4,60(s0)
200023aa:	ffff                	0xffff
200023ac:	0064                	addi	s1,sp,12
200023ae:	0000                	unimp
200023b0:	0000                	unimp
200023b2:	0000                	unimp
200023b4:	0010                	0x10
200023b6:	0000                	unimp
200023b8:	0068                	addi	a0,sp,12
200023ba:	0000                	unimp
200023bc:	dca8                	sw	a0,120(s1)
200023be:	ffff                	0xffff
	...
200023c8:	0010                	0x10
200023ca:	0000                	unimp
200023cc:	007c                	addi	a5,sp,12
200023ce:	0000                	unimp
200023d0:	e180                	fsw	fs0,0(a1)
200023d2:	ffff                	0xffff
200023d4:	0020                	addi	s0,sp,8
200023d6:	0000                	unimp
200023d8:	0000                	unimp
200023da:	0000                	unimp
200023dc:	004c                	addi	a1,sp,4
200023de:	0000                	unimp
200023e0:	0090                	addi	a2,sp,64
200023e2:	0000                	unimp
200023e4:	e18c                	fsw	fa1,0(a1)
200023e6:	ffff                	0xffff
200023e8:	01d0                	addi	a2,sp,196
200023ea:	0000                	unimp
200023ec:	4400                	lw	s0,8(s0)
200023ee:	600e                	flw	ft0,192(sp)
200023f0:	9548                	0x9548
200023f2:	02089607          	0x2089607
200023f6:	814c                	0x814c
200023f8:	8801                	andi	s0,s0,0
200023fa:	8902                	jr	s2
200023fc:	93049203          	lh	tp,-1744(s1)
20002400:	9405                	srai	s0,s0,0x21
20002402:	9706                	add	a4,a4,ra
20002404:	9809                	andi	s0,s0,-30
20002406:	990a                	add	s2,s2,sp
20002408:	9b0c9a0b          	0x9b0c9a0b
2000240c:	030d                	addi	t1,t1,3
2000240e:	0138                	addi	a4,sp,136
20002410:	44c8                	lw	a0,12(s1)
20002412:	44c1                	li	s1,16
20002414:	44c9                	li	s1,18
20002416:	44d2                	lw	s1,20(sp)
20002418:	44d444d3          	0x44d444d3
2000241c:	44d5                	li	s1,21
2000241e:	44d6                	lw	s1,84(sp)
20002420:	44d844d7          	0x44d844d7
20002424:	44d9                	li	s1,22
20002426:	44da                	lw	s1,148(sp)
20002428:	000e4cdb          	0xe4cdb
2000242c:	001c                	0x1c
2000242e:	0000                	unimp
20002430:	00e0                	addi	s0,sp,76
20002432:	0000                	unimp
20002434:	e30c                	fsw	fa1,0(a4)
20002436:	ffff                	0xffff
20002438:	00fc                	addi	a5,sp,76
2000243a:	0000                	unimp
2000243c:	4c00                	lw	s0,24(s0)
2000243e:	300e                	fld	ft0,224(sp)
20002440:	8158                	0x8158
20002442:	0201                	addi	tp,tp,0
20002444:	c1d0                	sw	a2,4(a1)
20002446:	0e44                	addi	s1,sp,788
20002448:	0000                	unimp
2000244a:	0000                	unimp
2000244c:	0020                	addi	s0,sp,8
2000244e:	0000                	unimp
20002450:	0100                	addi	s0,sp,128
20002452:	0000                	unimp
20002454:	e3e8                	fsw	fa0,68(a5)
20002456:	ffff                	0xffff
20002458:	00a4                	addi	s1,sp,72
2000245a:	0000                	unimp
2000245c:	4400                	lw	s0,8(s0)
2000245e:	200e                	fld	ft0,192(sp)
20002460:	815c                	0x815c
20002462:	8901                	andi	a0,a0,0
20002464:	93049203          	lh	tp,-1744(s1)
20002468:	9405                	srai	s0,s0,0x21
2000246a:	9506                	add	a0,a0,ra
2000246c:	00028807          	0x28807
20002470:	0010                	0x10
20002472:	0000                	unimp
20002474:	0124                	addi	s1,sp,136
20002476:	0000                	unimp
20002478:	e468                	fsw	fa0,76(s0)
2000247a:	ffff                	0xffff
2000247c:	002c                	addi	a1,sp,8
2000247e:	0000                	unimp
20002480:	0000                	unimp
20002482:	0000                	unimp
20002484:	001c                	0x1c
20002486:	0000                	unimp
20002488:	0138                	addi	a4,sp,136
2000248a:	0000                	unimp
2000248c:	e480                	fsw	fs0,8(s1)
2000248e:	ffff                	0xffff
20002490:	013c                	addi	a5,sp,136
20002492:	0000                	unimp
20002494:	5c00                	lw	s0,56(s0)
20002496:	300e                	fld	ft0,224(sp)
20002498:	8168                	0x8168
2000249a:	0201                	addi	tp,tp,0
2000249c:	c1f0                	sw	a2,68(a1)
2000249e:	0e44                	addi	s1,sp,788
200024a0:	0000                	unimp
200024a2:	0000                	unimp
200024a4:	0018                	0x18
200024a6:	0000                	unimp
200024a8:	0158                	addi	a4,sp,132
200024aa:	0000                	unimp
200024ac:	e59c                	fsw	fa5,8(a1)
200024ae:	ffff                	0xffff
200024b0:	0034                	addi	a3,sp,8
200024b2:	0000                	unimp
200024b4:	5400                	lw	s0,40(s0)
200024b6:	100e                	c.slli	zero,0x23
200024b8:	8150                	0x8150
200024ba:	4801                	li	a6,0
200024bc:	44c1                	li	s1,16
200024be:	000e                	c.slli	zero,0x3
200024c0:	0010                	0x10
200024c2:	0000                	unimp
200024c4:	0174                	addi	a3,sp,140
200024c6:	0000                	unimp
200024c8:	e5b4                	fsw	fa3,72(a1)
200024ca:	ffff                	0xffff
200024cc:	001c                	0x1c
200024ce:	0000                	unimp
200024d0:	0000                	unimp
	...

Disassembly of section .data:

200024d8 <impure_data>:
200024d8:	0000                	unimp
200024da:	0000                	unimp
200024dc:	27c4                	fld	fs1,136(a5)
200024de:	2000                	fld	fs0,0(s0)

200024e0 <_fdata>:
200024e0:	282c                	fld	fa1,80(s0)
200024e2:	2000                	fld	fs0,0(s0)
200024e4:	2894                	fld	fa3,16(s1)
200024e6:	2000                	fld	fs0,0(s0)
	...
20002580:	0001                	nop
20002582:	0000                	unimp
20002584:	0000                	unimp
20002586:	0000                	unimp
20002588:	330e                	fld	ft6,224(sp)
2000258a:	abcd                	j	20002b7c <__BSS_END__$+0x224>
2000258c:	1234                	addi	a3,sp,296
2000258e:	e66d                	bnez	a2,20002678 <_fdata+0x198>
20002590:	deec                	sw	a1,124(a3)
20002592:	0005                	c.nop	1
20002594:	0000000b          	0xb
	...

20002900 <IO_UARTRX>:
20002900:	0008                	0x8
20002902:	8000                	0x8000

20002904 <IO_UARTRXByteCount>:
20002904:	0004                	0x4
20002906:	8000                	0x8000

20002908 <IO_UARTTX>:
20002908:	000c                	0xc
2000290a:	8000                	0x8000

2000290c <GraphicsFontStart>:
2000290c:	e800                	fsw	fs0,16(s0)
2000290e:	1001                	c.nop	-32

Disassembly of section .got:

20002910 <_GLOBAL_OFFSET_TABLE_>:
20002910:	0000                	unimp
20002912:	0000                	unimp
20002914:	3150                	fld	fa2,160(a0)
20002916:	2000                	fld	fs0,0(s0)
20002918:	290c                	fld	fa1,16(a0)
2000291a:	2000                	fld	fs0,0(s0)
2000291c:	04c4                	addi	s1,sp,580
2000291e:	2000                	fld	fs0,0(s0)
20002920:	2900                	fld	fs0,16(a0)
20002922:	2000                	fld	fs0,0(s0)
20002924:	2954                	fld	fa3,144(a0)
20002926:	2000                	fld	fs0,0(s0)
20002928:	0078                	addi	a4,sp,12
2000292a:	2000                	fld	fs0,0(s0)
2000292c:	2948                	fld	fa0,144(a0)
2000292e:	2000                	fld	fs0,0(s0)
20002930:	0064                	addi	s1,sp,12
20002932:	2000                	fld	fs0,0(s0)
20002934:	2908                	fld	fa0,16(a0)
20002936:	2000                	fld	fs0,0(s0)
20002938:	2904                	fld	fs1,16(a0)
2000293a:	2000                	fld	fs0,0(s0)
2000293c:	2958                	fld	fa4,144(a0)
2000293e:	2000                	fld	fs0,0(s0)

Disassembly of section .got.plt:

20002940 <.got.plt>:
20002940:	ffff                	0xffff
20002942:	ffff                	0xffff
20002944:	0000                	unimp
	...

Disassembly of section .sbss:

20002948 <__malloc_max_total_mem>:
20002948:	0000                	unimp
	...

2000294c <__malloc_max_sbrked_mem>:
2000294c:	0000                	unimp
	...

20002950 <__malloc_top_pad>:
20002950:	0000                	unimp
	...

Disassembly of section .bss:

20002954 <font>:
20002954:	0000                	unimp
	...

Disassembly of section .comment:

00000000 <.comment>:
   0:	3a434347          	fmsub.d	ft6,ft6,ft4,ft7,rmm
   4:	2820                	fld	fs0,80(s0)
   6:	29554e47          	fmsub.s	ft8,fa0,fs5,ft5,rmm
   a:	3120                	fld	fs0,96(a0)
   c:	2e30                	fld	fa2,88(a2)
   e:	2e32                	fld	ft8,264(sp)
  10:	0030                	addi	a2,sp,8

Disassembly of section .riscv.attributes:

00000000 <.riscv.attributes>:
   0:	1f41                	addi	t5,t5,-16
   2:	0000                	unimp
   4:	7200                	flw	fs0,32(a2)
   6:	7369                	lui	t1,0xffffa
   8:	01007663          	bgeu	zero,a6,14 <_STACK_SIZE-0x9ec>
   c:	0015                	c.nop	5
   e:	0000                	unimp
  10:	1004                	addi	s1,sp,32
  12:	7205                	lui	tp,0xfffe1
  14:	3376                	fld	ft6,376(sp)
  16:	6932                	flw	fs2,12(sp)
  18:	7032                	flw	ft0,44(sp)
  1a:	0030                	addi	a2,sp,8
  1c:	0108                	addi	a0,sp,128
  1e:	0b0a                	slli	s6,s6,0x2
