
gpupipetest.elf:     file format elf32-littleriscv


Disassembly of section .boot:

00002000 <_start>:
    2000:	00006197          	auipc	gp,0x6
    2004:	1d81a183          	lw	gp,472(gp) # 81d8 <_GLOBAL_OFFSET_TABLE_+0x4>
    2008:	00006517          	auipc	a0,0x6
    200c:	1dc52503          	lw	a0,476(a0) # 81e4 <_GLOBAL_OFFSET_TABLE_+0x10>
    2010:	00006617          	auipc	a2,0x6
    2014:	1dc62603          	lw	a2,476(a2) # 81ec <_GLOBAL_OFFSET_TABLE_+0x18>
    2018:	40a60633          	sub	a2,a2,a0
    201c:	00000593          	li	a1,0
    2020:	160000ef          	jal	ra,2180 <memset>
    2024:	00006517          	auipc	a0,0x6
    2028:	1c452503          	lw	a0,452(a0) # 81e8 <_GLOBAL_OFFSET_TABLE_+0x14>
    202c:	00050a63          	beqz	a0,2040 <noatexitfound>
    2030:	00001517          	auipc	a0,0x1
    2034:	00006517          	auipc	a0,0x6
    2038:	1ac52503          	lw	a0,428(a0) # 81e0 <_GLOBAL_OFFSET_TABLE_+0xc>
    203c:	038000ef          	jal	ra,2074 <_boot>

00002040 <noatexitfound>:
    2040:	0a4000ef          	jal	ra,20e4 <__libc_init_array>
    2044:	00012503          	lw	a0,0(sp)
    2048:	00410593          	addi	a1,sp,4
    204c:	00000613          	li	a2,0
    2050:	7a00106f          	j	37f0 <main>

00002054 <_exit>:
    2054:	00000593          	li	a1,0
    2058:	00000613          	li	a2,0
    205c:	00000693          	li	a3,0
    2060:	00000713          	li	a4,0
    2064:	00000793          	li	a5,0
    2068:	05d00893          	li	a7,93
    206c:	00000073          	ecall
    2070:	fe5ff06f          	j	2054 <_exit>

Disassembly of section .text:

00002074 <atexit>:
    2074:	00050593          	mv	a1,a0
    2078:	00000693          	li	a3,0
    207c:	00000613          	li	a2,0
    2080:	00000513          	li	a0,0
    2084:	1d80006f          	j	225c <__register_exitproc>

00002088 <__libc_fini_array>:
    2088:	ff010113          	addi	sp,sp,-16
    208c:	00812423          	sw	s0,8(sp)
    2090:	000077b7          	lui	a5,0x7
    2094:	00007437          	lui	s0,0x7
    2098:	ab040413          	addi	s0,s0,-1360 # 6ab0 <_global_impure_ptr>
    209c:	ab078793          	addi	a5,a5,-1360 # 6ab0 <_global_impure_ptr>
    20a0:	408787b3          	sub	a5,a5,s0
    20a4:	00912223          	sw	s1,4(sp)
    20a8:	00112623          	sw	ra,12(sp)
    20ac:	4027d493          	srai	s1,a5,0x2
    20b0:	02048063          	beqz	s1,20d0 <__libc_fini_array+0x48>
    20b4:	ffc78793          	addi	a5,a5,-4
    20b8:	00878433          	add	s0,a5,s0
    20bc:	00042783          	lw	a5,0(s0)
    20c0:	fff48493          	addi	s1,s1,-1
    20c4:	ffc40413          	addi	s0,s0,-4
    20c8:	000780e7          	jalr	a5
    20cc:	fe0498e3          	bnez	s1,20bc <__libc_fini_array+0x34>
    20d0:	00c12083          	lw	ra,12(sp)
    20d4:	00812403          	lw	s0,8(sp)
    20d8:	00412483          	lw	s1,4(sp)
    20dc:	01010113          	addi	sp,sp,16
    20e0:	00008067          	ret

000020e4 <__libc_init_array>:
    20e4:	ff010113          	addi	sp,sp,-16
    20e8:	00812423          	sw	s0,8(sp)
    20ec:	01212023          	sw	s2,0(sp)
    20f0:	00007437          	lui	s0,0x7
    20f4:	00007937          	lui	s2,0x7
    20f8:	ab040793          	addi	a5,s0,-1360 # 6ab0 <_global_impure_ptr>
    20fc:	ab090913          	addi	s2,s2,-1360 # 6ab0 <_global_impure_ptr>
    2100:	40f90933          	sub	s2,s2,a5
    2104:	00112623          	sw	ra,12(sp)
    2108:	00912223          	sw	s1,4(sp)
    210c:	40295913          	srai	s2,s2,0x2
    2110:	02090063          	beqz	s2,2130 <__libc_init_array+0x4c>
    2114:	ab040413          	addi	s0,s0,-1360
    2118:	00000493          	li	s1,0
    211c:	00042783          	lw	a5,0(s0)
    2120:	00148493          	addi	s1,s1,1
    2124:	00440413          	addi	s0,s0,4
    2128:	000780e7          	jalr	a5
    212c:	fe9918e3          	bne	s2,s1,211c <__libc_init_array+0x38>
    2130:	00007437          	lui	s0,0x7
    2134:	00007937          	lui	s2,0x7
    2138:	ab040793          	addi	a5,s0,-1360 # 6ab0 <_global_impure_ptr>
    213c:	ab090913          	addi	s2,s2,-1360 # 6ab0 <_global_impure_ptr>
    2140:	40f90933          	sub	s2,s2,a5
    2144:	40295913          	srai	s2,s2,0x2
    2148:	02090063          	beqz	s2,2168 <__libc_init_array+0x84>
    214c:	ab040413          	addi	s0,s0,-1360
    2150:	00000493          	li	s1,0
    2154:	00042783          	lw	a5,0(s0)
    2158:	00148493          	addi	s1,s1,1
    215c:	00440413          	addi	s0,s0,4
    2160:	000780e7          	jalr	a5
    2164:	fe9918e3          	bne	s2,s1,2154 <__libc_init_array+0x70>
    2168:	00c12083          	lw	ra,12(sp)
    216c:	00812403          	lw	s0,8(sp)
    2170:	00412483          	lw	s1,4(sp)
    2174:	00012903          	lw	s2,0(sp)
    2178:	01010113          	addi	sp,sp,16
    217c:	00008067          	ret

00002180 <memset>:
    2180:	00f00313          	li	t1,15
    2184:	00050713          	mv	a4,a0
    2188:	02c37e63          	bgeu	t1,a2,21c4 <memset+0x44>
    218c:	00f77793          	andi	a5,a4,15
    2190:	0a079063          	bnez	a5,2230 <memset+0xb0>
    2194:	08059263          	bnez	a1,2218 <memset+0x98>
    2198:	ff067693          	andi	a3,a2,-16
    219c:	00f67613          	andi	a2,a2,15
    21a0:	00e686b3          	add	a3,a3,a4
    21a4:	00b72023          	sw	a1,0(a4)
    21a8:	00b72223          	sw	a1,4(a4)
    21ac:	00b72423          	sw	a1,8(a4)
    21b0:	00b72623          	sw	a1,12(a4)
    21b4:	01070713          	addi	a4,a4,16
    21b8:	fed766e3          	bltu	a4,a3,21a4 <memset+0x24>
    21bc:	00061463          	bnez	a2,21c4 <memset+0x44>
    21c0:	00008067          	ret
    21c4:	40c306b3          	sub	a3,t1,a2
    21c8:	00269693          	slli	a3,a3,0x2
    21cc:	00000297          	auipc	t0,0x0
    21d0:	005686b3          	add	a3,a3,t0
    21d4:	00c68067          	jr	12(a3)
    21d8:	00b70723          	sb	a1,14(a4)
    21dc:	00b706a3          	sb	a1,13(a4)
    21e0:	00b70623          	sb	a1,12(a4)
    21e4:	00b705a3          	sb	a1,11(a4)
    21e8:	00b70523          	sb	a1,10(a4)
    21ec:	00b704a3          	sb	a1,9(a4)
    21f0:	00b70423          	sb	a1,8(a4)
    21f4:	00b703a3          	sb	a1,7(a4)
    21f8:	00b70323          	sb	a1,6(a4)
    21fc:	00b702a3          	sb	a1,5(a4)
    2200:	00b70223          	sb	a1,4(a4)
    2204:	00b701a3          	sb	a1,3(a4)
    2208:	00b70123          	sb	a1,2(a4)
    220c:	00b700a3          	sb	a1,1(a4)
    2210:	00b70023          	sb	a1,0(a4)
    2214:	00008067          	ret
    2218:	0ff5f593          	andi	a1,a1,255
    221c:	00859693          	slli	a3,a1,0x8
    2220:	00d5e5b3          	or	a1,a1,a3
    2224:	01059693          	slli	a3,a1,0x10
    2228:	00d5e5b3          	or	a1,a1,a3
    222c:	f6dff06f          	j	2198 <memset+0x18>
    2230:	00279693          	slli	a3,a5,0x2
    2234:	00000297          	auipc	t0,0x0
    2238:	005686b3          	add	a3,a3,t0
    223c:	00008293          	mv	t0,ra
    2240:	fa0680e7          	jalr	-96(a3)
    2244:	00028093          	mv	ra,t0
    2248:	ff078793          	addi	a5,a5,-16
    224c:	40f70733          	sub	a4,a4,a5
    2250:	00f60633          	add	a2,a2,a5
    2254:	f6c378e3          	bgeu	t1,a2,21c4 <memset+0x44>
    2258:	f3dff06f          	j	2194 <memset+0x14>

0000225c <__register_exitproc>:
    225c:	000077b7          	lui	a5,0x7
    2260:	ab07a703          	lw	a4,-1360(a5) # 6ab0 <_global_impure_ptr>
    2264:	14872783          	lw	a5,328(a4)
    2268:	04078c63          	beqz	a5,22c0 <__register_exitproc+0x64>
    226c:	0047a703          	lw	a4,4(a5)
    2270:	01f00813          	li	a6,31
    2274:	06e84e63          	blt	a6,a4,22f0 <__register_exitproc+0x94>
    2278:	00271813          	slli	a6,a4,0x2
    227c:	02050663          	beqz	a0,22a8 <__register_exitproc+0x4c>
    2280:	01078333          	add	t1,a5,a6
    2284:	08c32423          	sw	a2,136(t1)
    2288:	1887a883          	lw	a7,392(a5)
    228c:	00100613          	li	a2,1
    2290:	00e61633          	sll	a2,a2,a4
    2294:	00c8e8b3          	or	a7,a7,a2
    2298:	1917a423          	sw	a7,392(a5)
    229c:	10d32423          	sw	a3,264(t1)
    22a0:	00200693          	li	a3,2
    22a4:	02d50463          	beq	a0,a3,22cc <__register_exitproc+0x70>
    22a8:	00170713          	addi	a4,a4,1
    22ac:	00e7a223          	sw	a4,4(a5)
    22b0:	010787b3          	add	a5,a5,a6
    22b4:	00b7a423          	sw	a1,8(a5)
    22b8:	00000513          	li	a0,0
    22bc:	00008067          	ret
    22c0:	14c70793          	addi	a5,a4,332
    22c4:	14f72423          	sw	a5,328(a4)
    22c8:	fa5ff06f          	j	226c <__register_exitproc+0x10>
    22cc:	18c7a683          	lw	a3,396(a5)
    22d0:	00170713          	addi	a4,a4,1
    22d4:	00e7a223          	sw	a4,4(a5)
    22d8:	00c6e633          	or	a2,a3,a2
    22dc:	18c7a623          	sw	a2,396(a5)
    22e0:	010787b3          	add	a5,a5,a6
    22e4:	00b7a423          	sw	a1,8(a5)
    22e8:	00000513          	li	a0,0
    22ec:	00008067          	ret
    22f0:	fff00513          	li	a0,-1
    22f4:	00008067          	ret

000022f8 <cosf>:
    22f8:	e00507d3          	fmv.x.w	a5,fa0
    22fc:	3f4916b7          	lui	a3,0x3f491
    2300:	fd868693          	addi	a3,a3,-40 # 3f490fd8 <__stack+0x3f487d48>
    2304:	00179713          	slli	a4,a5,0x1
    2308:	00175713          	srli	a4,a4,0x1
    230c:	04e6dc63          	bge	a3,a4,2364 <cosf+0x6c>
    2310:	7f8006b7          	lui	a3,0x7f800
    2314:	00d74663          	blt	a4,a3,2320 <cosf+0x28>
    2318:	08a57553          	fsub.s	fa0,fa0,fa0
    231c:	00008067          	ret
    2320:	fe010113          	addi	sp,sp,-32
    2324:	00810513          	addi	a0,sp,8
    2328:	00112e23          	sw	ra,28(sp)
    232c:	110000ef          	jal	ra,243c <__ieee754_rem_pio2f>
    2330:	00357513          	andi	a0,a0,3
    2334:	00100793          	li	a5,1
    2338:	02f50a63          	beq	a0,a5,236c <cosf+0x74>
    233c:	00200793          	li	a5,2
    2340:	00c12587          	flw	fa1,12(sp)
    2344:	00812507          	flw	fa0,8(sp)
    2348:	04f50263          	beq	a0,a5,238c <cosf+0x94>
    234c:	02050c63          	beqz	a0,2384 <cosf+0x8c>
    2350:	00100513          	li	a0,1
    2354:	585000ef          	jal	ra,30d8 <__kernel_sinf>
    2358:	01c12083          	lw	ra,28(sp)
    235c:	02010113          	addi	sp,sp,32
    2360:	00008067          	ret
    2364:	f00005d3          	fmv.w.x	fa1,zero
    2368:	3b80006f          	j	2720 <__kernel_cosf>
    236c:	00c12587          	flw	fa1,12(sp)
    2370:	00812507          	flw	fa0,8(sp)
    2374:	00100513          	li	a0,1
    2378:	561000ef          	jal	ra,30d8 <__kernel_sinf>
    237c:	20a51553          	fneg.s	fa0,fa0
    2380:	fd9ff06f          	j	2358 <cosf+0x60>
    2384:	39c000ef          	jal	ra,2720 <__kernel_cosf>
    2388:	fd1ff06f          	j	2358 <cosf+0x60>
    238c:	394000ef          	jal	ra,2720 <__kernel_cosf>
    2390:	20a51553          	fneg.s	fa0,fa0
    2394:	fc5ff06f          	j	2358 <cosf+0x60>

00002398 <sinf>:
    2398:	e00507d3          	fmv.x.w	a5,fa0
    239c:	3f4916b7          	lui	a3,0x3f491
    23a0:	fd868693          	addi	a3,a3,-40 # 3f490fd8 <__stack+0x3f487d48>
    23a4:	00179713          	slli	a4,a5,0x1
    23a8:	00175713          	srli	a4,a4,0x1
    23ac:	04e6dc63          	bge	a3,a4,2404 <sinf+0x6c>
    23b0:	7f8006b7          	lui	a3,0x7f800
    23b4:	00d74663          	blt	a4,a3,23c0 <sinf+0x28>
    23b8:	08a57553          	fsub.s	fa0,fa0,fa0
    23bc:	00008067          	ret
    23c0:	fe010113          	addi	sp,sp,-32
    23c4:	00810513          	addi	a0,sp,8
    23c8:	00112e23          	sw	ra,28(sp)
    23cc:	070000ef          	jal	ra,243c <__ieee754_rem_pio2f>
    23d0:	00357513          	andi	a0,a0,3
    23d4:	00100793          	li	a5,1
    23d8:	02f50c63          	beq	a0,a5,2410 <sinf+0x78>
    23dc:	00200793          	li	a5,2
    23e0:	00c12587          	flw	fa1,12(sp)
    23e4:	00812507          	flw	fa0,8(sp)
    23e8:	04f50263          	beq	a0,a5,242c <sinf+0x94>
    23ec:	02050a63          	beqz	a0,2420 <sinf+0x88>
    23f0:	330000ef          	jal	ra,2720 <__kernel_cosf>
    23f4:	20a51553          	fneg.s	fa0,fa0
    23f8:	01c12083          	lw	ra,28(sp)
    23fc:	02010113          	addi	sp,sp,32
    2400:	00008067          	ret
    2404:	f00005d3          	fmv.w.x	fa1,zero
    2408:	00000513          	li	a0,0
    240c:	4cd0006f          	j	30d8 <__kernel_sinf>
    2410:	00c12587          	flw	fa1,12(sp)
    2414:	00812507          	flw	fa0,8(sp)
    2418:	308000ef          	jal	ra,2720 <__kernel_cosf>
    241c:	fddff06f          	j	23f8 <sinf+0x60>
    2420:	00100513          	li	a0,1
    2424:	4b5000ef          	jal	ra,30d8 <__kernel_sinf>
    2428:	fd1ff06f          	j	23f8 <sinf+0x60>
    242c:	00100513          	li	a0,1
    2430:	4a9000ef          	jal	ra,30d8 <__kernel_sinf>
    2434:	20a51553          	fneg.s	fa0,fa0
    2438:	fc1ff06f          	j	23f8 <sinf+0x60>

0000243c <__ieee754_rem_pio2f>:
    243c:	e00507d3          	fmv.x.w	a5,fa0
    2440:	fe010113          	addi	sp,sp,-32
    2444:	00812c23          	sw	s0,24(sp)
    2448:	3f491737          	lui	a4,0x3f491
    244c:	00179413          	slli	s0,a5,0x1
    2450:	00912a23          	sw	s1,20(sp)
    2454:	00112e23          	sw	ra,28(sp)
    2458:	01212823          	sw	s2,16(sp)
    245c:	fd870713          	addi	a4,a4,-40 # 3f490fd8 <__stack+0x3f487d48>
    2460:	00145413          	srli	s0,s0,0x1
    2464:	00050493          	mv	s1,a0
    2468:	12875063          	bge	a4,s0,2588 <__ieee754_rem_pio2f+0x14c>
    246c:	4016d737          	lui	a4,0x4016d
    2470:	be370713          	addi	a4,a4,-1053 # 4016cbe3 <__stack+0x40163953>
    2474:	00078913          	mv	s2,a5
    2478:	04874e63          	blt	a4,s0,24d4 <__ieee754_rem_pio2f+0x98>
    247c:	3fc91737          	lui	a4,0x3fc91
    2480:	000086b7          	lui	a3,0x8
    2484:	1f86a787          	flw	fa5,504(a3) # 81f8 <_GLOBAL_OFFSET_TABLE_+0x24>
    2488:	ff047413          	andi	s0,s0,-16
    248c:	fd070713          	addi	a4,a4,-48 # 3fc90fd0 <__stack+0x3fc87d40>
    2490:	24f05a63          	blez	a5,26e4 <__ieee754_rem_pio2f+0x2a8>
    2494:	08f577d3          	fsub.s	fa5,fa0,fa5
    2498:	12e40463          	beq	s0,a4,25c0 <__ieee754_rem_pio2f+0x184>
    249c:	000087b7          	lui	a5,0x8
    24a0:	1fc7a707          	flw	fa4,508(a5) # 81fc <_GLOBAL_OFFSET_TABLE_+0x28>
    24a4:	08e7f6d3          	fsub.s	fa3,fa5,fa4
    24a8:	00100513          	li	a0,1
    24ac:	08d7f7d3          	fsub.s	fa5,fa5,fa3
    24b0:	00d4a027          	fsw	fa3,0(s1)
    24b4:	08e7f7d3          	fsub.s	fa5,fa5,fa4
    24b8:	00f4a227          	fsw	fa5,4(s1)
    24bc:	01c12083          	lw	ra,28(sp)
    24c0:	01812403          	lw	s0,24(sp)
    24c4:	01412483          	lw	s1,20(sp)
    24c8:	01012903          	lw	s2,16(sp)
    24cc:	02010113          	addi	sp,sp,32
    24d0:	00008067          	ret
    24d4:	43491737          	lui	a4,0x43491
    24d8:	f8070713          	addi	a4,a4,-128 # 43490f80 <__stack+0x43487cf0>
    24dc:	0e875a63          	bge	a4,s0,25d0 <__ieee754_rem_pio2f+0x194>
    24e0:	7f800737          	lui	a4,0x7f800
    24e4:	0ce45463          	bge	s0,a4,25ac <__ieee754_rem_pio2f+0x170>
    24e8:	41745613          	srai	a2,s0,0x17
    24ec:	f7a60613          	addi	a2,a2,-134
    24f0:	01761793          	slli	a5,a2,0x17
    24f4:	40f40433          	sub	s0,s0,a5
    24f8:	f00407d3          	fmv.w.x	fa5,s0
    24fc:	f0040753          	fmv.w.x	fa4,s0
    2500:	c00797d3          	fcvt.w.s	a5,fa5,rtz
    2504:	8181a687          	flw	fa3,-2024(gp) # 8218 <_GLOBAL_OFFSET_TABLE_+0x44>
    2508:	f0000653          	fmv.w.x	fa2,zero
    250c:	d007f7d3          	fcvt.s.w	fa5,a5
    2510:	00300693          	li	a3,3
    2514:	08f77753          	fsub.s	fa4,fa4,fa5
    2518:	00f12227          	fsw	fa5,4(sp)
    251c:	10d777d3          	fmul.s	fa5,fa4,fa3
    2520:	c00797d3          	fcvt.w.s	a5,fa5,rtz
    2524:	d007f753          	fcvt.s.w	fa4,a5
    2528:	08e7f7d3          	fsub.s	fa5,fa5,fa4
    252c:	00e12427          	fsw	fa4,8(sp)
    2530:	10d7f7d3          	fmul.s	fa5,fa5,fa3
    2534:	a0c7a7d3          	feq.s	a5,fa5,fa2
    2538:	00f12627          	fsw	fa5,12(sp)
    253c:	00078863          	beqz	a5,254c <__ieee754_rem_pio2f+0x110>
    2540:	a0c726d3          	feq.s	a3,fa4,fa2
    2544:	0016b693          	seqz	a3,a3
    2548:	00168693          	addi	a3,a3,1
    254c:	000057b7          	lui	a5,0x5
    2550:	f1c78793          	addi	a5,a5,-228 # 4f1c <two_over_pi>
    2554:	00200713          	li	a4,2
    2558:	00048593          	mv	a1,s1
    255c:	00410513          	addi	a0,sp,4
    2560:	2c0000ef          	jal	ra,2820 <__kernel_rem_pio2f>
    2564:	f4095ce3          	bgez	s2,24bc <__ieee754_rem_pio2f+0x80>
    2568:	0004a707          	flw	fa4,0(s1)
    256c:	0044a787          	flw	fa5,4(s1)
    2570:	40a00533          	neg	a0,a0
    2574:	20e71753          	fneg.s	fa4,fa4
    2578:	20f797d3          	fneg.s	fa5,fa5
    257c:	00e4a027          	fsw	fa4,0(s1)
    2580:	00f4a227          	fsw	fa5,4(s1)
    2584:	f39ff06f          	j	24bc <__ieee754_rem_pio2f+0x80>
    2588:	01c12083          	lw	ra,28(sp)
    258c:	01812403          	lw	s0,24(sp)
    2590:	00a4a027          	fsw	fa0,0(s1)
    2594:	00052223          	sw	zero,4(a0)
    2598:	01412483          	lw	s1,20(sp)
    259c:	01012903          	lw	s2,16(sp)
    25a0:	00000513          	li	a0,0
    25a4:	02010113          	addi	sp,sp,32
    25a8:	00008067          	ret
    25ac:	08a577d3          	fsub.s	fa5,fa0,fa0
    25b0:	00000513          	li	a0,0
    25b4:	00f4a227          	fsw	fa5,4(s1)
    25b8:	00f4a027          	fsw	fa5,0(s1)
    25bc:	f01ff06f          	j	24bc <__ieee754_rem_pio2f+0x80>
    25c0:	8041a707          	flw	fa4,-2044(gp) # 8204 <_GLOBAL_OFFSET_TABLE_+0x30>
    25c4:	8001a687          	flw	fa3,-2048(gp) # 8200 <_GLOBAL_OFFSET_TABLE_+0x2c>
    25c8:	08d7f7d3          	fsub.s	fa5,fa5,fa3
    25cc:	ed9ff06f          	j	24a4 <__ieee754_rem_pio2f+0x68>
    25d0:	395000ef          	jal	ra,3164 <fabsf>
    25d4:	8081a787          	flw	fa5,-2040(gp) # 8208 <_GLOBAL_OFFSET_TABLE_+0x34>
    25d8:	80c1a707          	flw	fa4,-2036(gp) # 820c <_GLOBAL_OFFSET_TABLE_+0x38>
    25dc:	00008737          	lui	a4,0x8
    25e0:	01f00793          	li	a5,31
    25e4:	70f577c3          	fmadd.s	fa5,fa0,fa5,fa4
    25e8:	c0079553          	fcvt.w.s	a0,fa5,rtz
    25ec:	1f872787          	flw	fa5,504(a4) # 81f8 <_GLOBAL_OFFSET_TABLE_+0x24>
    25f0:	00008737          	lui	a4,0x8
    25f4:	d0057753          	fcvt.s.w	fa4,a0
    25f8:	50f7754b          	fnmsub.s	fa0,fa4,fa5,fa0
    25fc:	1fc72787          	flw	fa5,508(a4) # 81fc <_GLOBAL_OFFSET_TABLE_+0x28>
    2600:	10f777d3          	fmul.s	fa5,fa4,fa5
    2604:	04a7ce63          	blt	a5,a0,2660 <__ieee754_rem_pio2f+0x224>
    2608:	fff50793          	addi	a5,a0,-1
    260c:	00279713          	slli	a4,a5,0x2
    2610:	000057b7          	lui	a5,0x5
    2614:	08f576d3          	fsub.s	fa3,fa0,fa5
    2618:	e9c78793          	addi	a5,a5,-356 # 4e9c <npio2_hw>
    261c:	00e787b3          	add	a5,a5,a4
    2620:	0007a683          	lw	a3,0(a5)
    2624:	f0047713          	andi	a4,s0,-256
    2628:	e00687d3          	fmv.x.w	a5,fa3
    262c:	02d70e63          	beq	a4,a3,2668 <__ieee754_rem_pio2f+0x22c>
    2630:	00f4a023          	sw	a5,0(s1)
    2634:	f0078753          	fmv.w.x	fa4,a5
    2638:	08e57553          	fsub.s	fa0,fa0,fa4
    263c:	08f57553          	fsub.s	fa0,fa0,fa5
    2640:	00a4a227          	fsw	fa0,4(s1)
    2644:	e6095ce3          	bgez	s2,24bc <__ieee754_rem_pio2f+0x80>
    2648:	20e717d3          	fneg.s	fa5,fa4
    264c:	20a51553          	fneg.s	fa0,fa0
    2650:	40a00533          	neg	a0,a0
    2654:	00f4a027          	fsw	fa5,0(s1)
    2658:	00a4a227          	fsw	fa0,4(s1)
    265c:	e61ff06f          	j	24bc <__ieee754_rem_pio2f+0x80>
    2660:	08f576d3          	fsub.s	fa3,fa0,fa5
    2664:	e00687d3          	fmv.x.w	a5,fa3
    2668:	0177d713          	srli	a4,a5,0x17
    266c:	41745413          	srai	s0,s0,0x17
    2670:	0ff77713          	andi	a4,a4,255
    2674:	40e40733          	sub	a4,s0,a4
    2678:	00800693          	li	a3,8
    267c:	fae6dae3          	bge	a3,a4,2630 <__ieee754_rem_pio2f+0x1f4>
    2680:	8001a787          	flw	fa5,-2048(gp) # 8200 <_GLOBAL_OFFSET_TABLE_+0x2c>
    2684:	01900693          	li	a3,25
    2688:	50f776cb          	fnmsub.s	fa3,fa4,fa5,fa0
    268c:	08d57553          	fsub.s	fa0,fa0,fa3
    2690:	50f7754b          	fnmsub.s	fa0,fa4,fa5,fa0
    2694:	8041a787          	flw	fa5,-2044(gp) # 8204 <_GLOBAL_OFFSET_TABLE_+0x30>
    2698:	50f777c7          	fmsub.s	fa5,fa4,fa5,fa0
    269c:	08f6f653          	fsub.s	fa2,fa3,fa5
    26a0:	e00607d3          	fmv.x.w	a5,fa2
    26a4:	0177d713          	srli	a4,a5,0x17
    26a8:	0ff77713          	andi	a4,a4,255
    26ac:	40e40433          	sub	s0,s0,a4
    26b0:	0086c863          	blt	a3,s0,26c0 <__ieee754_rem_pio2f+0x284>
    26b4:	20d68553          	fmv.s	fa0,fa3
    26b8:	00c4a027          	fsw	fa2,0(s1)
    26bc:	f79ff06f          	j	2634 <__ieee754_rem_pio2f+0x1f8>
    26c0:	8101a787          	flw	fa5,-2032(gp) # 8210 <_GLOBAL_OFFSET_TABLE_+0x3c>
    26c4:	68f7754b          	fnmsub.s	fa0,fa4,fa5,fa3
    26c8:	08a6f6d3          	fsub.s	fa3,fa3,fa0
    26cc:	68f776cb          	fnmsub.s	fa3,fa4,fa5,fa3
    26d0:	8141a787          	flw	fa5,-2028(gp) # 8214 <_GLOBAL_OFFSET_TABLE_+0x40>
    26d4:	68f777c7          	fmsub.s	fa5,fa4,fa5,fa3
    26d8:	08f57753          	fsub.s	fa4,fa0,fa5
    26dc:	e00707d3          	fmv.x.w	a5,fa4
    26e0:	f51ff06f          	j	2630 <__ieee754_rem_pio2f+0x1f4>
    26e4:	00f577d3          	fadd.s	fa5,fa0,fa5
    26e8:	02e40463          	beq	s0,a4,2710 <__ieee754_rem_pio2f+0x2d4>
    26ec:	000087b7          	lui	a5,0x8
    26f0:	1fc7a707          	flw	fa4,508(a5) # 81fc <_GLOBAL_OFFSET_TABLE_+0x28>
    26f4:	00e7f6d3          	fadd.s	fa3,fa5,fa4
    26f8:	fff00513          	li	a0,-1
    26fc:	08d7f7d3          	fsub.s	fa5,fa5,fa3
    2700:	00d4a027          	fsw	fa3,0(s1)
    2704:	00e7f7d3          	fadd.s	fa5,fa5,fa4
    2708:	00f4a227          	fsw	fa5,4(s1)
    270c:	db1ff06f          	j	24bc <__ieee754_rem_pio2f+0x80>
    2710:	8041a707          	flw	fa4,-2044(gp) # 8204 <_GLOBAL_OFFSET_TABLE_+0x30>
    2714:	8001a687          	flw	fa3,-2048(gp) # 8200 <_GLOBAL_OFFSET_TABLE_+0x2c>
    2718:	00d7f7d3          	fadd.s	fa5,fa5,fa3
    271c:	fd9ff06f          	j	26f4 <__ieee754_rem_pio2f+0x2b8>

00002720 <__kernel_cosf>:
    2720:	e00507d3          	fmv.x.w	a5,fa0
    2724:	320006b7          	lui	a3,0x32000
    2728:	00179713          	slli	a4,a5,0x1
    272c:	00175713          	srli	a4,a4,0x1
    2730:	06d75063          	bge	a4,a3,2790 <__kernel_cosf+0x70>
    2734:	c0051753          	fcvt.w.s	a4,fa0,rtz
    2738:	0e070063          	beqz	a4,2818 <__kernel_cosf+0xf8>
    273c:	10a576d3          	fmul.s	fa3,fa0,fa0
    2740:	8281a707          	flw	fa4,-2008(gp) # 8228 <_GLOBAL_OFFSET_TABLE_+0x54>
    2744:	82c1a787          	flw	fa5,-2004(gp) # 822c <_GLOBAL_OFFSET_TABLE_+0x58>
    2748:	78e6f743          	fmadd.s	fa4,fa3,fa4,fa5
    274c:	8301a787          	flw	fa5,-2000(gp) # 8230 <_GLOBAL_OFFSET_TABLE_+0x5c>
    2750:	78e6f743          	fmadd.s	fa4,fa3,fa4,fa5
    2754:	8341a787          	flw	fa5,-1996(gp) # 8234 <_GLOBAL_OFFSET_TABLE_+0x60>
    2758:	78e6f743          	fmadd.s	fa4,fa3,fa4,fa5
    275c:	8381a787          	flw	fa5,-1992(gp) # 8238 <_GLOBAL_OFFSET_TABLE_+0x64>
    2760:	78e6f743          	fmadd.s	fa4,fa3,fa4,fa5
    2764:	83c1a787          	flw	fa5,-1988(gp) # 823c <_GLOBAL_OFFSET_TABLE_+0x68>
    2768:	78e6f7c3          	fmadd.s	fa5,fa3,fa4,fa5
    276c:	10f6f7d3          	fmul.s	fa5,fa3,fa5
    2770:	f0078753          	fmv.w.x	fa4,a5
    2774:	80c1a507          	flw	fa0,-2036(gp) # 820c <_GLOBAL_OFFSET_TABLE_+0x38>
    2778:	10b775d3          	fmul.s	fa1,fa4,fa1
    277c:	58f6f7c7          	fmsub.s	fa5,fa3,fa5,fa1
    2780:	78a6f7c7          	fmsub.s	fa5,fa3,fa0,fa5
    2784:	8241a507          	flw	fa0,-2012(gp) # 8224 <_GLOBAL_OFFSET_TABLE_+0x50>
    2788:	08f57553          	fsub.s	fa0,fa0,fa5
    278c:	00008067          	ret
    2790:	10a576d3          	fmul.s	fa3,fa0,fa0
    2794:	8281a787          	flw	fa5,-2008(gp) # 8228 <_GLOBAL_OFFSET_TABLE_+0x54>
    2798:	82c1a707          	flw	fa4,-2004(gp) # 822c <_GLOBAL_OFFSET_TABLE_+0x58>
    279c:	70f6f7c3          	fmadd.s	fa5,fa3,fa5,fa4
    27a0:	8301a707          	flw	fa4,-2000(gp) # 8230 <_GLOBAL_OFFSET_TABLE_+0x5c>
    27a4:	3e99a6b7          	lui	a3,0x3e99a
    27a8:	99968693          	addi	a3,a3,-1639 # 3e999999 <__stack+0x3e990709>
    27ac:	70d7f7c3          	fmadd.s	fa5,fa5,fa3,fa4
    27b0:	8341a707          	flw	fa4,-1996(gp) # 8234 <_GLOBAL_OFFSET_TABLE_+0x60>
    27b4:	70d7f7c3          	fmadd.s	fa5,fa5,fa3,fa4
    27b8:	8381a707          	flw	fa4,-1992(gp) # 8238 <_GLOBAL_OFFSET_TABLE_+0x64>
    27bc:	70d7f7c3          	fmadd.s	fa5,fa5,fa3,fa4
    27c0:	83c1a707          	flw	fa4,-1988(gp) # 823c <_GLOBAL_OFFSET_TABLE_+0x68>
    27c4:	70d7f7c3          	fmadd.s	fa5,fa5,fa3,fa4
    27c8:	10d7f7d3          	fmul.s	fa5,fa5,fa3
    27cc:	fae6d2e3          	bge	a3,a4,2770 <__kernel_cosf+0x50>
    27d0:	3f4806b7          	lui	a3,0x3f480
    27d4:	02e6cc63          	blt	a3,a4,280c <__kernel_cosf+0xec>
    27d8:	ff0006b7          	lui	a3,0xff000
    27dc:	00d70733          	add	a4,a4,a3
    27e0:	8241a507          	flw	fa0,-2012(gp) # 8224 <_GLOBAL_OFFSET_TABLE_+0x50>
    27e4:	f0070753          	fmv.w.x	fa4,a4
    27e8:	08e57553          	fsub.s	fa0,fa0,fa4
    27ec:	f0078653          	fmv.w.x	fa2,a5
    27f0:	10b675d3          	fmul.s	fa1,fa2,fa1
    27f4:	80c1a607          	flw	fa2,-2036(gp) # 820c <_GLOBAL_OFFSET_TABLE_+0x38>
    27f8:	58f6f7c7          	fmsub.s	fa5,fa3,fa5,fa1
    27fc:	70c6f6c7          	fmsub.s	fa3,fa3,fa2,fa4
    2800:	08f6f7d3          	fsub.s	fa5,fa3,fa5
    2804:	08f57553          	fsub.s	fa0,fa0,fa5
    2808:	00008067          	ret
    280c:	81c1a507          	flw	fa0,-2020(gp) # 821c <_GLOBAL_OFFSET_TABLE_+0x48>
    2810:	8201a707          	flw	fa4,-2016(gp) # 8220 <_GLOBAL_OFFSET_TABLE_+0x4c>
    2814:	fd9ff06f          	j	27ec <__kernel_cosf+0xcc>
    2818:	8241a507          	flw	fa0,-2012(gp) # 8224 <_GLOBAL_OFFSET_TABLE_+0x50>
    281c:	00008067          	ret

00002820 <__kernel_rem_pio2f>:
    2820:	e4010113          	addi	sp,sp,-448
    2824:	1a912a23          	sw	s1,436(sp)
    2828:	000054b7          	lui	s1,0x5
    282c:	23448893          	addi	a7,s1,564 # 5234 <init_jk>
    2830:	00e12a23          	sw	a4,20(sp)
    2834:	00271713          	slli	a4,a4,0x2
    2838:	00068813          	mv	a6,a3
    283c:	1a812c23          	sw	s0,440(sp)
    2840:	1b212823          	sw	s2,432(sp)
    2844:	19a12823          	sw	s10,400(sp)
    2848:	00e88733          	add	a4,a7,a4
    284c:	1a112e23          	sw	ra,444(sp)
    2850:	1b312623          	sw	s3,428(sp)
    2854:	1b412423          	sw	s4,424(sp)
    2858:	1b512223          	sw	s5,420(sp)
    285c:	1b612023          	sw	s6,416(sp)
    2860:	19712e23          	sw	s7,412(sp)
    2864:	19812c23          	sw	s8,408(sp)
    2868:	19912a23          	sw	s9,404(sp)
    286c:	19b12623          	sw	s11,396(sp)
    2870:	16812e27          	fsw	fs0,380(sp)
    2874:	16912c27          	fsw	fs1,376(sp)
    2878:	17212a27          	fsw	fs2,372(sp)
    287c:	17312827          	fsw	fs3,368(sp)
    2880:	17412627          	fsw	fs4,364(sp)
    2884:	17512427          	fsw	fs5,360(sp)
    2888:	17612227          	fsw	fs6,356(sp)
    288c:	01112623          	sw	a7,12(sp)
    2890:	00c12e23          	sw	a2,28(sp)
    2894:	ffc00693          	li	a3,-4
    2898:	00b12823          	sw	a1,16(sp)
    289c:	00f12223          	sw	a5,4(sp)
    28a0:	00072d03          	lw	s10,0(a4)
    28a4:	00050913          	mv	s2,a0
    28a8:	fff80413          	addi	s0,a6,-1
    28ac:	78d64463          	blt	a2,a3,3034 <__kernel_rem_pio2f+0x814>
    28b0:	ffd60793          	addi	a5,a2,-3
    28b4:	41f7d713          	srai	a4,a5,0x1f
    28b8:	00777713          	andi	a4,a4,7
    28bc:	00f707b3          	add	a5,a4,a5
    28c0:	4037d793          	srai	a5,a5,0x3
    28c4:	00178b93          	addi	s7,a5,1
    28c8:	00f12023          	sw	a5,0(sp)
    28cc:	003b9793          	slli	a5,s7,0x3
    28d0:	00f12c23          	sw	a5,24(sp)
    28d4:	01c12783          	lw	a5,28(sp)
    28d8:	01812683          	lw	a3,24(sp)
    28dc:	008d0733          	add	a4,s10,s0
    28e0:	40d78ab3          	sub	s5,a5,a3
    28e4:	00012783          	lw	a5,0(sp)
    28e8:	408787b3          	sub	a5,a5,s0
    28ec:	04074063          	bltz	a4,292c <__kernel_rem_pio2f+0x10c>
    28f0:	00412583          	lw	a1,4(sp)
    28f4:	00170613          	addi	a2,a4,1
    28f8:	00279693          	slli	a3,a5,0x2
    28fc:	07010713          	addi	a4,sp,112
    2900:	00d586b3          	add	a3,a1,a3
    2904:	00f60633          	add	a2,a2,a5
    2908:	f00007d3          	fmv.w.x	fa5,zero
    290c:	0007c663          	bltz	a5,2918 <__kernel_rem_pio2f+0xf8>
    2910:	0006a503          	lw	a0,0(a3) # ff000000 <__stack+0xfeff6d70>
    2914:	d00577d3          	fcvt.s.w	fa5,a0
    2918:	00178793          	addi	a5,a5,1
    291c:	00f72027          	fsw	fa5,0(a4)
    2920:	00470713          	addi	a4,a4,4
    2924:	00468693          	addi	a3,a3,4
    2928:	fec790e3          	bne	a5,a2,2908 <__kernel_rem_pio2f+0xe8>
    292c:	060d4063          	bltz	s10,298c <__kernel_rem_pio2f+0x16c>
    2930:	00241613          	slli	a2,s0,0x2
    2934:	00460693          	addi	a3,a2,4
    2938:	07010793          	addi	a5,sp,112
    293c:	11010e13          	addi	t3,sp,272
    2940:	00040513          	mv	a0,s0
    2944:	00c78633          	add	a2,a5,a2
    2948:	010d0eb3          	add	t4,s10,a6
    294c:	012686b3          	add	a3,a3,s2
    2950:	f00007d3          	fmv.w.x	fa5,zero
    2954:	00060713          	mv	a4,a2
    2958:	00090793          	mv	a5,s2
    295c:	00044e63          	bltz	s0,2978 <__kernel_rem_pio2f+0x158>
    2960:	0007a687          	flw	fa3,0(a5)
    2964:	00072707          	flw	fa4,0(a4)
    2968:	00478793          	addi	a5,a5,4
    296c:	ffc70713          	addi	a4,a4,-4
    2970:	78e6f7c3          	fmadd.s	fa5,fa3,fa4,fa5
    2974:	fed796e3          	bne	a5,a3,2960 <__kernel_rem_pio2f+0x140>
    2978:	00fe2027          	fsw	fa5,0(t3)
    297c:	00150513          	addi	a0,a0,1
    2980:	004e0e13          	addi	t3,t3,4
    2984:	00460613          	addi	a2,a2,4
    2988:	fdd514e3          	bne	a0,t4,2950 <__kernel_rem_pio2f+0x130>
    298c:	8441aa87          	flw	fs5,-1980(gp) # 8244 <_GLOBAL_OFFSET_TABLE_+0x70>
    2990:	8181aa07          	flw	fs4,-2024(gp) # 8218 <_GLOBAL_OFFSET_TABLE_+0x44>
    2994:	8481a487          	flw	fs1,-1976(gp) # 8248 <_GLOBAL_OFFSET_TABLE_+0x74>
    2998:	84c1a407          	flw	fs0,-1972(gp) # 824c <_GLOBAL_OFFSET_TABLE_+0x78>
    299c:	002d1793          	slli	a5,s10,0x2
    29a0:	8241a987          	flw	fs3,-2012(gp) # 8224 <_GLOBAL_OFFSET_TABLE_+0x50>
    29a4:	80c1a907          	flw	fs2,-2036(gp) # 820c <_GLOBAL_OFFSET_TABLE_+0x38>
    29a8:	02010b13          	addi	s6,sp,32
    29ac:	ff878993          	addi	s3,a5,-8
    29b0:	01c10713          	addi	a4,sp,28
    29b4:	00281c93          	slli	s9,a6,0x2
    29b8:	00f704b3          	add	s1,a4,a5
    29bc:	013b07b3          	add	a5,s6,s3
    29c0:	00f12423          	sw	a5,8(sp)
    29c4:	01990cb3          	add	s9,s2,s9
    29c8:	000d0a13          	mv	s4,s10
    29cc:	11010d93          	addi	s11,sp,272
    29d0:	002a1993          	slli	s3,s4,0x2
    29d4:	16010793          	addi	a5,sp,352
    29d8:	013787b3          	add	a5,a5,s3
    29dc:	fb07a507          	flw	fa0,-80(a5)
    29e0:	05405063          	blez	s4,2a20 <__kernel_rem_pio2f+0x200>
    29e4:	ffc98793          	addi	a5,s3,-4
    29e8:	00fd87b3          	add	a5,s11,a5
    29ec:	000b0713          	mv	a4,s6
    29f0:	115577d3          	fmul.s	fa5,fa0,fs5
    29f4:	0007a687          	flw	fa3,0(a5)
    29f8:	00470713          	addi	a4,a4,4
    29fc:	00078613          	mv	a2,a5
    2a00:	ffc78793          	addi	a5,a5,-4
    2a04:	c0079553          	fcvt.w.s	a0,fa5,rtz
    2a08:	d00577d3          	fcvt.s.w	fa5,a0
    2a0c:	5147f74b          	fnmsub.s	fa4,fa5,fs4,fa0
    2a10:	00d7f553          	fadd.s	fa0,fa5,fa3
    2a14:	c0071553          	fcvt.w.s	a0,fa4,rtz
    2a18:	fea72e23          	sw	a0,-4(a4)
    2a1c:	fccd9ae3          	bne	s11,a2,29f0 <__kernel_rem_pio2f+0x1d0>
    2a20:	000a8513          	mv	a0,s5
    2a24:	001000ef          	jal	ra,3224 <scalbnf>
    2a28:	20a50b53          	fmv.s	fs6,fa0
    2a2c:	10957553          	fmul.s	fa0,fa0,fs1
    2a30:	73c000ef          	jal	ra,316c <floorf>
    2a34:	b085754b          	fnmsub.s	fa0,fa0,fs0,fs6
    2a38:	c0051bd3          	fcvt.w.s	s7,fa0,rtz
    2a3c:	d00bfb53          	fcvt.s.w	fs6,s7
    2a40:	09657b53          	fsub.s	fs6,fa0,fs6
    2a44:	15505063          	blez	s5,2b84 <__kernel_rem_pio2f+0x364>
    2a48:	fffa0713          	addi	a4,s4,-1
    2a4c:	16010793          	addi	a5,sp,352
    2a50:	00271713          	slli	a4,a4,0x2
    2a54:	00e78733          	add	a4,a5,a4
    2a58:	ec072e83          	lw	t4,-320(a4)
    2a5c:	00800793          	li	a5,8
    2a60:	415787b3          	sub	a5,a5,s5
    2a64:	40fed533          	sra	a0,t4,a5
    2a68:	00f51633          	sll	a2,a0,a5
    2a6c:	00700793          	li	a5,7
    2a70:	40ce8633          	sub	a2,t4,a2
    2a74:	415787b3          	sub	a5,a5,s5
    2a78:	ecc72023          	sw	a2,-320(a4)
    2a7c:	40f65c33          	sra	s8,a2,a5
    2a80:	00ab8bb3          	add	s7,s7,a0
    2a84:	13804063          	bgtz	s8,2ba4 <__kernel_rem_pio2f+0x384>
    2a88:	f0000753          	fmv.w.x	fa4,zero
    2a8c:	a0eb27d3          	feq.s	a5,fs6,fa4
    2a90:	20078463          	beqz	a5,2c98 <__kernel_rem_pio2f+0x478>
    2a94:	fffa0e93          	addi	t4,s4,-1
    2a98:	03aec463          	blt	t4,s10,2ac0 <__kernel_rem_pio2f+0x2a0>
    2a9c:	002a1793          	slli	a5,s4,0x2
    2aa0:	ffc78793          	addi	a5,a5,-4
    2aa4:	00fb07b3          	add	a5,s6,a5
    2aa8:	00000713          	li	a4,0
    2aac:	0007a503          	lw	a0,0(a5)
    2ab0:	ffc78793          	addi	a5,a5,-4
    2ab4:	00a76733          	or	a4,a4,a0
    2ab8:	fe979ae3          	bne	a5,s1,2aac <__kernel_rem_pio2f+0x28c>
    2abc:	3e071463          	bnez	a4,2ea4 <__kernel_rem_pio2f+0x684>
    2ac0:	fffd0793          	addi	a5,s10,-1
    2ac4:	00279793          	slli	a5,a5,0x2
    2ac8:	16010713          	addi	a4,sp,352
    2acc:	00f707b3          	add	a5,a4,a5
    2ad0:	ec07a783          	lw	a5,-320(a5)
    2ad4:	3c079063          	bnez	a5,2e94 <__kernel_rem_pio2f+0x674>
    2ad8:	00812783          	lw	a5,8(sp)
    2adc:	00100713          	li	a4,1
    2ae0:	0007a603          	lw	a2,0(a5)
    2ae4:	00170713          	addi	a4,a4,1
    2ae8:	ffc78793          	addi	a5,a5,-4
    2aec:	fe060ae3          	beqz	a2,2ae0 <__kernel_rem_pio2f+0x2c0>
    2af0:	001a0793          	addi	a5,s4,1
    2af4:	00078e93          	mv	t4,a5
    2af8:	00ea0f33          	add	t5,s4,a4
    2afc:	00012703          	lw	a4,0(sp)
    2b00:	00f406b3          	add	a3,s0,a5
    2b04:	00269693          	slli	a3,a3,0x2
    2b08:	00f70533          	add	a0,a4,a5
    2b0c:	16010713          	addi	a4,sp,352
    2b10:	00d706b3          	add	a3,a4,a3
    2b14:	00412703          	lw	a4,4(sp)
    2b18:	00251513          	slli	a0,a0,0x2
    2b1c:	00279793          	slli	a5,a5,0x2
    2b20:	00a70533          	add	a0,a4,a0
    2b24:	00fd8633          	add	a2,s11,a5
    2b28:	f0c68693          	addi	a3,a3,-244
    2b2c:	00052783          	lw	a5,0(a0)
    2b30:	f00007d3          	fmv.w.x	fa5,zero
    2b34:	d007f753          	fcvt.s.w	fa4,a5
    2b38:	00e6a227          	fsw	fa4,4(a3)
    2b3c:	02044463          	bltz	s0,2b64 <__kernel_rem_pio2f+0x344>
    2b40:	00068713          	mv	a4,a3
    2b44:	00090793          	mv	a5,s2
    2b48:	00c0006f          	j	2b54 <__kernel_rem_pio2f+0x334>
    2b4c:	00072707          	flw	fa4,0(a4)
    2b50:	ffc70713          	addi	a4,a4,-4
    2b54:	0007a687          	flw	fa3,0(a5)
    2b58:	00478793          	addi	a5,a5,4
    2b5c:	78e6f7c3          	fmadd.s	fa5,fa3,fa4,fa5
    2b60:	ff9796e3          	bne	a5,s9,2b4c <__kernel_rem_pio2f+0x32c>
    2b64:	00f62027          	fsw	fa5,0(a2)
    2b68:	001e8e93          	addi	t4,t4,1
    2b6c:	00450513          	addi	a0,a0,4
    2b70:	00460613          	addi	a2,a2,4
    2b74:	00468693          	addi	a3,a3,4
    2b78:	fbdf5ae3          	bge	t5,t4,2b2c <__kernel_rem_pio2f+0x30c>
    2b7c:	000f0a13          	mv	s4,t5
    2b80:	e51ff06f          	j	29d0 <__kernel_rem_pio2f+0x1b0>
    2b84:	2e0a9863          	bnez	s5,2e74 <__kernel_rem_pio2f+0x654>
    2b88:	fffa0793          	addi	a5,s4,-1
    2b8c:	00279793          	slli	a5,a5,0x2
    2b90:	16010713          	addi	a4,sp,352
    2b94:	00f707b3          	add	a5,a4,a5
    2b98:	ec07a603          	lw	a2,-320(a5)
    2b9c:	40765c13          	srai	s8,a2,0x7
    2ba0:	ef8054e3          	blez	s8,2a88 <__kernel_rem_pio2f+0x268>
    2ba4:	001b8b93          	addi	s7,s7,1
    2ba8:	49405e63          	blez	s4,3044 <__kernel_rem_pio2f+0x824>
    2bac:	02012e83          	lw	t4,32(sp)
    2bb0:	00100793          	li	a5,1
    2bb4:	2a0e9c63          	bnez	t4,2e6c <__kernel_rem_pio2f+0x64c>
    2bb8:	08fa0263          	beq	s4,a5,2c3c <__kernel_rem_pio2f+0x41c>
    2bbc:	02412e83          	lw	t4,36(sp)
    2bc0:	02410513          	addi	a0,sp,36
    2bc4:	00100713          	li	a4,1
    2bc8:	00170793          	addi	a5,a4,1
    2bcc:	00450513          	addi	a0,a0,4
    2bd0:	000e9e63          	bnez	t4,2bec <__kernel_rem_pio2f+0x3cc>
    2bd4:	06fa0463          	beq	s4,a5,2c3c <__kernel_rem_pio2f+0x41c>
    2bd8:	00052e83          	lw	t4,0(a0)
    2bdc:	00078713          	mv	a4,a5
    2be0:	00170793          	addi	a5,a4,1
    2be4:	00450513          	addi	a0,a0,4
    2be8:	fe0e86e3          	beqz	t4,2bd4 <__kernel_rem_pio2f+0x3b4>
    2bec:	00271713          	slli	a4,a4,0x2
    2bf0:	16010693          	addi	a3,sp,352
    2bf4:	00e68533          	add	a0,a3,a4
    2bf8:	10000713          	li	a4,256
    2bfc:	41d70733          	sub	a4,a4,t4
    2c00:	ece52023          	sw	a4,-320(a0)
    2c04:	0347da63          	bge	a5,s4,2c38 <__kernel_rem_pio2f+0x418>
    2c08:	00279793          	slli	a5,a5,0x2
    2c0c:	00f68733          	add	a4,a3,a5
    2c10:	ec072703          	lw	a4,-320(a4)
    2c14:	00fb07b3          	add	a5,s6,a5
    2c18:	013b0eb3          	add	t4,s6,s3
    2c1c:	0ff00513          	li	a0,255
    2c20:	0080006f          	j	2c28 <__kernel_rem_pio2f+0x408>
    2c24:	0007a703          	lw	a4,0(a5)
    2c28:	40e50733          	sub	a4,a0,a4
    2c2c:	00e7a023          	sw	a4,0(a5)
    2c30:	00478793          	addi	a5,a5,4
    2c34:	ffd798e3          	bne	a5,t4,2c24 <__kernel_rem_pio2f+0x404>
    2c38:	00100e93          	li	t4,1
    2c3c:	03505863          	blez	s5,2c6c <__kernel_rem_pio2f+0x44c>
    2c40:	00100793          	li	a5,1
    2c44:	3cfa8863          	beq	s5,a5,3014 <__kernel_rem_pio2f+0x7f4>
    2c48:	00200793          	li	a5,2
    2c4c:	02fa9063          	bne	s5,a5,2c6c <__kernel_rem_pio2f+0x44c>
    2c50:	fffa0793          	addi	a5,s4,-1
    2c54:	16010713          	addi	a4,sp,352
    2c58:	00279793          	slli	a5,a5,0x2
    2c5c:	00f707b3          	add	a5,a4,a5
    2c60:	ec07a703          	lw	a4,-320(a5)
    2c64:	03f77713          	andi	a4,a4,63
    2c68:	ece7a023          	sw	a4,-320(a5)
    2c6c:	00200793          	li	a5,2
    2c70:	e0fc1ce3          	bne	s8,a5,2a88 <__kernel_rem_pio2f+0x268>
    2c74:	0969fb53          	fsub.s	fs6,fs3,fs6
    2c78:	e00e88e3          	beqz	t4,2a88 <__kernel_rem_pio2f+0x268>
    2c7c:	21398553          	fmv.s	fa0,fs3
    2c80:	000a8513          	mv	a0,s5
    2c84:	5a0000ef          	jal	ra,3224 <scalbnf>
    2c88:	08ab7b53          	fsub.s	fs6,fs6,fa0
    2c8c:	f0000753          	fmv.w.x	fa4,zero
    2c90:	a0eb27d3          	feq.s	a5,fs6,fa4
    2c94:	e00790e3          	bnez	a5,2a94 <__kernel_rem_pio2f+0x274>
    2c98:	01812783          	lw	a5,24(sp)
    2c9c:	01c12703          	lw	a4,28(sp)
    2ca0:	216b0553          	fmv.s	fa0,fs6
    2ca4:	40e78533          	sub	a0,a5,a4
    2ca8:	57c000ef          	jal	ra,3224 <scalbnf>
    2cac:	8181a707          	flw	fa4,-2024(gp) # 8218 <_GLOBAL_OFFSET_TABLE_+0x44>
    2cb0:	a0a707d3          	fle.s	a5,fa4,fa0
    2cb4:	38078c63          	beqz	a5,304c <__kernel_rem_pio2f+0x82c>
    2cb8:	8441a687          	flw	fa3,-1980(gp) # 8244 <_GLOBAL_OFFSET_TABLE_+0x70>
    2cbc:	001a0e93          	addi	t4,s4,1
    2cc0:	16010793          	addi	a5,sp,352
    2cc4:	10d576d3          	fmul.s	fa3,fa0,fa3
    2cc8:	01378fb3          	add	t6,a5,s3
    2ccc:	16010713          	addi	a4,sp,352
    2cd0:	002e9793          	slli	a5,t4,0x2
    2cd4:	00f707b3          	add	a5,a4,a5
    2cd8:	c0069753          	fcvt.w.s	a4,fa3,rtz
    2cdc:	008a8a93          	addi	s5,s5,8
    2ce0:	d00776d3          	fcvt.s.w	fa3,a4
    2ce4:	50e6f7cb          	fnmsub.s	fa5,fa3,fa4,fa0
    2ce8:	c0069753          	fcvt.w.s	a4,fa3,rtz
    2cec:	c00796d3          	fcvt.w.s	a3,fa5,rtz
    2cf0:	ecdfa023          	sw	a3,-320(t6)
    2cf4:	ece7a023          	sw	a4,-320(a5)
    2cf8:	8241a507          	flw	fa0,-2012(gp) # 8224 <_GLOBAL_OFFSET_TABLE_+0x50>
    2cfc:	000a8513          	mv	a0,s5
    2d00:	01d12023          	sw	t4,0(sp)
    2d04:	520000ef          	jal	ra,3224 <scalbnf>
    2d08:	00012e83          	lw	t4,0(sp)
    2d0c:	380ecc63          	bltz	t4,30a4 <__kernel_rem_pio2f+0x884>
    2d10:	002e9893          	slli	a7,t4,0x2
    2d14:	8441a687          	flw	fa3,-1980(gp) # 8244 <_GLOBAL_OFFSET_TABLE_+0x70>
    2d18:	11010793          	addi	a5,sp,272
    2d1c:	01178533          	add	a0,a5,a7
    2d20:	00050713          	mv	a4,a0
    2d24:	011b07b3          	add	a5,s6,a7
    2d28:	0007a583          	lw	a1,0(a5)
    2d2c:	ffc70713          	addi	a4,a4,-4
    2d30:	00078693          	mv	a3,a5
    2d34:	d005f7d3          	fcvt.s.w	fa5,a1
    2d38:	ffc78793          	addi	a5,a5,-4
    2d3c:	10a7f7d3          	fmul.s	fa5,fa5,fa0
    2d40:	10d57553          	fmul.s	fa0,fa0,fa3
    2d44:	00f72227          	fsw	fa5,4(a4)
    2d48:	fedb10e3          	bne	s6,a3,2d28 <__kernel_rem_pio2f+0x508>
    2d4c:	0c010313          	addi	t1,sp,192
    2d50:	8401a607          	flw	fa2,-1984(gp) # 8240 <_GLOBAL_OFFSET_TABLE_+0x6c>
    2d54:	00030813          	mv	a6,t1
    2d58:	00000593          	li	a1,0
    2d5c:	040d4e63          	bltz	s10,2db8 <__kernel_rem_pio2f+0x598>
    2d60:	00c12783          	lw	a5,12(sp)
    2d64:	20c60753          	fmv.s	fa4,fa2
    2d68:	f00007d3          	fmv.w.x	fa5,zero
    2d6c:	01078693          	addi	a3,a5,16
    2d70:	00050713          	mv	a4,a0
    2d74:	00000793          	li	a5,0
    2d78:	0100006f          	j	2d88 <__kernel_rem_pio2f+0x568>
    2d7c:	02f5c063          	blt	a1,a5,2d9c <__kernel_rem_pio2f+0x57c>
    2d80:	0006a707          	flw	fa4,0(a3)
    2d84:	00468693          	addi	a3,a3,4
    2d88:	00072687          	flw	fa3,0(a4)
    2d8c:	00178793          	addi	a5,a5,1
    2d90:	00470713          	addi	a4,a4,4
    2d94:	78e6f7c3          	fmadd.s	fa5,fa3,fa4,fa5
    2d98:	fefd52e3          	bge	s10,a5,2d7c <__kernel_rem_pio2f+0x55c>
    2d9c:	00f82027          	fsw	fa5,0(a6)
    2da0:	00158793          	addi	a5,a1,1
    2da4:	00480813          	addi	a6,a6,4
    2da8:	ffc50513          	addi	a0,a0,-4
    2dac:	02be8263          	beq	t4,a1,2dd0 <__kernel_rem_pio2f+0x5b0>
    2db0:	00078593          	mv	a1,a5
    2db4:	fa0d56e3          	bgez	s10,2d60 <__kernel_rem_pio2f+0x540>
    2db8:	f00007d3          	fmv.w.x	fa5,zero
    2dbc:	00158793          	addi	a5,a1,1
    2dc0:	00480813          	addi	a6,a6,4
    2dc4:	fef82e27          	fsw	fa5,-4(a6)
    2dc8:	ffc50513          	addi	a0,a0,-4
    2dcc:	febe92e3          	bne	t4,a1,2db0 <__kernel_rem_pio2f+0x590>
    2dd0:	01412703          	lw	a4,20(sp)
    2dd4:	00200793          	li	a5,2
    2dd8:	16e7c263          	blt	a5,a4,2f3c <__kernel_rem_pio2f+0x71c>
    2ddc:	f00007d3          	fmv.w.x	fa5,zero
    2de0:	011308b3          	add	a7,t1,a7
    2de4:	0ee04e63          	bgtz	a4,2ee0 <__kernel_rem_pio2f+0x6c0>
    2de8:	02071463          	bnez	a4,2e10 <__kernel_rem_pio2f+0x5f0>
    2dec:	0008a707          	flw	fa4,0(a7)
    2df0:	00088793          	mv	a5,a7
    2df4:	ffc88893          	addi	a7,a7,-4
    2df8:	00e7f7d3          	fadd.s	fa5,fa5,fa4
    2dfc:	fef318e3          	bne	t1,a5,2dec <__kernel_rem_pio2f+0x5cc>
    2e00:	000c0463          	beqz	s8,2e08 <__kernel_rem_pio2f+0x5e8>
    2e04:	20f797d3          	fneg.s	fa5,fa5
    2e08:	01012783          	lw	a5,16(sp)
    2e0c:	00f7a027          	fsw	fa5,0(a5)
    2e10:	1bc12083          	lw	ra,444(sp)
    2e14:	1b812403          	lw	s0,440(sp)
    2e18:	1b412483          	lw	s1,436(sp)
    2e1c:	1b012903          	lw	s2,432(sp)
    2e20:	1ac12983          	lw	s3,428(sp)
    2e24:	1a812a03          	lw	s4,424(sp)
    2e28:	1a412a83          	lw	s5,420(sp)
    2e2c:	1a012b03          	lw	s6,416(sp)
    2e30:	19812c03          	lw	s8,408(sp)
    2e34:	19412c83          	lw	s9,404(sp)
    2e38:	19012d03          	lw	s10,400(sp)
    2e3c:	18c12d83          	lw	s11,396(sp)
    2e40:	17c12407          	flw	fs0,380(sp)
    2e44:	17812487          	flw	fs1,376(sp)
    2e48:	17412907          	flw	fs2,372(sp)
    2e4c:	17012987          	flw	fs3,368(sp)
    2e50:	16c12a07          	flw	fs4,364(sp)
    2e54:	16812a87          	flw	fs5,360(sp)
    2e58:	16412b07          	flw	fs6,356(sp)
    2e5c:	007bf513          	andi	a0,s7,7
    2e60:	19c12b83          	lw	s7,412(sp)
    2e64:	1c010113          	addi	sp,sp,448
    2e68:	00008067          	ret
    2e6c:	00000713          	li	a4,0
    2e70:	d7dff06f          	j	2bec <__kernel_rem_pio2f+0x3cc>
    2e74:	a16907d3          	fle.s	a5,fs2,fs6
    2e78:	00000c13          	li	s8,0
    2e7c:	c00786e3          	beqz	a5,2a88 <__kernel_rem_pio2f+0x268>
    2e80:	001b8b93          	addi	s7,s7,1
    2e84:	00200c13          	li	s8,2
    2e88:	d34042e3          	bgtz	s4,2bac <__kernel_rem_pio2f+0x38c>
    2e8c:	0969fb53          	fsub.s	fs6,fs3,fs6
    2e90:	bf9ff06f          	j	2a88 <__kernel_rem_pio2f+0x268>
    2e94:	001a0793          	addi	a5,s4,1
    2e98:	00078e93          	mv	t4,a5
    2e9c:	00078f13          	mv	t5,a5
    2ea0:	c5dff06f          	j	2afc <__kernel_rem_pio2f+0x2dc>
    2ea4:	002e9793          	slli	a5,t4,0x2
    2ea8:	16010713          	addi	a4,sp,352
    2eac:	00f707b3          	add	a5,a4,a5
    2eb0:	ec07a783          	lw	a5,-320(a5)
    2eb4:	ff8a8a93          	addi	s5,s5,-8
    2eb8:	e40790e3          	bnez	a5,2cf8 <__kernel_rem_pio2f+0x4d8>
    2ebc:	002a1793          	slli	a5,s4,0x2
    2ec0:	ff878793          	addi	a5,a5,-8
    2ec4:	00fb07b3          	add	a5,s6,a5
    2ec8:	0007a703          	lw	a4,0(a5)
    2ecc:	fffe8e93          	addi	t4,t4,-1
    2ed0:	ffc78793          	addi	a5,a5,-4
    2ed4:	ff8a8a93          	addi	s5,s5,-8
    2ed8:	fe0708e3          	beqz	a4,2ec8 <__kernel_rem_pio2f+0x6a8>
    2edc:	e1dff06f          	j	2cf8 <__kernel_rem_pio2f+0x4d8>
    2ee0:	0008a707          	flw	fa4,0(a7)
    2ee4:	00088793          	mv	a5,a7
    2ee8:	ffc88893          	addi	a7,a7,-4
    2eec:	00e7f7d3          	fadd.s	fa5,fa5,fa4
    2ef0:	fef318e3          	bne	t1,a5,2ee0 <__kernel_rem_pio2f+0x6c0>
    2ef4:	160c1863          	bnez	s8,3064 <__kernel_rem_pio2f+0x844>
    2ef8:	01012783          	lw	a5,16(sp)
    2efc:	0c012707          	flw	fa4,192(sp)
    2f00:	00f7a027          	fsw	fa5,0(a5)
    2f04:	08f777d3          	fsub.s	fa5,fa4,fa5
    2f08:	03d05463          	blez	t4,2f30 <__kernel_rem_pio2f+0x710>
    2f0c:	0c410713          	addi	a4,sp,196
    2f10:	00100793          	li	a5,1
    2f14:	00072707          	flw	fa4,0(a4)
    2f18:	00178793          	addi	a5,a5,1
    2f1c:	00470713          	addi	a4,a4,4
    2f20:	00e7f7d3          	fadd.s	fa5,fa5,fa4
    2f24:	fefed8e3          	bge	t4,a5,2f14 <__kernel_rem_pio2f+0x6f4>
    2f28:	000c0463          	beqz	s8,2f30 <__kernel_rem_pio2f+0x710>
    2f2c:	20f797d3          	fneg.s	fa5,fa5
    2f30:	01012783          	lw	a5,16(sp)
    2f34:	00f7a227          	fsw	fa5,4(a5)
    2f38:	ed9ff06f          	j	2e10 <__kernel_rem_pio2f+0x5f0>
    2f3c:	01412703          	lw	a4,20(sp)
    2f40:	00300793          	li	a5,3
    2f44:	ecf716e3          	bne	a4,a5,2e10 <__kernel_rem_pio2f+0x5f0>
    2f48:	040e8263          	beqz	t4,2f8c <__kernel_rem_pio2f+0x76c>
    2f4c:	16010713          	addi	a4,sp,352
    2f50:	01170733          	add	a4,a4,a7
    2f54:	002e9793          	slli	a5,t4,0x2
    2f58:	f6072707          	flw	fa4,-160(a4)
    2f5c:	ffc78793          	addi	a5,a5,-4
    2f60:	00f307b3          	add	a5,t1,a5
    2f64:	0007a787          	flw	fa5,0(a5)
    2f68:	20e706d3          	fmv.s	fa3,fa4
    2f6c:	00078713          	mv	a4,a5
    2f70:	00f77753          	fadd.s	fa4,fa4,fa5
    2f74:	ffc78793          	addi	a5,a5,-4
    2f78:	08e7f7d3          	fsub.s	fa5,fa5,fa4
    2f7c:	00e7a227          	fsw	fa4,4(a5)
    2f80:	00d7f7d3          	fadd.s	fa5,fa5,fa3
    2f84:	00f7a427          	fsw	fa5,8(a5)
    2f88:	fce31ee3          	bne	t1,a4,2f64 <__kernel_rem_pio2f+0x744>
    2f8c:	00100793          	li	a5,1
    2f90:	f00007d3          	fmv.w.x	fa5,zero
    2f94:	07d7d063          	bge	a5,t4,2ff4 <__kernel_rem_pio2f+0x7d4>
    2f98:	16010793          	addi	a5,sp,352
    2f9c:	011788b3          	add	a7,a5,a7
    2fa0:	f608a707          	flw	fa4,-160(a7)
    2fa4:	002e9793          	slli	a5,t4,0x2
    2fa8:	ffc78793          	addi	a5,a5,-4
    2fac:	00f30733          	add	a4,t1,a5
    2fb0:	00072787          	flw	fa5,0(a4)
    2fb4:	20e706d3          	fmv.s	fa3,fa4
    2fb8:	00070693          	mv	a3,a4
    2fbc:	00f77753          	fadd.s	fa4,fa4,fa5
    2fc0:	ffc70713          	addi	a4,a4,-4
    2fc4:	08e7f7d3          	fsub.s	fa5,fa5,fa4
    2fc8:	00e72227          	fsw	fa4,4(a4)
    2fcc:	00d7f7d3          	fadd.s	fa5,fa5,fa3
    2fd0:	00f72427          	fsw	fa5,8(a4)
    2fd4:	fce31ee3          	bne	t1,a4,2fb0 <__kernel_rem_pio2f+0x790>
    2fd8:	f00007d3          	fmv.w.x	fa5,zero
    2fdc:	00478793          	addi	a5,a5,4
    2fe0:	00f30333          	add	t1,t1,a5
    2fe4:	00032707          	flw	fa4,0(t1)
    2fe8:	ffc30313          	addi	t1,t1,-4
    2fec:	00e7f7d3          	fadd.s	fa5,fa5,fa4
    2ff0:	fe669ae3          	bne	a3,t1,2fe4 <__kernel_rem_pio2f+0x7c4>
    2ff4:	0c012687          	flw	fa3,192(sp)
    2ff8:	0c412707          	flw	fa4,196(sp)
    2ffc:	080c1463          	bnez	s8,3084 <__kernel_rem_pio2f+0x864>
    3000:	01012783          	lw	a5,16(sp)
    3004:	00d7a027          	fsw	fa3,0(a5)
    3008:	00e7a227          	fsw	fa4,4(a5)
    300c:	00f7a427          	fsw	fa5,8(a5)
    3010:	e01ff06f          	j	2e10 <__kernel_rem_pio2f+0x5f0>
    3014:	fffa0793          	addi	a5,s4,-1
    3018:	16010713          	addi	a4,sp,352
    301c:	00279793          	slli	a5,a5,0x2
    3020:	00f707b3          	add	a5,a4,a5
    3024:	ec07a703          	lw	a4,-320(a5)
    3028:	07f77713          	andi	a4,a4,127
    302c:	ece7a023          	sw	a4,-320(a5)
    3030:	c3dff06f          	j	2c6c <__kernel_rem_pio2f+0x44c>
    3034:	00800793          	li	a5,8
    3038:	00f12c23          	sw	a5,24(sp)
    303c:	00012023          	sw	zero,0(sp)
    3040:	895ff06f          	j	28d4 <__kernel_rem_pio2f+0xb4>
    3044:	00000e93          	li	t4,0
    3048:	bf5ff06f          	j	2c3c <__kernel_rem_pio2f+0x41c>
    304c:	c00517d3          	fcvt.w.s	a5,fa0,rtz
    3050:	16010713          	addi	a4,sp,352
    3054:	01370fb3          	add	t6,a4,s3
    3058:	000a0e93          	mv	t4,s4
    305c:	ecffa023          	sw	a5,-320(t6)
    3060:	c99ff06f          	j	2cf8 <__kernel_rem_pio2f+0x4d8>
    3064:	20f79753          	fneg.s	fa4,fa5
    3068:	01012783          	lw	a5,16(sp)
    306c:	00e7a027          	fsw	fa4,0(a5)
    3070:	0c012707          	flw	fa4,192(sp)
    3074:	08f777d3          	fsub.s	fa5,fa4,fa5
    3078:	e9d04ae3          	bgtz	t4,2f0c <__kernel_rem_pio2f+0x6ec>
    307c:	20f797d3          	fneg.s	fa5,fa5
    3080:	eb1ff06f          	j	2f30 <__kernel_rem_pio2f+0x710>
    3084:	01012783          	lw	a5,16(sp)
    3088:	20d696d3          	fneg.s	fa3,fa3
    308c:	20e71753          	fneg.s	fa4,fa4
    3090:	20f797d3          	fneg.s	fa5,fa5
    3094:	00d7a027          	fsw	fa3,0(a5)
    3098:	00e7a227          	fsw	fa4,4(a5)
    309c:	00f7a427          	fsw	fa5,8(a5)
    30a0:	d71ff06f          	j	2e10 <__kernel_rem_pio2f+0x5f0>
    30a4:	01412703          	lw	a4,20(sp)
    30a8:	00200793          	li	a5,2
    30ac:	00e7cc63          	blt	a5,a4,30c4 <__kernel_rem_pio2f+0x8a4>
    30b0:	f00007d3          	fmv.w.x	fa5,zero
    30b4:	e4e040e3          	bgtz	a4,2ef4 <__kernel_rem_pio2f+0x6d4>
    30b8:	d4071ce3          	bnez	a4,2e10 <__kernel_rem_pio2f+0x5f0>
    30bc:	d40c06e3          	beqz	s8,2e08 <__kernel_rem_pio2f+0x5e8>
    30c0:	d45ff06f          	j	2e04 <__kernel_rem_pio2f+0x5e4>
    30c4:	01412703          	lw	a4,20(sp)
    30c8:	00300793          	li	a5,3
    30cc:	f00007d3          	fmv.w.x	fa5,zero
    30d0:	f2f702e3          	beq	a4,a5,2ff4 <__kernel_rem_pio2f+0x7d4>
    30d4:	d3dff06f          	j	2e10 <__kernel_rem_pio2f+0x5f0>

000030d8 <__kernel_sinf>:
    30d8:	e00507d3          	fmv.x.w	a5,fa0
    30dc:	320006b7          	lui	a3,0x32000
    30e0:	00179713          	slli	a4,a5,0x1
    30e4:	00175713          	srli	a4,a4,0x1
    30e8:	00d75663          	bge	a4,a3,30f4 <__kernel_sinf+0x1c>
    30ec:	c0051753          	fcvt.w.s	a4,fa0,rtz
    30f0:	06070863          	beqz	a4,3160 <__kernel_sinf+0x88>
    30f4:	f00787d3          	fmv.w.x	fa5,a5
    30f8:	10f7f753          	fmul.s	fa4,fa5,fa5
    30fc:	8501a787          	flw	fa5,-1968(gp) # 8250 <_GLOBAL_OFFSET_TABLE_+0x7c>
    3100:	8541a687          	flw	fa3,-1964(gp) # 8254 <_GLOBAL_OFFSET_TABLE_+0x80>
    3104:	68f777c3          	fmadd.s	fa5,fa4,fa5,fa3
    3108:	8581a687          	flw	fa3,-1960(gp) # 8258 <_GLOBAL_OFFSET_TABLE_+0x84>
    310c:	68e7f7c3          	fmadd.s	fa5,fa5,fa4,fa3
    3110:	f00786d3          	fmv.w.x	fa3,a5
    3114:	10e6f553          	fmul.s	fa0,fa3,fa4
    3118:	85c1a687          	flw	fa3,-1956(gp) # 825c <_GLOBAL_OFFSET_TABLE_+0x88>
    311c:	68e7f7c3          	fmadd.s	fa5,fa5,fa4,fa3
    3120:	8601a687          	flw	fa3,-1952(gp) # 8260 <_GLOBAL_OFFSET_TABLE_+0x8c>
    3124:	68e7f7c3          	fmadd.s	fa5,fa5,fa4,fa3
    3128:	00051c63          	bnez	a0,3140 <__kernel_sinf+0x68>
    312c:	8641a687          	flw	fa3,-1948(gp) # 8264 <_GLOBAL_OFFSET_TABLE_+0x90>
    3130:	68f777c3          	fmadd.s	fa5,fa4,fa5,fa3
    3134:	f0078753          	fmv.w.x	fa4,a5
    3138:	70a7f543          	fmadd.s	fa0,fa5,fa0,fa4
    313c:	00008067          	ret
    3140:	10f577d3          	fmul.s	fa5,fa0,fa5
    3144:	80c1a687          	flw	fa3,-2036(gp) # 820c <_GLOBAL_OFFSET_TABLE_+0x38>
    3148:	78d5f7c7          	fmsub.s	fa5,fa1,fa3,fa5
    314c:	58e7f5c7          	fmsub.s	fa1,fa5,fa4,fa1
    3150:	8681a787          	flw	fa5,-1944(gp) # 8268 <_GLOBAL_OFFSET_TABLE_+0x94>
    3154:	58f57543          	fmadd.s	fa0,fa0,fa5,fa1
    3158:	f00787d3          	fmv.w.x	fa5,a5
    315c:	08a7f553          	fsub.s	fa0,fa5,fa0
    3160:	00008067          	ret

00003164 <fabsf>:
    3164:	20a52553          	fabs.s	fa0,fa0
    3168:	00008067          	ret

0000316c <floorf>:
    316c:	e00507d3          	fmv.x.w	a5,fa0
    3170:	01600613          	li	a2,22
    3174:	00179693          	slli	a3,a5,0x1
    3178:	0186d713          	srli	a4,a3,0x18
    317c:	f8170713          	addi	a4,a4,-127
    3180:	00078593          	mv	a1,a5
    3184:	0016d693          	srli	a3,a3,0x1
    3188:	08e64063          	blt	a2,a4,3208 <floorf+0x9c>
    318c:	04074663          	bltz	a4,31d8 <floorf+0x6c>
    3190:	00800537          	lui	a0,0x800
    3194:	fff50693          	addi	a3,a0,-1 # 7fffff <__stack+0x7f6d6f>
    3198:	40e6d6b3          	sra	a3,a3,a4
    319c:	00f6f833          	and	a6,a3,a5
    31a0:	e0050653          	fmv.x.w	a2,fa0
    31a4:	02080663          	beqz	a6,31d0 <floorf+0x64>
    31a8:	8701a787          	flw	fa5,-1936(gp) # 8270 <_GLOBAL_OFFSET_TABLE_+0x9c>
    31ac:	f0000753          	fmv.w.x	fa4,zero
    31b0:	00f577d3          	fadd.s	fa5,fa0,fa5
    31b4:	a0f71853          	flt.s	a6,fa4,fa5
    31b8:	00080c63          	beqz	a6,31d0 <floorf+0x64>
    31bc:	0007d663          	bgez	a5,31c8 <floorf+0x5c>
    31c0:	40e55733          	sra	a4,a0,a4
    31c4:	00f705b3          	add	a1,a4,a5
    31c8:	fff6c693          	not	a3,a3
    31cc:	00b6f633          	and	a2,a3,a1
    31d0:	f0060553          	fmv.w.x	fa0,a2
    31d4:	00008067          	ret
    31d8:	8701a787          	flw	fa5,-1936(gp) # 8270 <_GLOBAL_OFFSET_TABLE_+0x9c>
    31dc:	f0000753          	fmv.w.x	fa4,zero
    31e0:	e0050653          	fmv.x.w	a2,fa0
    31e4:	00f577d3          	fadd.s	fa5,fa0,fa5
    31e8:	a0f71753          	flt.s	a4,fa4,fa5
    31ec:	fe0702e3          	beqz	a4,31d0 <floorf+0x64>
    31f0:	e0070653          	fmv.x.w	a2,fa4
    31f4:	fc07dee3          	bgez	a5,31d0 <floorf+0x64>
    31f8:	e0050653          	fmv.x.w	a2,fa0
    31fc:	fc068ae3          	beqz	a3,31d0 <floorf+0x64>
    3200:	86c1a603          	lw	a2,-1940(gp) # 826c <_GLOBAL_OFFSET_TABLE_+0x98>
    3204:	fcdff06f          	j	31d0 <floorf+0x64>
    3208:	7f800737          	lui	a4,0x7f800
    320c:	e0050653          	fmv.x.w	a2,fa0
    3210:	fce6e0e3          	bltu	a3,a4,31d0 <floorf+0x64>
    3214:	00a577d3          	fadd.s	fa5,fa0,fa0
    3218:	e0078653          	fmv.x.w	a2,fa5
    321c:	f0060553          	fmv.w.x	fa0,a2
    3220:	00008067          	ret

00003224 <scalbnf>:
    3224:	e00507d3          	fmv.x.w	a5,fa0
    3228:	00179693          	slli	a3,a5,0x1
    322c:	0016d713          	srli	a4,a3,0x1
    3230:	04068e63          	beqz	a3,328c <scalbnf+0x68>
    3234:	7f8006b7          	lui	a3,0x7f800
    3238:	04d77e63          	bgeu	a4,a3,3294 <scalbnf+0x70>
    323c:	00d7f633          	and	a2,a5,a3
    3240:	06061263          	bnez	a2,32a4 <scalbnf+0x80>
    3244:	8741a787          	flw	fa5,-1932(gp) # 8274 <_GLOBAL_OFFSET_TABLE_+0xa0>
    3248:	ffff4737          	lui	a4,0xffff4
    324c:	cb070713          	addi	a4,a4,-848 # ffff3cb0 <__stack+0xfffeaa20>
    3250:	10f577d3          	fmul.s	fa5,fa0,fa5
    3254:	e00787d3          	fmv.x.w	a5,fa5
    3258:	0ae54663          	blt	a0,a4,3304 <scalbnf+0xe0>
    325c:	4177d713          	srai	a4,a5,0x17
    3260:	0ff77713          	andi	a4,a4,255
    3264:	fe770713          	addi	a4,a4,-25
    3268:	00a70733          	add	a4,a4,a0
    326c:	0fe00613          	li	a2,254
    3270:	00078693          	mv	a3,a5
    3274:	04e65263          	bge	a2,a4,32b8 <scalbnf+0x94>
    3278:	8701a707          	flw	fa4,-1936(gp) # 8270 <_GLOBAL_OFFSET_TABLE_+0x9c>
    327c:	f00787d3          	fmv.w.x	fa5,a5
    3280:	20f707d3          	fsgnj.s	fa5,fa4,fa5
    3284:	10e7f7d3          	fmul.s	fa5,fa5,fa4
    3288:	e00787d3          	fmv.x.w	a5,fa5
    328c:	f0078553          	fmv.w.x	fa0,a5
    3290:	00008067          	ret
    3294:	00a577d3          	fadd.s	fa5,fa0,fa0
    3298:	e00787d3          	fmv.x.w	a5,fa5
    329c:	f0078553          	fmv.w.x	fa0,a5
    32a0:	00008067          	ret
    32a4:	01775713          	srli	a4,a4,0x17
    32a8:	00a70733          	add	a4,a4,a0
    32ac:	0fe00613          	li	a2,254
    32b0:	00078693          	mv	a3,a5
    32b4:	fce642e3          	blt	a2,a4,3278 <scalbnf+0x54>
    32b8:	02e04863          	bgtz	a4,32e8 <scalbnf+0xc4>
    32bc:	fea00613          	li	a2,-22
    32c0:	04c75c63          	bge	a4,a2,3318 <scalbnf+0xf4>
    32c4:	0000c737          	lui	a4,0xc
    32c8:	35070713          	addi	a4,a4,848 # c350 <__stack+0x30c0>
    32cc:	faa746e3          	blt	a4,a0,3278 <scalbnf+0x54>
    32d0:	8781a707          	flw	fa4,-1928(gp) # 8278 <_GLOBAL_OFFSET_TABLE_+0xa4>
    32d4:	f00787d3          	fmv.w.x	fa5,a5
    32d8:	20f707d3          	fsgnj.s	fa5,fa4,fa5
    32dc:	10e7f7d3          	fmul.s	fa5,fa5,fa4
    32e0:	e00787d3          	fmv.x.w	a5,fa5
    32e4:	fa9ff06f          	j	328c <scalbnf+0x68>
    32e8:	808007b7          	lui	a5,0x80800
    32ec:	fff78793          	addi	a5,a5,-1 # 807fffff <__stack+0x807f6d6f>
    32f0:	00f6f6b3          	and	a3,a3,a5
    32f4:	01771793          	slli	a5,a4,0x17
    32f8:	00f6e7b3          	or	a5,a3,a5
    32fc:	f0078553          	fmv.w.x	fa0,a5
    3300:	00008067          	ret
    3304:	f0078753          	fmv.w.x	fa4,a5
    3308:	8781a787          	flw	fa5,-1928(gp) # 8278 <_GLOBAL_OFFSET_TABLE_+0xa4>
    330c:	10f777d3          	fmul.s	fa5,fa4,fa5
    3310:	e00787d3          	fmv.x.w	a5,fa5
    3314:	f79ff06f          	j	328c <scalbnf+0x68>
    3318:	01970793          	addi	a5,a4,25
    331c:	80800737          	lui	a4,0x80800
    3320:	fff70713          	addi	a4,a4,-1 # 807fffff <__stack+0x807f6d6f>
    3324:	00e6f6b3          	and	a3,a3,a4
    3328:	01779793          	slli	a5,a5,0x17
    332c:	00d7e7b3          	or	a5,a5,a3
    3330:	f0078753          	fmv.w.x	fa4,a5
    3334:	87c1a787          	flw	fa5,-1924(gp) # 827c <_GLOBAL_OFFSET_TABLE_+0xa8>
    3338:	10f777d3          	fmul.s	fa5,fa4,fa5
    333c:	e00787d3          	fmv.x.w	a5,fa5
    3340:	f4dff06f          	j	328c <scalbnf+0x68>

00003344 <_Z8drawrectffh>:
    3344:	fd010113          	addi	sp,sp,-48
    3348:	02812423          	sw	s0,40(sp)
    334c:	00004417          	auipc	s0,0x4
    3350:	e7440413          	addi	s0,s0,-396 # 71c0 <_ZZ8drawrectffhE4roll>
    3354:	01312827          	fsw	fs3,16(sp)
    3358:	00042987          	flw	fs3,0(s0)
    335c:	01512427          	fsw	fs5,8(sp)
    3360:	20a50ad3          	fmv.s	fs5,fa0
    3364:	21398553          	fmv.s	fa0,fs3
    3368:	02112623          	sw	ra,44(sp)
    336c:	02912223          	sw	s1,36(sp)
    3370:	00812e27          	fsw	fs0,28(sp)
    3374:	00912c27          	fsw	fs1,24(sp)
    3378:	01212a27          	fsw	fs2,20(sp)
    337c:	01412627          	fsw	fs4,12(sp)
    3380:	01612227          	fsw	fs6,4(sp)
    3384:	20b58a53          	fmv.s	fs4,fa1
    3388:	00050493          	mv	s1,a0
    338c:	f6dfe0ef          	jal	ra,22f8 <cosf>
    3390:	20a50953          	fmv.s	fs2,fa0
    3394:	21398553          	fmv.s	fa0,fs3
    3398:	800ff0ef          	jal	ra,2398 <sinf>
    339c:	00002797          	auipc	a5,0x2
    33a0:	ef87ab07          	flw	fs6,-264(a5) # 5294 <PIo2+0x54>
    33a4:	20a50453          	fmv.s	fs0,fa0
    33a8:	0169fb53          	fadd.s	fs6,fs3,fs6
    33ac:	216b0553          	fmv.s	fa0,fs6
    33b0:	f49fe0ef          	jal	ra,22f8 <cosf>
    33b4:	20a504d3          	fmv.s	fs1,fa0
    33b8:	216b0553          	fmv.s	fa0,fs6
    33bc:	fddfe0ef          	jal	ra,2398 <sinf>
    33c0:	00002797          	auipc	a5,0x2
    33c4:	ed87a587          	flw	fa1,-296(a5) # 5298 <PIo2+0x58>
    33c8:	00002797          	auipc	a5,0x2
    33cc:	ed47a707          	flw	fa4,-300(a5) # 529c <PIo2+0x5c>
    33d0:	a8b976cb          	fnmsub.s	fa3,fs2,fa1,fs5
    33d4:	a0b4764b          	fnmsub.s	fa2,fs0,fa1,fs4
    33d8:	a8b97943          	fmadd.s	fs2,fs2,fa1,fs5
    33dc:	a0b47443          	fmadd.s	fs0,fs0,fa1,fs4
    33e0:	20a507d3          	fmv.s	fa5,fa0
    33e4:	68e4f04b          	fnmsub.s	ft0,fs1,fa4,fa3
    33e8:	60e570cb          	fnmsub.s	ft1,fa0,fa4,fa2
    33ec:	90e4f5cb          	fnmsub.s	fa1,fs1,fa4,fs2
    33f0:	40e5754b          	fnmsub.s	fa0,fa0,fa4,fs0
    33f4:	68e4f6c3          	fmadd.s	fa3,fs1,fa4,fa3
    33f8:	90e4f4c3          	fmadd.s	fs1,fs1,fa4,fs2
    33fc:	40e7f443          	fmadd.s	fs0,fa5,fa4,fs0
    3400:	c0001753          	fcvt.w.s	a4,ft0,rtz
    3404:	c00097d3          	fcvt.w.s	a5,ft1,rtz
    3408:	c0059553          	fcvt.w.s	a0,fa1,rtz
    340c:	c00516d3          	fcvt.w.s	a3,fa0,rtz
    3410:	01071713          	slli	a4,a4,0x10
    3414:	c00498d3          	fcvt.w.s	a7,fs1,rtz
    3418:	41075713          	srai	a4,a4,0x10
    341c:	00005617          	auipc	a2,0x5
    3420:	dc062603          	lw	a2,-576(a2) # 81dc <_GLOBAL_OFFSET_TABLE_+0x8>
    3424:	01079793          	slli	a5,a5,0x10
    3428:	00062583          	lw	a1,0(a2)
    342c:	00e7e7b3          	or	a5,a5,a4
    3430:	01051513          	slli	a0,a0,0x10
    3434:	c0041753          	fcvt.w.s	a4,fs0,rtz
    3438:	41055513          	srai	a0,a0,0x10
    343c:	00a79813          	slli	a6,a5,0xa
    3440:	0167d613          	srli	a2,a5,0x16
    3444:	01069693          	slli	a3,a3,0x10
    3448:	00a6e6b3          	or	a3,a3,a0
    344c:	08186813          	ori	a6,a6,129
    3450:	00a61613          	slli	a2,a2,0xa
    3454:	01089893          	slli	a7,a7,0x10
    3458:	0105a023          	sw	a6,0(a1)
    345c:	60e7f7c3          	fmadd.s	fa5,fa5,fa4,fa2
    3460:	09166613          	ori	a2,a2,145
    3464:	00a69813          	slli	a6,a3,0xa
    3468:	01071713          	slli	a4,a4,0x10
    346c:	4108d893          	srai	a7,a7,0x10
    3470:	0166d693          	srli	a3,a3,0x16
    3474:	00c5a223          	sw	a2,4(a1)
    3478:	01176733          	or	a4,a4,a7
    347c:	10186613          	ori	a2,a6,257
    3480:	00a69693          	slli	a3,a3,0xa
    3484:	00c5a423          	sw	a2,8(a1)
    3488:	1216e693          	ori	a3,a3,289
    348c:	00a71613          	slli	a2,a4,0xa
    3490:	00d5a623          	sw	a3,12(a1)
    3494:	18166693          	ori	a3,a2,385
    3498:	00d5a823          	sw	a3,16(a1)
    349c:	c0069553          	fcvt.w.s	a0,fa3,rtz
    34a0:	00002697          	auipc	a3,0x2
    34a4:	c00797d3          	fcvt.w.s	a5,fa5,rtz
    34a8:	e006a787          	flw	fa5,-512(a3) # 52a0 <PIo2+0x60>
    34ac:	01051513          	slli	a0,a0,0x10
    34b0:	41055513          	srai	a0,a0,0x10
    34b4:	00f9f9d3          	fadd.s	fs3,fs3,fa5
    34b8:	01079793          	slli	a5,a5,0x10
    34bc:	01675713          	srli	a4,a4,0x16
    34c0:	00a7e7b3          	or	a5,a5,a0
    34c4:	00a71713          	slli	a4,a4,0xa
    34c8:	1b176713          	ori	a4,a4,433
    34cc:	00a79693          	slli	a3,a5,0xa
    34d0:	0167d793          	srli	a5,a5,0x16
    34d4:	00e5aa23          	sw	a4,20(a1)
    34d8:	2016e693          	ori	a3,a3,513
    34dc:	fff4c713          	not	a4,s1
    34e0:	00a79793          	slli	a5,a5,0xa
    34e4:	00001537          	lui	a0,0x1
    34e8:	00d5a423          	sw	a3,8(a1)
    34ec:	2417e793          	ori	a5,a5,577
    34f0:	00d49493          	slli	s1,s1,0xd
    34f4:	0ff77713          	andi	a4,a4,255
    34f8:	d1550513          	addi	a0,a0,-747 # d15 <_STACK_SIZE-0x2eb>
    34fc:	00f5a623          	sw	a5,12(a1)
    3500:	01342027          	fsw	fs3,0(s0)
    3504:	02c12083          	lw	ra,44(sp)
    3508:	02812403          	lw	s0,40(sp)
    350c:	00a4e4b3          	or	s1,s1,a0
    3510:	00d71793          	slli	a5,a4,0xd
    3514:	0095ac23          	sw	s1,24(a1)
    3518:	6357e793          	ori	a5,a5,1589
    351c:	00f5ac23          	sw	a5,24(a1)
    3520:	02412483          	lw	s1,36(sp)
    3524:	01c12407          	flw	fs0,28(sp)
    3528:	01812487          	flw	fs1,24(sp)
    352c:	01412907          	flw	fs2,20(sp)
    3530:	01012987          	flw	fs3,16(sp)
    3534:	00c12a07          	flw	fs4,12(sp)
    3538:	00812a87          	flw	fs5,8(sp)
    353c:	00412b07          	flw	fs6,4(sp)
    3540:	03010113          	addi	sp,sp,48
    3544:	00008067          	ret

00003548 <_Z14resetparticlesPs>:
    3548:	fe010113          	addi	sp,sp,-32
    354c:	00912a23          	sw	s1,20(sp)
    3550:	000014b7          	lui	s1,0x1
    3554:	00812c23          	sw	s0,24(sp)
    3558:	01212823          	sw	s2,16(sp)
    355c:	01312623          	sw	s3,12(sp)
    3560:	00112e23          	sw	ra,28(sp)
    3564:	00050413          	mv	s0,a0
    3568:	009504b3          	add	s1,a0,s1
    356c:	0e800993          	li	s3,232
    3570:	fe000913          	li	s2,-32
    3574:	0fd010ef          	jal	ra,4e70 <_Z6Randomv>
    3578:	03357533          	remu	a0,a0,s3
    357c:	01241123          	sh	s2,2(s0)
    3580:	00840413          	addi	s0,s0,8
    3584:	01050513          	addi	a0,a0,16
    3588:	fea41c23          	sh	a0,-8(s0)
    358c:	0e5010ef          	jal	ra,4e70 <_Z6Randomv>
    3590:	00757513          	andi	a0,a0,7
    3594:	00250513          	addi	a0,a0,2
    3598:	fea41e23          	sh	a0,-4(s0)
    359c:	0d5010ef          	jal	ra,4e70 <_Z6Randomv>
    35a0:	01f57513          	andi	a0,a0,31
    35a4:	0c050513          	addi	a0,a0,192
    35a8:	fea41f23          	sh	a0,-2(s0)
    35ac:	fc9414e3          	bne	s0,s1,3574 <_Z14resetparticlesPs+0x2c>
    35b0:	01c12083          	lw	ra,28(sp)
    35b4:	01812403          	lw	s0,24(sp)
    35b8:	01412483          	lw	s1,20(sp)
    35bc:	01012903          	lw	s2,16(sp)
    35c0:	00c12983          	lw	s3,12(sp)
    35c4:	02010113          	addi	sp,sp,32
    35c8:	00008067          	ret

000035cc <_Z13drawparticlesPs>:
    35cc:	fe010113          	addi	sp,sp,-32
    35d0:	01412423          	sw	s4,8(sp)
    35d4:	00001a37          	lui	s4,0x1
    35d8:	00912a23          	sw	s1,20(sp)
    35dc:	002a0a13          	addi	s4,s4,2 # 1002 <_STACK_SIZE+0x2>
    35e0:	00250493          	addi	s1,a0,2
    35e4:	00812c23          	sw	s0,24(sp)
    35e8:	01212823          	sw	s2,16(sp)
    35ec:	01312623          	sw	s3,12(sp)
    35f0:	00112e23          	sw	ra,28(sp)
    35f4:	00050993          	mv	s3,a0
    35f8:	01450a33          	add	s4,a0,s4
    35fc:	00048413          	mv	s0,s1
    3600:	01800913          	li	s2,24
    3604:	00c0006f          	j	3610 <_Z13drawparticlesPs+0x44>
    3608:	00840413          	addi	s0,s0,8
    360c:	028a0e63          	beq	s4,s0,3648 <_Z13drawparticlesPs+0x7c>
    3610:	00045783          	lhu	a5,0(s0)
    3614:	00245683          	lhu	a3,2(s0)
    3618:	00441703          	lh	a4,4(s0)
    361c:	00d787b3          	add	a5,a5,a3
    3620:	01079793          	slli	a5,a5,0x10
    3624:	4107d793          	srai	a5,a5,0x10
    3628:	00f41023          	sh	a5,0(s0)
    362c:	fcf75ee3          	bge	a4,a5,3608 <_Z13drawparticlesPs+0x3c>
    3630:	041010ef          	jal	ra,4e70 <_Z6Randomv>
    3634:	032577b3          	remu	a5,a0,s2
    3638:	00840413          	addi	s0,s0,8
    363c:	fe878793          	addi	a5,a5,-24
    3640:	fef41c23          	sh	a5,-8(s0)
    3644:	fc8a16e3          	bne	s4,s0,3610 <_Z13drawparticlesPs+0x44>
    3648:	88c18413          	addi	s0,gp,-1908 # 828c <_ZZ13drawparticlesPsE12spawnerindex>
    364c:	00042783          	lw	a5,0(s0)
    3650:	fe000693          	li	a3,-32
    3654:	00178793          	addi	a5,a5,1
    3658:	41f7d713          	srai	a4,a5,0x1f
    365c:	01775713          	srli	a4,a4,0x17
    3660:	00e787b3          	add	a5,a5,a4
    3664:	1ff7f793          	andi	a5,a5,511
    3668:	40e787b3          	sub	a5,a5,a4
    366c:	00179713          	slli	a4,a5,0x1
    3670:	00f70733          	add	a4,a4,a5
    3674:	00171713          	slli	a4,a4,0x1
    3678:	00e98733          	add	a4,s3,a4
    367c:	00271703          	lh	a4,2(a4)
    3680:	00f42023          	sw	a5,0(s0)
    3684:	10d74063          	blt	a4,a3,3784 <_Z13drawparticlesPs+0x1b8>
    3688:	00005797          	auipc	a5,0x5
    368c:	b547a783          	lw	a5,-1196(a5) # 81dc <_GLOBAL_OFFSET_TABLE_+0x8>
    3690:	0007a603          	lw	a2,0(a5)
    3694:	00001537          	lui	a0,0x1
    3698:	00000593          	li	a1,0
    369c:	fff00e13          	li	t3,-1
    36a0:	001fe337          	lui	t1,0x1fe
    36a4:	d1550513          	addi	a0,a0,-747 # d15 <_STACK_SIZE-0x2eb>
    36a8:	000028b7          	lui	a7,0x2
    36ac:	00400837          	lui	a6,0x400
    36b0:	00049683          	lh	a3,0(s1) # 1000 <_STACK_SIZE>
    36b4:	0065ff33          	and	t5,a1,t1
    36b8:	00af6f33          	or	t5,t5,a0
    36bc:	01069793          	slli	a5,a3,0x10
    36c0:	0107d793          	srli	a5,a5,0x10
    36c4:	ffe78713          	addi	a4,a5,-2
    36c8:	00278793          	addi	a5,a5,2
    36cc:	011585b3          	add	a1,a1,a7
    36d0:	01071713          	slli	a4,a4,0x10
    36d4:	01079793          	slli	a5,a5,0x10
    36d8:	09c68263          	beq	a3,t3,375c <_Z13drawparticlesPs+0x190>
    36dc:	ffe4de83          	lhu	t4,-2(s1)
    36e0:	ffee8693          	addi	a3,t4,-2
    36e4:	01069693          	slli	a3,a3,0x10
    36e8:	4106d693          	srai	a3,a3,0x10
    36ec:	002e8e93          	addi	t4,t4,2
    36f0:	00e6e6b3          	or	a3,a3,a4
    36f4:	010e9e93          	slli	t4,t4,0x10
    36f8:	410ede93          	srai	t4,t4,0x10
    36fc:	00a69f93          	slli	t6,a3,0xa
    3700:	0166d693          	srli	a3,a3,0x16
    3704:	01d76733          	or	a4,a4,t4
    3708:	081fef93          	ori	t6,t6,129
    370c:	00a69693          	slli	a3,a3,0xa
    3710:	01f62023          	sw	t6,0(a2)
    3714:	0916e693          	ori	a3,a3,145
    3718:	00a71f93          	slli	t6,a4,0xa
    371c:	01675713          	srli	a4,a4,0x16
    3720:	00d62223          	sw	a3,4(a2)
    3724:	01d7e7b3          	or	a5,a5,t4
    3728:	101fe693          	ori	a3,t6,257
    372c:	00a71713          	slli	a4,a4,0xa
    3730:	00d62423          	sw	a3,8(a2)
    3734:	12176713          	ori	a4,a4,289
    3738:	00a79693          	slli	a3,a5,0xa
    373c:	0167d793          	srli	a5,a5,0x16
    3740:	00e62623          	sw	a4,12(a2)
    3744:	00a79793          	slli	a5,a5,0xa
    3748:	1816e713          	ori	a4,a3,385
    374c:	00e62823          	sw	a4,16(a2)
    3750:	1b17e793          	ori	a5,a5,433
    3754:	00f62a23          	sw	a5,20(a2)
    3758:	01e62c23          	sw	t5,24(a2)
    375c:	00848493          	addi	s1,s1,8
    3760:	f50598e3          	bne	a1,a6,36b0 <_Z13drawparticlesPs+0xe4>
    3764:	01c12083          	lw	ra,28(sp)
    3768:	01812403          	lw	s0,24(sp)
    376c:	01412483          	lw	s1,20(sp)
    3770:	01012903          	lw	s2,16(sp)
    3774:	00c12983          	lw	s3,12(sp)
    3778:	00812a03          	lw	s4,8(sp)
    377c:	02010113          	addi	sp,sp,32
    3780:	00008067          	ret
    3784:	6ec010ef          	jal	ra,4e70 <_Z6Randomv>
    3788:	0e800713          	li	a4,232
    378c:	02e57733          	remu	a4,a0,a4
    3790:	00042683          	lw	a3,0(s0)
    3794:	00169793          	slli	a5,a3,0x1
    3798:	00d787b3          	add	a5,a5,a3
    379c:	00179793          	slli	a5,a5,0x1
    37a0:	00f987b3          	add	a5,s3,a5
    37a4:	01070713          	addi	a4,a4,16
    37a8:	00e79023          	sh	a4,0(a5)
    37ac:	6c4010ef          	jal	ra,4e70 <_Z6Randomv>
    37b0:	00042683          	lw	a3,0(s0)
    37b4:	00357713          	andi	a4,a0,3
    37b8:	00270713          	addi	a4,a4,2
    37bc:	00169793          	slli	a5,a3,0x1
    37c0:	00d787b3          	add	a5,a5,a3
    37c4:	00179793          	slli	a5,a5,0x1
    37c8:	00f987b3          	add	a5,s3,a5
    37cc:	00e79223          	sh	a4,4(a5)
    37d0:	6a0010ef          	jal	ra,4e70 <_Z6Randomv>
    37d4:	00042703          	lw	a4,0(s0)
    37d8:	01f57793          	andi	a5,a0,31
    37dc:	0c078793          	addi	a5,a5,192
    37e0:	00371713          	slli	a4,a4,0x3
    37e4:	00e989b3          	add	s3,s3,a4
    37e8:	00f99323          	sh	a5,6(s3)
    37ec:	e9dff06f          	j	3688 <_Z13drawparticlesPs+0xbc>

000037f0 <main>:
    37f0:	f8010113          	addi	sp,sp,-128
    37f4:	07212823          	sw	s2,112(sp)
    37f8:	00005917          	auipc	s2,0x5
    37fc:	9e492903          	lw	s2,-1564(s2) # 81dc <_GLOBAL_OFFSET_TABLE_+0x8>
    3800:	00092783          	lw	a5,0(s2)
    3804:	06812c23          	sw	s0,120(sp)
    3808:	06912a23          	sw	s1,116(sp)
    380c:	07312623          	sw	s3,108(sp)
    3810:	07412423          	sw	s4,104(sp)
    3814:	07512223          	sw	s5,100(sp)
    3818:	07612023          	sw	s6,96(sp)
    381c:	05712e23          	sw	s7,92(sp)
    3820:	05812c23          	sw	s8,88(sp)
    3824:	05912a23          	sw	s9,84(sp)
    3828:	05b12623          	sw	s11,76(sp)
    382c:	06112e23          	sw	ra,124(sp)
    3830:	05a12823          	sw	s10,80(sp)
    3834:	fffff337          	lui	t1,0xfffff
    3838:	38100713          	li	a4,897
    383c:	00e7a023          	sw	a4,0(a5)
    3840:	00610133          	add	sp,sp,t1
    3844:	000016b7          	lui	a3,0x1
    3848:	3f100713          	li	a4,1009
    384c:	00e7a223          	sw	a4,4(a5)
    3850:	00068413          	mv	s0,a3
    3854:	03068713          	addi	a4,a3,48 # 1030 <_STACK_SIZE+0x30>
    3858:	01010693          	addi	a3,sp,16
    385c:	00d70733          	add	a4,a4,a3
    3860:	fffffa37          	lui	s4,0xfffff
    3864:	01470cb3          	add	s9,a4,s4
    3868:	78788737          	lui	a4,0x78788
    386c:	87870713          	addi	a4,a4,-1928 # 78787878 <__stack+0x7877e5e8>
    3870:	feeca023          	sw	a4,-32(s9)
    3874:	feeca223          	sw	a4,-28(s9)
    3878:	fc0cae23          	sw	zero,-36(s9)
    387c:	fe0c8423          	sb	zero,-24(s9)
    3880:	30100713          	li	a4,769
    3884:	00e7a023          	sw	a4,0(a5)
    3888:	36100713          	li	a4,865
    388c:	00e7a223          	sw	a4,4(a5)
    3890:	06700713          	li	a4,103
    3894:	00e7a423          	sw	a4,8(a5)
    3898:	000c8513          	mv	a0,s9
    389c:	cadff0ef          	jal	ra,3548 <_Z14resetparticlesPs>
    38a0:	03040713          	addi	a4,s0,48
    38a4:	01010613          	addi	a2,sp,16
    38a8:	fdca0793          	addi	a5,s4,-36 # ffffefdc <__stack+0xffff5d4c>
    38ac:	00c70733          	add	a4,a4,a2
    38b0:	00f707b3          	add	a5,a4,a5
    38b4:	0167da93          	srli	s5,a5,0x16
    38b8:	00a79793          	slli	a5,a5,0xa
    38bc:	00aa9a93          	slli	s5,s5,0xa
    38c0:	0817e793          	ori	a5,a5,129
    38c4:	00040693          	mv	a3,s0
    38c8:	00f12423          	sw	a5,8(sp)
    38cc:	091ae793          	ori	a5,s5,145
    38d0:	00f12623          	sw	a5,12(sp)
    38d4:	00092703          	lw	a4,0(s2)
    38d8:	03068793          	addi	a5,a3,48
    38dc:	fe0a0a13          	addi	s4,s4,-32
    38e0:	00010b37          	lui	s6,0x10
    38e4:	00001bb7          	lui	s7,0x1
    38e8:	00c787b3          	add	a5,a5,a2
    38ec:	00000d93          	li	s11,0
    38f0:	00000413          	li	s0,0
    38f4:	00000a93          	li	s5,0
    38f8:	00000493          	li	s1,0
    38fc:	00000993          	li	s3,0
    3900:	fffb0b13          	addi	s6,s6,-1 # ffff <__stack+0x6d6f>
    3904:	00100c13          	li	s8,1
    3908:	800b8b93          	addi	s7,s7,-2048 # 800 <_STACK_SIZE-0x800>
    390c:	01478a33          	add	s4,a5,s4
    3910:	fffacd13          	not	s10,s5
    3914:	0ffd7d13          	andi	s10,s10,255
    3918:	fdcca783          	lw	a5,-36(s9)
    391c:	ff579ee3          	bne	a5,s5,3918 <main+0x128>
    3920:	07300793          	li	a5,115
    3924:	00f72a23          	sw	a5,20(a4)
    3928:	000c8513          	mv	a0,s9
    392c:	ca1ff0ef          	jal	ra,35cc <_Z13drawparticlesPs>
    3930:	010d9793          	slli	a5,s11,0x10
    3934:	0ffaf713          	andi	a4,s5,255
    3938:	00e7e733          	or	a4,a5,a4
    393c:	016df7b3          	and	a5,s11,s6
    3940:	00f767b3          	or	a5,a4,a5
    3944:	008d9693          	slli	a3,s11,0x8
    3948:	00ff0737          	lui	a4,0xff0
    394c:	00e6f6b3          	and	a3,a3,a4
    3950:	010d1613          	slli	a2,s10,0x10
    3954:	018d1713          	slli	a4,s10,0x18
    3958:	00092583          	lw	a1,0(s2)
    395c:	00d7e7b3          	or	a5,a5,a3
    3960:	00c76733          	or	a4,a4,a2
    3964:	00a79693          	slli	a3,a5,0xa
    3968:	01a76733          	or	a4,a4,s10
    396c:	0167d793          	srli	a5,a5,0x16
    3970:	008d1d13          	slli	s10,s10,0x8
    3974:	01a76733          	or	a4,a4,s10
    3978:	1016e693          	ori	a3,a3,257
    397c:	00a79793          	slli	a5,a5,0xa
    3980:	00d5a023          	sw	a3,0(a1)
    3984:	1217e793          	ori	a5,a5,289
    3988:	00a71693          	slli	a3,a4,0xa
    398c:	01675713          	srli	a4,a4,0x16
    3990:	00f5a223          	sw	a5,4(a1)
    3994:	1816e693          	ori	a3,a3,385
    3998:	00a71793          	slli	a5,a4,0xa
    399c:	00d5a023          	sw	a3,0(a1)
    39a0:	1b17e793          	ori	a5,a5,433
    39a4:	001a8d13          	addi	s10,s5,1
    39a8:	00f5a223          	sw	a5,4(a1)
    39ac:	00098693          	mv	a3,s3
    39b0:	00098613          	mv	a2,s3
    39b4:	00000713          	li	a4,0
    39b8:	ffffceb7          	lui	t4,0xffffc
    39bc:	0ad00e13          	li	t3,173
    39c0:	00300313          	li	t1,3
    39c4:	00200f13          	li	t5,2
    39c8:	0fffc8b7          	lui	a7,0xfffc
    39cc:	10000513          	li	a0,256
    39d0:	3ff67f93          	andi	t6,a2,1023
    39d4:	00003797          	auipc	a5,0x3
    39d8:	002f9f93          	slli	t6,t6,0x2
    39dc:	7f078793          	addi	a5,a5,2032 # 71c4 <sinewave>
    39e0:	01f787b3          	add	a5,a5,t6
    39e4:	0007a783          	lw	a5,0(a5)
    39e8:	00002fb7          	lui	t6,0x2
    39ec:	00260613          	addi	a2,a2,2
    39f0:	00fe87b3          	add	a5,t4,a5
    39f4:	03c7c7b3          	div	a5,a5,t3
    39f8:	06078793          	addi	a5,a5,96
    39fc:	00879793          	slli	a5,a5,0x8
    3a00:	00e787b3          	add	a5,a5,a4
    3a04:	0037f293          	andi	t0,a5,3
    3a08:	0027d793          	srli	a5,a5,0x2
    3a0c:	00e79793          	slli	a5,a5,0xe
    3a10:	00170713          	addi	a4,a4,1 # ff0001 <__stack+0xfe6d71>
    3a14:	0117f7b3          	and	a5,a5,a7
    3a18:	00628c63          	beq	t0,t1,3a30 <main+0x240>
    3a1c:	00001fb7          	lui	t6,0x1
    3a20:	01e28863          	beq	t0,t5,3a30 <main+0x240>
    3a24:	000b8f93          	mv	t6,s7
    3a28:	01828463          	beq	t0,s8,3a30 <main+0x240>
    3a2c:	40000f93          	li	t6,1024
    3a30:	01f7e7b3          	or	a5,a5,t6
    3a34:	0227e793          	ori	a5,a5,34
    3a38:	00f5a423          	sw	a5,8(a1)
    3a3c:	f8a71ae3          	bne	a4,a0,39d0 <main+0x1e0>
    3a40:	00000713          	li	a4,0
    3a44:	ffffce37          	lui	t3,0xffffc
    3a48:	08200313          	li	t1,130
    3a4c:	00300893          	li	a7,3
    3a50:	00200e93          	li	t4,2
    3a54:	0fffc537          	lui	a0,0xfffc
    3a58:	0000c637          	lui	a2,0xc
    3a5c:	3ff6ff13          	andi	t5,a3,1023
    3a60:	00003797          	auipc	a5,0x3
    3a64:	002f1f13          	slli	t5,t5,0x2
    3a68:	76478793          	addi	a5,a5,1892 # 71c4 <sinewave>
    3a6c:	01e787b3          	add	a5,a5,t5
    3a70:	0007a783          	lw	a5,0(a5)
    3a74:	00002f37          	lui	t5,0x2
    3a78:	00368693          	addi	a3,a3,3
    3a7c:	00fe07b3          	add	a5,t3,a5
    3a80:	0267c7b3          	div	a5,a5,t1
    3a84:	08078793          	addi	a5,a5,128
    3a88:	00e787b3          	add	a5,a5,a4
    3a8c:	0037ff93          	andi	t6,a5,3
    3a90:	0027d793          	srli	a5,a5,0x2
    3a94:	00e79793          	slli	a5,a5,0xe
    3a98:	10070713          	addi	a4,a4,256
    3a9c:	00a7f7b3          	and	a5,a5,a0
    3aa0:	011f8c63          	beq	t6,a7,3ab8 <main+0x2c8>
    3aa4:	00001f37          	lui	t5,0x1
    3aa8:	01df8863          	beq	t6,t4,3ab8 <main+0x2c8>
    3aac:	000b8f13          	mv	t5,s7
    3ab0:	018f8463          	beq	t6,s8,3ab8 <main+0x2c8>
    3ab4:	40000f13          	li	t5,1024
    3ab8:	01e7e7b3          	or	a5,a5,t5
    3abc:	0327e793          	ori	a5,a5,50
    3ac0:	00f5a423          	sw	a5,8(a1)
    3ac4:	f8c71ce3          	bne	a4,a2,3a5c <main+0x26c>
    3ac8:	03c00793          	li	a5,60
    3acc:	02fd77b3          	remu	a5,s10,a5
    3ad0:	01a98993          	addi	s3,s3,26
    3ad4:	00079463          	bnez	a5,3adc <main+0x2ec>
    3ad8:	00448493          	addi	s1,s1,4
    3adc:	03c00513          	li	a0,60
    3ae0:	02a4e533          	rem	a0,s1,a0
    3ae4:	00001617          	auipc	a2,0x1
    3ae8:	00000693          	li	a3,0
    3aec:	78860613          	addi	a2,a2,1928 # 526c <PIo2+0x2c>
    3af0:	06000593          	li	a1,96
    3af4:	00144413          	xori	s0,s0,1
    3af8:	100d8d93          	addi	s11,s11,256
    3afc:	000d0a93          	mv	s5,s10
    3b00:	160000ef          	jal	ra,3c60 <_Z8PrintDMAiiPKcb>
    3b04:	fdccaf03          	lw	t5,-36(s9)
    3b08:	fdcca303          	lw	t1,-36(s9)
    3b0c:	fdcca783          	lw	a5,-36(s9)
    3b10:	00001e17          	auipc	t3,0x1
    3b14:	fdcca583          	lw	a1,-36(s9)
    3b18:	fdcca603          	lw	a2,-36(s9)
    3b1c:	fdcca683          	lw	a3,-36(s9)
    3b20:	fdcca703          	lw	a4,-36(s9)
    3b24:	770e0e13          	addi	t3,t3,1904 # 5280 <PIo2+0x40>
    3b28:	0147d513          	srli	a0,a5,0x14
    3b2c:	004e2383          	lw	t2,4(t3)
    3b30:	008e2283          	lw	t0,8(t3)
    3b34:	00ce2f83          	lw	t6,12(t3)
    3b38:	00f57793          	andi	a5,a0,15
    3b3c:	000e2503          	lw	a0,0(t3)
    3b40:	01835313          	srli	t1,t1,0x18
    3b44:	0105d593          	srli	a1,a1,0x10
    3b48:	00c65613          	srli	a2,a2,0xc
    3b4c:	0086d693          	srli	a3,a3,0x8
    3b50:	00475713          	srli	a4,a4,0x4
    3b54:	fdccae83          	lw	t4,-36(s9)
    3b58:	00f5f593          	andi	a1,a1,15
    3b5c:	01cf5f13          	srli	t5,t5,0x1c
    3b60:	00f37313          	andi	t1,t1,15
    3b64:	00f67613          	andi	a2,a2,15
    3b68:	00f6f693          	andi	a3,a3,15
    3b6c:	00f77713          	andi	a4,a4,15
    3b70:	fe7ca823          	sw	t2,-16(s9)
    3b74:	fe5caa23          	sw	t0,-12(s9)
    3b78:	fffcac23          	sw	t6,-8(s9)
    3b7c:	feaca623          	sw	a0,-20(s9)
    3b80:	00bc8fb3          	add	t6,s9,a1
    3b84:	01ec8f33          	add	t5,s9,t5
    3b88:	006c8333          	add	t1,s9,t1
    3b8c:	00fc87b3          	add	a5,s9,a5
    3b90:	00cc8633          	add	a2,s9,a2
    3b94:	00dc86b3          	add	a3,s9,a3
    3b98:	00ec8733          	add	a4,s9,a4
    3b9c:	fecf4503          	lbu	a0,-20(t5) # fec <_STACK_SIZE-0x14>
    3ba0:	fec34583          	lbu	a1,-20(t1) # ffffefec <__stack+0xffff5d5c>
    3ba4:	fec74703          	lbu	a4,-20(a4)
    3ba8:	fec7c303          	lbu	t1,-20(a5)
    3bac:	010e4e03          	lbu	t3,16(t3)
    3bb0:	fecfcf03          	lbu	t5,-20(t6) # fec <_STACK_SIZE-0x14>
    3bb4:	fec64603          	lbu	a2,-20(a2)
    3bb8:	fec6c683          	lbu	a3,-20(a3)
    3bbc:	00fef793          	andi	a5,t4,15
    3bc0:	00fc87b3          	add	a5,s9,a5
    3bc4:	feec8323          	sb	a4,-26(s9)
    3bc8:	ffcc8e23          	sb	t3,-4(s9)
    3bcc:	feac8023          	sb	a0,-32(s9)
    3bd0:	febc80a3          	sb	a1,-31(s9)
    3bd4:	fe6c8123          	sb	t1,-30(s9)
    3bd8:	ffec81a3          	sb	t5,-29(s9)
    3bdc:	fecc8223          	sb	a2,-28(s9)
    3be0:	fedc82a3          	sb	a3,-27(s9)
    3be4:	fec7c783          	lbu	a5,-20(a5)
    3be8:	00100693          	li	a3,1
    3bec:	000a0613          	mv	a2,s4
    3bf0:	fefc83a3          	sb	a5,-25(s9)
    3bf4:	0a000593          	li	a1,160
    3bf8:	01000513          	li	a0,16
    3bfc:	064000ef          	jal	ra,3c60 <_Z8PrintDMAiiPKcb>
    3c00:	00092703          	lw	a4,0(s2)
    3c04:	00a41793          	slli	a5,s0,0xa
    3c08:	0817e793          	ori	a5,a5,129
    3c0c:	00f72023          	sw	a5,0(a4)
    3c10:	09100793          	li	a5,145
    3c14:	00f72223          	sw	a5,4(a4)
    3c18:	01700793          	li	a5,23
    3c1c:	00f72423          	sw	a5,8(a4)
    3c20:	00812783          	lw	a5,8(sp)
    3c24:	00c12603          	lw	a2,12(sp)
    3c28:	00072823          	sw	zero,16(a4)
    3c2c:	00f72023          	sw	a5,0(a4)
    3c30:	00ad1693          	slli	a3,s10,0xa
    3c34:	016d5793          	srli	a5,s10,0x16
    3c38:	00c72223          	sw	a2,4(a4)
    3c3c:	1016e693          	ori	a3,a3,257
    3c40:	00a79793          	slli	a5,a5,0xa
    3c44:	00d72023          	sw	a3,0(a4)
    3c48:	1217e793          	ori	a5,a5,289
    3c4c:	00f72223          	sw	a5,4(a4)
    3c50:	0a600793          	li	a5,166
    3c54:	00f72823          	sw	a5,16(a4)
    3c58:	fc0cae23          	sw	zero,-36(s9)
    3c5c:	cb5ff06f          	j	3910 <main+0x120>

00003c60 <_Z8PrintDMAiiPKcb>:
    3c60:	00064703          	lbu	a4,0(a2)
    3c64:	08070c63          	beqz	a4,3cfc <_Z8PrintDMAiiPKcb+0x9c>
    3c68:	00004797          	auipc	a5,0x4
    3c6c:	00d03833          	snez	a6,a3
    3c70:	00158293          	addi	t0,a1,1
    3c74:	00859693          	slli	a3,a1,0x8
    3c78:	00258f93          	addi	t6,a1,2
    3c7c:	00358f13          	addi	t5,a1,3
    3c80:	00458e93          	addi	t4,a1,4
    3c84:	00558e13          	addi	t3,a1,5
    3c88:	00658313          	addi	t1,a1,6
    3c8c:	00758393          	addi	t2,a1,7
    3c90:	55c7a783          	lw	a5,1372(a5) # 81c4 <GPUFIFO>
    3c94:	000015b7          	lui	a1,0x1
    3c98:	ac458593          	addi	a1,a1,-1340 # ac4 <_STACK_SIZE-0x53c>
    3c9c:	01881813          	slli	a6,a6,0x18
    3ca0:	00829293          	slli	t0,t0,0x8
    3ca4:	008f9f93          	slli	t6,t6,0x8
    3ca8:	008f1f13          	slli	t5,t5,0x8
    3cac:	008e9e93          	slli	t4,t4,0x8
    3cb0:	008e1e13          	slli	t3,t3,0x8
    3cb4:	00831313          	slli	t1,t1,0x8
    3cb8:	00839393          	slli	t2,t2,0x8
    3cbc:	00b86833          	or	a6,a6,a1
    3cc0:	00160893          	addi	a7,a2,1
    3cc4:	00d505b3          	add	a1,a0,a3
    3cc8:	40d282b3          	sub	t0,t0,a3
    3ccc:	40df8fb3          	sub	t6,t6,a3
    3cd0:	40df0f33          	sub	t5,t5,a3
    3cd4:	40de8eb3          	sub	t4,t4,a3
    3cd8:	40de0e33          	sub	t3,t3,a3
    3cdc:	40d30333          	sub	t1,t1,a3
    3ce0:	40d38533          	sub	a0,t2,a3
    3ce4:	fe070713          	addi	a4,a4,-32
    3ce8:	00075c63          	bgez	a4,3d00 <_Z8PrintDMAiiPKcb+0xa0>
    3cec:	0008c703          	lbu	a4,0(a7) # fffc000 <__stack+0xfff2d70>
    3cf0:	00858593          	addi	a1,a1,8
    3cf4:	00188893          	addi	a7,a7,1
    3cf8:	fe0716e3          	bnez	a4,3ce4 <_Z8PrintDMAiiPKcb+0x84>
    3cfc:	00008067          	ret
    3d00:	ff010113          	addi	sp,sp,-16
    3d04:	00812623          	sw	s0,12(sp)
    3d08:	00912423          	sw	s1,8(sp)
    3d0c:	01212223          	sw	s2,4(sp)
    3d10:	40575393          	srai	t2,a4,0x5
    3d14:	01f77713          	andi	a4,a4,31
    3d18:	00371693          	slli	a3,a4,0x3
    3d1c:	00b39613          	slli	a2,t2,0xb
    3d20:	00001417          	auipc	s0,0x1
    3d24:	59040413          	addi	s0,s0,1424 # 52b0 <_ZL4font>
    3d28:	00d60633          	add	a2,a2,a3
    3d2c:	00860633          	add	a2,a2,s0
    3d30:	00339713          	slli	a4,t2,0x3
    3d34:	00a61913          	slli	s2,a2,0xa
    3d38:	01665393          	srli	t2,a2,0x16
    3d3c:	4025d493          	srai	s1,a1,0x2
    3d40:	20196913          	ori	s2,s2,513
    3d44:	00170613          	addi	a2,a4,1
    3d48:	00a39393          	slli	t2,t2,0xa
    3d4c:	0127a023          	sw	s2,0(a5)
    3d50:	2413e393          	ori	t2,t2,577
    3d54:	00a49913          	slli	s2,s1,0xa
    3d58:	00861613          	slli	a2,a2,0x8
    3d5c:	0164d493          	srli	s1,s1,0x16
    3d60:	0077a223          	sw	t2,4(a5)
    3d64:	00d60633          	add	a2,a2,a3
    3d68:	28196393          	ori	t2,s2,641
    3d6c:	00a49493          	slli	s1,s1,0xa
    3d70:	0077a423          	sw	t2,8(a5)
    3d74:	00860633          	add	a2,a2,s0
    3d78:	2d14e493          	ori	s1,s1,721
    3d7c:	0097a623          	sw	s1,12(a5)
    3d80:	00a61913          	slli	s2,a2,0xa
    3d84:	00b284b3          	add	s1,t0,a1
    3d88:	01665393          	srli	t2,a2,0x16
    3d8c:	0107a823          	sw	a6,16(a5)
    3d90:	4024d493          	srai	s1,s1,0x2
    3d94:	20196913          	ori	s2,s2,513
    3d98:	00270613          	addi	a2,a4,2
    3d9c:	00a39393          	slli	t2,t2,0xa
    3da0:	0127a023          	sw	s2,0(a5)
    3da4:	2413e393          	ori	t2,t2,577
    3da8:	00a49913          	slli	s2,s1,0xa
    3dac:	00861613          	slli	a2,a2,0x8
    3db0:	0164d493          	srli	s1,s1,0x16
    3db4:	0077a223          	sw	t2,4(a5)
    3db8:	00d60633          	add	a2,a2,a3
    3dbc:	28196393          	ori	t2,s2,641
    3dc0:	00a49493          	slli	s1,s1,0xa
    3dc4:	0077a423          	sw	t2,8(a5)
    3dc8:	00860633          	add	a2,a2,s0
    3dcc:	2d14e493          	ori	s1,s1,721
    3dd0:	0097a623          	sw	s1,12(a5)
    3dd4:	00a61913          	slli	s2,a2,0xa
    3dd8:	00bf84b3          	add	s1,t6,a1
    3ddc:	01665393          	srli	t2,a2,0x16
    3de0:	0107a823          	sw	a6,16(a5)
    3de4:	4024d493          	srai	s1,s1,0x2
    3de8:	20196913          	ori	s2,s2,513
    3dec:	00370613          	addi	a2,a4,3
    3df0:	00a39393          	slli	t2,t2,0xa
    3df4:	0127a023          	sw	s2,0(a5)
    3df8:	2413e393          	ori	t2,t2,577
    3dfc:	00a49913          	slli	s2,s1,0xa
    3e00:	00861613          	slli	a2,a2,0x8
    3e04:	0164d493          	srli	s1,s1,0x16
    3e08:	0077a223          	sw	t2,4(a5)
    3e0c:	00d60633          	add	a2,a2,a3
    3e10:	28196393          	ori	t2,s2,641
    3e14:	00a49493          	slli	s1,s1,0xa
    3e18:	0077a423          	sw	t2,8(a5)
    3e1c:	00860633          	add	a2,a2,s0
    3e20:	2d14e493          	ori	s1,s1,721
    3e24:	0097a623          	sw	s1,12(a5)
    3e28:	00a61913          	slli	s2,a2,0xa
    3e2c:	00bf04b3          	add	s1,t5,a1
    3e30:	01665393          	srli	t2,a2,0x16
    3e34:	0107a823          	sw	a6,16(a5)
    3e38:	4024d493          	srai	s1,s1,0x2
    3e3c:	20196913          	ori	s2,s2,513
    3e40:	00470613          	addi	a2,a4,4
    3e44:	00a39393          	slli	t2,t2,0xa
    3e48:	0127a023          	sw	s2,0(a5)
    3e4c:	2413e393          	ori	t2,t2,577
    3e50:	00a49913          	slli	s2,s1,0xa
    3e54:	00861613          	slli	a2,a2,0x8
    3e58:	0164d493          	srli	s1,s1,0x16
    3e5c:	0077a223          	sw	t2,4(a5)
    3e60:	00d60633          	add	a2,a2,a3
    3e64:	28196393          	ori	t2,s2,641
    3e68:	00a49493          	slli	s1,s1,0xa
    3e6c:	0077a423          	sw	t2,8(a5)
    3e70:	00860633          	add	a2,a2,s0
    3e74:	2d14e493          	ori	s1,s1,721
    3e78:	0097a623          	sw	s1,12(a5)
    3e7c:	00a61913          	slli	s2,a2,0xa
    3e80:	00be84b3          	add	s1,t4,a1
    3e84:	01665393          	srli	t2,a2,0x16
    3e88:	0107a823          	sw	a6,16(a5)
    3e8c:	4024d493          	srai	s1,s1,0x2
    3e90:	20196913          	ori	s2,s2,513
    3e94:	00570613          	addi	a2,a4,5
    3e98:	00a39393          	slli	t2,t2,0xa
    3e9c:	0127a023          	sw	s2,0(a5)
    3ea0:	2413e393          	ori	t2,t2,577
    3ea4:	00a49913          	slli	s2,s1,0xa
    3ea8:	00861613          	slli	a2,a2,0x8
    3eac:	0164d493          	srli	s1,s1,0x16
    3eb0:	0077a223          	sw	t2,4(a5)
    3eb4:	00d60633          	add	a2,a2,a3
    3eb8:	28196393          	ori	t2,s2,641
    3ebc:	00a49493          	slli	s1,s1,0xa
    3ec0:	0077a423          	sw	t2,8(a5)
    3ec4:	00860633          	add	a2,a2,s0
    3ec8:	2d14e493          	ori	s1,s1,721
    3ecc:	0097a623          	sw	s1,12(a5)
    3ed0:	00a61913          	slli	s2,a2,0xa
    3ed4:	00be04b3          	add	s1,t3,a1
    3ed8:	01665393          	srli	t2,a2,0x16
    3edc:	0107a823          	sw	a6,16(a5)
    3ee0:	4024d493          	srai	s1,s1,0x2
    3ee4:	20196913          	ori	s2,s2,513
    3ee8:	00670613          	addi	a2,a4,6
    3eec:	00a39393          	slli	t2,t2,0xa
    3ef0:	0127a023          	sw	s2,0(a5)
    3ef4:	2413e393          	ori	t2,t2,577
    3ef8:	00a49913          	slli	s2,s1,0xa
    3efc:	00861613          	slli	a2,a2,0x8
    3f00:	0164d493          	srli	s1,s1,0x16
    3f04:	0077a223          	sw	t2,4(a5)
    3f08:	00d60633          	add	a2,a2,a3
    3f0c:	28196393          	ori	t2,s2,641
    3f10:	00a49493          	slli	s1,s1,0xa
    3f14:	0077a423          	sw	t2,8(a5)
    3f18:	00860633          	add	a2,a2,s0
    3f1c:	00b303b3          	add	t2,t1,a1
    3f20:	2d14e493          	ori	s1,s1,721
    3f24:	0097a623          	sw	s1,12(a5)
    3f28:	4023d393          	srai	t2,t2,0x2
    3f2c:	00a61913          	slli	s2,a2,0xa
    3f30:	00770713          	addi	a4,a4,7
    3f34:	01665613          	srli	a2,a2,0x16
    3f38:	0107a823          	sw	a6,16(a5)
    3f3c:	0163d493          	srli	s1,t2,0x16
    3f40:	20196913          	ori	s2,s2,513
    3f44:	00a61613          	slli	a2,a2,0xa
    3f48:	00871713          	slli	a4,a4,0x8
    3f4c:	0127a023          	sw	s2,0(a5)
    3f50:	24166613          	ori	a2,a2,577
    3f54:	00d70733          	add	a4,a4,a3
    3f58:	00a39393          	slli	t2,t2,0xa
    3f5c:	00a49493          	slli	s1,s1,0xa
    3f60:	00870733          	add	a4,a4,s0
    3f64:	00c7a223          	sw	a2,4(a5)
    3f68:	2813e393          	ori	t2,t2,641
    3f6c:	2d14e613          	ori	a2,s1,721
    3f70:	0077a423          	sw	t2,8(a5)
    3f74:	00b506b3          	add	a3,a0,a1
    3f78:	00c7a623          	sw	a2,12(a5)
    3f7c:	00a71613          	slli	a2,a4,0xa
    3f80:	01675713          	srli	a4,a4,0x16
    3f84:	0107a823          	sw	a6,16(a5)
    3f88:	4026d693          	srai	a3,a3,0x2
    3f8c:	20166613          	ori	a2,a2,513
    3f90:	00a71713          	slli	a4,a4,0xa
    3f94:	00c7a023          	sw	a2,0(a5)
    3f98:	24176713          	ori	a4,a4,577
    3f9c:	00a69613          	slli	a2,a3,0xa
    3fa0:	0166d693          	srli	a3,a3,0x16
    3fa4:	00e7a223          	sw	a4,4(a5)
    3fa8:	00a69693          	slli	a3,a3,0xa
    3fac:	28166713          	ori	a4,a2,641
    3fb0:	00e7a423          	sw	a4,8(a5)
    3fb4:	2d16e693          	ori	a3,a3,721
    3fb8:	00d7a623          	sw	a3,12(a5)
    3fbc:	0107a823          	sw	a6,16(a5)
    3fc0:	0008c703          	lbu	a4,0(a7)
    3fc4:	00858593          	addi	a1,a1,8
    3fc8:	00188893          	addi	a7,a7,1
    3fcc:	00070e63          	beqz	a4,3fe8 <_Z8PrintDMAiiPKcb+0x388>
    3fd0:	fe070713          	addi	a4,a4,-32
    3fd4:	d2075ee3          	bgez	a4,3d10 <_Z8PrintDMAiiPKcb+0xb0>
    3fd8:	0008c703          	lbu	a4,0(a7)
    3fdc:	00858593          	addi	a1,a1,8
    3fe0:	00188893          	addi	a7,a7,1
    3fe4:	fe0716e3          	bnez	a4,3fd0 <_Z8PrintDMAiiPKcb+0x370>
    3fe8:	00c12403          	lw	s0,12(sp)
    3fec:	00812483          	lw	s1,8(sp)
    3ff0:	00412903          	lw	s2,4(sp)
    3ff4:	01010113          	addi	sp,sp,16
    3ff8:	00008067          	ret

00003ffc <_Z8PrintDMAiiiPKcb>:
    3ffc:	3ac05263          	blez	a2,43a0 <_Z8PrintDMAiiiPKcb+0x3a4>
    4000:	00004797          	auipc	a5,0x4
    4004:	00e03833          	snez	a6,a4
    4008:	00158393          	addi	t2,a1,1
    400c:	00258293          	addi	t0,a1,2
    4010:	00358f93          	addi	t6,a1,3
    4014:	00458f13          	addi	t5,a1,4
    4018:	00558e93          	addi	t4,a1,5
    401c:	00658e13          	addi	t3,a1,6
    4020:	00758313          	addi	t1,a1,7
    4024:	00068893          	mv	a7,a3
    4028:	1c47a783          	lw	a5,452(a5) # 81c4 <GPUFIFO>
    402c:	000016b7          	lui	a3,0x1
    4030:	00859713          	slli	a4,a1,0x8
    4034:	01881813          	slli	a6,a6,0x18
    4038:	00839393          	slli	t2,t2,0x8
    403c:	00829293          	slli	t0,t0,0x8
    4040:	008f9f93          	slli	t6,t6,0x8
    4044:	008f1f13          	slli	t5,t5,0x8
    4048:	008e9e93          	slli	t4,t4,0x8
    404c:	008e1e13          	slli	t3,t3,0x8
    4050:	00831313          	slli	t1,t1,0x8
    4054:	ac468693          	addi	a3,a3,-1340 # ac4 <_STACK_SIZE-0x53c>
    4058:	00e505b3          	add	a1,a0,a4
    405c:	00d86833          	or	a6,a6,a3
    4060:	00c88533          	add	a0,a7,a2
    4064:	40e383b3          	sub	t2,t2,a4
    4068:	40e282b3          	sub	t0,t0,a4
    406c:	40ef8fb3          	sub	t6,t6,a4
    4070:	40ef0f33          	sub	t5,t5,a4
    4074:	40ee8eb3          	sub	t4,t4,a4
    4078:	40ee0e33          	sub	t3,t3,a4
    407c:	40e30333          	sub	t1,t1,a4
    4080:	0008c703          	lbu	a4,0(a7)
    4084:	30070e63          	beqz	a4,43a0 <_Z8PrintDMAiiiPKcb+0x3a4>
    4088:	fe070713          	addi	a4,a4,-32
    408c:	30074463          	bltz	a4,4394 <_Z8PrintDMAiiiPKcb+0x398>
    4090:	ff010113          	addi	sp,sp,-16
    4094:	00812623          	sw	s0,12(sp)
    4098:	00912423          	sw	s1,8(sp)
    409c:	01212223          	sw	s2,4(sp)
    40a0:	01312023          	sw	s3,0(sp)
    40a4:	40575413          	srai	s0,a4,0x5
    40a8:	01f77713          	andi	a4,a4,31
    40ac:	00371693          	slli	a3,a4,0x3
    40b0:	00b41613          	slli	a2,s0,0xb
    40b4:	00001497          	auipc	s1,0x1
    40b8:	1fc48493          	addi	s1,s1,508 # 52b0 <_ZL4font>
    40bc:	00d60633          	add	a2,a2,a3
    40c0:	00960633          	add	a2,a2,s1
    40c4:	00341713          	slli	a4,s0,0x3
    40c8:	00a61993          	slli	s3,a2,0xa
    40cc:	01665413          	srli	s0,a2,0x16
    40d0:	4025d913          	srai	s2,a1,0x2
    40d4:	2019e993          	ori	s3,s3,513
    40d8:	00170613          	addi	a2,a4,1
    40dc:	00a41413          	slli	s0,s0,0xa
    40e0:	0137a023          	sw	s3,0(a5)
    40e4:	24146413          	ori	s0,s0,577
    40e8:	00a91993          	slli	s3,s2,0xa
    40ec:	00861613          	slli	a2,a2,0x8
    40f0:	01695913          	srli	s2,s2,0x16
    40f4:	0087a223          	sw	s0,4(a5)
    40f8:	00d60633          	add	a2,a2,a3
    40fc:	2819e413          	ori	s0,s3,641
    4100:	00a91913          	slli	s2,s2,0xa
    4104:	0087a423          	sw	s0,8(a5)
    4108:	00960633          	add	a2,a2,s1
    410c:	2d196913          	ori	s2,s2,721
    4110:	0127a623          	sw	s2,12(a5)
    4114:	00a61993          	slli	s3,a2,0xa
    4118:	01665413          	srli	s0,a2,0x16
    411c:	00b38933          	add	s2,t2,a1
    4120:	0107a823          	sw	a6,16(a5)
    4124:	40295913          	srai	s2,s2,0x2
    4128:	2019e993          	ori	s3,s3,513
    412c:	00270613          	addi	a2,a4,2
    4130:	00a41413          	slli	s0,s0,0xa
    4134:	0137a023          	sw	s3,0(a5)
    4138:	24146413          	ori	s0,s0,577
    413c:	00a91993          	slli	s3,s2,0xa
    4140:	00861613          	slli	a2,a2,0x8
    4144:	01695913          	srli	s2,s2,0x16
    4148:	0087a223          	sw	s0,4(a5)
    414c:	00d60633          	add	a2,a2,a3
    4150:	2819e413          	ori	s0,s3,641
    4154:	00a91913          	slli	s2,s2,0xa
    4158:	0087a423          	sw	s0,8(a5)
    415c:	00960633          	add	a2,a2,s1
    4160:	2d196913          	ori	s2,s2,721
    4164:	0127a623          	sw	s2,12(a5)
    4168:	00a61993          	slli	s3,a2,0xa
    416c:	01665413          	srli	s0,a2,0x16
    4170:	00b28933          	add	s2,t0,a1
    4174:	0107a823          	sw	a6,16(a5)
    4178:	40295913          	srai	s2,s2,0x2
    417c:	2019e993          	ori	s3,s3,513
    4180:	00370613          	addi	a2,a4,3
    4184:	00a41413          	slli	s0,s0,0xa
    4188:	0137a023          	sw	s3,0(a5)
    418c:	24146413          	ori	s0,s0,577
    4190:	00a91993          	slli	s3,s2,0xa
    4194:	00861613          	slli	a2,a2,0x8
    4198:	01695913          	srli	s2,s2,0x16
    419c:	0087a223          	sw	s0,4(a5)
    41a0:	00d60633          	add	a2,a2,a3
    41a4:	2819e413          	ori	s0,s3,641
    41a8:	00a91913          	slli	s2,s2,0xa
    41ac:	0087a423          	sw	s0,8(a5)
    41b0:	00960633          	add	a2,a2,s1
    41b4:	2d196913          	ori	s2,s2,721
    41b8:	0127a623          	sw	s2,12(a5)
    41bc:	00a61993          	slli	s3,a2,0xa
    41c0:	01665413          	srli	s0,a2,0x16
    41c4:	00bf8933          	add	s2,t6,a1
    41c8:	0107a823          	sw	a6,16(a5)
    41cc:	40295913          	srai	s2,s2,0x2
    41d0:	2019e993          	ori	s3,s3,513
    41d4:	00470613          	addi	a2,a4,4
    41d8:	00a41413          	slli	s0,s0,0xa
    41dc:	0137a023          	sw	s3,0(a5)
    41e0:	24146413          	ori	s0,s0,577
    41e4:	00a91993          	slli	s3,s2,0xa
    41e8:	00861613          	slli	a2,a2,0x8
    41ec:	01695913          	srli	s2,s2,0x16
    41f0:	0087a223          	sw	s0,4(a5)
    41f4:	00d60633          	add	a2,a2,a3
    41f8:	2819e413          	ori	s0,s3,641
    41fc:	00a91913          	slli	s2,s2,0xa
    4200:	0087a423          	sw	s0,8(a5)
    4204:	00960633          	add	a2,a2,s1
    4208:	2d196913          	ori	s2,s2,721
    420c:	0127a623          	sw	s2,12(a5)
    4210:	00a61993          	slli	s3,a2,0xa
    4214:	01665413          	srli	s0,a2,0x16
    4218:	00bf0933          	add	s2,t5,a1
    421c:	0107a823          	sw	a6,16(a5)
    4220:	40295913          	srai	s2,s2,0x2
    4224:	2019e993          	ori	s3,s3,513
    4228:	00570613          	addi	a2,a4,5
    422c:	00a41413          	slli	s0,s0,0xa
    4230:	0137a023          	sw	s3,0(a5)
    4234:	24146413          	ori	s0,s0,577
    4238:	00a91993          	slli	s3,s2,0xa
    423c:	00861613          	slli	a2,a2,0x8
    4240:	01695913          	srli	s2,s2,0x16
    4244:	0087a223          	sw	s0,4(a5)
    4248:	00d60633          	add	a2,a2,a3
    424c:	2819e413          	ori	s0,s3,641
    4250:	00a91913          	slli	s2,s2,0xa
    4254:	0087a423          	sw	s0,8(a5)
    4258:	00960633          	add	a2,a2,s1
    425c:	2d196913          	ori	s2,s2,721
    4260:	0127a623          	sw	s2,12(a5)
    4264:	00a61993          	slli	s3,a2,0xa
    4268:	01665413          	srli	s0,a2,0x16
    426c:	00be8933          	add	s2,t4,a1
    4270:	0107a823          	sw	a6,16(a5)
    4274:	40295913          	srai	s2,s2,0x2
    4278:	2019e993          	ori	s3,s3,513
    427c:	00670613          	addi	a2,a4,6
    4280:	00a41413          	slli	s0,s0,0xa
    4284:	0137a023          	sw	s3,0(a5)
    4288:	24146413          	ori	s0,s0,577
    428c:	00a91993          	slli	s3,s2,0xa
    4290:	00861613          	slli	a2,a2,0x8
    4294:	01695913          	srli	s2,s2,0x16
    4298:	0087a223          	sw	s0,4(a5)
    429c:	00d60633          	add	a2,a2,a3
    42a0:	2819e413          	ori	s0,s3,641
    42a4:	00a91913          	slli	s2,s2,0xa
    42a8:	0087a423          	sw	s0,8(a5)
    42ac:	00960633          	add	a2,a2,s1
    42b0:	2d196913          	ori	s2,s2,721
    42b4:	00be0433          	add	s0,t3,a1
    42b8:	0127a623          	sw	s2,12(a5)
    42bc:	40245413          	srai	s0,s0,0x2
    42c0:	00a61993          	slli	s3,a2,0xa
    42c4:	00770713          	addi	a4,a4,7
    42c8:	01665613          	srli	a2,a2,0x16
    42cc:	0107a823          	sw	a6,16(a5)
    42d0:	01645913          	srli	s2,s0,0x16
    42d4:	2019e993          	ori	s3,s3,513
    42d8:	00a61613          	slli	a2,a2,0xa
    42dc:	00871713          	slli	a4,a4,0x8
    42e0:	0137a023          	sw	s3,0(a5)
    42e4:	24166613          	ori	a2,a2,577
    42e8:	00d70733          	add	a4,a4,a3
    42ec:	00a41413          	slli	s0,s0,0xa
    42f0:	00a91913          	slli	s2,s2,0xa
    42f4:	00970733          	add	a4,a4,s1
    42f8:	00c7a223          	sw	a2,4(a5)
    42fc:	2d196693          	ori	a3,s2,721
    4300:	28146413          	ori	s0,s0,641
    4304:	0087a423          	sw	s0,8(a5)
    4308:	00a71613          	slli	a2,a4,0xa
    430c:	00d7a623          	sw	a3,12(a5)
    4310:	01675713          	srli	a4,a4,0x16
    4314:	00b306b3          	add	a3,t1,a1
    4318:	0107a823          	sw	a6,16(a5)
    431c:	4026d693          	srai	a3,a3,0x2
    4320:	20166613          	ori	a2,a2,513
    4324:	00a71713          	slli	a4,a4,0xa
    4328:	00c7a023          	sw	a2,0(a5)
    432c:	24176713          	ori	a4,a4,577
    4330:	00a69613          	slli	a2,a3,0xa
    4334:	0166d693          	srli	a3,a3,0x16
    4338:	00e7a223          	sw	a4,4(a5)
    433c:	00a69693          	slli	a3,a3,0xa
    4340:	28166713          	ori	a4,a2,641
    4344:	00e7a423          	sw	a4,8(a5)
    4348:	2d16e693          	ori	a3,a3,721
    434c:	00d7a623          	sw	a3,12(a5)
    4350:	0107a823          	sw	a6,16(a5)
    4354:	00188893          	addi	a7,a7,1
    4358:	00858593          	addi	a1,a1,8
    435c:	03150063          	beq	a0,a7,437c <_Z8PrintDMAiiiPKcb+0x380>
    4360:	0008c703          	lbu	a4,0(a7)
    4364:	00070c63          	beqz	a4,437c <_Z8PrintDMAiiiPKcb+0x380>
    4368:	fe070713          	addi	a4,a4,-32
    436c:	d2075ce3          	bgez	a4,40a4 <_Z8PrintDMAiiiPKcb+0xa8>
    4370:	00188893          	addi	a7,a7,1
    4374:	00858593          	addi	a1,a1,8
    4378:	ff1514e3          	bne	a0,a7,4360 <_Z8PrintDMAiiiPKcb+0x364>
    437c:	00c12403          	lw	s0,12(sp)
    4380:	00812483          	lw	s1,8(sp)
    4384:	00412903          	lw	s2,4(sp)
    4388:	00012983          	lw	s3,0(sp)
    438c:	01010113          	addi	sp,sp,16
    4390:	00008067          	ret
    4394:	00188893          	addi	a7,a7,1
    4398:	00858593          	addi	a1,a1,8
    439c:	cf1512e3          	bne	a0,a7,4080 <_Z8PrintDMAiiiPKcb+0x84>
    43a0:	00008067          	ret

000043a4 <_Z5PrintiiPKc>:
    43a4:	00064783          	lbu	a5,0(a2)
    43a8:	1e078e63          	beqz	a5,45a4 <_Z5PrintiiPKc+0x200>
    43ac:	00001737          	lui	a4,0x1
    43b0:	80070713          	addi	a4,a4,-2048 # 800 <_STACK_SIZE-0x800>
    43b4:	fd010113          	addi	sp,sp,-48
    43b8:	00859893          	slli	a7,a1,0x8
    43bc:	00e50733          	add	a4,a0,a4
    43c0:	02812623          	sw	s0,44(sp)
    43c4:	02912423          	sw	s1,40(sp)
    43c8:	03212223          	sw	s2,36(sp)
    43cc:	03312023          	sw	s3,32(sp)
    43d0:	01412e23          	sw	s4,28(sp)
    43d4:	01512c23          	sw	s5,24(sp)
    43d8:	01612a23          	sw	s6,20(sp)
    43dc:	01712823          	sw	s7,16(sp)
    43e0:	01812623          	sw	s8,12(sp)
    43e4:	01912423          	sw	s9,8(sp)
    43e8:	01a12223          	sw	s10,4(sp)
    43ec:	01b12023          	sw	s11,0(sp)
    43f0:	00058c13          	mv	s8,a1
    43f4:	00050313          	mv	t1,a0
    43f8:	00160413          	addi	s0,a2,1
    43fc:	00150b93          	addi	s7,a0,1 # fffc001 <__stack+0xfff2d71>
    4400:	00250b13          	addi	s6,a0,2
    4404:	00350a93          	addi	s5,a0,3
    4408:	00450a13          	addi	s4,a0,4
    440c:	00550993          	addi	s3,a0,5
    4410:	00650913          	addi	s2,a0,6
    4414:	00750493          	addi	s1,a0,7
    4418:	00e888b3          	add	a7,a7,a4
    441c:	fe078793          	addi	a5,a5,-32
    4420:	1007ce63          	bltz	a5,453c <_Z5PrintiiPKc+0x198>
    4424:	4057d713          	srai	a4,a5,0x5
    4428:	01f7f793          	andi	a5,a5,31
    442c:	00371813          	slli	a6,a4,0x3
    4430:	00379513          	slli	a0,a5,0x3
    4434:	00150793          	addi	a5,a0,1
    4438:	00b71713          	slli	a4,a4,0xb
    443c:	00001697          	auipc	a3,0x1
    4440:	41880833          	sub	a6,a6,s8
    4444:	00e78733          	add	a4,a5,a4
    4448:	e7468693          	addi	a3,a3,-396 # 52b0 <_ZL4font>
    444c:	00881813          	slli	a6,a6,0x8
    4450:	00004617          	auipc	a2,0x4
    4454:	80088793          	addi	a5,a7,-2048
    4458:	00d706b3          	add	a3,a4,a3
    445c:	40680833          	sub	a6,a6,t1
    4460:	d7c60613          	addi	a2,a2,-644 # 81cc <VRAM>
    4464:	406b85b3          	sub	a1,s7,t1
    4468:	406b03b3          	sub	t2,s6,t1
    446c:	406a82b3          	sub	t0,s5,t1
    4470:	406a0fb3          	sub	t6,s4,t1
    4474:	40698f33          	sub	t5,s3,t1
    4478:	40690eb3          	sub	t4,s2,t1
    447c:	40648e33          	sub	t3,s1,t1
    4480:	00001717          	auipc	a4,0x1
    4484:	e3070713          	addi	a4,a4,-464 # 52b0 <_ZL4font>
    4488:	00a70733          	add	a4,a4,a0
    448c:	01070733          	add	a4,a4,a6
    4490:	00062c83          	lw	s9,0(a2)
    4494:	00f70733          	add	a4,a4,a5
    4498:	00074d83          	lbu	s11,0(a4)
    449c:	00fc8733          	add	a4,s9,a5
    44a0:	00f58d33          	add	s10,a1,a5
    44a4:	01b70023          	sb	s11,0(a4)
    44a8:	00062703          	lw	a4,0(a2)
    44ac:	0006cc83          	lbu	s9,0(a3)
    44b0:	00f38db3          	add	s11,t2,a5
    44b4:	01a70733          	add	a4,a4,s10
    44b8:	01970023          	sb	s9,0(a4)
    44bc:	00062703          	lw	a4,0(a2)
    44c0:	0016cc83          	lbu	s9,1(a3)
    44c4:	00f28d33          	add	s10,t0,a5
    44c8:	01b70733          	add	a4,a4,s11
    44cc:	01970023          	sb	s9,0(a4)
    44d0:	00062703          	lw	a4,0(a2)
    44d4:	0026cc83          	lbu	s9,2(a3)
    44d8:	00ff8db3          	add	s11,t6,a5
    44dc:	01a70733          	add	a4,a4,s10
    44e0:	01970023          	sb	s9,0(a4)
    44e4:	00062703          	lw	a4,0(a2)
    44e8:	0036cc83          	lbu	s9,3(a3)
    44ec:	00ff0d33          	add	s10,t5,a5
    44f0:	01b70733          	add	a4,a4,s11
    44f4:	01970023          	sb	s9,0(a4)
    44f8:	00062703          	lw	a4,0(a2)
    44fc:	0046cc83          	lbu	s9,4(a3)
    4500:	00fe8db3          	add	s11,t4,a5
    4504:	01a70733          	add	a4,a4,s10
    4508:	01970023          	sb	s9,0(a4)
    450c:	00062703          	lw	a4,0(a2)
    4510:	0056cd03          	lbu	s10,5(a3)
    4514:	00fe0cb3          	add	s9,t3,a5
    4518:	01b70733          	add	a4,a4,s11
    451c:	01a70023          	sb	s10,0(a4)
    4520:	00062703          	lw	a4,0(a2)
    4524:	0066cd03          	lbu	s10,6(a3)
    4528:	10078793          	addi	a5,a5,256
    452c:	01970733          	add	a4,a4,s9
    4530:	01a70023          	sb	s10,0(a4)
    4534:	10068693          	addi	a3,a3,256
    4538:	f4f894e3          	bne	a7,a5,4480 <_Z5PrintiiPKc+0xdc>
    453c:	00044783          	lbu	a5,0(s0)
    4540:	00830313          	addi	t1,t1,8
    4544:	00140413          	addi	s0,s0,1
    4548:	008b8b93          	addi	s7,s7,8
    454c:	008b0b13          	addi	s6,s6,8
    4550:	008a8a93          	addi	s5,s5,8
    4554:	008a0a13          	addi	s4,s4,8
    4558:	00898993          	addi	s3,s3,8
    455c:	00890913          	addi	s2,s2,8
    4560:	00848493          	addi	s1,s1,8
    4564:	00888893          	addi	a7,a7,8
    4568:	ea079ae3          	bnez	a5,441c <_Z5PrintiiPKc+0x78>
    456c:	02c12403          	lw	s0,44(sp)
    4570:	02812483          	lw	s1,40(sp)
    4574:	02412903          	lw	s2,36(sp)
    4578:	02012983          	lw	s3,32(sp)
    457c:	01c12a03          	lw	s4,28(sp)
    4580:	01812a83          	lw	s5,24(sp)
    4584:	01412b03          	lw	s6,20(sp)
    4588:	01012b83          	lw	s7,16(sp)
    458c:	00c12c03          	lw	s8,12(sp)
    4590:	00812c83          	lw	s9,8(sp)
    4594:	00412d03          	lw	s10,4(sp)
    4598:	00012d83          	lw	s11,0(sp)
    459c:	03010113          	addi	sp,sp,48
    45a0:	00008067          	ret
    45a4:	00008067          	ret

000045a8 <_Z8PrintHexiim>:
    45a8:	00001797          	auipc	a5,0x1
    45ac:	cd878793          	addi	a5,a5,-808 # 5280 <PIo2+0x40>
    45b0:	00c7af03          	lw	t5,12(a5)
    45b4:	0007a383          	lw	t2,0(a5)
    45b8:	0047a283          	lw	t0,4(a5)
    45bc:	0087af83          	lw	t6,8(a5)
    45c0:	fd010113          	addi	sp,sp,-48
    45c4:	01865e13          	srli	t3,a2,0x18
    45c8:	01465313          	srli	t1,a2,0x14
    45cc:	01065893          	srli	a7,a2,0x10
    45d0:	00c65813          	srli	a6,a2,0xc
    45d4:	00865693          	srli	a3,a2,0x8
    45d8:	00465713          	srli	a4,a2,0x4
    45dc:	01e12c23          	sw	t5,24(sp)
    45e0:	01c65e93          	srli	t4,a2,0x1c
    45e4:	02010f13          	addi	t5,sp,32
    45e8:	00fe7e13          	andi	t3,t3,15
    45ec:	00f37313          	andi	t1,t1,15
    45f0:	00f8f893          	andi	a7,a7,15
    45f4:	00f87813          	andi	a6,a6,15
    45f8:	00f6f693          	andi	a3,a3,15
    45fc:	00f77713          	andi	a4,a4,15
    4600:	00f67613          	andi	a2,a2,15
    4604:	02112623          	sw	ra,44(sp)
    4608:	00712623          	sw	t2,12(sp)
    460c:	00512823          	sw	t0,16(sp)
    4610:	01f12a23          	sw	t6,20(sp)
    4614:	00cf0633          	add	a2,t5,a2
    4618:	01df0eb3          	add	t4,t5,t4
    461c:	01cf0e33          	add	t3,t5,t3
    4620:	006f0333          	add	t1,t5,t1
    4624:	011f08b3          	add	a7,t5,a7
    4628:	010f0833          	add	a6,t5,a6
    462c:	00df06b3          	add	a3,t5,a3
    4630:	00ef0733          	add	a4,t5,a4
    4634:	fecece83          	lbu	t4,-20(t4) # ffffbfec <__stack+0xffff2d5c>
    4638:	0107cf03          	lbu	t5,16(a5)
    463c:	fece4e03          	lbu	t3,-20(t3)
    4640:	fec64783          	lbu	a5,-20(a2)
    4644:	fec34303          	lbu	t1,-20(t1)
    4648:	fec8c883          	lbu	a7,-20(a7)
    464c:	fec84803          	lbu	a6,-20(a6) # 3fffec <__stack+0x3f6d5c>
    4650:	fec6c683          	lbu	a3,-20(a3)
    4654:	fec74703          	lbu	a4,-20(a4)
    4658:	02e00613          	li	a2,46
    465c:	00c11423          	sh	a2,8(sp)
    4660:	00010613          	mv	a2,sp
    4664:	01e10e23          	sb	t5,28(sp)
    4668:	01d10023          	sb	t4,0(sp)
    466c:	01c100a3          	sb	t3,1(sp)
    4670:	00610123          	sb	t1,2(sp)
    4674:	011101a3          	sb	a7,3(sp)
    4678:	01010223          	sb	a6,4(sp)
    467c:	00d102a3          	sb	a3,5(sp)
    4680:	00e10323          	sb	a4,6(sp)
    4684:	00f103a3          	sb	a5,7(sp)
    4688:	00010423          	sb	zero,8(sp)
    468c:	d19ff0ef          	jal	ra,43a4 <_Z5PrintiiPKc>
    4690:	02c12083          	lw	ra,44(sp)
    4694:	03010113          	addi	sp,sp,48
    4698:	00008067          	ret

0000469c <_Z11PrintMaskediiPKc>:
    469c:	00064783          	lbu	a5,0(a2)
    46a0:	20078e63          	beqz	a5,48bc <_Z11PrintMaskediiPKc+0x220>
    46a4:	00001837          	lui	a6,0x1
    46a8:	80780813          	addi	a6,a6,-2041 # 807 <_STACK_SIZE-0x7f9>
    46ac:	fd010113          	addi	sp,sp,-48
    46b0:	01050833          	add	a6,a0,a6
    46b4:	00859713          	slli	a4,a1,0x8
    46b8:	02912423          	sw	s1,40(sp)
    46bc:	03212223          	sw	s2,36(sp)
    46c0:	03312023          	sw	s3,32(sp)
    46c4:	01412e23          	sw	s4,28(sp)
    46c8:	01512c23          	sw	s5,24(sp)
    46cc:	01612a23          	sw	s6,20(sp)
    46d0:	01712823          	sw	s7,16(sp)
    46d4:	02812623          	sw	s0,44(sp)
    46d8:	01812623          	sw	s8,12(sp)
    46dc:	00058b93          	mv	s7,a1
    46e0:	00050313          	mv	t1,a0
    46e4:	00160e13          	addi	t3,a2,1
    46e8:	00e80833          	add	a6,a6,a4
    46ec:	00750893          	addi	a7,a0,7
    46f0:	00650b13          	addi	s6,a0,6
    46f4:	00550a93          	addi	s5,a0,5
    46f8:	00450a13          	addi	s4,a0,4
    46fc:	00350993          	addi	s3,a0,3
    4700:	00250913          	addi	s2,a0,2
    4704:	00150493          	addi	s1,a0,1
    4708:	fe078793          	addi	a5,a5,-32
    470c:	1407ca63          	bltz	a5,4860 <_Z11PrintMaskediiPKc+0x1c4>
    4710:	4057d713          	srai	a4,a5,0x5
    4714:	01f7f793          	andi	a5,a5,31
    4718:	00379613          	slli	a2,a5,0x3
    471c:	00371513          	slli	a0,a4,0x3
    4720:	00160693          	addi	a3,a2,1
    4724:	00b71713          	slli	a4,a4,0xb
    4728:	00001797          	auipc	a5,0x1
    472c:	41750533          	sub	a0,a0,s7
    4730:	00e68733          	add	a4,a3,a4
    4734:	b8878793          	addi	a5,a5,-1144 # 52b0 <_ZL4font>
    4738:	00851513          	slli	a0,a0,0x8
    473c:	80080693          	addi	a3,a6,-2048
    4740:	00f70733          	add	a4,a4,a5
    4744:	41150533          	sub	a0,a0,a7
    4748:	41130433          	sub	s0,t1,a7
    474c:	411485b3          	sub	a1,s1,a7
    4750:	411903b3          	sub	t2,s2,a7
    4754:	411982b3          	sub	t0,s3,a7
    4758:	411a0fb3          	sub	t6,s4,a7
    475c:	411a8f33          	sub	t5,s5,a7
    4760:	411b0eb3          	sub	t4,s6,a7
    4764:	00001797          	auipc	a5,0x1
    4768:	b4c78793          	addi	a5,a5,-1204 # 52b0 <_ZL4font>
    476c:	00c787b3          	add	a5,a5,a2
    4770:	00d787b3          	add	a5,a5,a3
    4774:	00a787b3          	add	a5,a5,a0
    4778:	0007c783          	lbu	a5,0(a5)
    477c:	00078c63          	beqz	a5,4794 <_Z11PrintMaskediiPKc+0xf8>
    4780:	00004797          	auipc	a5,0x4
    4784:	a4c7a783          	lw	a5,-1460(a5) # 81cc <VRAM>
    4788:	00d40c33          	add	s8,s0,a3
    478c:	018787b3          	add	a5,a5,s8
    4790:	00078023          	sb	zero,0(a5)
    4794:	00074783          	lbu	a5,0(a4)
    4798:	00078c63          	beqz	a5,47b0 <_Z11PrintMaskediiPKc+0x114>
    479c:	00004797          	auipc	a5,0x4
    47a0:	a307a783          	lw	a5,-1488(a5) # 81cc <VRAM>
    47a4:	00d58c33          	add	s8,a1,a3
    47a8:	018787b3          	add	a5,a5,s8
    47ac:	00078023          	sb	zero,0(a5)
    47b0:	00174783          	lbu	a5,1(a4)
    47b4:	00078c63          	beqz	a5,47cc <_Z11PrintMaskediiPKc+0x130>
    47b8:	00004797          	auipc	a5,0x4
    47bc:	a147a783          	lw	a5,-1516(a5) # 81cc <VRAM>
    47c0:	00d38c33          	add	s8,t2,a3
    47c4:	018787b3          	add	a5,a5,s8
    47c8:	00078023          	sb	zero,0(a5)
    47cc:	00274783          	lbu	a5,2(a4)
    47d0:	00078c63          	beqz	a5,47e8 <_Z11PrintMaskediiPKc+0x14c>
    47d4:	00004797          	auipc	a5,0x4
    47d8:	9f87a783          	lw	a5,-1544(a5) # 81cc <VRAM>
    47dc:	00d28c33          	add	s8,t0,a3
    47e0:	018787b3          	add	a5,a5,s8
    47e4:	00078023          	sb	zero,0(a5)
    47e8:	00374783          	lbu	a5,3(a4)
    47ec:	00078c63          	beqz	a5,4804 <_Z11PrintMaskediiPKc+0x168>
    47f0:	00004797          	auipc	a5,0x4
    47f4:	9dc7a783          	lw	a5,-1572(a5) # 81cc <VRAM>
    47f8:	00df8c33          	add	s8,t6,a3
    47fc:	018787b3          	add	a5,a5,s8
    4800:	00078023          	sb	zero,0(a5)
    4804:	00474783          	lbu	a5,4(a4)
    4808:	00078c63          	beqz	a5,4820 <_Z11PrintMaskediiPKc+0x184>
    480c:	00004797          	auipc	a5,0x4
    4810:	9c07a783          	lw	a5,-1600(a5) # 81cc <VRAM>
    4814:	00df0c33          	add	s8,t5,a3
    4818:	018787b3          	add	a5,a5,s8
    481c:	00078023          	sb	zero,0(a5)
    4820:	00574783          	lbu	a5,5(a4)
    4824:	00078c63          	beqz	a5,483c <_Z11PrintMaskediiPKc+0x1a0>
    4828:	00004797          	auipc	a5,0x4
    482c:	9a47a783          	lw	a5,-1628(a5) # 81cc <VRAM>
    4830:	00de8c33          	add	s8,t4,a3
    4834:	018787b3          	add	a5,a5,s8
    4838:	00078023          	sb	zero,0(a5)
    483c:	00674783          	lbu	a5,6(a4)
    4840:	00078a63          	beqz	a5,4854 <_Z11PrintMaskediiPKc+0x1b8>
    4844:	00004797          	auipc	a5,0x4
    4848:	9887a783          	lw	a5,-1656(a5) # 81cc <VRAM>
    484c:	00d787b3          	add	a5,a5,a3
    4850:	00078023          	sb	zero,0(a5)
    4854:	10068693          	addi	a3,a3,256
    4858:	10070713          	addi	a4,a4,256
    485c:	f10694e3          	bne	a3,a6,4764 <_Z11PrintMaskediiPKc+0xc8>
    4860:	000e4783          	lbu	a5,0(t3)
    4864:	00880813          	addi	a6,a6,8
    4868:	001e0e13          	addi	t3,t3,1
    486c:	00888893          	addi	a7,a7,8
    4870:	00830313          	addi	t1,t1,8
    4874:	008b0b13          	addi	s6,s6,8
    4878:	008a8a93          	addi	s5,s5,8
    487c:	008a0a13          	addi	s4,s4,8
    4880:	00898993          	addi	s3,s3,8
    4884:	00890913          	addi	s2,s2,8
    4888:	00848493          	addi	s1,s1,8
    488c:	e6079ee3          	bnez	a5,4708 <_Z11PrintMaskediiPKc+0x6c>
    4890:	02c12403          	lw	s0,44(sp)
    4894:	02812483          	lw	s1,40(sp)
    4898:	02412903          	lw	s2,36(sp)
    489c:	02012983          	lw	s3,32(sp)
    48a0:	01c12a03          	lw	s4,28(sp)
    48a4:	01812a83          	lw	s5,24(sp)
    48a8:	01412b03          	lw	s6,20(sp)
    48ac:	01012b83          	lw	s7,16(sp)
    48b0:	00c12c03          	lw	s8,12(sp)
    48b4:	03010113          	addi	sp,sp,48
    48b8:	00008067          	ret
    48bc:	00008067          	ret

000048c0 <_Z5PrintiiiPKc>:
    48c0:	fc010113          	addi	sp,sp,-64
    48c4:	02812e23          	sw	s0,60(sp)
    48c8:	02912c23          	sw	s1,56(sp)
    48cc:	03212a23          	sw	s2,52(sp)
    48d0:	03312823          	sw	s3,48(sp)
    48d4:	03412623          	sw	s4,44(sp)
    48d8:	03512423          	sw	s5,40(sp)
    48dc:	03612223          	sw	s6,36(sp)
    48e0:	03712023          	sw	s7,32(sp)
    48e4:	01812e23          	sw	s8,28(sp)
    48e8:	01912c23          	sw	s9,24(sp)
    48ec:	01a12a23          	sw	s10,20(sp)
    48f0:	01b12823          	sw	s11,16(sp)
    48f4:	00b12623          	sw	a1,12(sp)
    48f8:	18c05e63          	blez	a2,4a94 <_Z5PrintiiiPKc+0x1d4>
    48fc:	000018b7          	lui	a7,0x1
    4900:	80088893          	addi	a7,a7,-2048 # 800 <_STACK_SIZE-0x800>
    4904:	00859793          	slli	a5,a1,0x8
    4908:	011508b3          	add	a7,a0,a7
    490c:	00068313          	mv	t1,a3
    4910:	00f12423          	sw	a5,8(sp)
    4914:	00150b93          	addi	s7,a0,1
    4918:	00250b13          	addi	s6,a0,2
    491c:	00350a93          	addi	s5,a0,3
    4920:	00450a13          	addi	s4,a0,4
    4924:	00550993          	addi	s3,a0,5
    4928:	00650913          	addi	s2,a0,6
    492c:	00750493          	addi	s1,a0,7
    4930:	00f888b3          	add	a7,a7,a5
    4934:	00c68c33          	add	s8,a3,a2
    4938:	00034783          	lbu	a5,0(t1)
    493c:	14078c63          	beqz	a5,4a94 <_Z5PrintiiiPKc+0x1d4>
    4940:	fe078793          	addi	a5,a5,-32
    4944:	1207c263          	bltz	a5,4a68 <_Z5PrintiiiPKc+0x1a8>
    4948:	4057d713          	srai	a4,a5,0x5
    494c:	01f7f793          	andi	a5,a5,31
    4950:	00c12683          	lw	a3,12(sp)
    4954:	00379593          	slli	a1,a5,0x3
    4958:	00371813          	slli	a6,a4,0x3
    495c:	00158793          	addi	a5,a1,1
    4960:	00b71713          	slli	a4,a4,0xb
    4964:	00e78733          	add	a4,a5,a4
    4968:	00812783          	lw	a5,8(sp)
    496c:	40d80833          	sub	a6,a6,a3
    4970:	00001617          	auipc	a2,0x1
    4974:	94060613          	addi	a2,a2,-1728 # 52b0 <_ZL4font>
    4978:	00881813          	slli	a6,a6,0x8
    497c:	00004697          	auipc	a3,0x4
    4980:	00a787b3          	add	a5,a5,a0
    4984:	00c70733          	add	a4,a4,a2
    4988:	40a80833          	sub	a6,a6,a0
    498c:	85068693          	addi	a3,a3,-1968 # 81cc <VRAM>
    4990:	40ab8433          	sub	s0,s7,a0
    4994:	40ab03b3          	sub	t2,s6,a0
    4998:	40aa82b3          	sub	t0,s5,a0
    499c:	40aa0fb3          	sub	t6,s4,a0
    49a0:	40a98f33          	sub	t5,s3,a0
    49a4:	40a90eb3          	sub	t4,s2,a0
    49a8:	40a48e33          	sub	t3,s1,a0
    49ac:	00001c97          	auipc	s9,0x1
    49b0:	904c8c93          	addi	s9,s9,-1788 # 52b0 <_ZL4font>
    49b4:	00bc8cb3          	add	s9,s9,a1
    49b8:	010c8cb3          	add	s9,s9,a6
    49bc:	0006a603          	lw	a2,0(a3)
    49c0:	00fc8cb3          	add	s9,s9,a5
    49c4:	000ccc83          	lbu	s9,0(s9)
    49c8:	00f60633          	add	a2,a2,a5
    49cc:	00f40db3          	add	s11,s0,a5
    49d0:	01960023          	sb	s9,0(a2)
    49d4:	0006a603          	lw	a2,0(a3)
    49d8:	00074c83          	lbu	s9,0(a4)
    49dc:	00f38d33          	add	s10,t2,a5
    49e0:	01b60633          	add	a2,a2,s11
    49e4:	01960023          	sb	s9,0(a2)
    49e8:	0006a603          	lw	a2,0(a3)
    49ec:	00174d83          	lbu	s11,1(a4)
    49f0:	00f28cb3          	add	s9,t0,a5
    49f4:	01a60633          	add	a2,a2,s10
    49f8:	01b60023          	sb	s11,0(a2)
    49fc:	0006a603          	lw	a2,0(a3)
    4a00:	00274d83          	lbu	s11,2(a4)
    4a04:	00ff8d33          	add	s10,t6,a5
    4a08:	01960633          	add	a2,a2,s9
    4a0c:	01b60023          	sb	s11,0(a2)
    4a10:	0006a603          	lw	a2,0(a3)
    4a14:	00374d83          	lbu	s11,3(a4)
    4a18:	00ff0cb3          	add	s9,t5,a5
    4a1c:	01a60633          	add	a2,a2,s10
    4a20:	01b60023          	sb	s11,0(a2)
    4a24:	0006a603          	lw	a2,0(a3)
    4a28:	00474d83          	lbu	s11,4(a4)
    4a2c:	00fe8d33          	add	s10,t4,a5
    4a30:	01960633          	add	a2,a2,s9
    4a34:	01b60023          	sb	s11,0(a2)
    4a38:	0006a603          	lw	a2,0(a3)
    4a3c:	00574d83          	lbu	s11,5(a4)
    4a40:	00fe0cb3          	add	s9,t3,a5
    4a44:	01a60633          	add	a2,a2,s10
    4a48:	01b60023          	sb	s11,0(a2)
    4a4c:	0006a603          	lw	a2,0(a3)
    4a50:	00674d03          	lbu	s10,6(a4)
    4a54:	10078793          	addi	a5,a5,256
    4a58:	01960633          	add	a2,a2,s9
    4a5c:	01a60023          	sb	s10,0(a2)
    4a60:	10070713          	addi	a4,a4,256
    4a64:	f4f894e3          	bne	a7,a5,49ac <_Z5PrintiiiPKc+0xec>
    4a68:	00130313          	addi	t1,t1,1
    4a6c:	00850513          	addi	a0,a0,8
    4a70:	008b8b93          	addi	s7,s7,8
    4a74:	008b0b13          	addi	s6,s6,8
    4a78:	008a8a93          	addi	s5,s5,8
    4a7c:	008a0a13          	addi	s4,s4,8
    4a80:	00898993          	addi	s3,s3,8
    4a84:	00890913          	addi	s2,s2,8
    4a88:	00848493          	addi	s1,s1,8
    4a8c:	00888893          	addi	a7,a7,8
    4a90:	eb8314e3          	bne	t1,s8,4938 <_Z5PrintiiiPKc+0x78>
    4a94:	03c12403          	lw	s0,60(sp)
    4a98:	03812483          	lw	s1,56(sp)
    4a9c:	03412903          	lw	s2,52(sp)
    4aa0:	03012983          	lw	s3,48(sp)
    4aa4:	02c12a03          	lw	s4,44(sp)
    4aa8:	02812a83          	lw	s5,40(sp)
    4aac:	02412b03          	lw	s6,36(sp)
    4ab0:	02012b83          	lw	s7,32(sp)
    4ab4:	01c12c03          	lw	s8,28(sp)
    4ab8:	01812c83          	lw	s9,24(sp)
    4abc:	01412d03          	lw	s10,20(sp)
    4ac0:	01012d83          	lw	s11,16(sp)
    4ac4:	04010113          	addi	sp,sp,64
    4ac8:	00008067          	ret

00004acc <_Z11PrintMaskediiiPKc>:
    4acc:	22c05663          	blez	a2,4cf8 <_Z11PrintMaskediiiPKc+0x22c>
    4ad0:	00001837          	lui	a6,0x1
    4ad4:	80780813          	addi	a6,a6,-2041 # 807 <_STACK_SIZE-0x7f9>
    4ad8:	fd010113          	addi	sp,sp,-48
    4adc:	00859793          	slli	a5,a1,0x8
    4ae0:	01050833          	add	a6,a0,a6
    4ae4:	01712823          	sw	s7,16(sp)
    4ae8:	01812623          	sw	s8,12(sp)
    4aec:	02812623          	sw	s0,44(sp)
    4af0:	00058c13          	mv	s8,a1
    4af4:	02912423          	sw	s1,40(sp)
    4af8:	03212223          	sw	s2,36(sp)
    4afc:	03312023          	sw	s3,32(sp)
    4b00:	01412e23          	sw	s4,28(sp)
    4b04:	01512c23          	sw	s5,24(sp)
    4b08:	01612a23          	sw	s6,20(sp)
    4b0c:	01912423          	sw	s9,8(sp)
    4b10:	00050e13          	mv	t3,a0
    4b14:	00068313          	mv	t1,a3
    4b18:	00f80833          	add	a6,a6,a5
    4b1c:	00750893          	addi	a7,a0,7
    4b20:	00650593          	addi	a1,a0,6
    4b24:	00550393          	addi	t2,a0,5
    4b28:	00450293          	addi	t0,a0,4
    4b2c:	00350f93          	addi	t6,a0,3
    4b30:	00250f13          	addi	t5,a0,2
    4b34:	00150e93          	addi	t4,a0,1
    4b38:	00c68bb3          	add	s7,a3,a2
    4b3c:	00034783          	lbu	a5,0(t1)
    4b40:	18078463          	beqz	a5,4cc8 <_Z11PrintMaskediiiPKc+0x1fc>
    4b44:	fe078793          	addi	a5,a5,-32
    4b48:	1407ca63          	bltz	a5,4c9c <_Z11PrintMaskediiiPKc+0x1d0>
    4b4c:	4057d713          	srai	a4,a5,0x5
    4b50:	01f7f793          	andi	a5,a5,31
    4b54:	00379613          	slli	a2,a5,0x3
    4b58:	00371513          	slli	a0,a4,0x3
    4b5c:	00160693          	addi	a3,a2,1
    4b60:	00b71713          	slli	a4,a4,0xb
    4b64:	00000797          	auipc	a5,0x0
    4b68:	41850533          	sub	a0,a0,s8
    4b6c:	00e68733          	add	a4,a3,a4
    4b70:	74c78793          	addi	a5,a5,1868 # 52b0 <_ZL4font>
    4b74:	00851513          	slli	a0,a0,0x8
    4b78:	80080693          	addi	a3,a6,-2048
    4b7c:	00f70733          	add	a4,a4,a5
    4b80:	41150533          	sub	a0,a0,a7
    4b84:	411e0b33          	sub	s6,t3,a7
    4b88:	411e8ab3          	sub	s5,t4,a7
    4b8c:	411f0a33          	sub	s4,t5,a7
    4b90:	411f89b3          	sub	s3,t6,a7
    4b94:	41128933          	sub	s2,t0,a7
    4b98:	411384b3          	sub	s1,t2,a7
    4b9c:	41158433          	sub	s0,a1,a7
    4ba0:	00000797          	auipc	a5,0x0
    4ba4:	71078793          	addi	a5,a5,1808 # 52b0 <_ZL4font>
    4ba8:	00c787b3          	add	a5,a5,a2
    4bac:	00d787b3          	add	a5,a5,a3
    4bb0:	00a787b3          	add	a5,a5,a0
    4bb4:	0007c783          	lbu	a5,0(a5)
    4bb8:	00078c63          	beqz	a5,4bd0 <_Z11PrintMaskediiiPKc+0x104>
    4bbc:	00003797          	auipc	a5,0x3
    4bc0:	6107a783          	lw	a5,1552(a5) # 81cc <VRAM>
    4bc4:	00db0cb3          	add	s9,s6,a3
    4bc8:	019787b3          	add	a5,a5,s9
    4bcc:	00078023          	sb	zero,0(a5)
    4bd0:	00074783          	lbu	a5,0(a4)
    4bd4:	00078c63          	beqz	a5,4bec <_Z11PrintMaskediiiPKc+0x120>
    4bd8:	00003797          	auipc	a5,0x3
    4bdc:	5f47a783          	lw	a5,1524(a5) # 81cc <VRAM>
    4be0:	00da8cb3          	add	s9,s5,a3
    4be4:	019787b3          	add	a5,a5,s9
    4be8:	00078023          	sb	zero,0(a5)
    4bec:	00174783          	lbu	a5,1(a4)
    4bf0:	00078c63          	beqz	a5,4c08 <_Z11PrintMaskediiiPKc+0x13c>
    4bf4:	00003797          	auipc	a5,0x3
    4bf8:	5d87a783          	lw	a5,1496(a5) # 81cc <VRAM>
    4bfc:	00da0cb3          	add	s9,s4,a3
    4c00:	019787b3          	add	a5,a5,s9
    4c04:	00078023          	sb	zero,0(a5)
    4c08:	00274783          	lbu	a5,2(a4)
    4c0c:	00078c63          	beqz	a5,4c24 <_Z11PrintMaskediiiPKc+0x158>
    4c10:	00003797          	auipc	a5,0x3
    4c14:	5bc7a783          	lw	a5,1468(a5) # 81cc <VRAM>
    4c18:	00d98cb3          	add	s9,s3,a3
    4c1c:	019787b3          	add	a5,a5,s9
    4c20:	00078023          	sb	zero,0(a5)
    4c24:	00374783          	lbu	a5,3(a4)
    4c28:	00078c63          	beqz	a5,4c40 <_Z11PrintMaskediiiPKc+0x174>
    4c2c:	00003797          	auipc	a5,0x3
    4c30:	5a07a783          	lw	a5,1440(a5) # 81cc <VRAM>
    4c34:	00d90cb3          	add	s9,s2,a3
    4c38:	019787b3          	add	a5,a5,s9
    4c3c:	00078023          	sb	zero,0(a5)
    4c40:	00474783          	lbu	a5,4(a4)
    4c44:	00078c63          	beqz	a5,4c5c <_Z11PrintMaskediiiPKc+0x190>
    4c48:	00003797          	auipc	a5,0x3
    4c4c:	5847a783          	lw	a5,1412(a5) # 81cc <VRAM>
    4c50:	00d48cb3          	add	s9,s1,a3
    4c54:	019787b3          	add	a5,a5,s9
    4c58:	00078023          	sb	zero,0(a5)
    4c5c:	00574783          	lbu	a5,5(a4)
    4c60:	00078c63          	beqz	a5,4c78 <_Z11PrintMaskediiiPKc+0x1ac>
    4c64:	00003797          	auipc	a5,0x3
    4c68:	5687a783          	lw	a5,1384(a5) # 81cc <VRAM>
    4c6c:	00d40cb3          	add	s9,s0,a3
    4c70:	019787b3          	add	a5,a5,s9
    4c74:	00078023          	sb	zero,0(a5)
    4c78:	00674783          	lbu	a5,6(a4)
    4c7c:	00078a63          	beqz	a5,4c90 <_Z11PrintMaskediiiPKc+0x1c4>
    4c80:	00003797          	auipc	a5,0x3
    4c84:	54c7a783          	lw	a5,1356(a5) # 81cc <VRAM>
    4c88:	00d787b3          	add	a5,a5,a3
    4c8c:	00078023          	sb	zero,0(a5)
    4c90:	10068693          	addi	a3,a3,256
    4c94:	10070713          	addi	a4,a4,256
    4c98:	f10694e3          	bne	a3,a6,4ba0 <_Z11PrintMaskediiiPKc+0xd4>
    4c9c:	00130313          	addi	t1,t1,1
    4ca0:	00880813          	addi	a6,a6,8
    4ca4:	00888893          	addi	a7,a7,8
    4ca8:	008e0e13          	addi	t3,t3,8
    4cac:	00858593          	addi	a1,a1,8
    4cb0:	00838393          	addi	t2,t2,8
    4cb4:	00828293          	addi	t0,t0,8 # 223c <memset+0xbc>
    4cb8:	008f8f93          	addi	t6,t6,8
    4cbc:	008f0f13          	addi	t5,t5,8
    4cc0:	008e8e93          	addi	t4,t4,8
    4cc4:	e66b9ce3          	bne	s7,t1,4b3c <_Z11PrintMaskediiiPKc+0x70>
    4cc8:	02c12403          	lw	s0,44(sp)
    4ccc:	02812483          	lw	s1,40(sp)
    4cd0:	02412903          	lw	s2,36(sp)
    4cd4:	02012983          	lw	s3,32(sp)
    4cd8:	01c12a03          	lw	s4,28(sp)
    4cdc:	01812a83          	lw	s5,24(sp)
    4ce0:	01412b03          	lw	s6,20(sp)
    4ce4:	01012b83          	lw	s7,16(sp)
    4ce8:	00c12c03          	lw	s8,12(sp)
    4cec:	00812c83          	lw	s9,8(sp)
    4cf0:	03010113          	addi	sp,sp,48
    4cf4:	00008067          	ret
    4cf8:	00008067          	ret

00004cfc <_Z7EchoIntm>:
    4cfc:	00000617          	auipc	a2,0x0
    4d00:	58460613          	addi	a2,a2,1412 # 5280 <PIo2+0x40>
    4d04:	00c62803          	lw	a6,12(a2)
    4d08:	00062e03          	lw	t3,0(a2)
    4d0c:	00462303          	lw	t1,4(a2)
    4d10:	00862883          	lw	a7,8(a2)
    4d14:	fe010113          	addi	sp,sp,-32
    4d18:	00c55713          	srli	a4,a0,0xc
    4d1c:	00855593          	srli	a1,a0,0x8
    4d20:	01855793          	srli	a5,a0,0x18
    4d24:	01012c23          	sw	a6,24(sp)
    4d28:	01c55693          	srli	a3,a0,0x1c
    4d2c:	02010813          	addi	a6,sp,32
    4d30:	00f77713          	andi	a4,a4,15
    4d34:	00f5f593          	andi	a1,a1,15
    4d38:	00f7f793          	andi	a5,a5,15
    4d3c:	01112a23          	sw	a7,20(sp)
    4d40:	01c12623          	sw	t3,12(sp)
    4d44:	00612823          	sw	t1,16(sp)
    4d48:	00b805b3          	add	a1,a6,a1
    4d4c:	00f807b3          	add	a5,a6,a5
    4d50:	00d806b3          	add	a3,a6,a3
    4d54:	00e80733          	add	a4,a6,a4
    4d58:	00455893          	srli	a7,a0,0x4
    4d5c:	01455813          	srli	a6,a0,0x14
    4d60:	fec5cf83          	lbu	t6,-20(a1)
    4d64:	fec7cf03          	lbu	t5,-20(a5)
    4d68:	fec6c683          	lbu	a3,-20(a3)
    4d6c:	02010793          	addi	a5,sp,32
    4d70:	fec74703          	lbu	a4,-20(a4)
    4d74:	00f8f893          	andi	a7,a7,15
    4d78:	00f87813          	andi	a6,a6,15
    4d7c:	011788b3          	add	a7,a5,a7
    4d80:	01078833          	add	a6,a5,a6
    4d84:	01055593          	srli	a1,a0,0x10
    4d88:	ffff07b7          	lui	a5,0xffff0
    4d8c:	fec8ce83          	lbu	t4,-20(a7)
    4d90:	fec84e03          	lbu	t3,-20(a6)
    4d94:	0ff78793          	addi	a5,a5,255 # ffff00ff <__stack+0xfffe6e6f>
    4d98:	02010813          	addi	a6,sp,32
    4d9c:	00f57513          	andi	a0,a0,15
    4da0:	00f5f593          	andi	a1,a1,15
    4da4:	00a80533          	add	a0,a6,a0
    4da8:	00b805b3          	add	a1,a6,a1
    4dac:	008f9f93          	slli	t6,t6,0x8
    4db0:	00f77733          	and	a4,a4,a5
    4db4:	008f1f13          	slli	t5,t5,0x8
    4db8:	00f6f7b3          	and	a5,a3,a5
    4dbc:	ff010837          	lui	a6,0xff010
    4dc0:	fff80813          	addi	a6,a6,-1 # ff00ffff <__stack+0xff006d6f>
    4dc4:	fec54303          	lbu	t1,-20(a0)
    4dc8:	fec5c883          	lbu	a7,-20(a1)
    4dcc:	01f76733          	or	a4,a4,t6
    4dd0:	01e7e7b3          	or	a5,a5,t5
    4dd4:	00000517          	auipc	a0,0x0
    4dd8:	4d050513          	addi	a0,a0,1232 # 52a4 <PIo2+0x64>
    4ddc:	01077733          	and	a4,a4,a6
    4de0:	0107f7b3          	and	a5,a5,a6
    4de4:	010e9e93          	slli	t4,t4,0x10
    4de8:	010e1e13          	slli	t3,t3,0x10
    4dec:	010005b7          	lui	a1,0x1000
    4df0:	01064f83          	lbu	t6,16(a2)
    4df4:	00855f03          	lhu	t5,8(a0)
    4df8:	00a54803          	lbu	a6,10(a0)
    4dfc:	fff58593          	addi	a1,a1,-1 # ffffff <__stack+0xff6d6f>
    4e00:	01d76733          	or	a4,a4,t4
    4e04:	01c7e7b3          	or	a5,a5,t3
    4e08:	01831513          	slli	a0,t1,0x18
    4e0c:	00b77733          	and	a4,a4,a1
    4e10:	01889613          	slli	a2,a7,0x18
    4e14:	00b7f7b3          	and	a5,a5,a1
    4e18:	00a76733          	or	a4,a4,a0
    4e1c:	00c7e7b3          	or	a5,a5,a2
    4e20:	01f10e23          	sb	t6,28(sp)
    4e24:	01e11423          	sh	t5,8(sp)
    4e28:	01010523          	sb	a6,10(sp)
    4e2c:	00f12023          	sw	a5,0(sp)
    4e30:	00e12223          	sw	a4,4(sp)
    4e34:	02068a63          	beqz	a3,4e68 <_Z7EchoIntm+0x16c>
    4e38:	00003517          	auipc	a0,0x3
    4e3c:	00010593          	mv	a1,sp
    4e40:	00110793          	addi	a5,sp,1
    4e44:	39050513          	addi	a0,a0,912 # 81c8 <UARTTX>
    4e48:	fff5c593          	not	a1,a1
    4e4c:	00052703          	lw	a4,0(a0)
    4e50:	00f58633          	add	a2,a1,a5
    4e54:	00178793          	addi	a5,a5,1
    4e58:	00c70733          	add	a4,a4,a2
    4e5c:	00d70023          	sb	a3,0(a4)
    4e60:	fff7c683          	lbu	a3,-1(a5)
    4e64:	fe0694e3          	bnez	a3,4e4c <_Z7EchoIntm+0x150>
    4e68:	02010113          	addi	sp,sp,32
    4e6c:	00008067          	ret

00004e70 <_Z6Randomv>:
    4e70:	00003797          	auipc	a5,0x3
    4e74:	36078793          	addi	a5,a5,864 # 81d0 <seed>
    4e78:	0007a503          	lw	a0,0(a5)
    4e7c:	00951713          	slli	a4,a0,0x9
    4e80:	00a74733          	xor	a4,a4,a0
    4e84:	00d75513          	srli	a0,a4,0xd
    4e88:	00e54733          	xor	a4,a0,a4
    4e8c:	00171513          	slli	a0,a4,0x1
    4e90:	00e54533          	xor	a0,a0,a4
    4e94:	00a7a023          	sw	a0,0(a5)
    4e98:	00008067          	ret
ELF Header:
  Magic:   7f 45 4c 46 01 01 01 00 00 00 00 00 00 00 00 00 
  Class:                             ELF32
  Data:                              2's complement, little endian
  Version:                           1 (current)
  OS/ABI:                            UNIX - System V
  ABI Version:                       0
  Type:                              EXEC (Executable file)
  Machine:                           RISC-V
  Version:                           0x1
  Entry point address:               0x2000
  Start of program headers:          52 (bytes into file)
  Start of section headers:          32188 (bytes into file)
  Flags:                             0x2, single-float ABI
  Size of this header:               52 (bytes)
  Size of program headers:           32 (bytes)
  Number of program headers:         1
  Size of section headers:           40 (bytes)
  Number of section headers:         18
  Section header string table index: 17

Section Headers:
  [Nr] Name              Type            Addr     Off    Size   ES Flg Lk Inf Al
  [ 0]                   NULL            00000000 000000 000000 00      0   0  0
  [ 1] .boot             PROGBITS        00002000 001000 000074 00  AX  0   0  4
  [ 2] .text             PROGBITS        00002074 001074 002e28 00  AX  0   0  4
  [ 3] .rodata           PROGBITS        00004e9c 003e9c 001c14 00   A  0   0  4
  [ 4] .srodata          PROGBITS        00006ab0 005ab0 000004 00   A  0   0  4
  [ 5] .eh_frame         PROGBITS        00006ab4 005ab4 0002e4 00   A  0   0  4
  [ 6] .data             PROGBITS        00006d98 005d98 00143c 00  WA  0   0  8
  [ 7] .got              PROGBITS        000081d4 0071d4 00001c 04  WA  0   0  4
  [ 8] .got.plt          PROGBITS        000081f0 0071f0 000008 04  WA  0   0  4
  [ 9] .sdata            PROGBITS        000081f8 0071f8 000088 04  AM  0   0  4
  [10] .sbss             NOBITS          00008280 007280 00000c 00  WA  0   0  4
  [11] .bss              NOBITS          0000828c 007280 000004 00  WA  0   0  4
  [12] .stack            NOBITS          00008290 007280 001000 00  WA  0   0  1
  [13] .comment          PROGBITS        00000000 007280 000012 01  MS  0   0  1
  [14] .riscv.attributes RISCV_ATTRIBUTE 00000000 007292 000026 00      0   0  1
  [15] .symtab           SYMTAB          00000000 0072b8 000660 10     16  49  4
  [16] .strtab           STRTAB          00000000 007918 000418 00      0   0  1
  [17] .shstrtab         STRTAB          00000000 007d30 00008a 00      0   0  1
Key to Flags:
  W (write), A (alloc), X (execute), M (merge), S (strings), I (info),
  L (link order), O (extra OS processing required), G (group), T (TLS),
  C (compressed), x (unknown), o (OS specific), E (exclude),
  p (processor specific)

There are no section groups in this file.

Program Headers:
  Type           Offset   VirtAddr   PhysAddr   FileSiz MemSiz  Flg Align
  LOAD           0x001000 0x00002000 0x00002000 0x06280 0x07290 RWE 0x1000

 Section to Segment mapping:
  Segment Sections...
   00     .boot .text .rodata .srodata .eh_frame .data .got .got.plt .sdata .sbss .bss .stack 

There is no dynamic section in this file.

There are no relocations in this file.

The decoding of unwind sections for machine type RISC-V is not currently supported.

Symbol table '.symtab' contains 102 entries:
   Num:    Value  Size Type    Bind   Vis      Ndx Name
     0: 00000000     0 NOTYPE  LOCAL  DEFAULT  UND 
     1: 00002000     0 SECTION LOCAL  DEFAULT    1 
     2: 00002074     0 SECTION LOCAL  DEFAULT    2 
     3: 00004e9c     0 SECTION LOCAL  DEFAULT    3 
     4: 00006ab0     0 SECTION LOCAL  DEFAULT    4 
     5: 00006ab4     0 SECTION LOCAL  DEFAULT    5 
     6: 00006d98     0 SECTION LOCAL  DEFAULT    6 
     7: 000081d4     0 SECTION LOCAL  DEFAULT    7 
     8: 000081f0     0 SECTION LOCAL  DEFAULT    8 
     9: 000081f8     0 SECTION LOCAL  DEFAULT    9 
    10: 00008280     0 SECTION LOCAL  DEFAULT   10 
    11: 0000828c     0 SECTION LOCAL  DEFAULT   11 
    12: 00008290     0 SECTION LOCAL  DEFAULT   12 
    13: 00000000     0 SECTION LOCAL  DEFAULT   13 
    14: 00000000     0 SECTION LOCAL  DEFAULT   14 
    15: 00000000     0 FILE    LOCAL  DEFAULT  ABS gpupipetest.cpp
    16: 00002040     0 NOTYPE  LOCAL  DEFAULT    1 noatexitfound
    17: 0000828c     4 OBJECT  LOCAL  DEFAULT   11 _ZZ13drawparticlesPsE12sp
    18: 000071c0     4 OBJECT  LOCAL  DEFAULT    6 _ZZ8drawrectffhE4roll
    19: 00000000     0 FILE    LOCAL  DEFAULT  ABS atexit.c
    20: 00000000     0 FILE    LOCAL  DEFAULT  ABS fini.c
    21: 00000000     0 FILE    LOCAL  DEFAULT  ABS init.c
    22: 00000000     0 FILE    LOCAL  DEFAULT  ABS __atexit.c
    23: 00000000     0 FILE    LOCAL  DEFAULT  ABS sf_cos.c
    24: 00000000     0 FILE    LOCAL  DEFAULT  ABS sf_sin.c
    25: 00000000     0 FILE    LOCAL  DEFAULT  ABS ef_rem_pio2.c
    26: 00004e9c   128 OBJECT  LOCAL  DEFAULT    3 npio2_hw
    27: 00004f1c   792 OBJECT  LOCAL  DEFAULT    3 two_over_pi
    28: 00000000     0 FILE    LOCAL  DEFAULT  ABS kf_cos.c
    29: 00000000     0 FILE    LOCAL  DEFAULT  ABS kf_rem_pio2.c
    30: 00005234    12 OBJECT  LOCAL  DEFAULT    3 init_jk
    31: 00005240    44 OBJECT  LOCAL  DEFAULT    3 PIo2
    32: 00000000     0 FILE    LOCAL  DEFAULT  ABS kf_sin.c
    33: 00000000     0 FILE    LOCAL  DEFAULT  ABS sf_fabs.c
    34: 00000000     0 FILE    LOCAL  DEFAULT  ABS sf_floor.c
    35: 00000000     0 FILE    LOCAL  DEFAULT  ABS sf_scalbn.c
    36: 00000000     0 FILE    LOCAL  DEFAULT  ABS utils.cpp
    37: 000052b0  6144 OBJECT  LOCAL  DEFAULT    3 _ZL4font
    38: 00000000     0 FILE    LOCAL  DEFAULT  ABS impure.c
    39: 00006d98  1064 OBJECT  LOCAL  DEFAULT    6 impure_data
    40: 00000000     0 FILE    LOCAL  DEFAULT  ABS 
    41: 000081c4     4 OBJECT  LOCAL  DEFAULT    6 GPUFIFO
    42: 00006ab0     0 NOTYPE  LOCAL  DEFAULT    4 __fini_array_end
    43: 00006ab0     0 NOTYPE  LOCAL  DEFAULT    4 __fini_array_start
    44: 00006ab0     0 NOTYPE  LOCAL  DEFAULT    4 __init_array_end
    45: 00006ab0     0 NOTYPE  LOCAL  DEFAULT    4 __preinit_array_end
    46: 000081d4     0 OBJECT  LOCAL  DEFAULT    7 _GLOBAL_OFFSET_TABLE_
    47: 00006ab0     0 NOTYPE  LOCAL  DEFAULT    4 __init_array_start
    48: 00006ab0     0 NOTYPE  LOCAL  DEFAULT    4 __preinit_array_start
    49: 00003344   516 FUNC    GLOBAL HIDDEN     2 _Z8drawrectffh
    50: 00008a00     0 NOTYPE  GLOBAL DEFAULT  ABS __global_pointer$
    51: 00006da0     0 NOTYPE  GLOBAL DEFAULT    6 _fdata
    52: 0000469c   548 FUNC    GLOBAL HIDDEN     2 _Z11PrintMaskediiPKc
    53: 000081cc     4 OBJECT  GLOBAL HIDDEN     6 VRAM
    54: 0000243c   740 FUNC    GLOBAL DEFAULT    2 __ieee754_rem_pio2f
    55: 00003c60   924 FUNC    GLOBAL HIDDEN     2 _Z8PrintDMAiiPKcb
    56: 00006ab0     0 NOTYPE  GLOBAL DEFAULT    3 _etext
    57: 00008a00     0 NOTYPE  GLOBAL DEFAULT    9 _gp
    58: 00002074     0 NOTYPE  GLOBAL DEFAULT    1 _boot
    59: 00004cfc   372 FUNC    GLOBAL HIDDEN     2 _Z7EchoIntm
    60: 00004e70    44 FUNC    GLOBAL HIDDEN     2 _Z6Randomv
    61: 0000828c     0 NOTYPE  GLOBAL DEFAULT   11 _bss_start
    62: 00008288     4 OBJECT  GLOBAL DEFAULT   10 __malloc_top_pad
    63: 00003164     8 FUNC    GLOBAL DEFAULT    2 fabsf
    64: 00008284     4 OBJECT  GLOBAL DEFAULT   10 __malloc_max_sbrked_mem
    65: 000048c0   524 FUNC    GLOBAL HIDDEN     2 _Z5PrintiiiPKc
    66: 00006ab0     4 OBJECT  GLOBAL DEFAULT    4 _global_impure_ptr
    67: 000020e4   156 FUNC    GLOBAL DEFAULT    2 __libc_init_array
    68: 000030d8   140 FUNC    GLOBAL DEFAULT    2 __kernel_sinf
    69: 00004acc   560 FUNC    GLOBAL HIDDEN     2 _Z11PrintMaskediiiPKc
    70: 000022f8   160 FUNC    GLOBAL DEFAULT    2 cosf
    71: 00008290     0 NOTYPE  GLOBAL DEFAULT   11 _bss_end
    72: 00002088    92 FUNC    GLOBAL DEFAULT    2 __libc_fini_array
    73: 00002720   256 FUNC    GLOBAL DEFAULT    2 __kernel_cosf
    74: 00009290     0 NOTYPE  GLOBAL DEFAULT   12 __stack_top
    75: 00002074     0 NOTYPE  GLOBAL DEFAULT    1 _ftext
    76: 00002000    84 FUNC    GLOBAL HIDDEN     1 _start
    77: 0000225c   156 FUNC    GLOBAL DEFAULT    2 __register_exitproc
    78: 000043a4   516 FUNC    GLOBAL HIDDEN     2 _Z5PrintiiPKc
    79: 000081d0     4 OBJECT  GLOBAL HIDDEN     6 seed
    80: 00003224   288 FUNC    GLOBAL DEFAULT    2 scalbnf
    81: 00001000     0 NOTYPE  GLOBAL DEFAULT  ABS _STACK_SIZE
    82: 00002180   220 FUNC    GLOBAL DEFAULT    2 memset
    83: 000037f0  1136 FUNC    GLOBAL HIDDEN     2 main
    84: 000045a8   244 FUNC    GLOBAL HIDDEN     2 _Z8PrintHexiim
    85: 00008280     4 OBJECT  GLOBAL DEFAULT   10 __malloc_max_total_mem
    86: 00003548   132 FUNC    GLOBAL HIDDEN     2 _Z14resetparticlesPs
    87: 00008290     0 NOTYPE  GLOBAL DEFAULT   12 _stack_end
    88: 00002074    20 FUNC    GLOBAL DEFAULT    2 atexit
    89: 000071c4  4096 OBJECT  GLOBAL HIDDEN     6 sinewave
    90: 00008290     0 NOTYPE  GLOBAL DEFAULT   11 __BSS_END__$
    91: 00002398   164 FUNC    GLOBAL DEFAULT    2 sinf
    92: 00009290     0 NOTYPE  GLOBAL DEFAULT   12 __stack
    93: 00003ffc   936 FUNC    GLOBAL HIDDEN     2 _Z8PrintDMAiiiPKcb
    94: 000081d4     0 NOTYPE  GLOBAL DEFAULT    6 _edata
    95: 00009290     0 NOTYPE  GLOBAL DEFAULT   12 _end
    96: 000035cc   548 FUNC    GLOBAL HIDDEN     2 _Z13drawparticlesPs
    97: 00002054    32 FUNC    GLOBAL HIDDEN     1 _exit
    98: 00002820  2232 FUNC    GLOBAL DEFAULT    2 __kernel_rem_pio2f
    99: 0000316c   184 FUNC    GLOBAL DEFAULT    2 floorf
   100: 000081c8     4 OBJECT  GLOBAL HIDDEN     6 UARTTX
   101: 00008280     0 NOTYPE  GLOBAL DEFAULT   10 _fbss

No version information found in this file.
Attribute Section: riscv
File Attributes
  Tag_RISCV_stack_align: 16-bytes
  Tag_RISCV_arch: "rv32i2p0_m2p0_f2p0"
