
gpupipetest.elf:     file format elf32-littleriscv

SYMBOL TABLE:
00010074 l    d  .text	00000000 .text
00013610 l    d  .rodata	00000000 .rodata
00016370 l    d  .eh_frame	00000000 .eh_frame
000166b8 l    d  .init_array	00000000 .init_array
000166c0 l    d  .fini_array	00000000 .fini_array
000166c8 l    d  .data	00000000 .data
00017b00 l    d  .got	00000000 .got
00017b1c l    d  .sdata	00000000 .sdata
00017bac l    d  .bss	00000000 .bss
00000000 l    d  .comment	00000000 .comment
00000000 l    d  .riscv.attributes	00000000 .riscv.attributes
00000000 l    d  .debug_aranges	00000000 .debug_aranges
00000000 l    d  .debug_info	00000000 .debug_info
00000000 l    d  .debug_abbrev	00000000 .debug_abbrev
00000000 l    d  .debug_line	00000000 .debug_line
00000000 l    d  .debug_str	00000000 .debug_str
00000000 l    d  .debug_loc	00000000 .debug_loc
00000000 l    d  .debug_ranges	00000000 .debug_ranges
00000000 l    df *ABS*	00000000 gpupipetest.cpp
00017bc8 l     O .bss	00000004 _ZZ13drawparticlesPsE12spawnerindex
00017bcc l     O .bss	00000004 _ZZ13drawparticlesPsE5proll
00000000 l    df *ABS*	00000000 __call_atexit.c
000104c0 l     F .text	00000018 register_fini
00000000 l    df *ABS*	00000000 crtstuff.c
00016370 l     O .eh_frame	00000000 __EH_FRAME_BEGIN__
00010528 l     F .text	00000000 __do_global_dtors_aux
00017bac l     O .bss	00000001 completed.1
000166c0 l     O .fini_array	00000000 __do_global_dtors_aux_fini_array_entry
00010574 l     F .text	00000000 frame_dummy
00017bb0 l     O .bss	00000018 object.0
000166bc l     O .init_array	00000000 __frame_dummy_init_array_entry
00000000 l    df *ABS*	00000000 utils.cpp
0001368c l     O .rodata	00001800 _ZL4font
00000000 l    df *ABS*	00000000 console.cpp
00017bd0 l     O .bss	00000300 _ZL11consoleText
00017ed0 l     O .bss	00000004 _ZL7cursorx
00017ed4 l     O .bss	00000004 _ZL7cursory
00000000 l    df *ABS*	00000000 libgcc2.c
00000000 l    df *ABS*	00000000 sf_cos.c
00000000 l    df *ABS*	00000000 sf_sin.c
00000000 l    df *ABS*	00000000 ef_rem_pio2.c
00014fa0 l     O .rodata	00000080 npio2_hw
00015020 l     O .rodata	00000318 two_over_pi
00000000 l    df *ABS*	00000000 kf_cos.c
00000000 l    df *ABS*	00000000 kf_rem_pio2.c
00015338 l     O .rodata	0000000c init_jk
00015344 l     O .rodata	0000002c PIo2
00000000 l    df *ABS*	00000000 kf_sin.c
00000000 l    df *ABS*	00000000 sf_fabs.c
00000000 l    df *ABS*	00000000 sf_floor.c
00000000 l    df *ABS*	00000000 sf_scalbn.c
00000000 l    df *ABS*	00000000 exit.c
00000000 l    df *ABS*	00000000 init.c
00000000 l    df *ABS*	00000000 fini.c
00000000 l    df *ABS*	00000000 atexit.c
00000000 l    df *ABS*	00000000 __atexit.c
00000000 l    df *ABS*	00000000 sys_exit.c
00000000 l    df *ABS*	00000000 errno.c
00000000 l    df *ABS*	00000000 libgcc2.c
00000000 l    df *ABS*	00000000 crtstuff.c
000166b4 l     O .eh_frame	00000000 __FRAME_END__
00000000 l    df *ABS*	00000000 impure.c
000176d8 l     O .data	00000428 impure_data
00000000 l    df *ABS*	00000000 
000166c4 l       .fini_array	00000000 __fini_array_end
000166c0 l       .fini_array	00000000 __fini_array_start
000166c0 l       .init_array	00000000 __init_array_end
000166b8 l       .init_array	00000000 __preinit_array_end
00017b08 l     O .got	00000000 _GLOBAL_OFFSET_TABLE_
000166b8 l       .init_array	00000000 __init_array_start
000166b8 l       .init_array	00000000 __preinit_array_start
000105c8 g     F .text	000001d4 _Z8drawrectfff
000176d8 g       *ABS*	00000000 __global_pointer$
00013608 g     F .text	00000008 __errno
00012314 g     F .text	000002d0 __ieee754_rem_pio2f
00010b30 g     F .text	000003a0 _Z8PrintDMAiiPKcb
00017b1c g       .sdata	00000000 __SDATA_BEGIN__
00011640 g     F .text	00000150 _Z7EchoIntm
000176c8 g     O .data	00000004 GPUFIFO
000118c0 g     F .text	00000014 _Z16SetConsoleCursorii
00011790 g     F .text	0000002c _Z6Randomv
00011d3c g     F .text	00000060 _Z11DrawConsolev
00010594 g     F .text	00000034 _Z4ssini
00011880 g     F .text	00000040 _Z15ClearConsoleRowv
00013028 g     F .text	00000008 fabsf
00017ba4 g     O .sdata	00000004 _global_impure_ptr
00013238 g     F .text	0000009c __libc_init_array
00012f9c g     F .text	0000008c __kernel_sinf
000117bc g     F .text	0000000c _Z9ReadClockv
000117c8 g     F .text	00000024 _Z9ClockToMsy
00011d9c g     F .text	00000434 .hidden __udivdi3
000121d0 g     F .text	000000a0 cosf
00011830 g     F .text	00000050 _Z12ClearConsolev
000134d0 g     F .text	0000005c __libc_fini_array
000125e4 g     F .text	00000100 __kernel_cosf
000133b0 g     F .text	00000120 __call_exitprocs
000104d8 g     F .text	00000050 _start
000117ec g     F .text	00000044 _Z12ClockMsToHMSmRmS_S_
00013540 g     F .text	00000098 __register_exitproc
000118d4 g     F .text	00000074 _Z13ScrollConsolev
000176d0 g     O .data	00000004 seed
00017ed8 g       .bss	00000000 __BSS_END__
000130e8 g     F .text	00000120 scalbnf
00017bac g       .bss	00000000 __bss_start
00011a58 g     F .text	000002e4 _Z11EchoConsolel
000132d4 g     F .text	000000dc memset
00010074 g     F .text	0000044c main
0001079c g     F .text	00000074 _Z14resetparticlesPs
00011350 g     F .text	000002bc _Z15PrintDMADecimaliim
00014ea0 g     O .rodata	00000100 .hidden __clz_tab
0001352c g     F .text	00000014 atexit
00017ba8 g     O .sdata	00000004 _impure_ptr
00011258 g     F .text	000000f8 _Z11PrintDMAHexiim
000166c8 g     O .data	00001000 sinewave
00012270 g     F .text	000000a4 sinf
000166c8 g       .data	00000000 __DATA_BEGIN__
0001160c g     F .text	00000034 _Z8EchoUARTPKc
00010ed0 g     F .text	00000388 _Z8PrintDMAiiiPKcb
00017bac g       .sdata	00000000 _edata
00017ed8 g       .bss	00000000 _end
00013208 g     F .text	00000030 exit
00010810 g     F .text	00000320 _Z13drawparticlesPs
000135d8 g     F .text	00000030 _exit
000126e4 g     F .text	000008b8 __kernel_rem_pio2f
00013030 g     F .text	000000b8 floorf
000176cc g     O .data	00000004 UARTTX
00011948 g     F .text	00000110 _Z11EchoConsolePKc



Disassembly of section .text:

00010074 <main>:
   10074:	f6010113          	addi	sp,sp,-160
   10078:	fffff337          	lui	t1,0xfffff
   1007c:	08112e23          	sw	ra,156(sp)
   10080:	08812c23          	sw	s0,152(sp)
   10084:	08912a23          	sw	s1,148(sp)
   10088:	09212823          	sw	s2,144(sp)
   1008c:	09412423          	sw	s4,136(sp)
   10090:	09512223          	sw	s5,132(sp)
   10094:	09612023          	sw	s6,128(sp)
   10098:	07812c23          	sw	s8,120(sp)
   1009c:	04812e27          	fsw	fs0,92(sp)
   100a0:	04912c27          	fsw	fs1,88(sp)
   100a4:	05212a27          	fsw	fs2,84(sp)
   100a8:	05312827          	fsw	fs3,80(sp)
   100ac:	05412627          	fsw	fs4,76(sp)
   100b0:	05512427          	fsw	fs5,72(sp)
   100b4:	05612227          	fsw	fs6,68(sp)
   100b8:	09312623          	sw	s3,140(sp)
   100bc:	07712e23          	sw	s7,124(sp)
   100c0:	07912a23          	sw	s9,116(sp)
   100c4:	07a12823          	sw	s10,112(sp)
   100c8:	07b12623          	sw	s11,108(sp)
   100cc:	00610133          	add	sp,sp,t1
   100d0:	760010ef          	jal	ra,11830 <_Z12ClearConsolev>
   100d4:	00008497          	auipc	s1,0x8
   100d8:	a384a483          	lw	s1,-1480(s1) # 17b0c <_GLOBAL_OFFSET_TABLE_+0x4>
   100dc:	0004a783          	lw	a5,0(s1)
   100e0:	38100713          	li	a4,897
   100e4:	00001837          	lui	a6,0x1
   100e8:	00e7a023          	sw	a4,0(a5)
   100ec:	3f100713          	li	a4,1009
   100f0:	00e7a223          	sw	a4,4(a5)
   100f4:	03010693          	addi	a3,sp,48
   100f8:	01080713          	addi	a4,a6,16 # 1010 <main-0xf064>
   100fc:	fffff437          	lui	s0,0xfffff
   10100:	00d70733          	add	a4,a4,a3
   10104:	00870ab3          	add	s5,a4,s0
   10108:	fe0aa823          	sw	zero,-16(s5)
   1010c:	30100713          	li	a4,769
   10110:	00e7a023          	sw	a4,0(a5)
   10114:	36100713          	li	a4,865
   10118:	00e7a223          	sw	a4,4(a5)
   1011c:	06700713          	li	a4,103
   10120:	00e7a423          	sw	a4,8(a5)
   10124:	000a8513          	mv	a0,s5
   10128:	00080913          	mv	s2,a6
   1012c:	670000ef          	jal	ra,1079c <_Z14resetparticlesPs>
   10130:	03010693          	addi	a3,sp,48
   10134:	01090713          	addi	a4,s2,16
   10138:	00d70733          	add	a4,a4,a3
   1013c:	ff040793          	addi	a5,s0,-16 # ffffeff0 <__BSS_END__+0xfffe7118>
   10140:	00f707b3          	add	a5,a4,a5
   10144:	0167d613          	srli	a2,a5,0x16
   10148:	00a79693          	slli	a3,a5,0xa
   1014c:	00a61613          	slli	a2,a2,0xa
   10150:	0816e693          	ori	a3,a3,129
   10154:	00d12c23          	sw	a3,24(sp)
   10158:	09166693          	ori	a3,a2,145
   1015c:	00d12e23          	sw	a3,28(sp)
   10160:	00003697          	auipc	a3,0x3
   10164:	4e46a987          	flw	fs3,1252(a3) # 13644 <__errno+0x3c>
   10168:	00003697          	auipc	a3,0x3
   1016c:	4e06a907          	flw	fs2,1248(a3) # 13648 <__errno+0x40>
   10170:	00003697          	auipc	a3,0x3
   10174:	4dc6a487          	flw	fs1,1244(a3) # 1364c <__errno+0x44>
   10178:	00003697          	auipc	a3,0x3
   1017c:	4d86a407          	flw	fs0,1240(a3) # 13650 <__errno+0x48>
   10180:	00003697          	auipc	a3,0x3
   10184:	4d46ab07          	flw	fs6,1236(a3) # 13654 <__errno+0x4c>
   10188:	00003697          	auipc	a3,0x3
   1018c:	4d06aa87          	flw	fs5,1232(a3) # 13658 <__errno+0x50>
   10190:	00003697          	auipc	a3,0x3
   10194:	4cc6aa07          	flw	fs4,1228(a3) # 1365c <__errno+0x54>
   10198:	03010613          	addi	a2,sp,48
   1019c:	01090693          	addi	a3,s2,16
   101a0:	ffc40513          	addi	a0,s0,-4
   101a4:	00c686b3          	add	a3,a3,a2
   101a8:	00a686b3          	add	a3,a3,a0
   101ac:	02d12023          	sw	a3,32(sp)
   101b0:	01090693          	addi	a3,s2,16
   101b4:	ff840593          	addi	a1,s0,-8
   101b8:	00c686b3          	add	a3,a3,a2
   101bc:	00b686b3          	add	a3,a3,a1
   101c0:	02d12223          	sw	a3,36(sp)
   101c4:	01090693          	addi	a3,s2,16
   101c8:	ff440793          	addi	a5,s0,-12
   101cc:	00c686b3          	add	a3,a3,a2
   101d0:	00f687b3          	add	a5,a3,a5
   101d4:	02f12423          	sw	a5,40(sp)
   101d8:	0004a703          	lw	a4,0(s1)
   101dc:	000107b7          	lui	a5,0x10
   101e0:	fff78793          	addi	a5,a5,-1 # ffff <main-0x75>
   101e4:	00001a37          	lui	s4,0x1
   101e8:	00012623          	sw	zero,12(sp)
   101ec:	00012823          	sw	zero,16(sp)
   101f0:	00000b13          	li	s6,0
   101f4:	00000c13          	li	s8,0
   101f8:	00000413          	li	s0,0
   101fc:	02f12623          	sw	a5,44(sp)
   10200:	800a0a13          	addi	s4,s4,-2048 # 800 <main-0xf874>
   10204:	ff0aa783          	lw	a5,-16(s5)
   10208:	ff679ee3          	bne	a5,s6,10204 <main+0x190>
   1020c:	a08b17d3          	flt.s	a5,fs6,fs0
   10210:	001b0b13          	addi	s6,s6,1
   10214:	28079e63          	bnez	a5,104b0 <main+0x43c>
   10218:	f00007d3          	fmv.w.x	fa5,zero
   1021c:	a0f417d3          	flt.s	a5,fs0,fa5
   10220:	28079863          	bnez	a5,104b0 <main+0x43c>
   10224:	a09a97d3          	flt.s	a5,fs5,fs1
   10228:	28079063          	bnez	a5,104a8 <main+0x434>
   1022c:	f00007d3          	fmv.w.x	fa5,zero
   10230:	a0f497d3          	flt.s	a5,fs1,fa5
   10234:	26079a63          	bnez	a5,104a8 <main+0x434>
   10238:	07300793          	li	a5,115
   1023c:	00f72a23          	sw	a5,20(a4)
   10240:	000a8513          	mv	a0,s5
   10244:	5cc000ef          	jal	ra,10810 <_Z13drawparticlesPs>
   10248:	574010ef          	jal	ra,117bc <_Z9ReadClockv>
   1024c:	57c010ef          	jal	ra,117c8 <_Z9ClockToMsy>
   10250:	02012683          	lw	a3,32(sp)
   10254:	02412603          	lw	a2,36(sp)
   10258:	02812583          	lw	a1,40(sp)
   1025c:	00050913          	mv	s2,a0
   10260:	00a12a23          	sw	a0,20(sp)
   10264:	588010ef          	jal	ra,117ec <_Z12ClockMsToHMSmRmS_S_>
   10268:	02c12703          	lw	a4,44(sp)
   1026c:	01247453          	fadd.s	fs0,fs0,fs2
   10270:	0134f4d3          	fadd.s	fs1,fs1,fs3
   10274:	02e977b3          	remu	a5,s2,a4
   10278:	00040c93          	mv	s9,s0
   1027c:	00000b93          	li	s7,0
   10280:	20840553          	fmv.s	fa0,fs0
   10284:	209485d3          	fmv.s	fa1,fs1
   10288:	0ad00993          	li	s3,173
   1028c:	00300913          	li	s2,3
   10290:	00200d13          	li	s10,2
   10294:	00100d93          	li	s11,1
   10298:	d007f653          	fcvt.s.w	fa2,a5
   1029c:	11467653          	fmul.s	fa2,fa2,fs4
   102a0:	328000ef          	jal	ra,105c8 <_Z8drawrectfff>
   102a4:	0004a783          	lw	a5,0(s1)
   102a8:	d0100693          	li	a3,-767
   102ac:	00d7a023          	sw	a3,0(a5)
   102b0:	001006b7          	lui	a3,0x100
   102b4:	d2168693          	addi	a3,a3,-735 # ffd21 <__BSS_END__+0xe7e49>
   102b8:	00d7a223          	sw	a3,4(a5)
   102bc:	030306b7          	lui	a3,0x3030
   102c0:	18168693          	addi	a3,a3,385 # 3030181 <__BSS_END__+0x30182a9>
   102c4:	00d7a023          	sw	a3,0(a5)
   102c8:	000c16b7          	lui	a3,0xc1
   102cc:	db168693          	addi	a3,a3,-591 # c0db1 <__BSS_END__+0xa8ed9>
   102d0:	00d7a223          	sw	a3,4(a5)
   102d4:	000c8513          	mv	a0,s9
   102d8:	2bc000ef          	jal	ra,10594 <_Z4ssini>
   102dc:	033547b3          	div	a5,a0,s3
   102e0:	0fffc8b7          	lui	a7,0xfffc
   102e4:	0004a803          	lw	a6,0(s1)
   102e8:	10000513          	li	a0,256
   102ec:	000026b7          	lui	a3,0x2
   102f0:	002c8c93          	addi	s9,s9,2
   102f4:	06078793          	addi	a5,a5,96
   102f8:	00879793          	slli	a5,a5,0x8
   102fc:	017787b3          	add	a5,a5,s7
   10300:	0037f613          	andi	a2,a5,3
   10304:	0027d793          	srli	a5,a5,0x2
   10308:	00e79793          	slli	a5,a5,0xe
   1030c:	001b8b93          	addi	s7,s7,1
   10310:	0117f7b3          	and	a5,a5,a7
   10314:	01260c63          	beq	a2,s2,1032c <main+0x2b8>
   10318:	000016b7          	lui	a3,0x1
   1031c:	01a60863          	beq	a2,s10,1032c <main+0x2b8>
   10320:	40000693          	li	a3,1024
   10324:	01b61463          	bne	a2,s11,1032c <main+0x2b8>
   10328:	000a0693          	mv	a3,s4
   1032c:	00d7e7b3          	or	a5,a5,a3
   10330:	0227e793          	ori	a5,a5,34
   10334:	00f82423          	sw	a5,8(a6)
   10338:	f8ab9ee3          	bne	s7,a0,102d4 <main+0x260>
   1033c:	00000b93          	li	s7,0
   10340:	08200993          	li	s3,130
   10344:	00300913          	li	s2,3
   10348:	00200d13          	li	s10,2
   1034c:	00100d93          	li	s11,1
   10350:	00040513          	mv	a0,s0
   10354:	240000ef          	jal	ra,10594 <_Z4ssini>
   10358:	03354533          	div	a0,a0,s3
   1035c:	0004a803          	lw	a6,0(s1)
   10360:	0000c5b7          	lui	a1,0xc
   10364:	000026b7          	lui	a3,0x2
   10368:	00340413          	addi	s0,s0,3
   1036c:	08050513          	addi	a0,a0,128
   10370:	01750533          	add	a0,a0,s7
   10374:	00255793          	srli	a5,a0,0x2
   10378:	00357613          	andi	a2,a0,3
   1037c:	00e79793          	slli	a5,a5,0xe
   10380:	0fffc537          	lui	a0,0xfffc
   10384:	100b8b93          	addi	s7,s7,256
   10388:	00a7f7b3          	and	a5,a5,a0
   1038c:	01260c63          	beq	a2,s2,103a4 <main+0x330>
   10390:	000016b7          	lui	a3,0x1
   10394:	01a60863          	beq	a2,s10,103a4 <main+0x330>
   10398:	40000693          	li	a3,1024
   1039c:	01b61463          	bne	a2,s11,103a4 <main+0x330>
   103a0:	000a0693          	mv	a3,s4
   103a4:	00d7e7b3          	or	a5,a5,a3
   103a8:	0327e793          	ori	a5,a5,50
   103ac:	00f82423          	sw	a5,8(a6)
   103b0:	fabb90e3          	bne	s7,a1,10350 <main+0x2dc>
   103b4:	03c00513          	li	a0,60
   103b8:	02ac6533          	rem	a0,s8,a0
   103bc:	00000693          	li	a3,0
   103c0:	00003617          	auipc	a2,0x3
   103c4:	25060613          	addi	a2,a2,592 # 13610 <__errno+0x8>
   103c8:	04000593          	li	a1,64
   103cc:	01412403          	lw	s0,20(sp)
   103d0:	004c0913          	addi	s2,s8,4
   103d4:	75c000ef          	jal	ra,10b30 <_Z8PrintDMAiiPKcb>
   103d8:	00c12783          	lw	a5,12(sp)
   103dc:	ffcaa983          	lw	s3,-4(s5)
   103e0:	0cf98c63          	beq	s3,a5,104b8 <main+0x444>
   103e4:	00000593          	li	a1,0
   103e8:	00000513          	li	a0,0
   103ec:	4d4010ef          	jal	ra,118c0 <_Z16SetConsoleCursorii>
   103f0:	490010ef          	jal	ra,11880 <_Z15ClearConsoleRowv>
   103f4:	00003517          	auipc	a0,0x3
   103f8:	23050513          	addi	a0,a0,560 # 13624 <__errno+0x1c>
   103fc:	54c010ef          	jal	ra,11948 <_Z11EchoConsolePKc>
   10400:	01012783          	lw	a5,16(sp)
   10404:	ff4aa503          	lw	a0,-12(s5)
   10408:	01312623          	sw	s3,12(sp)
   1040c:	0017cb93          	xori	s7,a5,1
   10410:	01712823          	sw	s7,16(sp)
   10414:	644010ef          	jal	ra,11a58 <_Z11EchoConsolel>
   10418:	00003517          	auipc	a0,0x3
   1041c:	21450513          	addi	a0,a0,532 # 1362c <__errno+0x24>
   10420:	528010ef          	jal	ra,11948 <_Z11EchoConsolePKc>
   10424:	ff8aa503          	lw	a0,-8(s5)
   10428:	00090c13          	mv	s8,s2
   1042c:	62c010ef          	jal	ra,11a58 <_Z11EchoConsolel>
   10430:	00003517          	auipc	a0,0x3
   10434:	1fc50513          	addi	a0,a0,508 # 1362c <__errno+0x24>
   10438:	510010ef          	jal	ra,11948 <_Z11EchoConsolePKc>
   1043c:	ffcaa503          	lw	a0,-4(s5)
   10440:	618010ef          	jal	ra,11a58 <_Z11EchoConsolel>
   10444:	0f9010ef          	jal	ra,11d3c <_Z11DrawConsolev>
   10448:	0004a703          	lw	a4,0(s1)
   1044c:	00ab9793          	slli	a5,s7,0xa
   10450:	0817e793          	ori	a5,a5,129
   10454:	00072823          	sw	zero,16(a4)
   10458:	00f72023          	sw	a5,0(a4)
   1045c:	09100793          	li	a5,145
   10460:	00f72223          	sw	a5,4(a4)
   10464:	01700793          	li	a5,23
   10468:	00f72423          	sw	a5,8(a4)
   1046c:	01812783          	lw	a5,24(sp)
   10470:	01c12603          	lw	a2,28(sp)
   10474:	00ab1693          	slli	a3,s6,0xa
   10478:	00f72023          	sw	a5,0(a4)
   1047c:	016b5793          	srli	a5,s6,0x16
   10480:	00c72223          	sw	a2,4(a4)
   10484:	1016e693          	ori	a3,a3,257
   10488:	00a79793          	slli	a5,a5,0xa
   1048c:	00d72023          	sw	a3,0(a4)
   10490:	1217e793          	ori	a5,a5,289
   10494:	00f72223          	sw	a5,4(a4)
   10498:	0a600793          	li	a5,166
   1049c:	00f72823          	sw	a5,16(a4)
   104a0:	fe0aa823          	sw	zero,-16(s5)
   104a4:	d61ff06f          	j	10204 <main+0x190>
   104a8:	213999d3          	fneg.s	fs3,fs3
   104ac:	d8dff06f          	j	10238 <main+0x1c4>
   104b0:	21291953          	fneg.s	fs2,fs2
   104b4:	d71ff06f          	j	10224 <main+0x1b0>
   104b8:	000c0913          	mv	s2,s8
   104bc:	f29ff06f          	j	103e4 <main+0x370>

000104c0 <register_fini>:
   104c0:	00000793          	li	a5,0
   104c4:	00078863          	beqz	a5,104d4 <register_fini+0x14>
   104c8:	00013537          	lui	a0,0x13
   104cc:	4d050513          	addi	a0,a0,1232 # 134d0 <__libc_fini_array>
   104d0:	05c0306f          	j	1352c <atexit>
   104d4:	00008067          	ret

000104d8 <_start>:
   104d8:	00007197          	auipc	gp,0x7
   104dc:	20018193          	addi	gp,gp,512 # 176d8 <impure_data>
   104e0:	4d418513          	addi	a0,gp,1236 # 17bac <completed.1>
   104e4:	00008617          	auipc	a2,0x8
   104e8:	9f460613          	addi	a2,a2,-1548 # 17ed8 <__BSS_END__>
   104ec:	40a60633          	sub	a2,a2,a0
   104f0:	00000593          	li	a1,0
   104f4:	5e1020ef          	jal	ra,132d4 <memset>
   104f8:	00003517          	auipc	a0,0x3
   104fc:	03450513          	addi	a0,a0,52 # 1352c <atexit>
   10500:	00050863          	beqz	a0,10510 <_start+0x38>
   10504:	00003517          	auipc	a0,0x3
   10508:	fcc50513          	addi	a0,a0,-52 # 134d0 <__libc_fini_array>
   1050c:	020030ef          	jal	ra,1352c <atexit>
   10510:	529020ef          	jal	ra,13238 <__libc_init_array>
   10514:	00012503          	lw	a0,0(sp)
   10518:	00410593          	addi	a1,sp,4
   1051c:	00000613          	li	a2,0
   10520:	b55ff0ef          	jal	ra,10074 <main>
   10524:	4e50206f          	j	13208 <exit>

00010528 <__do_global_dtors_aux>:
   10528:	4d41c703          	lbu	a4,1236(gp) # 17bac <completed.1>
   1052c:	04071263          	bnez	a4,10570 <__do_global_dtors_aux+0x48>
   10530:	ff010113          	addi	sp,sp,-16
   10534:	00812423          	sw	s0,8(sp)
   10538:	00078413          	mv	s0,a5
   1053c:	00112623          	sw	ra,12(sp)
   10540:	00000793          	li	a5,0
   10544:	00078a63          	beqz	a5,10558 <__do_global_dtors_aux+0x30>
   10548:	00016537          	lui	a0,0x16
   1054c:	37050513          	addi	a0,a0,880 # 16370 <__EH_FRAME_BEGIN__>
   10550:	00000097          	auipc	ra,0x0
   10554:	000000e7          	jalr	zero # 0 <main-0x10074>
   10558:	00100793          	li	a5,1
   1055c:	00c12083          	lw	ra,12(sp)
   10560:	4cf18a23          	sb	a5,1236(gp) # 17bac <completed.1>
   10564:	00812403          	lw	s0,8(sp)
   10568:	01010113          	addi	sp,sp,16
   1056c:	00008067          	ret
   10570:	00008067          	ret

00010574 <frame_dummy>:
   10574:	00000793          	li	a5,0
   10578:	00078c63          	beqz	a5,10590 <frame_dummy+0x1c>
   1057c:	00016537          	lui	a0,0x16
   10580:	4d818593          	addi	a1,gp,1240 # 17bb0 <object.0>
   10584:	37050513          	addi	a0,a0,880 # 16370 <__EH_FRAME_BEGIN__>
   10588:	00000317          	auipc	t1,0x0
   1058c:	00000067          	jr	zero # 0 <main-0x10074>
   10590:	00008067          	ret

00010594 <_Z4ssini>:
   10594:	41f55793          	srai	a5,a0,0x1f
   10598:	0167d793          	srli	a5,a5,0x16
   1059c:	00f50533          	add	a0,a0,a5
   105a0:	3ff57513          	andi	a0,a0,1023
   105a4:	40f50533          	sub	a0,a0,a5
   105a8:	00251513          	slli	a0,a0,0x2
   105ac:	00007797          	auipc	a5,0x7
   105b0:	5687a783          	lw	a5,1384(a5) # 17b14 <_GLOBAL_OFFSET_TABLE_+0xc>
   105b4:	00a78533          	add	a0,a5,a0
   105b8:	00052783          	lw	a5,0(a0)
   105bc:	ffffc537          	lui	a0,0xffffc
   105c0:	00f50533          	add	a0,a0,a5
   105c4:	00008067          	ret

000105c8 <_Z8drawrectfff>:
   105c8:	fd010113          	addi	sp,sp,-48
   105cc:	01512427          	fsw	fs5,8(sp)
   105d0:	20a50ad3          	fmv.s	fs5,fa0
   105d4:	20c60553          	fmv.s	fa0,fa2
   105d8:	01212a27          	fsw	fs2,20(sp)
   105dc:	20c60953          	fmv.s	fs2,fa2
   105e0:	02112623          	sw	ra,44(sp)
   105e4:	00812e27          	fsw	fs0,28(sp)
   105e8:	00912c27          	fsw	fs1,24(sp)
   105ec:	01312827          	fsw	fs3,16(sp)
   105f0:	01412627          	fsw	fs4,12(sp)
   105f4:	20b58a53          	fmv.s	fs4,fa1
   105f8:	3d9010ef          	jal	ra,121d0 <cosf>
   105fc:	20a504d3          	fmv.s	fs1,fa0
   10600:	21290553          	fmv.s	fa0,fs2
   10604:	46d010ef          	jal	ra,12270 <sinf>
   10608:	00003797          	auipc	a5,0x3
   1060c:	0287a987          	flw	fs3,40(a5) # 13630 <__errno+0x28>
   10610:	013979d3          	fadd.s	fs3,fs2,fs3
   10614:	20a50453          	fmv.s	fs0,fa0
   10618:	21398553          	fmv.s	fa0,fs3
   1061c:	3b5010ef          	jal	ra,121d0 <cosf>
   10620:	20a50953          	fmv.s	fs2,fa0
   10624:	21398553          	fmv.s	fa0,fs3
   10628:	449010ef          	jal	ra,12270 <sinf>
   1062c:	00003797          	auipc	a5,0x3
   10630:	0087a587          	flw	fa1,8(a5) # 13634 <__errno+0x2c>
   10634:	a8b4f6cb          	fnmsub.s	fa3,fs1,fa1,fs5
   10638:	a0b4774b          	fnmsub.s	fa4,fs0,fa1,fs4
   1063c:	a8b4f4c3          	fmadd.s	fs1,fs1,fa1,fs5
   10640:	00003797          	auipc	a5,0x3
   10644:	ff87a787          	flw	fa5,-8(a5) # 13638 <__errno+0x30>
   10648:	a0b47443          	fmadd.s	fs0,fs0,fa1,fs4
   1064c:	68f970cb          	fnmsub.s	ft1,fs2,fa5,fa3
   10650:	70f5704b          	fnmsub.s	ft0,fa0,fa5,fa4
   10654:	48f975cb          	fnmsub.s	fa1,fs2,fa5,fs1
   10658:	48f974c3          	fmadd.s	fs1,fs2,fa5,fs1
   1065c:	40f5764b          	fnmsub.s	fa2,fa0,fa5,fs0
   10660:	c0009753          	fcvt.w.s	a4,ft1,rtz
   10664:	40f57443          	fmadd.s	fs0,fa0,fa5,fs0
   10668:	68f97943          	fmadd.s	fs2,fs2,fa5,fa3
   1066c:	c0001653          	fcvt.w.s	a2,ft0,rtz
   10670:	c00597d3          	fcvt.w.s	a5,fa1,rtz
   10674:	00010537          	lui	a0,0x10
   10678:	01071713          	slli	a4,a4,0x10
   1067c:	fff50513          	addi	a0,a0,-1 # ffff <main-0x75>
   10680:	70f57543          	fmadd.s	fa0,fa0,fa5,fa4
   10684:	41075713          	srai	a4,a4,0x10
   10688:	00a77733          	and	a4,a4,a0
   1068c:	c00498d3          	fcvt.w.s	a7,fs1,rtz
   10690:	c00616d3          	fcvt.w.s	a3,fa2,rtz
   10694:	01061613          	slli	a2,a2,0x10
   10698:	00007597          	auipc	a1,0x7
   1069c:	4745a583          	lw	a1,1140(a1) # 17b0c <_GLOBAL_OFFSET_TABLE_+0x4>
   106a0:	0005a583          	lw	a1,0(a1)
   106a4:	00e66633          	or	a2,a2,a4
   106a8:	01079793          	slli	a5,a5,0x10
   106ac:	c0091853          	fcvt.w.s	a6,fs2,rtz
   106b0:	c0041753          	fcvt.w.s	a4,fs0,rtz
   106b4:	00a61313          	slli	t1,a2,0xa
   106b8:	4107d793          	srai	a5,a5,0x10
   106bc:	01665613          	srli	a2,a2,0x16
   106c0:	00a7f7b3          	and	a5,a5,a0
   106c4:	08136313          	ori	t1,t1,129
   106c8:	01069693          	slli	a3,a3,0x10
   106cc:	01089893          	slli	a7,a7,0x10
   106d0:	00a61613          	slli	a2,a2,0xa
   106d4:	0065a023          	sw	t1,0(a1)
   106d8:	00f6e6b3          	or	a3,a3,a5
   106dc:	09166613          	ori	a2,a2,145
   106e0:	c00517d3          	fcvt.w.s	a5,fa0,rtz
   106e4:	4108d893          	srai	a7,a7,0x10
   106e8:	00c5a223          	sw	a2,4(a1)
   106ec:	00a8f8b3          	and	a7,a7,a0
   106f0:	00a69313          	slli	t1,a3,0xa
   106f4:	01081613          	slli	a2,a6,0x10
   106f8:	01071713          	slli	a4,a4,0x10
   106fc:	0166d693          	srli	a3,a3,0x16
   10700:	01176733          	or	a4,a4,a7
   10704:	41065613          	srai	a2,a2,0x10
   10708:	10136813          	ori	a6,t1,257
   1070c:	00a69693          	slli	a3,a3,0xa
   10710:	0105a423          	sw	a6,8(a1)
   10714:	00a67533          	and	a0,a2,a0
   10718:	1216e693          	ori	a3,a3,289
   1071c:	00a71613          	slli	a2,a4,0xa
   10720:	01079793          	slli	a5,a5,0x10
   10724:	01675713          	srli	a4,a4,0x16
   10728:	00d5a623          	sw	a3,12(a1)
   1072c:	00a7e7b3          	or	a5,a5,a0
   10730:	18166693          	ori	a3,a2,385
   10734:	00a71713          	slli	a4,a4,0xa
   10738:	00d5a823          	sw	a3,16(a1)
   1073c:	1b176713          	ori	a4,a4,433
   10740:	00a79693          	slli	a3,a5,0xa
   10744:	0167d793          	srli	a5,a5,0x16
   10748:	00e5aa23          	sw	a4,20(a1)
   1074c:	00a79793          	slli	a5,a5,0xa
   10750:	2016e713          	ori	a4,a3,513
   10754:	00e5a423          	sw	a4,8(a1)
   10758:	2417e793          	ori	a5,a5,577
   1075c:	00f5a623          	sw	a5,12(a1)
   10760:	000f97b7          	lui	a5,0xf9
   10764:	d1578793          	addi	a5,a5,-747 # f8d15 <__BSS_END__+0xe0e3d>
   10768:	00f5ac23          	sw	a5,24(a1)
   1076c:	02c12083          	lw	ra,44(sp)
   10770:	001067b7          	lui	a5,0x106
   10774:	63578793          	addi	a5,a5,1589 # 106635 <__BSS_END__+0xee75d>
   10778:	00f5ac23          	sw	a5,24(a1)
   1077c:	01c12407          	flw	fs0,28(sp)
   10780:	01812487          	flw	fs1,24(sp)
   10784:	01412907          	flw	fs2,20(sp)
   10788:	01012987          	flw	fs3,16(sp)
   1078c:	00c12a07          	flw	fs4,12(sp)
   10790:	00812a87          	flw	fs5,8(sp)
   10794:	03010113          	addi	sp,sp,48
   10798:	00008067          	ret

0001079c <_Z14resetparticlesPs>:
   1079c:	ff010113          	addi	sp,sp,-16
   107a0:	00912223          	sw	s1,4(sp)
   107a4:	000014b7          	lui	s1,0x1
   107a8:	00812423          	sw	s0,8(sp)
   107ac:	01212023          	sw	s2,0(sp)
   107b0:	00112623          	sw	ra,12(sp)
   107b4:	00050413          	mv	s0,a0
   107b8:	009504b3          	add	s1,a0,s1
   107bc:	fe000913          	li	s2,-32
   107c0:	7d1000ef          	jal	ra,11790 <_Z6Randomv>
   107c4:	0ff57513          	andi	a0,a0,255
   107c8:	00a41023          	sh	a0,0(s0)
   107cc:	01241123          	sh	s2,2(s0)
   107d0:	7c1000ef          	jal	ra,11790 <_Z6Randomv>
   107d4:	00757513          	andi	a0,a0,7
   107d8:	00250513          	addi	a0,a0,2
   107dc:	00a41223          	sh	a0,4(s0)
   107e0:	7b1000ef          	jal	ra,11790 <_Z6Randomv>
   107e4:	01f57513          	andi	a0,a0,31
   107e8:	0c050513          	addi	a0,a0,192
   107ec:	00a41323          	sh	a0,6(s0)
   107f0:	00840413          	addi	s0,s0,8
   107f4:	fc9416e3          	bne	s0,s1,107c0 <_Z14resetparticlesPs+0x24>
   107f8:	00c12083          	lw	ra,12(sp)
   107fc:	00812403          	lw	s0,8(sp)
   10800:	00412483          	lw	s1,4(sp)
   10804:	00012903          	lw	s2,0(sp)
   10808:	01010113          	addi	sp,sp,16
   1080c:	00008067          	ret

00010810 <_Z13drawparticlesPs>:
   10810:	fd010113          	addi	sp,sp,-48
   10814:	01412c23          	sw	s4,24(sp)
   10818:	00001a37          	lui	s4,0x1
   1081c:	02812423          	sw	s0,40(sp)
   10820:	002a0a13          	addi	s4,s4,2 # 1002 <main-0xf072>
   10824:	00250413          	addi	s0,a0,2
   10828:	02912223          	sw	s1,36(sp)
   1082c:	03212023          	sw	s2,32(sp)
   10830:	01312e23          	sw	s3,28(sp)
   10834:	02112623          	sw	ra,44(sp)
   10838:	00812627          	fsw	fs0,12(sp)
   1083c:	00912427          	fsw	fs1,8(sp)
   10840:	00050993          	mv	s3,a0
   10844:	01450a33          	add	s4,a0,s4
   10848:	00040493          	mv	s1,s0
   1084c:	01800913          	li	s2,24
   10850:	00c0006f          	j	1085c <_Z13drawparticlesPs+0x4c>
   10854:	00848493          	addi	s1,s1,8 # 1008 <main-0xf06c>
   10858:	029a0e63          	beq	s4,s1,10894 <_Z13drawparticlesPs+0x84>
   1085c:	0004d783          	lhu	a5,0(s1)
   10860:	0024d683          	lhu	a3,2(s1)
   10864:	00449703          	lh	a4,4(s1)
   10868:	00d787b3          	add	a5,a5,a3
   1086c:	01079793          	slli	a5,a5,0x10
   10870:	4107d793          	srai	a5,a5,0x10
   10874:	00f49023          	sh	a5,0(s1)
   10878:	fcf75ee3          	bge	a4,a5,10854 <_Z13drawparticlesPs+0x44>
   1087c:	715000ef          	jal	ra,11790 <_Z6Randomv>
   10880:	032577b3          	remu	a5,a0,s2
   10884:	00848493          	addi	s1,s1,8
   10888:	fe878793          	addi	a5,a5,-24
   1088c:	fef49c23          	sh	a5,-8(s1)
   10890:	fc9a16e3          	bne	s4,s1,1085c <_Z13drawparticlesPs+0x4c>
   10894:	4f018493          	addi	s1,gp,1264 # 17bc8 <_ZZ13drawparticlesPsE12spawnerindex>
   10898:	0004a783          	lw	a5,0(s1)
   1089c:	fe000693          	li	a3,-32
   108a0:	00178793          	addi	a5,a5,1
   108a4:	41f7d713          	srai	a4,a5,0x1f
   108a8:	01775713          	srli	a4,a4,0x17
   108ac:	00e787b3          	add	a5,a5,a4
   108b0:	1ff7f793          	andi	a5,a5,511
   108b4:	40e787b3          	sub	a5,a5,a4
   108b8:	00179713          	slli	a4,a5,0x1
   108bc:	00f70733          	add	a4,a4,a5
   108c0:	00171713          	slli	a4,a4,0x1
   108c4:	00e98733          	add	a4,s3,a4
   108c8:	00271703          	lh	a4,2(a4)
   108cc:	00f4a023          	sw	a5,0(s1)
   108d0:	1ed74e63          	blt	a4,a3,10acc <_Z13drawparticlesPs+0x2bc>
   108d4:	4f418a13          	addi	s4,gp,1268 # 17bcc <_ZZ13drawparticlesPsE5proll>
   108d8:	000a2507          	flw	fa0,0(s4)
   108dc:	0f5010ef          	jal	ra,121d0 <cosf>
   108e0:	20a507d3          	fmv.s	fa5,fa0
   108e4:	00003797          	auipc	a5,0x3
   108e8:	d587a407          	flw	fs0,-680(a5) # 1363c <__errno+0x34>
   108ec:	000a2507          	flw	fa0,0(s4)
   108f0:	1087f7d3          	fmul.s	fa5,fa5,fs0
   108f4:	c00792d3          	fcvt.w.s	t0,fa5,rtz
   108f8:	01029913          	slli	s2,t0,0x10
   108fc:	175010ef          	jal	ra,12270 <sinf>
   10900:	108577d3          	fmul.s	fa5,fa0,fs0
   10904:	000a2707          	flw	fa4,0(s4)
   10908:	00003797          	auipc	a5,0x3
   1090c:	d287a487          	flw	fs1,-728(a5) # 13630 <__errno+0x28>
   10910:	41095913          	srai	s2,s2,0x10
   10914:	00977553          	fadd.s	fa0,fa4,fs1
   10918:	c00798d3          	fcvt.w.s	a7,fa5,rtz
   1091c:	01089993          	slli	s3,a7,0x10
   10920:	0b1010ef          	jal	ra,121d0 <cosf>
   10924:	108577d3          	fmul.s	fa5,fa0,fs0
   10928:	000a2707          	flw	fa4,0(s4)
   1092c:	4109d993          	srai	s3,s3,0x10
   10930:	00977553          	fadd.s	fa0,fa4,fs1
   10934:	c00797d3          	fcvt.w.s	a5,fa5,rtz
   10938:	01079493          	slli	s1,a5,0x10
   1093c:	135010ef          	jal	ra,12270 <sinf>
   10940:	10857453          	fmul.s	fs0,fa0,fs0
   10944:	000a2787          	flw	fa5,0(s4)
   10948:	00003797          	auipc	a5,0x3
   1094c:	cf87a707          	flw	fa4,-776(a5) # 13640 <__errno+0x38>
   10950:	4104d493          	srai	s1,s1,0x10
   10954:	00e7f7d3          	fadd.s	fa5,fa5,fa4
   10958:	c0041753          	fcvt.w.s	a4,fs0,rtz
   1095c:	01091293          	slli	t0,s2,0x10
   10960:	01049793          	slli	a5,s1,0x10
   10964:	01099893          	slli	a7,s3,0x10
   10968:	01071713          	slli	a4,a4,0x10
   1096c:	0102d293          	srli	t0,t0,0x10
   10970:	0107d793          	srli	a5,a5,0x10
   10974:	0108d893          	srli	a7,a7,0x10
   10978:	01075713          	srli	a4,a4,0x10
   1097c:	00007697          	auipc	a3,0x7
   10980:	1906a683          	lw	a3,400(a3) # 17b0c <_GLOBAL_OFFSET_TABLE_+0x4>
   10984:	00f28833          	add	a6,t0,a5
   10988:	00e885b3          	add	a1,a7,a4
   1098c:	0006a683          	lw	a3,0(a3)
   10990:	01081813          	slli	a6,a6,0x10
   10994:	01059593          	slli	a1,a1,0x10
   10998:	00010537          	lui	a0,0x10
   1099c:	00001337          	lui	t1,0x1
   109a0:	00fa2027          	fsw	fa5,0(s4)
   109a4:	00000613          	li	a2,0
   109a8:	fff00f93          	li	t6,-1
   109ac:	01085813          	srli	a6,a6,0x10
   109b0:	0105d593          	srli	a1,a1,0x10
   109b4:	fff50513          	addi	a0,a0,-1 # ffff <main-0x75>
   109b8:	40e888b3          	sub	a7,a7,a4
   109bc:	40f282b3          	sub	t0,t0,a5
   109c0:	001fef37          	lui	t5,0x1fe
   109c4:	d1530313          	addi	t1,t1,-747 # d15 <main-0xf35f>
   109c8:	00002eb7          	lui	t4,0x2
   109cc:	00400e37          	lui	t3,0x400
   109d0:	00041983          	lh	s3,0(s0)
   109d4:	01e673b3          	and	t2,a2,t5
   109d8:	0063e3b3          	or	t2,t2,t1
   109dc:	01099493          	slli	s1,s3,0x10
   109e0:	0104d493          	srli	s1,s1,0x10
   109e4:	40b487b3          	sub	a5,s1,a1
   109e8:	01148733          	add	a4,s1,a7
   109ec:	00b484b3          	add	s1,s1,a1
   109f0:	01d60633          	add	a2,a2,t4
   109f4:	01079793          	slli	a5,a5,0x10
   109f8:	01071713          	slli	a4,a4,0x10
   109fc:	01049913          	slli	s2,s1,0x10
   10a00:	09f98e63          	beq	s3,t6,10a9c <_Z13drawparticlesPs+0x28c>
   10a04:	ffe45483          	lhu	s1,-2(s0)
   10a08:	41048a33          	sub	s4,s1,a6
   10a0c:	010a1a13          	slli	s4,s4,0x10
   10a10:	005489b3          	add	s3,s1,t0
   10a14:	410a5a13          	srai	s4,s4,0x10
   10a18:	00aa7a33          	and	s4,s4,a0
   10a1c:	01099993          	slli	s3,s3,0x10
   10a20:	0147e7b3          	or	a5,a5,s4
   10a24:	4109d993          	srai	s3,s3,0x10
   10a28:	010484b3          	add	s1,s1,a6
   10a2c:	00a9f9b3          	and	s3,s3,a0
   10a30:	00a79a13          	slli	s4,a5,0xa
   10a34:	01049493          	slli	s1,s1,0x10
   10a38:	0167d793          	srli	a5,a5,0x16
   10a3c:	01376733          	or	a4,a4,s3
   10a40:	4104d493          	srai	s1,s1,0x10
   10a44:	081a6993          	ori	s3,s4,129
   10a48:	00a79793          	slli	a5,a5,0xa
   10a4c:	0136a023          	sw	s3,0(a3)
   10a50:	00a4f4b3          	and	s1,s1,a0
   10a54:	0917e793          	ori	a5,a5,145
   10a58:	00a71993          	slli	s3,a4,0xa
   10a5c:	01675713          	srli	a4,a4,0x16
   10a60:	00f6a223          	sw	a5,4(a3)
   10a64:	00a71713          	slli	a4,a4,0xa
   10a68:	009967b3          	or	a5,s2,s1
   10a6c:	1019e493          	ori	s1,s3,257
   10a70:	0096a423          	sw	s1,8(a3)
   10a74:	12176713          	ori	a4,a4,289
   10a78:	00a79493          	slli	s1,a5,0xa
   10a7c:	0167d793          	srli	a5,a5,0x16
   10a80:	00e6a623          	sw	a4,12(a3)
   10a84:	00a79793          	slli	a5,a5,0xa
   10a88:	1814e713          	ori	a4,s1,385
   10a8c:	00e6a823          	sw	a4,16(a3)
   10a90:	1b17e793          	ori	a5,a5,433
   10a94:	00f6aa23          	sw	a5,20(a3)
   10a98:	0276a023          	sw	t2,32(a3)
   10a9c:	00840413          	addi	s0,s0,8
   10aa0:	f3c618e3          	bne	a2,t3,109d0 <_Z13drawparticlesPs+0x1c0>
   10aa4:	02c12083          	lw	ra,44(sp)
   10aa8:	02812403          	lw	s0,40(sp)
   10aac:	02412483          	lw	s1,36(sp)
   10ab0:	02012903          	lw	s2,32(sp)
   10ab4:	01c12983          	lw	s3,28(sp)
   10ab8:	01812a03          	lw	s4,24(sp)
   10abc:	00c12407          	flw	fs0,12(sp)
   10ac0:	00812487          	flw	fs1,8(sp)
   10ac4:	03010113          	addi	sp,sp,48
   10ac8:	00008067          	ret
   10acc:	4c5000ef          	jal	ra,11790 <_Z6Randomv>
   10ad0:	0004a683          	lw	a3,0(s1)
   10ad4:	0ff57713          	andi	a4,a0,255
   10ad8:	00169793          	slli	a5,a3,0x1
   10adc:	00d787b3          	add	a5,a5,a3
   10ae0:	00179793          	slli	a5,a5,0x1
   10ae4:	00f987b3          	add	a5,s3,a5
   10ae8:	00e79023          	sh	a4,0(a5)
   10aec:	4a5000ef          	jal	ra,11790 <_Z6Randomv>
   10af0:	0004a683          	lw	a3,0(s1)
   10af4:	00357713          	andi	a4,a0,3
   10af8:	00270713          	addi	a4,a4,2
   10afc:	00169793          	slli	a5,a3,0x1
   10b00:	00d787b3          	add	a5,a5,a3
   10b04:	00179793          	slli	a5,a5,0x1
   10b08:	00f987b3          	add	a5,s3,a5
   10b0c:	00e79223          	sh	a4,4(a5)
   10b10:	481000ef          	jal	ra,11790 <_Z6Randomv>
   10b14:	0004a703          	lw	a4,0(s1)
   10b18:	01f57793          	andi	a5,a0,31
   10b1c:	0c078793          	addi	a5,a5,192
   10b20:	00371713          	slli	a4,a4,0x3
   10b24:	00e989b3          	add	s3,s3,a4
   10b28:	00f99323          	sh	a5,6(s3)
   10b2c:	da9ff06f          	j	108d4 <_Z13drawparticlesPs+0xc4>

00010b30 <_Z8PrintDMAiiPKcb>:
   10b30:	00064703          	lbu	a4,0(a2)
   10b34:	0a070263          	beqz	a4,10bd8 <_Z8PrintDMAiiPKcb+0xa8>
   10b38:	00007797          	auipc	a5,0x7
   10b3c:	fd47a783          	lw	a5,-44(a5) # 17b0c <_GLOBAL_OFFSET_TABLE_+0x4>
   10b40:	00d03833          	snez	a6,a3
   10b44:	00158393          	addi	t2,a1,1
   10b48:	00859693          	slli	a3,a1,0x8
   10b4c:	00258293          	addi	t0,a1,2
   10b50:	00358f93          	addi	t6,a1,3
   10b54:	00458f13          	addi	t5,a1,4
   10b58:	00558e93          	addi	t4,a1,5
   10b5c:	00658e13          	addi	t3,a1,6
   10b60:	00758313          	addi	t1,a1,7
   10b64:	0007a783          	lw	a5,0(a5)
   10b68:	000015b7          	lui	a1,0x1
   10b6c:	ac458593          	addi	a1,a1,-1340 # ac4 <main-0xf5b0>
   10b70:	01881813          	slli	a6,a6,0x18
   10b74:	00839393          	slli	t2,t2,0x8
   10b78:	00829293          	slli	t0,t0,0x8
   10b7c:	008f9f93          	slli	t6,t6,0x8
   10b80:	008f1f13          	slli	t5,t5,0x8
   10b84:	008e9e93          	slli	t4,t4,0x8
   10b88:	008e1e13          	slli	t3,t3,0x8
   10b8c:	00831313          	slli	t1,t1,0x8
   10b90:	00b86833          	or	a6,a6,a1
   10b94:	00160893          	addi	a7,a2,1
   10b98:	00d505b3          	add	a1,a0,a3
   10b9c:	40d383b3          	sub	t2,t2,a3
   10ba0:	00003517          	auipc	a0,0x3
   10ba4:	aec50513          	addi	a0,a0,-1300 # 1368c <_ZL4font>
   10ba8:	40d282b3          	sub	t0,t0,a3
   10bac:	40df8fb3          	sub	t6,t6,a3
   10bb0:	40df0f33          	sub	t5,t5,a3
   10bb4:	40de8eb3          	sub	t4,t4,a3
   10bb8:	40de0e33          	sub	t3,t3,a3
   10bbc:	40d30333          	sub	t1,t1,a3
   10bc0:	fe070713          	addi	a4,a4,-32
   10bc4:	00075c63          	bgez	a4,10bdc <_Z8PrintDMAiiPKcb+0xac>
   10bc8:	0008c703          	lbu	a4,0(a7) # fffc000 <__BSS_END__+0xffe4128>
   10bcc:	00858593          	addi	a1,a1,8
   10bd0:	00188893          	addi	a7,a7,1
   10bd4:	fe0716e3          	bnez	a4,10bc0 <_Z8PrintDMAiiPKcb+0x90>
   10bd8:	00008067          	ret
   10bdc:	ff010113          	addi	sp,sp,-16
   10be0:	00812623          	sw	s0,12(sp)
   10be4:	00912423          	sw	s1,8(sp)
   10be8:	01212223          	sw	s2,4(sp)
   10bec:	40575413          	srai	s0,a4,0x5
   10bf0:	01f77713          	andi	a4,a4,31
   10bf4:	00371693          	slli	a3,a4,0x3
   10bf8:	00b41613          	slli	a2,s0,0xb
   10bfc:	00d60633          	add	a2,a2,a3
   10c00:	00a60633          	add	a2,a2,a0
   10c04:	00341713          	slli	a4,s0,0x3
   10c08:	00a61913          	slli	s2,a2,0xa
   10c0c:	01665413          	srli	s0,a2,0x16
   10c10:	4025d493          	srai	s1,a1,0x2
   10c14:	20196913          	ori	s2,s2,513
   10c18:	00170613          	addi	a2,a4,1
   10c1c:	00a41413          	slli	s0,s0,0xa
   10c20:	0127a023          	sw	s2,0(a5)
   10c24:	24146413          	ori	s0,s0,577
   10c28:	00a49913          	slli	s2,s1,0xa
   10c2c:	00861613          	slli	a2,a2,0x8
   10c30:	0164d493          	srli	s1,s1,0x16
   10c34:	0087a223          	sw	s0,4(a5)
   10c38:	00d60633          	add	a2,a2,a3
   10c3c:	28196413          	ori	s0,s2,641
   10c40:	00a49493          	slli	s1,s1,0xa
   10c44:	0087a423          	sw	s0,8(a5)
   10c48:	00a60633          	add	a2,a2,a0
   10c4c:	2d14e493          	ori	s1,s1,721
   10c50:	0097a623          	sw	s1,12(a5)
   10c54:	00a61913          	slli	s2,a2,0xa
   10c58:	00b384b3          	add	s1,t2,a1
   10c5c:	01665413          	srli	s0,a2,0x16
   10c60:	0107a823          	sw	a6,16(a5)
   10c64:	4024d493          	srai	s1,s1,0x2
   10c68:	20196913          	ori	s2,s2,513
   10c6c:	00270613          	addi	a2,a4,2
   10c70:	00a41413          	slli	s0,s0,0xa
   10c74:	0127a023          	sw	s2,0(a5)
   10c78:	24146413          	ori	s0,s0,577
   10c7c:	00a49913          	slli	s2,s1,0xa
   10c80:	00861613          	slli	a2,a2,0x8
   10c84:	0164d493          	srli	s1,s1,0x16
   10c88:	0087a223          	sw	s0,4(a5)
   10c8c:	00d60633          	add	a2,a2,a3
   10c90:	28196413          	ori	s0,s2,641
   10c94:	00a49493          	slli	s1,s1,0xa
   10c98:	0087a423          	sw	s0,8(a5)
   10c9c:	00a60633          	add	a2,a2,a0
   10ca0:	2d14e493          	ori	s1,s1,721
   10ca4:	0097a623          	sw	s1,12(a5)
   10ca8:	00a61913          	slli	s2,a2,0xa
   10cac:	00b284b3          	add	s1,t0,a1
   10cb0:	01665413          	srli	s0,a2,0x16
   10cb4:	0107a823          	sw	a6,16(a5)
   10cb8:	4024d493          	srai	s1,s1,0x2
   10cbc:	20196913          	ori	s2,s2,513
   10cc0:	00370613          	addi	a2,a4,3
   10cc4:	00a41413          	slli	s0,s0,0xa
   10cc8:	0127a023          	sw	s2,0(a5)
   10ccc:	24146413          	ori	s0,s0,577
   10cd0:	00a49913          	slli	s2,s1,0xa
   10cd4:	00861613          	slli	a2,a2,0x8
   10cd8:	0164d493          	srli	s1,s1,0x16
   10cdc:	0087a223          	sw	s0,4(a5)
   10ce0:	00d60633          	add	a2,a2,a3
   10ce4:	28196413          	ori	s0,s2,641
   10ce8:	00a49493          	slli	s1,s1,0xa
   10cec:	0087a423          	sw	s0,8(a5)
   10cf0:	00a60633          	add	a2,a2,a0
   10cf4:	2d14e493          	ori	s1,s1,721
   10cf8:	0097a623          	sw	s1,12(a5)
   10cfc:	00a61913          	slli	s2,a2,0xa
   10d00:	00bf84b3          	add	s1,t6,a1
   10d04:	01665413          	srli	s0,a2,0x16
   10d08:	0107a823          	sw	a6,16(a5)
   10d0c:	4024d493          	srai	s1,s1,0x2
   10d10:	20196913          	ori	s2,s2,513
   10d14:	00470613          	addi	a2,a4,4
   10d18:	00a41413          	slli	s0,s0,0xa
   10d1c:	0127a023          	sw	s2,0(a5)
   10d20:	24146413          	ori	s0,s0,577
   10d24:	00a49913          	slli	s2,s1,0xa
   10d28:	00861613          	slli	a2,a2,0x8
   10d2c:	0164d493          	srli	s1,s1,0x16
   10d30:	0087a223          	sw	s0,4(a5)
   10d34:	00d60633          	add	a2,a2,a3
   10d38:	28196413          	ori	s0,s2,641
   10d3c:	00a49493          	slli	s1,s1,0xa
   10d40:	0087a423          	sw	s0,8(a5)
   10d44:	00a60633          	add	a2,a2,a0
   10d48:	2d14e493          	ori	s1,s1,721
   10d4c:	0097a623          	sw	s1,12(a5)
   10d50:	00a61913          	slli	s2,a2,0xa
   10d54:	00bf04b3          	add	s1,t5,a1
   10d58:	01665413          	srli	s0,a2,0x16
   10d5c:	0107a823          	sw	a6,16(a5)
   10d60:	4024d493          	srai	s1,s1,0x2
   10d64:	20196913          	ori	s2,s2,513
   10d68:	00570613          	addi	a2,a4,5
   10d6c:	00a41413          	slli	s0,s0,0xa
   10d70:	0127a023          	sw	s2,0(a5)
   10d74:	24146413          	ori	s0,s0,577
   10d78:	00a49913          	slli	s2,s1,0xa
   10d7c:	00861613          	slli	a2,a2,0x8
   10d80:	0164d493          	srli	s1,s1,0x16
   10d84:	0087a223          	sw	s0,4(a5)
   10d88:	00d60633          	add	a2,a2,a3
   10d8c:	28196413          	ori	s0,s2,641
   10d90:	00a49493          	slli	s1,s1,0xa
   10d94:	0087a423          	sw	s0,8(a5)
   10d98:	00a60633          	add	a2,a2,a0
   10d9c:	2d14e493          	ori	s1,s1,721
   10da0:	0097a623          	sw	s1,12(a5)
   10da4:	00a61913          	slli	s2,a2,0xa
   10da8:	00be84b3          	add	s1,t4,a1
   10dac:	01665413          	srli	s0,a2,0x16
   10db0:	0107a823          	sw	a6,16(a5)
   10db4:	4024d493          	srai	s1,s1,0x2
   10db8:	20196913          	ori	s2,s2,513
   10dbc:	00670613          	addi	a2,a4,6
   10dc0:	00a41413          	slli	s0,s0,0xa
   10dc4:	0127a023          	sw	s2,0(a5)
   10dc8:	24146413          	ori	s0,s0,577
   10dcc:	00a49913          	slli	s2,s1,0xa
   10dd0:	00861613          	slli	a2,a2,0x8
   10dd4:	0164d493          	srli	s1,s1,0x16
   10dd8:	0087a223          	sw	s0,4(a5)
   10ddc:	00d60633          	add	a2,a2,a3
   10de0:	28196413          	ori	s0,s2,641
   10de4:	00a49493          	slli	s1,s1,0xa
   10de8:	0087a423          	sw	s0,8(a5)
   10dec:	00a60633          	add	a2,a2,a0
   10df0:	00be0433          	add	s0,t3,a1
   10df4:	2d14e493          	ori	s1,s1,721
   10df8:	0097a623          	sw	s1,12(a5)
   10dfc:	40245413          	srai	s0,s0,0x2
   10e00:	00a61913          	slli	s2,a2,0xa
   10e04:	00770713          	addi	a4,a4,7
   10e08:	01665613          	srli	a2,a2,0x16
   10e0c:	0107a823          	sw	a6,16(a5)
   10e10:	01645493          	srli	s1,s0,0x16
   10e14:	20196913          	ori	s2,s2,513
   10e18:	00a61613          	slli	a2,a2,0xa
   10e1c:	00871713          	slli	a4,a4,0x8
   10e20:	0127a023          	sw	s2,0(a5)
   10e24:	24166613          	ori	a2,a2,577
   10e28:	00d70733          	add	a4,a4,a3
   10e2c:	00a41413          	slli	s0,s0,0xa
   10e30:	00a49493          	slli	s1,s1,0xa
   10e34:	00a70733          	add	a4,a4,a0
   10e38:	00c7a223          	sw	a2,4(a5)
   10e3c:	28146413          	ori	s0,s0,641
   10e40:	2d14e613          	ori	a2,s1,721
   10e44:	0087a423          	sw	s0,8(a5)
   10e48:	00b306b3          	add	a3,t1,a1
   10e4c:	00c7a623          	sw	a2,12(a5)
   10e50:	00a71613          	slli	a2,a4,0xa
   10e54:	01675713          	srli	a4,a4,0x16
   10e58:	0107a823          	sw	a6,16(a5)
   10e5c:	4026d693          	srai	a3,a3,0x2
   10e60:	20166613          	ori	a2,a2,513
   10e64:	00a71713          	slli	a4,a4,0xa
   10e68:	00c7a023          	sw	a2,0(a5)
   10e6c:	24176713          	ori	a4,a4,577
   10e70:	00a69613          	slli	a2,a3,0xa
   10e74:	0166d693          	srli	a3,a3,0x16
   10e78:	00e7a223          	sw	a4,4(a5)
   10e7c:	00a69693          	slli	a3,a3,0xa
   10e80:	28166713          	ori	a4,a2,641
   10e84:	00e7a423          	sw	a4,8(a5)
   10e88:	2d16e693          	ori	a3,a3,721
   10e8c:	00d7a623          	sw	a3,12(a5)
   10e90:	0107a823          	sw	a6,16(a5)
   10e94:	0008c703          	lbu	a4,0(a7)
   10e98:	00858593          	addi	a1,a1,8
   10e9c:	00188893          	addi	a7,a7,1
   10ea0:	00070e63          	beqz	a4,10ebc <_Z8PrintDMAiiPKcb+0x38c>
   10ea4:	fe070713          	addi	a4,a4,-32
   10ea8:	d40752e3          	bgez	a4,10bec <_Z8PrintDMAiiPKcb+0xbc>
   10eac:	0008c703          	lbu	a4,0(a7)
   10eb0:	00858593          	addi	a1,a1,8
   10eb4:	00188893          	addi	a7,a7,1
   10eb8:	fe0716e3          	bnez	a4,10ea4 <_Z8PrintDMAiiPKcb+0x374>
   10ebc:	00c12403          	lw	s0,12(sp)
   10ec0:	00812483          	lw	s1,8(sp)
   10ec4:	00412903          	lw	s2,4(sp)
   10ec8:	01010113          	addi	sp,sp,16
   10ecc:	00008067          	ret

00010ed0 <_Z8PrintDMAiiiPKcb>:
   10ed0:	38c05263          	blez	a2,11254 <_Z8PrintDMAiiiPKcb+0x384>
   10ed4:	ff010113          	addi	sp,sp,-16
   10ed8:	00e03833          	snez	a6,a4
   10edc:	00258393          	addi	t2,a1,2
   10ee0:	00358293          	addi	t0,a1,3
   10ee4:	00458f93          	addi	t6,a1,4
   10ee8:	00558f13          	addi	t5,a1,5
   10eec:	00658e93          	addi	t4,a1,6
   10ef0:	00758e13          	addi	t3,a1,7
   10ef4:	00068893          	mv	a7,a3
   10ef8:	00812623          	sw	s0,12(sp)
   10efc:	000016b7          	lui	a3,0x1
   10f00:	00158413          	addi	s0,a1,1
   10f04:	00859713          	slli	a4,a1,0x8
   10f08:	01881813          	slli	a6,a6,0x18
   10f0c:	00841413          	slli	s0,s0,0x8
   10f10:	00839393          	slli	t2,t2,0x8
   10f14:	00829293          	slli	t0,t0,0x8
   10f18:	008f9f93          	slli	t6,t6,0x8
   10f1c:	008f1f13          	slli	t5,t5,0x8
   10f20:	008e9e93          	slli	t4,t4,0x8
   10f24:	008e1e13          	slli	t3,t3,0x8
   10f28:	00007797          	auipc	a5,0x7
   10f2c:	be47a783          	lw	a5,-1052(a5) # 17b0c <_GLOBAL_OFFSET_TABLE_+0x4>
   10f30:	ac468693          	addi	a3,a3,-1340 # ac4 <main-0xf5b0>
   10f34:	00e505b3          	add	a1,a0,a4
   10f38:	0007a783          	lw	a5,0(a5)
   10f3c:	00912423          	sw	s1,8(sp)
   10f40:	01212223          	sw	s2,4(sp)
   10f44:	01312023          	sw	s3,0(sp)
   10f48:	00d86833          	or	a6,a6,a3
   10f4c:	00c88333          	add	t1,a7,a2
   10f50:	00002517          	auipc	a0,0x2
   10f54:	73c50513          	addi	a0,a0,1852 # 1368c <_ZL4font>
   10f58:	40e40433          	sub	s0,s0,a4
   10f5c:	40e383b3          	sub	t2,t2,a4
   10f60:	40e282b3          	sub	t0,t0,a4
   10f64:	40ef8fb3          	sub	t6,t6,a4
   10f68:	40ef0f33          	sub	t5,t5,a4
   10f6c:	40ee8eb3          	sub	t4,t4,a4
   10f70:	40ee0e33          	sub	t3,t3,a4
   10f74:	2c00006f          	j	11234 <_Z8PrintDMAiiiPKcb+0x364>
   10f78:	fe070713          	addi	a4,a4,-32
   10f7c:	2a074663          	bltz	a4,11228 <_Z8PrintDMAiiiPKcb+0x358>
   10f80:	40575493          	srai	s1,a4,0x5
   10f84:	01f77713          	andi	a4,a4,31
   10f88:	00371693          	slli	a3,a4,0x3
   10f8c:	00b49613          	slli	a2,s1,0xb
   10f90:	00d60633          	add	a2,a2,a3
   10f94:	00a60633          	add	a2,a2,a0
   10f98:	00349713          	slli	a4,s1,0x3
   10f9c:	00a61993          	slli	s3,a2,0xa
   10fa0:	01665493          	srli	s1,a2,0x16
   10fa4:	4025d913          	srai	s2,a1,0x2
   10fa8:	2019e993          	ori	s3,s3,513
   10fac:	00170613          	addi	a2,a4,1
   10fb0:	00a49493          	slli	s1,s1,0xa
   10fb4:	0137a023          	sw	s3,0(a5)
   10fb8:	2414e493          	ori	s1,s1,577
   10fbc:	00a91993          	slli	s3,s2,0xa
   10fc0:	00861613          	slli	a2,a2,0x8
   10fc4:	01695913          	srli	s2,s2,0x16
   10fc8:	0097a223          	sw	s1,4(a5)
   10fcc:	00d60633          	add	a2,a2,a3
   10fd0:	2819e493          	ori	s1,s3,641
   10fd4:	00a91913          	slli	s2,s2,0xa
   10fd8:	0097a423          	sw	s1,8(a5)
   10fdc:	00a60633          	add	a2,a2,a0
   10fe0:	2d196913          	ori	s2,s2,721
   10fe4:	0127a623          	sw	s2,12(a5)
   10fe8:	00a61993          	slli	s3,a2,0xa
   10fec:	01665493          	srli	s1,a2,0x16
   10ff0:	00b40933          	add	s2,s0,a1
   10ff4:	0107a823          	sw	a6,16(a5)
   10ff8:	40295913          	srai	s2,s2,0x2
   10ffc:	2019e993          	ori	s3,s3,513
   11000:	00270613          	addi	a2,a4,2
   11004:	00a49493          	slli	s1,s1,0xa
   11008:	0137a023          	sw	s3,0(a5)
   1100c:	2414e493          	ori	s1,s1,577
   11010:	00a91993          	slli	s3,s2,0xa
   11014:	00861613          	slli	a2,a2,0x8
   11018:	01695913          	srli	s2,s2,0x16
   1101c:	0097a223          	sw	s1,4(a5)
   11020:	00d60633          	add	a2,a2,a3
   11024:	2819e493          	ori	s1,s3,641
   11028:	00a91913          	slli	s2,s2,0xa
   1102c:	0097a423          	sw	s1,8(a5)
   11030:	00a60633          	add	a2,a2,a0
   11034:	2d196913          	ori	s2,s2,721
   11038:	0127a623          	sw	s2,12(a5)
   1103c:	00a61993          	slli	s3,a2,0xa
   11040:	01665493          	srli	s1,a2,0x16
   11044:	00b38933          	add	s2,t2,a1
   11048:	0107a823          	sw	a6,16(a5)
   1104c:	40295913          	srai	s2,s2,0x2
   11050:	2019e993          	ori	s3,s3,513
   11054:	00370613          	addi	a2,a4,3
   11058:	00a49493          	slli	s1,s1,0xa
   1105c:	0137a023          	sw	s3,0(a5)
   11060:	2414e493          	ori	s1,s1,577
   11064:	00a91993          	slli	s3,s2,0xa
   11068:	00861613          	slli	a2,a2,0x8
   1106c:	01695913          	srli	s2,s2,0x16
   11070:	0097a223          	sw	s1,4(a5)
   11074:	00d60633          	add	a2,a2,a3
   11078:	2819e493          	ori	s1,s3,641
   1107c:	00a91913          	slli	s2,s2,0xa
   11080:	0097a423          	sw	s1,8(a5)
   11084:	00a60633          	add	a2,a2,a0
   11088:	2d196913          	ori	s2,s2,721
   1108c:	0127a623          	sw	s2,12(a5)
   11090:	00a61993          	slli	s3,a2,0xa
   11094:	01665493          	srli	s1,a2,0x16
   11098:	00b28933          	add	s2,t0,a1
   1109c:	0107a823          	sw	a6,16(a5)
   110a0:	40295913          	srai	s2,s2,0x2
   110a4:	2019e993          	ori	s3,s3,513
   110a8:	00470613          	addi	a2,a4,4
   110ac:	00a49493          	slli	s1,s1,0xa
   110b0:	0137a023          	sw	s3,0(a5)
   110b4:	2414e493          	ori	s1,s1,577
   110b8:	00a91993          	slli	s3,s2,0xa
   110bc:	00861613          	slli	a2,a2,0x8
   110c0:	01695913          	srli	s2,s2,0x16
   110c4:	0097a223          	sw	s1,4(a5)
   110c8:	00d60633          	add	a2,a2,a3
   110cc:	2819e493          	ori	s1,s3,641
   110d0:	00a91913          	slli	s2,s2,0xa
   110d4:	0097a423          	sw	s1,8(a5)
   110d8:	00a60633          	add	a2,a2,a0
   110dc:	2d196913          	ori	s2,s2,721
   110e0:	0127a623          	sw	s2,12(a5)
   110e4:	00a61993          	slli	s3,a2,0xa
   110e8:	01665493          	srli	s1,a2,0x16
   110ec:	00bf8933          	add	s2,t6,a1
   110f0:	0107a823          	sw	a6,16(a5)
   110f4:	40295913          	srai	s2,s2,0x2
   110f8:	2019e993          	ori	s3,s3,513
   110fc:	00570613          	addi	a2,a4,5
   11100:	00a49493          	slli	s1,s1,0xa
   11104:	0137a023          	sw	s3,0(a5)
   11108:	2414e493          	ori	s1,s1,577
   1110c:	00a91993          	slli	s3,s2,0xa
   11110:	00861613          	slli	a2,a2,0x8
   11114:	01695913          	srli	s2,s2,0x16
   11118:	0097a223          	sw	s1,4(a5)
   1111c:	00d60633          	add	a2,a2,a3
   11120:	2819e493          	ori	s1,s3,641
   11124:	00a91913          	slli	s2,s2,0xa
   11128:	0097a423          	sw	s1,8(a5)
   1112c:	00a60633          	add	a2,a2,a0
   11130:	2d196913          	ori	s2,s2,721
   11134:	0127a623          	sw	s2,12(a5)
   11138:	00a61993          	slli	s3,a2,0xa
   1113c:	01665493          	srli	s1,a2,0x16
   11140:	00bf0933          	add	s2,t5,a1
   11144:	0107a823          	sw	a6,16(a5)
   11148:	40295913          	srai	s2,s2,0x2
   1114c:	2019e993          	ori	s3,s3,513
   11150:	00670613          	addi	a2,a4,6
   11154:	00a49493          	slli	s1,s1,0xa
   11158:	0137a023          	sw	s3,0(a5)
   1115c:	2414e493          	ori	s1,s1,577
   11160:	00a91993          	slli	s3,s2,0xa
   11164:	00861613          	slli	a2,a2,0x8
   11168:	01695913          	srli	s2,s2,0x16
   1116c:	0097a223          	sw	s1,4(a5)
   11170:	00d60633          	add	a2,a2,a3
   11174:	2819e493          	ori	s1,s3,641
   11178:	00a91913          	slli	s2,s2,0xa
   1117c:	0097a423          	sw	s1,8(a5)
   11180:	00a60633          	add	a2,a2,a0
   11184:	2d196913          	ori	s2,s2,721
   11188:	00be84b3          	add	s1,t4,a1
   1118c:	0127a623          	sw	s2,12(a5)
   11190:	4024d493          	srai	s1,s1,0x2
   11194:	00a61993          	slli	s3,a2,0xa
   11198:	00770713          	addi	a4,a4,7
   1119c:	01665613          	srli	a2,a2,0x16
   111a0:	0107a823          	sw	a6,16(a5)
   111a4:	0164d913          	srli	s2,s1,0x16
   111a8:	2019e993          	ori	s3,s3,513
   111ac:	00a61613          	slli	a2,a2,0xa
   111b0:	00871713          	slli	a4,a4,0x8
   111b4:	0137a023          	sw	s3,0(a5)
   111b8:	24166613          	ori	a2,a2,577
   111bc:	00d70733          	add	a4,a4,a3
   111c0:	00a49493          	slli	s1,s1,0xa
   111c4:	00a91913          	slli	s2,s2,0xa
   111c8:	00a70733          	add	a4,a4,a0
   111cc:	00c7a223          	sw	a2,4(a5)
   111d0:	2d196693          	ori	a3,s2,721
   111d4:	2814e493          	ori	s1,s1,641
   111d8:	0097a423          	sw	s1,8(a5)
   111dc:	00a71613          	slli	a2,a4,0xa
   111e0:	00d7a623          	sw	a3,12(a5)
   111e4:	01675713          	srli	a4,a4,0x16
   111e8:	00be06b3          	add	a3,t3,a1
   111ec:	0107a823          	sw	a6,16(a5)
   111f0:	4026d693          	srai	a3,a3,0x2
   111f4:	20166613          	ori	a2,a2,513
   111f8:	00a71713          	slli	a4,a4,0xa
   111fc:	00c7a023          	sw	a2,0(a5)
   11200:	24176713          	ori	a4,a4,577
   11204:	00a69613          	slli	a2,a3,0xa
   11208:	0166d693          	srli	a3,a3,0x16
   1120c:	00e7a223          	sw	a4,4(a5)
   11210:	00a69693          	slli	a3,a3,0xa
   11214:	28166713          	ori	a4,a2,641
   11218:	00e7a423          	sw	a4,8(a5)
   1121c:	2d16e693          	ori	a3,a3,721
   11220:	00d7a623          	sw	a3,12(a5)
   11224:	0107a823          	sw	a6,16(a5)
   11228:	00188893          	addi	a7,a7,1
   1122c:	00858593          	addi	a1,a1,8
   11230:	01130663          	beq	t1,a7,1123c <_Z8PrintDMAiiiPKcb+0x36c>
   11234:	0008c703          	lbu	a4,0(a7)
   11238:	d40710e3          	bnez	a4,10f78 <_Z8PrintDMAiiiPKcb+0xa8>
   1123c:	00c12403          	lw	s0,12(sp)
   11240:	00812483          	lw	s1,8(sp)
   11244:	00412903          	lw	s2,4(sp)
   11248:	00012983          	lw	s3,0(sp)
   1124c:	01010113          	addi	sp,sp,16
   11250:	00008067          	ret
   11254:	00008067          	ret

00011258 <_Z11PrintDMAHexiim>:
   11258:	00002e17          	auipc	t3,0x2
   1125c:	408e0e13          	addi	t3,t3,1032 # 13660 <__errno+0x58>
   11260:	00ce2f03          	lw	t5,12(t3)
   11264:	008e2f83          	lw	t6,8(t3)
   11268:	000e2383          	lw	t2,0(t3)
   1126c:	004e2283          	lw	t0,4(t3)
   11270:	fd010113          	addi	sp,sp,-48
   11274:	01865313          	srli	t1,a2,0x18
   11278:	01465893          	srli	a7,a2,0x14
   1127c:	01065813          	srli	a6,a2,0x10
   11280:	00c65693          	srli	a3,a2,0xc
   11284:	00865713          	srli	a4,a2,0x8
   11288:	00465793          	srli	a5,a2,0x4
   1128c:	01e12c23          	sw	t5,24(sp)
   11290:	01c65e93          	srli	t4,a2,0x1c
   11294:	02010f13          	addi	t5,sp,32
   11298:	00f37313          	andi	t1,t1,15
   1129c:	00f8f893          	andi	a7,a7,15
   112a0:	00f87813          	andi	a6,a6,15
   112a4:	00f6f693          	andi	a3,a3,15
   112a8:	00f77713          	andi	a4,a4,15
   112ac:	00f7f793          	andi	a5,a5,15
   112b0:	00f67613          	andi	a2,a2,15
   112b4:	02112623          	sw	ra,44(sp)
   112b8:	01f12a23          	sw	t6,20(sp)
   112bc:	00712623          	sw	t2,12(sp)
   112c0:	00512823          	sw	t0,16(sp)
   112c4:	006f0333          	add	t1,t5,t1
   112c8:	011f08b3          	add	a7,t5,a7
   112cc:	010f0833          	add	a6,t5,a6
   112d0:	00df06b3          	add	a3,t5,a3
   112d4:	00ef0733          	add	a4,t5,a4
   112d8:	00ff07b3          	add	a5,t5,a5
   112dc:	00cf0633          	add	a2,t5,a2
   112e0:	01df0eb3          	add	t4,t5,t4
   112e4:	010e4f83          	lbu	t6,16(t3)
   112e8:	fececf03          	lbu	t5,-20(t4) # 1fec <main-0xe088>
   112ec:	fec8ce03          	lbu	t3,-20(a7)
   112f0:	fec34e83          	lbu	t4,-20(t1)
   112f4:	fec6c883          	lbu	a7,-20(a3)
   112f8:	fec84303          	lbu	t1,-20(a6)
   112fc:	fec74803          	lbu	a6,-20(a4)
   11300:	fec7c703          	lbu	a4,-20(a5)
   11304:	fec64783          	lbu	a5,-20(a2)
   11308:	02e00693          	li	a3,46
   1130c:	00d11423          	sh	a3,8(sp)
   11310:	00010613          	mv	a2,sp
   11314:	00100693          	li	a3,1
   11318:	01f10e23          	sb	t6,28(sp)
   1131c:	01e10023          	sb	t5,0(sp)
   11320:	01d100a3          	sb	t4,1(sp)
   11324:	01c10123          	sb	t3,2(sp)
   11328:	006101a3          	sb	t1,3(sp)
   1132c:	01110223          	sb	a7,4(sp)
   11330:	010102a3          	sb	a6,5(sp)
   11334:	00e10323          	sb	a4,6(sp)
   11338:	00f103a3          	sb	a5,7(sp)
   1133c:	00010423          	sb	zero,8(sp)
   11340:	ff0ff0ef          	jal	ra,10b30 <_Z8PrintDMAiiPKcb>
   11344:	02c12083          	lw	ra,44(sp)
   11348:	03010113          	addi	sp,sp,48
   1134c:	00008067          	ret

00011350 <_Z15PrintDMADecimaliim>:
   11350:	00002797          	auipc	a5,0x2
   11354:	32478793          	addi	a5,a5,804 # 13674 <__errno+0x6c>
   11358:	202026b7          	lui	a3,0x20202
   1135c:	fd010113          	addi	sp,sp,-48
   11360:	02068693          	addi	a3,a3,32 # 20202020 <__BSS_END__+0x201ea148>
   11364:	0007ae03          	lw	t3,0(a5)
   11368:	0047a303          	lw	t1,4(a5)
   1136c:	0087d883          	lhu	a7,8(a5)
   11370:	00a7c803          	lbu	a6,10(a5)
   11374:	00d12a23          	sw	a3,20(sp)
   11378:	00d12c23          	sw	a3,24(sp)
   1137c:	002026b7          	lui	a3,0x202
   11380:	3b9ad737          	lui	a4,0x3b9ad
   11384:	02068693          	addi	a3,a3,32 # 202020 <__BSS_END__+0x1ea148>
   11388:	a0070793          	addi	a5,a4,-1536 # 3b9aca00 <__BSS_END__+0x3b994b28>
   1138c:	02112623          	sw	ra,44(sp)
   11390:	02812423          	sw	s0,40(sp)
   11394:	01c12423          	sw	t3,8(sp)
   11398:	00612623          	sw	t1,12(sp)
   1139c:	01111823          	sh	a7,16(sp)
   113a0:	01010923          	sb	a6,18(sp)
   113a4:	00d12e23          	sw	a3,28(sp)
   113a8:	9ff70713          	addi	a4,a4,-1537
   113ac:	02f657b3          	divu	a5,a2,a5
   113b0:	0ec76263          	bltu	a4,a2,11494 <_Z15PrintDMADecimaliim+0x144>
   113b4:	05f5e837          	lui	a6,0x5f5e
   113b8:	10080813          	addi	a6,a6,256 # 5f5e100 <__BSS_END__+0x5f46228>
   113bc:	00a00893          	li	a7,10
   113c0:	03065833          	divu	a6,a2,a6
   113c4:	03187833          	remu	a6,a6,a7
   113c8:	22081c63          	bnez	a6,11600 <_Z15PrintDMADecimaliim+0x2b0>
   113cc:	009897b7          	lui	a5,0x989
   113d0:	68078793          	addi	a5,a5,1664 # 989680 <__BSS_END__+0x9717a8>
   113d4:	02f657b3          	divu	a5,a2,a5
   113d8:	0317f7b3          	remu	a5,a5,a7
   113dc:	10079863          	bnez	a5,114ec <_Z15PrintDMADecimaliim+0x19c>
   113e0:	000f46b7          	lui	a3,0xf4
   113e4:	24068693          	addi	a3,a3,576 # f4240 <__BSS_END__+0xdc368>
   113e8:	02d656b3          	divu	a3,a2,a3
   113ec:	0316f6b3          	remu	a3,a3,a7
   113f0:	12069463          	bnez	a3,11518 <_Z15PrintDMADecimaliim+0x1c8>
   113f4:	00018737          	lui	a4,0x18
   113f8:	6a070713          	addi	a4,a4,1696 # 186a0 <__BSS_END__+0x7c8>
   113fc:	02e65733          	divu	a4,a2,a4
   11400:	03177733          	remu	a4,a4,a7
   11404:	14071063          	bnez	a4,11544 <_Z15PrintDMADecimaliim+0x1f4>
   11408:	000027b7          	lui	a5,0x2
   1140c:	71078793          	addi	a5,a5,1808 # 2710 <main-0xd964>
   11410:	02f657b3          	divu	a5,a2,a5
   11414:	0317f7b3          	remu	a5,a5,a7
   11418:	14079c63          	bnez	a5,11570 <_Z15PrintDMADecimaliim+0x220>
   1141c:	3e800693          	li	a3,1000
   11420:	02d656b3          	divu	a3,a2,a3
   11424:	0316f6b3          	remu	a3,a3,a7
   11428:	16069863          	bnez	a3,11598 <_Z15PrintDMADecimaliim+0x248>
   1142c:	06400793          	li	a5,100
   11430:	02f657b3          	divu	a5,a2,a5
   11434:	0317f7b3          	remu	a5,a5,a7
   11438:	18079463          	bnez	a5,115c0 <_Z15PrintDMADecimaliim+0x270>
   1143c:	03165733          	divu	a4,a2,a7
   11440:	03177733          	remu	a4,a4,a7
   11444:	1a071063          	bnez	a4,115e4 <_Z15PrintDMADecimaliim+0x294>
   11448:	00a00793          	li	a5,10
   1144c:	02f677b3          	remu	a5,a2,a5
   11450:	02010893          	addi	a7,sp,32
   11454:	02010693          	addi	a3,sp,32
   11458:	00170413          	addi	s0,a4,1
   1145c:	00e68733          	add	a4,a3,a4
   11460:	00868833          	add	a6,a3,s0
   11464:	01410613          	addi	a2,sp,20
   11468:	00100693          	li	a3,1
   1146c:	00f887b3          	add	a5,a7,a5
   11470:	fe87c783          	lbu	a5,-24(a5)
   11474:	fef70a23          	sb	a5,-12(a4)
   11478:	fe080a23          	sb	zero,-12(a6)
   1147c:	eb4ff0ef          	jal	ra,10b30 <_Z8PrintDMAiiPKcb>
   11480:	02c12083          	lw	ra,44(sp)
   11484:	00040513          	mv	a0,s0
   11488:	02812403          	lw	s0,40(sp)
   1148c:	03010113          	addi	sp,sp,48
   11490:	00008067          	ret
   11494:	02010713          	addi	a4,sp,32
   11498:	00f707b3          	add	a5,a4,a5
   1149c:	05f5e737          	lui	a4,0x5f5e
   114a0:	10070713          	addi	a4,a4,256 # 5f5e100 <__BSS_END__+0x5f46228>
   114a4:	02e65733          	divu	a4,a2,a4
   114a8:	fe87c783          	lbu	a5,-24(a5)
   114ac:	00100813          	li	a6,1
   114b0:	00f10a23          	sb	a5,20(sp)
   114b4:	00a00793          	li	a5,10
   114b8:	02f77733          	remu	a4,a4,a5
   114bc:	009897b7          	lui	a5,0x989
   114c0:	68078793          	addi	a5,a5,1664 # 989680 <__BSS_END__+0x9717a8>
   114c4:	02010693          	addi	a3,sp,32
   114c8:	00e68733          	add	a4,a3,a4
   114cc:	fe874683          	lbu	a3,-24(a4)
   114d0:	02010713          	addi	a4,sp,32
   114d4:	01070733          	add	a4,a4,a6
   114d8:	fed70a23          	sb	a3,-12(a4)
   114dc:	00a00713          	li	a4,10
   114e0:	00180813          	addi	a6,a6,1
   114e4:	02f657b3          	divu	a5,a2,a5
   114e8:	02e7f7b3          	remu	a5,a5,a4
   114ec:	000f46b7          	lui	a3,0xf4
   114f0:	24068693          	addi	a3,a3,576 # f4240 <__BSS_END__+0xdc368>
   114f4:	02010713          	addi	a4,sp,32
   114f8:	00f707b3          	add	a5,a4,a5
   114fc:	fe87c883          	lbu	a7,-24(a5)
   11500:	01070733          	add	a4,a4,a6
   11504:	00180793          	addi	a5,a6,1
   11508:	ff170a23          	sb	a7,-12(a4)
   1150c:	00a00713          	li	a4,10
   11510:	02d656b3          	divu	a3,a2,a3
   11514:	02e6f6b3          	remu	a3,a3,a4
   11518:	00018737          	lui	a4,0x18
   1151c:	6a070713          	addi	a4,a4,1696 # 186a0 <__BSS_END__+0x7c8>
   11520:	02010813          	addi	a6,sp,32
   11524:	00d806b3          	add	a3,a6,a3
   11528:	fe86c883          	lbu	a7,-24(a3)
   1152c:	00f80833          	add	a6,a6,a5
   11530:	00178693          	addi	a3,a5,1
   11534:	00a00793          	li	a5,10
   11538:	ff180a23          	sb	a7,-12(a6)
   1153c:	02e65733          	divu	a4,a2,a4
   11540:	02f77733          	remu	a4,a4,a5
   11544:	000027b7          	lui	a5,0x2
   11548:	71078793          	addi	a5,a5,1808 # 2710 <main-0xd964>
   1154c:	02010813          	addi	a6,sp,32
   11550:	00e80733          	add	a4,a6,a4
   11554:	fe874883          	lbu	a7,-24(a4)
   11558:	00d80833          	add	a6,a6,a3
   1155c:	00168713          	addi	a4,a3,1
   11560:	00a00693          	li	a3,10
   11564:	ff180a23          	sb	a7,-12(a6)
   11568:	02f657b3          	divu	a5,a2,a5
   1156c:	02d7f7b3          	remu	a5,a5,a3
   11570:	3e800693          	li	a3,1000
   11574:	02010813          	addi	a6,sp,32
   11578:	00f807b3          	add	a5,a6,a5
   1157c:	fe87c883          	lbu	a7,-24(a5)
   11580:	00e80833          	add	a6,a6,a4
   11584:	00170793          	addi	a5,a4,1
   11588:	00a00713          	li	a4,10
   1158c:	ff180a23          	sb	a7,-12(a6)
   11590:	02d656b3          	divu	a3,a2,a3
   11594:	02e6f6b3          	remu	a3,a3,a4
   11598:	06400713          	li	a4,100
   1159c:	02010813          	addi	a6,sp,32
   115a0:	00d806b3          	add	a3,a6,a3
   115a4:	fe86c883          	lbu	a7,-24(a3)
   115a8:	00f80833          	add	a6,a6,a5
   115ac:	00178693          	addi	a3,a5,1
   115b0:	00a00793          	li	a5,10
   115b4:	ff180a23          	sb	a7,-12(a6)
   115b8:	02e65733          	divu	a4,a2,a4
   115bc:	02f777b3          	remu	a5,a4,a5
   115c0:	00a00813          	li	a6,10
   115c4:	02010893          	addi	a7,sp,32
   115c8:	00f887b3          	add	a5,a7,a5
   115cc:	fe87c303          	lbu	t1,-24(a5)
   115d0:	00d888b3          	add	a7,a7,a3
   115d4:	00168793          	addi	a5,a3,1
   115d8:	fe688a23          	sb	t1,-12(a7)
   115dc:	03065733          	divu	a4,a2,a6
   115e0:	03077733          	remu	a4,a4,a6
   115e4:	02010693          	addi	a3,sp,32
   115e8:	00e68733          	add	a4,a3,a4
   115ec:	fe874803          	lbu	a6,-24(a4)
   115f0:	00f686b3          	add	a3,a3,a5
   115f4:	00178713          	addi	a4,a5,1
   115f8:	ff068a23          	sb	a6,-12(a3)
   115fc:	e4dff06f          	j	11448 <_Z15PrintDMADecimaliim+0xf8>
   11600:	00080713          	mv	a4,a6
   11604:	00000813          	li	a6,0
   11608:	eb5ff06f          	j	114bc <_Z15PrintDMADecimaliim+0x16c>

0001160c <_Z8EchoUARTPKc>:
   1160c:	00054683          	lbu	a3,0(a0)
   11610:	02068663          	beqz	a3,1163c <_Z8EchoUARTPKc+0x30>
   11614:	00000793          	li	a5,0
   11618:	00006617          	auipc	a2,0x6
   1161c:	50062603          	lw	a2,1280(a2) # 17b18 <_GLOBAL_OFFSET_TABLE_+0x10>
   11620:	00062703          	lw	a4,0(a2)
   11624:	00f70733          	add	a4,a4,a5
   11628:	00178793          	addi	a5,a5,1
   1162c:	00d70023          	sb	a3,0(a4)
   11630:	00f50733          	add	a4,a0,a5
   11634:	00074683          	lbu	a3,0(a4)
   11638:	fe0694e3          	bnez	a3,11620 <_Z8EchoUARTPKc+0x14>
   1163c:	00008067          	ret

00011640 <_Z7EchoIntm>:
   11640:	00002617          	auipc	a2,0x2
   11644:	02060613          	addi	a2,a2,32 # 13660 <__errno+0x58>
   11648:	00c62803          	lw	a6,12(a2)
   1164c:	00062e03          	lw	t3,0(a2)
   11650:	00462303          	lw	t1,4(a2)
   11654:	00862883          	lw	a7,8(a2)
   11658:	fd010113          	addi	sp,sp,-48
   1165c:	00c55793          	srli	a5,a0,0xc
   11660:	00855693          	srli	a3,a0,0x8
   11664:	01855713          	srli	a4,a0,0x18
   11668:	01012c23          	sw	a6,24(sp)
   1166c:	01c55593          	srli	a1,a0,0x1c
   11670:	02010813          	addi	a6,sp,32
   11674:	00f7f793          	andi	a5,a5,15
   11678:	00f6f693          	andi	a3,a3,15
   1167c:	00f77713          	andi	a4,a4,15
   11680:	02112623          	sw	ra,44(sp)
   11684:	01112a23          	sw	a7,20(sp)
   11688:	01c12623          	sw	t3,12(sp)
   1168c:	00612823          	sw	t1,16(sp)
   11690:	00d806b3          	add	a3,a6,a3
   11694:	00b805b3          	add	a1,a6,a1
   11698:	00e80733          	add	a4,a6,a4
   1169c:	00f807b3          	add	a5,a6,a5
   116a0:	00455893          	srli	a7,a0,0x4
   116a4:	01455813          	srli	a6,a0,0x14
   116a8:	fec6ce83          	lbu	t4,-20(a3)
   116ac:	fec74e03          	lbu	t3,-20(a4)
   116b0:	fec5c683          	lbu	a3,-20(a1)
   116b4:	02010713          	addi	a4,sp,32
   116b8:	fec7c783          	lbu	a5,-20(a5)
   116bc:	00f8f893          	andi	a7,a7,15
   116c0:	00f87813          	andi	a6,a6,15
   116c4:	011708b3          	add	a7,a4,a7
   116c8:	01070833          	add	a6,a4,a6
   116cc:	01055593          	srli	a1,a0,0x10
   116d0:	ffff0737          	lui	a4,0xffff0
   116d4:	fec8c303          	lbu	t1,-20(a7)
   116d8:	0ff70713          	addi	a4,a4,255 # ffff00ff <__BSS_END__+0xfffd8227>
   116dc:	fec84883          	lbu	a7,-20(a6)
   116e0:	00f5f593          	andi	a1,a1,15
   116e4:	02010813          	addi	a6,sp,32
   116e8:	00f57513          	andi	a0,a0,15
   116ec:	008e9e93          	slli	t4,t4,0x8
   116f0:	00e7f7b3          	and	a5,a5,a4
   116f4:	00a80533          	add	a0,a6,a0
   116f8:	008e1e13          	slli	t3,t3,0x8
   116fc:	00e6f733          	and	a4,a3,a4
   11700:	00b806b3          	add	a3,a6,a1
   11704:	ff0105b7          	lui	a1,0xff010
   11708:	fec54803          	lbu	a6,-20(a0)
   1170c:	fff58593          	addi	a1,a1,-1 # ff00ffff <__BSS_END__+0xfeff8127>
   11710:	fec6c503          	lbu	a0,-20(a3)
   11714:	01d7e7b3          	or	a5,a5,t4
   11718:	01c76733          	or	a4,a4,t3
   1171c:	01031313          	slli	t1,t1,0x10
   11720:	00002e17          	auipc	t3,0x2
   11724:	f60e0e13          	addi	t3,t3,-160 # 13680 <__errno+0x78>
   11728:	00b7f7b3          	and	a5,a5,a1
   1172c:	01089893          	slli	a7,a7,0x10
   11730:	00b77733          	and	a4,a4,a1
   11734:	010006b7          	lui	a3,0x1000
   11738:	01064f03          	lbu	t5,16(a2)
   1173c:	008e5e83          	lhu	t4,8(t3)
   11740:	fff68693          	addi	a3,a3,-1 # ffffff <__BSS_END__+0xfe8127>
   11744:	00ae4e03          	lbu	t3,10(t3)
   11748:	0067e7b3          	or	a5,a5,t1
   1174c:	01176733          	or	a4,a4,a7
   11750:	01851613          	slli	a2,a0,0x18
   11754:	01881593          	slli	a1,a6,0x18
   11758:	00d7f7b3          	and	a5,a5,a3
   1175c:	00d77733          	and	a4,a4,a3
   11760:	00b7e7b3          	or	a5,a5,a1
   11764:	00c76733          	or	a4,a4,a2
   11768:	00010513          	mv	a0,sp
   1176c:	01e10e23          	sb	t5,28(sp)
   11770:	01d11423          	sh	t4,8(sp)
   11774:	01c10523          	sb	t3,10(sp)
   11778:	00e12023          	sw	a4,0(sp)
   1177c:	00f12223          	sw	a5,4(sp)
   11780:	e8dff0ef          	jal	ra,1160c <_Z8EchoUARTPKc>
   11784:	02c12083          	lw	ra,44(sp)
   11788:	03010113          	addi	sp,sp,48
   1178c:	00008067          	ret

00011790 <_Z6Randomv>:
   11790:	00006717          	auipc	a4,0x6
   11794:	38072703          	lw	a4,896(a4) # 17b10 <_GLOBAL_OFFSET_TABLE_+0x8>
   11798:	00072503          	lw	a0,0(a4)
   1179c:	00951793          	slli	a5,a0,0x9
   117a0:	00a7c7b3          	xor	a5,a5,a0
   117a4:	00d7d513          	srli	a0,a5,0xd
   117a8:	00f547b3          	xor	a5,a0,a5
   117ac:	00179513          	slli	a0,a5,0x1
   117b0:	00f54533          	xor	a0,a0,a5
   117b4:	00a72023          	sw	a0,0(a4)
   117b8:	00008067          	ret

000117bc <_Z9ReadClockv>:
   117bc:	c81025f3          	rdtimeh	a1
   117c0:	c0102573          	rdtime	a0
   117c4:	00008067          	ret

000117c8 <_Z9ClockToMsy>:
   117c8:	00002637          	lui	a2,0x2
   117cc:	ff010113          	addi	sp,sp,-16
   117d0:	71060613          	addi	a2,a2,1808 # 2710 <main-0xd964>
   117d4:	00000693          	li	a3,0
   117d8:	00112623          	sw	ra,12(sp)
   117dc:	5c0000ef          	jal	ra,11d9c <__udivdi3>
   117e0:	00c12083          	lw	ra,12(sp)
   117e4:	01010113          	addi	sp,sp,16
   117e8:	00008067          	ret

000117ec <_Z12ClockMsToHMSmRmS_S_>:
   117ec:	000587b7          	lui	a5,0x58
   117f0:	e4078793          	addi	a5,a5,-448 # 57e40 <__BSS_END__+0x3ff68>
   117f4:	02f577b3          	remu	a5,a0,a5
   117f8:	0036f837          	lui	a6,0x36f
   117fc:	e8080813          	addi	a6,a6,-384 # 36ee80 <__BSS_END__+0x356fa8>
   11800:	0000f737          	lui	a4,0xf
   11804:	a6070713          	addi	a4,a4,-1440 # ea60 <main-0x1614>
   11808:	030578b3          	remu	a7,a0,a6
   1180c:	03055533          	divu	a0,a0,a6
   11810:	02e7f7b3          	remu	a5,a5,a4
   11814:	00a5a023          	sw	a0,0(a1)
   11818:	3e800593          	li	a1,1000
   1181c:	02e8d733          	divu	a4,a7,a4
   11820:	02b7d7b3          	divu	a5,a5,a1
   11824:	00e62023          	sw	a4,0(a2)
   11828:	00f6a023          	sw	a5,0(a3)
   1182c:	00008067          	ret

00011830 <_Z12ClearConsolev>:
   11830:	00006797          	auipc	a5,0x6
   11834:	6a07a023          	sw	zero,1696(a5) # 17ed0 <_ZL7cursorx>
   11838:	00006797          	auipc	a5,0x6
   1183c:	6807ae23          	sw	zero,1692(a5) # 17ed4 <_ZL7cursory>
   11840:	20202737          	lui	a4,0x20202
   11844:	4f818793          	addi	a5,gp,1272 # 17bd0 <_ZL11consoleText>
   11848:	00006697          	auipc	a3,0x6
   1184c:	68868693          	addi	a3,a3,1672 # 17ed0 <_ZL7cursorx>
   11850:	02070713          	addi	a4,a4,32 # 20202020 <__BSS_END__+0x201ea148>
   11854:	00e7a023          	sw	a4,0(a5)
   11858:	00e7a223          	sw	a4,4(a5)
   1185c:	00e7a423          	sw	a4,8(a5)
   11860:	00e7a623          	sw	a4,12(a5)
   11864:	00e7a823          	sw	a4,16(a5)
   11868:	00e7aa23          	sw	a4,20(a5)
   1186c:	00e7ac23          	sw	a4,24(a5)
   11870:	00e7ae23          	sw	a4,28(a5)
   11874:	02078793          	addi	a5,a5,32
   11878:	fcf69ee3          	bne	a3,a5,11854 <_Z12ClearConsolev+0x24>
   1187c:	00008067          	ret

00011880 <_Z15ClearConsoleRowv>:
   11880:	00006797          	auipc	a5,0x6
   11884:	6547a783          	lw	a5,1620(a5) # 17ed4 <_ZL7cursory>
   11888:	00579713          	slli	a4,a5,0x5
   1188c:	4f818793          	addi	a5,gp,1272 # 17bd0 <_ZL11consoleText>
   11890:	00e787b3          	add	a5,a5,a4
   11894:	20202737          	lui	a4,0x20202
   11898:	02070713          	addi	a4,a4,32 # 20202020 <__BSS_END__+0x201ea148>
   1189c:	00e7a023          	sw	a4,0(a5)
   118a0:	00e7a223          	sw	a4,4(a5)
   118a4:	00e7a423          	sw	a4,8(a5)
   118a8:	00e7a623          	sw	a4,12(a5)
   118ac:	00e7a823          	sw	a4,16(a5)
   118b0:	00e7aa23          	sw	a4,20(a5)
   118b4:	00e7ac23          	sw	a4,24(a5)
   118b8:	00e7ae23          	sw	a4,28(a5)
   118bc:	00008067          	ret

000118c0 <_Z16SetConsoleCursorii>:
   118c0:	00006797          	auipc	a5,0x6
   118c4:	60a7a823          	sw	a0,1552(a5) # 17ed0 <_ZL7cursorx>
   118c8:	00006797          	auipc	a5,0x6
   118cc:	60b7a623          	sw	a1,1548(a5) # 17ed4 <_ZL7cursory>
   118d0:	00008067          	ret

000118d4 <_Z13ScrollConsolev>:
   118d4:	ff010113          	addi	sp,sp,-16
   118d8:	00112623          	sw	ra,12(sp)
   118dc:	4f818793          	addi	a5,gp,1272 # 17bd0 <_ZL11consoleText>
   118e0:	7d818e13          	addi	t3,gp,2008 # 17eb0 <_ZL11consoleText+0x2e0>
   118e4:	0207a303          	lw	t1,32(a5)
   118e8:	0247a883          	lw	a7,36(a5)
   118ec:	0287a803          	lw	a6,40(a5)
   118f0:	02c7a503          	lw	a0,44(a5)
   118f4:	0307a583          	lw	a1,48(a5)
   118f8:	0347a603          	lw	a2,52(a5)
   118fc:	0387a683          	lw	a3,56(a5)
   11900:	03c7a703          	lw	a4,60(a5)
   11904:	0067a023          	sw	t1,0(a5)
   11908:	0117a223          	sw	a7,4(a5)
   1190c:	0107a423          	sw	a6,8(a5)
   11910:	00a7a623          	sw	a0,12(a5)
   11914:	00b7a823          	sw	a1,16(a5)
   11918:	00c7aa23          	sw	a2,20(a5)
   1191c:	00d7ac23          	sw	a3,24(a5)
   11920:	00e7ae23          	sw	a4,28(a5)
   11924:	02078793          	addi	a5,a5,32
   11928:	fafe1ee3          	bne	t3,a5,118e4 <_Z13ScrollConsolev+0x10>
   1192c:	01700593          	li	a1,23
   11930:	00006517          	auipc	a0,0x6
   11934:	5a052503          	lw	a0,1440(a0) # 17ed0 <_ZL7cursorx>
   11938:	f89ff0ef          	jal	ra,118c0 <_Z16SetConsoleCursorii>
   1193c:	00c12083          	lw	ra,12(sp)
   11940:	01010113          	addi	sp,sp,16
   11944:	f3dff06f          	j	11880 <_Z15ClearConsoleRowv>

00011948 <_Z11EchoConsolePKc>:
   11948:	00054703          	lbu	a4,0(a0)
   1194c:	10070463          	beqz	a4,11a54 <_Z11EchoConsolePKc+0x10c>
   11950:	fd010113          	addi	sp,sp,-48
   11954:	02812423          	sw	s0,40(sp)
   11958:	02912223          	sw	s1,36(sp)
   1195c:	03212023          	sw	s2,32(sp)
   11960:	01312e23          	sw	s3,28(sp)
   11964:	01412c23          	sw	s4,24(sp)
   11968:	01512a23          	sw	s5,20(sp)
   1196c:	01612823          	sw	s6,16(sp)
   11970:	01712623          	sw	s7,12(sp)
   11974:	02112623          	sw	ra,44(sp)
   11978:	00050413          	mv	s0,a0
   1197c:	00006497          	auipc	s1,0x6
   11980:	55848493          	addi	s1,s1,1368 # 17ed4 <_ZL7cursory>
   11984:	00d00a13          	li	s4,13
   11988:	00006997          	auipc	s3,0x6
   1198c:	54898993          	addi	s3,s3,1352 # 17ed0 <_ZL7cursorx>
   11990:	00a00b93          	li	s7,10
   11994:	01f00b13          	li	s6,31
   11998:	4f818a93          	addi	s5,gp,1272 # 17bd0 <_ZL11consoleText>
   1199c:	01700913          	li	s2,23
   119a0:	0004a783          	lw	a5,0(s1)
   119a4:	09470c63          	beq	a4,s4,11a3c <_Z11EchoConsolePKc+0xf4>
   119a8:	0009a683          	lw	a3,0(s3)
   119ac:	09770e63          	beq	a4,s7,11a48 <_Z11EchoConsolePKc+0x100>
   119b0:	00579613          	slli	a2,a5,0x5
   119b4:	00ca8633          	add	a2,s5,a2
   119b8:	00d60633          	add	a2,a2,a3
   119bc:	00168693          	addi	a3,a3,1
   119c0:	00e60023          	sb	a4,0(a2)
   119c4:	00d9a023          	sw	a3,0(s3)
   119c8:	00db5a63          	bge	s6,a3,119dc <_Z11EchoConsolePKc+0x94>
   119cc:	00178793          	addi	a5,a5,1
   119d0:	00006717          	auipc	a4,0x6
   119d4:	50072023          	sw	zero,1280(a4) # 17ed0 <_ZL7cursorx>
   119d8:	00f4a023          	sw	a5,0(s1)
   119dc:	02f94e63          	blt	s2,a5,11a18 <_Z11EchoConsolePKc+0xd0>
   119e0:	00144703          	lbu	a4,1(s0)
   119e4:	00140413          	addi	s0,s0,1
   119e8:	fa071ce3          	bnez	a4,119a0 <_Z11EchoConsolePKc+0x58>
   119ec:	02c12083          	lw	ra,44(sp)
   119f0:	02812403          	lw	s0,40(sp)
   119f4:	02412483          	lw	s1,36(sp)
   119f8:	02012903          	lw	s2,32(sp)
   119fc:	01c12983          	lw	s3,28(sp)
   11a00:	01812a03          	lw	s4,24(sp)
   11a04:	01412a83          	lw	s5,20(sp)
   11a08:	01012b03          	lw	s6,16(sp)
   11a0c:	00c12b83          	lw	s7,12(sp)
   11a10:	03010113          	addi	sp,sp,48
   11a14:	00008067          	ret
   11a18:	00140413          	addi	s0,s0,1
   11a1c:	0124a023          	sw	s2,0(s1)
   11a20:	00006797          	auipc	a5,0x6
   11a24:	4a07a823          	sw	zero,1200(a5) # 17ed0 <_ZL7cursorx>
   11a28:	eadff0ef          	jal	ra,118d4 <_Z13ScrollConsolev>
   11a2c:	00044703          	lbu	a4,0(s0)
   11a30:	fa070ee3          	beqz	a4,119ec <_Z11EchoConsolePKc+0xa4>
   11a34:	0004a783          	lw	a5,0(s1)
   11a38:	f74718e3          	bne	a4,s4,119a8 <_Z11EchoConsolePKc+0x60>
   11a3c:	00006717          	auipc	a4,0x6
   11a40:	48072a23          	sw	zero,1172(a4) # 17ed0 <_ZL7cursorx>
   11a44:	f99ff06f          	j	119dc <_Z11EchoConsolePKc+0x94>
   11a48:	00178793          	addi	a5,a5,1
   11a4c:	00f4a023          	sw	a5,0(s1)
   11a50:	f79ff06f          	j	119c8 <_Z11EchoConsolePKc+0x80>
   11a54:	00008067          	ret

00011a58 <_Z11EchoConsolel>:
   11a58:	00003797          	auipc	a5,0x3
   11a5c:	43478793          	addi	a5,a5,1076 # 14e8c <_ZL4font+0x1800>
   11a60:	00002717          	auipc	a4,0x2
   11a64:	c1470713          	addi	a4,a4,-1004 # 13674 <__errno+0x6c>
   11a68:	0087a603          	lw	a2,8(a5)
   11a6c:	0007a803          	lw	a6,0(a5)
   11a70:	0047a583          	lw	a1,4(a5)
   11a74:	00c7a683          	lw	a3,12(a5)
   11a78:	00072e83          	lw	t4,0(a4)
   11a7c:	0107c783          	lbu	a5,16(a5)
   11a80:	00472e03          	lw	t3,4(a4)
   11a84:	00875303          	lhu	t1,8(a4)
   11a88:	00a74883          	lbu	a7,10(a4)
   11a8c:	fd010113          	addi	sp,sp,-48
   11a90:	00c12a23          	sw	a2,20(sp)
   11a94:	00f10e23          	sb	a5,28(sp)
   11a98:	02112623          	sw	ra,44(sp)
   11a9c:	01d12023          	sw	t4,0(sp)
   11aa0:	01c12223          	sw	t3,4(sp)
   11aa4:	00611423          	sh	t1,8(sp)
   11aa8:	01110523          	sb	a7,10(sp)
   11aac:	01012623          	sw	a6,12(sp)
   11ab0:	00b12823          	sw	a1,16(sp)
   11ab4:	00d12c23          	sw	a3,24(sp)
   11ab8:	02d00613          	li	a2,45
   11abc:	00100793          	li	a5,1
   11ac0:	00054663          	bltz	a0,11acc <_Z11EchoConsolel+0x74>
   11ac4:	02000613          	li	a2,32
   11ac8:	00000793          	li	a5,0
   11acc:	3b9ad6b7          	lui	a3,0x3b9ad
   11ad0:	a0068713          	addi	a4,a3,-1536 # 3b9aca00 <__BSS_END__+0x3b994b28>
   11ad4:	00c10623          	sb	a2,12(sp)
   11ad8:	9ff68693          	addi	a3,a3,-1537
   11adc:	02e55733          	divu	a4,a0,a4
   11ae0:	0ca6e663          	bltu	a3,a0,11bac <_Z11EchoConsolel+0x154>
   11ae4:	05f5e737          	lui	a4,0x5f5e
   11ae8:	10070713          	addi	a4,a4,256 # 5f5e100 <__BSS_END__+0x5f46228>
   11aec:	00a00613          	li	a2,10
   11af0:	02e55733          	divu	a4,a0,a4
   11af4:	02c77733          	remu	a4,a4,a2
   11af8:	0e071263          	bnez	a4,11bdc <_Z11EchoConsolel+0x184>
   11afc:	009896b7          	lui	a3,0x989
   11b00:	68068693          	addi	a3,a3,1664 # 989680 <__BSS_END__+0x9717a8>
   11b04:	02d556b3          	divu	a3,a0,a3
   11b08:	02c6f6b3          	remu	a3,a3,a2
   11b0c:	10069063          	bnez	a3,11c0c <_Z11EchoConsolel+0x1b4>
   11b10:	000f4737          	lui	a4,0xf4
   11b14:	24070713          	addi	a4,a4,576 # f4240 <__BSS_END__+0xdc368>
   11b18:	02e55733          	divu	a4,a0,a4
   11b1c:	02c77733          	remu	a4,a4,a2
   11b20:	10071e63          	bnez	a4,11c3c <_Z11EchoConsolel+0x1e4>
   11b24:	000186b7          	lui	a3,0x18
   11b28:	6a068693          	addi	a3,a3,1696 # 186a0 <__BSS_END__+0x7c8>
   11b2c:	02d556b3          	divu	a3,a0,a3
   11b30:	02c6f6b3          	remu	a3,a3,a2
   11b34:	12069c63          	bnez	a3,11c6c <_Z11EchoConsolel+0x214>
   11b38:	00002737          	lui	a4,0x2
   11b3c:	71070713          	addi	a4,a4,1808 # 2710 <main-0xd964>
   11b40:	02e55733          	divu	a4,a0,a4
   11b44:	02c77733          	remu	a4,a4,a2
   11b48:	14071a63          	bnez	a4,11c9c <_Z11EchoConsolel+0x244>
   11b4c:	3e800693          	li	a3,1000
   11b50:	02d556b3          	divu	a3,a0,a3
   11b54:	02c6f6b3          	remu	a3,a3,a2
   11b58:	16069863          	bnez	a3,11cc8 <_Z11EchoConsolel+0x270>
   11b5c:	06400713          	li	a4,100
   11b60:	02e55733          	divu	a4,a0,a4
   11b64:	02c77733          	remu	a4,a4,a2
   11b68:	18071663          	bnez	a4,11cf4 <_Z11EchoConsolel+0x29c>
   11b6c:	02c55733          	divu	a4,a0,a2
   11b70:	02c77733          	remu	a4,a4,a2
   11b74:	1a071463          	bnez	a4,11d1c <_Z11EchoConsolel+0x2c4>
   11b78:	00a00713          	li	a4,10
   11b7c:	02e57733          	remu	a4,a0,a4
   11b80:	02010693          	addi	a3,sp,32
   11b84:	00f687b3          	add	a5,a3,a5
   11b88:	00c10513          	addi	a0,sp,12
   11b8c:	fe0786a3          	sb	zero,-19(a5)
   11b90:	00e68733          	add	a4,a3,a4
   11b94:	fe074703          	lbu	a4,-32(a4)
   11b98:	fee78623          	sb	a4,-20(a5)
   11b9c:	dadff0ef          	jal	ra,11948 <_Z11EchoConsolePKc>
   11ba0:	02c12083          	lw	ra,44(sp)
   11ba4:	03010113          	addi	sp,sp,48
   11ba8:	00008067          	ret
   11bac:	02010693          	addi	a3,sp,32
   11bb0:	00e68733          	add	a4,a3,a4
   11bb4:	fe074683          	lbu	a3,-32(a4)
   11bb8:	02010713          	addi	a4,sp,32
   11bbc:	00f70733          	add	a4,a4,a5
   11bc0:	fed70623          	sb	a3,-20(a4)
   11bc4:	05f5e737          	lui	a4,0x5f5e
   11bc8:	10070713          	addi	a4,a4,256 # 5f5e100 <__BSS_END__+0x5f46228>
   11bcc:	02e55733          	divu	a4,a0,a4
   11bd0:	00a00693          	li	a3,10
   11bd4:	00178793          	addi	a5,a5,1
   11bd8:	02d77733          	remu	a4,a4,a3
   11bdc:	009896b7          	lui	a3,0x989
   11be0:	68068693          	addi	a3,a3,1664 # 989680 <__BSS_END__+0x9717a8>
   11be4:	02010613          	addi	a2,sp,32
   11be8:	00e60733          	add	a4,a2,a4
   11bec:	fe074603          	lbu	a2,-32(a4)
   11bf0:	02010713          	addi	a4,sp,32
   11bf4:	00f70733          	add	a4,a4,a5
   11bf8:	fec70623          	sb	a2,-20(a4)
   11bfc:	00a00713          	li	a4,10
   11c00:	00178793          	addi	a5,a5,1
   11c04:	02d556b3          	divu	a3,a0,a3
   11c08:	02e6f6b3          	remu	a3,a3,a4
   11c0c:	000f4737          	lui	a4,0xf4
   11c10:	24070713          	addi	a4,a4,576 # f4240 <__BSS_END__+0xdc368>
   11c14:	02010613          	addi	a2,sp,32
   11c18:	00d606b3          	add	a3,a2,a3
   11c1c:	fe06c603          	lbu	a2,-32(a3)
   11c20:	02010693          	addi	a3,sp,32
   11c24:	00f686b3          	add	a3,a3,a5
   11c28:	fec68623          	sb	a2,-20(a3)
   11c2c:	00a00693          	li	a3,10
   11c30:	00178793          	addi	a5,a5,1
   11c34:	02e55733          	divu	a4,a0,a4
   11c38:	02d77733          	remu	a4,a4,a3
   11c3c:	000186b7          	lui	a3,0x18
   11c40:	6a068693          	addi	a3,a3,1696 # 186a0 <__BSS_END__+0x7c8>
   11c44:	02010613          	addi	a2,sp,32
   11c48:	00e60733          	add	a4,a2,a4
   11c4c:	fe074603          	lbu	a2,-32(a4)
   11c50:	02010713          	addi	a4,sp,32
   11c54:	00f70733          	add	a4,a4,a5
   11c58:	fec70623          	sb	a2,-20(a4)
   11c5c:	00a00713          	li	a4,10
   11c60:	00178793          	addi	a5,a5,1
   11c64:	02d556b3          	divu	a3,a0,a3
   11c68:	02e6f6b3          	remu	a3,a3,a4
   11c6c:	00002737          	lui	a4,0x2
   11c70:	71070713          	addi	a4,a4,1808 # 2710 <main-0xd964>
   11c74:	02010613          	addi	a2,sp,32
   11c78:	00d606b3          	add	a3,a2,a3
   11c7c:	fe06c603          	lbu	a2,-32(a3)
   11c80:	02010693          	addi	a3,sp,32
   11c84:	00f686b3          	add	a3,a3,a5
   11c88:	fec68623          	sb	a2,-20(a3)
   11c8c:	00a00693          	li	a3,10
   11c90:	00178793          	addi	a5,a5,1
   11c94:	02e55733          	divu	a4,a0,a4
   11c98:	02d77733          	remu	a4,a4,a3
   11c9c:	3e800693          	li	a3,1000
   11ca0:	02010613          	addi	a2,sp,32
   11ca4:	00e60733          	add	a4,a2,a4
   11ca8:	fe074603          	lbu	a2,-32(a4)
   11cac:	02010713          	addi	a4,sp,32
   11cb0:	00f70733          	add	a4,a4,a5
   11cb4:	fec70623          	sb	a2,-20(a4)
   11cb8:	00a00713          	li	a4,10
   11cbc:	00178793          	addi	a5,a5,1
   11cc0:	02d556b3          	divu	a3,a0,a3
   11cc4:	02e6f6b3          	remu	a3,a3,a4
   11cc8:	06400713          	li	a4,100
   11ccc:	02010613          	addi	a2,sp,32
   11cd0:	00d606b3          	add	a3,a2,a3
   11cd4:	fe06c603          	lbu	a2,-32(a3)
   11cd8:	02010693          	addi	a3,sp,32
   11cdc:	00f686b3          	add	a3,a3,a5
   11ce0:	fec68623          	sb	a2,-20(a3)
   11ce4:	00a00693          	li	a3,10
   11ce8:	00178793          	addi	a5,a5,1
   11cec:	02e55733          	divu	a4,a0,a4
   11cf0:	02d77733          	remu	a4,a4,a3
   11cf4:	00a00613          	li	a2,10
   11cf8:	02010593          	addi	a1,sp,32
   11cfc:	00e58733          	add	a4,a1,a4
   11d00:	fe074583          	lbu	a1,-32(a4)
   11d04:	02010713          	addi	a4,sp,32
   11d08:	00f70733          	add	a4,a4,a5
   11d0c:	feb70623          	sb	a1,-20(a4)
   11d10:	00178793          	addi	a5,a5,1
   11d14:	02c556b3          	divu	a3,a0,a2
   11d18:	02c6f733          	remu	a4,a3,a2
   11d1c:	02010693          	addi	a3,sp,32
   11d20:	00e68733          	add	a4,a3,a4
   11d24:	fe074683          	lbu	a3,-32(a4)
   11d28:	02010713          	addi	a4,sp,32
   11d2c:	00f70733          	add	a4,a4,a5
   11d30:	fed70623          	sb	a3,-20(a4)
   11d34:	00178793          	addi	a5,a5,1
   11d38:	e41ff06f          	j	11b78 <_Z11EchoConsolel+0x120>

00011d3c <_Z11DrawConsolev>:
   11d3c:	ff010113          	addi	sp,sp,-16
   11d40:	00812423          	sw	s0,8(sp)
   11d44:	00912223          	sw	s1,4(sp)
   11d48:	01212023          	sw	s2,0(sp)
   11d4c:	00112623          	sw	ra,12(sp)
   11d50:	4f818413          	addi	s0,gp,1272 # 17bd0 <_ZL11consoleText>
   11d54:	00006917          	auipc	s2,0x6
   11d58:	17c90913          	addi	s2,s2,380 # 17ed0 <_ZL7cursorx>
   11d5c:	00000493          	li	s1,0
   11d60:	00040693          	mv	a3,s0
   11d64:	00048593          	mv	a1,s1
   11d68:	00100713          	li	a4,1
   11d6c:	02000613          	li	a2,32
   11d70:	00000513          	li	a0,0
   11d74:	02040413          	addi	s0,s0,32
   11d78:	958ff0ef          	jal	ra,10ed0 <_Z8PrintDMAiiiPKcb>
   11d7c:	00848493          	addi	s1,s1,8
   11d80:	ff2410e3          	bne	s0,s2,11d60 <_Z11DrawConsolev+0x24>
   11d84:	00c12083          	lw	ra,12(sp)
   11d88:	00812403          	lw	s0,8(sp)
   11d8c:	00412483          	lw	s1,4(sp)
   11d90:	00012903          	lw	s2,0(sp)
   11d94:	01010113          	addi	sp,sp,16
   11d98:	00008067          	ret

00011d9c <__udivdi3>:
   11d9c:	00050893          	mv	a7,a0
   11da0:	00058793          	mv	a5,a1
   11da4:	00060813          	mv	a6,a2
   11da8:	00068513          	mv	a0,a3
   11dac:	00088313          	mv	t1,a7
   11db0:	28069463          	bnez	a3,12038 <__udivdi3+0x29c>
   11db4:	000156b7          	lui	a3,0x15
   11db8:	ea068693          	addi	a3,a3,-352 # 14ea0 <__clz_tab>
   11dbc:	0ec5f663          	bgeu	a1,a2,11ea8 <__udivdi3+0x10c>
   11dc0:	00010737          	lui	a4,0x10
   11dc4:	0ce67863          	bgeu	a2,a4,11e94 <__udivdi3+0xf8>
   11dc8:	0ff00713          	li	a4,255
   11dcc:	00c73733          	sltu	a4,a4,a2
   11dd0:	00371713          	slli	a4,a4,0x3
   11dd4:	00e65533          	srl	a0,a2,a4
   11dd8:	00a686b3          	add	a3,a3,a0
   11ddc:	0006c683          	lbu	a3,0(a3)
   11de0:	02000513          	li	a0,32
   11de4:	00e68733          	add	a4,a3,a4
   11de8:	40e506b3          	sub	a3,a0,a4
   11dec:	00e50c63          	beq	a0,a4,11e04 <__udivdi3+0x68>
   11df0:	00d795b3          	sll	a1,a5,a3
   11df4:	00e8d733          	srl	a4,a7,a4
   11df8:	00d61833          	sll	a6,a2,a3
   11dfc:	00b765b3          	or	a1,a4,a1
   11e00:	00d89333          	sll	t1,a7,a3
   11e04:	01085893          	srli	a7,a6,0x10
   11e08:	0315d6b3          	divu	a3,a1,a7
   11e0c:	01081613          	slli	a2,a6,0x10
   11e10:	01065613          	srli	a2,a2,0x10
   11e14:	01035793          	srli	a5,t1,0x10
   11e18:	0315f733          	remu	a4,a1,a7
   11e1c:	00068513          	mv	a0,a3
   11e20:	02d605b3          	mul	a1,a2,a3
   11e24:	01071713          	slli	a4,a4,0x10
   11e28:	00f767b3          	or	a5,a4,a5
   11e2c:	00b7fe63          	bgeu	a5,a1,11e48 <__udivdi3+0xac>
   11e30:	010787b3          	add	a5,a5,a6
   11e34:	fff68513          	addi	a0,a3,-1
   11e38:	0107e863          	bltu	a5,a6,11e48 <__udivdi3+0xac>
   11e3c:	00b7f663          	bgeu	a5,a1,11e48 <__udivdi3+0xac>
   11e40:	ffe68513          	addi	a0,a3,-2
   11e44:	010787b3          	add	a5,a5,a6
   11e48:	40b787b3          	sub	a5,a5,a1
   11e4c:	0317f733          	remu	a4,a5,a7
   11e50:	01031313          	slli	t1,t1,0x10
   11e54:	01035313          	srli	t1,t1,0x10
   11e58:	0317d7b3          	divu	a5,a5,a7
   11e5c:	01071713          	slli	a4,a4,0x10
   11e60:	00676333          	or	t1,a4,t1
   11e64:	02f606b3          	mul	a3,a2,a5
   11e68:	00078613          	mv	a2,a5
   11e6c:	00d37c63          	bgeu	t1,a3,11e84 <__udivdi3+0xe8>
   11e70:	00680333          	add	t1,a6,t1
   11e74:	fff78613          	addi	a2,a5,-1
   11e78:	01036663          	bltu	t1,a6,11e84 <__udivdi3+0xe8>
   11e7c:	00d37463          	bgeu	t1,a3,11e84 <__udivdi3+0xe8>
   11e80:	ffe78613          	addi	a2,a5,-2
   11e84:	01051513          	slli	a0,a0,0x10
   11e88:	00c56533          	or	a0,a0,a2
   11e8c:	00000593          	li	a1,0
   11e90:	0e40006f          	j	11f74 <__udivdi3+0x1d8>
   11e94:	01000537          	lui	a0,0x1000
   11e98:	01000713          	li	a4,16
   11e9c:	f2a66ce3          	bltu	a2,a0,11dd4 <__udivdi3+0x38>
   11ea0:	01800713          	li	a4,24
   11ea4:	f31ff06f          	j	11dd4 <__udivdi3+0x38>
   11ea8:	00061663          	bnez	a2,11eb4 <__udivdi3+0x118>
   11eac:	00100713          	li	a4,1
   11eb0:	02c75833          	divu	a6,a4,a2
   11eb4:	00010737          	lui	a4,0x10
   11eb8:	0ce87063          	bgeu	a6,a4,11f78 <__udivdi3+0x1dc>
   11ebc:	0ff00713          	li	a4,255
   11ec0:	01077463          	bgeu	a4,a6,11ec8 <__udivdi3+0x12c>
   11ec4:	00800513          	li	a0,8
   11ec8:	00a85733          	srl	a4,a6,a0
   11ecc:	00e686b3          	add	a3,a3,a4
   11ed0:	0006c703          	lbu	a4,0(a3)
   11ed4:	02000613          	li	a2,32
   11ed8:	00a70733          	add	a4,a4,a0
   11edc:	40e606b3          	sub	a3,a2,a4
   11ee0:	0ae61663          	bne	a2,a4,11f8c <__udivdi3+0x1f0>
   11ee4:	410787b3          	sub	a5,a5,a6
   11ee8:	00100593          	li	a1,1
   11eec:	01085893          	srli	a7,a6,0x10
   11ef0:	01081613          	slli	a2,a6,0x10
   11ef4:	01065613          	srli	a2,a2,0x10
   11ef8:	01035713          	srli	a4,t1,0x10
   11efc:	0317f6b3          	remu	a3,a5,a7
   11f00:	0317d7b3          	divu	a5,a5,a7
   11f04:	01069693          	slli	a3,a3,0x10
   11f08:	00e6e733          	or	a4,a3,a4
   11f0c:	02f60e33          	mul	t3,a2,a5
   11f10:	00078513          	mv	a0,a5
   11f14:	01c77e63          	bgeu	a4,t3,11f30 <__udivdi3+0x194>
   11f18:	01070733          	add	a4,a4,a6
   11f1c:	fff78513          	addi	a0,a5,-1
   11f20:	01076863          	bltu	a4,a6,11f30 <__udivdi3+0x194>
   11f24:	01c77663          	bgeu	a4,t3,11f30 <__udivdi3+0x194>
   11f28:	ffe78513          	addi	a0,a5,-2
   11f2c:	01070733          	add	a4,a4,a6
   11f30:	41c70733          	sub	a4,a4,t3
   11f34:	031777b3          	remu	a5,a4,a7
   11f38:	01031313          	slli	t1,t1,0x10
   11f3c:	01035313          	srli	t1,t1,0x10
   11f40:	03175733          	divu	a4,a4,a7
   11f44:	01079793          	slli	a5,a5,0x10
   11f48:	0067e333          	or	t1,a5,t1
   11f4c:	02e606b3          	mul	a3,a2,a4
   11f50:	00070613          	mv	a2,a4
   11f54:	00d37c63          	bgeu	t1,a3,11f6c <__udivdi3+0x1d0>
   11f58:	00680333          	add	t1,a6,t1
   11f5c:	fff70613          	addi	a2,a4,-1 # ffff <main-0x75>
   11f60:	01036663          	bltu	t1,a6,11f6c <__udivdi3+0x1d0>
   11f64:	00d37463          	bgeu	t1,a3,11f6c <__udivdi3+0x1d0>
   11f68:	ffe70613          	addi	a2,a4,-2
   11f6c:	01051513          	slli	a0,a0,0x10
   11f70:	00c56533          	or	a0,a0,a2
   11f74:	00008067          	ret
   11f78:	01000737          	lui	a4,0x1000
   11f7c:	01000513          	li	a0,16
   11f80:	f4e864e3          	bltu	a6,a4,11ec8 <__udivdi3+0x12c>
   11f84:	01800513          	li	a0,24
   11f88:	f41ff06f          	j	11ec8 <__udivdi3+0x12c>
   11f8c:	00d81833          	sll	a6,a6,a3
   11f90:	00e7d533          	srl	a0,a5,a4
   11f94:	00d89333          	sll	t1,a7,a3
   11f98:	00d797b3          	sll	a5,a5,a3
   11f9c:	00e8d733          	srl	a4,a7,a4
   11fa0:	01085893          	srli	a7,a6,0x10
   11fa4:	00f76633          	or	a2,a4,a5
   11fa8:	03157733          	remu	a4,a0,a7
   11fac:	01081793          	slli	a5,a6,0x10
   11fb0:	0107d793          	srli	a5,a5,0x10
   11fb4:	01065593          	srli	a1,a2,0x10
   11fb8:	03155533          	divu	a0,a0,a7
   11fbc:	01071713          	slli	a4,a4,0x10
   11fc0:	00b76733          	or	a4,a4,a1
   11fc4:	02a786b3          	mul	a3,a5,a0
   11fc8:	00050593          	mv	a1,a0
   11fcc:	00d77e63          	bgeu	a4,a3,11fe8 <__udivdi3+0x24c>
   11fd0:	01070733          	add	a4,a4,a6
   11fd4:	fff50593          	addi	a1,a0,-1 # ffffff <__BSS_END__+0xfe8127>
   11fd8:	01076863          	bltu	a4,a6,11fe8 <__udivdi3+0x24c>
   11fdc:	00d77663          	bgeu	a4,a3,11fe8 <__udivdi3+0x24c>
   11fe0:	ffe50593          	addi	a1,a0,-2
   11fe4:	01070733          	add	a4,a4,a6
   11fe8:	40d706b3          	sub	a3,a4,a3
   11fec:	0316f733          	remu	a4,a3,a7
   11ff0:	01061613          	slli	a2,a2,0x10
   11ff4:	01065613          	srli	a2,a2,0x10
   11ff8:	0316d6b3          	divu	a3,a3,a7
   11ffc:	01071713          	slli	a4,a4,0x10
   12000:	02d78533          	mul	a0,a5,a3
   12004:	00c767b3          	or	a5,a4,a2
   12008:	00068713          	mv	a4,a3
   1200c:	00a7fe63          	bgeu	a5,a0,12028 <__udivdi3+0x28c>
   12010:	010787b3          	add	a5,a5,a6
   12014:	fff68713          	addi	a4,a3,-1
   12018:	0107e863          	bltu	a5,a6,12028 <__udivdi3+0x28c>
   1201c:	00a7f663          	bgeu	a5,a0,12028 <__udivdi3+0x28c>
   12020:	ffe68713          	addi	a4,a3,-2
   12024:	010787b3          	add	a5,a5,a6
   12028:	01059593          	slli	a1,a1,0x10
   1202c:	40a787b3          	sub	a5,a5,a0
   12030:	00e5e5b3          	or	a1,a1,a4
   12034:	eb9ff06f          	j	11eec <__udivdi3+0x150>
   12038:	18d5e663          	bltu	a1,a3,121c4 <__udivdi3+0x428>
   1203c:	00010737          	lui	a4,0x10
   12040:	04e6f463          	bgeu	a3,a4,12088 <__udivdi3+0x2ec>
   12044:	0ff00713          	li	a4,255
   12048:	00d735b3          	sltu	a1,a4,a3
   1204c:	00359593          	slli	a1,a1,0x3
   12050:	00015737          	lui	a4,0x15
   12054:	00b6d533          	srl	a0,a3,a1
   12058:	ea070713          	addi	a4,a4,-352 # 14ea0 <__clz_tab>
   1205c:	00a70733          	add	a4,a4,a0
   12060:	00074703          	lbu	a4,0(a4)
   12064:	02000513          	li	a0,32
   12068:	00b70733          	add	a4,a4,a1
   1206c:	40e505b3          	sub	a1,a0,a4
   12070:	02e51663          	bne	a0,a4,1209c <__udivdi3+0x300>
   12074:	00100513          	li	a0,1
   12078:	eef6eee3          	bltu	a3,a5,11f74 <__udivdi3+0x1d8>
   1207c:	00c8b533          	sltu	a0,a7,a2
   12080:	00154513          	xori	a0,a0,1
   12084:	ef1ff06f          	j	11f74 <__udivdi3+0x1d8>
   12088:	01000737          	lui	a4,0x1000
   1208c:	01000593          	li	a1,16
   12090:	fce6e0e3          	bltu	a3,a4,12050 <__udivdi3+0x2b4>
   12094:	01800593          	li	a1,24
   12098:	fb9ff06f          	j	12050 <__udivdi3+0x2b4>
   1209c:	00e65833          	srl	a6,a2,a4
   120a0:	00b696b3          	sll	a3,a3,a1
   120a4:	00d86833          	or	a6,a6,a3
   120a8:	00e7de33          	srl	t3,a5,a4
   120ac:	01085e93          	srli	t4,a6,0x10
   120b0:	03de76b3          	remu	a3,t3,t4
   120b4:	00b797b3          	sll	a5,a5,a1
   120b8:	00e8d733          	srl	a4,a7,a4
   120bc:	00b61333          	sll	t1,a2,a1
   120c0:	00f76633          	or	a2,a4,a5
   120c4:	01081793          	slli	a5,a6,0x10
   120c8:	0107d793          	srli	a5,a5,0x10
   120cc:	01065713          	srli	a4,a2,0x10
   120d0:	03de5e33          	divu	t3,t3,t4
   120d4:	01069693          	slli	a3,a3,0x10
   120d8:	00e6e733          	or	a4,a3,a4
   120dc:	03c78f33          	mul	t5,a5,t3
   120e0:	000e0513          	mv	a0,t3
   120e4:	01e77e63          	bgeu	a4,t5,12100 <__udivdi3+0x364>
   120e8:	01070733          	add	a4,a4,a6
   120ec:	fffe0513          	addi	a0,t3,-1
   120f0:	01076863          	bltu	a4,a6,12100 <__udivdi3+0x364>
   120f4:	01e77663          	bgeu	a4,t5,12100 <__udivdi3+0x364>
   120f8:	ffee0513          	addi	a0,t3,-2
   120fc:	01070733          	add	a4,a4,a6
   12100:	41e70733          	sub	a4,a4,t5
   12104:	03d776b3          	remu	a3,a4,t4
   12108:	03d75733          	divu	a4,a4,t4
   1210c:	01069693          	slli	a3,a3,0x10
   12110:	02e78e33          	mul	t3,a5,a4
   12114:	01061793          	slli	a5,a2,0x10
   12118:	0107d793          	srli	a5,a5,0x10
   1211c:	00f6e7b3          	or	a5,a3,a5
   12120:	00070613          	mv	a2,a4
   12124:	01c7fe63          	bgeu	a5,t3,12140 <__udivdi3+0x3a4>
   12128:	010787b3          	add	a5,a5,a6
   1212c:	fff70613          	addi	a2,a4,-1 # ffffff <__BSS_END__+0xfe8127>
   12130:	0107e863          	bltu	a5,a6,12140 <__udivdi3+0x3a4>
   12134:	01c7f663          	bgeu	a5,t3,12140 <__udivdi3+0x3a4>
   12138:	ffe70613          	addi	a2,a4,-2
   1213c:	010787b3          	add	a5,a5,a6
   12140:	01051513          	slli	a0,a0,0x10
   12144:	00010eb7          	lui	t4,0x10
   12148:	00c56533          	or	a0,a0,a2
   1214c:	fffe8693          	addi	a3,t4,-1 # ffff <main-0x75>
   12150:	00d57833          	and	a6,a0,a3
   12154:	01055613          	srli	a2,a0,0x10
   12158:	00d376b3          	and	a3,t1,a3
   1215c:	01035313          	srli	t1,t1,0x10
   12160:	41c787b3          	sub	a5,a5,t3
   12164:	02d80e33          	mul	t3,a6,a3
   12168:	02d606b3          	mul	a3,a2,a3
   1216c:	010e5713          	srli	a4,t3,0x10
   12170:	02680833          	mul	a6,a6,t1
   12174:	00d80833          	add	a6,a6,a3
   12178:	01070733          	add	a4,a4,a6
   1217c:	02660633          	mul	a2,a2,t1
   12180:	00d77463          	bgeu	a4,a3,12188 <__udivdi3+0x3ec>
   12184:	01d60633          	add	a2,a2,t4
   12188:	01075693          	srli	a3,a4,0x10
   1218c:	00c68633          	add	a2,a3,a2
   12190:	02c7e663          	bltu	a5,a2,121bc <__udivdi3+0x420>
   12194:	cec79ce3          	bne	a5,a2,11e8c <__udivdi3+0xf0>
   12198:	000107b7          	lui	a5,0x10
   1219c:	fff78793          	addi	a5,a5,-1 # ffff <main-0x75>
   121a0:	00f77733          	and	a4,a4,a5
   121a4:	01071713          	slli	a4,a4,0x10
   121a8:	00fe7e33          	and	t3,t3,a5
   121ac:	00b898b3          	sll	a7,a7,a1
   121b0:	01c70733          	add	a4,a4,t3
   121b4:	00000593          	li	a1,0
   121b8:	dae8fee3          	bgeu	a7,a4,11f74 <__udivdi3+0x1d8>
   121bc:	fff50513          	addi	a0,a0,-1
   121c0:	ccdff06f          	j	11e8c <__udivdi3+0xf0>
   121c4:	00000593          	li	a1,0
   121c8:	00000513          	li	a0,0
   121cc:	da9ff06f          	j	11f74 <__udivdi3+0x1d8>

000121d0 <cosf>:
   121d0:	e00507d3          	fmv.x.w	a5,fa0
   121d4:	3f4916b7          	lui	a3,0x3f491
   121d8:	fd868693          	addi	a3,a3,-40 # 3f490fd8 <__BSS_END__+0x3f479100>
   121dc:	00179713          	slli	a4,a5,0x1
   121e0:	00175713          	srli	a4,a4,0x1
   121e4:	04e6dc63          	bge	a3,a4,1223c <cosf+0x6c>
   121e8:	7f8006b7          	lui	a3,0x7f800
   121ec:	00d74663          	blt	a4,a3,121f8 <cosf+0x28>
   121f0:	08a57553          	fsub.s	fa0,fa0,fa0
   121f4:	00008067          	ret
   121f8:	fe010113          	addi	sp,sp,-32
   121fc:	00810513          	addi	a0,sp,8
   12200:	00112e23          	sw	ra,28(sp)
   12204:	110000ef          	jal	ra,12314 <__ieee754_rem_pio2f>
   12208:	00357513          	andi	a0,a0,3
   1220c:	00100793          	li	a5,1
   12210:	02f50a63          	beq	a0,a5,12244 <cosf+0x74>
   12214:	00200793          	li	a5,2
   12218:	00c12587          	flw	fa1,12(sp)
   1221c:	00812507          	flw	fa0,8(sp)
   12220:	04f50263          	beq	a0,a5,12264 <cosf+0x94>
   12224:	02050c63          	beqz	a0,1225c <cosf+0x8c>
   12228:	00100513          	li	a0,1
   1222c:	571000ef          	jal	ra,12f9c <__kernel_sinf>
   12230:	01c12083          	lw	ra,28(sp)
   12234:	02010113          	addi	sp,sp,32
   12238:	00008067          	ret
   1223c:	f00005d3          	fmv.w.x	fa1,zero
   12240:	3a40006f          	j	125e4 <__kernel_cosf>
   12244:	00c12587          	flw	fa1,12(sp)
   12248:	00812507          	flw	fa0,8(sp)
   1224c:	00100513          	li	a0,1
   12250:	54d000ef          	jal	ra,12f9c <__kernel_sinf>
   12254:	20a51553          	fneg.s	fa0,fa0
   12258:	fd9ff06f          	j	12230 <cosf+0x60>
   1225c:	388000ef          	jal	ra,125e4 <__kernel_cosf>
   12260:	fd1ff06f          	j	12230 <cosf+0x60>
   12264:	380000ef          	jal	ra,125e4 <__kernel_cosf>
   12268:	20a51553          	fneg.s	fa0,fa0
   1226c:	fc5ff06f          	j	12230 <cosf+0x60>

00012270 <sinf>:
   12270:	e00507d3          	fmv.x.w	a5,fa0
   12274:	3f4916b7          	lui	a3,0x3f491
   12278:	fd868693          	addi	a3,a3,-40 # 3f490fd8 <__BSS_END__+0x3f479100>
   1227c:	00179713          	slli	a4,a5,0x1
   12280:	00175713          	srli	a4,a4,0x1
   12284:	04e6dc63          	bge	a3,a4,122dc <sinf+0x6c>
   12288:	7f8006b7          	lui	a3,0x7f800
   1228c:	00d74663          	blt	a4,a3,12298 <sinf+0x28>
   12290:	08a57553          	fsub.s	fa0,fa0,fa0
   12294:	00008067          	ret
   12298:	fe010113          	addi	sp,sp,-32
   1229c:	00810513          	addi	a0,sp,8
   122a0:	00112e23          	sw	ra,28(sp)
   122a4:	070000ef          	jal	ra,12314 <__ieee754_rem_pio2f>
   122a8:	00357513          	andi	a0,a0,3
   122ac:	00100793          	li	a5,1
   122b0:	02f50c63          	beq	a0,a5,122e8 <sinf+0x78>
   122b4:	00200793          	li	a5,2
   122b8:	00c12587          	flw	fa1,12(sp)
   122bc:	00812507          	flw	fa0,8(sp)
   122c0:	04f50263          	beq	a0,a5,12304 <sinf+0x94>
   122c4:	02050a63          	beqz	a0,122f8 <sinf+0x88>
   122c8:	31c000ef          	jal	ra,125e4 <__kernel_cosf>
   122cc:	20a51553          	fneg.s	fa0,fa0
   122d0:	01c12083          	lw	ra,28(sp)
   122d4:	02010113          	addi	sp,sp,32
   122d8:	00008067          	ret
   122dc:	f00005d3          	fmv.w.x	fa1,zero
   122e0:	00000513          	li	a0,0
   122e4:	4b90006f          	j	12f9c <__kernel_sinf>
   122e8:	00c12587          	flw	fa1,12(sp)
   122ec:	00812507          	flw	fa0,8(sp)
   122f0:	2f4000ef          	jal	ra,125e4 <__kernel_cosf>
   122f4:	fddff06f          	j	122d0 <sinf+0x60>
   122f8:	00100513          	li	a0,1
   122fc:	4a1000ef          	jal	ra,12f9c <__kernel_sinf>
   12300:	fd1ff06f          	j	122d0 <sinf+0x60>
   12304:	00100513          	li	a0,1
   12308:	495000ef          	jal	ra,12f9c <__kernel_sinf>
   1230c:	20a51553          	fneg.s	fa0,fa0
   12310:	fc1ff06f          	j	122d0 <sinf+0x60>

00012314 <__ieee754_rem_pio2f>:
   12314:	e00507d3          	fmv.x.w	a5,fa0
   12318:	fe010113          	addi	sp,sp,-32
   1231c:	00812c23          	sw	s0,24(sp)
   12320:	3f491737          	lui	a4,0x3f491
   12324:	00179413          	slli	s0,a5,0x1
   12328:	00912a23          	sw	s1,20(sp)
   1232c:	00112e23          	sw	ra,28(sp)
   12330:	01212823          	sw	s2,16(sp)
   12334:	fd870713          	addi	a4,a4,-40 # 3f490fd8 <__BSS_END__+0x3f479100>
   12338:	00145413          	srli	s0,s0,0x1
   1233c:	00050493          	mv	s1,a0
   12340:	10875c63          	bge	a4,s0,12458 <__ieee754_rem_pio2f+0x144>
   12344:	4016d737          	lui	a4,0x4016d
   12348:	be370713          	addi	a4,a4,-1053 # 4016cbe3 <__BSS_END__+0x40154d0b>
   1234c:	00078913          	mv	s2,a5
   12350:	04874a63          	blt	a4,s0,123a4 <__ieee754_rem_pio2f+0x90>
   12354:	3fc91737          	lui	a4,0x3fc91
   12358:	4441a787          	flw	fa5,1092(gp) # 17b1c <__SDATA_BEGIN__>
   1235c:	ff047413          	andi	s0,s0,-16
   12360:	fd070713          	addi	a4,a4,-48 # 3fc90fd0 <__BSS_END__+0x3fc790f8>
   12364:	24f05463          	blez	a5,125ac <__ieee754_rem_pio2f+0x298>
   12368:	08f577d3          	fsub.s	fa5,fa0,fa5
   1236c:	12e40263          	beq	s0,a4,12490 <__ieee754_rem_pio2f+0x17c>
   12370:	4481a707          	flw	fa4,1096(gp) # 17b20 <__SDATA_BEGIN__+0x4>
   12374:	08e7f6d3          	fsub.s	fa3,fa5,fa4
   12378:	00100513          	li	a0,1
   1237c:	08d7f7d3          	fsub.s	fa5,fa5,fa3
   12380:	00d4a027          	fsw	fa3,0(s1)
   12384:	08e7f7d3          	fsub.s	fa5,fa5,fa4
   12388:	00f4a227          	fsw	fa5,4(s1)
   1238c:	01c12083          	lw	ra,28(sp)
   12390:	01812403          	lw	s0,24(sp)
   12394:	01412483          	lw	s1,20(sp)
   12398:	01012903          	lw	s2,16(sp)
   1239c:	02010113          	addi	sp,sp,32
   123a0:	00008067          	ret
   123a4:	43491737          	lui	a4,0x43491
   123a8:	f8070713          	addi	a4,a4,-128 # 43490f80 <__BSS_END__+0x434790a8>
   123ac:	0e875a63          	bge	a4,s0,124a0 <__ieee754_rem_pio2f+0x18c>
   123b0:	7f800737          	lui	a4,0x7f800
   123b4:	0ce45463          	bge	s0,a4,1247c <__ieee754_rem_pio2f+0x168>
   123b8:	41745613          	srai	a2,s0,0x17
   123bc:	f7a60613          	addi	a2,a2,-134
   123c0:	01761793          	slli	a5,a2,0x17
   123c4:	40f40433          	sub	s0,s0,a5
   123c8:	f00407d3          	fmv.w.x	fa5,s0
   123cc:	f0040753          	fmv.w.x	fa4,s0
   123d0:	c00797d3          	fcvt.w.s	a5,fa5,rtz
   123d4:	4641a687          	flw	fa3,1124(gp) # 17b3c <__SDATA_BEGIN__+0x20>
   123d8:	f0000653          	fmv.w.x	fa2,zero
   123dc:	d007f7d3          	fcvt.s.w	fa5,a5
   123e0:	00300693          	li	a3,3
   123e4:	08f77753          	fsub.s	fa4,fa4,fa5
   123e8:	00f12227          	fsw	fa5,4(sp)
   123ec:	10d777d3          	fmul.s	fa5,fa4,fa3
   123f0:	c00797d3          	fcvt.w.s	a5,fa5,rtz
   123f4:	d007f753          	fcvt.s.w	fa4,a5
   123f8:	08e7f7d3          	fsub.s	fa5,fa5,fa4
   123fc:	00e12427          	fsw	fa4,8(sp)
   12400:	10d7f7d3          	fmul.s	fa5,fa5,fa3
   12404:	a0c7a7d3          	feq.s	a5,fa5,fa2
   12408:	00f12627          	fsw	fa5,12(sp)
   1240c:	00078863          	beqz	a5,1241c <__ieee754_rem_pio2f+0x108>
   12410:	a0c726d3          	feq.s	a3,fa4,fa2
   12414:	0016b693          	seqz	a3,a3
   12418:	00168693          	addi	a3,a3,1 # 7f800001 <__BSS_END__+0x7f7e8129>
   1241c:	000157b7          	lui	a5,0x15
   12420:	02078793          	addi	a5,a5,32 # 15020 <two_over_pi>
   12424:	00200713          	li	a4,2
   12428:	00048593          	mv	a1,s1
   1242c:	00410513          	addi	a0,sp,4
   12430:	2b4000ef          	jal	ra,126e4 <__kernel_rem_pio2f>
   12434:	f4095ce3          	bgez	s2,1238c <__ieee754_rem_pio2f+0x78>
   12438:	0004a707          	flw	fa4,0(s1)
   1243c:	0044a787          	flw	fa5,4(s1)
   12440:	40a00533          	neg	a0,a0
   12444:	20e71753          	fneg.s	fa4,fa4
   12448:	20f797d3          	fneg.s	fa5,fa5
   1244c:	00e4a027          	fsw	fa4,0(s1)
   12450:	00f4a227          	fsw	fa5,4(s1)
   12454:	f39ff06f          	j	1238c <__ieee754_rem_pio2f+0x78>
   12458:	01c12083          	lw	ra,28(sp)
   1245c:	01812403          	lw	s0,24(sp)
   12460:	00a4a027          	fsw	fa0,0(s1)
   12464:	00052223          	sw	zero,4(a0)
   12468:	01412483          	lw	s1,20(sp)
   1246c:	01012903          	lw	s2,16(sp)
   12470:	00000513          	li	a0,0
   12474:	02010113          	addi	sp,sp,32
   12478:	00008067          	ret
   1247c:	08a577d3          	fsub.s	fa5,fa0,fa0
   12480:	00000513          	li	a0,0
   12484:	00f4a227          	fsw	fa5,4(s1)
   12488:	00f4a027          	fsw	fa5,0(s1)
   1248c:	f01ff06f          	j	1238c <__ieee754_rem_pio2f+0x78>
   12490:	4501a707          	flw	fa4,1104(gp) # 17b28 <__SDATA_BEGIN__+0xc>
   12494:	44c1a687          	flw	fa3,1100(gp) # 17b24 <__SDATA_BEGIN__+0x8>
   12498:	08d7f7d3          	fsub.s	fa5,fa5,fa3
   1249c:	ed9ff06f          	j	12374 <__ieee754_rem_pio2f+0x60>
   124a0:	389000ef          	jal	ra,13028 <fabsf>
   124a4:	4541a787          	flw	fa5,1108(gp) # 17b2c <__SDATA_BEGIN__+0x10>
   124a8:	4581a707          	flw	fa4,1112(gp) # 17b30 <__SDATA_BEGIN__+0x14>
   124ac:	01f00793          	li	a5,31
   124b0:	70f577c3          	fmadd.s	fa5,fa0,fa5,fa4
   124b4:	c0079553          	fcvt.w.s	a0,fa5,rtz
   124b8:	4441a787          	flw	fa5,1092(gp) # 17b1c <__SDATA_BEGIN__>
   124bc:	d0057753          	fcvt.s.w	fa4,a0
   124c0:	50f7754b          	fnmsub.s	fa0,fa4,fa5,fa0
   124c4:	4481a787          	flw	fa5,1096(gp) # 17b20 <__SDATA_BEGIN__+0x4>
   124c8:	10f777d3          	fmul.s	fa5,fa4,fa5
   124cc:	04a7ce63          	blt	a5,a0,12528 <__ieee754_rem_pio2f+0x214>
   124d0:	fff50793          	addi	a5,a0,-1
   124d4:	00279713          	slli	a4,a5,0x2
   124d8:	000157b7          	lui	a5,0x15
   124dc:	08f576d3          	fsub.s	fa3,fa0,fa5
   124e0:	fa078793          	addi	a5,a5,-96 # 14fa0 <npio2_hw>
   124e4:	00e787b3          	add	a5,a5,a4
   124e8:	0007a683          	lw	a3,0(a5)
   124ec:	f0047713          	andi	a4,s0,-256
   124f0:	e00687d3          	fmv.x.w	a5,fa3
   124f4:	02d70e63          	beq	a4,a3,12530 <__ieee754_rem_pio2f+0x21c>
   124f8:	00f4a023          	sw	a5,0(s1)
   124fc:	f0078753          	fmv.w.x	fa4,a5
   12500:	08e57553          	fsub.s	fa0,fa0,fa4
   12504:	08f57553          	fsub.s	fa0,fa0,fa5
   12508:	00a4a227          	fsw	fa0,4(s1)
   1250c:	e80950e3          	bgez	s2,1238c <__ieee754_rem_pio2f+0x78>
   12510:	20e717d3          	fneg.s	fa5,fa4
   12514:	20a51553          	fneg.s	fa0,fa0
   12518:	40a00533          	neg	a0,a0
   1251c:	00f4a027          	fsw	fa5,0(s1)
   12520:	00a4a227          	fsw	fa0,4(s1)
   12524:	e69ff06f          	j	1238c <__ieee754_rem_pio2f+0x78>
   12528:	08f576d3          	fsub.s	fa3,fa0,fa5
   1252c:	e00687d3          	fmv.x.w	a5,fa3
   12530:	0177d713          	srli	a4,a5,0x17
   12534:	41745413          	srai	s0,s0,0x17
   12538:	0ff77713          	andi	a4,a4,255
   1253c:	40e40733          	sub	a4,s0,a4
   12540:	00800693          	li	a3,8
   12544:	fae6dae3          	bge	a3,a4,124f8 <__ieee754_rem_pio2f+0x1e4>
   12548:	44c1a787          	flw	fa5,1100(gp) # 17b24 <__SDATA_BEGIN__+0x8>
   1254c:	01900693          	li	a3,25
   12550:	50f776cb          	fnmsub.s	fa3,fa4,fa5,fa0
   12554:	08d57553          	fsub.s	fa0,fa0,fa3
   12558:	50f7754b          	fnmsub.s	fa0,fa4,fa5,fa0
   1255c:	4501a787          	flw	fa5,1104(gp) # 17b28 <__SDATA_BEGIN__+0xc>
   12560:	50f777c7          	fmsub.s	fa5,fa4,fa5,fa0
   12564:	08f6f653          	fsub.s	fa2,fa3,fa5
   12568:	e00607d3          	fmv.x.w	a5,fa2
   1256c:	0177d713          	srli	a4,a5,0x17
   12570:	0ff77713          	andi	a4,a4,255
   12574:	40e40433          	sub	s0,s0,a4
   12578:	0086c863          	blt	a3,s0,12588 <__ieee754_rem_pio2f+0x274>
   1257c:	20d68553          	fmv.s	fa0,fa3
   12580:	00c4a027          	fsw	fa2,0(s1)
   12584:	f79ff06f          	j	124fc <__ieee754_rem_pio2f+0x1e8>
   12588:	45c1a787          	flw	fa5,1116(gp) # 17b34 <__SDATA_BEGIN__+0x18>
   1258c:	68f7754b          	fnmsub.s	fa0,fa4,fa5,fa3
   12590:	08a6f6d3          	fsub.s	fa3,fa3,fa0
   12594:	68f776cb          	fnmsub.s	fa3,fa4,fa5,fa3
   12598:	4601a787          	flw	fa5,1120(gp) # 17b38 <__SDATA_BEGIN__+0x1c>
   1259c:	68f777c7          	fmsub.s	fa5,fa4,fa5,fa3
   125a0:	08f57753          	fsub.s	fa4,fa0,fa5
   125a4:	e00707d3          	fmv.x.w	a5,fa4
   125a8:	f51ff06f          	j	124f8 <__ieee754_rem_pio2f+0x1e4>
   125ac:	00f577d3          	fadd.s	fa5,fa0,fa5
   125b0:	02e40263          	beq	s0,a4,125d4 <__ieee754_rem_pio2f+0x2c0>
   125b4:	4481a707          	flw	fa4,1096(gp) # 17b20 <__SDATA_BEGIN__+0x4>
   125b8:	00e7f6d3          	fadd.s	fa3,fa5,fa4
   125bc:	fff00513          	li	a0,-1
   125c0:	08d7f7d3          	fsub.s	fa5,fa5,fa3
   125c4:	00d4a027          	fsw	fa3,0(s1)
   125c8:	00e7f7d3          	fadd.s	fa5,fa5,fa4
   125cc:	00f4a227          	fsw	fa5,4(s1)
   125d0:	dbdff06f          	j	1238c <__ieee754_rem_pio2f+0x78>
   125d4:	4501a707          	flw	fa4,1104(gp) # 17b28 <__SDATA_BEGIN__+0xc>
   125d8:	44c1a687          	flw	fa3,1100(gp) # 17b24 <__SDATA_BEGIN__+0x8>
   125dc:	00d7f7d3          	fadd.s	fa5,fa5,fa3
   125e0:	fd9ff06f          	j	125b8 <__ieee754_rem_pio2f+0x2a4>

000125e4 <__kernel_cosf>:
   125e4:	e00507d3          	fmv.x.w	a5,fa0
   125e8:	320006b7          	lui	a3,0x32000
   125ec:	00179713          	slli	a4,a5,0x1
   125f0:	00175713          	srli	a4,a4,0x1
   125f4:	06d75063          	bge	a4,a3,12654 <__kernel_cosf+0x70>
   125f8:	c0051753          	fcvt.w.s	a4,fa0,rtz
   125fc:	0e070063          	beqz	a4,126dc <__kernel_cosf+0xf8>
   12600:	10a576d3          	fmul.s	fa3,fa0,fa0
   12604:	4741a707          	flw	fa4,1140(gp) # 17b4c <__SDATA_BEGIN__+0x30>
   12608:	4781a787          	flw	fa5,1144(gp) # 17b50 <__SDATA_BEGIN__+0x34>
   1260c:	78e6f743          	fmadd.s	fa4,fa3,fa4,fa5
   12610:	47c1a787          	flw	fa5,1148(gp) # 17b54 <__SDATA_BEGIN__+0x38>
   12614:	78e6f743          	fmadd.s	fa4,fa3,fa4,fa5
   12618:	4801a787          	flw	fa5,1152(gp) # 17b58 <__SDATA_BEGIN__+0x3c>
   1261c:	78e6f743          	fmadd.s	fa4,fa3,fa4,fa5
   12620:	4841a787          	flw	fa5,1156(gp) # 17b5c <__SDATA_BEGIN__+0x40>
   12624:	78e6f743          	fmadd.s	fa4,fa3,fa4,fa5
   12628:	4881a787          	flw	fa5,1160(gp) # 17b60 <__SDATA_BEGIN__+0x44>
   1262c:	78e6f7c3          	fmadd.s	fa5,fa3,fa4,fa5
   12630:	10f6f7d3          	fmul.s	fa5,fa3,fa5
   12634:	f0078753          	fmv.w.x	fa4,a5
   12638:	4581a507          	flw	fa0,1112(gp) # 17b30 <__SDATA_BEGIN__+0x14>
   1263c:	10b775d3          	fmul.s	fa1,fa4,fa1
   12640:	58f6f7c7          	fmsub.s	fa5,fa3,fa5,fa1
   12644:	78a6f7c7          	fmsub.s	fa5,fa3,fa0,fa5
   12648:	4701a507          	flw	fa0,1136(gp) # 17b48 <__SDATA_BEGIN__+0x2c>
   1264c:	08f57553          	fsub.s	fa0,fa0,fa5
   12650:	00008067          	ret
   12654:	10a576d3          	fmul.s	fa3,fa0,fa0
   12658:	4741a787          	flw	fa5,1140(gp) # 17b4c <__SDATA_BEGIN__+0x30>
   1265c:	4781a707          	flw	fa4,1144(gp) # 17b50 <__SDATA_BEGIN__+0x34>
   12660:	70f6f7c3          	fmadd.s	fa5,fa3,fa5,fa4
   12664:	47c1a707          	flw	fa4,1148(gp) # 17b54 <__SDATA_BEGIN__+0x38>
   12668:	3e99a6b7          	lui	a3,0x3e99a
   1266c:	99968693          	addi	a3,a3,-1639 # 3e999999 <__BSS_END__+0x3e981ac1>
   12670:	70d7f7c3          	fmadd.s	fa5,fa5,fa3,fa4
   12674:	4801a707          	flw	fa4,1152(gp) # 17b58 <__SDATA_BEGIN__+0x3c>
   12678:	70d7f7c3          	fmadd.s	fa5,fa5,fa3,fa4
   1267c:	4841a707          	flw	fa4,1156(gp) # 17b5c <__SDATA_BEGIN__+0x40>
   12680:	70d7f7c3          	fmadd.s	fa5,fa5,fa3,fa4
   12684:	4881a707          	flw	fa4,1160(gp) # 17b60 <__SDATA_BEGIN__+0x44>
   12688:	70d7f7c3          	fmadd.s	fa5,fa5,fa3,fa4
   1268c:	10d7f7d3          	fmul.s	fa5,fa5,fa3
   12690:	fae6d2e3          	bge	a3,a4,12634 <__kernel_cosf+0x50>
   12694:	3f4806b7          	lui	a3,0x3f480
   12698:	02e6cc63          	blt	a3,a4,126d0 <__kernel_cosf+0xec>
   1269c:	ff0006b7          	lui	a3,0xff000
   126a0:	00d70733          	add	a4,a4,a3
   126a4:	4701a507          	flw	fa0,1136(gp) # 17b48 <__SDATA_BEGIN__+0x2c>
   126a8:	f0070753          	fmv.w.x	fa4,a4
   126ac:	08e57553          	fsub.s	fa0,fa0,fa4
   126b0:	f0078653          	fmv.w.x	fa2,a5
   126b4:	10b675d3          	fmul.s	fa1,fa2,fa1
   126b8:	4581a607          	flw	fa2,1112(gp) # 17b30 <__SDATA_BEGIN__+0x14>
   126bc:	58f6f7c7          	fmsub.s	fa5,fa3,fa5,fa1
   126c0:	70c6f6c7          	fmsub.s	fa3,fa3,fa2,fa4
   126c4:	08f6f7d3          	fsub.s	fa5,fa3,fa5
   126c8:	08f57553          	fsub.s	fa0,fa0,fa5
   126cc:	00008067          	ret
   126d0:	4681a507          	flw	fa0,1128(gp) # 17b40 <__SDATA_BEGIN__+0x24>
   126d4:	46c1a707          	flw	fa4,1132(gp) # 17b44 <__SDATA_BEGIN__+0x28>
   126d8:	fd9ff06f          	j	126b0 <__kernel_cosf+0xcc>
   126dc:	4701a507          	flw	fa0,1136(gp) # 17b48 <__SDATA_BEGIN__+0x2c>
   126e0:	00008067          	ret

000126e4 <__kernel_rem_pio2f>:
   126e4:	e4010113          	addi	sp,sp,-448
   126e8:	1a912a23          	sw	s1,436(sp)
   126ec:	000154b7          	lui	s1,0x15
   126f0:	33848893          	addi	a7,s1,824 # 15338 <init_jk>
   126f4:	00e12a23          	sw	a4,20(sp)
   126f8:	00271713          	slli	a4,a4,0x2
   126fc:	00068813          	mv	a6,a3
   12700:	1a812c23          	sw	s0,440(sp)
   12704:	1b212823          	sw	s2,432(sp)
   12708:	19a12823          	sw	s10,400(sp)
   1270c:	00e88733          	add	a4,a7,a4
   12710:	1a112e23          	sw	ra,444(sp)
   12714:	1b312623          	sw	s3,428(sp)
   12718:	1b412423          	sw	s4,424(sp)
   1271c:	1b512223          	sw	s5,420(sp)
   12720:	1b612023          	sw	s6,416(sp)
   12724:	19712e23          	sw	s7,412(sp)
   12728:	19812c23          	sw	s8,408(sp)
   1272c:	19912a23          	sw	s9,404(sp)
   12730:	19b12623          	sw	s11,396(sp)
   12734:	16812e27          	fsw	fs0,380(sp)
   12738:	16912c27          	fsw	fs1,376(sp)
   1273c:	17212a27          	fsw	fs2,372(sp)
   12740:	17312827          	fsw	fs3,368(sp)
   12744:	17412627          	fsw	fs4,364(sp)
   12748:	17512427          	fsw	fs5,360(sp)
   1274c:	17612227          	fsw	fs6,356(sp)
   12750:	01112623          	sw	a7,12(sp)
   12754:	00c12e23          	sw	a2,28(sp)
   12758:	ffc00693          	li	a3,-4
   1275c:	00b12823          	sw	a1,16(sp)
   12760:	00f12223          	sw	a5,4(sp)
   12764:	00072d03          	lw	s10,0(a4) # 7f800000 <__BSS_END__+0x7f7e8128>
   12768:	00050913          	mv	s2,a0
   1276c:	fff80413          	addi	s0,a6,-1
   12770:	78d64463          	blt	a2,a3,12ef8 <__kernel_rem_pio2f+0x814>
   12774:	ffd60793          	addi	a5,a2,-3
   12778:	41f7d713          	srai	a4,a5,0x1f
   1277c:	00777713          	andi	a4,a4,7
   12780:	00f707b3          	add	a5,a4,a5
   12784:	4037d793          	srai	a5,a5,0x3
   12788:	00178b93          	addi	s7,a5,1
   1278c:	00f12023          	sw	a5,0(sp)
   12790:	003b9793          	slli	a5,s7,0x3
   12794:	00f12c23          	sw	a5,24(sp)
   12798:	01c12783          	lw	a5,28(sp)
   1279c:	01812683          	lw	a3,24(sp)
   127a0:	008d0733          	add	a4,s10,s0
   127a4:	40d78ab3          	sub	s5,a5,a3
   127a8:	00012783          	lw	a5,0(sp)
   127ac:	408787b3          	sub	a5,a5,s0
   127b0:	04074063          	bltz	a4,127f0 <__kernel_rem_pio2f+0x10c>
   127b4:	00412583          	lw	a1,4(sp)
   127b8:	00170613          	addi	a2,a4,1
   127bc:	00279693          	slli	a3,a5,0x2
   127c0:	07010713          	addi	a4,sp,112
   127c4:	00d586b3          	add	a3,a1,a3
   127c8:	00f60633          	add	a2,a2,a5
   127cc:	f00007d3          	fmv.w.x	fa5,zero
   127d0:	0007c663          	bltz	a5,127dc <__kernel_rem_pio2f+0xf8>
   127d4:	0006a503          	lw	a0,0(a3) # ff000000 <__BSS_END__+0xfefe8128>
   127d8:	d00577d3          	fcvt.s.w	fa5,a0
   127dc:	00178793          	addi	a5,a5,1
   127e0:	00f72027          	fsw	fa5,0(a4)
   127e4:	00470713          	addi	a4,a4,4
   127e8:	00468693          	addi	a3,a3,4
   127ec:	fec790e3          	bne	a5,a2,127cc <__kernel_rem_pio2f+0xe8>
   127f0:	060d4063          	bltz	s10,12850 <__kernel_rem_pio2f+0x16c>
   127f4:	00241613          	slli	a2,s0,0x2
   127f8:	00460693          	addi	a3,a2,4
   127fc:	07010793          	addi	a5,sp,112
   12800:	11010e13          	addi	t3,sp,272
   12804:	00040513          	mv	a0,s0
   12808:	00c78633          	add	a2,a5,a2
   1280c:	010d0eb3          	add	t4,s10,a6
   12810:	012686b3          	add	a3,a3,s2
   12814:	f00007d3          	fmv.w.x	fa5,zero
   12818:	00060713          	mv	a4,a2
   1281c:	00090793          	mv	a5,s2
   12820:	00044e63          	bltz	s0,1283c <__kernel_rem_pio2f+0x158>
   12824:	0007a687          	flw	fa3,0(a5)
   12828:	00072707          	flw	fa4,0(a4)
   1282c:	00478793          	addi	a5,a5,4
   12830:	ffc70713          	addi	a4,a4,-4
   12834:	78e6f7c3          	fmadd.s	fa5,fa3,fa4,fa5
   12838:	fed796e3          	bne	a5,a3,12824 <__kernel_rem_pio2f+0x140>
   1283c:	00fe2027          	fsw	fa5,0(t3)
   12840:	00150513          	addi	a0,a0,1
   12844:	004e0e13          	addi	t3,t3,4
   12848:	00460613          	addi	a2,a2,4
   1284c:	fdd514e3          	bne	a0,t4,12814 <__kernel_rem_pio2f+0x130>
   12850:	4901aa87          	flw	fs5,1168(gp) # 17b68 <__SDATA_BEGIN__+0x4c>
   12854:	4641aa07          	flw	fs4,1124(gp) # 17b3c <__SDATA_BEGIN__+0x20>
   12858:	4941a487          	flw	fs1,1172(gp) # 17b6c <__SDATA_BEGIN__+0x50>
   1285c:	4981a407          	flw	fs0,1176(gp) # 17b70 <__SDATA_BEGIN__+0x54>
   12860:	002d1793          	slli	a5,s10,0x2
   12864:	4701a987          	flw	fs3,1136(gp) # 17b48 <__SDATA_BEGIN__+0x2c>
   12868:	4581a907          	flw	fs2,1112(gp) # 17b30 <__SDATA_BEGIN__+0x14>
   1286c:	02010b13          	addi	s6,sp,32
   12870:	ff878993          	addi	s3,a5,-8
   12874:	01c10713          	addi	a4,sp,28
   12878:	00281c93          	slli	s9,a6,0x2
   1287c:	00f704b3          	add	s1,a4,a5
   12880:	013b07b3          	add	a5,s6,s3
   12884:	00f12423          	sw	a5,8(sp)
   12888:	01990cb3          	add	s9,s2,s9
   1288c:	000d0a13          	mv	s4,s10
   12890:	11010d93          	addi	s11,sp,272
   12894:	002a1993          	slli	s3,s4,0x2
   12898:	16010793          	addi	a5,sp,352
   1289c:	013787b3          	add	a5,a5,s3
   128a0:	fb07a507          	flw	fa0,-80(a5)
   128a4:	05405063          	blez	s4,128e4 <__kernel_rem_pio2f+0x200>
   128a8:	ffc98793          	addi	a5,s3,-4
   128ac:	00fd87b3          	add	a5,s11,a5
   128b0:	000b0713          	mv	a4,s6
   128b4:	115577d3          	fmul.s	fa5,fa0,fs5
   128b8:	0007a687          	flw	fa3,0(a5)
   128bc:	00470713          	addi	a4,a4,4
   128c0:	00078613          	mv	a2,a5
   128c4:	ffc78793          	addi	a5,a5,-4
   128c8:	c0079553          	fcvt.w.s	a0,fa5,rtz
   128cc:	d00577d3          	fcvt.s.w	fa5,a0
   128d0:	5147f74b          	fnmsub.s	fa4,fa5,fs4,fa0
   128d4:	00d7f553          	fadd.s	fa0,fa5,fa3
   128d8:	c0071553          	fcvt.w.s	a0,fa4,rtz
   128dc:	fea72e23          	sw	a0,-4(a4)
   128e0:	fccd9ae3          	bne	s11,a2,128b4 <__kernel_rem_pio2f+0x1d0>
   128e4:	000a8513          	mv	a0,s5
   128e8:	001000ef          	jal	ra,130e8 <scalbnf>
   128ec:	20a50b53          	fmv.s	fs6,fa0
   128f0:	10957553          	fmul.s	fa0,fa0,fs1
   128f4:	73c000ef          	jal	ra,13030 <floorf>
   128f8:	b085754b          	fnmsub.s	fa0,fa0,fs0,fs6
   128fc:	c0051bd3          	fcvt.w.s	s7,fa0,rtz
   12900:	d00bfb53          	fcvt.s.w	fs6,s7
   12904:	09657b53          	fsub.s	fs6,fa0,fs6
   12908:	15505063          	blez	s5,12a48 <__kernel_rem_pio2f+0x364>
   1290c:	fffa0713          	addi	a4,s4,-1
   12910:	16010793          	addi	a5,sp,352
   12914:	00271713          	slli	a4,a4,0x2
   12918:	00e78733          	add	a4,a5,a4
   1291c:	ec072e83          	lw	t4,-320(a4)
   12920:	00800793          	li	a5,8
   12924:	415787b3          	sub	a5,a5,s5
   12928:	40fed533          	sra	a0,t4,a5
   1292c:	00f51633          	sll	a2,a0,a5
   12930:	00700793          	li	a5,7
   12934:	40ce8633          	sub	a2,t4,a2
   12938:	415787b3          	sub	a5,a5,s5
   1293c:	ecc72023          	sw	a2,-320(a4)
   12940:	40f65c33          	sra	s8,a2,a5
   12944:	00ab8bb3          	add	s7,s7,a0
   12948:	13804063          	bgtz	s8,12a68 <__kernel_rem_pio2f+0x384>
   1294c:	f0000753          	fmv.w.x	fa4,zero
   12950:	a0eb27d3          	feq.s	a5,fs6,fa4
   12954:	20078463          	beqz	a5,12b5c <__kernel_rem_pio2f+0x478>
   12958:	fffa0e93          	addi	t4,s4,-1
   1295c:	03aec463          	blt	t4,s10,12984 <__kernel_rem_pio2f+0x2a0>
   12960:	002a1793          	slli	a5,s4,0x2
   12964:	ffc78793          	addi	a5,a5,-4
   12968:	00fb07b3          	add	a5,s6,a5
   1296c:	00000713          	li	a4,0
   12970:	0007a503          	lw	a0,0(a5)
   12974:	ffc78793          	addi	a5,a5,-4
   12978:	00a76733          	or	a4,a4,a0
   1297c:	fe979ae3          	bne	a5,s1,12970 <__kernel_rem_pio2f+0x28c>
   12980:	3e071463          	bnez	a4,12d68 <__kernel_rem_pio2f+0x684>
   12984:	fffd0793          	addi	a5,s10,-1
   12988:	00279793          	slli	a5,a5,0x2
   1298c:	16010713          	addi	a4,sp,352
   12990:	00f707b3          	add	a5,a4,a5
   12994:	ec07a783          	lw	a5,-320(a5)
   12998:	3c079063          	bnez	a5,12d58 <__kernel_rem_pio2f+0x674>
   1299c:	00812783          	lw	a5,8(sp)
   129a0:	00100713          	li	a4,1
   129a4:	0007a603          	lw	a2,0(a5)
   129a8:	00170713          	addi	a4,a4,1
   129ac:	ffc78793          	addi	a5,a5,-4
   129b0:	fe060ae3          	beqz	a2,129a4 <__kernel_rem_pio2f+0x2c0>
   129b4:	001a0793          	addi	a5,s4,1
   129b8:	00078e93          	mv	t4,a5
   129bc:	00ea0f33          	add	t5,s4,a4
   129c0:	00012703          	lw	a4,0(sp)
   129c4:	00f406b3          	add	a3,s0,a5
   129c8:	00269693          	slli	a3,a3,0x2
   129cc:	00f70533          	add	a0,a4,a5
   129d0:	16010713          	addi	a4,sp,352
   129d4:	00d706b3          	add	a3,a4,a3
   129d8:	00412703          	lw	a4,4(sp)
   129dc:	00251513          	slli	a0,a0,0x2
   129e0:	00279793          	slli	a5,a5,0x2
   129e4:	00a70533          	add	a0,a4,a0
   129e8:	00fd8633          	add	a2,s11,a5
   129ec:	f0c68693          	addi	a3,a3,-244
   129f0:	00052783          	lw	a5,0(a0)
   129f4:	f00007d3          	fmv.w.x	fa5,zero
   129f8:	d007f753          	fcvt.s.w	fa4,a5
   129fc:	00e6a227          	fsw	fa4,4(a3)
   12a00:	02044463          	bltz	s0,12a28 <__kernel_rem_pio2f+0x344>
   12a04:	00068713          	mv	a4,a3
   12a08:	00090793          	mv	a5,s2
   12a0c:	00c0006f          	j	12a18 <__kernel_rem_pio2f+0x334>
   12a10:	00072707          	flw	fa4,0(a4)
   12a14:	ffc70713          	addi	a4,a4,-4
   12a18:	0007a687          	flw	fa3,0(a5)
   12a1c:	00478793          	addi	a5,a5,4
   12a20:	78e6f7c3          	fmadd.s	fa5,fa3,fa4,fa5
   12a24:	ff9796e3          	bne	a5,s9,12a10 <__kernel_rem_pio2f+0x32c>
   12a28:	00f62027          	fsw	fa5,0(a2)
   12a2c:	001e8e93          	addi	t4,t4,1
   12a30:	00450513          	addi	a0,a0,4
   12a34:	00460613          	addi	a2,a2,4
   12a38:	00468693          	addi	a3,a3,4
   12a3c:	fbdf5ae3          	bge	t5,t4,129f0 <__kernel_rem_pio2f+0x30c>
   12a40:	000f0a13          	mv	s4,t5
   12a44:	e51ff06f          	j	12894 <__kernel_rem_pio2f+0x1b0>
   12a48:	2e0a9863          	bnez	s5,12d38 <__kernel_rem_pio2f+0x654>
   12a4c:	fffa0793          	addi	a5,s4,-1
   12a50:	00279793          	slli	a5,a5,0x2
   12a54:	16010713          	addi	a4,sp,352
   12a58:	00f707b3          	add	a5,a4,a5
   12a5c:	ec07a603          	lw	a2,-320(a5)
   12a60:	40765c13          	srai	s8,a2,0x7
   12a64:	ef8054e3          	blez	s8,1294c <__kernel_rem_pio2f+0x268>
   12a68:	001b8b93          	addi	s7,s7,1
   12a6c:	49405e63          	blez	s4,12f08 <__kernel_rem_pio2f+0x824>
   12a70:	02012e83          	lw	t4,32(sp)
   12a74:	00100793          	li	a5,1
   12a78:	2a0e9c63          	bnez	t4,12d30 <__kernel_rem_pio2f+0x64c>
   12a7c:	08fa0263          	beq	s4,a5,12b00 <__kernel_rem_pio2f+0x41c>
   12a80:	02412e83          	lw	t4,36(sp)
   12a84:	02410513          	addi	a0,sp,36
   12a88:	00100713          	li	a4,1
   12a8c:	00170793          	addi	a5,a4,1
   12a90:	00450513          	addi	a0,a0,4
   12a94:	000e9e63          	bnez	t4,12ab0 <__kernel_rem_pio2f+0x3cc>
   12a98:	06fa0463          	beq	s4,a5,12b00 <__kernel_rem_pio2f+0x41c>
   12a9c:	00052e83          	lw	t4,0(a0)
   12aa0:	00078713          	mv	a4,a5
   12aa4:	00170793          	addi	a5,a4,1
   12aa8:	00450513          	addi	a0,a0,4
   12aac:	fe0e86e3          	beqz	t4,12a98 <__kernel_rem_pio2f+0x3b4>
   12ab0:	00271713          	slli	a4,a4,0x2
   12ab4:	16010693          	addi	a3,sp,352
   12ab8:	00e68533          	add	a0,a3,a4
   12abc:	10000713          	li	a4,256
   12ac0:	41d70733          	sub	a4,a4,t4
   12ac4:	ece52023          	sw	a4,-320(a0)
   12ac8:	0347da63          	bge	a5,s4,12afc <__kernel_rem_pio2f+0x418>
   12acc:	00279793          	slli	a5,a5,0x2
   12ad0:	00f68733          	add	a4,a3,a5
   12ad4:	ec072703          	lw	a4,-320(a4)
   12ad8:	00fb07b3          	add	a5,s6,a5
   12adc:	013b0eb3          	add	t4,s6,s3
   12ae0:	0ff00513          	li	a0,255
   12ae4:	0080006f          	j	12aec <__kernel_rem_pio2f+0x408>
   12ae8:	0007a703          	lw	a4,0(a5)
   12aec:	40e50733          	sub	a4,a0,a4
   12af0:	00e7a023          	sw	a4,0(a5)
   12af4:	00478793          	addi	a5,a5,4
   12af8:	ffd798e3          	bne	a5,t4,12ae8 <__kernel_rem_pio2f+0x404>
   12afc:	00100e93          	li	t4,1
   12b00:	03505863          	blez	s5,12b30 <__kernel_rem_pio2f+0x44c>
   12b04:	00100793          	li	a5,1
   12b08:	3cfa8863          	beq	s5,a5,12ed8 <__kernel_rem_pio2f+0x7f4>
   12b0c:	00200793          	li	a5,2
   12b10:	02fa9063          	bne	s5,a5,12b30 <__kernel_rem_pio2f+0x44c>
   12b14:	fffa0793          	addi	a5,s4,-1
   12b18:	16010713          	addi	a4,sp,352
   12b1c:	00279793          	slli	a5,a5,0x2
   12b20:	00f707b3          	add	a5,a4,a5
   12b24:	ec07a703          	lw	a4,-320(a5)
   12b28:	03f77713          	andi	a4,a4,63
   12b2c:	ece7a023          	sw	a4,-320(a5)
   12b30:	00200793          	li	a5,2
   12b34:	e0fc1ce3          	bne	s8,a5,1294c <__kernel_rem_pio2f+0x268>
   12b38:	0969fb53          	fsub.s	fs6,fs3,fs6
   12b3c:	e00e88e3          	beqz	t4,1294c <__kernel_rem_pio2f+0x268>
   12b40:	21398553          	fmv.s	fa0,fs3
   12b44:	000a8513          	mv	a0,s5
   12b48:	5a0000ef          	jal	ra,130e8 <scalbnf>
   12b4c:	08ab7b53          	fsub.s	fs6,fs6,fa0
   12b50:	f0000753          	fmv.w.x	fa4,zero
   12b54:	a0eb27d3          	feq.s	a5,fs6,fa4
   12b58:	e00790e3          	bnez	a5,12958 <__kernel_rem_pio2f+0x274>
   12b5c:	01812783          	lw	a5,24(sp)
   12b60:	01c12703          	lw	a4,28(sp)
   12b64:	216b0553          	fmv.s	fa0,fs6
   12b68:	40e78533          	sub	a0,a5,a4
   12b6c:	57c000ef          	jal	ra,130e8 <scalbnf>
   12b70:	4641a707          	flw	fa4,1124(gp) # 17b3c <__SDATA_BEGIN__+0x20>
   12b74:	a0a707d3          	fle.s	a5,fa4,fa0
   12b78:	38078c63          	beqz	a5,12f10 <__kernel_rem_pio2f+0x82c>
   12b7c:	4901a687          	flw	fa3,1168(gp) # 17b68 <__SDATA_BEGIN__+0x4c>
   12b80:	001a0e93          	addi	t4,s4,1
   12b84:	16010793          	addi	a5,sp,352
   12b88:	10d576d3          	fmul.s	fa3,fa0,fa3
   12b8c:	01378fb3          	add	t6,a5,s3
   12b90:	16010713          	addi	a4,sp,352
   12b94:	002e9793          	slli	a5,t4,0x2
   12b98:	00f707b3          	add	a5,a4,a5
   12b9c:	c0069753          	fcvt.w.s	a4,fa3,rtz
   12ba0:	008a8a93          	addi	s5,s5,8
   12ba4:	d00776d3          	fcvt.s.w	fa3,a4
   12ba8:	50e6f7cb          	fnmsub.s	fa5,fa3,fa4,fa0
   12bac:	c0069753          	fcvt.w.s	a4,fa3,rtz
   12bb0:	c00796d3          	fcvt.w.s	a3,fa5,rtz
   12bb4:	ecdfa023          	sw	a3,-320(t6)
   12bb8:	ece7a023          	sw	a4,-320(a5)
   12bbc:	4701a507          	flw	fa0,1136(gp) # 17b48 <__SDATA_BEGIN__+0x2c>
   12bc0:	000a8513          	mv	a0,s5
   12bc4:	01d12023          	sw	t4,0(sp)
   12bc8:	520000ef          	jal	ra,130e8 <scalbnf>
   12bcc:	00012e83          	lw	t4,0(sp)
   12bd0:	380ecc63          	bltz	t4,12f68 <__kernel_rem_pio2f+0x884>
   12bd4:	002e9893          	slli	a7,t4,0x2
   12bd8:	4901a687          	flw	fa3,1168(gp) # 17b68 <__SDATA_BEGIN__+0x4c>
   12bdc:	11010793          	addi	a5,sp,272
   12be0:	01178533          	add	a0,a5,a7
   12be4:	00050713          	mv	a4,a0
   12be8:	011b07b3          	add	a5,s6,a7
   12bec:	0007a583          	lw	a1,0(a5)
   12bf0:	ffc70713          	addi	a4,a4,-4
   12bf4:	00078693          	mv	a3,a5
   12bf8:	d005f7d3          	fcvt.s.w	fa5,a1
   12bfc:	ffc78793          	addi	a5,a5,-4
   12c00:	10a7f7d3          	fmul.s	fa5,fa5,fa0
   12c04:	10d57553          	fmul.s	fa0,fa0,fa3
   12c08:	00f72227          	fsw	fa5,4(a4)
   12c0c:	fedb10e3          	bne	s6,a3,12bec <__kernel_rem_pio2f+0x508>
   12c10:	0c010313          	addi	t1,sp,192
   12c14:	48c1a607          	flw	fa2,1164(gp) # 17b64 <__SDATA_BEGIN__+0x48>
   12c18:	00030813          	mv	a6,t1
   12c1c:	00000593          	li	a1,0
   12c20:	040d4e63          	bltz	s10,12c7c <__kernel_rem_pio2f+0x598>
   12c24:	00c12783          	lw	a5,12(sp)
   12c28:	20c60753          	fmv.s	fa4,fa2
   12c2c:	f00007d3          	fmv.w.x	fa5,zero
   12c30:	01078693          	addi	a3,a5,16
   12c34:	00050713          	mv	a4,a0
   12c38:	00000793          	li	a5,0
   12c3c:	0100006f          	j	12c4c <__kernel_rem_pio2f+0x568>
   12c40:	02f5c063          	blt	a1,a5,12c60 <__kernel_rem_pio2f+0x57c>
   12c44:	0006a707          	flw	fa4,0(a3)
   12c48:	00468693          	addi	a3,a3,4
   12c4c:	00072687          	flw	fa3,0(a4)
   12c50:	00178793          	addi	a5,a5,1
   12c54:	00470713          	addi	a4,a4,4
   12c58:	78e6f7c3          	fmadd.s	fa5,fa3,fa4,fa5
   12c5c:	fefd52e3          	bge	s10,a5,12c40 <__kernel_rem_pio2f+0x55c>
   12c60:	00f82027          	fsw	fa5,0(a6)
   12c64:	00158793          	addi	a5,a1,1
   12c68:	00480813          	addi	a6,a6,4
   12c6c:	ffc50513          	addi	a0,a0,-4
   12c70:	02be8263          	beq	t4,a1,12c94 <__kernel_rem_pio2f+0x5b0>
   12c74:	00078593          	mv	a1,a5
   12c78:	fa0d56e3          	bgez	s10,12c24 <__kernel_rem_pio2f+0x540>
   12c7c:	f00007d3          	fmv.w.x	fa5,zero
   12c80:	00158793          	addi	a5,a1,1
   12c84:	00480813          	addi	a6,a6,4
   12c88:	fef82e27          	fsw	fa5,-4(a6)
   12c8c:	ffc50513          	addi	a0,a0,-4
   12c90:	febe92e3          	bne	t4,a1,12c74 <__kernel_rem_pio2f+0x590>
   12c94:	01412703          	lw	a4,20(sp)
   12c98:	00200793          	li	a5,2
   12c9c:	16e7c263          	blt	a5,a4,12e00 <__kernel_rem_pio2f+0x71c>
   12ca0:	f00007d3          	fmv.w.x	fa5,zero
   12ca4:	011308b3          	add	a7,t1,a7
   12ca8:	0ee04e63          	bgtz	a4,12da4 <__kernel_rem_pio2f+0x6c0>
   12cac:	02071463          	bnez	a4,12cd4 <__kernel_rem_pio2f+0x5f0>
   12cb0:	0008a707          	flw	fa4,0(a7)
   12cb4:	00088793          	mv	a5,a7
   12cb8:	ffc88893          	addi	a7,a7,-4
   12cbc:	00e7f7d3          	fadd.s	fa5,fa5,fa4
   12cc0:	fef318e3          	bne	t1,a5,12cb0 <__kernel_rem_pio2f+0x5cc>
   12cc4:	000c0463          	beqz	s8,12ccc <__kernel_rem_pio2f+0x5e8>
   12cc8:	20f797d3          	fneg.s	fa5,fa5
   12ccc:	01012783          	lw	a5,16(sp)
   12cd0:	00f7a027          	fsw	fa5,0(a5)
   12cd4:	1bc12083          	lw	ra,444(sp)
   12cd8:	1b812403          	lw	s0,440(sp)
   12cdc:	1b412483          	lw	s1,436(sp)
   12ce0:	1b012903          	lw	s2,432(sp)
   12ce4:	1ac12983          	lw	s3,428(sp)
   12ce8:	1a812a03          	lw	s4,424(sp)
   12cec:	1a412a83          	lw	s5,420(sp)
   12cf0:	1a012b03          	lw	s6,416(sp)
   12cf4:	19812c03          	lw	s8,408(sp)
   12cf8:	19412c83          	lw	s9,404(sp)
   12cfc:	19012d03          	lw	s10,400(sp)
   12d00:	18c12d83          	lw	s11,396(sp)
   12d04:	17c12407          	flw	fs0,380(sp)
   12d08:	17812487          	flw	fs1,376(sp)
   12d0c:	17412907          	flw	fs2,372(sp)
   12d10:	17012987          	flw	fs3,368(sp)
   12d14:	16c12a07          	flw	fs4,364(sp)
   12d18:	16812a87          	flw	fs5,360(sp)
   12d1c:	16412b07          	flw	fs6,356(sp)
   12d20:	007bf513          	andi	a0,s7,7
   12d24:	19c12b83          	lw	s7,412(sp)
   12d28:	1c010113          	addi	sp,sp,448
   12d2c:	00008067          	ret
   12d30:	00000713          	li	a4,0
   12d34:	d7dff06f          	j	12ab0 <__kernel_rem_pio2f+0x3cc>
   12d38:	a16907d3          	fle.s	a5,fs2,fs6
   12d3c:	00000c13          	li	s8,0
   12d40:	c00786e3          	beqz	a5,1294c <__kernel_rem_pio2f+0x268>
   12d44:	001b8b93          	addi	s7,s7,1
   12d48:	00200c13          	li	s8,2
   12d4c:	d34042e3          	bgtz	s4,12a70 <__kernel_rem_pio2f+0x38c>
   12d50:	0969fb53          	fsub.s	fs6,fs3,fs6
   12d54:	bf9ff06f          	j	1294c <__kernel_rem_pio2f+0x268>
   12d58:	001a0793          	addi	a5,s4,1
   12d5c:	00078e93          	mv	t4,a5
   12d60:	00078f13          	mv	t5,a5
   12d64:	c5dff06f          	j	129c0 <__kernel_rem_pio2f+0x2dc>
   12d68:	002e9793          	slli	a5,t4,0x2
   12d6c:	16010713          	addi	a4,sp,352
   12d70:	00f707b3          	add	a5,a4,a5
   12d74:	ec07a783          	lw	a5,-320(a5)
   12d78:	ff8a8a93          	addi	s5,s5,-8
   12d7c:	e40790e3          	bnez	a5,12bbc <__kernel_rem_pio2f+0x4d8>
   12d80:	002a1793          	slli	a5,s4,0x2
   12d84:	ff878793          	addi	a5,a5,-8
   12d88:	00fb07b3          	add	a5,s6,a5
   12d8c:	0007a703          	lw	a4,0(a5)
   12d90:	fffe8e93          	addi	t4,t4,-1
   12d94:	ffc78793          	addi	a5,a5,-4
   12d98:	ff8a8a93          	addi	s5,s5,-8
   12d9c:	fe0708e3          	beqz	a4,12d8c <__kernel_rem_pio2f+0x6a8>
   12da0:	e1dff06f          	j	12bbc <__kernel_rem_pio2f+0x4d8>
   12da4:	0008a707          	flw	fa4,0(a7)
   12da8:	00088793          	mv	a5,a7
   12dac:	ffc88893          	addi	a7,a7,-4
   12db0:	00e7f7d3          	fadd.s	fa5,fa5,fa4
   12db4:	fef318e3          	bne	t1,a5,12da4 <__kernel_rem_pio2f+0x6c0>
   12db8:	160c1863          	bnez	s8,12f28 <__kernel_rem_pio2f+0x844>
   12dbc:	01012783          	lw	a5,16(sp)
   12dc0:	0c012707          	flw	fa4,192(sp)
   12dc4:	00f7a027          	fsw	fa5,0(a5)
   12dc8:	08f777d3          	fsub.s	fa5,fa4,fa5
   12dcc:	03d05463          	blez	t4,12df4 <__kernel_rem_pio2f+0x710>
   12dd0:	0c410713          	addi	a4,sp,196
   12dd4:	00100793          	li	a5,1
   12dd8:	00072707          	flw	fa4,0(a4)
   12ddc:	00178793          	addi	a5,a5,1
   12de0:	00470713          	addi	a4,a4,4
   12de4:	00e7f7d3          	fadd.s	fa5,fa5,fa4
   12de8:	fefed8e3          	bge	t4,a5,12dd8 <__kernel_rem_pio2f+0x6f4>
   12dec:	000c0463          	beqz	s8,12df4 <__kernel_rem_pio2f+0x710>
   12df0:	20f797d3          	fneg.s	fa5,fa5
   12df4:	01012783          	lw	a5,16(sp)
   12df8:	00f7a227          	fsw	fa5,4(a5)
   12dfc:	ed9ff06f          	j	12cd4 <__kernel_rem_pio2f+0x5f0>
   12e00:	01412703          	lw	a4,20(sp)
   12e04:	00300793          	li	a5,3
   12e08:	ecf716e3          	bne	a4,a5,12cd4 <__kernel_rem_pio2f+0x5f0>
   12e0c:	040e8263          	beqz	t4,12e50 <__kernel_rem_pio2f+0x76c>
   12e10:	16010713          	addi	a4,sp,352
   12e14:	01170733          	add	a4,a4,a7
   12e18:	002e9793          	slli	a5,t4,0x2
   12e1c:	f6072707          	flw	fa4,-160(a4)
   12e20:	ffc78793          	addi	a5,a5,-4
   12e24:	00f307b3          	add	a5,t1,a5
   12e28:	0007a787          	flw	fa5,0(a5)
   12e2c:	20e706d3          	fmv.s	fa3,fa4
   12e30:	00078713          	mv	a4,a5
   12e34:	00f77753          	fadd.s	fa4,fa4,fa5
   12e38:	ffc78793          	addi	a5,a5,-4
   12e3c:	08e7f7d3          	fsub.s	fa5,fa5,fa4
   12e40:	00e7a227          	fsw	fa4,4(a5)
   12e44:	00d7f7d3          	fadd.s	fa5,fa5,fa3
   12e48:	00f7a427          	fsw	fa5,8(a5)
   12e4c:	fce31ee3          	bne	t1,a4,12e28 <__kernel_rem_pio2f+0x744>
   12e50:	00100793          	li	a5,1
   12e54:	f00007d3          	fmv.w.x	fa5,zero
   12e58:	07d7d063          	bge	a5,t4,12eb8 <__kernel_rem_pio2f+0x7d4>
   12e5c:	16010793          	addi	a5,sp,352
   12e60:	011788b3          	add	a7,a5,a7
   12e64:	f608a707          	flw	fa4,-160(a7)
   12e68:	002e9793          	slli	a5,t4,0x2
   12e6c:	ffc78793          	addi	a5,a5,-4
   12e70:	00f30733          	add	a4,t1,a5
   12e74:	00072787          	flw	fa5,0(a4)
   12e78:	20e706d3          	fmv.s	fa3,fa4
   12e7c:	00070693          	mv	a3,a4
   12e80:	00f77753          	fadd.s	fa4,fa4,fa5
   12e84:	ffc70713          	addi	a4,a4,-4
   12e88:	08e7f7d3          	fsub.s	fa5,fa5,fa4
   12e8c:	00e72227          	fsw	fa4,4(a4)
   12e90:	00d7f7d3          	fadd.s	fa5,fa5,fa3
   12e94:	00f72427          	fsw	fa5,8(a4)
   12e98:	fce31ee3          	bne	t1,a4,12e74 <__kernel_rem_pio2f+0x790>
   12e9c:	f00007d3          	fmv.w.x	fa5,zero
   12ea0:	00478793          	addi	a5,a5,4
   12ea4:	00f30333          	add	t1,t1,a5
   12ea8:	00032707          	flw	fa4,0(t1)
   12eac:	ffc30313          	addi	t1,t1,-4
   12eb0:	00e7f7d3          	fadd.s	fa5,fa5,fa4
   12eb4:	fe669ae3          	bne	a3,t1,12ea8 <__kernel_rem_pio2f+0x7c4>
   12eb8:	0c012687          	flw	fa3,192(sp)
   12ebc:	0c412707          	flw	fa4,196(sp)
   12ec0:	080c1463          	bnez	s8,12f48 <__kernel_rem_pio2f+0x864>
   12ec4:	01012783          	lw	a5,16(sp)
   12ec8:	00d7a027          	fsw	fa3,0(a5)
   12ecc:	00e7a227          	fsw	fa4,4(a5)
   12ed0:	00f7a427          	fsw	fa5,8(a5)
   12ed4:	e01ff06f          	j	12cd4 <__kernel_rem_pio2f+0x5f0>
   12ed8:	fffa0793          	addi	a5,s4,-1
   12edc:	16010713          	addi	a4,sp,352
   12ee0:	00279793          	slli	a5,a5,0x2
   12ee4:	00f707b3          	add	a5,a4,a5
   12ee8:	ec07a703          	lw	a4,-320(a5)
   12eec:	07f77713          	andi	a4,a4,127
   12ef0:	ece7a023          	sw	a4,-320(a5)
   12ef4:	c3dff06f          	j	12b30 <__kernel_rem_pio2f+0x44c>
   12ef8:	00800793          	li	a5,8
   12efc:	00f12c23          	sw	a5,24(sp)
   12f00:	00012023          	sw	zero,0(sp)
   12f04:	895ff06f          	j	12798 <__kernel_rem_pio2f+0xb4>
   12f08:	00000e93          	li	t4,0
   12f0c:	bf5ff06f          	j	12b00 <__kernel_rem_pio2f+0x41c>
   12f10:	c00517d3          	fcvt.w.s	a5,fa0,rtz
   12f14:	16010713          	addi	a4,sp,352
   12f18:	01370fb3          	add	t6,a4,s3
   12f1c:	000a0e93          	mv	t4,s4
   12f20:	ecffa023          	sw	a5,-320(t6)
   12f24:	c99ff06f          	j	12bbc <__kernel_rem_pio2f+0x4d8>
   12f28:	20f79753          	fneg.s	fa4,fa5
   12f2c:	01012783          	lw	a5,16(sp)
   12f30:	00e7a027          	fsw	fa4,0(a5)
   12f34:	0c012707          	flw	fa4,192(sp)
   12f38:	08f777d3          	fsub.s	fa5,fa4,fa5
   12f3c:	e9d04ae3          	bgtz	t4,12dd0 <__kernel_rem_pio2f+0x6ec>
   12f40:	20f797d3          	fneg.s	fa5,fa5
   12f44:	eb1ff06f          	j	12df4 <__kernel_rem_pio2f+0x710>
   12f48:	01012783          	lw	a5,16(sp)
   12f4c:	20d696d3          	fneg.s	fa3,fa3
   12f50:	20e71753          	fneg.s	fa4,fa4
   12f54:	20f797d3          	fneg.s	fa5,fa5
   12f58:	00d7a027          	fsw	fa3,0(a5)
   12f5c:	00e7a227          	fsw	fa4,4(a5)
   12f60:	00f7a427          	fsw	fa5,8(a5)
   12f64:	d71ff06f          	j	12cd4 <__kernel_rem_pio2f+0x5f0>
   12f68:	01412703          	lw	a4,20(sp)
   12f6c:	00200793          	li	a5,2
   12f70:	00e7cc63          	blt	a5,a4,12f88 <__kernel_rem_pio2f+0x8a4>
   12f74:	f00007d3          	fmv.w.x	fa5,zero
   12f78:	e4e040e3          	bgtz	a4,12db8 <__kernel_rem_pio2f+0x6d4>
   12f7c:	d4071ce3          	bnez	a4,12cd4 <__kernel_rem_pio2f+0x5f0>
   12f80:	d40c06e3          	beqz	s8,12ccc <__kernel_rem_pio2f+0x5e8>
   12f84:	d45ff06f          	j	12cc8 <__kernel_rem_pio2f+0x5e4>
   12f88:	01412703          	lw	a4,20(sp)
   12f8c:	00300793          	li	a5,3
   12f90:	f00007d3          	fmv.w.x	fa5,zero
   12f94:	f2f702e3          	beq	a4,a5,12eb8 <__kernel_rem_pio2f+0x7d4>
   12f98:	d3dff06f          	j	12cd4 <__kernel_rem_pio2f+0x5f0>

00012f9c <__kernel_sinf>:
   12f9c:	e00507d3          	fmv.x.w	a5,fa0
   12fa0:	320006b7          	lui	a3,0x32000
   12fa4:	00179713          	slli	a4,a5,0x1
   12fa8:	00175713          	srli	a4,a4,0x1
   12fac:	00d75663          	bge	a4,a3,12fb8 <__kernel_sinf+0x1c>
   12fb0:	c0051753          	fcvt.w.s	a4,fa0,rtz
   12fb4:	06070863          	beqz	a4,13024 <__kernel_sinf+0x88>
   12fb8:	f00787d3          	fmv.w.x	fa5,a5
   12fbc:	10f7f753          	fmul.s	fa4,fa5,fa5
   12fc0:	49c1a787          	flw	fa5,1180(gp) # 17b74 <__SDATA_BEGIN__+0x58>
   12fc4:	4a01a687          	flw	fa3,1184(gp) # 17b78 <__SDATA_BEGIN__+0x5c>
   12fc8:	68f777c3          	fmadd.s	fa5,fa4,fa5,fa3
   12fcc:	4a41a687          	flw	fa3,1188(gp) # 17b7c <__SDATA_BEGIN__+0x60>
   12fd0:	68e7f7c3          	fmadd.s	fa5,fa5,fa4,fa3
   12fd4:	f00786d3          	fmv.w.x	fa3,a5
   12fd8:	10e6f553          	fmul.s	fa0,fa3,fa4
   12fdc:	4a81a687          	flw	fa3,1192(gp) # 17b80 <__SDATA_BEGIN__+0x64>
   12fe0:	68e7f7c3          	fmadd.s	fa5,fa5,fa4,fa3
   12fe4:	4ac1a687          	flw	fa3,1196(gp) # 17b84 <__SDATA_BEGIN__+0x68>
   12fe8:	68e7f7c3          	fmadd.s	fa5,fa5,fa4,fa3
   12fec:	00051c63          	bnez	a0,13004 <__kernel_sinf+0x68>
   12ff0:	4b01a687          	flw	fa3,1200(gp) # 17b88 <__SDATA_BEGIN__+0x6c>
   12ff4:	68f777c3          	fmadd.s	fa5,fa4,fa5,fa3
   12ff8:	f0078753          	fmv.w.x	fa4,a5
   12ffc:	70a7f543          	fmadd.s	fa0,fa5,fa0,fa4
   13000:	00008067          	ret
   13004:	10f577d3          	fmul.s	fa5,fa0,fa5
   13008:	4581a687          	flw	fa3,1112(gp) # 17b30 <__SDATA_BEGIN__+0x14>
   1300c:	78d5f7c7          	fmsub.s	fa5,fa1,fa3,fa5
   13010:	58e7f5c7          	fmsub.s	fa1,fa5,fa4,fa1
   13014:	4b41a787          	flw	fa5,1204(gp) # 17b8c <__SDATA_BEGIN__+0x70>
   13018:	58f57543          	fmadd.s	fa0,fa0,fa5,fa1
   1301c:	f00787d3          	fmv.w.x	fa5,a5
   13020:	08a7f553          	fsub.s	fa0,fa5,fa0
   13024:	00008067          	ret

00013028 <fabsf>:
   13028:	20a52553          	fabs.s	fa0,fa0
   1302c:	00008067          	ret

00013030 <floorf>:
   13030:	e00507d3          	fmv.x.w	a5,fa0
   13034:	01600613          	li	a2,22
   13038:	00179693          	slli	a3,a5,0x1
   1303c:	0186d713          	srli	a4,a3,0x18
   13040:	f8170713          	addi	a4,a4,-127
   13044:	00078593          	mv	a1,a5
   13048:	0016d693          	srli	a3,a3,0x1
   1304c:	08e64063          	blt	a2,a4,130cc <floorf+0x9c>
   13050:	04074663          	bltz	a4,1309c <floorf+0x6c>
   13054:	00800537          	lui	a0,0x800
   13058:	fff50693          	addi	a3,a0,-1 # 7fffff <__BSS_END__+0x7e8127>
   1305c:	40e6d6b3          	sra	a3,a3,a4
   13060:	00f6f833          	and	a6,a3,a5
   13064:	e0050653          	fmv.x.w	a2,fa0
   13068:	02080663          	beqz	a6,13094 <floorf+0x64>
   1306c:	4bc1a787          	flw	fa5,1212(gp) # 17b94 <__SDATA_BEGIN__+0x78>
   13070:	f0000753          	fmv.w.x	fa4,zero
   13074:	00f577d3          	fadd.s	fa5,fa0,fa5
   13078:	a0f71853          	flt.s	a6,fa4,fa5
   1307c:	00080c63          	beqz	a6,13094 <floorf+0x64>
   13080:	0007d663          	bgez	a5,1308c <floorf+0x5c>
   13084:	40e55733          	sra	a4,a0,a4
   13088:	00f705b3          	add	a1,a4,a5
   1308c:	fff6c693          	not	a3,a3
   13090:	00b6f633          	and	a2,a3,a1
   13094:	f0060553          	fmv.w.x	fa0,a2
   13098:	00008067          	ret
   1309c:	4bc1a787          	flw	fa5,1212(gp) # 17b94 <__SDATA_BEGIN__+0x78>
   130a0:	f0000753          	fmv.w.x	fa4,zero
   130a4:	e0050653          	fmv.x.w	a2,fa0
   130a8:	00f577d3          	fadd.s	fa5,fa0,fa5
   130ac:	a0f71753          	flt.s	a4,fa4,fa5
   130b0:	fe0702e3          	beqz	a4,13094 <floorf+0x64>
   130b4:	e0070653          	fmv.x.w	a2,fa4
   130b8:	fc07dee3          	bgez	a5,13094 <floorf+0x64>
   130bc:	e0050653          	fmv.x.w	a2,fa0
   130c0:	fc068ae3          	beqz	a3,13094 <floorf+0x64>
   130c4:	4b81a603          	lw	a2,1208(gp) # 17b90 <__SDATA_BEGIN__+0x74>
   130c8:	fcdff06f          	j	13094 <floorf+0x64>
   130cc:	7f800737          	lui	a4,0x7f800
   130d0:	e0050653          	fmv.x.w	a2,fa0
   130d4:	fce6e0e3          	bltu	a3,a4,13094 <floorf+0x64>
   130d8:	00a577d3          	fadd.s	fa5,fa0,fa0
   130dc:	e0078653          	fmv.x.w	a2,fa5
   130e0:	f0060553          	fmv.w.x	fa0,a2
   130e4:	00008067          	ret

000130e8 <scalbnf>:
   130e8:	e00507d3          	fmv.x.w	a5,fa0
   130ec:	00179693          	slli	a3,a5,0x1
   130f0:	0016d713          	srli	a4,a3,0x1
   130f4:	04068e63          	beqz	a3,13150 <scalbnf+0x68>
   130f8:	7f8006b7          	lui	a3,0x7f800
   130fc:	04d77e63          	bgeu	a4,a3,13158 <scalbnf+0x70>
   13100:	00d7f633          	and	a2,a5,a3
   13104:	06061263          	bnez	a2,13168 <scalbnf+0x80>
   13108:	4c01a787          	flw	fa5,1216(gp) # 17b98 <__SDATA_BEGIN__+0x7c>
   1310c:	ffff4737          	lui	a4,0xffff4
   13110:	cb070713          	addi	a4,a4,-848 # ffff3cb0 <__BSS_END__+0xfffdbdd8>
   13114:	10f577d3          	fmul.s	fa5,fa0,fa5
   13118:	e00787d3          	fmv.x.w	a5,fa5
   1311c:	0ae54663          	blt	a0,a4,131c8 <scalbnf+0xe0>
   13120:	4177d713          	srai	a4,a5,0x17
   13124:	0ff77713          	andi	a4,a4,255
   13128:	fe770713          	addi	a4,a4,-25
   1312c:	00a70733          	add	a4,a4,a0
   13130:	0fe00613          	li	a2,254
   13134:	00078693          	mv	a3,a5
   13138:	04e65263          	bge	a2,a4,1317c <scalbnf+0x94>
   1313c:	4bc1a707          	flw	fa4,1212(gp) # 17b94 <__SDATA_BEGIN__+0x78>
   13140:	f00787d3          	fmv.w.x	fa5,a5
   13144:	20f707d3          	fsgnj.s	fa5,fa4,fa5
   13148:	10e7f7d3          	fmul.s	fa5,fa5,fa4
   1314c:	e00787d3          	fmv.x.w	a5,fa5
   13150:	f0078553          	fmv.w.x	fa0,a5
   13154:	00008067          	ret
   13158:	00a577d3          	fadd.s	fa5,fa0,fa0
   1315c:	e00787d3          	fmv.x.w	a5,fa5
   13160:	f0078553          	fmv.w.x	fa0,a5
   13164:	00008067          	ret
   13168:	01775713          	srli	a4,a4,0x17
   1316c:	00a70733          	add	a4,a4,a0
   13170:	0fe00613          	li	a2,254
   13174:	00078693          	mv	a3,a5
   13178:	fce642e3          	blt	a2,a4,1313c <scalbnf+0x54>
   1317c:	02e04863          	bgtz	a4,131ac <scalbnf+0xc4>
   13180:	fea00613          	li	a2,-22
   13184:	04c75c63          	bge	a4,a2,131dc <scalbnf+0xf4>
   13188:	0000c737          	lui	a4,0xc
   1318c:	35070713          	addi	a4,a4,848 # c350 <main-0x3d24>
   13190:	faa746e3          	blt	a4,a0,1313c <scalbnf+0x54>
   13194:	4c41a707          	flw	fa4,1220(gp) # 17b9c <__SDATA_BEGIN__+0x80>
   13198:	f00787d3          	fmv.w.x	fa5,a5
   1319c:	20f707d3          	fsgnj.s	fa5,fa4,fa5
   131a0:	10e7f7d3          	fmul.s	fa5,fa5,fa4
   131a4:	e00787d3          	fmv.x.w	a5,fa5
   131a8:	fa9ff06f          	j	13150 <scalbnf+0x68>
   131ac:	808007b7          	lui	a5,0x80800
   131b0:	fff78793          	addi	a5,a5,-1 # 807fffff <__BSS_END__+0x807e8127>
   131b4:	00f6f6b3          	and	a3,a3,a5
   131b8:	01771793          	slli	a5,a4,0x17
   131bc:	00f6e7b3          	or	a5,a3,a5
   131c0:	f0078553          	fmv.w.x	fa0,a5
   131c4:	00008067          	ret
   131c8:	f0078753          	fmv.w.x	fa4,a5
   131cc:	4c41a787          	flw	fa5,1220(gp) # 17b9c <__SDATA_BEGIN__+0x80>
   131d0:	10f777d3          	fmul.s	fa5,fa4,fa5
   131d4:	e00787d3          	fmv.x.w	a5,fa5
   131d8:	f79ff06f          	j	13150 <scalbnf+0x68>
   131dc:	01970793          	addi	a5,a4,25
   131e0:	80800737          	lui	a4,0x80800
   131e4:	fff70713          	addi	a4,a4,-1 # 807fffff <__BSS_END__+0x807e8127>
   131e8:	00e6f6b3          	and	a3,a3,a4
   131ec:	01779793          	slli	a5,a5,0x17
   131f0:	00d7e7b3          	or	a5,a5,a3
   131f4:	f0078753          	fmv.w.x	fa4,a5
   131f8:	4c81a787          	flw	fa5,1224(gp) # 17ba0 <__SDATA_BEGIN__+0x84>
   131fc:	10f777d3          	fmul.s	fa5,fa4,fa5
   13200:	e00787d3          	fmv.x.w	a5,fa5
   13204:	f4dff06f          	j	13150 <scalbnf+0x68>

00013208 <exit>:
   13208:	ff010113          	addi	sp,sp,-16
   1320c:	00000593          	li	a1,0
   13210:	00812423          	sw	s0,8(sp)
   13214:	00112623          	sw	ra,12(sp)
   13218:	00050413          	mv	s0,a0
   1321c:	194000ef          	jal	ra,133b0 <__call_exitprocs>
   13220:	4cc1a503          	lw	a0,1228(gp) # 17ba4 <_global_impure_ptr>
   13224:	03c52783          	lw	a5,60(a0)
   13228:	00078463          	beqz	a5,13230 <exit+0x28>
   1322c:	000780e7          	jalr	a5
   13230:	00040513          	mv	a0,s0
   13234:	3a4000ef          	jal	ra,135d8 <_exit>

00013238 <__libc_init_array>:
   13238:	ff010113          	addi	sp,sp,-16
   1323c:	00812423          	sw	s0,8(sp)
   13240:	01212023          	sw	s2,0(sp)
   13244:	00016437          	lui	s0,0x16
   13248:	00016937          	lui	s2,0x16
   1324c:	6b840793          	addi	a5,s0,1720 # 166b8 <__init_array_start>
   13250:	6b890913          	addi	s2,s2,1720 # 166b8 <__init_array_start>
   13254:	40f90933          	sub	s2,s2,a5
   13258:	00112623          	sw	ra,12(sp)
   1325c:	00912223          	sw	s1,4(sp)
   13260:	40295913          	srai	s2,s2,0x2
   13264:	02090063          	beqz	s2,13284 <__libc_init_array+0x4c>
   13268:	6b840413          	addi	s0,s0,1720
   1326c:	00000493          	li	s1,0
   13270:	00042783          	lw	a5,0(s0)
   13274:	00148493          	addi	s1,s1,1
   13278:	00440413          	addi	s0,s0,4
   1327c:	000780e7          	jalr	a5
   13280:	fe9918e3          	bne	s2,s1,13270 <__libc_init_array+0x38>
   13284:	00016437          	lui	s0,0x16
   13288:	00016937          	lui	s2,0x16
   1328c:	6b840793          	addi	a5,s0,1720 # 166b8 <__init_array_start>
   13290:	6c090913          	addi	s2,s2,1728 # 166c0 <__do_global_dtors_aux_fini_array_entry>
   13294:	40f90933          	sub	s2,s2,a5
   13298:	40295913          	srai	s2,s2,0x2
   1329c:	02090063          	beqz	s2,132bc <__libc_init_array+0x84>
   132a0:	6b840413          	addi	s0,s0,1720
   132a4:	00000493          	li	s1,0
   132a8:	00042783          	lw	a5,0(s0)
   132ac:	00148493          	addi	s1,s1,1
   132b0:	00440413          	addi	s0,s0,4
   132b4:	000780e7          	jalr	a5
   132b8:	fe9918e3          	bne	s2,s1,132a8 <__libc_init_array+0x70>
   132bc:	00c12083          	lw	ra,12(sp)
   132c0:	00812403          	lw	s0,8(sp)
   132c4:	00412483          	lw	s1,4(sp)
   132c8:	00012903          	lw	s2,0(sp)
   132cc:	01010113          	addi	sp,sp,16
   132d0:	00008067          	ret

000132d4 <memset>:
   132d4:	00f00313          	li	t1,15
   132d8:	00050713          	mv	a4,a0
   132dc:	02c37e63          	bgeu	t1,a2,13318 <memset+0x44>
   132e0:	00f77793          	andi	a5,a4,15
   132e4:	0a079063          	bnez	a5,13384 <memset+0xb0>
   132e8:	08059263          	bnez	a1,1336c <memset+0x98>
   132ec:	ff067693          	andi	a3,a2,-16
   132f0:	00f67613          	andi	a2,a2,15
   132f4:	00e686b3          	add	a3,a3,a4
   132f8:	00b72023          	sw	a1,0(a4)
   132fc:	00b72223          	sw	a1,4(a4)
   13300:	00b72423          	sw	a1,8(a4)
   13304:	00b72623          	sw	a1,12(a4)
   13308:	01070713          	addi	a4,a4,16
   1330c:	fed766e3          	bltu	a4,a3,132f8 <memset+0x24>
   13310:	00061463          	bnez	a2,13318 <memset+0x44>
   13314:	00008067          	ret
   13318:	40c306b3          	sub	a3,t1,a2
   1331c:	00269693          	slli	a3,a3,0x2
   13320:	00000297          	auipc	t0,0x0
   13324:	005686b3          	add	a3,a3,t0
   13328:	00c68067          	jr	12(a3) # 7f80000c <__BSS_END__+0x7f7e8134>
   1332c:	00b70723          	sb	a1,14(a4)
   13330:	00b706a3          	sb	a1,13(a4)
   13334:	00b70623          	sb	a1,12(a4)
   13338:	00b705a3          	sb	a1,11(a4)
   1333c:	00b70523          	sb	a1,10(a4)
   13340:	00b704a3          	sb	a1,9(a4)
   13344:	00b70423          	sb	a1,8(a4)
   13348:	00b703a3          	sb	a1,7(a4)
   1334c:	00b70323          	sb	a1,6(a4)
   13350:	00b702a3          	sb	a1,5(a4)
   13354:	00b70223          	sb	a1,4(a4)
   13358:	00b701a3          	sb	a1,3(a4)
   1335c:	00b70123          	sb	a1,2(a4)
   13360:	00b700a3          	sb	a1,1(a4)
   13364:	00b70023          	sb	a1,0(a4)
   13368:	00008067          	ret
   1336c:	0ff5f593          	andi	a1,a1,255
   13370:	00859693          	slli	a3,a1,0x8
   13374:	00d5e5b3          	or	a1,a1,a3
   13378:	01059693          	slli	a3,a1,0x10
   1337c:	00d5e5b3          	or	a1,a1,a3
   13380:	f6dff06f          	j	132ec <memset+0x18>
   13384:	00279693          	slli	a3,a5,0x2
   13388:	00000297          	auipc	t0,0x0
   1338c:	005686b3          	add	a3,a3,t0
   13390:	00008293          	mv	t0,ra
   13394:	fa0680e7          	jalr	-96(a3)
   13398:	00028093          	mv	ra,t0
   1339c:	ff078793          	addi	a5,a5,-16
   133a0:	40f70733          	sub	a4,a4,a5
   133a4:	00f60633          	add	a2,a2,a5
   133a8:	f6c378e3          	bgeu	t1,a2,13318 <memset+0x44>
   133ac:	f3dff06f          	j	132e8 <memset+0x14>

000133b0 <__call_exitprocs>:
   133b0:	fd010113          	addi	sp,sp,-48
   133b4:	01412c23          	sw	s4,24(sp)
   133b8:	4cc1aa03          	lw	s4,1228(gp) # 17ba4 <_global_impure_ptr>
   133bc:	03212023          	sw	s2,32(sp)
   133c0:	02112623          	sw	ra,44(sp)
   133c4:	148a2903          	lw	s2,328(s4)
   133c8:	02812423          	sw	s0,40(sp)
   133cc:	02912223          	sw	s1,36(sp)
   133d0:	01312e23          	sw	s3,28(sp)
   133d4:	01512a23          	sw	s5,20(sp)
   133d8:	01612823          	sw	s6,16(sp)
   133dc:	01712623          	sw	s7,12(sp)
   133e0:	01812423          	sw	s8,8(sp)
   133e4:	04090063          	beqz	s2,13424 <__call_exitprocs+0x74>
   133e8:	00050b13          	mv	s6,a0
   133ec:	00058b93          	mv	s7,a1
   133f0:	00100a93          	li	s5,1
   133f4:	fff00993          	li	s3,-1
   133f8:	00492483          	lw	s1,4(s2)
   133fc:	fff48413          	addi	s0,s1,-1
   13400:	02044263          	bltz	s0,13424 <__call_exitprocs+0x74>
   13404:	00249493          	slli	s1,s1,0x2
   13408:	009904b3          	add	s1,s2,s1
   1340c:	040b8463          	beqz	s7,13454 <__call_exitprocs+0xa4>
   13410:	1044a783          	lw	a5,260(s1)
   13414:	05778063          	beq	a5,s7,13454 <__call_exitprocs+0xa4>
   13418:	fff40413          	addi	s0,s0,-1
   1341c:	ffc48493          	addi	s1,s1,-4
   13420:	ff3416e3          	bne	s0,s3,1340c <__call_exitprocs+0x5c>
   13424:	02c12083          	lw	ra,44(sp)
   13428:	02812403          	lw	s0,40(sp)
   1342c:	02412483          	lw	s1,36(sp)
   13430:	02012903          	lw	s2,32(sp)
   13434:	01c12983          	lw	s3,28(sp)
   13438:	01812a03          	lw	s4,24(sp)
   1343c:	01412a83          	lw	s5,20(sp)
   13440:	01012b03          	lw	s6,16(sp)
   13444:	00c12b83          	lw	s7,12(sp)
   13448:	00812c03          	lw	s8,8(sp)
   1344c:	03010113          	addi	sp,sp,48
   13450:	00008067          	ret
   13454:	00492783          	lw	a5,4(s2)
   13458:	0044a683          	lw	a3,4(s1)
   1345c:	fff78793          	addi	a5,a5,-1
   13460:	04878e63          	beq	a5,s0,134bc <__call_exitprocs+0x10c>
   13464:	0004a223          	sw	zero,4(s1)
   13468:	fa0688e3          	beqz	a3,13418 <__call_exitprocs+0x68>
   1346c:	18892783          	lw	a5,392(s2)
   13470:	008a9733          	sll	a4,s5,s0
   13474:	00492c03          	lw	s8,4(s2)
   13478:	00f777b3          	and	a5,a4,a5
   1347c:	02079263          	bnez	a5,134a0 <__call_exitprocs+0xf0>
   13480:	000680e7          	jalr	a3
   13484:	00492703          	lw	a4,4(s2)
   13488:	148a2783          	lw	a5,328(s4)
   1348c:	01871463          	bne	a4,s8,13494 <__call_exitprocs+0xe4>
   13490:	f92784e3          	beq	a5,s2,13418 <__call_exitprocs+0x68>
   13494:	f80788e3          	beqz	a5,13424 <__call_exitprocs+0x74>
   13498:	00078913          	mv	s2,a5
   1349c:	f5dff06f          	j	133f8 <__call_exitprocs+0x48>
   134a0:	18c92783          	lw	a5,396(s2)
   134a4:	0844a583          	lw	a1,132(s1)
   134a8:	00f77733          	and	a4,a4,a5
   134ac:	00071c63          	bnez	a4,134c4 <__call_exitprocs+0x114>
   134b0:	000b0513          	mv	a0,s6
   134b4:	000680e7          	jalr	a3
   134b8:	fcdff06f          	j	13484 <__call_exitprocs+0xd4>
   134bc:	00892223          	sw	s0,4(s2)
   134c0:	fa9ff06f          	j	13468 <__call_exitprocs+0xb8>
   134c4:	00058513          	mv	a0,a1
   134c8:	000680e7          	jalr	a3
   134cc:	fb9ff06f          	j	13484 <__call_exitprocs+0xd4>

000134d0 <__libc_fini_array>:
   134d0:	ff010113          	addi	sp,sp,-16
   134d4:	00812423          	sw	s0,8(sp)
   134d8:	000167b7          	lui	a5,0x16
   134dc:	00016437          	lui	s0,0x16
   134e0:	6c040413          	addi	s0,s0,1728 # 166c0 <__do_global_dtors_aux_fini_array_entry>
   134e4:	6c478793          	addi	a5,a5,1732 # 166c4 <__fini_array_end>
   134e8:	408787b3          	sub	a5,a5,s0
   134ec:	00912223          	sw	s1,4(sp)
   134f0:	00112623          	sw	ra,12(sp)
   134f4:	4027d493          	srai	s1,a5,0x2
   134f8:	02048063          	beqz	s1,13518 <__libc_fini_array+0x48>
   134fc:	ffc78793          	addi	a5,a5,-4
   13500:	00878433          	add	s0,a5,s0
   13504:	00042783          	lw	a5,0(s0)
   13508:	fff48493          	addi	s1,s1,-1
   1350c:	ffc40413          	addi	s0,s0,-4
   13510:	000780e7          	jalr	a5
   13514:	fe0498e3          	bnez	s1,13504 <__libc_fini_array+0x34>
   13518:	00c12083          	lw	ra,12(sp)
   1351c:	00812403          	lw	s0,8(sp)
   13520:	00412483          	lw	s1,4(sp)
   13524:	01010113          	addi	sp,sp,16
   13528:	00008067          	ret

0001352c <atexit>:
   1352c:	00050593          	mv	a1,a0
   13530:	00000693          	li	a3,0
   13534:	00000613          	li	a2,0
   13538:	00000513          	li	a0,0
   1353c:	0040006f          	j	13540 <__register_exitproc>

00013540 <__register_exitproc>:
   13540:	4cc1a703          	lw	a4,1228(gp) # 17ba4 <_global_impure_ptr>
   13544:	14872783          	lw	a5,328(a4)
   13548:	04078c63          	beqz	a5,135a0 <__register_exitproc+0x60>
   1354c:	0047a703          	lw	a4,4(a5)
   13550:	01f00813          	li	a6,31
   13554:	06e84e63          	blt	a6,a4,135d0 <__register_exitproc+0x90>
   13558:	00271813          	slli	a6,a4,0x2
   1355c:	02050663          	beqz	a0,13588 <__register_exitproc+0x48>
   13560:	01078333          	add	t1,a5,a6
   13564:	08c32423          	sw	a2,136(t1)
   13568:	1887a883          	lw	a7,392(a5)
   1356c:	00100613          	li	a2,1
   13570:	00e61633          	sll	a2,a2,a4
   13574:	00c8e8b3          	or	a7,a7,a2
   13578:	1917a423          	sw	a7,392(a5)
   1357c:	10d32423          	sw	a3,264(t1)
   13580:	00200693          	li	a3,2
   13584:	02d50463          	beq	a0,a3,135ac <__register_exitproc+0x6c>
   13588:	00170713          	addi	a4,a4,1
   1358c:	00e7a223          	sw	a4,4(a5)
   13590:	010787b3          	add	a5,a5,a6
   13594:	00b7a423          	sw	a1,8(a5)
   13598:	00000513          	li	a0,0
   1359c:	00008067          	ret
   135a0:	14c70793          	addi	a5,a4,332
   135a4:	14f72423          	sw	a5,328(a4)
   135a8:	fa5ff06f          	j	1354c <__register_exitproc+0xc>
   135ac:	18c7a683          	lw	a3,396(a5)
   135b0:	00170713          	addi	a4,a4,1
   135b4:	00e7a223          	sw	a4,4(a5)
   135b8:	00c6e633          	or	a2,a3,a2
   135bc:	18c7a623          	sw	a2,396(a5)
   135c0:	010787b3          	add	a5,a5,a6
   135c4:	00b7a423          	sw	a1,8(a5)
   135c8:	00000513          	li	a0,0
   135cc:	00008067          	ret
   135d0:	fff00513          	li	a0,-1
   135d4:	00008067          	ret

000135d8 <_exit>:
   135d8:	05d00893          	li	a7,93
   135dc:	00000073          	ecall
   135e0:	00054463          	bltz	a0,135e8 <_exit+0x10>
   135e4:	0000006f          	j	135e4 <_exit+0xc>
   135e8:	ff010113          	addi	sp,sp,-16
   135ec:	00812423          	sw	s0,8(sp)
   135f0:	00050413          	mv	s0,a0
   135f4:	00112623          	sw	ra,12(sp)
   135f8:	40800433          	neg	s0,s0
   135fc:	00c000ef          	jal	ra,13608 <__errno>
   13600:	00852023          	sw	s0,0(a0)
   13604:	0000006f          	j	13604 <_exit+0x2c>

00013608 <__errno>:
   13608:	4d01a503          	lw	a0,1232(gp) # 17ba8 <_impure_ptr>
   1360c:	00008067          	ret
ELF Header:
  Magic:   7f 45 4c 46 01 01 01 00 00 00 00 00 00 00 00 00 
  Class:                             ELF32
  Data:                              2's complement, little endian
  Version:                           1 (current)
  OS/ABI:                            UNIX - System V
  ABI Version:                       0
  Type:                              EXEC (Executable file)
  Machine:                           RISC-V
  Version:                           0x1
  Entry point address:               0x104d8
  Start of program headers:          52 (bytes into file)
  Start of section headers:          40116 (bytes into file)
  Flags:                             0x2, single-float ABI
  Size of this header:               52 (bytes)
  Size of program headers:           32 (bytes)
  Number of program headers:         2
  Size of section headers:           40 (bytes)
  Number of section headers:         22
  Section header string table index: 21

Section Headers:
  [Nr] Name              Type            Addr     Off    Size   ES Flg Lk Inf Al
  [ 0]                   NULL            00000000 000000 000000 00      0   0  0
  [ 1] .text             PROGBITS        00010074 000074 00359c 00  AX  0   0  4
  [ 2] .rodata           PROGBITS        00013610 003610 001d60 00   A  0   0  4
  [ 3] .eh_frame         PROGBITS        00016370 005370 000348 00  WA  0   0  4
  [ 4] .init_array       INIT_ARRAY      000166b8 0056b8 000008 04  WA  0   0  4
  [ 5] .fini_array       FINI_ARRAY      000166c0 0056c0 000004 04  WA  0   0  4
  [ 6] .data             PROGBITS        000166c8 0056c8 001438 00  WA  0   0  8
  [ 7] .got              PROGBITS        00017b00 006b00 00001c 04  WA  0   0  4
  [ 8] .sdata            PROGBITS        00017b1c 006b1c 000090 00  WA  0   0  4
  [ 9] .bss              NOBITS          00017bac 006bac 00032c 00  WA  0   0  4
  [10] .comment          PROGBITS        00000000 006bac 000012 01  MS  0   0  1
  [11] .riscv.attributes RISCV_ATTRIBUTE 00000000 006bbe 000026 00      0   0  1
  [12] .debug_aranges    PROGBITS        00000000 006be4 000038 00      0   0  1
  [13] .debug_info       PROGBITS        00000000 006c1c 000889 00      0   0  1
  [14] .debug_abbrev     PROGBITS        00000000 0074a5 00020d 00      0   0  1
  [15] .debug_line       PROGBITS        00000000 0076b2 0007a8 00      0   0  1
  [16] .debug_str        PROGBITS        00000000 007e5a 00033f 01  MS  0   0  1
  [17] .debug_loc        PROGBITS        00000000 008199 000bcd 00      0   0  1
  [18] .debug_ranges     PROGBITS        00000000 008d66 0000f8 00      0   0  1
  [19] .symtab           SYMTAB          00000000 008e60 000800 10     20  72  4
  [20] .strtab           STRTAB          00000000 009660 00057c 00      0   0  1
  [21] .shstrtab         STRTAB          00000000 009bdc 0000d6 00      0   0  1
Key to Flags:
  W (write), A (alloc), X (execute), M (merge), S (strings), I (info),
  L (link order), O (extra OS processing required), G (group), T (TLS),
  C (compressed), x (unknown), o (OS specific), E (exclude),
  p (processor specific)

There are no section groups in this file.

Program Headers:
  Type           Offset   VirtAddr   PhysAddr   FileSiz MemSiz  Flg Align
  LOAD           0x000000 0x00010000 0x00010000 0x05370 0x05370 R E 0x1000
  LOAD           0x005370 0x00016370 0x00016370 0x0183c 0x01b68 RW  0x1000

 Section to Segment mapping:
  Segment Sections...
   00     .text .rodata 
   01     .eh_frame .init_array .fini_array .data .got .sdata .bss 

There is no dynamic section in this file.

There are no relocations in this file.

The decoding of unwind sections for machine type RISC-V is not currently supported.

Symbol table '.symtab' contains 128 entries:
   Num:    Value  Size Type    Bind   Vis      Ndx Name
     0: 00000000     0 NOTYPE  LOCAL  DEFAULT  UND 
     1: 00010074     0 SECTION LOCAL  DEFAULT    1 
     2: 00013610     0 SECTION LOCAL  DEFAULT    2 
     3: 00016370     0 SECTION LOCAL  DEFAULT    3 
     4: 000166b8     0 SECTION LOCAL  DEFAULT    4 
     5: 000166c0     0 SECTION LOCAL  DEFAULT    5 
     6: 000166c8     0 SECTION LOCAL  DEFAULT    6 
     7: 00017b00     0 SECTION LOCAL  DEFAULT    7 
     8: 00017b1c     0 SECTION LOCAL  DEFAULT    8 
     9: 00017bac     0 SECTION LOCAL  DEFAULT    9 
    10: 00000000     0 SECTION LOCAL  DEFAULT   10 
    11: 00000000     0 SECTION LOCAL  DEFAULT   11 
    12: 00000000     0 SECTION LOCAL  DEFAULT   12 
    13: 00000000     0 SECTION LOCAL  DEFAULT   13 
    14: 00000000     0 SECTION LOCAL  DEFAULT   14 
    15: 00000000     0 SECTION LOCAL  DEFAULT   15 
    16: 00000000     0 SECTION LOCAL  DEFAULT   16 
    17: 00000000     0 SECTION LOCAL  DEFAULT   17 
    18: 00000000     0 SECTION LOCAL  DEFAULT   18 
    19: 00000000     0 FILE    LOCAL  DEFAULT  ABS gpupipetest.cpp
    20: 00017bc8     4 OBJECT  LOCAL  DEFAULT    9 _ZZ13drawparticlesPsE12sp
    21: 00017bcc     4 OBJECT  LOCAL  DEFAULT    9 _ZZ13drawparticlesPsE5pro
    22: 00000000     0 FILE    LOCAL  DEFAULT  ABS __call_atexit.c
    23: 000104c0    24 FUNC    LOCAL  DEFAULT    1 register_fini
    24: 00000000     0 FILE    LOCAL  DEFAULT  ABS crtstuff.c
    25: 00016370     0 OBJECT  LOCAL  DEFAULT    3 __EH_FRAME_BEGIN__
    26: 00010528     0 FUNC    LOCAL  DEFAULT    1 __do_global_dtors_aux
    27: 00017bac     1 OBJECT  LOCAL  DEFAULT    9 completed.1
    28: 000166c0     0 OBJECT  LOCAL  DEFAULT    5 __do_global_dtors_aux_fin
    29: 00010574     0 FUNC    LOCAL  DEFAULT    1 frame_dummy
    30: 00017bb0    24 OBJECT  LOCAL  DEFAULT    9 object.0
    31: 000166bc     0 OBJECT  LOCAL  DEFAULT    4 __frame_dummy_init_array_
    32: 00000000     0 FILE    LOCAL  DEFAULT  ABS utils.cpp
    33: 0001368c  6144 OBJECT  LOCAL  DEFAULT    2 _ZL4font
    34: 00000000     0 FILE    LOCAL  DEFAULT  ABS console.cpp
    35: 00017bd0   768 OBJECT  LOCAL  DEFAULT    9 _ZL11consoleText
    36: 00017ed0     4 OBJECT  LOCAL  DEFAULT    9 _ZL7cursorx
    37: 00017ed4     4 OBJECT  LOCAL  DEFAULT    9 _ZL7cursory
    38: 00000000     0 FILE    LOCAL  DEFAULT  ABS libgcc2.c
    39: 00000000     0 FILE    LOCAL  DEFAULT  ABS sf_cos.c
    40: 00000000     0 FILE    LOCAL  DEFAULT  ABS sf_sin.c
    41: 00000000     0 FILE    LOCAL  DEFAULT  ABS ef_rem_pio2.c
    42: 00014fa0   128 OBJECT  LOCAL  DEFAULT    2 npio2_hw
    43: 00015020   792 OBJECT  LOCAL  DEFAULT    2 two_over_pi
    44: 00000000     0 FILE    LOCAL  DEFAULT  ABS kf_cos.c
    45: 00000000     0 FILE    LOCAL  DEFAULT  ABS kf_rem_pio2.c
    46: 00015338    12 OBJECT  LOCAL  DEFAULT    2 init_jk
    47: 00015344    44 OBJECT  LOCAL  DEFAULT    2 PIo2
    48: 00000000     0 FILE    LOCAL  DEFAULT  ABS kf_sin.c
    49: 00000000     0 FILE    LOCAL  DEFAULT  ABS sf_fabs.c
    50: 00000000     0 FILE    LOCAL  DEFAULT  ABS sf_floor.c
    51: 00000000     0 FILE    LOCAL  DEFAULT  ABS sf_scalbn.c
    52: 00000000     0 FILE    LOCAL  DEFAULT  ABS exit.c
    53: 00000000     0 FILE    LOCAL  DEFAULT  ABS init.c
    54: 00000000     0 FILE    LOCAL  DEFAULT  ABS fini.c
    55: 00000000     0 FILE    LOCAL  DEFAULT  ABS atexit.c
    56: 00000000     0 FILE    LOCAL  DEFAULT  ABS __atexit.c
    57: 00000000     0 FILE    LOCAL  DEFAULT  ABS sys_exit.c
    58: 00000000     0 FILE    LOCAL  DEFAULT  ABS errno.c
    59: 00000000     0 FILE    LOCAL  DEFAULT  ABS libgcc2.c
    60: 00000000     0 FILE    LOCAL  DEFAULT  ABS crtstuff.c
    61: 000166b4     0 OBJECT  LOCAL  DEFAULT    3 __FRAME_END__
    62: 00000000     0 FILE    LOCAL  DEFAULT  ABS impure.c
    63: 000176d8  1064 OBJECT  LOCAL  DEFAULT    6 impure_data
    64: 00000000     0 FILE    LOCAL  DEFAULT  ABS 
    65: 000166c4     0 NOTYPE  LOCAL  DEFAULT    5 __fini_array_end
    66: 000166c0     0 NOTYPE  LOCAL  DEFAULT    5 __fini_array_start
    67: 000166c0     0 NOTYPE  LOCAL  DEFAULT    4 __init_array_end
    68: 000166b8     0 NOTYPE  LOCAL  DEFAULT    4 __preinit_array_end
    69: 00017b08     0 OBJECT  LOCAL  DEFAULT    7 _GLOBAL_OFFSET_TABLE_
    70: 000166b8     0 NOTYPE  LOCAL  DEFAULT    4 __init_array_start
    71: 000166b8     0 NOTYPE  LOCAL  DEFAULT    4 __preinit_array_start
    72: 000105c8   468 FUNC    GLOBAL DEFAULT    1 _Z8drawrectfff
    73: 000176d8     0 NOTYPE  GLOBAL DEFAULT  ABS __global_pointer$
    74: 00013608     8 FUNC    GLOBAL DEFAULT    1 __errno
    75: 00012314   720 FUNC    GLOBAL DEFAULT    1 __ieee754_rem_pio2f
    76: 00010b30   928 FUNC    GLOBAL DEFAULT    1 _Z8PrintDMAiiPKcb
    77: 00017b1c     0 NOTYPE  GLOBAL DEFAULT    8 __SDATA_BEGIN__
    78: 00011640   336 FUNC    GLOBAL DEFAULT    1 _Z7EchoIntm
    79: 000176c8     4 OBJECT  GLOBAL DEFAULT    6 GPUFIFO
    80: 000118c0    20 FUNC    GLOBAL DEFAULT    1 _Z16SetConsoleCursorii
    81: 00011790    44 FUNC    GLOBAL DEFAULT    1 _Z6Randomv
    82: 00011d3c    96 FUNC    GLOBAL DEFAULT    1 _Z11DrawConsolev
    83: 00010594    52 FUNC    GLOBAL DEFAULT    1 _Z4ssini
    84: 00011880    64 FUNC    GLOBAL DEFAULT    1 _Z15ClearConsoleRowv
    85: 00013028     8 FUNC    GLOBAL DEFAULT    1 fabsf
    86: 00017ba4     4 OBJECT  GLOBAL DEFAULT    8 _global_impure_ptr
    87: 00013238   156 FUNC    GLOBAL DEFAULT    1 __libc_init_array
    88: 00012f9c   140 FUNC    GLOBAL DEFAULT    1 __kernel_sinf
    89: 000117bc    12 FUNC    GLOBAL DEFAULT    1 _Z9ReadClockv
    90: 000117c8    36 FUNC    GLOBAL DEFAULT    1 _Z9ClockToMsy
    91: 00011d9c  1076 FUNC    GLOBAL HIDDEN     1 __udivdi3
    92: 000121d0   160 FUNC    GLOBAL DEFAULT    1 cosf
    93: 00011830    80 FUNC    GLOBAL DEFAULT    1 _Z12ClearConsolev
    94: 000134d0    92 FUNC    GLOBAL DEFAULT    1 __libc_fini_array
    95: 000125e4   256 FUNC    GLOBAL DEFAULT    1 __kernel_cosf
    96: 000133b0   288 FUNC    GLOBAL DEFAULT    1 __call_exitprocs
    97: 000104d8    80 FUNC    GLOBAL DEFAULT    1 _start
    98: 000117ec    68 FUNC    GLOBAL DEFAULT    1 _Z12ClockMsToHMSmRmS_S_
    99: 00013540   152 FUNC    GLOBAL DEFAULT    1 __register_exitproc
   100: 000118d4   116 FUNC    GLOBAL DEFAULT    1 _Z13ScrollConsolev
   101: 000176d0     4 OBJECT  GLOBAL DEFAULT    6 seed
   102: 00017ed8     0 NOTYPE  GLOBAL DEFAULT    9 __BSS_END__
   103: 000130e8   288 FUNC    GLOBAL DEFAULT    1 scalbnf
   104: 00017bac     0 NOTYPE  GLOBAL DEFAULT    9 __bss_start
   105: 00011a58   740 FUNC    GLOBAL DEFAULT    1 _Z11EchoConsolel
   106: 000132d4   220 FUNC    GLOBAL DEFAULT    1 memset
   107: 00010074  1100 FUNC    GLOBAL DEFAULT    1 main
   108: 0001079c   116 FUNC    GLOBAL DEFAULT    1 _Z14resetparticlesPs
   109: 00011350   700 FUNC    GLOBAL DEFAULT    1 _Z15PrintDMADecimaliim
   110: 00014ea0   256 OBJECT  GLOBAL HIDDEN     2 __clz_tab
   111: 0001352c    20 FUNC    GLOBAL DEFAULT    1 atexit
   112: 00017ba8     4 OBJECT  GLOBAL DEFAULT    8 _impure_ptr
   113: 00011258   248 FUNC    GLOBAL DEFAULT    1 _Z11PrintDMAHexiim
   114: 000166c8  4096 OBJECT  GLOBAL DEFAULT    6 sinewave
   115: 00012270   164 FUNC    GLOBAL DEFAULT    1 sinf
   116: 000166c8     0 NOTYPE  GLOBAL DEFAULT    6 __DATA_BEGIN__
   117: 0001160c    52 FUNC    GLOBAL DEFAULT    1 _Z8EchoUARTPKc
   118: 00010ed0   904 FUNC    GLOBAL DEFAULT    1 _Z8PrintDMAiiiPKcb
   119: 00017bac     0 NOTYPE  GLOBAL DEFAULT    8 _edata
   120: 00017ed8     0 NOTYPE  GLOBAL DEFAULT    9 _end
   121: 00013208    48 FUNC    GLOBAL DEFAULT    1 exit
   122: 00010810   800 FUNC    GLOBAL DEFAULT    1 _Z13drawparticlesPs
   123: 000135d8    48 FUNC    GLOBAL DEFAULT    1 _exit
   124: 000126e4  2232 FUNC    GLOBAL DEFAULT    1 __kernel_rem_pio2f
   125: 00013030   184 FUNC    GLOBAL DEFAULT    1 floorf
   126: 000176cc     4 OBJECT  GLOBAL DEFAULT    6 UARTTX
   127: 00011948   272 FUNC    GLOBAL DEFAULT    1 _Z11EchoConsolePKc

No version information found in this file.
Attribute Section: riscv
File Attributes
  Tag_RISCV_stack_align: 16-bytes
  Tag_RISCV_arch: "rv32i2p0_m2p0_f2p0"
