
gpupipetest.elf:     file format elf32-littleriscv


Disassembly of section .text:

00010074 <main>:
   10074:	fb010113          	addi	sp,sp,-80
   10078:	04912223          	sw	s1,68(sp)
   1007c:	00005497          	auipc	s1,0x5
   10080:	8c84a483          	lw	s1,-1848(s1) # 14944 <_GLOBAL_OFFSET_TABLE_+0x4>
   10084:	0004a783          	lw	a5,0(s1)
   10088:	05212023          	sw	s2,64(sp)
   1008c:	03512a23          	sw	s5,52(sp)
   10090:	03612823          	sw	s6,48(sp)
   10094:	03712623          	sw	s7,44(sp)
   10098:	03812423          	sw	s8,40(sp)
   1009c:	03912223          	sw	s9,36(sp)
   100a0:	04112623          	sw	ra,76(sp)
   100a4:	04812423          	sw	s0,72(sp)
   100a8:	03312e23          	sw	s3,60(sp)
   100ac:	03412c23          	sw	s4,56(sp)
   100b0:	03a12023          	sw	s10,32(sp)
   100b4:	01b12e23          	sw	s11,28(sp)
   100b8:	08100713          	li	a4,129
   100bc:	00e7a023          	sw	a4,0(a5)
   100c0:	09100713          	li	a4,145
   100c4:	00e7a223          	sw	a4,4(a5)
   100c8:	01300713          	li	a4,19
   100cc:	00e7aa23          	sw	a4,20(a5)
   100d0:	00200793          	li	a5,2
   100d4:	00f12623          	sw	a5,12(sp)
   100d8:	00001b37          	lui	s6,0x1
   100dc:	00300793          	li	a5,3
   100e0:	00012223          	sw	zero,4(sp)
   100e4:	00500c93          	li	s9,5
   100e8:	00500c13          	li	s8,5
   100ec:	00000b93          	li	s7,0
   100f0:	00f12423          	sw	a5,8(sp)
   100f4:	00200913          	li	s2,2
   100f8:	00100a93          	li	s5,1
   100fc:	800b0b13          	addi	s6,s6,-2048 # 800 <main-0xf874>
   10100:	0af00793          	li	a5,175
   10104:	0197f863          	bgeu	a5,s9,10114 <main+0xa0>
   10108:	00c12783          	lw	a5,12(sp)
   1010c:	40f007b3          	neg	a5,a5
   10110:	00f12623          	sw	a5,12(sp)
   10114:	00812783          	lw	a5,8(sp)
   10118:	07c00613          	li	a2,124
   1011c:	00000d93          	li	s11,0
   10120:	00fc0c33          	add	s8,s8,a5
   10124:	00c12783          	lw	a5,12(sp)
   10128:	000c0513          	mv	a0,s8
   1012c:	0ad00a13          	li	s4,173
   10130:	00fc8cb3          	add	s9,s9,a5
   10134:	000c8593          	mv	a1,s9
   10138:	2ac000ef          	jal	ra,103e4 <_Z8drawrectiih>
   1013c:	0ffbf693          	andi	a3,s7,255
   10140:	01069593          	slli	a1,a3,0x10
   10144:	fffbc793          	not	a5,s7
   10148:	018b9713          	slli	a4,s7,0x18
   1014c:	0ff7f613          	andi	a2,a5,255
   10150:	00b76733          	or	a4,a4,a1
   10154:	00d76733          	or	a4,a4,a3
   10158:	01061513          	slli	a0,a2,0x10
   1015c:	00869693          	slli	a3,a3,0x8
   10160:	01879793          	slli	a5,a5,0x18
   10164:	0004a583          	lw	a1,0(s1)
   10168:	00d76733          	or	a4,a4,a3
   1016c:	00a7e7b3          	or	a5,a5,a0
   10170:	00a71693          	slli	a3,a4,0xa
   10174:	00c7e7b3          	or	a5,a5,a2
   10178:	01675713          	srli	a4,a4,0x16
   1017c:	00861613          	slli	a2,a2,0x8
   10180:	00c7e7b3          	or	a5,a5,a2
   10184:	1016e693          	ori	a3,a3,257
   10188:	00a71713          	slli	a4,a4,0xa
   1018c:	00d5a023          	sw	a3,0(a1)
   10190:	12176713          	ori	a4,a4,289
   10194:	00a79693          	slli	a3,a5,0xa
   10198:	00412d03          	lw	s10,4(sp)
   1019c:	0167d793          	srli	a5,a5,0x16
   101a0:	00e5a223          	sw	a4,4(a1)
   101a4:	00a79793          	slli	a5,a5,0xa
   101a8:	1816e713          	ori	a4,a3,385
   101ac:	00e5a023          	sw	a4,0(a1)
   101b0:	1b17e793          	ori	a5,a5,433
   101b4:	00f5a223          	sw	a5,4(a1)
   101b8:	000d0413          	mv	s0,s10
   101bc:	00300993          	li	s3,3
   101c0:	000d0513          	mv	a0,s10
   101c4:	1ec000ef          	jal	ra,103b0 <_Z4ssini>
   101c8:	034547b3          	div	a5,a0,s4
   101cc:	0fffc8b7          	lui	a7,0xfffc
   101d0:	0004a803          	lw	a6,0(s1)
   101d4:	10000513          	li	a0,256
   101d8:	000026b7          	lui	a3,0x2
   101dc:	002d0d13          	addi	s10,s10,2
   101e0:	06078793          	addi	a5,a5,96
   101e4:	00879793          	slli	a5,a5,0x8
   101e8:	01b787b3          	add	a5,a5,s11
   101ec:	0037f613          	andi	a2,a5,3
   101f0:	0027d793          	srli	a5,a5,0x2
   101f4:	00e79793          	slli	a5,a5,0xe
   101f8:	001d8d93          	addi	s11,s11,1
   101fc:	0117f7b3          	and	a5,a5,a7
   10200:	01360c63          	beq	a2,s3,10218 <main+0x1a4>
   10204:	000016b7          	lui	a3,0x1
   10208:	01260863          	beq	a2,s2,10218 <main+0x1a4>
   1020c:	40000693          	li	a3,1024
   10210:	01561463          	bne	a2,s5,10218 <main+0x1a4>
   10214:	000b0693          	mv	a3,s6
   10218:	00d7e7b3          	or	a5,a5,a3
   1021c:	0227e793          	ori	a5,a5,34
   10220:	00f82423          	sw	a5,8(a6)
   10224:	f8ad9ee3          	bne	s11,a0,101c0 <main+0x14c>
   10228:	00000d93          	li	s11,0
   1022c:	08200a13          	li	s4,130
   10230:	00300993          	li	s3,3
   10234:	00040513          	mv	a0,s0
   10238:	178000ef          	jal	ra,103b0 <_Z4ssini>
   1023c:	03454533          	div	a0,a0,s4
   10240:	0004a803          	lw	a6,0(s1)
   10244:	0000c5b7          	lui	a1,0xc
   10248:	000026b7          	lui	a3,0x2
   1024c:	00340413          	addi	s0,s0,3
   10250:	08050513          	addi	a0,a0,128
   10254:	01b50533          	add	a0,a0,s11
   10258:	00255793          	srli	a5,a0,0x2
   1025c:	00357613          	andi	a2,a0,3
   10260:	00e79793          	slli	a5,a5,0xe
   10264:	0fffc537          	lui	a0,0xfffc
   10268:	100d8d93          	addi	s11,s11,256
   1026c:	00a7f7b3          	and	a5,a5,a0
   10270:	01360c63          	beq	a2,s3,10288 <main+0x214>
   10274:	000016b7          	lui	a3,0x1
   10278:	01260863          	beq	a2,s2,10288 <main+0x214>
   1027c:	40000693          	li	a3,1024
   10280:	01561463          	bne	a2,s5,10288 <main+0x214>
   10284:	000b0693          	mv	a3,s6
   10288:	00d7e7b3          	or	a5,a5,a3
   1028c:	0327e793          	ori	a5,a5,50
   10290:	00f82423          	sw	a5,8(a6)
   10294:	fabd90e3          	bne	s11,a1,10234 <main+0x1c0>
   10298:	00000693          	li	a3,0
   1029c:	00001617          	auipc	a2,0x1
   102a0:	9b060613          	addi	a2,a2,-1616 # 10c4c <__errno+0x8>
   102a4:	06000593          	li	a1,96
   102a8:	03000513          	li	a0,48
   102ac:	1d8000ef          	jal	ra,10484 <_Z8PrintDMAiiPKcb>
   102b0:	00412703          	lw	a4,4(sp)
   102b4:	0ef00793          	li	a5,239
   102b8:	001b8b93          	addi	s7,s7,1
   102bc:	01a70713          	addi	a4,a4,26
   102c0:	00e12223          	sw	a4,4(sp)
   102c4:	e387fee3          	bgeu	a5,s8,10100 <main+0x8c>
   102c8:	00812783          	lw	a5,8(sp)
   102cc:	40f007b3          	neg	a5,a5
   102d0:	00f12423          	sw	a5,8(sp)
   102d4:	e2dff06f          	j	10100 <main+0x8c>

000102d8 <register_fini>:
   102d8:	00000793          	li	a5,0
   102dc:	00078863          	beqz	a5,102ec <register_fini+0x14>
   102e0:	00011537          	lui	a0,0x11
   102e4:	b0c50513          	addi	a0,a0,-1268 # 10b0c <__libc_fini_array>
   102e8:	0810006f          	j	10b68 <atexit>
   102ec:	00008067          	ret

000102f0 <_start>:
   102f0:	00004197          	auipc	gp,0x4
   102f4:	e8018193          	addi	gp,gp,-384 # 14170 <__global_pointer$>
   102f8:	7e418513          	addi	a0,gp,2020 # 14954 <completed.1>
   102fc:	00004617          	auipc	a2,0x4
   10300:	67460613          	addi	a2,a2,1652 # 14970 <__BSS_END__>
   10304:	40a60633          	sub	a2,a2,a0
   10308:	00000593          	li	a1,0
   1030c:	604000ef          	jal	ra,10910 <memset>
   10310:	00001517          	auipc	a0,0x1
   10314:	85850513          	addi	a0,a0,-1960 # 10b68 <atexit>
   10318:	00050863          	beqz	a0,10328 <_start+0x38>
   1031c:	00000517          	auipc	a0,0x0
   10320:	7f050513          	addi	a0,a0,2032 # 10b0c <__libc_fini_array>
   10324:	045000ef          	jal	ra,10b68 <atexit>
   10328:	54c000ef          	jal	ra,10874 <__libc_init_array>
   1032c:	00012503          	lw	a0,0(sp)
   10330:	00410593          	addi	a1,sp,4
   10334:	00000613          	li	a2,0
   10338:	d3dff0ef          	jal	ra,10074 <main>
   1033c:	5080006f          	j	10844 <exit>

00010340 <__do_global_dtors_aux>:
   10340:	7e41c703          	lbu	a4,2020(gp) # 14954 <completed.1>
   10344:	04071263          	bnez	a4,10388 <__do_global_dtors_aux+0x48>
   10348:	ff010113          	addi	sp,sp,-16
   1034c:	00812423          	sw	s0,8(sp)
   10350:	00078413          	mv	s0,a5
   10354:	00112623          	sw	ra,12(sp)
   10358:	00000793          	li	a5,0
   1035c:	00078a63          	beqz	a5,10370 <__do_global_dtors_aux+0x30>
   10360:	00013537          	lui	a0,0x13
   10364:	46050513          	addi	a0,a0,1120 # 13460 <__EH_FRAME_BEGIN__>
   10368:	00000097          	auipc	ra,0x0
   1036c:	000000e7          	jalr	zero # 0 <main-0x10074>
   10370:	00100793          	li	a5,1
   10374:	00c12083          	lw	ra,12(sp)
   10378:	7ef18223          	sb	a5,2020(gp) # 14954 <completed.1>
   1037c:	00812403          	lw	s0,8(sp)
   10380:	01010113          	addi	sp,sp,16
   10384:	00008067          	ret
   10388:	00008067          	ret

0001038c <frame_dummy>:
   1038c:	00000793          	li	a5,0
   10390:	00078e63          	beqz	a5,103ac <frame_dummy+0x20>
   10394:	000155b7          	lui	a1,0x15
   10398:	00013537          	lui	a0,0x13
   1039c:	95858593          	addi	a1,a1,-1704 # 14958 <object.0>
   103a0:	46050513          	addi	a0,a0,1120 # 13460 <__EH_FRAME_BEGIN__>
   103a4:	00000317          	auipc	t1,0x0
   103a8:	00000067          	jr	zero # 0 <main-0x10074>
   103ac:	00008067          	ret

000103b0 <_Z4ssini>:
   103b0:	41f55793          	srai	a5,a0,0x1f
   103b4:	0167d793          	srli	a5,a5,0x16
   103b8:	00f50533          	add	a0,a0,a5
   103bc:	3ff57513          	andi	a0,a0,1023
   103c0:	40f50533          	sub	a0,a0,a5
   103c4:	00251513          	slli	a0,a0,0x2
   103c8:	00004797          	auipc	a5,0x4
   103cc:	5807a783          	lw	a5,1408(a5) # 14948 <_GLOBAL_OFFSET_TABLE_+0x8>
   103d0:	00a78533          	add	a0,a5,a0
   103d4:	00052783          	lw	a5,0(a0)
   103d8:	ffffc537          	lui	a0,0xffffc
   103dc:	00f50533          	add	a0,a0,a5
   103e0:	00008067          	ret

000103e4 <_Z8drawrectiih>:
   103e4:	00010837          	lui	a6,0x10
   103e8:	fff80813          	addi	a6,a6,-1 # ffff <main-0x75>
   103ec:	00859793          	slli	a5,a1,0x8
   103f0:	00f50693          	addi	a3,a0,15 # ffffc00f <__BSS_END__+0xfffe769f>
   103f4:	0107f7b3          	and	a5,a5,a6
   103f8:	0ff57513          	andi	a0,a0,255
   103fc:	01859713          	slli	a4,a1,0x18
   10400:	00a7e7b3          	or	a5,a5,a0
   10404:	00e7e7b3          	or	a5,a5,a4
   10408:	01069513          	slli	a0,a3,0x10
   1040c:	00ff0737          	lui	a4,0xff0
   10410:	00f58593          	addi	a1,a1,15
   10414:	00e57533          	and	a0,a0,a4
   10418:	00859593          	slli	a1,a1,0x8
   1041c:	00004717          	auipc	a4,0x4
   10420:	52872703          	lw	a4,1320(a4) # 14944 <_GLOBAL_OFFSET_TABLE_+0x4>
   10424:	00072703          	lw	a4,0(a4)
   10428:	00a7e7b3          	or	a5,a5,a0
   1042c:	0ff6f693          	andi	a3,a3,255
   10430:	0105f5b3          	and	a1,a1,a6
   10434:	00d5e5b3          	or	a1,a1,a3
   10438:	01061613          	slli	a2,a2,0x10
   1043c:	00a79693          	slli	a3,a5,0xa
   10440:	0167d793          	srli	a5,a5,0x16
   10444:	00c5e633          	or	a2,a1,a2
   10448:	2016e693          	ori	a3,a3,513
   1044c:	00a79793          	slli	a5,a5,0xa
   10450:	00d72023          	sw	a3,0(a4)
   10454:	2417e793          	ori	a5,a5,577
   10458:	00a61693          	slli	a3,a2,0xa
   1045c:	01665613          	srli	a2,a2,0x16
   10460:	00f72223          	sw	a5,4(a4)
   10464:	00a61613          	slli	a2,a2,0xa
   10468:	2816e793          	ori	a5,a3,641
   1046c:	00f72423          	sw	a5,8(a4)
   10470:	2d166613          	ori	a2,a2,721
   10474:	00c72623          	sw	a2,12(a4)
   10478:	2c500793          	li	a5,709
   1047c:	00f72823          	sw	a5,16(a4)
   10480:	00008067          	ret

00010484 <_Z8PrintDMAiiPKcb>:
   10484:	00064703          	lbu	a4,0(a2)
   10488:	0a070263          	beqz	a4,1052c <_Z8PrintDMAiiPKcb+0xa8>
   1048c:	00004797          	auipc	a5,0x4
   10490:	4b87a783          	lw	a5,1208(a5) # 14944 <_GLOBAL_OFFSET_TABLE_+0x4>
   10494:	00d03833          	snez	a6,a3
   10498:	00158393          	addi	t2,a1,1
   1049c:	00859693          	slli	a3,a1,0x8
   104a0:	00258293          	addi	t0,a1,2
   104a4:	00358f93          	addi	t6,a1,3
   104a8:	00458f13          	addi	t5,a1,4
   104ac:	00558e93          	addi	t4,a1,5
   104b0:	00658e13          	addi	t3,a1,6
   104b4:	00758313          	addi	t1,a1,7
   104b8:	0007a783          	lw	a5,0(a5)
   104bc:	000015b7          	lui	a1,0x1
   104c0:	ac458593          	addi	a1,a1,-1340 # ac4 <main-0xf5b0>
   104c4:	01881813          	slli	a6,a6,0x18
   104c8:	00839393          	slli	t2,t2,0x8
   104cc:	00829293          	slli	t0,t0,0x8
   104d0:	008f9f93          	slli	t6,t6,0x8
   104d4:	008f1f13          	slli	t5,t5,0x8
   104d8:	008e9e93          	slli	t4,t4,0x8
   104dc:	008e1e13          	slli	t3,t3,0x8
   104e0:	00831313          	slli	t1,t1,0x8
   104e4:	00b86833          	or	a6,a6,a1
   104e8:	00160893          	addi	a7,a2,1
   104ec:	00d505b3          	add	a1,a0,a3
   104f0:	40d383b3          	sub	t2,t2,a3
   104f4:	00000517          	auipc	a0,0x0
   104f8:	76c50513          	addi	a0,a0,1900 # 10c60 <_ZL4font>
   104fc:	40d282b3          	sub	t0,t0,a3
   10500:	40df8fb3          	sub	t6,t6,a3
   10504:	40df0f33          	sub	t5,t5,a3
   10508:	40de8eb3          	sub	t4,t4,a3
   1050c:	40de0e33          	sub	t3,t3,a3
   10510:	40d30333          	sub	t1,t1,a3
   10514:	fe070713          	addi	a4,a4,-32
   10518:	00075c63          	bgez	a4,10530 <_Z8PrintDMAiiPKcb+0xac>
   1051c:	0008c703          	lbu	a4,0(a7) # fffc000 <__BSS_END__+0xffe7690>
   10520:	00858593          	addi	a1,a1,8
   10524:	00188893          	addi	a7,a7,1
   10528:	fe0716e3          	bnez	a4,10514 <_Z8PrintDMAiiPKcb+0x90>
   1052c:	00008067          	ret
   10530:	ff010113          	addi	sp,sp,-16
   10534:	00812623          	sw	s0,12(sp)
   10538:	00912423          	sw	s1,8(sp)
   1053c:	01212223          	sw	s2,4(sp)
   10540:	40575413          	srai	s0,a4,0x5
   10544:	01f77713          	andi	a4,a4,31
   10548:	00371693          	slli	a3,a4,0x3
   1054c:	00b41613          	slli	a2,s0,0xb
   10550:	00d60633          	add	a2,a2,a3
   10554:	00a60633          	add	a2,a2,a0
   10558:	00341713          	slli	a4,s0,0x3
   1055c:	00265913          	srli	s2,a2,0x2
   10560:	01865413          	srli	s0,a2,0x18
   10564:	00a91913          	slli	s2,s2,0xa
   10568:	00170613          	addi	a2,a4,1
   1056c:	4025d493          	srai	s1,a1,0x2
   10570:	20196913          	ori	s2,s2,513
   10574:	00a41413          	slli	s0,s0,0xa
   10578:	00861613          	slli	a2,a2,0x8
   1057c:	0127a023          	sw	s2,0(a5)
   10580:	24146413          	ori	s0,s0,577
   10584:	00a49913          	slli	s2,s1,0xa
   10588:	00d60633          	add	a2,a2,a3
   1058c:	0164d493          	srli	s1,s1,0x16
   10590:	0087a223          	sw	s0,4(a5)
   10594:	00a60633          	add	a2,a2,a0
   10598:	28196413          	ori	s0,s2,641
   1059c:	00a49493          	slli	s1,s1,0xa
   105a0:	0087a423          	sw	s0,8(a5)
   105a4:	2d14e493          	ori	s1,s1,721
   105a8:	00265913          	srli	s2,a2,0x2
   105ac:	0097a623          	sw	s1,12(a5)
   105b0:	01865413          	srli	s0,a2,0x18
   105b4:	00b384b3          	add	s1,t2,a1
   105b8:	00270613          	addi	a2,a4,2
   105bc:	00a91913          	slli	s2,s2,0xa
   105c0:	0107a823          	sw	a6,16(a5)
   105c4:	4024d493          	srai	s1,s1,0x2
   105c8:	20196913          	ori	s2,s2,513
   105cc:	00a41413          	slli	s0,s0,0xa
   105d0:	00861613          	slli	a2,a2,0x8
   105d4:	0127a023          	sw	s2,0(a5)
   105d8:	24146413          	ori	s0,s0,577
   105dc:	00a49913          	slli	s2,s1,0xa
   105e0:	00d60633          	add	a2,a2,a3
   105e4:	0164d493          	srli	s1,s1,0x16
   105e8:	0087a223          	sw	s0,4(a5)
   105ec:	00a60633          	add	a2,a2,a0
   105f0:	28196413          	ori	s0,s2,641
   105f4:	00a49493          	slli	s1,s1,0xa
   105f8:	0087a423          	sw	s0,8(a5)
   105fc:	2d14e493          	ori	s1,s1,721
   10600:	00265913          	srli	s2,a2,0x2
   10604:	0097a623          	sw	s1,12(a5)
   10608:	01865413          	srli	s0,a2,0x18
   1060c:	00b284b3          	add	s1,t0,a1
   10610:	00370613          	addi	a2,a4,3
   10614:	00a91913          	slli	s2,s2,0xa
   10618:	0107a823          	sw	a6,16(a5)
   1061c:	4024d493          	srai	s1,s1,0x2
   10620:	20196913          	ori	s2,s2,513
   10624:	00a41413          	slli	s0,s0,0xa
   10628:	00861613          	slli	a2,a2,0x8
   1062c:	0127a023          	sw	s2,0(a5)
   10630:	24146413          	ori	s0,s0,577
   10634:	00a49913          	slli	s2,s1,0xa
   10638:	00d60633          	add	a2,a2,a3
   1063c:	0164d493          	srli	s1,s1,0x16
   10640:	0087a223          	sw	s0,4(a5)
   10644:	00a60633          	add	a2,a2,a0
   10648:	28196413          	ori	s0,s2,641
   1064c:	00a49493          	slli	s1,s1,0xa
   10650:	0087a423          	sw	s0,8(a5)
   10654:	2d14e493          	ori	s1,s1,721
   10658:	00265913          	srli	s2,a2,0x2
   1065c:	0097a623          	sw	s1,12(a5)
   10660:	01865413          	srli	s0,a2,0x18
   10664:	00bf84b3          	add	s1,t6,a1
   10668:	00470613          	addi	a2,a4,4
   1066c:	00a91913          	slli	s2,s2,0xa
   10670:	0107a823          	sw	a6,16(a5)
   10674:	4024d493          	srai	s1,s1,0x2
   10678:	20196913          	ori	s2,s2,513
   1067c:	00a41413          	slli	s0,s0,0xa
   10680:	00861613          	slli	a2,a2,0x8
   10684:	0127a023          	sw	s2,0(a5)
   10688:	24146413          	ori	s0,s0,577
   1068c:	00a49913          	slli	s2,s1,0xa
   10690:	00d60633          	add	a2,a2,a3
   10694:	0164d493          	srli	s1,s1,0x16
   10698:	0087a223          	sw	s0,4(a5)
   1069c:	00a60633          	add	a2,a2,a0
   106a0:	28196413          	ori	s0,s2,641
   106a4:	00a49493          	slli	s1,s1,0xa
   106a8:	0087a423          	sw	s0,8(a5)
   106ac:	2d14e493          	ori	s1,s1,721
   106b0:	00265913          	srli	s2,a2,0x2
   106b4:	0097a623          	sw	s1,12(a5)
   106b8:	01865413          	srli	s0,a2,0x18
   106bc:	00bf04b3          	add	s1,t5,a1
   106c0:	00570613          	addi	a2,a4,5
   106c4:	00a91913          	slli	s2,s2,0xa
   106c8:	0107a823          	sw	a6,16(a5)
   106cc:	4024d493          	srai	s1,s1,0x2
   106d0:	20196913          	ori	s2,s2,513
   106d4:	00a41413          	slli	s0,s0,0xa
   106d8:	00861613          	slli	a2,a2,0x8
   106dc:	0127a023          	sw	s2,0(a5)
   106e0:	24146413          	ori	s0,s0,577
   106e4:	00a49913          	slli	s2,s1,0xa
   106e8:	00d60633          	add	a2,a2,a3
   106ec:	0164d493          	srli	s1,s1,0x16
   106f0:	0087a223          	sw	s0,4(a5)
   106f4:	00a60633          	add	a2,a2,a0
   106f8:	28196413          	ori	s0,s2,641
   106fc:	00a49493          	slli	s1,s1,0xa
   10700:	0087a423          	sw	s0,8(a5)
   10704:	2d14e493          	ori	s1,s1,721
   10708:	00265913          	srli	s2,a2,0x2
   1070c:	0097a623          	sw	s1,12(a5)
   10710:	01865413          	srli	s0,a2,0x18
   10714:	00be84b3          	add	s1,t4,a1
   10718:	00670613          	addi	a2,a4,6
   1071c:	00a91913          	slli	s2,s2,0xa
   10720:	0107a823          	sw	a6,16(a5)
   10724:	4024d493          	srai	s1,s1,0x2
   10728:	20196913          	ori	s2,s2,513
   1072c:	00a41413          	slli	s0,s0,0xa
   10730:	00861613          	slli	a2,a2,0x8
   10734:	0127a023          	sw	s2,0(a5)
   10738:	24146413          	ori	s0,s0,577
   1073c:	00a49913          	slli	s2,s1,0xa
   10740:	00d60633          	add	a2,a2,a3
   10744:	0164d493          	srli	s1,s1,0x16
   10748:	0087a223          	sw	s0,4(a5)
   1074c:	00a60633          	add	a2,a2,a0
   10750:	28196413          	ori	s0,s2,641
   10754:	00a49493          	slli	s1,s1,0xa
   10758:	0087a423          	sw	s0,8(a5)
   1075c:	2d14e493          	ori	s1,s1,721
   10760:	00be0433          	add	s0,t3,a1
   10764:	00265913          	srli	s2,a2,0x2
   10768:	00770713          	addi	a4,a4,7
   1076c:	0097a623          	sw	s1,12(a5)
   10770:	40245413          	srai	s0,s0,0x2
   10774:	00a91913          	slli	s2,s2,0xa
   10778:	01865613          	srli	a2,a2,0x18
   1077c:	00871713          	slli	a4,a4,0x8
   10780:	0107a823          	sw	a6,16(a5)
   10784:	01645493          	srli	s1,s0,0x16
   10788:	00d70733          	add	a4,a4,a3
   1078c:	20196913          	ori	s2,s2,513
   10790:	00a61613          	slli	a2,a2,0xa
   10794:	0127a023          	sw	s2,0(a5)
   10798:	00a70733          	add	a4,a4,a0
   1079c:	24166613          	ori	a2,a2,577
   107a0:	00a41413          	slli	s0,s0,0xa
   107a4:	00a49493          	slli	s1,s1,0xa
   107a8:	00c7a223          	sw	a2,4(a5)
   107ac:	28146413          	ori	s0,s0,641
   107b0:	00275613          	srli	a2,a4,0x2
   107b4:	2d14e493          	ori	s1,s1,721
   107b8:	0087a423          	sw	s0,8(a5)
   107bc:	00b306b3          	add	a3,t1,a1
   107c0:	0097a623          	sw	s1,12(a5)
   107c4:	00a61613          	slli	a2,a2,0xa
   107c8:	01875713          	srli	a4,a4,0x18
   107cc:	0107a823          	sw	a6,16(a5)
   107d0:	4026d693          	srai	a3,a3,0x2
   107d4:	20166613          	ori	a2,a2,513
   107d8:	00a71713          	slli	a4,a4,0xa
   107dc:	00c7a023          	sw	a2,0(a5)
   107e0:	24176713          	ori	a4,a4,577
   107e4:	00a69613          	slli	a2,a3,0xa
   107e8:	0166d693          	srli	a3,a3,0x16
   107ec:	00e7a223          	sw	a4,4(a5)
   107f0:	00a69693          	slli	a3,a3,0xa
   107f4:	28166713          	ori	a4,a2,641
   107f8:	00e7a423          	sw	a4,8(a5)
   107fc:	2d16e693          	ori	a3,a3,721
   10800:	00d7a623          	sw	a3,12(a5)
   10804:	0107a823          	sw	a6,16(a5)
   10808:	0008c703          	lbu	a4,0(a7)
   1080c:	00858593          	addi	a1,a1,8
   10810:	00188893          	addi	a7,a7,1
   10814:	00070e63          	beqz	a4,10830 <_Z8PrintDMAiiPKcb+0x3ac>
   10818:	fe070713          	addi	a4,a4,-32
   1081c:	d20752e3          	bgez	a4,10540 <_Z8PrintDMAiiPKcb+0xbc>
   10820:	0008c703          	lbu	a4,0(a7)
   10824:	00858593          	addi	a1,a1,8
   10828:	00188893          	addi	a7,a7,1
   1082c:	fe0716e3          	bnez	a4,10818 <_Z8PrintDMAiiPKcb+0x394>
   10830:	00c12403          	lw	s0,12(sp)
   10834:	00812483          	lw	s1,8(sp)
   10838:	00412903          	lw	s2,4(sp)
   1083c:	01010113          	addi	sp,sp,16
   10840:	00008067          	ret

00010844 <exit>:
   10844:	ff010113          	addi	sp,sp,-16
   10848:	00000593          	li	a1,0
   1084c:	00812423          	sw	s0,8(sp)
   10850:	00112623          	sw	ra,12(sp)
   10854:	00050413          	mv	s0,a0
   10858:	194000ef          	jal	ra,109ec <__call_exitprocs>
   1085c:	7dc1a503          	lw	a0,2012(gp) # 1494c <_global_impure_ptr>
   10860:	03c52783          	lw	a5,60(a0)
   10864:	00078463          	beqz	a5,1086c <exit+0x28>
   10868:	000780e7          	jalr	a5
   1086c:	00040513          	mv	a0,s0
   10870:	3a4000ef          	jal	ra,10c14 <_exit>

00010874 <__libc_init_array>:
   10874:	ff010113          	addi	sp,sp,-16
   10878:	00812423          	sw	s0,8(sp)
   1087c:	01212023          	sw	s2,0(sp)
   10880:	00013437          	lui	s0,0x13
   10884:	00013937          	lui	s2,0x13
   10888:	4f840793          	addi	a5,s0,1272 # 134f8 <__init_array_start>
   1088c:	4f890913          	addi	s2,s2,1272 # 134f8 <__init_array_start>
   10890:	40f90933          	sub	s2,s2,a5
   10894:	00112623          	sw	ra,12(sp)
   10898:	00912223          	sw	s1,4(sp)
   1089c:	40295913          	srai	s2,s2,0x2
   108a0:	02090063          	beqz	s2,108c0 <__libc_init_array+0x4c>
   108a4:	4f840413          	addi	s0,s0,1272
   108a8:	00000493          	li	s1,0
   108ac:	00042783          	lw	a5,0(s0)
   108b0:	00148493          	addi	s1,s1,1
   108b4:	00440413          	addi	s0,s0,4
   108b8:	000780e7          	jalr	a5
   108bc:	fe9918e3          	bne	s2,s1,108ac <__libc_init_array+0x38>
   108c0:	00013437          	lui	s0,0x13
   108c4:	00013937          	lui	s2,0x13
   108c8:	4f840793          	addi	a5,s0,1272 # 134f8 <__init_array_start>
   108cc:	50090913          	addi	s2,s2,1280 # 13500 <__do_global_dtors_aux_fini_array_entry>
   108d0:	40f90933          	sub	s2,s2,a5
   108d4:	40295913          	srai	s2,s2,0x2
   108d8:	02090063          	beqz	s2,108f8 <__libc_init_array+0x84>
   108dc:	4f840413          	addi	s0,s0,1272
   108e0:	00000493          	li	s1,0
   108e4:	00042783          	lw	a5,0(s0)
   108e8:	00148493          	addi	s1,s1,1
   108ec:	00440413          	addi	s0,s0,4
   108f0:	000780e7          	jalr	a5
   108f4:	fe9918e3          	bne	s2,s1,108e4 <__libc_init_array+0x70>
   108f8:	00c12083          	lw	ra,12(sp)
   108fc:	00812403          	lw	s0,8(sp)
   10900:	00412483          	lw	s1,4(sp)
   10904:	00012903          	lw	s2,0(sp)
   10908:	01010113          	addi	sp,sp,16
   1090c:	00008067          	ret

00010910 <memset>:
   10910:	00f00313          	li	t1,15
   10914:	00050713          	mv	a4,a0
   10918:	02c37e63          	bgeu	t1,a2,10954 <memset+0x44>
   1091c:	00f77793          	andi	a5,a4,15
   10920:	0a079063          	bnez	a5,109c0 <memset+0xb0>
   10924:	08059263          	bnez	a1,109a8 <memset+0x98>
   10928:	ff067693          	andi	a3,a2,-16
   1092c:	00f67613          	andi	a2,a2,15
   10930:	00e686b3          	add	a3,a3,a4
   10934:	00b72023          	sw	a1,0(a4)
   10938:	00b72223          	sw	a1,4(a4)
   1093c:	00b72423          	sw	a1,8(a4)
   10940:	00b72623          	sw	a1,12(a4)
   10944:	01070713          	addi	a4,a4,16
   10948:	fed766e3          	bltu	a4,a3,10934 <memset+0x24>
   1094c:	00061463          	bnez	a2,10954 <memset+0x44>
   10950:	00008067          	ret
   10954:	40c306b3          	sub	a3,t1,a2
   10958:	00269693          	slli	a3,a3,0x2
   1095c:	00000297          	auipc	t0,0x0
   10960:	005686b3          	add	a3,a3,t0
   10964:	00c68067          	jr	12(a3) # 100c <main-0xf068>
   10968:	00b70723          	sb	a1,14(a4)
   1096c:	00b706a3          	sb	a1,13(a4)
   10970:	00b70623          	sb	a1,12(a4)
   10974:	00b705a3          	sb	a1,11(a4)
   10978:	00b70523          	sb	a1,10(a4)
   1097c:	00b704a3          	sb	a1,9(a4)
   10980:	00b70423          	sb	a1,8(a4)
   10984:	00b703a3          	sb	a1,7(a4)
   10988:	00b70323          	sb	a1,6(a4)
   1098c:	00b702a3          	sb	a1,5(a4)
   10990:	00b70223          	sb	a1,4(a4)
   10994:	00b701a3          	sb	a1,3(a4)
   10998:	00b70123          	sb	a1,2(a4)
   1099c:	00b700a3          	sb	a1,1(a4)
   109a0:	00b70023          	sb	a1,0(a4)
   109a4:	00008067          	ret
   109a8:	0ff5f593          	andi	a1,a1,255
   109ac:	00859693          	slli	a3,a1,0x8
   109b0:	00d5e5b3          	or	a1,a1,a3
   109b4:	01059693          	slli	a3,a1,0x10
   109b8:	00d5e5b3          	or	a1,a1,a3
   109bc:	f6dff06f          	j	10928 <memset+0x18>
   109c0:	00279693          	slli	a3,a5,0x2
   109c4:	00000297          	auipc	t0,0x0
   109c8:	005686b3          	add	a3,a3,t0
   109cc:	00008293          	mv	t0,ra
   109d0:	fa0680e7          	jalr	-96(a3)
   109d4:	00028093          	mv	ra,t0
   109d8:	ff078793          	addi	a5,a5,-16
   109dc:	40f70733          	sub	a4,a4,a5
   109e0:	00f60633          	add	a2,a2,a5
   109e4:	f6c378e3          	bgeu	t1,a2,10954 <memset+0x44>
   109e8:	f3dff06f          	j	10924 <memset+0x14>

000109ec <__call_exitprocs>:
   109ec:	fd010113          	addi	sp,sp,-48
   109f0:	01412c23          	sw	s4,24(sp)
   109f4:	7dc1aa03          	lw	s4,2012(gp) # 1494c <_global_impure_ptr>
   109f8:	03212023          	sw	s2,32(sp)
   109fc:	02112623          	sw	ra,44(sp)
   10a00:	148a2903          	lw	s2,328(s4)
   10a04:	02812423          	sw	s0,40(sp)
   10a08:	02912223          	sw	s1,36(sp)
   10a0c:	01312e23          	sw	s3,28(sp)
   10a10:	01512a23          	sw	s5,20(sp)
   10a14:	01612823          	sw	s6,16(sp)
   10a18:	01712623          	sw	s7,12(sp)
   10a1c:	01812423          	sw	s8,8(sp)
   10a20:	04090063          	beqz	s2,10a60 <__call_exitprocs+0x74>
   10a24:	00050b13          	mv	s6,a0
   10a28:	00058b93          	mv	s7,a1
   10a2c:	00100a93          	li	s5,1
   10a30:	fff00993          	li	s3,-1
   10a34:	00492483          	lw	s1,4(s2)
   10a38:	fff48413          	addi	s0,s1,-1
   10a3c:	02044263          	bltz	s0,10a60 <__call_exitprocs+0x74>
   10a40:	00249493          	slli	s1,s1,0x2
   10a44:	009904b3          	add	s1,s2,s1
   10a48:	040b8463          	beqz	s7,10a90 <__call_exitprocs+0xa4>
   10a4c:	1044a783          	lw	a5,260(s1)
   10a50:	05778063          	beq	a5,s7,10a90 <__call_exitprocs+0xa4>
   10a54:	fff40413          	addi	s0,s0,-1
   10a58:	ffc48493          	addi	s1,s1,-4
   10a5c:	ff3416e3          	bne	s0,s3,10a48 <__call_exitprocs+0x5c>
   10a60:	02c12083          	lw	ra,44(sp)
   10a64:	02812403          	lw	s0,40(sp)
   10a68:	02412483          	lw	s1,36(sp)
   10a6c:	02012903          	lw	s2,32(sp)
   10a70:	01c12983          	lw	s3,28(sp)
   10a74:	01812a03          	lw	s4,24(sp)
   10a78:	01412a83          	lw	s5,20(sp)
   10a7c:	01012b03          	lw	s6,16(sp)
   10a80:	00c12b83          	lw	s7,12(sp)
   10a84:	00812c03          	lw	s8,8(sp)
   10a88:	03010113          	addi	sp,sp,48
   10a8c:	00008067          	ret
   10a90:	00492783          	lw	a5,4(s2)
   10a94:	0044a683          	lw	a3,4(s1)
   10a98:	fff78793          	addi	a5,a5,-1
   10a9c:	04878e63          	beq	a5,s0,10af8 <__call_exitprocs+0x10c>
   10aa0:	0004a223          	sw	zero,4(s1)
   10aa4:	fa0688e3          	beqz	a3,10a54 <__call_exitprocs+0x68>
   10aa8:	18892783          	lw	a5,392(s2)
   10aac:	008a9733          	sll	a4,s5,s0
   10ab0:	00492c03          	lw	s8,4(s2)
   10ab4:	00f777b3          	and	a5,a4,a5
   10ab8:	02079263          	bnez	a5,10adc <__call_exitprocs+0xf0>
   10abc:	000680e7          	jalr	a3
   10ac0:	00492703          	lw	a4,4(s2)
   10ac4:	148a2783          	lw	a5,328(s4)
   10ac8:	01871463          	bne	a4,s8,10ad0 <__call_exitprocs+0xe4>
   10acc:	f92784e3          	beq	a5,s2,10a54 <__call_exitprocs+0x68>
   10ad0:	f80788e3          	beqz	a5,10a60 <__call_exitprocs+0x74>
   10ad4:	00078913          	mv	s2,a5
   10ad8:	f5dff06f          	j	10a34 <__call_exitprocs+0x48>
   10adc:	18c92783          	lw	a5,396(s2)
   10ae0:	0844a583          	lw	a1,132(s1)
   10ae4:	00f77733          	and	a4,a4,a5
   10ae8:	00071c63          	bnez	a4,10b00 <__call_exitprocs+0x114>
   10aec:	000b0513          	mv	a0,s6
   10af0:	000680e7          	jalr	a3
   10af4:	fcdff06f          	j	10ac0 <__call_exitprocs+0xd4>
   10af8:	00892223          	sw	s0,4(s2)
   10afc:	fa9ff06f          	j	10aa4 <__call_exitprocs+0xb8>
   10b00:	00058513          	mv	a0,a1
   10b04:	000680e7          	jalr	a3
   10b08:	fb9ff06f          	j	10ac0 <__call_exitprocs+0xd4>

00010b0c <__libc_fini_array>:
   10b0c:	ff010113          	addi	sp,sp,-16
   10b10:	00812423          	sw	s0,8(sp)
   10b14:	000137b7          	lui	a5,0x13
   10b18:	00013437          	lui	s0,0x13
   10b1c:	50040413          	addi	s0,s0,1280 # 13500 <__do_global_dtors_aux_fini_array_entry>
   10b20:	50478793          	addi	a5,a5,1284 # 13504 <__fini_array_end>
   10b24:	408787b3          	sub	a5,a5,s0
   10b28:	00912223          	sw	s1,4(sp)
   10b2c:	00112623          	sw	ra,12(sp)
   10b30:	4027d493          	srai	s1,a5,0x2
   10b34:	02048063          	beqz	s1,10b54 <__libc_fini_array+0x48>
   10b38:	ffc78793          	addi	a5,a5,-4
   10b3c:	00878433          	add	s0,a5,s0
   10b40:	00042783          	lw	a5,0(s0)
   10b44:	fff48493          	addi	s1,s1,-1
   10b48:	ffc40413          	addi	s0,s0,-4
   10b4c:	000780e7          	jalr	a5
   10b50:	fe0498e3          	bnez	s1,10b40 <__libc_fini_array+0x34>
   10b54:	00c12083          	lw	ra,12(sp)
   10b58:	00812403          	lw	s0,8(sp)
   10b5c:	00412483          	lw	s1,4(sp)
   10b60:	01010113          	addi	sp,sp,16
   10b64:	00008067          	ret

00010b68 <atexit>:
   10b68:	00050593          	mv	a1,a0
   10b6c:	00000693          	li	a3,0
   10b70:	00000613          	li	a2,0
   10b74:	00000513          	li	a0,0
   10b78:	0040006f          	j	10b7c <__register_exitproc>

00010b7c <__register_exitproc>:
   10b7c:	7dc1a703          	lw	a4,2012(gp) # 1494c <_global_impure_ptr>
   10b80:	14872783          	lw	a5,328(a4)
   10b84:	04078c63          	beqz	a5,10bdc <__register_exitproc+0x60>
   10b88:	0047a703          	lw	a4,4(a5)
   10b8c:	01f00813          	li	a6,31
   10b90:	06e84e63          	blt	a6,a4,10c0c <__register_exitproc+0x90>
   10b94:	00271813          	slli	a6,a4,0x2
   10b98:	02050663          	beqz	a0,10bc4 <__register_exitproc+0x48>
   10b9c:	01078333          	add	t1,a5,a6
   10ba0:	08c32423          	sw	a2,136(t1) # 1042c <_Z8drawrectiih+0x48>
   10ba4:	1887a883          	lw	a7,392(a5)
   10ba8:	00100613          	li	a2,1
   10bac:	00e61633          	sll	a2,a2,a4
   10bb0:	00c8e8b3          	or	a7,a7,a2
   10bb4:	1917a423          	sw	a7,392(a5)
   10bb8:	10d32423          	sw	a3,264(t1)
   10bbc:	00200693          	li	a3,2
   10bc0:	02d50463          	beq	a0,a3,10be8 <__register_exitproc+0x6c>
   10bc4:	00170713          	addi	a4,a4,1
   10bc8:	00e7a223          	sw	a4,4(a5)
   10bcc:	010787b3          	add	a5,a5,a6
   10bd0:	00b7a423          	sw	a1,8(a5)
   10bd4:	00000513          	li	a0,0
   10bd8:	00008067          	ret
   10bdc:	14c70793          	addi	a5,a4,332
   10be0:	14f72423          	sw	a5,328(a4)
   10be4:	fa5ff06f          	j	10b88 <__register_exitproc+0xc>
   10be8:	18c7a683          	lw	a3,396(a5)
   10bec:	00170713          	addi	a4,a4,1
   10bf0:	00e7a223          	sw	a4,4(a5)
   10bf4:	00c6e633          	or	a2,a3,a2
   10bf8:	18c7a623          	sw	a2,396(a5)
   10bfc:	010787b3          	add	a5,a5,a6
   10c00:	00b7a423          	sw	a1,8(a5)
   10c04:	00000513          	li	a0,0
   10c08:	00008067          	ret
   10c0c:	fff00513          	li	a0,-1
   10c10:	00008067          	ret

00010c14 <_exit>:
   10c14:	05d00893          	li	a7,93
   10c18:	00000073          	ecall
   10c1c:	00054463          	bltz	a0,10c24 <_exit+0x10>
   10c20:	0000006f          	j	10c20 <_exit+0xc>
   10c24:	ff010113          	addi	sp,sp,-16
   10c28:	00812423          	sw	s0,8(sp)
   10c2c:	00050413          	mv	s0,a0
   10c30:	00112623          	sw	ra,12(sp)
   10c34:	40800433          	neg	s0,s0
   10c38:	00c000ef          	jal	ra,10c44 <__errno>
   10c3c:	00852023          	sw	s0,0(a0)
   10c40:	0000006f          	j	10c40 <_exit+0x2c>

00010c44 <__errno>:
   10c44:	7e01a503          	lw	a0,2016(gp) # 14950 <_impure_ptr>
   10c48:	00008067          	ret
ELF Header:
  Magic:   7f 45 4c 46 01 01 01 00 00 00 00 00 00 00 00 00 
  Class:                             ELF32
  Data:                              2's complement, little endian
  Version:                           1 (current)
  OS/ABI:                            UNIX - System V
  ABI Version:                       0
  Type:                              EXEC (Executable file)
  Machine:                           RISC-V
  Version:                           0x1
  Entry point address:               0x102f0
  Start of program headers:          52 (bytes into file)
  Start of section headers:          16664 (bytes into file)
  Flags:                             0x2, single-float ABI
  Size of this header:               52 (bytes)
  Size of program headers:           32 (bytes)
  Number of program headers:         2
  Size of section headers:           40 (bytes)
  Number of section headers:         15
  Section header string table index: 14

Section Headers:
  [Nr] Name              Type            Addr     Off    Size   ES Flg Lk Inf Al
  [ 0]                   NULL            00000000 000000 000000 00      0   0  0
  [ 1] .text             PROGBITS        00010074 000074 000bd8 00  AX  0   0  4
  [ 2] .rodata           PROGBITS        00010c4c 000c4c 001814 00   A  0   0  4
  [ 3] .eh_frame         PROGBITS        00013460 002460 000098 00  WA  0   0  4
  [ 4] .init_array       INIT_ARRAY      000134f8 0024f8 000008 04  WA  0   0  4
  [ 5] .fini_array       FINI_ARRAY      00013500 002500 000004 04  WA  0   0  4
  [ 6] .data             PROGBITS        00013508 002508 001430 00  WA  0   0  8
  [ 7] .got              PROGBITS        00014938 003938 000014 04  WA  0   0  4
  [ 8] .sdata            PROGBITS        0001494c 00394c 000008 00  WA  0   0  4
  [ 9] .bss              NOBITS          00014954 003954 00001c 00  WA  0   0  4
  [10] .comment          PROGBITS        00000000 003954 000012 01  MS  0   0  1
  [11] .riscv.attributes RISCV_ATTRIBUTE 00000000 003966 000026 00      0   0  1
  [12] .symtab           SYMTAB          00000000 00398c 000450 10     13  44  4
  [13] .strtab           STRTAB          00000000 003ddc 0002bc 00      0   0  1
  [14] .shstrtab         STRTAB          00000000 004098 00007d 00      0   0  1
Key to Flags:
  W (write), A (alloc), X (execute), M (merge), S (strings), I (info),
  L (link order), O (extra OS processing required), G (group), T (TLS),
  C (compressed), x (unknown), o (OS specific), E (exclude),
  p (processor specific)

There are no section groups in this file.

Program Headers:
  Type           Offset   VirtAddr   PhysAddr   FileSiz MemSiz  Flg Align
  LOAD           0x000000 0x00010000 0x00010000 0x02460 0x02460 R E 0x1000
  LOAD           0x002460 0x00013460 0x00013460 0x014f4 0x01510 RW  0x1000

 Section to Segment mapping:
  Segment Sections...
   00     .text .rodata 
   01     .eh_frame .init_array .fini_array .data .got .sdata .bss 

There is no dynamic section in this file.

There are no relocations in this file.

The decoding of unwind sections for machine type RISC-V is not currently supported.

Symbol table '.symtab' contains 69 entries:
   Num:    Value  Size Type    Bind   Vis      Ndx Name
     0: 00000000     0 NOTYPE  LOCAL  DEFAULT  UND 
     1: 00010074     0 SECTION LOCAL  DEFAULT    1 
     2: 00010c4c     0 SECTION LOCAL  DEFAULT    2 
     3: 00013460     0 SECTION LOCAL  DEFAULT    3 
     4: 000134f8     0 SECTION LOCAL  DEFAULT    4 
     5: 00013500     0 SECTION LOCAL  DEFAULT    5 
     6: 00013508     0 SECTION LOCAL  DEFAULT    6 
     7: 00014938     0 SECTION LOCAL  DEFAULT    7 
     8: 0001494c     0 SECTION LOCAL  DEFAULT    8 
     9: 00014954     0 SECTION LOCAL  DEFAULT    9 
    10: 00000000     0 SECTION LOCAL  DEFAULT   10 
    11: 00000000     0 SECTION LOCAL  DEFAULT   11 
    12: 00000000     0 FILE    LOCAL  DEFAULT  ABS gpupipetest.cpp
    13: 00000000     0 FILE    LOCAL  DEFAULT  ABS __call_atexit.c
    14: 000102d8    24 FUNC    LOCAL  DEFAULT    1 register_fini
    15: 00000000     0 FILE    LOCAL  DEFAULT  ABS crtstuff.c
    16: 00013460     0 OBJECT  LOCAL  DEFAULT    3 __EH_FRAME_BEGIN__
    17: 00010340     0 FUNC    LOCAL  DEFAULT    1 __do_global_dtors_aux
    18: 00014954     1 OBJECT  LOCAL  DEFAULT    9 completed.1
    19: 00013500     0 OBJECT  LOCAL  DEFAULT    5 __do_global_dtors_aux_fin
    20: 0001038c     0 FUNC    LOCAL  DEFAULT    1 frame_dummy
    21: 00014958    24 OBJECT  LOCAL  DEFAULT    9 object.0
    22: 000134fc     0 OBJECT  LOCAL  DEFAULT    4 __frame_dummy_init_array_
    23: 00000000     0 FILE    LOCAL  DEFAULT  ABS utils.cpp
    24: 00010c60  6144 OBJECT  LOCAL  DEFAULT    2 _ZL4font
    25: 00000000     0 FILE    LOCAL  DEFAULT  ABS exit.c
    26: 00000000     0 FILE    LOCAL  DEFAULT  ABS init.c
    27: 00000000     0 FILE    LOCAL  DEFAULT  ABS fini.c
    28: 00000000     0 FILE    LOCAL  DEFAULT  ABS atexit.c
    29: 00000000     0 FILE    LOCAL  DEFAULT  ABS __atexit.c
    30: 00000000     0 FILE    LOCAL  DEFAULT  ABS sys_exit.c
    31: 00000000     0 FILE    LOCAL  DEFAULT  ABS errno.c
    32: 00000000     0 FILE    LOCAL  DEFAULT  ABS crtstuff.c
    33: 000134f4     0 OBJECT  LOCAL  DEFAULT    3 __FRAME_END__
    34: 00000000     0 FILE    LOCAL  DEFAULT  ABS impure.c
    35: 00014510  1064 OBJECT  LOCAL  DEFAULT    6 impure_data
    36: 00000000     0 FILE    LOCAL  DEFAULT  ABS 
    37: 00013504     0 NOTYPE  LOCAL  DEFAULT    5 __fini_array_end
    38: 00013500     0 NOTYPE  LOCAL  DEFAULT    5 __fini_array_start
    39: 00013500     0 NOTYPE  LOCAL  DEFAULT    4 __init_array_end
    40: 000134f8     0 NOTYPE  LOCAL  DEFAULT    4 __preinit_array_end
    41: 00014940     0 OBJECT  LOCAL  DEFAULT    7 _GLOBAL_OFFSET_TABLE_
    42: 000134f8     0 NOTYPE  LOCAL  DEFAULT    4 __init_array_start
    43: 000134f8     0 NOTYPE  LOCAL  DEFAULT    4 __preinit_array_start
    44: 000103e4   160 FUNC    GLOBAL DEFAULT    1 _Z8drawrectiih
    45: 00014170     0 NOTYPE  GLOBAL DEFAULT  ABS __global_pointer$
    46: 00010c44     8 FUNC    GLOBAL DEFAULT    1 __errno
    47: 00010484   960 FUNC    GLOBAL DEFAULT    1 _Z8PrintDMAiiPKcb
    48: 0001494c     0 NOTYPE  GLOBAL DEFAULT    8 __SDATA_BEGIN__
    49: 00014508     4 OBJECT  GLOBAL DEFAULT    6 GPUFIFO
    50: 000103b0    52 FUNC    GLOBAL DEFAULT    1 _Z4ssini
    51: 0001494c     4 OBJECT  GLOBAL DEFAULT    8 _global_impure_ptr
    52: 00010874   156 FUNC    GLOBAL DEFAULT    1 __libc_init_array
    53: 00010b0c    92 FUNC    GLOBAL DEFAULT    1 __libc_fini_array
    54: 000109ec   288 FUNC    GLOBAL DEFAULT    1 __call_exitprocs
    55: 000102f0    80 FUNC    GLOBAL DEFAULT    1 _start
    56: 00010b7c   152 FUNC    GLOBAL DEFAULT    1 __register_exitproc
    57: 00014970     0 NOTYPE  GLOBAL DEFAULT    9 __BSS_END__
    58: 00014954     0 NOTYPE  GLOBAL DEFAULT    9 __bss_start
    59: 00010910   220 FUNC    GLOBAL DEFAULT    1 memset
    60: 00010074   612 FUNC    GLOBAL DEFAULT    1 main
    61: 00010b68    20 FUNC    GLOBAL DEFAULT    1 atexit
    62: 00014950     4 OBJECT  GLOBAL DEFAULT    8 _impure_ptr
    63: 00013508  4096 OBJECT  GLOBAL DEFAULT    6 sinewave
    64: 00013508     0 NOTYPE  GLOBAL DEFAULT    6 __DATA_BEGIN__
    65: 00014954     0 NOTYPE  GLOBAL DEFAULT    8 _edata
    66: 00014970     0 NOTYPE  GLOBAL DEFAULT    9 _end
    67: 00010844    48 FUNC    GLOBAL DEFAULT    1 exit
    68: 00010c14    48 FUNC    GLOBAL DEFAULT    1 _exit

No version information found in this file.
Attribute Section: riscv
File Attributes
  Tag_RISCV_stack_align: 16-bytes
  Tag_RISCV_arch: "rv32i2p0_m2p0_f2p0"
