
gpupipetest.elf:     file format elf32-littleriscv


Disassembly of section .text:

00010074 <main>:
   10074:	81010113          	addi	sp,sp,-2032
   10078:	7e912223          	sw	s1,2020(sp)
   1007c:	00006497          	auipc	s1,0x6
   10080:	6ec4a483          	lw	s1,1772(s1) # 16768 <_GLOBAL_OFFSET_TABLE_+0x8>
   10084:	0004a783          	lw	a5,0(s1)
   10088:	fffff337          	lui	t1,0xfffff
   1008c:	7e812423          	sw	s0,2024(sp)
   10090:	7f212023          	sw	s2,2016(sp)
   10094:	7d412c23          	sw	s4,2008(sp)
   10098:	7d512a23          	sw	s5,2004(sp)
   1009c:	7d612823          	sw	s6,2000(sp)
   100a0:	7d712623          	sw	s7,1996(sp)
   100a4:	7d812423          	sw	s8,1992(sp)
   100a8:	7a812627          	fsw	fs0,1964(sp)
   100ac:	7a912427          	fsw	fs1,1960(sp)
   100b0:	7b212227          	fsw	fs2,1956(sp)
   100b4:	7b312027          	fsw	fs3,1952(sp)
   100b8:	79412e27          	fsw	fs4,1948(sp)
   100bc:	79512c27          	fsw	fs5,1944(sp)
   100c0:	79612a27          	fsw	fs6,1940(sp)
   100c4:	7e112623          	sw	ra,2028(sp)
   100c8:	7d312e23          	sw	s3,2012(sp)
   100cc:	7d912223          	sw	s9,1988(sp)
   100d0:	7da12023          	sw	s10,1984(sp)
   100d4:	7bb12e23          	sw	s11,1980(sp)
   100d8:	f4030313          	addi	t1,t1,-192 # ffffef40 <__BSS_END__+0xfffe8718>
   100dc:	08100713          	li	a4,129
   100e0:	00610133          	add	sp,sp,t1
   100e4:	00e7a023          	sw	a4,0(a5)
   100e8:	00002637          	lui	a2,0x2
   100ec:	09100713          	li	a4,145
   100f0:	00e7a223          	sw	a4,4(a5)
   100f4:	02010693          	addi	a3,sp,32
   100f8:	83060713          	addi	a4,a2,-2000 # 1830 <main-0xe844>
   100fc:	ffffe437          	lui	s0,0xffffe
   10100:	00d70733          	add	a4,a4,a3
   10104:	00870ab3          	add	s5,a4,s0
   10108:	78788737          	lui	a4,0x78788
   1010c:	87870713          	addi	a4,a4,-1928 # 78787878 <__BSS_END__+0x78771050>
   10110:	7eeaa023          	sw	a4,2016(s5)
   10114:	7eeaa223          	sw	a4,2020(s5)
   10118:	7c0aae23          	sw	zero,2012(s5)
   1011c:	7e0a8423          	sb	zero,2024(s5)
   10120:	30100713          	li	a4,769
   10124:	00e7a023          	sw	a4,0(a5)
   10128:	36100713          	li	a4,865
   1012c:	00e7a223          	sw	a4,4(a5)
   10130:	00060913          	mv	s2,a2
   10134:	83060693          	addi	a3,a2,-2000
   10138:	fffff737          	lui	a4,0xfffff
   1013c:	02010613          	addi	a2,sp,32
   10140:	00c686b3          	add	a3,a3,a2
   10144:	80070713          	addi	a4,a4,-2048 # ffffe800 <__BSS_END__+0xfffe7fd8>
   10148:	00e68733          	add	a4,a3,a4
   1014c:	00070513          	mv	a0,a4
   10150:	00e12c23          	sw	a4,24(sp)
   10154:	06700713          	li	a4,103
   10158:	00e7a423          	sw	a4,8(a5)
   1015c:	770000ef          	jal	ra,108cc <_Z14resetparticlesPi>
   10160:	02010693          	addi	a3,sp,32
   10164:	83090713          	addi	a4,s2,-2000
   10168:	00d70733          	add	a4,a4,a3
   1016c:	7dc40793          	addi	a5,s0,2012 # ffffe7dc <__BSS_END__+0xfffe7fb4>
   10170:	00f707b3          	add	a5,a4,a5
   10174:	0167d693          	srli	a3,a5,0x16
   10178:	00a79793          	slli	a5,a5,0xa
   1017c:	00a69693          	slli	a3,a3,0xa
   10180:	3017e793          	ori	a5,a5,769
   10184:	00f12823          	sw	a5,16(sp)
   10188:	3616e793          	ori	a5,a3,865
   1018c:	00f12a23          	sw	a5,20(sp)
   10190:	00003797          	auipc	a5,0x3
   10194:	fdc7a987          	flw	fs3,-36(a5) # 1316c <__errno+0x3c>
   10198:	00003797          	auipc	a5,0x3
   1019c:	fd87a907          	flw	fs2,-40(a5) # 13170 <__errno+0x40>
   101a0:	00003797          	auipc	a5,0x3
   101a4:	fd47a487          	flw	fs1,-44(a5) # 13174 <__errno+0x44>
   101a8:	00003797          	auipc	a5,0x3
   101ac:	fd07a407          	flw	fs0,-48(a5) # 13178 <__errno+0x48>
   101b0:	00003797          	auipc	a5,0x3
   101b4:	fcc7ab07          	flw	fs6,-52(a5) # 1317c <__errno+0x4c>
   101b8:	00003797          	auipc	a5,0x3
   101bc:	fac7aa87          	flw	fs5,-84(a5) # 13164 <__errno+0x34>
   101c0:	00003797          	auipc	a5,0x3
   101c4:	fc07aa07          	flw	fs4,-64(a5) # 13180 <__errno+0x50>
   101c8:	83090793          	addi	a5,s2,-2000
   101cc:	02010693          	addi	a3,sp,32
   101d0:	7e040413          	addi	s0,s0,2016
   101d4:	00d787b3          	add	a5,a5,a3
   101d8:	0004a703          	lw	a4,0(s1)
   101dc:	00001b37          	lui	s6,0x1
   101e0:	008787b3          	add	a5,a5,s0
   101e4:	00012223          	sw	zero,4(sp)
   101e8:	00012623          	sw	zero,12(sp)
   101ec:	00000b93          	li	s7,0
   101f0:	00012423          	sw	zero,8(sp)
   101f4:	00012023          	sw	zero,0(sp)
   101f8:	00003c17          	auipc	s8,0x3
   101fc:	f54c0c13          	addi	s8,s8,-172 # 1314c <__errno+0x1c>
   10200:	00100a13          	li	s4,1
   10204:	800b0b13          	addi	s6,s6,-2048 # 800 <main-0xf874>
   10208:	00f12e23          	sw	a5,28(sp)
   1020c:	fffbc613          	not	a2,s7
   10210:	0ff67613          	andi	a2,a2,255
   10214:	7dcaa783          	lw	a5,2012(s5)
   10218:	ff779ee3          	bne	a5,s7,10214 <main+0x1a0>
   1021c:	a08b17d3          	flt.s	a5,fs6,fs0
   10220:	36079863          	bnez	a5,10590 <main+0x51c>
   10224:	a15417d3          	flt.s	a5,fs0,fs5
   10228:	36079463          	bnez	a5,10590 <main+0x51c>
   1022c:	a09a17d3          	flt.s	a5,fs4,fs1
   10230:	34079c63          	bnez	a5,10588 <main+0x514>
   10234:	a15497d3          	flt.s	a5,fs1,fs5
   10238:	34079863          	bnez	a5,10588 <main+0x514>
   1023c:	00412583          	lw	a1,4(sp)
   10240:	0ffbf693          	andi	a3,s7,255
   10244:	01061513          	slli	a0,a2,0x10
   10248:	01059793          	slli	a5,a1,0x10
   1024c:	00d7e7b3          	or	a5,a5,a3
   10250:	01059693          	slli	a3,a1,0x10
   10254:	0106d693          	srli	a3,a3,0x10
   10258:	00d7e6b3          	or	a3,a5,a3
   1025c:	00859593          	slli	a1,a1,0x8
   10260:	00ff07b7          	lui	a5,0xff0
   10264:	00f5f5b3          	and	a1,a1,a5
   10268:	01861793          	slli	a5,a2,0x18
   1026c:	00b6e6b3          	or	a3,a3,a1
   10270:	00a7e7b3          	or	a5,a5,a0
   10274:	00a69593          	slli	a1,a3,0xa
   10278:	00c7e7b3          	or	a5,a5,a2
   1027c:	01300513          	li	a0,19
   10280:	00861613          	slli	a2,a2,0x8
   10284:	0166d693          	srli	a3,a3,0x16
   10288:	00a72a23          	sw	a0,20(a4)
   1028c:	00c7e7b3          	or	a5,a5,a2
   10290:	00a69693          	slli	a3,a3,0xa
   10294:	1015e613          	ori	a2,a1,257
   10298:	00c72023          	sw	a2,0(a4)
   1029c:	1216e693          	ori	a3,a3,289
   102a0:	00a79613          	slli	a2,a5,0xa
   102a4:	01247453          	fadd.s	fs0,fs0,fs2
   102a8:	0134f4d3          	fadd.s	fs1,fs1,fs3
   102ac:	0167d793          	srli	a5,a5,0x16
   102b0:	00d72223          	sw	a3,4(a4)
   102b4:	01812503          	lw	a0,24(sp)
   102b8:	18166693          	ori	a3,a2,385
   102bc:	00a79793          	slli	a5,a5,0xa
   102c0:	00d72023          	sw	a3,0(a4)
   102c4:	1b17e793          	ori	a5,a5,433
   102c8:	00f72223          	sw	a5,4(a4)
   102cc:	660000ef          	jal	ra,1092c <_Z13drawparticlesPi>
   102d0:	c00495d3          	fcvt.w.s	a1,fs1,rtz
   102d4:	00012c83          	lw	s9,0(sp)
   102d8:	c0041553          	fcvt.w.s	a0,fs0,rtz
   102dc:	07c00613          	li	a2,124
   102e0:	001b8b93          	addi	s7,s7,1
   102e4:	000c8413          	mv	s0,s9
   102e8:	3bc000ef          	jal	ra,106a4 <_Z8drawrectiih>
   102ec:	00000d13          	li	s10,0
   102f0:	0ad00993          	li	s3,173
   102f4:	00300913          	li	s2,3
   102f8:	00200d93          	li	s11,2
   102fc:	000c8513          	mv	a0,s9
   10300:	370000ef          	jal	ra,10670 <_Z4ssini>
   10304:	033547b3          	div	a5,a0,s3
   10308:	0fffc8b7          	lui	a7,0xfffc
   1030c:	0004a803          	lw	a6,0(s1)
   10310:	10000513          	li	a0,256
   10314:	000026b7          	lui	a3,0x2
   10318:	002c8c93          	addi	s9,s9,2
   1031c:	06078793          	addi	a5,a5,96 # ff0060 <__BSS_END__+0xfd9838>
   10320:	00879793          	slli	a5,a5,0x8
   10324:	01a787b3          	add	a5,a5,s10
   10328:	0037f613          	andi	a2,a5,3
   1032c:	0027d793          	srli	a5,a5,0x2
   10330:	00e79793          	slli	a5,a5,0xe
   10334:	001d0d13          	addi	s10,s10,1
   10338:	0117f7b3          	and	a5,a5,a7
   1033c:	01260c63          	beq	a2,s2,10354 <main+0x2e0>
   10340:	000016b7          	lui	a3,0x1
   10344:	01b60863          	beq	a2,s11,10354 <main+0x2e0>
   10348:	40000693          	li	a3,1024
   1034c:	01461463          	bne	a2,s4,10354 <main+0x2e0>
   10350:	000b0693          	mv	a3,s6
   10354:	00d7e7b3          	or	a5,a5,a3
   10358:	0227e793          	ori	a5,a5,34
   1035c:	00f82423          	sw	a5,8(a6)
   10360:	f8ad1ee3          	bne	s10,a0,102fc <main+0x288>
   10364:	00000d13          	li	s10,0
   10368:	08200993          	li	s3,130
   1036c:	00300913          	li	s2,3
   10370:	00200d93          	li	s11,2
   10374:	00040513          	mv	a0,s0
   10378:	2f8000ef          	jal	ra,10670 <_Z4ssini>
   1037c:	03354533          	div	a0,a0,s3
   10380:	0004a803          	lw	a6,0(s1)
   10384:	0000c5b7          	lui	a1,0xc
   10388:	000026b7          	lui	a3,0x2
   1038c:	00340413          	addi	s0,s0,3
   10390:	08050513          	addi	a0,a0,128
   10394:	01a50533          	add	a0,a0,s10
   10398:	00255793          	srli	a5,a0,0x2
   1039c:	00357613          	andi	a2,a0,3
   103a0:	00e79793          	slli	a5,a5,0xe
   103a4:	0fffc537          	lui	a0,0xfffc
   103a8:	100d0d13          	addi	s10,s10,256
   103ac:	00a7f7b3          	and	a5,a5,a0
   103b0:	01260c63          	beq	a2,s2,103c8 <main+0x354>
   103b4:	000016b7          	lui	a3,0x1
   103b8:	01b60863          	beq	a2,s11,103c8 <main+0x354>
   103bc:	40000693          	li	a3,1024
   103c0:	01461463          	bne	a2,s4,103c8 <main+0x354>
   103c4:	000b0693          	mv	a3,s6
   103c8:	00d7e7b3          	or	a5,a5,a3
   103cc:	0327e793          	ori	a5,a5,50
   103d0:	00f82423          	sw	a5,8(a6)
   103d4:	fabd10e3          	bne	s10,a1,10374 <main+0x300>
   103d8:	03c00793          	li	a5,60
   103dc:	02fbf7b3          	remu	a5,s7,a5
   103e0:	00012703          	lw	a4,0(sp)
   103e4:	01a70713          	addi	a4,a4,26
   103e8:	00e12023          	sw	a4,0(sp)
   103ec:	00079863          	bnez	a5,103fc <main+0x388>
   103f0:	00812783          	lw	a5,8(sp)
   103f4:	00478793          	addi	a5,a5,4
   103f8:	00f12423          	sw	a5,8(sp)
   103fc:	00812783          	lw	a5,8(sp)
   10400:	03c00513          	li	a0,60
   10404:	00000693          	li	a3,0
   10408:	02a7e533          	rem	a0,a5,a0
   1040c:	00c12783          	lw	a5,12(sp)
   10410:	00003617          	auipc	a2,0x3
   10414:	d2860613          	addi	a2,a2,-728 # 13138 <__errno+0x8>
   10418:	06000593          	li	a1,96
   1041c:	0017c413          	xori	s0,a5,1
   10420:	00412783          	lw	a5,4(sp)
   10424:	00812623          	sw	s0,12(sp)
   10428:	10078793          	addi	a5,a5,256
   1042c:	00f12223          	sw	a5,4(sp)
   10430:	6c8000ef          	jal	ra,10af8 <_Z8PrintDMAiiPKcb>
   10434:	7dcaa883          	lw	a7,2012(s5)
   10438:	7dcaa803          	lw	a6,2012(s5)
   1043c:	7dcaa503          	lw	a0,2012(s5)
   10440:	7dcaa583          	lw	a1,2012(s5)
   10444:	7dcaa603          	lw	a2,2012(s5)
   10448:	7dcaa683          	lw	a3,2012(s5)
   1044c:	7dcaa703          	lw	a4,2012(s5)
   10450:	000c2f03          	lw	t5,0(s8)
   10454:	004c2e83          	lw	t4,4(s8)
   10458:	008c2e03          	lw	t3,8(s8)
   1045c:	00cc2303          	lw	t1,12(s8)
   10460:	01885813          	srli	a6,a6,0x18
   10464:	01455513          	srli	a0,a0,0x14
   10468:	0105d593          	srli	a1,a1,0x10
   1046c:	00c65613          	srli	a2,a2,0xc
   10470:	0086d693          	srli	a3,a3,0x8
   10474:	00475713          	srli	a4,a4,0x4
   10478:	7dcaa783          	lw	a5,2012(s5)
   1047c:	00f57513          	andi	a0,a0,15
   10480:	00f5f593          	andi	a1,a1,15
   10484:	00f67613          	andi	a2,a2,15
   10488:	01c8d893          	srli	a7,a7,0x1c
   1048c:	00f87813          	andi	a6,a6,15
   10490:	00f6f693          	andi	a3,a3,15
   10494:	00f77713          	andi	a4,a4,15
   10498:	7feaa623          	sw	t5,2028(s5)
   1049c:	7fdaa823          	sw	t4,2032(s5)
   104a0:	7fcaaa23          	sw	t3,2036(s5)
   104a4:	7e6aac23          	sw	t1,2040(s5)
   104a8:	00aa8e33          	add	t3,s5,a0
   104ac:	00ba8333          	add	t1,s5,a1
   104b0:	00ca8eb3          	add	t4,s5,a2
   104b4:	011a88b3          	add	a7,s5,a7
   104b8:	010a8833          	add	a6,s5,a6
   104bc:	00da86b3          	add	a3,s5,a3
   104c0:	00ea8733          	add	a4,s5,a4
   104c4:	7ec8c503          	lbu	a0,2028(a7) # fffc7ec <__BSS_END__+0xffe5fc4>
   104c8:	7ec84583          	lbu	a1,2028(a6)
   104cc:	7ece4603          	lbu	a2,2028(t3)
   104d0:	7ec34803          	lbu	a6,2028(t1)
   104d4:	7ec74703          	lbu	a4,2028(a4)
   104d8:	7ecec883          	lbu	a7,2028(t4)
   104dc:	7ec6c683          	lbu	a3,2028(a3) # 17ec <main-0xe888>
   104e0:	010c4303          	lbu	t1,16(s8)
   104e4:	00f7f793          	andi	a5,a5,15
   104e8:	00fa87b3          	add	a5,s5,a5
   104ec:	7eea8323          	sb	a4,2022(s5)
   104f0:	7e6a8e23          	sb	t1,2044(s5)
   104f4:	7eaa8023          	sb	a0,2016(s5)
   104f8:	7eba80a3          	sb	a1,2017(s5)
   104fc:	7eca8123          	sb	a2,2018(s5)
   10500:	7f0a81a3          	sb	a6,2019(s5)
   10504:	7f1a8223          	sb	a7,2020(s5)
   10508:	7eda82a3          	sb	a3,2021(s5)
   1050c:	7ec7c783          	lbu	a5,2028(a5)
   10510:	01c12603          	lw	a2,28(sp)
   10514:	00100693          	li	a3,1
   10518:	7efa83a3          	sb	a5,2023(s5)
   1051c:	0a000593          	li	a1,160
   10520:	01000513          	li	a0,16
   10524:	5d4000ef          	jal	ra,10af8 <_Z8PrintDMAiiPKcb>
   10528:	0004a703          	lw	a4,0(s1)
   1052c:	00a41793          	slli	a5,s0,0xa
   10530:	3017e793          	ori	a5,a5,769
   10534:	00f72023          	sw	a5,0(a4)
   10538:	36100793          	li	a5,865
   1053c:	00f72223          	sw	a5,4(a4)
   10540:	06700793          	li	a5,103
   10544:	00f72423          	sw	a5,8(a4)
   10548:	01012783          	lw	a5,16(sp)
   1054c:	01412603          	lw	a2,20(sp)
   10550:	00072823          	sw	zero,16(a4)
   10554:	00f72023          	sw	a5,0(a4)
   10558:	00ab9693          	slli	a3,s7,0xa
   1055c:	016bd793          	srli	a5,s7,0x16
   10560:	00c72223          	sw	a2,4(a4)
   10564:	3816e693          	ori	a3,a3,897
   10568:	00a79793          	slli	a5,a5,0xa
   1056c:	00d72023          	sw	a3,0(a4)
   10570:	3f17e793          	ori	a5,a5,1009
   10574:	00f72223          	sw	a5,4(a4)
   10578:	37600793          	li	a5,886
   1057c:	00f72823          	sw	a5,16(a4)
   10580:	7c0aae23          	sw	zero,2012(s5)
   10584:	c89ff06f          	j	1020c <main+0x198>
   10588:	213999d3          	fneg.s	fs3,fs3
   1058c:	cb1ff06f          	j	1023c <main+0x1c8>
   10590:	21291953          	fneg.s	fs2,fs2
   10594:	c99ff06f          	j	1022c <main+0x1b8>

00010598 <register_fini>:
   10598:	00000793          	li	a5,0
   1059c:	00078863          	beqz	a5,105ac <register_fini+0x14>
   105a0:	00013537          	lui	a0,0x13
   105a4:	ff850513          	addi	a0,a0,-8 # 12ff8 <__libc_fini_array>
   105a8:	2ad0206f          	j	13054 <atexit>
   105ac:	00008067          	ret

000105b0 <_start>:
   105b0:	00006197          	auipc	gp,0x6
   105b4:	a7818193          	addi	gp,gp,-1416 # 16028 <__global_pointer$>
   105b8:	7e018513          	addi	a0,gp,2016 # 16808 <completed.1>
   105bc:	00006617          	auipc	a2,0x6
   105c0:	26c60613          	addi	a2,a2,620 # 16828 <__BSS_END__>
   105c4:	40a60633          	sub	a2,a2,a0
   105c8:	00000593          	li	a1,0
   105cc:	031020ef          	jal	ra,12dfc <memset>
   105d0:	00003517          	auipc	a0,0x3
   105d4:	a8450513          	addi	a0,a0,-1404 # 13054 <atexit>
   105d8:	00050863          	beqz	a0,105e8 <_start+0x38>
   105dc:	00003517          	auipc	a0,0x3
   105e0:	a1c50513          	addi	a0,a0,-1508 # 12ff8 <__libc_fini_array>
   105e4:	271020ef          	jal	ra,13054 <atexit>
   105e8:	778020ef          	jal	ra,12d60 <__libc_init_array>
   105ec:	00012503          	lw	a0,0(sp)
   105f0:	00410593          	addi	a1,sp,4
   105f4:	00000613          	li	a2,0
   105f8:	a7dff0ef          	jal	ra,10074 <main>
   105fc:	7340206f          	j	12d30 <exit>

00010600 <__do_global_dtors_aux>:
   10600:	7e01c703          	lbu	a4,2016(gp) # 16808 <completed.1>
   10604:	04071263          	bnez	a4,10648 <__do_global_dtors_aux+0x48>
   10608:	ff010113          	addi	sp,sp,-16
   1060c:	00812423          	sw	s0,8(sp)
   10610:	00078413          	mv	s0,a5
   10614:	00112623          	sw	ra,12(sp)
   10618:	00000793          	li	a5,0
   1061c:	00078a63          	beqz	a5,10630 <__do_global_dtors_aux+0x30>
   10620:	00015537          	lui	a0,0x15
   10624:	00050513          	mv	a0,a0
   10628:	00000097          	auipc	ra,0x0
   1062c:	000000e7          	jalr	zero # 0 <main-0x10074>
   10630:	00100793          	li	a5,1
   10634:	00c12083          	lw	ra,12(sp)
   10638:	7ef18023          	sb	a5,2016(gp) # 16808 <completed.1>
   1063c:	00812403          	lw	s0,8(sp)
   10640:	01010113          	addi	sp,sp,16
   10644:	00008067          	ret
   10648:	00008067          	ret

0001064c <frame_dummy>:
   1064c:	00000793          	li	a5,0
   10650:	00078e63          	beqz	a5,1066c <frame_dummy+0x20>
   10654:	000175b7          	lui	a1,0x17
   10658:	00015537          	lui	a0,0x15
   1065c:	80c58593          	addi	a1,a1,-2036 # 1680c <object.0>
   10660:	00050513          	mv	a0,a0
   10664:	00000317          	auipc	t1,0x0
   10668:	00000067          	jr	zero # 0 <main-0x10074>
   1066c:	00008067          	ret

00010670 <_Z4ssini>:
   10670:	41f55793          	srai	a5,a0,0x1f
   10674:	0167d793          	srli	a5,a5,0x16
   10678:	00f50533          	add	a0,a0,a5
   1067c:	3ff57513          	andi	a0,a0,1023
   10680:	40f50533          	sub	a0,a0,a5
   10684:	00251513          	slli	a0,a0,0x2
   10688:	00006797          	auipc	a5,0x6
   1068c:	0e87a783          	lw	a5,232(a5) # 16770 <_GLOBAL_OFFSET_TABLE_+0x10>
   10690:	00a78533          	add	a0,a5,a0
   10694:	00052783          	lw	a5,0(a0) # 15000 <__EH_FRAME_BEGIN__>
   10698:	ffffc537          	lui	a0,0xffffc
   1069c:	00f50533          	add	a0,a0,a5
   106a0:	00008067          	ret

000106a4 <_Z8drawrectiih>:
   106a4:	fc010113          	addi	sp,sp,-64
   106a8:	02912a23          	sw	s1,52(sp)
   106ac:	00006497          	auipc	s1,0x6
   106b0:	17848493          	addi	s1,s1,376 # 16824 <_ZZ8drawrectiihE4roll>
   106b4:	01312827          	fsw	fs3,16(sp)
   106b8:	0004a987          	flw	fs3,0(s1)
   106bc:	02112e23          	sw	ra,60(sp)
   106c0:	02812c23          	sw	s0,56(sp)
   106c4:	21398553          	fmv.s	fa0,fs3
   106c8:	03212823          	sw	s2,48(sp)
   106cc:	03312623          	sw	s3,44(sp)
   106d0:	00812e27          	fsw	fs0,28(sp)
   106d4:	00912c27          	fsw	fs1,24(sp)
   106d8:	01212a27          	fsw	fs2,20(sp)
   106dc:	01412627          	fsw	fs4,12(sp)
   106e0:	00058993          	mv	s3,a1
   106e4:	00050913          	mv	s2,a0
   106e8:	00060413          	mv	s0,a2
   106ec:	60c010ef          	jal	ra,11cf8 <cosf>
   106f0:	20a504d3          	fmv.s	fs1,fa0
   106f4:	21398553          	fmv.s	fa0,fs3
   106f8:	6a0010ef          	jal	ra,11d98 <sinf>
   106fc:	00003797          	auipc	a5,0x3
   10700:	a647a407          	flw	fs0,-1436(a5) # 13160 <__errno+0x30>
   10704:	0089f453          	fadd.s	fs0,fs3,fs0
   10708:	20a50953          	fmv.s	fs2,fa0
   1070c:	20840553          	fmv.s	fa0,fs0
   10710:	5e8010ef          	jal	ra,11cf8 <cosf>
   10714:	20a50a53          	fmv.s	fs4,fa0
   10718:	20840553          	fmv.s	fa0,fs0
   1071c:	00003797          	auipc	a5,0x3
   10720:	a487a407          	flw	fs0,-1464(a5) # 13164 <__errno+0x34>
   10724:	108a7a53          	fmul.s	fs4,fs4,fs0
   10728:	670010ef          	jal	ra,11d98 <sinf>
   1072c:	10857553          	fmul.s	fa0,fa0,fs0
   10730:	00ff0e37          	lui	t3,0xff0
   10734:	00010f37          	lui	t5,0x10
   10738:	a084f047          	fmsub.s	ft0,fs1,fs0,fs4
   1073c:	a084f5cf          	fnmadd.s	fa1,fs1,fs0,fs4
   10740:	5089764f          	fnmadd.s	fa2,fs2,fs0,fa0
   10744:	508976c7          	fmsub.s	fa3,fs2,fs0,fa0
   10748:	a084f743          	fmadd.s	fa4,fs1,fs0,fs4
   1074c:	508977c3          	fmadd.s	fa5,fs2,fs0,fa0
   10750:	c00017d3          	fcvt.w.s	a5,ft0,rtz
   10754:	a084f4cb          	fnmsub.s	fs1,fs1,fs0,fs4
   10758:	c0059353          	fcvt.w.s	t1,fa1,rtz
   1075c:	5089744b          	fnmsub.s	fs0,fs2,fs0,fa0
   10760:	c00618d3          	fcvt.w.s	a7,fa2,rtz
   10764:	c0069653          	fcvt.w.s	a2,fa3,rtz
   10768:	012787b3          	add	a5,a5,s2
   1076c:	c00715d3          	fcvt.w.s	a1,fa4,rtz
   10770:	c0079ed3          	fcvt.w.s	t4,fa5,rtz
   10774:	01230333          	add	t1,t1,s2
   10778:	01079793          	slli	a5,a5,0x10
   1077c:	0ff37313          	andi	t1,t1,255
   10780:	013888b3          	add	a7,a7,s3
   10784:	01360633          	add	a2,a2,s3
   10788:	01c7f7b3          	and	a5,a5,t3
   1078c:	c00416d3          	fcvt.w.s	a3,fs0,rtz
   10790:	ffff0f13          	addi	t5,t5,-1 # ffff <main-0x75>
   10794:	01861613          	slli	a2,a2,0x18
   10798:	00889893          	slli	a7,a7,0x8
   1079c:	0067e7b3          	or	a5,a5,t1
   107a0:	c0049553          	fcvt.w.s	a0,fs1,rtz
   107a4:	01e8f8b3          	and	a7,a7,t5
   107a8:	01258733          	add	a4,a1,s2
   107ac:	013e8eb3          	add	t4,t4,s3
   107b0:	00c7e7b3          	or	a5,a5,a2
   107b4:	00006617          	auipc	a2,0x6
   107b8:	fb462603          	lw	a2,-76(a2) # 16768 <_GLOBAL_OFFSET_TABLE_+0x8>
   107bc:	00062603          	lw	a2,0(a2)
   107c0:	0ff77593          	andi	a1,a4,255
   107c4:	0117e7b3          	or	a5,a5,a7
   107c8:	008e9713          	slli	a4,t4,0x8
   107cc:	01041813          	slli	a6,s0,0x10
   107d0:	01e77eb3          	and	t4,a4,t5
   107d4:	00b86833          	or	a6,a6,a1
   107d8:	01368733          	add	a4,a3,s3
   107dc:	00a79f13          	slli	t5,a5,0xa
   107e0:	0167d793          	srli	a5,a5,0x16
   107e4:	01d866b3          	or	a3,a6,t4
   107e8:	01250933          	add	s2,a0,s2
   107ec:	00a79793          	slli	a5,a5,0xa
   107f0:	201f6513          	ori	a0,t5,513
   107f4:	01871713          	slli	a4,a4,0x18
   107f8:	00a62023          	sw	a0,0(a2)
   107fc:	2417e793          	ori	a5,a5,577
   10800:	00a69513          	slli	a0,a3,0xa
   10804:	00b76733          	or	a4,a4,a1
   10808:	01091913          	slli	s2,s2,0x10
   1080c:	fff44413          	not	s0,s0
   10810:	0166d693          	srli	a3,a3,0x16
   10814:	00f62223          	sw	a5,4(a2)
   10818:	28156593          	ori	a1,a0,641
   1081c:	01c97e33          	and	t3,s2,t3
   10820:	0ff47793          	andi	a5,s0,255
   10824:	00a69693          	slli	a3,a3,0xa
   10828:	01d76733          	or	a4,a4,t4
   1082c:	00b62423          	sw	a1,8(a2)
   10830:	01c76733          	or	a4,a4,t3
   10834:	2d16e693          	ori	a3,a3,721
   10838:	01079793          	slli	a5,a5,0x10
   1083c:	00d62623          	sw	a3,12(a2)
   10840:	2c500593          	li	a1,709
   10844:	00a71693          	slli	a3,a4,0xa
   10848:	00003517          	auipc	a0,0x3
   1084c:	92052787          	flw	fa5,-1760(a0) # 13168 <__errno+0x38>
   10850:	0067e7b3          	or	a5,a5,t1
   10854:	01675713          	srli	a4,a4,0x16
   10858:	00b62823          	sw	a1,16(a2)
   1085c:	00f9f9d3          	fadd.s	fs3,fs3,fa5
   10860:	0117e7b3          	or	a5,a5,a7
   10864:	2016e693          	ori	a3,a3,513
   10868:	00a71713          	slli	a4,a4,0xa
   1086c:	00d62023          	sw	a3,0(a2)
   10870:	24176713          	ori	a4,a4,577
   10874:	00a79693          	slli	a3,a5,0xa
   10878:	0167d793          	srli	a5,a5,0x16
   1087c:	00e62223          	sw	a4,4(a2)
   10880:	00a79793          	slli	a5,a5,0xa
   10884:	2816e713          	ori	a4,a3,641
   10888:	00e62423          	sw	a4,8(a2)
   1088c:	03c12083          	lw	ra,60(sp)
   10890:	03812403          	lw	s0,56(sp)
   10894:	2d17e793          	ori	a5,a5,721
   10898:	00f62623          	sw	a5,12(a2)
   1089c:	0134a027          	fsw	fs3,0(s1)
   108a0:	00b62823          	sw	a1,16(a2)
   108a4:	03412483          	lw	s1,52(sp)
   108a8:	03012903          	lw	s2,48(sp)
   108ac:	02c12983          	lw	s3,44(sp)
   108b0:	01c12407          	flw	fs0,28(sp)
   108b4:	01812487          	flw	fs1,24(sp)
   108b8:	01412907          	flw	fs2,20(sp)
   108bc:	01012987          	flw	fs3,16(sp)
   108c0:	00c12a07          	flw	fs4,12(sp)
   108c4:	04010113          	addi	sp,sp,64
   108c8:	00008067          	ret

000108cc <_Z14resetparticlesPi>:
   108cc:	ff010113          	addi	sp,sp,-16
   108d0:	00912223          	sw	s1,4(sp)
   108d4:	000024b7          	lui	s1,0x2
   108d8:	80048493          	addi	s1,s1,-2048 # 1800 <main-0xe874>
   108dc:	00812423          	sw	s0,8(sp)
   108e0:	01212023          	sw	s2,0(sp)
   108e4:	00112623          	sw	ra,12(sp)
   108e8:	00050413          	mv	s0,a0
   108ec:	009504b3          	add	s1,a0,s1
   108f0:	fff00913          	li	s2,-1
   108f4:	00042023          	sw	zero,0(s0)
   108f8:	01242223          	sw	s2,4(s0)
   108fc:	3d0010ef          	jal	ra,11ccc <_Z6Randomv>
   10900:	00757513          	andi	a0,a0,7
   10904:	00150513          	addi	a0,a0,1
   10908:	00a42423          	sw	a0,8(s0)
   1090c:	00c40413          	addi	s0,s0,12
   10910:	fe9412e3          	bne	s0,s1,108f4 <_Z14resetparticlesPi+0x28>
   10914:	00c12083          	lw	ra,12(sp)
   10918:	00812403          	lw	s0,8(sp)
   1091c:	00412483          	lw	s1,4(sp)
   10920:	00012903          	lw	s2,0(sp)
   10924:	01010113          	addi	sp,sp,16
   10928:	00008067          	ret

0001092c <_Z13drawparticlesPi>:
   1092c:	fd010113          	addi	sp,sp,-48
   10930:	01712623          	sw	s7,12(sp)
   10934:	00002bb7          	lui	s7,0x2
   10938:	800b8b93          	addi	s7,s7,-2048 # 1800 <main-0xe874>
   1093c:	02812423          	sw	s0,40(sp)
   10940:	02912223          	sw	s1,36(sp)
   10944:	03212023          	sw	s2,32(sp)
   10948:	01312e23          	sw	s3,28(sp)
   1094c:	01412c23          	sw	s4,24(sp)
   10950:	01512a23          	sw	s5,20(sp)
   10954:	01612823          	sw	s6,16(sp)
   10958:	01812423          	sw	s8,8(sp)
   1095c:	02112623          	sw	ra,44(sp)
   10960:	00050a13          	mv	s4,a0
   10964:	00050413          	mv	s0,a0
   10968:	01750bb3          	add	s7,a0,s7
   1096c:	00050493          	mv	s1,a0
   10970:	fff00913          	li	s2,-1
   10974:	07800a93          	li	s5,120
   10978:	06400993          	li	s3,100
   1097c:	0f000b13          	li	s6,240
   10980:	0b400c13          	li	s8,180
   10984:	0044a783          	lw	a5,4(s1)
   10988:	13278063          	beq	a5,s2,10aa8 <_Z13drawparticlesPi+0x17c>
   1098c:	0084a703          	lw	a4,8(s1)
   10990:	00e787b3          	add	a5,a5,a4
   10994:	12fc5463          	bge	s8,a5,10abc <_Z13drawparticlesPi+0x190>
   10998:	0124a223          	sw	s2,4(s1)
   1099c:	00c48493          	addi	s1,s1,12
   109a0:	fe9b92e3          	bne	s7,s1,10984 <_Z13drawparticlesPi+0x58>
   109a4:	00006797          	auipc	a5,0x6
   109a8:	dc47a783          	lw	a5,-572(a5) # 16768 <_GLOBAL_OFFSET_TABLE_+0x8>
   109ac:	0007a583          	lw	a1,0(a5)
   109b0:	00010337          	lui	t1,0x10
   109b4:	004a0513          	addi	a0,s4,4
   109b8:	00000613          	li	a2,0
   109bc:	fff00e93          	li	t4,-1
   109c0:	fff30893          	addi	a7,t1,-1 # ffff <main-0x75>
   109c4:	00ff0837          	lui	a6,0xff0
   109c8:	2c500f13          	li	t5,709
   109cc:	02000e37          	lui	t3,0x2000
   109d0:	00052783          	lw	a5,0(a0)
   109d4:	010673b3          	and	t2,a2,a6
   109d8:	00850513          	addi	a0,a0,8
   109dc:	00660633          	add	a2,a2,t1
   109e0:	09d78863          	beq	a5,t4,10a70 <_Z13drawparticlesPi+0x144>
   109e4:	00442683          	lw	a3,4(s0)
   109e8:	00042783          	lw	a5,0(s0)
   109ec:	00268713          	addi	a4,a3,2
   109f0:	00869293          	slli	t0,a3,0x8
   109f4:	0112f2b3          	and	t0,t0,a7
   109f8:	00478f93          	addi	t6,a5,4
   109fc:	01871713          	slli	a4,a4,0x18
   10a00:	00576733          	or	a4,a4,t0
   10a04:	010f9f93          	slli	t6,t6,0x10
   10a08:	0ff7f293          	andi	t0,a5,255
   10a0c:	010fffb3          	and	t6,t6,a6
   10a10:	00576733          	or	a4,a4,t0
   10a14:	00278793          	addi	a5,a5,2
   10a18:	00468693          	addi	a3,a3,4
   10a1c:	01f76733          	or	a4,a4,t6
   10a20:	0ff7f793          	andi	a5,a5,255
   10a24:	00869693          	slli	a3,a3,0x8
   10a28:	0116f6b3          	and	a3,a3,a7
   10a2c:	00a71f93          	slli	t6,a4,0xa
   10a30:	0077e7b3          	or	a5,a5,t2
   10a34:	01675713          	srli	a4,a4,0x16
   10a38:	00d7e7b3          	or	a5,a5,a3
   10a3c:	00a71713          	slli	a4,a4,0xa
   10a40:	201fe693          	ori	a3,t6,513
   10a44:	00d5a023          	sw	a3,0(a1)
   10a48:	24176713          	ori	a4,a4,577
   10a4c:	00a79693          	slli	a3,a5,0xa
   10a50:	0167d793          	srli	a5,a5,0x16
   10a54:	00e5a223          	sw	a4,4(a1)
   10a58:	00a79793          	slli	a5,a5,0xa
   10a5c:	2816e713          	ori	a4,a3,641
   10a60:	00e5a423          	sw	a4,8(a1)
   10a64:	2d17e793          	ori	a5,a5,721
   10a68:	00f5a623          	sw	a5,12(a1)
   10a6c:	01e5a823          	sw	t5,16(a1)
   10a70:	00c40413          	addi	s0,s0,12
   10a74:	f5c61ee3          	bne	a2,t3,109d0 <_Z13drawparticlesPi+0xa4>
   10a78:	02c12083          	lw	ra,44(sp)
   10a7c:	02812403          	lw	s0,40(sp)
   10a80:	02412483          	lw	s1,36(sp)
   10a84:	02012903          	lw	s2,32(sp)
   10a88:	01c12983          	lw	s3,28(sp)
   10a8c:	01812a03          	lw	s4,24(sp)
   10a90:	01412a83          	lw	s5,20(sp)
   10a94:	01012b03          	lw	s6,16(sp)
   10a98:	00c12b83          	lw	s7,12(sp)
   10a9c:	00812c03          	lw	s8,8(sp)
   10aa0:	03010113          	addi	sp,sp,48
   10aa4:	00008067          	ret
   10aa8:	224010ef          	jal	ra,11ccc <_Z6Randomv>
   10aac:	03557533          	remu	a0,a0,s5
   10ab0:	00a9ee63          	bltu	s3,a0,10acc <_Z13drawparticlesPi+0x1a0>
   10ab4:	0044a783          	lw	a5,4(s1)
   10ab8:	ed5ff06f          	j	1098c <_Z13drawparticlesPi+0x60>
   10abc:	00f4a223          	sw	a5,4(s1)
   10ac0:	00c48493          	addi	s1,s1,12
   10ac4:	ec9b90e3          	bne	s7,s1,10984 <_Z13drawparticlesPi+0x58>
   10ac8:	eddff06f          	j	109a4 <_Z13drawparticlesPi+0x78>
   10acc:	200010ef          	jal	ra,11ccc <_Z6Randomv>
   10ad0:	03657533          	remu	a0,a0,s6
   10ad4:	0004a223          	sw	zero,4(s1)
   10ad8:	00850513          	addi	a0,a0,8
   10adc:	00a4a023          	sw	a0,0(s1)
   10ae0:	1ec010ef          	jal	ra,11ccc <_Z6Randomv>
   10ae4:	00757713          	andi	a4,a0,7
   10ae8:	00170713          	addi	a4,a4,1
   10aec:	0044a783          	lw	a5,4(s1)
   10af0:	00e4a423          	sw	a4,8(s1)
   10af4:	e9dff06f          	j	10990 <_Z13drawparticlesPi+0x64>

00010af8 <_Z8PrintDMAiiPKcb>:
   10af8:	00064703          	lbu	a4,0(a2)
   10afc:	0a070263          	beqz	a4,10ba0 <_Z8PrintDMAiiPKcb+0xa8>
   10b00:	00006797          	auipc	a5,0x6
   10b04:	c687a783          	lw	a5,-920(a5) # 16768 <_GLOBAL_OFFSET_TABLE_+0x8>
   10b08:	00d03833          	snez	a6,a3
   10b0c:	00158393          	addi	t2,a1,1
   10b10:	00859693          	slli	a3,a1,0x8
   10b14:	00258293          	addi	t0,a1,2
   10b18:	00358f93          	addi	t6,a1,3
   10b1c:	00458f13          	addi	t5,a1,4
   10b20:	00558e93          	addi	t4,a1,5
   10b24:	00658e13          	addi	t3,a1,6
   10b28:	00758313          	addi	t1,a1,7
   10b2c:	0007a783          	lw	a5,0(a5)
   10b30:	000015b7          	lui	a1,0x1
   10b34:	ac458593          	addi	a1,a1,-1340 # ac4 <main-0xf5b0>
   10b38:	01881813          	slli	a6,a6,0x18
   10b3c:	00839393          	slli	t2,t2,0x8
   10b40:	00829293          	slli	t0,t0,0x8
   10b44:	008f9f93          	slli	t6,t6,0x8
   10b48:	008f1f13          	slli	t5,t5,0x8
   10b4c:	008e9e93          	slli	t4,t4,0x8
   10b50:	008e1e13          	slli	t3,t3,0x8
   10b54:	00831313          	slli	t1,t1,0x8
   10b58:	00b86833          	or	a6,a6,a1
   10b5c:	00160893          	addi	a7,a2,1
   10b60:	00d505b3          	add	a1,a0,a3
   10b64:	40d383b3          	sub	t2,t2,a3
   10b68:	00002517          	auipc	a0,0x2
   10b6c:	62850513          	addi	a0,a0,1576 # 13190 <_ZL4font>
   10b70:	40d282b3          	sub	t0,t0,a3
   10b74:	40df8fb3          	sub	t6,t6,a3
   10b78:	40df0f33          	sub	t5,t5,a3
   10b7c:	40de8eb3          	sub	t4,t4,a3
   10b80:	40de0e33          	sub	t3,t3,a3
   10b84:	40d30333          	sub	t1,t1,a3
   10b88:	fe070713          	addi	a4,a4,-32
   10b8c:	00075c63          	bgez	a4,10ba4 <_Z8PrintDMAiiPKcb+0xac>
   10b90:	0008c703          	lbu	a4,0(a7)
   10b94:	00858593          	addi	a1,a1,8
   10b98:	00188893          	addi	a7,a7,1
   10b9c:	fe0716e3          	bnez	a4,10b88 <_Z8PrintDMAiiPKcb+0x90>
   10ba0:	00008067          	ret
   10ba4:	ff010113          	addi	sp,sp,-16
   10ba8:	00812623          	sw	s0,12(sp)
   10bac:	00912423          	sw	s1,8(sp)
   10bb0:	01212223          	sw	s2,4(sp)
   10bb4:	40575413          	srai	s0,a4,0x5
   10bb8:	01f77713          	andi	a4,a4,31
   10bbc:	00371693          	slli	a3,a4,0x3
   10bc0:	00b41613          	slli	a2,s0,0xb
   10bc4:	00d60633          	add	a2,a2,a3
   10bc8:	00a60633          	add	a2,a2,a0
   10bcc:	00341713          	slli	a4,s0,0x3
   10bd0:	00a61913          	slli	s2,a2,0xa
   10bd4:	01665413          	srli	s0,a2,0x16
   10bd8:	4025d493          	srai	s1,a1,0x2
   10bdc:	20196913          	ori	s2,s2,513
   10be0:	00170613          	addi	a2,a4,1
   10be4:	00a41413          	slli	s0,s0,0xa
   10be8:	0127a023          	sw	s2,0(a5)
   10bec:	24146413          	ori	s0,s0,577
   10bf0:	00a49913          	slli	s2,s1,0xa
   10bf4:	00861613          	slli	a2,a2,0x8
   10bf8:	0164d493          	srli	s1,s1,0x16
   10bfc:	0087a223          	sw	s0,4(a5)
   10c00:	00d60633          	add	a2,a2,a3
   10c04:	28196413          	ori	s0,s2,641
   10c08:	00a49493          	slli	s1,s1,0xa
   10c0c:	0087a423          	sw	s0,8(a5)
   10c10:	00a60633          	add	a2,a2,a0
   10c14:	2d14e493          	ori	s1,s1,721
   10c18:	0097a623          	sw	s1,12(a5)
   10c1c:	00a61913          	slli	s2,a2,0xa
   10c20:	00b384b3          	add	s1,t2,a1
   10c24:	01665413          	srli	s0,a2,0x16
   10c28:	0107a823          	sw	a6,16(a5)
   10c2c:	4024d493          	srai	s1,s1,0x2
   10c30:	20196913          	ori	s2,s2,513
   10c34:	00270613          	addi	a2,a4,2
   10c38:	00a41413          	slli	s0,s0,0xa
   10c3c:	0127a023          	sw	s2,0(a5)
   10c40:	24146413          	ori	s0,s0,577
   10c44:	00a49913          	slli	s2,s1,0xa
   10c48:	00861613          	slli	a2,a2,0x8
   10c4c:	0164d493          	srli	s1,s1,0x16
   10c50:	0087a223          	sw	s0,4(a5)
   10c54:	00d60633          	add	a2,a2,a3
   10c58:	28196413          	ori	s0,s2,641
   10c5c:	00a49493          	slli	s1,s1,0xa
   10c60:	0087a423          	sw	s0,8(a5)
   10c64:	00a60633          	add	a2,a2,a0
   10c68:	2d14e493          	ori	s1,s1,721
   10c6c:	0097a623          	sw	s1,12(a5)
   10c70:	00a61913          	slli	s2,a2,0xa
   10c74:	00b284b3          	add	s1,t0,a1
   10c78:	01665413          	srli	s0,a2,0x16
   10c7c:	0107a823          	sw	a6,16(a5)
   10c80:	4024d493          	srai	s1,s1,0x2
   10c84:	20196913          	ori	s2,s2,513
   10c88:	00370613          	addi	a2,a4,3
   10c8c:	00a41413          	slli	s0,s0,0xa
   10c90:	0127a023          	sw	s2,0(a5)
   10c94:	24146413          	ori	s0,s0,577
   10c98:	00a49913          	slli	s2,s1,0xa
   10c9c:	00861613          	slli	a2,a2,0x8
   10ca0:	0164d493          	srli	s1,s1,0x16
   10ca4:	0087a223          	sw	s0,4(a5)
   10ca8:	00d60633          	add	a2,a2,a3
   10cac:	28196413          	ori	s0,s2,641
   10cb0:	00a49493          	slli	s1,s1,0xa
   10cb4:	0087a423          	sw	s0,8(a5)
   10cb8:	00a60633          	add	a2,a2,a0
   10cbc:	2d14e493          	ori	s1,s1,721
   10cc0:	0097a623          	sw	s1,12(a5)
   10cc4:	00a61913          	slli	s2,a2,0xa
   10cc8:	00bf84b3          	add	s1,t6,a1
   10ccc:	01665413          	srli	s0,a2,0x16
   10cd0:	0107a823          	sw	a6,16(a5)
   10cd4:	4024d493          	srai	s1,s1,0x2
   10cd8:	20196913          	ori	s2,s2,513
   10cdc:	00470613          	addi	a2,a4,4
   10ce0:	00a41413          	slli	s0,s0,0xa
   10ce4:	0127a023          	sw	s2,0(a5)
   10ce8:	24146413          	ori	s0,s0,577
   10cec:	00a49913          	slli	s2,s1,0xa
   10cf0:	00861613          	slli	a2,a2,0x8
   10cf4:	0164d493          	srli	s1,s1,0x16
   10cf8:	0087a223          	sw	s0,4(a5)
   10cfc:	00d60633          	add	a2,a2,a3
   10d00:	28196413          	ori	s0,s2,641
   10d04:	00a49493          	slli	s1,s1,0xa
   10d08:	0087a423          	sw	s0,8(a5)
   10d0c:	00a60633          	add	a2,a2,a0
   10d10:	2d14e493          	ori	s1,s1,721
   10d14:	0097a623          	sw	s1,12(a5)
   10d18:	00a61913          	slli	s2,a2,0xa
   10d1c:	00bf04b3          	add	s1,t5,a1
   10d20:	01665413          	srli	s0,a2,0x16
   10d24:	0107a823          	sw	a6,16(a5)
   10d28:	4024d493          	srai	s1,s1,0x2
   10d2c:	20196913          	ori	s2,s2,513
   10d30:	00570613          	addi	a2,a4,5
   10d34:	00a41413          	slli	s0,s0,0xa
   10d38:	0127a023          	sw	s2,0(a5)
   10d3c:	24146413          	ori	s0,s0,577
   10d40:	00a49913          	slli	s2,s1,0xa
   10d44:	00861613          	slli	a2,a2,0x8
   10d48:	0164d493          	srli	s1,s1,0x16
   10d4c:	0087a223          	sw	s0,4(a5)
   10d50:	00d60633          	add	a2,a2,a3
   10d54:	28196413          	ori	s0,s2,641
   10d58:	00a49493          	slli	s1,s1,0xa
   10d5c:	0087a423          	sw	s0,8(a5)
   10d60:	00a60633          	add	a2,a2,a0
   10d64:	2d14e493          	ori	s1,s1,721
   10d68:	0097a623          	sw	s1,12(a5)
   10d6c:	00a61913          	slli	s2,a2,0xa
   10d70:	00be84b3          	add	s1,t4,a1
   10d74:	01665413          	srli	s0,a2,0x16
   10d78:	0107a823          	sw	a6,16(a5)
   10d7c:	4024d493          	srai	s1,s1,0x2
   10d80:	20196913          	ori	s2,s2,513
   10d84:	00670613          	addi	a2,a4,6
   10d88:	00a41413          	slli	s0,s0,0xa
   10d8c:	0127a023          	sw	s2,0(a5)
   10d90:	24146413          	ori	s0,s0,577
   10d94:	00a49913          	slli	s2,s1,0xa
   10d98:	00861613          	slli	a2,a2,0x8
   10d9c:	0164d493          	srli	s1,s1,0x16
   10da0:	0087a223          	sw	s0,4(a5)
   10da4:	00d60633          	add	a2,a2,a3
   10da8:	28196413          	ori	s0,s2,641
   10dac:	00a49493          	slli	s1,s1,0xa
   10db0:	0087a423          	sw	s0,8(a5)
   10db4:	00a60633          	add	a2,a2,a0
   10db8:	00be0433          	add	s0,t3,a1
   10dbc:	2d14e493          	ori	s1,s1,721
   10dc0:	0097a623          	sw	s1,12(a5)
   10dc4:	40245413          	srai	s0,s0,0x2
   10dc8:	00a61913          	slli	s2,a2,0xa
   10dcc:	00770713          	addi	a4,a4,7
   10dd0:	01665613          	srli	a2,a2,0x16
   10dd4:	0107a823          	sw	a6,16(a5)
   10dd8:	01645493          	srli	s1,s0,0x16
   10ddc:	20196913          	ori	s2,s2,513
   10de0:	00a61613          	slli	a2,a2,0xa
   10de4:	00871713          	slli	a4,a4,0x8
   10de8:	0127a023          	sw	s2,0(a5)
   10dec:	24166613          	ori	a2,a2,577
   10df0:	00d70733          	add	a4,a4,a3
   10df4:	00a41413          	slli	s0,s0,0xa
   10df8:	00a49493          	slli	s1,s1,0xa
   10dfc:	00a70733          	add	a4,a4,a0
   10e00:	00c7a223          	sw	a2,4(a5)
   10e04:	28146413          	ori	s0,s0,641
   10e08:	2d14e613          	ori	a2,s1,721
   10e0c:	0087a423          	sw	s0,8(a5)
   10e10:	00b306b3          	add	a3,t1,a1
   10e14:	00c7a623          	sw	a2,12(a5)
   10e18:	00a71613          	slli	a2,a4,0xa
   10e1c:	01675713          	srli	a4,a4,0x16
   10e20:	0107a823          	sw	a6,16(a5)
   10e24:	4026d693          	srai	a3,a3,0x2
   10e28:	20166613          	ori	a2,a2,513
   10e2c:	00a71713          	slli	a4,a4,0xa
   10e30:	00c7a023          	sw	a2,0(a5)
   10e34:	24176713          	ori	a4,a4,577
   10e38:	00a69613          	slli	a2,a3,0xa
   10e3c:	0166d693          	srli	a3,a3,0x16
   10e40:	00e7a223          	sw	a4,4(a5)
   10e44:	00a69693          	slli	a3,a3,0xa
   10e48:	28166713          	ori	a4,a2,641
   10e4c:	00e7a423          	sw	a4,8(a5)
   10e50:	2d16e693          	ori	a3,a3,721
   10e54:	00d7a623          	sw	a3,12(a5)
   10e58:	0107a823          	sw	a6,16(a5)
   10e5c:	0008c703          	lbu	a4,0(a7)
   10e60:	00858593          	addi	a1,a1,8
   10e64:	00188893          	addi	a7,a7,1
   10e68:	00070e63          	beqz	a4,10e84 <_Z8PrintDMAiiPKcb+0x38c>
   10e6c:	fe070713          	addi	a4,a4,-32
   10e70:	d40752e3          	bgez	a4,10bb4 <_Z8PrintDMAiiPKcb+0xbc>
   10e74:	0008c703          	lbu	a4,0(a7)
   10e78:	00858593          	addi	a1,a1,8
   10e7c:	00188893          	addi	a7,a7,1
   10e80:	fe0716e3          	bnez	a4,10e6c <_Z8PrintDMAiiPKcb+0x374>
   10e84:	00c12403          	lw	s0,12(sp)
   10e88:	00812483          	lw	s1,8(sp)
   10e8c:	00412903          	lw	s2,4(sp)
   10e90:	01010113          	addi	sp,sp,16
   10e94:	00008067          	ret

00010e98 <_Z8PrintDMAiiiPKcb>:
   10e98:	38c05263          	blez	a2,1121c <_Z8PrintDMAiiiPKcb+0x384>
   10e9c:	ff010113          	addi	sp,sp,-16
   10ea0:	00e03833          	snez	a6,a4
   10ea4:	00258393          	addi	t2,a1,2
   10ea8:	00358293          	addi	t0,a1,3
   10eac:	00458f93          	addi	t6,a1,4
   10eb0:	00558f13          	addi	t5,a1,5
   10eb4:	00658e93          	addi	t4,a1,6
   10eb8:	00758e13          	addi	t3,a1,7
   10ebc:	00068893          	mv	a7,a3
   10ec0:	00812623          	sw	s0,12(sp)
   10ec4:	000016b7          	lui	a3,0x1
   10ec8:	00158413          	addi	s0,a1,1
   10ecc:	00859713          	slli	a4,a1,0x8
   10ed0:	01881813          	slli	a6,a6,0x18
   10ed4:	00841413          	slli	s0,s0,0x8
   10ed8:	00839393          	slli	t2,t2,0x8
   10edc:	00829293          	slli	t0,t0,0x8
   10ee0:	008f9f93          	slli	t6,t6,0x8
   10ee4:	008f1f13          	slli	t5,t5,0x8
   10ee8:	008e9e93          	slli	t4,t4,0x8
   10eec:	008e1e13          	slli	t3,t3,0x8
   10ef0:	00006797          	auipc	a5,0x6
   10ef4:	8787a783          	lw	a5,-1928(a5) # 16768 <_GLOBAL_OFFSET_TABLE_+0x8>
   10ef8:	ac468693          	addi	a3,a3,-1340 # ac4 <main-0xf5b0>
   10efc:	00e505b3          	add	a1,a0,a4
   10f00:	0007a783          	lw	a5,0(a5)
   10f04:	00912423          	sw	s1,8(sp)
   10f08:	01212223          	sw	s2,4(sp)
   10f0c:	01312023          	sw	s3,0(sp)
   10f10:	00d86833          	or	a6,a6,a3
   10f14:	00c88333          	add	t1,a7,a2
   10f18:	00002517          	auipc	a0,0x2
   10f1c:	27850513          	addi	a0,a0,632 # 13190 <_ZL4font>
   10f20:	40e40433          	sub	s0,s0,a4
   10f24:	40e383b3          	sub	t2,t2,a4
   10f28:	40e282b3          	sub	t0,t0,a4
   10f2c:	40ef8fb3          	sub	t6,t6,a4
   10f30:	40ef0f33          	sub	t5,t5,a4
   10f34:	40ee8eb3          	sub	t4,t4,a4
   10f38:	40ee0e33          	sub	t3,t3,a4
   10f3c:	2c00006f          	j	111fc <_Z8PrintDMAiiiPKcb+0x364>
   10f40:	fe070713          	addi	a4,a4,-32
   10f44:	2a074663          	bltz	a4,111f0 <_Z8PrintDMAiiiPKcb+0x358>
   10f48:	40575493          	srai	s1,a4,0x5
   10f4c:	01f77713          	andi	a4,a4,31
   10f50:	00371693          	slli	a3,a4,0x3
   10f54:	00b49613          	slli	a2,s1,0xb
   10f58:	00d60633          	add	a2,a2,a3
   10f5c:	00a60633          	add	a2,a2,a0
   10f60:	00349713          	slli	a4,s1,0x3
   10f64:	00a61993          	slli	s3,a2,0xa
   10f68:	01665493          	srli	s1,a2,0x16
   10f6c:	4025d913          	srai	s2,a1,0x2
   10f70:	2019e993          	ori	s3,s3,513
   10f74:	00170613          	addi	a2,a4,1
   10f78:	00a49493          	slli	s1,s1,0xa
   10f7c:	0137a023          	sw	s3,0(a5)
   10f80:	2414e493          	ori	s1,s1,577
   10f84:	00a91993          	slli	s3,s2,0xa
   10f88:	00861613          	slli	a2,a2,0x8
   10f8c:	01695913          	srli	s2,s2,0x16
   10f90:	0097a223          	sw	s1,4(a5)
   10f94:	00d60633          	add	a2,a2,a3
   10f98:	2819e493          	ori	s1,s3,641
   10f9c:	00a91913          	slli	s2,s2,0xa
   10fa0:	0097a423          	sw	s1,8(a5)
   10fa4:	00a60633          	add	a2,a2,a0
   10fa8:	2d196913          	ori	s2,s2,721
   10fac:	0127a623          	sw	s2,12(a5)
   10fb0:	00a61993          	slli	s3,a2,0xa
   10fb4:	01665493          	srli	s1,a2,0x16
   10fb8:	00b40933          	add	s2,s0,a1
   10fbc:	0107a823          	sw	a6,16(a5)
   10fc0:	40295913          	srai	s2,s2,0x2
   10fc4:	2019e993          	ori	s3,s3,513
   10fc8:	00270613          	addi	a2,a4,2
   10fcc:	00a49493          	slli	s1,s1,0xa
   10fd0:	0137a023          	sw	s3,0(a5)
   10fd4:	2414e493          	ori	s1,s1,577
   10fd8:	00a91993          	slli	s3,s2,0xa
   10fdc:	00861613          	slli	a2,a2,0x8
   10fe0:	01695913          	srli	s2,s2,0x16
   10fe4:	0097a223          	sw	s1,4(a5)
   10fe8:	00d60633          	add	a2,a2,a3
   10fec:	2819e493          	ori	s1,s3,641
   10ff0:	00a91913          	slli	s2,s2,0xa
   10ff4:	0097a423          	sw	s1,8(a5)
   10ff8:	00a60633          	add	a2,a2,a0
   10ffc:	2d196913          	ori	s2,s2,721
   11000:	0127a623          	sw	s2,12(a5)
   11004:	00a61993          	slli	s3,a2,0xa
   11008:	01665493          	srli	s1,a2,0x16
   1100c:	00b38933          	add	s2,t2,a1
   11010:	0107a823          	sw	a6,16(a5)
   11014:	40295913          	srai	s2,s2,0x2
   11018:	2019e993          	ori	s3,s3,513
   1101c:	00370613          	addi	a2,a4,3
   11020:	00a49493          	slli	s1,s1,0xa
   11024:	0137a023          	sw	s3,0(a5)
   11028:	2414e493          	ori	s1,s1,577
   1102c:	00a91993          	slli	s3,s2,0xa
   11030:	00861613          	slli	a2,a2,0x8
   11034:	01695913          	srli	s2,s2,0x16
   11038:	0097a223          	sw	s1,4(a5)
   1103c:	00d60633          	add	a2,a2,a3
   11040:	2819e493          	ori	s1,s3,641
   11044:	00a91913          	slli	s2,s2,0xa
   11048:	0097a423          	sw	s1,8(a5)
   1104c:	00a60633          	add	a2,a2,a0
   11050:	2d196913          	ori	s2,s2,721
   11054:	0127a623          	sw	s2,12(a5)
   11058:	00a61993          	slli	s3,a2,0xa
   1105c:	01665493          	srli	s1,a2,0x16
   11060:	00b28933          	add	s2,t0,a1
   11064:	0107a823          	sw	a6,16(a5)
   11068:	40295913          	srai	s2,s2,0x2
   1106c:	2019e993          	ori	s3,s3,513
   11070:	00470613          	addi	a2,a4,4
   11074:	00a49493          	slli	s1,s1,0xa
   11078:	0137a023          	sw	s3,0(a5)
   1107c:	2414e493          	ori	s1,s1,577
   11080:	00a91993          	slli	s3,s2,0xa
   11084:	00861613          	slli	a2,a2,0x8
   11088:	01695913          	srli	s2,s2,0x16
   1108c:	0097a223          	sw	s1,4(a5)
   11090:	00d60633          	add	a2,a2,a3
   11094:	2819e493          	ori	s1,s3,641
   11098:	00a91913          	slli	s2,s2,0xa
   1109c:	0097a423          	sw	s1,8(a5)
   110a0:	00a60633          	add	a2,a2,a0
   110a4:	2d196913          	ori	s2,s2,721
   110a8:	0127a623          	sw	s2,12(a5)
   110ac:	00a61993          	slli	s3,a2,0xa
   110b0:	01665493          	srli	s1,a2,0x16
   110b4:	00bf8933          	add	s2,t6,a1
   110b8:	0107a823          	sw	a6,16(a5)
   110bc:	40295913          	srai	s2,s2,0x2
   110c0:	2019e993          	ori	s3,s3,513
   110c4:	00570613          	addi	a2,a4,5
   110c8:	00a49493          	slli	s1,s1,0xa
   110cc:	0137a023          	sw	s3,0(a5)
   110d0:	2414e493          	ori	s1,s1,577
   110d4:	00a91993          	slli	s3,s2,0xa
   110d8:	00861613          	slli	a2,a2,0x8
   110dc:	01695913          	srli	s2,s2,0x16
   110e0:	0097a223          	sw	s1,4(a5)
   110e4:	00d60633          	add	a2,a2,a3
   110e8:	2819e493          	ori	s1,s3,641
   110ec:	00a91913          	slli	s2,s2,0xa
   110f0:	0097a423          	sw	s1,8(a5)
   110f4:	00a60633          	add	a2,a2,a0
   110f8:	2d196913          	ori	s2,s2,721
   110fc:	0127a623          	sw	s2,12(a5)
   11100:	00a61993          	slli	s3,a2,0xa
   11104:	01665493          	srli	s1,a2,0x16
   11108:	00bf0933          	add	s2,t5,a1
   1110c:	0107a823          	sw	a6,16(a5)
   11110:	40295913          	srai	s2,s2,0x2
   11114:	2019e993          	ori	s3,s3,513
   11118:	00670613          	addi	a2,a4,6
   1111c:	00a49493          	slli	s1,s1,0xa
   11120:	0137a023          	sw	s3,0(a5)
   11124:	2414e493          	ori	s1,s1,577
   11128:	00a91993          	slli	s3,s2,0xa
   1112c:	00861613          	slli	a2,a2,0x8
   11130:	01695913          	srli	s2,s2,0x16
   11134:	0097a223          	sw	s1,4(a5)
   11138:	00d60633          	add	a2,a2,a3
   1113c:	2819e493          	ori	s1,s3,641
   11140:	00a91913          	slli	s2,s2,0xa
   11144:	0097a423          	sw	s1,8(a5)
   11148:	00a60633          	add	a2,a2,a0
   1114c:	2d196913          	ori	s2,s2,721
   11150:	00be84b3          	add	s1,t4,a1
   11154:	0127a623          	sw	s2,12(a5)
   11158:	4024d493          	srai	s1,s1,0x2
   1115c:	00a61993          	slli	s3,a2,0xa
   11160:	00770713          	addi	a4,a4,7
   11164:	01665613          	srli	a2,a2,0x16
   11168:	0107a823          	sw	a6,16(a5)
   1116c:	0164d913          	srli	s2,s1,0x16
   11170:	2019e993          	ori	s3,s3,513
   11174:	00a61613          	slli	a2,a2,0xa
   11178:	00871713          	slli	a4,a4,0x8
   1117c:	0137a023          	sw	s3,0(a5)
   11180:	24166613          	ori	a2,a2,577
   11184:	00d70733          	add	a4,a4,a3
   11188:	00a49493          	slli	s1,s1,0xa
   1118c:	00a91913          	slli	s2,s2,0xa
   11190:	00a70733          	add	a4,a4,a0
   11194:	00c7a223          	sw	a2,4(a5)
   11198:	2d196693          	ori	a3,s2,721
   1119c:	2814e493          	ori	s1,s1,641
   111a0:	0097a423          	sw	s1,8(a5)
   111a4:	00a71613          	slli	a2,a4,0xa
   111a8:	00d7a623          	sw	a3,12(a5)
   111ac:	01675713          	srli	a4,a4,0x16
   111b0:	00be06b3          	add	a3,t3,a1
   111b4:	0107a823          	sw	a6,16(a5)
   111b8:	4026d693          	srai	a3,a3,0x2
   111bc:	20166613          	ori	a2,a2,513
   111c0:	00a71713          	slli	a4,a4,0xa
   111c4:	00c7a023          	sw	a2,0(a5)
   111c8:	24176713          	ori	a4,a4,577
   111cc:	00a69613          	slli	a2,a3,0xa
   111d0:	0166d693          	srli	a3,a3,0x16
   111d4:	00e7a223          	sw	a4,4(a5)
   111d8:	00a69693          	slli	a3,a3,0xa
   111dc:	28166713          	ori	a4,a2,641
   111e0:	00e7a423          	sw	a4,8(a5)
   111e4:	2d16e693          	ori	a3,a3,721
   111e8:	00d7a623          	sw	a3,12(a5)
   111ec:	0107a823          	sw	a6,16(a5)
   111f0:	00188893          	addi	a7,a7,1
   111f4:	00858593          	addi	a1,a1,8
   111f8:	01130663          	beq	t1,a7,11204 <_Z8PrintDMAiiiPKcb+0x36c>
   111fc:	0008c703          	lbu	a4,0(a7)
   11200:	d40710e3          	bnez	a4,10f40 <_Z8PrintDMAiiiPKcb+0xa8>
   11204:	00c12403          	lw	s0,12(sp)
   11208:	00812483          	lw	s1,8(sp)
   1120c:	00412903          	lw	s2,4(sp)
   11210:	00012983          	lw	s3,0(sp)
   11214:	01010113          	addi	sp,sp,16
   11218:	00008067          	ret
   1121c:	00008067          	ret

00011220 <_Z5PrintiiPKc>:
   11220:	00064783          	lbu	a5,0(a2)
   11224:	1e078a63          	beqz	a5,11418 <_Z5PrintiiPKc+0x1f8>
   11228:	00001737          	lui	a4,0x1
   1122c:	80070713          	addi	a4,a4,-2048 # 800 <main-0xf874>
   11230:	fd010113          	addi	sp,sp,-48
   11234:	00859893          	slli	a7,a1,0x8
   11238:	00e50733          	add	a4,a0,a4
   1123c:	02812623          	sw	s0,44(sp)
   11240:	02912423          	sw	s1,40(sp)
   11244:	03212223          	sw	s2,36(sp)
   11248:	03312023          	sw	s3,32(sp)
   1124c:	01412e23          	sw	s4,28(sp)
   11250:	01512c23          	sw	s5,24(sp)
   11254:	01612a23          	sw	s6,20(sp)
   11258:	01712823          	sw	s7,16(sp)
   1125c:	01812623          	sw	s8,12(sp)
   11260:	01912423          	sw	s9,8(sp)
   11264:	01a12223          	sw	s10,4(sp)
   11268:	01b12023          	sw	s11,0(sp)
   1126c:	00058c93          	mv	s9,a1
   11270:	00050313          	mv	t1,a0
   11274:	00160413          	addi	s0,a2,1
   11278:	00150b93          	addi	s7,a0,1
   1127c:	00250b13          	addi	s6,a0,2
   11280:	00350a93          	addi	s5,a0,3
   11284:	00450a13          	addi	s4,a0,4
   11288:	00550993          	addi	s3,a0,5
   1128c:	00650913          	addi	s2,a0,6
   11290:	00750493          	addi	s1,a0,7
   11294:	00e888b3          	add	a7,a7,a4
   11298:	00002c17          	auipc	s8,0x2
   1129c:	ef8c0c13          	addi	s8,s8,-264 # 13190 <_ZL4font>
   112a0:	00005697          	auipc	a3,0x5
   112a4:	4c46a683          	lw	a3,1220(a3) # 16764 <_GLOBAL_OFFSET_TABLE_+0x4>
   112a8:	fe078793          	addi	a5,a5,-32
   112ac:	1007c263          	bltz	a5,113b0 <_Z5PrintiiPKc+0x190>
   112b0:	4057d713          	srai	a4,a5,0x5
   112b4:	00371613          	slli	a2,a4,0x3
   112b8:	01f7f793          	andi	a5,a5,31
   112bc:	00379793          	slli	a5,a5,0x3
   112c0:	41960633          	sub	a2,a2,s9
   112c4:	00178593          	addi	a1,a5,1
   112c8:	00b71713          	slli	a4,a4,0xb
   112cc:	00861613          	slli	a2,a2,0x8
   112d0:	00e58733          	add	a4,a1,a4
   112d4:	00fc0833          	add	a6,s8,a5
   112d8:	40660633          	sub	a2,a2,t1
   112dc:	80088793          	addi	a5,a7,-2048
   112e0:	00ec0733          	add	a4,s8,a4
   112e4:	406b85b3          	sub	a1,s7,t1
   112e8:	406b03b3          	sub	t2,s6,t1
   112ec:	406a82b3          	sub	t0,s5,t1
   112f0:	406a0fb3          	sub	t6,s4,t1
   112f4:	40698f33          	sub	t5,s3,t1
   112f8:	40690eb3          	sub	t4,s2,t1
   112fc:	40648e33          	sub	t3,s1,t1
   11300:	00c80833          	add	a6,a6,a2
   11304:	0006a603          	lw	a2,0(a3)
   11308:	00f80533          	add	a0,a6,a5
   1130c:	00054503          	lbu	a0,0(a0)
   11310:	00f60633          	add	a2,a2,a5
   11314:	00f58d33          	add	s10,a1,a5
   11318:	00a60023          	sb	a0,0(a2)
   1131c:	0006a603          	lw	a2,0(a3)
   11320:	00074503          	lbu	a0,0(a4)
   11324:	00f38db3          	add	s11,t2,a5
   11328:	01a60633          	add	a2,a2,s10
   1132c:	00a60023          	sb	a0,0(a2)
   11330:	0006a603          	lw	a2,0(a3)
   11334:	00174503          	lbu	a0,1(a4)
   11338:	00f28d33          	add	s10,t0,a5
   1133c:	01b60633          	add	a2,a2,s11
   11340:	00a60023          	sb	a0,0(a2)
   11344:	0006a603          	lw	a2,0(a3)
   11348:	00274503          	lbu	a0,2(a4)
   1134c:	00ff8db3          	add	s11,t6,a5
   11350:	01a60633          	add	a2,a2,s10
   11354:	00a60023          	sb	a0,0(a2)
   11358:	0006a603          	lw	a2,0(a3)
   1135c:	00374503          	lbu	a0,3(a4)
   11360:	00ff0d33          	add	s10,t5,a5
   11364:	01b60633          	add	a2,a2,s11
   11368:	00a60023          	sb	a0,0(a2)
   1136c:	0006a603          	lw	a2,0(a3)
   11370:	00474503          	lbu	a0,4(a4)
   11374:	00fe8db3          	add	s11,t4,a5
   11378:	01a60633          	add	a2,a2,s10
   1137c:	00a60023          	sb	a0,0(a2)
   11380:	0006a503          	lw	a0,0(a3)
   11384:	00574603          	lbu	a2,5(a4)
   11388:	00fe0d33          	add	s10,t3,a5
   1138c:	01b50533          	add	a0,a0,s11
   11390:	00c50023          	sb	a2,0(a0)
   11394:	0006a603          	lw	a2,0(a3)
   11398:	00674503          	lbu	a0,6(a4)
   1139c:	10078793          	addi	a5,a5,256
   113a0:	01a60633          	add	a2,a2,s10
   113a4:	00a60023          	sb	a0,0(a2)
   113a8:	10070713          	addi	a4,a4,256
   113ac:	f4f89ce3          	bne	a7,a5,11304 <_Z5PrintiiPKc+0xe4>
   113b0:	00044783          	lbu	a5,0(s0)
   113b4:	00830313          	addi	t1,t1,8
   113b8:	00140413          	addi	s0,s0,1
   113bc:	008b8b93          	addi	s7,s7,8
   113c0:	008b0b13          	addi	s6,s6,8
   113c4:	008a8a93          	addi	s5,s5,8
   113c8:	008a0a13          	addi	s4,s4,8
   113cc:	00898993          	addi	s3,s3,8
   113d0:	00890913          	addi	s2,s2,8
   113d4:	00848493          	addi	s1,s1,8
   113d8:	00888893          	addi	a7,a7,8
   113dc:	ec0796e3          	bnez	a5,112a8 <_Z5PrintiiPKc+0x88>
   113e0:	02c12403          	lw	s0,44(sp)
   113e4:	02812483          	lw	s1,40(sp)
   113e8:	02412903          	lw	s2,36(sp)
   113ec:	02012983          	lw	s3,32(sp)
   113f0:	01c12a03          	lw	s4,28(sp)
   113f4:	01812a83          	lw	s5,24(sp)
   113f8:	01412b03          	lw	s6,20(sp)
   113fc:	01012b83          	lw	s7,16(sp)
   11400:	00c12c03          	lw	s8,12(sp)
   11404:	00812c83          	lw	s9,8(sp)
   11408:	00412d03          	lw	s10,4(sp)
   1140c:	00012d83          	lw	s11,0(sp)
   11410:	03010113          	addi	sp,sp,48
   11414:	00008067          	ret
   11418:	00008067          	ret

0001141c <_Z8PrintHexiim>:
   1141c:	00002e17          	auipc	t3,0x2
   11420:	d30e0e13          	addi	t3,t3,-720 # 1314c <__errno+0x1c>
   11424:	00ce2f03          	lw	t5,12(t3)
   11428:	000e2383          	lw	t2,0(t3)
   1142c:	004e2283          	lw	t0,4(t3)
   11430:	008e2f83          	lw	t6,8(t3)
   11434:	fd010113          	addi	sp,sp,-48
   11438:	01865313          	srli	t1,a2,0x18
   1143c:	01465893          	srli	a7,a2,0x14
   11440:	01065813          	srli	a6,a2,0x10
   11444:	00c65693          	srli	a3,a2,0xc
   11448:	00865713          	srli	a4,a2,0x8
   1144c:	00465793          	srli	a5,a2,0x4
   11450:	01e12c23          	sw	t5,24(sp)
   11454:	01c65e93          	srli	t4,a2,0x1c
   11458:	02010f13          	addi	t5,sp,32
   1145c:	00f37313          	andi	t1,t1,15
   11460:	00f8f893          	andi	a7,a7,15
   11464:	00f87813          	andi	a6,a6,15
   11468:	00f6f693          	andi	a3,a3,15
   1146c:	00f77713          	andi	a4,a4,15
   11470:	00f7f793          	andi	a5,a5,15
   11474:	00f67613          	andi	a2,a2,15
   11478:	02112623          	sw	ra,44(sp)
   1147c:	00712623          	sw	t2,12(sp)
   11480:	00512823          	sw	t0,16(sp)
   11484:	01f12a23          	sw	t6,20(sp)
   11488:	006f0333          	add	t1,t5,t1
   1148c:	011f08b3          	add	a7,t5,a7
   11490:	010f0833          	add	a6,t5,a6
   11494:	00df06b3          	add	a3,t5,a3
   11498:	00ef0733          	add	a4,t5,a4
   1149c:	00ff07b3          	add	a5,t5,a5
   114a0:	00cf0633          	add	a2,t5,a2
   114a4:	01df0eb3          	add	t4,t5,t4
   114a8:	fecece83          	lbu	t4,-20(t4)
   114ac:	010e4f03          	lbu	t5,16(t3)
   114b0:	fec34e03          	lbu	t3,-20(t1)
   114b4:	fec8c303          	lbu	t1,-20(a7)
   114b8:	fec84883          	lbu	a7,-20(a6) # feffec <__BSS_END__+0xfd97c4>
   114bc:	fec6c803          	lbu	a6,-20(a3)
   114c0:	fec74683          	lbu	a3,-20(a4)
   114c4:	fec7c703          	lbu	a4,-20(a5)
   114c8:	fec64783          	lbu	a5,-20(a2)
   114cc:	02e00613          	li	a2,46
   114d0:	00c11423          	sh	a2,8(sp)
   114d4:	00010613          	mv	a2,sp
   114d8:	01e10e23          	sb	t5,28(sp)
   114dc:	01d10023          	sb	t4,0(sp)
   114e0:	01c100a3          	sb	t3,1(sp)
   114e4:	00610123          	sb	t1,2(sp)
   114e8:	011101a3          	sb	a7,3(sp)
   114ec:	01010223          	sb	a6,4(sp)
   114f0:	00d102a3          	sb	a3,5(sp)
   114f4:	00e10323          	sb	a4,6(sp)
   114f8:	00f103a3          	sb	a5,7(sp)
   114fc:	00010423          	sb	zero,8(sp)
   11500:	d21ff0ef          	jal	ra,11220 <_Z5PrintiiPKc>
   11504:	02c12083          	lw	ra,44(sp)
   11508:	03010113          	addi	sp,sp,48
   1150c:	00008067          	ret

00011510 <_Z11PrintMaskediiPKc>:
   11510:	00064783          	lbu	a5,0(a2)
   11514:	20078663          	beqz	a5,11720 <_Z11PrintMaskediiPKc+0x210>
   11518:	000018b7          	lui	a7,0x1
   1151c:	80788893          	addi	a7,a7,-2041 # 807 <main-0xf86d>
   11520:	fd010113          	addi	sp,sp,-48
   11524:	00859713          	slli	a4,a1,0x8
   11528:	011508b3          	add	a7,a0,a7
   1152c:	02812623          	sw	s0,44(sp)
   11530:	02912423          	sw	s1,40(sp)
   11534:	03212223          	sw	s2,36(sp)
   11538:	03312023          	sw	s3,32(sp)
   1153c:	01412e23          	sw	s4,28(sp)
   11540:	01512c23          	sw	s5,24(sp)
   11544:	00160e93          	addi	t4,a2,1
   11548:	00058a93          	mv	s5,a1
   1154c:	01612a23          	sw	s6,20(sp)
   11550:	01712823          	sw	s7,16(sp)
   11554:	01812623          	sw	s8,12(sp)
   11558:	01912423          	sw	s9,8(sp)
   1155c:	01a12223          	sw	s10,4(sp)
   11560:	00050e13          	mv	t3,a0
   11564:	00e888b3          	add	a7,a7,a4
   11568:	00750313          	addi	t1,a0,7
   1156c:	00650993          	addi	s3,a0,6
   11570:	00550913          	addi	s2,a0,5
   11574:	00450493          	addi	s1,a0,4
   11578:	00350413          	addi	s0,a0,3
   1157c:	00250593          	addi	a1,a0,2
   11580:	00150393          	addi	t2,a0,1
   11584:	00002a17          	auipc	s4,0x2
   11588:	c0ca0a13          	addi	s4,s4,-1012 # 13190 <_ZL4font>
   1158c:	00005617          	auipc	a2,0x5
   11590:	1d862603          	lw	a2,472(a2) # 16764 <_GLOBAL_OFFSET_TABLE_+0x4>
   11594:	fe078793          	addi	a5,a5,-32
   11598:	1207c263          	bltz	a5,116bc <_Z11PrintMaskediiPKc+0x1ac>
   1159c:	4057d713          	srai	a4,a5,0x5
   115a0:	01f7f793          	andi	a5,a5,31
   115a4:	00379513          	slli	a0,a5,0x3
   115a8:	00371813          	slli	a6,a4,0x3
   115ac:	00150793          	addi	a5,a0,1
   115b0:	00b71713          	slli	a4,a4,0xb
   115b4:	41580833          	sub	a6,a6,s5
   115b8:	00e787b3          	add	a5,a5,a4
   115bc:	00881813          	slli	a6,a6,0x8
   115c0:	80088713          	addi	a4,a7,-2048
   115c4:	00fa07b3          	add	a5,s4,a5
   115c8:	40680833          	sub	a6,a6,t1
   115cc:	00aa0533          	add	a0,s4,a0
   115d0:	406e0cb3          	sub	s9,t3,t1
   115d4:	40638c33          	sub	s8,t2,t1
   115d8:	40658bb3          	sub	s7,a1,t1
   115dc:	40640b33          	sub	s6,s0,t1
   115e0:	406482b3          	sub	t0,s1,t1
   115e4:	40690fb3          	sub	t6,s2,t1
   115e8:	40698f33          	sub	t5,s3,t1
   115ec:	00e506b3          	add	a3,a0,a4
   115f0:	010686b3          	add	a3,a3,a6
   115f4:	0006c683          	lbu	a3,0(a3)
   115f8:	00068a63          	beqz	a3,1160c <_Z11PrintMaskediiPKc+0xfc>
   115fc:	00062683          	lw	a3,0(a2)
   11600:	00ec8d33          	add	s10,s9,a4
   11604:	01a686b3          	add	a3,a3,s10
   11608:	00068023          	sb	zero,0(a3)
   1160c:	0007c683          	lbu	a3,0(a5)
   11610:	00068a63          	beqz	a3,11624 <_Z11PrintMaskediiPKc+0x114>
   11614:	00062683          	lw	a3,0(a2)
   11618:	00ec0d33          	add	s10,s8,a4
   1161c:	01a686b3          	add	a3,a3,s10
   11620:	00068023          	sb	zero,0(a3)
   11624:	0017c683          	lbu	a3,1(a5)
   11628:	00068a63          	beqz	a3,1163c <_Z11PrintMaskediiPKc+0x12c>
   1162c:	00062683          	lw	a3,0(a2)
   11630:	00eb8d33          	add	s10,s7,a4
   11634:	01a686b3          	add	a3,a3,s10
   11638:	00068023          	sb	zero,0(a3)
   1163c:	0027c683          	lbu	a3,2(a5)
   11640:	00068a63          	beqz	a3,11654 <_Z11PrintMaskediiPKc+0x144>
   11644:	00062683          	lw	a3,0(a2)
   11648:	00eb0d33          	add	s10,s6,a4
   1164c:	01a686b3          	add	a3,a3,s10
   11650:	00068023          	sb	zero,0(a3)
   11654:	0037c683          	lbu	a3,3(a5)
   11658:	00068a63          	beqz	a3,1166c <_Z11PrintMaskediiPKc+0x15c>
   1165c:	00062683          	lw	a3,0(a2)
   11660:	00e28d33          	add	s10,t0,a4
   11664:	01a686b3          	add	a3,a3,s10
   11668:	00068023          	sb	zero,0(a3)
   1166c:	0047c683          	lbu	a3,4(a5)
   11670:	00068a63          	beqz	a3,11684 <_Z11PrintMaskediiPKc+0x174>
   11674:	00062683          	lw	a3,0(a2)
   11678:	00ef8d33          	add	s10,t6,a4
   1167c:	01a686b3          	add	a3,a3,s10
   11680:	00068023          	sb	zero,0(a3)
   11684:	0057c683          	lbu	a3,5(a5)
   11688:	00068a63          	beqz	a3,1169c <_Z11PrintMaskediiPKc+0x18c>
   1168c:	00062683          	lw	a3,0(a2)
   11690:	00ef0d33          	add	s10,t5,a4
   11694:	01a686b3          	add	a3,a3,s10
   11698:	00068023          	sb	zero,0(a3)
   1169c:	0067c683          	lbu	a3,6(a5)
   116a0:	00068863          	beqz	a3,116b0 <_Z11PrintMaskediiPKc+0x1a0>
   116a4:	00062683          	lw	a3,0(a2)
   116a8:	00e686b3          	add	a3,a3,a4
   116ac:	00068023          	sb	zero,0(a3)
   116b0:	10070713          	addi	a4,a4,256
   116b4:	10078793          	addi	a5,a5,256
   116b8:	f3171ae3          	bne	a4,a7,115ec <_Z11PrintMaskediiPKc+0xdc>
   116bc:	000ec783          	lbu	a5,0(t4)
   116c0:	00888893          	addi	a7,a7,8
   116c4:	001e8e93          	addi	t4,t4,1
   116c8:	00830313          	addi	t1,t1,8
   116cc:	008e0e13          	addi	t3,t3,8
   116d0:	00898993          	addi	s3,s3,8
   116d4:	00890913          	addi	s2,s2,8
   116d8:	00848493          	addi	s1,s1,8
   116dc:	00840413          	addi	s0,s0,8
   116e0:	00858593          	addi	a1,a1,8
   116e4:	00838393          	addi	t2,t2,8
   116e8:	ea0796e3          	bnez	a5,11594 <_Z11PrintMaskediiPKc+0x84>
   116ec:	02c12403          	lw	s0,44(sp)
   116f0:	02812483          	lw	s1,40(sp)
   116f4:	02412903          	lw	s2,36(sp)
   116f8:	02012983          	lw	s3,32(sp)
   116fc:	01c12a03          	lw	s4,28(sp)
   11700:	01812a83          	lw	s5,24(sp)
   11704:	01412b03          	lw	s6,20(sp)
   11708:	01012b83          	lw	s7,16(sp)
   1170c:	00c12c03          	lw	s8,12(sp)
   11710:	00812c83          	lw	s9,8(sp)
   11714:	00412d03          	lw	s10,4(sp)
   11718:	03010113          	addi	sp,sp,48
   1171c:	00008067          	ret
   11720:	00008067          	ret

00011724 <_Z5PrintiiiPKc>:
   11724:	fc010113          	addi	sp,sp,-64
   11728:	02812e23          	sw	s0,60(sp)
   1172c:	02912c23          	sw	s1,56(sp)
   11730:	03212a23          	sw	s2,52(sp)
   11734:	03312823          	sw	s3,48(sp)
   11738:	03412623          	sw	s4,44(sp)
   1173c:	03512423          	sw	s5,40(sp)
   11740:	03612223          	sw	s6,36(sp)
   11744:	03712023          	sw	s7,32(sp)
   11748:	01812e23          	sw	s8,28(sp)
   1174c:	01912c23          	sw	s9,24(sp)
   11750:	01a12a23          	sw	s10,20(sp)
   11754:	01b12823          	sw	s11,16(sp)
   11758:	00b12623          	sw	a1,12(sp)
   1175c:	18c05a63          	blez	a2,118f0 <_Z5PrintiiiPKc+0x1cc>
   11760:	00001837          	lui	a6,0x1
   11764:	80080813          	addi	a6,a6,-2048 # 800 <main-0xf874>
   11768:	00859793          	slli	a5,a1,0x8
   1176c:	01050833          	add	a6,a0,a6
   11770:	00068893          	mv	a7,a3
   11774:	00c68bb3          	add	s7,a3,a2
   11778:	00f12423          	sw	a5,8(sp)
   1177c:	00150b13          	addi	s6,a0,1
   11780:	00250a93          	addi	s5,a0,2
   11784:	00350a13          	addi	s4,a0,3
   11788:	00450993          	addi	s3,a0,4
   1178c:	00550913          	addi	s2,a0,5
   11790:	00650493          	addi	s1,a0,6
   11794:	00750413          	addi	s0,a0,7
   11798:	00f80833          	add	a6,a6,a5
   1179c:	00002c17          	auipc	s8,0x2
   117a0:	9f4c0c13          	addi	s8,s8,-1548 # 13190 <_ZL4font>
   117a4:	00005697          	auipc	a3,0x5
   117a8:	fc06a683          	lw	a3,-64(a3) # 16764 <_GLOBAL_OFFSET_TABLE_+0x4>
   117ac:	0008c783          	lbu	a5,0(a7)
   117b0:	14078063          	beqz	a5,118f0 <_Z5PrintiiiPKc+0x1cc>
   117b4:	fe078793          	addi	a5,a5,-32
   117b8:	1007c663          	bltz	a5,118c4 <_Z5PrintiiiPKc+0x1a0>
   117bc:	00c12583          	lw	a1,12(sp)
   117c0:	4057d713          	srai	a4,a5,0x5
   117c4:	01f7f793          	andi	a5,a5,31
   117c8:	00379793          	slli	a5,a5,0x3
   117cc:	00371613          	slli	a2,a4,0x3
   117d0:	40b60633          	sub	a2,a2,a1
   117d4:	00b71713          	slli	a4,a4,0xb
   117d8:	00178593          	addi	a1,a5,1
   117dc:	00e58733          	add	a4,a1,a4
   117e0:	00fc05b3          	add	a1,s8,a5
   117e4:	00812783          	lw	a5,8(sp)
   117e8:	00861613          	slli	a2,a2,0x8
   117ec:	40a60633          	sub	a2,a2,a0
   117f0:	00a787b3          	add	a5,a5,a0
   117f4:	00ec0733          	add	a4,s8,a4
   117f8:	40ab03b3          	sub	t2,s6,a0
   117fc:	40aa82b3          	sub	t0,s5,a0
   11800:	40aa0fb3          	sub	t6,s4,a0
   11804:	40a98f33          	sub	t5,s3,a0
   11808:	40a90eb3          	sub	t4,s2,a0
   1180c:	40a48e33          	sub	t3,s1,a0
   11810:	40a40333          	sub	t1,s0,a0
   11814:	00c585b3          	add	a1,a1,a2
   11818:	0006a603          	lw	a2,0(a3)
   1181c:	00f58cb3          	add	s9,a1,a5
   11820:	000ccc83          	lbu	s9,0(s9)
   11824:	00f60633          	add	a2,a2,a5
   11828:	00f38db3          	add	s11,t2,a5
   1182c:	01960023          	sb	s9,0(a2)
   11830:	0006a603          	lw	a2,0(a3)
   11834:	00074c83          	lbu	s9,0(a4)
   11838:	00f28d33          	add	s10,t0,a5
   1183c:	01b60633          	add	a2,a2,s11
   11840:	01960023          	sb	s9,0(a2)
   11844:	0006a603          	lw	a2,0(a3)
   11848:	00174d83          	lbu	s11,1(a4)
   1184c:	00ff8cb3          	add	s9,t6,a5
   11850:	01a60633          	add	a2,a2,s10
   11854:	01b60023          	sb	s11,0(a2)
   11858:	0006a603          	lw	a2,0(a3)
   1185c:	00274d83          	lbu	s11,2(a4)
   11860:	00ff0d33          	add	s10,t5,a5
   11864:	01960633          	add	a2,a2,s9
   11868:	01b60023          	sb	s11,0(a2)
   1186c:	0006a603          	lw	a2,0(a3)
   11870:	00374d83          	lbu	s11,3(a4)
   11874:	00fe8cb3          	add	s9,t4,a5
   11878:	01a60633          	add	a2,a2,s10
   1187c:	01b60023          	sb	s11,0(a2)
   11880:	0006a603          	lw	a2,0(a3)
   11884:	00474d83          	lbu	s11,4(a4)
   11888:	00fe0d33          	add	s10,t3,a5
   1188c:	01960633          	add	a2,a2,s9
   11890:	01b60023          	sb	s11,0(a2)
   11894:	0006a603          	lw	a2,0(a3)
   11898:	00574d83          	lbu	s11,5(a4)
   1189c:	00f30cb3          	add	s9,t1,a5
   118a0:	01a60633          	add	a2,a2,s10
   118a4:	01b60023          	sb	s11,0(a2)
   118a8:	0006a603          	lw	a2,0(a3)
   118ac:	00674d03          	lbu	s10,6(a4)
   118b0:	10078793          	addi	a5,a5,256
   118b4:	01960633          	add	a2,a2,s9
   118b8:	01a60023          	sb	s10,0(a2)
   118bc:	10070713          	addi	a4,a4,256
   118c0:	f4f81ce3          	bne	a6,a5,11818 <_Z5PrintiiiPKc+0xf4>
   118c4:	00188893          	addi	a7,a7,1
   118c8:	00850513          	addi	a0,a0,8
   118cc:	008b0b13          	addi	s6,s6,8
   118d0:	008a8a93          	addi	s5,s5,8
   118d4:	008a0a13          	addi	s4,s4,8
   118d8:	00898993          	addi	s3,s3,8
   118dc:	00890913          	addi	s2,s2,8
   118e0:	00848493          	addi	s1,s1,8
   118e4:	00840413          	addi	s0,s0,8
   118e8:	00880813          	addi	a6,a6,8
   118ec:	ed7890e3          	bne	a7,s7,117ac <_Z5PrintiiiPKc+0x88>
   118f0:	03c12403          	lw	s0,60(sp)
   118f4:	03812483          	lw	s1,56(sp)
   118f8:	03412903          	lw	s2,52(sp)
   118fc:	03012983          	lw	s3,48(sp)
   11900:	02c12a03          	lw	s4,44(sp)
   11904:	02812a83          	lw	s5,40(sp)
   11908:	02412b03          	lw	s6,36(sp)
   1190c:	02012b83          	lw	s7,32(sp)
   11910:	01c12c03          	lw	s8,28(sp)
   11914:	01812c83          	lw	s9,24(sp)
   11918:	01412d03          	lw	s10,20(sp)
   1191c:	01012d83          	lw	s11,16(sp)
   11920:	04010113          	addi	sp,sp,64
   11924:	00008067          	ret

00011928 <_Z11PrintMaskediiiPKc>:
   11928:	20c05e63          	blez	a2,11b44 <_Z11PrintMaskediiiPKc+0x21c>
   1192c:	000018b7          	lui	a7,0x1
   11930:	80788893          	addi	a7,a7,-2041 # 807 <main-0xf86d>
   11934:	fd010113          	addi	sp,sp,-48
   11938:	00859793          	slli	a5,a1,0x8
   1193c:	011508b3          	add	a7,a0,a7
   11940:	02812623          	sw	s0,44(sp)
   11944:	01412e23          	sw	s4,28(sp)
   11948:	01512c23          	sw	s5,24(sp)
   1194c:	01612a23          	sw	s6,20(sp)
   11950:	00c68a33          	add	s4,a3,a2
   11954:	00058b13          	mv	s6,a1
   11958:	02912423          	sw	s1,40(sp)
   1195c:	03212223          	sw	s2,36(sp)
   11960:	03312023          	sw	s3,32(sp)
   11964:	01712823          	sw	s7,16(sp)
   11968:	01812623          	sw	s8,12(sp)
   1196c:	01912423          	sw	s9,8(sp)
   11970:	01a12223          	sw	s10,4(sp)
   11974:	01b12023          	sw	s11,0(sp)
   11978:	00050e93          	mv	t4,a0
   1197c:	00068e13          	mv	t3,a3
   11980:	00f888b3          	add	a7,a7,a5
   11984:	00750313          	addi	t1,a0,7
   11988:	00650413          	addi	s0,a0,6
   1198c:	00550593          	addi	a1,a0,5
   11990:	00450393          	addi	t2,a0,4
   11994:	00350293          	addi	t0,a0,3
   11998:	00250f93          	addi	t6,a0,2
   1199c:	00150f13          	addi	t5,a0,1
   119a0:	00001a97          	auipc	s5,0x1
   119a4:	7f0a8a93          	addi	s5,s5,2032 # 13190 <_ZL4font>
   119a8:	00005617          	auipc	a2,0x5
   119ac:	dbc62603          	lw	a2,-580(a2) # 16764 <_GLOBAL_OFFSET_TABLE_+0x4>
   119b0:	000e4783          	lbu	a5,0(t3)
   119b4:	14078c63          	beqz	a5,11b0c <_Z11PrintMaskediiiPKc+0x1e4>
   119b8:	fe078793          	addi	a5,a5,-32
   119bc:	1207c263          	bltz	a5,11ae0 <_Z11PrintMaskediiiPKc+0x1b8>
   119c0:	4057d713          	srai	a4,a5,0x5
   119c4:	01f7f793          	andi	a5,a5,31
   119c8:	00379513          	slli	a0,a5,0x3
   119cc:	00371813          	slli	a6,a4,0x3
   119d0:	00150793          	addi	a5,a0,1
   119d4:	00b71713          	slli	a4,a4,0xb
   119d8:	41680833          	sub	a6,a6,s6
   119dc:	00e787b3          	add	a5,a5,a4
   119e0:	00881813          	slli	a6,a6,0x8
   119e4:	80088713          	addi	a4,a7,-2048
   119e8:	00fa87b3          	add	a5,s5,a5
   119ec:	40680833          	sub	a6,a6,t1
   119f0:	00aa8533          	add	a0,s5,a0
   119f4:	406e8d33          	sub	s10,t4,t1
   119f8:	406f0cb3          	sub	s9,t5,t1
   119fc:	406f8c33          	sub	s8,t6,t1
   11a00:	40628bb3          	sub	s7,t0,t1
   11a04:	406389b3          	sub	s3,t2,t1
   11a08:	40658933          	sub	s2,a1,t1
   11a0c:	406404b3          	sub	s1,s0,t1
   11a10:	00e506b3          	add	a3,a0,a4
   11a14:	010686b3          	add	a3,a3,a6
   11a18:	0006c683          	lbu	a3,0(a3)
   11a1c:	00068a63          	beqz	a3,11a30 <_Z11PrintMaskediiiPKc+0x108>
   11a20:	00062683          	lw	a3,0(a2)
   11a24:	00ed0db3          	add	s11,s10,a4
   11a28:	01b686b3          	add	a3,a3,s11
   11a2c:	00068023          	sb	zero,0(a3)
   11a30:	0007c683          	lbu	a3,0(a5)
   11a34:	00068a63          	beqz	a3,11a48 <_Z11PrintMaskediiiPKc+0x120>
   11a38:	00062683          	lw	a3,0(a2)
   11a3c:	00ec8db3          	add	s11,s9,a4
   11a40:	01b686b3          	add	a3,a3,s11
   11a44:	00068023          	sb	zero,0(a3)
   11a48:	0017c683          	lbu	a3,1(a5)
   11a4c:	00068a63          	beqz	a3,11a60 <_Z11PrintMaskediiiPKc+0x138>
   11a50:	00062683          	lw	a3,0(a2)
   11a54:	00ec0db3          	add	s11,s8,a4
   11a58:	01b686b3          	add	a3,a3,s11
   11a5c:	00068023          	sb	zero,0(a3)
   11a60:	0027c683          	lbu	a3,2(a5)
   11a64:	00068a63          	beqz	a3,11a78 <_Z11PrintMaskediiiPKc+0x150>
   11a68:	00062683          	lw	a3,0(a2)
   11a6c:	00eb8db3          	add	s11,s7,a4
   11a70:	01b686b3          	add	a3,a3,s11
   11a74:	00068023          	sb	zero,0(a3)
   11a78:	0037c683          	lbu	a3,3(a5)
   11a7c:	00068a63          	beqz	a3,11a90 <_Z11PrintMaskediiiPKc+0x168>
   11a80:	00062683          	lw	a3,0(a2)
   11a84:	00e98db3          	add	s11,s3,a4
   11a88:	01b686b3          	add	a3,a3,s11
   11a8c:	00068023          	sb	zero,0(a3)
   11a90:	0047c683          	lbu	a3,4(a5)
   11a94:	00068a63          	beqz	a3,11aa8 <_Z11PrintMaskediiiPKc+0x180>
   11a98:	00062683          	lw	a3,0(a2)
   11a9c:	00e90db3          	add	s11,s2,a4
   11aa0:	01b686b3          	add	a3,a3,s11
   11aa4:	00068023          	sb	zero,0(a3)
   11aa8:	0057c683          	lbu	a3,5(a5)
   11aac:	00068a63          	beqz	a3,11ac0 <_Z11PrintMaskediiiPKc+0x198>
   11ab0:	00062683          	lw	a3,0(a2)
   11ab4:	00e48db3          	add	s11,s1,a4
   11ab8:	01b686b3          	add	a3,a3,s11
   11abc:	00068023          	sb	zero,0(a3)
   11ac0:	0067c683          	lbu	a3,6(a5)
   11ac4:	00068863          	beqz	a3,11ad4 <_Z11PrintMaskediiiPKc+0x1ac>
   11ac8:	00062683          	lw	a3,0(a2)
   11acc:	00e686b3          	add	a3,a3,a4
   11ad0:	00068023          	sb	zero,0(a3)
   11ad4:	10070713          	addi	a4,a4,256
   11ad8:	10078793          	addi	a5,a5,256
   11adc:	f3171ae3          	bne	a4,a7,11a10 <_Z11PrintMaskediiiPKc+0xe8>
   11ae0:	001e0e13          	addi	t3,t3,1
   11ae4:	00888893          	addi	a7,a7,8
   11ae8:	00830313          	addi	t1,t1,8
   11aec:	008e8e93          	addi	t4,t4,8
   11af0:	00840413          	addi	s0,s0,8
   11af4:	00858593          	addi	a1,a1,8
   11af8:	00838393          	addi	t2,t2,8
   11afc:	00828293          	addi	t0,t0,8
   11b00:	008f8f93          	addi	t6,t6,8
   11b04:	008f0f13          	addi	t5,t5,8
   11b08:	ebca14e3          	bne	s4,t3,119b0 <_Z11PrintMaskediiiPKc+0x88>
   11b0c:	02c12403          	lw	s0,44(sp)
   11b10:	02812483          	lw	s1,40(sp)
   11b14:	02412903          	lw	s2,36(sp)
   11b18:	02012983          	lw	s3,32(sp)
   11b1c:	01c12a03          	lw	s4,28(sp)
   11b20:	01812a83          	lw	s5,24(sp)
   11b24:	01412b03          	lw	s6,20(sp)
   11b28:	01012b83          	lw	s7,16(sp)
   11b2c:	00c12c03          	lw	s8,12(sp)
   11b30:	00812c83          	lw	s9,8(sp)
   11b34:	00412d03          	lw	s10,4(sp)
   11b38:	00012d83          	lw	s11,0(sp)
   11b3c:	03010113          	addi	sp,sp,48
   11b40:	00008067          	ret
   11b44:	00008067          	ret

00011b48 <_Z8EchoUARTPKc>:
   11b48:	00054683          	lbu	a3,0(a0)
   11b4c:	02068663          	beqz	a3,11b78 <_Z8EchoUARTPKc+0x30>
   11b50:	00000793          	li	a5,0
   11b54:	00005617          	auipc	a2,0x5
   11b58:	c2062603          	lw	a2,-992(a2) # 16774 <_GLOBAL_OFFSET_TABLE_+0x14>
   11b5c:	00062703          	lw	a4,0(a2)
   11b60:	00f70733          	add	a4,a4,a5
   11b64:	00178793          	addi	a5,a5,1
   11b68:	00d70023          	sb	a3,0(a4)
   11b6c:	00f50733          	add	a4,a0,a5
   11b70:	00074683          	lbu	a3,0(a4)
   11b74:	fe0694e3          	bnez	a3,11b5c <_Z8EchoUARTPKc+0x14>
   11b78:	00008067          	ret

00011b7c <_Z7EchoIntm>:
   11b7c:	00001617          	auipc	a2,0x1
   11b80:	5d060613          	addi	a2,a2,1488 # 1314c <__errno+0x1c>
   11b84:	00c62803          	lw	a6,12(a2)
   11b88:	00062e03          	lw	t3,0(a2)
   11b8c:	00462303          	lw	t1,4(a2)
   11b90:	00862883          	lw	a7,8(a2)
   11b94:	fd010113          	addi	sp,sp,-48
   11b98:	00c55793          	srli	a5,a0,0xc
   11b9c:	00855693          	srli	a3,a0,0x8
   11ba0:	01855713          	srli	a4,a0,0x18
   11ba4:	01012c23          	sw	a6,24(sp)
   11ba8:	01c55593          	srli	a1,a0,0x1c
   11bac:	02010813          	addi	a6,sp,32
   11bb0:	00f7f793          	andi	a5,a5,15
   11bb4:	00f6f693          	andi	a3,a3,15
   11bb8:	00f77713          	andi	a4,a4,15
   11bbc:	02112623          	sw	ra,44(sp)
   11bc0:	01112a23          	sw	a7,20(sp)
   11bc4:	01c12623          	sw	t3,12(sp)
   11bc8:	00612823          	sw	t1,16(sp)
   11bcc:	00d806b3          	add	a3,a6,a3
   11bd0:	00b805b3          	add	a1,a6,a1
   11bd4:	00e80733          	add	a4,a6,a4
   11bd8:	00f807b3          	add	a5,a6,a5
   11bdc:	00455893          	srli	a7,a0,0x4
   11be0:	01455813          	srli	a6,a0,0x14
   11be4:	fec6ce83          	lbu	t4,-20(a3)
   11be8:	fec74e03          	lbu	t3,-20(a4)
   11bec:	fec5c683          	lbu	a3,-20(a1)
   11bf0:	02010713          	addi	a4,sp,32
   11bf4:	fec7c783          	lbu	a5,-20(a5)
   11bf8:	00f8f893          	andi	a7,a7,15
   11bfc:	00f87813          	andi	a6,a6,15
   11c00:	011708b3          	add	a7,a4,a7
   11c04:	01070833          	add	a6,a4,a6
   11c08:	01055593          	srli	a1,a0,0x10
   11c0c:	ffff0737          	lui	a4,0xffff0
   11c10:	fec8c303          	lbu	t1,-20(a7)
   11c14:	0ff70713          	addi	a4,a4,255 # ffff00ff <__BSS_END__+0xfffd98d7>
   11c18:	fec84883          	lbu	a7,-20(a6)
   11c1c:	00f5f593          	andi	a1,a1,15
   11c20:	02010813          	addi	a6,sp,32
   11c24:	00f57513          	andi	a0,a0,15
   11c28:	008e9e93          	slli	t4,t4,0x8
   11c2c:	00e7f7b3          	and	a5,a5,a4
   11c30:	00a80533          	add	a0,a6,a0
   11c34:	008e1e13          	slli	t3,t3,0x8
   11c38:	00e6f733          	and	a4,a3,a4
   11c3c:	00b806b3          	add	a3,a6,a1
   11c40:	ff0105b7          	lui	a1,0xff010
   11c44:	fec54803          	lbu	a6,-20(a0)
   11c48:	fff58593          	addi	a1,a1,-1 # ff00ffff <__BSS_END__+0xfeff97d7>
   11c4c:	fec6c503          	lbu	a0,-20(a3)
   11c50:	01d7e7b3          	or	a5,a5,t4
   11c54:	01c76733          	or	a4,a4,t3
   11c58:	01031313          	slli	t1,t1,0x10
   11c5c:	00001e17          	auipc	t3,0x1
   11c60:	528e0e13          	addi	t3,t3,1320 # 13184 <__errno+0x54>
   11c64:	00b7f7b3          	and	a5,a5,a1
   11c68:	01089893          	slli	a7,a7,0x10
   11c6c:	00b77733          	and	a4,a4,a1
   11c70:	010006b7          	lui	a3,0x1000
   11c74:	01064f03          	lbu	t5,16(a2)
   11c78:	008e5e83          	lhu	t4,8(t3)
   11c7c:	fff68693          	addi	a3,a3,-1 # ffffff <__BSS_END__+0xfe97d7>
   11c80:	00ae4e03          	lbu	t3,10(t3)
   11c84:	0067e7b3          	or	a5,a5,t1
   11c88:	01176733          	or	a4,a4,a7
   11c8c:	01851613          	slli	a2,a0,0x18
   11c90:	01881593          	slli	a1,a6,0x18
   11c94:	00d7f7b3          	and	a5,a5,a3
   11c98:	00d77733          	and	a4,a4,a3
   11c9c:	00b7e7b3          	or	a5,a5,a1
   11ca0:	00c76733          	or	a4,a4,a2
   11ca4:	00010513          	mv	a0,sp
   11ca8:	01e10e23          	sb	t5,28(sp)
   11cac:	01d11423          	sh	t4,8(sp)
   11cb0:	01c10523          	sb	t3,10(sp)
   11cb4:	00e12023          	sw	a4,0(sp)
   11cb8:	00f12223          	sw	a5,4(sp)
   11cbc:	e8dff0ef          	jal	ra,11b48 <_Z8EchoUARTPKc>
   11cc0:	02c12083          	lw	ra,44(sp)
   11cc4:	03010113          	addi	sp,sp,48
   11cc8:	00008067          	ret

00011ccc <_Z6Randomv>:
   11ccc:	00005717          	auipc	a4,0x5
   11cd0:	aa072703          	lw	a4,-1376(a4) # 1676c <_GLOBAL_OFFSET_TABLE_+0xc>
   11cd4:	00072503          	lw	a0,0(a4)
   11cd8:	00951793          	slli	a5,a0,0x9
   11cdc:	00a7c7b3          	xor	a5,a5,a0
   11ce0:	00d7d513          	srli	a0,a5,0xd
   11ce4:	00f547b3          	xor	a5,a0,a5
   11ce8:	00179513          	slli	a0,a5,0x1
   11cec:	00f54533          	xor	a0,a0,a5
   11cf0:	00a72023          	sw	a0,0(a4)
   11cf4:	00008067          	ret

00011cf8 <cosf>:
   11cf8:	e00507d3          	fmv.x.w	a5,fa0
   11cfc:	3f4916b7          	lui	a3,0x3f491
   11d00:	fd868693          	addi	a3,a3,-40 # 3f490fd8 <__BSS_END__+0x3f47a7b0>
   11d04:	00179713          	slli	a4,a5,0x1
   11d08:	00175713          	srli	a4,a4,0x1
   11d0c:	04e6dc63          	bge	a3,a4,11d64 <cosf+0x6c>
   11d10:	7f8006b7          	lui	a3,0x7f800
   11d14:	00d74663          	blt	a4,a3,11d20 <cosf+0x28>
   11d18:	08a57553          	fsub.s	fa0,fa0,fa0
   11d1c:	00008067          	ret
   11d20:	fe010113          	addi	sp,sp,-32
   11d24:	00810513          	addi	a0,sp,8
   11d28:	00112e23          	sw	ra,28(sp)
   11d2c:	110000ef          	jal	ra,11e3c <__ieee754_rem_pio2f>
   11d30:	00357513          	andi	a0,a0,3
   11d34:	00100793          	li	a5,1
   11d38:	02f50a63          	beq	a0,a5,11d6c <cosf+0x74>
   11d3c:	00200793          	li	a5,2
   11d40:	00c12587          	flw	fa1,12(sp)
   11d44:	00812507          	flw	fa0,8(sp)
   11d48:	04f50263          	beq	a0,a5,11d8c <cosf+0x94>
   11d4c:	02050c63          	beqz	a0,11d84 <cosf+0x8c>
   11d50:	00100513          	li	a0,1
   11d54:	571000ef          	jal	ra,12ac4 <__kernel_sinf>
   11d58:	01c12083          	lw	ra,28(sp)
   11d5c:	02010113          	addi	sp,sp,32
   11d60:	00008067          	ret
   11d64:	f00005d3          	fmv.w.x	fa1,zero
   11d68:	3a40006f          	j	1210c <__kernel_cosf>
   11d6c:	00c12587          	flw	fa1,12(sp)
   11d70:	00812507          	flw	fa0,8(sp)
   11d74:	00100513          	li	a0,1
   11d78:	54d000ef          	jal	ra,12ac4 <__kernel_sinf>
   11d7c:	20a51553          	fneg.s	fa0,fa0
   11d80:	fd9ff06f          	j	11d58 <cosf+0x60>
   11d84:	388000ef          	jal	ra,1210c <__kernel_cosf>
   11d88:	fd1ff06f          	j	11d58 <cosf+0x60>
   11d8c:	380000ef          	jal	ra,1210c <__kernel_cosf>
   11d90:	20a51553          	fneg.s	fa0,fa0
   11d94:	fc5ff06f          	j	11d58 <cosf+0x60>

00011d98 <sinf>:
   11d98:	e00507d3          	fmv.x.w	a5,fa0
   11d9c:	3f4916b7          	lui	a3,0x3f491
   11da0:	fd868693          	addi	a3,a3,-40 # 3f490fd8 <__BSS_END__+0x3f47a7b0>
   11da4:	00179713          	slli	a4,a5,0x1
   11da8:	00175713          	srli	a4,a4,0x1
   11dac:	04e6dc63          	bge	a3,a4,11e04 <sinf+0x6c>
   11db0:	7f8006b7          	lui	a3,0x7f800
   11db4:	00d74663          	blt	a4,a3,11dc0 <sinf+0x28>
   11db8:	08a57553          	fsub.s	fa0,fa0,fa0
   11dbc:	00008067          	ret
   11dc0:	fe010113          	addi	sp,sp,-32
   11dc4:	00810513          	addi	a0,sp,8
   11dc8:	00112e23          	sw	ra,28(sp)
   11dcc:	070000ef          	jal	ra,11e3c <__ieee754_rem_pio2f>
   11dd0:	00357513          	andi	a0,a0,3
   11dd4:	00100793          	li	a5,1
   11dd8:	02f50c63          	beq	a0,a5,11e10 <sinf+0x78>
   11ddc:	00200793          	li	a5,2
   11de0:	00c12587          	flw	fa1,12(sp)
   11de4:	00812507          	flw	fa0,8(sp)
   11de8:	04f50263          	beq	a0,a5,11e2c <sinf+0x94>
   11dec:	02050a63          	beqz	a0,11e20 <sinf+0x88>
   11df0:	31c000ef          	jal	ra,1210c <__kernel_cosf>
   11df4:	20a51553          	fneg.s	fa0,fa0
   11df8:	01c12083          	lw	ra,28(sp)
   11dfc:	02010113          	addi	sp,sp,32
   11e00:	00008067          	ret
   11e04:	f00005d3          	fmv.w.x	fa1,zero
   11e08:	00000513          	li	a0,0
   11e0c:	4b90006f          	j	12ac4 <__kernel_sinf>
   11e10:	00c12587          	flw	fa1,12(sp)
   11e14:	00812507          	flw	fa0,8(sp)
   11e18:	2f4000ef          	jal	ra,1210c <__kernel_cosf>
   11e1c:	fddff06f          	j	11df8 <sinf+0x60>
   11e20:	00100513          	li	a0,1
   11e24:	4a1000ef          	jal	ra,12ac4 <__kernel_sinf>
   11e28:	fd1ff06f          	j	11df8 <sinf+0x60>
   11e2c:	00100513          	li	a0,1
   11e30:	495000ef          	jal	ra,12ac4 <__kernel_sinf>
   11e34:	20a51553          	fneg.s	fa0,fa0
   11e38:	fc1ff06f          	j	11df8 <sinf+0x60>

00011e3c <__ieee754_rem_pio2f>:
   11e3c:	e00507d3          	fmv.x.w	a5,fa0
   11e40:	fe010113          	addi	sp,sp,-32
   11e44:	00812c23          	sw	s0,24(sp)
   11e48:	3f491737          	lui	a4,0x3f491
   11e4c:	00179413          	slli	s0,a5,0x1
   11e50:	00912a23          	sw	s1,20(sp)
   11e54:	00112e23          	sw	ra,28(sp)
   11e58:	01212823          	sw	s2,16(sp)
   11e5c:	fd870713          	addi	a4,a4,-40 # 3f490fd8 <__BSS_END__+0x3f47a7b0>
   11e60:	00145413          	srli	s0,s0,0x1
   11e64:	00050493          	mv	s1,a0
   11e68:	10875c63          	bge	a4,s0,11f80 <__ieee754_rem_pio2f+0x144>
   11e6c:	4016d737          	lui	a4,0x4016d
   11e70:	be370713          	addi	a4,a4,-1053 # 4016cbe3 <__BSS_END__+0x401563bb>
   11e74:	00078913          	mv	s2,a5
   11e78:	04874a63          	blt	a4,s0,11ecc <__ieee754_rem_pio2f+0x90>
   11e7c:	3fc91737          	lui	a4,0x3fc91
   11e80:	7501a787          	flw	fa5,1872(gp) # 16778 <__SDATA_BEGIN__>
   11e84:	ff047413          	andi	s0,s0,-16
   11e88:	fd070713          	addi	a4,a4,-48 # 3fc90fd0 <__BSS_END__+0x3fc7a7a8>
   11e8c:	24f05463          	blez	a5,120d4 <__ieee754_rem_pio2f+0x298>
   11e90:	08f577d3          	fsub.s	fa5,fa0,fa5
   11e94:	12e40263          	beq	s0,a4,11fb8 <__ieee754_rem_pio2f+0x17c>
   11e98:	7541a707          	flw	fa4,1876(gp) # 1677c <__SDATA_BEGIN__+0x4>
   11e9c:	08e7f6d3          	fsub.s	fa3,fa5,fa4
   11ea0:	00100513          	li	a0,1
   11ea4:	08d7f7d3          	fsub.s	fa5,fa5,fa3
   11ea8:	00d4a027          	fsw	fa3,0(s1)
   11eac:	08e7f7d3          	fsub.s	fa5,fa5,fa4
   11eb0:	00f4a227          	fsw	fa5,4(s1)
   11eb4:	01c12083          	lw	ra,28(sp)
   11eb8:	01812403          	lw	s0,24(sp)
   11ebc:	01412483          	lw	s1,20(sp)
   11ec0:	01012903          	lw	s2,16(sp)
   11ec4:	02010113          	addi	sp,sp,32
   11ec8:	00008067          	ret
   11ecc:	43491737          	lui	a4,0x43491
   11ed0:	f8070713          	addi	a4,a4,-128 # 43490f80 <__BSS_END__+0x4347a758>
   11ed4:	0e875a63          	bge	a4,s0,11fc8 <__ieee754_rem_pio2f+0x18c>
   11ed8:	7f800737          	lui	a4,0x7f800
   11edc:	0ce45463          	bge	s0,a4,11fa4 <__ieee754_rem_pio2f+0x168>
   11ee0:	41745613          	srai	a2,s0,0x17
   11ee4:	f7a60613          	addi	a2,a2,-134
   11ee8:	01761793          	slli	a5,a2,0x17
   11eec:	40f40433          	sub	s0,s0,a5
   11ef0:	f00407d3          	fmv.w.x	fa5,s0
   11ef4:	f0040753          	fmv.w.x	fa4,s0
   11ef8:	c00797d3          	fcvt.w.s	a5,fa5,rtz
   11efc:	7701a687          	flw	fa3,1904(gp) # 16798 <__SDATA_BEGIN__+0x20>
   11f00:	f0000653          	fmv.w.x	fa2,zero
   11f04:	d007f7d3          	fcvt.s.w	fa5,a5
   11f08:	00300693          	li	a3,3
   11f0c:	08f77753          	fsub.s	fa4,fa4,fa5
   11f10:	00f12227          	fsw	fa5,4(sp)
   11f14:	10d777d3          	fmul.s	fa5,fa4,fa3
   11f18:	c00797d3          	fcvt.w.s	a5,fa5,rtz
   11f1c:	d007f753          	fcvt.s.w	fa4,a5
   11f20:	08e7f7d3          	fsub.s	fa5,fa5,fa4
   11f24:	00e12427          	fsw	fa4,8(sp)
   11f28:	10d7f7d3          	fmul.s	fa5,fa5,fa3
   11f2c:	a0c7a7d3          	feq.s	a5,fa5,fa2
   11f30:	00f12627          	fsw	fa5,12(sp)
   11f34:	00078863          	beqz	a5,11f44 <__ieee754_rem_pio2f+0x108>
   11f38:	a0c726d3          	feq.s	a3,fa4,fa2
   11f3c:	0016b693          	seqz	a3,a3
   11f40:	00168693          	addi	a3,a3,1 # 7f800001 <__BSS_END__+0x7f7e97d9>
   11f44:	000157b7          	lui	a5,0x15
   11f48:	a1078793          	addi	a5,a5,-1520 # 14a10 <two_over_pi>
   11f4c:	00200713          	li	a4,2
   11f50:	00048593          	mv	a1,s1
   11f54:	00410513          	addi	a0,sp,4
   11f58:	2b4000ef          	jal	ra,1220c <__kernel_rem_pio2f>
   11f5c:	f4095ce3          	bgez	s2,11eb4 <__ieee754_rem_pio2f+0x78>
   11f60:	0004a707          	flw	fa4,0(s1)
   11f64:	0044a787          	flw	fa5,4(s1)
   11f68:	40a00533          	neg	a0,a0
   11f6c:	20e71753          	fneg.s	fa4,fa4
   11f70:	20f797d3          	fneg.s	fa5,fa5
   11f74:	00e4a027          	fsw	fa4,0(s1)
   11f78:	00f4a227          	fsw	fa5,4(s1)
   11f7c:	f39ff06f          	j	11eb4 <__ieee754_rem_pio2f+0x78>
   11f80:	01c12083          	lw	ra,28(sp)
   11f84:	01812403          	lw	s0,24(sp)
   11f88:	00a4a027          	fsw	fa0,0(s1)
   11f8c:	00052223          	sw	zero,4(a0)
   11f90:	01412483          	lw	s1,20(sp)
   11f94:	01012903          	lw	s2,16(sp)
   11f98:	00000513          	li	a0,0
   11f9c:	02010113          	addi	sp,sp,32
   11fa0:	00008067          	ret
   11fa4:	08a577d3          	fsub.s	fa5,fa0,fa0
   11fa8:	00000513          	li	a0,0
   11fac:	00f4a227          	fsw	fa5,4(s1)
   11fb0:	00f4a027          	fsw	fa5,0(s1)
   11fb4:	f01ff06f          	j	11eb4 <__ieee754_rem_pio2f+0x78>
   11fb8:	75c1a707          	flw	fa4,1884(gp) # 16784 <__SDATA_BEGIN__+0xc>
   11fbc:	7581a687          	flw	fa3,1880(gp) # 16780 <__SDATA_BEGIN__+0x8>
   11fc0:	08d7f7d3          	fsub.s	fa5,fa5,fa3
   11fc4:	ed9ff06f          	j	11e9c <__ieee754_rem_pio2f+0x60>
   11fc8:	389000ef          	jal	ra,12b50 <fabsf>
   11fcc:	7601a787          	flw	fa5,1888(gp) # 16788 <__SDATA_BEGIN__+0x10>
   11fd0:	7641a707          	flw	fa4,1892(gp) # 1678c <__SDATA_BEGIN__+0x14>
   11fd4:	01f00793          	li	a5,31
   11fd8:	70f577c3          	fmadd.s	fa5,fa0,fa5,fa4
   11fdc:	c0079553          	fcvt.w.s	a0,fa5,rtz
   11fe0:	7501a787          	flw	fa5,1872(gp) # 16778 <__SDATA_BEGIN__>
   11fe4:	d0057753          	fcvt.s.w	fa4,a0
   11fe8:	50f7754b          	fnmsub.s	fa0,fa4,fa5,fa0
   11fec:	7541a787          	flw	fa5,1876(gp) # 1677c <__SDATA_BEGIN__+0x4>
   11ff0:	10f777d3          	fmul.s	fa5,fa4,fa5
   11ff4:	04a7ce63          	blt	a5,a0,12050 <__ieee754_rem_pio2f+0x214>
   11ff8:	fff50793          	addi	a5,a0,-1
   11ffc:	00279713          	slli	a4,a5,0x2
   12000:	000157b7          	lui	a5,0x15
   12004:	08f576d3          	fsub.s	fa3,fa0,fa5
   12008:	99078793          	addi	a5,a5,-1648 # 14990 <npio2_hw>
   1200c:	00e787b3          	add	a5,a5,a4
   12010:	0007a683          	lw	a3,0(a5)
   12014:	f0047713          	andi	a4,s0,-256
   12018:	e00687d3          	fmv.x.w	a5,fa3
   1201c:	02d70e63          	beq	a4,a3,12058 <__ieee754_rem_pio2f+0x21c>
   12020:	00f4a023          	sw	a5,0(s1)
   12024:	f0078753          	fmv.w.x	fa4,a5
   12028:	08e57553          	fsub.s	fa0,fa0,fa4
   1202c:	08f57553          	fsub.s	fa0,fa0,fa5
   12030:	00a4a227          	fsw	fa0,4(s1)
   12034:	e80950e3          	bgez	s2,11eb4 <__ieee754_rem_pio2f+0x78>
   12038:	20e717d3          	fneg.s	fa5,fa4
   1203c:	20a51553          	fneg.s	fa0,fa0
   12040:	40a00533          	neg	a0,a0
   12044:	00f4a027          	fsw	fa5,0(s1)
   12048:	00a4a227          	fsw	fa0,4(s1)
   1204c:	e69ff06f          	j	11eb4 <__ieee754_rem_pio2f+0x78>
   12050:	08f576d3          	fsub.s	fa3,fa0,fa5
   12054:	e00687d3          	fmv.x.w	a5,fa3
   12058:	0177d713          	srli	a4,a5,0x17
   1205c:	41745413          	srai	s0,s0,0x17
   12060:	0ff77713          	andi	a4,a4,255
   12064:	40e40733          	sub	a4,s0,a4
   12068:	00800693          	li	a3,8
   1206c:	fae6dae3          	bge	a3,a4,12020 <__ieee754_rem_pio2f+0x1e4>
   12070:	7581a787          	flw	fa5,1880(gp) # 16780 <__SDATA_BEGIN__+0x8>
   12074:	01900693          	li	a3,25
   12078:	50f776cb          	fnmsub.s	fa3,fa4,fa5,fa0
   1207c:	08d57553          	fsub.s	fa0,fa0,fa3
   12080:	50f7754b          	fnmsub.s	fa0,fa4,fa5,fa0
   12084:	75c1a787          	flw	fa5,1884(gp) # 16784 <__SDATA_BEGIN__+0xc>
   12088:	50f777c7          	fmsub.s	fa5,fa4,fa5,fa0
   1208c:	08f6f653          	fsub.s	fa2,fa3,fa5
   12090:	e00607d3          	fmv.x.w	a5,fa2
   12094:	0177d713          	srli	a4,a5,0x17
   12098:	0ff77713          	andi	a4,a4,255
   1209c:	40e40433          	sub	s0,s0,a4
   120a0:	0086c863          	blt	a3,s0,120b0 <__ieee754_rem_pio2f+0x274>
   120a4:	20d68553          	fmv.s	fa0,fa3
   120a8:	00c4a027          	fsw	fa2,0(s1)
   120ac:	f79ff06f          	j	12024 <__ieee754_rem_pio2f+0x1e8>
   120b0:	7681a787          	flw	fa5,1896(gp) # 16790 <__SDATA_BEGIN__+0x18>
   120b4:	68f7754b          	fnmsub.s	fa0,fa4,fa5,fa3
   120b8:	08a6f6d3          	fsub.s	fa3,fa3,fa0
   120bc:	68f776cb          	fnmsub.s	fa3,fa4,fa5,fa3
   120c0:	76c1a787          	flw	fa5,1900(gp) # 16794 <__SDATA_BEGIN__+0x1c>
   120c4:	68f777c7          	fmsub.s	fa5,fa4,fa5,fa3
   120c8:	08f57753          	fsub.s	fa4,fa0,fa5
   120cc:	e00707d3          	fmv.x.w	a5,fa4
   120d0:	f51ff06f          	j	12020 <__ieee754_rem_pio2f+0x1e4>
   120d4:	00f577d3          	fadd.s	fa5,fa0,fa5
   120d8:	02e40263          	beq	s0,a4,120fc <__ieee754_rem_pio2f+0x2c0>
   120dc:	7541a707          	flw	fa4,1876(gp) # 1677c <__SDATA_BEGIN__+0x4>
   120e0:	00e7f6d3          	fadd.s	fa3,fa5,fa4
   120e4:	fff00513          	li	a0,-1
   120e8:	08d7f7d3          	fsub.s	fa5,fa5,fa3
   120ec:	00d4a027          	fsw	fa3,0(s1)
   120f0:	00e7f7d3          	fadd.s	fa5,fa5,fa4
   120f4:	00f4a227          	fsw	fa5,4(s1)
   120f8:	dbdff06f          	j	11eb4 <__ieee754_rem_pio2f+0x78>
   120fc:	75c1a707          	flw	fa4,1884(gp) # 16784 <__SDATA_BEGIN__+0xc>
   12100:	7581a687          	flw	fa3,1880(gp) # 16780 <__SDATA_BEGIN__+0x8>
   12104:	00d7f7d3          	fadd.s	fa5,fa5,fa3
   12108:	fd9ff06f          	j	120e0 <__ieee754_rem_pio2f+0x2a4>

0001210c <__kernel_cosf>:
   1210c:	e00507d3          	fmv.x.w	a5,fa0
   12110:	320006b7          	lui	a3,0x32000
   12114:	00179713          	slli	a4,a5,0x1
   12118:	00175713          	srli	a4,a4,0x1
   1211c:	06d75063          	bge	a4,a3,1217c <__kernel_cosf+0x70>
   12120:	c0051753          	fcvt.w.s	a4,fa0,rtz
   12124:	0e070063          	beqz	a4,12204 <__kernel_cosf+0xf8>
   12128:	10a576d3          	fmul.s	fa3,fa0,fa0
   1212c:	7801a707          	flw	fa4,1920(gp) # 167a8 <__SDATA_BEGIN__+0x30>
   12130:	7841a787          	flw	fa5,1924(gp) # 167ac <__SDATA_BEGIN__+0x34>
   12134:	78e6f743          	fmadd.s	fa4,fa3,fa4,fa5
   12138:	7881a787          	flw	fa5,1928(gp) # 167b0 <__SDATA_BEGIN__+0x38>
   1213c:	78e6f743          	fmadd.s	fa4,fa3,fa4,fa5
   12140:	78c1a787          	flw	fa5,1932(gp) # 167b4 <__SDATA_BEGIN__+0x3c>
   12144:	78e6f743          	fmadd.s	fa4,fa3,fa4,fa5
   12148:	7901a787          	flw	fa5,1936(gp) # 167b8 <__SDATA_BEGIN__+0x40>
   1214c:	78e6f743          	fmadd.s	fa4,fa3,fa4,fa5
   12150:	7941a787          	flw	fa5,1940(gp) # 167bc <__SDATA_BEGIN__+0x44>
   12154:	78e6f7c3          	fmadd.s	fa5,fa3,fa4,fa5
   12158:	10f6f7d3          	fmul.s	fa5,fa3,fa5
   1215c:	f0078753          	fmv.w.x	fa4,a5
   12160:	7641a507          	flw	fa0,1892(gp) # 1678c <__SDATA_BEGIN__+0x14>
   12164:	10b775d3          	fmul.s	fa1,fa4,fa1
   12168:	58f6f7c7          	fmsub.s	fa5,fa3,fa5,fa1
   1216c:	78a6f7c7          	fmsub.s	fa5,fa3,fa0,fa5
   12170:	77c1a507          	flw	fa0,1916(gp) # 167a4 <__SDATA_BEGIN__+0x2c>
   12174:	08f57553          	fsub.s	fa0,fa0,fa5
   12178:	00008067          	ret
   1217c:	10a576d3          	fmul.s	fa3,fa0,fa0
   12180:	7801a787          	flw	fa5,1920(gp) # 167a8 <__SDATA_BEGIN__+0x30>
   12184:	7841a707          	flw	fa4,1924(gp) # 167ac <__SDATA_BEGIN__+0x34>
   12188:	70f6f7c3          	fmadd.s	fa5,fa3,fa5,fa4
   1218c:	7881a707          	flw	fa4,1928(gp) # 167b0 <__SDATA_BEGIN__+0x38>
   12190:	3e99a6b7          	lui	a3,0x3e99a
   12194:	99968693          	addi	a3,a3,-1639 # 3e999999 <__BSS_END__+0x3e983171>
   12198:	70d7f7c3          	fmadd.s	fa5,fa5,fa3,fa4
   1219c:	78c1a707          	flw	fa4,1932(gp) # 167b4 <__SDATA_BEGIN__+0x3c>
   121a0:	70d7f7c3          	fmadd.s	fa5,fa5,fa3,fa4
   121a4:	7901a707          	flw	fa4,1936(gp) # 167b8 <__SDATA_BEGIN__+0x40>
   121a8:	70d7f7c3          	fmadd.s	fa5,fa5,fa3,fa4
   121ac:	7941a707          	flw	fa4,1940(gp) # 167bc <__SDATA_BEGIN__+0x44>
   121b0:	70d7f7c3          	fmadd.s	fa5,fa5,fa3,fa4
   121b4:	10d7f7d3          	fmul.s	fa5,fa5,fa3
   121b8:	fae6d2e3          	bge	a3,a4,1215c <__kernel_cosf+0x50>
   121bc:	3f4806b7          	lui	a3,0x3f480
   121c0:	02e6cc63          	blt	a3,a4,121f8 <__kernel_cosf+0xec>
   121c4:	ff0006b7          	lui	a3,0xff000
   121c8:	00d70733          	add	a4,a4,a3
   121cc:	77c1a507          	flw	fa0,1916(gp) # 167a4 <__SDATA_BEGIN__+0x2c>
   121d0:	f0070753          	fmv.w.x	fa4,a4
   121d4:	08e57553          	fsub.s	fa0,fa0,fa4
   121d8:	f0078653          	fmv.w.x	fa2,a5
   121dc:	10b675d3          	fmul.s	fa1,fa2,fa1
   121e0:	7641a607          	flw	fa2,1892(gp) # 1678c <__SDATA_BEGIN__+0x14>
   121e4:	58f6f7c7          	fmsub.s	fa5,fa3,fa5,fa1
   121e8:	70c6f6c7          	fmsub.s	fa3,fa3,fa2,fa4
   121ec:	08f6f7d3          	fsub.s	fa5,fa3,fa5
   121f0:	08f57553          	fsub.s	fa0,fa0,fa5
   121f4:	00008067          	ret
   121f8:	7741a507          	flw	fa0,1908(gp) # 1679c <__SDATA_BEGIN__+0x24>
   121fc:	7781a707          	flw	fa4,1912(gp) # 167a0 <__SDATA_BEGIN__+0x28>
   12200:	fd9ff06f          	j	121d8 <__kernel_cosf+0xcc>
   12204:	77c1a507          	flw	fa0,1916(gp) # 167a4 <__SDATA_BEGIN__+0x2c>
   12208:	00008067          	ret

0001220c <__kernel_rem_pio2f>:
   1220c:	e4010113          	addi	sp,sp,-448
   12210:	1a912a23          	sw	s1,436(sp)
   12214:	000154b7          	lui	s1,0x15
   12218:	d2848893          	addi	a7,s1,-728 # 14d28 <init_jk>
   1221c:	00e12a23          	sw	a4,20(sp)
   12220:	00271713          	slli	a4,a4,0x2
   12224:	00068813          	mv	a6,a3
   12228:	1a812c23          	sw	s0,440(sp)
   1222c:	1b212823          	sw	s2,432(sp)
   12230:	19a12823          	sw	s10,400(sp)
   12234:	00e88733          	add	a4,a7,a4
   12238:	1a112e23          	sw	ra,444(sp)
   1223c:	1b312623          	sw	s3,428(sp)
   12240:	1b412423          	sw	s4,424(sp)
   12244:	1b512223          	sw	s5,420(sp)
   12248:	1b612023          	sw	s6,416(sp)
   1224c:	19712e23          	sw	s7,412(sp)
   12250:	19812c23          	sw	s8,408(sp)
   12254:	19912a23          	sw	s9,404(sp)
   12258:	19b12623          	sw	s11,396(sp)
   1225c:	16812e27          	fsw	fs0,380(sp)
   12260:	16912c27          	fsw	fs1,376(sp)
   12264:	17212a27          	fsw	fs2,372(sp)
   12268:	17312827          	fsw	fs3,368(sp)
   1226c:	17412627          	fsw	fs4,364(sp)
   12270:	17512427          	fsw	fs5,360(sp)
   12274:	17612227          	fsw	fs6,356(sp)
   12278:	01112623          	sw	a7,12(sp)
   1227c:	00c12e23          	sw	a2,28(sp)
   12280:	ffc00693          	li	a3,-4
   12284:	00b12823          	sw	a1,16(sp)
   12288:	00f12223          	sw	a5,4(sp)
   1228c:	00072d03          	lw	s10,0(a4) # 7f800000 <__BSS_END__+0x7f7e97d8>
   12290:	00050913          	mv	s2,a0
   12294:	fff80413          	addi	s0,a6,-1
   12298:	78d64463          	blt	a2,a3,12a20 <__kernel_rem_pio2f+0x814>
   1229c:	ffd60793          	addi	a5,a2,-3
   122a0:	41f7d713          	srai	a4,a5,0x1f
   122a4:	00777713          	andi	a4,a4,7
   122a8:	00f707b3          	add	a5,a4,a5
   122ac:	4037d793          	srai	a5,a5,0x3
   122b0:	00178b93          	addi	s7,a5,1
   122b4:	00f12023          	sw	a5,0(sp)
   122b8:	003b9793          	slli	a5,s7,0x3
   122bc:	00f12c23          	sw	a5,24(sp)
   122c0:	01c12783          	lw	a5,28(sp)
   122c4:	01812683          	lw	a3,24(sp)
   122c8:	008d0733          	add	a4,s10,s0
   122cc:	40d78ab3          	sub	s5,a5,a3
   122d0:	00012783          	lw	a5,0(sp)
   122d4:	408787b3          	sub	a5,a5,s0
   122d8:	04074063          	bltz	a4,12318 <__kernel_rem_pio2f+0x10c>
   122dc:	00412583          	lw	a1,4(sp)
   122e0:	00170613          	addi	a2,a4,1
   122e4:	00279693          	slli	a3,a5,0x2
   122e8:	07010713          	addi	a4,sp,112
   122ec:	00d586b3          	add	a3,a1,a3
   122f0:	00f60633          	add	a2,a2,a5
   122f4:	f00007d3          	fmv.w.x	fa5,zero
   122f8:	0007c663          	bltz	a5,12304 <__kernel_rem_pio2f+0xf8>
   122fc:	0006a503          	lw	a0,0(a3) # ff000000 <__BSS_END__+0xfefe97d8>
   12300:	d00577d3          	fcvt.s.w	fa5,a0
   12304:	00178793          	addi	a5,a5,1
   12308:	00f72027          	fsw	fa5,0(a4)
   1230c:	00470713          	addi	a4,a4,4
   12310:	00468693          	addi	a3,a3,4
   12314:	fec790e3          	bne	a5,a2,122f4 <__kernel_rem_pio2f+0xe8>
   12318:	060d4063          	bltz	s10,12378 <__kernel_rem_pio2f+0x16c>
   1231c:	00241613          	slli	a2,s0,0x2
   12320:	00460693          	addi	a3,a2,4
   12324:	07010793          	addi	a5,sp,112
   12328:	11010e13          	addi	t3,sp,272
   1232c:	00040513          	mv	a0,s0
   12330:	00c78633          	add	a2,a5,a2
   12334:	010d0eb3          	add	t4,s10,a6
   12338:	012686b3          	add	a3,a3,s2
   1233c:	f00007d3          	fmv.w.x	fa5,zero
   12340:	00060713          	mv	a4,a2
   12344:	00090793          	mv	a5,s2
   12348:	00044e63          	bltz	s0,12364 <__kernel_rem_pio2f+0x158>
   1234c:	0007a687          	flw	fa3,0(a5)
   12350:	00072707          	flw	fa4,0(a4)
   12354:	00478793          	addi	a5,a5,4
   12358:	ffc70713          	addi	a4,a4,-4
   1235c:	78e6f7c3          	fmadd.s	fa5,fa3,fa4,fa5
   12360:	fed796e3          	bne	a5,a3,1234c <__kernel_rem_pio2f+0x140>
   12364:	00fe2027          	fsw	fa5,0(t3)
   12368:	00150513          	addi	a0,a0,1
   1236c:	004e0e13          	addi	t3,t3,4
   12370:	00460613          	addi	a2,a2,4
   12374:	fdd514e3          	bne	a0,t4,1233c <__kernel_rem_pio2f+0x130>
   12378:	79c1aa87          	flw	fs5,1948(gp) # 167c4 <__SDATA_BEGIN__+0x4c>
   1237c:	7701aa07          	flw	fs4,1904(gp) # 16798 <__SDATA_BEGIN__+0x20>
   12380:	7a01a487          	flw	fs1,1952(gp) # 167c8 <__SDATA_BEGIN__+0x50>
   12384:	7a41a407          	flw	fs0,1956(gp) # 167cc <__SDATA_BEGIN__+0x54>
   12388:	002d1793          	slli	a5,s10,0x2
   1238c:	77c1a987          	flw	fs3,1916(gp) # 167a4 <__SDATA_BEGIN__+0x2c>
   12390:	7641a907          	flw	fs2,1892(gp) # 1678c <__SDATA_BEGIN__+0x14>
   12394:	02010b13          	addi	s6,sp,32
   12398:	ff878993          	addi	s3,a5,-8
   1239c:	01c10713          	addi	a4,sp,28
   123a0:	00281c93          	slli	s9,a6,0x2
   123a4:	00f704b3          	add	s1,a4,a5
   123a8:	013b07b3          	add	a5,s6,s3
   123ac:	00f12423          	sw	a5,8(sp)
   123b0:	01990cb3          	add	s9,s2,s9
   123b4:	000d0a13          	mv	s4,s10
   123b8:	11010d93          	addi	s11,sp,272
   123bc:	002a1993          	slli	s3,s4,0x2
   123c0:	16010793          	addi	a5,sp,352
   123c4:	013787b3          	add	a5,a5,s3
   123c8:	fb07a507          	flw	fa0,-80(a5)
   123cc:	05405063          	blez	s4,1240c <__kernel_rem_pio2f+0x200>
   123d0:	ffc98793          	addi	a5,s3,-4
   123d4:	00fd87b3          	add	a5,s11,a5
   123d8:	000b0713          	mv	a4,s6
   123dc:	115577d3          	fmul.s	fa5,fa0,fs5
   123e0:	0007a687          	flw	fa3,0(a5)
   123e4:	00470713          	addi	a4,a4,4
   123e8:	00078613          	mv	a2,a5
   123ec:	ffc78793          	addi	a5,a5,-4
   123f0:	c0079553          	fcvt.w.s	a0,fa5,rtz
   123f4:	d00577d3          	fcvt.s.w	fa5,a0
   123f8:	5147f74b          	fnmsub.s	fa4,fa5,fs4,fa0
   123fc:	00d7f553          	fadd.s	fa0,fa5,fa3
   12400:	c0071553          	fcvt.w.s	a0,fa4,rtz
   12404:	fea72e23          	sw	a0,-4(a4)
   12408:	fccd9ae3          	bne	s11,a2,123dc <__kernel_rem_pio2f+0x1d0>
   1240c:	000a8513          	mv	a0,s5
   12410:	001000ef          	jal	ra,12c10 <scalbnf>
   12414:	20a50b53          	fmv.s	fs6,fa0
   12418:	10957553          	fmul.s	fa0,fa0,fs1
   1241c:	73c000ef          	jal	ra,12b58 <floorf>
   12420:	b085754b          	fnmsub.s	fa0,fa0,fs0,fs6
   12424:	c0051bd3          	fcvt.w.s	s7,fa0,rtz
   12428:	d00bfb53          	fcvt.s.w	fs6,s7
   1242c:	09657b53          	fsub.s	fs6,fa0,fs6
   12430:	15505063          	blez	s5,12570 <__kernel_rem_pio2f+0x364>
   12434:	fffa0713          	addi	a4,s4,-1
   12438:	16010793          	addi	a5,sp,352
   1243c:	00271713          	slli	a4,a4,0x2
   12440:	00e78733          	add	a4,a5,a4
   12444:	ec072e83          	lw	t4,-320(a4)
   12448:	00800793          	li	a5,8
   1244c:	415787b3          	sub	a5,a5,s5
   12450:	40fed533          	sra	a0,t4,a5
   12454:	00f51633          	sll	a2,a0,a5
   12458:	00700793          	li	a5,7
   1245c:	40ce8633          	sub	a2,t4,a2
   12460:	415787b3          	sub	a5,a5,s5
   12464:	ecc72023          	sw	a2,-320(a4)
   12468:	40f65c33          	sra	s8,a2,a5
   1246c:	00ab8bb3          	add	s7,s7,a0
   12470:	13804063          	bgtz	s8,12590 <__kernel_rem_pio2f+0x384>
   12474:	f0000753          	fmv.w.x	fa4,zero
   12478:	a0eb27d3          	feq.s	a5,fs6,fa4
   1247c:	20078463          	beqz	a5,12684 <__kernel_rem_pio2f+0x478>
   12480:	fffa0e93          	addi	t4,s4,-1
   12484:	03aec463          	blt	t4,s10,124ac <__kernel_rem_pio2f+0x2a0>
   12488:	002a1793          	slli	a5,s4,0x2
   1248c:	ffc78793          	addi	a5,a5,-4
   12490:	00fb07b3          	add	a5,s6,a5
   12494:	00000713          	li	a4,0
   12498:	0007a503          	lw	a0,0(a5)
   1249c:	ffc78793          	addi	a5,a5,-4
   124a0:	00a76733          	or	a4,a4,a0
   124a4:	fe979ae3          	bne	a5,s1,12498 <__kernel_rem_pio2f+0x28c>
   124a8:	3e071463          	bnez	a4,12890 <__kernel_rem_pio2f+0x684>
   124ac:	fffd0793          	addi	a5,s10,-1
   124b0:	00279793          	slli	a5,a5,0x2
   124b4:	16010713          	addi	a4,sp,352
   124b8:	00f707b3          	add	a5,a4,a5
   124bc:	ec07a783          	lw	a5,-320(a5)
   124c0:	3c079063          	bnez	a5,12880 <__kernel_rem_pio2f+0x674>
   124c4:	00812783          	lw	a5,8(sp)
   124c8:	00100713          	li	a4,1
   124cc:	0007a603          	lw	a2,0(a5)
   124d0:	00170713          	addi	a4,a4,1
   124d4:	ffc78793          	addi	a5,a5,-4
   124d8:	fe060ae3          	beqz	a2,124cc <__kernel_rem_pio2f+0x2c0>
   124dc:	001a0793          	addi	a5,s4,1
   124e0:	00078e93          	mv	t4,a5
   124e4:	00ea0f33          	add	t5,s4,a4
   124e8:	00012703          	lw	a4,0(sp)
   124ec:	00f406b3          	add	a3,s0,a5
   124f0:	00269693          	slli	a3,a3,0x2
   124f4:	00f70533          	add	a0,a4,a5
   124f8:	16010713          	addi	a4,sp,352
   124fc:	00d706b3          	add	a3,a4,a3
   12500:	00412703          	lw	a4,4(sp)
   12504:	00251513          	slli	a0,a0,0x2
   12508:	00279793          	slli	a5,a5,0x2
   1250c:	00a70533          	add	a0,a4,a0
   12510:	00fd8633          	add	a2,s11,a5
   12514:	f0c68693          	addi	a3,a3,-244
   12518:	00052783          	lw	a5,0(a0)
   1251c:	f00007d3          	fmv.w.x	fa5,zero
   12520:	d007f753          	fcvt.s.w	fa4,a5
   12524:	00e6a227          	fsw	fa4,4(a3)
   12528:	02044463          	bltz	s0,12550 <__kernel_rem_pio2f+0x344>
   1252c:	00068713          	mv	a4,a3
   12530:	00090793          	mv	a5,s2
   12534:	00c0006f          	j	12540 <__kernel_rem_pio2f+0x334>
   12538:	00072707          	flw	fa4,0(a4)
   1253c:	ffc70713          	addi	a4,a4,-4
   12540:	0007a687          	flw	fa3,0(a5)
   12544:	00478793          	addi	a5,a5,4
   12548:	78e6f7c3          	fmadd.s	fa5,fa3,fa4,fa5
   1254c:	ff9796e3          	bne	a5,s9,12538 <__kernel_rem_pio2f+0x32c>
   12550:	00f62027          	fsw	fa5,0(a2)
   12554:	001e8e93          	addi	t4,t4,1
   12558:	00450513          	addi	a0,a0,4
   1255c:	00460613          	addi	a2,a2,4
   12560:	00468693          	addi	a3,a3,4
   12564:	fbdf5ae3          	bge	t5,t4,12518 <__kernel_rem_pio2f+0x30c>
   12568:	000f0a13          	mv	s4,t5
   1256c:	e51ff06f          	j	123bc <__kernel_rem_pio2f+0x1b0>
   12570:	2e0a9863          	bnez	s5,12860 <__kernel_rem_pio2f+0x654>
   12574:	fffa0793          	addi	a5,s4,-1
   12578:	00279793          	slli	a5,a5,0x2
   1257c:	16010713          	addi	a4,sp,352
   12580:	00f707b3          	add	a5,a4,a5
   12584:	ec07a603          	lw	a2,-320(a5)
   12588:	40765c13          	srai	s8,a2,0x7
   1258c:	ef8054e3          	blez	s8,12474 <__kernel_rem_pio2f+0x268>
   12590:	001b8b93          	addi	s7,s7,1
   12594:	49405e63          	blez	s4,12a30 <__kernel_rem_pio2f+0x824>
   12598:	02012e83          	lw	t4,32(sp)
   1259c:	00100793          	li	a5,1
   125a0:	2a0e9c63          	bnez	t4,12858 <__kernel_rem_pio2f+0x64c>
   125a4:	08fa0263          	beq	s4,a5,12628 <__kernel_rem_pio2f+0x41c>
   125a8:	02412e83          	lw	t4,36(sp)
   125ac:	02410513          	addi	a0,sp,36
   125b0:	00100713          	li	a4,1
   125b4:	00170793          	addi	a5,a4,1
   125b8:	00450513          	addi	a0,a0,4
   125bc:	000e9e63          	bnez	t4,125d8 <__kernel_rem_pio2f+0x3cc>
   125c0:	06fa0463          	beq	s4,a5,12628 <__kernel_rem_pio2f+0x41c>
   125c4:	00052e83          	lw	t4,0(a0)
   125c8:	00078713          	mv	a4,a5
   125cc:	00170793          	addi	a5,a4,1
   125d0:	00450513          	addi	a0,a0,4
   125d4:	fe0e86e3          	beqz	t4,125c0 <__kernel_rem_pio2f+0x3b4>
   125d8:	00271713          	slli	a4,a4,0x2
   125dc:	16010693          	addi	a3,sp,352
   125e0:	00e68533          	add	a0,a3,a4
   125e4:	10000713          	li	a4,256
   125e8:	41d70733          	sub	a4,a4,t4
   125ec:	ece52023          	sw	a4,-320(a0)
   125f0:	0347da63          	bge	a5,s4,12624 <__kernel_rem_pio2f+0x418>
   125f4:	00279793          	slli	a5,a5,0x2
   125f8:	00f68733          	add	a4,a3,a5
   125fc:	ec072703          	lw	a4,-320(a4)
   12600:	00fb07b3          	add	a5,s6,a5
   12604:	013b0eb3          	add	t4,s6,s3
   12608:	0ff00513          	li	a0,255
   1260c:	0080006f          	j	12614 <__kernel_rem_pio2f+0x408>
   12610:	0007a703          	lw	a4,0(a5)
   12614:	40e50733          	sub	a4,a0,a4
   12618:	00e7a023          	sw	a4,0(a5)
   1261c:	00478793          	addi	a5,a5,4
   12620:	ffd798e3          	bne	a5,t4,12610 <__kernel_rem_pio2f+0x404>
   12624:	00100e93          	li	t4,1
   12628:	03505863          	blez	s5,12658 <__kernel_rem_pio2f+0x44c>
   1262c:	00100793          	li	a5,1
   12630:	3cfa8863          	beq	s5,a5,12a00 <__kernel_rem_pio2f+0x7f4>
   12634:	00200793          	li	a5,2
   12638:	02fa9063          	bne	s5,a5,12658 <__kernel_rem_pio2f+0x44c>
   1263c:	fffa0793          	addi	a5,s4,-1
   12640:	16010713          	addi	a4,sp,352
   12644:	00279793          	slli	a5,a5,0x2
   12648:	00f707b3          	add	a5,a4,a5
   1264c:	ec07a703          	lw	a4,-320(a5)
   12650:	03f77713          	andi	a4,a4,63
   12654:	ece7a023          	sw	a4,-320(a5)
   12658:	00200793          	li	a5,2
   1265c:	e0fc1ce3          	bne	s8,a5,12474 <__kernel_rem_pio2f+0x268>
   12660:	0969fb53          	fsub.s	fs6,fs3,fs6
   12664:	e00e88e3          	beqz	t4,12474 <__kernel_rem_pio2f+0x268>
   12668:	21398553          	fmv.s	fa0,fs3
   1266c:	000a8513          	mv	a0,s5
   12670:	5a0000ef          	jal	ra,12c10 <scalbnf>
   12674:	08ab7b53          	fsub.s	fs6,fs6,fa0
   12678:	f0000753          	fmv.w.x	fa4,zero
   1267c:	a0eb27d3          	feq.s	a5,fs6,fa4
   12680:	e00790e3          	bnez	a5,12480 <__kernel_rem_pio2f+0x274>
   12684:	01812783          	lw	a5,24(sp)
   12688:	01c12703          	lw	a4,28(sp)
   1268c:	216b0553          	fmv.s	fa0,fs6
   12690:	40e78533          	sub	a0,a5,a4
   12694:	57c000ef          	jal	ra,12c10 <scalbnf>
   12698:	7701a707          	flw	fa4,1904(gp) # 16798 <__SDATA_BEGIN__+0x20>
   1269c:	a0a707d3          	fle.s	a5,fa4,fa0
   126a0:	38078c63          	beqz	a5,12a38 <__kernel_rem_pio2f+0x82c>
   126a4:	79c1a687          	flw	fa3,1948(gp) # 167c4 <__SDATA_BEGIN__+0x4c>
   126a8:	001a0e93          	addi	t4,s4,1
   126ac:	16010793          	addi	a5,sp,352
   126b0:	10d576d3          	fmul.s	fa3,fa0,fa3
   126b4:	01378fb3          	add	t6,a5,s3
   126b8:	16010713          	addi	a4,sp,352
   126bc:	002e9793          	slli	a5,t4,0x2
   126c0:	00f707b3          	add	a5,a4,a5
   126c4:	c0069753          	fcvt.w.s	a4,fa3,rtz
   126c8:	008a8a93          	addi	s5,s5,8
   126cc:	d00776d3          	fcvt.s.w	fa3,a4
   126d0:	50e6f7cb          	fnmsub.s	fa5,fa3,fa4,fa0
   126d4:	c0069753          	fcvt.w.s	a4,fa3,rtz
   126d8:	c00796d3          	fcvt.w.s	a3,fa5,rtz
   126dc:	ecdfa023          	sw	a3,-320(t6)
   126e0:	ece7a023          	sw	a4,-320(a5)
   126e4:	77c1a507          	flw	fa0,1916(gp) # 167a4 <__SDATA_BEGIN__+0x2c>
   126e8:	000a8513          	mv	a0,s5
   126ec:	01d12023          	sw	t4,0(sp)
   126f0:	520000ef          	jal	ra,12c10 <scalbnf>
   126f4:	00012e83          	lw	t4,0(sp)
   126f8:	380ecc63          	bltz	t4,12a90 <__kernel_rem_pio2f+0x884>
   126fc:	002e9893          	slli	a7,t4,0x2
   12700:	79c1a687          	flw	fa3,1948(gp) # 167c4 <__SDATA_BEGIN__+0x4c>
   12704:	11010793          	addi	a5,sp,272
   12708:	01178533          	add	a0,a5,a7
   1270c:	00050713          	mv	a4,a0
   12710:	011b07b3          	add	a5,s6,a7
   12714:	0007a583          	lw	a1,0(a5)
   12718:	ffc70713          	addi	a4,a4,-4
   1271c:	00078693          	mv	a3,a5
   12720:	d005f7d3          	fcvt.s.w	fa5,a1
   12724:	ffc78793          	addi	a5,a5,-4
   12728:	10a7f7d3          	fmul.s	fa5,fa5,fa0
   1272c:	10d57553          	fmul.s	fa0,fa0,fa3
   12730:	00f72227          	fsw	fa5,4(a4)
   12734:	fedb10e3          	bne	s6,a3,12714 <__kernel_rem_pio2f+0x508>
   12738:	0c010313          	addi	t1,sp,192
   1273c:	7981a607          	flw	fa2,1944(gp) # 167c0 <__SDATA_BEGIN__+0x48>
   12740:	00030813          	mv	a6,t1
   12744:	00000593          	li	a1,0
   12748:	040d4e63          	bltz	s10,127a4 <__kernel_rem_pio2f+0x598>
   1274c:	00c12783          	lw	a5,12(sp)
   12750:	20c60753          	fmv.s	fa4,fa2
   12754:	f00007d3          	fmv.w.x	fa5,zero
   12758:	01078693          	addi	a3,a5,16
   1275c:	00050713          	mv	a4,a0
   12760:	00000793          	li	a5,0
   12764:	0100006f          	j	12774 <__kernel_rem_pio2f+0x568>
   12768:	02f5c063          	blt	a1,a5,12788 <__kernel_rem_pio2f+0x57c>
   1276c:	0006a707          	flw	fa4,0(a3)
   12770:	00468693          	addi	a3,a3,4
   12774:	00072687          	flw	fa3,0(a4)
   12778:	00178793          	addi	a5,a5,1
   1277c:	00470713          	addi	a4,a4,4
   12780:	78e6f7c3          	fmadd.s	fa5,fa3,fa4,fa5
   12784:	fefd52e3          	bge	s10,a5,12768 <__kernel_rem_pio2f+0x55c>
   12788:	00f82027          	fsw	fa5,0(a6)
   1278c:	00158793          	addi	a5,a1,1
   12790:	00480813          	addi	a6,a6,4
   12794:	ffc50513          	addi	a0,a0,-4
   12798:	02be8263          	beq	t4,a1,127bc <__kernel_rem_pio2f+0x5b0>
   1279c:	00078593          	mv	a1,a5
   127a0:	fa0d56e3          	bgez	s10,1274c <__kernel_rem_pio2f+0x540>
   127a4:	f00007d3          	fmv.w.x	fa5,zero
   127a8:	00158793          	addi	a5,a1,1
   127ac:	00480813          	addi	a6,a6,4
   127b0:	fef82e27          	fsw	fa5,-4(a6)
   127b4:	ffc50513          	addi	a0,a0,-4
   127b8:	febe92e3          	bne	t4,a1,1279c <__kernel_rem_pio2f+0x590>
   127bc:	01412703          	lw	a4,20(sp)
   127c0:	00200793          	li	a5,2
   127c4:	16e7c263          	blt	a5,a4,12928 <__kernel_rem_pio2f+0x71c>
   127c8:	f00007d3          	fmv.w.x	fa5,zero
   127cc:	011308b3          	add	a7,t1,a7
   127d0:	0ee04e63          	bgtz	a4,128cc <__kernel_rem_pio2f+0x6c0>
   127d4:	02071463          	bnez	a4,127fc <__kernel_rem_pio2f+0x5f0>
   127d8:	0008a707          	flw	fa4,0(a7)
   127dc:	00088793          	mv	a5,a7
   127e0:	ffc88893          	addi	a7,a7,-4
   127e4:	00e7f7d3          	fadd.s	fa5,fa5,fa4
   127e8:	fef318e3          	bne	t1,a5,127d8 <__kernel_rem_pio2f+0x5cc>
   127ec:	000c0463          	beqz	s8,127f4 <__kernel_rem_pio2f+0x5e8>
   127f0:	20f797d3          	fneg.s	fa5,fa5
   127f4:	01012783          	lw	a5,16(sp)
   127f8:	00f7a027          	fsw	fa5,0(a5)
   127fc:	1bc12083          	lw	ra,444(sp)
   12800:	1b812403          	lw	s0,440(sp)
   12804:	1b412483          	lw	s1,436(sp)
   12808:	1b012903          	lw	s2,432(sp)
   1280c:	1ac12983          	lw	s3,428(sp)
   12810:	1a812a03          	lw	s4,424(sp)
   12814:	1a412a83          	lw	s5,420(sp)
   12818:	1a012b03          	lw	s6,416(sp)
   1281c:	19812c03          	lw	s8,408(sp)
   12820:	19412c83          	lw	s9,404(sp)
   12824:	19012d03          	lw	s10,400(sp)
   12828:	18c12d83          	lw	s11,396(sp)
   1282c:	17c12407          	flw	fs0,380(sp)
   12830:	17812487          	flw	fs1,376(sp)
   12834:	17412907          	flw	fs2,372(sp)
   12838:	17012987          	flw	fs3,368(sp)
   1283c:	16c12a07          	flw	fs4,364(sp)
   12840:	16812a87          	flw	fs5,360(sp)
   12844:	16412b07          	flw	fs6,356(sp)
   12848:	007bf513          	andi	a0,s7,7
   1284c:	19c12b83          	lw	s7,412(sp)
   12850:	1c010113          	addi	sp,sp,448
   12854:	00008067          	ret
   12858:	00000713          	li	a4,0
   1285c:	d7dff06f          	j	125d8 <__kernel_rem_pio2f+0x3cc>
   12860:	a16907d3          	fle.s	a5,fs2,fs6
   12864:	00000c13          	li	s8,0
   12868:	c00786e3          	beqz	a5,12474 <__kernel_rem_pio2f+0x268>
   1286c:	001b8b93          	addi	s7,s7,1
   12870:	00200c13          	li	s8,2
   12874:	d34042e3          	bgtz	s4,12598 <__kernel_rem_pio2f+0x38c>
   12878:	0969fb53          	fsub.s	fs6,fs3,fs6
   1287c:	bf9ff06f          	j	12474 <__kernel_rem_pio2f+0x268>
   12880:	001a0793          	addi	a5,s4,1
   12884:	00078e93          	mv	t4,a5
   12888:	00078f13          	mv	t5,a5
   1288c:	c5dff06f          	j	124e8 <__kernel_rem_pio2f+0x2dc>
   12890:	002e9793          	slli	a5,t4,0x2
   12894:	16010713          	addi	a4,sp,352
   12898:	00f707b3          	add	a5,a4,a5
   1289c:	ec07a783          	lw	a5,-320(a5)
   128a0:	ff8a8a93          	addi	s5,s5,-8
   128a4:	e40790e3          	bnez	a5,126e4 <__kernel_rem_pio2f+0x4d8>
   128a8:	002a1793          	slli	a5,s4,0x2
   128ac:	ff878793          	addi	a5,a5,-8
   128b0:	00fb07b3          	add	a5,s6,a5
   128b4:	0007a703          	lw	a4,0(a5)
   128b8:	fffe8e93          	addi	t4,t4,-1
   128bc:	ffc78793          	addi	a5,a5,-4
   128c0:	ff8a8a93          	addi	s5,s5,-8
   128c4:	fe0708e3          	beqz	a4,128b4 <__kernel_rem_pio2f+0x6a8>
   128c8:	e1dff06f          	j	126e4 <__kernel_rem_pio2f+0x4d8>
   128cc:	0008a707          	flw	fa4,0(a7)
   128d0:	00088793          	mv	a5,a7
   128d4:	ffc88893          	addi	a7,a7,-4
   128d8:	00e7f7d3          	fadd.s	fa5,fa5,fa4
   128dc:	fef318e3          	bne	t1,a5,128cc <__kernel_rem_pio2f+0x6c0>
   128e0:	160c1863          	bnez	s8,12a50 <__kernel_rem_pio2f+0x844>
   128e4:	01012783          	lw	a5,16(sp)
   128e8:	0c012707          	flw	fa4,192(sp)
   128ec:	00f7a027          	fsw	fa5,0(a5)
   128f0:	08f777d3          	fsub.s	fa5,fa4,fa5
   128f4:	03d05463          	blez	t4,1291c <__kernel_rem_pio2f+0x710>
   128f8:	0c410713          	addi	a4,sp,196
   128fc:	00100793          	li	a5,1
   12900:	00072707          	flw	fa4,0(a4)
   12904:	00178793          	addi	a5,a5,1
   12908:	00470713          	addi	a4,a4,4
   1290c:	00e7f7d3          	fadd.s	fa5,fa5,fa4
   12910:	fefed8e3          	bge	t4,a5,12900 <__kernel_rem_pio2f+0x6f4>
   12914:	000c0463          	beqz	s8,1291c <__kernel_rem_pio2f+0x710>
   12918:	20f797d3          	fneg.s	fa5,fa5
   1291c:	01012783          	lw	a5,16(sp)
   12920:	00f7a227          	fsw	fa5,4(a5)
   12924:	ed9ff06f          	j	127fc <__kernel_rem_pio2f+0x5f0>
   12928:	01412703          	lw	a4,20(sp)
   1292c:	00300793          	li	a5,3
   12930:	ecf716e3          	bne	a4,a5,127fc <__kernel_rem_pio2f+0x5f0>
   12934:	040e8263          	beqz	t4,12978 <__kernel_rem_pio2f+0x76c>
   12938:	16010713          	addi	a4,sp,352
   1293c:	01170733          	add	a4,a4,a7
   12940:	002e9793          	slli	a5,t4,0x2
   12944:	f6072707          	flw	fa4,-160(a4)
   12948:	ffc78793          	addi	a5,a5,-4
   1294c:	00f307b3          	add	a5,t1,a5
   12950:	0007a787          	flw	fa5,0(a5)
   12954:	20e706d3          	fmv.s	fa3,fa4
   12958:	00078713          	mv	a4,a5
   1295c:	00f77753          	fadd.s	fa4,fa4,fa5
   12960:	ffc78793          	addi	a5,a5,-4
   12964:	08e7f7d3          	fsub.s	fa5,fa5,fa4
   12968:	00e7a227          	fsw	fa4,4(a5)
   1296c:	00d7f7d3          	fadd.s	fa5,fa5,fa3
   12970:	00f7a427          	fsw	fa5,8(a5)
   12974:	fce31ee3          	bne	t1,a4,12950 <__kernel_rem_pio2f+0x744>
   12978:	00100793          	li	a5,1
   1297c:	f00007d3          	fmv.w.x	fa5,zero
   12980:	07d7d063          	bge	a5,t4,129e0 <__kernel_rem_pio2f+0x7d4>
   12984:	16010793          	addi	a5,sp,352
   12988:	011788b3          	add	a7,a5,a7
   1298c:	f608a707          	flw	fa4,-160(a7)
   12990:	002e9793          	slli	a5,t4,0x2
   12994:	ffc78793          	addi	a5,a5,-4
   12998:	00f30733          	add	a4,t1,a5
   1299c:	00072787          	flw	fa5,0(a4)
   129a0:	20e706d3          	fmv.s	fa3,fa4
   129a4:	00070693          	mv	a3,a4
   129a8:	00f77753          	fadd.s	fa4,fa4,fa5
   129ac:	ffc70713          	addi	a4,a4,-4
   129b0:	08e7f7d3          	fsub.s	fa5,fa5,fa4
   129b4:	00e72227          	fsw	fa4,4(a4)
   129b8:	00d7f7d3          	fadd.s	fa5,fa5,fa3
   129bc:	00f72427          	fsw	fa5,8(a4)
   129c0:	fce31ee3          	bne	t1,a4,1299c <__kernel_rem_pio2f+0x790>
   129c4:	f00007d3          	fmv.w.x	fa5,zero
   129c8:	00478793          	addi	a5,a5,4
   129cc:	00f30333          	add	t1,t1,a5
   129d0:	00032707          	flw	fa4,0(t1)
   129d4:	ffc30313          	addi	t1,t1,-4
   129d8:	00e7f7d3          	fadd.s	fa5,fa5,fa4
   129dc:	fe669ae3          	bne	a3,t1,129d0 <__kernel_rem_pio2f+0x7c4>
   129e0:	0c012687          	flw	fa3,192(sp)
   129e4:	0c412707          	flw	fa4,196(sp)
   129e8:	080c1463          	bnez	s8,12a70 <__kernel_rem_pio2f+0x864>
   129ec:	01012783          	lw	a5,16(sp)
   129f0:	00d7a027          	fsw	fa3,0(a5)
   129f4:	00e7a227          	fsw	fa4,4(a5)
   129f8:	00f7a427          	fsw	fa5,8(a5)
   129fc:	e01ff06f          	j	127fc <__kernel_rem_pio2f+0x5f0>
   12a00:	fffa0793          	addi	a5,s4,-1
   12a04:	16010713          	addi	a4,sp,352
   12a08:	00279793          	slli	a5,a5,0x2
   12a0c:	00f707b3          	add	a5,a4,a5
   12a10:	ec07a703          	lw	a4,-320(a5)
   12a14:	07f77713          	andi	a4,a4,127
   12a18:	ece7a023          	sw	a4,-320(a5)
   12a1c:	c3dff06f          	j	12658 <__kernel_rem_pio2f+0x44c>
   12a20:	00800793          	li	a5,8
   12a24:	00f12c23          	sw	a5,24(sp)
   12a28:	00012023          	sw	zero,0(sp)
   12a2c:	895ff06f          	j	122c0 <__kernel_rem_pio2f+0xb4>
   12a30:	00000e93          	li	t4,0
   12a34:	bf5ff06f          	j	12628 <__kernel_rem_pio2f+0x41c>
   12a38:	c00517d3          	fcvt.w.s	a5,fa0,rtz
   12a3c:	16010713          	addi	a4,sp,352
   12a40:	01370fb3          	add	t6,a4,s3
   12a44:	000a0e93          	mv	t4,s4
   12a48:	ecffa023          	sw	a5,-320(t6)
   12a4c:	c99ff06f          	j	126e4 <__kernel_rem_pio2f+0x4d8>
   12a50:	20f79753          	fneg.s	fa4,fa5
   12a54:	01012783          	lw	a5,16(sp)
   12a58:	00e7a027          	fsw	fa4,0(a5)
   12a5c:	0c012707          	flw	fa4,192(sp)
   12a60:	08f777d3          	fsub.s	fa5,fa4,fa5
   12a64:	e9d04ae3          	bgtz	t4,128f8 <__kernel_rem_pio2f+0x6ec>
   12a68:	20f797d3          	fneg.s	fa5,fa5
   12a6c:	eb1ff06f          	j	1291c <__kernel_rem_pio2f+0x710>
   12a70:	01012783          	lw	a5,16(sp)
   12a74:	20d696d3          	fneg.s	fa3,fa3
   12a78:	20e71753          	fneg.s	fa4,fa4
   12a7c:	20f797d3          	fneg.s	fa5,fa5
   12a80:	00d7a027          	fsw	fa3,0(a5)
   12a84:	00e7a227          	fsw	fa4,4(a5)
   12a88:	00f7a427          	fsw	fa5,8(a5)
   12a8c:	d71ff06f          	j	127fc <__kernel_rem_pio2f+0x5f0>
   12a90:	01412703          	lw	a4,20(sp)
   12a94:	00200793          	li	a5,2
   12a98:	00e7cc63          	blt	a5,a4,12ab0 <__kernel_rem_pio2f+0x8a4>
   12a9c:	f00007d3          	fmv.w.x	fa5,zero
   12aa0:	e4e040e3          	bgtz	a4,128e0 <__kernel_rem_pio2f+0x6d4>
   12aa4:	d4071ce3          	bnez	a4,127fc <__kernel_rem_pio2f+0x5f0>
   12aa8:	d40c06e3          	beqz	s8,127f4 <__kernel_rem_pio2f+0x5e8>
   12aac:	d45ff06f          	j	127f0 <__kernel_rem_pio2f+0x5e4>
   12ab0:	01412703          	lw	a4,20(sp)
   12ab4:	00300793          	li	a5,3
   12ab8:	f00007d3          	fmv.w.x	fa5,zero
   12abc:	f2f702e3          	beq	a4,a5,129e0 <__kernel_rem_pio2f+0x7d4>
   12ac0:	d3dff06f          	j	127fc <__kernel_rem_pio2f+0x5f0>

00012ac4 <__kernel_sinf>:
   12ac4:	e00507d3          	fmv.x.w	a5,fa0
   12ac8:	320006b7          	lui	a3,0x32000
   12acc:	00179713          	slli	a4,a5,0x1
   12ad0:	00175713          	srli	a4,a4,0x1
   12ad4:	00d75663          	bge	a4,a3,12ae0 <__kernel_sinf+0x1c>
   12ad8:	c0051753          	fcvt.w.s	a4,fa0,rtz
   12adc:	06070863          	beqz	a4,12b4c <__kernel_sinf+0x88>
   12ae0:	f00787d3          	fmv.w.x	fa5,a5
   12ae4:	10f7f753          	fmul.s	fa4,fa5,fa5
   12ae8:	7a81a787          	flw	fa5,1960(gp) # 167d0 <__SDATA_BEGIN__+0x58>
   12aec:	7ac1a687          	flw	fa3,1964(gp) # 167d4 <__SDATA_BEGIN__+0x5c>
   12af0:	68f777c3          	fmadd.s	fa5,fa4,fa5,fa3
   12af4:	7b01a687          	flw	fa3,1968(gp) # 167d8 <__SDATA_BEGIN__+0x60>
   12af8:	68e7f7c3          	fmadd.s	fa5,fa5,fa4,fa3
   12afc:	f00786d3          	fmv.w.x	fa3,a5
   12b00:	10e6f553          	fmul.s	fa0,fa3,fa4
   12b04:	7b41a687          	flw	fa3,1972(gp) # 167dc <__SDATA_BEGIN__+0x64>
   12b08:	68e7f7c3          	fmadd.s	fa5,fa5,fa4,fa3
   12b0c:	7b81a687          	flw	fa3,1976(gp) # 167e0 <__SDATA_BEGIN__+0x68>
   12b10:	68e7f7c3          	fmadd.s	fa5,fa5,fa4,fa3
   12b14:	00051c63          	bnez	a0,12b2c <__kernel_sinf+0x68>
   12b18:	7bc1a687          	flw	fa3,1980(gp) # 167e4 <__SDATA_BEGIN__+0x6c>
   12b1c:	68f777c3          	fmadd.s	fa5,fa4,fa5,fa3
   12b20:	f0078753          	fmv.w.x	fa4,a5
   12b24:	70a7f543          	fmadd.s	fa0,fa5,fa0,fa4
   12b28:	00008067          	ret
   12b2c:	10f577d3          	fmul.s	fa5,fa0,fa5
   12b30:	7641a687          	flw	fa3,1892(gp) # 1678c <__SDATA_BEGIN__+0x14>
   12b34:	78d5f7c7          	fmsub.s	fa5,fa1,fa3,fa5
   12b38:	58e7f5c7          	fmsub.s	fa1,fa5,fa4,fa1
   12b3c:	7c01a787          	flw	fa5,1984(gp) # 167e8 <__SDATA_BEGIN__+0x70>
   12b40:	58f57543          	fmadd.s	fa0,fa0,fa5,fa1
   12b44:	f00787d3          	fmv.w.x	fa5,a5
   12b48:	08a7f553          	fsub.s	fa0,fa5,fa0
   12b4c:	00008067          	ret

00012b50 <fabsf>:
   12b50:	20a52553          	fabs.s	fa0,fa0
   12b54:	00008067          	ret

00012b58 <floorf>:
   12b58:	e00507d3          	fmv.x.w	a5,fa0
   12b5c:	01600613          	li	a2,22
   12b60:	00179693          	slli	a3,a5,0x1
   12b64:	0186d713          	srli	a4,a3,0x18
   12b68:	f8170713          	addi	a4,a4,-127
   12b6c:	00078593          	mv	a1,a5
   12b70:	0016d693          	srli	a3,a3,0x1
   12b74:	08e64063          	blt	a2,a4,12bf4 <floorf+0x9c>
   12b78:	04074663          	bltz	a4,12bc4 <floorf+0x6c>
   12b7c:	00800537          	lui	a0,0x800
   12b80:	fff50693          	addi	a3,a0,-1 # 7fffff <__BSS_END__+0x7e97d7>
   12b84:	40e6d6b3          	sra	a3,a3,a4
   12b88:	00f6f833          	and	a6,a3,a5
   12b8c:	e0050653          	fmv.x.w	a2,fa0
   12b90:	02080663          	beqz	a6,12bbc <floorf+0x64>
   12b94:	7c81a787          	flw	fa5,1992(gp) # 167f0 <__SDATA_BEGIN__+0x78>
   12b98:	f0000753          	fmv.w.x	fa4,zero
   12b9c:	00f577d3          	fadd.s	fa5,fa0,fa5
   12ba0:	a0f71853          	flt.s	a6,fa4,fa5
   12ba4:	00080c63          	beqz	a6,12bbc <floorf+0x64>
   12ba8:	0007d663          	bgez	a5,12bb4 <floorf+0x5c>
   12bac:	40e55733          	sra	a4,a0,a4
   12bb0:	00f705b3          	add	a1,a4,a5
   12bb4:	fff6c693          	not	a3,a3
   12bb8:	00b6f633          	and	a2,a3,a1
   12bbc:	f0060553          	fmv.w.x	fa0,a2
   12bc0:	00008067          	ret
   12bc4:	7c81a787          	flw	fa5,1992(gp) # 167f0 <__SDATA_BEGIN__+0x78>
   12bc8:	f0000753          	fmv.w.x	fa4,zero
   12bcc:	e0050653          	fmv.x.w	a2,fa0
   12bd0:	00f577d3          	fadd.s	fa5,fa0,fa5
   12bd4:	a0f71753          	flt.s	a4,fa4,fa5
   12bd8:	fe0702e3          	beqz	a4,12bbc <floorf+0x64>
   12bdc:	e0070653          	fmv.x.w	a2,fa4
   12be0:	fc07dee3          	bgez	a5,12bbc <floorf+0x64>
   12be4:	e0050653          	fmv.x.w	a2,fa0
   12be8:	fc068ae3          	beqz	a3,12bbc <floorf+0x64>
   12bec:	7c41a603          	lw	a2,1988(gp) # 167ec <__SDATA_BEGIN__+0x74>
   12bf0:	fcdff06f          	j	12bbc <floorf+0x64>
   12bf4:	7f800737          	lui	a4,0x7f800
   12bf8:	e0050653          	fmv.x.w	a2,fa0
   12bfc:	fce6e0e3          	bltu	a3,a4,12bbc <floorf+0x64>
   12c00:	00a577d3          	fadd.s	fa5,fa0,fa0
   12c04:	e0078653          	fmv.x.w	a2,fa5
   12c08:	f0060553          	fmv.w.x	fa0,a2
   12c0c:	00008067          	ret

00012c10 <scalbnf>:
   12c10:	e00507d3          	fmv.x.w	a5,fa0
   12c14:	00179693          	slli	a3,a5,0x1
   12c18:	0016d713          	srli	a4,a3,0x1
   12c1c:	04068e63          	beqz	a3,12c78 <scalbnf+0x68>
   12c20:	7f8006b7          	lui	a3,0x7f800
   12c24:	04d77e63          	bgeu	a4,a3,12c80 <scalbnf+0x70>
   12c28:	00d7f633          	and	a2,a5,a3
   12c2c:	06061263          	bnez	a2,12c90 <scalbnf+0x80>
   12c30:	7cc1a787          	flw	fa5,1996(gp) # 167f4 <__SDATA_BEGIN__+0x7c>
   12c34:	ffff4737          	lui	a4,0xffff4
   12c38:	cb070713          	addi	a4,a4,-848 # ffff3cb0 <__BSS_END__+0xfffdd488>
   12c3c:	10f577d3          	fmul.s	fa5,fa0,fa5
   12c40:	e00787d3          	fmv.x.w	a5,fa5
   12c44:	0ae54663          	blt	a0,a4,12cf0 <scalbnf+0xe0>
   12c48:	4177d713          	srai	a4,a5,0x17
   12c4c:	0ff77713          	andi	a4,a4,255
   12c50:	fe770713          	addi	a4,a4,-25
   12c54:	00a70733          	add	a4,a4,a0
   12c58:	0fe00613          	li	a2,254
   12c5c:	00078693          	mv	a3,a5
   12c60:	04e65263          	bge	a2,a4,12ca4 <scalbnf+0x94>
   12c64:	7c81a707          	flw	fa4,1992(gp) # 167f0 <__SDATA_BEGIN__+0x78>
   12c68:	f00787d3          	fmv.w.x	fa5,a5
   12c6c:	20f707d3          	fsgnj.s	fa5,fa4,fa5
   12c70:	10e7f7d3          	fmul.s	fa5,fa5,fa4
   12c74:	e00787d3          	fmv.x.w	a5,fa5
   12c78:	f0078553          	fmv.w.x	fa0,a5
   12c7c:	00008067          	ret
   12c80:	00a577d3          	fadd.s	fa5,fa0,fa0
   12c84:	e00787d3          	fmv.x.w	a5,fa5
   12c88:	f0078553          	fmv.w.x	fa0,a5
   12c8c:	00008067          	ret
   12c90:	01775713          	srli	a4,a4,0x17
   12c94:	00a70733          	add	a4,a4,a0
   12c98:	0fe00613          	li	a2,254
   12c9c:	00078693          	mv	a3,a5
   12ca0:	fce642e3          	blt	a2,a4,12c64 <scalbnf+0x54>
   12ca4:	02e04863          	bgtz	a4,12cd4 <scalbnf+0xc4>
   12ca8:	fea00613          	li	a2,-22
   12cac:	04c75c63          	bge	a4,a2,12d04 <scalbnf+0xf4>
   12cb0:	0000c737          	lui	a4,0xc
   12cb4:	35070713          	addi	a4,a4,848 # c350 <main-0x3d24>
   12cb8:	faa746e3          	blt	a4,a0,12c64 <scalbnf+0x54>
   12cbc:	7d01a707          	flw	fa4,2000(gp) # 167f8 <__SDATA_BEGIN__+0x80>
   12cc0:	f00787d3          	fmv.w.x	fa5,a5
   12cc4:	20f707d3          	fsgnj.s	fa5,fa4,fa5
   12cc8:	10e7f7d3          	fmul.s	fa5,fa5,fa4
   12ccc:	e00787d3          	fmv.x.w	a5,fa5
   12cd0:	fa9ff06f          	j	12c78 <scalbnf+0x68>
   12cd4:	808007b7          	lui	a5,0x80800
   12cd8:	fff78793          	addi	a5,a5,-1 # 807fffff <__BSS_END__+0x807e97d7>
   12cdc:	00f6f6b3          	and	a3,a3,a5
   12ce0:	01771793          	slli	a5,a4,0x17
   12ce4:	00f6e7b3          	or	a5,a3,a5
   12ce8:	f0078553          	fmv.w.x	fa0,a5
   12cec:	00008067          	ret
   12cf0:	f0078753          	fmv.w.x	fa4,a5
   12cf4:	7d01a787          	flw	fa5,2000(gp) # 167f8 <__SDATA_BEGIN__+0x80>
   12cf8:	10f777d3          	fmul.s	fa5,fa4,fa5
   12cfc:	e00787d3          	fmv.x.w	a5,fa5
   12d00:	f79ff06f          	j	12c78 <scalbnf+0x68>
   12d04:	01970793          	addi	a5,a4,25
   12d08:	80800737          	lui	a4,0x80800
   12d0c:	fff70713          	addi	a4,a4,-1 # 807fffff <__BSS_END__+0x807e97d7>
   12d10:	00e6f6b3          	and	a3,a3,a4
   12d14:	01779793          	slli	a5,a5,0x17
   12d18:	00d7e7b3          	or	a5,a5,a3
   12d1c:	f0078753          	fmv.w.x	fa4,a5
   12d20:	7d41a787          	flw	fa5,2004(gp) # 167fc <__SDATA_BEGIN__+0x84>
   12d24:	10f777d3          	fmul.s	fa5,fa4,fa5
   12d28:	e00787d3          	fmv.x.w	a5,fa5
   12d2c:	f4dff06f          	j	12c78 <scalbnf+0x68>

00012d30 <exit>:
   12d30:	ff010113          	addi	sp,sp,-16
   12d34:	00000593          	li	a1,0
   12d38:	00812423          	sw	s0,8(sp)
   12d3c:	00112623          	sw	ra,12(sp)
   12d40:	00050413          	mv	s0,a0
   12d44:	194000ef          	jal	ra,12ed8 <__call_exitprocs>
   12d48:	7d81a503          	lw	a0,2008(gp) # 16800 <_global_impure_ptr>
   12d4c:	03c52783          	lw	a5,60(a0)
   12d50:	00078463          	beqz	a5,12d58 <exit+0x28>
   12d54:	000780e7          	jalr	a5
   12d58:	00040513          	mv	a0,s0
   12d5c:	3a4000ef          	jal	ra,13100 <_exit>

00012d60 <__libc_init_array>:
   12d60:	ff010113          	addi	sp,sp,-16
   12d64:	00812423          	sw	s0,8(sp)
   12d68:	01212023          	sw	s2,0(sp)
   12d6c:	00015437          	lui	s0,0x15
   12d70:	00015937          	lui	s2,0x15
   12d74:	31040793          	addi	a5,s0,784 # 15310 <__init_array_start>
   12d78:	31090913          	addi	s2,s2,784 # 15310 <__init_array_start>
   12d7c:	40f90933          	sub	s2,s2,a5
   12d80:	00112623          	sw	ra,12(sp)
   12d84:	00912223          	sw	s1,4(sp)
   12d88:	40295913          	srai	s2,s2,0x2
   12d8c:	02090063          	beqz	s2,12dac <__libc_init_array+0x4c>
   12d90:	31040413          	addi	s0,s0,784
   12d94:	00000493          	li	s1,0
   12d98:	00042783          	lw	a5,0(s0)
   12d9c:	00148493          	addi	s1,s1,1
   12da0:	00440413          	addi	s0,s0,4
   12da4:	000780e7          	jalr	a5
   12da8:	fe9918e3          	bne	s2,s1,12d98 <__libc_init_array+0x38>
   12dac:	00015437          	lui	s0,0x15
   12db0:	00015937          	lui	s2,0x15
   12db4:	31040793          	addi	a5,s0,784 # 15310 <__init_array_start>
   12db8:	31890913          	addi	s2,s2,792 # 15318 <__do_global_dtors_aux_fini_array_entry>
   12dbc:	40f90933          	sub	s2,s2,a5
   12dc0:	40295913          	srai	s2,s2,0x2
   12dc4:	02090063          	beqz	s2,12de4 <__libc_init_array+0x84>
   12dc8:	31040413          	addi	s0,s0,784
   12dcc:	00000493          	li	s1,0
   12dd0:	00042783          	lw	a5,0(s0)
   12dd4:	00148493          	addi	s1,s1,1
   12dd8:	00440413          	addi	s0,s0,4
   12ddc:	000780e7          	jalr	a5
   12de0:	fe9918e3          	bne	s2,s1,12dd0 <__libc_init_array+0x70>
   12de4:	00c12083          	lw	ra,12(sp)
   12de8:	00812403          	lw	s0,8(sp)
   12dec:	00412483          	lw	s1,4(sp)
   12df0:	00012903          	lw	s2,0(sp)
   12df4:	01010113          	addi	sp,sp,16
   12df8:	00008067          	ret

00012dfc <memset>:
   12dfc:	00f00313          	li	t1,15
   12e00:	00050713          	mv	a4,a0
   12e04:	02c37e63          	bgeu	t1,a2,12e40 <memset+0x44>
   12e08:	00f77793          	andi	a5,a4,15
   12e0c:	0a079063          	bnez	a5,12eac <memset+0xb0>
   12e10:	08059263          	bnez	a1,12e94 <memset+0x98>
   12e14:	ff067693          	andi	a3,a2,-16
   12e18:	00f67613          	andi	a2,a2,15
   12e1c:	00e686b3          	add	a3,a3,a4
   12e20:	00b72023          	sw	a1,0(a4)
   12e24:	00b72223          	sw	a1,4(a4)
   12e28:	00b72423          	sw	a1,8(a4)
   12e2c:	00b72623          	sw	a1,12(a4)
   12e30:	01070713          	addi	a4,a4,16
   12e34:	fed766e3          	bltu	a4,a3,12e20 <memset+0x24>
   12e38:	00061463          	bnez	a2,12e40 <memset+0x44>
   12e3c:	00008067          	ret
   12e40:	40c306b3          	sub	a3,t1,a2
   12e44:	00269693          	slli	a3,a3,0x2
   12e48:	00000297          	auipc	t0,0x0
   12e4c:	005686b3          	add	a3,a3,t0
   12e50:	00c68067          	jr	12(a3) # 7f80000c <__BSS_END__+0x7f7e97e4>
   12e54:	00b70723          	sb	a1,14(a4)
   12e58:	00b706a3          	sb	a1,13(a4)
   12e5c:	00b70623          	sb	a1,12(a4)
   12e60:	00b705a3          	sb	a1,11(a4)
   12e64:	00b70523          	sb	a1,10(a4)
   12e68:	00b704a3          	sb	a1,9(a4)
   12e6c:	00b70423          	sb	a1,8(a4)
   12e70:	00b703a3          	sb	a1,7(a4)
   12e74:	00b70323          	sb	a1,6(a4)
   12e78:	00b702a3          	sb	a1,5(a4)
   12e7c:	00b70223          	sb	a1,4(a4)
   12e80:	00b701a3          	sb	a1,3(a4)
   12e84:	00b70123          	sb	a1,2(a4)
   12e88:	00b700a3          	sb	a1,1(a4)
   12e8c:	00b70023          	sb	a1,0(a4)
   12e90:	00008067          	ret
   12e94:	0ff5f593          	andi	a1,a1,255
   12e98:	00859693          	slli	a3,a1,0x8
   12e9c:	00d5e5b3          	or	a1,a1,a3
   12ea0:	01059693          	slli	a3,a1,0x10
   12ea4:	00d5e5b3          	or	a1,a1,a3
   12ea8:	f6dff06f          	j	12e14 <memset+0x18>
   12eac:	00279693          	slli	a3,a5,0x2
   12eb0:	00000297          	auipc	t0,0x0
   12eb4:	005686b3          	add	a3,a3,t0
   12eb8:	00008293          	mv	t0,ra
   12ebc:	fa0680e7          	jalr	-96(a3)
   12ec0:	00028093          	mv	ra,t0
   12ec4:	ff078793          	addi	a5,a5,-16
   12ec8:	40f70733          	sub	a4,a4,a5
   12ecc:	00f60633          	add	a2,a2,a5
   12ed0:	f6c378e3          	bgeu	t1,a2,12e40 <memset+0x44>
   12ed4:	f3dff06f          	j	12e10 <memset+0x14>

00012ed8 <__call_exitprocs>:
   12ed8:	fd010113          	addi	sp,sp,-48
   12edc:	01412c23          	sw	s4,24(sp)
   12ee0:	7d81aa03          	lw	s4,2008(gp) # 16800 <_global_impure_ptr>
   12ee4:	03212023          	sw	s2,32(sp)
   12ee8:	02112623          	sw	ra,44(sp)
   12eec:	148a2903          	lw	s2,328(s4)
   12ef0:	02812423          	sw	s0,40(sp)
   12ef4:	02912223          	sw	s1,36(sp)
   12ef8:	01312e23          	sw	s3,28(sp)
   12efc:	01512a23          	sw	s5,20(sp)
   12f00:	01612823          	sw	s6,16(sp)
   12f04:	01712623          	sw	s7,12(sp)
   12f08:	01812423          	sw	s8,8(sp)
   12f0c:	04090063          	beqz	s2,12f4c <__call_exitprocs+0x74>
   12f10:	00050b13          	mv	s6,a0
   12f14:	00058b93          	mv	s7,a1
   12f18:	00100a93          	li	s5,1
   12f1c:	fff00993          	li	s3,-1
   12f20:	00492483          	lw	s1,4(s2)
   12f24:	fff48413          	addi	s0,s1,-1
   12f28:	02044263          	bltz	s0,12f4c <__call_exitprocs+0x74>
   12f2c:	00249493          	slli	s1,s1,0x2
   12f30:	009904b3          	add	s1,s2,s1
   12f34:	040b8463          	beqz	s7,12f7c <__call_exitprocs+0xa4>
   12f38:	1044a783          	lw	a5,260(s1)
   12f3c:	05778063          	beq	a5,s7,12f7c <__call_exitprocs+0xa4>
   12f40:	fff40413          	addi	s0,s0,-1
   12f44:	ffc48493          	addi	s1,s1,-4
   12f48:	ff3416e3          	bne	s0,s3,12f34 <__call_exitprocs+0x5c>
   12f4c:	02c12083          	lw	ra,44(sp)
   12f50:	02812403          	lw	s0,40(sp)
   12f54:	02412483          	lw	s1,36(sp)
   12f58:	02012903          	lw	s2,32(sp)
   12f5c:	01c12983          	lw	s3,28(sp)
   12f60:	01812a03          	lw	s4,24(sp)
   12f64:	01412a83          	lw	s5,20(sp)
   12f68:	01012b03          	lw	s6,16(sp)
   12f6c:	00c12b83          	lw	s7,12(sp)
   12f70:	00812c03          	lw	s8,8(sp)
   12f74:	03010113          	addi	sp,sp,48
   12f78:	00008067          	ret
   12f7c:	00492783          	lw	a5,4(s2)
   12f80:	0044a683          	lw	a3,4(s1)
   12f84:	fff78793          	addi	a5,a5,-1
   12f88:	04878e63          	beq	a5,s0,12fe4 <__call_exitprocs+0x10c>
   12f8c:	0004a223          	sw	zero,4(s1)
   12f90:	fa0688e3          	beqz	a3,12f40 <__call_exitprocs+0x68>
   12f94:	18892783          	lw	a5,392(s2)
   12f98:	008a9733          	sll	a4,s5,s0
   12f9c:	00492c03          	lw	s8,4(s2)
   12fa0:	00f777b3          	and	a5,a4,a5
   12fa4:	02079263          	bnez	a5,12fc8 <__call_exitprocs+0xf0>
   12fa8:	000680e7          	jalr	a3
   12fac:	00492703          	lw	a4,4(s2)
   12fb0:	148a2783          	lw	a5,328(s4)
   12fb4:	01871463          	bne	a4,s8,12fbc <__call_exitprocs+0xe4>
   12fb8:	f92784e3          	beq	a5,s2,12f40 <__call_exitprocs+0x68>
   12fbc:	f80788e3          	beqz	a5,12f4c <__call_exitprocs+0x74>
   12fc0:	00078913          	mv	s2,a5
   12fc4:	f5dff06f          	j	12f20 <__call_exitprocs+0x48>
   12fc8:	18c92783          	lw	a5,396(s2)
   12fcc:	0844a583          	lw	a1,132(s1)
   12fd0:	00f77733          	and	a4,a4,a5
   12fd4:	00071c63          	bnez	a4,12fec <__call_exitprocs+0x114>
   12fd8:	000b0513          	mv	a0,s6
   12fdc:	000680e7          	jalr	a3
   12fe0:	fcdff06f          	j	12fac <__call_exitprocs+0xd4>
   12fe4:	00892223          	sw	s0,4(s2)
   12fe8:	fa9ff06f          	j	12f90 <__call_exitprocs+0xb8>
   12fec:	00058513          	mv	a0,a1
   12ff0:	000680e7          	jalr	a3
   12ff4:	fb9ff06f          	j	12fac <__call_exitprocs+0xd4>

00012ff8 <__libc_fini_array>:
   12ff8:	ff010113          	addi	sp,sp,-16
   12ffc:	00812423          	sw	s0,8(sp)
   13000:	000157b7          	lui	a5,0x15
   13004:	00015437          	lui	s0,0x15
   13008:	31840413          	addi	s0,s0,792 # 15318 <__do_global_dtors_aux_fini_array_entry>
   1300c:	31c78793          	addi	a5,a5,796 # 1531c <__fini_array_end>
   13010:	408787b3          	sub	a5,a5,s0
   13014:	00912223          	sw	s1,4(sp)
   13018:	00112623          	sw	ra,12(sp)
   1301c:	4027d493          	srai	s1,a5,0x2
   13020:	02048063          	beqz	s1,13040 <__libc_fini_array+0x48>
   13024:	ffc78793          	addi	a5,a5,-4
   13028:	00878433          	add	s0,a5,s0
   1302c:	00042783          	lw	a5,0(s0)
   13030:	fff48493          	addi	s1,s1,-1
   13034:	ffc40413          	addi	s0,s0,-4
   13038:	000780e7          	jalr	a5
   1303c:	fe0498e3          	bnez	s1,1302c <__libc_fini_array+0x34>
   13040:	00c12083          	lw	ra,12(sp)
   13044:	00812403          	lw	s0,8(sp)
   13048:	00412483          	lw	s1,4(sp)
   1304c:	01010113          	addi	sp,sp,16
   13050:	00008067          	ret

00013054 <atexit>:
   13054:	00050593          	mv	a1,a0
   13058:	00000693          	li	a3,0
   1305c:	00000613          	li	a2,0
   13060:	00000513          	li	a0,0
   13064:	0040006f          	j	13068 <__register_exitproc>

00013068 <__register_exitproc>:
   13068:	7d81a703          	lw	a4,2008(gp) # 16800 <_global_impure_ptr>
   1306c:	14872783          	lw	a5,328(a4)
   13070:	04078c63          	beqz	a5,130c8 <__register_exitproc+0x60>
   13074:	0047a703          	lw	a4,4(a5)
   13078:	01f00813          	li	a6,31
   1307c:	06e84e63          	blt	a6,a4,130f8 <__register_exitproc+0x90>
   13080:	00271813          	slli	a6,a4,0x2
   13084:	02050663          	beqz	a0,130b0 <__register_exitproc+0x48>
   13088:	01078333          	add	t1,a5,a6
   1308c:	08c32423          	sw	a2,136(t1)
   13090:	1887a883          	lw	a7,392(a5)
   13094:	00100613          	li	a2,1
   13098:	00e61633          	sll	a2,a2,a4
   1309c:	00c8e8b3          	or	a7,a7,a2
   130a0:	1917a423          	sw	a7,392(a5)
   130a4:	10d32423          	sw	a3,264(t1)
   130a8:	00200693          	li	a3,2
   130ac:	02d50463          	beq	a0,a3,130d4 <__register_exitproc+0x6c>
   130b0:	00170713          	addi	a4,a4,1
   130b4:	00e7a223          	sw	a4,4(a5)
   130b8:	010787b3          	add	a5,a5,a6
   130bc:	00b7a423          	sw	a1,8(a5)
   130c0:	00000513          	li	a0,0
   130c4:	00008067          	ret
   130c8:	14c70793          	addi	a5,a4,332
   130cc:	14f72423          	sw	a5,328(a4)
   130d0:	fa5ff06f          	j	13074 <__register_exitproc+0xc>
   130d4:	18c7a683          	lw	a3,396(a5)
   130d8:	00170713          	addi	a4,a4,1
   130dc:	00e7a223          	sw	a4,4(a5)
   130e0:	00c6e633          	or	a2,a3,a2
   130e4:	18c7a623          	sw	a2,396(a5)
   130e8:	010787b3          	add	a5,a5,a6
   130ec:	00b7a423          	sw	a1,8(a5)
   130f0:	00000513          	li	a0,0
   130f4:	00008067          	ret
   130f8:	fff00513          	li	a0,-1
   130fc:	00008067          	ret

00013100 <_exit>:
   13100:	05d00893          	li	a7,93
   13104:	00000073          	ecall
   13108:	00054463          	bltz	a0,13110 <_exit+0x10>
   1310c:	0000006f          	j	1310c <_exit+0xc>
   13110:	ff010113          	addi	sp,sp,-16
   13114:	00812423          	sw	s0,8(sp)
   13118:	00050413          	mv	s0,a0
   1311c:	00112623          	sw	ra,12(sp)
   13120:	40800433          	neg	s0,s0
   13124:	00c000ef          	jal	ra,13130 <__errno>
   13128:	00852023          	sw	s0,0(a0)
   1312c:	0000006f          	j	1312c <_exit+0x2c>

00013130 <__errno>:
   13130:	7dc1a503          	lw	a0,2012(gp) # 16804 <_impure_ptr>
   13134:	00008067          	ret
ELF Header:
  Magic:   7f 45 4c 46 01 01 01 00 00 00 00 00 00 00 00 00 
  Class:                             ELF32
  Data:                              2's complement, little endian
  Version:                           1 (current)
  OS/ABI:                            UNIX - System V
  ABI Version:                       0
  Type:                              EXEC (Executable file)
  Machine:                           RISC-V
  Version:                           0x1
  Entry point address:               0x105b0
  Start of program headers:          52 (bytes into file)
  Start of section headers:          29652 (bytes into file)
  Flags:                             0x2, single-float ABI
  Size of this header:               52 (bytes)
  Size of program headers:           32 (bytes)
  Number of program headers:         2
  Size of section headers:           40 (bytes)
  Number of section headers:         15
  Section header string table index: 14

Section Headers:
  [Nr] Name              Type            Addr     Off    Size   ES Flg Lk Inf Al
  [ 0]                   NULL            00000000 000000 000000 00      0   0  0
  [ 1] .text             PROGBITS        00010074 000074 0030c4 00  AX  0   0  4
  [ 2] .rodata           PROGBITS        00013138 003138 001c28 00   A  0   0  4
  [ 3] .eh_frame         PROGBITS        00015000 005000 000310 00  WA  0   0  4
  [ 4] .init_array       INIT_ARRAY      00015310 005310 000008 04  WA  0   0  4
  [ 5] .fini_array       FINI_ARRAY      00015318 005318 000004 04  WA  0   0  4
  [ 6] .data             PROGBITS        00015320 005320 001438 00  WA  0   0  8
  [ 7] .got              PROGBITS        00016758 006758 000020 04  WA  0   0  4
  [ 8] .sdata            PROGBITS        00016778 006778 000090 00  WA  0   0  4
  [ 9] .bss              NOBITS          00016808 006808 000020 00  WA  0   0  4
  [10] .comment          PROGBITS        00000000 006808 000012 01  MS  0   0  1
  [11] .riscv.attributes RISCV_ATTRIBUTE 00000000 00681a 000026 00      0   0  1
  [12] .symtab           SYMTAB          00000000 006840 0006a0 10     13  58  4
  [13] .strtab           STRTAB          00000000 006ee0 000477 00      0   0  1
  [14] .shstrtab         STRTAB          00000000 007357 00007d 00      0   0  1
Key to Flags:
  W (write), A (alloc), X (execute), M (merge), S (strings), I (info),
  L (link order), O (extra OS processing required), G (group), T (TLS),
  C (compressed), x (unknown), o (OS specific), E (exclude),
  p (processor specific)

There are no section groups in this file.

Program Headers:
  Type           Offset   VirtAddr   PhysAddr   FileSiz MemSiz  Flg Align
  LOAD           0x000000 0x00010000 0x00010000 0x04d60 0x04d60 R E 0x1000
  LOAD           0x005000 0x00015000 0x00015000 0x01808 0x01828 RW  0x1000

 Section to Segment mapping:
  Segment Sections...
   00     .text .rodata 
   01     .eh_frame .init_array .fini_array .data .got .sdata .bss 

There is no dynamic section in this file.

There are no relocations in this file.

The decoding of unwind sections for machine type RISC-V is not currently supported.

Symbol table '.symtab' contains 106 entries:
   Num:    Value  Size Type    Bind   Vis      Ndx Name
     0: 00000000     0 NOTYPE  LOCAL  DEFAULT  UND 
     1: 00010074     0 SECTION LOCAL  DEFAULT    1 
     2: 00013138     0 SECTION LOCAL  DEFAULT    2 
     3: 00015000     0 SECTION LOCAL  DEFAULT    3 
     4: 00015310     0 SECTION LOCAL  DEFAULT    4 
     5: 00015318     0 SECTION LOCAL  DEFAULT    5 
     6: 00015320     0 SECTION LOCAL  DEFAULT    6 
     7: 00016758     0 SECTION LOCAL  DEFAULT    7 
     8: 00016778     0 SECTION LOCAL  DEFAULT    8 
     9: 00016808     0 SECTION LOCAL  DEFAULT    9 
    10: 00000000     0 SECTION LOCAL  DEFAULT   10 
    11: 00000000     0 SECTION LOCAL  DEFAULT   11 
    12: 00000000     0 FILE    LOCAL  DEFAULT  ABS gpupipetest.cpp
    13: 00016824     4 OBJECT  LOCAL  DEFAULT    9 _ZZ8drawrectiihE4roll
    14: 00000000     0 FILE    LOCAL  DEFAULT  ABS __call_atexit.c
    15: 00010598    24 FUNC    LOCAL  DEFAULT    1 register_fini
    16: 00000000     0 FILE    LOCAL  DEFAULT  ABS crtstuff.c
    17: 00015000     0 OBJECT  LOCAL  DEFAULT    3 __EH_FRAME_BEGIN__
    18: 00010600     0 FUNC    LOCAL  DEFAULT    1 __do_global_dtors_aux
    19: 00016808     1 OBJECT  LOCAL  DEFAULT    9 completed.1
    20: 00015318     0 OBJECT  LOCAL  DEFAULT    5 __do_global_dtors_aux_fin
    21: 0001064c     0 FUNC    LOCAL  DEFAULT    1 frame_dummy
    22: 0001680c    24 OBJECT  LOCAL  DEFAULT    9 object.0
    23: 00015314     0 OBJECT  LOCAL  DEFAULT    4 __frame_dummy_init_array_
    24: 00000000     0 FILE    LOCAL  DEFAULT  ABS utils.cpp
    25: 00013190  6144 OBJECT  LOCAL  DEFAULT    2 _ZL4font
    26: 00000000     0 FILE    LOCAL  DEFAULT  ABS sf_cos.c
    27: 00000000     0 FILE    LOCAL  DEFAULT  ABS sf_sin.c
    28: 00000000     0 FILE    LOCAL  DEFAULT  ABS ef_rem_pio2.c
    29: 00014990   128 OBJECT  LOCAL  DEFAULT    2 npio2_hw
    30: 00014a10   792 OBJECT  LOCAL  DEFAULT    2 two_over_pi
    31: 00000000     0 FILE    LOCAL  DEFAULT  ABS kf_cos.c
    32: 00000000     0 FILE    LOCAL  DEFAULT  ABS kf_rem_pio2.c
    33: 00014d28    12 OBJECT  LOCAL  DEFAULT    2 init_jk
    34: 00014d34    44 OBJECT  LOCAL  DEFAULT    2 PIo2
    35: 00000000     0 FILE    LOCAL  DEFAULT  ABS kf_sin.c
    36: 00000000     0 FILE    LOCAL  DEFAULT  ABS sf_fabs.c
    37: 00000000     0 FILE    LOCAL  DEFAULT  ABS sf_floor.c
    38: 00000000     0 FILE    LOCAL  DEFAULT  ABS sf_scalbn.c
    39: 00000000     0 FILE    LOCAL  DEFAULT  ABS exit.c
    40: 00000000     0 FILE    LOCAL  DEFAULT  ABS init.c
    41: 00000000     0 FILE    LOCAL  DEFAULT  ABS fini.c
    42: 00000000     0 FILE    LOCAL  DEFAULT  ABS atexit.c
    43: 00000000     0 FILE    LOCAL  DEFAULT  ABS __atexit.c
    44: 00000000     0 FILE    LOCAL  DEFAULT  ABS sys_exit.c
    45: 00000000     0 FILE    LOCAL  DEFAULT  ABS errno.c
    46: 00000000     0 FILE    LOCAL  DEFAULT  ABS crtstuff.c
    47: 0001530c     0 OBJECT  LOCAL  DEFAULT    3 __FRAME_END__
    48: 00000000     0 FILE    LOCAL  DEFAULT  ABS impure.c
    49: 00016330  1064 OBJECT  LOCAL  DEFAULT    6 impure_data
    50: 00000000     0 FILE    LOCAL  DEFAULT  ABS 
    51: 0001531c     0 NOTYPE  LOCAL  DEFAULT    5 __fini_array_end
    52: 00015318     0 NOTYPE  LOCAL  DEFAULT    5 __fini_array_start
    53: 00015318     0 NOTYPE  LOCAL  DEFAULT    4 __init_array_end
    54: 00015310     0 NOTYPE  LOCAL  DEFAULT    4 __preinit_array_end
    55: 00016760     0 OBJECT  LOCAL  DEFAULT    7 _GLOBAL_OFFSET_TABLE_
    56: 00015310     0 NOTYPE  LOCAL  DEFAULT    4 __init_array_start
    57: 00015310     0 NOTYPE  LOCAL  DEFAULT    4 __preinit_array_start
    58: 000106a4   552 FUNC    GLOBAL DEFAULT    1 _Z8drawrectiih
    59: 00016028     0 NOTYPE  GLOBAL DEFAULT  ABS __global_pointer$
    60: 000108cc    96 FUNC    GLOBAL DEFAULT    1 _Z14resetparticlesPi
    61: 00011510   532 FUNC    GLOBAL DEFAULT    1 _Z11PrintMaskediiPKc
    62: 00016328     4 OBJECT  GLOBAL DEFAULT    6 VRAM
    63: 00013130     8 FUNC    GLOBAL DEFAULT    1 __errno
    64: 00011e3c   720 FUNC    GLOBAL DEFAULT    1 __ieee754_rem_pio2f
    65: 00010af8   928 FUNC    GLOBAL DEFAULT    1 _Z8PrintDMAiiPKcb
    66: 00016778     0 NOTYPE  GLOBAL DEFAULT    8 __SDATA_BEGIN__
    67: 00011b7c   336 FUNC    GLOBAL DEFAULT    1 _Z7EchoIntm
    68: 00016320     4 OBJECT  GLOBAL DEFAULT    6 GPUFIFO
    69: 00011ccc    44 FUNC    GLOBAL DEFAULT    1 _Z6Randomv
    70: 00010670    52 FUNC    GLOBAL DEFAULT    1 _Z4ssini
    71: 00012b50     8 FUNC    GLOBAL DEFAULT    1 fabsf
    72: 00011724   516 FUNC    GLOBAL DEFAULT    1 _Z5PrintiiiPKc
    73: 00016800     4 OBJECT  GLOBAL DEFAULT    8 _global_impure_ptr
    74: 00012d60   156 FUNC    GLOBAL DEFAULT    1 __libc_init_array
    75: 00012ac4   140 FUNC    GLOBAL DEFAULT    1 __kernel_sinf
    76: 00011928   544 FUNC    GLOBAL DEFAULT    1 _Z11PrintMaskediiiPKc
    77: 00011cf8   160 FUNC    GLOBAL DEFAULT    1 cosf
    78: 00012ff8    92 FUNC    GLOBAL DEFAULT    1 __libc_fini_array
    79: 0001210c   256 FUNC    GLOBAL DEFAULT    1 __kernel_cosf
    80: 00012ed8   288 FUNC    GLOBAL DEFAULT    1 __call_exitprocs
    81: 000105b0    80 FUNC    GLOBAL DEFAULT    1 _start
    82: 00013068   152 FUNC    GLOBAL DEFAULT    1 __register_exitproc
    83: 00011220   508 FUNC    GLOBAL DEFAULT    1 _Z5PrintiiPKc
    84: 0001632c     4 OBJECT  GLOBAL DEFAULT    6 seed
    85: 00016828     0 NOTYPE  GLOBAL DEFAULT    9 __BSS_END__
    86: 00012c10   288 FUNC    GLOBAL DEFAULT    1 scalbnf
    87: 00016808     0 NOTYPE  GLOBAL DEFAULT    9 __bss_start
    88: 00012dfc   220 FUNC    GLOBAL DEFAULT    1 memset
    89: 00010074  1316 FUNC    GLOBAL DEFAULT    1 main
    90: 0001141c   244 FUNC    GLOBAL DEFAULT    1 _Z8PrintHexiim
    91: 00013054    20 FUNC    GLOBAL DEFAULT    1 atexit
    92: 00016804     4 OBJECT  GLOBAL DEFAULT    8 _impure_ptr
    93: 00015320  4096 OBJECT  GLOBAL DEFAULT    6 sinewave
    94: 00011d98   164 FUNC    GLOBAL DEFAULT    1 sinf
    95: 00015320     0 NOTYPE  GLOBAL DEFAULT    6 __DATA_BEGIN__
    96: 00011b48    52 FUNC    GLOBAL DEFAULT    1 _Z8EchoUARTPKc
    97: 00010e98   904 FUNC    GLOBAL DEFAULT    1 _Z8PrintDMAiiiPKcb
    98: 00016808     0 NOTYPE  GLOBAL DEFAULT    8 _edata
    99: 00016828     0 NOTYPE  GLOBAL DEFAULT    9 _end
   100: 0001092c   460 FUNC    GLOBAL DEFAULT    1 _Z13drawparticlesPi
   101: 00012d30    48 FUNC    GLOBAL DEFAULT    1 exit
   102: 00013100    48 FUNC    GLOBAL DEFAULT    1 _exit
   103: 0001220c  2232 FUNC    GLOBAL DEFAULT    1 __kernel_rem_pio2f
   104: 00012b58   184 FUNC    GLOBAL DEFAULT    1 floorf
   105: 00016324     4 OBJECT  GLOBAL DEFAULT    6 UARTTX

No version information found in this file.
Attribute Section: riscv
File Attributes
  Tag_RISCV_stack_align: 16-bytes
  Tag_RISCV_arch: "rv32i2p0_m2p0_f2p0"
