
instructiontest.elf:     file format elf32-littleriscv


Disassembly of section .text:

00010074 <main>:
   10074:	00002797          	auipc	a5,0x2
   10078:	de078793          	addi	a5,a5,-544 # 11e54 <__errno+0x8>
   1007c:	0107a503          	lw	a0,16(a5)
   10080:	0007a303          	lw	t1,0(a5)
   10084:	0047a883          	lw	a7,4(a5)
   10088:	0087a803          	lw	a6,8(a5)
   1008c:	00c7a583          	lw	a1,12(a5)
   10090:	0147a603          	lw	a2,20(a5)
   10094:	0187a683          	lw	a3,24(a5)
   10098:	01c7a703          	lw	a4,28(a5)
   1009c:	0207c783          	lbu	a5,32(a5)
   100a0:	f8010113          	addi	sp,sp,-128
   100a4:	02a12623          	sw	a0,44(sp)
   100a8:	02f10e23          	sb	a5,60(sp)
   100ac:	0c800513          	li	a0,200
   100b0:	03100793          	li	a5,49
   100b4:	07212823          	sw	s2,112(sp)
   100b8:	07312623          	sw	s3,108(sp)
   100bc:	07412423          	sw	s4,104(sp)
   100c0:	07512223          	sw	s5,100(sp)
   100c4:	07612023          	sw	s6,96(sp)
   100c8:	05712e23          	sw	s7,92(sp)
   100cc:	05812c23          	sw	s8,88(sp)
   100d0:	05912a23          	sw	s9,84(sp)
   100d4:	02f10623          	sb	a5,44(sp)
   100d8:	06112e23          	sw	ra,124(sp)
   100dc:	06812c23          	sw	s0,120(sp)
   100e0:	06912a23          	sw	s1,116(sp)
   100e4:	05a12823          	sw	s10,80(sp)
   100e8:	05b12623          	sw	s11,76(sp)
   100ec:	00612e23          	sw	t1,28(sp)
   100f0:	03112023          	sw	a7,32(sp)
   100f4:	03012223          	sw	a6,36(sp)
   100f8:	02b12423          	sw	a1,40(sp)
   100fc:	02c12823          	sw	a2,48(sp)
   10100:	02d12a23          	sw	a3,52(sp)
   10104:	02e12c23          	sw	a4,56(sp)
   10108:	790000ef          	jal	ra,10898 <_Z11ClearScreenh>
   1010c:	00200793          	li	a5,2
   10110:	00f12423          	sw	a5,8(sp)
   10114:	00300793          	li	a5,3
   10118:	00f12223          	sw	a5,4(sp)
   1011c:	01c10793          	addi	a5,sp,28
   10120:	00000c93          	li	s9,0
   10124:	00000c13          	li	s8,0
   10128:	00000b93          	li	s7,0
   1012c:	00012023          	sw	zero,0(sp)
   10130:	00006917          	auipc	s2,0x6
   10134:	c5c92903          	lw	s2,-932(s2) # 15d8c <_GLOBAL_OFFSET_TABLE_+0x4>
   10138:	00f12623          	sw	a5,12(sp)
   1013c:	0ad00b13          	li	s6,173
   10140:	10000a93          	li	s5,256
   10144:	08200a13          	li	s4,130
   10148:	0000c9b7          	lui	s3,0xc
   1014c:	0b000793          	li	a5,176
   10150:	0187f863          	bgeu	a5,s8,10160 <main+0xec>
   10154:	00812783          	lw	a5,8(sp)
   10158:	40f007b3          	neg	a5,a5
   1015c:	00f12423          	sw	a5,8(sp)
   10160:	00412783          	lw	a5,4(sp)
   10164:	07c00613          	li	a2,124
   10168:	000c8413          	mv	s0,s9
   1016c:	00fb8bb3          	add	s7,s7,a5
   10170:	00812783          	lw	a5,8(sp)
   10174:	000b8513          	mv	a0,s7
   10178:	000c8d13          	mv	s10,s9
   1017c:	00fc0c33          	add	s8,s8,a5
   10180:	000c0593          	mv	a1,s8
   10184:	1b8000ef          	jal	ra,1033c <_Z8drawrectiih>
   10188:	00014483          	lbu	s1,0(sp)
   1018c:	00000d93          	li	s11,0
   10190:	000d0513          	mv	a0,s10
   10194:	174000ef          	jal	ra,10308 <_Z4ssini>
   10198:	036547b3          	div	a5,a0,s6
   1019c:	00092683          	lw	a3,0(s2)
   101a0:	002d0d13          	addi	s10,s10,2
   101a4:	06078793          	addi	a5,a5,96
   101a8:	00879793          	slli	a5,a5,0x8
   101ac:	01b787b3          	add	a5,a5,s11
   101b0:	00f687b3          	add	a5,a3,a5
   101b4:	00978023          	sb	s1,0(a5)
   101b8:	001d8d93          	addi	s11,s11,1
   101bc:	fd5d9ae3          	bne	s11,s5,10190 <main+0x11c>
   101c0:	fff4c493          	not	s1,s1
   101c4:	0ff4f493          	andi	s1,s1,255
   101c8:	00000d93          	li	s11,0
   101cc:	00040513          	mv	a0,s0
   101d0:	138000ef          	jal	ra,10308 <_Z4ssini>
   101d4:	03454533          	div	a0,a0,s4
   101d8:	00092703          	lw	a4,0(s2)
   101dc:	00340413          	addi	s0,s0,3
   101e0:	08050513          	addi	a0,a0,128
   101e4:	01b50533          	add	a0,a0,s11
   101e8:	00a70533          	add	a0,a4,a0
   101ec:	00950023          	sb	s1,0(a0)
   101f0:	100d8d93          	addi	s11,s11,256
   101f4:	fd3d9ce3          	bne	s11,s3,101cc <main+0x158>
   101f8:	00012783          	lw	a5,0(sp)
   101fc:	00c12603          	lw	a2,12(sp)
   10200:	0b800593          	li	a1,184
   10204:	00178793          	addi	a5,a5,1
   10208:	00000513          	li	a0,0
   1020c:	00f12023          	sw	a5,0(sp)
   10210:	48c000ef          	jal	ra,1069c <_Z5PrintiiPKc>
   10214:	0ef00793          	li	a5,239
   10218:	021c8c93          	addi	s9,s9,33
   1021c:	f377f8e3          	bgeu	a5,s7,1014c <main+0xd8>
   10220:	00412783          	lw	a5,4(sp)
   10224:	40f007b3          	neg	a5,a5
   10228:	00f12223          	sw	a5,4(sp)
   1022c:	f21ff06f          	j	1014c <main+0xd8>

00010230 <register_fini>:
   10230:	00000793          	li	a5,0
   10234:	00078863          	beqz	a5,10244 <register_fini+0x14>
   10238:	00012537          	lui	a0,0x12
   1023c:	d1450513          	addi	a0,a0,-748 # 11d14 <__libc_fini_array>
   10240:	3310106f          	j	11d70 <atexit>
   10244:	00008067          	ret

00010248 <_start>:
   10248:	00005197          	auipc	gp,0x5
   1024c:	37018193          	addi	gp,gp,880 # 155b8 <__global_pointer$>
   10250:	7e418513          	addi	a0,gp,2020 # 15d9c <completed.1>
   10254:	00006617          	auipc	a2,0x6
   10258:	b6460613          	addi	a2,a2,-1180 # 15db8 <__BSS_END__>
   1025c:	40a60633          	sub	a2,a2,a0
   10260:	00000593          	li	a1,0
   10264:	0b5010ef          	jal	ra,11b18 <memset>
   10268:	00002517          	auipc	a0,0x2
   1026c:	b0850513          	addi	a0,a0,-1272 # 11d70 <atexit>
   10270:	00050863          	beqz	a0,10280 <_start+0x38>
   10274:	00002517          	auipc	a0,0x2
   10278:	aa050513          	addi	a0,a0,-1376 # 11d14 <__libc_fini_array>
   1027c:	2f5010ef          	jal	ra,11d70 <atexit>
   10280:	7fc010ef          	jal	ra,11a7c <__libc_init_array>
   10284:	00012503          	lw	a0,0(sp)
   10288:	00410593          	addi	a1,sp,4
   1028c:	00000613          	li	a2,0
   10290:	de5ff0ef          	jal	ra,10074 <main>
   10294:	7b80106f          	j	11a4c <exit>

00010298 <__do_global_dtors_aux>:
   10298:	7e41c703          	lbu	a4,2020(gp) # 15d9c <completed.1>
   1029c:	04071263          	bnez	a4,102e0 <__do_global_dtors_aux+0x48>
   102a0:	ff010113          	addi	sp,sp,-16
   102a4:	00812423          	sw	s0,8(sp)
   102a8:	00078413          	mv	s0,a5
   102ac:	00112623          	sw	ra,12(sp)
   102b0:	00000793          	li	a5,0
   102b4:	00078a63          	beqz	a5,102c8 <__do_global_dtors_aux+0x30>
   102b8:	00014537          	lui	a0,0x14
   102bc:	7f450513          	addi	a0,a0,2036 # 147f4 <__EH_FRAME_BEGIN__>
   102c0:	00000097          	auipc	ra,0x0
   102c4:	000000e7          	jalr	zero # 0 <main-0x10074>
   102c8:	00100793          	li	a5,1
   102cc:	00c12083          	lw	ra,12(sp)
   102d0:	7ef18223          	sb	a5,2020(gp) # 15d9c <completed.1>
   102d4:	00812403          	lw	s0,8(sp)
   102d8:	01010113          	addi	sp,sp,16
   102dc:	00008067          	ret
   102e0:	00008067          	ret

000102e4 <frame_dummy>:
   102e4:	00000793          	li	a5,0
   102e8:	00078e63          	beqz	a5,10304 <frame_dummy+0x20>
   102ec:	000165b7          	lui	a1,0x16
   102f0:	00014537          	lui	a0,0x14
   102f4:	da058593          	addi	a1,a1,-608 # 15da0 <object.0>
   102f8:	7f450513          	addi	a0,a0,2036 # 147f4 <__EH_FRAME_BEGIN__>
   102fc:	00000317          	auipc	t1,0x0
   10300:	00000067          	jr	zero # 0 <main-0x10074>
   10304:	00008067          	ret

00010308 <_Z4ssini>:
   10308:	41f55793          	srai	a5,a0,0x1f
   1030c:	0167d793          	srli	a5,a5,0x16
   10310:	00f50533          	add	a0,a0,a5
   10314:	3ff57513          	andi	a0,a0,1023
   10318:	40f50533          	sub	a0,a0,a5
   1031c:	00251513          	slli	a0,a0,0x2
   10320:	00006797          	auipc	a5,0x6
   10324:	a707a783          	lw	a5,-1424(a5) # 15d90 <_GLOBAL_OFFSET_TABLE_+0x8>
   10328:	00a78533          	add	a0,a5,a0
   1032c:	00052783          	lw	a5,0(a0)
   10330:	ffffc537          	lui	a0,0xffffc
   10334:	00f50533          	add	a0,a0,a5
   10338:	00008067          	ret

0001033c <_Z8drawrectiih>:
   1033c:	00001837          	lui	a6,0x1
   10340:	00f80813          	addi	a6,a6,15 # 100f <main-0xf065>
   10344:	fd010113          	addi	sp,sp,-48
   10348:	00859713          	slli	a4,a1,0x8
   1034c:	00f50e13          	addi	t3,a0,15 # ffffc00f <__BSS_END__+0xfffe6257>
   10350:	01050833          	add	a6,a0,a6
   10354:	02812623          	sw	s0,44(sp)
   10358:	02912423          	sw	s1,40(sp)
   1035c:	03212223          	sw	s2,36(sp)
   10360:	03312023          	sw	s3,32(sp)
   10364:	01412e23          	sw	s4,28(sp)
   10368:	01512c23          	sw	s5,24(sp)
   1036c:	01612a23          	sw	s6,20(sp)
   10370:	01712823          	sw	s7,16(sp)
   10374:	01812623          	sw	s8,12(sp)
   10378:	00ee07b3          	add	a5,t3,a4
   1037c:	00e80833          	add	a6,a6,a4
   10380:	01912423          	sw	s9,8(sp)
   10384:	00150c13          	addi	s8,a0,1
   10388:	00250b93          	addi	s7,a0,2
   1038c:	00350b13          	addi	s6,a0,3
   10390:	00450a93          	addi	s5,a0,4
   10394:	00550a13          	addi	s4,a0,5
   10398:	00650993          	addi	s3,a0,6
   1039c:	00750913          	addi	s2,a0,7
   103a0:	00850493          	addi	s1,a0,8
   103a4:	00950413          	addi	s0,a0,9
   103a8:	00a50393          	addi	t2,a0,10
   103ac:	00b50293          	addi	t0,a0,11
   103b0:	00c50f93          	addi	t6,a0,12
   103b4:	00d50f13          	addi	t5,a0,13
   103b8:	00e50e93          	addi	t4,a0,14
   103bc:	0bf00313          	li	t1,191
   103c0:	0ff00713          	li	a4,255
   103c4:	00006697          	auipc	a3,0x6
   103c8:	9c86a683          	lw	a3,-1592(a3) # 15d8c <_GLOBAL_OFFSET_TABLE_+0x4>
   103cc:	04b37063          	bgeu	t1,a1,1040c <_Z8drawrectiih+0xd0>
   103d0:	10078793          	addi	a5,a5,256
   103d4:	00158593          	addi	a1,a1,1
   103d8:	fef81ae3          	bne	a6,a5,103cc <_Z8drawrectiih+0x90>
   103dc:	02c12403          	lw	s0,44(sp)
   103e0:	02812483          	lw	s1,40(sp)
   103e4:	02412903          	lw	s2,36(sp)
   103e8:	02012983          	lw	s3,32(sp)
   103ec:	01c12a03          	lw	s4,28(sp)
   103f0:	01812a83          	lw	s5,24(sp)
   103f4:	01412b03          	lw	s6,20(sp)
   103f8:	01012b83          	lw	s7,16(sp)
   103fc:	00c12c03          	lw	s8,12(sp)
   10400:	00812c83          	lw	s9,8(sp)
   10404:	03010113          	addi	sp,sp,48
   10408:	00008067          	ret
   1040c:	00a76a63          	bltu	a4,a0,10420 <_Z8drawrectiih+0xe4>
   10410:	0006a883          	lw	a7,0(a3)
   10414:	ff178c93          	addi	s9,a5,-15
   10418:	019888b3          	add	a7,a7,s9
   1041c:	00c88023          	sb	a2,0(a7)
   10420:	01876a63          	bltu	a4,s8,10434 <_Z8drawrectiih+0xf8>
   10424:	0006a883          	lw	a7,0(a3)
   10428:	ff278c93          	addi	s9,a5,-14
   1042c:	019888b3          	add	a7,a7,s9
   10430:	00c88023          	sb	a2,0(a7)
   10434:	01776a63          	bltu	a4,s7,10448 <_Z8drawrectiih+0x10c>
   10438:	0006a883          	lw	a7,0(a3)
   1043c:	ff378c93          	addi	s9,a5,-13
   10440:	019888b3          	add	a7,a7,s9
   10444:	00c88023          	sb	a2,0(a7)
   10448:	01676a63          	bltu	a4,s6,1045c <_Z8drawrectiih+0x120>
   1044c:	0006a883          	lw	a7,0(a3)
   10450:	ff478c93          	addi	s9,a5,-12
   10454:	019888b3          	add	a7,a7,s9
   10458:	00c88023          	sb	a2,0(a7)
   1045c:	01576a63          	bltu	a4,s5,10470 <_Z8drawrectiih+0x134>
   10460:	0006a883          	lw	a7,0(a3)
   10464:	ff578c93          	addi	s9,a5,-11
   10468:	019888b3          	add	a7,a7,s9
   1046c:	00c88023          	sb	a2,0(a7)
   10470:	01476a63          	bltu	a4,s4,10484 <_Z8drawrectiih+0x148>
   10474:	0006a883          	lw	a7,0(a3)
   10478:	ff678c93          	addi	s9,a5,-10
   1047c:	019888b3          	add	a7,a7,s9
   10480:	00c88023          	sb	a2,0(a7)
   10484:	01376a63          	bltu	a4,s3,10498 <_Z8drawrectiih+0x15c>
   10488:	0006a883          	lw	a7,0(a3)
   1048c:	ff778c93          	addi	s9,a5,-9
   10490:	019888b3          	add	a7,a7,s9
   10494:	00c88023          	sb	a2,0(a7)
   10498:	01276a63          	bltu	a4,s2,104ac <_Z8drawrectiih+0x170>
   1049c:	0006a883          	lw	a7,0(a3)
   104a0:	ff878c93          	addi	s9,a5,-8
   104a4:	019888b3          	add	a7,a7,s9
   104a8:	00c88023          	sb	a2,0(a7)
   104ac:	00976a63          	bltu	a4,s1,104c0 <_Z8drawrectiih+0x184>
   104b0:	0006a883          	lw	a7,0(a3)
   104b4:	ff978c93          	addi	s9,a5,-7
   104b8:	019888b3          	add	a7,a7,s9
   104bc:	00c88023          	sb	a2,0(a7)
   104c0:	00876a63          	bltu	a4,s0,104d4 <_Z8drawrectiih+0x198>
   104c4:	0006a883          	lw	a7,0(a3)
   104c8:	ffa78c93          	addi	s9,a5,-6
   104cc:	019888b3          	add	a7,a7,s9
   104d0:	00c88023          	sb	a2,0(a7)
   104d4:	00776a63          	bltu	a4,t2,104e8 <_Z8drawrectiih+0x1ac>
   104d8:	0006a883          	lw	a7,0(a3)
   104dc:	ffb78c93          	addi	s9,a5,-5
   104e0:	019888b3          	add	a7,a7,s9
   104e4:	00c88023          	sb	a2,0(a7)
   104e8:	00576a63          	bltu	a4,t0,104fc <_Z8drawrectiih+0x1c0>
   104ec:	0006a883          	lw	a7,0(a3)
   104f0:	ffc78c93          	addi	s9,a5,-4
   104f4:	019888b3          	add	a7,a7,s9
   104f8:	00c88023          	sb	a2,0(a7)
   104fc:	01f76a63          	bltu	a4,t6,10510 <_Z8drawrectiih+0x1d4>
   10500:	0006a883          	lw	a7,0(a3)
   10504:	ffd78c93          	addi	s9,a5,-3
   10508:	019888b3          	add	a7,a7,s9
   1050c:	00c88023          	sb	a2,0(a7)
   10510:	01e76a63          	bltu	a4,t5,10524 <_Z8drawrectiih+0x1e8>
   10514:	0006a883          	lw	a7,0(a3)
   10518:	ffe78c93          	addi	s9,a5,-2
   1051c:	019888b3          	add	a7,a7,s9
   10520:	00c88023          	sb	a2,0(a7)
   10524:	01d76a63          	bltu	a4,t4,10538 <_Z8drawrectiih+0x1fc>
   10528:	0006a883          	lw	a7,0(a3)
   1052c:	fff78c93          	addi	s9,a5,-1
   10530:	019888b3          	add	a7,a7,s9
   10534:	00c88023          	sb	a2,0(a7)
   10538:	e9c76ce3          	bltu	a4,t3,103d0 <_Z8drawrectiih+0x94>
   1053c:	0006a883          	lw	a7,0(a3)
   10540:	00f888b3          	add	a7,a7,a5
   10544:	00c88023          	sb	a2,0(a7)
   10548:	e89ff06f          	j	103d0 <_Z8drawrectiih+0x94>

0001054c <_Z3DDAffffh>:
   1054c:	fd010113          	addi	sp,sp,-48
   10550:	02912223          	sw	s1,36(sp)
   10554:	00050493          	mv	s1,a0
   10558:	03212023          	sw	s2,32(sp)
   1055c:	00060513          	mv	a0,a2
   10560:	00058913          	mv	s2,a1
   10564:	00048593          	mv	a1,s1
   10568:	02112623          	sw	ra,44(sp)
   1056c:	02812423          	sw	s0,40(sp)
   10570:	01312e23          	sw	s3,28(sp)
   10574:	00068413          	mv	s0,a3
   10578:	01412c23          	sw	s4,24(sp)
   1057c:	01512a23          	sw	s5,20(sp)
   10580:	01712623          	sw	s7,12(sp)
   10584:	01612823          	sw	s6,16(sp)
   10588:	01812423          	sw	s8,8(sp)
   1058c:	00070b93          	mv	s7,a4
   10590:	68d000ef          	jal	ra,1141c <__subsf3>
   10594:	00050a93          	mv	s5,a0
   10598:	00090593          	mv	a1,s2
   1059c:	00040513          	mv	a0,s0
   105a0:	80000a37          	lui	s4,0x80000
   105a4:	679000ef          	jal	ra,1141c <__subsf3>
   105a8:	fffa4a13          	not	s4,s4
   105ac:	014af9b3          	and	s3,s5,s4
   105b0:	00aa7a33          	and	s4,s4,a0
   105b4:	00050413          	mv	s0,a0
   105b8:	00098593          	mv	a1,s3
   105bc:	000a0513          	mv	a0,s4
   105c0:	2a5000ef          	jal	ra,11064 <__gesf2>
   105c4:	00055463          	bgez	a0,105cc <_Z3DDAffffh+0x80>
   105c8:	00098a13          	mv	s4,s3
   105cc:	000a0593          	mv	a1,s4
   105d0:	00002517          	auipc	a0,0x2
   105d4:	8a852503          	lw	a0,-1880(a0) # 11e78 <__errno+0x2c>
   105d8:	758000ef          	jal	ra,10d30 <__divsf3>
   105dc:	00050993          	mv	s3,a0
   105e0:	00050593          	mv	a1,a0
   105e4:	000a8513          	mv	a0,s5
   105e8:	331000ef          	jal	ra,11118 <__mulsf3>
   105ec:	00098593          	mv	a1,s3
   105f0:	00050b13          	mv	s6,a0
   105f4:	00040513          	mv	a0,s0
   105f8:	321000ef          	jal	ra,11118 <__mulsf3>
   105fc:	00050a93          	mv	s5,a0
   10600:	00000993          	li	s3,0
   10604:	00005c17          	auipc	s8,0x5
   10608:	788c2c03          	lw	s8,1928(s8) # 15d8c <_GLOBAL_OFFSET_TABLE_+0x4>
   1060c:	00090513          	mv	a0,s2
   10610:	278010ef          	jal	ra,11888 <__fixsfsi>
   10614:	00050413          	mv	s0,a0
   10618:	00048513          	mv	a0,s1
   1061c:	26c010ef          	jal	ra,11888 <__fixsfsi>
   10620:	000c2783          	lw	a5,0(s8)
   10624:	00841413          	slli	s0,s0,0x8
   10628:	00a40433          	add	s0,s0,a0
   1062c:	00878433          	add	s0,a5,s0
   10630:	000b0593          	mv	a1,s6
   10634:	00048513          	mv	a0,s1
   10638:	01740023          	sb	s7,0(s0)
   1063c:	298000ef          	jal	ra,108d4 <__addsf3>
   10640:	000a8593          	mv	a1,s5
   10644:	00050493          	mv	s1,a0
   10648:	00090513          	mv	a0,s2
   1064c:	288000ef          	jal	ra,108d4 <__addsf3>
   10650:	00198993          	addi	s3,s3,1 # c001 <main-0x4073>
   10654:	00050913          	mv	s2,a0
   10658:	00098513          	mv	a0,s3
   1065c:	29c010ef          	jal	ra,118f8 <__floatsisf>
   10660:	000a0593          	mv	a1,s4
   10664:	201000ef          	jal	ra,11064 <__gesf2>
   10668:	faa052e3          	blez	a0,1060c <_Z3DDAffffh+0xc0>
   1066c:	02c12083          	lw	ra,44(sp)
   10670:	02812403          	lw	s0,40(sp)
   10674:	02412483          	lw	s1,36(sp)
   10678:	02012903          	lw	s2,32(sp)
   1067c:	01c12983          	lw	s3,28(sp)
   10680:	01812a03          	lw	s4,24(sp)
   10684:	01412a83          	lw	s5,20(sp)
   10688:	01012b03          	lw	s6,16(sp)
   1068c:	00c12b83          	lw	s7,12(sp)
   10690:	00812c03          	lw	s8,8(sp)
   10694:	03010113          	addi	sp,sp,48
   10698:	00008067          	ret

0001069c <_Z5PrintiiPKc>:
   1069c:	00064783          	lbu	a5,0(a2)
   106a0:	1e078a63          	beqz	a5,10894 <_Z5PrintiiPKc+0x1f8>
   106a4:	00001737          	lui	a4,0x1
   106a8:	80070713          	addi	a4,a4,-2048 # 800 <main-0xf874>
   106ac:	fd010113          	addi	sp,sp,-48
   106b0:	00859893          	slli	a7,a1,0x8
   106b4:	00e50733          	add	a4,a0,a4
   106b8:	02812623          	sw	s0,44(sp)
   106bc:	02912423          	sw	s1,40(sp)
   106c0:	03212223          	sw	s2,36(sp)
   106c4:	03312023          	sw	s3,32(sp)
   106c8:	01412e23          	sw	s4,28(sp)
   106cc:	01512c23          	sw	s5,24(sp)
   106d0:	01612a23          	sw	s6,20(sp)
   106d4:	01712823          	sw	s7,16(sp)
   106d8:	01812623          	sw	s8,12(sp)
   106dc:	01912423          	sw	s9,8(sp)
   106e0:	01a12223          	sw	s10,4(sp)
   106e4:	01b12023          	sw	s11,0(sp)
   106e8:	00058c93          	mv	s9,a1
   106ec:	00050313          	mv	t1,a0
   106f0:	00160413          	addi	s0,a2,1
   106f4:	00150b93          	addi	s7,a0,1
   106f8:	00250b13          	addi	s6,a0,2
   106fc:	00350a93          	addi	s5,a0,3
   10700:	00450a13          	addi	s4,a0,4
   10704:	00550993          	addi	s3,a0,5
   10708:	00650913          	addi	s2,a0,6
   1070c:	00750493          	addi	s1,a0,7
   10710:	00e888b3          	add	a7,a7,a4
   10714:	00001c17          	auipc	s8,0x1
   10718:	768c0c13          	addi	s8,s8,1896 # 11e7c <_ZL4font>
   1071c:	00005697          	auipc	a3,0x5
   10720:	6706a683          	lw	a3,1648(a3) # 15d8c <_GLOBAL_OFFSET_TABLE_+0x4>
   10724:	fe078793          	addi	a5,a5,-32
   10728:	1007c263          	bltz	a5,1082c <_Z5PrintiiPKc+0x190>
   1072c:	4057d713          	srai	a4,a5,0x5
   10730:	00371613          	slli	a2,a4,0x3
   10734:	01f7f793          	andi	a5,a5,31
   10738:	00379793          	slli	a5,a5,0x3
   1073c:	41960633          	sub	a2,a2,s9
   10740:	00178593          	addi	a1,a5,1
   10744:	00b71713          	slli	a4,a4,0xb
   10748:	00861613          	slli	a2,a2,0x8
   1074c:	00e58733          	add	a4,a1,a4
   10750:	00fc0833          	add	a6,s8,a5
   10754:	40660633          	sub	a2,a2,t1
   10758:	80088793          	addi	a5,a7,-2048
   1075c:	00ec0733          	add	a4,s8,a4
   10760:	406b85b3          	sub	a1,s7,t1
   10764:	406b03b3          	sub	t2,s6,t1
   10768:	406a82b3          	sub	t0,s5,t1
   1076c:	406a0fb3          	sub	t6,s4,t1
   10770:	40698f33          	sub	t5,s3,t1
   10774:	40690eb3          	sub	t4,s2,t1
   10778:	40648e33          	sub	t3,s1,t1
   1077c:	00c80833          	add	a6,a6,a2
   10780:	0006a603          	lw	a2,0(a3)
   10784:	00f80533          	add	a0,a6,a5
   10788:	00054503          	lbu	a0,0(a0)
   1078c:	00f60633          	add	a2,a2,a5
   10790:	00f58d33          	add	s10,a1,a5
   10794:	00a60023          	sb	a0,0(a2)
   10798:	0006a603          	lw	a2,0(a3)
   1079c:	00074503          	lbu	a0,0(a4)
   107a0:	00f38db3          	add	s11,t2,a5
   107a4:	01a60633          	add	a2,a2,s10
   107a8:	00a60023          	sb	a0,0(a2)
   107ac:	0006a603          	lw	a2,0(a3)
   107b0:	00174503          	lbu	a0,1(a4)
   107b4:	00f28d33          	add	s10,t0,a5
   107b8:	01b60633          	add	a2,a2,s11
   107bc:	00a60023          	sb	a0,0(a2)
   107c0:	0006a603          	lw	a2,0(a3)
   107c4:	00274503          	lbu	a0,2(a4)
   107c8:	00ff8db3          	add	s11,t6,a5
   107cc:	01a60633          	add	a2,a2,s10
   107d0:	00a60023          	sb	a0,0(a2)
   107d4:	0006a603          	lw	a2,0(a3)
   107d8:	00374503          	lbu	a0,3(a4)
   107dc:	00ff0d33          	add	s10,t5,a5
   107e0:	01b60633          	add	a2,a2,s11
   107e4:	00a60023          	sb	a0,0(a2)
   107e8:	0006a603          	lw	a2,0(a3)
   107ec:	00474503          	lbu	a0,4(a4)
   107f0:	00fe8db3          	add	s11,t4,a5
   107f4:	01a60633          	add	a2,a2,s10
   107f8:	00a60023          	sb	a0,0(a2)
   107fc:	0006a503          	lw	a0,0(a3)
   10800:	00574603          	lbu	a2,5(a4)
   10804:	00fe0d33          	add	s10,t3,a5
   10808:	01b50533          	add	a0,a0,s11
   1080c:	00c50023          	sb	a2,0(a0)
   10810:	0006a603          	lw	a2,0(a3)
   10814:	00674503          	lbu	a0,6(a4)
   10818:	10078793          	addi	a5,a5,256
   1081c:	01a60633          	add	a2,a2,s10
   10820:	00a60023          	sb	a0,0(a2)
   10824:	10070713          	addi	a4,a4,256
   10828:	f4f89ce3          	bne	a7,a5,10780 <_Z5PrintiiPKc+0xe4>
   1082c:	00044783          	lbu	a5,0(s0)
   10830:	00830313          	addi	t1,t1,8 # 10304 <frame_dummy+0x20>
   10834:	00140413          	addi	s0,s0,1
   10838:	008b8b93          	addi	s7,s7,8
   1083c:	008b0b13          	addi	s6,s6,8
   10840:	008a8a93          	addi	s5,s5,8
   10844:	008a0a13          	addi	s4,s4,8 # 80000008 <__BSS_END__+0x7ffea250>
   10848:	00898993          	addi	s3,s3,8
   1084c:	00890913          	addi	s2,s2,8
   10850:	00848493          	addi	s1,s1,8
   10854:	00888893          	addi	a7,a7,8
   10858:	ec0796e3          	bnez	a5,10724 <_Z5PrintiiPKc+0x88>
   1085c:	02c12403          	lw	s0,44(sp)
   10860:	02812483          	lw	s1,40(sp)
   10864:	02412903          	lw	s2,36(sp)
   10868:	02012983          	lw	s3,32(sp)
   1086c:	01c12a03          	lw	s4,28(sp)
   10870:	01812a83          	lw	s5,24(sp)
   10874:	01412b03          	lw	s6,20(sp)
   10878:	01012b83          	lw	s7,16(sp)
   1087c:	00c12c03          	lw	s8,12(sp)
   10880:	00812c83          	lw	s9,8(sp)
   10884:	00412d03          	lw	s10,4(sp)
   10888:	00012d83          	lw	s11,0(sp)
   1088c:	03010113          	addi	sp,sp,48
   10890:	00008067          	ret
   10894:	00008067          	ret

00010898 <_Z11ClearScreenh>:
   10898:	00005797          	auipc	a5,0x5
   1089c:	4f47a783          	lw	a5,1268(a5) # 15d8c <_GLOBAL_OFFSET_TABLE_+0x4>
   108a0:	01051693          	slli	a3,a0,0x10
   108a4:	01851713          	slli	a4,a0,0x18
   108a8:	0007a783          	lw	a5,0(a5)
   108ac:	00d76733          	or	a4,a4,a3
   108b0:	00a76733          	or	a4,a4,a0
   108b4:	0000c6b7          	lui	a3,0xc
   108b8:	00851513          	slli	a0,a0,0x8
   108bc:	00a76733          	or	a4,a4,a0
   108c0:	00d786b3          	add	a3,a5,a3
   108c4:	00e7a023          	sw	a4,0(a5)
   108c8:	00478793          	addi	a5,a5,4
   108cc:	fed79ce3          	bne	a5,a3,108c4 <_Z11ClearScreenh+0x2c>
   108d0:	00008067          	ret

000108d4 <__addsf3>:
   108d4:	00800737          	lui	a4,0x800
   108d8:	ff010113          	addi	sp,sp,-16
   108dc:	fff70713          	addi	a4,a4,-1 # 7fffff <__BSS_END__+0x7ea247>
   108e0:	00a777b3          	and	a5,a4,a0
   108e4:	00812423          	sw	s0,8(sp)
   108e8:	00912223          	sw	s1,4(sp)
   108ec:	01755413          	srli	s0,a0,0x17
   108f0:	01f55493          	srli	s1,a0,0x1f
   108f4:	0175d513          	srli	a0,a1,0x17
   108f8:	00b77733          	and	a4,a4,a1
   108fc:	0ff47413          	andi	s0,s0,255
   10900:	0ff57513          	andi	a0,a0,255
   10904:	00112623          	sw	ra,12(sp)
   10908:	01212023          	sw	s2,0(sp)
   1090c:	01f5d593          	srli	a1,a1,0x1f
   10910:	00379793          	slli	a5,a5,0x3
   10914:	00371713          	slli	a4,a4,0x3
   10918:	40a406b3          	sub	a3,s0,a0
   1091c:	18b49a63          	bne	s1,a1,10ab0 <__addsf3+0x1dc>
   10920:	0ad05063          	blez	a3,109c0 <__addsf3+0xec>
   10924:	02051663          	bnez	a0,10950 <__addsf3+0x7c>
   10928:	18070063          	beqz	a4,10aa8 <__addsf3+0x1d4>
   1092c:	fff68613          	addi	a2,a3,-1 # bfff <main-0x4075>
   10930:	00061863          	bnez	a2,10940 <__addsf3+0x6c>
   10934:	00e787b3          	add	a5,a5,a4
   10938:	00100413          	li	s0,1
   1093c:	0500006f          	j	1098c <__addsf3+0xb8>
   10940:	0ff00593          	li	a1,255
   10944:	02b69063          	bne	a3,a1,10964 <__addsf3+0x90>
   10948:	0ff00413          	li	s0,255
   1094c:	1180006f          	j	10a64 <__addsf3+0x190>
   10950:	0ff00613          	li	a2,255
   10954:	10c40863          	beq	s0,a2,10a64 <__addsf3+0x190>
   10958:	04000637          	lui	a2,0x4000
   1095c:	00c76733          	or	a4,a4,a2
   10960:	00068613          	mv	a2,a3
   10964:	01b00593          	li	a1,27
   10968:	00100693          	li	a3,1
   1096c:	00c5ce63          	blt	a1,a2,10988 <__addsf3+0xb4>
   10970:	02000693          	li	a3,32
   10974:	40c686b3          	sub	a3,a3,a2
   10978:	00c755b3          	srl	a1,a4,a2
   1097c:	00d71733          	sll	a4,a4,a3
   10980:	00e03733          	snez	a4,a4
   10984:	00e5e6b3          	or	a3,a1,a4
   10988:	00d787b3          	add	a5,a5,a3
   1098c:	04000737          	lui	a4,0x4000
   10990:	00e7f733          	and	a4,a5,a4
   10994:	0c070863          	beqz	a4,10a64 <__addsf3+0x190>
   10998:	00140413          	addi	s0,s0,1
   1099c:	0ff00713          	li	a4,255
   109a0:	30e40263          	beq	s0,a4,10ca4 <__addsf3+0x3d0>
   109a4:	7e000737          	lui	a4,0x7e000
   109a8:	0017f693          	andi	a3,a5,1
   109ac:	fff70713          	addi	a4,a4,-1 # 7dffffff <__BSS_END__+0x7dfea247>
   109b0:	0017d793          	srli	a5,a5,0x1
   109b4:	00e7f7b3          	and	a5,a5,a4
   109b8:	00d7e7b3          	or	a5,a5,a3
   109bc:	0a80006f          	j	10a64 <__addsf3+0x190>
   109c0:	06068663          	beqz	a3,10a2c <__addsf3+0x158>
   109c4:	408506b3          	sub	a3,a0,s0
   109c8:	02041063          	bnez	s0,109e8 <__addsf3+0x114>
   109cc:	2c078263          	beqz	a5,10c90 <__addsf3+0x3bc>
   109d0:	fff68613          	addi	a2,a3,-1
   109d4:	f60600e3          	beqz	a2,10934 <__addsf3+0x60>
   109d8:	0ff00593          	li	a1,255
   109dc:	02b69063          	bne	a3,a1,109fc <__addsf3+0x128>
   109e0:	00070793          	mv	a5,a4
   109e4:	f65ff06f          	j	10948 <__addsf3+0x74>
   109e8:	0ff00613          	li	a2,255
   109ec:	fec50ae3          	beq	a0,a2,109e0 <__addsf3+0x10c>
   109f0:	04000637          	lui	a2,0x4000
   109f4:	00c7e7b3          	or	a5,a5,a2
   109f8:	00068613          	mv	a2,a3
   109fc:	01b00593          	li	a1,27
   10a00:	00100693          	li	a3,1
   10a04:	00c5ce63          	blt	a1,a2,10a20 <__addsf3+0x14c>
   10a08:	02000693          	li	a3,32
   10a0c:	40c686b3          	sub	a3,a3,a2
   10a10:	00c7d5b3          	srl	a1,a5,a2
   10a14:	00d797b3          	sll	a5,a5,a3
   10a18:	00f037b3          	snez	a5,a5
   10a1c:	00f5e6b3          	or	a3,a1,a5
   10a20:	00e687b3          	add	a5,a3,a4
   10a24:	00050413          	mv	s0,a0
   10a28:	f65ff06f          	j	1098c <__addsf3+0xb8>
   10a2c:	00140693          	addi	a3,s0,1
   10a30:	0fe6f613          	andi	a2,a3,254
   10a34:	06061263          	bnez	a2,10a98 <__addsf3+0x1c4>
   10a38:	04041463          	bnez	s0,10a80 <__addsf3+0x1ac>
   10a3c:	24078e63          	beqz	a5,10c98 <__addsf3+0x3c4>
   10a40:	02070263          	beqz	a4,10a64 <__addsf3+0x190>
   10a44:	00e787b3          	add	a5,a5,a4
   10a48:	04000737          	lui	a4,0x4000
   10a4c:	00e7f733          	and	a4,a5,a4
   10a50:	00070a63          	beqz	a4,10a64 <__addsf3+0x190>
   10a54:	fc000737          	lui	a4,0xfc000
   10a58:	fff70713          	addi	a4,a4,-1 # fbffffff <__BSS_END__+0xfbfea247>
   10a5c:	00e7f7b3          	and	a5,a5,a4
   10a60:	00100413          	li	s0,1
   10a64:	0077f713          	andi	a4,a5,7
   10a68:	24070063          	beqz	a4,10ca8 <__addsf3+0x3d4>
   10a6c:	00f7f713          	andi	a4,a5,15
   10a70:	00400693          	li	a3,4
   10a74:	22d70a63          	beq	a4,a3,10ca8 <__addsf3+0x3d4>
   10a78:	00478793          	addi	a5,a5,4
   10a7c:	22c0006f          	j	10ca8 <__addsf3+0x3d4>
   10a80:	f60780e3          	beqz	a5,109e0 <__addsf3+0x10c>
   10a84:	ec0702e3          	beqz	a4,10948 <__addsf3+0x74>
   10a88:	00000493          	li	s1,0
   10a8c:	020007b7          	lui	a5,0x2000
   10a90:	0ff00413          	li	s0,255
   10a94:	2140006f          	j	10ca8 <__addsf3+0x3d4>
   10a98:	0ff00613          	li	a2,255
   10a9c:	20c68263          	beq	a3,a2,10ca0 <__addsf3+0x3cc>
   10aa0:	00e787b3          	add	a5,a5,a4
   10aa4:	0017d793          	srli	a5,a5,0x1
   10aa8:	00068413          	mv	s0,a3
   10aac:	fb9ff06f          	j	10a64 <__addsf3+0x190>
   10ab0:	08d05063          	blez	a3,10b30 <__addsf3+0x25c>
   10ab4:	06051263          	bnez	a0,10b18 <__addsf3+0x244>
   10ab8:	fe0708e3          	beqz	a4,10aa8 <__addsf3+0x1d4>
   10abc:	fff68613          	addi	a2,a3,-1
   10ac0:	00061863          	bnez	a2,10ad0 <__addsf3+0x1fc>
   10ac4:	40e787b3          	sub	a5,a5,a4
   10ac8:	00100413          	li	s0,1
   10acc:	0340006f          	j	10b00 <__addsf3+0x22c>
   10ad0:	0ff00593          	li	a1,255
   10ad4:	e6b68ae3          	beq	a3,a1,10948 <__addsf3+0x74>
   10ad8:	01b00593          	li	a1,27
   10adc:	00100693          	li	a3,1
   10ae0:	00c5ce63          	blt	a1,a2,10afc <__addsf3+0x228>
   10ae4:	02000693          	li	a3,32
   10ae8:	40c686b3          	sub	a3,a3,a2
   10aec:	00c755b3          	srl	a1,a4,a2
   10af0:	00d71733          	sll	a4,a4,a3
   10af4:	00e03733          	snez	a4,a4
   10af8:	00e5e6b3          	or	a3,a1,a4
   10afc:	40d787b3          	sub	a5,a5,a3
   10b00:	04000937          	lui	s2,0x4000
   10b04:	0127f733          	and	a4,a5,s2
   10b08:	f4070ee3          	beqz	a4,10a64 <__addsf3+0x190>
   10b0c:	fff90913          	addi	s2,s2,-1 # 3ffffff <__BSS_END__+0x3fea247>
   10b10:	0127f933          	and	s2,a5,s2
   10b14:	1180006f          	j	10c2c <__addsf3+0x358>
   10b18:	0ff00613          	li	a2,255
   10b1c:	f4c404e3          	beq	s0,a2,10a64 <__addsf3+0x190>
   10b20:	04000637          	lui	a2,0x4000
   10b24:	00c76733          	or	a4,a4,a2
   10b28:	00068613          	mv	a2,a3
   10b2c:	fadff06f          	j	10ad8 <__addsf3+0x204>
   10b30:	08068063          	beqz	a3,10bb0 <__addsf3+0x2dc>
   10b34:	408506b3          	sub	a3,a0,s0
   10b38:	02041863          	bnez	s0,10b68 <__addsf3+0x294>
   10b3c:	1e078063          	beqz	a5,10d1c <__addsf3+0x448>
   10b40:	fff68613          	addi	a2,a3,-1
   10b44:	00061863          	bnez	a2,10b54 <__addsf3+0x280>
   10b48:	40f707b3          	sub	a5,a4,a5
   10b4c:	00058493          	mv	s1,a1
   10b50:	f79ff06f          	j	10ac8 <__addsf3+0x1f4>
   10b54:	0ff00813          	li	a6,255
   10b58:	03069263          	bne	a3,a6,10b7c <__addsf3+0x2a8>
   10b5c:	00070793          	mv	a5,a4
   10b60:	0ff00413          	li	s0,255
   10b64:	06c0006f          	j	10bd0 <__addsf3+0x2fc>
   10b68:	0ff00613          	li	a2,255
   10b6c:	fec508e3          	beq	a0,a2,10b5c <__addsf3+0x288>
   10b70:	04000637          	lui	a2,0x4000
   10b74:	00c7e7b3          	or	a5,a5,a2
   10b78:	00068613          	mv	a2,a3
   10b7c:	01b00813          	li	a6,27
   10b80:	00100693          	li	a3,1
   10b84:	00c84e63          	blt	a6,a2,10ba0 <__addsf3+0x2cc>
   10b88:	02000693          	li	a3,32
   10b8c:	40c686b3          	sub	a3,a3,a2
   10b90:	00c7d833          	srl	a6,a5,a2
   10b94:	00d797b3          	sll	a5,a5,a3
   10b98:	00f037b3          	snez	a5,a5
   10b9c:	00f866b3          	or	a3,a6,a5
   10ba0:	40d707b3          	sub	a5,a4,a3
   10ba4:	00050413          	mv	s0,a0
   10ba8:	00058493          	mv	s1,a1
   10bac:	f55ff06f          	j	10b00 <__addsf3+0x22c>
   10bb0:	00140693          	addi	a3,s0,1
   10bb4:	0fe6f693          	andi	a3,a3,254
   10bb8:	04069e63          	bnez	a3,10c14 <__addsf3+0x340>
   10bbc:	04041263          	bnez	s0,10c00 <__addsf3+0x32c>
   10bc0:	00079c63          	bnez	a5,10bd8 <__addsf3+0x304>
   10bc4:	00000493          	li	s1,0
   10bc8:	0e070063          	beqz	a4,10ca8 <__addsf3+0x3d4>
   10bcc:	00070793          	mv	a5,a4
   10bd0:	00058493          	mv	s1,a1
   10bd4:	e91ff06f          	j	10a64 <__addsf3+0x190>
   10bd8:	e80706e3          	beqz	a4,10a64 <__addsf3+0x190>
   10bdc:	40e786b3          	sub	a3,a5,a4
   10be0:	04000637          	lui	a2,0x4000
   10be4:	00c6f633          	and	a2,a3,a2
   10be8:	40f707b3          	sub	a5,a4,a5
   10bec:	fe0612e3          	bnez	a2,10bd0 <__addsf3+0x2fc>
   10bf0:	00000793          	li	a5,0
   10bf4:	08068063          	beqz	a3,10c74 <__addsf3+0x3a0>
   10bf8:	00068793          	mv	a5,a3
   10bfc:	e69ff06f          	j	10a64 <__addsf3+0x190>
   10c00:	e80792e3          	bnez	a5,10a84 <__addsf3+0x1b0>
   10c04:	e80702e3          	beqz	a4,10a88 <__addsf3+0x1b4>
   10c08:	00070793          	mv	a5,a4
   10c0c:	00058493          	mv	s1,a1
   10c10:	d39ff06f          	j	10948 <__addsf3+0x74>
   10c14:	40e78933          	sub	s2,a5,a4
   10c18:	040006b7          	lui	a3,0x4000
   10c1c:	00d976b3          	and	a3,s2,a3
   10c20:	04068463          	beqz	a3,10c68 <__addsf3+0x394>
   10c24:	40f70933          	sub	s2,a4,a5
   10c28:	00058493          	mv	s1,a1
   10c2c:	00090513          	mv	a0,s2
   10c30:	5d1000ef          	jal	ra,11a00 <__clzsi2>
   10c34:	ffb50513          	addi	a0,a0,-5
   10c38:	00a91933          	sll	s2,s2,a0
   10c3c:	04854063          	blt	a0,s0,10c7c <__addsf3+0x3a8>
   10c40:	40850533          	sub	a0,a0,s0
   10c44:	00150513          	addi	a0,a0,1
   10c48:	02000413          	li	s0,32
   10c4c:	00a957b3          	srl	a5,s2,a0
   10c50:	40a40533          	sub	a0,s0,a0
   10c54:	00a91933          	sll	s2,s2,a0
   10c58:	01203933          	snez	s2,s2
   10c5c:	0127e7b3          	or	a5,a5,s2
   10c60:	00000413          	li	s0,0
   10c64:	e01ff06f          	j	10a64 <__addsf3+0x190>
   10c68:	fc0912e3          	bnez	s2,10c2c <__addsf3+0x358>
   10c6c:	00000793          	li	a5,0
   10c70:	00000413          	li	s0,0
   10c74:	00000493          	li	s1,0
   10c78:	0300006f          	j	10ca8 <__addsf3+0x3d4>
   10c7c:	fc0007b7          	lui	a5,0xfc000
   10c80:	fff78793          	addi	a5,a5,-1 # fbffffff <__BSS_END__+0xfbfea247>
   10c84:	40a40433          	sub	s0,s0,a0
   10c88:	00f977b3          	and	a5,s2,a5
   10c8c:	dd9ff06f          	j	10a64 <__addsf3+0x190>
   10c90:	00070793          	mv	a5,a4
   10c94:	e15ff06f          	j	10aa8 <__addsf3+0x1d4>
   10c98:	00070793          	mv	a5,a4
   10c9c:	dc9ff06f          	j	10a64 <__addsf3+0x190>
   10ca0:	0ff00413          	li	s0,255
   10ca4:	00000793          	li	a5,0
   10ca8:	04000737          	lui	a4,0x4000
   10cac:	00e7f733          	and	a4,a5,a4
   10cb0:	00070e63          	beqz	a4,10ccc <__addsf3+0x3f8>
   10cb4:	00140413          	addi	s0,s0,1
   10cb8:	0ff00713          	li	a4,255
   10cbc:	06e40663          	beq	s0,a4,10d28 <__addsf3+0x454>
   10cc0:	fc000737          	lui	a4,0xfc000
   10cc4:	fff70713          	addi	a4,a4,-1 # fbffffff <__BSS_END__+0xfbfea247>
   10cc8:	00e7f7b3          	and	a5,a5,a4
   10ccc:	0ff00713          	li	a4,255
   10cd0:	0037d793          	srli	a5,a5,0x3
   10cd4:	00e41863          	bne	s0,a4,10ce4 <__addsf3+0x410>
   10cd8:	00078663          	beqz	a5,10ce4 <__addsf3+0x410>
   10cdc:	004007b7          	lui	a5,0x400
   10ce0:	00000493          	li	s1,0
   10ce4:	7f800537          	lui	a0,0x7f800
   10ce8:	01741413          	slli	s0,s0,0x17
   10cec:	00979793          	slli	a5,a5,0x9
   10cf0:	00a47433          	and	s0,s0,a0
   10cf4:	0097d793          	srli	a5,a5,0x9
   10cf8:	00c12083          	lw	ra,12(sp)
   10cfc:	00f467b3          	or	a5,s0,a5
   10d00:	00812403          	lw	s0,8(sp)
   10d04:	01f49513          	slli	a0,s1,0x1f
   10d08:	00012903          	lw	s2,0(sp)
   10d0c:	00412483          	lw	s1,4(sp)
   10d10:	00a7e533          	or	a0,a5,a0
   10d14:	01010113          	addi	sp,sp,16
   10d18:	00008067          	ret
   10d1c:	00070793          	mv	a5,a4
   10d20:	00068413          	mv	s0,a3
   10d24:	eadff06f          	j	10bd0 <__addsf3+0x2fc>
   10d28:	00000793          	li	a5,0
   10d2c:	fa1ff06f          	j	10ccc <__addsf3+0x3f8>

00010d30 <__divsf3>:
   10d30:	fe010113          	addi	sp,sp,-32
   10d34:	00912a23          	sw	s1,20(sp)
   10d38:	01755493          	srli	s1,a0,0x17
   10d3c:	01212823          	sw	s2,16(sp)
   10d40:	01312623          	sw	s3,12(sp)
   10d44:	01412423          	sw	s4,8(sp)
   10d48:	00951993          	slli	s3,a0,0x9
   10d4c:	00112e23          	sw	ra,28(sp)
   10d50:	00812c23          	sw	s0,24(sp)
   10d54:	01512223          	sw	s5,4(sp)
   10d58:	0ff4f493          	andi	s1,s1,255
   10d5c:	00058a13          	mv	s4,a1
   10d60:	0099d993          	srli	s3,s3,0x9
   10d64:	01f55913          	srli	s2,a0,0x1f
   10d68:	08048463          	beqz	s1,10df0 <__divsf3+0xc0>
   10d6c:	0ff00793          	li	a5,255
   10d70:	0af48063          	beq	s1,a5,10e10 <__divsf3+0xe0>
   10d74:	00399993          	slli	s3,s3,0x3
   10d78:	040007b7          	lui	a5,0x4000
   10d7c:	00f9e9b3          	or	s3,s3,a5
   10d80:	f8148493          	addi	s1,s1,-127
   10d84:	00000a93          	li	s5,0
   10d88:	017a5513          	srli	a0,s4,0x17
   10d8c:	009a1413          	slli	s0,s4,0x9
   10d90:	0ff57513          	andi	a0,a0,255
   10d94:	00945413          	srli	s0,s0,0x9
   10d98:	01fa5a13          	srli	s4,s4,0x1f
   10d9c:	08050a63          	beqz	a0,10e30 <__divsf3+0x100>
   10da0:	0ff00793          	li	a5,255
   10da4:	0af50663          	beq	a0,a5,10e50 <__divsf3+0x120>
   10da8:	00341413          	slli	s0,s0,0x3
   10dac:	040007b7          	lui	a5,0x4000
   10db0:	00f46433          	or	s0,s0,a5
   10db4:	f8150513          	addi	a0,a0,-127 # 7f7fff81 <__BSS_END__+0x7f7ea1c9>
   10db8:	00000793          	li	a5,0
   10dbc:	002a9693          	slli	a3,s5,0x2
   10dc0:	00f6e6b3          	or	a3,a3,a5
   10dc4:	fff68693          	addi	a3,a3,-1 # 3ffffff <__BSS_END__+0x3fea247>
   10dc8:	00e00713          	li	a4,14
   10dcc:	01494633          	xor	a2,s2,s4
   10dd0:	40a48533          	sub	a0,s1,a0
   10dd4:	08d76e63          	bltu	a4,a3,10e70 <__divsf3+0x140>
   10dd8:	00013737          	lui	a4,0x13
   10ddc:	67c70713          	addi	a4,a4,1660 # 1367c <_ZL4font+0x1800>
   10de0:	00269693          	slli	a3,a3,0x2
   10de4:	00e686b3          	add	a3,a3,a4
   10de8:	0006a703          	lw	a4,0(a3)
   10dec:	00070067          	jr	a4
   10df0:	02098a63          	beqz	s3,10e24 <__divsf3+0xf4>
   10df4:	00098513          	mv	a0,s3
   10df8:	409000ef          	jal	ra,11a00 <__clzsi2>
   10dfc:	ffb50793          	addi	a5,a0,-5
   10e00:	f8a00493          	li	s1,-118
   10e04:	00f999b3          	sll	s3,s3,a5
   10e08:	40a484b3          	sub	s1,s1,a0
   10e0c:	f79ff06f          	j	10d84 <__divsf3+0x54>
   10e10:	0ff00493          	li	s1,255
   10e14:	00200a93          	li	s5,2
   10e18:	f60988e3          	beqz	s3,10d88 <__divsf3+0x58>
   10e1c:	00300a93          	li	s5,3
   10e20:	f69ff06f          	j	10d88 <__divsf3+0x58>
   10e24:	00000493          	li	s1,0
   10e28:	00100a93          	li	s5,1
   10e2c:	f5dff06f          	j	10d88 <__divsf3+0x58>
   10e30:	02040a63          	beqz	s0,10e64 <__divsf3+0x134>
   10e34:	00040513          	mv	a0,s0
   10e38:	3c9000ef          	jal	ra,11a00 <__clzsi2>
   10e3c:	ffb50793          	addi	a5,a0,-5
   10e40:	00f41433          	sll	s0,s0,a5
   10e44:	f8a00793          	li	a5,-118
   10e48:	40a78533          	sub	a0,a5,a0
   10e4c:	f6dff06f          	j	10db8 <__divsf3+0x88>
   10e50:	0ff00513          	li	a0,255
   10e54:	00200793          	li	a5,2
   10e58:	f60402e3          	beqz	s0,10dbc <__divsf3+0x8c>
   10e5c:	00300793          	li	a5,3
   10e60:	f5dff06f          	j	10dbc <__divsf3+0x8c>
   10e64:	00000513          	li	a0,0
   10e68:	00100793          	li	a5,1
   10e6c:	f51ff06f          	j	10dbc <__divsf3+0x8c>
   10e70:	00541813          	slli	a6,s0,0x5
   10e74:	1289f463          	bgeu	s3,s0,10f9c <__divsf3+0x26c>
   10e78:	fff50513          	addi	a0,a0,-1
   10e7c:	00000693          	li	a3,0
   10e80:	01085413          	srli	s0,a6,0x10
   10e84:	0289d333          	divu	t1,s3,s0
   10e88:	000107b7          	lui	a5,0x10
   10e8c:	fff78793          	addi	a5,a5,-1 # ffff <main-0x75>
   10e90:	00f877b3          	and	a5,a6,a5
   10e94:	0106d693          	srli	a3,a3,0x10
   10e98:	0289f733          	remu	a4,s3,s0
   10e9c:	00030593          	mv	a1,t1
   10ea0:	026788b3          	mul	a7,a5,t1
   10ea4:	01071713          	slli	a4,a4,0x10
   10ea8:	00e6e733          	or	a4,a3,a4
   10eac:	01177e63          	bgeu	a4,a7,10ec8 <__divsf3+0x198>
   10eb0:	01070733          	add	a4,a4,a6
   10eb4:	fff30593          	addi	a1,t1,-1
   10eb8:	01076863          	bltu	a4,a6,10ec8 <__divsf3+0x198>
   10ebc:	01177663          	bgeu	a4,a7,10ec8 <__divsf3+0x198>
   10ec0:	ffe30593          	addi	a1,t1,-2
   10ec4:	01070733          	add	a4,a4,a6
   10ec8:	41170733          	sub	a4,a4,a7
   10ecc:	028758b3          	divu	a7,a4,s0
   10ed0:	02877733          	remu	a4,a4,s0
   10ed4:	031786b3          	mul	a3,a5,a7
   10ed8:	01071793          	slli	a5,a4,0x10
   10edc:	00088713          	mv	a4,a7
   10ee0:	00d7fe63          	bgeu	a5,a3,10efc <__divsf3+0x1cc>
   10ee4:	010787b3          	add	a5,a5,a6
   10ee8:	fff88713          	addi	a4,a7,-1
   10eec:	0107e863          	bltu	a5,a6,10efc <__divsf3+0x1cc>
   10ef0:	00d7f663          	bgeu	a5,a3,10efc <__divsf3+0x1cc>
   10ef4:	ffe88713          	addi	a4,a7,-2
   10ef8:	010787b3          	add	a5,a5,a6
   10efc:	01059413          	slli	s0,a1,0x10
   10f00:	40d787b3          	sub	a5,a5,a3
   10f04:	00e46433          	or	s0,s0,a4
   10f08:	00f037b3          	snez	a5,a5
   10f0c:	00f46433          	or	s0,s0,a5
   10f10:	07f50713          	addi	a4,a0,127
   10f14:	0ce05e63          	blez	a4,10ff0 <__divsf3+0x2c0>
   10f18:	00747793          	andi	a5,s0,7
   10f1c:	00078a63          	beqz	a5,10f30 <__divsf3+0x200>
   10f20:	00f47793          	andi	a5,s0,15
   10f24:	00400693          	li	a3,4
   10f28:	00d78463          	beq	a5,a3,10f30 <__divsf3+0x200>
   10f2c:	00440413          	addi	s0,s0,4
   10f30:	080007b7          	lui	a5,0x8000
   10f34:	00f477b3          	and	a5,s0,a5
   10f38:	00078a63          	beqz	a5,10f4c <__divsf3+0x21c>
   10f3c:	f80007b7          	lui	a5,0xf8000
   10f40:	fff78793          	addi	a5,a5,-1 # f7ffffff <__BSS_END__+0xf7fea247>
   10f44:	00f47433          	and	s0,s0,a5
   10f48:	08050713          	addi	a4,a0,128
   10f4c:	0fe00793          	li	a5,254
   10f50:	00345413          	srli	s0,s0,0x3
   10f54:	06e7cc63          	blt	a5,a4,10fcc <__divsf3+0x29c>
   10f58:	01771793          	slli	a5,a4,0x17
   10f5c:	00941413          	slli	s0,s0,0x9
   10f60:	7f800737          	lui	a4,0x7f800
   10f64:	00e7f7b3          	and	a5,a5,a4
   10f68:	00945413          	srli	s0,s0,0x9
   10f6c:	0087e433          	or	s0,a5,s0
   10f70:	01f61513          	slli	a0,a2,0x1f
   10f74:	01c12083          	lw	ra,28(sp)
   10f78:	00a46533          	or	a0,s0,a0
   10f7c:	01812403          	lw	s0,24(sp)
   10f80:	01412483          	lw	s1,20(sp)
   10f84:	01012903          	lw	s2,16(sp)
   10f88:	00c12983          	lw	s3,12(sp)
   10f8c:	00812a03          	lw	s4,8(sp)
   10f90:	00412a83          	lw	s5,4(sp)
   10f94:	02010113          	addi	sp,sp,32
   10f98:	00008067          	ret
   10f9c:	01f99693          	slli	a3,s3,0x1f
   10fa0:	0019d993          	srli	s3,s3,0x1
   10fa4:	eddff06f          	j	10e80 <__divsf3+0x150>
   10fa8:	00090613          	mv	a2,s2
   10fac:	00098413          	mv	s0,s3
   10fb0:	000a8793          	mv	a5,s5
   10fb4:	00300713          	li	a4,3
   10fb8:	08e78863          	beq	a5,a4,11048 <__divsf3+0x318>
   10fbc:	00100713          	li	a4,1
   10fc0:	08e78c63          	beq	a5,a4,11058 <__divsf3+0x328>
   10fc4:	00200713          	li	a4,2
   10fc8:	f4e794e3          	bne	a5,a4,10f10 <__divsf3+0x1e0>
   10fcc:	00000413          	li	s0,0
   10fd0:	0ff00713          	li	a4,255
   10fd4:	f85ff06f          	j	10f58 <__divsf3+0x228>
   10fd8:	000a0613          	mv	a2,s4
   10fdc:	fd9ff06f          	j	10fb4 <__divsf3+0x284>
   10fe0:	00400437          	lui	s0,0x400
   10fe4:	00000613          	li	a2,0
   10fe8:	00300793          	li	a5,3
   10fec:	fc9ff06f          	j	10fb4 <__divsf3+0x284>
   10ff0:	00100793          	li	a5,1
   10ff4:	40e787b3          	sub	a5,a5,a4
   10ff8:	01b00713          	li	a4,27
   10ffc:	04f74e63          	blt	a4,a5,11058 <__divsf3+0x328>
   11000:	09e50513          	addi	a0,a0,158
   11004:	00f457b3          	srl	a5,s0,a5
   11008:	00a41433          	sll	s0,s0,a0
   1100c:	00803433          	snez	s0,s0
   11010:	0087e433          	or	s0,a5,s0
   11014:	00747793          	andi	a5,s0,7
   11018:	00078a63          	beqz	a5,1102c <__divsf3+0x2fc>
   1101c:	00f47793          	andi	a5,s0,15
   11020:	00400713          	li	a4,4
   11024:	00e78463          	beq	a5,a4,1102c <__divsf3+0x2fc>
   11028:	00440413          	addi	s0,s0,4 # 400004 <__BSS_END__+0x3ea24c>
   1102c:	040007b7          	lui	a5,0x4000
   11030:	00f477b3          	and	a5,s0,a5
   11034:	00345413          	srli	s0,s0,0x3
   11038:	02078263          	beqz	a5,1105c <__divsf3+0x32c>
   1103c:	00000413          	li	s0,0
   11040:	00100713          	li	a4,1
   11044:	f15ff06f          	j	10f58 <__divsf3+0x228>
   11048:	00400437          	lui	s0,0x400
   1104c:	0ff00713          	li	a4,255
   11050:	00000613          	li	a2,0
   11054:	f05ff06f          	j	10f58 <__divsf3+0x228>
   11058:	00000413          	li	s0,0
   1105c:	00000713          	li	a4,0
   11060:	ef9ff06f          	j	10f58 <__divsf3+0x228>

00011064 <__gesf2>:
   11064:	01755693          	srli	a3,a0,0x17
   11068:	008007b7          	lui	a5,0x800
   1106c:	fff78793          	addi	a5,a5,-1 # 7fffff <__BSS_END__+0x7ea247>
   11070:	0175d713          	srli	a4,a1,0x17
   11074:	0ff6f693          	andi	a3,a3,255
   11078:	0ff00813          	li	a6,255
   1107c:	00a7f633          	and	a2,a5,a0
   11080:	0ff77713          	andi	a4,a4,255
   11084:	00b7f7b3          	and	a5,a5,a1
   11088:	01f55513          	srli	a0,a0,0x1f
   1108c:	01f5d593          	srli	a1,a1,0x1f
   11090:	01069863          	bne	a3,a6,110a0 <__gesf2+0x3c>
   11094:	06060a63          	beqz	a2,11108 <__gesf2+0xa4>
   11098:	ffe00513          	li	a0,-2
   1109c:	00008067          	ret
   110a0:	01071463          	bne	a4,a6,110a8 <__gesf2+0x44>
   110a4:	fe079ae3          	bnez	a5,11098 <__gesf2+0x34>
   110a8:	06069263          	bnez	a3,1110c <__gesf2+0xa8>
   110ac:	00071463          	bnez	a4,110b4 <__gesf2+0x50>
   110b0:	04078863          	beqz	a5,11100 <__gesf2+0x9c>
   110b4:	00060c63          	beqz	a2,110cc <__gesf2+0x68>
   110b8:	00b51463          	bne	a0,a1,110c0 <__gesf2+0x5c>
   110bc:	02d75063          	bge	a4,a3,110dc <__gesf2+0x78>
   110c0:	02050c63          	beqz	a0,110f8 <__gesf2+0x94>
   110c4:	fff00513          	li	a0,-1
   110c8:	00008067          	ret
   110cc:	fff00513          	li	a0,-1
   110d0:	00058a63          	beqz	a1,110e4 <__gesf2+0x80>
   110d4:	00058513          	mv	a0,a1
   110d8:	00008067          	ret
   110dc:	00e6d663          	bge	a3,a4,110e8 <__gesf2+0x84>
   110e0:	fe0502e3          	beqz	a0,110c4 <__gesf2+0x60>
   110e4:	00008067          	ret
   110e8:	fcc7ece3          	bltu	a5,a2,110c0 <__gesf2+0x5c>
   110ec:	fef66ae3          	bltu	a2,a5,110e0 <__gesf2+0x7c>
   110f0:	00000513          	li	a0,0
   110f4:	00008067          	ret
   110f8:	00100513          	li	a0,1
   110fc:	00008067          	ret
   11100:	fe0608e3          	beqz	a2,110f0 <__gesf2+0x8c>
   11104:	fbdff06f          	j	110c0 <__gesf2+0x5c>
   11108:	f8d70ee3          	beq	a4,a3,110a4 <__gesf2+0x40>
   1110c:	fa0716e3          	bnez	a4,110b8 <__gesf2+0x54>
   11110:	fa0788e3          	beqz	a5,110c0 <__gesf2+0x5c>
   11114:	fa5ff06f          	j	110b8 <__gesf2+0x54>

00011118 <__mulsf3>:
   11118:	fe010113          	addi	sp,sp,-32
   1111c:	01212823          	sw	s2,16(sp)
   11120:	01755913          	srli	s2,a0,0x17
   11124:	00912a23          	sw	s1,20(sp)
   11128:	01312623          	sw	s3,12(sp)
   1112c:	01412423          	sw	s4,8(sp)
   11130:	00951493          	slli	s1,a0,0x9
   11134:	00112e23          	sw	ra,28(sp)
   11138:	00812c23          	sw	s0,24(sp)
   1113c:	01512223          	sw	s5,4(sp)
   11140:	0ff97913          	andi	s2,s2,255
   11144:	00058a13          	mv	s4,a1
   11148:	0094d493          	srli	s1,s1,0x9
   1114c:	01f55993          	srli	s3,a0,0x1f
   11150:	08090663          	beqz	s2,111dc <__mulsf3+0xc4>
   11154:	0ff00793          	li	a5,255
   11158:	0af90263          	beq	s2,a5,111fc <__mulsf3+0xe4>
   1115c:	00349493          	slli	s1,s1,0x3
   11160:	040007b7          	lui	a5,0x4000
   11164:	00f4e4b3          	or	s1,s1,a5
   11168:	f8190913          	addi	s2,s2,-127
   1116c:	00000a93          	li	s5,0
   11170:	017a5513          	srli	a0,s4,0x17
   11174:	009a1413          	slli	s0,s4,0x9
   11178:	0ff57513          	andi	a0,a0,255
   1117c:	00945413          	srli	s0,s0,0x9
   11180:	01fa5a13          	srli	s4,s4,0x1f
   11184:	08050c63          	beqz	a0,1121c <__mulsf3+0x104>
   11188:	0ff00793          	li	a5,255
   1118c:	0af50863          	beq	a0,a5,1123c <__mulsf3+0x124>
   11190:	00341413          	slli	s0,s0,0x3
   11194:	040007b7          	lui	a5,0x4000
   11198:	00f46433          	or	s0,s0,a5
   1119c:	f8150513          	addi	a0,a0,-127
   111a0:	00000793          	li	a5,0
   111a4:	002a9713          	slli	a4,s5,0x2
   111a8:	00f76733          	or	a4,a4,a5
   111ac:	00a90533          	add	a0,s2,a0
   111b0:	fff70713          	addi	a4,a4,-1 # 7f7fffff <__BSS_END__+0x7f7ea247>
   111b4:	00e00593          	li	a1,14
   111b8:	0149c6b3          	xor	a3,s3,s4
   111bc:	00150613          	addi	a2,a0,1
   111c0:	08e5ee63          	bltu	a1,a4,1125c <__mulsf3+0x144>
   111c4:	000135b7          	lui	a1,0x13
   111c8:	00271713          	slli	a4,a4,0x2
   111cc:	6b858593          	addi	a1,a1,1720 # 136b8 <_ZL4font+0x183c>
   111d0:	00b70733          	add	a4,a4,a1
   111d4:	00072703          	lw	a4,0(a4)
   111d8:	00070067          	jr	a4
   111dc:	02048a63          	beqz	s1,11210 <__mulsf3+0xf8>
   111e0:	00048513          	mv	a0,s1
   111e4:	01d000ef          	jal	ra,11a00 <__clzsi2>
   111e8:	ffb50793          	addi	a5,a0,-5
   111ec:	f8a00913          	li	s2,-118
   111f0:	00f494b3          	sll	s1,s1,a5
   111f4:	40a90933          	sub	s2,s2,a0
   111f8:	f75ff06f          	j	1116c <__mulsf3+0x54>
   111fc:	0ff00913          	li	s2,255
   11200:	00200a93          	li	s5,2
   11204:	f60486e3          	beqz	s1,11170 <__mulsf3+0x58>
   11208:	00300a93          	li	s5,3
   1120c:	f65ff06f          	j	11170 <__mulsf3+0x58>
   11210:	00000913          	li	s2,0
   11214:	00100a93          	li	s5,1
   11218:	f59ff06f          	j	11170 <__mulsf3+0x58>
   1121c:	02040a63          	beqz	s0,11250 <__mulsf3+0x138>
   11220:	00040513          	mv	a0,s0
   11224:	7dc000ef          	jal	ra,11a00 <__clzsi2>
   11228:	ffb50793          	addi	a5,a0,-5
   1122c:	00f41433          	sll	s0,s0,a5
   11230:	f8a00793          	li	a5,-118
   11234:	40a78533          	sub	a0,a5,a0
   11238:	f69ff06f          	j	111a0 <__mulsf3+0x88>
   1123c:	0ff00513          	li	a0,255
   11240:	00200793          	li	a5,2
   11244:	f60400e3          	beqz	s0,111a4 <__mulsf3+0x8c>
   11248:	00300793          	li	a5,3
   1124c:	f59ff06f          	j	111a4 <__mulsf3+0x8c>
   11250:	00000513          	li	a0,0
   11254:	00100793          	li	a5,1
   11258:	f4dff06f          	j	111a4 <__mulsf3+0x8c>
   1125c:	000107b7          	lui	a5,0x10
   11260:	fff78313          	addi	t1,a5,-1 # ffff <main-0x75>
   11264:	0104d713          	srli	a4,s1,0x10
   11268:	01045593          	srli	a1,s0,0x10
   1126c:	0064f4b3          	and	s1,s1,t1
   11270:	00647433          	and	s0,s0,t1
   11274:	029408b3          	mul	a7,s0,s1
   11278:	02870833          	mul	a6,a4,s0
   1127c:	02b70433          	mul	s0,a4,a1
   11280:	029585b3          	mul	a1,a1,s1
   11284:	0108d493          	srli	s1,a7,0x10
   11288:	010585b3          	add	a1,a1,a6
   1128c:	00b484b3          	add	s1,s1,a1
   11290:	0104f463          	bgeu	s1,a6,11298 <__mulsf3+0x180>
   11294:	00f40433          	add	s0,s0,a5
   11298:	0064f7b3          	and	a5,s1,t1
   1129c:	01079793          	slli	a5,a5,0x10
   112a0:	0068f8b3          	and	a7,a7,t1
   112a4:	011787b3          	add	a5,a5,a7
   112a8:	00679713          	slli	a4,a5,0x6
   112ac:	0104d493          	srli	s1,s1,0x10
   112b0:	00e03733          	snez	a4,a4
   112b4:	01a7d793          	srli	a5,a5,0x1a
   112b8:	00848433          	add	s0,s1,s0
   112bc:	00f767b3          	or	a5,a4,a5
   112c0:	00641413          	slli	s0,s0,0x6
   112c4:	00f46433          	or	s0,s0,a5
   112c8:	080007b7          	lui	a5,0x8000
   112cc:	00f477b3          	and	a5,s0,a5
   112d0:	08078e63          	beqz	a5,1136c <__mulsf3+0x254>
   112d4:	00145793          	srli	a5,s0,0x1
   112d8:	00147413          	andi	s0,s0,1
   112dc:	0087e433          	or	s0,a5,s0
   112e0:	07f60713          	addi	a4,a2,127 # 400007f <__BSS_END__+0x3fea2c7>
   112e4:	08e05863          	blez	a4,11374 <__mulsf3+0x25c>
   112e8:	00747793          	andi	a5,s0,7
   112ec:	00078a63          	beqz	a5,11300 <__mulsf3+0x1e8>
   112f0:	00f47793          	andi	a5,s0,15
   112f4:	00400593          	li	a1,4
   112f8:	00b78463          	beq	a5,a1,11300 <__mulsf3+0x1e8>
   112fc:	00440413          	addi	s0,s0,4 # 400004 <__BSS_END__+0x3ea24c>
   11300:	080007b7          	lui	a5,0x8000
   11304:	00f477b3          	and	a5,s0,a5
   11308:	00078a63          	beqz	a5,1131c <__mulsf3+0x204>
   1130c:	f80007b7          	lui	a5,0xf8000
   11310:	fff78793          	addi	a5,a5,-1 # f7ffffff <__BSS_END__+0xf7fea247>
   11314:	00f47433          	and	s0,s0,a5
   11318:	08060713          	addi	a4,a2,128
   1131c:	0fe00793          	li	a5,254
   11320:	00345413          	srli	s0,s0,0x3
   11324:	0ae7da63          	bge	a5,a4,113d8 <__mulsf3+0x2c0>
   11328:	00000413          	li	s0,0
   1132c:	0ff00713          	li	a4,255
   11330:	0a80006f          	j	113d8 <__mulsf3+0x2c0>
   11334:	00098693          	mv	a3,s3
   11338:	00048413          	mv	s0,s1
   1133c:	000a8793          	mv	a5,s5
   11340:	00200713          	li	a4,2
   11344:	fee782e3          	beq	a5,a4,11328 <__mulsf3+0x210>
   11348:	00300713          	li	a4,3
   1134c:	08e78063          	beq	a5,a4,113cc <__mulsf3+0x2b4>
   11350:	00100713          	li	a4,1
   11354:	f8e796e3          	bne	a5,a4,112e0 <__mulsf3+0x1c8>
   11358:	00000413          	li	s0,0
   1135c:	00000713          	li	a4,0
   11360:	0780006f          	j	113d8 <__mulsf3+0x2c0>
   11364:	000a0693          	mv	a3,s4
   11368:	fd9ff06f          	j	11340 <__mulsf3+0x228>
   1136c:	00050613          	mv	a2,a0
   11370:	f71ff06f          	j	112e0 <__mulsf3+0x1c8>
   11374:	00100793          	li	a5,1
   11378:	40e787b3          	sub	a5,a5,a4
   1137c:	01b00713          	li	a4,27
   11380:	fcf74ce3          	blt	a4,a5,11358 <__mulsf3+0x240>
   11384:	09e60613          	addi	a2,a2,158
   11388:	00f457b3          	srl	a5,s0,a5
   1138c:	00c41433          	sll	s0,s0,a2
   11390:	00803433          	snez	s0,s0
   11394:	0087e433          	or	s0,a5,s0
   11398:	00747793          	andi	a5,s0,7
   1139c:	00078a63          	beqz	a5,113b0 <__mulsf3+0x298>
   113a0:	00f47793          	andi	a5,s0,15
   113a4:	00400713          	li	a4,4
   113a8:	00e78463          	beq	a5,a4,113b0 <__mulsf3+0x298>
   113ac:	00440413          	addi	s0,s0,4
   113b0:	040007b7          	lui	a5,0x4000
   113b4:	00f477b3          	and	a5,s0,a5
   113b8:	00345413          	srli	s0,s0,0x3
   113bc:	fa0780e3          	beqz	a5,1135c <__mulsf3+0x244>
   113c0:	00000413          	li	s0,0
   113c4:	00100713          	li	a4,1
   113c8:	0100006f          	j	113d8 <__mulsf3+0x2c0>
   113cc:	00400437          	lui	s0,0x400
   113d0:	0ff00713          	li	a4,255
   113d4:	00000693          	li	a3,0
   113d8:	01771793          	slli	a5,a4,0x17
   113dc:	00941413          	slli	s0,s0,0x9
   113e0:	7f800737          	lui	a4,0x7f800
   113e4:	00e7f7b3          	and	a5,a5,a4
   113e8:	00945413          	srli	s0,s0,0x9
   113ec:	0087e433          	or	s0,a5,s0
   113f0:	01f69513          	slli	a0,a3,0x1f
   113f4:	01c12083          	lw	ra,28(sp)
   113f8:	00a46533          	or	a0,s0,a0
   113fc:	01812403          	lw	s0,24(sp)
   11400:	01412483          	lw	s1,20(sp)
   11404:	01012903          	lw	s2,16(sp)
   11408:	00c12983          	lw	s3,12(sp)
   1140c:	00812a03          	lw	s4,8(sp)
   11410:	00412a83          	lw	s5,4(sp)
   11414:	02010113          	addi	sp,sp,32
   11418:	00008067          	ret

0001141c <__subsf3>:
   1141c:	00800737          	lui	a4,0x800
   11420:	ff010113          	addi	sp,sp,-16
   11424:	fff70713          	addi	a4,a4,-1 # 7fffff <__BSS_END__+0x7ea247>
   11428:	0175d613          	srli	a2,a1,0x17
   1142c:	00a777b3          	and	a5,a4,a0
   11430:	00812423          	sw	s0,8(sp)
   11434:	00b77733          	and	a4,a4,a1
   11438:	00912223          	sw	s1,4(sp)
   1143c:	01755413          	srli	s0,a0,0x17
   11440:	00112623          	sw	ra,12(sp)
   11444:	01212023          	sw	s2,0(sp)
   11448:	0ff67613          	andi	a2,a2,255
   1144c:	0ff00693          	li	a3,255
   11450:	0ff47413          	andi	s0,s0,255
   11454:	01f55493          	srli	s1,a0,0x1f
   11458:	00379793          	slli	a5,a5,0x3
   1145c:	01f5d593          	srli	a1,a1,0x1f
   11460:	00371713          	slli	a4,a4,0x3
   11464:	00d61463          	bne	a2,a3,1146c <__subsf3+0x50>
   11468:	00071463          	bnez	a4,11470 <__subsf3+0x54>
   1146c:	0015c593          	xori	a1,a1,1
   11470:	40c406b3          	sub	a3,s0,a2
   11474:	18959a63          	bne	a1,s1,11608 <__subsf3+0x1ec>
   11478:	0ad05063          	blez	a3,11518 <__subsf3+0xfc>
   1147c:	02061663          	bnez	a2,114a8 <__subsf3+0x8c>
   11480:	18070063          	beqz	a4,11600 <__subsf3+0x1e4>
   11484:	fff68613          	addi	a2,a3,-1
   11488:	00061863          	bnez	a2,11498 <__subsf3+0x7c>
   1148c:	00e787b3          	add	a5,a5,a4
   11490:	00100413          	li	s0,1
   11494:	0500006f          	j	114e4 <__subsf3+0xc8>
   11498:	0ff00593          	li	a1,255
   1149c:	02b69063          	bne	a3,a1,114bc <__subsf3+0xa0>
   114a0:	0ff00413          	li	s0,255
   114a4:	1180006f          	j	115bc <__subsf3+0x1a0>
   114a8:	0ff00613          	li	a2,255
   114ac:	10c40863          	beq	s0,a2,115bc <__subsf3+0x1a0>
   114b0:	04000637          	lui	a2,0x4000
   114b4:	00c76733          	or	a4,a4,a2
   114b8:	00068613          	mv	a2,a3
   114bc:	01b00593          	li	a1,27
   114c0:	00100693          	li	a3,1
   114c4:	00c5ce63          	blt	a1,a2,114e0 <__subsf3+0xc4>
   114c8:	02000693          	li	a3,32
   114cc:	40c686b3          	sub	a3,a3,a2
   114d0:	00c755b3          	srl	a1,a4,a2
   114d4:	00d71733          	sll	a4,a4,a3
   114d8:	00e03733          	snez	a4,a4
   114dc:	00e5e6b3          	or	a3,a1,a4
   114e0:	00d787b3          	add	a5,a5,a3
   114e4:	04000737          	lui	a4,0x4000
   114e8:	00e7f733          	and	a4,a5,a4
   114ec:	0c070863          	beqz	a4,115bc <__subsf3+0x1a0>
   114f0:	00140413          	addi	s0,s0,1 # 400001 <__BSS_END__+0x3ea249>
   114f4:	0ff00713          	li	a4,255
   114f8:	30e40263          	beq	s0,a4,117fc <__subsf3+0x3e0>
   114fc:	7e000737          	lui	a4,0x7e000
   11500:	0017f693          	andi	a3,a5,1
   11504:	fff70713          	addi	a4,a4,-1 # 7dffffff <__BSS_END__+0x7dfea247>
   11508:	0017d793          	srli	a5,a5,0x1
   1150c:	00e7f7b3          	and	a5,a5,a4
   11510:	00d7e7b3          	or	a5,a5,a3
   11514:	0a80006f          	j	115bc <__subsf3+0x1a0>
   11518:	06068663          	beqz	a3,11584 <__subsf3+0x168>
   1151c:	408606b3          	sub	a3,a2,s0
   11520:	02041063          	bnez	s0,11540 <__subsf3+0x124>
   11524:	2c078263          	beqz	a5,117e8 <__subsf3+0x3cc>
   11528:	fff68593          	addi	a1,a3,-1
   1152c:	f60580e3          	beqz	a1,1148c <__subsf3+0x70>
   11530:	0ff00513          	li	a0,255
   11534:	02a69063          	bne	a3,a0,11554 <__subsf3+0x138>
   11538:	00070793          	mv	a5,a4
   1153c:	f65ff06f          	j	114a0 <__subsf3+0x84>
   11540:	0ff00593          	li	a1,255
   11544:	feb60ae3          	beq	a2,a1,11538 <__subsf3+0x11c>
   11548:	040005b7          	lui	a1,0x4000
   1154c:	00b7e7b3          	or	a5,a5,a1
   11550:	00068593          	mv	a1,a3
   11554:	01b00513          	li	a0,27
   11558:	00100693          	li	a3,1
   1155c:	00b54e63          	blt	a0,a1,11578 <__subsf3+0x15c>
   11560:	02000693          	li	a3,32
   11564:	40b686b3          	sub	a3,a3,a1
   11568:	00b7d533          	srl	a0,a5,a1
   1156c:	00d797b3          	sll	a5,a5,a3
   11570:	00f037b3          	snez	a5,a5
   11574:	00f566b3          	or	a3,a0,a5
   11578:	00e687b3          	add	a5,a3,a4
   1157c:	00060413          	mv	s0,a2
   11580:	f65ff06f          	j	114e4 <__subsf3+0xc8>
   11584:	00140693          	addi	a3,s0,1
   11588:	0fe6f613          	andi	a2,a3,254
   1158c:	06061263          	bnez	a2,115f0 <__subsf3+0x1d4>
   11590:	04041463          	bnez	s0,115d8 <__subsf3+0x1bc>
   11594:	24078e63          	beqz	a5,117f0 <__subsf3+0x3d4>
   11598:	02070263          	beqz	a4,115bc <__subsf3+0x1a0>
   1159c:	00e787b3          	add	a5,a5,a4
   115a0:	04000737          	lui	a4,0x4000
   115a4:	00e7f733          	and	a4,a5,a4
   115a8:	00070a63          	beqz	a4,115bc <__subsf3+0x1a0>
   115ac:	fc000737          	lui	a4,0xfc000
   115b0:	fff70713          	addi	a4,a4,-1 # fbffffff <__BSS_END__+0xfbfea247>
   115b4:	00e7f7b3          	and	a5,a5,a4
   115b8:	00100413          	li	s0,1
   115bc:	0077f713          	andi	a4,a5,7
   115c0:	24070063          	beqz	a4,11800 <__subsf3+0x3e4>
   115c4:	00f7f713          	andi	a4,a5,15
   115c8:	00400693          	li	a3,4
   115cc:	22d70a63          	beq	a4,a3,11800 <__subsf3+0x3e4>
   115d0:	00478793          	addi	a5,a5,4 # 4000004 <__BSS_END__+0x3fea24c>
   115d4:	22c0006f          	j	11800 <__subsf3+0x3e4>
   115d8:	f60780e3          	beqz	a5,11538 <__subsf3+0x11c>
   115dc:	ec0702e3          	beqz	a4,114a0 <__subsf3+0x84>
   115e0:	00000493          	li	s1,0
   115e4:	020007b7          	lui	a5,0x2000
   115e8:	0ff00413          	li	s0,255
   115ec:	2140006f          	j	11800 <__subsf3+0x3e4>
   115f0:	0ff00613          	li	a2,255
   115f4:	20c68263          	beq	a3,a2,117f8 <__subsf3+0x3dc>
   115f8:	00e787b3          	add	a5,a5,a4
   115fc:	0017d793          	srli	a5,a5,0x1
   11600:	00068413          	mv	s0,a3
   11604:	fb9ff06f          	j	115bc <__subsf3+0x1a0>
   11608:	08d05063          	blez	a3,11688 <__subsf3+0x26c>
   1160c:	06061263          	bnez	a2,11670 <__subsf3+0x254>
   11610:	fe0708e3          	beqz	a4,11600 <__subsf3+0x1e4>
   11614:	fff68613          	addi	a2,a3,-1
   11618:	00061863          	bnez	a2,11628 <__subsf3+0x20c>
   1161c:	40e787b3          	sub	a5,a5,a4
   11620:	00100413          	li	s0,1
   11624:	0340006f          	j	11658 <__subsf3+0x23c>
   11628:	0ff00593          	li	a1,255
   1162c:	e6b68ae3          	beq	a3,a1,114a0 <__subsf3+0x84>
   11630:	01b00593          	li	a1,27
   11634:	00100693          	li	a3,1
   11638:	00c5ce63          	blt	a1,a2,11654 <__subsf3+0x238>
   1163c:	02000693          	li	a3,32
   11640:	40c686b3          	sub	a3,a3,a2
   11644:	00c755b3          	srl	a1,a4,a2
   11648:	00d71733          	sll	a4,a4,a3
   1164c:	00e03733          	snez	a4,a4
   11650:	00e5e6b3          	or	a3,a1,a4
   11654:	40d787b3          	sub	a5,a5,a3
   11658:	04000937          	lui	s2,0x4000
   1165c:	0127f733          	and	a4,a5,s2
   11660:	f4070ee3          	beqz	a4,115bc <__subsf3+0x1a0>
   11664:	fff90913          	addi	s2,s2,-1 # 3ffffff <__BSS_END__+0x3fea247>
   11668:	0127f933          	and	s2,a5,s2
   1166c:	1180006f          	j	11784 <__subsf3+0x368>
   11670:	0ff00613          	li	a2,255
   11674:	f4c404e3          	beq	s0,a2,115bc <__subsf3+0x1a0>
   11678:	04000637          	lui	a2,0x4000
   1167c:	00c76733          	or	a4,a4,a2
   11680:	00068613          	mv	a2,a3
   11684:	fadff06f          	j	11630 <__subsf3+0x214>
   11688:	08068063          	beqz	a3,11708 <__subsf3+0x2ec>
   1168c:	408606b3          	sub	a3,a2,s0
   11690:	02041863          	bnez	s0,116c0 <__subsf3+0x2a4>
   11694:	1e078063          	beqz	a5,11874 <__subsf3+0x458>
   11698:	fff68513          	addi	a0,a3,-1
   1169c:	00051863          	bnez	a0,116ac <__subsf3+0x290>
   116a0:	40f707b3          	sub	a5,a4,a5
   116a4:	00058493          	mv	s1,a1
   116a8:	f79ff06f          	j	11620 <__subsf3+0x204>
   116ac:	0ff00813          	li	a6,255
   116b0:	03069263          	bne	a3,a6,116d4 <__subsf3+0x2b8>
   116b4:	00070793          	mv	a5,a4
   116b8:	0ff00413          	li	s0,255
   116bc:	06c0006f          	j	11728 <__subsf3+0x30c>
   116c0:	0ff00513          	li	a0,255
   116c4:	fea608e3          	beq	a2,a0,116b4 <__subsf3+0x298>
   116c8:	04000537          	lui	a0,0x4000
   116cc:	00a7e7b3          	or	a5,a5,a0
   116d0:	00068513          	mv	a0,a3
   116d4:	01b00813          	li	a6,27
   116d8:	00100693          	li	a3,1
   116dc:	00a84e63          	blt	a6,a0,116f8 <__subsf3+0x2dc>
   116e0:	02000693          	li	a3,32
   116e4:	40a686b3          	sub	a3,a3,a0
   116e8:	00a7d833          	srl	a6,a5,a0
   116ec:	00d797b3          	sll	a5,a5,a3
   116f0:	00f037b3          	snez	a5,a5
   116f4:	00f866b3          	or	a3,a6,a5
   116f8:	40d707b3          	sub	a5,a4,a3
   116fc:	00060413          	mv	s0,a2
   11700:	00058493          	mv	s1,a1
   11704:	f55ff06f          	j	11658 <__subsf3+0x23c>
   11708:	00140693          	addi	a3,s0,1
   1170c:	0fe6f693          	andi	a3,a3,254
   11710:	04069e63          	bnez	a3,1176c <__subsf3+0x350>
   11714:	04041263          	bnez	s0,11758 <__subsf3+0x33c>
   11718:	00079c63          	bnez	a5,11730 <__subsf3+0x314>
   1171c:	00000493          	li	s1,0
   11720:	0e070063          	beqz	a4,11800 <__subsf3+0x3e4>
   11724:	00070793          	mv	a5,a4
   11728:	00058493          	mv	s1,a1
   1172c:	e91ff06f          	j	115bc <__subsf3+0x1a0>
   11730:	e80706e3          	beqz	a4,115bc <__subsf3+0x1a0>
   11734:	40e786b3          	sub	a3,a5,a4
   11738:	04000637          	lui	a2,0x4000
   1173c:	00c6f633          	and	a2,a3,a2
   11740:	40f707b3          	sub	a5,a4,a5
   11744:	fe0612e3          	bnez	a2,11728 <__subsf3+0x30c>
   11748:	00000793          	li	a5,0
   1174c:	08068063          	beqz	a3,117cc <__subsf3+0x3b0>
   11750:	00068793          	mv	a5,a3
   11754:	e69ff06f          	j	115bc <__subsf3+0x1a0>
   11758:	e80792e3          	bnez	a5,115dc <__subsf3+0x1c0>
   1175c:	e80702e3          	beqz	a4,115e0 <__subsf3+0x1c4>
   11760:	00070793          	mv	a5,a4
   11764:	00058493          	mv	s1,a1
   11768:	d39ff06f          	j	114a0 <__subsf3+0x84>
   1176c:	40e78933          	sub	s2,a5,a4
   11770:	040006b7          	lui	a3,0x4000
   11774:	00d976b3          	and	a3,s2,a3
   11778:	04068463          	beqz	a3,117c0 <__subsf3+0x3a4>
   1177c:	40f70933          	sub	s2,a4,a5
   11780:	00058493          	mv	s1,a1
   11784:	00090513          	mv	a0,s2
   11788:	278000ef          	jal	ra,11a00 <__clzsi2>
   1178c:	ffb50513          	addi	a0,a0,-5 # 3fffffb <__BSS_END__+0x3fea243>
   11790:	00a91933          	sll	s2,s2,a0
   11794:	04854063          	blt	a0,s0,117d4 <__subsf3+0x3b8>
   11798:	40850533          	sub	a0,a0,s0
   1179c:	00150513          	addi	a0,a0,1
   117a0:	02000413          	li	s0,32
   117a4:	00a957b3          	srl	a5,s2,a0
   117a8:	40a40533          	sub	a0,s0,a0
   117ac:	00a91933          	sll	s2,s2,a0
   117b0:	01203933          	snez	s2,s2
   117b4:	0127e7b3          	or	a5,a5,s2
   117b8:	00000413          	li	s0,0
   117bc:	e01ff06f          	j	115bc <__subsf3+0x1a0>
   117c0:	fc0912e3          	bnez	s2,11784 <__subsf3+0x368>
   117c4:	00000793          	li	a5,0
   117c8:	00000413          	li	s0,0
   117cc:	00000493          	li	s1,0
   117d0:	0300006f          	j	11800 <__subsf3+0x3e4>
   117d4:	fc0007b7          	lui	a5,0xfc000
   117d8:	fff78793          	addi	a5,a5,-1 # fbffffff <__BSS_END__+0xfbfea247>
   117dc:	40a40433          	sub	s0,s0,a0
   117e0:	00f977b3          	and	a5,s2,a5
   117e4:	dd9ff06f          	j	115bc <__subsf3+0x1a0>
   117e8:	00070793          	mv	a5,a4
   117ec:	e15ff06f          	j	11600 <__subsf3+0x1e4>
   117f0:	00070793          	mv	a5,a4
   117f4:	dc9ff06f          	j	115bc <__subsf3+0x1a0>
   117f8:	0ff00413          	li	s0,255
   117fc:	00000793          	li	a5,0
   11800:	04000737          	lui	a4,0x4000
   11804:	00e7f733          	and	a4,a5,a4
   11808:	00070e63          	beqz	a4,11824 <__subsf3+0x408>
   1180c:	00140413          	addi	s0,s0,1
   11810:	0ff00713          	li	a4,255
   11814:	06e40663          	beq	s0,a4,11880 <__subsf3+0x464>
   11818:	fc000737          	lui	a4,0xfc000
   1181c:	fff70713          	addi	a4,a4,-1 # fbffffff <__BSS_END__+0xfbfea247>
   11820:	00e7f7b3          	and	a5,a5,a4
   11824:	0ff00713          	li	a4,255
   11828:	0037d793          	srli	a5,a5,0x3
   1182c:	00e41863          	bne	s0,a4,1183c <__subsf3+0x420>
   11830:	00078663          	beqz	a5,1183c <__subsf3+0x420>
   11834:	004007b7          	lui	a5,0x400
   11838:	00000493          	li	s1,0
   1183c:	7f800537          	lui	a0,0x7f800
   11840:	01741413          	slli	s0,s0,0x17
   11844:	00979793          	slli	a5,a5,0x9
   11848:	00a47433          	and	s0,s0,a0
   1184c:	0097d793          	srli	a5,a5,0x9
   11850:	00c12083          	lw	ra,12(sp)
   11854:	00f467b3          	or	a5,s0,a5
   11858:	00812403          	lw	s0,8(sp)
   1185c:	01f49513          	slli	a0,s1,0x1f
   11860:	00012903          	lw	s2,0(sp)
   11864:	00412483          	lw	s1,4(sp)
   11868:	00a7e533          	or	a0,a5,a0
   1186c:	01010113          	addi	sp,sp,16
   11870:	00008067          	ret
   11874:	00070793          	mv	a5,a4
   11878:	00068413          	mv	s0,a3
   1187c:	eadff06f          	j	11728 <__subsf3+0x30c>
   11880:	00000793          	li	a5,0
   11884:	fa1ff06f          	j	11824 <__subsf3+0x408>

00011888 <__fixsfsi>:
   11888:	00800637          	lui	a2,0x800
   1188c:	01755713          	srli	a4,a0,0x17
   11890:	fff60793          	addi	a5,a2,-1 # 7fffff <__BSS_END__+0x7ea247>
   11894:	0ff77713          	andi	a4,a4,255
   11898:	07e00593          	li	a1,126
   1189c:	00a7f7b3          	and	a5,a5,a0
   118a0:	01f55693          	srli	a3,a0,0x1f
   118a4:	04e5d663          	bge	a1,a4,118f0 <__fixsfsi+0x68>
   118a8:	09d00593          	li	a1,157
   118ac:	00e5da63          	bge	a1,a4,118c0 <__fixsfsi+0x38>
   118b0:	80000537          	lui	a0,0x80000
   118b4:	fff54513          	not	a0,a0
   118b8:	00a68533          	add	a0,a3,a0
   118bc:	00008067          	ret
   118c0:	00c7e533          	or	a0,a5,a2
   118c4:	09500793          	li	a5,149
   118c8:	00e7dc63          	bge	a5,a4,118e0 <__fixsfsi+0x58>
   118cc:	f6a70713          	addi	a4,a4,-150
   118d0:	00e51533          	sll	a0,a0,a4
   118d4:	02068063          	beqz	a3,118f4 <__fixsfsi+0x6c>
   118d8:	40a00533          	neg	a0,a0
   118dc:	00008067          	ret
   118e0:	09600793          	li	a5,150
   118e4:	40e78733          	sub	a4,a5,a4
   118e8:	00e55533          	srl	a0,a0,a4
   118ec:	fe9ff06f          	j	118d4 <__fixsfsi+0x4c>
   118f0:	00000513          	li	a0,0
   118f4:	00008067          	ret

000118f8 <__floatsisf>:
   118f8:	ff010113          	addi	sp,sp,-16
   118fc:	00112623          	sw	ra,12(sp)
   11900:	00812423          	sw	s0,8(sp)
   11904:	00912223          	sw	s1,4(sp)
   11908:	0e050663          	beqz	a0,119f4 <__floatsisf+0xfc>
   1190c:	41f55793          	srai	a5,a0,0x1f
   11910:	00a7c433          	xor	s0,a5,a0
   11914:	40f40433          	sub	s0,s0,a5
   11918:	01f55493          	srli	s1,a0,0x1f
   1191c:	00040513          	mv	a0,s0
   11920:	0e0000ef          	jal	ra,11a00 <__clzsi2>
   11924:	09e00793          	li	a5,158
   11928:	00050713          	mv	a4,a0
   1192c:	40a78533          	sub	a0,a5,a0
   11930:	09600793          	li	a5,150
   11934:	04a7c063          	blt	a5,a0,11974 <__floatsisf+0x7c>
   11938:	00800793          	li	a5,8
   1193c:	00e7d663          	bge	a5,a4,11948 <__floatsisf+0x50>
   11940:	ff870713          	addi	a4,a4,-8
   11944:	00e41433          	sll	s0,s0,a4
   11948:	00941413          	slli	s0,s0,0x9
   1194c:	01751513          	slli	a0,a0,0x17
   11950:	00945413          	srli	s0,s0,0x9
   11954:	00856433          	or	s0,a0,s0
   11958:	01f49513          	slli	a0,s1,0x1f
   1195c:	00c12083          	lw	ra,12(sp)
   11960:	00a46533          	or	a0,s0,a0
   11964:	00812403          	lw	s0,8(sp)
   11968:	00412483          	lw	s1,4(sp)
   1196c:	01010113          	addi	sp,sp,16
   11970:	00008067          	ret
   11974:	09900793          	li	a5,153
   11978:	02a7d063          	bge	a5,a0,11998 <__floatsisf+0xa0>
   1197c:	00500793          	li	a5,5
   11980:	40e787b3          	sub	a5,a5,a4
   11984:	01b70693          	addi	a3,a4,27
   11988:	00f457b3          	srl	a5,s0,a5
   1198c:	00d41433          	sll	s0,s0,a3
   11990:	00803433          	snez	s0,s0
   11994:	0087e433          	or	s0,a5,s0
   11998:	00500793          	li	a5,5
   1199c:	00e7d663          	bge	a5,a4,119a8 <__floatsisf+0xb0>
   119a0:	ffb70793          	addi	a5,a4,-5
   119a4:	00f41433          	sll	s0,s0,a5
   119a8:	fc0006b7          	lui	a3,0xfc000
   119ac:	fff68693          	addi	a3,a3,-1 # fbffffff <__BSS_END__+0xfbfea247>
   119b0:	00747793          	andi	a5,s0,7
   119b4:	00d476b3          	and	a3,s0,a3
   119b8:	00078a63          	beqz	a5,119cc <__floatsisf+0xd4>
   119bc:	00f47413          	andi	s0,s0,15
   119c0:	00400793          	li	a5,4
   119c4:	00f40463          	beq	s0,a5,119cc <__floatsisf+0xd4>
   119c8:	00468693          	addi	a3,a3,4
   119cc:	040007b7          	lui	a5,0x4000
   119d0:	00f6f7b3          	and	a5,a3,a5
   119d4:	00078c63          	beqz	a5,119ec <__floatsisf+0xf4>
   119d8:	fc0007b7          	lui	a5,0xfc000
   119dc:	fff78793          	addi	a5,a5,-1 # fbffffff <__BSS_END__+0xfbfea247>
   119e0:	00f6f6b3          	and	a3,a3,a5
   119e4:	09f00793          	li	a5,159
   119e8:	40e78533          	sub	a0,a5,a4
   119ec:	0036d413          	srli	s0,a3,0x3
   119f0:	f59ff06f          	j	11948 <__floatsisf+0x50>
   119f4:	00000493          	li	s1,0
   119f8:	00000413          	li	s0,0
   119fc:	f4dff06f          	j	11948 <__floatsisf+0x50>

00011a00 <__clzsi2>:
   11a00:	000107b7          	lui	a5,0x10
   11a04:	02f57a63          	bgeu	a0,a5,11a38 <__clzsi2+0x38>
   11a08:	0ff00793          	li	a5,255
   11a0c:	00a7b7b3          	sltu	a5,a5,a0
   11a10:	00379793          	slli	a5,a5,0x3
   11a14:	00013737          	lui	a4,0x13
   11a18:	02000693          	li	a3,32
   11a1c:	40f686b3          	sub	a3,a3,a5
   11a20:	00f55533          	srl	a0,a0,a5
   11a24:	6f470793          	addi	a5,a4,1780 # 136f4 <__clz_tab>
   11a28:	00a78533          	add	a0,a5,a0
   11a2c:	00054503          	lbu	a0,0(a0) # 80000000 <__BSS_END__+0x7ffea248>
   11a30:	40a68533          	sub	a0,a3,a0
   11a34:	00008067          	ret
   11a38:	01000737          	lui	a4,0x1000
   11a3c:	01000793          	li	a5,16
   11a40:	fce56ae3          	bltu	a0,a4,11a14 <__clzsi2+0x14>
   11a44:	01800793          	li	a5,24
   11a48:	fcdff06f          	j	11a14 <__clzsi2+0x14>

00011a4c <exit>:
   11a4c:	ff010113          	addi	sp,sp,-16
   11a50:	00000593          	li	a1,0
   11a54:	00812423          	sw	s0,8(sp)
   11a58:	00112623          	sw	ra,12(sp)
   11a5c:	00050413          	mv	s0,a0
   11a60:	194000ef          	jal	ra,11bf4 <__call_exitprocs>
   11a64:	7dc1a503          	lw	a0,2012(gp) # 15d94 <_global_impure_ptr>
   11a68:	03c52783          	lw	a5,60(a0)
   11a6c:	00078463          	beqz	a5,11a74 <exit+0x28>
   11a70:	000780e7          	jalr	a5 # 10000 <main-0x74>
   11a74:	00040513          	mv	a0,s0
   11a78:	3a4000ef          	jal	ra,11e1c <_exit>

00011a7c <__libc_init_array>:
   11a7c:	ff010113          	addi	sp,sp,-16
   11a80:	00812423          	sw	s0,8(sp)
   11a84:	01212023          	sw	s2,0(sp)
   11a88:	00015437          	lui	s0,0x15
   11a8c:	00015937          	lui	s2,0x15
   11a90:	94040793          	addi	a5,s0,-1728 # 14940 <__init_array_start>
   11a94:	94090913          	addi	s2,s2,-1728 # 14940 <__init_array_start>
   11a98:	40f90933          	sub	s2,s2,a5
   11a9c:	00112623          	sw	ra,12(sp)
   11aa0:	00912223          	sw	s1,4(sp)
   11aa4:	40295913          	srai	s2,s2,0x2
   11aa8:	02090063          	beqz	s2,11ac8 <__libc_init_array+0x4c>
   11aac:	94040413          	addi	s0,s0,-1728
   11ab0:	00000493          	li	s1,0
   11ab4:	00042783          	lw	a5,0(s0)
   11ab8:	00148493          	addi	s1,s1,1
   11abc:	00440413          	addi	s0,s0,4
   11ac0:	000780e7          	jalr	a5
   11ac4:	fe9918e3          	bne	s2,s1,11ab4 <__libc_init_array+0x38>
   11ac8:	00015437          	lui	s0,0x15
   11acc:	00015937          	lui	s2,0x15
   11ad0:	94040793          	addi	a5,s0,-1728 # 14940 <__init_array_start>
   11ad4:	94890913          	addi	s2,s2,-1720 # 14948 <__do_global_dtors_aux_fini_array_entry>
   11ad8:	40f90933          	sub	s2,s2,a5
   11adc:	40295913          	srai	s2,s2,0x2
   11ae0:	02090063          	beqz	s2,11b00 <__libc_init_array+0x84>
   11ae4:	94040413          	addi	s0,s0,-1728
   11ae8:	00000493          	li	s1,0
   11aec:	00042783          	lw	a5,0(s0)
   11af0:	00148493          	addi	s1,s1,1
   11af4:	00440413          	addi	s0,s0,4
   11af8:	000780e7          	jalr	a5
   11afc:	fe9918e3          	bne	s2,s1,11aec <__libc_init_array+0x70>
   11b00:	00c12083          	lw	ra,12(sp)
   11b04:	00812403          	lw	s0,8(sp)
   11b08:	00412483          	lw	s1,4(sp)
   11b0c:	00012903          	lw	s2,0(sp)
   11b10:	01010113          	addi	sp,sp,16
   11b14:	00008067          	ret

00011b18 <memset>:
   11b18:	00f00313          	li	t1,15
   11b1c:	00050713          	mv	a4,a0
   11b20:	02c37e63          	bgeu	t1,a2,11b5c <memset+0x44>
   11b24:	00f77793          	andi	a5,a4,15
   11b28:	0a079063          	bnez	a5,11bc8 <memset+0xb0>
   11b2c:	08059263          	bnez	a1,11bb0 <memset+0x98>
   11b30:	ff067693          	andi	a3,a2,-16
   11b34:	00f67613          	andi	a2,a2,15
   11b38:	00e686b3          	add	a3,a3,a4
   11b3c:	00b72023          	sw	a1,0(a4) # 1000000 <__BSS_END__+0xfea248>
   11b40:	00b72223          	sw	a1,4(a4)
   11b44:	00b72423          	sw	a1,8(a4)
   11b48:	00b72623          	sw	a1,12(a4)
   11b4c:	01070713          	addi	a4,a4,16
   11b50:	fed766e3          	bltu	a4,a3,11b3c <memset+0x24>
   11b54:	00061463          	bnez	a2,11b5c <memset+0x44>
   11b58:	00008067          	ret
   11b5c:	40c306b3          	sub	a3,t1,a2
   11b60:	00269693          	slli	a3,a3,0x2
   11b64:	00000297          	auipc	t0,0x0
   11b68:	005686b3          	add	a3,a3,t0
   11b6c:	00c68067          	jr	12(a3)
   11b70:	00b70723          	sb	a1,14(a4)
   11b74:	00b706a3          	sb	a1,13(a4)
   11b78:	00b70623          	sb	a1,12(a4)
   11b7c:	00b705a3          	sb	a1,11(a4)
   11b80:	00b70523          	sb	a1,10(a4)
   11b84:	00b704a3          	sb	a1,9(a4)
   11b88:	00b70423          	sb	a1,8(a4)
   11b8c:	00b703a3          	sb	a1,7(a4)
   11b90:	00b70323          	sb	a1,6(a4)
   11b94:	00b702a3          	sb	a1,5(a4)
   11b98:	00b70223          	sb	a1,4(a4)
   11b9c:	00b701a3          	sb	a1,3(a4)
   11ba0:	00b70123          	sb	a1,2(a4)
   11ba4:	00b700a3          	sb	a1,1(a4)
   11ba8:	00b70023          	sb	a1,0(a4)
   11bac:	00008067          	ret
   11bb0:	0ff5f593          	andi	a1,a1,255
   11bb4:	00859693          	slli	a3,a1,0x8
   11bb8:	00d5e5b3          	or	a1,a1,a3
   11bbc:	01059693          	slli	a3,a1,0x10
   11bc0:	00d5e5b3          	or	a1,a1,a3
   11bc4:	f6dff06f          	j	11b30 <memset+0x18>
   11bc8:	00279693          	slli	a3,a5,0x2
   11bcc:	00000297          	auipc	t0,0x0
   11bd0:	005686b3          	add	a3,a3,t0
   11bd4:	00008293          	mv	t0,ra
   11bd8:	fa0680e7          	jalr	-96(a3)
   11bdc:	00028093          	mv	ra,t0
   11be0:	ff078793          	addi	a5,a5,-16
   11be4:	40f70733          	sub	a4,a4,a5
   11be8:	00f60633          	add	a2,a2,a5
   11bec:	f6c378e3          	bgeu	t1,a2,11b5c <memset+0x44>
   11bf0:	f3dff06f          	j	11b2c <memset+0x14>

00011bf4 <__call_exitprocs>:
   11bf4:	fd010113          	addi	sp,sp,-48
   11bf8:	01412c23          	sw	s4,24(sp)
   11bfc:	7dc1aa03          	lw	s4,2012(gp) # 15d94 <_global_impure_ptr>
   11c00:	03212023          	sw	s2,32(sp)
   11c04:	02112623          	sw	ra,44(sp)
   11c08:	148a2903          	lw	s2,328(s4)
   11c0c:	02812423          	sw	s0,40(sp)
   11c10:	02912223          	sw	s1,36(sp)
   11c14:	01312e23          	sw	s3,28(sp)
   11c18:	01512a23          	sw	s5,20(sp)
   11c1c:	01612823          	sw	s6,16(sp)
   11c20:	01712623          	sw	s7,12(sp)
   11c24:	01812423          	sw	s8,8(sp)
   11c28:	04090063          	beqz	s2,11c68 <__call_exitprocs+0x74>
   11c2c:	00050b13          	mv	s6,a0
   11c30:	00058b93          	mv	s7,a1
   11c34:	00100a93          	li	s5,1
   11c38:	fff00993          	li	s3,-1
   11c3c:	00492483          	lw	s1,4(s2)
   11c40:	fff48413          	addi	s0,s1,-1
   11c44:	02044263          	bltz	s0,11c68 <__call_exitprocs+0x74>
   11c48:	00249493          	slli	s1,s1,0x2
   11c4c:	009904b3          	add	s1,s2,s1
   11c50:	040b8463          	beqz	s7,11c98 <__call_exitprocs+0xa4>
   11c54:	1044a783          	lw	a5,260(s1)
   11c58:	05778063          	beq	a5,s7,11c98 <__call_exitprocs+0xa4>
   11c5c:	fff40413          	addi	s0,s0,-1
   11c60:	ffc48493          	addi	s1,s1,-4
   11c64:	ff3416e3          	bne	s0,s3,11c50 <__call_exitprocs+0x5c>
   11c68:	02c12083          	lw	ra,44(sp)
   11c6c:	02812403          	lw	s0,40(sp)
   11c70:	02412483          	lw	s1,36(sp)
   11c74:	02012903          	lw	s2,32(sp)
   11c78:	01c12983          	lw	s3,28(sp)
   11c7c:	01812a03          	lw	s4,24(sp)
   11c80:	01412a83          	lw	s5,20(sp)
   11c84:	01012b03          	lw	s6,16(sp)
   11c88:	00c12b83          	lw	s7,12(sp)
   11c8c:	00812c03          	lw	s8,8(sp)
   11c90:	03010113          	addi	sp,sp,48
   11c94:	00008067          	ret
   11c98:	00492783          	lw	a5,4(s2)
   11c9c:	0044a683          	lw	a3,4(s1)
   11ca0:	fff78793          	addi	a5,a5,-1
   11ca4:	04878e63          	beq	a5,s0,11d00 <__call_exitprocs+0x10c>
   11ca8:	0004a223          	sw	zero,4(s1)
   11cac:	fa0688e3          	beqz	a3,11c5c <__call_exitprocs+0x68>
   11cb0:	18892783          	lw	a5,392(s2)
   11cb4:	008a9733          	sll	a4,s5,s0
   11cb8:	00492c03          	lw	s8,4(s2)
   11cbc:	00f777b3          	and	a5,a4,a5
   11cc0:	02079263          	bnez	a5,11ce4 <__call_exitprocs+0xf0>
   11cc4:	000680e7          	jalr	a3
   11cc8:	00492703          	lw	a4,4(s2)
   11ccc:	148a2783          	lw	a5,328(s4)
   11cd0:	01871463          	bne	a4,s8,11cd8 <__call_exitprocs+0xe4>
   11cd4:	f92784e3          	beq	a5,s2,11c5c <__call_exitprocs+0x68>
   11cd8:	f80788e3          	beqz	a5,11c68 <__call_exitprocs+0x74>
   11cdc:	00078913          	mv	s2,a5
   11ce0:	f5dff06f          	j	11c3c <__call_exitprocs+0x48>
   11ce4:	18c92783          	lw	a5,396(s2)
   11ce8:	0844a583          	lw	a1,132(s1)
   11cec:	00f77733          	and	a4,a4,a5
   11cf0:	00071c63          	bnez	a4,11d08 <__call_exitprocs+0x114>
   11cf4:	000b0513          	mv	a0,s6
   11cf8:	000680e7          	jalr	a3
   11cfc:	fcdff06f          	j	11cc8 <__call_exitprocs+0xd4>
   11d00:	00892223          	sw	s0,4(s2)
   11d04:	fa9ff06f          	j	11cac <__call_exitprocs+0xb8>
   11d08:	00058513          	mv	a0,a1
   11d0c:	000680e7          	jalr	a3
   11d10:	fb9ff06f          	j	11cc8 <__call_exitprocs+0xd4>

00011d14 <__libc_fini_array>:
   11d14:	ff010113          	addi	sp,sp,-16
   11d18:	00812423          	sw	s0,8(sp)
   11d1c:	000157b7          	lui	a5,0x15
   11d20:	00015437          	lui	s0,0x15
   11d24:	94840413          	addi	s0,s0,-1720 # 14948 <__do_global_dtors_aux_fini_array_entry>
   11d28:	94c78793          	addi	a5,a5,-1716 # 1494c <__fini_array_end>
   11d2c:	408787b3          	sub	a5,a5,s0
   11d30:	00912223          	sw	s1,4(sp)
   11d34:	00112623          	sw	ra,12(sp)
   11d38:	4027d493          	srai	s1,a5,0x2
   11d3c:	02048063          	beqz	s1,11d5c <__libc_fini_array+0x48>
   11d40:	ffc78793          	addi	a5,a5,-4
   11d44:	00878433          	add	s0,a5,s0
   11d48:	00042783          	lw	a5,0(s0)
   11d4c:	fff48493          	addi	s1,s1,-1
   11d50:	ffc40413          	addi	s0,s0,-4
   11d54:	000780e7          	jalr	a5
   11d58:	fe0498e3          	bnez	s1,11d48 <__libc_fini_array+0x34>
   11d5c:	00c12083          	lw	ra,12(sp)
   11d60:	00812403          	lw	s0,8(sp)
   11d64:	00412483          	lw	s1,4(sp)
   11d68:	01010113          	addi	sp,sp,16
   11d6c:	00008067          	ret

00011d70 <atexit>:
   11d70:	00050593          	mv	a1,a0
   11d74:	00000693          	li	a3,0
   11d78:	00000613          	li	a2,0
   11d7c:	00000513          	li	a0,0
   11d80:	0040006f          	j	11d84 <__register_exitproc>

00011d84 <__register_exitproc>:
   11d84:	7dc1a703          	lw	a4,2012(gp) # 15d94 <_global_impure_ptr>
   11d88:	14872783          	lw	a5,328(a4)
   11d8c:	04078c63          	beqz	a5,11de4 <__register_exitproc+0x60>
   11d90:	0047a703          	lw	a4,4(a5)
   11d94:	01f00813          	li	a6,31
   11d98:	06e84e63          	blt	a6,a4,11e14 <__register_exitproc+0x90>
   11d9c:	00271813          	slli	a6,a4,0x2
   11da0:	02050663          	beqz	a0,11dcc <__register_exitproc+0x48>
   11da4:	01078333          	add	t1,a5,a6
   11da8:	08c32423          	sw	a2,136(t1)
   11dac:	1887a883          	lw	a7,392(a5)
   11db0:	00100613          	li	a2,1
   11db4:	00e61633          	sll	a2,a2,a4
   11db8:	00c8e8b3          	or	a7,a7,a2
   11dbc:	1917a423          	sw	a7,392(a5)
   11dc0:	10d32423          	sw	a3,264(t1)
   11dc4:	00200693          	li	a3,2
   11dc8:	02d50463          	beq	a0,a3,11df0 <__register_exitproc+0x6c>
   11dcc:	00170713          	addi	a4,a4,1
   11dd0:	00e7a223          	sw	a4,4(a5)
   11dd4:	010787b3          	add	a5,a5,a6
   11dd8:	00b7a423          	sw	a1,8(a5)
   11ddc:	00000513          	li	a0,0
   11de0:	00008067          	ret
   11de4:	14c70793          	addi	a5,a4,332
   11de8:	14f72423          	sw	a5,328(a4)
   11dec:	fa5ff06f          	j	11d90 <__register_exitproc+0xc>
   11df0:	18c7a683          	lw	a3,396(a5)
   11df4:	00170713          	addi	a4,a4,1
   11df8:	00e7a223          	sw	a4,4(a5)
   11dfc:	00c6e633          	or	a2,a3,a2
   11e00:	18c7a623          	sw	a2,396(a5)
   11e04:	010787b3          	add	a5,a5,a6
   11e08:	00b7a423          	sw	a1,8(a5)
   11e0c:	00000513          	li	a0,0
   11e10:	00008067          	ret
   11e14:	fff00513          	li	a0,-1
   11e18:	00008067          	ret

00011e1c <_exit>:
   11e1c:	05d00893          	li	a7,93
   11e20:	00000073          	ecall
   11e24:	00054463          	bltz	a0,11e2c <_exit+0x10>
   11e28:	0000006f          	j	11e28 <_exit+0xc>
   11e2c:	ff010113          	addi	sp,sp,-16
   11e30:	00812423          	sw	s0,8(sp)
   11e34:	00050413          	mv	s0,a0
   11e38:	00112623          	sw	ra,12(sp)
   11e3c:	40800433          	neg	s0,s0
   11e40:	00c000ef          	jal	ra,11e4c <__errno>
   11e44:	00852023          	sw	s0,0(a0)
   11e48:	0000006f          	j	11e48 <_exit+0x2c>

00011e4c <__errno>:
   11e4c:	7e01a503          	lw	a0,2016(gp) # 15d98 <_impure_ptr>
   11e50:	00008067          	ret
There are 23 section headers, starting at offset 0x177cc:

Section Headers:
  [Nr] Name              Type            Addr     Off    Size   ES Flg Lk Inf Al
  [ 0]                   NULL            00000000 000000 000000 00      0   0  0
  [ 1] .text             PROGBITS        00010074 000074 001de0 00  AX  0   0  4
  [ 2] .rodata           PROGBITS        00011e54 001e54 0019a0 00   A  0   0  4
  [ 3] .eh_frame         PROGBITS        000147f4 0037f4 00014c 00  WA  0   0  4
  [ 4] .init_array       INIT_ARRAY      00014940 003940 000008 04  WA  0   0  4
  [ 5] .fini_array       FINI_ARRAY      00014948 003948 000004 04  WA  0   0  4
  [ 6] .data             PROGBITS        00014950 003950 001430 00  WA  0   0  8
  [ 7] .got              PROGBITS        00015d80 004d80 000014 04  WA  0   0  4
  [ 8] .sdata            PROGBITS        00015d94 004d94 000008 00  WA  0   0  4
  [ 9] .bss              NOBITS          00015d9c 004d9c 00001c 00  WA  0   0  4
  [10] .comment          PROGBITS        00000000 004d9c 000012 01  MS  0   0  1
  [11] .riscv.attributes RISCV_ATTRIBUTE 00000000 004dae 000021 00      0   0  1
  [12] .debug_aranges    PROGBITS        00000000 004dcf 000258 00      0   0  1
  [13] .debug_info       PROGBITS        00000000 005027 003e89 00      0   0  1
  [14] .debug_abbrev     PROGBITS        00000000 008eb0 0014f9 00      0   0  1
  [15] .debug_line       PROGBITS        00000000 00a3a9 00657c 00      0   0  1
  [16] .debug_frame      PROGBITS        00000000 010928 0001ac 00      0   0  4
  [17] .debug_str        PROGBITS        00000000 010ad4 0016f1 01  MS  0   0  1
  [18] .debug_loc        PROGBITS        00000000 0121c5 0041d7 00      0   0  1
  [19] .debug_ranges     PROGBITS        00000000 01639c 000978 00      0   0  1
  [20] .symtab           SYMTAB          00000000 016d14 000640 10     21  63  4
  [21] .strtab           STRTAB          00000000 017354 000392 00      0   0  1
  [22] .shstrtab         STRTAB          00000000 0176e6 0000e3 00      0   0  1
Key to Flags:
  W (write), A (alloc), X (execute), M (merge), S (strings), I (info),
  L (link order), O (extra OS processing required), G (group), T (TLS),
  C (compressed), x (unknown), o (OS specific), E (exclude),
  p (processor specific)
