
instructiontest.elf:     file format elf32-littleriscv


Disassembly of section .text:

00000800 <_start>:
     800:	00009197          	auipc	gp,0x9
     804:	dc818193          	addi	gp,gp,-568 # 95c8 <__global_pointer$>
     808:	00008517          	auipc	a0,0x8
     80c:	5c050513          	addi	a0,a0,1472 # 8dc8 <_impure_ptr>
     810:	00009617          	auipc	a2,0x9
     814:	5c060613          	addi	a2,a2,1472 # 9dd0 <_end>
     818:	40a60633          	sub	a2,a2,a0
     81c:	00000593          	li	a1,0
     820:	750000ef          	jal	ra,f70 <memset>
     824:	00001517          	auipc	a0,0x1
     828:	9a050513          	addi	a0,a0,-1632 # 11c4 <atexit>
     82c:	00050863          	beqz	a0,83c <_start+0x3c>
     830:	00001517          	auipc	a0,0x1
     834:	94050513          	addi	a0,a0,-1728 # 1170 <__libc_fini_array>
     838:	18d000ef          	jal	ra,11c4 <atexit>
     83c:	6a8000ef          	jal	ra,ee4 <__libc_init_array>
     840:	00012503          	lw	a0,0(sp)
     844:	00410593          	addi	a1,sp,4
     848:	00000613          	li	a2,0
     84c:	214000ef          	jal	ra,a60 <main>
     850:	6600006f          	j	eb0 <exit>
	...

00000860 <_Z5printiiiPKc>:
     860:	1ec05763          	blez	a2,a4e <_Z5printiiiPKc+0x1ee>
     864:	6e05                	lui	t3,0x1
     866:	800e0e13          	addi	t3,t3,-2048 # 800 <_start>
     86a:	7139                	addi	sp,sp,-64
     86c:	00859793          	slli	a5,a1,0x8
     870:	9e2a                	add	t3,t3,a0
     872:	da4a                	sw	s2,52(sp)
     874:	d84e                	sw	s3,48(sp)
     876:	d652                	sw	s4,44(sp)
     878:	d456                	sw	s5,40(sp)
     87a:	d25a                	sw	s6,36(sp)
     87c:	d05e                	sw	s7,32(sp)
     87e:	ce62                	sw	s8,28(sp)
     880:	cc66                	sw	s9,24(sp)
     882:	ca6a                	sw	s10,20(sp)
     884:	de22                	sw	s0,60(sp)
     886:	dc26                	sw	s1,56(sp)
     888:	c86e                	sw	s11,16(sp)
     88a:	8d2e                	mv	s10,a1
     88c:	88aa                	mv	a7,a0
     88e:	8eb6                	mv	t4,a3
     890:	c63e                	sw	a5,12(sp)
     892:	00150c13          	addi	s8,a0,1
     896:	00250b93          	addi	s7,a0,2
     89a:	00350b13          	addi	s6,a0,3
     89e:	00450a93          	addi	s5,a0,4
     8a2:	00550a13          	addi	s4,a0,5
     8a6:	00650993          	addi	s3,a0,6
     8aa:	00750913          	addi	s2,a0,7
     8ae:	9e3e                	add	t3,t3,a5
     8b0:	00c68cb3          	add	s9,a3,a2
     8b4:	000ec783          	lbu	a5,0(t4)
     8b8:	16078d63          	beqz	a5,a32 <_Z5printiiiPKc+0x1d2>
     8bc:	1781                	addi	a5,a5,-32
     8be:	1407ce63          	bltz	a5,a1a <_Z5printiiiPKc+0x1ba>
     8c2:	4057d713          	srai	a4,a5,0x5
     8c6:	8bfd                	andi	a5,a5,31
     8c8:	00379593          	slli	a1,a5,0x3
     8cc:	00371813          	slli	a6,a4,0x3
     8d0:	00158793          	addi	a5,a1,1
     8d4:	072e                	slli	a4,a4,0xb
     8d6:	973e                	add	a4,a4,a5
     8d8:	47b2                	lw	a5,12(sp)
     8da:	00006617          	auipc	a2,0x6
     8de:	41a80833          	sub	a6,a6,s10
     8e2:	8b660613          	addi	a2,a2,-1866 # 6190 <_ZL4font>
     8e6:	0822                	slli	a6,a6,0x8
     8e8:	00007697          	auipc	a3,0x7
     8ec:	97c6                	add	a5,a5,a7
     8ee:	9732                	add	a4,a4,a2
     8f0:	41180833          	sub	a6,a6,a7
     8f4:	0b068693          	addi	a3,a3,176 # 7998 <VRAM>
     8f8:	411c04b3          	sub	s1,s8,a7
     8fc:	411b8433          	sub	s0,s7,a7
     900:	411b03b3          	sub	t2,s6,a7
     904:	411a82b3          	sub	t0,s5,a7
     908:	411a0fb3          	sub	t6,s4,a7
     90c:	41198f33          	sub	t5,s3,a7
     910:	41190333          	sub	t1,s2,a7
     914:	c446                	sw	a7,8(sp)
     916:	00006617          	auipc	a2,0x6
     91a:	87a60613          	addi	a2,a2,-1926 # 6190 <_ZL4font>
     91e:	962e                	add	a2,a2,a1
     920:	9642                	add	a2,a2,a6
     922:	963e                	add	a2,a2,a5
     924:	00064603          	lbu	a2,0(a2)
     928:	4288                	lw	a0,0(a3)
     92a:	00f48db3          	add	s11,s1,a5
     92e:	00c03633          	snez	a2,a2
     932:	40c00633          	neg	a2,a2
     936:	953e                	add	a0,a0,a5
     938:	0ff67613          	andi	a2,a2,255
     93c:	00c50023          	sb	a2,0(a0)
     940:	00074603          	lbu	a2,0(a4)
     944:	0006a883          	lw	a7,0(a3)
     948:	00f40533          	add	a0,s0,a5
     94c:	00c03633          	snez	a2,a2
     950:	40c00633          	neg	a2,a2
     954:	9dc6                	add	s11,s11,a7
     956:	0ff67613          	andi	a2,a2,255
     95a:	00cd8023          	sb	a2,0(s11)
     95e:	00174603          	lbu	a2,1(a4)
     962:	0006a883          	lw	a7,0(a3)
     966:	00f38db3          	add	s11,t2,a5
     96a:	00c03633          	snez	a2,a2
     96e:	40c00633          	neg	a2,a2
     972:	9546                	add	a0,a0,a7
     974:	0ff67613          	andi	a2,a2,255
     978:	00c50023          	sb	a2,0(a0)
     97c:	00274603          	lbu	a2,2(a4)
     980:	0006a883          	lw	a7,0(a3)
     984:	00f28533          	add	a0,t0,a5
     988:	00c03633          	snez	a2,a2
     98c:	40c00633          	neg	a2,a2
     990:	9dc6                	add	s11,s11,a7
     992:	0ff67613          	andi	a2,a2,255
     996:	00cd8023          	sb	a2,0(s11)
     99a:	00374603          	lbu	a2,3(a4)
     99e:	0006a883          	lw	a7,0(a3)
     9a2:	00ff8db3          	add	s11,t6,a5
     9a6:	00c03633          	snez	a2,a2
     9aa:	40c00633          	neg	a2,a2
     9ae:	9546                	add	a0,a0,a7
     9b0:	0ff67613          	andi	a2,a2,255
     9b4:	00c50023          	sb	a2,0(a0)
     9b8:	00474603          	lbu	a2,4(a4)
     9bc:	0006a883          	lw	a7,0(a3)
     9c0:	00ff0533          	add	a0,t5,a5
     9c4:	00c03633          	snez	a2,a2
     9c8:	40c00633          	neg	a2,a2
     9cc:	9dc6                	add	s11,s11,a7
     9ce:	0ff67613          	andi	a2,a2,255
     9d2:	00cd8023          	sb	a2,0(s11)
     9d6:	00574603          	lbu	a2,5(a4)
     9da:	0006a883          	lw	a7,0(a3)
     9de:	00f30db3          	add	s11,t1,a5
     9e2:	00c03633          	snez	a2,a2
     9e6:	40c00633          	neg	a2,a2
     9ea:	0ff67613          	andi	a2,a2,255
     9ee:	9546                	add	a0,a0,a7
     9f0:	00c50023          	sb	a2,0(a0)
     9f4:	00674603          	lbu	a2,6(a4)
     9f8:	4288                	lw	a0,0(a3)
     9fa:	10078793          	addi	a5,a5,256
     9fe:	00c03633          	snez	a2,a2
     a02:	40c00633          	neg	a2,a2
     a06:	0ff67613          	andi	a2,a2,255
     a0a:	956e                	add	a0,a0,s11
     a0c:	00c50023          	sb	a2,0(a0)
     a10:	10070713          	addi	a4,a4,256
     a14:	f0fe11e3          	bne	t3,a5,916 <_Z5printiiiPKc+0xb6>
     a18:	48a2                	lw	a7,8(sp)
     a1a:	0e85                	addi	t4,t4,1
     a1c:	08a1                	addi	a7,a7,8
     a1e:	0c21                	addi	s8,s8,8
     a20:	0ba1                	addi	s7,s7,8
     a22:	0b21                	addi	s6,s6,8
     a24:	0aa1                	addi	s5,s5,8
     a26:	0a21                	addi	s4,s4,8
     a28:	09a1                	addi	s3,s3,8
     a2a:	0921                	addi	s2,s2,8
     a2c:	0e21                	addi	t3,t3,8
     a2e:	e9dc93e3          	bne	s9,t4,8b4 <_Z5printiiiPKc+0x54>
     a32:	5472                	lw	s0,60(sp)
     a34:	54e2                	lw	s1,56(sp)
     a36:	5952                	lw	s2,52(sp)
     a38:	59c2                	lw	s3,48(sp)
     a3a:	5a32                	lw	s4,44(sp)
     a3c:	5aa2                	lw	s5,40(sp)
     a3e:	5b12                	lw	s6,36(sp)
     a40:	5b82                	lw	s7,32(sp)
     a42:	4c72                	lw	s8,28(sp)
     a44:	4ce2                	lw	s9,24(sp)
     a46:	4d52                	lw	s10,20(sp)
     a48:	4dc2                	lw	s11,16(sp)
     a4a:	6121                	addi	sp,sp,64
     a4c:	8082                	ret
     a4e:	8082                	ret
	...

00000a60 <main>:
     a60:	7159                	addi	sp,sp,-112
     a62:	00007797          	auipc	a5,0x7
     a66:	c0ea                	sw	s10,64(sp)
     a68:	f3678d13          	addi	s10,a5,-202 # 7998 <VRAM>
     a6c:	d4a2                	sw	s0,104(sp)
     a6e:	000d2403          	lw	s0,0(s10)
     a72:	000306b7          	lui	a3,0x30
     a76:	d686                	sw	ra,108(sp)
     a78:	d2a6                	sw	s1,100(sp)
     a7a:	d0ca                	sw	s2,96(sp)
     a7c:	cece                	sw	s3,92(sp)
     a7e:	ccd2                	sw	s4,88(sp)
     a80:	cad6                	sw	s5,84(sp)
     a82:	c8da                	sw	s6,80(sp)
     a84:	c6de                	sw	s7,76(sp)
     a86:	c4e2                	sw	s8,72(sp)
     a88:	c2e6                	sw	s9,68(sp)
     a8a:	de6e                	sw	s11,60(sp)
     a8c:	567d                	li	a2,-1
     a8e:	8722                	mv	a4,s0
     a90:	96a2                	add	a3,a3,s0
     a92:	c310                	sw	a2,0(a4)
     a94:	0711                	addi	a4,a4,4
     a96:	fee69ee3          	bne	a3,a4,a92 <main+0x32>
     a9a:	00005797          	auipc	a5,0x5
     a9e:	00001717          	auipc	a4,0x1
     aa2:	8f778793          	addi	a5,a5,-1801 # 5391 <_ZL10spritedata+0x4001>
     aa6:	00005697          	auipc	a3,0x5
     aaa:	d23e                	sw	a5,36(sp)
     aac:	8db70793          	addi	a5,a4,-1829 # 1379 <__errno+0xd>
     ab0:	4609                	li	a2,2
     ab2:	d63e                	sw	a5,44(sp)
     ab4:	672d                	lui	a4,0xb
     ab6:	6ea68793          	addi	a5,a3,1770 # 6190 <_ZL4font>
     aba:	00005c17          	auipc	s8,0x5
     abe:	ca32                	sw	a2,20(sp)
     ac0:	d43e                	sw	a5,40(sp)
     ac2:	460d                	li	a2,3
     ac4:	40270793          	addi	a5,a4,1026 # b402 <_end+0x1632>
     ac8:	c602                	sw	zero,12(sp)
     aca:	d002                	sw	zero,32(sp)
     acc:	ce02                	sw	zero,28(sp)
     ace:	cc02                	sw	zero,24(sp)
     ad0:	c832                	sw	a2,16(sp)
     ad2:	9c7c0c13          	addi	s8,s8,-1593 # 5481 <_ZL10spritedata+0x40f1>
     ad6:	0ff00493          	li	s1,255
     ada:	7971                	lui	s2,0xffffc
     adc:	10000b13          	li	s6,256
     ae0:	6ab1                	lui	s5,0xc
     ae2:	c43e                	sw	a5,8(sp)
     ae4:	7bd5                	lui	s7,0xffff5
     ae6:	47f2                	lw	a5,28(sp)
     ae8:	0b000713          	li	a4,176
     aec:	00f77663          	bgeu	a4,a5,af8 <main+0x98>
     af0:	47d2                	lw	a5,20(sp)
     af2:	40f007b3          	neg	a5,a5
     af6:	ca3e                	sw	a5,20(sp)
     af8:	47f2                	lw	a5,28(sp)
     afa:	4752                	lw	a4,20(sp)
     afc:	46c2                	lw	a3,16(sp)
     afe:	97ba                	add	a5,a5,a4
     b00:	00178713          	addi	a4,a5,1
     b04:	ce3e                	sw	a5,28(sp)
     b06:	47e2                	lw	a5,24(sp)
     b08:	0722                	slli	a4,a4,0x8
     b0a:	96be                	add	a3,a3,a5
     b0c:	5792                	lw	a5,36(sp)
     b0e:	cc36                	sw	a3,24(sp)
     b10:	9736                	add	a4,a4,a3
     b12:	0007c683          	lbu	a3,0(a5)
     b16:	00968963          	beq	a3,s1,b28 <main+0xc8>
     b1a:	f0170613          	addi	a2,a4,-255
     b1e:	9432                	add	s0,s0,a2
     b20:	00d40023          	sb	a3,0(s0)
     b24:	000d2403          	lw	s0,0(s10)
     b28:	0017c683          	lbu	a3,1(a5)
     b2c:	00968963          	beq	a3,s1,b3e <main+0xde>
     b30:	f0270613          	addi	a2,a4,-254
     b34:	9432                	add	s0,s0,a2
     b36:	00d40023          	sb	a3,0(s0)
     b3a:	000d2403          	lw	s0,0(s10)
     b3e:	0027c683          	lbu	a3,2(a5)
     b42:	00968963          	beq	a3,s1,b54 <main+0xf4>
     b46:	f0370613          	addi	a2,a4,-253
     b4a:	9432                	add	s0,s0,a2
     b4c:	00d40023          	sb	a3,0(s0)
     b50:	000d2403          	lw	s0,0(s10)
     b54:	0037c683          	lbu	a3,3(a5)
     b58:	00968963          	beq	a3,s1,b6a <main+0x10a>
     b5c:	f0470613          	addi	a2,a4,-252
     b60:	9432                	add	s0,s0,a2
     b62:	00d40023          	sb	a3,0(s0)
     b66:	000d2403          	lw	s0,0(s10)
     b6a:	0047c683          	lbu	a3,4(a5)
     b6e:	00968963          	beq	a3,s1,b80 <main+0x120>
     b72:	f0570613          	addi	a2,a4,-251
     b76:	9432                	add	s0,s0,a2
     b78:	00d40023          	sb	a3,0(s0)
     b7c:	000d2403          	lw	s0,0(s10)
     b80:	0057c683          	lbu	a3,5(a5)
     b84:	00968963          	beq	a3,s1,b96 <main+0x136>
     b88:	f0670613          	addi	a2,a4,-250
     b8c:	9432                	add	s0,s0,a2
     b8e:	00d40023          	sb	a3,0(s0)
     b92:	000d2403          	lw	s0,0(s10)
     b96:	0067c683          	lbu	a3,6(a5)
     b9a:	00968963          	beq	a3,s1,bac <main+0x14c>
     b9e:	f0770613          	addi	a2,a4,-249
     ba2:	9432                	add	s0,s0,a2
     ba4:	00d40023          	sb	a3,0(s0)
     ba8:	000d2403          	lw	s0,0(s10)
     bac:	0077c683          	lbu	a3,7(a5)
     bb0:	00968963          	beq	a3,s1,bc2 <main+0x162>
     bb4:	f0870613          	addi	a2,a4,-248
     bb8:	9432                	add	s0,s0,a2
     bba:	00d40023          	sb	a3,0(s0)
     bbe:	000d2403          	lw	s0,0(s10)
     bc2:	0087c683          	lbu	a3,8(a5)
     bc6:	00968963          	beq	a3,s1,bd8 <main+0x178>
     bca:	f0970613          	addi	a2,a4,-247
     bce:	9432                	add	s0,s0,a2
     bd0:	00d40023          	sb	a3,0(s0)
     bd4:	000d2403          	lw	s0,0(s10)
     bd8:	0097c683          	lbu	a3,9(a5)
     bdc:	00968963          	beq	a3,s1,bee <main+0x18e>
     be0:	f0a70613          	addi	a2,a4,-246
     be4:	9432                	add	s0,s0,a2
     be6:	00d40023          	sb	a3,0(s0)
     bea:	000d2403          	lw	s0,0(s10)
     bee:	00a7c683          	lbu	a3,10(a5)
     bf2:	00968963          	beq	a3,s1,c04 <main+0x1a4>
     bf6:	f0b70613          	addi	a2,a4,-245
     bfa:	9432                	add	s0,s0,a2
     bfc:	00d40023          	sb	a3,0(s0)
     c00:	000d2403          	lw	s0,0(s10)
     c04:	00b7c683          	lbu	a3,11(a5)
     c08:	00968963          	beq	a3,s1,c1a <main+0x1ba>
     c0c:	f0c70613          	addi	a2,a4,-244
     c10:	9432                	add	s0,s0,a2
     c12:	00d40023          	sb	a3,0(s0)
     c16:	000d2403          	lw	s0,0(s10)
     c1a:	00c7c683          	lbu	a3,12(a5)
     c1e:	00968963          	beq	a3,s1,c30 <main+0x1d0>
     c22:	f0d70613          	addi	a2,a4,-243
     c26:	9432                	add	s0,s0,a2
     c28:	00d40023          	sb	a3,0(s0)
     c2c:	000d2403          	lw	s0,0(s10)
     c30:	00d7c683          	lbu	a3,13(a5)
     c34:	00968963          	beq	a3,s1,c46 <main+0x1e6>
     c38:	f0e70613          	addi	a2,a4,-242
     c3c:	9432                	add	s0,s0,a2
     c3e:	00d40023          	sb	a3,0(s0)
     c42:	000d2403          	lw	s0,0(s10)
     c46:	00e7c683          	lbu	a3,14(a5)
     c4a:	00968963          	beq	a3,s1,c5c <main+0x1fc>
     c4e:	f0f70613          	addi	a2,a4,-241
     c52:	9432                	add	s0,s0,a2
     c54:	00d40023          	sb	a3,0(s0)
     c58:	000d2403          	lw	s0,0(s10)
     c5c:	00fc0f63          	beq	s8,a5,c7a <main+0x21a>
     c60:	00f7c683          	lbu	a3,15(a5)
     c64:	00968763          	beq	a3,s1,c72 <main+0x212>
     c68:	943a                	add	s0,s0,a4
     c6a:	00d40023          	sb	a3,0(s0)
     c6e:	000d2403          	lw	s0,0(s10)
     c72:	07c1                	addi	a5,a5,16
     c74:	10070713          	addi	a4,a4,256
     c78:	bd69                	j	b12 <main+0xb2>
     c7a:	5c82                	lw	s9,32(sp)
     c7c:	00007797          	auipc	a5,0x7
     c80:	d2078793          	addi	a5,a5,-736 # 799c <sinewave>
     c84:	3ffcf713          	andi	a4,s9,1023
     c88:	070a                	slli	a4,a4,0x2
     c8a:	97ba                	add	a5,a5,a4
     c8c:	4388                	lw	a0,0(a5)
     c8e:	00c14a03          	lbu	s4,12(sp)
     c92:	0aa00593          	li	a1,170
     c96:	954a                	add	a0,a0,s2
     c98:	2bf1                	jal	1274 <__divsi3>
     c9a:	06050793          	addi	a5,a0,96
     c9e:	fffa4993          	not	s3,s4
     ca2:	07a2                	slli	a5,a5,0x8
     ca4:	97a2                	add	a5,a5,s0
     ca6:	0ff9f993          	andi	s3,s3,255
     caa:	8466                	mv	s0,s9
     cac:	01378023          	sb	s3,0(a5)
     cb0:	0c89                	addi	s9,s9,2
     cb2:	4d85                	li	s11,1
     cb4:	3ffcf713          	andi	a4,s9,1023
     cb8:	00007797          	auipc	a5,0x7
     cbc:	070a                	slli	a4,a4,0x2
     cbe:	ce478793          	addi	a5,a5,-796 # 799c <sinewave>
     cc2:	97ba                	add	a5,a5,a4
     cc4:	4388                	lw	a0,0(a5)
     cc6:	0aa00593          	li	a1,170
     cca:	0c89                	addi	s9,s9,2
     ccc:	954a                	add	a0,a0,s2
     cce:	235d                	jal	1274 <__divsi3>
     cd0:	000d2783          	lw	a5,0(s10)
     cd4:	06050513          	addi	a0,a0,96
     cd8:	0522                	slli	a0,a0,0x8
     cda:	956e                	add	a0,a0,s11
     cdc:	953e                	add	a0,a0,a5
     cde:	01350023          	sb	s3,0(a0)
     ce2:	0d85                	addi	s11,s11,1
     ce4:	fd6d98e3          	bne	s11,s6,cb4 <main+0x254>
     ce8:	4981                	li	s3,0
     cea:	3ff47713          	andi	a4,s0,1023
     cee:	00007797          	auipc	a5,0x7
     cf2:	070a                	slli	a4,a4,0x2
     cf4:	cae78793          	addi	a5,a5,-850 # 799c <sinewave>
     cf8:	97ba                	add	a5,a5,a4
     cfa:	4388                	lw	a0,0(a5)
     cfc:	08200593          	li	a1,130
     d00:	0405                	addi	s0,s0,1
     d02:	954a                	add	a0,a0,s2
     d04:	2b85                	jal	1274 <__divsi3>
     d06:	000d2783          	lw	a5,0(s10)
     d0a:	08050513          	addi	a0,a0,128
     d0e:	954e                	add	a0,a0,s3
     d10:	953e                	add	a0,a0,a5
     d12:	01450023          	sb	s4,0(a0)
     d16:	10098993          	addi	s3,s3,256
     d1a:	fd5998e3          	bne	s3,s5,cea <main+0x28a>
     d1e:	5702                	lw	a4,32(sp)
     d20:	47b2                	lw	a5,12(sp)
     d22:	02d70713          	addi	a4,a4,45
     d26:	07f7f793          	andi	a5,a5,127
     d2a:	d03a                	sw	a4,32(sp)
     d2c:	e789                	bnez	a5,d36 <main+0x2d6>
     d2e:	47c2                	lw	a5,16(sp)
     d30:	4752                	lw	a4,20(sp)
     d32:	ca3e                	sw	a5,20(sp)
     d34:	c83a                	sw	a4,16(sp)
     d36:	47b2                	lw	a5,12(sp)
     d38:	58b2                	lw	a7,44(sp)
     d3a:	5322                	lw	t1,40(sp)
     d3c:	0785                	addi	a5,a5,1
     d3e:	c63e                	sw	a5,12(sp)
     d40:	c02a8593          	addi	a1,s5,-1022 # bc02 <_end+0x1e32>
     d44:	4801                	li	a6,0
     d46:	07200793          	li	a5,114
     d4a:	1781                	addi	a5,a5,-32
     d4c:	1207c463          	bltz	a5,e74 <main+0x414>
     d50:	01f7f513          	andi	a0,a5,31
     d54:	4057d613          	srai	a2,a5,0x5
     d58:	050e                	slli	a0,a0,0x3
     d5a:	47a2                	lw	a5,8(sp)
     d5c:	062e                	slli	a2,a2,0xb
     d5e:	00150693          	addi	a3,a0,1
     d62:	96b2                	add	a3,a3,a2
     d64:	97c2                	add	a5,a5,a6
     d66:	969a                	add	a3,a3,t1
     d68:	41060633          	sub	a2,a2,a6
     d6c:	00005717          	auipc	a4,0x5
     d70:	42470713          	addi	a4,a4,1060 # 6190 <_ZL4font>
     d74:	972a                	add	a4,a4,a0
     d76:	9732                	add	a4,a4,a2
     d78:	973e                	add	a4,a4,a5
     d7a:	975e                	add	a4,a4,s7
     d7c:	bfe74703          	lbu	a4,-1026(a4)
     d80:	000d2e83          	lw	t4,0(s10)
     d84:	00178f13          	addi	t5,a5,1
     d88:	00e03733          	snez	a4,a4
     d8c:	40e00733          	neg	a4,a4
     d90:	9ebe                	add	t4,t4,a5
     d92:	0ff77713          	andi	a4,a4,255
     d96:	00ee8023          	sb	a4,0(t4)
     d9a:	0006c703          	lbu	a4,0(a3)
     d9e:	000d2e03          	lw	t3,0(s10)
     da2:	00278f93          	addi	t6,a5,2
     da6:	00e03733          	snez	a4,a4
     daa:	40e00733          	neg	a4,a4
     dae:	9e7a                	add	t3,t3,t5
     db0:	0ff77713          	andi	a4,a4,255
     db4:	00ee0023          	sb	a4,0(t3)
     db8:	0016c703          	lbu	a4,1(a3)
     dbc:	000d2e83          	lw	t4,0(s10)
     dc0:	00378f13          	addi	t5,a5,3
     dc4:	00e03733          	snez	a4,a4
     dc8:	40e00733          	neg	a4,a4
     dcc:	9efe                	add	t4,t4,t6
     dce:	0ff77713          	andi	a4,a4,255
     dd2:	00ee8023          	sb	a4,0(t4)
     dd6:	0026c703          	lbu	a4,2(a3)
     dda:	000d2e03          	lw	t3,0(s10)
     dde:	00478f93          	addi	t6,a5,4
     de2:	00e03733          	snez	a4,a4
     de6:	40e00733          	neg	a4,a4
     dea:	9e7a                	add	t3,t3,t5
     dec:	0ff77713          	andi	a4,a4,255
     df0:	00ee0023          	sb	a4,0(t3)
     df4:	0036c703          	lbu	a4,3(a3)
     df8:	000d2e83          	lw	t4,0(s10)
     dfc:	00578f13          	addi	t5,a5,5
     e00:	00e03733          	snez	a4,a4
     e04:	40e00733          	neg	a4,a4
     e08:	9efe                	add	t4,t4,t6
     e0a:	0ff77713          	andi	a4,a4,255
     e0e:	00ee8023          	sb	a4,0(t4)
     e12:	0046c703          	lbu	a4,4(a3)
     e16:	000d2e03          	lw	t3,0(s10)
     e1a:	00678f93          	addi	t6,a5,6
     e1e:	00e03733          	snez	a4,a4
     e22:	40e00733          	neg	a4,a4
     e26:	9e7a                	add	t3,t3,t5
     e28:	0ff77713          	andi	a4,a4,255
     e2c:	00ee0023          	sb	a4,0(t3)
     e30:	0056c703          	lbu	a4,5(a3)
     e34:	000d2e83          	lw	t4,0(s10)
     e38:	00778f13          	addi	t5,a5,7
     e3c:	00e03733          	snez	a4,a4
     e40:	40e00733          	neg	a4,a4
     e44:	0ff77713          	andi	a4,a4,255
     e48:	9efe                	add	t4,t4,t6
     e4a:	00ee8023          	sb	a4,0(t4)
     e4e:	0066c703          	lbu	a4,6(a3)
     e52:	000d2e03          	lw	t3,0(s10)
     e56:	10078793          	addi	a5,a5,256
     e5a:	00e03733          	snez	a4,a4
     e5e:	40e00733          	neg	a4,a4
     e62:	0ff77713          	andi	a4,a4,255
     e66:	9e7a                	add	t3,t3,t5
     e68:	00ee0023          	sb	a4,0(t3)
     e6c:	10068693          	addi	a3,a3,256
     e70:	eef59ee3          	bne	a1,a5,d6c <main+0x30c>
     e74:	1f800793          	li	a5,504
     e78:	00f80963          	beq	a6,a5,e8a <main+0x42a>
     e7c:	0008c783          	lbu	a5,0(a7)
     e80:	0821                	addi	a6,a6,8
     e82:	0885                	addi	a7,a7,1
     e84:	05a1                	addi	a1,a1,8
     e86:	ec0792e3          	bnez	a5,d4a <main+0x2ea>
     e8a:	47e2                	lw	a5,24(sp)
     e8c:	0ef00713          	li	a4,239
     e90:	00f77663          	bgeu	a4,a5,e9c <main+0x43c>
     e94:	47c2                	lw	a5,16(sp)
     e96:	40f007b3          	neg	a5,a5
     e9a:	c83e                	sw	a5,16(sp)
     e9c:	000d2403          	lw	s0,0(s10)
     ea0:	b199                	j	ae6 <main+0x86>
	...

00000eb0 <exit>:
     eb0:	ff010113          	addi	sp,sp,-16
     eb4:	00000593          	li	a1,0
     eb8:	00812423          	sw	s0,8(sp)
     ebc:	00112623          	sw	ra,12(sp)
     ec0:	00050413          	mv	s0,a0
     ec4:	188000ef          	jal	ra,104c <__call_exitprocs>
     ec8:	000087b7          	lui	a5,0x8
     ecc:	9907a503          	lw	a0,-1648(a5) # 7990 <_etext>
     ed0:	03c52783          	lw	a5,60(a0)
     ed4:	00078463          	beqz	a5,edc <exit+0x2c>
     ed8:	000780e7          	jalr	a5
     edc:	00040513          	mv	a0,s0
     ee0:	448000ef          	jal	ra,1328 <_exit>

00000ee4 <__libc_init_array>:
     ee4:	ff010113          	addi	sp,sp,-16
     ee8:	00812423          	sw	s0,8(sp)
     eec:	01212023          	sw	s2,0(sp)
     ef0:	00000793          	li	a5,0
     ef4:	00000913          	li	s2,0
     ef8:	40f90933          	sub	s2,s2,a5
     efc:	00112623          	sw	ra,12(sp)
     f00:	00912223          	sw	s1,4(sp)
     f04:	40295913          	srai	s2,s2,0x2
     f08:	02090063          	beqz	s2,f28 <__libc_init_array+0x44>
     f0c:	00000413          	li	s0,0
     f10:	00000493          	li	s1,0
     f14:	00042783          	lw	a5,0(s0)
     f18:	00148493          	addi	s1,s1,1
     f1c:	00440413          	addi	s0,s0,4
     f20:	000780e7          	jalr	a5
     f24:	fe9918e3          	bne	s2,s1,f14 <__libc_init_array+0x30>
     f28:	00000793          	li	a5,0
     f2c:	00000913          	li	s2,0
     f30:	40f90933          	sub	s2,s2,a5
     f34:	40295913          	srai	s2,s2,0x2
     f38:	02090063          	beqz	s2,f58 <__libc_init_array+0x74>
     f3c:	00000413          	li	s0,0
     f40:	00000493          	li	s1,0
     f44:	00042783          	lw	a5,0(s0)
     f48:	00148493          	addi	s1,s1,1
     f4c:	00440413          	addi	s0,s0,4
     f50:	000780e7          	jalr	a5
     f54:	fe9918e3          	bne	s2,s1,f44 <__libc_init_array+0x60>
     f58:	00c12083          	lw	ra,12(sp)
     f5c:	00812403          	lw	s0,8(sp)
     f60:	00412483          	lw	s1,4(sp)
     f64:	00012903          	lw	s2,0(sp)
     f68:	01010113          	addi	sp,sp,16
     f6c:	00008067          	ret

00000f70 <memset>:
     f70:	00f00313          	li	t1,15
     f74:	00050713          	mv	a4,a0
     f78:	02c37e63          	bgeu	t1,a2,fb4 <memset+0x44>
     f7c:	00f77793          	andi	a5,a4,15
     f80:	0a079063          	bnez	a5,1020 <memset+0xb0>
     f84:	08059263          	bnez	a1,1008 <memset+0x98>
     f88:	ff067693          	andi	a3,a2,-16
     f8c:	00f67613          	andi	a2,a2,15
     f90:	00e686b3          	add	a3,a3,a4
     f94:	00b72023          	sw	a1,0(a4)
     f98:	00b72223          	sw	a1,4(a4)
     f9c:	00b72423          	sw	a1,8(a4)
     fa0:	00b72623          	sw	a1,12(a4)
     fa4:	01070713          	addi	a4,a4,16
     fa8:	fed766e3          	bltu	a4,a3,f94 <memset+0x24>
     fac:	00061463          	bnez	a2,fb4 <memset+0x44>
     fb0:	00008067          	ret
     fb4:	40c306b3          	sub	a3,t1,a2
     fb8:	00269693          	slli	a3,a3,0x2
     fbc:	00000297          	auipc	t0,0x0
     fc0:	005686b3          	add	a3,a3,t0
     fc4:	00c68067          	jr	12(a3)
     fc8:	00b70723          	sb	a1,14(a4)
     fcc:	00b706a3          	sb	a1,13(a4)
     fd0:	00b70623          	sb	a1,12(a4)
     fd4:	00b705a3          	sb	a1,11(a4)
     fd8:	00b70523          	sb	a1,10(a4)
     fdc:	00b704a3          	sb	a1,9(a4)
     fe0:	00b70423          	sb	a1,8(a4)
     fe4:	00b703a3          	sb	a1,7(a4)
     fe8:	00b70323          	sb	a1,6(a4)
     fec:	00b702a3          	sb	a1,5(a4)
     ff0:	00b70223          	sb	a1,4(a4)
     ff4:	00b701a3          	sb	a1,3(a4)
     ff8:	00b70123          	sb	a1,2(a4)
     ffc:	00b700a3          	sb	a1,1(a4)
    1000:	00b70023          	sb	a1,0(a4)
    1004:	00008067          	ret
    1008:	0ff5f593          	andi	a1,a1,255
    100c:	00859693          	slli	a3,a1,0x8
    1010:	00d5e5b3          	or	a1,a1,a3
    1014:	01059693          	slli	a3,a1,0x10
    1018:	00d5e5b3          	or	a1,a1,a3
    101c:	f6dff06f          	j	f88 <memset+0x18>
    1020:	00279693          	slli	a3,a5,0x2
    1024:	00000297          	auipc	t0,0x0
    1028:	005686b3          	add	a3,a3,t0
    102c:	00008293          	mv	t0,ra
    1030:	fa0680e7          	jalr	-96(a3)
    1034:	00028093          	mv	ra,t0
    1038:	ff078793          	addi	a5,a5,-16
    103c:	40f70733          	sub	a4,a4,a5
    1040:	00f60633          	add	a2,a2,a5
    1044:	f6c378e3          	bgeu	t1,a2,fb4 <memset+0x44>
    1048:	f3dff06f          	j	f84 <memset+0x14>

0000104c <__call_exitprocs>:
    104c:	fd010113          	addi	sp,sp,-48
    1050:	000087b7          	lui	a5,0x8
    1054:	01412c23          	sw	s4,24(sp)
    1058:	9907aa03          	lw	s4,-1648(a5) # 7990 <_etext>
    105c:	03212023          	sw	s2,32(sp)
    1060:	02112623          	sw	ra,44(sp)
    1064:	148a2903          	lw	s2,328(s4)
    1068:	02812423          	sw	s0,40(sp)
    106c:	02912223          	sw	s1,36(sp)
    1070:	01312e23          	sw	s3,28(sp)
    1074:	01512a23          	sw	s5,20(sp)
    1078:	01612823          	sw	s6,16(sp)
    107c:	01712623          	sw	s7,12(sp)
    1080:	01812423          	sw	s8,8(sp)
    1084:	04090063          	beqz	s2,10c4 <__call_exitprocs+0x78>
    1088:	00050b13          	mv	s6,a0
    108c:	00058b93          	mv	s7,a1
    1090:	00100a93          	li	s5,1
    1094:	fff00993          	li	s3,-1
    1098:	00492483          	lw	s1,4(s2) # ffffc004 <_end+0xffff2234>
    109c:	fff48413          	addi	s0,s1,-1
    10a0:	02044263          	bltz	s0,10c4 <__call_exitprocs+0x78>
    10a4:	00249493          	slli	s1,s1,0x2
    10a8:	009904b3          	add	s1,s2,s1
    10ac:	040b8463          	beqz	s7,10f4 <__call_exitprocs+0xa8>
    10b0:	1044a783          	lw	a5,260(s1)
    10b4:	05778063          	beq	a5,s7,10f4 <__call_exitprocs+0xa8>
    10b8:	fff40413          	addi	s0,s0,-1
    10bc:	ffc48493          	addi	s1,s1,-4
    10c0:	ff3416e3          	bne	s0,s3,10ac <__call_exitprocs+0x60>
    10c4:	02c12083          	lw	ra,44(sp)
    10c8:	02812403          	lw	s0,40(sp)
    10cc:	02412483          	lw	s1,36(sp)
    10d0:	02012903          	lw	s2,32(sp)
    10d4:	01c12983          	lw	s3,28(sp)
    10d8:	01812a03          	lw	s4,24(sp)
    10dc:	01412a83          	lw	s5,20(sp)
    10e0:	01012b03          	lw	s6,16(sp)
    10e4:	00c12b83          	lw	s7,12(sp)
    10e8:	00812c03          	lw	s8,8(sp)
    10ec:	03010113          	addi	sp,sp,48
    10f0:	00008067          	ret
    10f4:	00492783          	lw	a5,4(s2)
    10f8:	0044a683          	lw	a3,4(s1)
    10fc:	fff78793          	addi	a5,a5,-1
    1100:	04878e63          	beq	a5,s0,115c <__call_exitprocs+0x110>
    1104:	0004a223          	sw	zero,4(s1)
    1108:	fa0688e3          	beqz	a3,10b8 <__call_exitprocs+0x6c>
    110c:	18892783          	lw	a5,392(s2)
    1110:	008a9733          	sll	a4,s5,s0
    1114:	00492c03          	lw	s8,4(s2)
    1118:	00f777b3          	and	a5,a4,a5
    111c:	02079263          	bnez	a5,1140 <__call_exitprocs+0xf4>
    1120:	000680e7          	jalr	a3
    1124:	00492703          	lw	a4,4(s2)
    1128:	148a2783          	lw	a5,328(s4)
    112c:	01871463          	bne	a4,s8,1134 <__call_exitprocs+0xe8>
    1130:	f92784e3          	beq	a5,s2,10b8 <__call_exitprocs+0x6c>
    1134:	f80788e3          	beqz	a5,10c4 <__call_exitprocs+0x78>
    1138:	00078913          	mv	s2,a5
    113c:	f5dff06f          	j	1098 <__call_exitprocs+0x4c>
    1140:	18c92783          	lw	a5,396(s2)
    1144:	0844a583          	lw	a1,132(s1)
    1148:	00f77733          	and	a4,a4,a5
    114c:	00071c63          	bnez	a4,1164 <__call_exitprocs+0x118>
    1150:	000b0513          	mv	a0,s6
    1154:	000680e7          	jalr	a3
    1158:	fcdff06f          	j	1124 <__call_exitprocs+0xd8>
    115c:	00892223          	sw	s0,4(s2)
    1160:	fa9ff06f          	j	1108 <__call_exitprocs+0xbc>
    1164:	00058513          	mv	a0,a1
    1168:	000680e7          	jalr	a3
    116c:	fb9ff06f          	j	1124 <__call_exitprocs+0xd8>

00001170 <__libc_fini_array>:
    1170:	ff010113          	addi	sp,sp,-16
    1174:	00812423          	sw	s0,8(sp)
    1178:	00000413          	li	s0,0
    117c:	00000793          	li	a5,0
    1180:	408787b3          	sub	a5,a5,s0
    1184:	00912223          	sw	s1,4(sp)
    1188:	00112623          	sw	ra,12(sp)
    118c:	4027d493          	srai	s1,a5,0x2
    1190:	02048063          	beqz	s1,11b0 <__libc_fini_array+0x40>
    1194:	ffc78793          	addi	a5,a5,-4
    1198:	00878433          	add	s0,a5,s0
    119c:	00042783          	lw	a5,0(s0)
    11a0:	fff48493          	addi	s1,s1,-1
    11a4:	ffc40413          	addi	s0,s0,-4
    11a8:	000780e7          	jalr	a5
    11ac:	fe0498e3          	bnez	s1,119c <__libc_fini_array+0x2c>
    11b0:	00c12083          	lw	ra,12(sp)
    11b4:	00812403          	lw	s0,8(sp)
    11b8:	00412483          	lw	s1,4(sp)
    11bc:	01010113          	addi	sp,sp,16
    11c0:	00008067          	ret

000011c4 <atexit>:
    11c4:	00050593          	mv	a1,a0
    11c8:	00000693          	li	a3,0
    11cc:	00000613          	li	a2,0
    11d0:	00000513          	li	a0,0
    11d4:	0040006f          	j	11d8 <__register_exitproc>

000011d8 <__register_exitproc>:
    11d8:	000087b7          	lui	a5,0x8
    11dc:	9907a703          	lw	a4,-1648(a5) # 7990 <_etext>
    11e0:	14872783          	lw	a5,328(a4)
    11e4:	04078c63          	beqz	a5,123c <__register_exitproc+0x64>
    11e8:	0047a703          	lw	a4,4(a5)
    11ec:	01f00813          	li	a6,31
    11f0:	06e84e63          	blt	a6,a4,126c <__register_exitproc+0x94>
    11f4:	00271813          	slli	a6,a4,0x2
    11f8:	02050663          	beqz	a0,1224 <__register_exitproc+0x4c>
    11fc:	01078333          	add	t1,a5,a6
    1200:	08c32423          	sw	a2,136(t1)
    1204:	1887a883          	lw	a7,392(a5)
    1208:	00100613          	li	a2,1
    120c:	00e61633          	sll	a2,a2,a4
    1210:	00c8e8b3          	or	a7,a7,a2
    1214:	1917a423          	sw	a7,392(a5)
    1218:	10d32423          	sw	a3,264(t1)
    121c:	00200693          	li	a3,2
    1220:	02d50463          	beq	a0,a3,1248 <__register_exitproc+0x70>
    1224:	00170713          	addi	a4,a4,1
    1228:	00e7a223          	sw	a4,4(a5)
    122c:	010787b3          	add	a5,a5,a6
    1230:	00b7a423          	sw	a1,8(a5)
    1234:	00000513          	li	a0,0
    1238:	00008067          	ret
    123c:	14c70793          	addi	a5,a4,332
    1240:	14f72423          	sw	a5,328(a4)
    1244:	fa5ff06f          	j	11e8 <__register_exitproc+0x10>
    1248:	18c7a683          	lw	a3,396(a5)
    124c:	00170713          	addi	a4,a4,1
    1250:	00e7a223          	sw	a4,4(a5)
    1254:	00c6e633          	or	a2,a3,a2
    1258:	18c7a623          	sw	a2,396(a5)
    125c:	010787b3          	add	a5,a5,a6
    1260:	00b7a423          	sw	a1,8(a5)
    1264:	00000513          	li	a0,0
    1268:	00008067          	ret
    126c:	fff00513          	li	a0,-1
    1270:	00008067          	ret

00001274 <__divsi3>:
    1274:	06054063          	bltz	a0,12d4 <__umodsi3+0x10>
    1278:	0605c663          	bltz	a1,12e4 <__umodsi3+0x20>

0000127c <__udivsi3>:
    127c:	00058613          	mv	a2,a1
    1280:	00050593          	mv	a1,a0
    1284:	fff00513          	li	a0,-1
    1288:	02060c63          	beqz	a2,12c0 <__udivsi3+0x44>
    128c:	00100693          	li	a3,1
    1290:	00b67a63          	bgeu	a2,a1,12a4 <__udivsi3+0x28>
    1294:	00c05863          	blez	a2,12a4 <__udivsi3+0x28>
    1298:	00161613          	slli	a2,a2,0x1
    129c:	00169693          	slli	a3,a3,0x1
    12a0:	feb66ae3          	bltu	a2,a1,1294 <__udivsi3+0x18>
    12a4:	00000513          	li	a0,0
    12a8:	00c5e663          	bltu	a1,a2,12b4 <__udivsi3+0x38>
    12ac:	40c585b3          	sub	a1,a1,a2
    12b0:	00d56533          	or	a0,a0,a3
    12b4:	0016d693          	srli	a3,a3,0x1
    12b8:	00165613          	srli	a2,a2,0x1
    12bc:	fe0696e3          	bnez	a3,12a8 <__udivsi3+0x2c>
    12c0:	00008067          	ret

000012c4 <__umodsi3>:
    12c4:	00008293          	mv	t0,ra
    12c8:	fb5ff0ef          	jal	ra,127c <__udivsi3>
    12cc:	00058513          	mv	a0,a1
    12d0:	00028067          	jr	t0 # 1024 <memset+0xb4>
    12d4:	40a00533          	neg	a0,a0
    12d8:	00b04863          	bgtz	a1,12e8 <__umodsi3+0x24>
    12dc:	40b005b3          	neg	a1,a1
    12e0:	f9dff06f          	j	127c <__udivsi3>
    12e4:	40b005b3          	neg	a1,a1
    12e8:	00008293          	mv	t0,ra
    12ec:	f91ff0ef          	jal	ra,127c <__udivsi3>
    12f0:	40a00533          	neg	a0,a0
    12f4:	00028067          	jr	t0

000012f8 <__modsi3>:
    12f8:	00008293          	mv	t0,ra
    12fc:	0005ca63          	bltz	a1,1310 <__modsi3+0x18>
    1300:	00054c63          	bltz	a0,1318 <__modsi3+0x20>
    1304:	f79ff0ef          	jal	ra,127c <__udivsi3>
    1308:	00058513          	mv	a0,a1
    130c:	00028067          	jr	t0
    1310:	40b005b3          	neg	a1,a1
    1314:	fe0558e3          	bgez	a0,1304 <__modsi3+0xc>
    1318:	40a00533          	neg	a0,a0
    131c:	f61ff0ef          	jal	ra,127c <__udivsi3>
    1320:	40b00533          	neg	a0,a1
    1324:	00028067          	jr	t0

00001328 <_exit>:
    1328:	00000593          	li	a1,0
    132c:	00000613          	li	a2,0
    1330:	00000693          	li	a3,0
    1334:	00000713          	li	a4,0
    1338:	00000793          	li	a5,0
    133c:	05d00893          	li	a7,93
    1340:	00000073          	ecall
    1344:	00054463          	bltz	a0,134c <_exit+0x24>
    1348:	0000006f          	j	1348 <_exit+0x20>
    134c:	ff010113          	addi	sp,sp,-16
    1350:	00812423          	sw	s0,8(sp)
    1354:	00050413          	mv	s0,a0
    1358:	00112623          	sw	ra,12(sp)
    135c:	40800433          	neg	s0,s0
    1360:	00c000ef          	jal	ra,136c <__errno>
    1364:	00852023          	sw	s0,0(a0)
    1368:	0000006f          	j	1368 <_exit+0x40>

0000136c <__errno>:
    136c:	000097b7          	lui	a5,0x9
    1370:	dc87a503          	lw	a0,-568(a5) # 8dc8 <_impure_ptr>
    1374:	00008067          	ret
    1378:	7672                	flw	fa2,60(sp)
    137a:	63693233          	0x63693233
    137e:	4020                	lw	s0,64(s0)
    1380:	3031                	jal	b8c <main+0x12c>
    1382:	4d30                	lw	a2,88(a0)
    1384:	7a68                	flw	fa0,116(a2)
	...

00001390 <_ZL10spritedata>:
    1390:	01ff 0101 0101 0101 0101 0101 0101 0101     ................
    13a0:	5e01 5e5e 5e5e 5e5e 5e5e 5e5e 5e5e 5e5e     .^^^^^^^^^^^^^^^
    13b0:	5e01 4c5e 4c4c 4c4c 4c4c 4c4c 4c4c 4c4c     .^^LLLLLLLLLLLLL
    13c0:	5e01 4c4c 4c4a 4c4c 4c4c 4c4a 4c4c 4c4c     .^LLJLLLLLJLLLLL
    13d0:	4a01 4c4c 4c09 4c4c 4c4c 4c09 4a4c 4c4c     .JLL.LLLLL.LLJLL
    13e0:	09ff 4c4c 4c09 4a4c 4c4c 4c09 094c 4c4c     ..LL.LLJLL.LL.LL
    13f0:	09ff 4c4c 4c09 094c 4c4c 4a09 094a 4c4c     ..LL.LL.LL.JJ.LL
    1400:	09ff 4c4c 4a09 094a 4c4c 0909 0909 4a4a     ..LL.JJ.LL....JJ
    1410:	09ff 4c4c 0909 0909 4a4a 1909 1919 0909     ..LL....JJ......
    1420:	09ff 4a4a 1909 1919 0909 1919 1919 1919     ..JJ............
    1430:	09ff 0909 1919 1919 1919 2219 1922 1919     ...........""...
    1440:	09ff 1919 2219 2222 1919 2222 2222 2222     ....."""..""""""
    1450:	09ff 1919 2222 2222 2222 2219 2222 2222     ....""""""."""""
    1460:	09ff 2222 2222 7522 2275 2222 2222 2222     .."""""uu"""""""
    1470:	09ff 2222 2219 7522 2275 2222 1919 2222     .."".""uu"""..""
    1480:	09ff 2222 2222 2222 2222 2222 1919 2222     ..""""""""""..""
    1490:	09ff 2219 2222 2222 2222 2222 2222 2222     ..."""""""""""""
    14a0:	09ff 2222 2222 1922 2219 2222 2222 2222     ..""""".."""""""
    14b0:	09ff 2222 7575 1922 2219 2222 2222 2222     ..""uu".."""""""
    14c0:	09ff 2222 7575 2222 2222 2222 2222 2222     ..""uu""""""""""
    14d0:	09ff 2222 2222 2222 2222 2222 2222 2222     ..""""""""""""""
    14e0:	09ff 2222 2222 2222 2222 2222 2222 2222     ..""""""""""""""
    14f0:	09ff 1919 2222 2222 2222 2222 2222 2222     ....""""""""""""
    1500:	09ff 1919 2222 2275 2222 2222 2222 2222     ....""u"""""""""
    1510:	09ff 2222 2222 2222 2222 2222 2222 2222     ..""""""""""""""
    1520:	09ff 2222 2222 2222 2222 2222 2222 2222     ..""""""""""""""
    1530:	09ff 7522 2222 1922 2222 2222 2222 2222     .."u""".""""""""
    1540:	09ff 2222 2222 2222 2222 2222 2222 2222     ..""""""""""""""
    1550:	09ff 2222 2222 2222 2222 2222 2222 2222     ..""""""""""""""
    1560:	09ff 2222 7522 2275 2222 2222 2222 2222     .."""uu"""""""""
    1570:	09ff 1922 7522 2275 2222 2222 2222 2222     .."."uu"""""""""
    1580:	09ff 2222 2222 2222 2222 2222 2222 2222     ..""""""""""""""
    1590:	09ff 2219 2222 2222 2222 2222 2222 2222     ..."""""""""""""
    15a0:	09ff 2222 2222 2222 2222 2222 2222 2222     ..""""""""""""""
    15b0:	09ff 2222 1919 2222 2222 2222 2222 2222     ..""..""""""""""
    15c0:	09ff 2222 1919 2222 2222 2222 2222 2222     ..""..""""""""""
    15d0:	09ff 2222 2222 2222 2222 2222 2222 2222     ..""""""""""""""
    15e0:	09ff 2222 2222 2222 2222 2222 2222 2222     ..""""""""""""""
    15f0:	09ff 7575 2222 2222 2222 2222 2222 2222     ..uu""""""""""""
    1600:	09ff 7575 2222 2275 2222 2222 2222 2222     ..uu""u"""""""""
    1610:	09ff 2222 2222 2222 2222 2222 1922 2222     ..""""""""""".""
    1620:	09ff 2222 2222 2222 2222 1919 2222 2222     ..""""""""..""""
    1630:	09ff 1922 2222 1922 2222 1919 2222 2222     ..".""".""..""""
    1640:	09ff 2222 2222 2222 2222 2222 2222 2222     ..""""""""""""""
    1650:	09ff 2222 1922 2219 2222 2275 7522 2222     ..""".."""u""u""
    1660:	09ff 7522 1922 2219 2222 2222 2222 2222     .."u".."""""""""
    1670:	09ff 2222 2222 2222 2222 2222 2222 2222     ..""""""""""""""
    1680:	ffff 0909 0909 0909 0909 0909 0909 0909     ................
    1690:	ffff 09ff ff09 ffff ffff 09ff ff09 ffff     ................
    16a0:	ffff 7509 0975 ffff ffff 7509 0975 ffff     ...uu......uu...
    16b0:	ffff 2209 0922 ffff ffff 2209 0922 ffff     ...""......""...
    16c0:	09ff 0909 0909 0909 0909 0909 0909 ff09     ................
    16d0:	7509 7522 2275 7575 7522 7522 7575 0975     .u"uu"uu"u"uuuu.
    16e0:	2209 0922 2222 2222 2222 2222 2209 0922     ."".""""""""."".
    16f0:	1909 1919 1919 1919 1919 1919 1919 0919     ................
    1700:	09ff 0909 0909 0909 0909 0909 0909 ff09     ................
    1710:	ffff 1909 0919 ffff ffff 1909 0919 ffff     ................
    1720:	ffff 1909 0919 ffff ffff 1909 0919 ffff     ................
    1730:	09ff 0909 0909 0909 0909 0909 0909 ff09     ................
    1740:	7509 7522 2275 7575 2275 7575 7522 0975     .u"uu"uuu"uu"uu.
    1750:	2209 0922 2222 2222 2222 2222 2209 0922     ."".""""""""."".
    1760:	1909 1919 1919 1919 1919 1919 1919 0919     ................
    1770:	09ff 0909 0909 0909 0909 0909 0909 ff09     ................
    1780:	ffff 1909 0919 ffff ffff 1909 0919 ffff     ................
    1790:	ffff 1909 0919 ffff ffff 1909 0919 ffff     ................
    17a0:	ffff 1909 0919 ffff ffff 1909 0919 ffff     ................
    17b0:	09ff 0909 0909 0909 0909 0909 0909 ff09     ................
    17c0:	7509 7522 7575 2275 2275 7575 2275 0975     .u"uuuu"u"uuu"u.
    17d0:	2209 0922 2222 2222 2222 2222 2209 0922     ."".""""""""."".
    17e0:	1909 1919 1919 1919 1919 1919 1919 0919     ................
    17f0:	09ff 0909 0909 0909 0909 0909 0909 ff09     ................
    1800:	ffff 1909 0919 ffff ffff 1909 0919 ffff     ................
    1810:	ffff 1909 0919 ffff ffff 1909 0919 ffff     ................
    1820:	09ff 0909 0909 0909 0909 0909 0909 ff09     ................
    1830:	7509 7522 7522 2275 7575 7575 7522 0975     .u"u"uu"uuuu"uu.
    1840:	2209 0922 2222 2222 2222 2222 2209 0922     ."".""""""""."".
    1850:	1909 1919 1919 1919 1919 1919 1919 0919     ................
    1860:	09ff 0909 0909 0909 0909 0909 0909 ff09     ................
    1870:	ffff 1909 0919 ffff ffff 1909 0919 ffff     ................
    1880:	ffff 1909 0919 ffff ffff 1909 0919 ffff     ................
    1890:	ffff 1909 0919 ffff ffff 1909 0919 ffff     ................
    18a0:	09ff 0909 0909 0909 0909 0909 0909 ff09     ................
    18b0:	7509 7522 2275 7575 7522 7522 7575 0975     .u"uu"uu"u"uuuu.
    18c0:	2209 0922 2222 2222 2222 2222 2209 0922     ."".""""""""."".
    18d0:	1909 1919 1919 1919 1919 1919 1919 0919     ................
    18e0:	09ff 0909 0909 0909 0909 0909 0909 ff09     ................
    18f0:	ffff 1909 0919 ffff ffff 1909 0919 ffff     ................
    1900:	ffff 1909 0919 ffff ffff 1909 0919 ffff     ................
    1910:	09ff 0909 0909 0909 0909 0909 0909 ff09     ................
    1920:	7509 7522 2275 7575 2275 7575 7522 0975     .u"uu"uuu"uu"uu.
    1930:	2209 0922 2222 2222 2222 2222 2209 0922     ."".""""""""."".
    1940:	1909 1919 1919 1919 1919 1919 1919 0919     ................
    1950:	09ff 0909 0909 0909 0909 0909 0909 ff09     ................
    1960:	ffff 1909 0919 ffff ffff 1909 0919 ffff     ................
    1970:	ffff 1909 0919 ffff ffff 1909 0919 ffff     ................
    1980:	ffff 09ff ff09 ffff ffff 09ff ff09 ffff     ................
    1990:	ffff 0909 0909 0909 0909 0909 0909 0909     ................
    19a0:	09ff 7dbe bebe be7d be7d be7d 7dbe 09be     ...}..}.}.}..}..
    19b0:	be09 7d7d 6b6b 6b6b 6b6b 6b6b 6b6b 196b     ..}}kkkkkkkkkkk.
    19c0:	7d09 6b7d 6b6b 6b6b 6b6b 6b6b 6b6b 1919     .}}kkkkkkkkkkk..
    19d0:	be09 6b7d 6b6b 6b6b 6b6b 6b6b 6b6b 1919     ..}kkkkkkkkkkk..
    19e0:	be09 6b6b 6b6b 6b6b 6b6b 6b6b 196b 1919     ..kkkkkkkkkkk...
    19f0:	0909 1919 1919 1919 1919 1919 1919 0919     ................
    1a00:	0909 0909 0909 0909 0909 0909 0909 0909     ................
    1a10:	0909 bebe be7d 0909 be09 be7d bebe bebe     ....}.....}.....
    1a20:	be09 6b6b 6b6b 0919 7dbe 6b7d 6b6b 6b6b     ..kkkk...}}kkkkk
    1a30:	7d09 6b6b 6b6b 0919 7d7d 6b6b 6b6b 6b6b     .}kkkk..}}kkkkkk
    1a40:	be09 6b6b 6b6b 0919 6bbe 6b6b 6b6b 6b6b     ..kkkk...kkkkkkk
    1a50:	7d09 6b6b 196b 0919 6b7d 6b6b 6b6b 6b6b     .}kkk...}kkkkkkk
    1a60:	be09 6b6b 1919 0919 6bbe 6b6b 6b6b 6b6b     ..kk.....kkkkkkk
    1a70:	09ff 1919 1919 0909 1909 1919 1919 1919     ................
    1a80:	ffff 0909 0909 0909 0909 0909 0909 0909     ................
    1a90:	09ff 0909 0909 0909 0909 0909 0909 ff09     ................
    1aa0:	7509 2275 7575 7522 7575 7522 7522 0975     .uu"uu"uuu"u"uu.
    1ab0:	7509 2209 2222 2222 2222 2222 0922 0922     .u."""""""""".".
    1ac0:	7509 0922 0909 0909 0909 0909 2209 0919     .u".........."..
    1ad0:	2209 0922 7575 2275 7575 7522 2209 0919     ."".uuu"uu"u."..
    1ae0:	7509 0922 1919 1919 1919 1919 2209 0919     .u".........."..
    1af0:	2209 0922 0909 0909 0909 0909 2209 0919     ."".........."..
    1b00:	7509 0922 7575 7522 2222 2222 2209 0919     .u".uu"u""""."..
    1b10:	7509 0922 1919 1919 1919 1919 2209 0919     .u".........."..
    1b20:	2209 0922 0909 0909 0909 0909 2209 0919     ."".........."..
    1b30:	7509 0922 7575 2275 7575 2222 2209 0919     .u".uuu"uu""."..
    1b40:	7509 0922 1919 1919 1919 1919 2209 0919     .u".........."..
    1b50:	7509 0922 0909 0909 0909 0909 2209 0919     .u".........."..
    1b60:	2209 2209 7575 2275 7575 7522 0922 0919     ."."uuu"uu"u"...
    1b70:	7509 1922 1919 1919 1919 1919 1919 0919     .u".............
    1b80:	09ff 0909 0909 0909 0909 0909 0909 ff09     ................
    1b90:	0101 0101 0101 0101 0101 0101 0101 0101     ................
    1ba0:	5e5e 5e5e 5e5e 5e5e 5e5e 5e5e 5e5e 5e5e     ^^^^^^^^^^^^^^^^
    1bb0:	4c4c 4c4c 4c4c 4c4c 4c4c 4c4c 4c4c 4c4c     LLLLLLLLLLLLLLLL
    1bc0:	4c4c 4c4c 4a4c 4c4c 4c4c 4a4c 4c4c 4c4c     LLLLLJLLLLLJLLLL
    1bd0:	4c4c 4c4a 094c 4c4c 4c4c 094c 4c4c 4c4a     LLJLL.LLLLL.LLJL
    1be0:	4c4c 4c09 094c 4c4c 4c4a 094c 4c4c 4c09     LL.LL.LLJLL.LL.L
    1bf0:	4c4c 4c09 094c 4c4c 4c09 094c 4a4a 4c09     LL.LL.LL.LL.JJ.L
    1c00:	4a4a 4c09 094c 4a4a 4c09 094c 0909 4a09     JJ.LL.JJ.LL....J
    1c10:	0909 4c09 094c 0909 4a09 094a 1919 0919     ...LL....JJ.....
    1c20:	1919 4a09 094a 1919 0919 1909 1919 1919     ...JJ...........
    1c30:	1919 0919 1909 1919 1919 1919 2222 1919     ............""..
    1c40:	2222 1919 1919 2222 1922 2219 2222 2222     ""....""".."""""
    1c50:	1919 2222 2222 1922 2222 2219 2222 2222     ..""""".""."""""
    1c60:	1919 2222 2275 2222 2222 2222 2222 2222     ..""u"""""""""""
    1c70:	2222 2222 2222 7522 2275 2222 1919 2222     """""""uu"""..""
    1c80:	7522 2222 2219 7522 2275 2222 1919 2222     "u"".""uu"""..""
    1c90:	2222 2222 2222 2222 2222 2222 2222 2222     """"""""""""""""
    1ca0:	2222 2222 2222 2222 2222 2222 2222 2222     """"""""""""""""
    1cb0:	2222 2222 2222 2222 2222 2222 2222 2222     """"""""""""""""
    1cc0:	2222 2222 2222 2222 2222 2222 2222 2222     """"""""""""""""
    1cd0:	2222 2222 2222 2222 2222 2222 2222 2222     """"""""""""""""
    1ce0:	2222 2222 2222 2222 2222 2222 2222 2222     """"""""""""""""
    1cf0:	2222 2222 2222 2222 2222 2222 2222 2222     """"""""""""""""
    1d00:	2222 2222 2222 2222 2222 2222 2222 2222     """"""""""""""""
    1d10:	2222 2222 2222 2222 2222 2222 2222 2222     """"""""""""""""
    1d20:	2222 2222 2222 2222 2222 2222 2222 2222     """"""""""""""""
    1d30:	2222 2222 2222 2222 2222 2222 2222 2222     """"""""""""""""
    1d40:	2222 2222 2222 2222 2222 2222 2222 2222     """"""""""""""""
    1d50:	2222 2222 2222 2222 2222 2222 2222 2222     """"""""""""""""
    1d60:	2222 2222 2222 2222 2222 2222 2222 2222     """"""""""""""""
    1d70:	2222 2222 2222 2222 2222 2222 2222 2222     """"""""""""""""
    1d80:	2222 2222 2222 2222 2222 2222 2222 2222     """"""""""""""""
    1d90:	2222 2222 2222 2222 2222 2222 2222 2222     """"""""""""""""
    1da0:	2222 2222 2222 2222 2222 2222 2222 2222     """"""""""""""""
    1db0:	2222 2222 2222 2222 2222 2222 2222 2222     """"""""""""""""
    1dc0:	2222 2222 2222 2222 2222 2222 2222 2222     """"""""""""""""
    1dd0:	2222 2222 2222 2222 2222 2222 2222 2222     """"""""""""""""
    1de0:	2222 2222 2222 2222 2222 2222 2222 2222     """"""""""""""""
    1df0:	2222 2222 2222 2222 2222 2222 2222 2222     """"""""""""""""
    1e00:	2222 2222 2222 2222 2222 2222 2222 2222     """"""""""""""""
    1e10:	2222 2222 2222 2222 2222 2222 1922 2222     """"""""""""".""
    1e20:	2275 2222 2222 2222 7522 2275 2222 2222     u""""""""uu"""""
    1e30:	2222 2222 1919 2222 7522 2275 2222 2222     """".."""uu"""""
    1e40:	2222 2222 1919 2222 2222 2222 2222 2222     """"..""""""""""
    1e50:	7575 2222 2222 2222 1922 2222 7522 2222     uu"""""""."""u""
    1e60:	7575 2222 2222 1922 2222 2222 2222 2222     uu""""".""""""""
    1e70:	2222 2222 2222 2222 2222 2222 2222 2222     """"""""""""""""
    1e80:	0909 0909 0909 0909 0909 0909 0909 0909     ................
    1e90:	ffff ffff ffff ffff ffff ffff ffff ffff     ................
    1ea0:	ffff ffff 01ff ff01 ffff ffff ffff ffff     ................
    1eb0:	ffff ffff 5e01 014c ffff ffff ffff ffff     .....^L.........
    1ec0:	ffff ffff 4c01 4a4c ff01 01ff ff01 ffff     .....LLJ........
    1ed0:	ffff ffff 01ff 0101 014c 4a01 014c ffff     ........L..JL...
    1ee0:	ffff ffff ffff 01ff 014c 4c4a 015e ffff     ........L.JL^...
    1ef0:	ffff ffff ffff 01ff 014c 4c4a 015e ffff     ........L.JL^...
    1f00:	ffff ffff ffff 01ff 014c 5e4a 015e ffff     ........L.J^^...
    1f10:	ffff ffff ffff 01ff 014c 5e4a ff01 ffff     ........L.J^....
    1f20:	ffff 01ff ff01 01ff 014c 0101 ffff ffff     ........L.......
    1f30:	ffff 4c01 014a 01ff 014c ffff ffff ffff     ...LJ...L.......
    1f40:	ffff 5e01 4a4c 0101 014c ff01 ffff ffff     ...^LJ..L.......
    1f50:	ffff 5e01 4a4c 4a4a 014c 014c ffff ffff     ...^LJJJL.L.....
    1f60:	ffff 5e01 4a5e 014a 014c 014c ffff ffff     ...^^JJ.L.L.....
    1f70:	ffff 01ff 4a5e 0101 014c ff01 ffff ffff     ....^J..L.......
    1f80:	ffff ffff 0101 01ff 014c ffff ffff ffff     ........L.......
    1f90:	ffff ffff ffff 01ff 014c 01ff ff01 ffff     ........L.......
    1fa0:	ffff ffff ffff 01ff 014c 4a01 014c ffff     ........L..JL...
    1fb0:	ffff ffff ffff 0101 014c 4c4a 015e ffff     ........L.JL^...
    1fc0:	ffff ffff 01ff 014c 014c 5e4a 015e ffff     ......L.L.J^^...
    1fd0:	ffff ffff 01ff 014c 014c 5e5e 015e ffff     ......L.L.^^^...
    1fe0:	ffff ffff ffff 0101 014c 5e4a ff01 ffff     ........L.J^....
    1ff0:	ffff ffff ffff 01ff 014c 0101 ffff ffff     ........L.......
    2000:	ffff ffff ffff 01ff 014c ffff ffff ffff     ........L.......
    2010:	ffff ffff ffff 01ff 014c ffff ffff ffff     ........L.......
    2020:	ffff 01ff ff01 01ff 014c ff01 ffff ffff     ........L.......
    2030:	ffff 4c01 014a 01ff 014c 014c ffff ffff     ...LJ...L.L.....
    2040:	ffff 5e01 4a4c 0101 014c 014c ffff ffff     ...^LJ..L.L.....
    2050:	ffff 5e01 4a5e 014a 014c ff01 ffff ffff     ...^^JJ.L.......
    2060:	ffff 5e01 5e5e 014a 014c ffff ffff ffff     ...^^^J.L.......
    2070:	ffff 01ff 4a5e 0101 014c ffff ffff ffff     ....^J..L.......
    2080:	ffff ffff 0101 01ff 014c ffff ffff ffff     ........L.......
    2090:	ffff ffff ffff 01ff 014c ffff ffff ffff     ........L.......
    20a0:	ffff ffff ffff 0101 014c 01ff ff01 ffff     ........L.......
    20b0:	ffff ffff 01ff 014c 014c 4a01 014c ffff     ......L.L..JL...
    20c0:	ffff ffff 01ff 014c 014c 4c4a 015e ffff     ......L.L.JL^...
    20d0:	ffff ffff ffff 0101 014c 4c4a 015e ffff     ........L.JL^...
    20e0:	ffff ffff ffff 01ff 014c 5e4a 015e ffff     ........L.J^^...
    20f0:	ffff 01ff ff01 01ff 014c 5e4a ff01 ffff     ........L.J^....
    2100:	ffff 4c01 014a 01ff 014c 0101 ffff ffff     ...LJ...L.......
    2110:	ffff 5e01 4a4c 0101 014c ffff ffff ffff     ...^LJ..L.......
    2120:	ffff 5e01 4a4c 014a 014c ffff ffff ffff     ...^LJJ.L.......
    2130:	ffff 5e01 4a5e 014a 014c ff01 ffff ffff     ...^^JJ.L.......
    2140:	ffff 01ff 4a5e 4a01 014c 014c ffff ffff     ....^J.JL.L.....
    2150:	ffff ffff 0101 01ff 014c 014c ffff ffff     ........L.L.....
    2160:	ffff ffff ffff 01ff 014c ff01 ffff ffff     ........L.......
    2170:	ffff ffff ffff 01ff 014c ffff ffff ffff     ........L.......
    2180:	ffff ffff ffff 4c01 4c4c ff01 ffff ffff     .......LLL......
    2190:	0909 0909 0909 0909 0909 0909 0909 0909     ................
    21a0:	0909 7dbe bebe be7d be7d be7d 7dbe 09be     ...}..}.}.}..}..
    21b0:	be09 7d7d 6b6b 6b6b 6b6b 6b6b 6b6b 196b     ..}}kkkkkkkkkkk.
    21c0:	7d09 6b7d 6b6b 6b6b 6b6b 6b6b 6b6b 1919     .}}kkkkkkkkkkk..
    21d0:	be09 6b7d 6b6b 6b6b 6b6b 6b6b 6b6b 1919     ..}kkkkkkkkkkk..
    21e0:	be09 6b6b 6b6b 6b6b 6b6b 6b6b 196b 1919     ..kkkkkkkkkkk...
    21f0:	0909 1919 1919 1919 1919 1919 1919 0919     ................
    2200:	0909 0909 0909 0909 0909 0909 0909 0909     ................
    2210:	7dbe bebe be7d 0909 be09 be7d bebe bebe     .}..}.....}.....
    2220:	6b6b 6b6b 6b6b 0919 7dbe 6b7d 6b6b 6b6b     kkkkkk...}}kkkkk
    2230:	6b6b 6b6b 6b6b 0919 7d7d 6b6b 6b6b 6b6b     kkkkkk..}}kkkkkk
    2240:	6b6b 6b6b 6b6b 0919 6bbe 6b6b 6b6b 6b6b     kkkkkk...kkkkkkk
    2250:	6b6b 6b6b 196b 0919 6b7d 6b6b 6b6b 6b6b     kkkkk...}kkkkkkk
    2260:	6b6b 6b6b 1919 0919 6bbe 6b6b 6b6b 6b6b     kkkk.....kkkkkkk
    2270:	1919 1919 1919 0909 1909 1919 1919 1919     ................
    2280:	0909 0909 0909 0909 0909 0909 0909 0909     ................
    2290:	09ff 0909 0909 0909 0909 0909 0909 ff09     ................
    22a0:	7509 2275 7575 7522 7575 7522 7522 0975     .uu"uu"uuu"u"uu.
    22b0:	7509 2209 2222 2222 2222 2222 0922 0922     .u."""""""""".".
    22c0:	7509 0922 0909 0909 0909 0909 2209 0919     .u".........."..
    22d0:	2209 0922 7575 0922 7575 2275 2209 0919     ."".uu".uuu"."..
    22e0:	7509 0922 2275 0919 2275 1922 2209 0919     .u".u"..u"".."..
    22f0:	2209 0922 2222 0919 2275 1922 2209 0919     ."".""..u"".."..
    2300:	7509 0922 2275 0919 2222 1922 2209 0919     .u".u"..""".."..
    2310:	7509 0922 2275 0919 2275 1922 2209 0919     .u".u"..u"".."..
    2320:	2209 0922 2275 0919 2222 1922 2209 0919     ."".u"..""".."..
    2330:	7509 0922 2222 0919 2275 1922 2209 0919     .u".""..u"".."..
    2340:	7509 0922 2275 0919 2275 1922 2209 0919     .u".u"..u"".."..
    2350:	7509 0922 0909 0909 0909 0909 2209 0919     .u".........."..
    2360:	2209 2209 7575 2275 7575 7522 0922 0919     ."."uuu"uu"u"...
    2370:	7509 1922 1919 1919 1919 1919 1919 0919     .u".............
    2380:	09ff 0909 0909 0909 0909 0909 0909 ff09     ................
    2390:	0101 0101 0101 0101 0101 0101 0101 ff01     ................
    23a0:	5e5e 5e5e 5e5e 5e5e 5e5e 5e5e 5e5e 015e     ^^^^^^^^^^^^^^^.
    23b0:	4c4c 4c4c 4c4c 4c4c 4c4c 4c4c 5e4c 015e     LLLLLLLLLLLLL^^.
    23c0:	4c4c 4c4c 4a4c 4c4c 4c4c 4a4c 4c4c 015e     LLLLLJLLLLLJLL^.
    23d0:	4c4c 4c4a 094c 4c4c 4c4c 094c 4c4c 014a     LLJLL.LLLLL.LLJ.
    23e0:	4c4c 4c09 094c 4c4c 4c4a 094c 4c4c ff09     LL.LL.LLJLL.LL..
    23f0:	4c4c 4c09 094c 4c4c 4c09 094c 4a4a ff09     LL.LL.LL.LL.JJ..
    2400:	4a4a 4c09 094c 4a4a 4c09 094c 0909 ff09     JJ.LL.JJ.LL.....
    2410:	0909 4c09 094c 0909 4a09 094a 1919 ff09     ...LL....JJ.....
    2420:	1919 4a09 094a 1919 0919 1909 1919 ff09     ...JJ...........
    2430:	1919 0919 1909 1919 1919 1919 2222 ff09     ............""..
    2440:	2222 1919 1919 2222 1922 2219 2222 ff09     ""....""".."""..
    2450:	7575 2222 2222 2222 2222 2222 2222 ff09     uu""""""""""""..
    2460:	7575 2222 2219 7522 2222 7522 2275 ff09     uu"".""u"""uu"..
    2470:	2222 2222 2222 2222 2222 7522 2275 ff09     """""""""""uu"..
    2480:	7522 2222 2219 2222 2222 2222 2222 ff09     "u""."""""""""..
    2490:	2222 2222 2222 2222 2222 2222 1922 ff09     """""""""""""...
    24a0:	2222 2222 2222 2222 2219 2222 2222 ff09     """"""""."""""..
    24b0:	2222 2222 2222 2222 2222 7575 2222 ff09     """"""""""uu""..
    24c0:	2222 2222 2222 2222 2222 7575 2222 ff09     """"""""""uu""..
    24d0:	2222 2222 2222 1919 2222 2222 2222 ff09     """"""..""""""..
    24e0:	2222 2222 2222 1919 2222 2222 2222 ff09     """"""..""""""..
    24f0:	2222 2222 2222 2222 2222 2222 1919 ff09     """"""""""""....
    2500:	2222 2222 2222 2222 7522 2222 1919 ff09     """""""""u""....
    2510:	2222 2222 2222 2222 2222 2222 2222 ff09     """"""""""""""..
    2520:	2222 2222 2222 2222 2222 2222 2222 ff09     """"""""""""""..
    2530:	2222 2222 2222 2222 2219 2222 2275 ff09     """"""""."""u"..
    2540:	2222 2222 2222 2222 2222 2222 2222 ff09     """"""""""""""..
    2550:	2222 2222 2222 2222 2222 2222 2222 ff09     """"""""""""""..
    2560:	2222 2222 2222 2222 7522 2275 2222 ff09     """""""""uu"""..
    2570:	2222 2222 2222 2222 7522 2275 2219 ff09     """""""""uu"."..
    2580:	2222 2222 2222 2222 2222 2222 2222 ff09     """"""""""""""..
    2590:	2222 2222 2222 2222 2222 2222 1922 ff09     """""""""""""...
    25a0:	2222 2222 2222 2222 2222 2222 2222 ff09     """"""""""""""..
    25b0:	2222 2222 2222 2222 2222 1919 2222 ff09     """"""""""..""..
    25c0:	2222 2222 2222 2222 2222 1919 2222 ff09     """"""""""..""..
    25d0:	2222 2222 2222 2222 2222 2222 2222 ff09     """"""""""""""..
    25e0:	2222 2222 2222 2222 2222 2222 2222 ff09     """"""""""""""..
    25f0:	2222 2222 2222 2222 2222 2222 7575 ff09     """"""""""""uu..
    2600:	2222 2222 1922 2219 7522 2222 7575 ff09     """""..""u""uu..
    2610:	2222 2222 1922 2219 2222 2222 2222 ff09     """"".."""""""..
    2620:	2275 2222 2222 2222 2222 2222 2222 ff09     u"""""""""""""..
    2630:	2222 2222 7575 2222 2219 2222 2219 ff09     """"uu""."""."..
    2640:	2222 2222 7575 2222 2222 2222 2222 ff09     """"uu""""""""..
    2650:	1919 2222 2222 2222 1922 2219 2222 ff09     ..""""""".."""..
    2660:	1919 2222 2222 1922 1922 2219 2275 ff09     ..""""".".."u"..
    2670:	2222 2222 2222 2222 2222 2222 2222 ff09     """"""""""""""..
    2680:	0909 0909 0909 0909 0909 0909 0909 ffff     ................
    2690:	ffff ffff 01ff 0101 0101 ff01 ffff ffff     ................
    26a0:	ffff ffff 5e01 5e5e 5e5e 014a ffff ffff     .....^^^^^J.....
    26b0:	ffff 01ff 5e5e 4c4c 4c4c 4a4a ff01 ffff     ....^^LLLLJJ....
    26c0:	ffff 5e01 5e5e 4c4c 4c4c 4a4c 014a ffff     ...^^^LLLLLJJ...
    26d0:	ffff 5e01 4c5e 4c4c 4c4c 4c4c 014a ffff     ...^^LLLLLLLJ...
    26e0:	ffff 5e01 4c5e 4c4c 4c4c 4c4c 014a ffff     ...^^LLLLLLLJ...
    26f0:	ffff 5e01 4c4c 4c4c 4c4c 4c4c 014a ffff     ...^LLLLLLLLJ...
    2700:	ffff 5e01 4c4c 4c4c 4c4c 4c4c 014a ffff     ...^LLLLLLLLJ...
    2710:	ffff 5e01 4c4c 4c4c 4c4c 4c4c 014a ffff     ...^LLLLLLLLJ...
    2720:	ffff 01ff 4c5e 4c4c 4c4c 4a4c ff01 ffff     ....^LLLLLLJ....
    2730:	ffff 5e01 4c4c 4c4c 4c4c 4c4c 014a ffff     ...^LLLLLLLLJ...
    2740:	ffff 5e01 4c4c 4c4c 4c4c 4c4c 014a ffff     ...^LLLLLLLLJ...
    2750:	ffff 5e01 4c4c 4c4c 4c4c 4c4c 014a ffff     ...^LLLLLLLLJ...
    2760:	ffff 01ff 4c5e 4c4c 4c4c 4a4c ff01 ffff     ....^LLLLLLJ....
    2770:	ffff 5e01 4c4c 4c4c 4c4c 4c4c 014a ffff     ...^LLLLLLLLJ...
    2780:	ffff 5e01 4c4c 4c4c 4c4c 4c4c 014a ffff     ...^LLLLLLLLJ...
    2790:	ffff 5e01 4c4c 4c4c 4c4c 4c4c 014a ffff     ...^LLLLLLLLJ...
    27a0:	ffff 01ff 4c5e 4c4c 4c4c 4a4c ff01 ffff     ....^LLLLLLJ....
    27b0:	ffff 5e01 4c4c 4c4c 4c4c 4c4c 014a ffff     ...^LLLLLLLLJ...
    27c0:	ffff 5e01 4c4c 4c4c 4c4c 4c4c 014a ffff     ...^LLLLLLLLJ...
    27d0:	ffff 5e01 4c4c 4c4c 4c4c 4c4c 014a ffff     ...^LLLLLLLLJ...
    27e0:	ffff 01ff 4c5e 4c4c 4c4c 4a4c ff01 ffff     ....^LLLLLLJ....
    27f0:	ffff 5e01 4c4c 4c4c 4c4c 4c4c 014a ffff     ...^LLLLLLLLJ...
    2800:	ffff 5e01 4c4c 4c4c 4c4c 4c4c 014a ffff     ...^LLLLLLLLJ...
    2810:	ffff 5e01 4c4c 4c4c 4c4c 4c4c 014a ffff     ...^LLLLLLLLJ...
    2820:	ffff 01ff 4c5e 4c4c 4c4c 4a4c ff01 ffff     ....^LLLLLLJ....
    2830:	ffff 5e01 4c4c 4c4c 4c4c 4c4c 014a ffff     ...^LLLLLLLLJ...
    2840:	ffff 5e01 4c4c 4c4c 4c4c 4c4c 014a ffff     ...^LLLLLLLLJ...
    2850:	ffff 5e01 4c4c 4c4c 4c4c 4c4c 014a ffff     ...^LLLLLLLLJ...
    2860:	ffff 01ff 4c5e 4c4c 4c4c 4a4c ff01 ffff     ....^LLLLLLJ....
    2870:	ffff 5e01 4c4c 4c4c 4c4c 4c4c 014a ffff     ...^LLLLLLLLJ...
    2880:	ffff 5e01 4c4c 4c4c 4c4c 4c4c 014a ffff     ...^LLLLLLLLJ...
    2890:	ffff 5e01 4c4c 4c4c 4c4c 4c4c 014a ffff     ...^LLLLLLLLJ...
    28a0:	ffff 5e01 4c4c 4c4c 4c4c 4c4c 014a ffff     ...^LLLLLLLLJ...
    28b0:	ffff 5e01 4c5e 4c4c 4c4c 4a4c 014a ffff     ...^^LLLLLLJJ...
    28c0:	ffff 01ff 4c5e 4c4c 4c4c 4a4a ff01 ffff     ....^LLLLLJJ....
    28d0:	ffff ffff 0101 4a4a 4a4a 0101 ffff ffff     ......JJJJ......
    28e0:	ffff ffff 1909 0101 0101 0919 ffff ffff     ................
    28f0:	ffff ffff 2209 1919 1919 0919 ffff ffff     ....."..........
    2900:	ffff ffff 09ff 2222 1922 ff09 ffff ffff     ......""".......
    2910:	ffff ffff 09ff 2275 2222 0909 ffff ffff     ......u"""......
    2920:	ffff ffff 09ff 2275 1922 1909 ff09 ffff     ......u"".......
    2930:	ffff ffff 09ff 2222 1922 0909 ffff ffff     ......""".......
    2940:	ffff ffff 0909 2275 1922 ff09 ffff ffff     ......u"".......
    2950:	ffff 09ff 0975 2275 2222 ff09 ffff ffff     ....u.u"""......
    2960:	ffff ffff 0909 2222 1922 ff09 ffff ffff     ......""".......
    2970:	ffff ffff 09ff 2275 1922 ff09 ffff ffff     ......u"".......
    2980:	ffff ffff 7509 2222 2222 0919 ffff ffff     .....u""""......
    2990:	0909 0909 0909 0909 0909 0909 0909 ffff     ................
    29a0:	0909 7dbe bebe be7d be7d be7d 7dbe ff09     ...}..}.}.}..}..
    29b0:	be09 7d7d 6b6b 6b6b 6b6b 6b6b 6b6b 0919     ..}}kkkkkkkkkk..
    29c0:	7d09 6b7d 6b6b 6b6b 6b6b 6b6b 6b6b 0919     .}}kkkkkkkkkkk..
    29d0:	be09 6b7d 6b6b 6b6b 6b6b 6b6b 196b 0919     ..}kkkkkkkkkk...
    29e0:	be09 6b6b 6b6b 6b6b 6b6b 6b6b 1919 0919     ..kkkkkkkkkk....
    29f0:	0909 1919 1919 1919 1919 1919 1919 0909     ................
    2a00:	0909 0909 0909 0909 0909 0909 0909 0909     ................
    2a10:	7dbe bebe be7d 0909 be09 be7d bebe 0909     .}..}.....}.....
    2a20:	6b6b 6b6b 6b6b 0919 7dbe 6b7d 6b6b 0919     kkkkkk...}}kkk..
    2a30:	6b6b 6b6b 6b6b 0919 7d7d 6b6b 6b6b 0919     kkkkkk..}}kkkk..
    2a40:	6b6b 6b6b 6b6b 0919 6bbe 6b6b 6b6b 0919     kkkkkk...kkkkk..
    2a50:	6b6b 6b6b 196b 0919 6b7d 6b6b 196b 0919     kkkkk...}kkkk...
    2a60:	6b6b 6b6b 1919 0919 6bbe 6b6b 1919 0919     kkkk.....kkk....
    2a70:	1919 1919 1919 0909 1909 1919 1919 ff09     ................
    2a80:	0909 0909 0909 0909 0909 0909 0909 ffff     ................
    2a90:	c4c4 c4c4 cfc4 cfcf cfcf cfcf cfcf cfcf     ................
    2aa0:	c4c4 cfc4 cfcf cfcf cfcf cfcf cfcf cfcf     ................
    2ab0:	c4c4 cfcf cfcf cfcf cfcf cfcf cfcf cfcf     ................
    2ac0:	cfc4 cfcf cfcf cfcf cfcf cfcf cfcf cfcf     ................
    2ad0:	cfc4 cfcf cfcf cfcf cfcf cfcf cfcf cfcf     ................
    2ae0:	cfcf cfcf cfcf cfcf cfcf cfcf cfcf cfcf     ................
    2af0:	cfcf cfcf cfcf cfcf cfcf cfcf cfcf cfcf     ................
    2b00:	cfcf cfcf cfcf cfcf cfcf cfcf cfcf cfcf     ................
    2b10:	cfcf cfcf cfcf cfcf cfcf cfcf cfcf cfcf     ................
    2b20:	cfcf cfcf cfcf cfcf cfcf cfcf cfcf cfcf     ................
    2b30:	cfcf cfcf cfcf cfcf cfcf cfcf cfcf cfcf     ................
    2b40:	cfcf cfcf cfcf cfcf cfcf cfcf cfcf cfcf     ................
    2b50:	cfcf cfcf cfcf cfcf cfcf cfcf cfcf cfcf     ................
    2b60:	cfcf cfcf cfcf cfcf cfcf cfcf cfcf cfcf     ................
    2b70:	cfcf cfcf cfcf cfcf cfcf cfcf cfcf cfcf     ................
    2b80:	cfcf cfcf cfcf cfcf cfcf cfcf cfcf cfcf     ................
    2b90:	cfcf cfcf cfcf cfcf cfcf cfcf cfcf cfcf     ................
    2ba0:	cfcf cfcf cfcf cfcf cfcf cfcf cfcf cfcf     ................
    2bb0:	cfcf cfcf cfcf cfcf cfcf cfcf cfcf cfcf     ................
    2bc0:	cfcf cfcf cfcf cfcf cfcf cfcf cfcf cfcf     ................
    2bd0:	cfcf cfcf cfcf cfcf cfcf cfcf cfcf cfcf     ................
    2be0:	cfcf cfcf cfcf cfcf cfcf cfcf cfcf cfcf     ................
    2bf0:	cfcf cfcf cfcf cfcf cfcf cfcf cfcf cfcf     ................
    2c00:	cfcf cfcf cfcf cfcf cfcf cfcf cfcf cfcf     ................
    2c10:	cfcf cfcf cfcf cfcf cfcf cfcf cfcf cfcf     ................
    2c20:	cfcf cfcf cfcf cfcf cfcf cfcf cfcf cfcf     ................
    2c30:	cfcf cfcf cfcf cfcf cfcf cfcf cfcf cfcf     ................
    2c40:	cfc4 cfcf cfcf cfcf cfcf cfcf cfcf cfcf     ................
    2c50:	cfc4 cfcf cfcf cfcf cfcf cfcf cfcf cfcf     ................
    2c60:	c4c4 cfcf cfcf cfcf cfcf cfcf cfcf cfcf     ................
    2c70:	c4c4 cfc4 cfcf cfcf cfcf cfcf cfcf cfcf     ................
    2c80:	c4c4 c4c4 cfc4 cfcf cfcf cfcf cfcf cfcf     ................
    2c90:	c4c4 c4c4 c4c4 c4c4 c4c4 c4c4 c4c4 c4c4     ................
    2ca0:	c4c4 c4c4 c4c4 c4c4 c4c4 c4c4 c4c4 c4c4     ................
    2cb0:	c4c4 c4c4 c4c4 c4c4 c4c4 c4c4 c4c4 c4c4     ................
    2cc0:	c4c4 c4c4 c4c4 c4c4 c4c4 c4c4 c4c4 c4c4     ................
    2cd0:	c4c4 c4c4 c4c4 c4c4 c4c4 c4c4 c4c4 c4c4     ................
    2ce0:	c4c4 c4c4 c4c4 c4c4 c4c4 c4c4 c4c4 c4c4     ................
    2cf0:	c4c4 c4c4 c4c4 c4c4 c4c4 c4c4 c4c4 c4c4     ................
    2d00:	c4c4 c4c4 c4c4 c4c4 c4c4 c4c4 c4c4 c4c4     ................
    2d10:	c4c4 c4c4 c4c4 c4c4 c4c4 c4c4 c4c4 c4c4     ................
    2d20:	c4c4 c4c4 c4c4 c4c4 c4c4 c4c4 c4c4 cfcf     ................
    2d30:	c4c4 c4c4 c4c4 c4c4 c4c4 c4c4 cfcf cfcf     ................
    2d40:	c4c4 c4c4 c4c4 c4c4 c4c4 cfc4 cfcf cfcf     ................
    2d50:	c4c4 c4c4 c4c4 c4c4 c4c4 cfcf cfcf cfcf     ................
    2d60:	c4c4 c4c4 c4c4 c4c4 c4c4 cfcf cfcf cfcf     ................
    2d70:	c4c4 c4c4 c4c4 c4c4 cfc4 cfcf cfcf cfcf     ................
    2d80:	c4c4 c4c4 c4c4 c4c4 cfc4 cfcf cfcf cfcf     ................
    2d90:	c4c4 c4c4 c4c4 c4c4 cfc4 cfcf cfcf cfcf     ................
    2da0:	c4c4 c4c4 c4c4 c4c4 cfc4 cfcf cfcf cfcf     ................
    2db0:	c4c4 c4c4 c4c4 c4c4 c4c4 cfcf cfcf cfcf     ................
    2dc0:	c4c4 c4c4 c4c4 c4c4 c4c4 cfcf cfcf cfcf     ................
    2dd0:	c4c4 c4c4 c4c4 c4c4 c4c4 cfc4 cfcf cfcf     ................
    2de0:	c4c4 c4c4 c4c4 c4c4 c4c4 c4c4 cfcf cfcf     ................
    2df0:	c4c4 c4c4 c4c4 c4c4 c4c4 c4c4 c4c4 cfcf     ................
    2e00:	c4c4 c4c4 c4c4 c4c4 c4c4 c4c4 c4c4 c4c4     ................
    2e10:	c4c4 c4c4 c4c4 c4c4 c4c4 c4c4 c4c4 c4c4     ................
    2e20:	c4c4 c4c4 c4c4 c4c4 c4c4 c4c4 c4c4 c4c4     ................
    2e30:	c4c4 c4c4 c4c4 c4c4 c4c4 c4c4 c4c4 c4c4     ................
    2e40:	c4c4 c4c4 c4c4 c4c4 c4c4 c4c4 c4c4 c4c4     ................
    2e50:	c4c4 c4c4 c4c4 c4c4 c4c4 c4c4 c4c4 c4c4     ................
    2e60:	c4c4 c4c4 c4c4 c4c4 c4c4 c4c4 c4c4 c4c4     ................
    2e70:	c4c4 c4c4 c4c4 c4c4 c4c4 c4c4 c4c4 c4c4     ................
    2e80:	c4c4 c4c4 c4c4 c4c4 c4c4 c4c4 c4c4 c4c4     ................
    2e90:	01ff 0101 0101 0101 0101 0101 0101 0101     ................
    2ea0:	5e01 5e5e 5e5e 5e5e 5e5e 5e5e 5e5e 5e5e     .^^^^^^^^^^^^^^^
    2eb0:	5e01 4c5e 4c4c 4c4c 4c4c 4c4c 4c4c 4c4c     .^^LLLLLLLLLLLLL
    2ec0:	5e01 4c4c 4c4a 4c4c 4c4c 4c4a 4c4c 4c4c     .^LLJLLLLLJLLLLL
    2ed0:	4a01 4c4c 4c09 4c4c 4c4c 4c09 4a4c 4c4c     .JLL.LLLLL.LLJLL
    2ee0:	09ff 4c4c 4c09 4a4c 4c4c 4c09 094c 4c4c     ..LL.LLJLL.LL.LL
    2ef0:	09ff 4c4c 4c09 094c 4c4c 4a09 094a 4c4c     ..LL.LL.LL.JJ.LL
    2f00:	09ff 4c4c 4a09 094a 4c4c 0909 0909 4a4a     ..LL.JJ.LL....JJ
    2f10:	09ff 4c4c 0909 0909 4a4a 1909 1919 0909     ..LL....JJ......
    2f20:	09ff 4a4a 1909 1919 0909 1919 1919 1919     ..JJ............
    2f30:	09ff 0909 1919 1919 1919 2219 1922 1919     ...........""...
    2f40:	09ff 1919 2219 2222 1919 2222 2222 2222     ....."""..""""""
    2f50:	09ff 1919 2222 2222 2222 2219 2222 2222     ....""""""."""""
    2f60:	09ff 2222 2222 7522 2275 2222 1919 2222     .."""""uu"""..""
    2f70:	09ff 2222 2219 7522 2275 2222 1919 2222     .."".""uu"""..""
    2f80:	ffff 0909 0909 0909 0909 0909 0909 0909     ................
    2f90:	01ff 0101 0101 0101 0101 0101 0101 ff01     ................
    2fa0:	5e01 5e5e 5e5e 5e5e 5e5e 5e5e 5e5e 015e     .^^^^^^^^^^^^^^.
    2fb0:	5e01 4c5e 4c4c 4c4c 4c4c 4c4c 5e4c 015e     .^^LLLLLLLLLL^^.
    2fc0:	5e01 4c4c 4c4c 4c4c 4c4c 4a4c 4c4c 015e     .^LLLLLLLLLJLL^.
    2fd0:	4a01 4c4c 4a4c 4c4c 4c4c 094c 4c4c 014a     .JLLLJLLLLL.LLJ.
    2fe0:	09ff 4c4c 094c 4c4c 4c4a 094c 4c4c ff09     ..LLL.LLJLL.LL..
    2ff0:	09ff 4c4c 094c 4c4c 4c09 094c 4a4a ff09     ..LLL.LL.LL.JJ..
    3000:	09ff 4c4c 094c 4a4a 4c09 094c 0909 ff09     ..LLL.JJ.LL.....
    3010:	09ff 4c4c 094c 0909 4a09 094a 1919 ff09     ..LLL....JJ.....
    3020:	09ff 4a4a 094a 1919 0919 1909 1919 ff09     ..JJJ...........
    3030:	09ff 0909 1909 1919 1919 1919 2222 ff09     ............""..
    3040:	09ff 1919 1919 2222 1922 2219 2222 ff09     ......""".."""..
    3050:	09ff 2222 2222 2222 2222 2222 2222 ff09     ..""""""""""""..
    3060:	09ff 2222 2219 7522 2222 7522 2275 ff09     .."".""u"""uu"..
    3070:	09ff 2222 2222 2222 2222 7522 2275 ff09     .."""""""""uu"..
    3080:	ffff 0909 0909 0909 0909 0909 0909 ffff     ................
    3090:	ffff 0909 0909 0909 0909 0909 0909 0909     ................
    30a0:	09ff 7dbe bebe be7d be7d be7d 7dbe 09be     ...}..}.}.}..}..
    30b0:	be09 7d7d 6b6b 6b6b 6b6b 6b6b 6b6b 196b     ..}}kkkkkkkkkkk.
    30c0:	7d09 6b7d 6b6b 6b6b 6b6b 6b6b 6b6b 1919     .}}kkkkkkkkkkk..
    30d0:	be09 6b7d 6b6b 6b6b 6b6b 6b6b 6b6b 1919     ..}kkkkkkkkkkk..
    30e0:	be09 6b6b 6b6b 6b6b 6b6b 6b6b 196b 1919     ..kkkkkkkkkkk...
    30f0:	0909 1919 1919 1919 1919 1919 1919 0919     ................
    3100:	0909 0909 0909 0909 0909 0909 0909 0909     ................
    3110:	0909 bebe be7d 0909 be09 be7d bebe bebe     ....}.....}.....
    3120:	be09 6b6b 6b6b 0919 7dbe 6b7d 6b6b 6b6b     ..kkkk...}}kkkkk
    3130:	7d09 6b6b 6b6b 0919 7d7d 6b6b 6b6b 6b6b     .}kkkk..}}kkkkkk
    3140:	be09 6b6b 6b6b 0919 6bbe 6b6b 6b6b 6b6b     ..kkkk...kkkkkkk
    3150:	be09 6b6b 6b6b 0919 6bbe 6b6b 6b6b 6b6b     ..kkkk...kkkkkkk
    3160:	7d09 6b6b 196b 0919 6b7d 6b6b 6b6b 6b6b     .}kkk...}kkkkkkk
    3170:	be09 6b6b 1919 0919 6bbe 6b6b 6b6b 6b6b     ..kk.....kkkkkkk
    3180:	0909 1919 1919 0909 1909 1919 1919 1919     ................
    3190:	0909 0909 0909 0909 0909 0909 0909 0909     ................
    31a0:	0909 7dbe bebe be7d be7d be7d 7dbe 09be     ...}..}.}.}..}..
    31b0:	be09 7d7d 6b6b 6b6b 6b6b 6b6b 6b6b 196b     ..}}kkkkkkkkkkk.
    31c0:	7d09 6b7d 6b6b 6b6b 6b6b 6b6b 6b6b 1919     .}}kkkkkkkkkkk..
    31d0:	be09 6b7d 6b6b 6b6b 6b6b 6b6b 6b6b 1919     ..}kkkkkkkkkkk..
    31e0:	be09 6b6b 6b6b 6b6b 6b6b 6b6b 196b 1919     ..kkkkkkkkkkk...
    31f0:	0909 1919 1919 1919 1919 1919 1919 0919     ................
    3200:	0909 0909 0909 0909 0909 0909 0909 0909     ................
    3210:	0909 bebe be7d 0909 be09 be7d bebe bebe     ....}.....}.....
    3220:	be09 6b6b 6b6b 0919 7dbe 6b7d 6b6b 6b6b     ..kkkk...}}kkkkk
    3230:	7d09 6b6b 6b6b 0919 7d7d 6b6b 6b6b 6b6b     .}kkkk..}}kkkkkk
    3240:	be09 6b6b 6b6b 0919 6bbe 6b6b 6b6b 6b6b     ..kkkk...kkkkkkk
    3250:	be09 6b6b 6b6b 0919 6bbe 6b6b 6b6b 6b6b     ..kkkk...kkkkkkk
    3260:	7d09 6b6b 196b 0919 6b7d 6b6b 6b6b 6b6b     .}kkk...}kkkkkkk
    3270:	be09 6b6b 1919 0919 6bbe 6b6b 6b6b 6b6b     ..kk.....kkkkkkk
    3280:	0909 1919 1919 0909 1909 1919 1919 1919     ................
    3290:	0909 0909 0909 0909 0909 0909 0909 0909     ................
    32a0:	0909 7dbe bebe be7d be7d be7d 7dbe 09be     ...}..}.}.}..}..
    32b0:	be09 7d7d 6b6b 6b6b 6b6b 6b6b 6b6b 196b     ..}}kkkkkkkkkkk.
    32c0:	7d09 6b7d 6b6b 6b6b 6b6b 6b6b 6b6b 1919     .}}kkkkkkkkkkk..
    32d0:	be09 6b7d 6b6b 6b6b 6b6b 6b6b 6b6b 1919     ..}kkkkkkkkkkk..
    32e0:	be09 6b6b 6b6b 6b6b 6b6b 6b6b 196b 1919     ..kkkkkkkkkkk...
    32f0:	0909 1919 1919 1919 1919 1919 1919 0919     ................
    3300:	0909 0909 0909 0909 0909 0909 0909 0909     ................
    3310:	0909 bebe be7d 0909 be09 be7d bebe bebe     ....}.....}.....
    3320:	be09 6b6b 6b6b 0919 7dbe 6b7d 6b6b 6b6b     ..kkkk...}}kkkkk
    3330:	7d09 6b6b 6b6b 0919 7d7d 6b6b 6b6b 6b6b     .}kkkk..}}kkkkkk
    3340:	be09 6b6b 6b6b 0919 6bbe 6b6b 6b6b 6b6b     ..kkkk...kkkkkkk
    3350:	7d09 6b6b 196b 0919 6b7d 6b6b 6b6b 6b6b     .}kkk...}kkkkkkk
    3360:	be09 6b6b 1919 0919 6bbe 6b6b 6b6b 6b6b     ..kk.....kkkkkkk
    3370:	09ff 1919 1919 0909 1909 1919 1919 1919     ................
    3380:	ffff 0909 0909 0909 0909 0909 0909 0909     ................
    3390:	0101 0101 0101 0101 0101 0101 0101 0101     ................
    33a0:	5e5e 5e5e 5e5e 5e5e 5e5e 5e5e 5e5e 5e5e     ^^^^^^^^^^^^^^^^
    33b0:	4c4c 4c4c 4c4c 4c4c 4c4c 4c4c 4c4c 4c4c     LLLLLLLLLLLLLLLL
    33c0:	4c4c 4c4c 4a4c 4c4c 4c4c 4a4c 4c4c 4c4c     LLLLLJLLLLLJLLLL
    33d0:	4c4c 4c4a 094c 4c4c 4c4c 094c 4c4c 4c4a     LLJLL.LLLLL.LLJL
    33e0:	4c4c 4c09 094c 4c4c 4c4a 094c 4c4c 4c09     LL.LL.LLJLL.LL.L
    33f0:	4c4c 4c09 094c 4c4c 4c09 094c 4a4a 4c09     LL.LL.LL.LL.JJ.L
    3400:	4a4a 4c09 094c 4a4a 4c09 094c 0909 4a09     JJ.LL.JJ.LL....J
    3410:	0909 4c09 094c 0909 4a09 094a 1919 0919     ...LL....JJ.....
    3420:	1919 4a09 094a 1919 0919 1909 1919 1919     ...JJ...........
    3430:	1919 0919 1909 1919 1919 1919 2222 1919     ............""..
    3440:	2222 1919 1919 2222 1922 2219 2222 2222     ""....""".."""""
    3450:	1919 2222 2222 2222 2222 2219 2222 2222     ..""""""""."""""
    3460:	1919 2222 2275 2222 2219 2222 1919 2222     ..""u"""."""..""
    3470:	2222 2222 2222 2222 2222 2222 1919 2222     """"""""""""..""
    3480:	0909 0909 0909 0909 0909 0909 0909 0909     ................
    3490:	2222 2222 2222 2275 1922 2222 2222 2222     """"""u"".""""""
    34a0:	7522 2275 2219 2222 2222 7522 1922 2219     "uu".""""""u".."
    34b0:	7522 2275 2222 1919 1919 2222 1922 2219     "uu"""....""".."
    34c0:	2222 2222 1919 1919 1919 1919 2222 2222     """"........""""
    34d0:	7522 1922 1919 0909 0909 1919 2219 2219     "u".........."."
    34e0:	2222 1922 0919 0909 0909 1909 2219 2222     """.........."""
    34f0:	2222 1919 0909 0909 0909 0909 1919 2222     ""............""
    3500:	2222 1919 0909 0909 0909 0909 1919 2222     ""............""
    3510:	2222 1919 0909 0909 0909 0909 1919 2222     ""............""
    3520:	2222 1919 0909 0909 0909 0909 1919 2222     ""............""
    3530:	2222 1919 0909 0909 0909 0909 1919 2222     ""............""
    3540:	2222 1919 0909 0909 0909 0909 1919 2222     ""............""
    3550:	2222 1919 0909 0909 0909 0909 1919 2222     ""............""
    3560:	2222 1919 0909 0909 0909 0909 1919 2222     ""............""
    3570:	2222 1919 0909 0909 0909 0909 1919 2222     ""............""
    3580:	1922 0919 0909 0909 0909 0909 1909 2219     ".............."
    3590:	0909 0909 0909 0909 0909 0909 0909 0909     ................
    35a0:	0909 7dbe bebe be7d be7d be7d 7dbe 09be     ...}..}.}.}..}..
    35b0:	be09 7d7d 6b6b 6b6b 6b6b 6b6b 6b6b 196b     ..}}kkkkkkkkkkk.
    35c0:	7d09 6b7d 6b6b 6b6b 6b6b 6b6b 6b6b 1919     .}}kkkkkkkkkkk..
    35d0:	be09 6b7d 6b6b 6b6b 6b6b 6b6b 6b6b 1919     ..}kkkkkkkkkkk..
    35e0:	be09 6b6b 6b6b 6b6b 6b6b 6b6b 196b 1919     ..kkkkkkkkkkk...
    35f0:	0909 1919 1919 1919 1919 1919 1919 0919     ................
    3600:	0909 0909 0909 0909 0909 0909 0909 0909     ................
    3610:	7dbe bebe be7d 0909 be09 be7d bebe bebe     .}..}.....}.....
    3620:	6b6b 6b6b 6b6b 0919 7dbe 6b7d 6b6b 6b6b     kkkkkk...}}kkkkk
    3630:	6b6b 6b6b 6b6b 0919 7d7d 6b6b 6b6b 6b6b     kkkkkk..}}kkkkkk
    3640:	6b6b 6b6b 6b6b 0919 6bbe 6b6b 6b6b 6b6b     kkkkkk...kkkkkkk
    3650:	6b6b 6b6b 6b6b 0919 6bbe 6b6b 6b6b 6b6b     kkkkkk...kkkkkkk
    3660:	6b6b 6b6b 196b 0919 6b7d 6b6b 6b6b 6b6b     kkkkk...}kkkkkkk
    3670:	6b6b 6b6b 1919 0919 6bbe 6b6b 6b6b 6b6b     kkkk.....kkkkkkk
    3680:	1919 1919 1919 0909 1909 1919 1919 1919     ................
    3690:	0909 0909 0909 0909 0909 0909 0909 0909     ................
    36a0:	0909 7dbe bebe be7d be7d be7d 7dbe 09be     ...}..}.}.}..}..
    36b0:	be09 7d7d 6b6b 6b6b 6b6b 6b6b 6b6b 196b     ..}}kkkkkkkkkkk.
    36c0:	7d09 6b7d 6b6b 6b6b 6b6b 6b6b 6b6b 1919     .}}kkkkkkkkkkk..
    36d0:	be09 6b7d 6b6b 6b6b 6b6b 6b6b 6b6b 1919     ..}kkkkkkkkkkk..
    36e0:	be09 6b6b 6b6b 6b6b 6b6b 6b6b 196b 1919     ..kkkkkkkkkkk...
    36f0:	0909 1919 1919 1919 1919 1919 1919 0919     ................
    3700:	0909 0909 0909 0909 0909 0909 0909 0909     ................
    3710:	7dbe bebe be7d 0909 be09 be7d be7d bebe     .}..}.....}.}...
    3720:	6b6b 6b6b 6b6b 0919 7dbe 6b7d 6b6b 6b6b     kkkkkk...}}kkkkk
    3730:	6b6b 6b6b 6b6b 0919 7d7d 6b6b 6b6b 6b6b     kkkkkk..}}kkkkkk
    3740:	6b6b 6b6b 6b6b 0919 6bbe 6b6b 6b6b 6b6b     kkkkkk...kkkkkkk
    3750:	6b6b 6b6b 6b6b 0919 6bbe 6b6b 6b6b 6b6b     kkkkkk...kkkkkkk
    3760:	6b6b 6b6b 196b 0919 6b7d 6b6b 6b6b 6b6b     kkkkk...}kkkkkkk
    3770:	6b6b 6b6b 1919 0919 6bbe 6b6b 6b6b 6b6b     kkkk.....kkkkkkk
    3780:	1919 1919 1919 0909 1909 1919 1919 1919     ................
    3790:	0909 0909 0909 0909 0909 0909 0909 0909     ................
    37a0:	0909 7dbe bebe be7d be7d be7d 7dbe 09be     ...}..}.}.}..}..
    37b0:	be09 7d7d 6b6b 6b6b 6b6b 6b6b 6b6b 196b     ..}}kkkkkkkkkkk.
    37c0:	7d09 6b7d 6b6b 6b6b 6b6b 6b6b 6b6b 1919     .}}kkkkkkkkkkk..
    37d0:	be09 6b7d 6b6b 6b6b 6b6b 6b6b 6b6b 1919     ..}kkkkkkkkkkk..
    37e0:	be09 6b6b 6b6b 6b6b 6b6b 6b6b 196b 1919     ..kkkkkkkkkkk...
    37f0:	0909 1919 1919 1919 1919 1919 1919 0919     ................
    3800:	0909 0909 0909 0909 0909 0909 0909 0909     ................
    3810:	7dbe bebe be7d 0909 be09 be7d bebe bebe     .}..}.....}.....
    3820:	6b6b 6b6b 6b6b 0919 7dbe 6b7d 6b6b 6b6b     kkkkkk...}}kkkkk
    3830:	6b6b 6b6b 6b6b 0919 7d7d 6b6b 6b6b 6b6b     kkkkkk..}}kkkkkk
    3840:	6b6b 6b6b 6b6b 0919 6bbe 6b6b 6b6b 6b6b     kkkkkk...kkkkkkk
    3850:	6b6b 6b6b 196b 0919 6b7d 6b6b 6b6b 6b6b     kkkkk...}kkkkkkk
    3860:	6b6b 6b6b 1919 0919 6bbe 6b6b 6b6b 6b6b     kkkk.....kkkkkkk
    3870:	1919 1919 1919 0909 1909 1919 1919 1919     ................
    3880:	0909 0909 0909 0909 0909 0909 0909 0909     ................
    3890:	0101 0101 0101 0101 0101 0101 0101 ff01     ................
    38a0:	5e5e 5e5e 5e5e 5e5e 5e5e 5e5e 5e5e 015e     ^^^^^^^^^^^^^^^.
    38b0:	4c4c 4c4c 4c4c 4c4c 4c4c 4c4c 5e4c 015e     LLLLLLLLLLLLL^^.
    38c0:	4c4c 4c4c 4a4c 4c4c 4c4c 4a4c 4c4c 015e     LLLLLJLLLLLJLL^.
    38d0:	4c4c 4c4a 094c 4c4c 4c4c 094c 4c4c 014a     LLJLL.LLLLL.LLJ.
    38e0:	4c4c 4c09 094c 4c4c 4c4a 094c 4c4c ff09     LL.LL.LLJLL.LL..
    38f0:	4c4c 4c09 094c 4c4c 4c09 094c 4a4a ff09     LL.LL.LL.LL.JJ..
    3900:	4a4a 4c09 094c 4a4a 4c09 094c 0909 ff09     JJ.LL.JJ.LL.....
    3910:	0909 4c09 094c 0909 4a09 094a 1919 ff09     ...LL....JJ.....
    3920:	1919 4a09 094a 1919 0919 1909 1919 ff09     ...JJ...........
    3930:	1919 0919 1909 1919 1919 1919 2222 ff09     ............""..
    3940:	2222 1919 1919 2222 1922 2219 2222 ff09     ""....""".."""..
    3950:	7575 2222 2222 2222 2222 2222 2222 ff09     uu""""""""""""..
    3960:	7575 2222 2219 7522 2222 7522 2275 ff09     uu"".""u"""uu"..
    3970:	2222 2222 2222 2222 2222 7522 2275 ff09     """""""""""uu"..
    3980:	0909 0909 0909 0909 0909 0909 0909 ffff     ................
    3990:	0909 0909 0909 0909 0909 0909 0909 ffff     ................
    39a0:	0909 7dbe bebe be7d be7d be7d 7dbe ff09     ...}..}.}.}..}..
    39b0:	be09 7d7d 6b6b 6b6b 6b6b 6b6b 6b6b 0919     ..}}kkkkkkkkkk..
    39c0:	7d09 6b7d 6b6b 6b6b 6b6b 6b6b 6b6b 0919     .}}kkkkkkkkkkk..
    39d0:	be09 6b7d 6b6b 6b6b 6b6b 6b6b 196b 0919     ..}kkkkkkkkkk...
    39e0:	be09 6b6b 6b6b 6b6b 6b6b 6b6b 1919 0919     ..kkkkkkkkkk....
    39f0:	0909 1919 1919 1919 1919 1919 1919 0909     ................
    3a00:	0909 0909 0909 0909 0909 0909 0909 0909     ................
    3a10:	7dbe bebe be7d 0909 be09 be7d bebe 0909     .}..}.....}.....
    3a20:	6b6b 6b6b 6b6b 0919 7dbe 6b7d 6b6b 0919     kkkkkk...}}kkk..
    3a30:	6b6b 6b6b 6b6b 0919 7d7d 6b6b 6b6b 0919     kkkkkk..}}kkkk..
    3a40:	6b6b 6b6b 6b6b 0919 6bbe 6b6b 6b6b 0919     kkkkkk...kkkkk..
    3a50:	6b6b 6b6b 6b6b 0919 6bbe 6b6b 6b6b 0919     kkkkkk...kkkkk..
    3a60:	6b6b 6b6b 196b 0919 6b7d 6b6b 196b 0919     kkkkk...}kkkk...
    3a70:	6b6b 6b6b 1919 0919 6bbe 6b6b 1919 0919     kkkk.....kkk....
    3a80:	1919 1919 1919 0909 1909 1919 1919 0909     ................
    3a90:	0909 0909 0909 0909 0909 0909 0909 0909     ................
    3aa0:	0909 7dbe bebe be7d be7d be7d 7dbe 0909     ...}..}.}.}..}..
    3ab0:	be09 7d7d 6b6b 6b6b 6b6b 6b6b 6b6b 0919     ..}}kkkkkkkkkk..
    3ac0:	7d09 6b7d 6b6b 6b6b 6b6b 6b6b 6b6b 0919     .}}kkkkkkkkkkk..
    3ad0:	be09 6b7d 6b6b 6b6b 6b6b 6b6b 196b 0919     ..}kkkkkkkkkk...
    3ae0:	be09 6b6b 6b6b 6b6b 6b6b 6b6b 1919 0919     ..kkkkkkkkkk....
    3af0:	0909 1919 1919 1919 1919 1919 1919 0909     ................
    3b00:	0909 0909 0909 0909 0909 0909 0909 0909     ................
    3b10:	7dbe bebe be7d 0909 be09 be7d bebe 0909     .}..}.....}.....
    3b20:	6b6b 6b6b 6b6b 0919 7dbe 6b7d 6b6b 0919     kkkkkk...}}kkk..
    3b30:	6b6b 6b6b 6b6b 0919 7d7d 6b6b 6b6b 0919     kkkkkk..}}kkkk..
    3b40:	6b6b 6b6b 6b6b 0919 6bbe 6b6b 6b6b 0919     kkkkkk...kkkkk..
    3b50:	6b6b 6b6b 6b6b 0919 6bbe 6b6b 6b6b 0919     kkkkkk...kkkkk..
    3b60:	6b6b 6b6b 196b 0919 6b7d 6b6b 196b 0919     kkkkk...}kkkk...
    3b70:	6b6b 6b6b 1919 0919 6bbe 6b6b 1919 0919     kkkk.....kkk....
    3b80:	1919 1919 1919 0909 1909 1919 1919 0909     ................
    3b90:	0909 0909 0909 0909 0909 0909 0909 0909     ................
    3ba0:	0909 7dbe bebe be7d be7d be7d 7dbe 0909     ...}..}.}.}..}..
    3bb0:	be09 7d7d 6b6b 6b6b 6b6b 6b6b 6b6b 0919     ..}}kkkkkkkkkk..
    3bc0:	7d09 6b7d 6b6b 6b6b 6b6b 6b6b 6b6b 0919     .}}kkkkkkkkkkk..
    3bd0:	be09 6b7d 6b6b 6b6b 6b6b 6b6b 196b 0919     ..}kkkkkkkkkk...
    3be0:	be09 6b6b 6b6b 6b6b 6b6b 6b6b 1919 0919     ..kkkkkkkkkk....
    3bf0:	0909 1919 1919 1919 1919 1919 1919 0909     ................
    3c00:	0909 0909 0909 0909 0909 0909 0909 0909     ................
    3c10:	7dbe bebe be7d 0909 be09 be7d bebe 0909     .}..}.....}.....
    3c20:	6b6b 6b6b 6b6b 0919 7dbe 6b7d 6b6b 0919     kkkkkk...}}kkk..
    3c30:	6b6b 6b6b 6b6b 0919 7d7d 6b6b 6b6b 0919     kkkkkk..}}kkkk..
    3c40:	6b6b 6b6b 6b6b 0919 6bbe 6b6b 6b6b 0919     kkkkkk...kkkkk..
    3c50:	6b6b 6b6b 196b 0919 6b7d 6b6b 196b 0919     kkkkk...}kkkk...
    3c60:	6b6b 6b6b 1919 0919 6bbe 6b6b 1919 0919     kkkk.....kkk....
    3c70:	1919 1919 1919 0909 1909 1919 1919 ff09     ................
    3c80:	0909 0909 0909 0909 0909 0909 0909 ffff     ................
    3c90:	cfcf cfcf cfcf cfcf cfcf c4cf c4c4 c4c4     ................
    3ca0:	cfcf cfcf cfcf cfcf cfcf cfcf c4cf c4c4     ................
    3cb0:	cfcf cfcf cfcf cfcf cfcf cfcf cfcf c4c4     ................
    3cc0:	cfcf cfcf cfcf cfcf cfcf cfcf cfcf c4cf     ................
    3cd0:	cfcf cfcf cfcf cfcf cfcf cfcf cfcf c4cf     ................
    3ce0:	cfcf cfcf cfcf cfcf cfcf cfcf cfcf cfcf     ................
    3cf0:	cfcf cfcf cfcf cfcf cfcf cfcf cfcf cfcf     ................
    3d00:	cfcf cfcf cfcf cfcf cfcf cfcf cfcf cfcf     ................
    3d10:	cfcf cfcf cfcf cfcf cfcf cfcf cfcf cfcf     ................
    3d20:	cfcf cfcf cfcf cfcf cfcf cfcf cfcf cfcf     ................
    3d30:	cfcf cfcf cfcf cfcf cfcf cfcf cfcf cfcf     ................
    3d40:	cfcf cfcf cfcf cfcf cfcf cfcf cfcf cfcf     ................
    3d50:	cfcf cfcf cfcf cfcf cfcf cfcf cfcf cfcf     ................
    3d60:	cfcf cfcf cfcf cfcf cfcf cfcf cfcf cfcf     ................
    3d70:	cfcf cfcf cfcf cfcf cfcf cfcf cfcf cfcf     ................
    3d80:	cfcf cfcf cfcf cfcf cfcf cfcf cfcf cfcf     ................
    3d90:	cfcf cfcf cfcf cfcf cfcf cfcf cfcf cfcf     ................
    3da0:	cfcf cfcf cfcf cfcf cfcf cfcf cfcf cfcf     ................
    3db0:	cfcf cfcf cfcf cfcf cfcf cfcf cfcf cfcf     ................
    3dc0:	cfcf cfcf cfcf cfcf cfcf cfcf cfcf cfcf     ................
    3dd0:	cfcf cfcf cfcf cfcf cfcf cfcf cfcf cfcf     ................
    3de0:	cfcf cfcf cfcf cfcf cfcf cfcf cfcf cfcf     ................
    3df0:	cfcf cfcf cfcf cfcf cfcf cfcf cfcf cfcf     ................
    3e00:	cfcf cfcf cfcf cfcf cfcf cfcf cfcf cfcf     ................
    3e10:	cfcf cfcf cfcf cfcf cfcf cfcf cfcf cfcf     ................
    3e20:	cfcf cfcf cfcf cfcf cfcf cfcf cfcf cfcf     ................
    3e30:	cfcf cfcf cfcf cfcf cfcf cfcf cfcf cfcf     ................
    3e40:	cfcf cfcf cfcf cfcf cfcf cfcf cfcf c4cf     ................
    3e50:	cfcf cfcf cfcf cfcf cfcf cfcf cfcf c4cf     ................
    3e60:	cfcf cfcf cfcf cfcf cfcf cfcf cfcf c4c4     ................
    3e70:	cfcf cfcf cfcf cfcf cfcf cfcf c4cf c4c4     ................
    3e80:	cfcf cfcf cfcf cfcf cfcf c4cf c4c4 c4c4     ................
    3e90:	c4c4 c4c4 c4c4 c4c4 c4c4 c4c4 c4c4 c4c4     ................
    3ea0:	c4c4 c4c4 c4c4 c4c4 c4c4 c4c4 c4c4 c4c4     ................
    3eb0:	c4c4 c4c4 c4c4 c4c4 c4c4 c4c4 c4c4 c4c4     ................
    3ec0:	c4c4 c4c4 c4c4 c4c4 c4c4 c4c4 c4c4 c4c4     ................
    3ed0:	c4c4 c4c4 c4c4 c4c4 c4c4 c4c4 c4c4 c4c4     ................
    3ee0:	c4c4 c4c4 c4c4 c4c4 c4c4 c4c4 c4c4 c4c4     ................
    3ef0:	c4c4 c4c4 c4c4 c4c4 c4c4 c4c4 c4c4 c4c4     ................
    3f00:	c4c4 c4c4 c4c4 c4c4 c4c4 c4c4 c4c4 c4c4     ................
    3f10:	c4c4 c4c4 c4c4 c4c4 c4c4 c4c4 c4c4 c4c4     ................
    3f20:	cfcf c4c4 c4c4 c4c4 c4c4 c4c4 c4c4 c4c4     ................
    3f30:	cfcf cfcf c4c4 c4c4 c4c4 c4c4 c4c4 c4c4     ................
    3f40:	cfcf cfcf c4cf c4c4 c4c4 c4c4 c4c4 c4c4     ................
    3f50:	cfcf cfcf cfcf c4c4 c4c4 c4c4 c4c4 c4c4     ................
    3f60:	cfcf cfcf cfcf c4c4 c4c4 c4c4 c4c4 c4c4     ................
    3f70:	cfcf cfcf cfcf c4cf c4c4 c4c4 c4c4 c4c4     ................
    3f80:	cfcf cfcf cfcf c4cf c4c4 c4c4 c4c4 c4c4     ................
    3f90:	cfcf cfcf cfcf c4cf c4c4 c4c4 c4c4 c4c4     ................
    3fa0:	cfcf cfcf cfcf c4cf c4c4 c4c4 c4c4 c4c4     ................
    3fb0:	cfcf cfcf cfcf c4c4 c4c4 c4c4 c4c4 c4c4     ................
    3fc0:	cfcf cfcf cfcf c4c4 c4c4 c4c4 c4c4 c4c4     ................
    3fd0:	cfcf cfcf c4cf c4c4 c4c4 c4c4 c4c4 c4c4     ................
    3fe0:	cfcf cfcf c4c4 c4c4 c4c4 c4c4 c4c4 c4c4     ................
    3ff0:	cfcf c4c4 c4c4 c4c4 c4c4 c4c4 c4c4 c4c4     ................
    4000:	c4c4 c4c4 c4c4 c4c4 c4c4 c4c4 c4c4 c4c4     ................
    4010:	c4c4 c4c4 c4c4 c4c4 c4c4 c4c4 c4c4 c4c4     ................
    4020:	c4c4 c4c4 c4c4 c4c4 c4c4 c4c4 c4c4 c4c4     ................
    4030:	c4c4 c4c4 c4c4 c4c4 c4c4 c4c4 c4c4 c4c4     ................
    4040:	c4c4 c4c4 c4c4 c4c4 c4c4 c4c4 c4c4 c4c4     ................
    4050:	c4c4 c4c4 c4c4 c4c4 c4c4 c4c4 c4c4 c4c4     ................
    4060:	c4c4 c4c4 c4c4 c4c4 c4c4 c4c4 c4c4 c4c4     ................
    4070:	c4c4 c4c4 c4c4 c4c4 c4c4 c4c4 c4c4 c4c4     ................
    4080:	c4c4 c4c4 c4c4 c4c4 c4c4 c4c4 c4c4 c4c4     ................
    4090:	c4c4 c4c4 cfc4 cfcf cfcf c4cf c4c4 c4c4     ................
    40a0:	c4c4 cfc4 cfcf cfcf cfcf cfcf c4cf c4c4     ................
    40b0:	c4c4 cfcf cfcf cfcf cfcf cfcf cfcf c4c4     ................
    40c0:	cfc4 cfcf cfcf cfcf cfcf cfcf cfcf c4cf     ................
    40d0:	cfc4 cfcf cfcf cfcf cfcf cfcf cfcf c4cf     ................
    40e0:	cfcf cfcf cfcf cfcf cfcf cfcf cfcf cfcf     ................
    40f0:	cfcf cfcf cfcf cfcf cfcf cfcf cfcf cfcf     ................
    4100:	cfcf cfcf cfcf cfcf cfcf cfcf cfcf cfcf     ................
    4110:	cfcf cfcf cfcf cfcf cfcf cfcf cfcf cfcf     ................
    4120:	cfcf cfcf cfcf cfcf cfcf cfcf cfcf cfcf     ................
    4130:	cfcf cfcf cfcf cfcf cfcf cfcf cfcf cfcf     ................
    4140:	cfcf cfcf cfcf cfcf cfcf cfcf cfcf cfcf     ................
    4150:	cfcf cfcf cfcf cfcf cfcf cfcf cfcf cfcf     ................
    4160:	cfcf cfcf cfcf cfcf cfcf cfcf cfcf cfcf     ................
    4170:	cfcf cfcf cfcf cfcf cfcf cfcf cfcf cfcf     ................
    4180:	cfcf cfcf cfcf cfcf cfcf cfcf cfcf cfcf     ................
    4190:	cfcf cfcf cfcf cfcf cfcf cfcf cfcf cfcf     ................
    41a0:	cfcf cfcf cfcf cfcf cfcf cfcf cfcf cfcf     ................
    41b0:	cfcf cfcf cfcf cfcf cfcf cfcf cfcf cfcf     ................
    41c0:	cfcf cfcf cfcf cfcf cfcf cfcf cfcf cfcf     ................
    41d0:	cfcf cfcf cfcf cfcf cfcf cfcf cfcf cfcf     ................
    41e0:	cfcf cfcf cfcf cfcf cfcf cfcf cfcf cfcf     ................
    41f0:	cfcf cfcf cfcf cfcf cfcf cfcf cfcf cfcf     ................
    4200:	cfcf cfcf cfcf cfcf cfcf cfcf cfcf cfcf     ................
    4210:	cfcf cfcf cfcf cfcf cfcf cfcf cfcf cfcf     ................
    4220:	cfcf cfcf cfcf cfcf cfcf cfcf cfcf cfcf     ................
    4230:	cfcf cfcf cfcf cfcf cfcf cfcf cfcf cfcf     ................
    4240:	cfcf cfcf cfcf cfcf cfcf cfcf cfcf cfcf     ................
    4250:	cfcf cfcf cfcf cfcf cfcf cfcf cfcf cfcf     ................
    4260:	cfcf cfcf cfcf cfcf cfcf cfcf cfcf cfcf     ................
    4270:	cfcf cfcf cfcf cfcf cfcf cfcf cfcf cfcf     ................
    4280:	cfcf cfcf cfcf cfcf cfcf cfcf cfcf cfcf     ................
    4290:	cfcf cfcf cfcf cfcf cfcf cfcf cfcf cfcf     ................
    42a0:	cfcf cfcf cfcf cfcf cfcf cfcf cfcf cfcf     ................
    42b0:	cfcf cfcf cfcf cfcf cfcf cfcf cfcf cfcf     ................
    42c0:	cfcf cfcf cfcf cfcf cfcf cfcf cfcf cfcf     ................
    42d0:	cfcf cfcf cfcf cfcf cfcf cfcf cfcf cfcf     ................
    42e0:	cfcf cfcf cfcf cfcf cfcf cfcf cfcf cfcf     ................
    42f0:	cfcf cfcf cfcf cfcf cfcf cfcf cfcf cfcf     ................
    4300:	cfcf cfcf cfcf cfcf cfcf cfcf cfcf cfcf     ................
    4310:	cfcf cfcf cfcf cfcf cfcf cfcf cfcf cfcf     ................
    4320:	cfcf cfcf cfcf cfcf cfcf cfcf cfcf cfcf     ................
    4330:	cfcf cfcf cfcf cfcf cfcf cfcf cfcf cfcf     ................
    4340:	cfc4 cfcf cfcf cfcf cfcf cfcf cfcf c4cf     ................
    4350:	cfc4 cfcf cfcf cfcf cfcf cfcf cfcf c4cf     ................
    4360:	c4c4 cfcf cfcf cfcf cfcf cfcf cfcf c4c4     ................
    4370:	c4c4 cfc4 cfcf cfcf cfcf cfcf c4cf c4c4     ................
    4380:	c4c4 c4c4 cfc4 cfcf cfcf c4cf c4c4 c4c4     ................
    4390:	c4c4 c4c4 c4c4 c4c4 c4c4 c4c4 c4c4 c4c4     ................
    43a0:	c4c4 c4c4 c4c4 c4c4 c4c4 c4c4 c4c4 c4c4     ................
    43b0:	c4c4 c4c4 c4c4 c4c4 c4c4 c4c4 c4c4 c4c4     ................
    43c0:	c4c4 c4c4 c4c4 c4c4 c4c4 c4c4 c4c4 c4c4     ................
    43d0:	c4c4 c4c4 c4c4 c4c4 c4c4 c4c4 c4c4 c4c4     ................
    43e0:	c4c4 c4c4 c4c4 c4c4 c4c4 c4c4 c4c4 c4c4     ................
    43f0:	c4c4 c4c4 c4c4 c4c4 c4c4 c4c4 c4c4 c4c4     ................
    4400:	c4c4 c4c4 c4c4 c4c4 c4c4 c4c4 c4c4 c4c4     ................
    4410:	c4c4 c4c4 c4c4 c4c4 c4c4 c4c4 c4c4 c4c4     ................
    4420:	c4c4 c4c4 c4c4 c4c4 c4c4 c4c4 c4c4 c4c4     ................
    4430:	c4c4 c4c4 c4c4 c4c4 c4c4 c4c4 c4c4 c4c4     ................
    4440:	c4c4 c4c4 c4c4 c4c4 c4c4 c4c4 c4c4 c4c4     ................
    4450:	c4c4 c4c4 c4c4 c4c4 c4c4 c4c4 c4c4 c4c4     ................
    4460:	c4c4 c4c4 c4c4 c4c4 c4c4 c4c4 c4c4 c4c4     ................
    4470:	c4c4 c4c4 c4c4 c4c4 c4c4 c4c4 c4c4 c4c4     ................
    4480:	c4c4 c4c4 c4c4 c4c4 c4c4 c4c4 c4c4 c4c4     ................
    4490:	ffff ffff ffff ffff ffff ffff ffff ffff     ................
    44a0:	ffff ffff ffff ffff ffff ffff ffff ffff     ................
    44b0:	ffff ffff ffff ffff ffff ffff ffff ffff     ................
    44c0:	8282 8282 8282 8282 8282 8282 8282 8282     ................
    44d0:	cfc4 c4cf cfcf c4cf c4cf cfcf cfc4 c4cf     ................
    44e0:	c4c4 c4c4 c4c4 c4c4 c4c4 c4c4 c4c4 c4c4     ................
    44f0:	c4c4 c4c4 c4c4 c4c4 c4c4 c4c4 c4c4 c4c4     ................
    4500:	c4c4 cfc4 c4c4 c4c4 cfc4 c4c4 c4c4 c4cf     ................
    4510:	c4cf 82c4 c4c4 c4cf 82c4 c4c4 c4cf c482     ................
    4520:	c482 c4c4 c4c4 c482 c4c4 c4c4 c482 c4c4     ................
    4530:	8282 c482 8282 82c4 82c4 c482 8282 c482     ................
    4540:	8282 8282 8282 8282 8282 8282 8282 8282     ................
    4550:	8282 8282 8282 8282 8282 8282 8282 8282     ................
    4560:	8282 8282 8282 8282 8282 8282 8282 8282     ................
    4570:	8282 8282 8282 8282 8282 8282 8282 8282     ................
    4580:	8282 8282 8282 8282 8282 8282 8282 8282     ................
    4590:	ffff ffff ffff ffff ffff ffff ffff ffff     ................
    45a0:	ffff ffff ffff ffff ffff ffff ffff ffff     ................
    45b0:	ffff ffff ffff ffff ffff ffff ffff ffff     ................
    45c0:	ffff ffff ffff ffff ffff ffff ffff ffff     ................
    45d0:	ffff ffff ffff ffff ffff ffff ffff ffff     ................
    45e0:	ffff ffff 09ff 0909 0909 ff09 ffff ffff     ................
    45f0:	ffff ffff 7509 2275 2219 0919 ffff ffff     .....uu"."......
    4600:	ffff ffff 09ff 2222 1922 ff09 ffff ffff     ......""".......
    4610:	ffff ffff 09ff 2275 2222 0909 ffff ffff     ......u"""......
    4620:	ffff ffff 09ff 2275 1922 1909 ff09 ffff     ......u"".......
    4630:	ffff ffff 09ff 2222 1922 0909 ffff ffff     ......""".......
    4640:	ffff ffff 0909 2275 1922 ff09 ffff ffff     ......u"".......
    4650:	ffff 09ff 0975 2275 2222 ff09 ffff ffff     ....u.u"""......
    4660:	ffff ffff 0909 2222 1922 ff09 ffff ffff     ......""".......
    4670:	ffff ffff 09ff 2275 1922 ff09 ffff ffff     ......u"".......
    4680:	ffff ffff 7509 2222 2222 0919 ffff ffff     .....u""""......
    4690:	ffff ffff ffff ffff ffff ffff ffff ffff     ................
    46a0:	ffff ffff ffff ffff ffff ffff ffff ffff     ................
    46b0:	ffff ffff ffff ffff ffff ffff ffff ffff     ................
    46c0:	ffff ffff ffff ffff ffff ffff ffff ffff     ................
    46d0:	ffff ffff ffff ffff ffff ffff ffff ffff     ................
    46e0:	ffff ffff ffff ffff ffff ffff ffff ffff     ................
    46f0:	ffff ffff ffff ffff ffff ffff ffff ffff     ................
    4700:	ffff ffff ffff ffff ffff ffff ffff ffff     ................
    4710:	ffff ffff ffff ffff ffff ffff ffff ffff     ................
    4720:	ffff ffff ffff ffff ffff ffff ffff ffff     ................
    4730:	ffff ffff ffff ffff ffff ffff ffff ffff     ................
    4740:	ffff ffff ffff 09ff ff09 ffff ffff ffff     ................
    4750:	ffff ffff ffff f609 09f6 ff09 ffff ffff     ................
    4760:	ffff ffff 09ff 93f6 f693 09f6 ffff ffff     ................
    4770:	ffff ffff f609 9393 9393 4a93 ff09 ffff     ...........J....
    4780:	ffff 09ff 4af6 4a4a 4a4a 4a4a ff09 ffff     .....JJJJJJJ....
    4790:	ffff 5e01 4c4c 4c4c 4c4c 4c4c 014a ffff     ...^LLLLLLLLJ...
    47a0:	ffff 5e01 4c4c 4c4c 4c4c 4c4c 014a ffff     ...^LLLLLLLLJ...
    47b0:	ffff 5e01 4c5e 4c4c 4c4c 4a4c 014a ffff     ...^^LLLLLLJJ...
    47c0:	ffff 01ff 4c5e 4c4c 4c4c 4a4a ff01 ffff     ....^LLLLLJJ....
    47d0:	ffff ffff 0101 4a4a 4a4a 0101 ffff ffff     ......JJJJ......
    47e0:	ffff ffff 1909 0101 0101 0919 ffff ffff     ................
    47f0:	ffff ffff 2209 1919 1919 0919 ffff ffff     ....."..........
    4800:	ffff ffff 09ff 2222 1922 ff09 ffff ffff     ......""".......
    4810:	ffff ffff 0909 2275 2222 ff09 ffff ffff     ......u"""......
    4820:	ffff 09ff 0975 2275 1922 ff09 ffff ffff     ....u.u"".......
    4830:	ffff ffff 0909 2222 1922 0909 ffff ffff     ......""".......
    4840:	ffff ffff 09ff 2275 1922 1909 ff09 ffff     ......u"".......
    4850:	ffff ffff 09ff 2275 2222 0909 ffff ffff     ......u"""......
    4860:	ffff ffff 09ff 2222 1922 ff09 ffff ffff     ......""".......
    4870:	ffff ffff 09ff 2275 1922 ff09 ffff ffff     ......u"".......
    4880:	ffff ffff 7509 2222 2222 0919 ffff ffff     .....u""""......
    4890:	ffff ffff ffff ffff ffff ffff ffff ffff     ................
    48a0:	ffff ffff ffff ffff ffff ffff ffff ffff     ................
    48b0:	ffff ffff ffff ffff ff01 ffff ffff ffff     ................
    48c0:	ffff ffff ffff 01ff 01ff ffff ffff ffff     ................
    48d0:	ffff ffff ffff ff01 ff3d ff01 ffff ffff     ........=.......
    48e0:	ffff ffff ffff 5e01 01ff ffff ffff ffff     .......^........
    48f0:	ffff ffff ffff 5e01 ff01 ffff ffff ffff     .......^........
    4900:	ffff ffff 01ff 5e01 ff01 ffff ffff ffff     .......^........
    4910:	ffff ffff 5e01 5e01 ff01 ffff ffff ffff     .....^.^........
    4920:	ffff ffff 01ff 4c5e 0101 ffff ffff ffff     ......^L........
    4930:	ffff ffff 0101 4c5e 4a01 ff01 ffff ffff     ......^L.J......
    4940:	ffff 01ff 01ff 4c5e 014a ffff ffff ffff     ......^LJ.......
    4950:	ffff ff01 ff3d 4c5e 014a ff01 ffff ffff     ....=.^LJ.......
    4960:	ffff 01ff 5eff 4c4c 014a 01ff ffff ffff     .....^LLJ.......
    4970:	ffff ffff 5e01 4a4c ff01 ff3d ff01 ffff     .....^LJ..=.....
    4980:	ffff ffff 4a01 014a 0101 01ff ffff ffff     .....JJ.........
    4990:	ffff 0909 0909 0909 0909 0909 0909 ffff     ................
    49a0:	09ff 7dbe bebe be7d be7d be7d 7dbe ff09     ...}..}.}.}..}..
    49b0:	be09 7d7d 6b6b 6b6b 6b6b 6b6b 6b6b 0919     ..}}kkkkkkkkkk..
    49c0:	7d09 6b7d 6b6b 6b6b 6b6b 6b6b 6b6b 0919     .}}kkkkkkkkkkk..
    49d0:	be09 6b7d 6b6b 6b6b 6b6b 6b6b 196b 0919     ..}kkkkkkkkkk...
    49e0:	be09 6b6b 6b6b 6b6b 6b6b 6b6b 1919 0919     ..kkkkkkkkkk....
    49f0:	0909 1919 1919 1919 1919 1919 1919 0909     ................
    4a00:	0909 0909 0909 0909 0909 0909 0909 0909     ................
    4a10:	0909 bebe be7d 0909 be09 be7d bebe 0909     ....}.....}.....
    4a20:	be09 6b7d 6b6b 0919 7dbe 6b7d 6b6b 0919     ..}kkk...}}kkk..
    4a30:	be09 6b6b 6b6b 0919 7dbe 6b6b 6b6b 0919     ..kkkk...}kkkk..
    4a40:	7d09 6b6b 6b6b 0919 7d7d 6b6b 6b6b 0919     .}kkkk..}}kkkk..
    4a50:	be09 6b6b 6b6b 0919 6bbe 6b6b 6b6b 0919     ..kkkk...kkkkk..
    4a60:	7d09 6b6b 196b 0919 6b7d 6b6b 196b 0919     .}kkk...}kkkk...
    4a70:	be09 6b6b 1919 0919 6bbe 6b6b 1919 0919     ..kk.....kkk....
    4a80:	0909 1919 1919 0909 1909 1919 1919 0909     ................
    4a90:	0909 0909 0909 0909 0909 0909 0909 0909     ................
    4aa0:	0909 7dbe bebe be7d be7d be7d 7dbe 0909     ...}..}.}.}..}..
    4ab0:	be09 7d7d 6b6b 6b6b 6b6b 6b6b 6b6b 0919     ..}}kkkkkkkkkk..
    4ac0:	7d09 6b7d 6b6b 6b6b 6b6b 6b6b 6b6b 0919     .}}kkkkkkkkkkk..
    4ad0:	be09 6b7d 6b6b 6b6b 6b6b 6b6b 6b6b 0919     ..}kkkkkkkkkkk..
    4ae0:	be09 6b6b 6b6b 6b6b 6b6b 6b6b 196b 0919     ..kkkkkkkkkkk...
    4af0:	0909 1919 1919 1919 1919 1919 1919 0909     ................
    4b00:	0909 0909 0909 0909 0909 0909 0909 0909     ................
    4b10:	0909 bebe be7d 0909 be09 be7d bebe 0909     ....}.....}.....
    4b20:	be09 6b7d 6b6b 0919 7dbe 6b7d 6b6b 0919     ..}kkk...}}kkk..
    4b30:	be09 6b6b 6b6b 0919 7dbe 6b6b 6b6b 0919     ..kkkk...}kkkk..
    4b40:	7d09 6b6b 6b6b 0919 7d7d 6b6b 6b6b 0919     .}kkkk..}}kkkk..
    4b50:	be09 6b6b 6b6b 0919 6bbe 6b6b 6b6b 0919     ..kkkk...kkkkk..
    4b60:	7d09 6b6b 196b 0919 6b7d 6b6b 196b 0919     .}kkk...}kkkk...
    4b70:	be09 6b6b 1919 0919 6bbe 6b6b 1919 0919     ..kk.....kkk....
    4b80:	0909 1919 1919 0909 1909 1919 1919 0909     ................
    4b90:	0909 0909 0909 0909 0909 0909 0909 0909     ................
    4ba0:	0909 7dbe bebe be7d be7d be7d 7dbe 0909     ...}..}.}.}..}..
    4bb0:	be09 7d7d 6b6b 6b6b 6b6b 6b6b 6b6b 0919     ..}}kkkkkkkkkk..
    4bc0:	7d09 6b7d 6b6b 6b6b 6b6b 6b6b 6b6b 0919     .}}kkkkkkkkkkk..
    4bd0:	be09 6b7d 6b6b 6b6b 6b6b 6b6b 6b6b 0919     ..}kkkkkkkkkkk..
    4be0:	be09 6b6b 6b6b 6b6b 6b6b 6b6b 196b 0919     ..kkkkkkkkkkk...
    4bf0:	0909 1919 1919 1919 1919 1919 1919 0909     ................
    4c00:	0909 0909 0909 0909 0909 0909 0909 0909     ................
    4c10:	0909 bebe be7d 0909 be09 be7d bebe 0909     ....}.....}.....
    4c20:	be09 6b7d 6b6b 0919 7dbe 6b7d 6b6b 0919     ..}kkk...}}kkk..
    4c30:	be09 6b6b 6b6b 0919 7dbe 6b6b 6b6b 0919     ..kkkk...}kkkk..
    4c40:	7d09 6b6b 6b6b 0919 7d7d 6b6b 6b6b 0919     .}kkkk..}}kkkk..
    4c50:	7d09 6b6b 196b 0919 6b7d 6b6b 196b 0919     .}kkk...}kkkk...
    4c60:	be09 6b6b 1919 0919 6bbe 6b6b 1919 0919     ..kk.....kkk....
    4c70:	09ff 1919 1919 0909 1909 1919 1919 ff09     ................
    4c80:	ffff 0909 0909 0909 0909 0909 0909 ffff     ................
    4c90:	ffff 0909 0909 0909 0909 0909 0909 ffff     ................
    4ca0:	09ff 7dbe bebe be7d be7d be7d 7dbe ff09     ...}..}.}.}..}..
    4cb0:	be09 7d7d 6b6b 6b6b 6b6b 6b6b 6b6b 0919     ..}}kkkkkkkkkk..
    4cc0:	7d09 6b7d 6b6b 6b6b 6b6b 6b6b 6b6b 0919     .}}kkkkkkkkkkk..
    4cd0:	be09 6b7d 6b6b 6b6b 6b6b 6b6b 196b 0919     ..}kkkkkkkkkk...
    4ce0:	be09 6b6b 6b6b 6b6b 6b6b 6b6b 1919 0919     ..kkkkkkkkkk....
    4cf0:	0909 1919 1919 1919 1919 1919 1919 0919     ................
    4d00:	0909 0909 0909 0909 0909 0909 0909 0909     ................
    4d10:	0909 bebe be7d 0909 be09 be7d bebe 0909     ....}.....}.....
    4d20:	be09 6b6b 6b6b 0919 7dbe 6b7d 6b6b 0919     ..kkkk...}}kkk..
    4d30:	7d09 6b6b 6b6b 0919 7d7d 6b6b 6b6b 0919     .}kkkk..}}kkkk..
    4d40:	be09 6b6b 6b6b 0919 6bbe 6b6b 6b6b 0919     ..kkkk...kkkkk..
    4d50:	7d09 6b6b 196b 0919 6b7d 6b6b 196b 0919     .}kkk...}kkkk...
    4d60:	be09 6b6b 1919 0919 6bbe 6b6b 1919 0919     ..kk.....kkk....
    4d70:	09ff 1919 1919 0909 1909 1919 1919 ff09     ................
    4d80:	ffff 0909 0909 0909 0909 0909 0909 ffff     ................
    4d90:	ffff 0909 0909 0909 0909 0909 0909 ffff     ................
    4da0:	09ff 7d7d 7dbe bebe 7dbe bebe be7d ff09     ..}}.}...}..}...
    4db0:	7d09 7d7d 6b6b 6b6b 6b6b 6b6b 6b6b 0919     .}}}kkkkkkkkkk..
    4dc0:	7d09 6b7d 6b6b 6b6b 6b6b 6b6b 6b6b 0919     .}}kkkkkkkkkkk..
    4dd0:	7d09 6b6b 6b6b 6b6b 6b6b 6b6b 6b6b 0919     .}kkkkkkkkkkkk..
    4de0:	7d09 6b6b 6b6b 6b6b 6b6b 6b6b 6b6b 0919     .}kkkkkkkkkkkk..
    4df0:	be09 6b6b 6b6b 6b6b 6b6b 6b6b 6b6b 0919     ..kkkkkkkkkkkk..
    4e00:	be09 6b6b 6b6b 6b6b 6b6b 6b6b 6b6b 0919     ..kkkkkkkkkkkk..
    4e10:	7d09 6b6b 6b6b 6b6b 6b6b 6b6b 6b6b 0919     .}kkkkkkkkkkkk..
    4e20:	be09 6b6b 6b6b 6b6b 6b6b 6b6b 6b6b 0919     ..kkkkkkkkkkkk..
    4e30:	7d09 6b6b 6b6b 6b6b 6b6b 6b6b 6b6b 0919     .}kkkkkkkkkkkk..
    4e40:	be09 6b6b 6b6b 6b6b 6b6b 6b6b 6b6b 0919     ..kkkkkkkkkkkk..
    4e50:	7d09 6b6b 6b6b 6b19 6b6b 6b6b 196b 0919     .}kkkk.kkkkkk...
    4e60:	be09 6b6b 196b 1909 6b6b 6b6b 1919 0919     ..kkk...kkkk....
    4e70:	09ff 1919 0919 0909 1919 1919 1919 ff09     ................
    4e80:	ffff 0909 0909 0909 0909 0909 0909 ffff     ................
    4e90:	ffff 0909 0909 0909 0909 0909 0909 ffff     ................
    4ea0:	09ff 7d7d 7dbe bebe 7dbe bebe be7d ff09     ..}}.}...}..}...
    4eb0:	7d09 7d7d 6b6b 6b6b 6b6b 6b6b 6b6b 0919     .}}}kkkkkkkkkk..
    4ec0:	7d09 6b7d 6b6b 6b6b 6b6b 6b6b 6b6b 0919     .}}kkkkkkkkkkk..
    4ed0:	7d09 6b6b 6b6b 6b6b 6b6b 6b6b 6b6b 0919     .}kkkkkkkkkkkk..
    4ee0:	7d09 6b6b 6b6b 6b6b 6b6b 6b6b 6b6b 0919     .}kkkkkkkkkkkk..
    4ef0:	be09 6b6b 6b6b 6b6b 6b6b 6b6b 6b6b 0919     ..kkkkkkkkkkkk..
    4f00:	be09 6b6b 6b6b 6b6b 6b6b 6b6b 6b6b 0919     ..kkkkkkkkkkkk..
    4f10:	7d09 6b6b 6b6b 6b6b 6b6b 6b6b 6b6b 0919     .}kkkkkkkkkkkk..
    4f20:	be09 6b6b 6b6b 6b6b 6b6b 6b6b 6b6b 0919     ..kkkkkkkkkkkk..
    4f30:	7d09 6b6b 6b6b 6b6b 6b6b 6b6b 6b6b 0919     .}kkkkkkkkkkkk..
    4f40:	be09 6b6b 6b6b 6b6b 6b6b 6b6b 6b6b 0919     ..kkkkkkkkkkkk..
    4f50:	7d09 6b6b 6b6b 6b6b 6b6b 6b6b 196b 0919     .}kkkkkkkkkkk...
    4f60:	be09 6b6b 6b6b 6b6b 6b6b 6b6b 1919 0919     ..kkkkkkkkkk....
    4f70:	09ff 1919 1919 1919 1919 1919 1919 ff09     ................
    4f80:	ffff 0909 0909 0909 0909 0909 0909 ffff     ................
    4f90:	ffff ffff ffff ffff ffff ffff ffff ffff     ................
    4fa0:	ffff ffff ffff ffff ffff ffff ffff ffff     ................
    4fb0:	ffff ffff ffff ffff ffff ffff ffff ffff     ................
    4fc0:	ffff ffff ffff ffff ffff ffff ffff ffff     ................
    4fd0:	ffff ffff ffff ffff ffff ffff ffff ffff     ................
    4fe0:	ffff ffff ffff ffff ffff ffff ffff ffff     ................
    4ff0:	ffff ffff ffff 01ff ffff ffff ffff ffff     ................
    5000:	ffff ffff ffff ff01 0101 ffff ffff ffff     ................
    5010:	ffff ffff 0101 3dff 01ff 0101 ffff ffff     .......=........
    5020:	ffff 01ff 5e5e ff01 4c01 4a4a ff01 ffff     ....^^...LJJ....
    5030:	ffff 5e01 4c4c 014c 4c4c 014c 014a ffff     ...^LLL.LLL.J...
    5040:	01ff 4c5e 4c01 4c4c 4c4c ff01 4a01 ff01     ..^L.LLLLL...J..
    5050:	01ff 015e 01ff 4c4c 014c 3dff 01ff ff01     ..^...LLL..=....
    5060:	01ff ff01 ff3d 4c01 4c4c ff01 4a01 ff01     ....=..LLL...J..
    5070:	01ff 015e 01ff 4c4c 4c4c 014c 4a4a ff01     ..^...LLLLL.JJ..
    5080:	ffff 5e01 5e01 4c5e 4c4a 4a4a 014a ffff     ...^.^^LJLJJJ...
    5090:	ffff ffff ffff ffff ffff ffff ffff ffff     ................
    50a0:	ffff ffff ffff ffff ffff ffff ffff ffff     ................
    50b0:	ffff ffff ffff 0909 0909 ffff ffff ffff     ................
    50c0:	ffff ffff 09ff 7b7b 7b7b ff09 ffff ffff     ......{{{{......
    50d0:	ffff ffff ff09 7b7b 7b7b 09aa ffff ffff     ......{{{{......
    50e0:	ffff 09ff 7b7b aaaa aaaa 5959 ff09 ffff     ....{{....YY....
    50f0:	ffff 09ff 7b7b aaaa aaaa 5959 ff09 ffff     ....{{....YY....
    5100:	ffff 09ff 7b7b aaaa aaaa 5959 ff09 ffff     ....{{....YY....
    5110:	ffff 09ff 7b7b aaaa aaaa 5959 ff09 ffff     ....{{....YY....
    5120:	ffff 09ff 7b7b aaaa aaaa 5959 ff09 ffff     ....{{....YY....
    5130:	ffff 09ff 7b7b aaaa aaaa 5959 ff09 ffff     ....{{....YY....
    5140:	ffff ffff aa09 5959 5959 0959 ffff ffff     ......YYYYY.....
    5150:	ffff ffff 09ff 5959 5959 ff09 ffff ffff     ......YYYY......
    5160:	ffff ffff ffff 0909 0909 ffff ffff ffff     ................
    5170:	ffff ffff ffff ffff ffff ffff ffff ffff     ................
    5180:	ffff ffff ffff ffff ffff ffff ffff ffff     ................
    5190:	ffff ffff ffff ffff ffff ffff ffff ffff     ................
    51a0:	ffff ffff ffff ffff ffff ffff ffff ffff     ................
    51b0:	ffff ffff ffff 0101 0101 ffff ffff ffff     ................
    51c0:	ffff ffff 01ff 5e5e 5e5e ff01 ffff ffff     ......^^^^......
    51d0:	ffff ffff ff01 5e5e 5e5e 014c ffff ffff     ......^^^^L.....
    51e0:	ffff 01ff 5e5e 4c4c 4c4c 4a4a ff01 ffff     ....^^LLLLJJ....
    51f0:	ffff 01ff 5e5e 4c4c 4c4c 4a4a ff01 ffff     ....^^LLLLJJ....
    5200:	ffff 01ff 5e5e 4c4c 4c4c 4a4a ff01 ffff     ....^^LLLLJJ....
    5210:	ffff 01ff 5e5e 4c4c 4c4c 4a4a ff01 ffff     ....^^LLLLJJ....
    5220:	ffff 01ff 5e5e 4c4c 4c4c 4a4a ff01 ffff     ....^^LLLLJJ....
    5230:	ffff 01ff 5e5e 4c4c 4c4c 4a4a ff01 ffff     ....^^LLLLJJ....
    5240:	ffff ffff 4c01 4a4a 4a4a 014a ffff ffff     .....LJJJJJ.....
    5250:	ffff ffff 01ff 4a4a 4a4a ff01 ffff ffff     ......JJJJ......
    5260:	ffff ffff ffff 0101 0101 ffff ffff ffff     ................
    5270:	ffff ffff ffff ffff ffff ffff ffff ffff     ................
    5280:	ffff ffff ffff ffff ffff ffff ffff ffff     ................
    5290:	ffff ffff ffff ffff ffff ffff ffff ffff     ................
    52a0:	ffff ffff ffff ffff ffff ffff ffff ffff     ................
    52b0:	ffff ffff ffff 0909 0909 ffff ffff ffff     ................
    52c0:	ffff ffff 09ff 7f7f 7f7f ff09 ffff ffff     ................
    52d0:	ffff ffff ff09 7f7f 7f7f 093d ffff ffff     ..........=.....
    52e0:	ffff 09ff 7f7f 3d3d 3d3d 3b3b ff09 ffff     ......====;;....
    52f0:	ffff 09ff 7f7f 3d3d 3d3d 3b3b ff09 ffff     ......====;;....
    5300:	ffff 09ff 7f7f 3d3d 3d3d 3b3b ff09 ffff     ......====;;....
    5310:	ffff 09ff 7f7f 3d3d 3d3d 3b3b ff09 ffff     ......====;;....
    5320:	ffff 09ff 7f7f 3d3d 3d3d 3b3b ff09 ffff     ......====;;....
    5330:	ffff 09ff 7f7f 3d3d 3d3d 3b3b ff09 ffff     ......====;;....
    5340:	ffff ffff 3d09 3b3b 3b3b 093b ffff ffff     .....=;;;;;.....
    5350:	ffff ffff 09ff 3b3b 3b3b ff09 ffff ffff     ......;;;;......
    5360:	ffff ffff ffff 0909 0909 ffff ffff ffff     ................
    5370:	ffff ffff ffff ffff ffff ffff ffff ffff     ................
    5380:	ffff ffff ffff ffff ffff ffff ffff ffff     ................
    5390:	ffff ffff ffff ffff ffff ffff ffff ffff     ................
    53a0:	ffff ffff ffff ffff ffff ffff ffff ffff     ................
    53b0:	ffff ffff ffff 4949 4949 ffff ffff ffff     ......IIII......
    53c0:	ffff ffff 49ff cfcf cfcf ff49 ffff ffff     .....I....I.....
    53d0:	ffff ffff ff49 cfcf cfcf 49c4 ffff ffff     ....I......I....
    53e0:	ffff 49ff cfcf c4c4 c4c4 8282 ff49 ffff     ...I........I...
    53f0:	ffff 49ff cfcf c4c4 c4c4 8282 ff49 ffff     ...I........I...
    5400:	ffff 49ff cfcf c4c4 c4c4 8282 ff49 ffff     ...I........I...
    5410:	ffff 49ff cfcf c4c4 c4c4 8282 ff49 ffff     ...I........I...
    5420:	ffff 49ff cfcf c4c4 c4c4 8282 ff49 ffff     ...I........I...
    5430:	ffff 49ff cfcf c4c4 c4c4 8282 ff49 ffff     ...I........I...
    5440:	ffff ffff c449 8282 8282 4982 ffff ffff     ....I......I....
    5450:	ffff ffff 49ff 8282 8282 ff49 ffff ffff     .....I....I.....
    5460:	ffff ffff ffff 4949 4949 ffff ffff ffff     ......IIII......
    5470:	ffff ffff ffff ffff ffff ffff ffff ffff     ................
    5480:	ffff ffff ffff ffff ffff ffff ffff ffff     ................
    5490:	ffff ffff ffff ffff ffff ffff ffff ffff     ................
    54a0:	ffff ffff ffff ffff ffff ffff ffff ffff     ................
    54b0:	ffff ffff ffff ffff ffff ffff ffff ffff     ................
    54c0:	ffff ffff ffff ffff ffff ffff ffff ffff     ................
    54d0:	ffff ffff ffff ffff ffff ffff ffff ffff     ................
    54e0:	ffff ffff ffff ffff ffff ffff ffff ffff     ................
    54f0:	ffff ffff ffff ffff ffff ffff ffff ffff     ................
    5500:	ffff ffff ffff ffff ffff ffff ffff ffff     ................
    5510:	ffff ffff ffff ffff ffff ffff ffff ffff     ................
    5520:	ffff ffff 0909 0909 0909 ffff ffff ffff     ................
    5530:	ffff 09ff f6f6 93f6 93f6 ff09 ffff ffff     ................
    5540:	ffff 09ff 93f6 9393 9393 094a ffff ffff     ..........J.....
    5550:	ffff f609 9393 9393 9393 094a ffff ffff     ..........J.....
    5560:	ffff f609 9393 9393 9393 4a93 ff09 ffff     ...........J....
    5570:	ffff f609 9393 9393 9393 9393 094a ffff     ............J...
    5580:	ffff f609 4a4a 4a4a 4a4a 4a4a 094a ffff     ....JJJJJJJJJ...
    5590:	ffff ffff ffff ffff ffff ffff ffff ffff     ................
    55a0:	ffff ffff ffff ffff ffff ffff ffff ffff     ................
    55b0:	ffff ffff ffff 49ff ff49 ffff ffff ffff     .......II.......
    55c0:	ffff ffff ffff 2249 4919 ffff ffff ffff     ......I".I......
    55d0:	ffff ffff ffff 4949 4949 ffff ffff ffff     ......IIII......
    55e0:	ffff ffff 49ff c4cf c4cf ff49 ffff ffff     .....I....I.....
    55f0:	ffff ffff ffff cf49 49c4 ffff ffff ffff     ......I..I......
    5600:	ffff ffff ffff cf49 49c4 ffff ffff ffff     ......I..I......
    5610:	ffff ffff ffff cf49 49c4 ffff ffff ffff     ......I..I......
    5620:	ffff ffff 49ff c4cf cfc4 ff49 ffff ffff     .....I....I.....
    5630:	ffff ffff cf49 c4c4 c4c4 49cf ffff ffff     ....I......I....
    5640:	ffff 49ff 7b7b aa7b aa7b 597b ff49 ffff     ...I{{{.{.{YI...
    5650:	ffff 49ff aaaa aaaa aaaa 59aa ff49 ffff     ...I.......YI...
    5660:	ffff 49ff aaaa aaaa aaaa 5959 ff49 ffff     ...I......YYI...
    5670:	ffff ffff 5949 5959 5959 4959 ffff ffff     ....IYYYYYYI....
    5680:	ffff ffff 49ff 4949 4949 ff49 ffff ffff     .....IIIIII.....
    5690:	ffff ffff ffff ffff ffff ffff ffff ffff     ................
    56a0:	ffff ffff ffff ffff ffff ffff ffff ffff     ................
    56b0:	ffff ffff ffff 49ff ff49 ffff ffff ffff     .......II.......
    56c0:	ffff ffff ffff 2249 4919 ffff ffff ffff     ......I".I......
    56d0:	ffff ffff ffff 4949 4949 ffff ffff ffff     ......IIII......
    56e0:	ffff ffff 49ff c4cf c4cf ff49 ffff ffff     .....I....I.....
    56f0:	ffff ffff ffff cf49 49c4 ffff ffff ffff     ......I..I......
    5700:	ffff ffff ffff cf49 49c4 ffff ffff ffff     ......I..I......
    5710:	ffff ffff ffff cf49 49c4 ffff ffff ffff     ......I..I......
    5720:	ffff ffff 49ff c4cf cfc4 ff49 ffff ffff     .....I....I.....
    5730:	ffff ffff cf49 c4c4 c4c4 49cf ffff ffff     ....I......I....
    5740:	ffff 49ff 7f7f 3d7f 3d7f 3b7f ff49 ffff     ...I...=.=.;I...
    5750:	ffff 49ff 3d3d 3d3d 3d3d 3b3d ff49 ffff     ...I=======;I...
    5760:	ffff 49ff 3d3d 3d3d 3d3d 3b3b ff49 ffff     ...I======;;I...
    5770:	ffff ffff 3b49 3b3b 3b3b 493b ffff ffff     ....I;;;;;;I....
    5780:	ffff ffff 49ff 4949 4949 ff49 ffff ffff     .....IIIIII.....
    5790:	ffff ffff ffff ffff ffff ffff ffff ffff     ................
    57a0:	ffff ffff ffff ffff ffff ffff ffff ffff     ................
    57b0:	ffff ffff ffff 49ff ff49 ffff ffff ffff     .......II.......
    57c0:	ffff ffff ffff 2249 4919 ffff ffff ffff     ......I".I......
    57d0:	ffff ffff ffff 4949 4949 ffff ffff ffff     ......IIII......
    57e0:	ffff ffff 49ff c4cf c4cf ff49 ffff ffff     .....I....I.....
    57f0:	ffff ffff ffff cf49 49c4 ffff ffff ffff     ......I..I......
    5800:	ffff ffff ffff cf49 49c4 ffff ffff ffff     ......I..I......
    5810:	ffff ffff ffff cf49 49c4 ffff ffff ffff     ......I..I......
    5820:	ffff ffff 49ff c4cf cfc4 ff49 ffff ffff     .....I....I.....
    5830:	ffff ffff cf49 c4c4 c4c4 49cf ffff ffff     ....I......I....
    5840:	ffff 49ff 7f7f 5e7f 5e7f 4c7f ff49 ffff     ...I...^.^.LI...
    5850:	ffff 49ff 5e5e 5e5e 5e5e 4c5e ff49 ffff     ...I^^^^^^^LI...
    5860:	ffff 49ff 5e5e 5e5e 5e5e 4c4c ff49 ffff     ...I^^^^^^LLI...
    5870:	ffff ffff 4c49 4c4c 4c4c 494c ffff ffff     ....ILLLLLLI....
    5880:	ffff ffff 49ff 4949 4949 ff49 ffff ffff     .....IIIIII.....
    5890:	ffff ffff ffff ffff ffff ffff ffff ffff     ................
    58a0:	ffff ffff ffff ffff ffff ffff ffff ffff     ................
    58b0:	ffff ffff ffff 49ff ff49 ffff ffff ffff     .......II.......
    58c0:	ffff ffff ffff 2249 4919 ffff ffff ffff     ......I".I......
    58d0:	ffff ffff ffff 4949 4949 ffff ffff ffff     ......IIII......
    58e0:	ffff ffff 49ff c4cf c4cf ff49 ffff ffff     .....I....I.....
    58f0:	ffff ffff ffff cf49 49c4 ffff ffff ffff     ......I..I......
    5900:	ffff ffff ffff cf49 49c4 ffff ffff ffff     ......I..I......
    5910:	ffff ffff ffff cf49 49c4 ffff ffff ffff     ......I..I......
    5920:	ffff ffff 49ff c4cf cfc4 ff49 ffff ffff     .....I....I.....
    5930:	ffff ffff cf49 c4c4 c4c4 49cf ffff ffff     ....I......I....
    5940:	ffff 49ff 7d7d 6b7d 6b7d 197d ff49 ffff     ...I}}}k}k}.I...
    5950:	ffff 49ff 6b6b 6b6b 6b6b 196b ff49 ffff     ...Ikkkkkkk.I...
    5960:	ffff 49ff 6b6b 6b6b 6b6b 1919 ff49 ffff     ...Ikkkkkk..I...
    5970:	ffff ffff 1949 1919 1919 4919 ffff ffff     ....I......I....
    5980:	ffff ffff 49ff 4949 4949 ff49 ffff ffff     .....IIIIII.....
    5990:	ffff ffff ffff ffff ffff ffff ffff ffff     ................
    59a0:	ffff ffff ffff ffff ffff ffff ffff ffff     ................
    59b0:	ffff ffff ffff ffff ffff ffff ffff ffff     ................
    59c0:	ffff ffff ffff ffff ffff ffff ffff ffff     ................
    59d0:	ffff ffff ffff ffff ffff ffff ffff ffff     ................
    59e0:	ffff ffff ffff ffff ffff ffff ffff ffff     ................
    59f0:	ffff ffff ffff ffff ffff ffff ffff ffff     ................
    5a00:	ffff ffff ffff ffff ffff ffff ffff ffff     ................
    5a10:	ffff ffff ffff ffff ffff ffff ffff ffff     ................
    5a20:	ffff ffff ffff ffff ffff ffff ffff ffff     ................
    5a30:	ffff ffff ffff ffff ffff ffff ffff ffff     ................
    5a40:	ffff ffff ffff ffff ffff ffff ffff ffff     ................
    5a50:	ffff ffff 09ff 0909 0909 0909 ffff ffff     ................
    5a60:	ffff 09ff 1a09 6b6b 6b6b 6b6b 0909 ffff     ......kkkkkk....
    5a70:	ffff 1a09 6b6b 6b6b 6b6b 6b6b 6b6b ff09     ....kkkkkkkkkk..
    5a80:	09ff 1a1a 6b1a 6b6b 6b6b 6b6b 6b6b 096b     .....kkkkkkkkkk.
    5a90:	1a09 1a1a 1a1a 6b6b 6b6b 6b6b 6b6b 096b     ......kkkkkkkkk.
    5aa0:	1a09 1a1a 1a1a 1a1a 6b6b 6b6b 1a6b 096b     ........kkkkk.k.
    5ab0:	1a09 1a1a 1a1a 6b1a 1a1a 1a1a 6b1a 096b     .......k.....kk.
    5ac0:	1a09 1a1a 6b1a be6b 7575 7575 6b75 096b     .....kk.uuuuukk.
    5ad0:	1a09 1a1a 751a be75 bebe bebe bebe ff09     .....uu.........
    5ae0:	1a09 6b1a 751a be75 be09 bebe be09 ff09     ...k.uu.........
    5af0:	09ff 6b1a 756b be75 be75 bebe be75 ff09     ...kkuu.u...u...
    5b00:	09ff 1a1a 756b be75 bebe bebe bebe ff09     ....kuu.........
    5b10:	09ff 0909 0303 be75 bebe bebe 0909 ff09     ......u.........
    5b20:	09ff be75 0309 0303 0303 0903 be75 ff09     ..u.........u...
    5b30:	09ff be75 0309 5503 5555 0955 be75 ff09     ..u....UUUU.u...
    5b40:	ffff 0909 0303 5555 5555 5555 0909 ffff     ......UUUUUU....
    5b50:	ffff ca09 caca cccc cccc cccc ff09 ffff     ................
    5b60:	ffff ca09 09cc 0909 0909 ccca ff09 ffff     ................
    5b70:	ffff ca09 09cc ffff 09ff 6b1a ff09 ffff     ...........k....
    5b80:	ffff 1a09 096b ffff ffff ffff ffff ffff     ....k...........
    5b90:	ffff ffff ffff ffff ffff ffff ffff ffff     ................
    5ba0:	ffff ffff ffff ffff ffff ffff ffff ffff     ................
    5bb0:	ffff ffff ffff ffff ffff ffff ffff ffff     ................
    5bc0:	ffff ffff ffff ffff ffff ffff ffff ffff     ................
    5bd0:	ffff ffff ffff ffff ffff ffff ffff ffff     ................
    5be0:	ffff ffff ffff ffff ffff ffff ffff ffff     ................
    5bf0:	ffff ffff ffff ffff ffff ffff ffff ffff     ................
    5c00:	ffff ffff ffff ffff ffff ffff ffff ffff     ................
    5c10:	ffff ffff ffff ffff ffff ffff ffff ffff     ................
    5c20:	ffff ffff ffff ffff ffff ffff ffff ffff     ................
    5c30:	ffff ffff ffff ffff ffff ffff ffff ffff     ................
    5c40:	ffff ffff 09ff 0909 0909 0909 ffff ffff     ................
    5c50:	ffff 09ff 1a09 6b6b 6b6b 6b6b 0909 ffff     ......kkkkkk....
    5c60:	ffff 1a09 6b6b 6b6b 6b6b 6b6b 6b6b ff09     ....kkkkkkkkkk..
    5c70:	09ff 1a1a 6b1a 6b6b 6b6b 6b6b 6b6b 096b     .....kkkkkkkkkk.
    5c80:	1a09 1a1a 1a1a 6b6b 6b6b 6b6b 6b6b 096b     ......kkkkkkkkk.
    5c90:	1a09 1a1a 1a1a 1a1a 6b6b 6b6b 1a6b 096b     ........kkkkk.k.
    5ca0:	1a09 1a1a 1a1a 6b1a 1a1a 1a1a 6b1a 096b     .......k.....kk.
    5cb0:	1a09 1a1a 6b1a be6b 7575 7575 6b75 096b     .....kk.uuuuukk.
    5cc0:	1a09 1a1a 751a be75 bebe bebe bebe ff09     .....uu.........
    5cd0:	1a09 6b1a 751a be75 be09 bebe be09 ff09     ...k.uu.........
    5ce0:	09ff 6b1a 756b be75 be75 bebe be75 ff09     ...kkuu.u...u...
    5cf0:	09ff 1a1a 756b be75 bebe bebe bebe ff09     ....kuu.........
    5d00:	09ff 1a1a 756b be75 bebe bebe bebe ff09     ....kuu.........
    5d10:	09ff 0909 0303 be75 bebe bebe 0909 ff09     ......u.........
    5d20:	09ff be75 0309 0303 0303 0903 be75 ff09     ..u.........u...
    5d30:	09ff be75 0309 5503 5555 0955 be75 ff09     ..u....UUUU.u...
    5d40:	ffff 0909 0303 5555 5555 5555 0909 ffff     ......UUUUUU....
    5d50:	ffff ca09 caca cccc cccc cccc ff09 ffff     ................
    5d60:	ffff ca09 09cc 0909 0909 ccca ff09 ffff     ................
    5d70:	ffff ca09 09cc ffff 09ff ccca ff09 ffff     ................
    5d80:	ffff 1a09 096b ffff 09ff 6b1a ff09 ffff     ....k......k....
    5d90:	ffff ffff ffff ffff ffff ffff ffff ffff     ................
    5da0:	ffff ffff ffff ffff ffff ffff ffff ffff     ................
    5db0:	ffff ffff ffff ffff ffff ffff ffff ffff     ................
    5dc0:	ffff ffff ffff ffff ffff ffff ffff ffff     ................
    5dd0:	ffff ffff ffff ffff ffff ffff ffff ffff     ................
    5de0:	ffff ffff ffff ffff ffff ffff ffff ffff     ................
    5df0:	ffff ffff ffff ffff ffff ffff ffff ffff     ................
    5e00:	ffff ffff ffff ffff ffff ffff ffff ffff     ................
    5e10:	ffff ffff ffff ffff ffff ffff ffff ffff     ................
    5e20:	ffff ffff ffff ffff ffff ffff ffff ffff     ................
    5e30:	ffff ffff ffff ffff ffff ffff ffff ffff     ................
    5e40:	ffff ffff ffff ffff ffff ffff ffff ffff     ................
    5e50:	ffff ffff 09ff 0909 0909 0909 ffff ffff     ................
    5e60:	ffff 09ff 1a09 6b6b 6b6b 6b6b 0909 ffff     ......kkkkkk....
    5e70:	ffff 1a09 6b6b 6b6b 6b6b 6b6b 6b6b ff09     ....kkkkkkkkkk..
    5e80:	09ff 1a1a 6b1a 6b6b 6b6b 6b6b 6b6b 096b     .....kkkkkkkkkk.
    5e90:	1a09 1a1a 1a1a 6b6b 6b6b 6b6b 6b6b 096b     ......kkkkkkkkk.
    5ea0:	1a09 1a1a 1a1a 1a1a 6b6b 6b6b 1a6b 096b     ........kkkkk.k.
    5eb0:	1a09 1a1a 1a1a 6b1a 1a1a 1a1a 6b1a 096b     .......k.....kk.
    5ec0:	1a09 1a1a 6b1a be6b 7575 7575 6b75 096b     .....kk.uuuuukk.
    5ed0:	1a09 1a1a 751a be75 bebe bebe bebe ff09     .....uu.........
    5ee0:	1a09 6b1a 751a be75 be09 bebe be09 ff09     ...k.uu.........
    5ef0:	09ff 6b1a 756b be75 be75 bebe be75 ff09     ...kkuu.u...u...
    5f00:	09ff 1a1a 756b be75 bebe bebe bebe ff09     ....kuu.........
    5f10:	09ff 0909 0303 be75 bebe bebe 0909 ff09     ......u.........
    5f20:	09ff be75 0309 0303 0303 0903 be75 ff09     ..u.........u...
    5f30:	09ff be75 0309 5503 5555 0955 be75 ff09     ..u....UUUU.u...
    5f40:	ffff 0909 0303 5555 5555 5555 0909 ffff     ......UUUUUU....
    5f50:	ffff ca09 caca cccc cccc cccc ff09 ffff     ................
    5f60:	ffff ca09 09cc 0909 0909 ccca ff09 ffff     ................
    5f70:	ffff 1a09 096b ffff 09ff ccca ff09 ffff     ....k...........
    5f80:	ffff ffff ffff ffff 09ff 6b1a ff09 ffff     ...........k....
    5f90:	ffff ffff ffff ffff ffff ffff ffff ffff     ................
    5fa0:	ffff ffff ffff ffff ffff ffff ffff ffff     ................
    5fb0:	ffff ffff ffff ffff ffff ffff ffff ffff     ................
    5fc0:	ffff ffff ffff ffff ffff ffff ffff ffff     ................
    5fd0:	ffff ffff ffff ffff ffff ffff ffff ffff     ................
    5fe0:	ffff ffff ffff ffff ffff ffff ffff ffff     ................
    5ff0:	ffff ffff ffff ffff ffff ffff ffff ffff     ................
    6000:	ffff ffff ffff ffff ffff ffff ffff ffff     ................
    6010:	ffff ffff ffff ffff ffff ffff ffff ffff     ................
    6020:	ffff ffff ffff ffff ffff ffff ffff ffff     ................
    6030:	ffff ffff ffff ffff ffff ffff ffff ffff     ................
    6040:	ffff ffff ffff ffff ffff ffff ffff ffff     ................
    6050:	ffff ffff 09ff 0909 0909 0909 ffff ffff     ................
    6060:	ffff 09ff 1a09 6b6b 6b6b 6b6b 0909 ffff     ......kkkkkk....
    6070:	ffff 1a09 6b6b 6b6b 6b6b 6b6b 6b6b ff09     ....kkkkkkkkkk..
    6080:	09ff 1a1a 6b1a 6b6b 6b6b 6b6b 6b6b 096b     .....kkkkkkkkkk.
    6090:	1a09 1a1a 1a1a 6b6b 6b6b 6b6b 6b6b 096b     ......kkkkkkkkk.
    60a0:	1a09 1a1a 1a1a 1a1a 6b6b 6b6b 1a6b 096b     ........kkkkk.k.
    60b0:	1a09 1a1a 1a1a 6b1a 1a1a 1a1a 6b1a 096b     .......k.....kk.
    60c0:	1a09 1a1a 6b1a be6b 7575 7575 6b75 096b     .....kk.uuuuukk.
    60d0:	1a09 1a1a 751a be75 bebe bebe bebe ff09     .....uu.........
    60e0:	1a09 6b1a 751a be75 be09 bebe be09 ff09     ...k.uu.........
    60f0:	09ff 6b1a 756b be75 be75 bebe be75 ff09     ...kkuu.u...u...
    6100:	09ff 1a1a 756b be75 bebe bebe bebe ff09     ....kuu.........
    6110:	09ff 0909 0303 be75 bebe bebe 0909 ff09     ......u.........
    6120:	09ff be75 0309 0303 0303 0903 be75 ff09     ..u.........u...
    6130:	09ff be75 0309 5503 5555 0955 be75 ff09     ..u....UUUU.u...
    6140:	ffff 0909 0303 5555 5555 5555 0909 ffff     ......UUUUUU....
    6150:	ffff ca09 caca cccc cccc cccc ff09 ffff     ................
    6160:	ffff ca09 09cc 0909 0909 ccca ff09 ffff     ................
    6170:	ffff ca09 09cc ffff 09ff ccca ff09 ffff     ................
    6180:	ffff 1a09 096b ffff 09ff 6b1a ff09 ffff     ....k......k....

00006190 <_ZL4font>:
	...
    6198:	0000 00ff 0000 0000 ff00 ff00 0000 0000     ................
    61a8:	0000 00ff 00ff 0000 ff00 ffff 0000 0000     ................
    61b8:	ff00 ffff 00ff 0000 0000 00ff 0000 0000     ................
    61c8:	0000 00ff 0000 0000 0000 ff00 0000 0000     ................
    61d8:	ff00 0000 0000 0000 0000 00ff 0000 0000     ................
	...
    620c:	00ff 0000 ff00 ffff 0000 0000 0000 00ff     ................
    621c:	0000 0000 ff00 ffff 0000 0000 ffff ffff     ................
    622c:	00ff 0000 0000 ff00 0000 0000 ffff ffff     ................
    623c:	00ff 0000 0000 ffff 0000 0000 ffff ffff     ................
    624c:	00ff 0000 ff00 ffff 0000 0000 ff00 ffff     ................
	...
    6288:	0000 ffff 0000 0000 0000 0000 0000 0000     ................
    6298:	0000 00ff 0000 0000 ff00 ff00 0000 0000     ................
    62a8:	ffff ffff 00ff 0000 00ff 00ff 00ff 0000     ................
    62b8:	00ff 00ff 00ff 0000 ff00 ff00 0000 0000     ................
    62c8:	0000 00ff 0000 0000 0000 00ff 0000 0000     ................
    62d8:	0000 00ff 0000 0000 00ff 00ff 00ff 0000     ................
    62e8:	0000 00ff 0000 0000 0000 0000 0000 0000     ................
	...
    630c:	00ff 0000 00ff 0000 00ff 0000 ff00 00ff     ................
    631c:	0000 0000 00ff 0000 00ff 0000 0000 ff00     ................
    632c:	0000 0000 0000 ffff 0000 0000 00ff 0000     ................
    633c:	0000 0000 ff00 0000 0000 0000 0000 0000     ................
    634c:	00ff 0000 00ff 0000 00ff 0000 00ff 0000     ................
    635c:	00ff 0000 0000 0000 0000 0000 0000 0000     ................
    636c:	0000 0000 0000 ff00 0000 0000 0000 0000     ................
    637c:	0000 0000 ff00 0000 0000 0000 ff00 0000     ................
    638c:	00ff 0000 0000 0000 0000 0000 0000 00ff     ................
	...
    63a8:	ff00 ff00 0000 0000 00ff 00ff 0000 0000     ................
    63b8:	00ff ffff 0000 0000 0000 00ff 0000 0000     ................
	...
    63d0:	ff00 0000 0000 0000 0000 ff00 0000 0000     ................
    63e0:	ff00 ffff 0000 0000 0000 00ff 0000 0000     ................
	...
    6408:	0000 ff00 0000 0000 00ff ff00 00ff 0000     ................
    6418:	0000 00ff 0000 0000 0000 0000 00ff 0000     ................
    6428:	0000 00ff 0000 0000 ff00 ff00 0000 0000     ................
    6438:	ffff ffff 0000 0000 00ff 0000 0000 0000     ................
    6448:	0000 ff00 0000 0000 00ff 0000 00ff 0000     ................
    6458:	00ff 0000 00ff 0000 0000 00ff 0000 0000     ................
    6468:	0000 00ff 0000 0000 0000 00ff 0000 0000     ................
    6478:	ffff ffff 00ff 0000 0000 00ff 0000 0000     ................
    6488:	0000 0000 00ff 0000 0000 0000 0000 0000     ................
    6498:	0000 00ff 0000 0000 0000 0000 0000 0000     ................
    64a8:	ffff ffff 00ff 0000 ff00 ffff 0000 0000     ................
    64b8:	ff00 ffff 00ff 0000 ff00 ff00 ff00 0000     ................
	...
    64d0:	ff00 0000 0000 0000 0000 ff00 0000 0000     ................
    64e0:	ff00 ff00 0000 0000 ffff ffff 00ff 0000     ................
	...
    64f8:	ff00 ffff 00ff 0000 0000 0000 0000 0000     ................
    6508:	0000 ff00 0000 0000 00ff 00ff 00ff 0000     ................
    6518:	0000 00ff 0000 0000 0000 ff00 0000 0000     ................
    6528:	ff00 ffff 0000 0000 00ff ff00 0000 0000     ................
    6538:	0000 0000 00ff 0000 ffff ffff 0000 0000     ................
    6548:	0000 ff00 0000 0000 ff00 ffff 0000 0000     ................
    6558:	ff00 ffff 00ff 0000 0000 0000 0000 0000     ................
	...
    6570:	ff00 0000 0000 0000 0000 0000 0000 0000     ................
    6580:	0000 ff00 0000 0000 0000 ff00 0000 0000     ................
	...
    6598:	0000 00ff 0000 0000 0000 0000 0000 0000     ................
    65a8:	00ff 00ff 0000 0000 0000 00ff 00ff 0000     ................
    65b8:	0000 ffff ff00 0000 00ff 0000 00ff 0000     ................
	...
    65d0:	ff00 0000 0000 0000 0000 ff00 0000 0000     ................
    65e0:	00ff 0000 00ff 0000 0000 00ff 0000 0000     ................
	...
    6608:	0000 00ff 0000 0000 ffff 0000 00ff 0000     ................
    6618:	0000 00ff 0000 0000 0000 00ff 0000 0000     ................
    6628:	0000 0000 00ff 0000 ffff ffff 00ff 0000     ................
    6638:	0000 0000 00ff 0000 00ff 0000 00ff 0000     ................
    6648:	0000 00ff 0000 0000 00ff 0000 00ff 0000     ................
    6658:	0000 0000 00ff 0000 0000 0000 0000 0000     ................
	...
    6670:	0000 00ff 0000 0000 ffff ffff 00ff 0000     ................
    6680:	0000 00ff 0000 0000 0000 00ff 0000 0000     ................
	...
    66b0:	00ff 00ff 00ff 0000 ff00 ff00 ff00 0000     ................
    66c0:	00ff 0000 00ff 0000 0000 0000 0000 0000     ................
    66d0:	ff00 0000 0000 0000 0000 ff00 0000 0000     ................
	...
    66e8:	0000 00ff 0000 0000 0000 00ff 0000 0000     ................
	...
    6708:	0000 00ff 0000 0000 00ff 0000 00ff 0000     ................
    6718:	0000 00ff 0000 0000 ff00 0000 0000 0000     ................
    6728:	00ff 0000 00ff 0000 0000 ff00 0000 0000     ................
    6738:	00ff 0000 00ff 0000 00ff 0000 00ff 0000     ................
    6748:	0000 00ff 0000 0000 00ff 0000 00ff 0000     ................
    6758:	0000 ff00 0000 0000 0000 0000 0000 0000     ................
    6768:	0000 00ff 0000 0000 0000 ff00 0000 0000     ................
	...
    6780:	ff00 0000 0000 0000 0000 0000 0000 0000     ................
	...
    6798:	0000 00ff 0000 0000 0000 0000 0000 0000     ................
	...
    67b0:	ff00 ffff 0000 0000 ff00 0000 00ff 0000     ................
    67c0:	ff00 ffff ff00 0000 0000 0000 0000 0000     ................
    67d0:	0000 00ff 0000 0000 0000 00ff 0000 0000     ................
	...
    67f0:	0000 00ff 0000 0000 0000 0000 0000 0000     ................
    6800:	0000 00ff 0000 0000 ff00 0000 0000 0000     ................
    6810:	ff00 ffff 0000 0000 0000 00ff 0000 0000     ................
    6820:	ffff ffff 00ff 0000 ff00 ffff 0000 0000     ................
    6830:	0000 ff00 0000 0000 ff00 ffff 0000 0000     ................
    6840:	ff00 ffff 0000 0000 0000 00ff 0000 0000     ................
    6850:	ff00 ffff 0000 0000 ff00 00ff 0000 0000     ................
    6860:	0000 00ff 0000 0000 0000 00ff 0000 0000     ................
	...
    6888:	0000 00ff 0000 0000 0000 0000 0000 0000     ................
	...
    68b0:	0000 00ff 0000 0000 0000 0000 0000 0000     ................
	...
    68d0:	0000 ff00 0000 0000 ff00 0000 0000 0000     ................
	...
    68f0:	ff00 0000 0000 0000 0000 0000 0000 0000     ................
	...
    6908:	ff00 0000 0000 0000 0000 0000 0000 0000     ................
	...
    6968:	ff00 0000 0000 0000 0000 0000 0000 0000     ................
	...
    6990:	0000 ffff 0000 0000 0000 00ff 0000 0000     ................
    69a0:	ffff ffff 0000 0000 ff00 ffff 0000 0000     ................
    69b0:	ffff 00ff 0000 0000 ff00 ffff 00ff 0000     ................
    69c0:	ff00 ffff 00ff 0000 ff00 ffff 0000 0000     ................
    69d0:	00ff 0000 00ff 0000 0000 00ff 0000 0000     ................
    69e0:	0000 0000 00ff 0000 00ff 0000 00ff 0000     ................
    69f0:	ff00 0000 0000 0000 00ff 0000 00ff 0000     ................
    6a00:	ffff 0000 00ff 0000 ff00 ffff 0000 0000     ................
    6a10:	ffff ffff 0000 0000 ff00 ffff 0000 0000     ................
    6a20:	ffff ffff 0000 0000 ff00 ffff 0000 0000     ................
    6a30:	ffff ffff 00ff 0000 00ff 0000 00ff 0000     ................
    6a40:	00ff 0000 00ff 0000 00ff 0000 00ff 0000     ................
    6a50:	00ff 0000 00ff 0000 00ff 0000 00ff 0000     ................
    6a60:	ff00 ffff 00ff 0000 0000 ffff 0000 0000     ................
    6a70:	ff00 0000 0000 0000 ff00 00ff 0000 0000     ................
    6a80:	0000 00ff 0000 0000 0000 0000 0000 0000     ................
    6a90:	ff00 0000 00ff 0000 0000 00ff 0000 0000     ................
    6aa0:	00ff 0000 00ff 0000 00ff 0000 00ff 0000     ................
    6ab0:	00ff ff00 0000 0000 ff00 0000 0000 0000     ................
    6ac0:	ff00 0000 0000 0000 00ff 0000 00ff 0000     ................
    6ad0:	00ff 0000 00ff 0000 0000 00ff 0000 0000     ................
    6ae0:	0000 0000 00ff 0000 00ff ff00 0000 0000     ................
    6af0:	ff00 0000 0000 0000 ffff ff00 00ff 0000     ................
    6b00:	ffff 0000 00ff 0000 00ff 0000 00ff 0000     ................
    6b10:	00ff 0000 00ff 0000 00ff 0000 00ff 0000     ................
    6b20:	00ff 0000 00ff 0000 00ff 0000 00ff 0000     ................
    6b30:	0000 00ff 0000 0000 00ff 0000 00ff 0000     ................
    6b40:	00ff 0000 00ff 0000 00ff 0000 00ff 0000     ................
    6b50:	00ff 0000 00ff 0000 00ff 0000 00ff 0000     ................
    6b60:	0000 0000 00ff 0000 0000 00ff 0000 0000     ................
    6b70:	ff00 0000 0000 0000 0000 00ff 0000 0000     ................
    6b80:	ff00 ff00 0000 0000 0000 0000 0000 0000     ................
    6b90:	00ff ffff ff00 0000 ff00 ff00 0000 0000     ................
    6ba0:	00ff 0000 00ff 0000 00ff 0000 0000 0000     ................
    6bb0:	00ff 0000 00ff 0000 ff00 0000 0000 0000     ................
    6bc0:	ff00 0000 0000 0000 00ff 0000 0000 0000     ................
    6bd0:	00ff 0000 00ff 0000 0000 00ff 0000 0000     ................
    6be0:	0000 0000 00ff 0000 00ff 00ff 0000 0000     ................
    6bf0:	ff00 0000 0000 0000 00ff 00ff 00ff 0000     ................
    6c00:	00ff 00ff 00ff 0000 00ff 0000 00ff 0000     ................
    6c10:	00ff 0000 00ff 0000 00ff 0000 00ff 0000     ................
    6c20:	00ff 0000 00ff 0000 00ff 0000 0000 0000     ................
    6c30:	0000 00ff 0000 0000 00ff 0000 00ff 0000     ................
    6c40:	00ff 0000 00ff 0000 00ff 00ff 00ff 0000     ................
    6c50:	ff00 ff00 0000 0000 ff00 ff00 0000 0000     ................
    6c60:	0000 ff00 0000 0000 0000 00ff 0000 0000     ................
    6c70:	0000 00ff 0000 0000 0000 00ff 0000 0000     ................
	...
    6c90:	ffff ff00 ff00 0000 ff00 ff00 0000 0000     ................
    6ca0:	ffff ffff 0000 0000 00ff 0000 0000 0000     ................
    6cb0:	00ff 0000 00ff 0000 ff00 ffff 0000 0000     ................
    6cc0:	ff00 ffff 0000 0000 00ff ff00 00ff 0000     ................
    6cd0:	ffff ffff 00ff 0000 0000 00ff 0000 0000     ................
    6ce0:	0000 0000 00ff 0000 ffff 0000 0000 0000     ................
    6cf0:	ff00 0000 0000 0000 00ff 0000 00ff 0000     ................
    6d00:	00ff 00ff 00ff 0000 00ff 0000 00ff 0000     ................
    6d10:	ffff ffff 0000 0000 00ff 0000 00ff 0000     ................
    6d20:	ffff ffff 0000 0000 ff00 ffff 0000 0000     ................
    6d30:	0000 00ff 0000 0000 00ff 0000 00ff 0000     ................
    6d40:	ff00 ff00 0000 0000 00ff 00ff 00ff 0000     ................
    6d50:	0000 00ff 0000 0000 0000 00ff 0000 0000     ................
    6d60:	0000 00ff 0000 0000 0000 00ff 0000 0000     ................
    6d70:	0000 00ff 0000 0000 0000 00ff 0000 0000     ................
	...
    6d90:	ffff ff00 ff00 0000 ffff ffff 00ff 0000     ................
    6da0:	00ff 0000 00ff 0000 00ff 0000 0000 0000     ................
    6db0:	00ff 0000 00ff 0000 ff00 0000 0000 0000     ................
    6dc0:	ff00 0000 0000 0000 00ff 0000 00ff 0000     ................
    6dd0:	00ff 0000 00ff 0000 0000 00ff 0000 0000     ................
    6de0:	00ff 0000 00ff 0000 00ff 00ff 0000 0000     ................
    6df0:	ff00 0000 0000 0000 00ff 0000 00ff 0000     ................
    6e00:	00ff ff00 00ff 0000 00ff 0000 00ff 0000     ................
    6e10:	00ff 0000 0000 0000 00ff 0000 00ff 0000     ................
    6e20:	00ff 00ff 0000 0000 0000 0000 00ff 0000     ................
    6e30:	0000 00ff 0000 0000 00ff 0000 00ff 0000     ................
    6e40:	ff00 ff00 0000 0000 ff00 ff00 0000 0000     ................
    6e50:	ff00 ff00 0000 0000 0000 00ff 0000 0000     ................
    6e60:	ff00 0000 0000 0000 0000 00ff 0000 0000     ................
    6e70:	0000 ff00 0000 0000 0000 00ff 0000 0000     ................
	...
    6e90:	00ff ffff 00ff 0000 00ff 0000 00ff 0000     ................
    6ea0:	00ff 0000 00ff 0000 00ff 0000 00ff 0000     ................
    6eb0:	00ff ff00 0000 0000 ff00 0000 0000 0000     ................
    6ec0:	ff00 0000 0000 0000 00ff 0000 00ff 0000     ................
    6ed0:	00ff 0000 00ff 0000 0000 00ff 0000 0000     ................
    6ee0:	00ff 0000 00ff 0000 00ff ff00 0000 0000     ................
    6ef0:	ff00 0000 0000 0000 00ff 0000 00ff 0000     ................
    6f00:	00ff ff00 00ff 0000 00ff 0000 00ff 0000     ................
    6f10:	00ff 0000 0000 0000 00ff 00ff 00ff 0000     ................
    6f20:	00ff ff00 0000 0000 00ff 0000 00ff 0000     ................
    6f30:	0000 00ff 0000 0000 00ff 0000 00ff 0000     ................
    6f40:	0000 00ff 0000 0000 ff00 ff00 0000 0000     ................
    6f50:	00ff 0000 00ff 0000 0000 00ff 0000 0000     ................
    6f60:	ff00 0000 0000 0000 0000 00ff 0000 0000     ................
    6f70:	0000 ff00 0000 0000 0000 00ff 0000 0000     ................
	...
    6f90:	ff00 0000 0000 0000 00ff 0000 00ff 0000     ................
    6fa0:	ffff ffff 0000 0000 ff00 ffff 0000 0000     ................
    6fb0:	ffff 00ff 0000 0000 ff00 ffff 00ff 0000     ................
    6fc0:	ff00 0000 0000 0000 ff00 ffff 0000 0000     ................
    6fd0:	00ff 0000 00ff 0000 0000 00ff 0000 0000     ................
    6fe0:	ff00 ffff 0000 0000 00ff 0000 00ff 0000     ................
    6ff0:	ff00 ffff 00ff 0000 00ff 0000 00ff 0000     ................
    7000:	00ff 0000 00ff 0000 ff00 ffff 0000 0000     ................
    7010:	00ff 0000 0000 0000 ff00 ffff 0000 0000     ................
    7020:	00ff 0000 00ff 0000 ff00 ffff 0000 0000     ................
    7030:	0000 00ff 0000 0000 ff00 ffff 0000 0000     ................
    7040:	0000 00ff 0000 0000 ff00 ff00 0000 0000     ................
    7050:	00ff 0000 00ff 0000 0000 00ff 0000 0000     ................
    7060:	ff00 ffff 00ff 0000 0000 00ff 0000 0000     ................
    7070:	0000 0000 00ff 0000 0000 00ff 0000 0000     ................
	...
    7090:	0000 ffff 0000 0000 0000 0000 0000 0000     ................
	...
    7118:	0000 ff00 0000 0000 0000 0000 0000 0000     ................
	...
    7168:	0000 ffff 0000 0000 0000 0000 00ff 0000     ................
    7178:	ff00 00ff 0000 0000 0000 0000 0000 0000     ................
    7188:	ffff ffff ffff 0000 0000 ffff 0000 0000     ................
	...
    71a0:	ff00 0000 0000 0000 0000 0000 0000 0000     ................
    71b0:	0000 0000 00ff 0000 0000 0000 0000 0000     ................
    71c0:	0000 ff00 00ff 0000 0000 0000 0000 0000     ................
    71d0:	ff00 0000 0000 0000 0000 00ff 0000 0000     ................
    71e0:	0000 ff00 0000 0000 ff00 0000 0000 0000     ................
    71f0:	0000 00ff 0000 0000 0000 0000 0000 0000     ................
	...
    7230:	0000 00ff 0000 0000 0000 0000 0000 0000     ................
	...
    7268:	0000 ff00 0000 0000 0000 00ff 0000 0000     ................
    7278:	ff00 0000 0000 0000 ff00 00ff 00ff 0000     ................
    7288:	0000 ffff 0000 0000 ff00 0000 0000 0000     ................
	...
    72a0:	ff00 0000 0000 0000 0000 0000 0000 0000     ................
    72b0:	0000 0000 00ff 0000 0000 0000 0000 0000     ................
    72c0:	0000 00ff 0000 0000 0000 0000 0000 0000     ................
    72d0:	ff00 0000 0000 0000 0000 0000 0000 0000     ................
	...
    72e8:	ff00 0000 0000 0000 0000 00ff 0000 0000     ................
	...
    7330:	0000 00ff 0000 0000 0000 0000 0000 0000     ................
	...
    7368:	0000 00ff 0000 0000 0000 00ff 0000 0000     ................
    7378:	0000 00ff 0000 0000 00ff ffff 0000 0000     ................
    7388:	ff00 0000 00ff 0000 ff00 0000 0000 0000     ................
    7398:	0000 ffff 0000 0000 ff00 ffff 0000 0000     ................
    73a8:	0000 ffff 0000 0000 0000 ffff 00ff 0000     ................
    73b8:	0000 ffff 0000 0000 ff00 ffff 0000 0000     ................
    73c8:	0000 ffff 00ff 0000 ff00 ffff 0000 0000     ................
    73d8:	0000 00ff 0000 0000 0000 ff00 0000 0000     ................
    73e8:	ff00 0000 00ff 0000 0000 00ff 0000 0000     ................
    73f8:	ffff ff00 0000 0000 ff00 ffff 0000 0000     ................
    7408:	0000 ffff 0000 0000 ff00 ffff 0000 0000     ................
    7418:	0000 ffff 00ff 0000 ff00 ff00 00ff 0000     ................
    7428:	0000 ffff 00ff 0000 ff00 ffff 0000 0000     ................
    7438:	ff00 0000 00ff 0000 00ff 0000 00ff 0000     ................
    7448:	00ff 0000 00ff 0000 00ff 0000 00ff 0000     ................
    7458:	00ff 0000 00ff 0000 ff00 ffff 00ff 0000     ................
    7468:	0000 00ff 0000 0000 0000 00ff 0000 0000     ................
    7478:	0000 00ff 0000 0000 0000 0000 0000 0000     ................
    7488:	00ff ffff ff00 0000 ffff 00ff 0000 0000     ................
    7498:	0000 0000 00ff 0000 ff00 0000 00ff 0000     ................
    74a8:	ff00 0000 00ff 0000 ff00 0000 00ff 0000     ................
    74b8:	ff00 0000 00ff 0000 0000 00ff 0000 0000     ................
    74c8:	ff00 0000 00ff 0000 ff00 0000 00ff 0000     ................
    74d8:	0000 00ff 0000 0000 0000 ff00 0000 0000     ................
    74e8:	ff00 ff00 0000 0000 0000 00ff 0000 0000     ................
    74f8:	00ff 00ff 00ff 0000 ff00 0000 00ff 0000     ................
    7508:	ff00 0000 00ff 0000 ff00 0000 00ff 0000     ................
    7518:	ff00 0000 00ff 0000 ff00 00ff 0000 0000     ................
    7528:	ff00 0000 0000 0000 0000 00ff 0000 0000     ................
    7538:	ff00 0000 00ff 0000 ff00 ff00 0000 0000     ................
    7548:	00ff 0000 00ff 0000 ff00 ff00 0000 0000     ................
    7558:	ff00 ff00 0000 0000 0000 ff00 0000 0000     ................
    7568:	ff00 0000 0000 0000 0000 0000 0000 0000     ................
    7578:	0000 ff00 0000 0000 0000 0000 0000 0000     ................
    7588:	ffff 0000 ff00 0000 ff00 0000 0000 0000     ................
    7598:	0000 ffff 00ff 0000 ff00 0000 00ff 0000     ................
    75a8:	ff00 0000 0000 0000 ff00 0000 00ff 0000     ................
    75b8:	ff00 ffff 00ff 0000 0000 00ff 0000 0000     ................
    75c8:	ff00 0000 00ff 0000 ff00 0000 00ff 0000     ................
    75d8:	0000 00ff 0000 0000 0000 ff00 0000 0000     ................
    75e8:	ff00 00ff 0000 0000 0000 00ff 0000 0000     ................
    75f8:	00ff 00ff 00ff 0000 ff00 0000 00ff 0000     ................
    7608:	ff00 0000 00ff 0000 ff00 0000 00ff 0000     ................
    7618:	ff00 0000 00ff 0000 ff00 0000 0000 0000     ................
    7628:	0000 ffff 0000 0000 0000 00ff 0000 0000     ................
    7638:	ff00 0000 00ff 0000 ff00 ff00 0000 0000     ................
    7648:	00ff 00ff 00ff 0000 0000 00ff 0000 0000     ................
    7658:	ff00 ff00 0000 0000 0000 00ff 0000 0000     ................
    7668:	0000 00ff 0000 0000 0000 0000 0000 0000     ................
    7678:	0000 00ff 0000 0000 0000 0000 0000 0000     ................
    7688:	ffff 0000 ff00 0000 ff00 0000 00ff 0000     ................
    7698:	ff00 0000 00ff 0000 ff00 0000 00ff 0000     ................
    76a8:	ff00 0000 00ff 0000 ff00 0000 00ff 0000     ................
    76b8:	ff00 0000 0000 0000 0000 00ff 0000 0000     ................
    76c8:	0000 ffff 00ff 0000 ff00 0000 00ff 0000     ................
    76d8:	0000 00ff 0000 0000 0000 ff00 0000 0000     ................
    76e8:	ff00 ff00 0000 0000 0000 00ff 0000 0000     ................
    76f8:	00ff 00ff 00ff 0000 ff00 0000 00ff 0000     ................
    7708:	ff00 0000 00ff 0000 ff00 ffff 0000 0000     ................
    7718:	0000 ffff 00ff 0000 ff00 0000 0000 0000     ................
    7728:	0000 0000 00ff 0000 0000 00ff 0000 0000     ................
    7738:	ff00 0000 00ff 0000 0000 00ff 0000 0000     ................
    7748:	ff00 ff00 0000 0000 ff00 ff00 0000 0000     ................
    7758:	0000 00ff 0000 0000 ff00 0000 0000 0000     ................
    7768:	0000 00ff 0000 0000 0000 00ff 0000 0000     ................
    7778:	0000 00ff 0000 0000 0000 0000 0000 0000     ................
    7788:	00ff ffff ff00 0000 ffff ffff 0000 0000     ................
    7798:	0000 ffff 00ff 0000 ff00 ffff 0000 0000     ................
    77a8:	0000 ffff 0000 0000 0000 ffff 00ff 0000     ................
    77b8:	0000 ffff 0000 0000 0000 00ff 0000 0000     ................
    77c8:	0000 0000 00ff 0000 ff00 0000 00ff 0000     ................
    77d8:	0000 00ff 0000 0000 0000 ff00 0000 0000     ................
    77e8:	ff00 0000 00ff 0000 0000 ff00 0000 0000     ................
    77f8:	00ff 00ff 00ff 0000 ff00 0000 00ff 0000     ................
    7808:	0000 ffff 0000 0000 ff00 0000 0000 0000     ................
    7818:	0000 0000 00ff 0000 ff00 0000 0000 0000     ................
    7828:	ff00 ffff 0000 0000 0000 ff00 0000 0000     ................
    7838:	0000 ffff 0000 0000 0000 00ff 0000 0000     ................
    7848:	ff00 ff00 0000 0000 00ff 0000 00ff 0000     ................
    7858:	0000 00ff 0000 0000 ff00 ffff 00ff 0000     ................
    7868:	0000 00ff 0000 0000 0000 00ff 0000 0000     ................
    7878:	0000 00ff 0000 0000 0000 0000 0000 0000     ................
    7888:	ff00 0000 00ff 0000 0000 0000 0000 0000     ................
	...
    78c8:	0000 ffff 0000 0000 0000 0000 0000 0000     ................
	...
    78e0:	ff00 00ff 0000 0000 0000 0000 0000 0000     ................
	...
    7910:	ff00 0000 0000 0000 0000 0000 00ff 0000     ................
	...
    7958:	ffff 0000 0000 0000 0000 0000 0000 0000     ................
    7968:	0000 ff00 0000 0000 0000 00ff 0000 0000     ................
    7978:	ff00 0000 0000 0000 0000 0000 0000 0000     ................
    7988:	0000 ffff 0000 0000                         ........
There are 17 section headers, starting at offset 0x9630:

Section Headers:
  [Nr] Name              Type            Addr     Off    Size   ES Flg Lk Inf Al
  [ 0]                   NULL            00000000 000000 000000 00      0   0  0
  [ 1] .boot             NOBITS          00000400 000400 000400 00  WA  0   0  1
  [ 2] .text             PROGBITS        00000800 000800 007190 00  AX  0   0 16
  [ 3] .srodata          PROGBITS        00007990 007990 000004 00   A  0   0  4
  [ 4] .data             PROGBITS        00007998 007998 001430 00  WA  0   0  8
  [ 5] .sdata            PROGBITS        00008dc8 008dc8 000004 00  WA  0   0  4
  [ 6] .stack            NOBITS          00008dcc 008dcc 001004 00  WA  0   0  1
  [ 7] .riscv.attributes RISCV_ATTRIBUTE 00000000 008dcc 000021 00      0   0  1
  [ 8] .comment          PROGBITS        00000000 008ded 000012 01  MS  0   0  1
  [ 9] .debug_line       PROGBITS        00000000 008dff 000183 00      0   0  1
  [10] .debug_info       PROGBITS        00000000 008f82 000026 00      0   0  1
  [11] .debug_abbrev     PROGBITS        00000000 008fa8 000014 00      0   0  1
  [12] .debug_aranges    PROGBITS        00000000 008fc0 000020 00      0   0  8
  [13] .debug_str        PROGBITS        00000000 008fe0 0000bb 01  MS  0   0  1
  [14] .symtab           SYMTAB          00000000 00909c 000370 10     15  27  4
  [15] .strtab           STRTAB          00000000 00940c 000184 00      0   0  1
  [16] .shstrtab         STRTAB          00000000 009590 00009f 00      0   0  1
Key to Flags:
  W (write), A (alloc), X (execute), M (merge), S (strings), I (info),
  L (link order), O (extra OS processing required), G (group), T (TLS),
  C (compressed), x (unknown), o (OS specific), E (exclude),
  p (processor specific)
