
rastertest.elf:     file format elf32-littleriscv


Disassembly of section .text:

00010080 <main>:
   10080:	fe010113          	addi	sp,sp,-32
   10084:	0f000513          	li	a0,240
   10088:	00112e23          	sw	ra,28(sp)
   1008c:	00812c23          	sw	s0,24(sp)
   10090:	00912a23          	sw	s1,20(sp)
   10094:	01212823          	sw	s2,16(sp)
   10098:	01312623          	sw	s3,12(sp)
   1009c:	01412423          	sw	s4,8(sp)
   100a0:	01512223          	sw	s5,4(sp)
   100a4:	220000ef          	jal	ra,102c4 <_Z11ClearScreenh>
   100a8:	00003537          	lui	a0,0x3
   100ac:	320000ef          	jal	ra,103cc <malloc>
   100b0:	0a050663          	beqz	a0,1015c <main+0xdc>
   100b4:	00050913          	mv	s2,a0
   100b8:	00100a13          	li	s4,1
   100bc:	00000993          	li	s3,0
   100c0:	08050a93          	addi	s5,a0,128 # 3080 <main-0xd000>
   100c4:	00003417          	auipc	s0,0x3
   100c8:	bc842403          	lw	s0,-1080(s0) # 12c8c <_GLOBAL_OFFSET_TABLE_+0x4>
   100cc:	0000c4b7          	lui	s1,0xc
   100d0:	00003637          	lui	a2,0x3
   100d4:	0ff00593          	li	a1,255
   100d8:	00090513          	mv	a0,s2
   100dc:	2a1000ef          	jal	ra,10b7c <memset>
   100e0:	05f00713          	li	a4,95
   100e4:	07f00693          	li	a3,127
   100e8:	00000613          	li	a2,0
   100ec:	00098593          	mv	a1,s3
   100f0:	00090513          	mv	a0,s2
   100f4:	15c000ef          	jal	ra,10250 <_Z7DDALinePhiiii>
   100f8:	07f00593          	li	a1,127
   100fc:	00090513          	mv	a0,s2
   10100:	05f00713          	li	a4,95
   10104:	00098693          	mv	a3,s3
   10108:	00000613          	li	a2,0
   1010c:	144000ef          	jal	ra,10250 <_Z7DDALinePhiiii>
   10110:	000a8593          	mv	a1,s5
   10114:	00000513          	li	a0,0
   10118:	f8058793          	addi	a5,a1,-128
   1011c:	00050693          	mv	a3,a0
   10120:	00042703          	lw	a4,0(s0)
   10124:	0007c603          	lbu	a2,0(a5)
   10128:	00178793          	addi	a5,a5,1
   1012c:	00d70733          	add	a4,a4,a3
   10130:	00c70023          	sb	a2,0(a4)
   10134:	00268693          	addi	a3,a3,2
   10138:	fef594e3          	bne	a1,a5,10120 <main+0xa0>
   1013c:	20050513          	addi	a0,a0,512
   10140:	08058593          	addi	a1,a1,128
   10144:	fc951ae3          	bne	a0,s1,10118 <main+0x98>
   10148:	014989b3          	add	s3,s3,s4
   1014c:	07f00793          	li	a5,127
   10150:	f937f0e3          	bgeu	a5,s3,100d0 <main+0x50>
   10154:	41400a33          	neg	s4,s4
   10158:	f79ff06f          	j	100d0 <main+0x50>
   1015c:	01c12083          	lw	ra,28(sp)
   10160:	01812403          	lw	s0,24(sp)
   10164:	01412483          	lw	s1,20(sp)
   10168:	01012903          	lw	s2,16(sp)
   1016c:	00c12983          	lw	s3,12(sp)
   10170:	00812a03          	lw	s4,8(sp)
   10174:	00412a83          	lw	s5,4(sp)
   10178:	02010113          	addi	sp,sp,32
   1017c:	00008067          	ret

00010180 <register_fini>:
   10180:	00000793          	li	a5,0
   10184:	00078863          	beqz	a5,10194 <register_fini+0x14>
   10188:	00011537          	lui	a0,0x11
   1018c:	ddc50513          	addi	a0,a0,-548 # 10ddc <__libc_fini_array>
   10190:	0d80106f          	j	11268 <atexit>
   10194:	00008067          	ret

00010198 <_start>:
   10198:	00003197          	auipc	gp,0x3
   1019c:	ab018193          	addi	gp,gp,-1360 # 12c48 <__global_pointer$>
   101a0:	05818513          	addi	a0,gp,88 # 12ca0 <__malloc_max_total_mem>
   101a4:	0b018613          	addi	a2,gp,176 # 12cf8 <__BSS_END__>
   101a8:	40a60633          	sub	a2,a2,a0
   101ac:	00000593          	li	a1,0
   101b0:	1cd000ef          	jal	ra,10b7c <memset>
   101b4:	00001517          	auipc	a0,0x1
   101b8:	0b450513          	addi	a0,a0,180 # 11268 <atexit>
   101bc:	00050863          	beqz	a0,101cc <_start+0x34>
   101c0:	00001517          	auipc	a0,0x1
   101c4:	c1c50513          	addi	a0,a0,-996 # 10ddc <__libc_fini_array>
   101c8:	0a0010ef          	jal	ra,11268 <atexit>
   101cc:	164000ef          	jal	ra,10330 <__libc_init_array>
   101d0:	00012503          	lw	a0,0(sp)
   101d4:	00410593          	addi	a1,sp,4
   101d8:	00000613          	li	a2,0
   101dc:	ea5ff0ef          	jal	ra,10080 <main>
   101e0:	1200006f          	j	10300 <exit>

000101e4 <__do_global_dtors_aux>:
   101e4:	06c1c703          	lbu	a4,108(gp) # 12cb4 <completed.1>
   101e8:	04071263          	bnez	a4,1022c <__do_global_dtors_aux+0x48>
   101ec:	ff010113          	addi	sp,sp,-16
   101f0:	00812423          	sw	s0,8(sp)
   101f4:	00078413          	mv	s0,a5
   101f8:	00112623          	sw	ra,12(sp)
   101fc:	00000793          	li	a5,0
   10200:	00078a63          	beqz	a5,10214 <__do_global_dtors_aux+0x30>
   10204:	00012537          	lui	a0,0x12
   10208:	3c450513          	addi	a0,a0,964 # 123c4 <__EH_FRAME_BEGIN__>
   1020c:	00000097          	auipc	ra,0x0
   10210:	000000e7          	jalr	zero # 0 <main-0x10080>
   10214:	00100793          	li	a5,1
   10218:	00c12083          	lw	ra,12(sp)
   1021c:	06f18623          	sb	a5,108(gp) # 12cb4 <completed.1>
   10220:	00812403          	lw	s0,8(sp)
   10224:	01010113          	addi	sp,sp,16
   10228:	00008067          	ret
   1022c:	00008067          	ret

00010230 <frame_dummy>:
   10230:	00000793          	li	a5,0
   10234:	00078c63          	beqz	a5,1024c <frame_dummy+0x1c>
   10238:	00012537          	lui	a0,0x12
   1023c:	07018593          	addi	a1,gp,112 # 12cb8 <object.0>
   10240:	3c450513          	addi	a0,a0,964 # 123c4 <__EH_FRAME_BEGIN__>
   10244:	00000317          	auipc	t1,0x0
   10248:	00000067          	jr	zero # 0 <main-0x10080>
   1024c:	00008067          	ret

00010250 <_Z7DDALinePhiiii>:
   10250:	40b68833          	sub	a6,a3,a1
   10254:	40c70733          	sub	a4,a4,a2
   10258:	41f75793          	srai	a5,a4,0x1f
   1025c:	41f85313          	srai	t1,a6,0x1f
   10260:	00e7c6b3          	xor	a3,a5,a4
   10264:	010348b3          	xor	a7,t1,a6
   10268:	406888b3          	sub	a7,a7,t1
   1026c:	40f687b3          	sub	a5,a3,a5
   10270:	0117d463          	bge	a5,a7,10278 <_Z7DDALinePhiiii+0x28>
   10274:	00088793          	mv	a5,a7
   10278:	00c71693          	slli	a3,a4,0xc
   1027c:	00c81813          	slli	a6,a6,0xc
   10280:	02f84833          	div	a6,a6,a5
   10284:	00c59593          	slli	a1,a1,0xc
   10288:	00c61613          	slli	a2,a2,0xc
   1028c:	00178313          	addi	t1,a5,1
   10290:	00000713          	li	a4,0
   10294:	02f6c6b3          	div	a3,a3,a5
   10298:	40c65793          	srai	a5,a2,0xc
   1029c:	00779793          	slli	a5,a5,0x7
   102a0:	40c5d893          	srai	a7,a1,0xc
   102a4:	00f507b3          	add	a5,a0,a5
   102a8:	011787b3          	add	a5,a5,a7
   102ac:	00078023          	sb	zero,0(a5)
   102b0:	00170713          	addi	a4,a4,1
   102b4:	010585b3          	add	a1,a1,a6
   102b8:	00d60633          	add	a2,a2,a3
   102bc:	fc671ee3          	bne	a4,t1,10298 <_Z7DDALinePhiiii+0x48>
   102c0:	00008067          	ret

000102c4 <_Z11ClearScreenh>:
   102c4:	00003797          	auipc	a5,0x3
   102c8:	9c87a783          	lw	a5,-1592(a5) # 12c8c <_GLOBAL_OFFSET_TABLE_+0x4>
   102cc:	01051693          	slli	a3,a0,0x10
   102d0:	01851713          	slli	a4,a0,0x18
   102d4:	0007a783          	lw	a5,0(a5)
   102d8:	00d76733          	or	a4,a4,a3
   102dc:	00a76733          	or	a4,a4,a0
   102e0:	0000c6b7          	lui	a3,0xc
   102e4:	00851513          	slli	a0,a0,0x8
   102e8:	00a76733          	or	a4,a4,a0
   102ec:	00d786b3          	add	a3,a5,a3
   102f0:	00e7a023          	sw	a4,0(a5)
   102f4:	00478793          	addi	a5,a5,4
   102f8:	fed79ce3          	bne	a5,a3,102f0 <_Z11ClearScreenh+0x2c>
   102fc:	00008067          	ret

00010300 <exit>:
   10300:	ff010113          	addi	sp,sp,-16
   10304:	00000593          	li	a1,0
   10308:	00812423          	sw	s0,8(sp)
   1030c:	00112623          	sw	ra,12(sp)
   10310:	00050413          	mv	s0,a0
   10314:	1a9000ef          	jal	ra,10cbc <__call_exitprocs>
   10318:	0481a503          	lw	a0,72(gp) # 12c90 <_global_impure_ptr>
   1031c:	03c52783          	lw	a5,60(a0)
   10320:	00078463          	beqz	a5,10328 <exit+0x28>
   10324:	000780e7          	jalr	a5
   10328:	00040513          	mv	a0,s0
   1032c:	7e9000ef          	jal	ra,11314 <_exit>

00010330 <__libc_init_array>:
   10330:	ff010113          	addi	sp,sp,-16
   10334:	00812423          	sw	s0,8(sp)
   10338:	01212023          	sw	s2,0(sp)
   1033c:	00012437          	lui	s0,0x12
   10340:	00012937          	lui	s2,0x12
   10344:	43c40793          	addi	a5,s0,1084 # 1243c <__init_array_start>
   10348:	43c90913          	addi	s2,s2,1084 # 1243c <__init_array_start>
   1034c:	40f90933          	sub	s2,s2,a5
   10350:	00112623          	sw	ra,12(sp)
   10354:	00912223          	sw	s1,4(sp)
   10358:	40295913          	srai	s2,s2,0x2
   1035c:	02090063          	beqz	s2,1037c <__libc_init_array+0x4c>
   10360:	43c40413          	addi	s0,s0,1084
   10364:	00000493          	li	s1,0
   10368:	00042783          	lw	a5,0(s0)
   1036c:	00148493          	addi	s1,s1,1 # c001 <main-0x407f>
   10370:	00440413          	addi	s0,s0,4
   10374:	000780e7          	jalr	a5
   10378:	fe9918e3          	bne	s2,s1,10368 <__libc_init_array+0x38>
   1037c:	00012437          	lui	s0,0x12
   10380:	00012937          	lui	s2,0x12
   10384:	43c40793          	addi	a5,s0,1084 # 1243c <__init_array_start>
   10388:	44490913          	addi	s2,s2,1092 # 12444 <__do_global_dtors_aux_fini_array_entry>
   1038c:	40f90933          	sub	s2,s2,a5
   10390:	40295913          	srai	s2,s2,0x2
   10394:	02090063          	beqz	s2,103b4 <__libc_init_array+0x84>
   10398:	43c40413          	addi	s0,s0,1084
   1039c:	00000493          	li	s1,0
   103a0:	00042783          	lw	a5,0(s0)
   103a4:	00148493          	addi	s1,s1,1
   103a8:	00440413          	addi	s0,s0,4
   103ac:	000780e7          	jalr	a5
   103b0:	fe9918e3          	bne	s2,s1,103a0 <__libc_init_array+0x70>
   103b4:	00c12083          	lw	ra,12(sp)
   103b8:	00812403          	lw	s0,8(sp)
   103bc:	00412483          	lw	s1,4(sp)
   103c0:	00012903          	lw	s2,0(sp)
   103c4:	01010113          	addi	sp,sp,16
   103c8:	00008067          	ret

000103cc <malloc>:
   103cc:	00050593          	mv	a1,a0
   103d0:	04c1a503          	lw	a0,76(gp) # 12c94 <_impure_ptr>
   103d4:	0100006f          	j	103e4 <_malloc_r>

000103d8 <free>:
   103d8:	00050593          	mv	a1,a0
   103dc:	04c1a503          	lw	a0,76(gp) # 12c94 <_impure_ptr>
   103e0:	3890006f          	j	10f68 <_free_r>

000103e4 <_malloc_r>:
   103e4:	fd010113          	addi	sp,sp,-48
   103e8:	01312e23          	sw	s3,28(sp)
   103ec:	02112623          	sw	ra,44(sp)
   103f0:	02812423          	sw	s0,40(sp)
   103f4:	02912223          	sw	s1,36(sp)
   103f8:	03212023          	sw	s2,32(sp)
   103fc:	01412c23          	sw	s4,24(sp)
   10400:	01512a23          	sw	s5,20(sp)
   10404:	01612823          	sw	s6,16(sp)
   10408:	01712623          	sw	s7,12(sp)
   1040c:	01812423          	sw	s8,8(sp)
   10410:	01912223          	sw	s9,4(sp)
   10414:	00b58793          	addi	a5,a1,11
   10418:	01600713          	li	a4,22
   1041c:	00050993          	mv	s3,a0
   10420:	06f76463          	bltu	a4,a5,10488 <_malloc_r+0xa4>
   10424:	01000793          	li	a5,16
   10428:	1eb7e263          	bltu	a5,a1,1060c <_malloc_r+0x228>
   1042c:	02d000ef          	jal	ra,10c58 <__malloc_lock>
   10430:	01000493          	li	s1,16
   10434:	01800793          	li	a5,24
   10438:	00200613          	li	a2,2
   1043c:	c3018913          	addi	s2,gp,-976 # 12878 <__malloc_av_>
   10440:	00f907b3          	add	a5,s2,a5
   10444:	0047a403          	lw	s0,4(a5)
   10448:	ff878713          	addi	a4,a5,-8
   1044c:	20e40863          	beq	s0,a4,1065c <_malloc_r+0x278>
   10450:	00442783          	lw	a5,4(s0)
   10454:	00c42683          	lw	a3,12(s0)
   10458:	00842603          	lw	a2,8(s0)
   1045c:	ffc7f793          	andi	a5,a5,-4
   10460:	00f407b3          	add	a5,s0,a5
   10464:	0047a703          	lw	a4,4(a5)
   10468:	00d62623          	sw	a3,12(a2) # 300c <main-0xd074>
   1046c:	00c6a423          	sw	a2,8(a3) # c008 <main-0x4078>
   10470:	00176713          	ori	a4,a4,1
   10474:	00098513          	mv	a0,s3
   10478:	00e7a223          	sw	a4,4(a5)
   1047c:	7e0000ef          	jal	ra,10c5c <__malloc_unlock>
   10480:	00840513          	addi	a0,s0,8
   10484:	1940006f          	j	10618 <_malloc_r+0x234>
   10488:	ff87f493          	andi	s1,a5,-8
   1048c:	1807c063          	bltz	a5,1060c <_malloc_r+0x228>
   10490:	16b4ee63          	bltu	s1,a1,1060c <_malloc_r+0x228>
   10494:	7c4000ef          	jal	ra,10c58 <__malloc_lock>
   10498:	1f700793          	li	a5,503
   1049c:	4497fa63          	bgeu	a5,s1,108f0 <_malloc_r+0x50c>
   104a0:	0094d793          	srli	a5,s1,0x9
   104a4:	1a078463          	beqz	a5,1064c <_malloc_r+0x268>
   104a8:	00400713          	li	a4,4
   104ac:	3cf76063          	bltu	a4,a5,1086c <_malloc_r+0x488>
   104b0:	0064d793          	srli	a5,s1,0x6
   104b4:	03978613          	addi	a2,a5,57
   104b8:	03878513          	addi	a0,a5,56
   104bc:	00361693          	slli	a3,a2,0x3
   104c0:	c3018913          	addi	s2,gp,-976 # 12878 <__malloc_av_>
   104c4:	00d906b3          	add	a3,s2,a3
   104c8:	0046a403          	lw	s0,4(a3)
   104cc:	ff868693          	addi	a3,a3,-8
   104d0:	02868663          	beq	a3,s0,104fc <_malloc_r+0x118>
   104d4:	00f00593          	li	a1,15
   104d8:	0100006f          	j	104e8 <_malloc_r+0x104>
   104dc:	32075263          	bgez	a4,10800 <_malloc_r+0x41c>
   104e0:	00c42403          	lw	s0,12(s0)
   104e4:	00868c63          	beq	a3,s0,104fc <_malloc_r+0x118>
   104e8:	00442783          	lw	a5,4(s0)
   104ec:	ffc7f793          	andi	a5,a5,-4
   104f0:	40978733          	sub	a4,a5,s1
   104f4:	fee5d4e3          	bge	a1,a4,104dc <_malloc_r+0xf8>
   104f8:	00050613          	mv	a2,a0
   104fc:	01092403          	lw	s0,16(s2)
   10500:	00890893          	addi	a7,s2,8
   10504:	17140863          	beq	s0,a7,10674 <_malloc_r+0x290>
   10508:	00442503          	lw	a0,4(s0)
   1050c:	00f00693          	li	a3,15
   10510:	ffc57513          	andi	a0,a0,-4
   10514:	409507b3          	sub	a5,a0,s1
   10518:	40f6c263          	blt	a3,a5,1091c <_malloc_r+0x538>
   1051c:	01192a23          	sw	a7,20(s2)
   10520:	01192823          	sw	a7,16(s2)
   10524:	3c07dc63          	bgez	a5,108fc <_malloc_r+0x518>
   10528:	1ff00793          	li	a5,511
   1052c:	2ea7e063          	bltu	a5,a0,1080c <_malloc_r+0x428>
   10530:	ff857793          	andi	a5,a0,-8
   10534:	00878793          	addi	a5,a5,8
   10538:	00492583          	lw	a1,4(s2)
   1053c:	00f907b3          	add	a5,s2,a5
   10540:	0007a683          	lw	a3,0(a5)
   10544:	00555513          	srli	a0,a0,0x5
   10548:	00100713          	li	a4,1
   1054c:	00a71733          	sll	a4,a4,a0
   10550:	00b76733          	or	a4,a4,a1
   10554:	ff878593          	addi	a1,a5,-8
   10558:	00b42623          	sw	a1,12(s0)
   1055c:	00d42423          	sw	a3,8(s0)
   10560:	00e92223          	sw	a4,4(s2)
   10564:	0087a023          	sw	s0,0(a5)
   10568:	0086a623          	sw	s0,12(a3)
   1056c:	40265793          	srai	a5,a2,0x2
   10570:	00100593          	li	a1,1
   10574:	00f595b3          	sll	a1,a1,a5
   10578:	10b76863          	bltu	a4,a1,10688 <_malloc_r+0x2a4>
   1057c:	00e5f7b3          	and	a5,a1,a4
   10580:	02079463          	bnez	a5,105a8 <_malloc_r+0x1c4>
   10584:	00159593          	slli	a1,a1,0x1
   10588:	ffc67613          	andi	a2,a2,-4
   1058c:	00e5f7b3          	and	a5,a1,a4
   10590:	00460613          	addi	a2,a2,4
   10594:	00079a63          	bnez	a5,105a8 <_malloc_r+0x1c4>
   10598:	00159593          	slli	a1,a1,0x1
   1059c:	00e5f7b3          	and	a5,a1,a4
   105a0:	00460613          	addi	a2,a2,4
   105a4:	fe078ae3          	beqz	a5,10598 <_malloc_r+0x1b4>
   105a8:	00f00813          	li	a6,15
   105ac:	00361313          	slli	t1,a2,0x3
   105b0:	00690333          	add	t1,s2,t1
   105b4:	00030513          	mv	a0,t1
   105b8:	00c52783          	lw	a5,12(a0)
   105bc:	00060e13          	mv	t3,a2
   105c0:	2cf50863          	beq	a0,a5,10890 <_malloc_r+0x4ac>
   105c4:	0047a703          	lw	a4,4(a5)
   105c8:	00078413          	mv	s0,a5
   105cc:	00c7a783          	lw	a5,12(a5)
   105d0:	ffc77713          	andi	a4,a4,-4
   105d4:	409706b3          	sub	a3,a4,s1
   105d8:	2cd84863          	blt	a6,a3,108a8 <_malloc_r+0x4c4>
   105dc:	fe06c2e3          	bltz	a3,105c0 <_malloc_r+0x1dc>
   105e0:	00e40733          	add	a4,s0,a4
   105e4:	00472683          	lw	a3,4(a4)
   105e8:	00842603          	lw	a2,8(s0)
   105ec:	00098513          	mv	a0,s3
   105f0:	0016e693          	ori	a3,a3,1
   105f4:	00d72223          	sw	a3,4(a4)
   105f8:	00f62623          	sw	a5,12(a2)
   105fc:	00c7a423          	sw	a2,8(a5)
   10600:	65c000ef          	jal	ra,10c5c <__malloc_unlock>
   10604:	00840513          	addi	a0,s0,8
   10608:	0100006f          	j	10618 <_malloc_r+0x234>
   1060c:	00c00793          	li	a5,12
   10610:	00f9a023          	sw	a5,0(s3)
   10614:	00000513          	li	a0,0
   10618:	02c12083          	lw	ra,44(sp)
   1061c:	02812403          	lw	s0,40(sp)
   10620:	02412483          	lw	s1,36(sp)
   10624:	02012903          	lw	s2,32(sp)
   10628:	01c12983          	lw	s3,28(sp)
   1062c:	01812a03          	lw	s4,24(sp)
   10630:	01412a83          	lw	s5,20(sp)
   10634:	01012b03          	lw	s6,16(sp)
   10638:	00c12b83          	lw	s7,12(sp)
   1063c:	00812c03          	lw	s8,8(sp)
   10640:	00412c83          	lw	s9,4(sp)
   10644:	03010113          	addi	sp,sp,48
   10648:	00008067          	ret
   1064c:	20000693          	li	a3,512
   10650:	04000613          	li	a2,64
   10654:	03f00513          	li	a0,63
   10658:	e69ff06f          	j	104c0 <_malloc_r+0xdc>
   1065c:	00c7a403          	lw	s0,12(a5)
   10660:	00260613          	addi	a2,a2,2
   10664:	de8796e3          	bne	a5,s0,10450 <_malloc_r+0x6c>
   10668:	01092403          	lw	s0,16(s2)
   1066c:	00890893          	addi	a7,s2,8
   10670:	e9141ce3          	bne	s0,a7,10508 <_malloc_r+0x124>
   10674:	00492703          	lw	a4,4(s2)
   10678:	40265793          	srai	a5,a2,0x2
   1067c:	00100593          	li	a1,1
   10680:	00f595b3          	sll	a1,a1,a5
   10684:	eeb77ce3          	bgeu	a4,a1,1057c <_malloc_r+0x198>
   10688:	00892403          	lw	s0,8(s2)
   1068c:	00442a83          	lw	s5,4(s0)
   10690:	ffcafb13          	andi	s6,s5,-4
   10694:	009b6863          	bltu	s6,s1,106a4 <_malloc_r+0x2c0>
   10698:	409b07b3          	sub	a5,s6,s1
   1069c:	00f00713          	li	a4,15
   106a0:	12f74c63          	blt	a4,a5,107d8 <_malloc_r+0x3f4>
   106a4:	0601aa83          	lw	s5,96(gp) # 12ca8 <__malloc_top_pad>
   106a8:	0501a703          	lw	a4,80(gp) # 12c98 <__malloc_sbrk_base>
   106ac:	fff00793          	li	a5,-1
   106b0:	01640a33          	add	s4,s0,s6
   106b4:	01548ab3          	add	s5,s1,s5
   106b8:	34f70463          	beq	a4,a5,10a00 <_malloc_r+0x61c>
   106bc:	000017b7          	lui	a5,0x1
   106c0:	00f78793          	addi	a5,a5,15 # 100f <main-0xf071>
   106c4:	00fa8ab3          	add	s5,s5,a5
   106c8:	fffff7b7          	lui	a5,0xfffff
   106cc:	00fafab3          	and	s5,s5,a5
   106d0:	000a8593          	mv	a1,s5
   106d4:	00098513          	mv	a0,s3
   106d8:	588000ef          	jal	ra,10c60 <_sbrk_r>
   106dc:	fff00793          	li	a5,-1
   106e0:	00050b93          	mv	s7,a0
   106e4:	28f50663          	beq	a0,a5,10970 <_malloc_r+0x58c>
   106e8:	29456263          	bltu	a0,s4,1096c <_malloc_r+0x588>
   106ec:	08818c13          	addi	s8,gp,136 # 12cd0 <__malloc_current_mallinfo>
   106f0:	000c2583          	lw	a1,0(s8)
   106f4:	00ba85b3          	add	a1,s5,a1
   106f8:	00bc2023          	sw	a1,0(s8)
   106fc:	00058793          	mv	a5,a1
   10700:	38aa0e63          	beq	s4,a0,10a9c <_malloc_r+0x6b8>
   10704:	0501a683          	lw	a3,80(gp) # 12c98 <__malloc_sbrk_base>
   10708:	fff00713          	li	a4,-1
   1070c:	3ae68663          	beq	a3,a4,10ab8 <_malloc_r+0x6d4>
   10710:	414b8a33          	sub	s4,s7,s4
   10714:	00fa07b3          	add	a5,s4,a5
   10718:	00fc2023          	sw	a5,0(s8)
   1071c:	007bfc93          	andi	s9,s7,7
   10720:	300c8263          	beqz	s9,10a24 <_malloc_r+0x640>
   10724:	000017b7          	lui	a5,0x1
   10728:	419b8bb3          	sub	s7,s7,s9
   1072c:	00878593          	addi	a1,a5,8 # 1008 <main-0xf078>
   10730:	008b8b93          	addi	s7,s7,8
   10734:	419585b3          	sub	a1,a1,s9
   10738:	015b8ab3          	add	s5,s7,s5
   1073c:	fff78793          	addi	a5,a5,-1
   10740:	415585b3          	sub	a1,a1,s5
   10744:	00f5fa33          	and	s4,a1,a5
   10748:	000a0593          	mv	a1,s4
   1074c:	00098513          	mv	a0,s3
   10750:	510000ef          	jal	ra,10c60 <_sbrk_r>
   10754:	fff00793          	li	a5,-1
   10758:	3af50a63          	beq	a0,a5,10b0c <_malloc_r+0x728>
   1075c:	41750533          	sub	a0,a0,s7
   10760:	01450ab3          	add	s5,a0,s4
   10764:	000c2583          	lw	a1,0(s8)
   10768:	01792423          	sw	s7,8(s2)
   1076c:	001aea93          	ori	s5,s5,1
   10770:	00ba05b3          	add	a1,s4,a1
   10774:	00bc2023          	sw	a1,0(s8)
   10778:	015ba223          	sw	s5,4(s7)
   1077c:	35240263          	beq	s0,s2,10ac0 <_malloc_r+0x6dc>
   10780:	00f00693          	li	a3,15
   10784:	3566f263          	bgeu	a3,s6,10ac8 <_malloc_r+0x6e4>
   10788:	00442703          	lw	a4,4(s0)
   1078c:	ff4b0793          	addi	a5,s6,-12
   10790:	ff87f793          	andi	a5,a5,-8
   10794:	00177713          	andi	a4,a4,1
   10798:	00f76733          	or	a4,a4,a5
   1079c:	00e42223          	sw	a4,4(s0)
   107a0:	00500613          	li	a2,5
   107a4:	00f40733          	add	a4,s0,a5
   107a8:	00c72223          	sw	a2,4(a4)
   107ac:	00c72423          	sw	a2,8(a4)
   107b0:	36f6e863          	bltu	a3,a5,10b20 <_malloc_r+0x73c>
   107b4:	004baa83          	lw	s5,4(s7)
   107b8:	000b8413          	mv	s0,s7
   107bc:	05c1a703          	lw	a4,92(gp) # 12ca4 <__malloc_max_sbrked_mem>
   107c0:	00b77463          	bgeu	a4,a1,107c8 <_malloc_r+0x3e4>
   107c4:	04b1ae23          	sw	a1,92(gp) # 12ca4 <__malloc_max_sbrked_mem>
   107c8:	0581a703          	lw	a4,88(gp) # 12ca0 <__malloc_max_total_mem>
   107cc:	1ab77663          	bgeu	a4,a1,10978 <_malloc_r+0x594>
   107d0:	04b1ac23          	sw	a1,88(gp) # 12ca0 <__malloc_max_total_mem>
   107d4:	1a40006f          	j	10978 <_malloc_r+0x594>
   107d8:	0014e713          	ori	a4,s1,1
   107dc:	00e42223          	sw	a4,4(s0)
   107e0:	009404b3          	add	s1,s0,s1
   107e4:	00992423          	sw	s1,8(s2)
   107e8:	0017e793          	ori	a5,a5,1
   107ec:	00098513          	mv	a0,s3
   107f0:	00f4a223          	sw	a5,4(s1)
   107f4:	468000ef          	jal	ra,10c5c <__malloc_unlock>
   107f8:	00840513          	addi	a0,s0,8
   107fc:	e1dff06f          	j	10618 <_malloc_r+0x234>
   10800:	00c42683          	lw	a3,12(s0)
   10804:	00842603          	lw	a2,8(s0)
   10808:	c59ff06f          	j	10460 <_malloc_r+0x7c>
   1080c:	00955793          	srli	a5,a0,0x9
   10810:	00400713          	li	a4,4
   10814:	14f77263          	bgeu	a4,a5,10958 <_malloc_r+0x574>
   10818:	01400713          	li	a4,20
   1081c:	22f76a63          	bltu	a4,a5,10a50 <_malloc_r+0x66c>
   10820:	05c78693          	addi	a3,a5,92
   10824:	05b78593          	addi	a1,a5,91
   10828:	00369693          	slli	a3,a3,0x3
   1082c:	00d906b3          	add	a3,s2,a3
   10830:	0006a783          	lw	a5,0(a3)
   10834:	ff868693          	addi	a3,a3,-8
   10838:	1cf68863          	beq	a3,a5,10a08 <_malloc_r+0x624>
   1083c:	0047a703          	lw	a4,4(a5)
   10840:	ffc77713          	andi	a4,a4,-4
   10844:	00e57663          	bgeu	a0,a4,10850 <_malloc_r+0x46c>
   10848:	0087a783          	lw	a5,8(a5)
   1084c:	fef698e3          	bne	a3,a5,1083c <_malloc_r+0x458>
   10850:	00c7a683          	lw	a3,12(a5)
   10854:	00492703          	lw	a4,4(s2)
   10858:	00d42623          	sw	a3,12(s0)
   1085c:	00f42423          	sw	a5,8(s0)
   10860:	0086a423          	sw	s0,8(a3)
   10864:	0087a623          	sw	s0,12(a5)
   10868:	d05ff06f          	j	1056c <_malloc_r+0x188>
   1086c:	01400713          	li	a4,20
   10870:	12f77663          	bgeu	a4,a5,1099c <_malloc_r+0x5b8>
   10874:	05400713          	li	a4,84
   10878:	1ef76a63          	bltu	a4,a5,10a6c <_malloc_r+0x688>
   1087c:	00c4d793          	srli	a5,s1,0xc
   10880:	06f78613          	addi	a2,a5,111
   10884:	06e78513          	addi	a0,a5,110
   10888:	00361693          	slli	a3,a2,0x3
   1088c:	c35ff06f          	j	104c0 <_malloc_r+0xdc>
   10890:	001e0e13          	addi	t3,t3,1
   10894:	003e7793          	andi	a5,t3,3
   10898:	00850513          	addi	a0,a0,8
   1089c:	10078e63          	beqz	a5,109b8 <_malloc_r+0x5d4>
   108a0:	00c52783          	lw	a5,12(a0)
   108a4:	d1dff06f          	j	105c0 <_malloc_r+0x1dc>
   108a8:	00842603          	lw	a2,8(s0)
   108ac:	0014e593          	ori	a1,s1,1
   108b0:	00b42223          	sw	a1,4(s0)
   108b4:	00f62623          	sw	a5,12(a2)
   108b8:	00c7a423          	sw	a2,8(a5)
   108bc:	009404b3          	add	s1,s0,s1
   108c0:	00992a23          	sw	s1,20(s2)
   108c4:	00992823          	sw	s1,16(s2)
   108c8:	0016e793          	ori	a5,a3,1
   108cc:	0114a623          	sw	a7,12(s1)
   108d0:	0114a423          	sw	a7,8(s1)
   108d4:	00f4a223          	sw	a5,4(s1)
   108d8:	00e40733          	add	a4,s0,a4
   108dc:	00098513          	mv	a0,s3
   108e0:	00d72023          	sw	a3,0(a4)
   108e4:	378000ef          	jal	ra,10c5c <__malloc_unlock>
   108e8:	00840513          	addi	a0,s0,8
   108ec:	d2dff06f          	j	10618 <_malloc_r+0x234>
   108f0:	0034d613          	srli	a2,s1,0x3
   108f4:	00848793          	addi	a5,s1,8
   108f8:	b45ff06f          	j	1043c <_malloc_r+0x58>
   108fc:	00a40733          	add	a4,s0,a0
   10900:	00472783          	lw	a5,4(a4)
   10904:	00098513          	mv	a0,s3
   10908:	0017e793          	ori	a5,a5,1
   1090c:	00f72223          	sw	a5,4(a4)
   10910:	34c000ef          	jal	ra,10c5c <__malloc_unlock>
   10914:	00840513          	addi	a0,s0,8
   10918:	d01ff06f          	j	10618 <_malloc_r+0x234>
   1091c:	0014e713          	ori	a4,s1,1
   10920:	00e42223          	sw	a4,4(s0)
   10924:	009404b3          	add	s1,s0,s1
   10928:	00992a23          	sw	s1,20(s2)
   1092c:	00992823          	sw	s1,16(s2)
   10930:	0017e713          	ori	a4,a5,1
   10934:	0114a623          	sw	a7,12(s1)
   10938:	0114a423          	sw	a7,8(s1)
   1093c:	00e4a223          	sw	a4,4(s1)
   10940:	00a40533          	add	a0,s0,a0
   10944:	00f52023          	sw	a5,0(a0)
   10948:	00098513          	mv	a0,s3
   1094c:	310000ef          	jal	ra,10c5c <__malloc_unlock>
   10950:	00840513          	addi	a0,s0,8
   10954:	cc5ff06f          	j	10618 <_malloc_r+0x234>
   10958:	00655793          	srli	a5,a0,0x6
   1095c:	03978693          	addi	a3,a5,57
   10960:	03878593          	addi	a1,a5,56
   10964:	00369693          	slli	a3,a3,0x3
   10968:	ec5ff06f          	j	1082c <_malloc_r+0x448>
   1096c:	11240e63          	beq	s0,s2,10a88 <_malloc_r+0x6a4>
   10970:	00892403          	lw	s0,8(s2)
   10974:	00442a83          	lw	s5,4(s0)
   10978:	ffcafa93          	andi	s5,s5,-4
   1097c:	409a87b3          	sub	a5,s5,s1
   10980:	009ae663          	bltu	s5,s1,1098c <_malloc_r+0x5a8>
   10984:	00f00713          	li	a4,15
   10988:	e4f748e3          	blt	a4,a5,107d8 <_malloc_r+0x3f4>
   1098c:	00098513          	mv	a0,s3
   10990:	2cc000ef          	jal	ra,10c5c <__malloc_unlock>
   10994:	00000513          	li	a0,0
   10998:	c81ff06f          	j	10618 <_malloc_r+0x234>
   1099c:	05c78613          	addi	a2,a5,92
   109a0:	05b78513          	addi	a0,a5,91
   109a4:	00361693          	slli	a3,a2,0x3
   109a8:	b19ff06f          	j	104c0 <_malloc_r+0xdc>
   109ac:	00832783          	lw	a5,8(t1) # 1024c <frame_dummy+0x1c>
   109b0:	fff60613          	addi	a2,a2,-1
   109b4:	1c679063          	bne	a5,t1,10b74 <_malloc_r+0x790>
   109b8:	00367793          	andi	a5,a2,3
   109bc:	ff830313          	addi	t1,t1,-8
   109c0:	fe0796e3          	bnez	a5,109ac <_malloc_r+0x5c8>
   109c4:	00492703          	lw	a4,4(s2)
   109c8:	fff5c793          	not	a5,a1
   109cc:	00e7f7b3          	and	a5,a5,a4
   109d0:	00f92223          	sw	a5,4(s2)
   109d4:	00159593          	slli	a1,a1,0x1
   109d8:	cab7e8e3          	bltu	a5,a1,10688 <_malloc_r+0x2a4>
   109dc:	ca0586e3          	beqz	a1,10688 <_malloc_r+0x2a4>
   109e0:	00f5f733          	and	a4,a1,a5
   109e4:	00071a63          	bnez	a4,109f8 <_malloc_r+0x614>
   109e8:	00159593          	slli	a1,a1,0x1
   109ec:	00f5f733          	and	a4,a1,a5
   109f0:	004e0e13          	addi	t3,t3,4
   109f4:	fe070ae3          	beqz	a4,109e8 <_malloc_r+0x604>
   109f8:	000e0613          	mv	a2,t3
   109fc:	bb1ff06f          	j	105ac <_malloc_r+0x1c8>
   10a00:	010a8a93          	addi	s5,s5,16
   10a04:	ccdff06f          	j	106d0 <_malloc_r+0x2ec>
   10a08:	00492503          	lw	a0,4(s2)
   10a0c:	4025d593          	srai	a1,a1,0x2
   10a10:	00100713          	li	a4,1
   10a14:	00b71733          	sll	a4,a4,a1
   10a18:	00a76733          	or	a4,a4,a0
   10a1c:	00e92223          	sw	a4,4(s2)
   10a20:	e39ff06f          	j	10858 <_malloc_r+0x474>
   10a24:	015b85b3          	add	a1,s7,s5
   10a28:	40b005b3          	neg	a1,a1
   10a2c:	01459593          	slli	a1,a1,0x14
   10a30:	0145da13          	srli	s4,a1,0x14
   10a34:	000a0593          	mv	a1,s4
   10a38:	00098513          	mv	a0,s3
   10a3c:	224000ef          	jal	ra,10c60 <_sbrk_r>
   10a40:	fff00793          	li	a5,-1
   10a44:	d0f51ce3          	bne	a0,a5,1075c <_malloc_r+0x378>
   10a48:	00000a13          	li	s4,0
   10a4c:	d19ff06f          	j	10764 <_malloc_r+0x380>
   10a50:	05400713          	li	a4,84
   10a54:	08f76063          	bltu	a4,a5,10ad4 <_malloc_r+0x6f0>
   10a58:	00c55793          	srli	a5,a0,0xc
   10a5c:	06f78693          	addi	a3,a5,111
   10a60:	06e78593          	addi	a1,a5,110
   10a64:	00369693          	slli	a3,a3,0x3
   10a68:	dc5ff06f          	j	1082c <_malloc_r+0x448>
   10a6c:	15400713          	li	a4,340
   10a70:	08f76063          	bltu	a4,a5,10af0 <_malloc_r+0x70c>
   10a74:	00f4d793          	srli	a5,s1,0xf
   10a78:	07878613          	addi	a2,a5,120
   10a7c:	07778513          	addi	a0,a5,119
   10a80:	00361693          	slli	a3,a2,0x3
   10a84:	a3dff06f          	j	104c0 <_malloc_r+0xdc>
   10a88:	08818c13          	addi	s8,gp,136 # 12cd0 <__malloc_current_mallinfo>
   10a8c:	000c2783          	lw	a5,0(s8)
   10a90:	00fa87b3          	add	a5,s5,a5
   10a94:	00fc2023          	sw	a5,0(s8)
   10a98:	c6dff06f          	j	10704 <_malloc_r+0x320>
   10a9c:	014a1713          	slli	a4,s4,0x14
   10aa0:	c60712e3          	bnez	a4,10704 <_malloc_r+0x320>
   10aa4:	00892403          	lw	s0,8(s2)
   10aa8:	015b0ab3          	add	s5,s6,s5
   10aac:	001aea93          	ori	s5,s5,1
   10ab0:	01542223          	sw	s5,4(s0)
   10ab4:	d09ff06f          	j	107bc <_malloc_r+0x3d8>
   10ab8:	0571a823          	sw	s7,80(gp) # 12c98 <__malloc_sbrk_base>
   10abc:	c61ff06f          	j	1071c <_malloc_r+0x338>
   10ac0:	000b8413          	mv	s0,s7
   10ac4:	cf9ff06f          	j	107bc <_malloc_r+0x3d8>
   10ac8:	00100793          	li	a5,1
   10acc:	00fba223          	sw	a5,4(s7)
   10ad0:	ebdff06f          	j	1098c <_malloc_r+0x5a8>
   10ad4:	15400713          	li	a4,340
   10ad8:	06f76263          	bltu	a4,a5,10b3c <_malloc_r+0x758>
   10adc:	00f55793          	srli	a5,a0,0xf
   10ae0:	07878693          	addi	a3,a5,120
   10ae4:	07778593          	addi	a1,a5,119
   10ae8:	00369693          	slli	a3,a3,0x3
   10aec:	d41ff06f          	j	1082c <_malloc_r+0x448>
   10af0:	55400713          	li	a4,1364
   10af4:	06f76263          	bltu	a4,a5,10b58 <_malloc_r+0x774>
   10af8:	0124d793          	srli	a5,s1,0x12
   10afc:	07d78613          	addi	a2,a5,125
   10b00:	07c78513          	addi	a0,a5,124
   10b04:	00361693          	slli	a3,a2,0x3
   10b08:	9b9ff06f          	j	104c0 <_malloc_r+0xdc>
   10b0c:	ff8c8c93          	addi	s9,s9,-8
   10b10:	019a8ab3          	add	s5,s5,s9
   10b14:	417a8ab3          	sub	s5,s5,s7
   10b18:	00000a13          	li	s4,0
   10b1c:	c49ff06f          	j	10764 <_malloc_r+0x380>
   10b20:	00840593          	addi	a1,s0,8
   10b24:	00098513          	mv	a0,s3
   10b28:	440000ef          	jal	ra,10f68 <_free_r>
   10b2c:	00892403          	lw	s0,8(s2)
   10b30:	000c2583          	lw	a1,0(s8)
   10b34:	00442a83          	lw	s5,4(s0)
   10b38:	c85ff06f          	j	107bc <_malloc_r+0x3d8>
   10b3c:	55400713          	li	a4,1364
   10b40:	02f76463          	bltu	a4,a5,10b68 <_malloc_r+0x784>
   10b44:	01255793          	srli	a5,a0,0x12
   10b48:	07d78693          	addi	a3,a5,125
   10b4c:	07c78593          	addi	a1,a5,124
   10b50:	00369693          	slli	a3,a3,0x3
   10b54:	cd9ff06f          	j	1082c <_malloc_r+0x448>
   10b58:	3f800693          	li	a3,1016
   10b5c:	07f00613          	li	a2,127
   10b60:	07e00513          	li	a0,126
   10b64:	95dff06f          	j	104c0 <_malloc_r+0xdc>
   10b68:	3f800693          	li	a3,1016
   10b6c:	07e00593          	li	a1,126
   10b70:	cbdff06f          	j	1082c <_malloc_r+0x448>
   10b74:	00492783          	lw	a5,4(s2)
   10b78:	e5dff06f          	j	109d4 <_malloc_r+0x5f0>

00010b7c <memset>:
   10b7c:	00f00313          	li	t1,15
   10b80:	00050713          	mv	a4,a0
   10b84:	02c37e63          	bgeu	t1,a2,10bc0 <memset+0x44>
   10b88:	00f77793          	andi	a5,a4,15
   10b8c:	0a079063          	bnez	a5,10c2c <memset+0xb0>
   10b90:	08059263          	bnez	a1,10c14 <memset+0x98>
   10b94:	ff067693          	andi	a3,a2,-16
   10b98:	00f67613          	andi	a2,a2,15
   10b9c:	00e686b3          	add	a3,a3,a4
   10ba0:	00b72023          	sw	a1,0(a4)
   10ba4:	00b72223          	sw	a1,4(a4)
   10ba8:	00b72423          	sw	a1,8(a4)
   10bac:	00b72623          	sw	a1,12(a4)
   10bb0:	01070713          	addi	a4,a4,16
   10bb4:	fed766e3          	bltu	a4,a3,10ba0 <memset+0x24>
   10bb8:	00061463          	bnez	a2,10bc0 <memset+0x44>
   10bbc:	00008067          	ret
   10bc0:	40c306b3          	sub	a3,t1,a2
   10bc4:	00269693          	slli	a3,a3,0x2
   10bc8:	00000297          	auipc	t0,0x0
   10bcc:	005686b3          	add	a3,a3,t0
   10bd0:	00c68067          	jr	12(a3)
   10bd4:	00b70723          	sb	a1,14(a4)
   10bd8:	00b706a3          	sb	a1,13(a4)
   10bdc:	00b70623          	sb	a1,12(a4)
   10be0:	00b705a3          	sb	a1,11(a4)
   10be4:	00b70523          	sb	a1,10(a4)
   10be8:	00b704a3          	sb	a1,9(a4)
   10bec:	00b70423          	sb	a1,8(a4)
   10bf0:	00b703a3          	sb	a1,7(a4)
   10bf4:	00b70323          	sb	a1,6(a4)
   10bf8:	00b702a3          	sb	a1,5(a4)
   10bfc:	00b70223          	sb	a1,4(a4)
   10c00:	00b701a3          	sb	a1,3(a4)
   10c04:	00b70123          	sb	a1,2(a4)
   10c08:	00b700a3          	sb	a1,1(a4)
   10c0c:	00b70023          	sb	a1,0(a4)
   10c10:	00008067          	ret
   10c14:	0ff5f593          	andi	a1,a1,255
   10c18:	00859693          	slli	a3,a1,0x8
   10c1c:	00d5e5b3          	or	a1,a1,a3
   10c20:	01059693          	slli	a3,a1,0x10
   10c24:	00d5e5b3          	or	a1,a1,a3
   10c28:	f6dff06f          	j	10b94 <memset+0x18>
   10c2c:	00279693          	slli	a3,a5,0x2
   10c30:	00000297          	auipc	t0,0x0
   10c34:	005686b3          	add	a3,a3,t0
   10c38:	00008293          	mv	t0,ra
   10c3c:	fa0680e7          	jalr	-96(a3)
   10c40:	00028093          	mv	ra,t0
   10c44:	ff078793          	addi	a5,a5,-16
   10c48:	40f70733          	sub	a4,a4,a5
   10c4c:	00f60633          	add	a2,a2,a5
   10c50:	f6c378e3          	bgeu	t1,a2,10bc0 <memset+0x44>
   10c54:	f3dff06f          	j	10b90 <memset+0x14>

00010c58 <__malloc_lock>:
   10c58:	00008067          	ret

00010c5c <__malloc_unlock>:
   10c5c:	00008067          	ret

00010c60 <_sbrk_r>:
   10c60:	ff010113          	addi	sp,sp,-16
   10c64:	00812423          	sw	s0,8(sp)
   10c68:	00912223          	sw	s1,4(sp)
   10c6c:	00050413          	mv	s0,a0
   10c70:	00058513          	mv	a0,a1
   10c74:	00112623          	sw	ra,12(sp)
   10c78:	0601a223          	sw	zero,100(gp) # 12cac <errno>
   10c7c:	6c8000ef          	jal	ra,11344 <_sbrk>
   10c80:	fff00793          	li	a5,-1
   10c84:	00f50c63          	beq	a0,a5,10c9c <_sbrk_r+0x3c>
   10c88:	00c12083          	lw	ra,12(sp)
   10c8c:	00812403          	lw	s0,8(sp)
   10c90:	00412483          	lw	s1,4(sp)
   10c94:	01010113          	addi	sp,sp,16
   10c98:	00008067          	ret
   10c9c:	0641a783          	lw	a5,100(gp) # 12cac <errno>
   10ca0:	fe0784e3          	beqz	a5,10c88 <_sbrk_r+0x28>
   10ca4:	00c12083          	lw	ra,12(sp)
   10ca8:	00f42023          	sw	a5,0(s0)
   10cac:	00812403          	lw	s0,8(sp)
   10cb0:	00412483          	lw	s1,4(sp)
   10cb4:	01010113          	addi	sp,sp,16
   10cb8:	00008067          	ret

00010cbc <__call_exitprocs>:
   10cbc:	fd010113          	addi	sp,sp,-48
   10cc0:	01412c23          	sw	s4,24(sp)
   10cc4:	0481aa03          	lw	s4,72(gp) # 12c90 <_global_impure_ptr>
   10cc8:	03212023          	sw	s2,32(sp)
   10ccc:	02112623          	sw	ra,44(sp)
   10cd0:	148a2903          	lw	s2,328(s4)
   10cd4:	02812423          	sw	s0,40(sp)
   10cd8:	02912223          	sw	s1,36(sp)
   10cdc:	01312e23          	sw	s3,28(sp)
   10ce0:	01512a23          	sw	s5,20(sp)
   10ce4:	01612823          	sw	s6,16(sp)
   10ce8:	01712623          	sw	s7,12(sp)
   10cec:	01812423          	sw	s8,8(sp)
   10cf0:	04090063          	beqz	s2,10d30 <__call_exitprocs+0x74>
   10cf4:	00050b13          	mv	s6,a0
   10cf8:	00058b93          	mv	s7,a1
   10cfc:	00100a93          	li	s5,1
   10d00:	fff00993          	li	s3,-1
   10d04:	00492483          	lw	s1,4(s2)
   10d08:	fff48413          	addi	s0,s1,-1
   10d0c:	02044263          	bltz	s0,10d30 <__call_exitprocs+0x74>
   10d10:	00249493          	slli	s1,s1,0x2
   10d14:	009904b3          	add	s1,s2,s1
   10d18:	040b8463          	beqz	s7,10d60 <__call_exitprocs+0xa4>
   10d1c:	1044a783          	lw	a5,260(s1)
   10d20:	05778063          	beq	a5,s7,10d60 <__call_exitprocs+0xa4>
   10d24:	fff40413          	addi	s0,s0,-1
   10d28:	ffc48493          	addi	s1,s1,-4
   10d2c:	ff3416e3          	bne	s0,s3,10d18 <__call_exitprocs+0x5c>
   10d30:	02c12083          	lw	ra,44(sp)
   10d34:	02812403          	lw	s0,40(sp)
   10d38:	02412483          	lw	s1,36(sp)
   10d3c:	02012903          	lw	s2,32(sp)
   10d40:	01c12983          	lw	s3,28(sp)
   10d44:	01812a03          	lw	s4,24(sp)
   10d48:	01412a83          	lw	s5,20(sp)
   10d4c:	01012b03          	lw	s6,16(sp)
   10d50:	00c12b83          	lw	s7,12(sp)
   10d54:	00812c03          	lw	s8,8(sp)
   10d58:	03010113          	addi	sp,sp,48
   10d5c:	00008067          	ret
   10d60:	00492783          	lw	a5,4(s2)
   10d64:	0044a683          	lw	a3,4(s1)
   10d68:	fff78793          	addi	a5,a5,-1
   10d6c:	04878e63          	beq	a5,s0,10dc8 <__call_exitprocs+0x10c>
   10d70:	0004a223          	sw	zero,4(s1)
   10d74:	fa0688e3          	beqz	a3,10d24 <__call_exitprocs+0x68>
   10d78:	18892783          	lw	a5,392(s2)
   10d7c:	008a9733          	sll	a4,s5,s0
   10d80:	00492c03          	lw	s8,4(s2)
   10d84:	00f777b3          	and	a5,a4,a5
   10d88:	02079263          	bnez	a5,10dac <__call_exitprocs+0xf0>
   10d8c:	000680e7          	jalr	a3
   10d90:	00492703          	lw	a4,4(s2)
   10d94:	148a2783          	lw	a5,328(s4)
   10d98:	01871463          	bne	a4,s8,10da0 <__call_exitprocs+0xe4>
   10d9c:	f92784e3          	beq	a5,s2,10d24 <__call_exitprocs+0x68>
   10da0:	f80788e3          	beqz	a5,10d30 <__call_exitprocs+0x74>
   10da4:	00078913          	mv	s2,a5
   10da8:	f5dff06f          	j	10d04 <__call_exitprocs+0x48>
   10dac:	18c92783          	lw	a5,396(s2)
   10db0:	0844a583          	lw	a1,132(s1)
   10db4:	00f77733          	and	a4,a4,a5
   10db8:	00071c63          	bnez	a4,10dd0 <__call_exitprocs+0x114>
   10dbc:	000b0513          	mv	a0,s6
   10dc0:	000680e7          	jalr	a3
   10dc4:	fcdff06f          	j	10d90 <__call_exitprocs+0xd4>
   10dc8:	00892223          	sw	s0,4(s2)
   10dcc:	fa9ff06f          	j	10d74 <__call_exitprocs+0xb8>
   10dd0:	00058513          	mv	a0,a1
   10dd4:	000680e7          	jalr	a3
   10dd8:	fb9ff06f          	j	10d90 <__call_exitprocs+0xd4>

00010ddc <__libc_fini_array>:
   10ddc:	ff010113          	addi	sp,sp,-16
   10de0:	00812423          	sw	s0,8(sp)
   10de4:	000127b7          	lui	a5,0x12
   10de8:	00012437          	lui	s0,0x12
   10dec:	44440413          	addi	s0,s0,1092 # 12444 <__do_global_dtors_aux_fini_array_entry>
   10df0:	44878793          	addi	a5,a5,1096 # 12448 <VRAM>
   10df4:	408787b3          	sub	a5,a5,s0
   10df8:	00912223          	sw	s1,4(sp)
   10dfc:	00112623          	sw	ra,12(sp)
   10e00:	4027d493          	srai	s1,a5,0x2
   10e04:	02048063          	beqz	s1,10e24 <__libc_fini_array+0x48>
   10e08:	ffc78793          	addi	a5,a5,-4
   10e0c:	00878433          	add	s0,a5,s0
   10e10:	00042783          	lw	a5,0(s0)
   10e14:	fff48493          	addi	s1,s1,-1
   10e18:	ffc40413          	addi	s0,s0,-4
   10e1c:	000780e7          	jalr	a5
   10e20:	fe0498e3          	bnez	s1,10e10 <__libc_fini_array+0x34>
   10e24:	00c12083          	lw	ra,12(sp)
   10e28:	00812403          	lw	s0,8(sp)
   10e2c:	00412483          	lw	s1,4(sp)
   10e30:	01010113          	addi	sp,sp,16
   10e34:	00008067          	ret

00010e38 <_malloc_trim_r>:
   10e38:	fe010113          	addi	sp,sp,-32
   10e3c:	01312623          	sw	s3,12(sp)
   10e40:	00812c23          	sw	s0,24(sp)
   10e44:	00912a23          	sw	s1,20(sp)
   10e48:	01212823          	sw	s2,16(sp)
   10e4c:	01412423          	sw	s4,8(sp)
   10e50:	00112e23          	sw	ra,28(sp)
   10e54:	00058a13          	mv	s4,a1
   10e58:	00050913          	mv	s2,a0
   10e5c:	c3018993          	addi	s3,gp,-976 # 12878 <__malloc_av_>
   10e60:	df9ff0ef          	jal	ra,10c58 <__malloc_lock>
   10e64:	0089a703          	lw	a4,8(s3)
   10e68:	000017b7          	lui	a5,0x1
   10e6c:	fef78413          	addi	s0,a5,-17 # fef <main-0xf091>
   10e70:	00472483          	lw	s1,4(a4)
   10e74:	41440433          	sub	s0,s0,s4
   10e78:	ffc4f493          	andi	s1,s1,-4
   10e7c:	00940433          	add	s0,s0,s1
   10e80:	00c45413          	srli	s0,s0,0xc
   10e84:	fff40413          	addi	s0,s0,-1
   10e88:	00c41413          	slli	s0,s0,0xc
   10e8c:	00f44e63          	blt	s0,a5,10ea8 <_malloc_trim_r+0x70>
   10e90:	00000593          	li	a1,0
   10e94:	00090513          	mv	a0,s2
   10e98:	dc9ff0ef          	jal	ra,10c60 <_sbrk_r>
   10e9c:	0089a783          	lw	a5,8(s3)
   10ea0:	009787b3          	add	a5,a5,s1
   10ea4:	02f50863          	beq	a0,a5,10ed4 <_malloc_trim_r+0x9c>
   10ea8:	00090513          	mv	a0,s2
   10eac:	db1ff0ef          	jal	ra,10c5c <__malloc_unlock>
   10eb0:	01c12083          	lw	ra,28(sp)
   10eb4:	01812403          	lw	s0,24(sp)
   10eb8:	01412483          	lw	s1,20(sp)
   10ebc:	01012903          	lw	s2,16(sp)
   10ec0:	00c12983          	lw	s3,12(sp)
   10ec4:	00812a03          	lw	s4,8(sp)
   10ec8:	00000513          	li	a0,0
   10ecc:	02010113          	addi	sp,sp,32
   10ed0:	00008067          	ret
   10ed4:	408005b3          	neg	a1,s0
   10ed8:	00090513          	mv	a0,s2
   10edc:	d85ff0ef          	jal	ra,10c60 <_sbrk_r>
   10ee0:	fff00793          	li	a5,-1
   10ee4:	04f50863          	beq	a0,a5,10f34 <_malloc_trim_r+0xfc>
   10ee8:	08818793          	addi	a5,gp,136 # 12cd0 <__malloc_current_mallinfo>
   10eec:	0007a703          	lw	a4,0(a5)
   10ef0:	0089a683          	lw	a3,8(s3)
   10ef4:	408484b3          	sub	s1,s1,s0
   10ef8:	0014e493          	ori	s1,s1,1
   10efc:	40870433          	sub	s0,a4,s0
   10f00:	00090513          	mv	a0,s2
   10f04:	0096a223          	sw	s1,4(a3)
   10f08:	0087a023          	sw	s0,0(a5)
   10f0c:	d51ff0ef          	jal	ra,10c5c <__malloc_unlock>
   10f10:	01c12083          	lw	ra,28(sp)
   10f14:	01812403          	lw	s0,24(sp)
   10f18:	01412483          	lw	s1,20(sp)
   10f1c:	01012903          	lw	s2,16(sp)
   10f20:	00c12983          	lw	s3,12(sp)
   10f24:	00812a03          	lw	s4,8(sp)
   10f28:	00100513          	li	a0,1
   10f2c:	02010113          	addi	sp,sp,32
   10f30:	00008067          	ret
   10f34:	00000593          	li	a1,0
   10f38:	00090513          	mv	a0,s2
   10f3c:	d25ff0ef          	jal	ra,10c60 <_sbrk_r>
   10f40:	0089a703          	lw	a4,8(s3)
   10f44:	00f00693          	li	a3,15
   10f48:	40e507b3          	sub	a5,a0,a4
   10f4c:	f4f6dee3          	bge	a3,a5,10ea8 <_malloc_trim_r+0x70>
   10f50:	0501a683          	lw	a3,80(gp) # 12c98 <__malloc_sbrk_base>
   10f54:	0017e793          	ori	a5,a5,1
   10f58:	00f72223          	sw	a5,4(a4)
   10f5c:	40d50533          	sub	a0,a0,a3
   10f60:	08a1a423          	sw	a0,136(gp) # 12cd0 <__malloc_current_mallinfo>
   10f64:	f45ff06f          	j	10ea8 <_malloc_trim_r+0x70>

00010f68 <_free_r>:
   10f68:	12058463          	beqz	a1,11090 <_free_r+0x128>
   10f6c:	ff010113          	addi	sp,sp,-16
   10f70:	00812423          	sw	s0,8(sp)
   10f74:	00912223          	sw	s1,4(sp)
   10f78:	00058413          	mv	s0,a1
   10f7c:	00050493          	mv	s1,a0
   10f80:	00112623          	sw	ra,12(sp)
   10f84:	cd5ff0ef          	jal	ra,10c58 <__malloc_lock>
   10f88:	ffc42803          	lw	a6,-4(s0)
   10f8c:	ff840713          	addi	a4,s0,-8
   10f90:	ffe87793          	andi	a5,a6,-2
   10f94:	00f70633          	add	a2,a4,a5
   10f98:	c3018593          	addi	a1,gp,-976 # 12878 <__malloc_av_>
   10f9c:	00462683          	lw	a3,4(a2)
   10fa0:	0085a503          	lw	a0,8(a1)
   10fa4:	ffc6f693          	andi	a3,a3,-4
   10fa8:	1ac50663          	beq	a0,a2,11154 <_free_r+0x1ec>
   10fac:	00d62223          	sw	a3,4(a2)
   10fb0:	00187813          	andi	a6,a6,1
   10fb4:	00d60533          	add	a0,a2,a3
   10fb8:	08081e63          	bnez	a6,11054 <_free_r+0xec>
   10fbc:	ff842303          	lw	t1,-8(s0)
   10fc0:	00452803          	lw	a6,4(a0)
   10fc4:	40670733          	sub	a4,a4,t1
   10fc8:	00872883          	lw	a7,8(a4)
   10fcc:	c3818513          	addi	a0,gp,-968 # 12880 <__malloc_av_+0x8>
   10fd0:	006787b3          	add	a5,a5,t1
   10fd4:	00187813          	andi	a6,a6,1
   10fd8:	12a88e63          	beq	a7,a0,11114 <_free_r+0x1ac>
   10fdc:	00c72303          	lw	t1,12(a4)
   10fe0:	0068a623          	sw	t1,12(a7)
   10fe4:	01132423          	sw	a7,8(t1)
   10fe8:	1c080e63          	beqz	a6,111c4 <_free_r+0x25c>
   10fec:	0017e693          	ori	a3,a5,1
   10ff0:	00d72223          	sw	a3,4(a4)
   10ff4:	00f62023          	sw	a5,0(a2)
   10ff8:	1ff00693          	li	a3,511
   10ffc:	0af6e663          	bltu	a3,a5,110a8 <_free_r+0x140>
   11000:	ff87f693          	andi	a3,a5,-8
   11004:	00868693          	addi	a3,a3,8
   11008:	0045a503          	lw	a0,4(a1)
   1100c:	00d586b3          	add	a3,a1,a3
   11010:	0006a603          	lw	a2,0(a3)
   11014:	0057d813          	srli	a6,a5,0x5
   11018:	00100793          	li	a5,1
   1101c:	010797b3          	sll	a5,a5,a6
   11020:	00a7e7b3          	or	a5,a5,a0
   11024:	ff868513          	addi	a0,a3,-8
   11028:	00a72623          	sw	a0,12(a4)
   1102c:	00c72423          	sw	a2,8(a4)
   11030:	00f5a223          	sw	a5,4(a1)
   11034:	00e6a023          	sw	a4,0(a3)
   11038:	00e62623          	sw	a4,12(a2)
   1103c:	00812403          	lw	s0,8(sp)
   11040:	00c12083          	lw	ra,12(sp)
   11044:	00048513          	mv	a0,s1
   11048:	00412483          	lw	s1,4(sp)
   1104c:	01010113          	addi	sp,sp,16
   11050:	c0dff06f          	j	10c5c <__malloc_unlock>
   11054:	00452503          	lw	a0,4(a0)
   11058:	00157513          	andi	a0,a0,1
   1105c:	02051c63          	bnez	a0,11094 <_free_r+0x12c>
   11060:	00d787b3          	add	a5,a5,a3
   11064:	c3818513          	addi	a0,gp,-968 # 12880 <__malloc_av_+0x8>
   11068:	00862683          	lw	a3,8(a2)
   1106c:	0017e893          	ori	a7,a5,1
   11070:	00f70833          	add	a6,a4,a5
   11074:	16a68463          	beq	a3,a0,111dc <_free_r+0x274>
   11078:	00c62603          	lw	a2,12(a2)
   1107c:	00c6a623          	sw	a2,12(a3)
   11080:	00d62423          	sw	a3,8(a2)
   11084:	01172223          	sw	a7,4(a4)
   11088:	00f82023          	sw	a5,0(a6)
   1108c:	f6dff06f          	j	10ff8 <_free_r+0x90>
   11090:	00008067          	ret
   11094:	0017e693          	ori	a3,a5,1
   11098:	fed42e23          	sw	a3,-4(s0)
   1109c:	00f62023          	sw	a5,0(a2)
   110a0:	1ff00693          	li	a3,511
   110a4:	f4f6fee3          	bgeu	a3,a5,11000 <_free_r+0x98>
   110a8:	0097d693          	srli	a3,a5,0x9
   110ac:	00400613          	li	a2,4
   110b0:	0ed66863          	bltu	a2,a3,111a0 <_free_r+0x238>
   110b4:	0067d693          	srli	a3,a5,0x6
   110b8:	03968813          	addi	a6,a3,57
   110bc:	03868613          	addi	a2,a3,56
   110c0:	00381813          	slli	a6,a6,0x3
   110c4:	01058833          	add	a6,a1,a6
   110c8:	00082683          	lw	a3,0(a6)
   110cc:	ff880813          	addi	a6,a6,-8
   110d0:	12d80463          	beq	a6,a3,111f8 <_free_r+0x290>
   110d4:	0046a603          	lw	a2,4(a3)
   110d8:	ffc67613          	andi	a2,a2,-4
   110dc:	00c7f663          	bgeu	a5,a2,110e8 <_free_r+0x180>
   110e0:	0086a683          	lw	a3,8(a3)
   110e4:	fed818e3          	bne	a6,a3,110d4 <_free_r+0x16c>
   110e8:	00c6a803          	lw	a6,12(a3)
   110ec:	01072623          	sw	a6,12(a4)
   110f0:	00d72423          	sw	a3,8(a4)
   110f4:	00812403          	lw	s0,8(sp)
   110f8:	00c12083          	lw	ra,12(sp)
   110fc:	00e82423          	sw	a4,8(a6)
   11100:	00048513          	mv	a0,s1
   11104:	00412483          	lw	s1,4(sp)
   11108:	00e6a623          	sw	a4,12(a3)
   1110c:	01010113          	addi	sp,sp,16
   11110:	b4dff06f          	j	10c5c <__malloc_unlock>
   11114:	14081263          	bnez	a6,11258 <_free_r+0x2f0>
   11118:	00c62583          	lw	a1,12(a2)
   1111c:	00862603          	lw	a2,8(a2)
   11120:	00f687b3          	add	a5,a3,a5
   11124:	00812403          	lw	s0,8(sp)
   11128:	00b62623          	sw	a1,12(a2)
   1112c:	00c5a423          	sw	a2,8(a1)
   11130:	0017e693          	ori	a3,a5,1
   11134:	00c12083          	lw	ra,12(sp)
   11138:	00d72223          	sw	a3,4(a4)
   1113c:	00048513          	mv	a0,s1
   11140:	00f70733          	add	a4,a4,a5
   11144:	00412483          	lw	s1,4(sp)
   11148:	00f72023          	sw	a5,0(a4)
   1114c:	01010113          	addi	sp,sp,16
   11150:	b0dff06f          	j	10c5c <__malloc_unlock>
   11154:	00187813          	andi	a6,a6,1
   11158:	00d787b3          	add	a5,a5,a3
   1115c:	02081063          	bnez	a6,1117c <_free_r+0x214>
   11160:	ff842503          	lw	a0,-8(s0)
   11164:	40a70733          	sub	a4,a4,a0
   11168:	00c72683          	lw	a3,12(a4)
   1116c:	00872603          	lw	a2,8(a4)
   11170:	00a787b3          	add	a5,a5,a0
   11174:	00d62623          	sw	a3,12(a2)
   11178:	00c6a423          	sw	a2,8(a3)
   1117c:	0017e613          	ori	a2,a5,1
   11180:	0541a683          	lw	a3,84(gp) # 12c9c <__malloc_trim_threshold>
   11184:	00c72223          	sw	a2,4(a4)
   11188:	00e5a423          	sw	a4,8(a1)
   1118c:	ead7e8e3          	bltu	a5,a3,1103c <_free_r+0xd4>
   11190:	0601a583          	lw	a1,96(gp) # 12ca8 <__malloc_top_pad>
   11194:	00048513          	mv	a0,s1
   11198:	ca1ff0ef          	jal	ra,10e38 <_malloc_trim_r>
   1119c:	ea1ff06f          	j	1103c <_free_r+0xd4>
   111a0:	01400613          	li	a2,20
   111a4:	02d67463          	bgeu	a2,a3,111cc <_free_r+0x264>
   111a8:	05400613          	li	a2,84
   111ac:	06d66463          	bltu	a2,a3,11214 <_free_r+0x2ac>
   111b0:	00c7d693          	srli	a3,a5,0xc
   111b4:	06f68813          	addi	a6,a3,111
   111b8:	06e68613          	addi	a2,a3,110
   111bc:	00381813          	slli	a6,a6,0x3
   111c0:	f05ff06f          	j	110c4 <_free_r+0x15c>
   111c4:	00d787b3          	add	a5,a5,a3
   111c8:	ea1ff06f          	j	11068 <_free_r+0x100>
   111cc:	05c68813          	addi	a6,a3,92
   111d0:	05b68613          	addi	a2,a3,91
   111d4:	00381813          	slli	a6,a6,0x3
   111d8:	eedff06f          	j	110c4 <_free_r+0x15c>
   111dc:	00e5aa23          	sw	a4,20(a1)
   111e0:	00e5a823          	sw	a4,16(a1)
   111e4:	00a72623          	sw	a0,12(a4)
   111e8:	00a72423          	sw	a0,8(a4)
   111ec:	01172223          	sw	a7,4(a4)
   111f0:	00f82023          	sw	a5,0(a6)
   111f4:	e49ff06f          	j	1103c <_free_r+0xd4>
   111f8:	0045a503          	lw	a0,4(a1)
   111fc:	40265613          	srai	a2,a2,0x2
   11200:	00100793          	li	a5,1
   11204:	00c79633          	sll	a2,a5,a2
   11208:	00a66633          	or	a2,a2,a0
   1120c:	00c5a223          	sw	a2,4(a1)
   11210:	eddff06f          	j	110ec <_free_r+0x184>
   11214:	15400613          	li	a2,340
   11218:	00d66c63          	bltu	a2,a3,11230 <_free_r+0x2c8>
   1121c:	00f7d693          	srli	a3,a5,0xf
   11220:	07868813          	addi	a6,a3,120
   11224:	07768613          	addi	a2,a3,119
   11228:	00381813          	slli	a6,a6,0x3
   1122c:	e99ff06f          	j	110c4 <_free_r+0x15c>
   11230:	55400613          	li	a2,1364
   11234:	00d66c63          	bltu	a2,a3,1124c <_free_r+0x2e4>
   11238:	0127d693          	srli	a3,a5,0x12
   1123c:	07d68813          	addi	a6,a3,125
   11240:	07c68613          	addi	a2,a3,124
   11244:	00381813          	slli	a6,a6,0x3
   11248:	e7dff06f          	j	110c4 <_free_r+0x15c>
   1124c:	3f800813          	li	a6,1016
   11250:	07e00613          	li	a2,126
   11254:	e71ff06f          	j	110c4 <_free_r+0x15c>
   11258:	0017e693          	ori	a3,a5,1
   1125c:	00d72223          	sw	a3,4(a4)
   11260:	00f62023          	sw	a5,0(a2)
   11264:	dd9ff06f          	j	1103c <_free_r+0xd4>

00011268 <atexit>:
   11268:	00050593          	mv	a1,a0
   1126c:	00000693          	li	a3,0
   11270:	00000613          	li	a2,0
   11274:	00000513          	li	a0,0
   11278:	0040006f          	j	1127c <__register_exitproc>

0001127c <__register_exitproc>:
   1127c:	0481a703          	lw	a4,72(gp) # 12c90 <_global_impure_ptr>
   11280:	14872783          	lw	a5,328(a4)
   11284:	04078c63          	beqz	a5,112dc <__register_exitproc+0x60>
   11288:	0047a703          	lw	a4,4(a5)
   1128c:	01f00813          	li	a6,31
   11290:	06e84e63          	blt	a6,a4,1130c <__register_exitproc+0x90>
   11294:	00271813          	slli	a6,a4,0x2
   11298:	02050663          	beqz	a0,112c4 <__register_exitproc+0x48>
   1129c:	01078333          	add	t1,a5,a6
   112a0:	08c32423          	sw	a2,136(t1)
   112a4:	1887a883          	lw	a7,392(a5)
   112a8:	00100613          	li	a2,1
   112ac:	00e61633          	sll	a2,a2,a4
   112b0:	00c8e8b3          	or	a7,a7,a2
   112b4:	1917a423          	sw	a7,392(a5)
   112b8:	10d32423          	sw	a3,264(t1)
   112bc:	00200693          	li	a3,2
   112c0:	02d50463          	beq	a0,a3,112e8 <__register_exitproc+0x6c>
   112c4:	00170713          	addi	a4,a4,1
   112c8:	00e7a223          	sw	a4,4(a5)
   112cc:	010787b3          	add	a5,a5,a6
   112d0:	00b7a423          	sw	a1,8(a5)
   112d4:	00000513          	li	a0,0
   112d8:	00008067          	ret
   112dc:	14c70793          	addi	a5,a4,332
   112e0:	14f72423          	sw	a5,328(a4)
   112e4:	fa5ff06f          	j	11288 <__register_exitproc+0xc>
   112e8:	18c7a683          	lw	a3,396(a5)
   112ec:	00170713          	addi	a4,a4,1
   112f0:	00e7a223          	sw	a4,4(a5)
   112f4:	00c6e633          	or	a2,a3,a2
   112f8:	18c7a623          	sw	a2,396(a5)
   112fc:	010787b3          	add	a5,a5,a6
   11300:	00b7a423          	sw	a1,8(a5)
   11304:	00000513          	li	a0,0
   11308:	00008067          	ret
   1130c:	fff00513          	li	a0,-1
   11310:	00008067          	ret

00011314 <_exit>:
   11314:	05d00893          	li	a7,93
   11318:	00000073          	ecall
   1131c:	00054463          	bltz	a0,11324 <_exit+0x10>
   11320:	0000006f          	j	11320 <_exit+0xc>
   11324:	ff010113          	addi	sp,sp,-16
   11328:	00812423          	sw	s0,8(sp)
   1132c:	00050413          	mv	s0,a0
   11330:	00112623          	sw	ra,12(sp)
   11334:	40800433          	neg	s0,s0
   11338:	084000ef          	jal	ra,113bc <__errno>
   1133c:	00852023          	sw	s0,0(a0)
   11340:	0000006f          	j	11340 <_exit+0x2c>

00011344 <_sbrk>:
   11344:	0681a703          	lw	a4,104(gp) # 12cb0 <heap_end.0>
   11348:	ff010113          	addi	sp,sp,-16
   1134c:	00112623          	sw	ra,12(sp)
   11350:	00050793          	mv	a5,a0
   11354:	02071063          	bnez	a4,11374 <_sbrk+0x30>
   11358:	0d600893          	li	a7,214
   1135c:	00000513          	li	a0,0
   11360:	00000073          	ecall
   11364:	fff00613          	li	a2,-1
   11368:	00050713          	mv	a4,a0
   1136c:	02c50a63          	beq	a0,a2,113a0 <_sbrk+0x5c>
   11370:	06a1a423          	sw	a0,104(gp) # 12cb0 <heap_end.0>
   11374:	0d600893          	li	a7,214
   11378:	00e78533          	add	a0,a5,a4
   1137c:	00000073          	ecall
   11380:	0681a703          	lw	a4,104(gp) # 12cb0 <heap_end.0>
   11384:	00e787b3          	add	a5,a5,a4
   11388:	00f51c63          	bne	a0,a5,113a0 <_sbrk+0x5c>
   1138c:	00c12083          	lw	ra,12(sp)
   11390:	06a1a423          	sw	a0,104(gp) # 12cb0 <heap_end.0>
   11394:	00070513          	mv	a0,a4
   11398:	01010113          	addi	sp,sp,16
   1139c:	00008067          	ret
   113a0:	01c000ef          	jal	ra,113bc <__errno>
   113a4:	00c12083          	lw	ra,12(sp)
   113a8:	00c00793          	li	a5,12
   113ac:	00f52023          	sw	a5,0(a0)
   113b0:	fff00513          	li	a0,-1
   113b4:	01010113          	addi	sp,sp,16
   113b8:	00008067          	ret

000113bc <__errno>:
   113bc:	04c1a503          	lw	a0,76(gp) # 12c94 <_impure_ptr>
   113c0:	00008067          	ret
There are 22 section headers, starting at offset 0xb110:

Section Headers:
  [Nr] Name              Type            Addr     Off    Size   ES Flg Lk Inf Al
  [ 0]                   NULL            00000000 000000 000000 00      0   0  0
  [ 1] .text             PROGBITS        00010080 000080 001344 00  AX  0   0 16
  [ 2] .eh_frame         PROGBITS        000123c4 0013c4 000078 00  WA  0   0  4
  [ 3] .init_array       INIT_ARRAY      0001243c 00143c 000008 04  WA  0   0  4
  [ 4] .fini_array       FINI_ARRAY      00012444 001444 000004 04  WA  0   0  4
  [ 5] .data             PROGBITS        00012448 001448 000838 00  WA  0   0  8
  [ 6] .got              PROGBITS        00012c80 001c80 000010 04  WA  0   0  4
  [ 7] .sdata            PROGBITS        00012c90 001c90 000010 00  WA  0   0  4
  [ 8] .sbss             NOBITS          00012ca0 001ca0 000014 00  WA  0   0  4
  [ 9] .bss              NOBITS          00012cb4 001ca0 000044 00  WA  0   0  4
  [10] .comment          PROGBITS        00000000 001ca0 000012 01  MS  0   0  1
  [11] .riscv.attributes RISCV_ATTRIBUTE 00000000 001cb2 000021 00      0   0  1
  [12] .debug_aranges    PROGBITS        00000000 001cd3 000128 00      0   0  1
  [13] .debug_info       PROGBITS        00000000 001dfb 002453 00      0   0  1
  [14] .debug_abbrev     PROGBITS        00000000 00424e 00084d 00      0   0  1
  [15] .debug_line       PROGBITS        00000000 004a9b 00329f 00      0   0  1
  [16] .debug_str        PROGBITS        00000000 007d3a 000f1a 01  MS  0   0  1
  [17] .debug_loc        PROGBITS        00000000 008c54 0016ff 00      0   0  1
  [18] .debug_ranges     PROGBITS        00000000 00a353 0002e0 00      0   0  1
  [19] .symtab           SYMTAB          00000000 00a634 000630 10     20  59  4
  [20] .strtab           STRTAB          00000000 00ac64 0003d5 00      0   0  1
  [21] .shstrtab         STRTAB          00000000 00b039 0000d4 00      0   0  1
Key to Flags:
  W (write), A (alloc), X (execute), M (merge), S (strings), I (info),
  L (link order), O (extra OS processing required), G (group), T (TLS),
  C (compressed), x (unknown), o (OS specific), E (exclude),
  p (processor specific)
