
ROM_experimental.elf:     file format elf32-littleriscv

SYMBOL TABLE:
00010074 l    d  .text	00000000 .text
00015604 l    d  .rodata	00000000 .rodata
00018000 l    d  .eh_frame	00000000 .eh_frame
0001881c l    d  .init_array	00000000 .init_array
00018824 l    d  .fini_array	00000000 .fini_array
00018828 l    d  .data	00000000 .data
00019998 l    d  .got	00000000 .got
00019a08 l    d  .sdata	00000000 .sdata
00019a18 l    d  .sbss	00000000 .sbss
00019a30 l    d  .bss	00000000 .bss
00000000 l    d  .comment	00000000 .comment
00000000 l    d  .riscv.attributes	00000000 .riscv.attributes
00000000 l    d  .debug_aranges	00000000 .debug_aranges
00000000 l    d  .debug_info	00000000 .debug_info
00000000 l    d  .debug_abbrev	00000000 .debug_abbrev
00000000 l    d  .debug_line	00000000 .debug_line
00000000 l    d  .debug_str	00000000 .debug_str
00000000 l    d  .debug_loc	00000000 .debug_loc
00000000 l    d  .debug_ranges	00000000 .debug_ranges
00000000 l    df *ABS*	00000000 ROM_experimental.cpp
00000000 l    df *ABS*	00000000 __call_atexit.c
000101d0 l     F .text	00000018 register_fini
00000000 l    df *ABS*	00000000 crtstuff.c
00018000 l     O .eh_frame	00000000 __EH_FRAME_BEGIN__
00010238 l     F .text	00000000 __do_global_dtors_aux
00019a30 l     O .bss	00000001 completed.1
00018824 l     O .fini_array	00000000 __do_global_dtors_aux_fini_array_entry
00010284 l     F .text	00000000 frame_dummy
00019a34 l     O .bss	00000018 object.0
00018820 l     O .init_array	00000000 __frame_dummy_init_array_entry
00000000 l    df *ABS*	00000000 utils.cpp
00015bf8 l     O .rodata	00001800 _ZL4font
00000000 l    df *ABS*	00000000 SDCARD.cpp
00000000 l    df *ABS*	00000000 FAT.cpp
000124d8 l     F .text	000000a8 _ZL7get_fatm
00012580 l     F .text	00000420 _ZL11follow_pathP3DIRPhPKc
00019aa8 l     O .bss	00000004 _ZL5FatFs
00017440 l     O .rodata	00000080 _ZL3cvt
00000000 l    df *ABS*	00000000 diskio.cpp
00000000 l    df *ABS*	00000000 console.cpp
00019aac l     O .bss	00000300 _ZL11consoleText
00019dac l     O .bss	00000004 _ZL7cursorx
00019db0 l     O .bss	00000004 _ZL7cursory
00000000 l    df *ABS*	00000000 libgcc2.c
00000000 l    df *ABS*	00000000 abs.c
00000000 l    df *ABS*	00000000 exit.c
00000000 l    df *ABS*	00000000 init.c
00000000 l    df *ABS*	00000000 malloc.c
00000000 l    df *ABS*	00000000 mallocr.c
00000000 l    df *ABS*	00000000 memcpy.c
00000000 l    df *ABS*	00000000 mlock.c
00000000 l    df *ABS*	00000000 sbrkr.c
00000000 l    df *ABS*	00000000 fini.c
00000000 l    df *ABS*	00000000 mallocr.c
00000000 l    df *ABS*	00000000 atexit.c
00000000 l    df *ABS*	00000000 __atexit.c
00000000 l    df *ABS*	00000000 sys_exit.c
00000000 l    df *ABS*	00000000 sys_sbrk.c
00019a28 l     O .sbss	00000004 heap_end.0
00000000 l    df *ABS*	00000000 errno.c
00000000 l    df *ABS*	00000000 libgcc2.c
00000000 l    df *ABS*	00000000 crtstuff.c
00018818 l     O .eh_frame	00000000 __FRAME_END__
00000000 l    df *ABS*	00000000 impure.c
00019168 l     O .data	00000428 impure_data
00000000 l    df *ABS*	00000000 
00018828 l       .fini_array	00000000 __fini_array_end
00018824 l       .fini_array	00000000 __fini_array_start
00018824 l       .init_array	00000000 __init_array_end
0001881c l       .init_array	00000000 __preinit_array_end
000199a0 l     O .got	00000000 _GLOBAL_OFFSET_TABLE_
0001881c l       .init_array	00000000 __init_array_start
0001881c l       .init_array	00000000 __preinit_array_start
00011e64 g     F .text	0000004c _Z11ClearScreenh
000136e0 g     F .text	0000002c _Z10disk_readpPhmtt
00012ca4 g     F .text	000000a8 _Z7pf_openPKc
000195dc g       *ABS*	00000000 __global_pointer$
00014e94 g     F .text	00000004 __malloc_unlock
000121e0 g     F .text	00000134 _Z17SDReadSingleBlockmPhS_
00011330 g     F .text	00000054 _Z22SetupInterruptHandlersv
000155fc g     F .text	00000008 __errno
00010314 g     F .text	00000258 _Z8MainTaskv
00011384 g     F .text	00000388 _Z8PrintDMAiiPKcb
00019a24 g     O .sbss	00000004 errno
00010f90 g     F .text	0000026c _Z15timer_interruptv
00011200 g     F .text	00000004 _Z18external_interruptv
000129a0 g     F .text	00000304 _Z8pf_mountP5FATFS
00019158 g     O .data	00000004 IO_UARTRX
00019a08 g       .sdata	00000000 __SDATA_BEGIN__
00012f18 g     F .text	00000210 _Z8pf_lseekm
00014c8c g     F .text	00000128 memcpy
00011d28 g     F .text	0000013c _Z7EchoIntm
00010af4 g     F .text	00000428 _Z21ProcessUARTInputAsyncv
0001378c g     F .text	0000003c _Z16SetConsoleCursorii
00013ed4 g     F .text	0000005c _Z11DrawConsolev
000144dc g     F .text	0000000c malloc
00013750 g     F .text	0000003c _Z15ClearConsoleRowv
00013264 g     F .text	0000045c _Z10pf_readdirP3DIRP7FILINFO
00019a20 g     O .sbss	00000004 __malloc_top_pad
00014e98 g     F .text	0000005c _sbrk_r
00019a1c g     O .sbss	00000004 __malloc_max_sbrked_mem
00019154 g     O .data	00000004 IO_SPIOutput
0001914c g     O .data	00000004 IO_GPUFIFO
00019a08 g     O .sdata	00000004 _global_impure_ptr
00011fb4 g     F .text	00000134 _Z19SDCheckVoltageRangeRm
00014440 g     F .text	0000009c __libc_init_array
00011eb0 g     F .text	00000014 _Z9ReadClockv
00011ec4 g     F .text	00000024 _Z9ClockToMsy
00013fcc g     F .text	00000434 .hidden __udivdi3
00015584 g     F .text	00000078 _sbrk
00010600 g     F .text	00000290 _Z14ParseELFHeaderP16SElfFileHeader32
00019a98 g     O .bss	00000004 num_tasks
0001370c g     F .text	00000044 _Z12ClearConsolev
00015014 g     F .text	0000005c __libc_fini_array
00019150 g     O .data	00000004 IO_SPIInput
00019a78 g     O .bss	00000008 clk
00019aa4 g     O .bss	00000004 showtime
00013f30 g     F .text	0000009c _Z18ConsoleStringAtRowPc
000102a8 g     F .text	0000006c _Z9ClockTaskv
000151a8 g     F .text	00000300 _free_r
00011f2c g     F .text	00000088 _Z6SDIdlev
00014ef4 g     F .text	00000120 __call_exitprocs
0001884c g     O .data	00000900 task_array
00019a88 g     O .bss	00000004 escapemode
00019a10 g     O .sdata	00000004 __malloc_sbrk_base
000101e8 g     F .text	00000050 _start
00011ee8 g     F .text	00000044 _Z12ClockMsToHMSmRmS_S_
000136c0 g     F .text	00000020 _Z15disk_initializev
0001384c g     F .text	00000048 _Z21ConsoleCursorStepBackv
00013128 g     F .text	0000013c _Z10pf_opendirP3DIRPKc
000154bc g     F .text	00000098 __register_exitproc
00019a90 g     O .bss	00000004 milliseconds
00019db4 g     O .bss	00000028 __malloc_current_mallinfo
00010f1c g     F .text	00000074 _Z10SetupTasksv
000137c8 g     F .text	00000070 _Z13ScrollConsolev
00011b98 g     F .text	00000164 _Z15PrintDMADecimaliii
00019ddc g       .bss	00000000 __BSS_END__
00019590 g     O .data	00000408 __malloc_av_
00019a80 g     O .bss	00000004 current_task
0001056c g     F .text	00000094 _Z6RunELFv
00013d54 g     F .text	00000180 _Z14EchoConsoleHexl
00014e90 g     F .text	00000004 __malloc_lock
00019a18 g       .sbss	00000000 __bss_start
00013990 g     F .text	000003c4 _Z11EchoConsolel
00014db4 g     F .text	000000dc memset
00010074 g     F .text	0000015c main
00019a18 g     O .sbss	00000004 __malloc_max_total_mem
000108f4 g     F .text	00000200 _Z7ListDirv
000120e8 g     F .text	000000f8 _Z10SDCardInitv
000144f4 g     F .text	00000798 _malloc_r
00019aa0 g     O .bss	00000004 seconds
00015070 g     F .text	00000138 _malloc_trim_r
00011204 g     F .text	0000012c _Z17interrupt_handlerv
000174c0 g     O .rodata	00000100 .hidden __clz_tab
00012474 g     F .text	00000064 _Z13SDCardStartupv
000154a8 g     F .text	00000014 atexit
00019160 g     O .data	00000004 IO_UARTTX
000111fc g     F .text	00000004 _Z20breakpoint_interruptv
00019a0c g     O .sdata	00000004 _impure_ptr
00011aa0 g     F .text	000000f8 _Z11PrintDMAHexiim
0001915c g     O .data	00000004 IO_UARTRXByteCount
00010890 g     F .text	00000064 _Z7LoadELFPKc
00012d4c g     F .text	000001cc _Z7pf_readPvtPt
000102a4 g     F .text	00000004 _Z21SystemTaskPlaceholderv
00018828 g     O .data	00000004 branchaddress
00018828 g       .data	00000000 __DATA_BEGIN__
00011cfc g     F .text	0000002c _Z8EchoUARTPKc
0001170c g     F .text	00000394 _Z8PrintDMAiiiPKcb
00019a18 g       .sdata	00000000 _edata
00019ddc g       .bss	00000000 _end
00012314 g     F .text	00000160 _Z20SDReadMultipleBlocksPhmmm
00019a14 g     O .sdata	00000004 __malloc_trim_threshold
00014410 g     F .text	00000030 exit
00015554 g     F .text	00000030 _exit
00019a94 g     O .bss	00000004 minutes
00013838 g     F .text	00000014 _Z16GetConsoleCursorRiS_
00019a84 g     O .bss	00000004 cursorevenodd
00014400 g     F .text	00000010 abs
00019a8c g     O .bss	00000004 hours
0001882c g     O .data	00000020 FRtoString
00019a4c g     O .bss	0000002c Fs
00019a9c g     O .bss	00000004 sdcardavailable
00013894 g     F .text	000000fc _Z11EchoConsolePKc
000144e8 g     F .text	0000000c free



Disassembly of section .text:

00010074 <main>:
   10074:	ff010113          	addi	sp,sp,-16
   10078:	00005517          	auipc	a0,0x5
   1007c:	6a850513          	addi	a0,a0,1704 # 15720 <__errno+0x124>
   10080:	00112623          	sw	ra,12(sp)
   10084:	479010ef          	jal	ra,11cfc <_Z8EchoUARTPKc>
   10088:	00005517          	auipc	a0,0x5
   1008c:	6cc50513          	addi	a0,a0,1740 # 15754 <__errno+0x158>
   10090:	46d010ef          	jal	ra,11cfc <_Z8EchoUARTPKc>
   10094:	00005517          	auipc	a0,0x5
   10098:	6f450513          	addi	a0,a0,1780 # 15788 <__errno+0x18c>
   1009c:	461010ef          	jal	ra,11cfc <_Z8EchoUARTPKc>
   100a0:	00005517          	auipc	a0,0x5
   100a4:	71c50513          	addi	a0,a0,1820 # 157bc <__errno+0x1c0>
   100a8:	455010ef          	jal	ra,11cfc <_Z8EchoUARTPKc>
   100ac:	00005517          	auipc	a0,0x5
   100b0:	74450513          	addi	a0,a0,1860 # 157f0 <__errno+0x1f4>
   100b4:	449010ef          	jal	ra,11cfc <_Z8EchoUARTPKc>
   100b8:	00005517          	auipc	a0,0x5
   100bc:	73850513          	addi	a0,a0,1848 # 157f0 <__errno+0x1f4>
   100c0:	43d010ef          	jal	ra,11cfc <_Z8EchoUARTPKc>
   100c4:	00005517          	auipc	a0,0x5
   100c8:	72c50513          	addi	a0,a0,1836 # 157f0 <__errno+0x1f4>
   100cc:	431010ef          	jal	ra,11cfc <_Z8EchoUARTPKc>
   100d0:	00005517          	auipc	a0,0x5
   100d4:	75450513          	addi	a0,a0,1876 # 15824 <__errno+0x228>
   100d8:	425010ef          	jal	ra,11cfc <_Z8EchoUARTPKc>
   100dc:	00005517          	auipc	a0,0x5
   100e0:	77c50513          	addi	a0,a0,1916 # 15858 <__errno+0x25c>
   100e4:	419010ef          	jal	ra,11cfc <_Z8EchoUARTPKc>
   100e8:	00005517          	auipc	a0,0x5
   100ec:	7a450513          	addi	a0,a0,1956 # 1588c <__errno+0x290>
   100f0:	40d010ef          	jal	ra,11cfc <_Z8EchoUARTPKc>
   100f4:	00005517          	auipc	a0,0x5
   100f8:	7cc50513          	addi	a0,a0,1996 # 158c0 <__errno+0x2c4>
   100fc:	401010ef          	jal	ra,11cfc <_Z8EchoUARTPKc>
   10100:	00005517          	auipc	a0,0x5
   10104:	7f450513          	addi	a0,a0,2036 # 158f4 <__errno+0x2f8>
   10108:	3f5010ef          	jal	ra,11cfc <_Z8EchoUARTPKc>
   1010c:	00006517          	auipc	a0,0x6
   10110:	81c50513          	addi	a0,a0,-2020 # 15928 <__errno+0x32c>
   10114:	3e9010ef          	jal	ra,11cfc <_Z8EchoUARTPKc>
   10118:	00006517          	auipc	a0,0x6
   1011c:	84450513          	addi	a0,a0,-1980 # 1595c <__errno+0x360>
   10120:	3dd010ef          	jal	ra,11cfc <_Z8EchoUARTPKc>
   10124:	00006517          	auipc	a0,0x6
   10128:	86c50513          	addi	a0,a0,-1940 # 15990 <__errno+0x394>
   1012c:	3d1010ef          	jal	ra,11cfc <_Z8EchoUARTPKc>
   10130:	00006517          	auipc	a0,0x6
   10134:	89450513          	addi	a0,a0,-1900 # 159c4 <__errno+0x3c8>
   10138:	3c5010ef          	jal	ra,11cfc <_Z8EchoUARTPKc>
   1013c:	00006517          	auipc	a0,0x6
   10140:	8bc50513          	addi	a0,a0,-1860 # 159f8 <__errno+0x3fc>
   10144:	3b9010ef          	jal	ra,11cfc <_Z8EchoUARTPKc>
   10148:	00006517          	auipc	a0,0x6
   1014c:	8e450513          	addi	a0,a0,-1820 # 15a2c <__errno+0x430>
   10150:	3ad010ef          	jal	ra,11cfc <_Z8EchoUARTPKc>
   10154:	00006517          	auipc	a0,0x6
   10158:	90c50513          	addi	a0,a0,-1780 # 15a60 <__errno+0x464>
   1015c:	3a1010ef          	jal	ra,11cfc <_Z8EchoUARTPKc>
   10160:	00006517          	auipc	a0,0x6
   10164:	93450513          	addi	a0,a0,-1740 # 15a94 <__errno+0x498>
   10168:	395010ef          	jal	ra,11cfc <_Z8EchoUARTPKc>
   1016c:	00006517          	auipc	a0,0x6
   10170:	95c50513          	addi	a0,a0,-1700 # 15ac8 <__errno+0x4cc>
   10174:	389010ef          	jal	ra,11cfc <_Z8EchoUARTPKc>
   10178:	00006517          	auipc	a0,0x6
   1017c:	98450513          	addi	a0,a0,-1660 # 15afc <__errno+0x500>
   10180:	37d010ef          	jal	ra,11cfc <_Z8EchoUARTPKc>
   10184:	00006517          	auipc	a0,0x6
   10188:	99c50513          	addi	a0,a0,-1636 # 15b20 <__errno+0x524>
   1018c:	371010ef          	jal	ra,11cfc <_Z8EchoUARTPKc>
   10190:	0000a517          	auipc	a0,0xa
   10194:	87052503          	lw	a0,-1936(a0) # 19a00 <_GLOBAL_OFFSET_TABLE_+0x60>
   10198:	009020ef          	jal	ra,129a0 <_Z8pf_mountP5FATFS>
   1019c:	00153793          	seqz	a5,a0
   101a0:	0000a717          	auipc	a4,0xa
   101a4:	86472703          	lw	a4,-1948(a4) # 19a04 <_GLOBAL_OFFSET_TABLE_+0x64>
   101a8:	00006517          	auipc	a0,0x6
   101ac:	99050513          	addi	a0,a0,-1648 # 15b38 <__errno+0x53c>
   101b0:	00f72023          	sw	a5,0(a4)
   101b4:	6dc000ef          	jal	ra,10890 <_Z7LoadELFPKc>
   101b8:	fff00793          	li	a5,-1
   101bc:	00f50463          	beq	a0,a5,101c4 <main+0x150>
   101c0:	3ac000ef          	jal	ra,1056c <_Z6RunELFv>
   101c4:	559000ef          	jal	ra,10f1c <_Z10SetupTasksv>
   101c8:	168010ef          	jal	ra,11330 <_Z22SetupInterruptHandlersv>
   101cc:	0000006f          	j	101cc <main+0x158>

000101d0 <register_fini>:
   101d0:	00000793          	li	a5,0
   101d4:	00078863          	beqz	a5,101e4 <register_fini+0x14>
   101d8:	00015537          	lui	a0,0x15
   101dc:	01450513          	addi	a0,a0,20 # 15014 <__libc_fini_array>
   101e0:	2c80506f          	j	154a8 <atexit>
   101e4:	00008067          	ret

000101e8 <_start>:
   101e8:	00009197          	auipc	gp,0x9
   101ec:	3f418193          	addi	gp,gp,1012 # 195dc <__global_pointer$>
   101f0:	43c18513          	addi	a0,gp,1084 # 19a18 <__malloc_max_total_mem>
   101f4:	0000a617          	auipc	a2,0xa
   101f8:	be860613          	addi	a2,a2,-1048 # 19ddc <__BSS_END__>
   101fc:	40a60633          	sub	a2,a2,a0
   10200:	00000593          	li	a1,0
   10204:	3b1040ef          	jal	ra,14db4 <memset>
   10208:	00005517          	auipc	a0,0x5
   1020c:	2a050513          	addi	a0,a0,672 # 154a8 <atexit>
   10210:	00050863          	beqz	a0,10220 <_start+0x38>
   10214:	00005517          	auipc	a0,0x5
   10218:	e0050513          	addi	a0,a0,-512 # 15014 <__libc_fini_array>
   1021c:	28c050ef          	jal	ra,154a8 <atexit>
   10220:	220040ef          	jal	ra,14440 <__libc_init_array>
   10224:	00012503          	lw	a0,0(sp)
   10228:	00410593          	addi	a1,sp,4
   1022c:	00000613          	li	a2,0
   10230:	e45ff0ef          	jal	ra,10074 <main>
   10234:	1dc0406f          	j	14410 <exit>

00010238 <__do_global_dtors_aux>:
   10238:	4541c703          	lbu	a4,1108(gp) # 19a30 <completed.1>
   1023c:	04071263          	bnez	a4,10280 <__do_global_dtors_aux+0x48>
   10240:	ff010113          	addi	sp,sp,-16
   10244:	00812423          	sw	s0,8(sp)
   10248:	00078413          	mv	s0,a5
   1024c:	00112623          	sw	ra,12(sp)
   10250:	00000793          	li	a5,0
   10254:	00078a63          	beqz	a5,10268 <__do_global_dtors_aux+0x30>
   10258:	00018537          	lui	a0,0x18
   1025c:	00050513          	mv	a0,a0
   10260:	00000097          	auipc	ra,0x0
   10264:	000000e7          	jalr	zero # 0 <main-0x10074>
   10268:	00100793          	li	a5,1
   1026c:	00c12083          	lw	ra,12(sp)
   10270:	44f18a23          	sb	a5,1108(gp) # 19a30 <completed.1>
   10274:	00812403          	lw	s0,8(sp)
   10278:	01010113          	addi	sp,sp,16
   1027c:	00008067          	ret
   10280:	00008067          	ret

00010284 <frame_dummy>:
   10284:	00000793          	li	a5,0
   10288:	00078c63          	beqz	a5,102a0 <frame_dummy+0x1c>
   1028c:	00018537          	lui	a0,0x18
   10290:	45818593          	addi	a1,gp,1112 # 19a34 <object.0>
   10294:	00050513          	mv	a0,a0
   10298:	00000317          	auipc	t1,0x0
   1029c:	00000067          	jr	zero # 0 <main-0x10074>
   102a0:	00008067          	ret

000102a4 <_Z21SystemTaskPlaceholderv>:
   102a4:	0000006f          	j	102a4 <_Z21SystemTaskPlaceholderv>

000102a8 <_Z9ClockTaskv>:
   102a8:	fe010113          	addi	sp,sp,-32
   102ac:	00812c23          	sw	s0,24(sp)
   102b0:	00912a23          	sw	s1,20(sp)
   102b4:	01212823          	sw	s2,16(sp)
   102b8:	01312623          	sw	s3,12(sp)
   102bc:	01412423          	sw	s4,8(sp)
   102c0:	00112e23          	sw	ra,28(sp)
   102c4:	00009a17          	auipc	s4,0x9
   102c8:	6f8a2a03          	lw	s4,1784(s4) # 199bc <_GLOBAL_OFFSET_TABLE_+0x1c>
   102cc:	00009997          	auipc	s3,0x9
   102d0:	7049a983          	lw	s3,1796(s3) # 199d0 <_GLOBAL_OFFSET_TABLE_+0x30>
   102d4:	00009917          	auipc	s2,0x9
   102d8:	70492903          	lw	s2,1796(s2) # 199d8 <_GLOBAL_OFFSET_TABLE_+0x38>
   102dc:	00009497          	auipc	s1,0x9
   102e0:	7144a483          	lw	s1,1812(s1) # 199f0 <_GLOBAL_OFFSET_TABLE_+0x50>
   102e4:	00009417          	auipc	s0,0x9
   102e8:	71442403          	lw	s0,1812(s0) # 199f8 <_GLOBAL_OFFSET_TABLE_+0x58>
   102ec:	3c5010ef          	jal	ra,11eb0 <_Z9ReadClockv>
   102f0:	00ba2223          	sw	a1,4(s4)
   102f4:	00aa2023          	sw	a0,0(s4)
   102f8:	3cd010ef          	jal	ra,11ec4 <_Z9ClockToMsy>
   102fc:	00090693          	mv	a3,s2
   10300:	00048613          	mv	a2,s1
   10304:	00040593          	mv	a1,s0
   10308:	00a9a023          	sw	a0,0(s3)
   1030c:	3dd010ef          	jal	ra,11ee8 <_Z12ClockMsToHMSmRmS_S_>
   10310:	fddff06f          	j	102ec <_Z9ClockTaskv+0x44>

00010314 <_Z8MainTaskv>:
   10314:	f9010113          	addi	sp,sp,-112
   10318:	05512a23          	sw	s5,84(sp)
   1031c:	00009a97          	auipc	s5,0x9
   10320:	694aaa83          	lw	s5,1684(s5) # 199b0 <_GLOBAL_OFFSET_TABLE_+0x10>
   10324:	000aa783          	lw	a5,0(s5)
   10328:	06112623          	sw	ra,108(sp)
   1032c:	06812423          	sw	s0,104(sp)
   10330:	06912223          	sw	s1,100(sp)
   10334:	07212023          	sw	s2,96(sp)
   10338:	05312e23          	sw	s3,92(sp)
   1033c:	05412c23          	sw	s4,88(sp)
   10340:	05612823          	sw	s6,80(sp)
   10344:	05712623          	sw	s7,76(sp)
   10348:	05812423          	sw	s8,72(sp)
   1034c:	05912223          	sw	s9,68(sp)
   10350:	05a12023          	sw	s10,64(sp)
   10354:	03b12e23          	sw	s11,60(sp)
   10358:	30100713          	li	a4,769
   1035c:	00e7a023          	sw	a4,0(a5)
   10360:	36100493          	li	s1,865
   10364:	0097a023          	sw	s1,0(a5)
   10368:	06700413          	li	s0,103
   1036c:	0087a023          	sw	s0,0(a5)
   10370:	39c030ef          	jal	ra,1370c <_Z12ClearConsolev>
   10374:	0c000513          	li	a0,192
   10378:	2ed010ef          	jal	ra,11e64 <_Z11ClearScreenh>
   1037c:	359030ef          	jal	ra,13ed4 <_Z11DrawConsolev>
   10380:	000aa703          	lw	a4,0(s5)
   10384:	70100793          	li	a5,1793
   10388:	00000993          	li	s3,0
   1038c:	00f72023          	sw	a5,0(a4)
   10390:	02410793          	addi	a5,sp,36
   10394:	0167da13          	srli	s4,a5,0x16
   10398:	00a79793          	slli	a5,a5,0xa
   1039c:	0817e793          	ori	a5,a5,129
   103a0:	00972023          	sw	s1,0(a4)
   103a4:	00f12623          	sw	a5,12(sp)
   103a8:	02c10793          	addi	a5,sp,44
   103ac:	00872023          	sw	s0,0(a4)
   103b0:	00aa1a13          	slli	s4,s4,0xa
   103b4:	00f12e23          	sw	a5,28(sp)
   103b8:	02810793          	addi	a5,sp,40
   103bc:	02012223          	sw	zero,36(sp)
   103c0:	091a6a13          	ori	s4,s4,145
   103c4:	00000913          	li	s2,0
   103c8:	00100413          	li	s0,1
   103cc:	00009d97          	auipc	s11,0x9
   103d0:	604dad83          	lw	s11,1540(s11) # 199d0 <_GLOBAL_OFFSET_TABLE_+0x30>
   103d4:	00009497          	auipc	s1,0x9
   103d8:	6204a483          	lw	s1,1568(s1) # 199f4 <_GLOBAL_OFFSET_TABLE_+0x54>
   103dc:	00f12c23          	sw	a5,24(sp)
   103e0:	00009d17          	auipc	s10,0x9
   103e4:	5e0d2d03          	lw	s10,1504(s10) # 199c0 <_GLOBAL_OFFSET_TABLE_+0x20>
   103e8:	21200c93          	li	s9,530
   103ec:	00005c17          	auipc	s8,0x5
   103f0:	21cc0c13          	addi	s8,s8,540 # 15608 <__errno+0xc>
   103f4:	36100b93          	li	s7,865
   103f8:	06700b13          	li	s6,103
   103fc:	02412783          	lw	a5,36(sp)
   10400:	ff379ee3          	bne	a5,s3,103fc <_Z8MainTaskv+0xe8>
   10404:	0c000513          	li	a0,192
   10408:	25d010ef          	jal	ra,11e64 <_Z11ClearScreenh>
   1040c:	2c9030ef          	jal	ra,13ed4 <_Z11DrawConsolev>
   10410:	000da683          	lw	a3,0(s11)
   10414:	00198993          	addi	s3,s3,1
   10418:	412687b3          	sub	a5,a3,s2
   1041c:	10fce263          	bltu	s9,a5,10520 <_Z8MainTaskv+0x20c>
   10420:	0004a783          	lw	a5,0(s1)
   10424:	00144413          	xori	s0,s0,1
   10428:	0017f793          	andi	a5,a5,1
   1042c:	10078863          	beqz	a5,1053c <_Z8MainTaskv+0x228>
   10430:	000d2783          	lw	a5,0(s10)
   10434:	00000593          	li	a1,0
   10438:	00000513          	li	a0,0
   1043c:	08078863          	beqz	a5,104cc <_Z8MainTaskv+0x1b8>
   10440:	00009797          	auipc	a5,0x9
   10444:	5b87a783          	lw	a5,1464(a5) # 199f8 <_GLOBAL_OFFSET_TABLE_+0x58>
   10448:	0007a603          	lw	a2,0(a5)
   1044c:	74c010ef          	jal	ra,11b98 <_Z15PrintDMADecimaliii>
   10450:	00050793          	mv	a5,a0
   10454:	00100693          	li	a3,1
   10458:	00351513          	slli	a0,a0,0x3
   1045c:	000c0613          	mv	a2,s8
   10460:	00000593          	li	a1,0
   10464:	00f12a23          	sw	a5,20(sp)
   10468:	00a12823          	sw	a0,16(sp)
   1046c:	719000ef          	jal	ra,11384 <_Z8PrintDMAiiPKcb>
   10470:	00009797          	auipc	a5,0x9
   10474:	5807a783          	lw	a5,1408(a5) # 199f0 <_GLOBAL_OFFSET_TABLE_+0x50>
   10478:	01012503          	lw	a0,16(sp)
   1047c:	0007a603          	lw	a2,0(a5)
   10480:	00000593          	li	a1,0
   10484:	00850513          	addi	a0,a0,8 # 18008 <__EH_FRAME_BEGIN__+0x8>
   10488:	710010ef          	jal	ra,11b98 <_Z15PrintDMADecimaliii>
   1048c:	01412783          	lw	a5,20(sp)
   10490:	000c0613          	mv	a2,s8
   10494:	00000593          	li	a1,0
   10498:	00178793          	addi	a5,a5,1
   1049c:	00a787b3          	add	a5,a5,a0
   104a0:	00379513          	slli	a0,a5,0x3
   104a4:	00100693          	li	a3,1
   104a8:	00a12823          	sw	a0,16(sp)
   104ac:	6d9000ef          	jal	ra,11384 <_Z8PrintDMAiiPKcb>
   104b0:	01012503          	lw	a0,16(sp)
   104b4:	00009797          	auipc	a5,0x9
   104b8:	5247a783          	lw	a5,1316(a5) # 199d8 <_GLOBAL_OFFSET_TABLE_+0x38>
   104bc:	0007a603          	lw	a2,0(a5)
   104c0:	00000593          	li	a1,0
   104c4:	00850513          	addi	a0,a0,8
   104c8:	6d0010ef          	jal	ra,11b98 <_Z15PrintDMADecimaliii>
   104cc:	000aa783          	lw	a5,0(s5)
   104d0:	00a41693          	slli	a3,s0,0xa
   104d4:	3016e693          	ori	a3,a3,769
   104d8:	0007a023          	sw	zero,0(a5)
   104dc:	00d7a023          	sw	a3,0(a5)
   104e0:	00c12703          	lw	a4,12(sp)
   104e4:	0177a023          	sw	s7,0(a5)
   104e8:	0167a023          	sw	s6,0(a5)
   104ec:	00e7a023          	sw	a4,0(a5)
   104f0:	00a99613          	slli	a2,s3,0xa
   104f4:	0169d693          	srli	a3,s3,0x16
   104f8:	0147a023          	sw	s4,0(a5)
   104fc:	10166613          	ori	a2,a2,257
   10500:	00a69693          	slli	a3,a3,0xa
   10504:	00c7a023          	sw	a2,0(a5)
   10508:	1216e693          	ori	a3,a3,289
   1050c:	00d7a023          	sw	a3,0(a5)
   10510:	0a600713          	li	a4,166
   10514:	00e7a023          	sw	a4,0(a5)
   10518:	02012223          	sw	zero,36(sp)
   1051c:	ee1ff06f          	j	103fc <_Z8MainTaskv+0xe8>
   10520:	0004a783          	lw	a5,0(s1)
   10524:	00068913          	mv	s2,a3
   10528:	00144413          	xori	s0,s0,1
   1052c:	00178793          	addi	a5,a5,1
   10530:	00f4a023          	sw	a5,0(s1)
   10534:	0017f793          	andi	a5,a5,1
   10538:	ee079ce3          	bnez	a5,10430 <_Z8MainTaskv+0x11c>
   1053c:	01c12583          	lw	a1,28(sp)
   10540:	01812503          	lw	a0,24(sp)
   10544:	2f4030ef          	jal	ra,13838 <_Z16GetConsoleCursorRiS_>
   10548:	02c12583          	lw	a1,44(sp)
   1054c:	02812503          	lw	a0,40(sp)
   10550:	00100693          	li	a3,1
   10554:	00005617          	auipc	a2,0x5
   10558:	0b060613          	addi	a2,a2,176 # 15604 <__errno+0x8>
   1055c:	00359593          	slli	a1,a1,0x3
   10560:	00351513          	slli	a0,a0,0x3
   10564:	621000ef          	jal	ra,11384 <_Z8PrintDMAiiPKcb>
   10568:	ec9ff06f          	j	10430 <_Z8MainTaskv+0x11c>

0001056c <_Z6RunELFv>:
   1056c:	00009797          	auipc	a5,0x9
   10570:	4807a783          	lw	a5,1152(a5) # 199ec <_GLOBAL_OFFSET_TABLE_+0x4c>
   10574:	0007a083          	lw	ra,0(a5)
   10578:	f0000053          	fmv.w.x	ft0,zero
   1057c:	f00000d3          	fmv.w.x	ft1,zero
   10580:	f0000153          	fmv.w.x	ft2,zero
   10584:	f00001d3          	fmv.w.x	ft3,zero
   10588:	f0000253          	fmv.w.x	ft4,zero
   1058c:	f00002d3          	fmv.w.x	ft5,zero
   10590:	f0000353          	fmv.w.x	ft6,zero
   10594:	f00003d3          	fmv.w.x	ft7,zero
   10598:	f0000453          	fmv.w.x	fs0,zero
   1059c:	f00004d3          	fmv.w.x	fs1,zero
   105a0:	f0000553          	fmv.w.x	fa0,zero
   105a4:	f00005d3          	fmv.w.x	fa1,zero
   105a8:	f0000653          	fmv.w.x	fa2,zero
   105ac:	f00006d3          	fmv.w.x	fa3,zero
   105b0:	f0000753          	fmv.w.x	fa4,zero
   105b4:	f00007d3          	fmv.w.x	fa5,zero
   105b8:	f0000853          	fmv.w.x	fa6,zero
   105bc:	f00008d3          	fmv.w.x	fa7,zero
   105c0:	f0000953          	fmv.w.x	fs2,zero
   105c4:	f00009d3          	fmv.w.x	fs3,zero
   105c8:	f0000a53          	fmv.w.x	fs4,zero
   105cc:	f0000ad3          	fmv.w.x	fs5,zero
   105d0:	f0000b53          	fmv.w.x	fs6,zero
   105d4:	f0000bd3          	fmv.w.x	fs7,zero
   105d8:	f0000c53          	fmv.w.x	fs8,zero
   105dc:	f0000cd3          	fmv.w.x	fs9,zero
   105e0:	f0000d53          	fmv.w.x	fs10,zero
   105e4:	f0000dd3          	fmv.w.x	fs11,zero
   105e8:	f0000e53          	fmv.w.x	ft8,zero
   105ec:	f0000ed3          	fmv.w.x	ft9,zero
   105f0:	f0000f53          	fmv.w.x	ft10,zero
   105f4:	f0000fd3          	fmv.w.x	ft11,zero
   105f8:	00008067          	ret
   105fc:	00008067          	ret

00010600 <_Z14ParseELFHeaderP16SElfFileHeader32>:
   10600:	00154683          	lbu	a3,1(a0)
   10604:	00054603          	lbu	a2,0(a0)
   10608:	00254703          	lbu	a4,2(a0)
   1060c:	00354783          	lbu	a5,3(a0)
   10610:	00869693          	slli	a3,a3,0x8
   10614:	00c6e6b3          	or	a3,a3,a2
   10618:	01071713          	slli	a4,a4,0x10
   1061c:	00d76733          	or	a4,a4,a3
   10620:	01879793          	slli	a5,a5,0x18
   10624:	00e7e7b3          	or	a5,a5,a4
   10628:	464c4737          	lui	a4,0x464c4
   1062c:	57f70713          	addi	a4,a4,1407 # 464c457f <__BSS_END__+0x464aa7a3>
   10630:	00e78863          	beq	a5,a4,10640 <_Z14ParseELFHeaderP16SElfFileHeader32+0x40>
   10634:	00005517          	auipc	a0,0x5
   10638:	fd850513          	addi	a0,a0,-40 # 1560c <__errno+0x10>
   1063c:	2580306f          	j	13894 <_Z11EchoConsolePKc>
   10640:	f6010113          	addi	sp,sp,-160
   10644:	08112e23          	sw	ra,156(sp)
   10648:	08812c23          	sw	s0,152(sp)
   1064c:	08912a23          	sw	s1,148(sp)
   10650:	09212823          	sw	s2,144(sp)
   10654:	09412423          	sw	s4,136(sp)
   10658:	09312623          	sw	s3,140(sp)
   1065c:	09512223          	sw	s5,132(sp)
   10660:	01954683          	lbu	a3,25(a0)
   10664:	01854603          	lbu	a2,24(a0)
   10668:	01a54703          	lbu	a4,26(a0)
   1066c:	01b54783          	lbu	a5,27(a0)
   10670:	00869693          	slli	a3,a3,0x8
   10674:	00c6e6b3          	or	a3,a3,a2
   10678:	01071713          	slli	a4,a4,0x10
   1067c:	00d76733          	or	a4,a4,a3
   10680:	01879793          	slli	a5,a5,0x18
   10684:	00050413          	mv	s0,a0
   10688:	00e7e7b3          	or	a5,a5,a4
   1068c:	00009497          	auipc	s1,0x9
   10690:	3604a483          	lw	s1,864(s1) # 199ec <_GLOBAL_OFFSET_TABLE_+0x4c>
   10694:	00005517          	auipc	a0,0x5
   10698:	f9850513          	addi	a0,a0,-104 # 1562c <__errno+0x30>
   1069c:	00f4a023          	sw	a5,0(s1)
   106a0:	1f4030ef          	jal	ra,13894 <_Z11EchoConsolePKc>
   106a4:	0004a503          	lw	a0,0(s1)
   106a8:	00e10913          	addi	s2,sp,14
   106ac:	6a8030ef          	jal	ra,13d54 <_Z14EchoConsoleHexl>
   106b0:	00007517          	auipc	a0,0x7
   106b4:	d8c50513          	addi	a0,a0,-628 # 1743c <_ZL4font+0x1844>
   106b8:	1dc030ef          	jal	ra,13894 <_Z11EchoConsolePKc>
   106bc:	01d44503          	lbu	a0,29(s0)
   106c0:	01c44683          	lbu	a3,28(s0)
   106c4:	01e44783          	lbu	a5,30(s0)
   106c8:	01f44703          	lbu	a4,31(s0)
   106cc:	00851513          	slli	a0,a0,0x8
   106d0:	00d56533          	or	a0,a0,a3
   106d4:	01079793          	slli	a5,a5,0x10
   106d8:	00a7e7b3          	or	a5,a5,a0
   106dc:	01871513          	slli	a0,a4,0x18
   106e0:	00f56533          	or	a0,a0,a5
   106e4:	035020ef          	jal	ra,12f18 <_Z8pf_lseekm>
   106e8:	02000593          	li	a1,32
   106ec:	00090613          	mv	a2,s2
   106f0:	01010513          	addi	a0,sp,16
   106f4:	658020ef          	jal	ra,12d4c <_Z7pf_readPvtPt>
   106f8:	03344783          	lbu	a5,51(s0)
   106fc:	02f44503          	lbu	a0,47(s0)
   10700:	03244683          	lbu	a3,50(s0)
   10704:	02e44703          	lbu	a4,46(s0)
   10708:	00879793          	slli	a5,a5,0x8
   1070c:	00851513          	slli	a0,a0,0x8
   10710:	00e56533          	or	a0,a0,a4
   10714:	00d7e7b3          	or	a5,a5,a3
   10718:	02a787b3          	mul	a5,a5,a0
   1071c:	02144683          	lbu	a3,33(s0)
   10720:	02044603          	lbu	a2,32(s0)
   10724:	02244703          	lbu	a4,34(s0)
   10728:	02344503          	lbu	a0,35(s0)
   1072c:	00869693          	slli	a3,a3,0x8
   10730:	00c6e6b3          	or	a3,a3,a2
   10734:	01071713          	slli	a4,a4,0x10
   10738:	00d76733          	or	a4,a4,a3
   1073c:	01851513          	slli	a0,a0,0x18
   10740:	00e56533          	or	a0,a0,a4
   10744:	00a78533          	add	a0,a5,a0
   10748:	7d0020ef          	jal	ra,12f18 <_Z8pf_lseekm>
   1074c:	00090613          	mv	a2,s2
   10750:	02800593          	li	a1,40
   10754:	03010513          	addi	a0,sp,48
   10758:	5f4020ef          	jal	ra,12d4c <_Z7pf_readPvtPt>
   1075c:	04412503          	lw	a0,68(sp)
   10760:	57d030ef          	jal	ra,144dc <malloc>
   10764:	00050a13          	mv	s4,a0
   10768:	04012503          	lw	a0,64(sp)
   1076c:	7ac020ef          	jal	ra,12f18 <_Z8pf_lseekm>
   10770:	04415583          	lhu	a1,68(sp)
   10774:	00090613          	mv	a2,s2
   10778:	000a0513          	mv	a0,s4
   1077c:	5d0020ef          	jal	ra,12d4c <_Z7pf_readPvtPt>
   10780:	03144783          	lbu	a5,49(s0)
   10784:	03044703          	lbu	a4,48(s0)
   10788:	00879793          	slli	a5,a5,0x8
   1078c:	00e7e7b3          	or	a5,a5,a4
   10790:	0c078a63          	beqz	a5,10864 <_Z14ParseELFHeaderP16SElfFileHeader32+0x264>
   10794:	00000493          	li	s1,0
   10798:	05810993          	addi	s3,sp,88
   1079c:	0240006f          	j	107c0 <_Z14ParseELFHeaderP16SElfFileHeader32+0x1c0>
   107a0:	03144783          	lbu	a5,49(s0)
   107a4:	03044703          	lbu	a4,48(s0)
   107a8:	00148493          	addi	s1,s1,1
   107ac:	00879793          	slli	a5,a5,0x8
   107b0:	01049493          	slli	s1,s1,0x10
   107b4:	0104d493          	srli	s1,s1,0x10
   107b8:	00e7e7b3          	or	a5,a5,a4
   107bc:	0af4f463          	bgeu	s1,a5,10864 <_Z14ParseELFHeaderP16SElfFileHeader32+0x264>
   107c0:	02f44783          	lbu	a5,47(s0)
   107c4:	02e44503          	lbu	a0,46(s0)
   107c8:	02144683          	lbu	a3,33(s0)
   107cc:	00879793          	slli	a5,a5,0x8
   107d0:	00a7e7b3          	or	a5,a5,a0
   107d4:	029787b3          	mul	a5,a5,s1
   107d8:	02044603          	lbu	a2,32(s0)
   107dc:	02244703          	lbu	a4,34(s0)
   107e0:	02344503          	lbu	a0,35(s0)
   107e4:	00869693          	slli	a3,a3,0x8
   107e8:	00c6e6b3          	or	a3,a3,a2
   107ec:	01071713          	slli	a4,a4,0x10
   107f0:	00d76733          	or	a4,a4,a3
   107f4:	01851513          	slli	a0,a0,0x18
   107f8:	00e56533          	or	a0,a0,a4
   107fc:	00a78533          	add	a0,a5,a0
   10800:	718020ef          	jal	ra,12f18 <_Z8pf_lseekm>
   10804:	00090613          	mv	a2,s2
   10808:	02800593          	li	a1,40
   1080c:	00098513          	mv	a0,s3
   10810:	53c020ef          	jal	ra,12d4c <_Z7pf_readPvtPt>
   10814:	06012783          	lw	a5,96(sp)
   10818:	0077f793          	andi	a5,a5,7
   1081c:	f80782e3          	beqz	a5,107a0 <_Z14ParseELFHeaderP16SElfFileHeader32+0x1a0>
   10820:	06c12783          	lw	a5,108(sp)
   10824:	f6078ee3          	beqz	a5,107a0 <_Z14ParseELFHeaderP16SElfFileHeader32+0x1a0>
   10828:	06812503          	lw	a0,104(sp)
   1082c:	06412a83          	lw	s5,100(sp)
   10830:	00148493          	addi	s1,s1,1
   10834:	6e4020ef          	jal	ra,12f18 <_Z8pf_lseekm>
   10838:	06c15583          	lhu	a1,108(sp)
   1083c:	00090613          	mv	a2,s2
   10840:	000a8513          	mv	a0,s5
   10844:	508020ef          	jal	ra,12d4c <_Z7pf_readPvtPt>
   10848:	03144783          	lbu	a5,49(s0)
   1084c:	03044703          	lbu	a4,48(s0)
   10850:	01049493          	slli	s1,s1,0x10
   10854:	00879793          	slli	a5,a5,0x8
   10858:	0104d493          	srli	s1,s1,0x10
   1085c:	00e7e7b3          	or	a5,a5,a4
   10860:	f6f4e0e3          	bltu	s1,a5,107c0 <_Z14ParseELFHeaderP16SElfFileHeader32+0x1c0>
   10864:	000a0513          	mv	a0,s4
   10868:	481030ef          	jal	ra,144e8 <free>
   1086c:	09c12083          	lw	ra,156(sp)
   10870:	09812403          	lw	s0,152(sp)
   10874:	09412483          	lw	s1,148(sp)
   10878:	09012903          	lw	s2,144(sp)
   1087c:	08c12983          	lw	s3,140(sp)
   10880:	08812a03          	lw	s4,136(sp)
   10884:	08412a83          	lw	s5,132(sp)
   10888:	0a010113          	addi	sp,sp,160
   1088c:	00008067          	ret

00010890 <_Z7LoadELFPKc>:
   10890:	fb010113          	addi	sp,sp,-80
   10894:	04812423          	sw	s0,72(sp)
   10898:	04112623          	sw	ra,76(sp)
   1089c:	00050413          	mv	s0,a0
   108a0:	404020ef          	jal	ra,12ca4 <_Z7pf_openPKc>
   108a4:	02051a63          	bnez	a0,108d8 <_Z7LoadELFPKc+0x48>
   108a8:	00c10413          	addi	s0,sp,12
   108ac:	00a10613          	addi	a2,sp,10
   108b0:	03400593          	li	a1,52
   108b4:	00040513          	mv	a0,s0
   108b8:	494020ef          	jal	ra,12d4c <_Z7pf_readPvtPt>
   108bc:	00040513          	mv	a0,s0
   108c0:	d41ff0ef          	jal	ra,10600 <_Z14ParseELFHeaderP16SElfFileHeader32>
   108c4:	00000513          	li	a0,0
   108c8:	04c12083          	lw	ra,76(sp)
   108cc:	04812403          	lw	s0,72(sp)
   108d0:	05010113          	addi	sp,sp,80
   108d4:	00008067          	ret
   108d8:	00005517          	auipc	a0,0x5
   108dc:	d6c50513          	addi	a0,a0,-660 # 15644 <__errno+0x48>
   108e0:	7b5020ef          	jal	ra,13894 <_Z11EchoConsolePKc>
   108e4:	00040513          	mv	a0,s0
   108e8:	7ad020ef          	jal	ra,13894 <_Z11EchoConsolePKc>
   108ec:	fff00513          	li	a0,-1
   108f0:	fd9ff06f          	j	108c8 <_Z7LoadELFPKc+0x38>

000108f4 <_Z7ListDirv>:
   108f4:	fa010113          	addi	sp,sp,-96
   108f8:	04812c23          	sw	s0,88(sp)
   108fc:	00410413          	addi	s0,sp,4
   10900:	00005597          	auipc	a1,0x5
   10904:	d4058593          	addi	a1,a1,-704 # 15640 <__errno+0x44>
   10908:	00040513          	mv	a0,s0
   1090c:	04112e23          	sw	ra,92(sp)
   10910:	04912a23          	sw	s1,84(sp)
   10914:	05212823          	sw	s2,80(sp)
   10918:	05312623          	sw	s3,76(sp)
   1091c:	05412423          	sw	s4,72(sp)
   10920:	05512223          	sw	s5,68(sp)
   10924:	05612023          	sw	s6,64(sp)
   10928:	03712e23          	sw	s7,60(sp)
   1092c:	03812c23          	sw	s8,56(sp)
   10930:	03912a23          	sw	s9,52(sp)
   10934:	7f4020ef          	jal	ra,13128 <_Z10pf_opendirP3DIRPKc>
   10938:	1a051063          	bnez	a0,10ad8 <_Z7ListDirv+0x1e4>
   1093c:	01810493          	addi	s1,sp,24
   10940:	02110993          	addi	s3,sp,33
   10944:	00005917          	auipc	s2,0x5
   10948:	cfc90913          	addi	s2,s2,-772 # 15640 <__errno+0x44>
   1094c:	00005c97          	auipc	s9,0x5
   10950:	d08c8c93          	addi	s9,s9,-760 # 15654 <__errno+0x58>
   10954:	00005c17          	auipc	s8,0x5
   10958:	d04c0c13          	addi	s8,s8,-764 # 15658 <__errno+0x5c>
   1095c:	00005b97          	auipc	s7,0x5
   10960:	d00b8b93          	addi	s7,s7,-768 # 1565c <__errno+0x60>
   10964:	00005b17          	auipc	s6,0x5
   10968:	cfcb0b13          	addi	s6,s6,-772 # 15660 <__errno+0x64>
   1096c:	00005a97          	auipc	s5,0x5
   10970:	cf8a8a93          	addi	s5,s5,-776 # 15664 <__errno+0x68>
   10974:	00005a17          	auipc	s4,0x5
   10978:	cf4a0a13          	addi	s4,s4,-780 # 15668 <__errno+0x6c>
   1097c:	00048593          	mv	a1,s1
   10980:	00040513          	mv	a0,s0
   10984:	0e1020ef          	jal	ra,13264 <_Z10pf_readdirP3DIRP7FILINFO>
   10988:	02050c63          	beqz	a0,109c0 <_Z7ListDirv+0xcc>
   1098c:	05c12083          	lw	ra,92(sp)
   10990:	05812403          	lw	s0,88(sp)
   10994:	05412483          	lw	s1,84(sp)
   10998:	05012903          	lw	s2,80(sp)
   1099c:	04c12983          	lw	s3,76(sp)
   109a0:	04812a03          	lw	s4,72(sp)
   109a4:	04412a83          	lw	s5,68(sp)
   109a8:	04012b03          	lw	s6,64(sp)
   109ac:	03c12b83          	lw	s7,60(sp)
   109b0:	03812c03          	lw	s8,56(sp)
   109b4:	03412c83          	lw	s9,52(sp)
   109b8:	06010113          	addi	sp,sp,96
   109bc:	00008067          	ret
   109c0:	01412783          	lw	a5,20(sp)
   109c4:	fc0784e3          	beqz	a5,1098c <_Z7ListDirv+0x98>
   109c8:	00098513          	mv	a0,s3
   109cc:	6c9020ef          	jal	ra,13894 <_Z11EchoConsolePKc>
   109d0:	00090513          	mv	a0,s2
   109d4:	6c1020ef          	jal	ra,13894 <_Z11EchoConsolePKc>
   109d8:	01812503          	lw	a0,24(sp)
   109dc:	7b5020ef          	jal	ra,13990 <_Z11EchoConsolel>
   109e0:	00090513          	mv	a0,s2
   109e4:	6b1020ef          	jal	ra,13894 <_Z11EchoConsolePKc>
   109e8:	02014783          	lbu	a5,32(sp)
   109ec:	0017f713          	andi	a4,a5,1
   109f0:	04071663          	bnez	a4,10a3c <_Z7ListDirv+0x148>
   109f4:	0027f713          	andi	a4,a5,2
   109f8:	04071c63          	bnez	a4,10a50 <_Z7ListDirv+0x15c>
   109fc:	0047f713          	andi	a4,a5,4
   10a00:	06071263          	bnez	a4,10a64 <_Z7ListDirv+0x170>
   10a04:	0087f713          	andi	a4,a5,8
   10a08:	06071863          	bnez	a4,10a78 <_Z7ListDirv+0x184>
   10a0c:	00f7f713          	andi	a4,a5,15
   10a10:	06071e63          	bnez	a4,10a8c <_Z7ListDirv+0x198>
   10a14:	0107f713          	andi	a4,a5,16
   10a18:	08071463          	bnez	a4,10aa0 <_Z7ListDirv+0x1ac>
   10a1c:	0207f793          	andi	a5,a5,32
   10a20:	08079a63          	bnez	a5,10ab4 <_Z7ListDirv+0x1c0>
   10a24:	00007517          	auipc	a0,0x7
   10a28:	a1850513          	addi	a0,a0,-1512 # 1743c <_ZL4font+0x1844>
   10a2c:	669020ef          	jal	ra,13894 <_Z11EchoConsolePKc>
   10a30:	01412783          	lw	a5,20(sp)
   10a34:	f40794e3          	bnez	a5,1097c <_Z7ListDirv+0x88>
   10a38:	f55ff06f          	j	1098c <_Z7ListDirv+0x98>
   10a3c:	000c8513          	mv	a0,s9
   10a40:	655020ef          	jal	ra,13894 <_Z11EchoConsolePKc>
   10a44:	02014783          	lbu	a5,32(sp)
   10a48:	0027f713          	andi	a4,a5,2
   10a4c:	fa0708e3          	beqz	a4,109fc <_Z7ListDirv+0x108>
   10a50:	000c0513          	mv	a0,s8
   10a54:	641020ef          	jal	ra,13894 <_Z11EchoConsolePKc>
   10a58:	02014783          	lbu	a5,32(sp)
   10a5c:	0047f713          	andi	a4,a5,4
   10a60:	fa0702e3          	beqz	a4,10a04 <_Z7ListDirv+0x110>
   10a64:	000b8513          	mv	a0,s7
   10a68:	62d020ef          	jal	ra,13894 <_Z11EchoConsolePKc>
   10a6c:	02014783          	lbu	a5,32(sp)
   10a70:	0087f713          	andi	a4,a5,8
   10a74:	f8070ce3          	beqz	a4,10a0c <_Z7ListDirv+0x118>
   10a78:	000b0513          	mv	a0,s6
   10a7c:	619020ef          	jal	ra,13894 <_Z11EchoConsolePKc>
   10a80:	02014783          	lbu	a5,32(sp)
   10a84:	00f7f713          	andi	a4,a5,15
   10a88:	f80706e3          	beqz	a4,10a14 <_Z7ListDirv+0x120>
   10a8c:	000a8513          	mv	a0,s5
   10a90:	605020ef          	jal	ra,13894 <_Z11EchoConsolePKc>
   10a94:	02014783          	lbu	a5,32(sp)
   10a98:	0107f713          	andi	a4,a5,16
   10a9c:	f80700e3          	beqz	a4,10a1c <_Z7ListDirv+0x128>
   10aa0:	000a0513          	mv	a0,s4
   10aa4:	5f1020ef          	jal	ra,13894 <_Z11EchoConsolePKc>
   10aa8:	02014783          	lbu	a5,32(sp)
   10aac:	0207f793          	andi	a5,a5,32
   10ab0:	f6078ae3          	beqz	a5,10a24 <_Z7ListDirv+0x130>
   10ab4:	00005517          	auipc	a0,0x5
   10ab8:	bb850513          	addi	a0,a0,-1096 # 1566c <__errno+0x70>
   10abc:	5d9020ef          	jal	ra,13894 <_Z11EchoConsolePKc>
   10ac0:	00007517          	auipc	a0,0x7
   10ac4:	97c50513          	addi	a0,a0,-1668 # 1743c <_ZL4font+0x1844>
   10ac8:	5cd020ef          	jal	ra,13894 <_Z11EchoConsolePKc>
   10acc:	01412783          	lw	a5,20(sp)
   10ad0:	ea0796e3          	bnez	a5,1097c <_Z7ListDirv+0x88>
   10ad4:	eb9ff06f          	j	1098c <_Z7ListDirv+0x98>
   10ad8:	00009797          	auipc	a5,0x9
   10adc:	f247a783          	lw	a5,-220(a5) # 199fc <_GLOBAL_OFFSET_TABLE_+0x5c>
   10ae0:	00251513          	slli	a0,a0,0x2
   10ae4:	00a78533          	add	a0,a5,a0
   10ae8:	00052503          	lw	a0,0(a0)
   10aec:	210010ef          	jal	ra,11cfc <_Z8EchoUARTPKc>
   10af0:	e9dff06f          	j	1098c <_Z7ListDirv+0x98>

00010af4 <_Z21ProcessUARTInputAsyncv>:
   10af4:	f8010113          	addi	sp,sp,-128
   10af8:	07312623          	sw	s3,108(sp)
   10afc:	07412423          	sw	s4,104(sp)
   10b00:	07512223          	sw	s5,100(sp)
   10b04:	05b12623          	sw	s11,76(sp)
   10b08:	06112e23          	sw	ra,124(sp)
   10b0c:	06812c23          	sw	s0,120(sp)
   10b10:	06912a23          	sw	s1,116(sp)
   10b14:	07212823          	sw	s2,112(sp)
   10b18:	07612023          	sw	s6,96(sp)
   10b1c:	05712e23          	sw	s7,92(sp)
   10b20:	05812c23          	sw	s8,88(sp)
   10b24:	05912a23          	sw	s9,84(sp)
   10b28:	05a12823          	sw	s10,80(sp)
   10b2c:	00009d97          	auipc	s11,0x9
   10b30:	eb8dad83          	lw	s11,-328(s11) # 199e4 <_GLOBAL_OFFSET_TABLE_+0x44>
   10b34:	01810993          	addi	s3,sp,24
   10b38:	01410a93          	addi	s5,sp,20
   10b3c:	01c10a13          	addi	s4,sp,28
   10b40:	000da783          	lw	a5,0(s11)
   10b44:	0007a783          	lw	a5,0(a5)
   10b48:	0c078463          	beqz	a5,10c10 <_Z21ProcessUARTInputAsyncv+0x11c>
   10b4c:	00009c97          	auipc	s9,0x9
   10b50:	e5ccac83          	lw	s9,-420(s9) # 199a8 <_GLOBAL_OFFSET_TABLE_+0x8>
   10b54:	00009497          	auipc	s1,0x9
   10b58:	e784a483          	lw	s1,-392(s1) # 199cc <_GLOBAL_OFFSET_TABLE_+0x2c>
   10b5c:	00009d17          	auipc	s10,0x9
   10b60:	e84d2d03          	lw	s10,-380(s10) # 199e0 <_GLOBAL_OFFSET_TABLE_+0x40>
   10b64:	00800913          	li	s2,8
   10b68:	02110c13          	addi	s8,sp,33
   10b6c:	00009b17          	auipc	s6,0x9
   10b70:	e80b2b03          	lw	s6,-384(s6) # 199ec <_GLOBAL_OFFSET_TABLE_+0x4c>
   10b74:	00005b97          	auipc	s7,0x5
   10b78:	a94b8b93          	addi	s7,s7,-1388 # 15608 <__errno+0xc>
   10b7c:	000ca783          	lw	a5,0(s9)
   10b80:	0007c403          	lbu	s0,0(a5)
   10b84:	0ff47413          	andi	s0,s0,255
   10b88:	11240463          	beq	s0,s2,10c90 <_Z21ProcessUARTInputAsyncv+0x19c>
   10b8c:	01b00793          	li	a5,27
   10b90:	0af40e63          	beq	s0,a5,10c4c <_Z21ProcessUARTInputAsyncv+0x158>
   10b94:	00d00793          	li	a5,13
   10b98:	12f40063          	beq	s0,a5,10cb8 <_Z21ProcessUARTInputAsyncv+0x1c4>
   10b9c:	0004a783          	lw	a5,0(s1)
   10ba0:	0c078063          	beqz	a5,10c60 <_Z21ProcessUARTInputAsyncv+0x16c>
   10ba4:	00178793          	addi	a5,a5,1
   10ba8:	00f4a023          	sw	a5,0(s1)
   10bac:	00400613          	li	a2,4
   10bb0:	04c79263          	bne	a5,a2,10bf4 <_Z21ProcessUARTInputAsyncv+0x100>
   10bb4:	00098593          	mv	a1,s3
   10bb8:	000a8513          	mv	a0,s5
   10bbc:	47d020ef          	jal	ra,13838 <_Z16GetConsoleCursorRiS_>
   10bc0:	04100793          	li	a5,65
   10bc4:	32f40263          	beq	s0,a5,10ee8 <_Z21ProcessUARTInputAsyncv+0x3f4>
   10bc8:	04200793          	li	a5,66
   10bcc:	30f40463          	beq	s0,a5,10ed4 <_Z21ProcessUARTInputAsyncv+0x3e0>
   10bd0:	04300793          	li	a5,67
   10bd4:	2ef40663          	beq	s0,a5,10ec0 <_Z21ProcessUARTInputAsyncv+0x3cc>
   10bd8:	04400793          	li	a5,68
   10bdc:	00f41a63          	bne	s0,a5,10bf0 <_Z21ProcessUARTInputAsyncv+0xfc>
   10be0:	01412503          	lw	a0,20(sp)
   10be4:	01812583          	lw	a1,24(sp)
   10be8:	fff50513          	addi	a0,a0,-1
   10bec:	3a1020ef          	jal	ra,1378c <_Z16SetConsoleCursorii>
   10bf0:	0004a023          	sw	zero,0(s1)
   10bf4:	000d2603          	lw	a2,0(s10)
   10bf8:	00d00793          	li	a5,13
   10bfc:	00860023          	sb	s0,0(a2)
   10c00:	08f40063          	beq	s0,a5,10c80 <_Z21ProcessUARTInputAsyncv+0x18c>
   10c04:	000da783          	lw	a5,0(s11)
   10c08:	0007a783          	lw	a5,0(a5)
   10c0c:	f60798e3          	bnez	a5,10b7c <_Z21ProcessUARTInputAsyncv+0x88>
   10c10:	07c12083          	lw	ra,124(sp)
   10c14:	07812403          	lw	s0,120(sp)
   10c18:	07412483          	lw	s1,116(sp)
   10c1c:	07012903          	lw	s2,112(sp)
   10c20:	06c12983          	lw	s3,108(sp)
   10c24:	06812a03          	lw	s4,104(sp)
   10c28:	06412a83          	lw	s5,100(sp)
   10c2c:	06012b03          	lw	s6,96(sp)
   10c30:	05c12b83          	lw	s7,92(sp)
   10c34:	05812c03          	lw	s8,88(sp)
   10c38:	05412c83          	lw	s9,84(sp)
   10c3c:	05012d03          	lw	s10,80(sp)
   10c40:	04c12d83          	lw	s11,76(sp)
   10c44:	08010113          	addi	sp,sp,128
   10c48:	00008067          	ret
   10c4c:	00200793          	li	a5,2
   10c50:	00f4a023          	sw	a5,0(s1)
   10c54:	000d2783          	lw	a5,0(s10)
   10c58:	00878023          	sb	s0,0(a5)
   10c5c:	fa9ff06f          	j	10c04 <_Z21ProcessUARTInputAsyncv+0x110>
   10c60:	00098513          	mv	a0,s3
   10c64:	00810c23          	sb	s0,24(sp)
   10c68:	00010ca3          	sb	zero,25(sp)
   10c6c:	429020ef          	jal	ra,13894 <_Z11EchoConsolePKc>
   10c70:	000d2603          	lw	a2,0(s10)
   10c74:	00d00793          	li	a5,13
   10c78:	00860023          	sb	s0,0(a2)
   10c7c:	f8f414e3          	bne	s0,a5,10c04 <_Z21ProcessUARTInputAsyncv+0x110>
   10c80:	000d2783          	lw	a5,0(s10)
   10c84:	00a00693          	li	a3,10
   10c88:	00d78023          	sb	a3,0(a5)
   10c8c:	eb5ff06f          	j	10b40 <_Z21ProcessUARTInputAsyncv+0x4c>
   10c90:	3bd020ef          	jal	ra,1384c <_Z21ConsoleCursorStepBackv>
   10c94:	00005517          	auipc	a0,0x5
   10c98:	9ac50513          	addi	a0,a0,-1620 # 15640 <__errno+0x44>
   10c9c:	3f9020ef          	jal	ra,13894 <_Z11EchoConsolePKc>
   10ca0:	3ad020ef          	jal	ra,1384c <_Z21ConsoleCursorStepBackv>
   10ca4:	0004a783          	lw	a5,0(s1)
   10ca8:	24079a63          	bnez	a5,10efc <_Z21ProcessUARTInputAsyncv+0x408>
   10cac:	000d2783          	lw	a5,0(s10)
   10cb0:	01278023          	sb	s2,0(a5)
   10cb4:	f51ff06f          	j	10c04 <_Z21ProcessUARTInputAsyncv+0x110>
   10cb8:	000a0513          	mv	a0,s4
   10cbc:	274030ef          	jal	ra,13f30 <_Z18ConsoleStringAtRowPc>
   10cc0:	00006517          	auipc	a0,0x6
   10cc4:	77c50513          	addi	a0,a0,1916 # 1743c <_ZL4font+0x1844>
   10cc8:	3cd020ef          	jal	ra,13894 <_Z11EchoConsolePKc>
   10ccc:	01c14783          	lbu	a5,28(sp)
   10cd0:	06300613          	li	a2,99
   10cd4:	10c78a63          	beq	a5,a2,10de8 <_Z21ProcessUARTInputAsyncv+0x2f4>
   10cd8:	06800613          	li	a2,104
   10cdc:	08c79063          	bne	a5,a2,10d5c <_Z21ProcessUARTInputAsyncv+0x268>
   10ce0:	01d14603          	lbu	a2,29(sp)
   10ce4:	06500793          	li	a5,101
   10ce8:	eaf61ae3          	bne	a2,a5,10b9c <_Z21ProcessUARTInputAsyncv+0xa8>
   10cec:	01e14603          	lbu	a2,30(sp)
   10cf0:	06c00793          	li	a5,108
   10cf4:	eaf614e3          	bne	a2,a5,10b9c <_Z21ProcessUARTInputAsyncv+0xa8>
   10cf8:	01f14603          	lbu	a2,31(sp)
   10cfc:	07000793          	li	a5,112
   10d00:	e8f61ee3          	bne	a2,a5,10b9c <_Z21ProcessUARTInputAsyncv+0xa8>
   10d04:	00005517          	auipc	a0,0x5
   10d08:	96c50513          	addi	a0,a0,-1684 # 15670 <__errno+0x74>
   10d0c:	389020ef          	jal	ra,13894 <_Z11EchoConsolePKc>
   10d10:	00005517          	auipc	a0,0x5
   10d14:	97450513          	addi	a0,a0,-1676 # 15684 <__errno+0x88>
   10d18:	37d020ef          	jal	ra,13894 <_Z11EchoConsolePKc>
   10d1c:	00005517          	auipc	a0,0x5
   10d20:	98c50513          	addi	a0,a0,-1652 # 156a8 <__errno+0xac>
   10d24:	371020ef          	jal	ra,13894 <_Z11EchoConsolePKc>
   10d28:	00005517          	auipc	a0,0x5
   10d2c:	99450513          	addi	a0,a0,-1644 # 156bc <__errno+0xc0>
   10d30:	365020ef          	jal	ra,13894 <_Z11EchoConsolePKc>
   10d34:	00005517          	auipc	a0,0x5
   10d38:	99c50513          	addi	a0,a0,-1636 # 156d0 <__errno+0xd4>
   10d3c:	359020ef          	jal	ra,13894 <_Z11EchoConsolePKc>
   10d40:	00005517          	auipc	a0,0x5
   10d44:	9a850513          	addi	a0,a0,-1624 # 156e8 <__errno+0xec>
   10d48:	34d020ef          	jal	ra,13894 <_Z11EchoConsolePKc>
   10d4c:	00005517          	auipc	a0,0x5
   10d50:	9b850513          	addi	a0,a0,-1608 # 15704 <__errno+0x108>
   10d54:	341020ef          	jal	ra,13894 <_Z11EchoConsolePKc>
   10d58:	e45ff06f          	j	10b9c <_Z21ProcessUARTInputAsyncv+0xa8>
   10d5c:	06400613          	li	a2,100
   10d60:	0ac79463          	bne	a5,a2,10e08 <_Z21ProcessUARTInputAsyncv+0x314>
   10d64:	01d14783          	lbu	a5,29(sp)
   10d68:	06900613          	li	a2,105
   10d6c:	14c78063          	beq	a5,a2,10eac <_Z21ProcessUARTInputAsyncv+0x3b8>
   10d70:	07500613          	li	a2,117
   10d74:	e2c794e3          	bne	a5,a2,10b9c <_Z21ProcessUARTInputAsyncv+0xa8>
   10d78:	01e14603          	lbu	a2,30(sp)
   10d7c:	06d00793          	li	a5,109
   10d80:	e0f61ee3          	bne	a2,a5,10b9c <_Z21ProcessUARTInputAsyncv+0xa8>
   10d84:	01f14603          	lbu	a2,31(sp)
   10d88:	07000793          	li	a5,112
   10d8c:	e0f618e3          	bne	a2,a5,10b9c <_Z21ProcessUARTInputAsyncv+0xa8>
   10d90:	000b2783          	lw	a5,0(s6)
   10d94:	000b2603          	lw	a2,0(s6)
   10d98:	10060613          	addi	a2,a2,256
   10d9c:	e0c7f0e3          	bgeu	a5,a2,10b9c <_Z21ProcessUARTInputAsyncv+0xa8>
   10da0:	00078513          	mv	a0,a5
   10da4:	00f12623          	sw	a5,12(sp)
   10da8:	781000ef          	jal	ra,11d28 <_Z7EchoIntm>
   10dac:	000b8513          	mv	a0,s7
   10db0:	74d000ef          	jal	ra,11cfc <_Z8EchoUARTPKc>
   10db4:	00c12783          	lw	a5,12(sp)
   10db8:	0007a503          	lw	a0,0(a5)
   10dbc:	00478793          	addi	a5,a5,4
   10dc0:	00f12623          	sw	a5,12(sp)
   10dc4:	765000ef          	jal	ra,11d28 <_Z7EchoIntm>
   10dc8:	00006517          	auipc	a0,0x6
   10dcc:	67450513          	addi	a0,a0,1652 # 1743c <_ZL4font+0x1844>
   10dd0:	72d000ef          	jal	ra,11cfc <_Z8EchoUARTPKc>
   10dd4:	000b2603          	lw	a2,0(s6)
   10dd8:	00c12783          	lw	a5,12(sp)
   10ddc:	10060613          	addi	a2,a2,256
   10de0:	fcc7e0e3          	bltu	a5,a2,10da0 <_Z21ProcessUARTInputAsyncv+0x2ac>
   10de4:	db9ff06f          	j	10b9c <_Z21ProcessUARTInputAsyncv+0xa8>
   10de8:	01d14603          	lbu	a2,29(sp)
   10dec:	06c00793          	li	a5,108
   10df0:	daf616e3          	bne	a2,a5,10b9c <_Z21ProcessUARTInputAsyncv+0xa8>
   10df4:	01e14603          	lbu	a2,30(sp)
   10df8:	07300793          	li	a5,115
   10dfc:	daf610e3          	bne	a2,a5,10b9c <_Z21ProcessUARTInputAsyncv+0xa8>
   10e00:	10d020ef          	jal	ra,1370c <_Z12ClearConsolev>
   10e04:	d99ff06f          	j	10b9c <_Z21ProcessUARTInputAsyncv+0xa8>
   10e08:	06c00593          	li	a1,108
   10e0c:	02b79863          	bne	a5,a1,10e3c <_Z21ProcessUARTInputAsyncv+0x348>
   10e10:	01d14583          	lbu	a1,29(sp)
   10e14:	06f00793          	li	a5,111
   10e18:	d8f592e3          	bne	a1,a5,10b9c <_Z21ProcessUARTInputAsyncv+0xa8>
   10e1c:	01e14583          	lbu	a1,30(sp)
   10e20:	06100793          	li	a5,97
   10e24:	d6f59ce3          	bne	a1,a5,10b9c <_Z21ProcessUARTInputAsyncv+0xa8>
   10e28:	01f14783          	lbu	a5,31(sp)
   10e2c:	d6c798e3          	bne	a5,a2,10b9c <_Z21ProcessUARTInputAsyncv+0xa8>
   10e30:	000c0513          	mv	a0,s8
   10e34:	a5dff0ef          	jal	ra,10890 <_Z7LoadELFPKc>
   10e38:	d65ff06f          	j	10b9c <_Z21ProcessUARTInputAsyncv+0xa8>
   10e3c:	07400613          	li	a2,116
   10e40:	04c79263          	bne	a5,a2,10e84 <_Z21ProcessUARTInputAsyncv+0x390>
   10e44:	01d14603          	lbu	a2,29(sp)
   10e48:	06900793          	li	a5,105
   10e4c:	d4f618e3          	bne	a2,a5,10b9c <_Z21ProcessUARTInputAsyncv+0xa8>
   10e50:	01e14603          	lbu	a2,30(sp)
   10e54:	06d00793          	li	a5,109
   10e58:	d4f612e3          	bne	a2,a5,10b9c <_Z21ProcessUARTInputAsyncv+0xa8>
   10e5c:	01f14603          	lbu	a2,31(sp)
   10e60:	06500793          	li	a5,101
   10e64:	d2f61ce3          	bne	a2,a5,10b9c <_Z21ProcessUARTInputAsyncv+0xa8>
   10e68:	00009717          	auipc	a4,0x9
   10e6c:	b5872703          	lw	a4,-1192(a4) # 199c0 <_GLOBAL_OFFSET_TABLE_+0x20>
   10e70:	00072783          	lw	a5,0(a4)
   10e74:	00178793          	addi	a5,a5,1
   10e78:	0017f793          	andi	a5,a5,1
   10e7c:	00f72023          	sw	a5,0(a4)
   10e80:	d1dff06f          	j	10b9c <_Z21ProcessUARTInputAsyncv+0xa8>
   10e84:	07200613          	li	a2,114
   10e88:	d0c79ae3          	bne	a5,a2,10b9c <_Z21ProcessUARTInputAsyncv+0xa8>
   10e8c:	01d14603          	lbu	a2,29(sp)
   10e90:	07500793          	li	a5,117
   10e94:	d0f614e3          	bne	a2,a5,10b9c <_Z21ProcessUARTInputAsyncv+0xa8>
   10e98:	01e14603          	lbu	a2,30(sp)
   10e9c:	06e00793          	li	a5,110
   10ea0:	cef61ee3          	bne	a2,a5,10b9c <_Z21ProcessUARTInputAsyncv+0xa8>
   10ea4:	ec8ff0ef          	jal	ra,1056c <_Z6RunELFv>
   10ea8:	cf5ff06f          	j	10b9c <_Z21ProcessUARTInputAsyncv+0xa8>
   10eac:	01e14603          	lbu	a2,30(sp)
   10eb0:	07200793          	li	a5,114
   10eb4:	cef614e3          	bne	a2,a5,10b9c <_Z21ProcessUARTInputAsyncv+0xa8>
   10eb8:	a3dff0ef          	jal	ra,108f4 <_Z7ListDirv>
   10ebc:	ce1ff06f          	j	10b9c <_Z21ProcessUARTInputAsyncv+0xa8>
   10ec0:	01412503          	lw	a0,20(sp)
   10ec4:	01812583          	lw	a1,24(sp)
   10ec8:	00150513          	addi	a0,a0,1
   10ecc:	0c1020ef          	jal	ra,1378c <_Z16SetConsoleCursorii>
   10ed0:	d21ff06f          	j	10bf0 <_Z21ProcessUARTInputAsyncv+0xfc>
   10ed4:	01812583          	lw	a1,24(sp)
   10ed8:	01412503          	lw	a0,20(sp)
   10edc:	00158593          	addi	a1,a1,1
   10ee0:	0ad020ef          	jal	ra,1378c <_Z16SetConsoleCursorii>
   10ee4:	d0dff06f          	j	10bf0 <_Z21ProcessUARTInputAsyncv+0xfc>
   10ee8:	01812583          	lw	a1,24(sp)
   10eec:	01412503          	lw	a0,20(sp)
   10ef0:	fff58593          	addi	a1,a1,-1
   10ef4:	099020ef          	jal	ra,1378c <_Z16SetConsoleCursorii>
   10ef8:	cf9ff06f          	j	10bf0 <_Z21ProcessUARTInputAsyncv+0xfc>
   10efc:	00178793          	addi	a5,a5,1
   10f00:	00f4a023          	sw	a5,0(s1)
   10f04:	00400613          	li	a2,4
   10f08:	d4c796e3          	bne	a5,a2,10c54 <_Z21ProcessUARTInputAsyncv+0x160>
   10f0c:	00098593          	mv	a1,s3
   10f10:	000a8513          	mv	a0,s5
   10f14:	125020ef          	jal	ra,13838 <_Z16GetConsoleCursorRiS_>
   10f18:	cd9ff06f          	j	10bf0 <_Z21ProcessUARTInputAsyncv+0xfc>

00010f1c <_Z10SetupTasksv>:
   10f1c:	00009797          	auipc	a5,0x9
   10f20:	aac7a783          	lw	a5,-1364(a5) # 199c8 <_GLOBAL_OFFSET_TABLE_+0x28>
   10f24:	00009717          	auipc	a4,0x9
   10f28:	ac472703          	lw	a4,-1340(a4) # 199e8 <_GLOBAL_OFFSET_TABLE_+0x48>
   10f2c:	08e7a423          	sw	a4,136(a5)
   10f30:	0827a223          	sw	sp,132(a5)
   10f34:	1f400713          	li	a4,500
   10f38:	08e7a623          	sw	a4,140(a5)
   10f3c:	00009717          	auipc	a4,0x9
   10f40:	a6872703          	lw	a4,-1432(a4) # 199a4 <_GLOBAL_OFFSET_TABLE_+0x4>
   10f44:	10e7ac23          	sw	a4,280(a5)
   10f48:	0003e737          	lui	a4,0x3e
   10f4c:	10e7aa23          	sw	a4,276(a5)
   10f50:	00002737          	lui	a4,0x2
   10f54:	71070713          	addi	a4,a4,1808 # 2710 <main-0xd964>
   10f58:	10e7ae23          	sw	a4,284(a5)
   10f5c:	00009717          	auipc	a4,0x9
   10f60:	a6872703          	lw	a4,-1432(a4) # 199c4 <_GLOBAL_OFFSET_TABLE_+0x24>
   10f64:	1ae7a423          	sw	a4,424(a5)
   10f68:	0003f737          	lui	a4,0x3f
   10f6c:	1ae7a223          	sw	a4,420(a5)
   10f70:	00001737          	lui	a4,0x1
   10f74:	9c470713          	addi	a4,a4,-1596 # 9c4 <main-0xf6b0>
   10f78:	1ae7a623          	sw	a4,428(a5)
   10f7c:	00009797          	auipc	a5,0x9
   10f80:	a387a783          	lw	a5,-1480(a5) # 199b4 <_GLOBAL_OFFSET_TABLE_+0x14>
   10f84:	00300713          	li	a4,3
   10f88:	00e7a023          	sw	a4,0(a5)
   10f8c:	00008067          	ret

00010f90 <_Z15timer_interruptv>:
   10f90:	00009617          	auipc	a2,0x9
   10f94:	a4462603          	lw	a2,-1468(a2) # 199d4 <_GLOBAL_OFFSET_TABLE_+0x34>
   10f98:	00062683          	lw	a3,0(a2)
   10f9c:	00009717          	auipc	a4,0x9
   10fa0:	a2c72703          	lw	a4,-1492(a4) # 199c8 <_GLOBAL_OFFSET_TABLE_+0x28>
   10fa4:	00369793          	slli	a5,a3,0x3
   10fa8:	00d787b3          	add	a5,a5,a3
   10fac:	00479793          	slli	a5,a5,0x4
   10fb0:	00f707b3          	add	a5,a4,a5
   10fb4:	09012203          	lw	tp,144(sp)
   10fb8:	0847a223          	sw	tp,132(a5)
   10fbc:	08c12203          	lw	tp,140(sp)
   10fc0:	0047a023          	sw	tp,0(a5)
   10fc4:	08812203          	lw	tp,136(sp)
   10fc8:	0047a223          	sw	tp,4(a5)
   10fcc:	08412203          	lw	tp,132(sp)
   10fd0:	0047a423          	sw	tp,8(a5)
   10fd4:	08012203          	lw	tp,128(sp)
   10fd8:	0047a623          	sw	tp,12(a5)
   10fdc:	07c12203          	lw	tp,124(sp)
   10fe0:	0047a823          	sw	tp,16(a5)
   10fe4:	07812203          	lw	tp,120(sp)
   10fe8:	0047aa23          	sw	tp,20(a5)
   10fec:	07412203          	lw	tp,116(sp)
   10ff0:	0047ac23          	sw	tp,24(a5)
   10ff4:	07012203          	lw	tp,112(sp)
   10ff8:	0047ae23          	sw	tp,28(a5)
   10ffc:	06c12203          	lw	tp,108(sp)
   11000:	0247a023          	sw	tp,32(a5)
   11004:	06812203          	lw	tp,104(sp)
   11008:	0247a223          	sw	tp,36(a5)
   1100c:	06412203          	lw	tp,100(sp)
   11010:	0247a423          	sw	tp,40(a5)
   11014:	06012203          	lw	tp,96(sp)
   11018:	0247a623          	sw	tp,44(a5)
   1101c:	05c12203          	lw	tp,92(sp)
   11020:	0247a823          	sw	tp,48(a5)
   11024:	05812203          	lw	tp,88(sp)
   11028:	0247aa23          	sw	tp,52(a5)
   1102c:	05412203          	lw	tp,84(sp)
   11030:	0247ac23          	sw	tp,56(a5)
   11034:	05012203          	lw	tp,80(sp)
   11038:	0247ae23          	sw	tp,60(a5)
   1103c:	04c12203          	lw	tp,76(sp)
   11040:	0447a023          	sw	tp,64(a5)
   11044:	04812203          	lw	tp,72(sp)
   11048:	0447a223          	sw	tp,68(a5)
   1104c:	04412203          	lw	tp,68(sp)
   11050:	0447a423          	sw	tp,72(a5)
   11054:	04012203          	lw	tp,64(sp)
   11058:	0447a623          	sw	tp,76(a5)
   1105c:	03c12203          	lw	tp,60(sp)
   11060:	0447a823          	sw	tp,80(a5)
   11064:	03812203          	lw	tp,56(sp)
   11068:	0447aa23          	sw	tp,84(a5)
   1106c:	03412203          	lw	tp,52(sp)
   11070:	0447ac23          	sw	tp,88(a5)
   11074:	03012203          	lw	tp,48(sp)
   11078:	0447ae23          	sw	tp,92(a5)
   1107c:	02c12203          	lw	tp,44(sp)
   11080:	0647a023          	sw	tp,96(a5)
   11084:	02812203          	lw	tp,40(sp)
   11088:	0647a223          	sw	tp,100(a5)
   1108c:	02412203          	lw	tp,36(sp)
   11090:	0647a423          	sw	tp,104(a5)
   11094:	02012203          	lw	tp,32(sp)
   11098:	0647a623          	sw	tp,108(a5)
   1109c:	01c12203          	lw	tp,28(sp)
   110a0:	0647a823          	sw	tp,112(a5)
   110a4:	34102273          	csrr	tp,mepc
   110a8:	0847a423          	sw	tp,136(a5)
   110ac:	00009797          	auipc	a5,0x9
   110b0:	9087a783          	lw	a5,-1784(a5) # 199b4 <_GLOBAL_OFFSET_TABLE_+0x14>
   110b4:	0007a783          	lw	a5,0(a5)
   110b8:	00168693          	addi	a3,a3,1
   110bc:	02f6f6b3          	remu	a3,a3,a5
   110c0:	00369793          	slli	a5,a3,0x3
   110c4:	00d787b3          	add	a5,a5,a3
   110c8:	00479793          	slli	a5,a5,0x4
   110cc:	00d62023          	sw	a3,0(a2)
   110d0:	00f707b3          	add	a5,a4,a5
   110d4:	0847a203          	lw	tp,132(a5)
   110d8:	08412823          	sw	tp,144(sp)
   110dc:	0007a203          	lw	tp,0(a5)
   110e0:	08412623          	sw	tp,140(sp)
   110e4:	0047a203          	lw	tp,4(a5)
   110e8:	08412423          	sw	tp,136(sp)
   110ec:	0087a203          	lw	tp,8(a5)
   110f0:	08412223          	sw	tp,132(sp)
   110f4:	00c7a203          	lw	tp,12(a5)
   110f8:	08412023          	sw	tp,128(sp)
   110fc:	0107a203          	lw	tp,16(a5)
   11100:	06412e23          	sw	tp,124(sp)
   11104:	0147a203          	lw	tp,20(a5)
   11108:	06412c23          	sw	tp,120(sp)
   1110c:	0187a203          	lw	tp,24(a5)
   11110:	06412a23          	sw	tp,116(sp)
   11114:	01c7a203          	lw	tp,28(a5)
   11118:	06412823          	sw	tp,112(sp)
   1111c:	0207a203          	lw	tp,32(a5)
   11120:	06412623          	sw	tp,108(sp)
   11124:	0247a203          	lw	tp,36(a5)
   11128:	06412423          	sw	tp,104(sp)
   1112c:	0287a203          	lw	tp,40(a5)
   11130:	06412223          	sw	tp,100(sp)
   11134:	02c7a203          	lw	tp,44(a5)
   11138:	06412023          	sw	tp,96(sp)
   1113c:	0307a203          	lw	tp,48(a5)
   11140:	04412e23          	sw	tp,92(sp)
   11144:	0347a203          	lw	tp,52(a5)
   11148:	04412c23          	sw	tp,88(sp)
   1114c:	0387a203          	lw	tp,56(a5)
   11150:	04412a23          	sw	tp,84(sp)
   11154:	03c7a203          	lw	tp,60(a5)
   11158:	04412823          	sw	tp,80(sp)
   1115c:	0407a203          	lw	tp,64(a5)
   11160:	04412623          	sw	tp,76(sp)
   11164:	0447a203          	lw	tp,68(a5)
   11168:	04412423          	sw	tp,72(sp)
   1116c:	0487a203          	lw	tp,72(a5)
   11170:	04412223          	sw	tp,68(sp)
   11174:	04c7a203          	lw	tp,76(a5)
   11178:	04412023          	sw	tp,64(sp)
   1117c:	0507a203          	lw	tp,80(a5)
   11180:	02412e23          	sw	tp,60(sp)
   11184:	0547a203          	lw	tp,84(a5)
   11188:	02412c23          	sw	tp,56(sp)
   1118c:	0587a203          	lw	tp,88(a5)
   11190:	02412a23          	sw	tp,52(sp)
   11194:	05c7a203          	lw	tp,92(a5)
   11198:	02412823          	sw	tp,48(sp)
   1119c:	0607a203          	lw	tp,96(a5)
   111a0:	02412623          	sw	tp,44(sp)
   111a4:	0647a203          	lw	tp,100(a5)
   111a8:	02412423          	sw	tp,40(sp)
   111ac:	0687a203          	lw	tp,104(a5)
   111b0:	02412223          	sw	tp,36(sp)
   111b4:	06c7a203          	lw	tp,108(a5)
   111b8:	02412023          	sw	tp,32(sp)
   111bc:	0707a203          	lw	tp,112(a5)
   111c0:	00412e23          	sw	tp,28(sp)
   111c4:	0887a203          	lw	tp,136(a5)
   111c8:	34121073          	csrw	mepc,tp
   111cc:	c81025f3          	rdtimeh	a1
   111d0:	c0102773          	rdtime	a4
   111d4:	c81026f3          	rdtimeh	a3
   111d8:	fed59ae3          	bne	a1,a3,111cc <_Z15timer_interruptv+0x23c>
   111dc:	08c7a783          	lw	a5,140(a5)
   111e0:	00000693          	li	a3,0
   111e4:	00f707b3          	add	a5,a4,a5
   111e8:	00e7b733          	sltu	a4,a5,a4
   111ec:	00b70633          	add	a2,a4,a1
   111f0:	80161073          	csrw	0x801,a2
   111f4:	80079073          	csrw	0x800,a5
   111f8:	00008067          	ret

000111fc <_Z20breakpoint_interruptv>:
   111fc:	00008067          	ret

00011200 <_Z18external_interruptv>:
   11200:	8f5ff06f          	j	10af4 <_Z21ProcessUARTInputAsyncv>

00011204 <_Z17interrupt_handlerv>:
   11204:	00010213          	mv	tp,sp
   11208:	f6c10113          	addi	sp,sp,-148
   1120c:	08412823          	sw	tp,144(sp)
   11210:	08112623          	sw	ra,140(sp)
   11214:	08512423          	sw	t0,136(sp)
   11218:	08612223          	sw	t1,132(sp)
   1121c:	08712023          	sw	t2,128(sp)
   11220:	06a12e23          	sw	a0,124(sp)
   11224:	06b12c23          	sw	a1,120(sp)
   11228:	06c12a23          	sw	a2,116(sp)
   1122c:	06d12823          	sw	a3,112(sp)
   11230:	06e12623          	sw	a4,108(sp)
   11234:	06f12423          	sw	a5,104(sp)
   11238:	07012223          	sw	a6,100(sp)
   1123c:	07112023          	sw	a7,96(sp)
   11240:	05c12e23          	sw	t3,92(sp)
   11244:	05d12c23          	sw	t4,88(sp)
   11248:	05e12a23          	sw	t5,84(sp)
   1124c:	05f12823          	sw	t6,80(sp)
   11250:	04812423          	sw	s0,72(sp)
   11254:	04912223          	sw	s1,68(sp)
   11258:	05212023          	sw	s2,64(sp)
   1125c:	03312e23          	sw	s3,60(sp)
   11260:	03412c23          	sw	s4,56(sp)
   11264:	03512a23          	sw	s5,52(sp)
   11268:	03612823          	sw	s6,48(sp)
   1126c:	03712623          	sw	s7,44(sp)
   11270:	03812423          	sw	s8,40(sp)
   11274:	03912223          	sw	s9,36(sp)
   11278:	03a12023          	sw	s10,32(sp)
   1127c:	01b12e23          	sw	s11,28(sp)
   11280:	342027f3          	csrr	a5,mcause
   11284:	00700713          	li	a4,7
   11288:	08e78863          	beq	a5,a4,11318 <_Z17interrupt_handlerv+0x114>
   1128c:	00300713          	li	a4,3
   11290:	08e78863          	beq	a5,a4,11320 <_Z17interrupt_handlerv+0x11c>
   11294:	00b00713          	li	a4,11
   11298:	08e78863          	beq	a5,a4,11328 <_Z17interrupt_handlerv+0x124>
   1129c:	09012203          	lw	tp,144(sp)
   112a0:	08c12083          	lw	ra,140(sp)
   112a4:	08812283          	lw	t0,136(sp)
   112a8:	08412303          	lw	t1,132(sp)
   112ac:	08012383          	lw	t2,128(sp)
   112b0:	07c12503          	lw	a0,124(sp)
   112b4:	07812583          	lw	a1,120(sp)
   112b8:	07412603          	lw	a2,116(sp)
   112bc:	07012683          	lw	a3,112(sp)
   112c0:	06c12703          	lw	a4,108(sp)
   112c4:	06812783          	lw	a5,104(sp)
   112c8:	06412803          	lw	a6,100(sp)
   112cc:	06012883          	lw	a7,96(sp)
   112d0:	05c12e03          	lw	t3,92(sp)
   112d4:	05812e83          	lw	t4,88(sp)
   112d8:	05412f03          	lw	t5,84(sp)
   112dc:	05012f83          	lw	t6,80(sp)
   112e0:	04812403          	lw	s0,72(sp)
   112e4:	04412483          	lw	s1,68(sp)
   112e8:	04012903          	lw	s2,64(sp)
   112ec:	03c12983          	lw	s3,60(sp)
   112f0:	03812a03          	lw	s4,56(sp)
   112f4:	03412a83          	lw	s5,52(sp)
   112f8:	03012b03          	lw	s6,48(sp)
   112fc:	02c12b83          	lw	s7,44(sp)
   11300:	02812c03          	lw	s8,40(sp)
   11304:	02412c83          	lw	s9,36(sp)
   11308:	02012d03          	lw	s10,32(sp)
   1130c:	01c12d83          	lw	s11,28(sp)
   11310:	00020113          	mv	sp,tp
   11314:	30200073          	mret
   11318:	c79ff0ef          	jal	ra,10f90 <_Z15timer_interruptv>
   1131c:	f81ff06f          	j	1129c <_Z17interrupt_handlerv+0x98>
   11320:	eddff0ef          	jal	ra,111fc <_Z20breakpoint_interruptv>
   11324:	f79ff06f          	j	1129c <_Z17interrupt_handlerv+0x98>
   11328:	ed9ff0ef          	jal	ra,11200 <_Z18external_interruptv>
   1132c:	f71ff06f          	j	1129c <_Z17interrupt_handlerv+0x98>

00011330 <_Z22SetupInterruptHandlersv>:
   11330:	c81025f3          	rdtimeh	a1
   11334:	c0102773          	rdtime	a4
   11338:	c81027f3          	rdtimeh	a5
   1133c:	fef59ae3          	bne	a1,a5,11330 <_Z22SetupInterruptHandlersv>
   11340:	000187b7          	lui	a5,0x18
   11344:	6a078793          	addi	a5,a5,1696 # 186a0 <__EH_FRAME_BEGIN__+0x6a0>
   11348:	00f707b3          	add	a5,a4,a5
   1134c:	00e7b733          	sltu	a4,a5,a4
   11350:	00b70633          	add	a2,a4,a1
   11354:	00000693          	li	a3,0
   11358:	80161073          	csrw	0x801,a2
   1135c:	80079073          	csrw	0x800,a5
   11360:	00008797          	auipc	a5,0x8
   11364:	67c7a783          	lw	a5,1660(a5) # 199dc <_GLOBAL_OFFSET_TABLE_+0x3c>
   11368:	30579073          	csrw	mtvec,a5
   1136c:	00800793          	li	a5,8
   11370:	30079073          	csrw	mstatus,a5
   11374:	000017b7          	lui	a5,0x1
   11378:	88078793          	addi	a5,a5,-1920 # 880 <main-0xf7f4>
   1137c:	30479073          	csrw	mie,a5
   11380:	00008067          	ret

00011384 <_Z8PrintDMAiiPKcb>:
   11384:	00064703          	lbu	a4,0(a2)
   11388:	38070063          	beqz	a4,11708 <_Z8PrintDMAiiPKcb+0x384>
   1138c:	ff010113          	addi	sp,sp,-16
   11390:	00008797          	auipc	a5,0x8
   11394:	6207a783          	lw	a5,1568(a5) # 199b0 <_GLOBAL_OFFSET_TABLE_+0x10>
   11398:	00258393          	addi	t2,a1,2
   1139c:	00358293          	addi	t0,a1,3
   113a0:	00458f93          	addi	t6,a1,4
   113a4:	00558f13          	addi	t5,a1,5
   113a8:	00658e93          	addi	t4,a1,6
   113ac:	00758e13          	addi	t3,a1,7
   113b0:	00812623          	sw	s0,12(sp)
   113b4:	00d03833          	snez	a6,a3
   113b8:	00158413          	addi	s0,a1,1
   113bc:	000018b7          	lui	a7,0x1
   113c0:	0007a783          	lw	a5,0(a5)
   113c4:	00859593          	slli	a1,a1,0x8
   113c8:	ac488893          	addi	a7,a7,-1340 # ac4 <main-0xf5b0>
   113cc:	01881813          	slli	a6,a6,0x18
   113d0:	00841413          	slli	s0,s0,0x8
   113d4:	00839393          	slli	t2,t2,0x8
   113d8:	00829293          	slli	t0,t0,0x8
   113dc:	008f9f93          	slli	t6,t6,0x8
   113e0:	008f1f13          	slli	t5,t5,0x8
   113e4:	008e9e93          	slli	t4,t4,0x8
   113e8:	008e1e13          	slli	t3,t3,0x8
   113ec:	01186833          	or	a6,a6,a7
   113f0:	00912423          	sw	s1,8(sp)
   113f4:	01212223          	sw	s2,4(sp)
   113f8:	01312023          	sw	s3,0(sp)
   113fc:	00160893          	addi	a7,a2,1
   11400:	00b50533          	add	a0,a0,a1
   11404:	00004317          	auipc	t1,0x4
   11408:	7f430313          	addi	t1,t1,2036 # 15bf8 <_ZL4font>
   1140c:	40b40433          	sub	s0,s0,a1
   11410:	40b383b3          	sub	t2,t2,a1
   11414:	40b282b3          	sub	t0,t0,a1
   11418:	40bf8fb3          	sub	t6,t6,a1
   1141c:	40bf0f33          	sub	t5,t5,a1
   11420:	40be8eb3          	sub	t4,t4,a1
   11424:	40be0e33          	sub	t3,t3,a1
   11428:	fe070713          	addi	a4,a4,-32
   1142c:	00068463          	beqz	a3,11434 <_Z8PrintDMAiiPKcb+0xb0>
   11430:	2a070863          	beqz	a4,116e0 <_Z8PrintDMAiiPKcb+0x35c>
   11434:	2a074663          	bltz	a4,116e0 <_Z8PrintDMAiiPKcb+0x35c>
   11438:	40575493          	srai	s1,a4,0x5
   1143c:	01f77713          	andi	a4,a4,31
   11440:	00371613          	slli	a2,a4,0x3
   11444:	00b49593          	slli	a1,s1,0xb
   11448:	00c585b3          	add	a1,a1,a2
   1144c:	006585b3          	add	a1,a1,t1
   11450:	00349713          	slli	a4,s1,0x3
   11454:	00a59993          	slli	s3,a1,0xa
   11458:	0165d493          	srli	s1,a1,0x16
   1145c:	40255913          	srai	s2,a0,0x2
   11460:	2019e993          	ori	s3,s3,513
   11464:	00170593          	addi	a1,a4,1
   11468:	00a49493          	slli	s1,s1,0xa
   1146c:	0137a023          	sw	s3,0(a5)
   11470:	2414e493          	ori	s1,s1,577
   11474:	00a91993          	slli	s3,s2,0xa
   11478:	00859593          	slli	a1,a1,0x8
   1147c:	01695913          	srli	s2,s2,0x16
   11480:	0097a023          	sw	s1,0(a5)
   11484:	00c585b3          	add	a1,a1,a2
   11488:	2819e493          	ori	s1,s3,641
   1148c:	00a91913          	slli	s2,s2,0xa
   11490:	0097a023          	sw	s1,0(a5)
   11494:	006585b3          	add	a1,a1,t1
   11498:	2d196913          	ori	s2,s2,721
   1149c:	0127a023          	sw	s2,0(a5)
   114a0:	00a59993          	slli	s3,a1,0xa
   114a4:	0165d493          	srli	s1,a1,0x16
   114a8:	00a40933          	add	s2,s0,a0
   114ac:	0107a023          	sw	a6,0(a5)
   114b0:	40295913          	srai	s2,s2,0x2
   114b4:	2019e993          	ori	s3,s3,513
   114b8:	00270593          	addi	a1,a4,2
   114bc:	00a49493          	slli	s1,s1,0xa
   114c0:	0137a023          	sw	s3,0(a5)
   114c4:	2414e493          	ori	s1,s1,577
   114c8:	00a91993          	slli	s3,s2,0xa
   114cc:	00859593          	slli	a1,a1,0x8
   114d0:	01695913          	srli	s2,s2,0x16
   114d4:	0097a023          	sw	s1,0(a5)
   114d8:	00c585b3          	add	a1,a1,a2
   114dc:	2819e493          	ori	s1,s3,641
   114e0:	00a91913          	slli	s2,s2,0xa
   114e4:	0097a023          	sw	s1,0(a5)
   114e8:	006585b3          	add	a1,a1,t1
   114ec:	2d196913          	ori	s2,s2,721
   114f0:	0127a023          	sw	s2,0(a5)
   114f4:	00a59993          	slli	s3,a1,0xa
   114f8:	0165d493          	srli	s1,a1,0x16
   114fc:	00a38933          	add	s2,t2,a0
   11500:	0107a023          	sw	a6,0(a5)
   11504:	40295913          	srai	s2,s2,0x2
   11508:	2019e993          	ori	s3,s3,513
   1150c:	00370593          	addi	a1,a4,3
   11510:	00a49493          	slli	s1,s1,0xa
   11514:	0137a023          	sw	s3,0(a5)
   11518:	2414e493          	ori	s1,s1,577
   1151c:	00a91993          	slli	s3,s2,0xa
   11520:	00859593          	slli	a1,a1,0x8
   11524:	01695913          	srli	s2,s2,0x16
   11528:	0097a023          	sw	s1,0(a5)
   1152c:	00c585b3          	add	a1,a1,a2
   11530:	2819e493          	ori	s1,s3,641
   11534:	00a91913          	slli	s2,s2,0xa
   11538:	0097a023          	sw	s1,0(a5)
   1153c:	006585b3          	add	a1,a1,t1
   11540:	2d196913          	ori	s2,s2,721
   11544:	0127a023          	sw	s2,0(a5)
   11548:	00a59993          	slli	s3,a1,0xa
   1154c:	0165d493          	srli	s1,a1,0x16
   11550:	00a28933          	add	s2,t0,a0
   11554:	0107a023          	sw	a6,0(a5)
   11558:	40295913          	srai	s2,s2,0x2
   1155c:	2019e993          	ori	s3,s3,513
   11560:	00470593          	addi	a1,a4,4
   11564:	00a49493          	slli	s1,s1,0xa
   11568:	0137a023          	sw	s3,0(a5)
   1156c:	2414e493          	ori	s1,s1,577
   11570:	00a91993          	slli	s3,s2,0xa
   11574:	00859593          	slli	a1,a1,0x8
   11578:	01695913          	srli	s2,s2,0x16
   1157c:	0097a023          	sw	s1,0(a5)
   11580:	00c585b3          	add	a1,a1,a2
   11584:	2819e493          	ori	s1,s3,641
   11588:	00a91913          	slli	s2,s2,0xa
   1158c:	0097a023          	sw	s1,0(a5)
   11590:	006585b3          	add	a1,a1,t1
   11594:	2d196913          	ori	s2,s2,721
   11598:	0127a023          	sw	s2,0(a5)
   1159c:	00a59993          	slli	s3,a1,0xa
   115a0:	0165d493          	srli	s1,a1,0x16
   115a4:	00af8933          	add	s2,t6,a0
   115a8:	0107a023          	sw	a6,0(a5)
   115ac:	40295913          	srai	s2,s2,0x2
   115b0:	2019e993          	ori	s3,s3,513
   115b4:	00570593          	addi	a1,a4,5
   115b8:	00a49493          	slli	s1,s1,0xa
   115bc:	0137a023          	sw	s3,0(a5)
   115c0:	2414e493          	ori	s1,s1,577
   115c4:	00a91993          	slli	s3,s2,0xa
   115c8:	00859593          	slli	a1,a1,0x8
   115cc:	01695913          	srli	s2,s2,0x16
   115d0:	0097a023          	sw	s1,0(a5)
   115d4:	00c585b3          	add	a1,a1,a2
   115d8:	2819e493          	ori	s1,s3,641
   115dc:	00a91913          	slli	s2,s2,0xa
   115e0:	0097a023          	sw	s1,0(a5)
   115e4:	006585b3          	add	a1,a1,t1
   115e8:	2d196913          	ori	s2,s2,721
   115ec:	0127a023          	sw	s2,0(a5)
   115f0:	00a59993          	slli	s3,a1,0xa
   115f4:	0165d493          	srli	s1,a1,0x16
   115f8:	00af0933          	add	s2,t5,a0
   115fc:	0107a023          	sw	a6,0(a5)
   11600:	40295913          	srai	s2,s2,0x2
   11604:	2019e993          	ori	s3,s3,513
   11608:	00670593          	addi	a1,a4,6
   1160c:	00a49493          	slli	s1,s1,0xa
   11610:	0137a023          	sw	s3,0(a5)
   11614:	2414e493          	ori	s1,s1,577
   11618:	00a91993          	slli	s3,s2,0xa
   1161c:	00859593          	slli	a1,a1,0x8
   11620:	01695913          	srli	s2,s2,0x16
   11624:	0097a023          	sw	s1,0(a5)
   11628:	00c585b3          	add	a1,a1,a2
   1162c:	2819e493          	ori	s1,s3,641
   11630:	00a91913          	slli	s2,s2,0xa
   11634:	0097a023          	sw	s1,0(a5)
   11638:	006585b3          	add	a1,a1,t1
   1163c:	2d196913          	ori	s2,s2,721
   11640:	00ae84b3          	add	s1,t4,a0
   11644:	0127a023          	sw	s2,0(a5)
   11648:	4024d493          	srai	s1,s1,0x2
   1164c:	00a59993          	slli	s3,a1,0xa
   11650:	00770713          	addi	a4,a4,7
   11654:	0165d593          	srli	a1,a1,0x16
   11658:	0107a023          	sw	a6,0(a5)
   1165c:	0164d913          	srli	s2,s1,0x16
   11660:	2019e993          	ori	s3,s3,513
   11664:	00a59593          	slli	a1,a1,0xa
   11668:	00871713          	slli	a4,a4,0x8
   1166c:	0137a023          	sw	s3,0(a5)
   11670:	2415e593          	ori	a1,a1,577
   11674:	00c70733          	add	a4,a4,a2
   11678:	00a49493          	slli	s1,s1,0xa
   1167c:	00a91913          	slli	s2,s2,0xa
   11680:	00670733          	add	a4,a4,t1
   11684:	00b7a023          	sw	a1,0(a5)
   11688:	2d196613          	ori	a2,s2,721
   1168c:	2814e493          	ori	s1,s1,641
   11690:	0097a023          	sw	s1,0(a5)
   11694:	00a71593          	slli	a1,a4,0xa
   11698:	00c7a023          	sw	a2,0(a5)
   1169c:	01675713          	srli	a4,a4,0x16
   116a0:	00ae0633          	add	a2,t3,a0
   116a4:	0107a023          	sw	a6,0(a5)
   116a8:	40265613          	srai	a2,a2,0x2
   116ac:	2015e593          	ori	a1,a1,513
   116b0:	00a71713          	slli	a4,a4,0xa
   116b4:	00b7a023          	sw	a1,0(a5)
   116b8:	24176713          	ori	a4,a4,577
   116bc:	00a61593          	slli	a1,a2,0xa
   116c0:	01665613          	srli	a2,a2,0x16
   116c4:	00e7a023          	sw	a4,0(a5)
   116c8:	00a61613          	slli	a2,a2,0xa
   116cc:	2815e713          	ori	a4,a1,641
   116d0:	00e7a023          	sw	a4,0(a5)
   116d4:	2d166613          	ori	a2,a2,721
   116d8:	00c7a023          	sw	a2,0(a5)
   116dc:	0107a023          	sw	a6,0(a5)
   116e0:	0008c703          	lbu	a4,0(a7)
   116e4:	00850513          	addi	a0,a0,8
   116e8:	00188893          	addi	a7,a7,1
   116ec:	d2071ee3          	bnez	a4,11428 <_Z8PrintDMAiiPKcb+0xa4>
   116f0:	00c12403          	lw	s0,12(sp)
   116f4:	00812483          	lw	s1,8(sp)
   116f8:	00412903          	lw	s2,4(sp)
   116fc:	00012983          	lw	s3,0(sp)
   11700:	01010113          	addi	sp,sp,16
   11704:	00008067          	ret
   11708:	00008067          	ret

0001170c <_Z8PrintDMAiiiPKcb>:
   1170c:	38c05863          	blez	a2,11a9c <_Z8PrintDMAiiiPKcb+0x390>
   11710:	fe010113          	addi	sp,sp,-32
   11714:	00008797          	auipc	a5,0x8
   11718:	29c7a783          	lw	a5,668(a5) # 199b0 <_GLOBAL_OFFSET_TABLE_+0x10>
   1171c:	00358393          	addi	t2,a1,3
   11720:	00458293          	addi	t0,a1,4
   11724:	00558f93          	addi	t6,a1,5
   11728:	00658f13          	addi	t5,a1,6
   1172c:	00758e93          	addi	t4,a1,7
   11730:	00068813          	mv	a6,a3
   11734:	00812e23          	sw	s0,28(sp)
   11738:	00912c23          	sw	s1,24(sp)
   1173c:	00258413          	addi	s0,a1,2
   11740:	00158493          	addi	s1,a1,1
   11744:	00e038b3          	snez	a7,a4
   11748:	000016b7          	lui	a3,0x1
   1174c:	0007a783          	lw	a5,0(a5)
   11750:	00859593          	slli	a1,a1,0x8
   11754:	01889893          	slli	a7,a7,0x18
   11758:	00849493          	slli	s1,s1,0x8
   1175c:	00841413          	slli	s0,s0,0x8
   11760:	00839393          	slli	t2,t2,0x8
   11764:	00829293          	slli	t0,t0,0x8
   11768:	008f9f93          	slli	t6,t6,0x8
   1176c:	008f1f13          	slli	t5,t5,0x8
   11770:	008e9e93          	slli	t4,t4,0x8
   11774:	ac468693          	addi	a3,a3,-1340 # ac4 <main-0xf5b0>
   11778:	01212a23          	sw	s2,20(sp)
   1177c:	01312823          	sw	s3,16(sp)
   11780:	01412623          	sw	s4,12(sp)
   11784:	00d8e8b3          	or	a7,a7,a3
   11788:	00b50533          	add	a0,a0,a1
   1178c:	00c80e33          	add	t3,a6,a2
   11790:	00004317          	auipc	t1,0x4
   11794:	46830313          	addi	t1,t1,1128 # 15bf8 <_ZL4font>
   11798:	40b484b3          	sub	s1,s1,a1
   1179c:	40b40433          	sub	s0,s0,a1
   117a0:	40b383b3          	sub	t2,t2,a1
   117a4:	40b282b3          	sub	t0,t0,a1
   117a8:	40bf8fb3          	sub	t6,t6,a1
   117ac:	40bf0f33          	sub	t5,t5,a1
   117b0:	40be8eb3          	sub	t4,t4,a1
   117b4:	00084603          	lbu	a2,0(a6)
   117b8:	2c060463          	beqz	a2,11a80 <_Z8PrintDMAiiiPKcb+0x374>
   117bc:	fe060613          	addi	a2,a2,-32
   117c0:	00070463          	beqz	a4,117c8 <_Z8PrintDMAiiiPKcb+0xbc>
   117c4:	2a060863          	beqz	a2,11a74 <_Z8PrintDMAiiiPKcb+0x368>
   117c8:	2a064663          	bltz	a2,11a74 <_Z8PrintDMAiiiPKcb+0x368>
   117cc:	40565693          	srai	a3,a2,0x5
   117d0:	01f67613          	andi	a2,a2,31
   117d4:	00361613          	slli	a2,a2,0x3
   117d8:	00b69593          	slli	a1,a3,0xb
   117dc:	00c585b3          	add	a1,a1,a2
   117e0:	006585b3          	add	a1,a1,t1
   117e4:	00369693          	slli	a3,a3,0x3
   117e8:	00a59a13          	slli	s4,a1,0xa
   117ec:	0165d913          	srli	s2,a1,0x16
   117f0:	40255993          	srai	s3,a0,0x2
   117f4:	201a6a13          	ori	s4,s4,513
   117f8:	00168593          	addi	a1,a3,1
   117fc:	00a91913          	slli	s2,s2,0xa
   11800:	0147a023          	sw	s4,0(a5)
   11804:	24196913          	ori	s2,s2,577
   11808:	00a99a13          	slli	s4,s3,0xa
   1180c:	00859593          	slli	a1,a1,0x8
   11810:	0169d993          	srli	s3,s3,0x16
   11814:	0127a023          	sw	s2,0(a5)
   11818:	00c585b3          	add	a1,a1,a2
   1181c:	281a6913          	ori	s2,s4,641
   11820:	00a99993          	slli	s3,s3,0xa
   11824:	0127a023          	sw	s2,0(a5)
   11828:	006585b3          	add	a1,a1,t1
   1182c:	2d19e993          	ori	s3,s3,721
   11830:	0137a023          	sw	s3,0(a5)
   11834:	00a59a13          	slli	s4,a1,0xa
   11838:	0165d913          	srli	s2,a1,0x16
   1183c:	00a489b3          	add	s3,s1,a0
   11840:	0117a023          	sw	a7,0(a5)
   11844:	4029d993          	srai	s3,s3,0x2
   11848:	201a6a13          	ori	s4,s4,513
   1184c:	00268593          	addi	a1,a3,2
   11850:	00a91913          	slli	s2,s2,0xa
   11854:	0147a023          	sw	s4,0(a5)
   11858:	24196913          	ori	s2,s2,577
   1185c:	00a99a13          	slli	s4,s3,0xa
   11860:	00859593          	slli	a1,a1,0x8
   11864:	0169d993          	srli	s3,s3,0x16
   11868:	0127a023          	sw	s2,0(a5)
   1186c:	00c585b3          	add	a1,a1,a2
   11870:	281a6913          	ori	s2,s4,641
   11874:	00a99993          	slli	s3,s3,0xa
   11878:	0127a023          	sw	s2,0(a5)
   1187c:	006585b3          	add	a1,a1,t1
   11880:	2d19e993          	ori	s3,s3,721
   11884:	0137a023          	sw	s3,0(a5)
   11888:	00a59a13          	slli	s4,a1,0xa
   1188c:	0165d913          	srli	s2,a1,0x16
   11890:	00a409b3          	add	s3,s0,a0
   11894:	0117a023          	sw	a7,0(a5)
   11898:	4029d993          	srai	s3,s3,0x2
   1189c:	201a6a13          	ori	s4,s4,513
   118a0:	00368593          	addi	a1,a3,3
   118a4:	00a91913          	slli	s2,s2,0xa
   118a8:	0147a023          	sw	s4,0(a5)
   118ac:	24196913          	ori	s2,s2,577
   118b0:	00a99a13          	slli	s4,s3,0xa
   118b4:	00859593          	slli	a1,a1,0x8
   118b8:	0169d993          	srli	s3,s3,0x16
   118bc:	0127a023          	sw	s2,0(a5)
   118c0:	00c585b3          	add	a1,a1,a2
   118c4:	281a6913          	ori	s2,s4,641
   118c8:	00a99993          	slli	s3,s3,0xa
   118cc:	0127a023          	sw	s2,0(a5)
   118d0:	006585b3          	add	a1,a1,t1
   118d4:	2d19e993          	ori	s3,s3,721
   118d8:	0137a023          	sw	s3,0(a5)
   118dc:	00a59a13          	slli	s4,a1,0xa
   118e0:	0165d913          	srli	s2,a1,0x16
   118e4:	00a389b3          	add	s3,t2,a0
   118e8:	0117a023          	sw	a7,0(a5)
   118ec:	4029d993          	srai	s3,s3,0x2
   118f0:	201a6a13          	ori	s4,s4,513
   118f4:	00468593          	addi	a1,a3,4
   118f8:	00a91913          	slli	s2,s2,0xa
   118fc:	0147a023          	sw	s4,0(a5)
   11900:	24196913          	ori	s2,s2,577
   11904:	00a99a13          	slli	s4,s3,0xa
   11908:	00859593          	slli	a1,a1,0x8
   1190c:	0169d993          	srli	s3,s3,0x16
   11910:	0127a023          	sw	s2,0(a5)
   11914:	00c585b3          	add	a1,a1,a2
   11918:	281a6913          	ori	s2,s4,641
   1191c:	00a99993          	slli	s3,s3,0xa
   11920:	0127a023          	sw	s2,0(a5)
   11924:	006585b3          	add	a1,a1,t1
   11928:	2d19e993          	ori	s3,s3,721
   1192c:	0137a023          	sw	s3,0(a5)
   11930:	00a59a13          	slli	s4,a1,0xa
   11934:	0165d913          	srli	s2,a1,0x16
   11938:	00a289b3          	add	s3,t0,a0
   1193c:	0117a023          	sw	a7,0(a5)
   11940:	4029d993          	srai	s3,s3,0x2
   11944:	201a6a13          	ori	s4,s4,513
   11948:	00568593          	addi	a1,a3,5
   1194c:	00a91913          	slli	s2,s2,0xa
   11950:	0147a023          	sw	s4,0(a5)
   11954:	24196913          	ori	s2,s2,577
   11958:	00a99a13          	slli	s4,s3,0xa
   1195c:	00859593          	slli	a1,a1,0x8
   11960:	0169d993          	srli	s3,s3,0x16
   11964:	0127a023          	sw	s2,0(a5)
   11968:	00c585b3          	add	a1,a1,a2
   1196c:	281a6913          	ori	s2,s4,641
   11970:	00a99993          	slli	s3,s3,0xa
   11974:	0127a023          	sw	s2,0(a5)
   11978:	006585b3          	add	a1,a1,t1
   1197c:	2d19e993          	ori	s3,s3,721
   11980:	0137a023          	sw	s3,0(a5)
   11984:	00a59a13          	slli	s4,a1,0xa
   11988:	0165d913          	srli	s2,a1,0x16
   1198c:	00af89b3          	add	s3,t6,a0
   11990:	0117a023          	sw	a7,0(a5)
   11994:	4029d993          	srai	s3,s3,0x2
   11998:	201a6a13          	ori	s4,s4,513
   1199c:	00668593          	addi	a1,a3,6
   119a0:	00a91913          	slli	s2,s2,0xa
   119a4:	0147a023          	sw	s4,0(a5)
   119a8:	24196913          	ori	s2,s2,577
   119ac:	00a99a13          	slli	s4,s3,0xa
   119b0:	00859593          	slli	a1,a1,0x8
   119b4:	0169d993          	srli	s3,s3,0x16
   119b8:	0127a023          	sw	s2,0(a5)
   119bc:	00c585b3          	add	a1,a1,a2
   119c0:	281a6913          	ori	s2,s4,641
   119c4:	00a99993          	slli	s3,s3,0xa
   119c8:	0127a023          	sw	s2,0(a5)
   119cc:	006585b3          	add	a1,a1,t1
   119d0:	2d19e993          	ori	s3,s3,721
   119d4:	00af0933          	add	s2,t5,a0
   119d8:	0137a023          	sw	s3,0(a5)
   119dc:	40295913          	srai	s2,s2,0x2
   119e0:	00a59a13          	slli	s4,a1,0xa
   119e4:	00768693          	addi	a3,a3,7
   119e8:	0165d593          	srli	a1,a1,0x16
   119ec:	0117a023          	sw	a7,0(a5)
   119f0:	01695993          	srli	s3,s2,0x16
   119f4:	201a6a13          	ori	s4,s4,513
   119f8:	00a59593          	slli	a1,a1,0xa
   119fc:	00869693          	slli	a3,a3,0x8
   11a00:	0147a023          	sw	s4,0(a5)
   11a04:	2415e593          	ori	a1,a1,577
   11a08:	00c686b3          	add	a3,a3,a2
   11a0c:	00a91913          	slli	s2,s2,0xa
   11a10:	00a99993          	slli	s3,s3,0xa
   11a14:	006686b3          	add	a3,a3,t1
   11a18:	00b7a023          	sw	a1,0(a5)
   11a1c:	2d19e613          	ori	a2,s3,721
   11a20:	28196913          	ori	s2,s2,641
   11a24:	0127a023          	sw	s2,0(a5)
   11a28:	00a69593          	slli	a1,a3,0xa
   11a2c:	00c7a023          	sw	a2,0(a5)
   11a30:	0166d693          	srli	a3,a3,0x16
   11a34:	00ae8633          	add	a2,t4,a0
   11a38:	0117a023          	sw	a7,0(a5)
   11a3c:	40265613          	srai	a2,a2,0x2
   11a40:	2015e593          	ori	a1,a1,513
   11a44:	00a69693          	slli	a3,a3,0xa
   11a48:	00b7a023          	sw	a1,0(a5)
   11a4c:	2416e693          	ori	a3,a3,577
   11a50:	00a61593          	slli	a1,a2,0xa
   11a54:	01665613          	srli	a2,a2,0x16
   11a58:	00d7a023          	sw	a3,0(a5)
   11a5c:	00a61613          	slli	a2,a2,0xa
   11a60:	2815e693          	ori	a3,a1,641
   11a64:	00d7a023          	sw	a3,0(a5)
   11a68:	2d166613          	ori	a2,a2,721
   11a6c:	00c7a023          	sw	a2,0(a5)
   11a70:	0117a023          	sw	a7,0(a5)
   11a74:	00180813          	addi	a6,a6,1
   11a78:	00850513          	addi	a0,a0,8
   11a7c:	d30e1ce3          	bne	t3,a6,117b4 <_Z8PrintDMAiiiPKcb+0xa8>
   11a80:	01c12403          	lw	s0,28(sp)
   11a84:	01812483          	lw	s1,24(sp)
   11a88:	01412903          	lw	s2,20(sp)
   11a8c:	01012983          	lw	s3,16(sp)
   11a90:	00c12a03          	lw	s4,12(sp)
   11a94:	02010113          	addi	sp,sp,32
   11a98:	00008067          	ret
   11a9c:	00008067          	ret

00011aa0 <_Z11PrintDMAHexiim>:
   11aa0:	00004e17          	auipc	t3,0x4
   11aa4:	124e0e13          	addi	t3,t3,292 # 15bc4 <__errno+0x5c8>
   11aa8:	00ce2f03          	lw	t5,12(t3)
   11aac:	008e2f83          	lw	t6,8(t3)
   11ab0:	000e2383          	lw	t2,0(t3)
   11ab4:	004e2283          	lw	t0,4(t3)
   11ab8:	fd010113          	addi	sp,sp,-48
   11abc:	01865313          	srli	t1,a2,0x18
   11ac0:	01465893          	srli	a7,a2,0x14
   11ac4:	01065813          	srli	a6,a2,0x10
   11ac8:	00c65693          	srli	a3,a2,0xc
   11acc:	00865713          	srli	a4,a2,0x8
   11ad0:	00465793          	srli	a5,a2,0x4
   11ad4:	01e12c23          	sw	t5,24(sp)
   11ad8:	01c65e93          	srli	t4,a2,0x1c
   11adc:	02010f13          	addi	t5,sp,32
   11ae0:	00f37313          	andi	t1,t1,15
   11ae4:	00f8f893          	andi	a7,a7,15
   11ae8:	00f87813          	andi	a6,a6,15
   11aec:	00f6f693          	andi	a3,a3,15
   11af0:	00f77713          	andi	a4,a4,15
   11af4:	00f7f793          	andi	a5,a5,15
   11af8:	00f67613          	andi	a2,a2,15
   11afc:	02112623          	sw	ra,44(sp)
   11b00:	01f12a23          	sw	t6,20(sp)
   11b04:	00712623          	sw	t2,12(sp)
   11b08:	00512823          	sw	t0,16(sp)
   11b0c:	006f0333          	add	t1,t5,t1
   11b10:	011f08b3          	add	a7,t5,a7
   11b14:	010f0833          	add	a6,t5,a6
   11b18:	00df06b3          	add	a3,t5,a3
   11b1c:	00ef0733          	add	a4,t5,a4
   11b20:	00ff07b3          	add	a5,t5,a5
   11b24:	00cf0633          	add	a2,t5,a2
   11b28:	01df0eb3          	add	t4,t5,t4
   11b2c:	010e4f83          	lbu	t6,16(t3)
   11b30:	fececf03          	lbu	t5,-20(t4)
   11b34:	fec8ce03          	lbu	t3,-20(a7)
   11b38:	fec34e83          	lbu	t4,-20(t1)
   11b3c:	fec6c883          	lbu	a7,-20(a3)
   11b40:	fec84303          	lbu	t1,-20(a6)
   11b44:	fec74803          	lbu	a6,-20(a4)
   11b48:	fec7c703          	lbu	a4,-20(a5)
   11b4c:	fec64783          	lbu	a5,-20(a2)
   11b50:	02e00693          	li	a3,46
   11b54:	00d11423          	sh	a3,8(sp)
   11b58:	00010613          	mv	a2,sp
   11b5c:	00100693          	li	a3,1
   11b60:	01f10e23          	sb	t6,28(sp)
   11b64:	01e10023          	sb	t5,0(sp)
   11b68:	01d100a3          	sb	t4,1(sp)
   11b6c:	01c10123          	sb	t3,2(sp)
   11b70:	006101a3          	sb	t1,3(sp)
   11b74:	01110223          	sb	a7,4(sp)
   11b78:	010102a3          	sb	a6,5(sp)
   11b7c:	00e10323          	sb	a4,6(sp)
   11b80:	00f103a3          	sb	a5,7(sp)
   11b84:	00010423          	sb	zero,8(sp)
   11b88:	ffcff0ef          	jal	ra,11384 <_Z8PrintDMAiiPKcb>
   11b8c:	02c12083          	lw	ra,44(sp)
   11b90:	03010113          	addi	sp,sp,48
   11b94:	00008067          	ret

00011b98 <_Z15PrintDMADecimaliii>:
   11b98:	00004797          	auipc	a5,0x4
   11b9c:	04078793          	addi	a5,a5,64 # 15bd8 <__errno+0x5dc>
   11ba0:	00004717          	auipc	a4,0x4
   11ba4:	04c70713          	addi	a4,a4,76 # 15bec <__errno+0x5f0>
   11ba8:	00072f03          	lw	t5,0(a4)
   11bac:	00472e83          	lw	t4,4(a4)
   11bb0:	00875e03          	lhu	t3,8(a4)
   11bb4:	00a74303          	lbu	t1,10(a4)
   11bb8:	0007a883          	lw	a7,0(a5)
   11bbc:	0047a803          	lw	a6,4(a5)
   11bc0:	0087a683          	lw	a3,8(a5)
   11bc4:	00c7a703          	lw	a4,12(a5)
   11bc8:	0107a783          	lw	a5,16(a5)
   11bcc:	fb010113          	addi	sp,sp,-80
   11bd0:	03312e23          	sw	s3,60(sp)
   11bd4:	03512a23          	sw	s5,52(sp)
   11bd8:	03612823          	sw	s6,48(sp)
   11bdc:	03712623          	sw	s7,44(sp)
   11be0:	00f12e23          	sw	a5,28(sp)
   11be4:	04112623          	sw	ra,76(sp)
   11be8:	04812423          	sw	s0,72(sp)
   11bec:	04912223          	sw	s1,68(sp)
   11bf0:	05212023          	sw	s2,64(sp)
   11bf4:	03412c23          	sw	s4,56(sp)
   11bf8:	03812423          	sw	s8,40(sp)
   11bfc:	01e12023          	sw	t5,0(sp)
   11c00:	01d12223          	sw	t4,4(sp)
   11c04:	01c11423          	sh	t3,8(sp)
   11c08:	00610523          	sb	t1,10(sp)
   11c0c:	01112623          	sw	a7,12(sp)
   11c10:	01012823          	sw	a6,16(sp)
   11c14:	00d12a23          	sw	a3,20(sp)
   11c18:	00e12c23          	sw	a4,24(sp)
   11c1c:	00060a93          	mv	s5,a2
   11c20:	00050b13          	mv	s6,a0
   11c24:	00058b93          	mv	s7,a1
   11c28:	02d00793          	li	a5,45
   11c2c:	00100993          	li	s3,1
   11c30:	00064663          	bltz	a2,11c3c <_Z15PrintDMADecimaliii+0xa4>
   11c34:	02000793          	li	a5,32
   11c38:	00000993          	li	s3,0
   11c3c:	3b9ad437          	lui	s0,0x3b9ad
   11c40:	00f10623          	sb	a5,12(sp)
   11c44:	00a00913          	li	s2,10
   11c48:	00000493          	li	s1,0
   11c4c:	a0040413          	addi	s0,s0,-1536 # 3b9aca00 <__BSS_END__+0x3b992c24>
   11c50:	00a00a13          	li	s4,10
   11c54:	00100c13          	li	s8,1
   11c58:	0100006f          	j	11c68 <_Z15PrintDMADecimaliii+0xd0>
   11c5c:	03840a63          	beq	s0,s8,11c90 <_Z15PrintDMADecimaliii+0xf8>
   11c60:	03444433          	div	s0,s0,s4
   11c64:	04090263          	beqz	s2,11ca8 <_Z15PrintDMADecimaliii+0x110>
   11c68:	fff90913          	addi	s2,s2,-1
   11c6c:	028ac533          	div	a0,s5,s0
   11c70:	790020ef          	jal	ra,14400 <abs>
   11c74:	03456533          	rem	a0,a0,s4
   11c78:	02010793          	addi	a5,sp,32
   11c7c:	02010713          	addi	a4,sp,32
   11c80:	013787b3          	add	a5,a5,s3
   11c84:	00a4e4b3          	or	s1,s1,a0
   11c88:	00a70733          	add	a4,a4,a0
   11c8c:	fc0488e3          	beqz	s1,11c5c <_Z15PrintDMADecimaliii+0xc4>
   11c90:	fe074703          	lbu	a4,-32(a4)
   11c94:	03444433          	div	s0,s0,s4
   11c98:	00198993          	addi	s3,s3,1
   11c9c:	fee78623          	sb	a4,-20(a5)
   11ca0:	00100493          	li	s1,1
   11ca4:	fc0912e3          	bnez	s2,11c68 <_Z15PrintDMADecimaliii+0xd0>
   11ca8:	02010793          	addi	a5,sp,32
   11cac:	013787b3          	add	a5,a5,s3
   11cb0:	000b0513          	mv	a0,s6
   11cb4:	00c10613          	addi	a2,sp,12
   11cb8:	000b8593          	mv	a1,s7
   11cbc:	00100693          	li	a3,1
   11cc0:	fe078623          	sb	zero,-20(a5)
   11cc4:	ec0ff0ef          	jal	ra,11384 <_Z8PrintDMAiiPKcb>
   11cc8:	04c12083          	lw	ra,76(sp)
   11ccc:	04812403          	lw	s0,72(sp)
   11cd0:	04412483          	lw	s1,68(sp)
   11cd4:	04012903          	lw	s2,64(sp)
   11cd8:	03812a03          	lw	s4,56(sp)
   11cdc:	03412a83          	lw	s5,52(sp)
   11ce0:	03012b03          	lw	s6,48(sp)
   11ce4:	02c12b83          	lw	s7,44(sp)
   11ce8:	02812c03          	lw	s8,40(sp)
   11cec:	00098513          	mv	a0,s3
   11cf0:	03c12983          	lw	s3,60(sp)
   11cf4:	05010113          	addi	sp,sp,80
   11cf8:	00008067          	ret

00011cfc <_Z8EchoUARTPKc>:
   11cfc:	00054783          	lbu	a5,0(a0)
   11d00:	02078263          	beqz	a5,11d24 <_Z8EchoUARTPKc+0x28>
   11d04:	00150513          	addi	a0,a0,1
   11d08:	00008697          	auipc	a3,0x8
   11d0c:	cd86a683          	lw	a3,-808(a3) # 199e0 <_GLOBAL_OFFSET_TABLE_+0x40>
   11d10:	0006a703          	lw	a4,0(a3)
   11d14:	00150513          	addi	a0,a0,1
   11d18:	00f70023          	sb	a5,0(a4)
   11d1c:	fff54783          	lbu	a5,-1(a0)
   11d20:	fe0798e3          	bnez	a5,11d10 <_Z8EchoUARTPKc+0x14>
   11d24:	00008067          	ret

00011d28 <_Z7EchoIntm>:
   11d28:	00004617          	auipc	a2,0x4
   11d2c:	e9c60613          	addi	a2,a2,-356 # 15bc4 <__errno+0x5c8>
   11d30:	00c62803          	lw	a6,12(a2)
   11d34:	00062e03          	lw	t3,0(a2)
   11d38:	00462303          	lw	t1,4(a2)
   11d3c:	00862883          	lw	a7,8(a2)
   11d40:	fd010113          	addi	sp,sp,-48
   11d44:	00c55793          	srli	a5,a0,0xc
   11d48:	00855693          	srli	a3,a0,0x8
   11d4c:	01855713          	srli	a4,a0,0x18
   11d50:	01012c23          	sw	a6,24(sp)
   11d54:	01c55593          	srli	a1,a0,0x1c
   11d58:	02010813          	addi	a6,sp,32
   11d5c:	00f7f793          	andi	a5,a5,15
   11d60:	00f6f693          	andi	a3,a3,15
   11d64:	00f77713          	andi	a4,a4,15
   11d68:	02112623          	sw	ra,44(sp)
   11d6c:	01112a23          	sw	a7,20(sp)
   11d70:	01c12623          	sw	t3,12(sp)
   11d74:	00612823          	sw	t1,16(sp)
   11d78:	00d806b3          	add	a3,a6,a3
   11d7c:	00b805b3          	add	a1,a6,a1
   11d80:	00e80733          	add	a4,a6,a4
   11d84:	00f807b3          	add	a5,a6,a5
   11d88:	00455893          	srli	a7,a0,0x4
   11d8c:	01455813          	srli	a6,a0,0x14
   11d90:	fec6ce83          	lbu	t4,-20(a3)
   11d94:	fec74e03          	lbu	t3,-20(a4)
   11d98:	fec5c683          	lbu	a3,-20(a1)
   11d9c:	02010713          	addi	a4,sp,32
   11da0:	fec7c783          	lbu	a5,-20(a5)
   11da4:	00f8f893          	andi	a7,a7,15
   11da8:	00f87813          	andi	a6,a6,15
   11dac:	011708b3          	add	a7,a4,a7
   11db0:	01070833          	add	a6,a4,a6
   11db4:	01055593          	srli	a1,a0,0x10
   11db8:	ffff0737          	lui	a4,0xffff0
   11dbc:	fec8c303          	lbu	t1,-20(a7)
   11dc0:	0ff70713          	addi	a4,a4,255 # ffff00ff <__BSS_END__+0xfffd6323>
   11dc4:	fec84883          	lbu	a7,-20(a6)
   11dc8:	00f5f593          	andi	a1,a1,15
   11dcc:	02010813          	addi	a6,sp,32
   11dd0:	00f57513          	andi	a0,a0,15
   11dd4:	008e9e93          	slli	t4,t4,0x8
   11dd8:	00e7f7b3          	and	a5,a5,a4
   11ddc:	00a80533          	add	a0,a6,a0
   11de0:	008e1e13          	slli	t3,t3,0x8
   11de4:	00e6f733          	and	a4,a3,a4
   11de8:	00b806b3          	add	a3,a6,a1
   11dec:	ff0105b7          	lui	a1,0xff010
   11df0:	fec54803          	lbu	a6,-20(a0)
   11df4:	fff58593          	addi	a1,a1,-1 # ff00ffff <__BSS_END__+0xfeff6223>
   11df8:	fec6c503          	lbu	a0,-20(a3)
   11dfc:	01d7e7b3          	or	a5,a5,t4
   11e00:	01c76733          	or	a4,a4,t3
   11e04:	01031313          	slli	t1,t1,0x10
   11e08:	00b7f7b3          	and	a5,a5,a1
   11e0c:	01089893          	slli	a7,a7,0x10
   11e10:	00b77733          	and	a4,a4,a1
   11e14:	010006b7          	lui	a3,0x1000
   11e18:	01064e03          	lbu	t3,16(a2)
   11e1c:	fff68693          	addi	a3,a3,-1 # ffffff <__BSS_END__+0xfe6223>
   11e20:	0067e7b3          	or	a5,a5,t1
   11e24:	01176733          	or	a4,a4,a7
   11e28:	01851613          	slli	a2,a0,0x18
   11e2c:	01881593          	slli	a1,a6,0x18
   11e30:	00d7f7b3          	and	a5,a5,a3
   11e34:	00d77733          	and	a4,a4,a3
   11e38:	00b7e7b3          	or	a5,a5,a1
   11e3c:	00c76733          	or	a4,a4,a2
   11e40:	00010513          	mv	a0,sp
   11e44:	01c10e23          	sb	t3,28(sp)
   11e48:	00010423          	sb	zero,8(sp)
   11e4c:	00e12023          	sw	a4,0(sp)
   11e50:	00f12223          	sw	a5,4(sp)
   11e54:	ea9ff0ef          	jal	ra,11cfc <_Z8EchoUARTPKc>
   11e58:	02c12083          	lw	ra,44(sp)
   11e5c:	03010113          	addi	sp,sp,48
   11e60:	00008067          	ret

00011e64 <_Z11ClearScreenh>:
   11e64:	01051713          	slli	a4,a0,0x10
   11e68:	01851793          	slli	a5,a0,0x18
   11e6c:	00e7e7b3          	or	a5,a5,a4
   11e70:	00a7e7b3          	or	a5,a5,a0
   11e74:	00008717          	auipc	a4,0x8
   11e78:	b3c72703          	lw	a4,-1220(a4) # 199b0 <_GLOBAL_OFFSET_TABLE_+0x10>
   11e7c:	00851513          	slli	a0,a0,0x8
   11e80:	00072703          	lw	a4,0(a4)
   11e84:	00a7e533          	or	a0,a5,a0
   11e88:	00a51793          	slli	a5,a0,0xa
   11e8c:	01655513          	srli	a0,a0,0x16
   11e90:	0817e793          	ori	a5,a5,129
   11e94:	00a51513          	slli	a0,a0,0xa
   11e98:	00f72023          	sw	a5,0(a4)
   11e9c:	09156513          	ori	a0,a0,145
   11ea0:	00a72023          	sw	a0,0(a4)
   11ea4:	01300793          	li	a5,19
   11ea8:	00f72023          	sw	a5,0(a4)
   11eac:	00008067          	ret

00011eb0 <_Z9ReadClockv>:
   11eb0:	c81025f3          	rdtimeh	a1
   11eb4:	c0102573          	rdtime	a0
   11eb8:	c81027f3          	rdtimeh	a5
   11ebc:	fef59ae3          	bne	a1,a5,11eb0 <_Z9ReadClockv>
   11ec0:	00008067          	ret

00011ec4 <_Z9ClockToMsy>:
   11ec4:	00002637          	lui	a2,0x2
   11ec8:	ff010113          	addi	sp,sp,-16
   11ecc:	71060613          	addi	a2,a2,1808 # 2710 <main-0xd964>
   11ed0:	00000693          	li	a3,0
   11ed4:	00112623          	sw	ra,12(sp)
   11ed8:	0f4020ef          	jal	ra,13fcc <__udivdi3>
   11edc:	00c12083          	lw	ra,12(sp)
   11ee0:	01010113          	addi	sp,sp,16
   11ee4:	00008067          	ret

00011ee8 <_Z12ClockMsToHMSmRmS_S_>:
   11ee8:	000587b7          	lui	a5,0x58
   11eec:	e4078793          	addi	a5,a5,-448 # 57e40 <__BSS_END__+0x3e064>
   11ef0:	02f577b3          	remu	a5,a0,a5
   11ef4:	0036f837          	lui	a6,0x36f
   11ef8:	e8080813          	addi	a6,a6,-384 # 36ee80 <__BSS_END__+0x3550a4>
   11efc:	0000f737          	lui	a4,0xf
   11f00:	a6070713          	addi	a4,a4,-1440 # ea60 <main-0x1614>
   11f04:	030578b3          	remu	a7,a0,a6
   11f08:	03055533          	divu	a0,a0,a6
   11f0c:	02e7f7b3          	remu	a5,a5,a4
   11f10:	00a5a023          	sw	a0,0(a1)
   11f14:	3e800593          	li	a1,1000
   11f18:	02e8d733          	divu	a4,a7,a4
   11f1c:	02b7d7b3          	divu	a5,a5,a1
   11f20:	00e62023          	sw	a4,0(a2)
   11f24:	00f6a023          	sw	a5,0(a3)
   11f28:	00008067          	ret

00011f2c <_Z6SDIdlev>:
   11f2c:	00008697          	auipc	a3,0x8
   11f30:	a806a683          	lw	a3,-1408(a3) # 199ac <_GLOBAL_OFFSET_TABLE_+0xc>
   11f34:	0006a783          	lw	a5,0(a3)
   11f38:	fff00713          	li	a4,-1
   11f3c:	04000613          	li	a2,64
   11f40:	00e78023          	sb	a4,0(a5)
   11f44:	0006a703          	lw	a4,0(a3)
   11f48:	f9500513          	li	a0,-107
   11f4c:	000107b7          	lui	a5,0x10
   11f50:	00c70023          	sb	a2,0(a4)
   11f54:	0006a703          	lw	a4,0(a3)
   11f58:	00008817          	auipc	a6,0x8
   11f5c:	a6082803          	lw	a6,-1440(a6) # 199b8 <_GLOBAL_OFFSET_TABLE_+0x18>
   11f60:	fff00593          	li	a1,-1
   11f64:	00070023          	sb	zero,0(a4)
   11f68:	0006a703          	lw	a4,0(a3)
   11f6c:	0ff00613          	li	a2,255
   11f70:	00070023          	sb	zero,0(a4)
   11f74:	0006a703          	lw	a4,0(a3)
   11f78:	00070023          	sb	zero,0(a4)
   11f7c:	0006a703          	lw	a4,0(a3)
   11f80:	00070023          	sb	zero,0(a4)
   11f84:	0006a703          	lw	a4,0(a3)
   11f88:	00a70023          	sb	a0,0(a4)
   11f8c:	0080006f          	j	11f94 <_Z6SDIdlev+0x68>
   11f90:	02078063          	beqz	a5,11fb0 <_Z6SDIdlev+0x84>
   11f94:	0006a703          	lw	a4,0(a3)
   11f98:	fff78793          	addi	a5,a5,-1 # ffff <main-0x75>
   11f9c:	00b70023          	sb	a1,0(a4)
   11fa0:	00082703          	lw	a4,0(a6)
   11fa4:	00074503          	lbu	a0,0(a4)
   11fa8:	0ff57513          	andi	a0,a0,255
   11fac:	fec502e3          	beq	a0,a2,11f90 <_Z6SDIdlev+0x64>
   11fb0:	00008067          	ret

00011fb4 <_Z19SDCheckVoltageRangeRm>:
   11fb4:	00008697          	auipc	a3,0x8
   11fb8:	9f86a683          	lw	a3,-1544(a3) # 199ac <_GLOBAL_OFFSET_TABLE_+0xc>
   11fbc:	0006a783          	lw	a5,0(a3)
   11fc0:	fff00713          	li	a4,-1
   11fc4:	00100593          	li	a1,1
   11fc8:	00e78023          	sb	a4,0(a5)
   11fcc:	0006a783          	lw	a5,0(a3)
   11fd0:	04800713          	li	a4,72
   11fd4:	00050893          	mv	a7,a0
   11fd8:	00e78023          	sb	a4,0(a5)
   11fdc:	0006a783          	lw	a5,0(a3)
   11fe0:	faa00513          	li	a0,-86
   11fe4:	00008617          	auipc	a2,0x8
   11fe8:	9d462603          	lw	a2,-1580(a2) # 199b8 <_GLOBAL_OFFSET_TABLE_+0x18>
   11fec:	00078023          	sb	zero,0(a5)
   11ff0:	0006a703          	lw	a4,0(a3)
   11ff4:	000107b7          	lui	a5,0x10
   11ff8:	fff00813          	li	a6,-1
   11ffc:	00070023          	sb	zero,0(a4)
   12000:	0006a703          	lw	a4,0(a3)
   12004:	00b70023          	sb	a1,0(a4)
   12008:	0006a703          	lw	a4,0(a3)
   1200c:	0ff00593          	li	a1,255
   12010:	00a70023          	sb	a0,0(a4)
   12014:	0006a703          	lw	a4,0(a3)
   12018:	f8700513          	li	a0,-121
   1201c:	00a70023          	sb	a0,0(a4)
   12020:	0080006f          	j	12028 <_Z19SDCheckVoltageRangeRm+0x74>
   12024:	02078063          	beqz	a5,12044 <_Z19SDCheckVoltageRangeRm+0x90>
   12028:	0006a703          	lw	a4,0(a3)
   1202c:	fff78793          	addi	a5,a5,-1 # ffff <main-0x75>
   12030:	01070023          	sb	a6,0(a4)
   12034:	00062703          	lw	a4,0(a2)
   12038:	00074503          	lbu	a0,0(a4)
   1203c:	0ff57513          	andi	a0,a0,255
   12040:	feb502e3          	beq	a0,a1,12024 <_Z19SDCheckVoltageRangeRm+0x70>
   12044:	0006a783          	lw	a5,0(a3)
   12048:	fff00713          	li	a4,-1
   1204c:	0008a023          	sw	zero,0(a7)
   12050:	00e78023          	sb	a4,0(a5)
   12054:	00062583          	lw	a1,0(a2)
   12058:	0008a783          	lw	a5,0(a7)
   1205c:	0006a803          	lw	a6,0(a3)
   12060:	0005c583          	lbu	a1,0(a1)
   12064:	0ff5f593          	andi	a1,a1,255
   12068:	00b7e7b3          	or	a5,a5,a1
   1206c:	00f8a023          	sw	a5,0(a7)
   12070:	00e80023          	sb	a4,0(a6)
   12074:	00062783          	lw	a5,0(a2)
   12078:	0008a803          	lw	a6,0(a7)
   1207c:	0006a303          	lw	t1,0(a3)
   12080:	0007c783          	lbu	a5,0(a5)
   12084:	00881593          	slli	a1,a6,0x8
   12088:	0ff7f793          	andi	a5,a5,255
   1208c:	0107e7b3          	or	a5,a5,a6
   12090:	00f5e7b3          	or	a5,a1,a5
   12094:	00f8a023          	sw	a5,0(a7)
   12098:	00e30023          	sb	a4,0(t1)
   1209c:	00062783          	lw	a5,0(a2)
   120a0:	0008a583          	lw	a1,0(a7)
   120a4:	0006a803          	lw	a6,0(a3)
   120a8:	0007c783          	lbu	a5,0(a5)
   120ac:	00859693          	slli	a3,a1,0x8
   120b0:	0ff7f793          	andi	a5,a5,255
   120b4:	00b7e7b3          	or	a5,a5,a1
   120b8:	00f6e7b3          	or	a5,a3,a5
   120bc:	00f8a023          	sw	a5,0(a7)
   120c0:	00e80023          	sb	a4,0(a6)
   120c4:	00062783          	lw	a5,0(a2)
   120c8:	0008a683          	lw	a3,0(a7)
   120cc:	0007c783          	lbu	a5,0(a5)
   120d0:	00869713          	slli	a4,a3,0x8
   120d4:	0ff7f793          	andi	a5,a5,255
   120d8:	00d7e7b3          	or	a5,a5,a3
   120dc:	00f767b3          	or	a5,a4,a5
   120e0:	00f8a023          	sw	a5,0(a7)
   120e4:	00008067          	ret

000120e8 <_Z10SDCardInitv>:
   120e8:	00008697          	auipc	a3,0x8
   120ec:	8c46a683          	lw	a3,-1852(a3) # 199ac <_GLOBAL_OFFSET_TABLE_+0xc>
   120f0:	0006a703          	lw	a4,0(a3)
   120f4:	fff00793          	li	a5,-1
   120f8:	07700513          	li	a0,119
   120fc:	00f70023          	sb	a5,0(a4)
   12100:	0006a583          	lw	a1,0(a3)
   12104:	00010737          	lui	a4,0x10
   12108:	00008617          	auipc	a2,0x8
   1210c:	8b062603          	lw	a2,-1872(a2) # 199b8 <_GLOBAL_OFFSET_TABLE_+0x18>
   12110:	00a58023          	sb	a0,0(a1)
   12114:	0006a803          	lw	a6,0(a3)
   12118:	fff00513          	li	a0,-1
   1211c:	0ff00593          	li	a1,255
   12120:	00080023          	sb	zero,0(a6)
   12124:	0006a803          	lw	a6,0(a3)
   12128:	00080023          	sb	zero,0(a6)
   1212c:	0006a803          	lw	a6,0(a3)
   12130:	00080023          	sb	zero,0(a6)
   12134:	0006a803          	lw	a6,0(a3)
   12138:	00080023          	sb	zero,0(a6)
   1213c:	0006a803          	lw	a6,0(a3)
   12140:	00f80023          	sb	a5,0(a6)
   12144:	0080006f          	j	1214c <_Z10SDCardInitv+0x64>
   12148:	02070063          	beqz	a4,12168 <_Z10SDCardInitv+0x80>
   1214c:	0006a783          	lw	a5,0(a3)
   12150:	fff70713          	addi	a4,a4,-1 # ffff <main-0x75>
   12154:	00a78023          	sb	a0,0(a5)
   12158:	00062783          	lw	a5,0(a2)
   1215c:	0007c783          	lbu	a5,0(a5)
   12160:	0ff7f793          	andi	a5,a5,255
   12164:	feb782e3          	beq	a5,a1,12148 <_Z10SDCardInitv+0x60>
   12168:	0006a783          	lw	a5,0(a3)
   1216c:	fff00713          	li	a4,-1
   12170:	06900513          	li	a0,105
   12174:	00e78023          	sb	a4,0(a5)
   12178:	0006a583          	lw	a1,0(a3)
   1217c:	04000893          	li	a7,64
   12180:	000107b7          	lui	a5,0x10
   12184:	00a58023          	sb	a0,0(a1)
   12188:	0006a503          	lw	a0,0(a3)
   1218c:	fff00813          	li	a6,-1
   12190:	0ff00593          	li	a1,255
   12194:	01150023          	sb	a7,0(a0)
   12198:	0006a503          	lw	a0,0(a3)
   1219c:	00050023          	sb	zero,0(a0)
   121a0:	0006a503          	lw	a0,0(a3)
   121a4:	00050023          	sb	zero,0(a0)
   121a8:	0006a503          	lw	a0,0(a3)
   121ac:	00050023          	sb	zero,0(a0)
   121b0:	0006a503          	lw	a0,0(a3)
   121b4:	00e50023          	sb	a4,0(a0)
   121b8:	0080006f          	j	121c0 <_Z10SDCardInitv+0xd8>
   121bc:	02078063          	beqz	a5,121dc <_Z10SDCardInitv+0xf4>
   121c0:	0006a703          	lw	a4,0(a3)
   121c4:	fff78793          	addi	a5,a5,-1 # ffff <main-0x75>
   121c8:	01070023          	sb	a6,0(a4)
   121cc:	00062703          	lw	a4,0(a2)
   121d0:	00074503          	lbu	a0,0(a4)
   121d4:	0ff57513          	andi	a0,a0,255
   121d8:	feb502e3          	beq	a0,a1,121bc <_Z10SDCardInitv+0xd4>
   121dc:	00008067          	ret

000121e0 <_Z17SDReadSingleBlockmPhS_>:
   121e0:	00007717          	auipc	a4,0x7
   121e4:	7cc72703          	lw	a4,1996(a4) # 199ac <_GLOBAL_OFFSET_TABLE_+0xc>
   121e8:	00072783          	lw	a5,0(a4)
   121ec:	fff00813          	li	a6,-1
   121f0:	05100693          	li	a3,81
   121f4:	01078023          	sb	a6,0(a5)
   121f8:	00072783          	lw	a5,0(a4)
   121fc:	01855893          	srli	a7,a0,0x18
   12200:	00d78023          	sb	a3,0(a5)
   12204:	00072783          	lw	a5,0(a4)
   12208:	01055693          	srli	a3,a0,0x10
   1220c:	0ff6f693          	andi	a3,a3,255
   12210:	01178023          	sb	a7,0(a5)
   12214:	00072883          	lw	a7,0(a4)
   12218:	00855793          	srli	a5,a0,0x8
   1221c:	0ff7f793          	andi	a5,a5,255
   12220:	00d88023          	sb	a3,0(a7)
   12224:	00072683          	lw	a3,0(a4)
   12228:	0ff57513          	andi	a0,a0,255
   1222c:	fff00893          	li	a7,-1
   12230:	00f68023          	sb	a5,0(a3)
   12234:	00072783          	lw	a5,0(a4)
   12238:	00007697          	auipc	a3,0x7
   1223c:	7806a683          	lw	a3,1920(a3) # 199b8 <_GLOBAL_OFFSET_TABLE_+0x18>
   12240:	00a78023          	sb	a0,0(a5)
   12244:	00072783          	lw	a5,0(a4)
   12248:	01078023          	sb	a6,0(a5)
   1224c:	000107b7          	lui	a5,0x10
   12250:	0ff00813          	li	a6,255
   12254:	0080006f          	j	1225c <_Z17SDReadSingleBlockmPhS_+0x7c>
   12258:	06078063          	beqz	a5,122b8 <_Z17SDReadSingleBlockmPhS_+0xd8>
   1225c:	00072503          	lw	a0,0(a4)
   12260:	fff78793          	addi	a5,a5,-1 # ffff <main-0x75>
   12264:	01150023          	sb	a7,0(a0)
   12268:	0006a503          	lw	a0,0(a3)
   1226c:	00054503          	lbu	a0,0(a0)
   12270:	0ff57513          	andi	a0,a0,255
   12274:	ff0502e3          	beq	a0,a6,12258 <_Z17SDReadSingleBlockmPhS_+0x78>
   12278:	02051e63          	bnez	a0,122b4 <_Z17SDReadSingleBlockmPhS_+0xd4>
   1227c:	000107b7          	lui	a5,0x10
   12280:	fff00893          	li	a7,-1
   12284:	0ff00813          	li	a6,255
   12288:	0080006f          	j	12290 <_Z17SDReadSingleBlockmPhS_+0xb0>
   1228c:	02078663          	beqz	a5,122b8 <_Z17SDReadSingleBlockmPhS_+0xd8>
   12290:	00072503          	lw	a0,0(a4)
   12294:	fff78793          	addi	a5,a5,-1 # ffff <main-0x75>
   12298:	01150023          	sb	a7,0(a0)
   1229c:	0006a503          	lw	a0,0(a3)
   122a0:	00054503          	lbu	a0,0(a0)
   122a4:	0ff57513          	andi	a0,a0,255
   122a8:	ff0502e3          	beq	a0,a6,1228c <_Z17SDReadSingleBlockmPhS_+0xac>
   122ac:	0fe00793          	li	a5,254
   122b0:	00f50863          	beq	a0,a5,122c0 <_Z17SDReadSingleBlockmPhS_+0xe0>
   122b4:	00008067          	ret
   122b8:	0ff00513          	li	a0,255
   122bc:	00008067          	ret
   122c0:	00058793          	mv	a5,a1
   122c4:	20058893          	addi	a7,a1,512
   122c8:	fff00813          	li	a6,-1
   122cc:	00072583          	lw	a1,0(a4)
   122d0:	00178793          	addi	a5,a5,1
   122d4:	01058023          	sb	a6,0(a1)
   122d8:	0006a583          	lw	a1,0(a3)
   122dc:	0005c583          	lbu	a1,0(a1)
   122e0:	feb78fa3          	sb	a1,-1(a5)
   122e4:	ff1794e3          	bne	a5,a7,122cc <_Z17SDReadSingleBlockmPhS_+0xec>
   122e8:	00072783          	lw	a5,0(a4)
   122ec:	01078023          	sb	a6,0(a5)
   122f0:	0006a783          	lw	a5,0(a3)
   122f4:	0007c783          	lbu	a5,0(a5)
   122f8:	00f60023          	sb	a5,0(a2)
   122fc:	00072783          	lw	a5,0(a4)
   12300:	01078023          	sb	a6,0(a5)
   12304:	0006a783          	lw	a5,0(a3)
   12308:	0007c783          	lbu	a5,0(a5)
   1230c:	00f600a3          	sb	a5,1(a2)
   12310:	00008067          	ret

00012314 <_Z20SDReadMultipleBlocksPhmmm>:
   12314:	14058c63          	beqz	a1,1246c <_Z20SDReadMultipleBlocksPhmmm+0x158>
   12318:	da010113          	addi	sp,sp,-608
   1231c:	23812c23          	sw	s8,568(sp)
   12320:	00c58c33          	add	s8,a1,a2
   12324:	1ffc7793          	andi	a5,s8,511
   12328:	25212823          	sw	s2,592(sp)
   1232c:	25412423          	sw	s4,584(sp)
   12330:	23912a23          	sw	s9,564(sp)
   12334:	24112e23          	sw	ra,604(sp)
   12338:	24812c23          	sw	s0,600(sp)
   1233c:	24912a23          	sw	s1,596(sp)
   12340:	25312623          	sw	s3,588(sp)
   12344:	25512223          	sw	s5,580(sp)
   12348:	25612023          	sw	s6,576(sp)
   1234c:	23712e23          	sw	s7,572(sp)
   12350:	23a12823          	sw	s10,560(sp)
   12354:	23b12623          	sw	s11,556(sp)
   12358:	00965a13          	srli	s4,a2,0x9
   1235c:	009c5913          	srli	s2,s8,0x9
   12360:	00f12423          	sw	a5,8(sp)
   12364:	00058c93          	mv	s9,a1
   12368:	0f496e63          	bltu	s2,s4,12464 <_Z20SDReadMultipleBlocksPhmmm+0x150>
   1236c:	20000d13          	li	s10,512
   12370:	02010493          	addi	s1,sp,32
   12374:	40cd07b3          	sub	a5,s10,a2
   12378:	00050993          	mv	s3,a0
   1237c:	00068a93          	mv	s5,a3
   12380:	000a0c13          	mv	s8,s4
   12384:	00000413          	li	s0,0
   12388:	01c10b93          	addi	s7,sp,28
   1238c:	0fe00b13          	li	s6,254
   12390:	00c48db3          	add	s11,s1,a2
   12394:	00f12623          	sw	a5,12(sp)
   12398:	01c0006f          	j	123b4 <_Z20SDReadMultipleBlocksPhmmm+0xa0>
   1239c:	07890063          	beq	s2,s8,123fc <_Z20SDReadMultipleBlocksPhmmm+0xe8>
   123a0:	0ed020ef          	jal	ra,14c8c <memcpy>
   123a4:	20040413          	addi	s0,s0,512
   123a8:	001c0713          	addi	a4,s8,1
   123ac:	05890c63          	beq	s2,s8,12404 <_Z20SDReadMultipleBlocksPhmmm+0xf0>
   123b0:	00070c13          	mv	s8,a4
   123b4:	000b8613          	mv	a2,s7
   123b8:	00048593          	mv	a1,s1
   123bc:	018a8533          	add	a0,s5,s8
   123c0:	e21ff0ef          	jal	ra,121e0 <_Z17SDReadSingleBlockmPhS_>
   123c4:	00050713          	mv	a4,a0
   123c8:	20000613          	li	a2,512
   123cc:	00898533          	add	a0,s3,s0
   123d0:	00048593          	mv	a1,s1
   123d4:	09671463          	bne	a4,s6,1245c <_Z20SDReadMultipleBlocksPhmmm+0x148>
   123d8:	fd8a12e3          	bne	s4,s8,1239c <_Z20SDReadMultipleBlocksPhmmm+0x88>
   123dc:	000d8593          	mv	a1,s11
   123e0:	000c8d13          	mv	s10,s9
   123e4:	01490463          	beq	s2,s4,123ec <_Z20SDReadMultipleBlocksPhmmm+0xd8>
   123e8:	00c12d03          	lw	s10,12(sp)
   123ec:	000d0613          	mv	a2,s10
   123f0:	09d020ef          	jal	ra,14c8c <memcpy>
   123f4:	01a40433          	add	s0,s0,s10
   123f8:	fb1ff06f          	j	123a8 <_Z20SDReadMultipleBlocksPhmmm+0x94>
   123fc:	00812783          	lw	a5,8(sp)
   12400:	04079263          	bnez	a5,12444 <_Z20SDReadMultipleBlocksPhmmm+0x130>
   12404:	00040513          	mv	a0,s0
   12408:	25c12083          	lw	ra,604(sp)
   1240c:	25812403          	lw	s0,600(sp)
   12410:	25412483          	lw	s1,596(sp)
   12414:	25012903          	lw	s2,592(sp)
   12418:	24c12983          	lw	s3,588(sp)
   1241c:	24812a03          	lw	s4,584(sp)
   12420:	24412a83          	lw	s5,580(sp)
   12424:	24012b03          	lw	s6,576(sp)
   12428:	23c12b83          	lw	s7,572(sp)
   1242c:	23812c03          	lw	s8,568(sp)
   12430:	23412c83          	lw	s9,564(sp)
   12434:	23012d03          	lw	s10,560(sp)
   12438:	22c12d83          	lw	s11,556(sp)
   1243c:	26010113          	addi	sp,sp,608
   12440:	00008067          	ret
   12444:	00898533          	add	a0,s3,s0
   12448:	00078913          	mv	s2,a5
   1244c:	00078613          	mv	a2,a5
   12450:	03d020ef          	jal	ra,14c8c <memcpy>
   12454:	01240433          	add	s0,s0,s2
   12458:	fadff06f          	j	12404 <_Z20SDReadMultipleBlocksPhmmm+0xf0>
   1245c:	fff00513          	li	a0,-1
   12460:	fa9ff06f          	j	12408 <_Z20SDReadMultipleBlocksPhmmm+0xf4>
   12464:	00000513          	li	a0,0
   12468:	fa1ff06f          	j	12408 <_Z20SDReadMultipleBlocksPhmmm+0xf4>
   1246c:	fff00513          	li	a0,-1
   12470:	00008067          	ret

00012474 <_Z13SDCardStartupv>:
   12474:	fe010113          	addi	sp,sp,-32
   12478:	00112e23          	sw	ra,28(sp)
   1247c:	00812c23          	sw	s0,24(sp)
   12480:	00912a23          	sw	s1,20(sp)
   12484:	aa9ff0ef          	jal	ra,11f2c <_Z6SDIdlev>
   12488:	00100793          	li	a5,1
   1248c:	04f51263          	bne	a0,a5,124d0 <_Z13SDCardStartupv+0x5c>
   12490:	00050413          	mv	s0,a0
   12494:	00c10513          	addi	a0,sp,12
   12498:	b1dff0ef          	jal	ra,11fb4 <_Z19SDCheckVoltageRangeRm>
   1249c:	00050493          	mv	s1,a0
   124a0:	02851863          	bne	a0,s0,124d0 <_Z13SDCardStartupv+0x5c>
   124a4:	c45ff0ef          	jal	ra,120e8 <_Z10SDCardInitv>
   124a8:	02951463          	bne	a0,s1,124d0 <_Z13SDCardStartupv+0x5c>
   124ac:	00100413          	li	s0,1
   124b0:	c39ff0ef          	jal	ra,120e8 <_Z10SDCardInitv>
   124b4:	fe850ee3          	beq	a0,s0,124b0 <_Z13SDCardStartupv+0x3c>
   124b8:	00000513          	li	a0,0
   124bc:	01c12083          	lw	ra,28(sp)
   124c0:	01812403          	lw	s0,24(sp)
   124c4:	01412483          	lw	s1,20(sp)
   124c8:	02010113          	addi	sp,sp,32
   124cc:	00008067          	ret
   124d0:	fff00513          	li	a0,-1
   124d4:	fe9ff06f          	j	124bc <_Z13SDCardStartupv+0x48>

000124d8 <_ZL7get_fatm>:
   124d8:	00100793          	li	a5,1
   124dc:	06a7f063          	bgeu	a5,a0,1253c <_ZL7get_fatm+0x64>
   124e0:	4cc1a783          	lw	a5,1228(gp) # 19aa8 <_ZL5FatFs>
   124e4:	0087a703          	lw	a4,8(a5)
   124e8:	04e57a63          	bgeu	a0,a4,1253c <_ZL7get_fatm+0x64>
   124ec:	fe010113          	addi	sp,sp,-32
   124f0:	00112e23          	sw	ra,28(sp)
   124f4:	0007c703          	lbu	a4,0(a5)
   124f8:	00200693          	li	a3,2
   124fc:	04d70c63          	beq	a4,a3,12554 <_ZL7get_fatm+0x7c>
   12500:	00300693          	li	a3,3
   12504:	02d71463          	bne	a4,a3,1252c <_ZL7get_fatm+0x54>
   12508:	00c7a583          	lw	a1,12(a5)
   1250c:	07f57613          	andi	a2,a0,127
   12510:	00755513          	srli	a0,a0,0x7
   12514:	00b505b3          	add	a1,a0,a1
   12518:	00400693          	li	a3,4
   1251c:	00261613          	slli	a2,a2,0x2
   12520:	00c10513          	addi	a0,sp,12
   12524:	1bc010ef          	jal	ra,136e0 <_Z10disk_readpPhmtt>
   12528:	00050e63          	beqz	a0,12544 <_ZL7get_fatm+0x6c>
   1252c:	00100513          	li	a0,1
   12530:	01c12083          	lw	ra,28(sp)
   12534:	02010113          	addi	sp,sp,32
   12538:	00008067          	ret
   1253c:	00100513          	li	a0,1
   12540:	00008067          	ret
   12544:	00c12503          	lw	a0,12(sp)
   12548:	00451513          	slli	a0,a0,0x4
   1254c:	00455513          	srli	a0,a0,0x4
   12550:	fe1ff06f          	j	12530 <_ZL7get_fatm+0x58>
   12554:	00c7a583          	lw	a1,12(a5)
   12558:	0ff57613          	andi	a2,a0,255
   1255c:	00855513          	srli	a0,a0,0x8
   12560:	00b505b3          	add	a1,a0,a1
   12564:	00200693          	li	a3,2
   12568:	00161613          	slli	a2,a2,0x1
   1256c:	00c10513          	addi	a0,sp,12
   12570:	170010ef          	jal	ra,136e0 <_Z10disk_readpPhmtt>
   12574:	fa051ce3          	bnez	a0,1252c <_ZL7get_fatm+0x54>
   12578:	00c15503          	lhu	a0,12(sp)
   1257c:	fb5ff06f          	j	12530 <_ZL7get_fatm+0x58>

00012580 <_ZL11follow_pathP3DIRPhPKc>:
   12580:	fd010113          	addi	sp,sp,-48
   12584:	02912223          	sw	s1,36(sp)
   12588:	03212023          	sw	s2,32(sp)
   1258c:	01312e23          	sw	s3,28(sp)
   12590:	02112623          	sw	ra,44(sp)
   12594:	02812423          	sw	s0,40(sp)
   12598:	01412c23          	sw	s4,24(sp)
   1259c:	01512a23          	sw	s5,20(sp)
   125a0:	01612823          	sw	s6,16(sp)
   125a4:	01712623          	sw	s7,12(sp)
   125a8:	01812423          	sw	s8,8(sp)
   125ac:	01912223          	sw	s9,4(sp)
   125b0:	01a12023          	sw	s10,0(sp)
   125b4:	00064783          	lbu	a5,0(a2)
   125b8:	02000713          	li	a4,32
   125bc:	00060993          	mv	s3,a2
   125c0:	00050913          	mv	s2,a0
   125c4:	00058493          	mv	s1,a1
   125c8:	00e79863          	bne	a5,a4,125d8 <_ZL11follow_pathP3DIRPhPKc+0x58>
   125cc:	0019c783          	lbu	a5,1(s3)
   125d0:	00198993          	addi	s3,s3,1
   125d4:	fee78ce3          	beq	a5,a4,125cc <_ZL11follow_pathP3DIRPhPKc+0x4c>
   125d8:	fd178793          	addi	a5,a5,-47
   125dc:	0017b793          	seqz	a5,a5
   125e0:	00f989b3          	add	s3,s3,a5
   125e4:	00092423          	sw	zero,8(s2)
   125e8:	0009c703          	lbu	a4,0(s3)
   125ec:	4cc18a13          	addi	s4,gp,1228 # 19aa8 <_ZL5FatFs>
   125f0:	02000793          	li	a5,32
   125f4:	000a2803          	lw	a6,0(s4)
   125f8:	32e7fc63          	bgeu	a5,a4,12930 <_ZL11follow_pathP3DIRPhPKc+0x3b0>
   125fc:	00492783          	lw	a5,4(s2)
   12600:	00100b13          	li	s6,1
   12604:	00800b93          	li	s7,8
   12608:	02e00a93          	li	s5,46
   1260c:	00005c17          	auipc	s8,0x5
   12610:	e34c0c13          	addi	s8,s8,-460 # 17440 <_ZL3cvt>
   12614:	02000713          	li	a4,32
   12618:	00e78023          	sb	a4,0(a5)
   1261c:	00e780a3          	sb	a4,1(a5)
   12620:	00e78123          	sb	a4,2(a5)
   12624:	00e781a3          	sb	a4,3(a5)
   12628:	00e78223          	sb	a4,4(a5)
   1262c:	00e782a3          	sb	a4,5(a5)
   12630:	00e78323          	sb	a4,6(a5)
   12634:	00e783a3          	sb	a4,7(a5)
   12638:	00e78423          	sb	a4,8(a5)
   1263c:	00e784a3          	sb	a4,9(a5)
   12640:	00e78523          	sb	a4,10(a5)
   12644:	0009c683          	lbu	a3,0(s3)
   12648:	34d77463          	bgeu	a4,a3,12990 <_ZL11follow_pathP3DIRPhPKc+0x410>
   1264c:	00000613          	li	a2,0
   12650:	00800593          	li	a1,8
   12654:	00100713          	li	a4,1
   12658:	02f00513          	li	a0,47
   1265c:	01900e13          	li	t3,25
   12660:	02000313          	li	t1,32
   12664:	00a68663          	beq	a3,a0,12670 <_ZL11follow_pathP3DIRPhPKc+0xf0>
   12668:	23568663          	beq	a3,s5,12894 <_ZL11follow_pathP3DIRPhPKc+0x314>
   1266c:	24b66a63          	bltu	a2,a1,128c0 <_ZL11follow_pathP3DIRPhPKc+0x340>
   12670:	00e989b3          	add	s3,s3,a4
   12674:	00000713          	li	a4,0
   12678:	00e785a3          	sb	a4,11(a5)
   1267c:	00892583          	lw	a1,8(s2)
   12680:	00091023          	sh	zero,0(s2)
   12684:	0b658863          	beq	a1,s6,12734 <_ZL11follow_pathP3DIRPhPKc+0x1b4>
   12688:	00882783          	lw	a5,8(a6)
   1268c:	0af5f463          	bgeu	a1,a5,12734 <_ZL11follow_pathP3DIRPhPKc+0x1b4>
   12690:	26059663          	bnez	a1,128fc <_ZL11follow_pathP3DIRPhPKc+0x37c>
   12694:	00084683          	lbu	a3,0(a6)
   12698:	00300713          	li	a4,3
   1269c:	01082583          	lw	a1,16(a6)
   126a0:	28e68263          	beq	a3,a4,12924 <_ZL11follow_pathP3DIRPhPKc+0x3a4>
   126a4:	00092623          	sw	zero,12(s2)
   126a8:	00000c93          	li	s9,0
   126ac:	00b92823          	sw	a1,16(s2)
   126b0:	02000693          	li	a3,32
   126b4:	005c9613          	slli	a2,s9,0x5
   126b8:	00048513          	mv	a0,s1
   126bc:	024010ef          	jal	ra,136e0 <_Z10disk_readpPhmtt>
   126c0:	06051a63          	bnez	a0,12734 <_ZL11follow_pathP3DIRPhPKc+0x1b4>
   126c4:	0004c703          	lbu	a4,0(s1)
   126c8:	0a070463          	beqz	a4,12770 <_ZL11follow_pathP3DIRPhPKc+0x1f0>
   126cc:	00b4c683          	lbu	a3,11(s1)
   126d0:	0086f793          	andi	a5,a3,8
   126d4:	0a078a63          	beqz	a5,12788 <_ZL11follow_pathP3DIRPhPKc+0x208>
   126d8:	00095403          	lhu	s0,0(s2)
   126dc:	00140413          	addi	s0,s0,1
   126e0:	01041413          	slli	s0,s0,0x10
   126e4:	01045413          	srli	s0,s0,0x10
   126e8:	08040463          	beqz	s0,12770 <_ZL11follow_pathP3DIRPhPKc+0x1f0>
   126ec:	01092583          	lw	a1,16(s2)
   126f0:	08058063          	beqz	a1,12770 <_ZL11follow_pathP3DIRPhPKc+0x1f0>
   126f4:	00f47793          	andi	a5,s0,15
   126f8:	00078c93          	mv	s9,a5
   126fc:	02079063          	bnez	a5,1271c <_ZL11follow_pathP3DIRPhPKc+0x19c>
   12700:	00c92503          	lw	a0,12(s2)
   12704:	00158593          	addi	a1,a1,1
   12708:	00b92823          	sw	a1,16(s2)
   1270c:	000a2d03          	lw	s10,0(s4)
   12710:	12051463          	bnez	a0,12838 <_ZL11follow_pathP3DIRPhPKc+0x2b8>
   12714:	004d5783          	lhu	a5,4(s10)
   12718:	04f47c63          	bgeu	s0,a5,12770 <_ZL11follow_pathP3DIRPhPKc+0x1f0>
   1271c:	00891023          	sh	s0,0(s2)
   12720:	02000693          	li	a3,32
   12724:	005c9613          	slli	a2,s9,0x5
   12728:	00048513          	mv	a0,s1
   1272c:	7b5000ef          	jal	ra,136e0 <_Z10disk_readpPhmtt>
   12730:	f8050ae3          	beqz	a0,126c4 <_ZL11follow_pathP3DIRPhPKc+0x144>
   12734:	00100513          	li	a0,1
   12738:	02c12083          	lw	ra,44(sp)
   1273c:	02812403          	lw	s0,40(sp)
   12740:	02412483          	lw	s1,36(sp)
   12744:	02012903          	lw	s2,32(sp)
   12748:	01c12983          	lw	s3,28(sp)
   1274c:	01812a03          	lw	s4,24(sp)
   12750:	01412a83          	lw	s5,20(sp)
   12754:	01012b03          	lw	s6,16(sp)
   12758:	00c12b83          	lw	s7,12(sp)
   1275c:	00812c03          	lw	s8,8(sp)
   12760:	00412c83          	lw	s9,4(sp)
   12764:	00012d03          	lw	s10,0(sp)
   12768:	03010113          	addi	sp,sp,48
   1276c:	00008067          	ret
   12770:	00492783          	lw	a5,4(s2)
   12774:	00300513          	li	a0,3
   12778:	00b7c783          	lbu	a5,11(a5)
   1277c:	fa079ee3          	bnez	a5,12738 <_ZL11follow_pathP3DIRPhPKc+0x1b8>
   12780:	00400513          	li	a0,4
   12784:	fb5ff06f          	j	12738 <_ZL11follow_pathP3DIRPhPKc+0x1b8>
   12788:	00492783          	lw	a5,4(s2)
   1278c:	0007c603          	lbu	a2,0(a5)
   12790:	f4e614e3          	bne	a2,a4,126d8 <_ZL11follow_pathP3DIRPhPKc+0x158>
   12794:	0017c603          	lbu	a2,1(a5)
   12798:	0014c703          	lbu	a4,1(s1)
   1279c:	f2e61ee3          	bne	a2,a4,126d8 <_ZL11follow_pathP3DIRPhPKc+0x158>
   127a0:	0027c603          	lbu	a2,2(a5)
   127a4:	0024c703          	lbu	a4,2(s1)
   127a8:	f2e618e3          	bne	a2,a4,126d8 <_ZL11follow_pathP3DIRPhPKc+0x158>
   127ac:	0034c603          	lbu	a2,3(s1)
   127b0:	0037c703          	lbu	a4,3(a5)
   127b4:	f2e612e3          	bne	a2,a4,126d8 <_ZL11follow_pathP3DIRPhPKc+0x158>
   127b8:	0047c603          	lbu	a2,4(a5)
   127bc:	0044c703          	lbu	a4,4(s1)
   127c0:	f0e61ce3          	bne	a2,a4,126d8 <_ZL11follow_pathP3DIRPhPKc+0x158>
   127c4:	0057c603          	lbu	a2,5(a5)
   127c8:	0054c703          	lbu	a4,5(s1)
   127cc:	f0e616e3          	bne	a2,a4,126d8 <_ZL11follow_pathP3DIRPhPKc+0x158>
   127d0:	0064c603          	lbu	a2,6(s1)
   127d4:	0067c703          	lbu	a4,6(a5)
   127d8:	f0e610e3          	bne	a2,a4,126d8 <_ZL11follow_pathP3DIRPhPKc+0x158>
   127dc:	0077c603          	lbu	a2,7(a5)
   127e0:	0074c703          	lbu	a4,7(s1)
   127e4:	eee61ae3          	bne	a2,a4,126d8 <_ZL11follow_pathP3DIRPhPKc+0x158>
   127e8:	0087c603          	lbu	a2,8(a5)
   127ec:	0084c703          	lbu	a4,8(s1)
   127f0:	eee614e3          	bne	a2,a4,126d8 <_ZL11follow_pathP3DIRPhPKc+0x158>
   127f4:	0097c603          	lbu	a2,9(a5)
   127f8:	0094c703          	lbu	a4,9(s1)
   127fc:	ece61ee3          	bne	a2,a4,126d8 <_ZL11follow_pathP3DIRPhPKc+0x158>
   12800:	00a4c603          	lbu	a2,10(s1)
   12804:	00a7c703          	lbu	a4,10(a5)
   12808:	ece618e3          	bne	a2,a4,126d8 <_ZL11follow_pathP3DIRPhPKc+0x158>
   1280c:	00b7c703          	lbu	a4,11(a5)
   12810:	f20714e3          	bnez	a4,12738 <_ZL11follow_pathP3DIRPhPKc+0x1b8>
   12814:	0106f713          	andi	a4,a3,16
   12818:	f60704e3          	beqz	a4,12780 <_ZL11follow_pathP3DIRPhPKc+0x200>
   1281c:	0144d703          	lhu	a4,20(s1)
   12820:	01a4d683          	lhu	a3,26(s1)
   12824:	000a2803          	lw	a6,0(s4)
   12828:	01071713          	slli	a4,a4,0x10
   1282c:	00d76733          	or	a4,a4,a3
   12830:	00e92423          	sw	a4,8(s2)
   12834:	de1ff06f          	j	12614 <_ZL11follow_pathP3DIRPhPKc+0x94>
   12838:	002d4703          	lbu	a4,2(s10)
   1283c:	00445793          	srli	a5,s0,0x4
   12840:	fff70713          	addi	a4,a4,-1
   12844:	00f777b3          	and	a5,a4,a5
   12848:	ec079ae3          	bnez	a5,1271c <_ZL11follow_pathP3DIRPhPKc+0x19c>
   1284c:	c8dff0ef          	jal	ra,124d8 <_ZL7get_fatm>
   12850:	eeab72e3          	bgeu	s6,a0,12734 <_ZL11follow_pathP3DIRPhPKc+0x1b4>
   12854:	008d2783          	lw	a5,8(s10)
   12858:	f0f57ce3          	bgeu	a0,a5,12770 <_ZL11follow_pathP3DIRPhPKc+0x1f0>
   1285c:	000a2703          	lw	a4,0(s4)
   12860:	00a92623          	sw	a0,12(s2)
   12864:	ffe50513          	addi	a0,a0,-2
   12868:	00872783          	lw	a5,8(a4)
   1286c:	00000593          	li	a1,0
   12870:	ffe78793          	addi	a5,a5,-2
   12874:	00f57a63          	bgeu	a0,a5,12888 <_ZL11follow_pathP3DIRPhPKc+0x308>
   12878:	00274583          	lbu	a1,2(a4)
   1287c:	01472783          	lw	a5,20(a4)
   12880:	02a58533          	mul	a0,a1,a0
   12884:	00f505b3          	add	a1,a0,a5
   12888:	00b92823          	sw	a1,16(s2)
   1288c:	00891023          	sh	s0,0(s2)
   12890:	e91ff06f          	j	12720 <_ZL11follow_pathP3DIRPhPKc+0x1a0>
   12894:	dd759ee3          	bne	a1,s7,12670 <_ZL11follow_pathP3DIRPhPKc+0xf0>
   12898:	00800613          	li	a2,8
   1289c:	00b00593          	li	a1,11
   128a0:	00e986b3          	add	a3,s3,a4
   128a4:	0006c683          	lbu	a3,0(a3)
   128a8:	00170713          	addi	a4,a4,1
   128ac:	0ff77713          	andi	a4,a4,255
   128b0:	dad36ae3          	bltu	t1,a3,12664 <_ZL11follow_pathP3DIRPhPKc+0xe4>
   128b4:	00e989b3          	add	s3,s3,a4
   128b8:	00100713          	li	a4,1
   128bc:	dbdff06f          	j	12678 <_ZL11follow_pathP3DIRPhPKc+0xf8>
   128c0:	01869893          	slli	a7,a3,0x18
   128c4:	4188d893          	srai	a7,a7,0x18
   128c8:	0008d663          	bgez	a7,128d4 <_ZL11follow_pathP3DIRPhPKc+0x354>
   128cc:	00dc06b3          	add	a3,s8,a3
   128d0:	f806c683          	lbu	a3,-128(a3)
   128d4:	f9f68893          	addi	a7,a3,-97
   128d8:	0ff8f893          	andi	a7,a7,255
   128dc:	011e6663          	bltu	t3,a7,128e8 <_ZL11follow_pathP3DIRPhPKc+0x368>
   128e0:	fe068693          	addi	a3,a3,-32
   128e4:	0ff6f693          	andi	a3,a3,255
   128e8:	00c788b3          	add	a7,a5,a2
   128ec:	00160613          	addi	a2,a2,1
   128f0:	00d88023          	sb	a3,0(a7)
   128f4:	0ff67613          	andi	a2,a2,255
   128f8:	fa9ff06f          	j	128a0 <_ZL11follow_pathP3DIRPhPKc+0x320>
   128fc:	00b92623          	sw	a1,12(s2)
   12900:	ffe58713          	addi	a4,a1,-2
   12904:	ffe78793          	addi	a5,a5,-2
   12908:	00000593          	li	a1,0
   1290c:	d8f77ee3          	bgeu	a4,a5,126a8 <_ZL11follow_pathP3DIRPhPKc+0x128>
   12910:	00284583          	lbu	a1,2(a6)
   12914:	01482783          	lw	a5,20(a6)
   12918:	02e585b3          	mul	a1,a1,a4
   1291c:	00f585b3          	add	a1,a1,a5
   12920:	d89ff06f          	j	126a8 <_ZL11follow_pathP3DIRPhPKc+0x128>
   12924:	00b92623          	sw	a1,12(s2)
   12928:	fc059ce3          	bnez	a1,12900 <_ZL11follow_pathP3DIRPhPKc+0x380>
   1292c:	d7dff06f          	j	126a8 <_ZL11follow_pathP3DIRPhPKc+0x128>
   12930:	00882703          	lw	a4,8(a6)
   12934:	00091023          	sh	zero,0(s2)
   12938:	00100513          	li	a0,1
   1293c:	02070063          	beqz	a4,1295c <_ZL11follow_pathP3DIRPhPKc+0x3dc>
   12940:	00084603          	lbu	a2,0(a6)
   12944:	00300693          	li	a3,3
   12948:	01082783          	lw	a5,16(a6)
   1294c:	00d60c63          	beq	a2,a3,12964 <_ZL11follow_pathP3DIRPhPKc+0x3e4>
   12950:	00092623          	sw	zero,12(s2)
   12954:	00f92823          	sw	a5,16(s2)
   12958:	00000513          	li	a0,0
   1295c:	00048023          	sb	zero,0(s1)
   12960:	dd9ff06f          	j	12738 <_ZL11follow_pathP3DIRPhPKc+0x1b8>
   12964:	00f92623          	sw	a5,12(s2)
   12968:	fe0786e3          	beqz	a5,12954 <_ZL11follow_pathP3DIRPhPKc+0x3d4>
   1296c:	ffe78693          	addi	a3,a5,-2
   12970:	ffe70713          	addi	a4,a4,-2
   12974:	00000793          	li	a5,0
   12978:	fce6fee3          	bgeu	a3,a4,12954 <_ZL11follow_pathP3DIRPhPKc+0x3d4>
   1297c:	00284783          	lbu	a5,2(a6)
   12980:	01482703          	lw	a4,20(a6)
   12984:	02d787b3          	mul	a5,a5,a3
   12988:	00e787b3          	add	a5,a5,a4
   1298c:	fc9ff06f          	j	12954 <_ZL11follow_pathP3DIRPhPKc+0x3d4>
   12990:	00100713          	li	a4,1
   12994:	00e989b3          	add	s3,s3,a4
   12998:	00100713          	li	a4,1
   1299c:	cddff06f          	j	12678 <_ZL11follow_pathP3DIRPhPKc+0xf8>

000129a0 <_Z8pf_mountP5FATFS>:
   129a0:	fc010113          	addi	sp,sp,-64
   129a4:	02912a23          	sw	s1,52(sp)
   129a8:	02112e23          	sw	ra,60(sp)
   129ac:	02812c23          	sw	s0,56(sp)
   129b0:	03212823          	sw	s2,48(sp)
   129b4:	4c01a623          	sw	zero,1228(gp) # 19aa8 <_ZL5FatFs>
   129b8:	00000493          	li	s1,0
   129bc:	0a050063          	beqz	a0,12a5c <_Z8pf_mountP5FATFS+0xbc>
   129c0:	00050413          	mv	s0,a0
   129c4:	4fd000ef          	jal	ra,136c0 <_Z15disk_initializev>
   129c8:	00157513          	andi	a0,a0,1
   129cc:	00200493          	li	s1,2
   129d0:	08051663          	bnez	a0,12a5c <_Z8pf_mountP5FATFS+0xbc>
   129d4:	00005517          	auipc	a0,0x5
   129d8:	a2450513          	addi	a0,a0,-1500 # 173f8 <_ZL4font+0x1800>
   129dc:	b20ff0ef          	jal	ra,11cfc <_Z8EchoUARTPKc>
   129e0:	00c10493          	addi	s1,sp,12
   129e4:	00200693          	li	a3,2
   129e8:	1fe00613          	li	a2,510
   129ec:	00000593          	li	a1,0
   129f0:	00048513          	mv	a0,s1
   129f4:	4ed000ef          	jal	ra,136e0 <_Z10disk_readpPhmtt>
   129f8:	28051863          	bnez	a0,12c88 <_Z8pf_mountP5FATFS+0x2e8>
   129fc:	00c15703          	lhu	a4,12(sp)
   12a00:	0000b7b7          	lui	a5,0xb
   12a04:	a5578793          	addi	a5,a5,-1451 # aa55 <main-0x561f>
   12a08:	22f71c63          	bne	a4,a5,12c40 <_Z8pf_mountP5FATFS+0x2a0>
   12a0c:	00200693          	li	a3,2
   12a10:	05200613          	li	a2,82
   12a14:	00000593          	li	a1,0
   12a18:	00048513          	mv	a0,s1
   12a1c:	4c5000ef          	jal	ra,136e0 <_Z10disk_readpPhmtt>
   12a20:	00050913          	mv	s2,a0
   12a24:	00051a63          	bnez	a0,12a38 <_Z8pf_mountP5FATFS+0x98>
   12a28:	00c15703          	lhu	a4,12(sp)
   12a2c:	000047b7          	lui	a5,0x4
   12a30:	14678793          	addi	a5,a5,326 # 4146 <main-0xbf2e>
   12a34:	0af70263          	beq	a4,a5,12ad8 <_Z8pf_mountP5FATFS+0x138>
   12a38:	01000693          	li	a3,16
   12a3c:	1be00613          	li	a2,446
   12a40:	00000593          	li	a1,0
   12a44:	00048513          	mv	a0,s1
   12a48:	499000ef          	jal	ra,136e0 <_Z10disk_readpPhmtt>
   12a4c:	20051e63          	bnez	a0,12c68 <_Z8pf_mountP5FATFS+0x2c8>
   12a50:	01014783          	lbu	a5,16(sp)
   12a54:	02079263          	bnez	a5,12a78 <_Z8pf_mountP5FATFS+0xd8>
   12a58:	00700493          	li	s1,7
   12a5c:	03c12083          	lw	ra,60(sp)
   12a60:	03812403          	lw	s0,56(sp)
   12a64:	03012903          	lw	s2,48(sp)
   12a68:	00048513          	mv	a0,s1
   12a6c:	03412483          	lw	s1,52(sp)
   12a70:	04010113          	addi	sp,sp,64
   12a74:	00008067          	ret
   12a78:	01412903          	lw	s2,20(sp)
   12a7c:	00005517          	auipc	a0,0x5
   12a80:	99050513          	addi	a0,a0,-1648 # 1740c <_ZL4font+0x1814>
   12a84:	a78ff0ef          	jal	ra,11cfc <_Z8EchoUARTPKc>
   12a88:	00200693          	li	a3,2
   12a8c:	1fe00613          	li	a2,510
   12a90:	00090593          	mv	a1,s2
   12a94:	00048513          	mv	a0,s1
   12a98:	449000ef          	jal	ra,136e0 <_Z10disk_readpPhmtt>
   12a9c:	1e051663          	bnez	a0,12c88 <_Z8pf_mountP5FATFS+0x2e8>
   12aa0:	00c15703          	lhu	a4,12(sp)
   12aa4:	0000b7b7          	lui	a5,0xb
   12aa8:	a5578793          	addi	a5,a5,-1451 # aa55 <main-0x561f>
   12aac:	18f71a63          	bne	a4,a5,12c40 <_Z8pf_mountP5FATFS+0x2a0>
   12ab0:	00200693          	li	a3,2
   12ab4:	05200613          	li	a2,82
   12ab8:	00090593          	mv	a1,s2
   12abc:	00048513          	mv	a0,s1
   12ac0:	421000ef          	jal	ra,136e0 <_Z10disk_readpPhmtt>
   12ac4:	f8051ae3          	bnez	a0,12a58 <_Z8pf_mountP5FATFS+0xb8>
   12ac8:	00c15703          	lhu	a4,12(sp)
   12acc:	000047b7          	lui	a5,0x4
   12ad0:	14678793          	addi	a5,a5,326 # 4146 <main-0xbf2e>
   12ad4:	f8f712e3          	bne	a4,a5,12a58 <_Z8pf_mountP5FATFS+0xb8>
   12ad8:	00005517          	auipc	a0,0x5
   12adc:	94850513          	addi	a0,a0,-1720 # 17420 <_ZL4font+0x1828>
   12ae0:	a1cff0ef          	jal	ra,11cfc <_Z8EchoUARTPKc>
   12ae4:	00048513          	mv	a0,s1
   12ae8:	02400693          	li	a3,36
   12aec:	00d00613          	li	a2,13
   12af0:	00090593          	mv	a1,s2
   12af4:	3ed000ef          	jal	ra,136e0 <_Z10disk_readpPhmtt>
   12af8:	00050493          	mv	s1,a0
   12afc:	16051663          	bnez	a0,12c68 <_Z8pf_mountP5FATFS+0x2c8>
   12b00:	01614703          	lbu	a4,22(sp)
   12b04:	01514783          	lbu	a5,21(sp)
   12b08:	00871713          	slli	a4,a4,0x8
   12b0c:	00f76733          	or	a4,a4,a5
   12b10:	02071663          	bnez	a4,12b3c <_Z8pf_mountP5FATFS+0x19c>
   12b14:	02414683          	lbu	a3,36(sp)
   12b18:	02314603          	lbu	a2,35(sp)
   12b1c:	02514783          	lbu	a5,37(sp)
   12b20:	02614703          	lbu	a4,38(sp)
   12b24:	00869693          	slli	a3,a3,0x8
   12b28:	00c6e6b3          	or	a3,a3,a2
   12b2c:	01079793          	slli	a5,a5,0x10
   12b30:	00d7e7b3          	or	a5,a5,a3
   12b34:	01871713          	slli	a4,a4,0x18
   12b38:	00f76733          	or	a4,a4,a5
   12b3c:	00e14683          	lbu	a3,14(sp)
   12b40:	00d14783          	lbu	a5,13(sp)
   12b44:	00c14603          	lbu	a2,12(sp)
   12b48:	01015583          	lhu	a1,16(sp)
   12b4c:	00869693          	slli	a3,a3,0x8
   12b50:	00f6e6b3          	or	a3,a3,a5
   12b54:	00f14503          	lbu	a0,15(sp)
   12b58:	01215783          	lhu	a5,18(sp)
   12b5c:	01268933          	add	s2,a3,s2
   12b60:	01242623          	sw	s2,12(s0)
   12b64:	00c40123          	sb	a2,2(s0)
   12b68:	00b41223          	sh	a1,4(s0)
   12b6c:	02e50533          	mul	a0,a0,a4
   12b70:	02079663          	bnez	a5,12b9c <_Z8pf_mountP5FATFS+0x1fc>
   12b74:	02014803          	lbu	a6,32(sp)
   12b78:	01f14883          	lbu	a7,31(sp)
   12b7c:	02114783          	lbu	a5,33(sp)
   12b80:	02214703          	lbu	a4,34(sp)
   12b84:	00881813          	slli	a6,a6,0x8
   12b88:	01186833          	or	a6,a6,a7
   12b8c:	01079793          	slli	a5,a5,0x10
   12b90:	0107e7b3          	or	a5,a5,a6
   12b94:	01871713          	slli	a4,a4,0x18
   12b98:	00f767b3          	or	a5,a4,a5
   12b9c:	0045d713          	srli	a4,a1,0x4
   12ba0:	00e686b3          	add	a3,a3,a4
   12ba4:	00a686b3          	add	a3,a3,a0
   12ba8:	40d787b3          	sub	a5,a5,a3
   12bac:	02c7d7b3          	divu	a5,a5,a2
   12bb0:	000016b7          	lui	a3,0x1
   12bb4:	ff668693          	addi	a3,a3,-10 # ff6 <main-0xf07e>
   12bb8:	00278793          	addi	a5,a5,2
   12bbc:	00f42423          	sw	a5,8(s0)
   12bc0:	e8f6fce3          	bgeu	a3,a5,12a58 <_Z8pf_mountP5FATFS+0xb8>
   12bc4:	000106b7          	lui	a3,0x10
   12bc8:	ff668693          	addi	a3,a3,-10 # fff6 <main-0x7e>
   12bcc:	0cf6f663          	bgeu	a3,a5,12c98 <_Z8pf_mountP5FATFS+0x2f8>
   12bd0:	02c14603          	lbu	a2,44(sp)
   12bd4:	02b14583          	lbu	a1,43(sp)
   12bd8:	02d14683          	lbu	a3,45(sp)
   12bdc:	02e14783          	lbu	a5,46(sp)
   12be0:	00861613          	slli	a2,a2,0x8
   12be4:	00b66633          	or	a2,a2,a1
   12be8:	01069693          	slli	a3,a3,0x10
   12bec:	00c6e6b3          	or	a3,a3,a2
   12bf0:	01879793          	slli	a5,a5,0x18
   12bf4:	00d7e7b3          	or	a5,a5,a3
   12bf8:	00300693          	li	a3,3
   12bfc:	00e90733          	add	a4,s2,a4
   12c00:	00a70733          	add	a4,a4,a0
   12c04:	00f42823          	sw	a5,16(s0)
   12c08:	00d40023          	sb	a3,0(s0)
   12c0c:	00e42a23          	sw	a4,20(s0)
   12c10:	000400a3          	sb	zero,1(s0)
   12c14:	00005517          	auipc	a0,0x5
   12c18:	82050513          	addi	a0,a0,-2016 # 17434 <_ZL4font+0x183c>
   12c1c:	4c81a623          	sw	s0,1228(gp) # 19aa8 <_ZL5FatFs>
   12c20:	8dcff0ef          	jal	ra,11cfc <_Z8EchoUARTPKc>
   12c24:	03c12083          	lw	ra,60(sp)
   12c28:	03812403          	lw	s0,56(sp)
   12c2c:	03012903          	lw	s2,48(sp)
   12c30:	00048513          	mv	a0,s1
   12c34:	03412483          	lw	s1,52(sp)
   12c38:	04010113          	addi	sp,sp,64
   12c3c:	00008067          	ret
   12c40:	00200513          	li	a0,2
   12c44:	8e4ff0ef          	jal	ra,11d28 <_Z7EchoIntm>
   12c48:	03c12083          	lw	ra,60(sp)
   12c4c:	03812403          	lw	s0,56(sp)
   12c50:	00700493          	li	s1,7
   12c54:	03012903          	lw	s2,48(sp)
   12c58:	00048513          	mv	a0,s1
   12c5c:	03412483          	lw	s1,52(sp)
   12c60:	04010113          	addi	sp,sp,64
   12c64:	00008067          	ret
   12c68:	03c12083          	lw	ra,60(sp)
   12c6c:	03812403          	lw	s0,56(sp)
   12c70:	00100493          	li	s1,1
   12c74:	03012903          	lw	s2,48(sp)
   12c78:	00048513          	mv	a0,s1
   12c7c:	03412483          	lw	s1,52(sp)
   12c80:	04010113          	addi	sp,sp,64
   12c84:	00008067          	ret
   12c88:	00300513          	li	a0,3
   12c8c:	89cff0ef          	jal	ra,11d28 <_Z7EchoIntm>
   12c90:	00100493          	li	s1,1
   12c94:	dc9ff06f          	j	12a5c <_Z8pf_mountP5FATFS+0xbc>
   12c98:	00a907b3          	add	a5,s2,a0
   12c9c:	00200693          	li	a3,2
   12ca0:	f5dff06f          	j	12bfc <_Z8pf_mountP5FATFS+0x25c>

00012ca4 <_Z7pf_openPKc>:
   12ca4:	fb010113          	addi	sp,sp,-80
   12ca8:	04812423          	sw	s0,72(sp)
   12cac:	04112623          	sw	ra,76(sp)
   12cb0:	4cc1a403          	lw	s0,1228(gp) # 19aa8 <_ZL5FatFs>
   12cb4:	08040263          	beqz	s0,12d38 <_Z7pf_openPKc+0x94>
   12cb8:	00050613          	mv	a2,a0
   12cbc:	000400a3          	sb	zero,1(s0)
   12cc0:	00010793          	mv	a5,sp
   12cc4:	02010593          	addi	a1,sp,32
   12cc8:	00c10513          	addi	a0,sp,12
   12ccc:	00f12823          	sw	a5,16(sp)
   12cd0:	8b1ff0ef          	jal	ra,12580 <_ZL11follow_pathP3DIRPhPKc>
   12cd4:	04051063          	bnez	a0,12d14 <_Z7pf_openPKc+0x70>
   12cd8:	02014783          	lbu	a5,32(sp)
   12cdc:	04078463          	beqz	a5,12d24 <_Z7pf_openPKc+0x80>
   12ce0:	02b14783          	lbu	a5,43(sp)
   12ce4:	0107f793          	andi	a5,a5,16
   12ce8:	02079e63          	bnez	a5,12d24 <_Z7pf_openPKc+0x80>
   12cec:	03415783          	lhu	a5,52(sp)
   12cf0:	03a15703          	lhu	a4,58(sp)
   12cf4:	01079793          	slli	a5,a5,0x10
   12cf8:	00e7e7b3          	or	a5,a5,a4
   12cfc:	02f42023          	sw	a5,32(s0)
   12d00:	03c12783          	lw	a5,60(sp)
   12d04:	00042c23          	sw	zero,24(s0)
   12d08:	00f42e23          	sw	a5,28(s0)
   12d0c:	00100793          	li	a5,1
   12d10:	00f400a3          	sb	a5,1(s0)
   12d14:	04c12083          	lw	ra,76(sp)
   12d18:	04812403          	lw	s0,72(sp)
   12d1c:	05010113          	addi	sp,sp,80
   12d20:	00008067          	ret
   12d24:	04c12083          	lw	ra,76(sp)
   12d28:	04812403          	lw	s0,72(sp)
   12d2c:	00300513          	li	a0,3
   12d30:	05010113          	addi	sp,sp,80
   12d34:	00008067          	ret
   12d38:	04c12083          	lw	ra,76(sp)
   12d3c:	04812403          	lw	s0,72(sp)
   12d40:	00600513          	li	a0,6
   12d44:	05010113          	addi	sp,sp,80
   12d48:	00008067          	ret

00012d4c <_Z7pf_readPvtPt>:
   12d4c:	fd010113          	addi	sp,sp,-48
   12d50:	01312e23          	sw	s3,28(sp)
   12d54:	4cc18993          	addi	s3,gp,1228 # 19aa8 <_ZL5FatFs>
   12d58:	01612823          	sw	s6,16(sp)
   12d5c:	0009ab03          	lw	s6,0(s3)
   12d60:	02112623          	sw	ra,44(sp)
   12d64:	02812423          	sw	s0,40(sp)
   12d68:	02912223          	sw	s1,36(sp)
   12d6c:	03212023          	sw	s2,32(sp)
   12d70:	01412c23          	sw	s4,24(sp)
   12d74:	01512a23          	sw	s5,20(sp)
   12d78:	01712623          	sw	s7,12(sp)
   12d7c:	01812423          	sw	s8,8(sp)
   12d80:	00061023          	sh	zero,0(a2)
   12d84:	180b0663          	beqz	s6,12f10 <_Z7pf_readPvtPt+0x1c4>
   12d88:	001b4783          	lbu	a5,1(s6)
   12d8c:	00050913          	mv	s2,a0
   12d90:	00500513          	li	a0,5
   12d94:	0017f793          	andi	a5,a5,1
   12d98:	0a078463          	beqz	a5,12e40 <_Z7pf_readPvtPt+0xf4>
   12d9c:	018b2703          	lw	a4,24(s6)
   12da0:	01cb2783          	lw	a5,28(s6)
   12da4:	00060b93          	mv	s7,a2
   12da8:	00058493          	mv	s1,a1
   12dac:	40e787b3          	sub	a5,a5,a4
   12db0:	14b7e463          	bltu	a5,a1,12ef8 <_Z7pf_readPvtPt+0x1ac>
   12db4:	00090c13          	mv	s8,s2
   12db8:	00100a93          	li	s5,1
   12dbc:	20000a13          	li	s4,512
   12dc0:	06048e63          	beqz	s1,12e3c <_Z7pf_readPvtPt+0xf0>
   12dc4:	1ff77793          	andi	a5,a4,511
   12dc8:	0a078463          	beqz	a5,12e70 <_Z7pf_readPvtPt+0x124>
   12dcc:	028b2583          	lw	a1,40(s6)
   12dd0:	40fa0733          	sub	a4,s4,a5
   12dd4:	01071713          	slli	a4,a4,0x10
   12dd8:	01075713          	srli	a4,a4,0x10
   12ddc:	01079613          	slli	a2,a5,0x10
   12de0:	01065613          	srli	a2,a2,0x10
   12de4:	00070413          	mv	s0,a4
   12de8:	00e4f463          	bgeu	s1,a4,12df0 <_Z7pf_readPvtPt+0xa4>
   12dec:	00048413          	mv	s0,s1
   12df0:	01041413          	slli	s0,s0,0x10
   12df4:	01045413          	srli	s0,s0,0x10
   12df8:	00000513          	li	a0,0
   12dfc:	00090463          	beqz	s2,12e04 <_Z7pf_readPvtPt+0xb8>
   12e00:	000c0513          	mv	a0,s8
   12e04:	00040693          	mv	a3,s0
   12e08:	0d9000ef          	jal	ra,136e0 <_Z10disk_readpPhmtt>
   12e0c:	0e051063          	bnez	a0,12eec <_Z7pf_readPvtPt+0x1a0>
   12e10:	018b2703          	lw	a4,24(s6)
   12e14:	000bd783          	lhu	a5,0(s7)
   12e18:	408484b3          	sub	s1,s1,s0
   12e1c:	00e40733          	add	a4,s0,a4
   12e20:	00eb2c23          	sw	a4,24(s6)
   12e24:	00f407b3          	add	a5,s0,a5
   12e28:	01049493          	slli	s1,s1,0x10
   12e2c:	0104d493          	srli	s1,s1,0x10
   12e30:	00fb9023          	sh	a5,0(s7)
   12e34:	008c0c33          	add	s8,s8,s0
   12e38:	f80496e3          	bnez	s1,12dc4 <_Z7pf_readPvtPt+0x78>
   12e3c:	00000513          	li	a0,0
   12e40:	02c12083          	lw	ra,44(sp)
   12e44:	02812403          	lw	s0,40(sp)
   12e48:	02412483          	lw	s1,36(sp)
   12e4c:	02012903          	lw	s2,32(sp)
   12e50:	01c12983          	lw	s3,28(sp)
   12e54:	01812a03          	lw	s4,24(sp)
   12e58:	01412a83          	lw	s5,20(sp)
   12e5c:	01012b03          	lw	s6,16(sp)
   12e60:	00c12b83          	lw	s7,12(sp)
   12e64:	00812c03          	lw	s8,8(sp)
   12e68:	03010113          	addi	sp,sp,48
   12e6c:	00008067          	ret
   12e70:	002b4783          	lbu	a5,2(s6)
   12e74:	00975593          	srli	a1,a4,0x9
   12e78:	fff78793          	addi	a5,a5,-1
   12e7c:	00b7f5b3          	and	a1,a5,a1
   12e80:	0ff5f413          	andi	s0,a1,255
   12e84:	04040263          	beqz	s0,12ec8 <_Z7pf_readPvtPt+0x17c>
   12e88:	0009a703          	lw	a4,0(s3)
   12e8c:	024b2503          	lw	a0,36(s6)
   12e90:	00872783          	lw	a5,8(a4)
   12e94:	ffe50513          	addi	a0,a0,-2
   12e98:	ffe78793          	addi	a5,a5,-2
   12e9c:	04f57863          	bgeu	a0,a5,12eec <_Z7pf_readPvtPt+0x1a0>
   12ea0:	00274583          	lbu	a1,2(a4)
   12ea4:	01472783          	lw	a5,20(a4)
   12ea8:	02a58533          	mul	a0,a1,a0
   12eac:	00f505b3          	add	a1,a0,a5
   12eb0:	02058e63          	beqz	a1,12eec <_Z7pf_readPvtPt+0x1a0>
   12eb4:	018b2703          	lw	a4,24(s6)
   12eb8:	00b405b3          	add	a1,s0,a1
   12ebc:	02bb2423          	sw	a1,40(s6)
   12ec0:	1ff77793          	andi	a5,a4,511
   12ec4:	f0dff06f          	j	12dd0 <_Z7pf_readPvtPt+0x84>
   12ec8:	02071e63          	bnez	a4,12f04 <_Z7pf_readPvtPt+0x1b8>
   12ecc:	020b2503          	lw	a0,32(s6)
   12ed0:	00aafe63          	bgeu	s5,a0,12eec <_Z7pf_readPvtPt+0x1a0>
   12ed4:	0009a703          	lw	a4,0(s3)
   12ed8:	02ab2223          	sw	a0,36(s6)
   12edc:	ffe50513          	addi	a0,a0,-2
   12ee0:	00872783          	lw	a5,8(a4)
   12ee4:	ffe78793          	addi	a5,a5,-2
   12ee8:	faf56ce3          	bltu	a0,a5,12ea0 <_Z7pf_readPvtPt+0x154>
   12eec:	000b00a3          	sb	zero,1(s6)
   12ef0:	00100513          	li	a0,1
   12ef4:	f4dff06f          	j	12e40 <_Z7pf_readPvtPt+0xf4>
   12ef8:	01079493          	slli	s1,a5,0x10
   12efc:	0104d493          	srli	s1,s1,0x10
   12f00:	eb5ff06f          	j	12db4 <_Z7pf_readPvtPt+0x68>
   12f04:	024b2503          	lw	a0,36(s6)
   12f08:	dd0ff0ef          	jal	ra,124d8 <_ZL7get_fatm>
   12f0c:	fc5ff06f          	j	12ed0 <_Z7pf_readPvtPt+0x184>
   12f10:	00600513          	li	a0,6
   12f14:	f2dff06f          	j	12e40 <_Z7pf_readPvtPt+0xf4>

00012f18 <_Z8pf_lseekm>:
   12f18:	fc010113          	addi	sp,sp,-64
   12f1c:	02912a23          	sw	s1,52(sp)
   12f20:	4cc18493          	addi	s1,gp,1228 # 19aa8 <_ZL5FatFs>
   12f24:	02812c23          	sw	s0,56(sp)
   12f28:	0004a403          	lw	s0,0(s1)
   12f2c:	02112e23          	sw	ra,60(sp)
   12f30:	03212823          	sw	s2,48(sp)
   12f34:	03312623          	sw	s3,44(sp)
   12f38:	03412423          	sw	s4,40(sp)
   12f3c:	03512223          	sw	s5,36(sp)
   12f40:	03612023          	sw	s6,32(sp)
   12f44:	01712e23          	sw	s7,28(sp)
   12f48:	01812c23          	sw	s8,24(sp)
   12f4c:	1c040663          	beqz	s0,13118 <_Z8pf_lseekm+0x200>
   12f50:	00144703          	lbu	a4,1(s0)
   12f54:	00050793          	mv	a5,a0
   12f58:	00500513          	li	a0,5
   12f5c:	00177713          	andi	a4,a4,1
   12f60:	08070863          	beqz	a4,12ff0 <_Z8pf_lseekm+0xd8>
   12f64:	01c42503          	lw	a0,28(s0)
   12f68:	0aa7ec63          	bltu	a5,a0,13020 <_Z8pf_lseekm+0x108>
   12f6c:	01842783          	lw	a5,24(s0)
   12f70:	00042c23          	sw	zero,24(s0)
   12f74:	06050e63          	beqz	a0,12ff0 <_Z8pf_lseekm+0xd8>
   12f78:	00244b03          	lbu	s6,2(s0)
   12f7c:	009b1b13          	slli	s6,s6,0x9
   12f80:	0a078a63          	beqz	a5,13034 <_Z8pf_lseekm+0x11c>
   12f84:	fff78713          	addi	a4,a5,-1
   12f88:	fff50793          	addi	a5,a0,-1
   12f8c:	0367d7b3          	divu	a5,a5,s6
   12f90:	036756b3          	divu	a3,a4,s6
   12f94:	0ad7e063          	bltu	a5,a3,13034 <_Z8pf_lseekm+0x11c>
   12f98:	41600bb3          	neg	s7,s6
   12f9c:	02442783          	lw	a5,36(s0)
   12fa0:	00ebf733          	and	a4,s7,a4
   12fa4:	00e42c23          	sw	a4,24(s0)
   12fa8:	40e50bb3          	sub	s7,a0,a4
   12fac:	177b7a63          	bgeu	s6,s7,13120 <_Z8pf_lseekm+0x208>
   12fb0:	00100713          	li	a4,1
   12fb4:	00040693          	mv	a3,s0
   12fb8:	02f77863          	bgeu	a4,a5,12fe8 <_Z8pf_lseekm+0xd0>
   12fbc:	10000a37          	lui	s4,0x10000
   12fc0:	00200993          	li	s3,2
   12fc4:	00c10c13          	addi	s8,sp,12
   12fc8:	00300913          	li	s2,3
   12fcc:	fffa0a13          	addi	s4,s4,-1 # fffffff <__BSS_END__+0xffe6223>
   12fd0:	00100a93          	li	s5,1
   12fd4:	0086a703          	lw	a4,8(a3)
   12fd8:	00e7f863          	bgeu	a5,a4,12fe8 <_Z8pf_lseekm+0xd0>
   12fdc:	0006c703          	lbu	a4,0(a3)
   12fe0:	0d370063          	beq	a4,s3,130a0 <_Z8pf_lseekm+0x188>
   12fe4:	07270063          	beq	a4,s2,13044 <_Z8pf_lseekm+0x12c>
   12fe8:	000400a3          	sb	zero,1(s0)
   12fec:	00100513          	li	a0,1
   12ff0:	03c12083          	lw	ra,60(sp)
   12ff4:	03812403          	lw	s0,56(sp)
   12ff8:	03412483          	lw	s1,52(sp)
   12ffc:	03012903          	lw	s2,48(sp)
   13000:	02c12983          	lw	s3,44(sp)
   13004:	02812a03          	lw	s4,40(sp)
   13008:	02412a83          	lw	s5,36(sp)
   1300c:	02012b03          	lw	s6,32(sp)
   13010:	01c12b83          	lw	s7,28(sp)
   13014:	01812c03          	lw	s8,24(sp)
   13018:	04010113          	addi	sp,sp,64
   1301c:	00008067          	ret
   13020:	00078513          	mv	a0,a5
   13024:	01842783          	lw	a5,24(s0)
   13028:	00042c23          	sw	zero,24(s0)
   1302c:	fc0502e3          	beqz	a0,12ff0 <_Z8pf_lseekm+0xd8>
   13030:	f49ff06f          	j	12f78 <_Z8pf_lseekm+0x60>
   13034:	02042783          	lw	a5,32(s0)
   13038:	00050b93          	mv	s7,a0
   1303c:	02f42223          	sw	a5,36(s0)
   13040:	f6dff06f          	j	12fac <_Z8pf_lseekm+0x94>
   13044:	00c6a503          	lw	a0,12(a3)
   13048:	07f7f613          	andi	a2,a5,127
   1304c:	0077d593          	srli	a1,a5,0x7
   13050:	00a585b3          	add	a1,a1,a0
   13054:	00400693          	li	a3,4
   13058:	00261613          	slli	a2,a2,0x2
   1305c:	000c0513          	mv	a0,s8
   13060:	680000ef          	jal	ra,136e0 <_Z10disk_readpPhmtt>
   13064:	f80512e3          	bnez	a0,12fe8 <_Z8pf_lseekm+0xd0>
   13068:	00c12783          	lw	a5,12(sp)
   1306c:	0147f7b3          	and	a5,a5,s4
   13070:	f6fafce3          	bgeu	s5,a5,12fe8 <_Z8pf_lseekm+0xd0>
   13074:	00842703          	lw	a4,8(s0)
   13078:	f6e7f8e3          	bgeu	a5,a4,12fe8 <_Z8pf_lseekm+0xd0>
   1307c:	01842503          	lw	a0,24(s0)
   13080:	02f42223          	sw	a5,36(s0)
   13084:	416b8733          	sub	a4,s7,s6
   13088:	016506b3          	add	a3,a0,s6
   1308c:	00d42c23          	sw	a3,24(s0)
   13090:	0004a683          	lw	a3,0(s1)
   13094:	02eb7c63          	bgeu	s6,a4,130cc <_Z8pf_lseekm+0x1b4>
   13098:	00070b93          	mv	s7,a4
   1309c:	f39ff06f          	j	12fd4 <_Z8pf_lseekm+0xbc>
   130a0:	00c6a703          	lw	a4,12(a3)
   130a4:	0ff7f613          	andi	a2,a5,255
   130a8:	0087d593          	srli	a1,a5,0x8
   130ac:	00200693          	li	a3,2
   130b0:	00161613          	slli	a2,a2,0x1
   130b4:	00e585b3          	add	a1,a1,a4
   130b8:	000c0513          	mv	a0,s8
   130bc:	624000ef          	jal	ra,136e0 <_Z10disk_readpPhmtt>
   130c0:	f20514e3          	bnez	a0,12fe8 <_Z8pf_lseekm+0xd0>
   130c4:	00c15783          	lhu	a5,12(sp)
   130c8:	fa9ff06f          	j	13070 <_Z8pf_lseekm+0x158>
   130cc:	01750533          	add	a0,a0,s7
   130d0:	0086a703          	lw	a4,8(a3)
   130d4:	ffe78793          	addi	a5,a5,-2
   130d8:	00a42c23          	sw	a0,24(s0)
   130dc:	ffe70713          	addi	a4,a4,-2
   130e0:	f0e7f4e3          	bgeu	a5,a4,12fe8 <_Z8pf_lseekm+0xd0>
   130e4:	0026c703          	lbu	a4,2(a3)
   130e8:	0146a683          	lw	a3,20(a3)
   130ec:	02f707b3          	mul	a5,a4,a5
   130f0:	00d787b3          	add	a5,a5,a3
   130f4:	ee078ae3          	beqz	a5,12fe8 <_Z8pf_lseekm+0xd0>
   130f8:	00244703          	lbu	a4,2(s0)
   130fc:	00955693          	srli	a3,a0,0x9
   13100:	00000513          	li	a0,0
   13104:	fff70713          	addi	a4,a4,-1
   13108:	00d77733          	and	a4,a4,a3
   1310c:	00f707b3          	add	a5,a4,a5
   13110:	02f42423          	sw	a5,40(s0)
   13114:	eddff06f          	j	12ff0 <_Z8pf_lseekm+0xd8>
   13118:	00600513          	li	a0,6
   1311c:	ed5ff06f          	j	12ff0 <_Z8pf_lseekm+0xd8>
   13120:	00040693          	mv	a3,s0
   13124:	fadff06f          	j	130d0 <_Z8pf_lseekm+0x1b8>

00013128 <_Z10pf_opendirP3DIRPKc>:
   13128:	fc010113          	addi	sp,sp,-64
   1312c:	02912a23          	sw	s1,52(sp)
   13130:	4cc18493          	addi	s1,gp,1228 # 19aa8 <_ZL5FatFs>
   13134:	0004a783          	lw	a5,0(s1)
   13138:	02112e23          	sw	ra,60(sp)
   1313c:	02812c23          	sw	s0,56(sp)
   13140:	0a078863          	beqz	a5,131f0 <_Z10pf_opendirP3DIRPKc+0xc8>
   13144:	00410793          	addi	a5,sp,4
   13148:	00058613          	mv	a2,a1
   1314c:	00f52223          	sw	a5,4(a0)
   13150:	01010593          	addi	a1,sp,16
   13154:	00050413          	mv	s0,a0
   13158:	c28ff0ef          	jal	ra,12580 <_ZL11follow_pathP3DIRPhPKc>
   1315c:	06051a63          	bnez	a0,131d0 <_Z10pf_opendirP3DIRPKc+0xa8>
   13160:	01014783          	lbu	a5,16(sp)
   13164:	0a078263          	beqz	a5,13208 <_Z10pf_opendirP3DIRPKc+0xe0>
   13168:	01b14783          	lbu	a5,27(sp)
   1316c:	0107f793          	andi	a5,a5,16
   13170:	06078463          	beqz	a5,131d8 <_Z10pf_opendirP3DIRPKc+0xb0>
   13174:	02415783          	lhu	a5,36(sp)
   13178:	02a15703          	lhu	a4,42(sp)
   1317c:	01079793          	slli	a5,a5,0x10
   13180:	00e7e7b3          	or	a5,a5,a4
   13184:	00f42423          	sw	a5,8(s0)
   13188:	00041023          	sh	zero,0(s0)
   1318c:	00100693          	li	a3,1
   13190:	0004a703          	lw	a4,0(s1)
   13194:	06d78e63          	beq	a5,a3,13210 <_Z10pf_opendirP3DIRPKc+0xe8>
   13198:	00872683          	lw	a3,8(a4)
   1319c:	06d7fa63          	bgeu	a5,a3,13210 <_Z10pf_opendirP3DIRPKc+0xe8>
   131a0:	08079463          	bnez	a5,13228 <_Z10pf_opendirP3DIRPKc+0x100>
   131a4:	00074583          	lbu	a1,0(a4)
   131a8:	00300613          	li	a2,3
   131ac:	01072783          	lw	a5,16(a4)
   131b0:	0ac58263          	beq	a1,a2,13254 <_Z10pf_opendirP3DIRPKc+0x12c>
   131b4:	00042623          	sw	zero,12(s0)
   131b8:	00f42823          	sw	a5,16(s0)
   131bc:	03c12083          	lw	ra,60(sp)
   131c0:	03812403          	lw	s0,56(sp)
   131c4:	03412483          	lw	s1,52(sp)
   131c8:	04010113          	addi	sp,sp,64
   131cc:	00008067          	ret
   131d0:	00300793          	li	a5,3
   131d4:	00f51463          	bne	a0,a5,131dc <_Z10pf_opendirP3DIRPKc+0xb4>
   131d8:	00400513          	li	a0,4
   131dc:	03c12083          	lw	ra,60(sp)
   131e0:	03812403          	lw	s0,56(sp)
   131e4:	03412483          	lw	s1,52(sp)
   131e8:	04010113          	addi	sp,sp,64
   131ec:	00008067          	ret
   131f0:	03c12083          	lw	ra,60(sp)
   131f4:	03812403          	lw	s0,56(sp)
   131f8:	03412483          	lw	s1,52(sp)
   131fc:	00600513          	li	a0,6
   13200:	04010113          	addi	sp,sp,64
   13204:	00008067          	ret
   13208:	00842783          	lw	a5,8(s0)
   1320c:	f7dff06f          	j	13188 <_Z10pf_opendirP3DIRPKc+0x60>
   13210:	03c12083          	lw	ra,60(sp)
   13214:	03812403          	lw	s0,56(sp)
   13218:	03412483          	lw	s1,52(sp)
   1321c:	00100513          	li	a0,1
   13220:	04010113          	addi	sp,sp,64
   13224:	00008067          	ret
   13228:	00f42623          	sw	a5,12(s0)
   1322c:	ffe78613          	addi	a2,a5,-2
   13230:	ffe68693          	addi	a3,a3,-2
   13234:	00000793          	li	a5,0
   13238:	f8d670e3          	bgeu	a2,a3,131b8 <_Z10pf_opendirP3DIRPKc+0x90>
   1323c:	00274783          	lbu	a5,2(a4)
   13240:	01472703          	lw	a4,20(a4)
   13244:	02c787b3          	mul	a5,a5,a2
   13248:	00e787b3          	add	a5,a5,a4
   1324c:	00f42823          	sw	a5,16(s0)
   13250:	f6dff06f          	j	131bc <_Z10pf_opendirP3DIRPKc+0x94>
   13254:	00f42623          	sw	a5,12(s0)
   13258:	fc079ae3          	bnez	a5,1322c <_Z10pf_opendirP3DIRPKc+0x104>
   1325c:	00f42823          	sw	a5,16(s0)
   13260:	f5dff06f          	j	131bc <_Z10pf_opendirP3DIRPKc+0x94>

00013264 <_Z10pf_readdirP3DIRP7FILINFO>:
   13264:	fa010113          	addi	sp,sp,-96
   13268:	04912a23          	sw	s1,84(sp)
   1326c:	4cc18493          	addi	s1,gp,1228 # 19aa8 <_ZL5FatFs>
   13270:	03812c23          	sw	s8,56(sp)
   13274:	0004ac03          	lw	s8,0(s1)
   13278:	04112e23          	sw	ra,92(sp)
   1327c:	04812c23          	sw	s0,88(sp)
   13280:	05212823          	sw	s2,80(sp)
   13284:	05312623          	sw	s3,76(sp)
   13288:	05412423          	sw	s4,72(sp)
   1328c:	05512223          	sw	s5,68(sp)
   13290:	05612023          	sw	s6,64(sp)
   13294:	03712e23          	sw	s7,60(sp)
   13298:	03912a23          	sw	s9,52(sp)
   1329c:	360c0663          	beqz	s8,13608 <_Z10pf_readdirP3DIRP7FILINFO+0x3a4>
   132a0:	00410793          	addi	a5,sp,4
   132a4:	00f52223          	sw	a5,4(a0)
   132a8:	00050b93          	mv	s7,a0
   132ac:	00058913          	mv	s2,a1
   132b0:	18058c63          	beqz	a1,13448 <_Z10pf_readdirP3DIRP7FILINFO+0x1e4>
   132b4:	01052583          	lw	a1,16(a0)
   132b8:	32058c63          	beqz	a1,135f0 <_Z10pf_readdirP3DIRP7FILINFO+0x38c>
   132bc:	00055403          	lhu	s0,0(a0)
   132c0:	01010993          	addi	s3,sp,16
   132c4:	0e500a13          	li	s4,229
   132c8:	00f47c93          	andi	s9,s0,15
   132cc:	02e00a93          	li	s5,46
   132d0:	00100b13          	li	s6,1
   132d4:	02000693          	li	a3,32
   132d8:	005c9613          	slli	a2,s9,0x5
   132dc:	00098513          	mv	a0,s3
   132e0:	400000ef          	jal	ra,136e0 <_Z10disk_readpPhmtt>
   132e4:	0c051a63          	bnez	a0,133b8 <_Z10pf_readdirP3DIRP7FILINFO+0x154>
   132e8:	01014783          	lbu	a5,16(sp)
   132ec:	30078063          	beqz	a5,135ec <_Z10pf_readdirP3DIRP7FILINFO+0x388>
   132f0:	01478a63          	beq	a5,s4,13304 <_Z10pf_readdirP3DIRP7FILINFO+0xa0>
   132f4:	01578863          	beq	a5,s5,13304 <_Z10pf_readdirP3DIRP7FILINFO+0xa0>
   132f8:	01b14703          	lbu	a4,27(sp)
   132fc:	00877693          	andi	a3,a4,8
   13300:	18068263          	beqz	a3,13484 <_Z10pf_readdirP3DIRP7FILINFO+0x220>
   13304:	000bd403          	lhu	s0,0(s7)
   13308:	0004ac03          	lw	s8,0(s1)
   1330c:	00140413          	addi	s0,s0,1
   13310:	01041413          	slli	s0,s0,0x10
   13314:	01045413          	srli	s0,s0,0x10
   13318:	2c040c63          	beqz	s0,135f0 <_Z10pf_readdirP3DIRP7FILINFO+0x38c>
   1331c:	010ba583          	lw	a1,16(s7)
   13320:	2c058863          	beqz	a1,135f0 <_Z10pf_readdirP3DIRP7FILINFO+0x38c>
   13324:	00f47793          	andi	a5,s0,15
   13328:	00078c93          	mv	s9,a5
   1332c:	06079a63          	bnez	a5,133a0 <_Z10pf_readdirP3DIRP7FILINFO+0x13c>
   13330:	00cba503          	lw	a0,12(s7)
   13334:	00158593          	addi	a1,a1,1
   13338:	00bba823          	sw	a1,16(s7)
   1333c:	0a051c63          	bnez	a0,133f4 <_Z10pf_readdirP3DIRP7FILINFO+0x190>
   13340:	004c5783          	lhu	a5,4(s8)
   13344:	2af47663          	bgeu	s0,a5,135f0 <_Z10pf_readdirP3DIRP7FILINFO+0x38c>
   13348:	008b9023          	sh	s0,0(s7)
   1334c:	f80594e3          	bnez	a1,132d4 <_Z10pf_readdirP3DIRP7FILINFO+0x70>
   13350:	00990693          	addi	a3,s2,9
   13354:	00068023          	sb	zero,0(a3)
   13358:	000bd403          	lhu	s0,0(s7)
   1335c:	00140413          	addi	s0,s0,1
   13360:	01041413          	slli	s0,s0,0x10
   13364:	01045413          	srli	s0,s0,0x10
   13368:	28040a63          	beqz	s0,135fc <_Z10pf_readdirP3DIRP7FILINFO+0x398>
   1336c:	010ba783          	lw	a5,16(s7)
   13370:	28078663          	beqz	a5,135fc <_Z10pf_readdirP3DIRP7FILINFO+0x398>
   13374:	00f47713          	andi	a4,s0,15
   13378:	00071e63          	bnez	a4,13394 <_Z10pf_readdirP3DIRP7FILINFO+0x130>
   1337c:	00cba503          	lw	a0,12(s7)
   13380:	00178793          	addi	a5,a5,1
   13384:	00fba823          	sw	a5,16(s7)
   13388:	2a051863          	bnez	a0,13638 <_Z10pf_readdirP3DIRP7FILINFO+0x3d4>
   1338c:	004c5783          	lhu	a5,4(s8)
   13390:	26f47663          	bgeu	s0,a5,135fc <_Z10pf_readdirP3DIRP7FILINFO+0x398>
   13394:	008b9023          	sh	s0,0(s7)
   13398:	00000513          	li	a0,0
   1339c:	0240006f          	j	133c0 <_Z10pf_readdirP3DIRP7FILINFO+0x15c>
   133a0:	008b9023          	sh	s0,0(s7)
   133a4:	02000693          	li	a3,32
   133a8:	005c9613          	slli	a2,s9,0x5
   133ac:	00098513          	mv	a0,s3
   133b0:	330000ef          	jal	ra,136e0 <_Z10disk_readpPhmtt>
   133b4:	f2050ae3          	beqz	a0,132e8 <_Z10pf_readdirP3DIRP7FILINFO+0x84>
   133b8:	000ba823          	sw	zero,16(s7)
   133bc:	00100513          	li	a0,1
   133c0:	05c12083          	lw	ra,92(sp)
   133c4:	05812403          	lw	s0,88(sp)
   133c8:	05412483          	lw	s1,84(sp)
   133cc:	05012903          	lw	s2,80(sp)
   133d0:	04c12983          	lw	s3,76(sp)
   133d4:	04812a03          	lw	s4,72(sp)
   133d8:	04412a83          	lw	s5,68(sp)
   133dc:	04012b03          	lw	s6,64(sp)
   133e0:	03c12b83          	lw	s7,60(sp)
   133e4:	03812c03          	lw	s8,56(sp)
   133e8:	03412c83          	lw	s9,52(sp)
   133ec:	06010113          	addi	sp,sp,96
   133f0:	00008067          	ret
   133f4:	002c4703          	lbu	a4,2(s8)
   133f8:	00445793          	srli	a5,s0,0x4
   133fc:	fff70713          	addi	a4,a4,-1
   13400:	00f777b3          	and	a5,a4,a5
   13404:	f40792e3          	bnez	a5,13348 <_Z10pf_readdirP3DIRP7FILINFO+0xe4>
   13408:	8d0ff0ef          	jal	ra,124d8 <_ZL7get_fatm>
   1340c:	faab76e3          	bgeu	s6,a0,133b8 <_Z10pf_readdirP3DIRP7FILINFO+0x154>
   13410:	008c2783          	lw	a5,8(s8)
   13414:	0004ac03          	lw	s8,0(s1)
   13418:	1cf57c63          	bgeu	a0,a5,135f0 <_Z10pf_readdirP3DIRP7FILINFO+0x38c>
   1341c:	008c2783          	lw	a5,8(s8)
   13420:	00aba623          	sw	a0,12(s7)
   13424:	ffe50513          	addi	a0,a0,-2
   13428:	ffe78793          	addi	a5,a5,-2
   1342c:	26f57463          	bgeu	a0,a5,13694 <_Z10pf_readdirP3DIRP7FILINFO+0x430>
   13430:	002c4783          	lbu	a5,2(s8)
   13434:	014c2583          	lw	a1,20(s8)
   13438:	02a787b3          	mul	a5,a5,a0
   1343c:	00b785b3          	add	a1,a5,a1
   13440:	00bba823          	sw	a1,16(s7)
   13444:	f05ff06f          	j	13348 <_Z10pf_readdirP3DIRP7FILINFO+0xe4>
   13448:	00852783          	lw	a5,8(a0)
   1344c:	00051023          	sh	zero,0(a0)
   13450:	00100713          	li	a4,1
   13454:	f6e784e3          	beq	a5,a4,133bc <_Z10pf_readdirP3DIRP7FILINFO+0x158>
   13458:	008c2703          	lw	a4,8(s8)
   1345c:	f6e7f0e3          	bgeu	a5,a4,133bc <_Z10pf_readdirP3DIRP7FILINFO+0x158>
   13460:	1a079863          	bnez	a5,13610 <_Z10pf_readdirP3DIRP7FILINFO+0x3ac>
   13464:	000c4603          	lbu	a2,0(s8)
   13468:	00300693          	li	a3,3
   1346c:	010c2783          	lw	a5,16(s8)
   13470:	22d60a63          	beq	a2,a3,136a4 <_Z10pf_readdirP3DIRP7FILINFO+0x440>
   13474:	00052623          	sw	zero,12(a0)
   13478:	00fba823          	sw	a5,16(s7)
   1347c:	00000513          	li	a0,0
   13480:	f41ff06f          	j	133c0 <_Z10pf_readdirP3DIRP7FILINFO+0x15c>
   13484:	010ba603          	lw	a2,16(s7)
   13488:	0004ac03          	lw	s8,0(s1)
   1348c:	00990693          	addi	a3,s2,9
   13490:	ec0602e3          	beqz	a2,13354 <_Z10pf_readdirP3DIRP7FILINFO+0xf0>
   13494:	02000613          	li	a2,32
   13498:	0ec78c63          	beq	a5,a2,13590 <_Z10pf_readdirP3DIRP7FILINFO+0x32c>
   1349c:	00500693          	li	a3,5
   134a0:	00d79463          	bne	a5,a3,134a8 <_Z10pf_readdirP3DIRP7FILINFO+0x244>
   134a4:	0e500793          	li	a5,229
   134a8:	01114603          	lbu	a2,17(sp)
   134ac:	00f904a3          	sb	a5,9(s2)
   134b0:	02000793          	li	a5,32
   134b4:	00a90693          	addi	a3,s2,10
   134b8:	0cf60c63          	beq	a2,a5,13590 <_Z10pf_readdirP3DIRP7FILINFO+0x32c>
   134bc:	00500793          	li	a5,5
   134c0:	00f61463          	bne	a2,a5,134c8 <_Z10pf_readdirP3DIRP7FILINFO+0x264>
   134c4:	0e500613          	li	a2,229
   134c8:	01214783          	lbu	a5,18(sp)
   134cc:	00c90523          	sb	a2,10(s2)
   134d0:	02000613          	li	a2,32
   134d4:	00b90693          	addi	a3,s2,11
   134d8:	0ac78c63          	beq	a5,a2,13590 <_Z10pf_readdirP3DIRP7FILINFO+0x32c>
   134dc:	00500693          	li	a3,5
   134e0:	00d79463          	bne	a5,a3,134e8 <_Z10pf_readdirP3DIRP7FILINFO+0x284>
   134e4:	0e500793          	li	a5,229
   134e8:	01314603          	lbu	a2,19(sp)
   134ec:	00f905a3          	sb	a5,11(s2)
   134f0:	02000793          	li	a5,32
   134f4:	00c90693          	addi	a3,s2,12
   134f8:	08f60c63          	beq	a2,a5,13590 <_Z10pf_readdirP3DIRP7FILINFO+0x32c>
   134fc:	00500793          	li	a5,5
   13500:	00f61463          	bne	a2,a5,13508 <_Z10pf_readdirP3DIRP7FILINFO+0x2a4>
   13504:	0e500613          	li	a2,229
   13508:	01414783          	lbu	a5,20(sp)
   1350c:	00c90623          	sb	a2,12(s2)
   13510:	02000613          	li	a2,32
   13514:	00d90693          	addi	a3,s2,13
   13518:	06c78c63          	beq	a5,a2,13590 <_Z10pf_readdirP3DIRP7FILINFO+0x32c>
   1351c:	00500693          	li	a3,5
   13520:	00d79463          	bne	a5,a3,13528 <_Z10pf_readdirP3DIRP7FILINFO+0x2c4>
   13524:	0e500793          	li	a5,229
   13528:	01514603          	lbu	a2,21(sp)
   1352c:	00f906a3          	sb	a5,13(s2)
   13530:	02000793          	li	a5,32
   13534:	00e90693          	addi	a3,s2,14
   13538:	04f60c63          	beq	a2,a5,13590 <_Z10pf_readdirP3DIRP7FILINFO+0x32c>
   1353c:	00500793          	li	a5,5
   13540:	00f61463          	bne	a2,a5,13548 <_Z10pf_readdirP3DIRP7FILINFO+0x2e4>
   13544:	0e500613          	li	a2,229
   13548:	01614783          	lbu	a5,22(sp)
   1354c:	00c90723          	sb	a2,14(s2)
   13550:	02000613          	li	a2,32
   13554:	00f90693          	addi	a3,s2,15
   13558:	02c78c63          	beq	a5,a2,13590 <_Z10pf_readdirP3DIRP7FILINFO+0x32c>
   1355c:	00500693          	li	a3,5
   13560:	00d79463          	bne	a5,a3,13568 <_Z10pf_readdirP3DIRP7FILINFO+0x304>
   13564:	0e500793          	li	a5,229
   13568:	01714603          	lbu	a2,23(sp)
   1356c:	00f907a3          	sb	a5,15(s2)
   13570:	02000793          	li	a5,32
   13574:	01090693          	addi	a3,s2,16
   13578:	00f60c63          	beq	a2,a5,13590 <_Z10pf_readdirP3DIRP7FILINFO+0x32c>
   1357c:	00500793          	li	a5,5
   13580:	00f61463          	bne	a2,a5,13588 <_Z10pf_readdirP3DIRP7FILINFO+0x324>
   13584:	0e500613          	li	a2,229
   13588:	01190693          	addi	a3,s2,17
   1358c:	00c90823          	sb	a2,16(s2)
   13590:	01814603          	lbu	a2,24(sp)
   13594:	02000793          	li	a5,32
   13598:	02f60a63          	beq	a2,a5,135cc <_Z10pf_readdirP3DIRP7FILINFO+0x368>
   1359c:	01914583          	lbu	a1,25(sp)
   135a0:	02e00513          	li	a0,46
   135a4:	00c680a3          	sb	a2,1(a3)
   135a8:	00a68023          	sb	a0,0(a3)
   135ac:	00268613          	addi	a2,a3,2
   135b0:	10f58063          	beq	a1,a5,136b0 <_Z10pf_readdirP3DIRP7FILINFO+0x44c>
   135b4:	01a14603          	lbu	a2,26(sp)
   135b8:	00b68123          	sb	a1,2(a3)
   135bc:	00368593          	addi	a1,a3,3
   135c0:	0ef60c63          	beq	a2,a5,136b8 <_Z10pf_readdirP3DIRP7FILINFO+0x454>
   135c4:	00c681a3          	sb	a2,3(a3)
   135c8:	00468693          	addi	a3,a3,4
   135cc:	02c12783          	lw	a5,44(sp)
   135d0:	00e90423          	sb	a4,8(s2)
   135d4:	00f92023          	sw	a5,0(s2)
   135d8:	02815783          	lhu	a5,40(sp)
   135dc:	00f91223          	sh	a5,4(s2)
   135e0:	02615783          	lhu	a5,38(sp)
   135e4:	00f91323          	sh	a5,6(s2)
   135e8:	d6dff06f          	j	13354 <_Z10pf_readdirP3DIRP7FILINFO+0xf0>
   135ec:	0004ac03          	lw	s8,0(s1)
   135f0:	000ba823          	sw	zero,16(s7)
   135f4:	00990693          	addi	a3,s2,9
   135f8:	d5dff06f          	j	13354 <_Z10pf_readdirP3DIRP7FILINFO+0xf0>
   135fc:	000ba823          	sw	zero,16(s7)
   13600:	00000513          	li	a0,0
   13604:	dbdff06f          	j	133c0 <_Z10pf_readdirP3DIRP7FILINFO+0x15c>
   13608:	00600513          	li	a0,6
   1360c:	db5ff06f          	j	133c0 <_Z10pf_readdirP3DIRP7FILINFO+0x15c>
   13610:	00f52623          	sw	a5,12(a0)
   13614:	ffe78693          	addi	a3,a5,-2
   13618:	ffe70713          	addi	a4,a4,-2
   1361c:	00000793          	li	a5,0
   13620:	e4e6fce3          	bgeu	a3,a4,13478 <_Z10pf_readdirP3DIRP7FILINFO+0x214>
   13624:	002c4783          	lbu	a5,2(s8)
   13628:	014c2703          	lw	a4,20(s8)
   1362c:	02d787b3          	mul	a5,a5,a3
   13630:	00e787b3          	add	a5,a5,a4
   13634:	e45ff06f          	j	13478 <_Z10pf_readdirP3DIRP7FILINFO+0x214>
   13638:	002c4703          	lbu	a4,2(s8)
   1363c:	00445793          	srli	a5,s0,0x4
   13640:	fff70713          	addi	a4,a4,-1
   13644:	00f777b3          	and	a5,a4,a5
   13648:	d40796e3          	bnez	a5,13394 <_Z10pf_readdirP3DIRP7FILINFO+0x130>
   1364c:	e8dfe0ef          	jal	ra,124d8 <_ZL7get_fatm>
   13650:	00100793          	li	a5,1
   13654:	d6a7f4e3          	bgeu	a5,a0,133bc <_Z10pf_readdirP3DIRP7FILINFO+0x158>
   13658:	008c2783          	lw	a5,8(s8)
   1365c:	faf570e3          	bgeu	a0,a5,135fc <_Z10pf_readdirP3DIRP7FILINFO+0x398>
   13660:	0004a703          	lw	a4,0(s1)
   13664:	00aba623          	sw	a0,12(s7)
   13668:	ffe50513          	addi	a0,a0,-2
   1366c:	00872683          	lw	a3,8(a4)
   13670:	00000793          	li	a5,0
   13674:	ffe68693          	addi	a3,a3,-2
   13678:	00d57a63          	bgeu	a0,a3,1368c <_Z10pf_readdirP3DIRP7FILINFO+0x428>
   1367c:	00274783          	lbu	a5,2(a4)
   13680:	01472703          	lw	a4,20(a4)
   13684:	02a78533          	mul	a0,a5,a0
   13688:	00e507b3          	add	a5,a0,a4
   1368c:	00fba823          	sw	a5,16(s7)
   13690:	d05ff06f          	j	13394 <_Z10pf_readdirP3DIRP7FILINFO+0x130>
   13694:	000ba823          	sw	zero,16(s7)
   13698:	008b9023          	sh	s0,0(s7)
   1369c:	00990693          	addi	a3,s2,9
   136a0:	cb5ff06f          	j	13354 <_Z10pf_readdirP3DIRP7FILINFO+0xf0>
   136a4:	00f52623          	sw	a5,12(a0)
   136a8:	f60796e3          	bnez	a5,13614 <_Z10pf_readdirP3DIRP7FILINFO+0x3b0>
   136ac:	dcdff06f          	j	13478 <_Z10pf_readdirP3DIRP7FILINFO+0x214>
   136b0:	00060693          	mv	a3,a2
   136b4:	f19ff06f          	j	135cc <_Z10pf_readdirP3DIRP7FILINFO+0x368>
   136b8:	00058693          	mv	a3,a1
   136bc:	f11ff06f          	j	135cc <_Z10pf_readdirP3DIRP7FILINFO+0x368>

000136c0 <_Z15disk_initializev>:
   136c0:	ff010113          	addi	sp,sp,-16
   136c4:	00112623          	sw	ra,12(sp)
   136c8:	dadfe0ef          	jal	ra,12474 <_Z13SDCardStartupv>
   136cc:	00c12083          	lw	ra,12(sp)
   136d0:	00150513          	addi	a0,a0,1
   136d4:	00153513          	seqz	a0,a0
   136d8:	01010113          	addi	sp,sp,16
   136dc:	00008067          	ret

000136e0 <_Z10disk_readpPhmtt>:
   136e0:	00058793          	mv	a5,a1
   136e4:	ff010113          	addi	sp,sp,-16
   136e8:	00068593          	mv	a1,a3
   136ec:	00078693          	mv	a3,a5
   136f0:	00112623          	sw	ra,12(sp)
   136f4:	c21fe0ef          	jal	ra,12314 <_Z20SDReadMultipleBlocksPhmmm>
   136f8:	00c12083          	lw	ra,12(sp)
   136fc:	00150513          	addi	a0,a0,1
   13700:	00153513          	seqz	a0,a0
   13704:	01010113          	addi	sp,sp,16
   13708:	00008067          	ret

0001370c <_Z12ClearConsolev>:
   1370c:	7c01a823          	sw	zero,2000(gp) # 19dac <_ZL7cursorx>
   13710:	7c01aa23          	sw	zero,2004(gp) # 19db0 <_ZL7cursory>
   13714:	20202737          	lui	a4,0x20202
   13718:	4d018793          	addi	a5,gp,1232 # 19aac <_ZL11consoleText>
   1371c:	7d018693          	addi	a3,gp,2000 # 19dac <_ZL7cursorx>
   13720:	02070713          	addi	a4,a4,32 # 20202020 <__BSS_END__+0x201e8244>
   13724:	00e7a023          	sw	a4,0(a5)
   13728:	00e7a223          	sw	a4,4(a5)
   1372c:	00e7a423          	sw	a4,8(a5)
   13730:	00e7a623          	sw	a4,12(a5)
   13734:	00e7a823          	sw	a4,16(a5)
   13738:	00e7aa23          	sw	a4,20(a5)
   1373c:	00e7ac23          	sw	a4,24(a5)
   13740:	00e7ae23          	sw	a4,28(a5)
   13744:	02078793          	addi	a5,a5,32
   13748:	fcf69ee3          	bne	a3,a5,13724 <_Z12ClearConsolev+0x18>
   1374c:	00008067          	ret

00013750 <_Z15ClearConsoleRowv>:
   13750:	7d41a783          	lw	a5,2004(gp) # 19db0 <_ZL7cursory>
   13754:	00579713          	slli	a4,a5,0x5
   13758:	4d018793          	addi	a5,gp,1232 # 19aac <_ZL11consoleText>
   1375c:	00e787b3          	add	a5,a5,a4
   13760:	20202737          	lui	a4,0x20202
   13764:	02070713          	addi	a4,a4,32 # 20202020 <__BSS_END__+0x201e8244>
   13768:	00e7a023          	sw	a4,0(a5)
   1376c:	00e7a223          	sw	a4,4(a5)
   13770:	00e7a423          	sw	a4,8(a5)
   13774:	00e7a623          	sw	a4,12(a5)
   13778:	00e7a823          	sw	a4,16(a5)
   1377c:	00e7aa23          	sw	a4,20(a5)
   13780:	00e7ac23          	sw	a4,24(a5)
   13784:	00e7ae23          	sw	a4,28(a5)
   13788:	00008067          	ret

0001378c <_Z16SetConsoleCursorii>:
   1378c:	fff54793          	not	a5,a0
   13790:	41f7d793          	srai	a5,a5,0x1f
   13794:	00f57533          	and	a0,a0,a5
   13798:	01f00793          	li	a5,31
   1379c:	00a7d463          	bge	a5,a0,137a4 <_Z16SetConsoleCursorii+0x18>
   137a0:	01f00513          	li	a0,31
   137a4:	fff5c793          	not	a5,a1
   137a8:	41f7d793          	srai	a5,a5,0x1f
   137ac:	00f5f5b3          	and	a1,a1,a5
   137b0:	7ca1a823          	sw	a0,2000(gp) # 19dac <_ZL7cursorx>
   137b4:	01700793          	li	a5,23
   137b8:	00b7d463          	bge	a5,a1,137c0 <_Z16SetConsoleCursorii+0x34>
   137bc:	01700593          	li	a1,23
   137c0:	7cb1aa23          	sw	a1,2004(gp) # 19db0 <_ZL7cursory>
   137c4:	00008067          	ret

000137c8 <_Z13ScrollConsolev>:
   137c8:	ff010113          	addi	sp,sp,-16
   137cc:	00112623          	sw	ra,12(sp)
   137d0:	4d018793          	addi	a5,gp,1232 # 19aac <_ZL11consoleText>
   137d4:	7b018e13          	addi	t3,gp,1968 # 19d8c <_ZL11consoleText+0x2e0>
   137d8:	0207a303          	lw	t1,32(a5)
   137dc:	0247a883          	lw	a7,36(a5)
   137e0:	0287a803          	lw	a6,40(a5)
   137e4:	02c7a503          	lw	a0,44(a5)
   137e8:	0307a583          	lw	a1,48(a5)
   137ec:	0347a603          	lw	a2,52(a5)
   137f0:	0387a683          	lw	a3,56(a5)
   137f4:	03c7a703          	lw	a4,60(a5)
   137f8:	0067a023          	sw	t1,0(a5)
   137fc:	0117a223          	sw	a7,4(a5)
   13800:	0107a423          	sw	a6,8(a5)
   13804:	00a7a623          	sw	a0,12(a5)
   13808:	00b7a823          	sw	a1,16(a5)
   1380c:	00c7aa23          	sw	a2,20(a5)
   13810:	00d7ac23          	sw	a3,24(a5)
   13814:	00e7ae23          	sw	a4,28(a5)
   13818:	02078793          	addi	a5,a5,32
   1381c:	fafe1ee3          	bne	t3,a5,137d8 <_Z13ScrollConsolev+0x10>
   13820:	01700593          	li	a1,23
   13824:	7d01a503          	lw	a0,2000(gp) # 19dac <_ZL7cursorx>
   13828:	f65ff0ef          	jal	ra,1378c <_Z16SetConsoleCursorii>
   1382c:	00c12083          	lw	ra,12(sp)
   13830:	01010113          	addi	sp,sp,16
   13834:	f1dff06f          	j	13750 <_Z15ClearConsoleRowv>

00013838 <_Z16GetConsoleCursorRiS_>:
   13838:	7d01a783          	lw	a5,2000(gp) # 19dac <_ZL7cursorx>
   1383c:	00f52023          	sw	a5,0(a0)
   13840:	7d41a783          	lw	a5,2004(gp) # 19db0 <_ZL7cursory>
   13844:	00f5a023          	sw	a5,0(a1)
   13848:	00008067          	ret

0001384c <_Z21ConsoleCursorStepBackv>:
   1384c:	7d018713          	addi	a4,gp,2000 # 19dac <_ZL7cursorx>
   13850:	00072783          	lw	a5,0(a4)
   13854:	7d418613          	addi	a2,gp,2004 # 19db0 <_ZL7cursory>
   13858:	00062683          	lw	a3,0(a2)
   1385c:	fff78793          	addi	a5,a5,-1
   13860:	00f72023          	sw	a5,0(a4)
   13864:	0007cc63          	bltz	a5,1387c <_Z21ConsoleCursorStepBackv+0x30>
   13868:	0006c463          	bltz	a3,13870 <_Z21ConsoleCursorStepBackv+0x24>
   1386c:	00008067          	ret
   13870:	7c01a823          	sw	zero,2000(gp) # 19dac <_ZL7cursorx>
   13874:	7c01aa23          	sw	zero,2004(gp) # 19db0 <_ZL7cursory>
   13878:	00008067          	ret
   1387c:	fff68693          	addi	a3,a3,-1
   13880:	01f00793          	li	a5,31
   13884:	00f72023          	sw	a5,0(a4)
   13888:	00d62023          	sw	a3,0(a2)
   1388c:	fe06d0e3          	bgez	a3,1386c <_Z21ConsoleCursorStepBackv+0x20>
   13890:	fe1ff06f          	j	13870 <_Z21ConsoleCursorStepBackv+0x24>

00013894 <_Z11EchoConsolePKc>:
   13894:	00054703          	lbu	a4,0(a0)
   13898:	0e070a63          	beqz	a4,1398c <_Z11EchoConsolePKc+0xf8>
   1389c:	fd010113          	addi	sp,sp,-48
   138a0:	02812423          	sw	s0,40(sp)
   138a4:	02912223          	sw	s1,36(sp)
   138a8:	03212023          	sw	s2,32(sp)
   138ac:	01312e23          	sw	s3,28(sp)
   138b0:	01412c23          	sw	s4,24(sp)
   138b4:	01512a23          	sw	s5,20(sp)
   138b8:	01612823          	sw	s6,16(sp)
   138bc:	01712623          	sw	s7,12(sp)
   138c0:	02112623          	sw	ra,44(sp)
   138c4:	00050413          	mv	s0,a0
   138c8:	7d418493          	addi	s1,gp,2004 # 19db0 <_ZL7cursory>
   138cc:	00d00a13          	li	s4,13
   138d0:	7d018993          	addi	s3,gp,2000 # 19dac <_ZL7cursorx>
   138d4:	00a00b93          	li	s7,10
   138d8:	01f00b13          	li	s6,31
   138dc:	4d018a93          	addi	s5,gp,1232 # 19aac <_ZL11consoleText>
   138e0:	01700913          	li	s2,23
   138e4:	0004a783          	lw	a5,0(s1)
   138e8:	09470863          	beq	a4,s4,13978 <_Z11EchoConsolePKc+0xe4>
   138ec:	0009a683          	lw	a3,0(s3)
   138f0:	09770863          	beq	a4,s7,13980 <_Z11EchoConsolePKc+0xec>
   138f4:	00579613          	slli	a2,a5,0x5
   138f8:	00ca8633          	add	a2,s5,a2
   138fc:	00d60633          	add	a2,a2,a3
   13900:	00168693          	addi	a3,a3,1
   13904:	00e60023          	sb	a4,0(a2)
   13908:	00d9a023          	sw	a3,0(s3)
   1390c:	00db5863          	bge	s6,a3,1391c <_Z11EchoConsolePKc+0x88>
   13910:	00178793          	addi	a5,a5,1
   13914:	7c01a823          	sw	zero,2000(gp) # 19dac <_ZL7cursorx>
   13918:	00f4a023          	sw	a5,0(s1)
   1391c:	02f94e63          	blt	s2,a5,13958 <_Z11EchoConsolePKc+0xc4>
   13920:	00144703          	lbu	a4,1(s0)
   13924:	00140413          	addi	s0,s0,1
   13928:	fa071ee3          	bnez	a4,138e4 <_Z11EchoConsolePKc+0x50>
   1392c:	02c12083          	lw	ra,44(sp)
   13930:	02812403          	lw	s0,40(sp)
   13934:	02412483          	lw	s1,36(sp)
   13938:	02012903          	lw	s2,32(sp)
   1393c:	01c12983          	lw	s3,28(sp)
   13940:	01812a03          	lw	s4,24(sp)
   13944:	01412a83          	lw	s5,20(sp)
   13948:	01012b03          	lw	s6,16(sp)
   1394c:	00c12b83          	lw	s7,12(sp)
   13950:	03010113          	addi	sp,sp,48
   13954:	00008067          	ret
   13958:	00140413          	addi	s0,s0,1
   1395c:	0124a023          	sw	s2,0(s1)
   13960:	7c01a823          	sw	zero,2000(gp) # 19dac <_ZL7cursorx>
   13964:	e65ff0ef          	jal	ra,137c8 <_Z13ScrollConsolev>
   13968:	00044703          	lbu	a4,0(s0)
   1396c:	fc0700e3          	beqz	a4,1392c <_Z11EchoConsolePKc+0x98>
   13970:	0004a783          	lw	a5,0(s1)
   13974:	f7471ce3          	bne	a4,s4,138ec <_Z11EchoConsolePKc+0x58>
   13978:	7c01a823          	sw	zero,2000(gp) # 19dac <_ZL7cursorx>
   1397c:	fa1ff06f          	j	1391c <_Z11EchoConsolePKc+0x88>
   13980:	00178793          	addi	a5,a5,1
   13984:	00f4a023          	sw	a5,0(s1)
   13988:	f85ff06f          	j	1390c <_Z11EchoConsolePKc+0x78>
   1398c:	00008067          	ret

00013990 <_Z11EchoConsolel>:
   13990:	00002797          	auipc	a5,0x2
   13994:	24878793          	addi	a5,a5,584 # 15bd8 <__errno+0x5dc>
   13998:	00002717          	auipc	a4,0x2
   1399c:	25470713          	addi	a4,a4,596 # 15bec <__errno+0x5f0>
   139a0:	0047a603          	lw	a2,4(a5)
   139a4:	00072e03          	lw	t3,0(a4)
   139a8:	00472303          	lw	t1,4(a4)
   139ac:	00875883          	lhu	a7,8(a4)
   139b0:	00a74803          	lbu	a6,10(a4)
   139b4:	0007a583          	lw	a1,0(a5)
   139b8:	0087a683          	lw	a3,8(a5)
   139bc:	00c7a703          	lw	a4,12(a5)
   139c0:	0107a783          	lw	a5,16(a5)
   139c4:	fd010113          	addi	sp,sp,-48
   139c8:	00c12823          	sw	a2,16(sp)
   139cc:	00f12e23          	sw	a5,28(sp)
   139d0:	02112623          	sw	ra,44(sp)
   139d4:	01c12023          	sw	t3,0(sp)
   139d8:	00612223          	sw	t1,4(sp)
   139dc:	01111423          	sh	a7,8(sp)
   139e0:	01010523          	sb	a6,10(sp)
   139e4:	00b12623          	sw	a1,12(sp)
   139e8:	00d12a23          	sw	a3,20(sp)
   139ec:	00e12c23          	sw	a4,24(sp)
   139f0:	02d00613          	li	a2,45
   139f4:	00100793          	li	a5,1
   139f8:	00054663          	bltz	a0,13a04 <_Z11EchoConsolel+0x74>
   139fc:	02000613          	li	a2,32
   13a00:	00000793          	li	a5,0
   13a04:	3b9ad737          	lui	a4,0x3b9ad
   13a08:	a0070693          	addi	a3,a4,-1536 # 3b9aca00 <__BSS_END__+0x3b992c24>
   13a0c:	02d546b3          	div	a3,a0,a3
   13a10:	9ff70713          	addi	a4,a4,-1537
   13a14:	00c10623          	sb	a2,12(sp)
   13a18:	77359637          	lui	a2,0x77359
   13a1c:	00e50733          	add	a4,a0,a4
   13a20:	3fe60613          	addi	a2,a2,1022 # 773593fe <__BSS_END__+0x7733f622>
   13a24:	41f6d593          	srai	a1,a3,0x1f
   13a28:	00d5c6b3          	xor	a3,a1,a3
   13a2c:	40b686b3          	sub	a3,a3,a1
   13a30:	12e66c63          	bltu	a2,a4,13b68 <_Z11EchoConsolel+0x1d8>
   13a34:	05f5e737          	lui	a4,0x5f5e
   13a38:	10070713          	addi	a4,a4,256 # 5f5e100 <__BSS_END__+0x5f44324>
   13a3c:	02e54733          	div	a4,a0,a4
   13a40:	00a00613          	li	a2,10
   13a44:	41f75593          	srai	a1,a4,0x1f
   13a48:	00e5c6b3          	xor	a3,a1,a4
   13a4c:	40b686b3          	sub	a3,a3,a1
   13a50:	02c6e6b3          	rem	a3,a3,a2
   13a54:	14069863          	bnez	a3,13ba4 <_Z11EchoConsolel+0x214>
   13a58:	00989737          	lui	a4,0x989
   13a5c:	68070713          	addi	a4,a4,1664 # 989680 <__BSS_END__+0x96f8a4>
   13a60:	02e54733          	div	a4,a0,a4
   13a64:	41f75593          	srai	a1,a4,0x1f
   13a68:	00e5c6b3          	xor	a3,a1,a4
   13a6c:	40b686b3          	sub	a3,a3,a1
   13a70:	02c6e6b3          	rem	a3,a3,a2
   13a74:	16069663          	bnez	a3,13be0 <_Z11EchoConsolel+0x250>
   13a78:	000f4737          	lui	a4,0xf4
   13a7c:	24070713          	addi	a4,a4,576 # f4240 <__BSS_END__+0xda464>
   13a80:	02e54733          	div	a4,a0,a4
   13a84:	41f75593          	srai	a1,a4,0x1f
   13a88:	00e5c6b3          	xor	a3,a1,a4
   13a8c:	40b686b3          	sub	a3,a3,a1
   13a90:	02c6e6b3          	rem	a3,a3,a2
   13a94:	18069463          	bnez	a3,13c1c <_Z11EchoConsolel+0x28c>
   13a98:	00018737          	lui	a4,0x18
   13a9c:	6a070713          	addi	a4,a4,1696 # 186a0 <__EH_FRAME_BEGIN__+0x6a0>
   13aa0:	02e54733          	div	a4,a0,a4
   13aa4:	41f75593          	srai	a1,a4,0x1f
   13aa8:	00e5c6b3          	xor	a3,a1,a4
   13aac:	40b686b3          	sub	a3,a3,a1
   13ab0:	02c6e6b3          	rem	a3,a3,a2
   13ab4:	1a069263          	bnez	a3,13c58 <_Z11EchoConsolel+0x2c8>
   13ab8:	00002737          	lui	a4,0x2
   13abc:	71070713          	addi	a4,a4,1808 # 2710 <main-0xd964>
   13ac0:	02e54733          	div	a4,a0,a4
   13ac4:	41f75693          	srai	a3,a4,0x1f
   13ac8:	00e6c733          	xor	a4,a3,a4
   13acc:	40d70733          	sub	a4,a4,a3
   13ad0:	02c76733          	rem	a4,a4,a2
   13ad4:	1c071063          	bnez	a4,13c94 <_Z11EchoConsolel+0x304>
   13ad8:	3e800713          	li	a4,1000
   13adc:	02e54733          	div	a4,a0,a4
   13ae0:	41f75593          	srai	a1,a4,0x1f
   13ae4:	00e5c6b3          	xor	a3,a1,a4
   13ae8:	40b686b3          	sub	a3,a3,a1
   13aec:	02c6e6b3          	rem	a3,a3,a2
   13af0:	1c069e63          	bnez	a3,13ccc <_Z11EchoConsolel+0x33c>
   13af4:	06400713          	li	a4,100
   13af8:	02e54733          	div	a4,a0,a4
   13afc:	41f75693          	srai	a3,a4,0x1f
   13b00:	00e6c733          	xor	a4,a3,a4
   13b04:	40d70733          	sub	a4,a4,a3
   13b08:	02c76733          	rem	a4,a4,a2
   13b0c:	1e071c63          	bnez	a4,13d04 <_Z11EchoConsolel+0x374>
   13b10:	02c54733          	div	a4,a0,a2
   13b14:	41f75693          	srai	a3,a4,0x1f
   13b18:	00e6c733          	xor	a4,a3,a4
   13b1c:	40d70733          	sub	a4,a4,a3
   13b20:	02c76633          	rem	a2,a4,a2
   13b24:	20061a63          	bnez	a2,13d38 <_Z11EchoConsolel+0x3a8>
   13b28:	41f55693          	srai	a3,a0,0x1f
   13b2c:	00a6c733          	xor	a4,a3,a0
   13b30:	40d70733          	sub	a4,a4,a3
   13b34:	00a00513          	li	a0,10
   13b38:	02a76733          	rem	a4,a4,a0
   13b3c:	02010693          	addi	a3,sp,32
   13b40:	00f687b3          	add	a5,a3,a5
   13b44:	00c10513          	addi	a0,sp,12
   13b48:	fe0786a3          	sb	zero,-19(a5)
   13b4c:	00e68733          	add	a4,a3,a4
   13b50:	fe074703          	lbu	a4,-32(a4)
   13b54:	fee78623          	sb	a4,-20(a5)
   13b58:	d3dff0ef          	jal	ra,13894 <_Z11EchoConsolePKc>
   13b5c:	02c12083          	lw	ra,44(sp)
   13b60:	03010113          	addi	sp,sp,48
   13b64:	00008067          	ret
   13b68:	05f5e737          	lui	a4,0x5f5e
   13b6c:	10070713          	addi	a4,a4,256 # 5f5e100 <__BSS_END__+0x5f44324>
   13b70:	02e54733          	div	a4,a0,a4
   13b74:	02010613          	addi	a2,sp,32
   13b78:	00d606b3          	add	a3,a2,a3
   13b7c:	fe06c603          	lbu	a2,-32(a3)
   13b80:	02010693          	addi	a3,sp,32
   13b84:	00f686b3          	add	a3,a3,a5
   13b88:	fec68623          	sb	a2,-20(a3)
   13b8c:	00178793          	addi	a5,a5,1
   13b90:	41f75613          	srai	a2,a4,0x1f
   13b94:	00e646b3          	xor	a3,a2,a4
   13b98:	40c686b3          	sub	a3,a3,a2
   13b9c:	00a00713          	li	a4,10
   13ba0:	02e6e6b3          	rem	a3,a3,a4
   13ba4:	00989737          	lui	a4,0x989
   13ba8:	68070713          	addi	a4,a4,1664 # 989680 <__BSS_END__+0x96f8a4>
   13bac:	02010613          	addi	a2,sp,32
   13bb0:	00d606b3          	add	a3,a2,a3
   13bb4:	fe06c603          	lbu	a2,-32(a3)
   13bb8:	02010693          	addi	a3,sp,32
   13bbc:	00f686b3          	add	a3,a3,a5
   13bc0:	fec68623          	sb	a2,-20(a3)
   13bc4:	00178793          	addi	a5,a5,1
   13bc8:	02e54733          	div	a4,a0,a4
   13bcc:	41f75613          	srai	a2,a4,0x1f
   13bd0:	00e646b3          	xor	a3,a2,a4
   13bd4:	40c686b3          	sub	a3,a3,a2
   13bd8:	00a00713          	li	a4,10
   13bdc:	02e6e6b3          	rem	a3,a3,a4
   13be0:	000f4737          	lui	a4,0xf4
   13be4:	24070713          	addi	a4,a4,576 # f4240 <__BSS_END__+0xda464>
   13be8:	02010613          	addi	a2,sp,32
   13bec:	00d606b3          	add	a3,a2,a3
   13bf0:	fe06c603          	lbu	a2,-32(a3)
   13bf4:	02010693          	addi	a3,sp,32
   13bf8:	00f686b3          	add	a3,a3,a5
   13bfc:	fec68623          	sb	a2,-20(a3)
   13c00:	00178793          	addi	a5,a5,1
   13c04:	02e54733          	div	a4,a0,a4
   13c08:	41f75613          	srai	a2,a4,0x1f
   13c0c:	00e646b3          	xor	a3,a2,a4
   13c10:	40c686b3          	sub	a3,a3,a2
   13c14:	00a00713          	li	a4,10
   13c18:	02e6e6b3          	rem	a3,a3,a4
   13c1c:	00018737          	lui	a4,0x18
   13c20:	6a070713          	addi	a4,a4,1696 # 186a0 <__EH_FRAME_BEGIN__+0x6a0>
   13c24:	02010613          	addi	a2,sp,32
   13c28:	00d606b3          	add	a3,a2,a3
   13c2c:	fe06c603          	lbu	a2,-32(a3)
   13c30:	02010693          	addi	a3,sp,32
   13c34:	00f686b3          	add	a3,a3,a5
   13c38:	fec68623          	sb	a2,-20(a3)
   13c3c:	00178793          	addi	a5,a5,1
   13c40:	02e54733          	div	a4,a0,a4
   13c44:	41f75613          	srai	a2,a4,0x1f
   13c48:	00e646b3          	xor	a3,a2,a4
   13c4c:	40c686b3          	sub	a3,a3,a2
   13c50:	00a00713          	li	a4,10
   13c54:	02e6e6b3          	rem	a3,a3,a4
   13c58:	00002737          	lui	a4,0x2
   13c5c:	71070713          	addi	a4,a4,1808 # 2710 <main-0xd964>
   13c60:	02010613          	addi	a2,sp,32
   13c64:	00d606b3          	add	a3,a2,a3
   13c68:	fe06c603          	lbu	a2,-32(a3)
   13c6c:	02010693          	addi	a3,sp,32
   13c70:	00f686b3          	add	a3,a3,a5
   13c74:	fec68623          	sb	a2,-20(a3)
   13c78:	00178793          	addi	a5,a5,1
   13c7c:	02e54733          	div	a4,a0,a4
   13c80:	41f75693          	srai	a3,a4,0x1f
   13c84:	00e6c733          	xor	a4,a3,a4
   13c88:	40d70733          	sub	a4,a4,a3
   13c8c:	00a00693          	li	a3,10
   13c90:	02d76733          	rem	a4,a4,a3
   13c94:	3e800693          	li	a3,1000
   13c98:	02010613          	addi	a2,sp,32
   13c9c:	00e60733          	add	a4,a2,a4
   13ca0:	fe074603          	lbu	a2,-32(a4)
   13ca4:	02010713          	addi	a4,sp,32
   13ca8:	00f70733          	add	a4,a4,a5
   13cac:	fec70623          	sb	a2,-20(a4)
   13cb0:	00178793          	addi	a5,a5,1
   13cb4:	02d546b3          	div	a3,a0,a3
   13cb8:	41f6d713          	srai	a4,a3,0x1f
   13cbc:	00d746b3          	xor	a3,a4,a3
   13cc0:	40e686b3          	sub	a3,a3,a4
   13cc4:	00a00713          	li	a4,10
   13cc8:	02e6e6b3          	rem	a3,a3,a4
   13ccc:	06400713          	li	a4,100
   13cd0:	02010613          	addi	a2,sp,32
   13cd4:	00d606b3          	add	a3,a2,a3
   13cd8:	fe06c603          	lbu	a2,-32(a3)
   13cdc:	02010693          	addi	a3,sp,32
   13ce0:	00f686b3          	add	a3,a3,a5
   13ce4:	fec68623          	sb	a2,-20(a3)
   13ce8:	00178793          	addi	a5,a5,1
   13cec:	02e54733          	div	a4,a0,a4
   13cf0:	41f75693          	srai	a3,a4,0x1f
   13cf4:	00e6c733          	xor	a4,a3,a4
   13cf8:	40d70733          	sub	a4,a4,a3
   13cfc:	00a00693          	li	a3,10
   13d00:	02d76733          	rem	a4,a4,a3
   13d04:	00a00593          	li	a1,10
   13d08:	02010613          	addi	a2,sp,32
   13d0c:	00e60733          	add	a4,a2,a4
   13d10:	fe074603          	lbu	a2,-32(a4)
   13d14:	02010713          	addi	a4,sp,32
   13d18:	00f70733          	add	a4,a4,a5
   13d1c:	fec70623          	sb	a2,-20(a4)
   13d20:	00178793          	addi	a5,a5,1
   13d24:	02b546b3          	div	a3,a0,a1
   13d28:	41f6d713          	srai	a4,a3,0x1f
   13d2c:	00d74633          	xor	a2,a4,a3
   13d30:	40e60633          	sub	a2,a2,a4
   13d34:	02b66633          	rem	a2,a2,a1
   13d38:	02010713          	addi	a4,sp,32
   13d3c:	00c70633          	add	a2,a4,a2
   13d40:	fe064683          	lbu	a3,-32(a2)
   13d44:	00f70733          	add	a4,a4,a5
   13d48:	00178793          	addi	a5,a5,1
   13d4c:	fed70623          	sb	a3,-20(a4)
   13d50:	dd9ff06f          	j	13b28 <_Z11EchoConsolel+0x198>

00013d54 <_Z14EchoConsoleHexl>:
   13d54:	00002897          	auipc	a7,0x2
   13d58:	e7088893          	addi	a7,a7,-400 # 15bc4 <__errno+0x5c8>
   13d5c:	41f55793          	srai	a5,a0,0x1f
   13d60:	01c7d793          	srli	a5,a5,0x1c
   13d64:	00c8a603          	lw	a2,12(a7)
   13d68:	40c55713          	srai	a4,a0,0xc
   13d6c:	41855313          	srai	t1,a0,0x18
   13d70:	0048af03          	lw	t5,4(a7)
   13d74:	0088ae83          	lw	t4,8(a7)
   13d78:	0008af83          	lw	t6,0(a7)
   13d7c:	40855693          	srai	a3,a0,0x8
   13d80:	00f70733          	add	a4,a4,a5
   13d84:	00f30333          	add	t1,t1,a5
   13d88:	fd010113          	addi	sp,sp,-48
   13d8c:	00f686b3          	add	a3,a3,a5
   13d90:	40455813          	srai	a6,a0,0x4
   13d94:	41455593          	srai	a1,a0,0x14
   13d98:	00f77713          	andi	a4,a4,15
   13d9c:	00f37313          	andi	t1,t1,15
   13da0:	00c12c23          	sw	a2,24(sp)
   13da4:	40f70733          	sub	a4,a4,a5
   13da8:	02010613          	addi	a2,sp,32
   13dac:	00f80833          	add	a6,a6,a5
   13db0:	40f30333          	sub	t1,t1,a5
   13db4:	00f585b3          	add	a1,a1,a5
   13db8:	00f6f693          	andi	a3,a3,15
   13dbc:	02112623          	sw	ra,44(sp)
   13dc0:	01f12623          	sw	t6,12(sp)
   13dc4:	01e12823          	sw	t5,16(sp)
   13dc8:	01d12a23          	sw	t4,20(sp)
   13dcc:	00660333          	add	t1,a2,t1
   13dd0:	40f686b3          	sub	a3,a3,a5
   13dd4:	41c55e13          	srai	t3,a0,0x1c
   13dd8:	00e60733          	add	a4,a2,a4
   13ddc:	00f87813          	andi	a6,a6,15
   13de0:	00f5f593          	andi	a1,a1,15
   13de4:	fec74703          	lbu	a4,-20(a4)
   13de8:	fec34e83          	lbu	t4,-20(t1)
   13dec:	00d606b3          	add	a3,a2,a3
   13df0:	02010313          	addi	t1,sp,32
   13df4:	01c60e33          	add	t3,a2,t3
   13df8:	40f80833          	sub	a6,a6,a5
   13dfc:	41055613          	srai	a2,a0,0x10
   13e00:	40f585b3          	sub	a1,a1,a5
   13e04:	fec6cf03          	lbu	t5,-20(a3)
   13e08:	01030833          	add	a6,t1,a6
   13e0c:	fece4683          	lbu	a3,-20(t3)
   13e10:	00b305b3          	add	a1,t1,a1
   13e14:	00f50533          	add	a0,a0,a5
   13e18:	00f60633          	add	a2,a2,a5
   13e1c:	ffff0337          	lui	t1,0xffff0
   13e20:	0ff30313          	addi	t1,t1,255 # ffff00ff <__BSS_END__+0xfffd6323>
   13e24:	00f57513          	andi	a0,a0,15
   13e28:	00f67613          	andi	a2,a2,15
   13e2c:	40f60633          	sub	a2,a2,a5
   13e30:	40f50533          	sub	a0,a0,a5
   13e34:	006777b3          	and	a5,a4,t1
   13e38:	02010713          	addi	a4,sp,32
   13e3c:	fec84e03          	lbu	t3,-20(a6)
   13e40:	00a70533          	add	a0,a4,a0
   13e44:	fec5c803          	lbu	a6,-20(a1)
   13e48:	0066f733          	and	a4,a3,t1
   13e4c:	02010693          	addi	a3,sp,32
   13e50:	00c686b3          	add	a3,a3,a2
   13e54:	008f1f13          	slli	t5,t5,0x8
   13e58:	008e9e93          	slli	t4,t4,0x8
   13e5c:	ff010637          	lui	a2,0xff010
   13e60:	fec6c583          	lbu	a1,-20(a3)
   13e64:	fff60613          	addi	a2,a2,-1 # ff00ffff <__BSS_END__+0xfeff6223>
   13e68:	fec54503          	lbu	a0,-20(a0)
   13e6c:	01e7e7b3          	or	a5,a5,t5
   13e70:	01d76733          	or	a4,a4,t4
   13e74:	010e1313          	slli	t1,t3,0x10
   13e78:	00c7f7b3          	and	a5,a5,a2
   13e7c:	01081813          	slli	a6,a6,0x10
   13e80:	00c77733          	and	a4,a4,a2
   13e84:	010006b7          	lui	a3,0x1000
   13e88:	fff68693          	addi	a3,a3,-1 # ffffff <__BSS_END__+0xfe6223>
   13e8c:	0108c883          	lbu	a7,16(a7)
   13e90:	0067e7b3          	or	a5,a5,t1
   13e94:	01076733          	or	a4,a4,a6
   13e98:	01851513          	slli	a0,a0,0x18
   13e9c:	00d7f7b3          	and	a5,a5,a3
   13ea0:	01859613          	slli	a2,a1,0x18
   13ea4:	00d77733          	and	a4,a4,a3
   13ea8:	00a7e7b3          	or	a5,a5,a0
   13eac:	00c76733          	or	a4,a4,a2
   13eb0:	00010513          	mv	a0,sp
   13eb4:	01110e23          	sb	a7,28(sp)
   13eb8:	00010423          	sb	zero,8(sp)
   13ebc:	00e12023          	sw	a4,0(sp)
   13ec0:	00f12223          	sw	a5,4(sp)
   13ec4:	9d1ff0ef          	jal	ra,13894 <_Z11EchoConsolePKc>
   13ec8:	02c12083          	lw	ra,44(sp)
   13ecc:	03010113          	addi	sp,sp,48
   13ed0:	00008067          	ret

00013ed4 <_Z11DrawConsolev>:
   13ed4:	ff010113          	addi	sp,sp,-16
   13ed8:	00812423          	sw	s0,8(sp)
   13edc:	00912223          	sw	s1,4(sp)
   13ee0:	01212023          	sw	s2,0(sp)
   13ee4:	00112623          	sw	ra,12(sp)
   13ee8:	4d018413          	addi	s0,gp,1232 # 19aac <_ZL11consoleText>
   13eec:	7d018913          	addi	s2,gp,2000 # 19dac <_ZL7cursorx>
   13ef0:	00000493          	li	s1,0
   13ef4:	00040693          	mv	a3,s0
   13ef8:	00048593          	mv	a1,s1
   13efc:	00100713          	li	a4,1
   13f00:	02000613          	li	a2,32
   13f04:	00000513          	li	a0,0
   13f08:	02040413          	addi	s0,s0,32
   13f0c:	801fd0ef          	jal	ra,1170c <_Z8PrintDMAiiiPKcb>
   13f10:	00848493          	addi	s1,s1,8
   13f14:	ff2410e3          	bne	s0,s2,13ef4 <_Z11DrawConsolev+0x20>
   13f18:	00c12083          	lw	ra,12(sp)
   13f1c:	00812403          	lw	s0,8(sp)
   13f20:	00412483          	lw	s1,4(sp)
   13f24:	00012903          	lw	s2,0(sp)
   13f28:	01010113          	addi	sp,sp,16
   13f2c:	00008067          	ret

00013f30 <_Z18ConsoleStringAtRowPc>:
   13f30:	7d41a783          	lw	a5,2004(gp) # 19db0 <_ZL7cursory>
   13f34:	00579693          	slli	a3,a5,0x5
   13f38:	00168713          	addi	a4,a3,1
   13f3c:	4d018793          	addi	a5,gp,1232 # 19aac <_ZL11consoleText>
   13f40:	00e78733          	add	a4,a5,a4
   13f44:	40e50733          	sub	a4,a0,a4
   13f48:	00373713          	sltiu	a4,a4,3
   13f4c:	00d787b3          	add	a5,a5,a3
   13f50:	04071a63          	bnez	a4,13fa4 <_Z18ConsoleStringAtRowPc+0x74>
   13f54:	00357713          	andi	a4,a0,3
   13f58:	04071663          	bnez	a4,13fa4 <_Z18ConsoleStringAtRowPc+0x74>
   13f5c:	0007a703          	lw	a4,0(a5)
   13f60:	00e52023          	sw	a4,0(a0)
   13f64:	0047a703          	lw	a4,4(a5)
   13f68:	00e52223          	sw	a4,4(a0)
   13f6c:	0087a703          	lw	a4,8(a5)
   13f70:	00e52423          	sw	a4,8(a0)
   13f74:	00c7a703          	lw	a4,12(a5)
   13f78:	00e52623          	sw	a4,12(a0)
   13f7c:	0107a703          	lw	a4,16(a5)
   13f80:	00e52823          	sw	a4,16(a0)
   13f84:	0147a703          	lw	a4,20(a5)
   13f88:	00e52a23          	sw	a4,20(a0)
   13f8c:	0187a703          	lw	a4,24(a5)
   13f90:	00e52c23          	sw	a4,24(a0)
   13f94:	01c7a783          	lw	a5,28(a5)
   13f98:	02050023          	sb	zero,32(a0)
   13f9c:	00f52e23          	sw	a5,28(a0)
   13fa0:	00008067          	ret
   13fa4:	4f018613          	addi	a2,gp,1264 # 19acc <_ZL11consoleText+0x20>
   13fa8:	00050713          	mv	a4,a0
   13fac:	00d60633          	add	a2,a2,a3
   13fb0:	0007c683          	lbu	a3,0(a5)
   13fb4:	00178793          	addi	a5,a5,1
   13fb8:	00170713          	addi	a4,a4,1
   13fbc:	fed70fa3          	sb	a3,-1(a4)
   13fc0:	fec798e3          	bne	a5,a2,13fb0 <_Z18ConsoleStringAtRowPc+0x80>
   13fc4:	02050023          	sb	zero,32(a0)
   13fc8:	00008067          	ret

00013fcc <__udivdi3>:
   13fcc:	00050893          	mv	a7,a0
   13fd0:	00058793          	mv	a5,a1
   13fd4:	00060813          	mv	a6,a2
   13fd8:	00068513          	mv	a0,a3
   13fdc:	00088313          	mv	t1,a7
   13fe0:	28069463          	bnez	a3,14268 <__udivdi3+0x29c>
   13fe4:	000176b7          	lui	a3,0x17
   13fe8:	4c068693          	addi	a3,a3,1216 # 174c0 <__clz_tab>
   13fec:	0ec5f663          	bgeu	a1,a2,140d8 <__udivdi3+0x10c>
   13ff0:	00010737          	lui	a4,0x10
   13ff4:	0ce67863          	bgeu	a2,a4,140c4 <__udivdi3+0xf8>
   13ff8:	0ff00713          	li	a4,255
   13ffc:	00c73733          	sltu	a4,a4,a2
   14000:	00371713          	slli	a4,a4,0x3
   14004:	00e65533          	srl	a0,a2,a4
   14008:	00a686b3          	add	a3,a3,a0
   1400c:	0006c683          	lbu	a3,0(a3)
   14010:	02000513          	li	a0,32
   14014:	00e68733          	add	a4,a3,a4
   14018:	40e506b3          	sub	a3,a0,a4
   1401c:	00e50c63          	beq	a0,a4,14034 <__udivdi3+0x68>
   14020:	00d795b3          	sll	a1,a5,a3
   14024:	00e8d733          	srl	a4,a7,a4
   14028:	00d61833          	sll	a6,a2,a3
   1402c:	00b765b3          	or	a1,a4,a1
   14030:	00d89333          	sll	t1,a7,a3
   14034:	01085893          	srli	a7,a6,0x10
   14038:	0315d6b3          	divu	a3,a1,a7
   1403c:	01081613          	slli	a2,a6,0x10
   14040:	01065613          	srli	a2,a2,0x10
   14044:	01035793          	srli	a5,t1,0x10
   14048:	0315f733          	remu	a4,a1,a7
   1404c:	00068513          	mv	a0,a3
   14050:	02d605b3          	mul	a1,a2,a3
   14054:	01071713          	slli	a4,a4,0x10
   14058:	00f767b3          	or	a5,a4,a5
   1405c:	00b7fe63          	bgeu	a5,a1,14078 <__udivdi3+0xac>
   14060:	010787b3          	add	a5,a5,a6
   14064:	fff68513          	addi	a0,a3,-1
   14068:	0107e863          	bltu	a5,a6,14078 <__udivdi3+0xac>
   1406c:	00b7f663          	bgeu	a5,a1,14078 <__udivdi3+0xac>
   14070:	ffe68513          	addi	a0,a3,-2
   14074:	010787b3          	add	a5,a5,a6
   14078:	40b787b3          	sub	a5,a5,a1
   1407c:	0317f733          	remu	a4,a5,a7
   14080:	01031313          	slli	t1,t1,0x10
   14084:	01035313          	srli	t1,t1,0x10
   14088:	0317d7b3          	divu	a5,a5,a7
   1408c:	01071713          	slli	a4,a4,0x10
   14090:	00676333          	or	t1,a4,t1
   14094:	02f606b3          	mul	a3,a2,a5
   14098:	00078613          	mv	a2,a5
   1409c:	00d37c63          	bgeu	t1,a3,140b4 <__udivdi3+0xe8>
   140a0:	00680333          	add	t1,a6,t1
   140a4:	fff78613          	addi	a2,a5,-1
   140a8:	01036663          	bltu	t1,a6,140b4 <__udivdi3+0xe8>
   140ac:	00d37463          	bgeu	t1,a3,140b4 <__udivdi3+0xe8>
   140b0:	ffe78613          	addi	a2,a5,-2
   140b4:	01051513          	slli	a0,a0,0x10
   140b8:	00c56533          	or	a0,a0,a2
   140bc:	00000593          	li	a1,0
   140c0:	0e40006f          	j	141a4 <__udivdi3+0x1d8>
   140c4:	01000537          	lui	a0,0x1000
   140c8:	01000713          	li	a4,16
   140cc:	f2a66ce3          	bltu	a2,a0,14004 <__udivdi3+0x38>
   140d0:	01800713          	li	a4,24
   140d4:	f31ff06f          	j	14004 <__udivdi3+0x38>
   140d8:	00061663          	bnez	a2,140e4 <__udivdi3+0x118>
   140dc:	00100713          	li	a4,1
   140e0:	02c75833          	divu	a6,a4,a2
   140e4:	00010737          	lui	a4,0x10
   140e8:	0ce87063          	bgeu	a6,a4,141a8 <__udivdi3+0x1dc>
   140ec:	0ff00713          	li	a4,255
   140f0:	01077463          	bgeu	a4,a6,140f8 <__udivdi3+0x12c>
   140f4:	00800513          	li	a0,8
   140f8:	00a85733          	srl	a4,a6,a0
   140fc:	00e686b3          	add	a3,a3,a4
   14100:	0006c703          	lbu	a4,0(a3)
   14104:	02000613          	li	a2,32
   14108:	00a70733          	add	a4,a4,a0
   1410c:	40e606b3          	sub	a3,a2,a4
   14110:	0ae61663          	bne	a2,a4,141bc <__udivdi3+0x1f0>
   14114:	410787b3          	sub	a5,a5,a6
   14118:	00100593          	li	a1,1
   1411c:	01085893          	srli	a7,a6,0x10
   14120:	01081613          	slli	a2,a6,0x10
   14124:	01065613          	srli	a2,a2,0x10
   14128:	01035713          	srli	a4,t1,0x10
   1412c:	0317f6b3          	remu	a3,a5,a7
   14130:	0317d7b3          	divu	a5,a5,a7
   14134:	01069693          	slli	a3,a3,0x10
   14138:	00e6e733          	or	a4,a3,a4
   1413c:	02f60e33          	mul	t3,a2,a5
   14140:	00078513          	mv	a0,a5
   14144:	01c77e63          	bgeu	a4,t3,14160 <__udivdi3+0x194>
   14148:	01070733          	add	a4,a4,a6
   1414c:	fff78513          	addi	a0,a5,-1
   14150:	01076863          	bltu	a4,a6,14160 <__udivdi3+0x194>
   14154:	01c77663          	bgeu	a4,t3,14160 <__udivdi3+0x194>
   14158:	ffe78513          	addi	a0,a5,-2
   1415c:	01070733          	add	a4,a4,a6
   14160:	41c70733          	sub	a4,a4,t3
   14164:	031777b3          	remu	a5,a4,a7
   14168:	01031313          	slli	t1,t1,0x10
   1416c:	01035313          	srli	t1,t1,0x10
   14170:	03175733          	divu	a4,a4,a7
   14174:	01079793          	slli	a5,a5,0x10
   14178:	0067e333          	or	t1,a5,t1
   1417c:	02e606b3          	mul	a3,a2,a4
   14180:	00070613          	mv	a2,a4
   14184:	00d37c63          	bgeu	t1,a3,1419c <__udivdi3+0x1d0>
   14188:	00680333          	add	t1,a6,t1
   1418c:	fff70613          	addi	a2,a4,-1 # ffff <main-0x75>
   14190:	01036663          	bltu	t1,a6,1419c <__udivdi3+0x1d0>
   14194:	00d37463          	bgeu	t1,a3,1419c <__udivdi3+0x1d0>
   14198:	ffe70613          	addi	a2,a4,-2
   1419c:	01051513          	slli	a0,a0,0x10
   141a0:	00c56533          	or	a0,a0,a2
   141a4:	00008067          	ret
   141a8:	01000737          	lui	a4,0x1000
   141ac:	01000513          	li	a0,16
   141b0:	f4e864e3          	bltu	a6,a4,140f8 <__udivdi3+0x12c>
   141b4:	01800513          	li	a0,24
   141b8:	f41ff06f          	j	140f8 <__udivdi3+0x12c>
   141bc:	00d81833          	sll	a6,a6,a3
   141c0:	00e7d533          	srl	a0,a5,a4
   141c4:	00d89333          	sll	t1,a7,a3
   141c8:	00d797b3          	sll	a5,a5,a3
   141cc:	00e8d733          	srl	a4,a7,a4
   141d0:	01085893          	srli	a7,a6,0x10
   141d4:	00f76633          	or	a2,a4,a5
   141d8:	03157733          	remu	a4,a0,a7
   141dc:	01081793          	slli	a5,a6,0x10
   141e0:	0107d793          	srli	a5,a5,0x10
   141e4:	01065593          	srli	a1,a2,0x10
   141e8:	03155533          	divu	a0,a0,a7
   141ec:	01071713          	slli	a4,a4,0x10
   141f0:	00b76733          	or	a4,a4,a1
   141f4:	02a786b3          	mul	a3,a5,a0
   141f8:	00050593          	mv	a1,a0
   141fc:	00d77e63          	bgeu	a4,a3,14218 <__udivdi3+0x24c>
   14200:	01070733          	add	a4,a4,a6
   14204:	fff50593          	addi	a1,a0,-1 # ffffff <__BSS_END__+0xfe6223>
   14208:	01076863          	bltu	a4,a6,14218 <__udivdi3+0x24c>
   1420c:	00d77663          	bgeu	a4,a3,14218 <__udivdi3+0x24c>
   14210:	ffe50593          	addi	a1,a0,-2
   14214:	01070733          	add	a4,a4,a6
   14218:	40d706b3          	sub	a3,a4,a3
   1421c:	0316f733          	remu	a4,a3,a7
   14220:	01061613          	slli	a2,a2,0x10
   14224:	01065613          	srli	a2,a2,0x10
   14228:	0316d6b3          	divu	a3,a3,a7
   1422c:	01071713          	slli	a4,a4,0x10
   14230:	02d78533          	mul	a0,a5,a3
   14234:	00c767b3          	or	a5,a4,a2
   14238:	00068713          	mv	a4,a3
   1423c:	00a7fe63          	bgeu	a5,a0,14258 <__udivdi3+0x28c>
   14240:	010787b3          	add	a5,a5,a6
   14244:	fff68713          	addi	a4,a3,-1
   14248:	0107e863          	bltu	a5,a6,14258 <__udivdi3+0x28c>
   1424c:	00a7f663          	bgeu	a5,a0,14258 <__udivdi3+0x28c>
   14250:	ffe68713          	addi	a4,a3,-2
   14254:	010787b3          	add	a5,a5,a6
   14258:	01059593          	slli	a1,a1,0x10
   1425c:	40a787b3          	sub	a5,a5,a0
   14260:	00e5e5b3          	or	a1,a1,a4
   14264:	eb9ff06f          	j	1411c <__udivdi3+0x150>
   14268:	18d5e663          	bltu	a1,a3,143f4 <__udivdi3+0x428>
   1426c:	00010737          	lui	a4,0x10
   14270:	04e6f463          	bgeu	a3,a4,142b8 <__udivdi3+0x2ec>
   14274:	0ff00713          	li	a4,255
   14278:	00d735b3          	sltu	a1,a4,a3
   1427c:	00359593          	slli	a1,a1,0x3
   14280:	00017737          	lui	a4,0x17
   14284:	00b6d533          	srl	a0,a3,a1
   14288:	4c070713          	addi	a4,a4,1216 # 174c0 <__clz_tab>
   1428c:	00a70733          	add	a4,a4,a0
   14290:	00074703          	lbu	a4,0(a4)
   14294:	02000513          	li	a0,32
   14298:	00b70733          	add	a4,a4,a1
   1429c:	40e505b3          	sub	a1,a0,a4
   142a0:	02e51663          	bne	a0,a4,142cc <__udivdi3+0x300>
   142a4:	00100513          	li	a0,1
   142a8:	eef6eee3          	bltu	a3,a5,141a4 <__udivdi3+0x1d8>
   142ac:	00c8b533          	sltu	a0,a7,a2
   142b0:	00154513          	xori	a0,a0,1
   142b4:	ef1ff06f          	j	141a4 <__udivdi3+0x1d8>
   142b8:	01000737          	lui	a4,0x1000
   142bc:	01000593          	li	a1,16
   142c0:	fce6e0e3          	bltu	a3,a4,14280 <__udivdi3+0x2b4>
   142c4:	01800593          	li	a1,24
   142c8:	fb9ff06f          	j	14280 <__udivdi3+0x2b4>
   142cc:	00e65833          	srl	a6,a2,a4
   142d0:	00b696b3          	sll	a3,a3,a1
   142d4:	00d86833          	or	a6,a6,a3
   142d8:	00e7de33          	srl	t3,a5,a4
   142dc:	01085e93          	srli	t4,a6,0x10
   142e0:	03de76b3          	remu	a3,t3,t4
   142e4:	00b797b3          	sll	a5,a5,a1
   142e8:	00e8d733          	srl	a4,a7,a4
   142ec:	00b61333          	sll	t1,a2,a1
   142f0:	00f76633          	or	a2,a4,a5
   142f4:	01081793          	slli	a5,a6,0x10
   142f8:	0107d793          	srli	a5,a5,0x10
   142fc:	01065713          	srli	a4,a2,0x10
   14300:	03de5e33          	divu	t3,t3,t4
   14304:	01069693          	slli	a3,a3,0x10
   14308:	00e6e733          	or	a4,a3,a4
   1430c:	03c78f33          	mul	t5,a5,t3
   14310:	000e0513          	mv	a0,t3
   14314:	01e77e63          	bgeu	a4,t5,14330 <__udivdi3+0x364>
   14318:	01070733          	add	a4,a4,a6
   1431c:	fffe0513          	addi	a0,t3,-1
   14320:	01076863          	bltu	a4,a6,14330 <__udivdi3+0x364>
   14324:	01e77663          	bgeu	a4,t5,14330 <__udivdi3+0x364>
   14328:	ffee0513          	addi	a0,t3,-2
   1432c:	01070733          	add	a4,a4,a6
   14330:	41e70733          	sub	a4,a4,t5
   14334:	03d776b3          	remu	a3,a4,t4
   14338:	03d75733          	divu	a4,a4,t4
   1433c:	01069693          	slli	a3,a3,0x10
   14340:	02e78e33          	mul	t3,a5,a4
   14344:	01061793          	slli	a5,a2,0x10
   14348:	0107d793          	srli	a5,a5,0x10
   1434c:	00f6e7b3          	or	a5,a3,a5
   14350:	00070613          	mv	a2,a4
   14354:	01c7fe63          	bgeu	a5,t3,14370 <__udivdi3+0x3a4>
   14358:	010787b3          	add	a5,a5,a6
   1435c:	fff70613          	addi	a2,a4,-1 # ffffff <__BSS_END__+0xfe6223>
   14360:	0107e863          	bltu	a5,a6,14370 <__udivdi3+0x3a4>
   14364:	01c7f663          	bgeu	a5,t3,14370 <__udivdi3+0x3a4>
   14368:	ffe70613          	addi	a2,a4,-2
   1436c:	010787b3          	add	a5,a5,a6
   14370:	01051513          	slli	a0,a0,0x10
   14374:	00010eb7          	lui	t4,0x10
   14378:	00c56533          	or	a0,a0,a2
   1437c:	fffe8693          	addi	a3,t4,-1 # ffff <main-0x75>
   14380:	00d57833          	and	a6,a0,a3
   14384:	01055613          	srli	a2,a0,0x10
   14388:	00d376b3          	and	a3,t1,a3
   1438c:	01035313          	srli	t1,t1,0x10
   14390:	41c787b3          	sub	a5,a5,t3
   14394:	02d80e33          	mul	t3,a6,a3
   14398:	02d606b3          	mul	a3,a2,a3
   1439c:	010e5713          	srli	a4,t3,0x10
   143a0:	02680833          	mul	a6,a6,t1
   143a4:	00d80833          	add	a6,a6,a3
   143a8:	01070733          	add	a4,a4,a6
   143ac:	02660633          	mul	a2,a2,t1
   143b0:	00d77463          	bgeu	a4,a3,143b8 <__udivdi3+0x3ec>
   143b4:	01d60633          	add	a2,a2,t4
   143b8:	01075693          	srli	a3,a4,0x10
   143bc:	00c68633          	add	a2,a3,a2
   143c0:	02c7e663          	bltu	a5,a2,143ec <__udivdi3+0x420>
   143c4:	cec79ce3          	bne	a5,a2,140bc <__udivdi3+0xf0>
   143c8:	000107b7          	lui	a5,0x10
   143cc:	fff78793          	addi	a5,a5,-1 # ffff <main-0x75>
   143d0:	00f77733          	and	a4,a4,a5
   143d4:	01071713          	slli	a4,a4,0x10
   143d8:	00fe7e33          	and	t3,t3,a5
   143dc:	00b898b3          	sll	a7,a7,a1
   143e0:	01c70733          	add	a4,a4,t3
   143e4:	00000593          	li	a1,0
   143e8:	dae8fee3          	bgeu	a7,a4,141a4 <__udivdi3+0x1d8>
   143ec:	fff50513          	addi	a0,a0,-1
   143f0:	ccdff06f          	j	140bc <__udivdi3+0xf0>
   143f4:	00000593          	li	a1,0
   143f8:	00000513          	li	a0,0
   143fc:	da9ff06f          	j	141a4 <__udivdi3+0x1d8>

00014400 <abs>:
   14400:	41f55793          	srai	a5,a0,0x1f
   14404:	00a7c533          	xor	a0,a5,a0
   14408:	40f50533          	sub	a0,a0,a5
   1440c:	00008067          	ret

00014410 <exit>:
   14410:	ff010113          	addi	sp,sp,-16
   14414:	00000593          	li	a1,0
   14418:	00812423          	sw	s0,8(sp)
   1441c:	00112623          	sw	ra,12(sp)
   14420:	00050413          	mv	s0,a0
   14424:	2d1000ef          	jal	ra,14ef4 <__call_exitprocs>
   14428:	42c1a503          	lw	a0,1068(gp) # 19a08 <_global_impure_ptr>
   1442c:	03c52783          	lw	a5,60(a0)
   14430:	00078463          	beqz	a5,14438 <exit+0x28>
   14434:	000780e7          	jalr	a5
   14438:	00040513          	mv	a0,s0
   1443c:	118010ef          	jal	ra,15554 <_exit>

00014440 <__libc_init_array>:
   14440:	ff010113          	addi	sp,sp,-16
   14444:	00812423          	sw	s0,8(sp)
   14448:	01212023          	sw	s2,0(sp)
   1444c:	00019437          	lui	s0,0x19
   14450:	00019937          	lui	s2,0x19
   14454:	81c40793          	addi	a5,s0,-2020 # 1881c <__init_array_start>
   14458:	81c90913          	addi	s2,s2,-2020 # 1881c <__init_array_start>
   1445c:	40f90933          	sub	s2,s2,a5
   14460:	00112623          	sw	ra,12(sp)
   14464:	00912223          	sw	s1,4(sp)
   14468:	40295913          	srai	s2,s2,0x2
   1446c:	02090063          	beqz	s2,1448c <__libc_init_array+0x4c>
   14470:	81c40413          	addi	s0,s0,-2020
   14474:	00000493          	li	s1,0
   14478:	00042783          	lw	a5,0(s0)
   1447c:	00148493          	addi	s1,s1,1
   14480:	00440413          	addi	s0,s0,4
   14484:	000780e7          	jalr	a5
   14488:	fe9918e3          	bne	s2,s1,14478 <__libc_init_array+0x38>
   1448c:	00019437          	lui	s0,0x19
   14490:	00019937          	lui	s2,0x19
   14494:	81c40793          	addi	a5,s0,-2020 # 1881c <__init_array_start>
   14498:	82490913          	addi	s2,s2,-2012 # 18824 <__do_global_dtors_aux_fini_array_entry>
   1449c:	40f90933          	sub	s2,s2,a5
   144a0:	40295913          	srai	s2,s2,0x2
   144a4:	02090063          	beqz	s2,144c4 <__libc_init_array+0x84>
   144a8:	81c40413          	addi	s0,s0,-2020
   144ac:	00000493          	li	s1,0
   144b0:	00042783          	lw	a5,0(s0)
   144b4:	00148493          	addi	s1,s1,1
   144b8:	00440413          	addi	s0,s0,4
   144bc:	000780e7          	jalr	a5
   144c0:	fe9918e3          	bne	s2,s1,144b0 <__libc_init_array+0x70>
   144c4:	00c12083          	lw	ra,12(sp)
   144c8:	00812403          	lw	s0,8(sp)
   144cc:	00412483          	lw	s1,4(sp)
   144d0:	00012903          	lw	s2,0(sp)
   144d4:	01010113          	addi	sp,sp,16
   144d8:	00008067          	ret

000144dc <malloc>:
   144dc:	00050593          	mv	a1,a0
   144e0:	4301a503          	lw	a0,1072(gp) # 19a0c <_impure_ptr>
   144e4:	0100006f          	j	144f4 <_malloc_r>

000144e8 <free>:
   144e8:	00050593          	mv	a1,a0
   144ec:	4301a503          	lw	a0,1072(gp) # 19a0c <_impure_ptr>
   144f0:	4b90006f          	j	151a8 <_free_r>

000144f4 <_malloc_r>:
   144f4:	fd010113          	addi	sp,sp,-48
   144f8:	01312e23          	sw	s3,28(sp)
   144fc:	02112623          	sw	ra,44(sp)
   14500:	02812423          	sw	s0,40(sp)
   14504:	02912223          	sw	s1,36(sp)
   14508:	03212023          	sw	s2,32(sp)
   1450c:	01412c23          	sw	s4,24(sp)
   14510:	01512a23          	sw	s5,20(sp)
   14514:	01612823          	sw	s6,16(sp)
   14518:	01712623          	sw	s7,12(sp)
   1451c:	01812423          	sw	s8,8(sp)
   14520:	01912223          	sw	s9,4(sp)
   14524:	00b58793          	addi	a5,a1,11
   14528:	01600713          	li	a4,22
   1452c:	00050993          	mv	s3,a0
   14530:	06f76463          	bltu	a4,a5,14598 <_malloc_r+0xa4>
   14534:	01000793          	li	a5,16
   14538:	1eb7e263          	bltu	a5,a1,1471c <_malloc_r+0x228>
   1453c:	155000ef          	jal	ra,14e90 <__malloc_lock>
   14540:	01000493          	li	s1,16
   14544:	01800793          	li	a5,24
   14548:	00200613          	li	a2,2
   1454c:	fb418913          	addi	s2,gp,-76 # 19590 <__malloc_av_>
   14550:	00f907b3          	add	a5,s2,a5
   14554:	0047a403          	lw	s0,4(a5)
   14558:	ff878713          	addi	a4,a5,-8
   1455c:	20e40863          	beq	s0,a4,1476c <_malloc_r+0x278>
   14560:	00442783          	lw	a5,4(s0)
   14564:	00c42683          	lw	a3,12(s0)
   14568:	00842603          	lw	a2,8(s0)
   1456c:	ffc7f793          	andi	a5,a5,-4
   14570:	00f407b3          	add	a5,s0,a5
   14574:	0047a703          	lw	a4,4(a5)
   14578:	00d62623          	sw	a3,12(a2)
   1457c:	00c6a423          	sw	a2,8(a3)
   14580:	00176713          	ori	a4,a4,1
   14584:	00098513          	mv	a0,s3
   14588:	00e7a223          	sw	a4,4(a5)
   1458c:	109000ef          	jal	ra,14e94 <__malloc_unlock>
   14590:	00840513          	addi	a0,s0,8
   14594:	1940006f          	j	14728 <_malloc_r+0x234>
   14598:	ff87f493          	andi	s1,a5,-8
   1459c:	1807c063          	bltz	a5,1471c <_malloc_r+0x228>
   145a0:	16b4ee63          	bltu	s1,a1,1471c <_malloc_r+0x228>
   145a4:	0ed000ef          	jal	ra,14e90 <__malloc_lock>
   145a8:	1f700793          	li	a5,503
   145ac:	4497fa63          	bgeu	a5,s1,14a00 <_malloc_r+0x50c>
   145b0:	0094d793          	srli	a5,s1,0x9
   145b4:	1a078463          	beqz	a5,1475c <_malloc_r+0x268>
   145b8:	00400713          	li	a4,4
   145bc:	3cf76063          	bltu	a4,a5,1497c <_malloc_r+0x488>
   145c0:	0064d793          	srli	a5,s1,0x6
   145c4:	03978613          	addi	a2,a5,57
   145c8:	03878513          	addi	a0,a5,56
   145cc:	00361693          	slli	a3,a2,0x3
   145d0:	fb418913          	addi	s2,gp,-76 # 19590 <__malloc_av_>
   145d4:	00d906b3          	add	a3,s2,a3
   145d8:	0046a403          	lw	s0,4(a3)
   145dc:	ff868693          	addi	a3,a3,-8
   145e0:	02868663          	beq	a3,s0,1460c <_malloc_r+0x118>
   145e4:	00f00593          	li	a1,15
   145e8:	0100006f          	j	145f8 <_malloc_r+0x104>
   145ec:	32075263          	bgez	a4,14910 <_malloc_r+0x41c>
   145f0:	00c42403          	lw	s0,12(s0)
   145f4:	00868c63          	beq	a3,s0,1460c <_malloc_r+0x118>
   145f8:	00442783          	lw	a5,4(s0)
   145fc:	ffc7f793          	andi	a5,a5,-4
   14600:	40978733          	sub	a4,a5,s1
   14604:	fee5d4e3          	bge	a1,a4,145ec <_malloc_r+0xf8>
   14608:	00050613          	mv	a2,a0
   1460c:	01092403          	lw	s0,16(s2)
   14610:	00890893          	addi	a7,s2,8
   14614:	17140863          	beq	s0,a7,14784 <_malloc_r+0x290>
   14618:	00442503          	lw	a0,4(s0)
   1461c:	00f00693          	li	a3,15
   14620:	ffc57513          	andi	a0,a0,-4
   14624:	409507b3          	sub	a5,a0,s1
   14628:	40f6c263          	blt	a3,a5,14a2c <_malloc_r+0x538>
   1462c:	01192a23          	sw	a7,20(s2)
   14630:	01192823          	sw	a7,16(s2)
   14634:	3c07dc63          	bgez	a5,14a0c <_malloc_r+0x518>
   14638:	1ff00793          	li	a5,511
   1463c:	2ea7e063          	bltu	a5,a0,1491c <_malloc_r+0x428>
   14640:	ff857793          	andi	a5,a0,-8
   14644:	00878793          	addi	a5,a5,8
   14648:	00492583          	lw	a1,4(s2)
   1464c:	00f907b3          	add	a5,s2,a5
   14650:	0007a683          	lw	a3,0(a5)
   14654:	00555513          	srli	a0,a0,0x5
   14658:	00100713          	li	a4,1
   1465c:	00a71733          	sll	a4,a4,a0
   14660:	00b76733          	or	a4,a4,a1
   14664:	ff878593          	addi	a1,a5,-8
   14668:	00b42623          	sw	a1,12(s0)
   1466c:	00d42423          	sw	a3,8(s0)
   14670:	00e92223          	sw	a4,4(s2)
   14674:	0087a023          	sw	s0,0(a5)
   14678:	0086a623          	sw	s0,12(a3)
   1467c:	40265793          	srai	a5,a2,0x2
   14680:	00100593          	li	a1,1
   14684:	00f595b3          	sll	a1,a1,a5
   14688:	10b76863          	bltu	a4,a1,14798 <_malloc_r+0x2a4>
   1468c:	00e5f7b3          	and	a5,a1,a4
   14690:	02079463          	bnez	a5,146b8 <_malloc_r+0x1c4>
   14694:	00159593          	slli	a1,a1,0x1
   14698:	ffc67613          	andi	a2,a2,-4
   1469c:	00e5f7b3          	and	a5,a1,a4
   146a0:	00460613          	addi	a2,a2,4
   146a4:	00079a63          	bnez	a5,146b8 <_malloc_r+0x1c4>
   146a8:	00159593          	slli	a1,a1,0x1
   146ac:	00e5f7b3          	and	a5,a1,a4
   146b0:	00460613          	addi	a2,a2,4
   146b4:	fe078ae3          	beqz	a5,146a8 <_malloc_r+0x1b4>
   146b8:	00f00813          	li	a6,15
   146bc:	00361313          	slli	t1,a2,0x3
   146c0:	00690333          	add	t1,s2,t1
   146c4:	00030513          	mv	a0,t1
   146c8:	00c52783          	lw	a5,12(a0)
   146cc:	00060e13          	mv	t3,a2
   146d0:	2cf50863          	beq	a0,a5,149a0 <_malloc_r+0x4ac>
   146d4:	0047a703          	lw	a4,4(a5)
   146d8:	00078413          	mv	s0,a5
   146dc:	00c7a783          	lw	a5,12(a5)
   146e0:	ffc77713          	andi	a4,a4,-4
   146e4:	409706b3          	sub	a3,a4,s1
   146e8:	2cd84863          	blt	a6,a3,149b8 <_malloc_r+0x4c4>
   146ec:	fe06c2e3          	bltz	a3,146d0 <_malloc_r+0x1dc>
   146f0:	00e40733          	add	a4,s0,a4
   146f4:	00472683          	lw	a3,4(a4)
   146f8:	00842603          	lw	a2,8(s0)
   146fc:	00098513          	mv	a0,s3
   14700:	0016e693          	ori	a3,a3,1
   14704:	00d72223          	sw	a3,4(a4)
   14708:	00f62623          	sw	a5,12(a2)
   1470c:	00c7a423          	sw	a2,8(a5)
   14710:	784000ef          	jal	ra,14e94 <__malloc_unlock>
   14714:	00840513          	addi	a0,s0,8
   14718:	0100006f          	j	14728 <_malloc_r+0x234>
   1471c:	00c00793          	li	a5,12
   14720:	00f9a023          	sw	a5,0(s3)
   14724:	00000513          	li	a0,0
   14728:	02c12083          	lw	ra,44(sp)
   1472c:	02812403          	lw	s0,40(sp)
   14730:	02412483          	lw	s1,36(sp)
   14734:	02012903          	lw	s2,32(sp)
   14738:	01c12983          	lw	s3,28(sp)
   1473c:	01812a03          	lw	s4,24(sp)
   14740:	01412a83          	lw	s5,20(sp)
   14744:	01012b03          	lw	s6,16(sp)
   14748:	00c12b83          	lw	s7,12(sp)
   1474c:	00812c03          	lw	s8,8(sp)
   14750:	00412c83          	lw	s9,4(sp)
   14754:	03010113          	addi	sp,sp,48
   14758:	00008067          	ret
   1475c:	20000693          	li	a3,512
   14760:	04000613          	li	a2,64
   14764:	03f00513          	li	a0,63
   14768:	e69ff06f          	j	145d0 <_malloc_r+0xdc>
   1476c:	00c7a403          	lw	s0,12(a5)
   14770:	00260613          	addi	a2,a2,2
   14774:	de8796e3          	bne	a5,s0,14560 <_malloc_r+0x6c>
   14778:	01092403          	lw	s0,16(s2)
   1477c:	00890893          	addi	a7,s2,8
   14780:	e9141ce3          	bne	s0,a7,14618 <_malloc_r+0x124>
   14784:	00492703          	lw	a4,4(s2)
   14788:	40265793          	srai	a5,a2,0x2
   1478c:	00100593          	li	a1,1
   14790:	00f595b3          	sll	a1,a1,a5
   14794:	eeb77ce3          	bgeu	a4,a1,1468c <_malloc_r+0x198>
   14798:	00892403          	lw	s0,8(s2)
   1479c:	00442a83          	lw	s5,4(s0)
   147a0:	ffcafb13          	andi	s6,s5,-4
   147a4:	009b6863          	bltu	s6,s1,147b4 <_malloc_r+0x2c0>
   147a8:	409b07b3          	sub	a5,s6,s1
   147ac:	00f00713          	li	a4,15
   147b0:	12f74c63          	blt	a4,a5,148e8 <_malloc_r+0x3f4>
   147b4:	4441aa83          	lw	s5,1092(gp) # 19a20 <__malloc_top_pad>
   147b8:	4341a703          	lw	a4,1076(gp) # 19a10 <__malloc_sbrk_base>
   147bc:	fff00793          	li	a5,-1
   147c0:	01640a33          	add	s4,s0,s6
   147c4:	01548ab3          	add	s5,s1,s5
   147c8:	34f70463          	beq	a4,a5,14b10 <_malloc_r+0x61c>
   147cc:	000017b7          	lui	a5,0x1
   147d0:	00f78793          	addi	a5,a5,15 # 100f <main-0xf065>
   147d4:	00fa8ab3          	add	s5,s5,a5
   147d8:	fffff7b7          	lui	a5,0xfffff
   147dc:	00fafab3          	and	s5,s5,a5
   147e0:	000a8593          	mv	a1,s5
   147e4:	00098513          	mv	a0,s3
   147e8:	6b0000ef          	jal	ra,14e98 <_sbrk_r>
   147ec:	fff00793          	li	a5,-1
   147f0:	00050b93          	mv	s7,a0
   147f4:	28f50663          	beq	a0,a5,14a80 <_malloc_r+0x58c>
   147f8:	29456263          	bltu	a0,s4,14a7c <_malloc_r+0x588>
   147fc:	7d818c13          	addi	s8,gp,2008 # 19db4 <__malloc_current_mallinfo>
   14800:	000c2583          	lw	a1,0(s8)
   14804:	00ba85b3          	add	a1,s5,a1
   14808:	00bc2023          	sw	a1,0(s8)
   1480c:	00058793          	mv	a5,a1
   14810:	38aa0e63          	beq	s4,a0,14bac <_malloc_r+0x6b8>
   14814:	4341a683          	lw	a3,1076(gp) # 19a10 <__malloc_sbrk_base>
   14818:	fff00713          	li	a4,-1
   1481c:	3ae68663          	beq	a3,a4,14bc8 <_malloc_r+0x6d4>
   14820:	414b8a33          	sub	s4,s7,s4
   14824:	00fa07b3          	add	a5,s4,a5
   14828:	00fc2023          	sw	a5,0(s8)
   1482c:	007bfc93          	andi	s9,s7,7
   14830:	300c8263          	beqz	s9,14b34 <_malloc_r+0x640>
   14834:	000017b7          	lui	a5,0x1
   14838:	419b8bb3          	sub	s7,s7,s9
   1483c:	00878593          	addi	a1,a5,8 # 1008 <main-0xf06c>
   14840:	008b8b93          	addi	s7,s7,8
   14844:	419585b3          	sub	a1,a1,s9
   14848:	015b8ab3          	add	s5,s7,s5
   1484c:	fff78793          	addi	a5,a5,-1
   14850:	415585b3          	sub	a1,a1,s5
   14854:	00f5fa33          	and	s4,a1,a5
   14858:	000a0593          	mv	a1,s4
   1485c:	00098513          	mv	a0,s3
   14860:	638000ef          	jal	ra,14e98 <_sbrk_r>
   14864:	fff00793          	li	a5,-1
   14868:	3af50a63          	beq	a0,a5,14c1c <_malloc_r+0x728>
   1486c:	41750533          	sub	a0,a0,s7
   14870:	01450ab3          	add	s5,a0,s4
   14874:	000c2583          	lw	a1,0(s8)
   14878:	01792423          	sw	s7,8(s2)
   1487c:	001aea93          	ori	s5,s5,1
   14880:	00ba05b3          	add	a1,s4,a1
   14884:	00bc2023          	sw	a1,0(s8)
   14888:	015ba223          	sw	s5,4(s7)
   1488c:	35240263          	beq	s0,s2,14bd0 <_malloc_r+0x6dc>
   14890:	00f00693          	li	a3,15
   14894:	3566f263          	bgeu	a3,s6,14bd8 <_malloc_r+0x6e4>
   14898:	00442703          	lw	a4,4(s0)
   1489c:	ff4b0793          	addi	a5,s6,-12
   148a0:	ff87f793          	andi	a5,a5,-8
   148a4:	00177713          	andi	a4,a4,1
   148a8:	00f76733          	or	a4,a4,a5
   148ac:	00e42223          	sw	a4,4(s0)
   148b0:	00500613          	li	a2,5
   148b4:	00f40733          	add	a4,s0,a5
   148b8:	00c72223          	sw	a2,4(a4)
   148bc:	00c72423          	sw	a2,8(a4)
   148c0:	36f6e863          	bltu	a3,a5,14c30 <_malloc_r+0x73c>
   148c4:	004baa83          	lw	s5,4(s7)
   148c8:	000b8413          	mv	s0,s7
   148cc:	4401a703          	lw	a4,1088(gp) # 19a1c <__malloc_max_sbrked_mem>
   148d0:	00b77463          	bgeu	a4,a1,148d8 <_malloc_r+0x3e4>
   148d4:	44b1a023          	sw	a1,1088(gp) # 19a1c <__malloc_max_sbrked_mem>
   148d8:	43c1a703          	lw	a4,1084(gp) # 19a18 <__malloc_max_total_mem>
   148dc:	1ab77663          	bgeu	a4,a1,14a88 <_malloc_r+0x594>
   148e0:	42b1ae23          	sw	a1,1084(gp) # 19a18 <__malloc_max_total_mem>
   148e4:	1a40006f          	j	14a88 <_malloc_r+0x594>
   148e8:	0014e713          	ori	a4,s1,1
   148ec:	00e42223          	sw	a4,4(s0)
   148f0:	009404b3          	add	s1,s0,s1
   148f4:	00992423          	sw	s1,8(s2)
   148f8:	0017e793          	ori	a5,a5,1
   148fc:	00098513          	mv	a0,s3
   14900:	00f4a223          	sw	a5,4(s1)
   14904:	590000ef          	jal	ra,14e94 <__malloc_unlock>
   14908:	00840513          	addi	a0,s0,8
   1490c:	e1dff06f          	j	14728 <_malloc_r+0x234>
   14910:	00c42683          	lw	a3,12(s0)
   14914:	00842603          	lw	a2,8(s0)
   14918:	c59ff06f          	j	14570 <_malloc_r+0x7c>
   1491c:	00955793          	srli	a5,a0,0x9
   14920:	00400713          	li	a4,4
   14924:	14f77263          	bgeu	a4,a5,14a68 <_malloc_r+0x574>
   14928:	01400713          	li	a4,20
   1492c:	22f76a63          	bltu	a4,a5,14b60 <_malloc_r+0x66c>
   14930:	05c78693          	addi	a3,a5,92
   14934:	05b78593          	addi	a1,a5,91
   14938:	00369693          	slli	a3,a3,0x3
   1493c:	00d906b3          	add	a3,s2,a3
   14940:	0006a783          	lw	a5,0(a3)
   14944:	ff868693          	addi	a3,a3,-8
   14948:	1cf68863          	beq	a3,a5,14b18 <_malloc_r+0x624>
   1494c:	0047a703          	lw	a4,4(a5)
   14950:	ffc77713          	andi	a4,a4,-4
   14954:	00e57663          	bgeu	a0,a4,14960 <_malloc_r+0x46c>
   14958:	0087a783          	lw	a5,8(a5)
   1495c:	fef698e3          	bne	a3,a5,1494c <_malloc_r+0x458>
   14960:	00c7a683          	lw	a3,12(a5)
   14964:	00492703          	lw	a4,4(s2)
   14968:	00d42623          	sw	a3,12(s0)
   1496c:	00f42423          	sw	a5,8(s0)
   14970:	0086a423          	sw	s0,8(a3)
   14974:	0087a623          	sw	s0,12(a5)
   14978:	d05ff06f          	j	1467c <_malloc_r+0x188>
   1497c:	01400713          	li	a4,20
   14980:	12f77663          	bgeu	a4,a5,14aac <_malloc_r+0x5b8>
   14984:	05400713          	li	a4,84
   14988:	1ef76a63          	bltu	a4,a5,14b7c <_malloc_r+0x688>
   1498c:	00c4d793          	srli	a5,s1,0xc
   14990:	06f78613          	addi	a2,a5,111
   14994:	06e78513          	addi	a0,a5,110
   14998:	00361693          	slli	a3,a2,0x3
   1499c:	c35ff06f          	j	145d0 <_malloc_r+0xdc>
   149a0:	001e0e13          	addi	t3,t3,1
   149a4:	003e7793          	andi	a5,t3,3
   149a8:	00850513          	addi	a0,a0,8
   149ac:	10078e63          	beqz	a5,14ac8 <_malloc_r+0x5d4>
   149b0:	00c52783          	lw	a5,12(a0)
   149b4:	d1dff06f          	j	146d0 <_malloc_r+0x1dc>
   149b8:	00842603          	lw	a2,8(s0)
   149bc:	0014e593          	ori	a1,s1,1
   149c0:	00b42223          	sw	a1,4(s0)
   149c4:	00f62623          	sw	a5,12(a2)
   149c8:	00c7a423          	sw	a2,8(a5)
   149cc:	009404b3          	add	s1,s0,s1
   149d0:	00992a23          	sw	s1,20(s2)
   149d4:	00992823          	sw	s1,16(s2)
   149d8:	0016e793          	ori	a5,a3,1
   149dc:	0114a623          	sw	a7,12(s1)
   149e0:	0114a423          	sw	a7,8(s1)
   149e4:	00f4a223          	sw	a5,4(s1)
   149e8:	00e40733          	add	a4,s0,a4
   149ec:	00098513          	mv	a0,s3
   149f0:	00d72023          	sw	a3,0(a4)
   149f4:	4a0000ef          	jal	ra,14e94 <__malloc_unlock>
   149f8:	00840513          	addi	a0,s0,8
   149fc:	d2dff06f          	j	14728 <_malloc_r+0x234>
   14a00:	0034d613          	srli	a2,s1,0x3
   14a04:	00848793          	addi	a5,s1,8
   14a08:	b45ff06f          	j	1454c <_malloc_r+0x58>
   14a0c:	00a40733          	add	a4,s0,a0
   14a10:	00472783          	lw	a5,4(a4)
   14a14:	00098513          	mv	a0,s3
   14a18:	0017e793          	ori	a5,a5,1
   14a1c:	00f72223          	sw	a5,4(a4)
   14a20:	474000ef          	jal	ra,14e94 <__malloc_unlock>
   14a24:	00840513          	addi	a0,s0,8
   14a28:	d01ff06f          	j	14728 <_malloc_r+0x234>
   14a2c:	0014e713          	ori	a4,s1,1
   14a30:	00e42223          	sw	a4,4(s0)
   14a34:	009404b3          	add	s1,s0,s1
   14a38:	00992a23          	sw	s1,20(s2)
   14a3c:	00992823          	sw	s1,16(s2)
   14a40:	0017e713          	ori	a4,a5,1
   14a44:	0114a623          	sw	a7,12(s1)
   14a48:	0114a423          	sw	a7,8(s1)
   14a4c:	00e4a223          	sw	a4,4(s1)
   14a50:	00a40533          	add	a0,s0,a0
   14a54:	00f52023          	sw	a5,0(a0)
   14a58:	00098513          	mv	a0,s3
   14a5c:	438000ef          	jal	ra,14e94 <__malloc_unlock>
   14a60:	00840513          	addi	a0,s0,8
   14a64:	cc5ff06f          	j	14728 <_malloc_r+0x234>
   14a68:	00655793          	srli	a5,a0,0x6
   14a6c:	03978693          	addi	a3,a5,57
   14a70:	03878593          	addi	a1,a5,56
   14a74:	00369693          	slli	a3,a3,0x3
   14a78:	ec5ff06f          	j	1493c <_malloc_r+0x448>
   14a7c:	11240e63          	beq	s0,s2,14b98 <_malloc_r+0x6a4>
   14a80:	00892403          	lw	s0,8(s2)
   14a84:	00442a83          	lw	s5,4(s0)
   14a88:	ffcafa93          	andi	s5,s5,-4
   14a8c:	409a87b3          	sub	a5,s5,s1
   14a90:	009ae663          	bltu	s5,s1,14a9c <_malloc_r+0x5a8>
   14a94:	00f00713          	li	a4,15
   14a98:	e4f748e3          	blt	a4,a5,148e8 <_malloc_r+0x3f4>
   14a9c:	00098513          	mv	a0,s3
   14aa0:	3f4000ef          	jal	ra,14e94 <__malloc_unlock>
   14aa4:	00000513          	li	a0,0
   14aa8:	c81ff06f          	j	14728 <_malloc_r+0x234>
   14aac:	05c78613          	addi	a2,a5,92
   14ab0:	05b78513          	addi	a0,a5,91
   14ab4:	00361693          	slli	a3,a2,0x3
   14ab8:	b19ff06f          	j	145d0 <_malloc_r+0xdc>
   14abc:	00832783          	lw	a5,8(t1)
   14ac0:	fff60613          	addi	a2,a2,-1
   14ac4:	1c679063          	bne	a5,t1,14c84 <_malloc_r+0x790>
   14ac8:	00367793          	andi	a5,a2,3
   14acc:	ff830313          	addi	t1,t1,-8
   14ad0:	fe0796e3          	bnez	a5,14abc <_malloc_r+0x5c8>
   14ad4:	00492703          	lw	a4,4(s2)
   14ad8:	fff5c793          	not	a5,a1
   14adc:	00e7f7b3          	and	a5,a5,a4
   14ae0:	00f92223          	sw	a5,4(s2)
   14ae4:	00159593          	slli	a1,a1,0x1
   14ae8:	cab7e8e3          	bltu	a5,a1,14798 <_malloc_r+0x2a4>
   14aec:	ca0586e3          	beqz	a1,14798 <_malloc_r+0x2a4>
   14af0:	00f5f733          	and	a4,a1,a5
   14af4:	00071a63          	bnez	a4,14b08 <_malloc_r+0x614>
   14af8:	00159593          	slli	a1,a1,0x1
   14afc:	00f5f733          	and	a4,a1,a5
   14b00:	004e0e13          	addi	t3,t3,4
   14b04:	fe070ae3          	beqz	a4,14af8 <_malloc_r+0x604>
   14b08:	000e0613          	mv	a2,t3
   14b0c:	bb1ff06f          	j	146bc <_malloc_r+0x1c8>
   14b10:	010a8a93          	addi	s5,s5,16
   14b14:	ccdff06f          	j	147e0 <_malloc_r+0x2ec>
   14b18:	00492503          	lw	a0,4(s2)
   14b1c:	4025d593          	srai	a1,a1,0x2
   14b20:	00100713          	li	a4,1
   14b24:	00b71733          	sll	a4,a4,a1
   14b28:	00a76733          	or	a4,a4,a0
   14b2c:	00e92223          	sw	a4,4(s2)
   14b30:	e39ff06f          	j	14968 <_malloc_r+0x474>
   14b34:	015b85b3          	add	a1,s7,s5
   14b38:	40b005b3          	neg	a1,a1
   14b3c:	01459593          	slli	a1,a1,0x14
   14b40:	0145da13          	srli	s4,a1,0x14
   14b44:	000a0593          	mv	a1,s4
   14b48:	00098513          	mv	a0,s3
   14b4c:	34c000ef          	jal	ra,14e98 <_sbrk_r>
   14b50:	fff00793          	li	a5,-1
   14b54:	d0f51ce3          	bne	a0,a5,1486c <_malloc_r+0x378>
   14b58:	00000a13          	li	s4,0
   14b5c:	d19ff06f          	j	14874 <_malloc_r+0x380>
   14b60:	05400713          	li	a4,84
   14b64:	08f76063          	bltu	a4,a5,14be4 <_malloc_r+0x6f0>
   14b68:	00c55793          	srli	a5,a0,0xc
   14b6c:	06f78693          	addi	a3,a5,111
   14b70:	06e78593          	addi	a1,a5,110
   14b74:	00369693          	slli	a3,a3,0x3
   14b78:	dc5ff06f          	j	1493c <_malloc_r+0x448>
   14b7c:	15400713          	li	a4,340
   14b80:	08f76063          	bltu	a4,a5,14c00 <_malloc_r+0x70c>
   14b84:	00f4d793          	srli	a5,s1,0xf
   14b88:	07878613          	addi	a2,a5,120
   14b8c:	07778513          	addi	a0,a5,119
   14b90:	00361693          	slli	a3,a2,0x3
   14b94:	a3dff06f          	j	145d0 <_malloc_r+0xdc>
   14b98:	7d818c13          	addi	s8,gp,2008 # 19db4 <__malloc_current_mallinfo>
   14b9c:	000c2783          	lw	a5,0(s8)
   14ba0:	00fa87b3          	add	a5,s5,a5
   14ba4:	00fc2023          	sw	a5,0(s8)
   14ba8:	c6dff06f          	j	14814 <_malloc_r+0x320>
   14bac:	014a1713          	slli	a4,s4,0x14
   14bb0:	c60712e3          	bnez	a4,14814 <_malloc_r+0x320>
   14bb4:	00892403          	lw	s0,8(s2)
   14bb8:	015b0ab3          	add	s5,s6,s5
   14bbc:	001aea93          	ori	s5,s5,1
   14bc0:	01542223          	sw	s5,4(s0)
   14bc4:	d09ff06f          	j	148cc <_malloc_r+0x3d8>
   14bc8:	4371aa23          	sw	s7,1076(gp) # 19a10 <__malloc_sbrk_base>
   14bcc:	c61ff06f          	j	1482c <_malloc_r+0x338>
   14bd0:	000b8413          	mv	s0,s7
   14bd4:	cf9ff06f          	j	148cc <_malloc_r+0x3d8>
   14bd8:	00100793          	li	a5,1
   14bdc:	00fba223          	sw	a5,4(s7)
   14be0:	ebdff06f          	j	14a9c <_malloc_r+0x5a8>
   14be4:	15400713          	li	a4,340
   14be8:	06f76263          	bltu	a4,a5,14c4c <_malloc_r+0x758>
   14bec:	00f55793          	srli	a5,a0,0xf
   14bf0:	07878693          	addi	a3,a5,120
   14bf4:	07778593          	addi	a1,a5,119
   14bf8:	00369693          	slli	a3,a3,0x3
   14bfc:	d41ff06f          	j	1493c <_malloc_r+0x448>
   14c00:	55400713          	li	a4,1364
   14c04:	06f76263          	bltu	a4,a5,14c68 <_malloc_r+0x774>
   14c08:	0124d793          	srli	a5,s1,0x12
   14c0c:	07d78613          	addi	a2,a5,125
   14c10:	07c78513          	addi	a0,a5,124
   14c14:	00361693          	slli	a3,a2,0x3
   14c18:	9b9ff06f          	j	145d0 <_malloc_r+0xdc>
   14c1c:	ff8c8c93          	addi	s9,s9,-8
   14c20:	019a8ab3          	add	s5,s5,s9
   14c24:	417a8ab3          	sub	s5,s5,s7
   14c28:	00000a13          	li	s4,0
   14c2c:	c49ff06f          	j	14874 <_malloc_r+0x380>
   14c30:	00840593          	addi	a1,s0,8
   14c34:	00098513          	mv	a0,s3
   14c38:	570000ef          	jal	ra,151a8 <_free_r>
   14c3c:	00892403          	lw	s0,8(s2)
   14c40:	000c2583          	lw	a1,0(s8)
   14c44:	00442a83          	lw	s5,4(s0)
   14c48:	c85ff06f          	j	148cc <_malloc_r+0x3d8>
   14c4c:	55400713          	li	a4,1364
   14c50:	02f76463          	bltu	a4,a5,14c78 <_malloc_r+0x784>
   14c54:	01255793          	srli	a5,a0,0x12
   14c58:	07d78693          	addi	a3,a5,125
   14c5c:	07c78593          	addi	a1,a5,124
   14c60:	00369693          	slli	a3,a3,0x3
   14c64:	cd9ff06f          	j	1493c <_malloc_r+0x448>
   14c68:	3f800693          	li	a3,1016
   14c6c:	07f00613          	li	a2,127
   14c70:	07e00513          	li	a0,126
   14c74:	95dff06f          	j	145d0 <_malloc_r+0xdc>
   14c78:	3f800693          	li	a3,1016
   14c7c:	07e00593          	li	a1,126
   14c80:	cbdff06f          	j	1493c <_malloc_r+0x448>
   14c84:	00492783          	lw	a5,4(s2)
   14c88:	e5dff06f          	j	14ae4 <_malloc_r+0x5f0>

00014c8c <memcpy>:
   14c8c:	00a5c7b3          	xor	a5,a1,a0
   14c90:	0037f793          	andi	a5,a5,3
   14c94:	00c508b3          	add	a7,a0,a2
   14c98:	06079663          	bnez	a5,14d04 <memcpy+0x78>
   14c9c:	00300793          	li	a5,3
   14ca0:	06c7f263          	bgeu	a5,a2,14d04 <memcpy+0x78>
   14ca4:	00357793          	andi	a5,a0,3
   14ca8:	00050713          	mv	a4,a0
   14cac:	0c079a63          	bnez	a5,14d80 <memcpy+0xf4>
   14cb0:	ffc8f613          	andi	a2,a7,-4
   14cb4:	40e606b3          	sub	a3,a2,a4
   14cb8:	02000793          	li	a5,32
   14cbc:	02000293          	li	t0,32
   14cc0:	06d7c263          	blt	a5,a3,14d24 <memcpy+0x98>
   14cc4:	00058693          	mv	a3,a1
   14cc8:	00070793          	mv	a5,a4
   14ccc:	02c77863          	bgeu	a4,a2,14cfc <memcpy+0x70>
   14cd0:	0006a803          	lw	a6,0(a3)
   14cd4:	00478793          	addi	a5,a5,4
   14cd8:	00468693          	addi	a3,a3,4
   14cdc:	ff07ae23          	sw	a6,-4(a5)
   14ce0:	fec7e8e3          	bltu	a5,a2,14cd0 <memcpy+0x44>
   14ce4:	fff60793          	addi	a5,a2,-1
   14ce8:	40e787b3          	sub	a5,a5,a4
   14cec:	ffc7f793          	andi	a5,a5,-4
   14cf0:	00478793          	addi	a5,a5,4
   14cf4:	00f70733          	add	a4,a4,a5
   14cf8:	00f585b3          	add	a1,a1,a5
   14cfc:	01176863          	bltu	a4,a7,14d0c <memcpy+0x80>
   14d00:	00008067          	ret
   14d04:	00050713          	mv	a4,a0
   14d08:	ff157ce3          	bgeu	a0,a7,14d00 <memcpy+0x74>
   14d0c:	0005c783          	lbu	a5,0(a1)
   14d10:	00170713          	addi	a4,a4,1
   14d14:	00158593          	addi	a1,a1,1
   14d18:	fef70fa3          	sb	a5,-1(a4)
   14d1c:	ff1768e3          	bltu	a4,a7,14d0c <memcpy+0x80>
   14d20:	00008067          	ret
   14d24:	0045a683          	lw	a3,4(a1)
   14d28:	01c5a783          	lw	a5,28(a1)
   14d2c:	0005af83          	lw	t6,0(a1)
   14d30:	0085af03          	lw	t5,8(a1)
   14d34:	00c5ae83          	lw	t4,12(a1)
   14d38:	0105ae03          	lw	t3,16(a1)
   14d3c:	0145a303          	lw	t1,20(a1)
   14d40:	0185a803          	lw	a6,24(a1)
   14d44:	00d72223          	sw	a3,4(a4)
   14d48:	0205a683          	lw	a3,32(a1)
   14d4c:	01f72023          	sw	t6,0(a4)
   14d50:	01e72423          	sw	t5,8(a4)
   14d54:	01d72623          	sw	t4,12(a4)
   14d58:	01c72823          	sw	t3,16(a4)
   14d5c:	00672a23          	sw	t1,20(a4)
   14d60:	01072c23          	sw	a6,24(a4)
   14d64:	00f72e23          	sw	a5,28(a4)
   14d68:	02470713          	addi	a4,a4,36
   14d6c:	40e607b3          	sub	a5,a2,a4
   14d70:	fed72e23          	sw	a3,-4(a4)
   14d74:	02458593          	addi	a1,a1,36
   14d78:	faf2c6e3          	blt	t0,a5,14d24 <memcpy+0x98>
   14d7c:	f49ff06f          	j	14cc4 <memcpy+0x38>
   14d80:	0005c683          	lbu	a3,0(a1)
   14d84:	00170713          	addi	a4,a4,1
   14d88:	00377793          	andi	a5,a4,3
   14d8c:	fed70fa3          	sb	a3,-1(a4)
   14d90:	00158593          	addi	a1,a1,1
   14d94:	f0078ee3          	beqz	a5,14cb0 <memcpy+0x24>
   14d98:	0005c683          	lbu	a3,0(a1)
   14d9c:	00170713          	addi	a4,a4,1
   14da0:	00377793          	andi	a5,a4,3
   14da4:	fed70fa3          	sb	a3,-1(a4)
   14da8:	00158593          	addi	a1,a1,1
   14dac:	fc079ae3          	bnez	a5,14d80 <memcpy+0xf4>
   14db0:	f01ff06f          	j	14cb0 <memcpy+0x24>

00014db4 <memset>:
   14db4:	00f00313          	li	t1,15
   14db8:	00050713          	mv	a4,a0
   14dbc:	02c37e63          	bgeu	t1,a2,14df8 <memset+0x44>
   14dc0:	00f77793          	andi	a5,a4,15
   14dc4:	0a079063          	bnez	a5,14e64 <memset+0xb0>
   14dc8:	08059263          	bnez	a1,14e4c <memset+0x98>
   14dcc:	ff067693          	andi	a3,a2,-16
   14dd0:	00f67613          	andi	a2,a2,15
   14dd4:	00e686b3          	add	a3,a3,a4
   14dd8:	00b72023          	sw	a1,0(a4)
   14ddc:	00b72223          	sw	a1,4(a4)
   14de0:	00b72423          	sw	a1,8(a4)
   14de4:	00b72623          	sw	a1,12(a4)
   14de8:	01070713          	addi	a4,a4,16
   14dec:	fed766e3          	bltu	a4,a3,14dd8 <memset+0x24>
   14df0:	00061463          	bnez	a2,14df8 <memset+0x44>
   14df4:	00008067          	ret
   14df8:	40c306b3          	sub	a3,t1,a2
   14dfc:	00269693          	slli	a3,a3,0x2
   14e00:	00000297          	auipc	t0,0x0
   14e04:	005686b3          	add	a3,a3,t0
   14e08:	00c68067          	jr	12(a3)
   14e0c:	00b70723          	sb	a1,14(a4)
   14e10:	00b706a3          	sb	a1,13(a4)
   14e14:	00b70623          	sb	a1,12(a4)
   14e18:	00b705a3          	sb	a1,11(a4)
   14e1c:	00b70523          	sb	a1,10(a4)
   14e20:	00b704a3          	sb	a1,9(a4)
   14e24:	00b70423          	sb	a1,8(a4)
   14e28:	00b703a3          	sb	a1,7(a4)
   14e2c:	00b70323          	sb	a1,6(a4)
   14e30:	00b702a3          	sb	a1,5(a4)
   14e34:	00b70223          	sb	a1,4(a4)
   14e38:	00b701a3          	sb	a1,3(a4)
   14e3c:	00b70123          	sb	a1,2(a4)
   14e40:	00b700a3          	sb	a1,1(a4)
   14e44:	00b70023          	sb	a1,0(a4)
   14e48:	00008067          	ret
   14e4c:	0ff5f593          	andi	a1,a1,255
   14e50:	00859693          	slli	a3,a1,0x8
   14e54:	00d5e5b3          	or	a1,a1,a3
   14e58:	01059693          	slli	a3,a1,0x10
   14e5c:	00d5e5b3          	or	a1,a1,a3
   14e60:	f6dff06f          	j	14dcc <memset+0x18>
   14e64:	00279693          	slli	a3,a5,0x2
   14e68:	00000297          	auipc	t0,0x0
   14e6c:	005686b3          	add	a3,a3,t0
   14e70:	00008293          	mv	t0,ra
   14e74:	fa0680e7          	jalr	-96(a3)
   14e78:	00028093          	mv	ra,t0
   14e7c:	ff078793          	addi	a5,a5,-16
   14e80:	40f70733          	sub	a4,a4,a5
   14e84:	00f60633          	add	a2,a2,a5
   14e88:	f6c378e3          	bgeu	t1,a2,14df8 <memset+0x44>
   14e8c:	f3dff06f          	j	14dc8 <memset+0x14>

00014e90 <__malloc_lock>:
   14e90:	00008067          	ret

00014e94 <__malloc_unlock>:
   14e94:	00008067          	ret

00014e98 <_sbrk_r>:
   14e98:	ff010113          	addi	sp,sp,-16
   14e9c:	00812423          	sw	s0,8(sp)
   14ea0:	00912223          	sw	s1,4(sp)
   14ea4:	00050413          	mv	s0,a0
   14ea8:	00058513          	mv	a0,a1
   14eac:	00112623          	sw	ra,12(sp)
   14eb0:	4401a423          	sw	zero,1096(gp) # 19a24 <errno>
   14eb4:	6d0000ef          	jal	ra,15584 <_sbrk>
   14eb8:	fff00793          	li	a5,-1
   14ebc:	00f50c63          	beq	a0,a5,14ed4 <_sbrk_r+0x3c>
   14ec0:	00c12083          	lw	ra,12(sp)
   14ec4:	00812403          	lw	s0,8(sp)
   14ec8:	00412483          	lw	s1,4(sp)
   14ecc:	01010113          	addi	sp,sp,16
   14ed0:	00008067          	ret
   14ed4:	4481a783          	lw	a5,1096(gp) # 19a24 <errno>
   14ed8:	fe0784e3          	beqz	a5,14ec0 <_sbrk_r+0x28>
   14edc:	00c12083          	lw	ra,12(sp)
   14ee0:	00f42023          	sw	a5,0(s0)
   14ee4:	00812403          	lw	s0,8(sp)
   14ee8:	00412483          	lw	s1,4(sp)
   14eec:	01010113          	addi	sp,sp,16
   14ef0:	00008067          	ret

00014ef4 <__call_exitprocs>:
   14ef4:	fd010113          	addi	sp,sp,-48
   14ef8:	01412c23          	sw	s4,24(sp)
   14efc:	42c1aa03          	lw	s4,1068(gp) # 19a08 <_global_impure_ptr>
   14f00:	03212023          	sw	s2,32(sp)
   14f04:	02112623          	sw	ra,44(sp)
   14f08:	148a2903          	lw	s2,328(s4)
   14f0c:	02812423          	sw	s0,40(sp)
   14f10:	02912223          	sw	s1,36(sp)
   14f14:	01312e23          	sw	s3,28(sp)
   14f18:	01512a23          	sw	s5,20(sp)
   14f1c:	01612823          	sw	s6,16(sp)
   14f20:	01712623          	sw	s7,12(sp)
   14f24:	01812423          	sw	s8,8(sp)
   14f28:	04090063          	beqz	s2,14f68 <__call_exitprocs+0x74>
   14f2c:	00050b13          	mv	s6,a0
   14f30:	00058b93          	mv	s7,a1
   14f34:	00100a93          	li	s5,1
   14f38:	fff00993          	li	s3,-1
   14f3c:	00492483          	lw	s1,4(s2)
   14f40:	fff48413          	addi	s0,s1,-1
   14f44:	02044263          	bltz	s0,14f68 <__call_exitprocs+0x74>
   14f48:	00249493          	slli	s1,s1,0x2
   14f4c:	009904b3          	add	s1,s2,s1
   14f50:	040b8463          	beqz	s7,14f98 <__call_exitprocs+0xa4>
   14f54:	1044a783          	lw	a5,260(s1)
   14f58:	05778063          	beq	a5,s7,14f98 <__call_exitprocs+0xa4>
   14f5c:	fff40413          	addi	s0,s0,-1
   14f60:	ffc48493          	addi	s1,s1,-4
   14f64:	ff3416e3          	bne	s0,s3,14f50 <__call_exitprocs+0x5c>
   14f68:	02c12083          	lw	ra,44(sp)
   14f6c:	02812403          	lw	s0,40(sp)
   14f70:	02412483          	lw	s1,36(sp)
   14f74:	02012903          	lw	s2,32(sp)
   14f78:	01c12983          	lw	s3,28(sp)
   14f7c:	01812a03          	lw	s4,24(sp)
   14f80:	01412a83          	lw	s5,20(sp)
   14f84:	01012b03          	lw	s6,16(sp)
   14f88:	00c12b83          	lw	s7,12(sp)
   14f8c:	00812c03          	lw	s8,8(sp)
   14f90:	03010113          	addi	sp,sp,48
   14f94:	00008067          	ret
   14f98:	00492783          	lw	a5,4(s2)
   14f9c:	0044a683          	lw	a3,4(s1)
   14fa0:	fff78793          	addi	a5,a5,-1
   14fa4:	04878e63          	beq	a5,s0,15000 <__call_exitprocs+0x10c>
   14fa8:	0004a223          	sw	zero,4(s1)
   14fac:	fa0688e3          	beqz	a3,14f5c <__call_exitprocs+0x68>
   14fb0:	18892783          	lw	a5,392(s2)
   14fb4:	008a9733          	sll	a4,s5,s0
   14fb8:	00492c03          	lw	s8,4(s2)
   14fbc:	00f777b3          	and	a5,a4,a5
   14fc0:	02079263          	bnez	a5,14fe4 <__call_exitprocs+0xf0>
   14fc4:	000680e7          	jalr	a3
   14fc8:	00492703          	lw	a4,4(s2)
   14fcc:	148a2783          	lw	a5,328(s4)
   14fd0:	01871463          	bne	a4,s8,14fd8 <__call_exitprocs+0xe4>
   14fd4:	f92784e3          	beq	a5,s2,14f5c <__call_exitprocs+0x68>
   14fd8:	f80788e3          	beqz	a5,14f68 <__call_exitprocs+0x74>
   14fdc:	00078913          	mv	s2,a5
   14fe0:	f5dff06f          	j	14f3c <__call_exitprocs+0x48>
   14fe4:	18c92783          	lw	a5,396(s2)
   14fe8:	0844a583          	lw	a1,132(s1)
   14fec:	00f77733          	and	a4,a4,a5
   14ff0:	00071c63          	bnez	a4,15008 <__call_exitprocs+0x114>
   14ff4:	000b0513          	mv	a0,s6
   14ff8:	000680e7          	jalr	a3
   14ffc:	fcdff06f          	j	14fc8 <__call_exitprocs+0xd4>
   15000:	00892223          	sw	s0,4(s2)
   15004:	fa9ff06f          	j	14fac <__call_exitprocs+0xb8>
   15008:	00058513          	mv	a0,a1
   1500c:	000680e7          	jalr	a3
   15010:	fb9ff06f          	j	14fc8 <__call_exitprocs+0xd4>

00015014 <__libc_fini_array>:
   15014:	ff010113          	addi	sp,sp,-16
   15018:	00812423          	sw	s0,8(sp)
   1501c:	000197b7          	lui	a5,0x19
   15020:	00019437          	lui	s0,0x19
   15024:	82440413          	addi	s0,s0,-2012 # 18824 <__do_global_dtors_aux_fini_array_entry>
   15028:	82878793          	addi	a5,a5,-2008 # 18828 <branchaddress>
   1502c:	408787b3          	sub	a5,a5,s0
   15030:	00912223          	sw	s1,4(sp)
   15034:	00112623          	sw	ra,12(sp)
   15038:	4027d493          	srai	s1,a5,0x2
   1503c:	02048063          	beqz	s1,1505c <__libc_fini_array+0x48>
   15040:	ffc78793          	addi	a5,a5,-4
   15044:	00878433          	add	s0,a5,s0
   15048:	00042783          	lw	a5,0(s0)
   1504c:	fff48493          	addi	s1,s1,-1
   15050:	ffc40413          	addi	s0,s0,-4
   15054:	000780e7          	jalr	a5
   15058:	fe0498e3          	bnez	s1,15048 <__libc_fini_array+0x34>
   1505c:	00c12083          	lw	ra,12(sp)
   15060:	00812403          	lw	s0,8(sp)
   15064:	00412483          	lw	s1,4(sp)
   15068:	01010113          	addi	sp,sp,16
   1506c:	00008067          	ret

00015070 <_malloc_trim_r>:
   15070:	fe010113          	addi	sp,sp,-32
   15074:	01312623          	sw	s3,12(sp)
   15078:	00812c23          	sw	s0,24(sp)
   1507c:	00912a23          	sw	s1,20(sp)
   15080:	01212823          	sw	s2,16(sp)
   15084:	01412423          	sw	s4,8(sp)
   15088:	00112e23          	sw	ra,28(sp)
   1508c:	00058a13          	mv	s4,a1
   15090:	00050913          	mv	s2,a0
   15094:	fb418993          	addi	s3,gp,-76 # 19590 <__malloc_av_>
   15098:	df9ff0ef          	jal	ra,14e90 <__malloc_lock>
   1509c:	0089a703          	lw	a4,8(s3)
   150a0:	000017b7          	lui	a5,0x1
   150a4:	fef78413          	addi	s0,a5,-17 # fef <main-0xf085>
   150a8:	00472483          	lw	s1,4(a4)
   150ac:	41440433          	sub	s0,s0,s4
   150b0:	ffc4f493          	andi	s1,s1,-4
   150b4:	00940433          	add	s0,s0,s1
   150b8:	00c45413          	srli	s0,s0,0xc
   150bc:	fff40413          	addi	s0,s0,-1
   150c0:	00c41413          	slli	s0,s0,0xc
   150c4:	00f44e63          	blt	s0,a5,150e0 <_malloc_trim_r+0x70>
   150c8:	00000593          	li	a1,0
   150cc:	00090513          	mv	a0,s2
   150d0:	dc9ff0ef          	jal	ra,14e98 <_sbrk_r>
   150d4:	0089a783          	lw	a5,8(s3)
   150d8:	009787b3          	add	a5,a5,s1
   150dc:	02f50863          	beq	a0,a5,1510c <_malloc_trim_r+0x9c>
   150e0:	00090513          	mv	a0,s2
   150e4:	db1ff0ef          	jal	ra,14e94 <__malloc_unlock>
   150e8:	01c12083          	lw	ra,28(sp)
   150ec:	01812403          	lw	s0,24(sp)
   150f0:	01412483          	lw	s1,20(sp)
   150f4:	01012903          	lw	s2,16(sp)
   150f8:	00c12983          	lw	s3,12(sp)
   150fc:	00812a03          	lw	s4,8(sp)
   15100:	00000513          	li	a0,0
   15104:	02010113          	addi	sp,sp,32
   15108:	00008067          	ret
   1510c:	408005b3          	neg	a1,s0
   15110:	00090513          	mv	a0,s2
   15114:	d85ff0ef          	jal	ra,14e98 <_sbrk_r>
   15118:	fff00793          	li	a5,-1
   1511c:	04f50a63          	beq	a0,a5,15170 <_malloc_trim_r+0x100>
   15120:	0001a7b7          	lui	a5,0x1a
   15124:	db478793          	addi	a5,a5,-588 # 19db4 <__malloc_current_mallinfo>
   15128:	0007a703          	lw	a4,0(a5)
   1512c:	0089a683          	lw	a3,8(s3)
   15130:	408484b3          	sub	s1,s1,s0
   15134:	0014e493          	ori	s1,s1,1
   15138:	40870433          	sub	s0,a4,s0
   1513c:	00090513          	mv	a0,s2
   15140:	0096a223          	sw	s1,4(a3)
   15144:	0087a023          	sw	s0,0(a5)
   15148:	d4dff0ef          	jal	ra,14e94 <__malloc_unlock>
   1514c:	01c12083          	lw	ra,28(sp)
   15150:	01812403          	lw	s0,24(sp)
   15154:	01412483          	lw	s1,20(sp)
   15158:	01012903          	lw	s2,16(sp)
   1515c:	00c12983          	lw	s3,12(sp)
   15160:	00812a03          	lw	s4,8(sp)
   15164:	00100513          	li	a0,1
   15168:	02010113          	addi	sp,sp,32
   1516c:	00008067          	ret
   15170:	00000593          	li	a1,0
   15174:	00090513          	mv	a0,s2
   15178:	d21ff0ef          	jal	ra,14e98 <_sbrk_r>
   1517c:	0089a703          	lw	a4,8(s3)
   15180:	00f00693          	li	a3,15
   15184:	40e507b3          	sub	a5,a0,a4
   15188:	f4f6dce3          	bge	a3,a5,150e0 <_malloc_trim_r+0x70>
   1518c:	4341a683          	lw	a3,1076(gp) # 19a10 <__malloc_sbrk_base>
   15190:	0017e793          	ori	a5,a5,1
   15194:	00f72223          	sw	a5,4(a4)
   15198:	40d50533          	sub	a0,a0,a3
   1519c:	0001a6b7          	lui	a3,0x1a
   151a0:	daa6aa23          	sw	a0,-588(a3) # 19db4 <__malloc_current_mallinfo>
   151a4:	f3dff06f          	j	150e0 <_malloc_trim_r+0x70>

000151a8 <_free_r>:
   151a8:	12058463          	beqz	a1,152d0 <_free_r+0x128>
   151ac:	ff010113          	addi	sp,sp,-16
   151b0:	00812423          	sw	s0,8(sp)
   151b4:	00912223          	sw	s1,4(sp)
   151b8:	00058413          	mv	s0,a1
   151bc:	00050493          	mv	s1,a0
   151c0:	00112623          	sw	ra,12(sp)
   151c4:	ccdff0ef          	jal	ra,14e90 <__malloc_lock>
   151c8:	ffc42803          	lw	a6,-4(s0)
   151cc:	ff840713          	addi	a4,s0,-8
   151d0:	ffe87793          	andi	a5,a6,-2
   151d4:	00f70633          	add	a2,a4,a5
   151d8:	fb418593          	addi	a1,gp,-76 # 19590 <__malloc_av_>
   151dc:	00462683          	lw	a3,4(a2)
   151e0:	0085a503          	lw	a0,8(a1)
   151e4:	ffc6f693          	andi	a3,a3,-4
   151e8:	1ac50663          	beq	a0,a2,15394 <_free_r+0x1ec>
   151ec:	00d62223          	sw	a3,4(a2)
   151f0:	00187813          	andi	a6,a6,1
   151f4:	00d60533          	add	a0,a2,a3
   151f8:	08081e63          	bnez	a6,15294 <_free_r+0xec>
   151fc:	ff842303          	lw	t1,-8(s0)
   15200:	00452803          	lw	a6,4(a0)
   15204:	40670733          	sub	a4,a4,t1
   15208:	00872883          	lw	a7,8(a4)
   1520c:	fbc18513          	addi	a0,gp,-68 # 19598 <__malloc_av_+0x8>
   15210:	006787b3          	add	a5,a5,t1
   15214:	00187813          	andi	a6,a6,1
   15218:	12a88e63          	beq	a7,a0,15354 <_free_r+0x1ac>
   1521c:	00c72303          	lw	t1,12(a4)
   15220:	0068a623          	sw	t1,12(a7)
   15224:	01132423          	sw	a7,8(t1)
   15228:	1c080e63          	beqz	a6,15404 <_free_r+0x25c>
   1522c:	0017e693          	ori	a3,a5,1
   15230:	00d72223          	sw	a3,4(a4)
   15234:	00f62023          	sw	a5,0(a2)
   15238:	1ff00693          	li	a3,511
   1523c:	0af6e663          	bltu	a3,a5,152e8 <_free_r+0x140>
   15240:	ff87f693          	andi	a3,a5,-8
   15244:	00868693          	addi	a3,a3,8
   15248:	0045a503          	lw	a0,4(a1)
   1524c:	00d586b3          	add	a3,a1,a3
   15250:	0006a603          	lw	a2,0(a3)
   15254:	0057d813          	srli	a6,a5,0x5
   15258:	00100793          	li	a5,1
   1525c:	010797b3          	sll	a5,a5,a6
   15260:	00a7e7b3          	or	a5,a5,a0
   15264:	ff868513          	addi	a0,a3,-8
   15268:	00a72623          	sw	a0,12(a4)
   1526c:	00c72423          	sw	a2,8(a4)
   15270:	00f5a223          	sw	a5,4(a1)
   15274:	00e6a023          	sw	a4,0(a3)
   15278:	00e62623          	sw	a4,12(a2)
   1527c:	00812403          	lw	s0,8(sp)
   15280:	00c12083          	lw	ra,12(sp)
   15284:	00048513          	mv	a0,s1
   15288:	00412483          	lw	s1,4(sp)
   1528c:	01010113          	addi	sp,sp,16
   15290:	c05ff06f          	j	14e94 <__malloc_unlock>
   15294:	00452503          	lw	a0,4(a0)
   15298:	00157513          	andi	a0,a0,1
   1529c:	02051c63          	bnez	a0,152d4 <_free_r+0x12c>
   152a0:	00d787b3          	add	a5,a5,a3
   152a4:	fbc18513          	addi	a0,gp,-68 # 19598 <__malloc_av_+0x8>
   152a8:	00862683          	lw	a3,8(a2)
   152ac:	0017e893          	ori	a7,a5,1
   152b0:	00f70833          	add	a6,a4,a5
   152b4:	16a68463          	beq	a3,a0,1541c <_free_r+0x274>
   152b8:	00c62603          	lw	a2,12(a2)
   152bc:	00c6a623          	sw	a2,12(a3)
   152c0:	00d62423          	sw	a3,8(a2)
   152c4:	01172223          	sw	a7,4(a4)
   152c8:	00f82023          	sw	a5,0(a6)
   152cc:	f6dff06f          	j	15238 <_free_r+0x90>
   152d0:	00008067          	ret
   152d4:	0017e693          	ori	a3,a5,1
   152d8:	fed42e23          	sw	a3,-4(s0)
   152dc:	00f62023          	sw	a5,0(a2)
   152e0:	1ff00693          	li	a3,511
   152e4:	f4f6fee3          	bgeu	a3,a5,15240 <_free_r+0x98>
   152e8:	0097d693          	srli	a3,a5,0x9
   152ec:	00400613          	li	a2,4
   152f0:	0ed66863          	bltu	a2,a3,153e0 <_free_r+0x238>
   152f4:	0067d693          	srli	a3,a5,0x6
   152f8:	03968813          	addi	a6,a3,57
   152fc:	03868613          	addi	a2,a3,56
   15300:	00381813          	slli	a6,a6,0x3
   15304:	01058833          	add	a6,a1,a6
   15308:	00082683          	lw	a3,0(a6)
   1530c:	ff880813          	addi	a6,a6,-8
   15310:	12d80463          	beq	a6,a3,15438 <_free_r+0x290>
   15314:	0046a603          	lw	a2,4(a3)
   15318:	ffc67613          	andi	a2,a2,-4
   1531c:	00c7f663          	bgeu	a5,a2,15328 <_free_r+0x180>
   15320:	0086a683          	lw	a3,8(a3)
   15324:	fed818e3          	bne	a6,a3,15314 <_free_r+0x16c>
   15328:	00c6a803          	lw	a6,12(a3)
   1532c:	01072623          	sw	a6,12(a4)
   15330:	00d72423          	sw	a3,8(a4)
   15334:	00812403          	lw	s0,8(sp)
   15338:	00c12083          	lw	ra,12(sp)
   1533c:	00e82423          	sw	a4,8(a6)
   15340:	00048513          	mv	a0,s1
   15344:	00412483          	lw	s1,4(sp)
   15348:	00e6a623          	sw	a4,12(a3)
   1534c:	01010113          	addi	sp,sp,16
   15350:	b45ff06f          	j	14e94 <__malloc_unlock>
   15354:	14081263          	bnez	a6,15498 <_free_r+0x2f0>
   15358:	00c62583          	lw	a1,12(a2)
   1535c:	00862603          	lw	a2,8(a2)
   15360:	00f687b3          	add	a5,a3,a5
   15364:	00812403          	lw	s0,8(sp)
   15368:	00b62623          	sw	a1,12(a2)
   1536c:	00c5a423          	sw	a2,8(a1)
   15370:	0017e693          	ori	a3,a5,1
   15374:	00c12083          	lw	ra,12(sp)
   15378:	00d72223          	sw	a3,4(a4)
   1537c:	00048513          	mv	a0,s1
   15380:	00f70733          	add	a4,a4,a5
   15384:	00412483          	lw	s1,4(sp)
   15388:	00f72023          	sw	a5,0(a4)
   1538c:	01010113          	addi	sp,sp,16
   15390:	b05ff06f          	j	14e94 <__malloc_unlock>
   15394:	00187813          	andi	a6,a6,1
   15398:	00d787b3          	add	a5,a5,a3
   1539c:	02081063          	bnez	a6,153bc <_free_r+0x214>
   153a0:	ff842503          	lw	a0,-8(s0)
   153a4:	40a70733          	sub	a4,a4,a0
   153a8:	00c72683          	lw	a3,12(a4)
   153ac:	00872603          	lw	a2,8(a4)
   153b0:	00a787b3          	add	a5,a5,a0
   153b4:	00d62623          	sw	a3,12(a2)
   153b8:	00c6a423          	sw	a2,8(a3)
   153bc:	0017e613          	ori	a2,a5,1
   153c0:	4381a683          	lw	a3,1080(gp) # 19a14 <__malloc_trim_threshold>
   153c4:	00c72223          	sw	a2,4(a4)
   153c8:	00e5a423          	sw	a4,8(a1)
   153cc:	ead7e8e3          	bltu	a5,a3,1527c <_free_r+0xd4>
   153d0:	4441a583          	lw	a1,1092(gp) # 19a20 <__malloc_top_pad>
   153d4:	00048513          	mv	a0,s1
   153d8:	c99ff0ef          	jal	ra,15070 <_malloc_trim_r>
   153dc:	ea1ff06f          	j	1527c <_free_r+0xd4>
   153e0:	01400613          	li	a2,20
   153e4:	02d67463          	bgeu	a2,a3,1540c <_free_r+0x264>
   153e8:	05400613          	li	a2,84
   153ec:	06d66463          	bltu	a2,a3,15454 <_free_r+0x2ac>
   153f0:	00c7d693          	srli	a3,a5,0xc
   153f4:	06f68813          	addi	a6,a3,111
   153f8:	06e68613          	addi	a2,a3,110
   153fc:	00381813          	slli	a6,a6,0x3
   15400:	f05ff06f          	j	15304 <_free_r+0x15c>
   15404:	00d787b3          	add	a5,a5,a3
   15408:	ea1ff06f          	j	152a8 <_free_r+0x100>
   1540c:	05c68813          	addi	a6,a3,92
   15410:	05b68613          	addi	a2,a3,91
   15414:	00381813          	slli	a6,a6,0x3
   15418:	eedff06f          	j	15304 <_free_r+0x15c>
   1541c:	00e5aa23          	sw	a4,20(a1)
   15420:	00e5a823          	sw	a4,16(a1)
   15424:	00a72623          	sw	a0,12(a4)
   15428:	00a72423          	sw	a0,8(a4)
   1542c:	01172223          	sw	a7,4(a4)
   15430:	00f82023          	sw	a5,0(a6)
   15434:	e49ff06f          	j	1527c <_free_r+0xd4>
   15438:	0045a503          	lw	a0,4(a1)
   1543c:	40265613          	srai	a2,a2,0x2
   15440:	00100793          	li	a5,1
   15444:	00c79633          	sll	a2,a5,a2
   15448:	00a66633          	or	a2,a2,a0
   1544c:	00c5a223          	sw	a2,4(a1)
   15450:	eddff06f          	j	1532c <_free_r+0x184>
   15454:	15400613          	li	a2,340
   15458:	00d66c63          	bltu	a2,a3,15470 <_free_r+0x2c8>
   1545c:	00f7d693          	srli	a3,a5,0xf
   15460:	07868813          	addi	a6,a3,120
   15464:	07768613          	addi	a2,a3,119
   15468:	00381813          	slli	a6,a6,0x3
   1546c:	e99ff06f          	j	15304 <_free_r+0x15c>
   15470:	55400613          	li	a2,1364
   15474:	00d66c63          	bltu	a2,a3,1548c <_free_r+0x2e4>
   15478:	0127d693          	srli	a3,a5,0x12
   1547c:	07d68813          	addi	a6,a3,125
   15480:	07c68613          	addi	a2,a3,124
   15484:	00381813          	slli	a6,a6,0x3
   15488:	e7dff06f          	j	15304 <_free_r+0x15c>
   1548c:	3f800813          	li	a6,1016
   15490:	07e00613          	li	a2,126
   15494:	e71ff06f          	j	15304 <_free_r+0x15c>
   15498:	0017e693          	ori	a3,a5,1
   1549c:	00d72223          	sw	a3,4(a4)
   154a0:	00f62023          	sw	a5,0(a2)
   154a4:	dd9ff06f          	j	1527c <_free_r+0xd4>

000154a8 <atexit>:
   154a8:	00050593          	mv	a1,a0
   154ac:	00000693          	li	a3,0
   154b0:	00000613          	li	a2,0
   154b4:	00000513          	li	a0,0
   154b8:	0040006f          	j	154bc <__register_exitproc>

000154bc <__register_exitproc>:
   154bc:	42c1a703          	lw	a4,1068(gp) # 19a08 <_global_impure_ptr>
   154c0:	14872783          	lw	a5,328(a4)
   154c4:	04078c63          	beqz	a5,1551c <__register_exitproc+0x60>
   154c8:	0047a703          	lw	a4,4(a5)
   154cc:	01f00813          	li	a6,31
   154d0:	06e84e63          	blt	a6,a4,1554c <__register_exitproc+0x90>
   154d4:	00271813          	slli	a6,a4,0x2
   154d8:	02050663          	beqz	a0,15504 <__register_exitproc+0x48>
   154dc:	01078333          	add	t1,a5,a6
   154e0:	08c32423          	sw	a2,136(t1)
   154e4:	1887a883          	lw	a7,392(a5)
   154e8:	00100613          	li	a2,1
   154ec:	00e61633          	sll	a2,a2,a4
   154f0:	00c8e8b3          	or	a7,a7,a2
   154f4:	1917a423          	sw	a7,392(a5)
   154f8:	10d32423          	sw	a3,264(t1)
   154fc:	00200693          	li	a3,2
   15500:	02d50463          	beq	a0,a3,15528 <__register_exitproc+0x6c>
   15504:	00170713          	addi	a4,a4,1
   15508:	00e7a223          	sw	a4,4(a5)
   1550c:	010787b3          	add	a5,a5,a6
   15510:	00b7a423          	sw	a1,8(a5)
   15514:	00000513          	li	a0,0
   15518:	00008067          	ret
   1551c:	14c70793          	addi	a5,a4,332
   15520:	14f72423          	sw	a5,328(a4)
   15524:	fa5ff06f          	j	154c8 <__register_exitproc+0xc>
   15528:	18c7a683          	lw	a3,396(a5)
   1552c:	00170713          	addi	a4,a4,1
   15530:	00e7a223          	sw	a4,4(a5)
   15534:	00c6e633          	or	a2,a3,a2
   15538:	18c7a623          	sw	a2,396(a5)
   1553c:	010787b3          	add	a5,a5,a6
   15540:	00b7a423          	sw	a1,8(a5)
   15544:	00000513          	li	a0,0
   15548:	00008067          	ret
   1554c:	fff00513          	li	a0,-1
   15550:	00008067          	ret

00015554 <_exit>:
   15554:	05d00893          	li	a7,93
   15558:	00000073          	ecall
   1555c:	00054463          	bltz	a0,15564 <_exit+0x10>
   15560:	0000006f          	j	15560 <_exit+0xc>
   15564:	ff010113          	addi	sp,sp,-16
   15568:	00812423          	sw	s0,8(sp)
   1556c:	00050413          	mv	s0,a0
   15570:	00112623          	sw	ra,12(sp)
   15574:	40800433          	neg	s0,s0
   15578:	084000ef          	jal	ra,155fc <__errno>
   1557c:	00852023          	sw	s0,0(a0)
   15580:	0000006f          	j	15580 <_exit+0x2c>

00015584 <_sbrk>:
   15584:	44c1a703          	lw	a4,1100(gp) # 19a28 <heap_end.0>
   15588:	ff010113          	addi	sp,sp,-16
   1558c:	00112623          	sw	ra,12(sp)
   15590:	00050793          	mv	a5,a0
   15594:	02071063          	bnez	a4,155b4 <_sbrk+0x30>
   15598:	0d600893          	li	a7,214
   1559c:	00000513          	li	a0,0
   155a0:	00000073          	ecall
   155a4:	fff00613          	li	a2,-1
   155a8:	00050713          	mv	a4,a0
   155ac:	02c50a63          	beq	a0,a2,155e0 <_sbrk+0x5c>
   155b0:	44a1a623          	sw	a0,1100(gp) # 19a28 <heap_end.0>
   155b4:	0d600893          	li	a7,214
   155b8:	00e78533          	add	a0,a5,a4
   155bc:	00000073          	ecall
   155c0:	44c1a703          	lw	a4,1100(gp) # 19a28 <heap_end.0>
   155c4:	00e787b3          	add	a5,a5,a4
   155c8:	00f51c63          	bne	a0,a5,155e0 <_sbrk+0x5c>
   155cc:	00c12083          	lw	ra,12(sp)
   155d0:	44a1a623          	sw	a0,1100(gp) # 19a28 <heap_end.0>
   155d4:	00070513          	mv	a0,a4
   155d8:	01010113          	addi	sp,sp,16
   155dc:	00008067          	ret
   155e0:	01c000ef          	jal	ra,155fc <__errno>
   155e4:	00c12083          	lw	ra,12(sp)
   155e8:	00c00793          	li	a5,12
   155ec:	00f52023          	sw	a5,0(a0)
   155f0:	fff00513          	li	a0,-1
   155f4:	01010113          	addi	sp,sp,16
   155f8:	00008067          	ret

000155fc <__errno>:
   155fc:	4301a503          	lw	a0,1072(gp) # 19a0c <_impure_ptr>
   15600:	00008067          	ret
ELF Header:
  Magic:   7f 45 4c 46 01 01 01 00 00 00 00 00 00 00 00 00 
  Class:                             ELF32
  Data:                              2's complement, little endian
  Version:                           1 (current)
  OS/ABI:                            UNIX - System V
  ABI Version:                       0
  Type:                              EXEC (Executable file)
  Machine:                           RISC-V
  Version:                           0x1
  Entry point address:               0x101e8
  Start of program headers:          52 (bytes into file)
  Start of section headers:          53852 (bytes into file)
  Flags:                             0x2, single-float ABI
  Size of this header:               52 (bytes)
  Size of program headers:           32 (bytes)
  Number of program headers:         2
  Size of section headers:           40 (bytes)
  Number of section headers:         23
  Section header string table index: 22

Section Headers:
  [Nr] Name              Type            Addr     Off    Size   ES Flg Lk Inf Al
  [ 0]                   NULL            00000000 000000 000000 00      0   0  0
  [ 1] .text             PROGBITS        00010074 000074 005590 00  AX  0   0  4
  [ 2] .rodata           PROGBITS        00015604 005604 001fbc 00   A  0   0  4
  [ 3] .eh_frame         PROGBITS        00018000 008000 00081c 00  WA  0   0  4
  [ 4] .init_array       INIT_ARRAY      0001881c 00881c 000008 04  WA  0   0  4
  [ 5] .fini_array       FINI_ARRAY      00018824 008824 000004 04  WA  0   0  4
  [ 6] .data             PROGBITS        00018828 008828 001170 00  WA  0   0  8
  [ 7] .got              PROGBITS        00019998 009998 000070 04  WA  0   0  4
  [ 8] .sdata            PROGBITS        00019a08 009a08 000010 00  WA  0   0  4
  [ 9] .sbss             NOBITS          00019a18 009a18 000014 00  WA  0   0  4
  [10] .bss              NOBITS          00019a30 009a18 0003ac 00  WA  0   0  8
  [11] .comment          PROGBITS        00000000 009a18 000012 01  MS  0   0  1
  [12] .riscv.attributes RISCV_ATTRIBUTE 00000000 009a2a 00002a 00      0   0  1
  [13] .debug_aranges    PROGBITS        00000000 009a54 000038 00      0   0  1
  [14] .debug_info       PROGBITS        00000000 009a8c 000889 00      0   0  1
  [15] .debug_abbrev     PROGBITS        00000000 00a315 00020d 00      0   0  1
  [16] .debug_line       PROGBITS        00000000 00a522 0007a8 00      0   0  1
  [17] .debug_str        PROGBITS        00000000 00acca 00033f 01  MS  0   0  1
  [18] .debug_loc        PROGBITS        00000000 00b009 000bcd 00      0   0  1
  [19] .debug_ranges     PROGBITS        00000000 00bbd6 0000f8 00      0   0  1
  [20] .symtab           SYMTAB          00000000 00bcd0 000b90 10     21  74  4
  [21] .strtab           STRTAB          00000000 00c860 00091e 00      0   0  1
  [22] .shstrtab         STRTAB          00000000 00d17e 0000dc 00      0   0  1
Key to Flags:
  W (write), A (alloc), X (execute), M (merge), S (strings), I (info),
  L (link order), O (extra OS processing required), G (group), T (TLS),
  C (compressed), x (unknown), o (OS specific), E (exclude),
  p (processor specific)

There are no section groups in this file.

Program Headers:
  Type           Offset   VirtAddr   PhysAddr   FileSiz MemSiz  Flg Align
  LOAD           0x000000 0x00010000 0x00010000 0x075c0 0x075c0 R E 0x1000
  LOAD           0x008000 0x00018000 0x00018000 0x01a18 0x01ddc RW  0x1000

 Section to Segment mapping:
  Segment Sections...
   00     .text .rodata 
   01     .eh_frame .init_array .fini_array .data .got .sdata .sbss .bss 

There is no dynamic section in this file.

There are no relocations in this file.

The decoding of unwind sections for machine type RISC-V is not currently supported.

Symbol table '.symtab' contains 185 entries:
   Num:    Value  Size Type    Bind   Vis      Ndx Name
     0: 00000000     0 NOTYPE  LOCAL  DEFAULT  UND 
     1: 00010074     0 SECTION LOCAL  DEFAULT    1 
     2: 00015604     0 SECTION LOCAL  DEFAULT    2 
     3: 00018000     0 SECTION LOCAL  DEFAULT    3 
     4: 0001881c     0 SECTION LOCAL  DEFAULT    4 
     5: 00018824     0 SECTION LOCAL  DEFAULT    5 
     6: 00018828     0 SECTION LOCAL  DEFAULT    6 
     7: 00019998     0 SECTION LOCAL  DEFAULT    7 
     8: 00019a08     0 SECTION LOCAL  DEFAULT    8 
     9: 00019a18     0 SECTION LOCAL  DEFAULT    9 
    10: 00019a30     0 SECTION LOCAL  DEFAULT   10 
    11: 00000000     0 SECTION LOCAL  DEFAULT   11 
    12: 00000000     0 SECTION LOCAL  DEFAULT   12 
    13: 00000000     0 SECTION LOCAL  DEFAULT   13 
    14: 00000000     0 SECTION LOCAL  DEFAULT   14 
    15: 00000000     0 SECTION LOCAL  DEFAULT   15 
    16: 00000000     0 SECTION LOCAL  DEFAULT   16 
    17: 00000000     0 SECTION LOCAL  DEFAULT   17 
    18: 00000000     0 SECTION LOCAL  DEFAULT   18 
    19: 00000000     0 SECTION LOCAL  DEFAULT   19 
    20: 00000000     0 FILE    LOCAL  DEFAULT  ABS ROM_experimental.cpp
    21: 00000000     0 FILE    LOCAL  DEFAULT  ABS __call_atexit.c
    22: 000101d0    24 FUNC    LOCAL  DEFAULT    1 register_fini
    23: 00000000     0 FILE    LOCAL  DEFAULT  ABS crtstuff.c
    24: 00018000     0 OBJECT  LOCAL  DEFAULT    3 __EH_FRAME_BEGIN__
    25: 00010238     0 FUNC    LOCAL  DEFAULT    1 __do_global_dtors_aux
    26: 00019a30     1 OBJECT  LOCAL  DEFAULT   10 completed.1
    27: 00018824     0 OBJECT  LOCAL  DEFAULT    5 __do_global_dtors_aux_fin
    28: 00010284     0 FUNC    LOCAL  DEFAULT    1 frame_dummy
    29: 00019a34    24 OBJECT  LOCAL  DEFAULT   10 object.0
    30: 00018820     0 OBJECT  LOCAL  DEFAULT    4 __frame_dummy_init_array_
    31: 00000000     0 FILE    LOCAL  DEFAULT  ABS utils.cpp
    32: 00015bf8  6144 OBJECT  LOCAL  DEFAULT    2 _ZL4font
    33: 00000000     0 FILE    LOCAL  DEFAULT  ABS SDCARD.cpp
    34: 00000000     0 FILE    LOCAL  DEFAULT  ABS FAT.cpp
    35: 000124d8   168 FUNC    LOCAL  DEFAULT    1 _ZL7get_fatm
    36: 00012580  1056 FUNC    LOCAL  DEFAULT    1 _ZL11follow_pathP3DIRPhPK
    37: 00019aa8     4 OBJECT  LOCAL  DEFAULT   10 _ZL5FatFs
    38: 00017440   128 OBJECT  LOCAL  DEFAULT    2 _ZL3cvt
    39: 00000000     0 FILE    LOCAL  DEFAULT  ABS diskio.cpp
    40: 00000000     0 FILE    LOCAL  DEFAULT  ABS console.cpp
    41: 00019aac   768 OBJECT  LOCAL  DEFAULT   10 _ZL11consoleText
    42: 00019dac     4 OBJECT  LOCAL  DEFAULT   10 _ZL7cursorx
    43: 00019db0     4 OBJECT  LOCAL  DEFAULT   10 _ZL7cursory
    44: 00000000     0 FILE    LOCAL  DEFAULT  ABS libgcc2.c
    45: 00000000     0 FILE    LOCAL  DEFAULT  ABS abs.c
    46: 00000000     0 FILE    LOCAL  DEFAULT  ABS exit.c
    47: 00000000     0 FILE    LOCAL  DEFAULT  ABS init.c
    48: 00000000     0 FILE    LOCAL  DEFAULT  ABS malloc.c
    49: 00000000     0 FILE    LOCAL  DEFAULT  ABS mallocr.c
    50: 00000000     0 FILE    LOCAL  DEFAULT  ABS memcpy.c
    51: 00000000     0 FILE    LOCAL  DEFAULT  ABS mlock.c
    52: 00000000     0 FILE    LOCAL  DEFAULT  ABS sbrkr.c
    53: 00000000     0 FILE    LOCAL  DEFAULT  ABS fini.c
    54: 00000000     0 FILE    LOCAL  DEFAULT  ABS mallocr.c
    55: 00000000     0 FILE    LOCAL  DEFAULT  ABS atexit.c
    56: 00000000     0 FILE    LOCAL  DEFAULT  ABS __atexit.c
    57: 00000000     0 FILE    LOCAL  DEFAULT  ABS sys_exit.c
    58: 00000000     0 FILE    LOCAL  DEFAULT  ABS sys_sbrk.c
    59: 00019a28     4 OBJECT  LOCAL  DEFAULT    9 heap_end.0
    60: 00000000     0 FILE    LOCAL  DEFAULT  ABS errno.c
    61: 00000000     0 FILE    LOCAL  DEFAULT  ABS libgcc2.c
    62: 00000000     0 FILE    LOCAL  DEFAULT  ABS crtstuff.c
    63: 00018818     0 OBJECT  LOCAL  DEFAULT    3 __FRAME_END__
    64: 00000000     0 FILE    LOCAL  DEFAULT  ABS impure.c
    65: 00019168  1064 OBJECT  LOCAL  DEFAULT    6 impure_data
    66: 00000000     0 FILE    LOCAL  DEFAULT  ABS 
    67: 00018828     0 NOTYPE  LOCAL  DEFAULT    5 __fini_array_end
    68: 00018824     0 NOTYPE  LOCAL  DEFAULT    5 __fini_array_start
    69: 00018824     0 NOTYPE  LOCAL  DEFAULT    4 __init_array_end
    70: 0001881c     0 NOTYPE  LOCAL  DEFAULT    4 __preinit_array_end
    71: 000199a0     0 OBJECT  LOCAL  DEFAULT    7 _GLOBAL_OFFSET_TABLE_
    72: 0001881c     0 NOTYPE  LOCAL  DEFAULT    4 __init_array_start
    73: 0001881c     0 NOTYPE  LOCAL  DEFAULT    4 __preinit_array_start
    74: 00011e64    76 FUNC    GLOBAL DEFAULT    1 _Z11ClearScreenh
    75: 000136e0    44 FUNC    GLOBAL DEFAULT    1 _Z10disk_readpPhmtt
    76: 00012ca4   168 FUNC    GLOBAL DEFAULT    1 _Z7pf_openPKc
    77: 000195dc     0 NOTYPE  GLOBAL DEFAULT  ABS __global_pointer$
    78: 00014e94     4 FUNC    GLOBAL DEFAULT    1 __malloc_unlock
    79: 000121e0   308 FUNC    GLOBAL DEFAULT    1 _Z17SDReadSingleBlockmPhS
    80: 00011330    84 FUNC    GLOBAL DEFAULT    1 _Z22SetupInterruptHandler
    81: 000155fc     8 FUNC    GLOBAL DEFAULT    1 __errno
    82: 00010314   600 FUNC    GLOBAL DEFAULT    1 _Z8MainTaskv
    83: 00011384   904 FUNC    GLOBAL DEFAULT    1 _Z8PrintDMAiiPKcb
    84: 00019a24     4 OBJECT  GLOBAL DEFAULT    9 errno
    85: 00010f90   620 FUNC    GLOBAL DEFAULT    1 _Z15timer_interruptv
    86: 00011200     4 FUNC    GLOBAL DEFAULT    1 _Z18external_interruptv
    87: 000129a0   772 FUNC    GLOBAL DEFAULT    1 _Z8pf_mountP5FATFS
    88: 00019158     4 OBJECT  GLOBAL DEFAULT    6 IO_UARTRX
    89: 00019a08     0 NOTYPE  GLOBAL DEFAULT    8 __SDATA_BEGIN__
    90: 00012f18   528 FUNC    GLOBAL DEFAULT    1 _Z8pf_lseekm
    91: 00014c8c   296 FUNC    GLOBAL DEFAULT    1 memcpy
    92: 00011d28   316 FUNC    GLOBAL DEFAULT    1 _Z7EchoIntm
    93: 00010af4  1064 FUNC    GLOBAL DEFAULT    1 _Z21ProcessUARTInputAsync
    94: 0001378c    60 FUNC    GLOBAL DEFAULT    1 _Z16SetConsoleCursorii
    95: 00013ed4    92 FUNC    GLOBAL DEFAULT    1 _Z11DrawConsolev
    96: 000144dc    12 FUNC    GLOBAL DEFAULT    1 malloc
    97: 00013750    60 FUNC    GLOBAL DEFAULT    1 _Z15ClearConsoleRowv
    98: 00013264  1116 FUNC    GLOBAL DEFAULT    1 _Z10pf_readdirP3DIRP7FILI
    99: 00019a20     4 OBJECT  GLOBAL DEFAULT    9 __malloc_top_pad
   100: 00014e98    92 FUNC    GLOBAL DEFAULT    1 _sbrk_r
   101: 00019a1c     4 OBJECT  GLOBAL DEFAULT    9 __malloc_max_sbrked_mem
   102: 00019154     4 OBJECT  GLOBAL DEFAULT    6 IO_SPIOutput
   103: 0001914c     4 OBJECT  GLOBAL DEFAULT    6 IO_GPUFIFO
   104: 00019a08     4 OBJECT  GLOBAL DEFAULT    8 _global_impure_ptr
   105: 00011fb4   308 FUNC    GLOBAL DEFAULT    1 _Z19SDCheckVoltageRangeRm
   106: 00014440   156 FUNC    GLOBAL DEFAULT    1 __libc_init_array
   107: 00011eb0    20 FUNC    GLOBAL DEFAULT    1 _Z9ReadClockv
   108: 00011ec4    36 FUNC    GLOBAL DEFAULT    1 _Z9ClockToMsy
   109: 00013fcc  1076 FUNC    GLOBAL HIDDEN     1 __udivdi3
   110: 00015584   120 FUNC    GLOBAL DEFAULT    1 _sbrk
   111: 00010600   656 FUNC    GLOBAL DEFAULT    1 _Z14ParseELFHeaderP16SElf
   112: 00019a98     4 OBJECT  GLOBAL DEFAULT   10 num_tasks
   113: 0001370c    68 FUNC    GLOBAL DEFAULT    1 _Z12ClearConsolev
   114: 00015014    92 FUNC    GLOBAL DEFAULT    1 __libc_fini_array
   115: 00019150     4 OBJECT  GLOBAL DEFAULT    6 IO_SPIInput
   116: 00019a78     8 OBJECT  GLOBAL DEFAULT   10 clk
   117: 00019aa4     4 OBJECT  GLOBAL DEFAULT   10 showtime
   118: 00013f30   156 FUNC    GLOBAL DEFAULT    1 _Z18ConsoleStringAtRowPc
   119: 000102a8   108 FUNC    GLOBAL DEFAULT    1 _Z9ClockTaskv
   120: 000151a8   768 FUNC    GLOBAL DEFAULT    1 _free_r
   121: 00011f2c   136 FUNC    GLOBAL DEFAULT    1 _Z6SDIdlev
   122: 00014ef4   288 FUNC    GLOBAL DEFAULT    1 __call_exitprocs
   123: 0001884c  2304 OBJECT  GLOBAL DEFAULT    6 task_array
   124: 00019a88     4 OBJECT  GLOBAL DEFAULT   10 escapemode
   125: 00019a10     4 OBJECT  GLOBAL DEFAULT    8 __malloc_sbrk_base
   126: 000101e8    80 FUNC    GLOBAL DEFAULT    1 _start
   127: 00011ee8    68 FUNC    GLOBAL DEFAULT    1 _Z12ClockMsToHMSmRmS_S_
   128: 000136c0    32 FUNC    GLOBAL DEFAULT    1 _Z15disk_initializev
   129: 0001384c    72 FUNC    GLOBAL DEFAULT    1 _Z21ConsoleCursorStepBack
   130: 00013128   316 FUNC    GLOBAL DEFAULT    1 _Z10pf_opendirP3DIRPKc
   131: 000154bc   152 FUNC    GLOBAL DEFAULT    1 __register_exitproc
   132: 00019a90     4 OBJECT  GLOBAL DEFAULT   10 milliseconds
   133: 00019db4    40 OBJECT  GLOBAL DEFAULT   10 __malloc_current_mallinfo
   134: 00010f1c   116 FUNC    GLOBAL DEFAULT    1 _Z10SetupTasksv
   135: 000137c8   112 FUNC    GLOBAL DEFAULT    1 _Z13ScrollConsolev
   136: 00011b98   356 FUNC    GLOBAL DEFAULT    1 _Z15PrintDMADecimaliii
   137: 00019ddc     0 NOTYPE  GLOBAL DEFAULT   10 __BSS_END__
   138: 00019590  1032 OBJECT  GLOBAL DEFAULT    6 __malloc_av_
   139: 00019a80     4 OBJECT  GLOBAL DEFAULT   10 current_task
   140: 0001056c   148 FUNC    GLOBAL DEFAULT    1 _Z6RunELFv
   141: 00013d54   384 FUNC    GLOBAL DEFAULT    1 _Z14EchoConsoleHexl
   142: 00014e90     4 FUNC    GLOBAL DEFAULT    1 __malloc_lock
   143: 00019a18     0 NOTYPE  GLOBAL DEFAULT    9 __bss_start
   144: 00013990   964 FUNC    GLOBAL DEFAULT    1 _Z11EchoConsolel
   145: 00014db4   220 FUNC    GLOBAL DEFAULT    1 memset
   146: 00010074   348 FUNC    GLOBAL DEFAULT    1 main
   147: 00019a18     4 OBJECT  GLOBAL DEFAULT    9 __malloc_max_total_mem
   148: 000108f4   512 FUNC    GLOBAL DEFAULT    1 _Z7ListDirv
   149: 000120e8   248 FUNC    GLOBAL DEFAULT    1 _Z10SDCardInitv
   150: 000144f4  1944 FUNC    GLOBAL DEFAULT    1 _malloc_r
   151: 00019aa0     4 OBJECT  GLOBAL DEFAULT   10 seconds
   152: 00015070   312 FUNC    GLOBAL DEFAULT    1 _malloc_trim_r
   153: 00011204   300 FUNC    GLOBAL DEFAULT    1 _Z17interrupt_handlerv
   154: 000174c0   256 OBJECT  GLOBAL HIDDEN     2 __clz_tab
   155: 00012474   100 FUNC    GLOBAL DEFAULT    1 _Z13SDCardStartupv
   156: 000154a8    20 FUNC    GLOBAL DEFAULT    1 atexit
   157: 00019160     4 OBJECT  GLOBAL DEFAULT    6 IO_UARTTX
   158: 000111fc     4 FUNC    GLOBAL DEFAULT    1 _Z20breakpoint_interruptv
   159: 00019a0c     4 OBJECT  GLOBAL DEFAULT    8 _impure_ptr
   160: 00011aa0   248 FUNC    GLOBAL DEFAULT    1 _Z11PrintDMAHexiim
   161: 0001915c     4 OBJECT  GLOBAL DEFAULT    6 IO_UARTRXByteCount
   162: 00010890   100 FUNC    GLOBAL DEFAULT    1 _Z7LoadELFPKc
   163: 00012d4c   460 FUNC    GLOBAL DEFAULT    1 _Z7pf_readPvtPt
   164: 000102a4     4 FUNC    GLOBAL DEFAULT    1 _Z21SystemTaskPlaceholder
   165: 00018828     4 OBJECT  GLOBAL DEFAULT    6 branchaddress
   166: 00018828     0 NOTYPE  GLOBAL DEFAULT    6 __DATA_BEGIN__
   167: 00011cfc    44 FUNC    GLOBAL DEFAULT    1 _Z8EchoUARTPKc
   168: 0001170c   916 FUNC    GLOBAL DEFAULT    1 _Z8PrintDMAiiiPKcb
   169: 00019a18     0 NOTYPE  GLOBAL DEFAULT    8 _edata
   170: 00019ddc     0 NOTYPE  GLOBAL DEFAULT   10 _end
   171: 00012314   352 FUNC    GLOBAL DEFAULT    1 _Z20SDReadMultipleBlocksP
   172: 00019a14     4 OBJECT  GLOBAL DEFAULT    8 __malloc_trim_threshold
   173: 00014410    48 FUNC    GLOBAL DEFAULT    1 exit
   174: 00015554    48 FUNC    GLOBAL DEFAULT    1 _exit
   175: 00019a94     4 OBJECT  GLOBAL DEFAULT   10 minutes
   176: 00013838    20 FUNC    GLOBAL DEFAULT    1 _Z16GetConsoleCursorRiS_
   177: 00019a84     4 OBJECT  GLOBAL DEFAULT   10 cursorevenodd
   178: 00014400    16 FUNC    GLOBAL DEFAULT    1 abs
   179: 00019a8c     4 OBJECT  GLOBAL DEFAULT   10 hours
   180: 0001882c    32 OBJECT  GLOBAL DEFAULT    6 FRtoString
   181: 00019a4c    44 OBJECT  GLOBAL DEFAULT   10 Fs
   182: 00019a9c     4 OBJECT  GLOBAL DEFAULT   10 sdcardavailable
   183: 00013894   252 FUNC    GLOBAL DEFAULT    1 _Z11EchoConsolePKc
   184: 000144e8    12 FUNC    GLOBAL DEFAULT    1 free

No version information found in this file.
Attribute Section: riscv
File Attributes
  Tag_RISCV_stack_align: 16-bytes
  Tag_RISCV_arch: "rv32i2p0_m2p0_f2p0"
  Tag_RISCV_priv_spec: 1
  Tag_RISCV_priv_spec_minor: 11
