
ROM_experimental.elf:     file format elf32-littleriscv

SYMBOL TABLE:
00010074 l    d  .text	00000000 .text
0001b230 l    d  .rodata	00000000 .rodata
0001e70c l    d  .eh_frame	00000000 .eh_frame
0001f620 l    d  .init_array	00000000 .init_array
0001f624 l    d  .fini_array	00000000 .fini_array
0001f628 l    d  .data.rel.ro	00000000 .data.rel.ro
0001f634 l    d  .data	00000000 .data
00020d0c l    d  .got	00000000 .got
00020dbc l    d  .sdata	00000000 .sdata
00020dc4 l    d  .sbss	00000000 .sbss
00020dd0 l    d  .bss	00000000 .bss
00000000 l    d  .comment	00000000 .comment
00000000 l    d  .riscv.attributes	00000000 .riscv.attributes
00000000 l    df *ABS*	00000000 exit.c
00000000 l    df *ABS*	00000000 ROM_experimental.cpp
00021018 l     O .bss	00000004 _ZZ18HandleDemoCommandscE7doffset
00000000 l    df *ABS*	00000000 crtstuff.c
0001e70c l     O .eh_frame	00000000 __EH_FRAME_BEGIN__
00010224 l     F .text	00000000 __do_global_dtors_aux
00020dd0 l     O .bss	00000001 completed.1
0001f624 l     O .fini_array	00000000 __do_global_dtors_aux_fini_array_entry
00010270 l     F .text	00000000 frame_dummy
00020dd4 l     O .bss	00000018 object.0
0001f620 l     O .init_array	00000000 __frame_dummy_init_array_entry
00000000 l    df *ABS*	00000000 debugger.cpp
0001bc48 l     O .rodata	00000011 _ZL9hexdigits
00000000 l    df *ABS*	00000000 nekoichi.cpp
00020ca4 l     O .data	00000004 _ZL10heap_start
00000000 l    df *ABS*	00000000 sdcard.cpp
00000000 l    df *ABS*	00000000 ff.c
00014d28 l     F .text	00000108 _ZL12get_ldnumberPPKc
00014e30 l     F .text	000001fc _ZL8check_fsP5FATFSm
0001502c l     F .text	0000045c _ZL12mount_volumePPKcPP5FATFSh.constprop.0
00015488 l     F .text	00000208 _ZL7get_fatP7FFOBJIDm.isra.0
00015690 l     F .text	000002d0 _ZL7dir_sdiP3DIRm.constprop.0
00015960 l     F .text	00000518 _ZL11follow_pathP3DIRPKc
000259ac l     O .bss	00000002 _ZL4Fsid
000259b0 l     O .bss	0000000c _ZL5FatFs
000259bc l     O .bss	00000001 _ZL7CurrVol
0001f628 l     O .data.rel.ro	0000000c _ZL9VolumeStr
0001d4ac l     O .rodata	00000080 _ZL5ExCvt
00000000 l    df *ABS*	00000000 diskio.c
00000000 l    df *ABS*	00000000 console.cpp
000259c0 l     O .bss	00000300 _ZL11consoleText
00025cc0 l     O .bss	00000004 _ZL7cursorx
00025cc4 l     O .bss	00000004 _ZL7cursory
00000000 l    df *ABS*	00000000 libgcc2.c
00000000 l    df *ABS*	00000000 errno.c
00000000 l    df *ABS*	00000000 fclose.c
00000000 l    df *ABS*	00000000 fflush.c
00000000 l    df *ABS*	00000000 findfp.c
00018340 l     F .text	00000088 std
00000000 l    df *ABS*	00000000 fopen.c
00000000 l    df *ABS*	00000000 fread.c
00000000 l    df *ABS*	00000000 fseek.c
00000000 l    df *ABS*	00000000 fseeko.c
00000000 l    df *ABS*	00000000 ftell.c
00000000 l    df *ABS*	00000000 ftello.c
00000000 l    df *ABS*	00000000 fwalk.c
00000000 l    df *ABS*	00000000 init.c
00000000 l    df *ABS*	00000000 makebuf.c
00000000 l    df *ABS*	00000000 malloc.c
00000000 l    df *ABS*	00000000 memcmp.c
00000000 l    df *ABS*	00000000 nano-mallocr.c
00000000 l    df *ABS*	00000000 nano-mallocr.c
00000000 l    df *ABS*	00000000 openr.c
00000000 l    df *ABS*	00000000 printf.c
00000000 l    df *ABS*	00000000 putchar.c
00000000 l    df *ABS*	00000000 putc.c
00000000 l    df *ABS*	00000000 puts.c
00000000 l    df *ABS*	00000000 refill.c
0001954c l     F .text	0000001c lflush
00000000 l    df *ABS*	00000000 sbrkr.c
00000000 l    df *ABS*	00000000 setbuf.c
00000000 l    df *ABS*	00000000 setvbuf.c
00000000 l    df *ABS*	00000000 sprintf.c
00000000 l    df *ABS*	00000000 stdio.c
00000000 l    df *ABS*	00000000 strchr.c
00000000 l    df *ABS*	00000000 strcpy.c
00000000 l    df *ABS*	00000000 strlen.c
00000000 l    df *ABS*	00000000 wbuf.c
00000000 l    df *ABS*	00000000 writer.c
00000000 l    df *ABS*	00000000 wsetup.c
00000000 l    df *ABS*	00000000 closer.c
00000000 l    df *ABS*	00000000 flags.c
00000000 l    df *ABS*	00000000 fstatr.c
00000000 l    df *ABS*	00000000 isattyr.c
00000000 l    df *ABS*	00000000 lseekr.c
00000000 l    df *ABS*	00000000 mlock.c
00000000 l    df *ABS*	00000000 nano-vfprintf.c
00000000 l    df *ABS*	00000000 nano-vfprintf_i.c
00000000 l    df *ABS*	00000000 nano-vfprintf.c
0001ab00 l     F .text	0000003c __sfputc_r
00000000 l    df *ABS*	00000000 readr.c
00000000 l    df *ABS*	00000000 memchr.c
00000000 l    df *ABS*	00000000 nano-mallocr.c
00000000 l    df *ABS*	00000000 nano-mallocr.c
00000000 l    df *ABS*	00000000 sys_exit.c
00000000 l    df *ABS*	00000000 sys_fstat.c
00000000 l    df *ABS*	00000000 sys_conv_stat.c
00000000 l    df *ABS*	00000000 libgcc2.c
00000000 l    df *ABS*	00000000 crtstuff.c
0001f61c l     O .eh_frame	00000000 __FRAME_END__
00000000 l    df *ABS*	00000000 impure.c
00020cac l     O .data	00000060 impure_data
00000000 l    df *ABS*	00000000 
0001f624 l       .init_array	00000000 __init_array_end
0001f620 l       .init_array	00000000 __preinit_array_end
00020d14 l     O .got	00000000 _GLOBAL_OFFSET_TABLE_
0001f620 l       .init_array	00000000 __init_array_start
0001f620 l       .init_array	00000000 __preinit_array_start
0001b104 g     F .text	0000001c _malloc_usable_size_r
00013f18 g     F .text	0000004c _Z11ClearScreenh
000192cc g     F .text	0000004c putchar
0001a008 g     F .text	00000048 _isatty_r
00019b94 g     F .text	0000001c strcpy
000193dc g     F .text	00000160 _puts_r
0001a050 g     F .text	00000050 _lseek_r
00019f14 g     F .text	000000a8 __sflags
00020c94 g     O .data	00000004 IO_SwitchState
0001925c g     F .text	00000070 printf
00021528 g     O .bss	00004480 s_filehandles
000215bc g       *ABS*	00000000 __global_pointer$
00019b0c g     F .text	00000058 __sseek
00018440 g     F .text	000000b4 __sinit
00019bcc g     F .text	00000138 __swbuf_r
000183d4 g     F .text	0000006c __sfmoreglue
0001a0a4 g     F .text	00000004 __malloc_unlock
00014acc g     F .text	00000134 _Z17SDReadSingleBlockmPhS_
00011b24 g     F .text	00000054 _Z22SetupInterruptHandlersv
000117d0 g     F .text	00000020 _Z28illegalinstruction_exceptionv
00021068 g     O .bss	00000004 checksumcounter
0001aff4 g     F .text	0000003c memmove
00010fec g     F .text	000003f4 _Z18HandleDemoCommandsc
00017f54 g     F .text	0000000c __errno
0001b1ac g     F .text	00000084 _conv_stat
000131b8 g     F .text	0000038c _Z8PrintDMAiiPKcb
00019fbc g     F .text	0000004c _fstat_r
00020dcc g     O .sbss	00000004 errno
00011510 g     F .text	000002c0 _Z15timer_interruptv
00021520 g     O .bss	00000004 packetcomplete
00020c98 g     O .data	00000004 IO_UARTRX
00020dbc g       .sdata	00000000 __SDATA_BEGIN__
00020ca8 g     O .data	00000004 font
00018f78 g     F .text	00000024 memcpy
000197a0 g     F .text	00000224 setvbuf
000183c8 g     F .text	0000000c _cleanup_r
0001a210 g     F .text	000003a0 _svfprintf_r
000113e0 g     F .text	0000005c _Z21ProcessUARTInputAsyncv
000170f0 g     F .text	00000030 disk_initialize
0001953c g     F .text	00000010 puts
000171a8 g     F .text	00000044 _Z16SetConsoleCursorii
000179cc g     F .text	00000064 _Z11DrawConsolev
00018f28 g     F .text	00000010 malloc
0001b150 g     F .text	0000005c _fstat
00017184 g     F .text	00000024 _Z15ClearConsoleRowv
00016398 g     F .text	000000c0 f_chdir
000117fc g     F .text	000001d0 _Z18external_interruptm
000170e4 g     F .text	0000000c disk_status
000259a8 g     O .bss	00000004 s_numhandles
0002105c g     O .bss	00000004 sdcardtriggerread
00019748 g     F .text	00000048 _sbrk_r
00014c00 g     F .text	000000b4 _Z20SDReadMultipleBlocksPhmm
00012140 g     F .text	00000054 _Z7dec2intPc
00016ad0 g     F .text	00000070 f_closedir
0001af80 g     F .text	00000050 _read_r
00017f60 g     F .text	00000114 _fclose_r
00018318 g     F .text	00000028 fflush
00010684 g     F .text	000001d4 _Z8LoadFilePcm
00021070 g     O .bss	000004b0 packetbuffer
00020c90 g     O .data	00000004 IO_SPIOutput
00020c88 g     O .data	00000004 IO_GPUFIFO
00014028 g     F .text	0000000c _isatty
00020dbc g     O .sdata	00000004 _global_impure_ptr
0001b030 g     F .text	000000d4 _realloc_r
00018d0c g     F .text	0000009c __libc_init_array
0001036c g     F .text	00000318 _Z29ParseELFHeaderAndLoadSectionsP7__sFILEP16SElfFileHeader32m
00013f64 g     F .text	00000014 _Z9ReadClockv
00013f78 g     F .text	00000024 _Z9ClockToMsy
00017b20 g     F .text	00000434 .hidden __udivdi3
000140fc g     F .text	00000078 _open
0001425c g     F .text	00000048 _sbrk
00010a60 g     F .text	00000380 _Z10OSMainTaskv
00010858 g     F .text	00000180 _Z4Dumpmm
00018870 g     F .text	00000208 _fseeko_r
00021048 g     O .bss	00000004 num_tasks
00017160 g     F .text	00000024 _Z12ClearConsolev
00021038 g     O .bss	00000001 hardwareswitchstates
00020c8c g     O .data	00000004 IO_SPIInput
00019318 g     F .text	000000c4 _putc_r
00021020 g     O .bss	00000008 clk
00017934 g     F .text	00000098 _Z18EchoConsoleHexBytel
00021064 g     O .bss	00000004 showtime
00016358 g     F .text	00000040 f_chdrive
0001d62c g     O .rodata	00000020 __sf_fake_stderr
000142a4 g     F .text	00000004 _Z9SDStrobe8v
0001a0a8 g     F .text	00000168 __ssputs_r
00018858 g     F .text	00000018 fseek
00013fe0 g     F .text	00000024 _chdir
00017a30 g     F .text	000000f0 _Z18ConsoleStringAtRowPc
0001ab3c g     F .text	00000074 __sfputs_r
000185e0 g     F .text	00000004 __sfp_lock_acquire
0001afd0 g     F .text	00000024 memchr
00018fb8 g     F .text	00000104 _free_r
00012194 g     F .text	0000006c _Z7hex2intPc
000147b8 g     F .text	00000084 _Z6SDIdlev
0001f688 g     O .data	00001600 task_array
000162e8 g     F .text	00000070 f_close
00021030 g     O .bss	00000004 escapemode
0002104c g     O .bss	00000001 oldhardwareswitchstates
000101d8 g     F .text	0000004c _start
00014238 g     F .text	00000024 _wait
00013f9c g     F .text	00000044 _Z12ClockMsToHMSmRmS_S_
00014064 g     F .text	00000074 _lseek
00017284 g     F .text	00000058 _Z21ConsoleCursorStepBackv
00021058 g     O .bss	00000004 sdcardstate
00011cf0 g     F .text	00000270 _Z8uint2decmPc
0001920c g     F .text	00000050 _open_r
00021040 g     O .bss	00000004 milliseconds
0001604c g     F .text	0000029c f_read
00016b40 g     F .text	000005a4 f_readdir
00011c84 g     F .text	0000006c _Z11strchecksumPKcPc
0001143c g     F .text	000000d4 _Z10SetupTasksv
00014a48 g     F .text	00000084 _Z17SDSetBlockSize512v
000171ec g     F .text	0000007c _Z13ScrollConsolev
00019ecc g     F .text	00000048 _close_r
000125a0 g     F .text	00000068 _Z13AddBreakPointR11cpu_contextm
00018f48 g     F .text	00000030 memcmp
00018a88 g     F .text	00000134 _ftello_r
00019d54 g     F .text	00000178 __swsetup_r
000184f4 g     F .text	000000ec __sfp
00025cc8 g       .bss	00000000 __BSS_END__
00021028 g     O .bss	00000004 current_task
00019a38 g     F .text	00000050 __sread
00018838 g     F .text	0000001c fread
000177b4 g     F .text	00000180 _Z14EchoConsoleHexl
0001a0a0 g     F .text	00000004 __malloc_lock
00018278 g     F .text	000000a0 _fflush_r
000120e4 g     F .text	0000005c _Z15SendDebugPacketPKc
0001d64c g     O .rodata	00000020 __sf_fake_stdin
00010298 g     F .text	000000d4 _Z14OSPeriodicTaskv
000186d4 g     F .text	00000014 fopen
00020dc4 g       .sbss	00000000 __bss_start
000173f0 g     F .text	000003c4 _Z11EchoConsolel
00013184 g     F .text	00000034 _Z8InitFontv
00018f9c g     F .text	0000001c memset
000100b4 g     F .text	00000124 main
00018a78 g     F .text	00000010 ftell
00012038 g     F .text	000000ac _Z24SendDebugPacketRegistersR11cpu_context
000186e8 g     F .text	00000150 _fread_r
00019b64 g     F .text	00000008 __sclose
00018074 g     F .text	00000010 fclose
0001496c g     F .text	000000dc _Z10SDCardInitv
00011b78 g     F .text	000000d4 _Z16processgdbpacketc
000190bc g     F .text	00000150 _malloc_r
00015e78 g     F .text	000000a4 f_mount
00010294 g     F .text	00000004 _Z10OSIdleTaskv
00021060 g     O .bss	00000004 seconds
00013ddc g     F .text	0000013c _Z7EchoHexm
00018bbc g     F .text	000000a0 _fwalk
000169cc g     F .text	00000104 f_opendir
00014174 g     F .text	00000024 _openat
000119cc g     F .text	00000158 _Z17interrupt_handlerv
0001925c g     F .text	00000070 iprintf
00016458 g     F .text	00000574 f_lseek
000199c4 g     F .text	00000074 sprintf
0001d52c g     O .rodata	00000100 .hidden __clz_tab
00014cb4 g     F .text	00000074 _Z13SDCardStartupv
000142a8 g     F .text	00000510 _Z5SDCmd13SDCardCommandm
00012608 g     F .text	00000054 _Z14gdb_breakpointP11cpu_context
00011f60 g     F .text	000000a8 _Z29int2architectureorderedstringmPc
00020ca0 g     O .data	00000004 IO_UARTTX
00019d04 g     F .text	00000050 _write_r
000117f0 g     F .text	0000000c _Z20breakpoint_interruptv
0001a5b0 g     F .text	000001b0 _printf_common
00020dc0 g     O .sdata	00000004 _impure_ptr
000138dc g     F .text	000000f8 _Z11PrintDMAHexiim
000140d8 g     F .text	00000024 _lstat
00018084 g     F .text	000001f4 __sflush_r
00020c9c g     O .data	00000004 IO_UARTRXByteCount
00018854 g     F .text	00000004 _fseek_r
0001265c g     F .text	00000b28 _Z11gdb_handlerP11cpu_contextm
0001a210 g     F .text	000003a0 _svfiprintf_r
00019568 g     F .text	000001e0 __srefill_r
000109d8 g     F .text	00000088 _Z7LoadELFPKc
00018da8 g     F .text	00000090 __swhatbuf_r
0001f634 g     O .data	00000004 branchaddress
00014004 g     F .text	00000024 _getcwd
0001f634 g       .data	00000000 __DATA_BEGIN__
00013db0 g     F .text	0000002c _Z8EchoUARTPKc
00013544 g     F .text	00000398 _Z8PrintDMAiiiPKcb
000141e0 g     F .text	00000058 _write
00020dc4 g       .sdata	00000000 _edata
00025cc8 g       .bss	00000000 _end
00021524 g     O .bss	00000004 packetcursor
00012008 g     F .text	00000030 _Z30byte2architectureorderedstringhPc
0002106c g     O .bss	00000004 dbg_current_thread
00011c4c g     F .text	00000038 _Z10startswithPcPKci
00019a88 g     F .text	00000084 __swrite
00015f1c g     F .text	00000130 f_open
00010074 g     F .text	00000040 exit
0001abb0 g     F .text	000003d0 _vfiprintf_r
00018c5c g     F .text	000000b0 _fwalk_reent
00019790 g     F .text	00000010 setbuf
000185e4 g     F .text	00000004 __sfp_lock_release
0001d66c g     O .rodata	00000020 __sf_fake_stdout
000199c4 g     F .text	00000074 siprintf
00014198 g     F .text	00000048 _read
000185e8 g     F .text	000000ec _fopen_r
0001b120 g     F .text	00000030 _exit
00021044 g     O .bss	00000004 minutes
00018e38 g     F .text	000000f0 __smakebuf_r
0001483c g     F .text	00000130 _Z19SDCheckVoltageRangePm
00019bb0 g     F .text	0000001c strlen
00017120 g     F .text	00000040 disk_read
0001a760 g     F .text	000003a0 _printf_i
00010de0 g     F .text	0000020c _Z7ListDirPKc
00020dc8 g     O .sbss	00000004 __malloc_sbrk_start
00017268 g     F .text	0000001c _Z16GetConsoleCursorRiS_
0002102c g     O .bss	00000004 cursorevenodd
00019b6c g     F .text	00000028 strchr
0002103c g     O .bss	00000004 hours
00020dc4 g     O .sbss	00000004 __malloc_free_list
0001f638 g     O .data	00000050 FRtoString
000139d4 g     F .text	000003dc _Z15PrintDMADecimaliiib
00020dec g     O .bss	0000022c Fs
0001abb0 g     F .text	000003d0 _vfprintf_r
00021054 g     O .bss	00000004 sdcardavailable
00021050 g     O .bss	00000004 recessmaintask
000172dc g     F .text	00000114 _Z11EchoConsolePKc
00012200 g     F .text	000003a0 _Z16RemoveBreakPointR11cpu_contextm
00014034 g     F .text	00000030 _close
00018f38 g     F .text	00000010 free
00021034 g     O .bss	00000004 eventuallydie



Disassembly of section .text:

00010074 <exit>:
   10074:	ff010113          	addi	sp,sp,-16
   10078:	00812423          	sw	s0,8(sp)
   1007c:	00112623          	sw	ra,12(sp)
   10080:	00000793          	li	a5,0
   10084:	00050413          	mv	s0,a0
   10088:	00078863          	beqz	a5,10098 <exit+0x24>
   1008c:	00000593          	li	a1,0
   10090:	00000097          	auipc	ra,0x0
   10094:	000000e7          	jalr	zero # 0 <exit-0x10074>
   10098:	000217b7          	lui	a5,0x21
   1009c:	dbc7a503          	lw	a0,-580(a5) # 20dbc <_global_impure_ptr>
   100a0:	02852783          	lw	a5,40(a0)
   100a4:	00078463          	beqz	a5,100ac <exit+0x38>
   100a8:	000780e7          	jalr	a5
   100ac:	00040513          	mv	a0,s0
   100b0:	0700b0ef          	jal	ra,1b120 <_exit>

000100b4 <main>:
   100b4:	00011797          	auipc	a5,0x11
   100b8:	cd47a783          	lw	a5,-812(a5) # 20d88 <_GLOBAL_OFFSET_TABLE_+0x74>
   100bc:	0007a783          	lw	a5,0(a5)
   100c0:	ff010113          	addi	sp,sp,-16
   100c4:	00000593          	li	a1,0
   100c8:	0087a503          	lw	a0,8(a5)
   100cc:	00112623          	sw	ra,12(sp)
   100d0:	6c0090ef          	jal	ra,19790 <setbuf>
   100d4:	0b0030ef          	jal	ra,13184 <_Z8InitFontv>
   100d8:	0000b517          	auipc	a0,0xb
   100dc:	4f450513          	addi	a0,a0,1268 # 1b5cc <_conv_stat+0x420>
   100e0:	45c090ef          	jal	ra,1953c <puts>
   100e4:	0000b517          	auipc	a0,0xb
   100e8:	4f050513          	addi	a0,a0,1264 # 1b5d4 <_conv_stat+0x428>
   100ec:	450090ef          	jal	ra,1953c <puts>
   100f0:	0000b517          	auipc	a0,0xb
   100f4:	50450513          	addi	a0,a0,1284 # 1b5f4 <_conv_stat+0x448>
   100f8:	444090ef          	jal	ra,1953c <puts>
   100fc:	0000b517          	auipc	a0,0xb
   10100:	51850513          	addi	a0,a0,1304 # 1b614 <_conv_stat+0x468>
   10104:	438090ef          	jal	ra,1953c <puts>
   10108:	0000b517          	auipc	a0,0xb
   1010c:	52c50513          	addi	a0,a0,1324 # 1b634 <_conv_stat+0x488>
   10110:	42c090ef          	jal	ra,1953c <puts>
   10114:	0000b517          	auipc	a0,0xb
   10118:	54050513          	addi	a0,a0,1344 # 1b654 <_conv_stat+0x4a8>
   1011c:	420090ef          	jal	ra,1953c <puts>
   10120:	0000b517          	auipc	a0,0xb
   10124:	55450513          	addi	a0,a0,1364 # 1b674 <_conv_stat+0x4c8>
   10128:	414090ef          	jal	ra,1953c <puts>
   1012c:	0000b517          	auipc	a0,0xb
   10130:	56850513          	addi	a0,a0,1384 # 1b694 <_conv_stat+0x4e8>
   10134:	408090ef          	jal	ra,1953c <puts>
   10138:	0000b517          	auipc	a0,0xb
   1013c:	57c50513          	addi	a0,a0,1404 # 1b6b4 <_conv_stat+0x508>
   10140:	3fc090ef          	jal	ra,1953c <puts>
   10144:	0000b517          	auipc	a0,0xb
   10148:	59050513          	addi	a0,a0,1424 # 1b6d4 <_conv_stat+0x528>
   1014c:	3f0090ef          	jal	ra,1953c <puts>
   10150:	0000b517          	auipc	a0,0xb
   10154:	5a450513          	addi	a0,a0,1444 # 1b6f4 <_conv_stat+0x548>
   10158:	3e4090ef          	jal	ra,1953c <puts>
   1015c:	0000b517          	auipc	a0,0xb
   10160:	5b850513          	addi	a0,a0,1464 # 1b714 <_conv_stat+0x568>
   10164:	3d8090ef          	jal	ra,1953c <puts>
   10168:	0000b517          	auipc	a0,0xb
   1016c:	46c50513          	addi	a0,a0,1132 # 1b5d4 <_conv_stat+0x428>
   10170:	3cc090ef          	jal	ra,1953c <puts>
   10174:	301025f3          	csrr	a1,misa
   10178:	0000b517          	auipc	a0,0xb
   1017c:	5bc50513          	addi	a0,a0,1468 # 1b734 <_conv_stat+0x588>
   10180:	0dc090ef          	jal	ra,1925c <iprintf>
   10184:	0000b517          	auipc	a0,0xb
   10188:	5cc50513          	addi	a0,a0,1484 # 1b750 <_conv_stat+0x5a4>
   1018c:	3b0090ef          	jal	ra,1953c <puts>
   10190:	00011797          	auipc	a5,0x11
   10194:	b887a783          	lw	a5,-1144(a5) # 20d18 <_GLOBAL_OFFSET_TABLE_+0x4>
   10198:	0007a783          	lw	a5,0(a5)
   1019c:	00011717          	auipc	a4,0x11
   101a0:	bc872703          	lw	a4,-1080(a4) # 20d64 <_GLOBAL_OFFSET_TABLE_+0x50>
   101a4:	0007c783          	lbu	a5,0(a5)
   101a8:	0ff7f793          	andi	a5,a5,255
   101ac:	00f70023          	sb	a5,0(a4)
   101b0:	00011717          	auipc	a4,0x11
   101b4:	b9c72703          	lw	a4,-1124(a4) # 20d4c <_GLOBAL_OFFSET_TABLE_+0x38>
   101b8:	00f70023          	sb	a5,0(a4)
   101bc:	00011797          	auipc	a5,0x11
   101c0:	bac7a783          	lw	a5,-1108(a5) # 20d68 <_GLOBAL_OFFSET_TABLE_+0x54>
   101c4:	0ff00713          	li	a4,255
   101c8:	00e7a023          	sw	a4,0(a5)
   101cc:	270010ef          	jal	ra,1143c <_Z10SetupTasksv>
   101d0:	155010ef          	jal	ra,11b24 <_Z22SetupInterruptHandlersv>
   101d4:	0000006f          	j	101d4 <main+0x120>

000101d8 <_start>:
   101d8:	00011197          	auipc	gp,0x11
   101dc:	3e418193          	addi	gp,gp,996 # 215bc <__global_pointer$>
   101e0:	80818513          	addi	a0,gp,-2040 # 20dc4 <__malloc_free_list>
   101e4:	00016617          	auipc	a2,0x16
   101e8:	ae460613          	addi	a2,a2,-1308 # 25cc8 <__BSS_END__>
   101ec:	40a60633          	sub	a2,a2,a0
   101f0:	00000593          	li	a1,0
   101f4:	5a9080ef          	jal	ra,18f9c <memset>
   101f8:	00000513          	li	a0,0
   101fc:	00050863          	beqz	a0,1020c <_start+0x34>
   10200:	00000513          	li	a0,0
   10204:	00000097          	auipc	ra,0x0
   10208:	000000e7          	jalr	zero # 0 <exit-0x10074>
   1020c:	301080ef          	jal	ra,18d0c <__libc_init_array>
   10210:	00012503          	lw	a0,0(sp)
   10214:	00410593          	addi	a1,sp,4
   10218:	00000613          	li	a2,0
   1021c:	e99ff0ef          	jal	ra,100b4 <main>
   10220:	e55ff06f          	j	10074 <exit>

00010224 <__do_global_dtors_aux>:
   10224:	8141c703          	lbu	a4,-2028(gp) # 20dd0 <completed.1>
   10228:	04071263          	bnez	a4,1026c <__do_global_dtors_aux+0x48>
   1022c:	ff010113          	addi	sp,sp,-16
   10230:	00812423          	sw	s0,8(sp)
   10234:	00078413          	mv	s0,a5
   10238:	00112623          	sw	ra,12(sp)
   1023c:	00000793          	li	a5,0
   10240:	00078a63          	beqz	a5,10254 <__do_global_dtors_aux+0x30>
   10244:	0001e537          	lui	a0,0x1e
   10248:	70c50513          	addi	a0,a0,1804 # 1e70c <__EH_FRAME_BEGIN__>
   1024c:	00000097          	auipc	ra,0x0
   10250:	000000e7          	jalr	zero # 0 <exit-0x10074>
   10254:	00100793          	li	a5,1
   10258:	00c12083          	lw	ra,12(sp)
   1025c:	80f18a23          	sb	a5,-2028(gp) # 20dd0 <completed.1>
   10260:	00812403          	lw	s0,8(sp)
   10264:	01010113          	addi	sp,sp,16
   10268:	00008067          	ret
   1026c:	00008067          	ret

00010270 <frame_dummy>:
   10270:	00000793          	li	a5,0
   10274:	00078e63          	beqz	a5,10290 <frame_dummy+0x20>
   10278:	000215b7          	lui	a1,0x21
   1027c:	0001e537          	lui	a0,0x1e
   10280:	dd458593          	addi	a1,a1,-556 # 20dd4 <object.0>
   10284:	70c50513          	addi	a0,a0,1804 # 1e70c <__EH_FRAME_BEGIN__>
   10288:	00000317          	auipc	t1,0x0
   1028c:	00000067          	jr	zero # 0 <exit-0x10074>
   10290:	00008067          	ret

00010294 <_Z10OSIdleTaskv>:
   10294:	0000006f          	j	10294 <_Z10OSIdleTaskv>

00010298 <_Z14OSPeriodicTaskv>:
   10298:	fd010113          	addi	sp,sp,-48
   1029c:	02812423          	sw	s0,40(sp)
   102a0:	02912223          	sw	s1,36(sp)
   102a4:	03212023          	sw	s2,32(sp)
   102a8:	01312e23          	sw	s3,28(sp)
   102ac:	01412c23          	sw	s4,24(sp)
   102b0:	01512a23          	sw	s5,20(sp)
   102b4:	01612823          	sw	s6,16(sp)
   102b8:	01712623          	sw	s7,12(sp)
   102bc:	01812423          	sw	s8,8(sp)
   102c0:	01912223          	sw	s9,4(sp)
   102c4:	01a12023          	sw	s10,0(sp)
   102c8:	02112623          	sw	ra,44(sp)
   102cc:	00000493          	li	s1,0
   102d0:	00011b17          	auipc	s6,0x11
   102d4:	a84b2b03          	lw	s6,-1404(s6) # 20d54 <_GLOBAL_OFFSET_TABLE_+0x40>
   102d8:	00011417          	auipc	s0,0x11
   102dc:	a9442403          	lw	s0,-1388(s0) # 20d6c <_GLOBAL_OFFSET_TABLE_+0x58>
   102e0:	00011c17          	auipc	s8,0x11
   102e4:	a6cc2c03          	lw	s8,-1428(s8) # 20d4c <_GLOBAL_OFFSET_TABLE_+0x38>
   102e8:	00011b97          	auipc	s7,0x11
   102ec:	a80bab83          	lw	s7,-1408(s7) # 20d68 <_GLOBAL_OFFSET_TABLE_+0x54>
   102f0:	00011d17          	auipc	s10,0x11
   102f4:	a44d2d03          	lw	s10,-1468(s10) # 20d34 <_GLOBAL_OFFSET_TABLE_+0x20>
   102f8:	00011a97          	auipc	s5,0x11
   102fc:	a84aaa83          	lw	s5,-1404(s5) # 20d7c <_GLOBAL_OFFSET_TABLE_+0x68>
   10300:	00011a17          	auipc	s4,0x11
   10304:	a9ca2a03          	lw	s4,-1380(s4) # 20d9c <_GLOBAL_OFFSET_TABLE_+0x88>
   10308:	00011997          	auipc	s3,0x11
   1030c:	a9c9a983          	lw	s3,-1380(s3) # 20da4 <_GLOBAL_OFFSET_TABLE_+0x90>
   10310:	0c800913          	li	s2,200
   10314:	00100c93          	li	s9,1
   10318:	44d030ef          	jal	ra,13f64 <_Z9ReadClockv>
   1031c:	00bb2223          	sw	a1,4(s6)
   10320:	00ab2023          	sw	a0,0(s6)
   10324:	455030ef          	jal	ra,13f78 <_Z9ClockToMsy>
   10328:	000a8693          	mv	a3,s5
   1032c:	000a0613          	mv	a2,s4
   10330:	00098593          	mv	a1,s3
   10334:	00a42023          	sw	a0,0(s0)
   10338:	465030ef          	jal	ra,13f9c <_Z12ClockMsToHMSmRmS_S_>
   1033c:	00042703          	lw	a4,0(s0)
   10340:	409707b3          	sub	a5,a4,s1
   10344:	fcf97ae3          	bgeu	s2,a5,10318 <_Z14OSPeriodicTaskv+0x80>
   10348:	000c0783          	lb	a5,0(s8)
   1034c:	000ba683          	lw	a3,0(s7)
   10350:	00070493          	mv	s1,a4
   10354:	fff7c793          	not	a5,a5
   10358:	01f7d793          	srli	a5,a5,0x1f
   1035c:	faf68ee3          	beq	a3,a5,10318 <_Z14OSPeriodicTaskv+0x80>
   10360:	019d2023          	sw	s9,0(s10)
   10364:	00fba023          	sw	a5,0(s7)
   10368:	fb1ff06f          	j	10318 <_Z14OSPeriodicTaskv+0x80>

0001036c <_Z29ParseELFHeaderAndLoadSectionsP7__sFILEP16SElfFileHeader32m>:
   1036c:	f6010113          	addi	sp,sp,-160
   10370:	08812c23          	sw	s0,152(sp)
   10374:	08112e23          	sw	ra,156(sp)
   10378:	08912a23          	sw	s1,148(sp)
   1037c:	09212823          	sw	s2,144(sp)
   10380:	09312623          	sw	s3,140(sp)
   10384:	09412423          	sw	s4,136(sp)
   10388:	09512223          	sw	s5,132(sp)
   1038c:	09612023          	sw	s6,128(sp)
   10390:	07712e23          	sw	s7,124(sp)
   10394:	00058413          	mv	s0,a1
   10398:	0015c683          	lbu	a3,1(a1)
   1039c:	00244703          	lbu	a4,2(s0)
   103a0:	0005c583          	lbu	a1,0(a1)
   103a4:	00344783          	lbu	a5,3(s0)
   103a8:	00869693          	slli	a3,a3,0x8
   103ac:	00b6e6b3          	or	a3,a3,a1
   103b0:	01071713          	slli	a4,a4,0x10
   103b4:	00d76733          	or	a4,a4,a3
   103b8:	01879793          	slli	a5,a5,0x18
   103bc:	00e7e7b3          	or	a5,a5,a4
   103c0:	464c4737          	lui	a4,0x464c4
   103c4:	57f70713          	addi	a4,a4,1407 # 464c457f <__BSS_END__+0x4649e8b7>
   103c8:	02e78c63          	beq	a5,a4,10400 <_Z29ParseELFHeaderAndLoadSectionsP7__sFILEP16SElfFileHeader32m+0x94>
   103cc:	09812403          	lw	s0,152(sp)
   103d0:	09c12083          	lw	ra,156(sp)
   103d4:	09412483          	lw	s1,148(sp)
   103d8:	09012903          	lw	s2,144(sp)
   103dc:	08c12983          	lw	s3,140(sp)
   103e0:	08812a03          	lw	s4,136(sp)
   103e4:	08412a83          	lw	s5,132(sp)
   103e8:	08012b03          	lw	s6,128(sp)
   103ec:	07c12b83          	lw	s7,124(sp)
   103f0:	0000b517          	auipc	a0,0xb
   103f4:	e4050513          	addi	a0,a0,-448 # 1b230 <_conv_stat+0x84>
   103f8:	0a010113          	addi	sp,sp,160
   103fc:	1400906f          	j	1953c <puts>
   10400:	01944683          	lbu	a3,25(s0)
   10404:	01a44703          	lbu	a4,26(s0)
   10408:	00060a13          	mv	s4,a2
   1040c:	01844603          	lbu	a2,24(s0)
   10410:	01b44783          	lbu	a5,27(s0)
   10414:	00869693          	slli	a3,a3,0x8
   10418:	00c6e6b3          	or	a3,a3,a2
   1041c:	01071713          	slli	a4,a4,0x10
   10420:	00d76733          	or	a4,a4,a3
   10424:	01879793          	slli	a5,a5,0x18
   10428:	00e7e7b3          	or	a5,a5,a4
   1042c:	014787b3          	add	a5,a5,s4
   10430:	00011717          	auipc	a4,0x11
   10434:	96072703          	lw	a4,-1696(a4) # 20d90 <_GLOBAL_OFFSET_TABLE_+0x7c>
   10438:	00f72023          	sw	a5,0(a4)
   1043c:	01d44583          	lbu	a1,29(s0)
   10440:	01c44683          	lbu	a3,28(s0)
   10444:	01e44783          	lbu	a5,30(s0)
   10448:	01f44703          	lbu	a4,31(s0)
   1044c:	00859593          	slli	a1,a1,0x8
   10450:	00d5e5b3          	or	a1,a1,a3
   10454:	01079793          	slli	a5,a5,0x10
   10458:	00b7e7b3          	or	a5,a5,a1
   1045c:	01871593          	slli	a1,a4,0x18
   10460:	00f5e5b3          	or	a1,a1,a5
   10464:	00000613          	li	a2,0
   10468:	00050913          	mv	s2,a0
   1046c:	3ec080ef          	jal	ra,18858 <fseek>
   10470:	00090693          	mv	a3,s2
   10474:	00100613          	li	a2,1
   10478:	02000593          	li	a1,32
   1047c:	00010513          	mv	a0,sp
   10480:	3b8080ef          	jal	ra,18838 <fread>
   10484:	03344783          	lbu	a5,51(s0)
   10488:	02f44583          	lbu	a1,47(s0)
   1048c:	03244683          	lbu	a3,50(s0)
   10490:	02e44703          	lbu	a4,46(s0)
   10494:	00879793          	slli	a5,a5,0x8
   10498:	00859593          	slli	a1,a1,0x8
   1049c:	00e5e5b3          	or	a1,a1,a4
   104a0:	00d7e7b3          	or	a5,a5,a3
   104a4:	02b787b3          	mul	a5,a5,a1
   104a8:	02144683          	lbu	a3,33(s0)
   104ac:	02044603          	lbu	a2,32(s0)
   104b0:	02244703          	lbu	a4,34(s0)
   104b4:	02344583          	lbu	a1,35(s0)
   104b8:	00869693          	slli	a3,a3,0x8
   104bc:	00c6e6b3          	or	a3,a3,a2
   104c0:	01071713          	slli	a4,a4,0x10
   104c4:	00d76733          	or	a4,a4,a3
   104c8:	01859593          	slli	a1,a1,0x18
   104cc:	00e5e5b3          	or	a1,a1,a4
   104d0:	00b785b3          	add	a1,a5,a1
   104d4:	00000613          	li	a2,0
   104d8:	00090513          	mv	a0,s2
   104dc:	37c080ef          	jal	ra,18858 <fseek>
   104e0:	00090693          	mv	a3,s2
   104e4:	00100613          	li	a2,1
   104e8:	02800593          	li	a1,40
   104ec:	02010513          	addi	a0,sp,32
   104f0:	348080ef          	jal	ra,18838 <fread>
   104f4:	03412503          	lw	a0,52(sp)
   104f8:	231080ef          	jal	ra,18f28 <malloc>
   104fc:	03012583          	lw	a1,48(sp)
   10500:	00050a93          	mv	s5,a0
   10504:	00000613          	li	a2,0
   10508:	00090513          	mv	a0,s2
   1050c:	34c080ef          	jal	ra,18858 <fseek>
   10510:	03412583          	lw	a1,52(sp)
   10514:	00090693          	mv	a3,s2
   10518:	00100613          	li	a2,1
   1051c:	000a8513          	mv	a0,s5
   10520:	318080ef          	jal	ra,18838 <fread>
   10524:	03144783          	lbu	a5,49(s0)
   10528:	03044703          	lbu	a4,48(s0)
   1052c:	00879793          	slli	a5,a5,0x8
   10530:	00e7e7b3          	or	a5,a5,a4
   10534:	10078863          	beqz	a5,10644 <_Z29ParseELFHeaderAndLoadSectionsP7__sFILEP16SElfFileHeader32m+0x2d8>
   10538:	00000493          	li	s1,0
   1053c:	04810993          	addi	s3,sp,72
   10540:	0000bb17          	auipc	s6,0xb
   10544:	d10b0b13          	addi	s6,s6,-752 # 1b250 <_conv_stat+0xa4>
   10548:	0240006f          	j	1056c <_Z29ParseELFHeaderAndLoadSectionsP7__sFILEP16SElfFileHeader32m+0x200>
   1054c:	03144783          	lbu	a5,49(s0)
   10550:	03044703          	lbu	a4,48(s0)
   10554:	00148493          	addi	s1,s1,1
   10558:	00879793          	slli	a5,a5,0x8
   1055c:	01049493          	slli	s1,s1,0x10
   10560:	0104d493          	srli	s1,s1,0x10
   10564:	00e7e7b3          	or	a5,a5,a4
   10568:	0cf4fe63          	bgeu	s1,a5,10644 <_Z29ParseELFHeaderAndLoadSectionsP7__sFILEP16SElfFileHeader32m+0x2d8>
   1056c:	02f44783          	lbu	a5,47(s0)
   10570:	02e44583          	lbu	a1,46(s0)
   10574:	02144683          	lbu	a3,33(s0)
   10578:	00879793          	slli	a5,a5,0x8
   1057c:	00b7e7b3          	or	a5,a5,a1
   10580:	029787b3          	mul	a5,a5,s1
   10584:	02044603          	lbu	a2,32(s0)
   10588:	02244703          	lbu	a4,34(s0)
   1058c:	02344583          	lbu	a1,35(s0)
   10590:	00869693          	slli	a3,a3,0x8
   10594:	00c6e6b3          	or	a3,a3,a2
   10598:	01071713          	slli	a4,a4,0x10
   1059c:	00d76733          	or	a4,a4,a3
   105a0:	01859593          	slli	a1,a1,0x18
   105a4:	00e5e5b3          	or	a1,a1,a4
   105a8:	00b785b3          	add	a1,a5,a1
   105ac:	00000613          	li	a2,0
   105b0:	00090513          	mv	a0,s2
   105b4:	2a4080ef          	jal	ra,18858 <fseek>
   105b8:	00090693          	mv	a3,s2
   105bc:	00100613          	li	a2,1
   105c0:	02800593          	li	a1,40
   105c4:	00098513          	mv	a0,s3
   105c8:	270080ef          	jal	ra,18838 <fread>
   105cc:	05012783          	lw	a5,80(sp)
   105d0:	0077f793          	andi	a5,a5,7
   105d4:	f6078ce3          	beqz	a5,1054c <_Z29ParseELFHeaderAndLoadSectionsP7__sFILEP16SElfFileHeader32m+0x1e0>
   105d8:	05c12783          	lw	a5,92(sp)
   105dc:	f60788e3          	beqz	a5,1054c <_Z29ParseELFHeaderAndLoadSectionsP7__sFILEP16SElfFileHeader32m+0x1e0>
   105e0:	05812583          	lw	a1,88(sp)
   105e4:	00000613          	li	a2,0
   105e8:	00090513          	mv	a0,s2
   105ec:	05412b83          	lw	s7,84(sp)
   105f0:	268080ef          	jal	ra,18858 <fseek>
   105f4:	04812583          	lw	a1,72(sp)
   105f8:	05c12683          	lw	a3,92(sp)
   105fc:	017a0bb3          	add	s7,s4,s7
   10600:	000b8613          	mv	a2,s7
   10604:	00ba85b3          	add	a1,s5,a1
   10608:	000b0513          	mv	a0,s6
   1060c:	451080ef          	jal	ra,1925c <iprintf>
   10610:	05c12583          	lw	a1,92(sp)
   10614:	00090693          	mv	a3,s2
   10618:	00100613          	li	a2,1
   1061c:	000b8513          	mv	a0,s7
   10620:	218080ef          	jal	ra,18838 <fread>
   10624:	03144783          	lbu	a5,49(s0)
   10628:	03044703          	lbu	a4,48(s0)
   1062c:	00148493          	addi	s1,s1,1
   10630:	00879793          	slli	a5,a5,0x8
   10634:	01049493          	slli	s1,s1,0x10
   10638:	0104d493          	srli	s1,s1,0x10
   1063c:	00e7e7b3          	or	a5,a5,a4
   10640:	f2f4e6e3          	bltu	s1,a5,1056c <_Z29ParseELFHeaderAndLoadSectionsP7__sFILEP16SElfFileHeader32m+0x200>
   10644:	000a8513          	mv	a0,s5
   10648:	0f1080ef          	jal	ra,18f38 <free>
   1064c:	0000b517          	auipc	a0,0xb
   10650:	c3050513          	addi	a0,a0,-976 # 1b27c <_conv_stat+0xd0>
   10654:	6e9080ef          	jal	ra,1953c <puts>
   10658:	09c12083          	lw	ra,156(sp)
   1065c:	09812403          	lw	s0,152(sp)
   10660:	09412483          	lw	s1,148(sp)
   10664:	09012903          	lw	s2,144(sp)
   10668:	08c12983          	lw	s3,140(sp)
   1066c:	08812a03          	lw	s4,136(sp)
   10670:	08412a83          	lw	s5,132(sp)
   10674:	08012b03          	lw	s6,128(sp)
   10678:	07c12b83          	lw	s7,124(sp)
   1067c:	0a010113          	addi	sp,sp,160
   10680:	00008067          	ret

00010684 <_Z8LoadFilePcm>:
   10684:	fd010113          	addi	sp,sp,-48
   10688:	01a12023          	sw	s10,0(sp)
   1068c:	00058d13          	mv	s10,a1
   10690:	0000b597          	auipc	a1,0xb
   10694:	bf458593          	addi	a1,a1,-1036 # 1b284 <_conv_stat+0xd8>
   10698:	02812423          	sw	s0,40(sp)
   1069c:	02112623          	sw	ra,44(sp)
   106a0:	02912223          	sw	s1,36(sp)
   106a4:	03212023          	sw	s2,32(sp)
   106a8:	01312e23          	sw	s3,28(sp)
   106ac:	01412c23          	sw	s4,24(sp)
   106b0:	01512a23          	sw	s5,20(sp)
   106b4:	01612823          	sw	s6,16(sp)
   106b8:	01712623          	sw	s7,12(sp)
   106bc:	01812423          	sw	s8,8(sp)
   106c0:	01912223          	sw	s9,4(sp)
   106c4:	00050413          	mv	s0,a0
   106c8:	00c080ef          	jal	ra,186d4 <fopen>
   106cc:	14050463          	beqz	a0,10814 <_Z8LoadFilePcm+0x190>
   106d0:	00200613          	li	a2,2
   106d4:	00000593          	li	a1,0
   106d8:	00050b13          	mv	s6,a0
   106dc:	17c080ef          	jal	ra,18858 <fseek>
   106e0:	000b0513          	mv	a0,s6
   106e4:	394080ef          	jal	ra,18a78 <ftell>
   106e8:	00050413          	mv	s0,a0
   106ec:	00000593          	li	a1,0
   106f0:	00000613          	li	a2,0
   106f4:	000b0513          	mv	a0,s6
   106f8:	160080ef          	jal	ra,18858 <fseek>
   106fc:	1ff40793          	addi	a5,s0,511
   10700:	41f7da93          	srai	s5,a5,0x1f
   10704:	1ffafa93          	andi	s5,s5,511
   10708:	00fa8ab3          	add	s5,s5,a5
   1070c:	00040593          	mv	a1,s0
   10710:	0000b517          	auipc	a0,0xb
   10714:	b7850513          	addi	a0,a0,-1160 # 1b288 <_conv_stat+0xdc>
   10718:	409ada93          	srai	s5,s5,0x9
   1071c:	341080ef          	jal	ra,1925c <iprintf>
   10720:	0a805463          	blez	s0,107c8 <_Z8LoadFilePcm+0x144>
   10724:	0000b517          	auipc	a0,0xb
   10728:	ba050513          	addi	a0,a0,-1120 # 1b2c4 <_conv_stat+0x118>
   1072c:	331080ef          	jal	ra,1925c <iprintf>
   10730:	000d0a13          	mv	s4,s10
   10734:	00000993          	li	s3,0
   10738:	00000913          	li	s2,0
   1073c:	00000493          	li	s1,0
   10740:	01400c13          	li	s8,20
   10744:	0000bb97          	auipc	s7,0xb
   10748:	b90b8b93          	addi	s7,s7,-1136 # 1b2d4 <_conv_stat+0x128>
   1074c:	0000bc97          	auipc	s9,0xb
   10750:	b78c8c93          	addi	s9,s9,-1160 # 1b2c4 <_conv_stat+0x118>
   10754:	409c04b3          	sub	s1,s8,s1
   10758:	00905c63          	blez	s1,10770 <_Z8LoadFilePcm+0xec>
   1075c:	00000413          	li	s0,0
   10760:	00140413          	addi	s0,s0,1
   10764:	02000513          	li	a0,32
   10768:	365080ef          	jal	ra,192cc <putchar>
   1076c:	fe941ae3          	bne	s0,s1,10760 <_Z8LoadFilePcm+0xdc>
   10770:	00991593          	slli	a1,s2,0x9
   10774:	000b8513          	mv	a0,s7
   10778:	2e5080ef          	jal	ra,1925c <iprintf>
   1077c:	000b0693          	mv	a3,s6
   10780:	00100613          	li	a2,1
   10784:	20000593          	li	a1,512
   10788:	000a0513          	mv	a0,s4
   1078c:	00190913          	addi	s2,s2,1
   10790:	0a8080ef          	jal	ra,18838 <fread>
   10794:	0359c4b3          	div	s1,s3,s5
   10798:	03595863          	bge	s2,s5,107c8 <_Z8LoadFilePcm+0x144>
   1079c:	000c8513          	mv	a0,s9
   107a0:	2bd080ef          	jal	ra,1925c <iprintf>
   107a4:	00000413          	li	s0,0
   107a8:	00048a63          	beqz	s1,107bc <_Z8LoadFilePcm+0x138>
   107ac:	00140413          	addi	s0,s0,1
   107b0:	03a00513          	li	a0,58
   107b4:	319080ef          	jal	ra,192cc <putchar>
   107b8:	fe941ae3          	bne	s0,s1,107ac <_Z8LoadFilePcm+0x128>
   107bc:	200a0a13          	addi	s4,s4,512
   107c0:	01498993          	addi	s3,s3,20
   107c4:	f91ff06f          	j	10754 <_Z8LoadFilePcm+0xd0>
   107c8:	000d0593          	mv	a1,s10
   107cc:	0000b517          	auipc	a0,0xb
   107d0:	ac850513          	addi	a0,a0,-1336 # 1b294 <_conv_stat+0xe8>
   107d4:	289080ef          	jal	ra,1925c <iprintf>
   107d8:	02812403          	lw	s0,40(sp)
   107dc:	02c12083          	lw	ra,44(sp)
   107e0:	02412483          	lw	s1,36(sp)
   107e4:	02012903          	lw	s2,32(sp)
   107e8:	01c12983          	lw	s3,28(sp)
   107ec:	01812a03          	lw	s4,24(sp)
   107f0:	01412a83          	lw	s5,20(sp)
   107f4:	00c12b83          	lw	s7,12(sp)
   107f8:	00812c03          	lw	s8,8(sp)
   107fc:	00412c83          	lw	s9,4(sp)
   10800:	00012d03          	lw	s10,0(sp)
   10804:	000b0513          	mv	a0,s6
   10808:	01012b03          	lw	s6,16(sp)
   1080c:	03010113          	addi	sp,sp,48
   10810:	0650706f          	j	18074 <fclose>
   10814:	00040593          	mv	a1,s0
   10818:	02812403          	lw	s0,40(sp)
   1081c:	02c12083          	lw	ra,44(sp)
   10820:	02412483          	lw	s1,36(sp)
   10824:	02012903          	lw	s2,32(sp)
   10828:	01c12983          	lw	s3,28(sp)
   1082c:	01812a03          	lw	s4,24(sp)
   10830:	01412a83          	lw	s5,20(sp)
   10834:	01012b03          	lw	s6,16(sp)
   10838:	00c12b83          	lw	s7,12(sp)
   1083c:	00812c03          	lw	s8,8(sp)
   10840:	00412c83          	lw	s9,4(sp)
   10844:	00012d03          	lw	s10,0(sp)
   10848:	0000b517          	auipc	a0,0xb
   1084c:	a9c50513          	addi	a0,a0,-1380 # 1b2e4 <_conv_stat+0x138>
   10850:	03010113          	addi	sp,sp,48
   10854:	2090806f          	j	1925c <iprintf>

00010858 <_Z4Dumpmm>:
   10858:	fa010113          	addi	sp,sp,-96
   1085c:	00259593          	slli	a1,a1,0x2
   10860:	05312623          	sw	s3,76(sp)
   10864:	04050993          	addi	s3,a0,64
   10868:	04812c23          	sw	s0,88(sp)
   1086c:	04912a23          	sw	s1,84(sp)
   10870:	05212823          	sw	s2,80(sp)
   10874:	05412423          	sw	s4,72(sp)
   10878:	05512223          	sw	s5,68(sp)
   1087c:	05612023          	sw	s6,64(sp)
   10880:	04112e23          	sw	ra,92(sp)
   10884:	00010a23          	sb	zero,20(sp)
   10888:	00b504b3          	add	s1,a0,a1
   1088c:	00b989b3          	add	s3,s3,a1
   10890:	00c10b13          	addi	s6,sp,12
   10894:	01810913          	addi	s2,sp,24
   10898:	05f00413          	li	s0,95
   1089c:	02e00a13          	li	s4,46
   108a0:	0000ba97          	auipc	s5,0xb
   108a4:	a58a8a93          	addi	s5,s5,-1448 # 1b2f8 <_conv_stat+0x14c>
   108a8:	0240006f          	j	108cc <_Z4Dumpmm+0x74>
   108ac:	010109a3          	sb	a6,19(sp)
   108b0:	114090ef          	jal	ra,199c4 <siprintf>
   108b4:	00090513          	mv	a0,s2
   108b8:	1a5080ef          	jal	ra,1925c <iprintf>
   108bc:	00848493          	addi	s1,s1,8
   108c0:	00090513          	mv	a0,s2
   108c4:	219060ef          	jal	ra,172dc <_Z11EchoConsolePKc>
   108c8:	0e998463          	beq	s3,s1,109b0 <_Z4Dumpmm+0x158>
   108cc:	0004a603          	lw	a2,0(s1)
   108d0:	0044a683          	lw	a3,4(s1)
   108d4:	0ff67713          	andi	a4,a2,255
   108d8:	fe070793          	addi	a5,a4,-32
   108dc:	0ff7f793          	andi	a5,a5,255
   108e0:	00f47463          	bgeu	s0,a5,108e8 <_Z4Dumpmm+0x90>
   108e4:	02e00713          	li	a4,46
   108e8:	00865593          	srli	a1,a2,0x8
   108ec:	0ff5f593          	andi	a1,a1,255
   108f0:	fe058793          	addi	a5,a1,-32
   108f4:	00e10623          	sb	a4,12(sp)
   108f8:	0ff7f793          	andi	a5,a5,255
   108fc:	00f47463          	bgeu	s0,a5,10904 <_Z4Dumpmm+0xac>
   10900:	02e00593          	li	a1,46
   10904:	01065793          	srli	a5,a2,0x10
   10908:	0ff7f793          	andi	a5,a5,255
   1090c:	fe078713          	addi	a4,a5,-32
   10910:	00b106a3          	sb	a1,13(sp)
   10914:	0ff77713          	andi	a4,a4,255
   10918:	00e47463          	bgeu	s0,a4,10920 <_Z4Dumpmm+0xc8>
   1091c:	02e00793          	li	a5,46
   10920:	01865593          	srli	a1,a2,0x18
   10924:	fe058713          	addi	a4,a1,-32
   10928:	00f10723          	sb	a5,14(sp)
   1092c:	0ff77793          	andi	a5,a4,255
   10930:	00f47463          	bgeu	s0,a5,10938 <_Z4Dumpmm+0xe0>
   10934:	02e00593          	li	a1,46
   10938:	0ff6f713          	andi	a4,a3,255
   1093c:	fe070793          	addi	a5,a4,-32
   10940:	00b107a3          	sb	a1,15(sp)
   10944:	0ff7f793          	andi	a5,a5,255
   10948:	00f47463          	bgeu	s0,a5,10950 <_Z4Dumpmm+0xf8>
   1094c:	02e00713          	li	a4,46
   10950:	0086d513          	srli	a0,a3,0x8
   10954:	0ff57513          	andi	a0,a0,255
   10958:	fe050793          	addi	a5,a0,-32
   1095c:	00e10823          	sb	a4,16(sp)
   10960:	0ff7f793          	andi	a5,a5,255
   10964:	00f47463          	bgeu	s0,a5,1096c <_Z4Dumpmm+0x114>
   10968:	02e00513          	li	a0,46
   1096c:	0106d793          	srli	a5,a3,0x10
   10970:	0ff7f793          	andi	a5,a5,255
   10974:	fe078593          	addi	a1,a5,-32
   10978:	00a108a3          	sb	a0,17(sp)
   1097c:	0ff5f593          	andi	a1,a1,255
   10980:	00b47463          	bgeu	s0,a1,10988 <_Z4Dumpmm+0x130>
   10984:	02e00793          	li	a5,46
   10988:	0186d813          	srli	a6,a3,0x18
   1098c:	fe080593          	addi	a1,a6,-32
   10990:	00f10923          	sb	a5,18(sp)
   10994:	0ff5f793          	andi	a5,a1,255
   10998:	000b0713          	mv	a4,s6
   1099c:	000a8593          	mv	a1,s5
   109a0:	00090513          	mv	a0,s2
   109a4:	f0f474e3          	bgeu	s0,a5,108ac <_Z4Dumpmm+0x54>
   109a8:	014109a3          	sb	s4,19(sp)
   109ac:	f05ff06f          	j	108b0 <_Z4Dumpmm+0x58>
   109b0:	05c12083          	lw	ra,92(sp)
   109b4:	05812403          	lw	s0,88(sp)
   109b8:	05412483          	lw	s1,84(sp)
   109bc:	05012903          	lw	s2,80(sp)
   109c0:	04c12983          	lw	s3,76(sp)
   109c4:	04812a03          	lw	s4,72(sp)
   109c8:	04412a83          	lw	s5,68(sp)
   109cc:	04012b03          	lw	s6,64(sp)
   109d0:	06010113          	addi	sp,sp,96
   109d4:	00008067          	ret

000109d8 <_Z7LoadELFPKc>:
   109d8:	fb010113          	addi	sp,sp,-80
   109dc:	0000b597          	auipc	a1,0xb
   109e0:	8a858593          	addi	a1,a1,-1880 # 1b284 <_conv_stat+0xd8>
   109e4:	04912223          	sw	s1,68(sp)
   109e8:	04112623          	sw	ra,76(sp)
   109ec:	04812423          	sw	s0,72(sp)
   109f0:	00050493          	mv	s1,a0
   109f4:	4e1070ef          	jal	ra,186d4 <fopen>
   109f8:	04050863          	beqz	a0,10a48 <_Z7LoadELFPKc+0x70>
   109fc:	00c10493          	addi	s1,sp,12
   10a00:	00050693          	mv	a3,a0
   10a04:	00050413          	mv	s0,a0
   10a08:	00100613          	li	a2,1
   10a0c:	03400593          	li	a1,52
   10a10:	00048513          	mv	a0,s1
   10a14:	625070ef          	jal	ra,18838 <fread>
   10a18:	00000613          	li	a2,0
   10a1c:	00048593          	mv	a1,s1
   10a20:	00040513          	mv	a0,s0
   10a24:	949ff0ef          	jal	ra,1036c <_Z29ParseELFHeaderAndLoadSectionsP7__sFILEP16SElfFileHeader32m>
   10a28:	00040513          	mv	a0,s0
   10a2c:	648070ef          	jal	ra,18074 <fclose>
   10a30:	00000513          	li	a0,0
   10a34:	04c12083          	lw	ra,76(sp)
   10a38:	04812403          	lw	s0,72(sp)
   10a3c:	04412483          	lw	s1,68(sp)
   10a40:	05010113          	addi	sp,sp,80
   10a44:	00008067          	ret
   10a48:	00048593          	mv	a1,s1
   10a4c:	0000b517          	auipc	a0,0xb
   10a50:	8bc50513          	addi	a0,a0,-1860 # 1b308 <_conv_stat+0x15c>
   10a54:	009080ef          	jal	ra,1925c <iprintf>
   10a58:	fff00513          	li	a0,-1
   10a5c:	fd9ff06f          	j	10a34 <_Z7LoadELFPKc+0x5c>

00010a60 <_Z10OSMainTaskv>:
   10a60:	fa010113          	addi	sp,sp,-96
   10a64:	05212823          	sw	s2,80(sp)
   10a68:	00010917          	auipc	s2,0x10
   10a6c:	2d892903          	lw	s2,728(s2) # 20d40 <_GLOBAL_OFFSET_TABLE_+0x2c>
   10a70:	00092783          	lw	a5,0(s2)
   10a74:	04112e23          	sw	ra,92(sp)
   10a78:	04812c23          	sw	s0,88(sp)
   10a7c:	04912a23          	sw	s1,84(sp)
   10a80:	05412423          	sw	s4,72(sp)
   10a84:	05512223          	sw	s5,68(sp)
   10a88:	05612023          	sw	s6,64(sp)
   10a8c:	03712e23          	sw	s7,60(sp)
   10a90:	03812c23          	sw	s8,56(sp)
   10a94:	03912a23          	sw	s9,52(sp)
   10a98:	03a12823          	sw	s10,48(sp)
   10a9c:	03b12623          	sw	s11,44(sp)
   10aa0:	30100713          	li	a4,769
   10aa4:	05312623          	sw	s3,76(sp)
   10aa8:	00e7a023          	sw	a4,0(a5)
   10aac:	36100493          	li	s1,865
   10ab0:	0097a023          	sw	s1,0(a5)
   10ab4:	06700413          	li	s0,103
   10ab8:	0087a023          	sw	s0,0(a5)
   10abc:	6a4060ef          	jal	ra,17160 <_Z12ClearConsolev>
   10ac0:	01a00513          	li	a0,26
   10ac4:	454030ef          	jal	ra,13f18 <_Z11ClearScreenh>
   10ac8:	705060ef          	jal	ra,179cc <_Z11DrawConsolev>
   10acc:	00092783          	lw	a5,0(s2)
   10ad0:	70100713          	li	a4,1793
   10ad4:	00000c93          	li	s9,0
   10ad8:	00e7a023          	sw	a4,0(a5)
   10adc:	0097a023          	sw	s1,0(a5)
   10ae0:	0087a023          	sw	s0,0(a5)
   10ae4:	000057b7          	lui	a5,0x5
   10ae8:	0007a023          	sw	zero,0(a5) # 5000 <exit-0xb074>
   10aec:	01c10793          	addi	a5,sp,28
   10af0:	00f12623          	sw	a5,12(sp)
   10af4:	01810793          	addi	a5,sp,24
   10af8:	00f12423          	sw	a5,8(sp)
   10afc:	014007b7          	lui	a5,0x1400
   10b00:	08178793          	addi	a5,a5,129 # 1400081 <__BSS_END__+0x13da3b9>
   10b04:	00000413          	li	s0,0
   10b08:	00100b13          	li	s6,1
   10b0c:	00010a17          	auipc	s4,0x10
   10b10:	2a8a2a03          	lw	s4,680(s4) # 20db4 <_GLOBAL_OFFSET_TABLE_+0xa0>
   10b14:	00010917          	auipc	s2,0x10
   10b18:	22092903          	lw	s2,544(s2) # 20d34 <_GLOBAL_OFFSET_TABLE_+0x20>
   10b1c:	00010a97          	auipc	s5,0x10
   10b20:	294aaa83          	lw	s5,660(s5) # 20db0 <_GLOBAL_OFFSET_TABLE_+0x9c>
   10b24:	00010497          	auipc	s1,0x10
   10b28:	2944a483          	lw	s1,660(s1) # 20db8 <_GLOBAL_OFFSET_TABLE_+0xa4>
   10b2c:	00010d17          	auipc	s10,0x10
   10b30:	274d2d03          	lw	s10,628(s10) # 20da0 <_GLOBAL_OFFSET_TABLE_+0x8c>
   10b34:	00010d97          	auipc	s11,0x10
   10b38:	224dad83          	lw	s11,548(s11) # 20d58 <_GLOBAL_OFFSET_TABLE_+0x44>
   10b3c:	0000bc17          	auipc	s8,0xb
   10b40:	810c0c13          	addi	s8,s8,-2032 # 1b34c <_conv_stat+0x1a0>
   10b44:	00010b97          	auipc	s7,0x10
   10b48:	268bab83          	lw	s7,616(s7) # 20dac <_GLOBAL_OFFSET_TABLE_+0x98>
   10b4c:	00f12023          	sw	a5,0(sp)
   10b50:	000059b7          	lui	s3,0x5
   10b54:	000a2783          	lw	a5,0(s4)
   10b58:	0c079463          	bnez	a5,10c20 <_Z10OSMainTaskv+0x1c0>
   10b5c:	00092783          	lw	a5,0(s2)
   10b60:	0e079863          	bnez	a5,10c50 <_Z10OSMainTaskv+0x1f0>
   10b64:	0004a783          	lw	a5,0(s1)
   10b68:	0a079e63          	bnez	a5,10c24 <_Z10OSMainTaskv+0x1c4>
   10b6c:	0009a783          	lw	a5,0(s3) # 5000 <exit-0xb074>
   10b70:	fe8792e3          	bne	a5,s0,10b54 <_Z10OSMainTaskv+0xf4>
   10b74:	01a00513          	li	a0,26
   10b78:	3a0030ef          	jal	ra,13f18 <_Z11ClearScreenh>
   10b7c:	651060ef          	jal	ra,179cc <_Z11DrawConsolev>
   10b80:	00010797          	auipc	a5,0x10
   10b84:	1ec7a783          	lw	a5,492(a5) # 20d6c <_GLOBAL_OFFSET_TABLE_+0x58>
   10b88:	0007a703          	lw	a4,0(a5)
   10b8c:	21200793          	li	a5,530
   10b90:	00140413          	addi	s0,s0,1
   10b94:	419706b3          	sub	a3,a4,s9
   10b98:	14d7ee63          	bltu	a5,a3,10cf4 <_Z10OSMainTaskv+0x294>
   10b9c:	000d2783          	lw	a5,0(s10)
   10ba0:	0017f793          	andi	a5,a5,1
   10ba4:	16078463          	beqz	a5,10d0c <_Z10OSMainTaskv+0x2ac>
   10ba8:	000da783          	lw	a5,0(s11)
   10bac:	18079a63          	bnez	a5,10d40 <_Z10OSMainTaskv+0x2e0>
   10bb0:	00010797          	auipc	a5,0x10
   10bb4:	1907a783          	lw	a5,400(a5) # 20d40 <_GLOBAL_OFFSET_TABLE_+0x2c>
   10bb8:	0007a783          	lw	a5,0(a5)
   10bbc:	001b4b13          	xori	s6,s6,1
   10bc0:	00ab1713          	slli	a4,s6,0xa
   10bc4:	0007a023          	sw	zero,0(a5)
   10bc8:	30176713          	ori	a4,a4,769
   10bcc:	00e7a023          	sw	a4,0(a5)
   10bd0:	36100713          	li	a4,865
   10bd4:	00e7a023          	sw	a4,0(a5)
   10bd8:	06700713          	li	a4,103
   10bdc:	00e7a023          	sw	a4,0(a5)
   10be0:	00012703          	lw	a4,0(sp)
   10be4:	00a41693          	slli	a3,s0,0xa
   10be8:	09100613          	li	a2,145
   10bec:	00e7a023          	sw	a4,0(a5)
   10bf0:	01645713          	srli	a4,s0,0x16
   10bf4:	00c7a023          	sw	a2,0(a5)
   10bf8:	1016e693          	ori	a3,a3,257
   10bfc:	00a71713          	slli	a4,a4,0xa
   10c00:	00d7a023          	sw	a3,0(a5)
   10c04:	12176713          	ori	a4,a4,289
   10c08:	00e7a023          	sw	a4,0(a5)
   10c0c:	0a600713          	li	a4,166
   10c10:	00e7a023          	sw	a4,0(a5)
   10c14:	000057b7          	lui	a5,0x5
   10c18:	0007a023          	sw	zero,0(a5) # 5000 <exit-0xb074>
   10c1c:	f35ff06f          	j	10b50 <_Z10OSMainTaskv+0xf0>
   10c20:	0000006f          	j	10c20 <_Z10OSMainTaskv+0x1c0>
   10c24:	0000a517          	auipc	a0,0xa
   10c28:	73850513          	addi	a0,a0,1848 # 1b35c <_conv_stat+0x1b0>
   10c2c:	0004a023          	sw	zero,0(s1)
   10c30:	10d080ef          	jal	ra,1953c <puts>
   10c34:	45ff                	0x45ff
   10c36:	00000123          	sb	zero,2(zero) # 2 <exit-0x10072>
   10c3a:	0000                	unimp
   10c3c:	ffff                	0xffff
   10c3e:	ffff                	0xffff
   10c40:	0000                	unimp
   10c42:	0000                	unimp
   10c44:	0009a783          	lw	a5,0(s3)
   10c48:	f08796e3          	bne	a5,s0,10b54 <_Z10OSMainTaskv+0xf4>
   10c4c:	f29ff06f          	j	10b74 <_Z10OSMainTaskv+0x114>
   10c50:	00100613          	li	a2,1
   10c54:	000c0593          	mv	a1,s8
   10c58:	000b8513          	mv	a0,s7
   10c5c:	00092023          	sw	zero,0(s2)
   10c60:	218050ef          	jal	ra,15e78 <f_mount>
   10c64:	06051463          	bnez	a0,10ccc <_Z10OSMainTaskv+0x26c>
   10c68:	00100793          	li	a5,1
   10c6c:	00faa023          	sw	a5,0(s5)
   10c70:	0000a517          	auipc	a0,0xa
   10c74:	6b050513          	addi	a0,a0,1712 # 1b320 <_conv_stat+0x174>
   10c78:	5e4080ef          	jal	ra,1925c <iprintf>
   10c7c:	000aa783          	lw	a5,0(s5)
   10c80:	ee0782e3          	beqz	a5,10b64 <_Z10OSMainTaskv+0x104>
   10c84:	0000a517          	auipc	a0,0xa
   10c88:	6cc50513          	addi	a0,a0,1740 # 1b350 <_conv_stat+0x1a4>
   10c8c:	d4dff0ef          	jal	ra,109d8 <_Z7LoadELFPKc>
   10c90:	fff00793          	li	a5,-1
   10c94:	ecf508e3          	beq	a0,a5,10b64 <_Z10OSMainTaskv+0x104>
   10c98:	00010797          	auipc	a5,0x10
   10c9c:	0f87a783          	lw	a5,248(a5) # 20d90 <_GLOBAL_OFFSET_TABLE_+0x7c>
   10ca0:	0007a783          	lw	a5,0(a5)
   10ca4:	00010717          	auipc	a4,0x10
   10ca8:	0a472703          	lw	a4,164(a4) # 20d48 <_GLOBAL_OFFSET_TABLE_+0x34>
   10cac:	00400693          	li	a3,4
   10cb0:	00d72023          	sw	a3,0(a4)
   10cb4:	00010717          	auipc	a4,0x10
   10cb8:	0a872703          	lw	a4,168(a4) # 20d5c <_GLOBAL_OFFSET_TABLE_+0x48>
   10cbc:	52f72223          	sw	a5,1316(a4)
   10cc0:	00100793          	li	a5,1
   10cc4:	00fa2023          	sw	a5,0(s4)
   10cc8:	e9dff06f          	j	10b64 <_Z10OSMainTaskv+0x104>
   10ccc:	00010797          	auipc	a5,0x10
   10cd0:	0dc7a783          	lw	a5,220(a5) # 20da8 <_GLOBAL_OFFSET_TABLE_+0x94>
   10cd4:	00251513          	slli	a0,a0,0x2
   10cd8:	00a78533          	add	a0,a5,a0
   10cdc:	00052503          	lw	a0,0(a0)
   10ce0:	57c080ef          	jal	ra,1925c <iprintf>
   10ce4:	0000a517          	auipc	a0,0xa
   10ce8:	65050513          	addi	a0,a0,1616 # 1b334 <_conv_stat+0x188>
   10cec:	000aa023          	sw	zero,0(s5)
   10cf0:	f89ff06f          	j	10c78 <_Z10OSMainTaskv+0x218>
   10cf4:	000d2783          	lw	a5,0(s10)
   10cf8:	00070c93          	mv	s9,a4
   10cfc:	00178793          	addi	a5,a5,1
   10d00:	00fd2023          	sw	a5,0(s10)
   10d04:	0017f793          	andi	a5,a5,1
   10d08:	ea0790e3          	bnez	a5,10ba8 <_Z10OSMainTaskv+0x148>
   10d0c:	00c12583          	lw	a1,12(sp)
   10d10:	00812503          	lw	a0,8(sp)
   10d14:	554060ef          	jal	ra,17268 <_Z16GetConsoleCursorRiS_>
   10d18:	01c12583          	lw	a1,28(sp)
   10d1c:	01812503          	lw	a0,24(sp)
   10d20:	00100693          	li	a3,1
   10d24:	0000a617          	auipc	a2,0xa
   10d28:	64860613          	addi	a2,a2,1608 # 1b36c <_conv_stat+0x1c0>
   10d2c:	00359593          	slli	a1,a1,0x3
   10d30:	00351513          	slli	a0,a0,0x3
   10d34:	484020ef          	jal	ra,131b8 <_Z8PrintDMAiiPKcb>
   10d38:	000da783          	lw	a5,0(s11)
   10d3c:	e6078ae3          	beqz	a5,10bb0 <_Z10OSMainTaskv+0x150>
   10d40:	00010797          	auipc	a5,0x10
   10d44:	0647a783          	lw	a5,100(a5) # 20da4 <_GLOBAL_OFFSET_TABLE_+0x90>
   10d48:	0007a603          	lw	a2,0(a5)
   10d4c:	00100693          	li	a3,1
   10d50:	00000593          	li	a1,0
   10d54:	00000513          	li	a0,0
   10d58:	47d020ef          	jal	ra,139d4 <_Z15PrintDMADecimaliiib>
   10d5c:	00050993          	mv	s3,a0
   10d60:	00100693          	li	a3,1
   10d64:	00351513          	slli	a0,a0,0x3
   10d68:	0000a617          	auipc	a2,0xa
   10d6c:	60860613          	addi	a2,a2,1544 # 1b370 <_conv_stat+0x1c4>
   10d70:	00000593          	li	a1,0
   10d74:	00a12223          	sw	a0,4(sp)
   10d78:	440020ef          	jal	ra,131b8 <_Z8PrintDMAiiPKcb>
   10d7c:	00010797          	auipc	a5,0x10
   10d80:	0207a783          	lw	a5,32(a5) # 20d9c <_GLOBAL_OFFSET_TABLE_+0x88>
   10d84:	00412503          	lw	a0,4(sp)
   10d88:	0007a603          	lw	a2,0(a5)
   10d8c:	00100693          	li	a3,1
   10d90:	00000593          	li	a1,0
   10d94:	00850513          	addi	a0,a0,8
   10d98:	43d020ef          	jal	ra,139d4 <_Z15PrintDMADecimaliiib>
   10d9c:	00198993          	addi	s3,s3,1
   10da0:	00a989b3          	add	s3,s3,a0
   10da4:	00399993          	slli	s3,s3,0x3
   10da8:	00098513          	mv	a0,s3
   10dac:	00100693          	li	a3,1
   10db0:	0000a617          	auipc	a2,0xa
   10db4:	5c060613          	addi	a2,a2,1472 # 1b370 <_conv_stat+0x1c4>
   10db8:	00000593          	li	a1,0
   10dbc:	3fc020ef          	jal	ra,131b8 <_Z8PrintDMAiiPKcb>
   10dc0:	00010797          	auipc	a5,0x10
   10dc4:	fbc7a783          	lw	a5,-68(a5) # 20d7c <_GLOBAL_OFFSET_TABLE_+0x68>
   10dc8:	0007a603          	lw	a2,0(a5)
   10dcc:	00100693          	li	a3,1
   10dd0:	00000593          	li	a1,0
   10dd4:	00898513          	addi	a0,s3,8
   10dd8:	3fd020ef          	jal	ra,139d4 <_Z15PrintDMADecimaliiib>
   10ddc:	dd5ff06f          	j	10bb0 <_Z10OSMainTaskv+0x150>

00010de0 <_Z7ListDirPKc>:
   10de0:	f5010113          	addi	sp,sp,-176
   10de4:	0a812423          	sw	s0,168(sp)
   10de8:	02410413          	addi	s0,sp,36
   10dec:	00050593          	mv	a1,a0
   10df0:	00040513          	mv	a0,s0
   10df4:	0a112623          	sw	ra,172(sp)
   10df8:	0a912223          	sw	s1,164(sp)
   10dfc:	0b212023          	sw	s2,160(sp)
   10e00:	09312e23          	sw	s3,156(sp)
   10e04:	09412c23          	sw	s4,152(sp)
   10e08:	09512a23          	sw	s5,148(sp)
   10e0c:	09612823          	sw	s6,144(sp)
   10e10:	3bd050ef          	jal	ra,169cc <f_opendir>
   10e14:	1a051a63          	bnez	a0,10fc8 <_Z7ListDirPKc+0x1e8>
   10e18:	00c10493          	addi	s1,sp,12
   10e1c:	06800b13          	li	s6,104
   10e20:	07300a93          	li	s5,115
   10e24:	06c00a13          	li	s4,108
   10e28:	05010993          	addi	s3,sp,80
   10e2c:	01510913          	addi	s2,sp,21
   10e30:	00048593          	mv	a1,s1
   10e34:	00040513          	mv	a0,s0
   10e38:	509050ef          	jal	ra,16b40 <f_readdir>
   10e3c:	12051263          	bnez	a0,10f60 <_Z7ListDirPKc+0x180>
   10e40:	03c12783          	lw	a5,60(sp)
   10e44:	10078e63          	beqz	a5,10f60 <_Z7ListDirPKc+0x180>
   10e48:	01414703          	lbu	a4,20(sp)
   10e4c:	04012823          	sw	zero,80(sp)
   10e50:	04012a23          	sw	zero,84(sp)
   10e54:	04012c23          	sw	zero,88(sp)
   10e58:	04012e23          	sw	zero,92(sp)
   10e5c:	06012023          	sw	zero,96(sp)
   10e60:	06012223          	sw	zero,100(sp)
   10e64:	06012423          	sw	zero,104(sp)
   10e68:	06012623          	sw	zero,108(sp)
   10e6c:	06012823          	sw	zero,112(sp)
   10e70:	06012a23          	sw	zero,116(sp)
   10e74:	06012c23          	sw	zero,120(sp)
   10e78:	06012e23          	sw	zero,124(sp)
   10e7c:	08012023          	sw	zero,128(sp)
   10e80:	08012223          	sw	zero,132(sp)
   10e84:	08012423          	sw	zero,136(sp)
   10e88:	08012623          	sw	zero,140(sp)
   10e8c:	00177693          	andi	a3,a4,1
   10e90:	12068663          	beqz	a3,10fbc <_Z7ListDirPKc+0x1dc>
   10e94:	00200613          	li	a2,2
   10e98:	07200693          	li	a3,114
   10e9c:	00100793          	li	a5,1
   10ea0:	04d10823          	sb	a3,80(sp)
   10ea4:	00277693          	andi	a3,a4,2
   10ea8:	00068a63          	beqz	a3,10ebc <_Z7ListDirPKc+0xdc>
   10eac:	09010693          	addi	a3,sp,144
   10eb0:	00f687b3          	add	a5,a3,a5
   10eb4:	fd678023          	sb	s6,-64(a5)
   10eb8:	00060793          	mv	a5,a2
   10ebc:	00477693          	andi	a3,a4,4
   10ec0:	00068a63          	beqz	a3,10ed4 <_Z7ListDirPKc+0xf4>
   10ec4:	09010693          	addi	a3,sp,144
   10ec8:	00f686b3          	add	a3,a3,a5
   10ecc:	fd568023          	sb	s5,-64(a3)
   10ed0:	00178793          	addi	a5,a5,1
   10ed4:	00877693          	andi	a3,a4,8
   10ed8:	00068a63          	beqz	a3,10eec <_Z7ListDirPKc+0x10c>
   10edc:	09010693          	addi	a3,sp,144
   10ee0:	00f686b3          	add	a3,a3,a5
   10ee4:	fd468023          	sb	s4,-64(a3)
   10ee8:	00178793          	addi	a5,a5,1
   10eec:	00f77693          	andi	a3,a4,15
   10ef0:	00068c63          	beqz	a3,10f08 <_Z7ListDirPKc+0x128>
   10ef4:	09010693          	addi	a3,sp,144
   10ef8:	00f686b3          	add	a3,a3,a5
   10efc:	04c00613          	li	a2,76
   10f00:	fcc68023          	sb	a2,-64(a3)
   10f04:	00178793          	addi	a5,a5,1
   10f08:	01077693          	andi	a3,a4,16
   10f0c:	00068c63          	beqz	a3,10f24 <_Z7ListDirPKc+0x144>
   10f10:	09010693          	addi	a3,sp,144
   10f14:	00f686b3          	add	a3,a3,a5
   10f18:	06400613          	li	a2,100
   10f1c:	fcc68023          	sb	a2,-64(a3)
   10f20:	00178793          	addi	a5,a5,1
   10f24:	02077713          	andi	a4,a4,32
   10f28:	00c12603          	lw	a2,12(sp)
   10f2c:	06070263          	beqz	a4,10f90 <_Z7ListDirPKc+0x1b0>
   10f30:	09010713          	addi	a4,sp,144
   10f34:	00f707b3          	add	a5,a4,a5
   10f38:	06100713          	li	a4,97
   10f3c:	fce78023          	sb	a4,-64(a5)
   10f40:	fc0780a3          	sb	zero,-63(a5)
   10f44:	00098693          	mv	a3,s3
   10f48:	00090593          	mv	a1,s2
   10f4c:	0000a517          	auipc	a0,0xa
   10f50:	42850513          	addi	a0,a0,1064 # 1b374 <_conv_stat+0x1c8>
   10f54:	308080ef          	jal	ra,1925c <iprintf>
   10f58:	03c12783          	lw	a5,60(sp)
   10f5c:	ec079ae3          	bnez	a5,10e30 <_Z7ListDirPKc+0x50>
   10f60:	00040513          	mv	a0,s0
   10f64:	36d050ef          	jal	ra,16ad0 <f_closedir>
   10f68:	0ac12083          	lw	ra,172(sp)
   10f6c:	0a812403          	lw	s0,168(sp)
   10f70:	0a412483          	lw	s1,164(sp)
   10f74:	0a012903          	lw	s2,160(sp)
   10f78:	09c12983          	lw	s3,156(sp)
   10f7c:	09812a03          	lw	s4,152(sp)
   10f80:	09412a83          	lw	s5,148(sp)
   10f84:	09012b03          	lw	s6,144(sp)
   10f88:	0b010113          	addi	sp,sp,176
   10f8c:	00008067          	ret
   10f90:	09010713          	addi	a4,sp,144
   10f94:	00f707b3          	add	a5,a4,a5
   10f98:	fc078023          	sb	zero,-64(a5)
   10f9c:	00098693          	mv	a3,s3
   10fa0:	00090593          	mv	a1,s2
   10fa4:	0000a517          	auipc	a0,0xa
   10fa8:	3d050513          	addi	a0,a0,976 # 1b374 <_conv_stat+0x1c8>
   10fac:	2b0080ef          	jal	ra,1925c <iprintf>
   10fb0:	03c12783          	lw	a5,60(sp)
   10fb4:	e6079ee3          	bnez	a5,10e30 <_Z7ListDirPKc+0x50>
   10fb8:	fa9ff06f          	j	10f60 <_Z7ListDirPKc+0x180>
   10fbc:	00100613          	li	a2,1
   10fc0:	00000793          	li	a5,0
   10fc4:	eddff06f          	j	10ea0 <_Z7ListDirPKc+0xc0>
   10fc8:	00010797          	auipc	a5,0x10
   10fcc:	de07a783          	lw	a5,-544(a5) # 20da8 <_GLOBAL_OFFSET_TABLE_+0x94>
   10fd0:	00251513          	slli	a0,a0,0x2
   10fd4:	00a78533          	add	a0,a5,a0
   10fd8:	00052583          	lw	a1,0(a0)
   10fdc:	0000a517          	auipc	a0,0xa
   10fe0:	3a450513          	addi	a0,a0,932 # 1b380 <_conv_stat+0x1d4>
   10fe4:	278080ef          	jal	ra,1925c <iprintf>
   10fe8:	f81ff06f          	j	10f68 <_Z7ListDirPKc+0x188>

00010fec <_Z18HandleDemoCommandsc>:
   10fec:	fc010113          	addi	sp,sp,-64
   10ff0:	02812c23          	sw	s0,56(sp)
   10ff4:	02112e23          	sw	ra,60(sp)
   10ff8:	02912a23          	sw	s1,52(sp)
   10ffc:	00800793          	li	a5,8
   11000:	00050413          	mv	s0,a0
   11004:	0ef50a63          	beq	a0,a5,110f8 <_Z18HandleDemoCommandsc+0x10c>
   11008:	01b00793          	li	a5,27
   1100c:	0af50c63          	beq	a0,a5,110c4 <_Z18HandleDemoCommandsc+0xd8>
   11010:	00d00793          	li	a5,13
   11014:	12f50663          	beq	a0,a5,11140 <_Z18HandleDemoCommandsc+0x154>
   11018:	00010497          	auipc	s1,0x10
   1101c:	d484a483          	lw	s1,-696(s1) # 20d60 <_GLOBAL_OFFSET_TABLE_+0x4c>
   11020:	0004a783          	lw	a5,0(s1)
   11024:	04078c63          	beqz	a5,1107c <_Z18HandleDemoCommandsc+0x90>
   11028:	00178793          	addi	a5,a5,1
   1102c:	00f4a023          	sw	a5,0(s1)
   11030:	00400713          	li	a4,4
   11034:	04e79c63          	bne	a5,a4,1108c <_Z18HandleDemoCommandsc+0xa0>
   11038:	00c10593          	addi	a1,sp,12
   1103c:	00810513          	addi	a0,sp,8
   11040:	228060ef          	jal	ra,17268 <_Z16GetConsoleCursorRiS_>
   11044:	04100793          	li	a5,65
   11048:	34f40663          	beq	s0,a5,11394 <_Z18HandleDemoCommandsc+0x3a8>
   1104c:	04200793          	li	a5,66
   11050:	32f40663          	beq	s0,a5,1137c <_Z18HandleDemoCommandsc+0x390>
   11054:	04300793          	li	a5,67
   11058:	2af40263          	beq	s0,a5,112fc <_Z18HandleDemoCommandsc+0x310>
   1105c:	04400793          	li	a5,68
   11060:	00f41a63          	bne	s0,a5,11074 <_Z18HandleDemoCommandsc+0x88>
   11064:	00812503          	lw	a0,8(sp)
   11068:	00c12583          	lw	a1,12(sp)
   1106c:	fff50513          	addi	a0,a0,-1
   11070:	138060ef          	jal	ra,171a8 <_Z16SetConsoleCursorii>
   11074:	0004a023          	sw	zero,0(s1)
   11078:	0140006f          	j	1108c <_Z18HandleDemoCommandsc+0xa0>
   1107c:	00c10513          	addi	a0,sp,12
   11080:	00810623          	sb	s0,12(sp)
   11084:	000106a3          	sb	zero,13(sp)
   11088:	254060ef          	jal	ra,172dc <_Z11EchoConsolePKc>
   1108c:	00010797          	auipc	a5,0x10
   11090:	cf87a783          	lw	a5,-776(a5) # 20d84 <_GLOBAL_OFFSET_TABLE_+0x70>
   11094:	0007a683          	lw	a3,0(a5)
   11098:	00d00713          	li	a4,13
   1109c:	00868023          	sb	s0,0(a3)
   110a0:	00e41863          	bne	s0,a4,110b0 <_Z18HandleDemoCommandsc+0xc4>
   110a4:	0007a783          	lw	a5,0(a5)
   110a8:	00a00713          	li	a4,10
   110ac:	00e78023          	sb	a4,0(a5)
   110b0:	03c12083          	lw	ra,60(sp)
   110b4:	03812403          	lw	s0,56(sp)
   110b8:	03412483          	lw	s1,52(sp)
   110bc:	04010113          	addi	sp,sp,64
   110c0:	00008067          	ret
   110c4:	00010797          	auipc	a5,0x10
   110c8:	c9c7a783          	lw	a5,-868(a5) # 20d60 <_GLOBAL_OFFSET_TABLE_+0x4c>
   110cc:	00200713          	li	a4,2
   110d0:	00e7a023          	sw	a4,0(a5)
   110d4:	00010797          	auipc	a5,0x10
   110d8:	cb07a783          	lw	a5,-848(a5) # 20d84 <_GLOBAL_OFFSET_TABLE_+0x70>
   110dc:	0007a783          	lw	a5,0(a5)
   110e0:	00878023          	sb	s0,0(a5)
   110e4:	03c12083          	lw	ra,60(sp)
   110e8:	03812403          	lw	s0,56(sp)
   110ec:	03412483          	lw	s1,52(sp)
   110f0:	04010113          	addi	sp,sp,64
   110f4:	00008067          	ret
   110f8:	18c060ef          	jal	ra,17284 <_Z21ConsoleCursorStepBackv>
   110fc:	0000c517          	auipc	a0,0xc
   11100:	59450513          	addi	a0,a0,1428 # 1d690 <__sf_fake_stdout+0x24>
   11104:	1d8060ef          	jal	ra,172dc <_Z11EchoConsolePKc>
   11108:	00010497          	auipc	s1,0x10
   1110c:	c584a483          	lw	s1,-936(s1) # 20d60 <_GLOBAL_OFFSET_TABLE_+0x4c>
   11110:	174060ef          	jal	ra,17284 <_Z21ConsoleCursorStepBackv>
   11114:	0004a783          	lw	a5,0(s1)
   11118:	fa078ee3          	beqz	a5,110d4 <_Z18HandleDemoCommandsc+0xe8>
   1111c:	00178793          	addi	a5,a5,1
   11120:	00f4a023          	sw	a5,0(s1)
   11124:	00400713          	li	a4,4
   11128:	fae796e3          	bne	a5,a4,110d4 <_Z18HandleDemoCommandsc+0xe8>
   1112c:	00c10593          	addi	a1,sp,12
   11130:	00810513          	addi	a0,sp,8
   11134:	134060ef          	jal	ra,17268 <_Z16GetConsoleCursorRiS_>
   11138:	0004a023          	sw	zero,0(s1)
   1113c:	f51ff06f          	j	1108c <_Z18HandleDemoCommandsc+0xa0>
   11140:	00c10513          	addi	a0,sp,12
   11144:	0ed060ef          	jal	ra,17a30 <_Z18ConsoleStringAtRowPc>
   11148:	0000a517          	auipc	a0,0xa
   1114c:	3dc50513          	addi	a0,a0,988 # 1b524 <_conv_stat+0x378>
   11150:	18c060ef          	jal	ra,172dc <_Z11EchoConsolePKc>
   11154:	0000a517          	auipc	a0,0xa
   11158:	47c50513          	addi	a0,a0,1148 # 1b5d0 <_conv_stat+0x424>
   1115c:	3e0080ef          	jal	ra,1953c <puts>
   11160:	00c14783          	lbu	a5,12(sp)
   11164:	06300713          	li	a4,99
   11168:	1ae78663          	beq	a5,a4,11314 <_Z18HandleDemoCommandsc+0x328>
   1116c:	06800713          	li	a4,104
   11170:	08e79663          	bne	a5,a4,111fc <_Z18HandleDemoCommandsc+0x210>
   11174:	00d14703          	lbu	a4,13(sp)
   11178:	06500793          	li	a5,101
   1117c:	e8f71ee3          	bne	a4,a5,11018 <_Z18HandleDemoCommandsc+0x2c>
   11180:	00e14703          	lbu	a4,14(sp)
   11184:	06c00793          	li	a5,108
   11188:	e8f718e3          	bne	a4,a5,11018 <_Z18HandleDemoCommandsc+0x2c>
   1118c:	00f14703          	lbu	a4,15(sp)
   11190:	07000793          	li	a5,112
   11194:	e8f712e3          	bne	a4,a5,11018 <_Z18HandleDemoCommandsc+0x2c>
   11198:	0000a517          	auipc	a0,0xa
   1119c:	1ec50513          	addi	a0,a0,492 # 1b384 <_conv_stat+0x1d8>
   111a0:	13c060ef          	jal	ra,172dc <_Z11EchoConsolePKc>
   111a4:	0000a517          	auipc	a0,0xa
   111a8:	1f450513          	addi	a0,a0,500 # 1b398 <_conv_stat+0x1ec>
   111ac:	130060ef          	jal	ra,172dc <_Z11EchoConsolePKc>
   111b0:	0000a517          	auipc	a0,0xa
   111b4:	20c50513          	addi	a0,a0,524 # 1b3bc <_conv_stat+0x210>
   111b8:	124060ef          	jal	ra,172dc <_Z11EchoConsolePKc>
   111bc:	0000a517          	auipc	a0,0xa
   111c0:	22450513          	addi	a0,a0,548 # 1b3e0 <_conv_stat+0x234>
   111c4:	118060ef          	jal	ra,172dc <_Z11EchoConsolePKc>
   111c8:	0000a517          	auipc	a0,0xa
   111cc:	24050513          	addi	a0,a0,576 # 1b408 <_conv_stat+0x25c>
   111d0:	10c060ef          	jal	ra,172dc <_Z11EchoConsolePKc>
   111d4:	0000a517          	auipc	a0,0xa
   111d8:	24850513          	addi	a0,a0,584 # 1b41c <_conv_stat+0x270>
   111dc:	100060ef          	jal	ra,172dc <_Z11EchoConsolePKc>
   111e0:	0000a517          	auipc	a0,0xa
   111e4:	25050513          	addi	a0,a0,592 # 1b430 <_conv_stat+0x284>
   111e8:	0f4060ef          	jal	ra,172dc <_Z11EchoConsolePKc>
   111ec:	0000a517          	auipc	a0,0xa
   111f0:	25850513          	addi	a0,a0,600 # 1b444 <_conv_stat+0x298>
   111f4:	0e8060ef          	jal	ra,172dc <_Z11EchoConsolePKc>
   111f8:	e21ff06f          	j	11018 <_Z18HandleDemoCommandsc+0x2c>
   111fc:	06400713          	li	a4,100
   11200:	04e79863          	bne	a5,a4,11250 <_Z18HandleDemoCommandsc+0x264>
   11204:	00d14783          	lbu	a5,13(sp)
   11208:	06900713          	li	a4,105
   1120c:	1ae78063          	beq	a5,a4,113ac <_Z18HandleDemoCommandsc+0x3c0>
   11210:	07500713          	li	a4,117
   11214:	e0e792e3          	bne	a5,a4,11018 <_Z18HandleDemoCommandsc+0x2c>
   11218:	00e14703          	lbu	a4,14(sp)
   1121c:	06d00793          	li	a5,109
   11220:	def71ce3          	bne	a4,a5,11018 <_Z18HandleDemoCommandsc+0x2c>
   11224:	00f14703          	lbu	a4,15(sp)
   11228:	07000793          	li	a5,112
   1122c:	def716e3          	bne	a4,a5,11018 <_Z18HandleDemoCommandsc+0x2c>
   11230:	a5c18493          	addi	s1,gp,-1444 # 21018 <_ZZ18HandleDemoCommandscE7doffset>
   11234:	0004a583          	lw	a1,0(s1)
   11238:	0a000537          	lui	a0,0xa000
   1123c:	e1cff0ef          	jal	ra,10858 <_Z4Dumpmm>
   11240:	0004a783          	lw	a5,0(s1)
   11244:	01078793          	addi	a5,a5,16
   11248:	00f4a023          	sw	a5,0(s1)
   1124c:	dcdff06f          	j	11018 <_Z18HandleDemoCommandsc+0x2c>
   11250:	07200713          	li	a4,114
   11254:	04e78263          	beq	a5,a4,11298 <_Z18HandleDemoCommandsc+0x2ac>
   11258:	06c00713          	li	a4,108
   1125c:	0ce79c63          	bne	a5,a4,11334 <_Z18HandleDemoCommandsc+0x348>
   11260:	00d14703          	lbu	a4,13(sp)
   11264:	06f00793          	li	a5,111
   11268:	daf718e3          	bne	a4,a5,11018 <_Z18HandleDemoCommandsc+0x2c>
   1126c:	00e14703          	lbu	a4,14(sp)
   11270:	06100793          	li	a5,97
   11274:	daf712e3          	bne	a4,a5,11018 <_Z18HandleDemoCommandsc+0x2c>
   11278:	00f14703          	lbu	a4,15(sp)
   1127c:	06400793          	li	a5,100
   11280:	d8f71ce3          	bne	a4,a5,11018 <_Z18HandleDemoCommandsc+0x2c>
   11284:	0a0005b7          	lui	a1,0xa000
   11288:	01110513          	addi	a0,sp,17
   1128c:	a401ae23          	sw	zero,-1444(gp) # 21018 <_ZZ18HandleDemoCommandscE7doffset>
   11290:	bf4ff0ef          	jal	ra,10684 <_Z8LoadFilePcm>
   11294:	d85ff06f          	j	11018 <_Z18HandleDemoCommandsc+0x2c>
   11298:	00d14703          	lbu	a4,13(sp)
   1129c:	07500793          	li	a5,117
   112a0:	d6f71ce3          	bne	a4,a5,11018 <_Z18HandleDemoCommandsc+0x2c>
   112a4:	00e14703          	lbu	a4,14(sp)
   112a8:	06e00793          	li	a5,110
   112ac:	d6f716e3          	bne	a4,a5,11018 <_Z18HandleDemoCommandsc+0x2c>
   112b0:	01010513          	addi	a0,sp,16
   112b4:	f24ff0ef          	jal	ra,109d8 <_Z7LoadELFPKc>
   112b8:	fff00793          	li	a5,-1
   112bc:	d4f50ee3          	beq	a0,a5,11018 <_Z18HandleDemoCommandsc+0x2c>
   112c0:	00010797          	auipc	a5,0x10
   112c4:	ad07a783          	lw	a5,-1328(a5) # 20d90 <_GLOBAL_OFFSET_TABLE_+0x7c>
   112c8:	0007a703          	lw	a4,0(a5)
   112cc:	00010797          	auipc	a5,0x10
   112d0:	a907a783          	lw	a5,-1392(a5) # 20d5c <_GLOBAL_OFFSET_TABLE_+0x48>
   112d4:	52e7a223          	sw	a4,1316(a5)
   112d8:	00010797          	auipc	a5,0x10
   112dc:	a707a783          	lw	a5,-1424(a5) # 20d48 <_GLOBAL_OFFSET_TABLE_+0x34>
   112e0:	00400713          	li	a4,4
   112e4:	00e7a023          	sw	a4,0(a5)
   112e8:	00010797          	auipc	a5,0x10
   112ec:	acc7a783          	lw	a5,-1332(a5) # 20db4 <_GLOBAL_OFFSET_TABLE_+0xa0>
   112f0:	00100713          	li	a4,1
   112f4:	00e7a023          	sw	a4,0(a5)
   112f8:	d21ff06f          	j	11018 <_Z18HandleDemoCommandsc+0x2c>
   112fc:	00812503          	lw	a0,8(sp)
   11300:	00c12583          	lw	a1,12(sp)
   11304:	00150513          	addi	a0,a0,1 # a000001 <__BSS_END__+0x9fda339>
   11308:	6a1050ef          	jal	ra,171a8 <_Z16SetConsoleCursorii>
   1130c:	0004a023          	sw	zero,0(s1)
   11310:	d7dff06f          	j	1108c <_Z18HandleDemoCommandsc+0xa0>
   11314:	00d14703          	lbu	a4,13(sp)
   11318:	06c00793          	li	a5,108
   1131c:	cef71ee3          	bne	a4,a5,11018 <_Z18HandleDemoCommandsc+0x2c>
   11320:	00e14703          	lbu	a4,14(sp)
   11324:	07300793          	li	a5,115
   11328:	cef718e3          	bne	a4,a5,11018 <_Z18HandleDemoCommandsc+0x2c>
   1132c:	635050ef          	jal	ra,17160 <_Z12ClearConsolev>
   11330:	ce9ff06f          	j	11018 <_Z18HandleDemoCommandsc+0x2c>
   11334:	07400713          	li	a4,116
   11338:	cee790e3          	bne	a5,a4,11018 <_Z18HandleDemoCommandsc+0x2c>
   1133c:	00d14703          	lbu	a4,13(sp)
   11340:	06900793          	li	a5,105
   11344:	ccf71ae3          	bne	a4,a5,11018 <_Z18HandleDemoCommandsc+0x2c>
   11348:	00e14703          	lbu	a4,14(sp)
   1134c:	06d00793          	li	a5,109
   11350:	ccf714e3          	bne	a4,a5,11018 <_Z18HandleDemoCommandsc+0x2c>
   11354:	00f14703          	lbu	a4,15(sp)
   11358:	06500793          	li	a5,101
   1135c:	caf71ee3          	bne	a4,a5,11018 <_Z18HandleDemoCommandsc+0x2c>
   11360:	00010717          	auipc	a4,0x10
   11364:	9f872703          	lw	a4,-1544(a4) # 20d58 <_GLOBAL_OFFSET_TABLE_+0x44>
   11368:	00072783          	lw	a5,0(a4)
   1136c:	00178793          	addi	a5,a5,1
   11370:	0017f793          	andi	a5,a5,1
   11374:	00f72023          	sw	a5,0(a4)
   11378:	ca1ff06f          	j	11018 <_Z18HandleDemoCommandsc+0x2c>
   1137c:	00c12583          	lw	a1,12(sp)
   11380:	00812503          	lw	a0,8(sp)
   11384:	00158593          	addi	a1,a1,1 # a000001 <__BSS_END__+0x9fda339>
   11388:	621050ef          	jal	ra,171a8 <_Z16SetConsoleCursorii>
   1138c:	0004a023          	sw	zero,0(s1)
   11390:	cfdff06f          	j	1108c <_Z18HandleDemoCommandsc+0xa0>
   11394:	00c12583          	lw	a1,12(sp)
   11398:	00812503          	lw	a0,8(sp)
   1139c:	fff58593          	addi	a1,a1,-1
   113a0:	609050ef          	jal	ra,171a8 <_Z16SetConsoleCursorii>
   113a4:	0004a023          	sw	zero,0(s1)
   113a8:	ce5ff06f          	j	1108c <_Z18HandleDemoCommandsc+0xa0>
   113ac:	00e14783          	lbu	a5,14(sp)
   113b0:	07200713          	li	a4,114
   113b4:	02e78063          	beq	a5,a4,113d4 <_Z18HandleDemoCommandsc+0x3e8>
   113b8:	06500713          	li	a4,101
   113bc:	c4e79ee3          	bne	a5,a4,11018 <_Z18HandleDemoCommandsc+0x2c>
   113c0:	00010797          	auipc	a5,0x10
   113c4:	9f87a783          	lw	a5,-1544(a5) # 20db8 <_GLOBAL_OFFSET_TABLE_+0xa4>
   113c8:	00100713          	li	a4,1
   113cc:	00e7a023          	sw	a4,0(a5)
   113d0:	c49ff06f          	j	11018 <_Z18HandleDemoCommandsc+0x2c>
   113d4:	01010513          	addi	a0,sp,16
   113d8:	a09ff0ef          	jal	ra,10de0 <_Z7ListDirPKc>
   113dc:	c3dff06f          	j	11018 <_Z18HandleDemoCommandsc+0x2c>

000113e0 <_Z21ProcessUARTInputAsyncv>:
   113e0:	ff010113          	addi	sp,sp,-16
   113e4:	00812423          	sw	s0,8(sp)
   113e8:	00010417          	auipc	s0,0x10
   113ec:	9a442403          	lw	s0,-1628(s0) # 20d8c <_GLOBAL_OFFSET_TABLE_+0x78>
   113f0:	00042783          	lw	a5,0(s0)
   113f4:	00112623          	sw	ra,12(sp)
   113f8:	00912223          	sw	s1,4(sp)
   113fc:	0007a783          	lw	a5,0(a5)
   11400:	02078463          	beqz	a5,11428 <_Z21ProcessUARTInputAsyncv+0x48>
   11404:	00010497          	auipc	s1,0x10
   11408:	9244a483          	lw	s1,-1756(s1) # 20d28 <_GLOBAL_OFFSET_TABLE_+0x14>
   1140c:	0004a783          	lw	a5,0(s1)
   11410:	0007c503          	lbu	a0,0(a5)
   11414:	0ff57513          	andi	a0,a0,255
   11418:	bd5ff0ef          	jal	ra,10fec <_Z18HandleDemoCommandsc>
   1141c:	00042783          	lw	a5,0(s0)
   11420:	0007a783          	lw	a5,0(a5)
   11424:	fe0794e3          	bnez	a5,1140c <_Z21ProcessUARTInputAsyncv+0x2c>
   11428:	00c12083          	lw	ra,12(sp)
   1142c:	00812403          	lw	s0,8(sp)
   11430:	00412483          	lw	s1,4(sp)
   11434:	01010113          	addi	sp,sp,16
   11438:	00008067          	ret

0001143c <_Z10SetupTasksv>:
   1143c:	00010797          	auipc	a5,0x10
   11440:	9207a783          	lw	a5,-1760(a5) # 20d5c <_GLOBAL_OFFSET_TABLE_+0x48>
   11444:	0000a717          	auipc	a4,0xa
   11448:	02070713          	addi	a4,a4,32 # 1b464 <_conv_stat+0x2b8>
   1144c:	00e7a023          	sw	a4,0(a5)
   11450:	00010717          	auipc	a4,0x10
   11454:	92872703          	lw	a4,-1752(a4) # 20d78 <_GLOBAL_OFFSET_TABLE_+0x64>
   11458:	10e7a223          	sw	a4,260(a5)
   1145c:	0027a623          	sw	sp,12(a5)
   11460:	0287a223          	sw	s0,36(a5)
   11464:	0003f637          	lui	a2,0x3f
   11468:	0003e6b7          	lui	a3,0x3e
   1146c:	01068693          	addi	a3,a3,16 # 3e010 <__BSS_END__+0x18348>
   11470:	16c7a623          	sw	a2,364(a5)
   11474:	18c7a223          	sw	a2,388(a5)
   11478:	0003c737          	lui	a4,0x3c
   1147c:	00001637          	lui	a2,0x1
   11480:	03070713          	addi	a4,a4,48 # 3c030 <__BSS_END__+0x16368>
   11484:	0fa00593          	li	a1,250
   11488:	38860613          	addi	a2,a2,904 # 1388 <exit-0xecec>
   1148c:	2cd7a623          	sw	a3,716(a5)
   11490:	2ed7a223          	sw	a3,740(a5)
   11494:	3e800693          	li	a3,1000
   11498:	10b7a423          	sw	a1,264(a5)
   1149c:	26c7a423          	sw	a2,616(a5)
   114a0:	0000a597          	auipc	a1,0xa
   114a4:	fcc58593          	addi	a1,a1,-52 # 1b46c <_conv_stat+0x2c0>
   114a8:	0000a617          	auipc	a2,0xa
   114ac:	fcc60613          	addi	a2,a2,-52 # 1b474 <_conv_stat+0x2c8>
   114b0:	3cd7a423          	sw	a3,968(a5)
   114b4:	42e7a623          	sw	a4,1068(a5)
   114b8:	0000a697          	auipc	a3,0xa
   114bc:	fc868693          	addi	a3,a3,-56 # 1b480 <_conv_stat+0x2d4>
   114c0:	44e7a223          	sw	a4,1092(a5)
   114c4:	00018737          	lui	a4,0x18
   114c8:	16b7a023          	sw	a1,352(a5)
   114cc:	2cc7a023          	sw	a2,704(a5)
   114d0:	42d7a023          	sw	a3,1056(a5)
   114d4:	6a070713          	addi	a4,a4,1696 # 186a0 <_fopen_r+0xb8>
   114d8:	00010597          	auipc	a1,0x10
   114dc:	86c5a583          	lw	a1,-1940(a1) # 20d44 <_GLOBAL_OFFSET_TABLE_+0x30>
   114e0:	00010617          	auipc	a2,0x10
   114e4:	89462603          	lw	a2,-1900(a2) # 20d74 <_GLOBAL_OFFSET_TABLE_+0x60>
   114e8:	000106b7          	lui	a3,0x10
   114ec:	52e7a423          	sw	a4,1320(a5)
   114f0:	26b7a223          	sw	a1,612(a5)
   114f4:	3cc7a223          	sw	a2,964(a5)
   114f8:	52d7a223          	sw	a3,1316(a5)
   114fc:	00300713          	li	a4,3
   11500:	00010797          	auipc	a5,0x10
   11504:	8487a783          	lw	a5,-1976(a5) # 20d48 <_GLOBAL_OFFSET_TABLE_+0x34>
   11508:	00e7a023          	sw	a4,0(a5)
   1150c:	00008067          	ret

00011510 <_Z15timer_interruptv>:
   11510:	00010597          	auipc	a1,0x10
   11514:	8605a583          	lw	a1,-1952(a1) # 20d70 <_GLOBAL_OFFSET_TABLE_+0x5c>
   11518:	0005a683          	lw	a3,0(a1)
   1151c:	16000613          	li	a2,352
   11520:	00010797          	auipc	a5,0x10
   11524:	83c7a783          	lw	a5,-1988(a5) # 20d5c <_GLOBAL_OFFSET_TABLE_+0x48>
   11528:	02c68733          	mul	a4,a3,a2
   1152c:	00e78733          	add	a4,a5,a4
   11530:	09012203          	lw	tp,144(sp)
   11534:	00472423          	sw	tp,8(a4)
   11538:	08c12203          	lw	tp,140(sp)
   1153c:	00472623          	sw	tp,12(a4)
   11540:	08812203          	lw	tp,136(sp)
   11544:	00472c23          	sw	tp,24(a4)
   11548:	08412203          	lw	tp,132(sp)
   1154c:	00472e23          	sw	tp,28(a4)
   11550:	08012203          	lw	tp,128(sp)
   11554:	02472023          	sw	tp,32(a4)
   11558:	07c12203          	lw	tp,124(sp)
   1155c:	02472623          	sw	tp,44(a4)
   11560:	07812203          	lw	tp,120(sp)
   11564:	02472823          	sw	tp,48(a4)
   11568:	07412203          	lw	tp,116(sp)
   1156c:	02472a23          	sw	tp,52(a4)
   11570:	07012203          	lw	tp,112(sp)
   11574:	02472c23          	sw	tp,56(a4)
   11578:	06c12203          	lw	tp,108(sp)
   1157c:	02472e23          	sw	tp,60(a4)
   11580:	06812203          	lw	tp,104(sp)
   11584:	04472023          	sw	tp,64(a4)
   11588:	06412203          	lw	tp,100(sp)
   1158c:	04472223          	sw	tp,68(a4)
   11590:	06012203          	lw	tp,96(sp)
   11594:	04472423          	sw	tp,72(a4)
   11598:	05c12203          	lw	tp,92(sp)
   1159c:	06472a23          	sw	tp,116(a4)
   115a0:	05812203          	lw	tp,88(sp)
   115a4:	06472c23          	sw	tp,120(a4)
   115a8:	05412203          	lw	tp,84(sp)
   115ac:	06472e23          	sw	tp,124(a4)
   115b0:	05012203          	lw	tp,80(sp)
   115b4:	08472023          	sw	tp,128(a4)
   115b8:	04812203          	lw	tp,72(sp)
   115bc:	02472223          	sw	tp,36(a4)
   115c0:	04412203          	lw	tp,68(sp)
   115c4:	02472423          	sw	tp,40(a4)
   115c8:	04012203          	lw	tp,64(sp)
   115cc:	04472623          	sw	tp,76(a4)
   115d0:	03c12203          	lw	tp,60(sp)
   115d4:	04472823          	sw	tp,80(a4)
   115d8:	03812203          	lw	tp,56(sp)
   115dc:	04472a23          	sw	tp,84(a4)
   115e0:	03412203          	lw	tp,52(sp)
   115e4:	04472c23          	sw	tp,88(a4)
   115e8:	03012203          	lw	tp,48(sp)
   115ec:	04472e23          	sw	tp,92(a4)
   115f0:	02c12203          	lw	tp,44(sp)
   115f4:	06472023          	sw	tp,96(a4)
   115f8:	02812203          	lw	tp,40(sp)
   115fc:	06472223          	sw	tp,100(a4)
   11600:	02412203          	lw	tp,36(sp)
   11604:	06472423          	sw	tp,104(a4)
   11608:	02012203          	lw	tp,32(sp)
   1160c:	06472623          	sw	tp,108(a4)
   11610:	01c12203          	lw	tp,28(sp)
   11614:	06472823          	sw	tp,112(a4)
   11618:	34102273          	csrr	tp,mepc
   1161c:	10472223          	sw	tp,260(a4)
   11620:	15072503          	lw	a0,336(a4)
   11624:	00100813          	li	a6,1
   11628:	03051c63          	bne	a0,a6,11660 <_Z15timer_interruptv+0x150>
   1162c:	10472683          	lw	a3,260(a4)
   11630:	00200513          	li	a0,2
   11634:	14a72823          	sw	a0,336(a4)
   11638:	14d72a23          	sw	a3,340(a4)
   1163c:	0006a503          	lw	a0,0(a3) # 10000 <exit-0x74>
   11640:	14a72c23          	sw	a0,344(a4)
   11644:	00100737          	lui	a4,0x100
   11648:	07370713          	addi	a4,a4,115 # 100073 <__BSS_END__+0xda3ab>
   1164c:	00e6a023          	sw	a4,0(a3)
   11650:	0005a683          	lw	a3,0(a1)
   11654:	02c68633          	mul	a2,a3,a2
   11658:	00c78633          	add	a2,a5,a2
   1165c:	15062503          	lw	a0,336(a2)
   11660:	00800713          	li	a4,8
   11664:	02e51463          	bne	a0,a4,1168c <_Z15timer_interruptv+0x17c>
   11668:	16000713          	li	a4,352
   1166c:	02e686b3          	mul	a3,a3,a4
   11670:	00d786b3          	add	a3,a5,a3
   11674:	1586a603          	lw	a2,344(a3)
   11678:	1546a703          	lw	a4,340(a3)
   1167c:	1406ae23          	sw	zero,348(a3)
   11680:	1406a823          	sw	zero,336(a3)
   11684:	00c72023          	sw	a2,0(a4)
   11688:	0005a683          	lw	a3,0(a1)
   1168c:	0000f717          	auipc	a4,0xf
   11690:	6bc72703          	lw	a4,1724(a4) # 20d48 <_GLOBAL_OFFSET_TABLE_+0x34>
   11694:	00072703          	lw	a4,0(a4)
   11698:	00168693          	addi	a3,a3,1
   1169c:	02e6f6b3          	remu	a3,a3,a4
   116a0:	16000713          	li	a4,352
   116a4:	02e68733          	mul	a4,a3,a4
   116a8:	00d5a023          	sw	a3,0(a1)
   116ac:	00e787b3          	add	a5,a5,a4
   116b0:	0087a203          	lw	tp,8(a5)
   116b4:	08412823          	sw	tp,144(sp)
   116b8:	00c7a203          	lw	tp,12(a5)
   116bc:	08412623          	sw	tp,140(sp)
   116c0:	0187a203          	lw	tp,24(a5)
   116c4:	08412423          	sw	tp,136(sp)
   116c8:	01c7a203          	lw	tp,28(a5)
   116cc:	08412223          	sw	tp,132(sp)
   116d0:	0207a203          	lw	tp,32(a5)
   116d4:	08412023          	sw	tp,128(sp)
   116d8:	02c7a203          	lw	tp,44(a5)
   116dc:	06412e23          	sw	tp,124(sp)
   116e0:	0307a203          	lw	tp,48(a5)
   116e4:	06412c23          	sw	tp,120(sp)
   116e8:	0347a203          	lw	tp,52(a5)
   116ec:	06412a23          	sw	tp,116(sp)
   116f0:	0387a203          	lw	tp,56(a5)
   116f4:	06412823          	sw	tp,112(sp)
   116f8:	03c7a203          	lw	tp,60(a5)
   116fc:	06412623          	sw	tp,108(sp)
   11700:	0407a203          	lw	tp,64(a5)
   11704:	06412423          	sw	tp,104(sp)
   11708:	0447a203          	lw	tp,68(a5)
   1170c:	06412223          	sw	tp,100(sp)
   11710:	0487a203          	lw	tp,72(a5)
   11714:	06412023          	sw	tp,96(sp)
   11718:	0747a203          	lw	tp,116(a5)
   1171c:	04412e23          	sw	tp,92(sp)
   11720:	0787a203          	lw	tp,120(a5)
   11724:	04412c23          	sw	tp,88(sp)
   11728:	07c7a203          	lw	tp,124(a5)
   1172c:	04412a23          	sw	tp,84(sp)
   11730:	0807a203          	lw	tp,128(a5)
   11734:	04412823          	sw	tp,80(sp)
   11738:	0247a203          	lw	tp,36(a5)
   1173c:	04412423          	sw	tp,72(sp)
   11740:	0287a203          	lw	tp,40(a5)
   11744:	04412223          	sw	tp,68(sp)
   11748:	04c7a203          	lw	tp,76(a5)
   1174c:	04412023          	sw	tp,64(sp)
   11750:	0507a203          	lw	tp,80(a5)
   11754:	02412e23          	sw	tp,60(sp)
   11758:	0547a203          	lw	tp,84(a5)
   1175c:	02412c23          	sw	tp,56(sp)
   11760:	0587a203          	lw	tp,88(a5)
   11764:	02412a23          	sw	tp,52(sp)
   11768:	05c7a203          	lw	tp,92(a5)
   1176c:	02412823          	sw	tp,48(sp)
   11770:	0607a203          	lw	tp,96(a5)
   11774:	02412623          	sw	tp,44(sp)
   11778:	0647a203          	lw	tp,100(a5)
   1177c:	02412423          	sw	tp,40(sp)
   11780:	0687a203          	lw	tp,104(a5)
   11784:	02412223          	sw	tp,36(sp)
   11788:	06c7a203          	lw	tp,108(a5)
   1178c:	02412023          	sw	tp,32(sp)
   11790:	0707a203          	lw	tp,112(a5)
   11794:	00412e23          	sw	tp,28(sp)
   11798:	1047a203          	lw	tp,260(a5)
   1179c:	34121073          	csrw	mepc,tp
   117a0:	c81025f3          	rdtimeh	a1
   117a4:	c0102773          	rdtime	a4
   117a8:	c81026f3          	rdtimeh	a3
   117ac:	fed59ae3          	bne	a1,a3,117a0 <_Z15timer_interruptv+0x290>
   117b0:	1087a783          	lw	a5,264(a5)
   117b4:	00000693          	li	a3,0
   117b8:	00f707b3          	add	a5,a4,a5
   117bc:	00e7b733          	sltu	a4,a5,a4
   117c0:	00b70633          	add	a2,a4,a1
   117c4:	80161073          	csrw	0x801,a2
   117c8:	80079073          	csrw	0x800,a5
   117cc:	00008067          	ret

000117d0 <_Z28illegalinstruction_exceptionv>:
   117d0:	ff010113          	addi	sp,sp,-16
   117d4:	00112623          	sw	ra,12(sp)
   117d8:	343025f3          	csrr	a1,mtval
   117dc:	0005a603          	lw	a2,0(a1)
   117e0:	0000a517          	auipc	a0,0xa
   117e4:	cac50513          	addi	a0,a0,-852 # 1b48c <_conv_stat+0x2e0>
   117e8:	275070ef          	jal	ra,1925c <iprintf>
   117ec:	0000006f          	j	117ec <_Z28illegalinstruction_exceptionv+0x1c>

000117f0 <_Z20breakpoint_interruptv>:
   117f0:	0000f517          	auipc	a0,0xf
   117f4:	56c52503          	lw	a0,1388(a0) # 20d5c <_GLOBAL_OFFSET_TABLE_+0x48>
   117f8:	6110006f          	j	12608 <_Z14gdb_breakpointP11cpu_context>

000117fc <_Z18external_interruptm>:
   117fc:	ff010113          	addi	sp,sp,-16
   11800:	00812423          	sw	s0,8(sp)
   11804:	00112623          	sw	ra,12(sp)
   11808:	00912223          	sw	s1,4(sp)
   1180c:	00157793          	andi	a5,a0,1
   11810:	00050413          	mv	s0,a0
   11814:	02078863          	beqz	a5,11844 <_Z18external_interruptm+0x48>
   11818:	0000f797          	auipc	a5,0xf
   1181c:	5347a783          	lw	a5,1332(a5) # 20d4c <_GLOBAL_OFFSET_TABLE_+0x38>
   11820:	0007c783          	lbu	a5,0(a5)
   11824:	0017f793          	andi	a5,a5,1
   11828:	0a078e63          	beqz	a5,118e4 <_Z18external_interruptm+0xe8>
   1182c:	0000f797          	auipc	a5,0xf
   11830:	51c7a783          	lw	a5,1308(a5) # 20d48 <_GLOBAL_OFFSET_TABLE_+0x34>
   11834:	0007a583          	lw	a1,0(a5)
   11838:	0000f517          	auipc	a0,0xf
   1183c:	52452503          	lw	a0,1316(a0) # 20d5c <_GLOBAL_OFFSET_TABLE_+0x48>
   11840:	61d000ef          	jal	ra,1265c <_Z11gdb_handlerP11cpu_contextm>
   11844:	00247413          	andi	s0,s0,2
   11848:	08040463          	beqz	s0,118d0 <_Z18external_interruptm+0xd4>
   1184c:	0000f797          	auipc	a5,0xf
   11850:	4cc7a783          	lw	a5,1228(a5) # 20d18 <_GLOBAL_OFFSET_TABLE_+0x4>
   11854:	0007a783          	lw	a5,0(a5)
   11858:	0000f417          	auipc	s0,0xf
   1185c:	50c42403          	lw	s0,1292(s0) # 20d64 <_GLOBAL_OFFSET_TABLE_+0x50>
   11860:	00044683          	lbu	a3,0(s0)
   11864:	0007c783          	lbu	a5,0(a5)
   11868:	0000f497          	auipc	s1,0xf
   1186c:	4e44a483          	lw	s1,1252(s1) # 20d4c <_GLOBAL_OFFSET_TABLE_+0x38>
   11870:	02000613          	li	a2,32
   11874:	0ff7f793          	andi	a5,a5,255
   11878:	00f48023          	sb	a5,0(s1)
   1187c:	00d7c733          	xor	a4,a5,a3
   11880:	02e66263          	bltu	a2,a4,118a4 <_Z18external_interruptm+0xa8>
   11884:	04d78463          	beq	a5,a3,118cc <_Z18external_interruptm+0xd0>
   11888:	0000a697          	auipc	a3,0xa
   1188c:	cc068693          	addi	a3,a3,-832 # 1b548 <_conv_stat+0x39c>
   11890:	00271713          	slli	a4,a4,0x2
   11894:	00d70733          	add	a4,a4,a3
   11898:	00072703          	lw	a4,0(a4)
   1189c:	00d70733          	add	a4,a4,a3
   118a0:	00070067          	jr	a4
   118a4:	04000693          	li	a3,64
   118a8:	02d71263          	bne	a4,a3,118cc <_Z18external_interruptm+0xd0>
   118ac:	0407f793          	andi	a5,a5,64
   118b0:	0000a517          	auipc	a0,0xa
   118b4:	c8450513          	addi	a0,a0,-892 # 1b534 <_conv_stat+0x388>
   118b8:	00078663          	beqz	a5,118c4 <_Z18external_interruptm+0xc8>
   118bc:	0000a517          	auipc	a0,0xa
   118c0:	c8050513          	addi	a0,a0,-896 # 1b53c <_conv_stat+0x390>
   118c4:	199070ef          	jal	ra,1925c <iprintf>
   118c8:	0004c783          	lbu	a5,0(s1)
   118cc:	00f40023          	sb	a5,0(s0)
   118d0:	00c12083          	lw	ra,12(sp)
   118d4:	00812403          	lw	s0,8(sp)
   118d8:	00412483          	lw	s1,4(sp)
   118dc:	01010113          	addi	sp,sp,16
   118e0:	00008067          	ret
   118e4:	afdff0ef          	jal	ra,113e0 <_Z21ProcessUARTInputAsyncv>
   118e8:	f5dff06f          	j	11844 <_Z18external_interruptm+0x48>
   118ec:	0047f793          	andi	a5,a5,4
   118f0:	0000a517          	auipc	a0,0xa
   118f4:	bf050513          	addi	a0,a0,-1040 # 1b4e0 <_conv_stat+0x334>
   118f8:	fc0786e3          	beqz	a5,118c4 <_Z18external_interruptm+0xc8>
   118fc:	0000a517          	auipc	a0,0xa
   11900:	bec50513          	addi	a0,a0,-1044 # 1b4e8 <_conv_stat+0x33c>
   11904:	fc1ff06f          	j	118c4 <_Z18external_interruptm+0xc8>
   11908:	0087f793          	andi	a5,a5,8
   1190c:	0000a517          	auipc	a0,0xa
   11910:	be850513          	addi	a0,a0,-1048 # 1b4f4 <_conv_stat+0x348>
   11914:	fa0788e3          	beqz	a5,118c4 <_Z18external_interruptm+0xc8>
   11918:	0000a517          	auipc	a0,0xa
   1191c:	be450513          	addi	a0,a0,-1052 # 1b4fc <_conv_stat+0x350>
   11920:	fa5ff06f          	j	118c4 <_Z18external_interruptm+0xc8>
   11924:	0107f793          	andi	a5,a5,16
   11928:	0000a517          	auipc	a0,0xa
   1192c:	be050513          	addi	a0,a0,-1056 # 1b508 <_conv_stat+0x35c>
   11930:	00078663          	beqz	a5,1193c <_Z18external_interruptm+0x140>
   11934:	0000a517          	auipc	a0,0xa
   11938:	be450513          	addi	a0,a0,-1052 # 1b518 <_conv_stat+0x36c>
   1193c:	121070ef          	jal	ra,1925c <iprintf>
   11940:	0004c783          	lbu	a5,0(s1)
   11944:	0107f713          	andi	a4,a5,16
   11948:	f80712e3          	bnez	a4,118cc <_Z18external_interruptm+0xd0>
   1194c:	0000f617          	auipc	a2,0xf
   11950:	46862603          	lw	a2,1128(a2) # 20db4 <_GLOBAL_OFFSET_TABLE_+0xa0>
   11954:	00062703          	lw	a4,0(a2)
   11958:	0000f597          	auipc	a1,0xf
   1195c:	3f05a583          	lw	a1,1008(a1) # 20d48 <_GLOBAL_OFFSET_TABLE_+0x34>
   11960:	00173693          	seqz	a3,a4
   11964:	00368693          	addi	a3,a3,3
   11968:	00173713          	seqz	a4,a4
   1196c:	00d5a023          	sw	a3,0(a1)
   11970:	00e62023          	sw	a4,0(a2)
   11974:	f59ff06f          	j	118cc <_Z18external_interruptm+0xd0>
   11978:	0207f793          	andi	a5,a5,32
   1197c:	0000a517          	auipc	a0,0xa
   11980:	ba450513          	addi	a0,a0,-1116 # 1b520 <_conv_stat+0x374>
   11984:	f40780e3          	beqz	a5,118c4 <_Z18external_interruptm+0xc8>
   11988:	0000a517          	auipc	a0,0xa
   1198c:	ba050513          	addi	a0,a0,-1120 # 1b528 <_conv_stat+0x37c>
   11990:	f35ff06f          	j	118c4 <_Z18external_interruptm+0xc8>
   11994:	0017f793          	andi	a5,a5,1
   11998:	0000a517          	auipc	a0,0xa
   1199c:	b1c50513          	addi	a0,a0,-1252 # 1b4b4 <_conv_stat+0x308>
   119a0:	f20782e3          	beqz	a5,118c4 <_Z18external_interruptm+0xc8>
   119a4:	0000a517          	auipc	a0,0xa
   119a8:	b1c50513          	addi	a0,a0,-1252 # 1b4c0 <_conv_stat+0x314>
   119ac:	f19ff06f          	j	118c4 <_Z18external_interruptm+0xc8>
   119b0:	0027f793          	andi	a5,a5,2
   119b4:	0000a517          	auipc	a0,0xa
   119b8:	b1850513          	addi	a0,a0,-1256 # 1b4cc <_conv_stat+0x320>
   119bc:	f00784e3          	beqz	a5,118c4 <_Z18external_interruptm+0xc8>
   119c0:	0000a517          	auipc	a0,0xa
   119c4:	b1450513          	addi	a0,a0,-1260 # 1b4d4 <_conv_stat+0x328>
   119c8:	efdff06f          	j	118c4 <_Z18external_interruptm+0xc8>

000119cc <_Z17interrupt_handlerv>:
   119cc:	00010213          	mv	tp,sp
   119d0:	f6c10113          	addi	sp,sp,-148
   119d4:	08112823          	sw	ra,144(sp)
   119d8:	08412623          	sw	tp,140(sp)
   119dc:	08512423          	sw	t0,136(sp)
   119e0:	08612223          	sw	t1,132(sp)
   119e4:	08712023          	sw	t2,128(sp)
   119e8:	06a12e23          	sw	a0,124(sp)
   119ec:	06b12c23          	sw	a1,120(sp)
   119f0:	06c12a23          	sw	a2,116(sp)
   119f4:	06d12823          	sw	a3,112(sp)
   119f8:	06e12623          	sw	a4,108(sp)
   119fc:	06f12423          	sw	a5,104(sp)
   11a00:	07012223          	sw	a6,100(sp)
   11a04:	07112023          	sw	a7,96(sp)
   11a08:	05c12e23          	sw	t3,92(sp)
   11a0c:	05d12c23          	sw	t4,88(sp)
   11a10:	05e12a23          	sw	t5,84(sp)
   11a14:	05f12823          	sw	t6,80(sp)
   11a18:	04812423          	sw	s0,72(sp)
   11a1c:	04912223          	sw	s1,68(sp)
   11a20:	05212023          	sw	s2,64(sp)
   11a24:	03312e23          	sw	s3,60(sp)
   11a28:	03412c23          	sw	s4,56(sp)
   11a2c:	03512a23          	sw	s5,52(sp)
   11a30:	03612823          	sw	s6,48(sp)
   11a34:	03712623          	sw	s7,44(sp)
   11a38:	03812423          	sw	s8,40(sp)
   11a3c:	03912223          	sw	s9,36(sp)
   11a40:	03a12023          	sw	s10,32(sp)
   11a44:	01b12e23          	sw	s11,28(sp)
   11a48:	34202573          	csrr	a0,mcause
   11a4c:	01051713          	slli	a4,a0,0x10
   11a50:	00700793          	li	a5,7
   11a54:	01075713          	srli	a4,a4,0x10
   11a58:	0af70e63          	beq	a4,a5,11b14 <_Z17interrupt_handlerv+0x148>
   11a5c:	000107b7          	lui	a5,0x10
   11a60:	ff878793          	addi	a5,a5,-8 # fff8 <exit-0x7c>
   11a64:	00f577b3          	and	a5,a0,a5
   11a68:	08079a63          	bnez	a5,11afc <_Z17interrupt_handlerv+0x130>
   11a6c:	00200793          	li	a5,2
   11a70:	0af70663          	beq	a4,a5,11b1c <_Z17interrupt_handlerv+0x150>
   11a74:	00300793          	li	a5,3
   11a78:	00f71463          	bne	a4,a5,11a80 <_Z17interrupt_handlerv+0xb4>
   11a7c:	d75ff0ef          	jal	ra,117f0 <_Z20breakpoint_interruptv>
   11a80:	09012083          	lw	ra,144(sp)
   11a84:	08c12203          	lw	tp,140(sp)
   11a88:	08812283          	lw	t0,136(sp)
   11a8c:	08412303          	lw	t1,132(sp)
   11a90:	08012383          	lw	t2,128(sp)
   11a94:	07c12503          	lw	a0,124(sp)
   11a98:	07812583          	lw	a1,120(sp)
   11a9c:	07412603          	lw	a2,116(sp)
   11aa0:	07012683          	lw	a3,112(sp)
   11aa4:	06c12703          	lw	a4,108(sp)
   11aa8:	06812783          	lw	a5,104(sp)
   11aac:	06412803          	lw	a6,100(sp)
   11ab0:	06012883          	lw	a7,96(sp)
   11ab4:	05c12e03          	lw	t3,92(sp)
   11ab8:	05812e83          	lw	t4,88(sp)
   11abc:	05412f03          	lw	t5,84(sp)
   11ac0:	05012f83          	lw	t6,80(sp)
   11ac4:	04812403          	lw	s0,72(sp)
   11ac8:	04412483          	lw	s1,68(sp)
   11acc:	04012903          	lw	s2,64(sp)
   11ad0:	03c12983          	lw	s3,60(sp)
   11ad4:	03812a03          	lw	s4,56(sp)
   11ad8:	03412a83          	lw	s5,52(sp)
   11adc:	03012b03          	lw	s6,48(sp)
   11ae0:	02c12b83          	lw	s7,44(sp)
   11ae4:	02812c03          	lw	s8,40(sp)
   11ae8:	02412c83          	lw	s9,36(sp)
   11aec:	02012d03          	lw	s10,32(sp)
   11af0:	01c12d83          	lw	s11,28(sp)
   11af4:	00020113          	mv	sp,tp
   11af8:	30200073          	mret
   11afc:	00b00793          	li	a5,11
   11b00:	f8f710e3          	bne	a4,a5,11a80 <_Z17interrupt_handlerv+0xb4>
   11b04:	00151513          	slli	a0,a0,0x1
   11b08:	01155513          	srli	a0,a0,0x11
   11b0c:	cf1ff0ef          	jal	ra,117fc <_Z18external_interruptm>
   11b10:	f71ff06f          	j	11a80 <_Z17interrupt_handlerv+0xb4>
   11b14:	9fdff0ef          	jal	ra,11510 <_Z15timer_interruptv>
   11b18:	f69ff06f          	j	11a80 <_Z17interrupt_handlerv+0xb4>
   11b1c:	cb5ff0ef          	jal	ra,117d0 <_Z28illegalinstruction_exceptionv>
   11b20:	f61ff06f          	j	11a80 <_Z17interrupt_handlerv+0xb4>

00011b24 <_Z22SetupInterruptHandlersv>:
   11b24:	c81025f3          	rdtimeh	a1
   11b28:	c0102773          	rdtime	a4
   11b2c:	c81027f3          	rdtimeh	a5
   11b30:	fef59ae3          	bne	a1,a5,11b24 <_Z22SetupInterruptHandlersv>
   11b34:	000027b7          	lui	a5,0x2
   11b38:	71078793          	addi	a5,a5,1808 # 2710 <exit-0xd964>
   11b3c:	00f707b3          	add	a5,a4,a5
   11b40:	00e7b733          	sltu	a4,a5,a4
   11b44:	00b70633          	add	a2,a4,a1
   11b48:	00000693          	li	a3,0
   11b4c:	80161073          	csrw	0x801,a2
   11b50:	80079073          	csrw	0x800,a5
   11b54:	0000f797          	auipc	a5,0xf
   11b58:	22c7a783          	lw	a5,556(a5) # 20d80 <_GLOBAL_OFFSET_TABLE_+0x6c>
   11b5c:	30579073          	csrw	mtvec,a5
   11b60:	000017b7          	lui	a5,0x1
   11b64:	88c78793          	addi	a5,a5,-1908 # 88c <exit-0xf7e8>
   11b68:	30479073          	csrw	mie,a5
   11b6c:	00800793          	li	a5,8
   11b70:	30079073          	csrw	mstatus,a5
   11b74:	00008067          	ret

00011b78 <_Z16processgdbpacketc>:
   11b78:	0000f717          	auipc	a4,0xf
   11b7c:	1a872703          	lw	a4,424(a4) # 20d20 <_GLOBAL_OFFSET_TABLE_+0xc>
   11b80:	00072783          	lw	a5,0(a4)
   11b84:	04078a63          	beqz	a5,11bd8 <_Z16processgdbpacketc+0x60>
   11b88:	0000f617          	auipc	a2,0xf
   11b8c:	20c62603          	lw	a2,524(a2) # 20d94 <_GLOBAL_OFFSET_TABLE_+0x80>
   11b90:	00062683          	lw	a3,0(a2)
   11b94:	0000f597          	auipc	a1,0xf
   11b98:	1a45a583          	lw	a1,420(a1) # 20d38 <_GLOBAL_OFFSET_TABLE_+0x24>
   11b9c:	fff78793          	addi	a5,a5,-1
   11ba0:	00168813          	addi	a6,a3,1
   11ba4:	00d586b3          	add	a3,a1,a3
   11ba8:	01062023          	sw	a6,0(a2)
   11bac:	00a68023          	sb	a0,0(a3)
   11bb0:	00f72023          	sw	a5,0(a4)
   11bb4:	04079c63          	bnez	a5,11c0c <_Z16processgdbpacketc+0x94>
   11bb8:	010585b3          	add	a1,a1,a6
   11bbc:	0000f797          	auipc	a5,0xf
   11bc0:	1687a783          	lw	a5,360(a5) # 20d24 <_GLOBAL_OFFSET_TABLE_+0x10>
   11bc4:	00100713          	li	a4,1
   11bc8:	00e7a023          	sw	a4,0(a5)
   11bcc:	00058023          	sb	zero,0(a1)
   11bd0:	00062023          	sw	zero,0(a2)
   11bd4:	00008067          	ret
   11bd8:	02400793          	li	a5,36
   11bdc:	02f50a63          	beq	a0,a5,11c10 <_Z16processgdbpacketc+0x98>
   11be0:	0000f797          	auipc	a5,0xf
   11be4:	1b47a783          	lw	a5,436(a5) # 20d94 <_GLOBAL_OFFSET_TABLE_+0x80>
   11be8:	0007a683          	lw	a3,0(a5)
   11bec:	02300613          	li	a2,35
   11bf0:	00168593          	addi	a1,a3,1
   11bf4:	02c50c63          	beq	a0,a2,11c2c <_Z16processgdbpacketc+0xb4>
   11bf8:	0000f717          	auipc	a4,0xf
   11bfc:	14072703          	lw	a4,320(a4) # 20d38 <_GLOBAL_OFFSET_TABLE_+0x24>
   11c00:	00d706b3          	add	a3,a4,a3
   11c04:	00b7a023          	sw	a1,0(a5)
   11c08:	00a68023          	sb	a0,0(a3)
   11c0c:	00008067          	ret
   11c10:	0000f797          	auipc	a5,0xf
   11c14:	1847a783          	lw	a5,388(a5) # 20d94 <_GLOBAL_OFFSET_TABLE_+0x80>
   11c18:	0007a023          	sw	zero,0(a5)
   11c1c:	0000f797          	auipc	a5,0xf
   11c20:	1087a783          	lw	a5,264(a5) # 20d24 <_GLOBAL_OFFSET_TABLE_+0x10>
   11c24:	0007a023          	sw	zero,0(a5)
   11c28:	00008067          	ret
   11c2c:	0000f617          	auipc	a2,0xf
   11c30:	10c62603          	lw	a2,268(a2) # 20d38 <_GLOBAL_OFFSET_TABLE_+0x24>
   11c34:	00d606b3          	add	a3,a2,a3
   11c38:	00b7a023          	sw	a1,0(a5)
   11c3c:	00200793          	li	a5,2
   11c40:	00a68023          	sb	a0,0(a3)
   11c44:	00f72023          	sw	a5,0(a4)
   11c48:	00008067          	ret

00011c4c <_Z10startswithPcPKci>:
   11c4c:	0005c703          	lbu	a4,0(a1)
   11c50:	00000793          	li	a5,0
   11c54:	00071c63          	bnez	a4,11c6c <_Z10startswithPcPKci+0x20>
   11c58:	0200006f          	j	11c78 <_Z10startswithPcPKci+0x2c>
   11c5c:	00178793          	addi	a5,a5,1
   11c60:	00f58733          	add	a4,a1,a5
   11c64:	00074703          	lbu	a4,0(a4)
   11c68:	00070863          	beqz	a4,11c78 <_Z10startswithPcPKci+0x2c>
   11c6c:	00f506b3          	add	a3,a0,a5
   11c70:	0006c683          	lbu	a3,0(a3)
   11c74:	fee684e3          	beq	a3,a4,11c5c <_Z10startswithPcPKci+0x10>
   11c78:	40f60533          	sub	a0,a2,a5
   11c7c:	00153513          	seqz	a0,a0
   11c80:	00008067          	ret

00011c84 <_Z11strchecksumPKcPc>:
   11c84:	00054783          	lbu	a5,0(a0)
   11c88:	04078863          	beqz	a5,11cd8 <_Z11strchecksumPKcPc+0x54>
   11c8c:	00150513          	addi	a0,a0,1
   11c90:	00000713          	li	a4,0
   11c94:	00150513          	addi	a0,a0,1
   11c98:	00f70733          	add	a4,a4,a5
   11c9c:	fff54783          	lbu	a5,-1(a0)
   11ca0:	fe079ae3          	bnez	a5,11c94 <_Z11strchecksumPKcPc+0x10>
   11ca4:	40475793          	srai	a5,a4,0x4
   11ca8:	0000a697          	auipc	a3,0xa
   11cac:	fa068693          	addi	a3,a3,-96 # 1bc48 <_ZL9hexdigits>
   11cb0:	00f7f793          	andi	a5,a5,15
   11cb4:	00f77713          	andi	a4,a4,15
   11cb8:	00f687b3          	add	a5,a3,a5
   11cbc:	00e68733          	add	a4,a3,a4
   11cc0:	0007c683          	lbu	a3,0(a5)
   11cc4:	00074783          	lbu	a5,0(a4)
   11cc8:	00058123          	sb	zero,2(a1)
   11ccc:	00d58023          	sb	a3,0(a1)
   11cd0:	00f580a3          	sb	a5,1(a1)
   11cd4:	00008067          	ret
   11cd8:	03000793          	li	a5,48
   11cdc:	03000693          	li	a3,48
   11ce0:	00d58023          	sb	a3,0(a1)
   11ce4:	00f580a3          	sb	a5,1(a1)
   11ce8:	00058123          	sb	zero,2(a1)
   11cec:	00008067          	ret

00011cf0 <_Z8uint2decmPc>:
   11cf0:	0000a797          	auipc	a5,0xa
   11cf4:	d9c78793          	addi	a5,a5,-612 # 1ba8c <_conv_stat+0x8e0>
   11cf8:	0007a883          	lw	a7,0(a5)
   11cfc:	0047a803          	lw	a6,4(a5)
   11d00:	0087d603          	lhu	a2,8(a5)
   11d04:	00a7c683          	lbu	a3,10(a5)
   11d08:	ff010113          	addi	sp,sp,-16
   11d0c:	3b9ad737          	lui	a4,0x3b9ad
   11d10:	a0070793          	addi	a5,a4,-1536 # 3b9aca00 <__BSS_END__+0x3b986d38>
   11d14:	01112223          	sw	a7,4(sp)
   11d18:	01012423          	sw	a6,8(sp)
   11d1c:	00c11623          	sh	a2,12(sp)
   11d20:	00d10723          	sb	a3,14(sp)
   11d24:	9ff70713          	addi	a4,a4,-1537
   11d28:	02f557b3          	divu	a5,a0,a5
   11d2c:	0ca76063          	bltu	a4,a0,11dec <_Z8uint2decmPc+0xfc>
   11d30:	05f5e737          	lui	a4,0x5f5e
   11d34:	10070713          	addi	a4,a4,256 # 5f5e100 <__BSS_END__+0x5f38438>
   11d38:	00a00613          	li	a2,10
   11d3c:	02e55733          	divu	a4,a0,a4
   11d40:	02c77733          	remu	a4,a4,a2
   11d44:	20071863          	bnez	a4,11f54 <_Z8uint2decmPc+0x264>
   11d48:	009897b7          	lui	a5,0x989
   11d4c:	68078793          	addi	a5,a5,1664 # 989680 <__BSS_END__+0x9639b8>
   11d50:	02f557b3          	divu	a5,a0,a5
   11d54:	02c7f7b3          	remu	a5,a5,a2
   11d58:	0e079463          	bnez	a5,11e40 <_Z8uint2decmPc+0x150>
   11d5c:	000f46b7          	lui	a3,0xf4
   11d60:	24068693          	addi	a3,a3,576 # f4240 <__BSS_END__+0xce578>
   11d64:	02d556b3          	divu	a3,a0,a3
   11d68:	02c6f6b3          	remu	a3,a3,a2
   11d6c:	10069063          	bnez	a3,11e6c <_Z8uint2decmPc+0x17c>
   11d70:	00018737          	lui	a4,0x18
   11d74:	6a070713          	addi	a4,a4,1696 # 186a0 <_fopen_r+0xb8>
   11d78:	02e55733          	divu	a4,a0,a4
   11d7c:	02c77733          	remu	a4,a4,a2
   11d80:	10071c63          	bnez	a4,11e98 <_Z8uint2decmPc+0x1a8>
   11d84:	000027b7          	lui	a5,0x2
   11d88:	71078793          	addi	a5,a5,1808 # 2710 <exit-0xd964>
   11d8c:	02f557b3          	divu	a5,a0,a5
   11d90:	02c7f7b3          	remu	a5,a5,a2
   11d94:	12079863          	bnez	a5,11ec4 <_Z8uint2decmPc+0x1d4>
   11d98:	3e800693          	li	a3,1000
   11d9c:	02d556b3          	divu	a3,a0,a3
   11da0:	02c6f6b3          	remu	a3,a3,a2
   11da4:	14069463          	bnez	a3,11eec <_Z8uint2decmPc+0x1fc>
   11da8:	06400793          	li	a5,100
   11dac:	02f557b3          	divu	a5,a0,a5
   11db0:	02c7f7b3          	remu	a5,a5,a2
   11db4:	16079063          	bnez	a5,11f14 <_Z8uint2decmPc+0x224>
   11db8:	02c55733          	divu	a4,a0,a2
   11dbc:	02c77733          	remu	a4,a4,a2
   11dc0:	16071c63          	bnez	a4,11f38 <_Z8uint2decmPc+0x248>
   11dc4:	00a00793          	li	a5,10
   11dc8:	02f57533          	remu	a0,a0,a5
   11dcc:	01010793          	addi	a5,sp,16
   11dd0:	00e585b3          	add	a1,a1,a4
   11dd4:	000580a3          	sb	zero,1(a1)
   11dd8:	00a78533          	add	a0,a5,a0
   11ddc:	ff454783          	lbu	a5,-12(a0)
   11de0:	00f58023          	sb	a5,0(a1)
   11de4:	01010113          	addi	sp,sp,16
   11de8:	00008067          	ret
   11dec:	05f5e6b7          	lui	a3,0x5f5e
   11df0:	10068693          	addi	a3,a3,256 # 5f5e100 <__BSS_END__+0x5f38438>
   11df4:	02d556b3          	divu	a3,a0,a3
   11df8:	01010713          	addi	a4,sp,16
   11dfc:	00f707b3          	add	a5,a4,a5
   11e00:	ff47c783          	lbu	a5,-12(a5)
   11e04:	00100713          	li	a4,1
   11e08:	00f58023          	sb	a5,0(a1)
   11e0c:	00a00793          	li	a5,10
   11e10:	02f6f6b3          	remu	a3,a3,a5
   11e14:	009897b7          	lui	a5,0x989
   11e18:	68078793          	addi	a5,a5,1664 # 989680 <__BSS_END__+0x9639b8>
   11e1c:	01010613          	addi	a2,sp,16
   11e20:	00d606b3          	add	a3,a2,a3
   11e24:	ff46c603          	lbu	a2,-12(a3)
   11e28:	00e586b3          	add	a3,a1,a4
   11e2c:	00170713          	addi	a4,a4,1
   11e30:	00c68023          	sb	a2,0(a3)
   11e34:	00a00693          	li	a3,10
   11e38:	02f557b3          	divu	a5,a0,a5
   11e3c:	02d7f7b3          	remu	a5,a5,a3
   11e40:	000f46b7          	lui	a3,0xf4
   11e44:	24068693          	addi	a3,a3,576 # f4240 <__BSS_END__+0xce578>
   11e48:	01010613          	addi	a2,sp,16
   11e4c:	00f607b3          	add	a5,a2,a5
   11e50:	ff47c803          	lbu	a6,-12(a5)
   11e54:	00e58633          	add	a2,a1,a4
   11e58:	00170793          	addi	a5,a4,1
   11e5c:	00a00713          	li	a4,10
   11e60:	01060023          	sb	a6,0(a2)
   11e64:	02d556b3          	divu	a3,a0,a3
   11e68:	02e6f6b3          	remu	a3,a3,a4
   11e6c:	00018737          	lui	a4,0x18
   11e70:	6a070713          	addi	a4,a4,1696 # 186a0 <_fopen_r+0xb8>
   11e74:	01010613          	addi	a2,sp,16
   11e78:	00d606b3          	add	a3,a2,a3
   11e7c:	ff46c803          	lbu	a6,-12(a3)
   11e80:	00f58633          	add	a2,a1,a5
   11e84:	00178693          	addi	a3,a5,1
   11e88:	00a00793          	li	a5,10
   11e8c:	01060023          	sb	a6,0(a2)
   11e90:	02e55733          	divu	a4,a0,a4
   11e94:	02f77733          	remu	a4,a4,a5
   11e98:	000027b7          	lui	a5,0x2
   11e9c:	71078793          	addi	a5,a5,1808 # 2710 <exit-0xd964>
   11ea0:	01010613          	addi	a2,sp,16
   11ea4:	00e60733          	add	a4,a2,a4
   11ea8:	ff474803          	lbu	a6,-12(a4)
   11eac:	00d58633          	add	a2,a1,a3
   11eb0:	00168713          	addi	a4,a3,1
   11eb4:	00a00693          	li	a3,10
   11eb8:	01060023          	sb	a6,0(a2)
   11ebc:	02f557b3          	divu	a5,a0,a5
   11ec0:	02d7f7b3          	remu	a5,a5,a3
   11ec4:	3e800693          	li	a3,1000
   11ec8:	01010613          	addi	a2,sp,16
   11ecc:	00f607b3          	add	a5,a2,a5
   11ed0:	ff47c803          	lbu	a6,-12(a5)
   11ed4:	00e58633          	add	a2,a1,a4
   11ed8:	00170793          	addi	a5,a4,1
   11edc:	00a00713          	li	a4,10
   11ee0:	01060023          	sb	a6,0(a2)
   11ee4:	02d556b3          	divu	a3,a0,a3
   11ee8:	02e6f6b3          	remu	a3,a3,a4
   11eec:	06400713          	li	a4,100
   11ef0:	01010613          	addi	a2,sp,16
   11ef4:	00d606b3          	add	a3,a2,a3
   11ef8:	ff46c803          	lbu	a6,-12(a3)
   11efc:	00f58633          	add	a2,a1,a5
   11f00:	00178693          	addi	a3,a5,1
   11f04:	00a00793          	li	a5,10
   11f08:	01060023          	sb	a6,0(a2)
   11f0c:	02e55733          	divu	a4,a0,a4
   11f10:	02f777b3          	remu	a5,a4,a5
   11f14:	00a00613          	li	a2,10
   11f18:	01010813          	addi	a6,sp,16
   11f1c:	00f807b3          	add	a5,a6,a5
   11f20:	ff47c883          	lbu	a7,-12(a5)
   11f24:	00d58833          	add	a6,a1,a3
   11f28:	00168793          	addi	a5,a3,1
   11f2c:	01180023          	sb	a7,0(a6)
   11f30:	02c55733          	divu	a4,a0,a2
   11f34:	02c77733          	remu	a4,a4,a2
   11f38:	01010693          	addi	a3,sp,16
   11f3c:	00e68733          	add	a4,a3,a4
   11f40:	ff474603          	lbu	a2,-12(a4)
   11f44:	00f586b3          	add	a3,a1,a5
   11f48:	00178713          	addi	a4,a5,1
   11f4c:	00c68023          	sb	a2,0(a3)
   11f50:	e75ff06f          	j	11dc4 <_Z8uint2decmPc+0xd4>
   11f54:	00070693          	mv	a3,a4
   11f58:	00000713          	li	a4,0
   11f5c:	eb9ff06f          	j	11e14 <_Z8uint2decmPc+0x124>

00011f60 <_Z29int2architectureorderedstringmPc>:
   11f60:	01855313          	srli	t1,a0,0x18
   11f64:	01455893          	srli	a7,a0,0x14
   11f68:	01055813          	srli	a6,a0,0x10
   11f6c:	00c55613          	srli	a2,a0,0xc
   11f70:	00855693          	srli	a3,a0,0x8
   11f74:	00455713          	srli	a4,a0,0x4
   11f78:	0000a797          	auipc	a5,0xa
   11f7c:	cd078793          	addi	a5,a5,-816 # 1bc48 <_ZL9hexdigits>
   11f80:	01c55e13          	srli	t3,a0,0x1c
   11f84:	00f37313          	andi	t1,t1,15
   11f88:	00f8f893          	andi	a7,a7,15
   11f8c:	00f87813          	andi	a6,a6,15
   11f90:	00f67613          	andi	a2,a2,15
   11f94:	00f6f693          	andi	a3,a3,15
   11f98:	00f77713          	andi	a4,a4,15
   11f9c:	00f57513          	andi	a0,a0,15
   11fa0:	01c78e33          	add	t3,a5,t3
   11fa4:	00678333          	add	t1,a5,t1
   11fa8:	011788b3          	add	a7,a5,a7
   11fac:	01078833          	add	a6,a5,a6
   11fb0:	00c78633          	add	a2,a5,a2
   11fb4:	00d786b3          	add	a3,a5,a3
   11fb8:	00e78733          	add	a4,a5,a4
   11fbc:	00a78533          	add	a0,a5,a0
   11fc0:	000e4e03          	lbu	t3,0(t3)
   11fc4:	00034303          	lbu	t1,0(t1) # 10288 <frame_dummy+0x18>
   11fc8:	0008c883          	lbu	a7,0(a7)
   11fcc:	00084803          	lbu	a6,0(a6)
   11fd0:	00064603          	lbu	a2,0(a2)
   11fd4:	0006c683          	lbu	a3,0(a3)
   11fd8:	00074703          	lbu	a4,0(a4)
   11fdc:	00054783          	lbu	a5,0(a0)
   11fe0:	01c58323          	sb	t3,6(a1)
   11fe4:	006583a3          	sb	t1,7(a1)
   11fe8:	01158223          	sb	a7,4(a1)
   11fec:	010582a3          	sb	a6,5(a1)
   11ff0:	00c58123          	sb	a2,2(a1)
   11ff4:	00d581a3          	sb	a3,3(a1)
   11ff8:	00e58023          	sb	a4,0(a1)
   11ffc:	00f580a3          	sb	a5,1(a1)
   12000:	00058423          	sb	zero,8(a1)
   12004:	00008067          	ret

00012008 <_Z30byte2architectureorderedstringhPc>:
   12008:	0000a797          	auipc	a5,0xa
   1200c:	c4078793          	addi	a5,a5,-960 # 1bc48 <_ZL9hexdigits>
   12010:	00455713          	srli	a4,a0,0x4
   12014:	00f57513          	andi	a0,a0,15
   12018:	00e78733          	add	a4,a5,a4
   1201c:	00a78533          	add	a0,a5,a0
   12020:	00074703          	lbu	a4,0(a4)
   12024:	00054783          	lbu	a5,0(a0)
   12028:	00058123          	sb	zero,2(a1)
   1202c:	00e58023          	sb	a4,0(a1)
   12030:	00f580a3          	sb	a5,1(a1)
   12034:	00008067          	ret

00012038 <_Z24SendDebugPacketRegistersR11cpu_context>:
   12038:	dd010113          	addi	sp,sp,-560
   1203c:	21412c23          	sw	s4,536(sp)
   12040:	01010a13          	addi	s4,sp,16
   12044:	22812423          	sw	s0,552(sp)
   12048:	22912223          	sw	s1,548(sp)
   1204c:	23212023          	sw	s2,544(sp)
   12050:	21312e23          	sw	s3,540(sp)
   12054:	22112623          	sw	ra,556(sp)
   12058:	00050993          	mv	s3,a0
   1205c:	00450493          	addi	s1,a0,4
   12060:	000a0413          	mv	s0,s4
   12064:	11010913          	addi	s2,sp,272
   12068:	0004a503          	lw	a0,0(s1)
   1206c:	00040593          	mv	a1,s0
   12070:	00840413          	addi	s0,s0,8
   12074:	eedff0ef          	jal	ra,11f60 <_Z29int2architectureorderedstringmPc>
   12078:	00448493          	addi	s1,s1,4
   1207c:	fe8916e3          	bne	s2,s0,12068 <_Z24SendDebugPacketRegistersR11cpu_context+0x30>
   12080:	1049a503          	lw	a0,260(s3)
   12084:	00090593          	mv	a1,s2
   12088:	00c10413          	addi	s0,sp,12
   1208c:	ed5ff0ef          	jal	ra,11f60 <_Z29int2architectureorderedstringmPc>
   12090:	00040593          	mv	a1,s0
   12094:	000a0513          	mv	a0,s4
   12098:	bedff0ef          	jal	ra,11c84 <_Z11strchecksumPKcPc>
   1209c:	0000a517          	auipc	a0,0xa
   120a0:	9fc50513          	addi	a0,a0,-1540 # 1ba98 <_conv_stat+0x8ec>
   120a4:	50d010ef          	jal	ra,13db0 <_Z8EchoUARTPKc>
   120a8:	000a0513          	mv	a0,s4
   120ac:	505010ef          	jal	ra,13db0 <_Z8EchoUARTPKc>
   120b0:	0000a517          	auipc	a0,0xa
   120b4:	9ec50513          	addi	a0,a0,-1556 # 1ba9c <_conv_stat+0x8f0>
   120b8:	4f9010ef          	jal	ra,13db0 <_Z8EchoUARTPKc>
   120bc:	00040513          	mv	a0,s0
   120c0:	4f1010ef          	jal	ra,13db0 <_Z8EchoUARTPKc>
   120c4:	22c12083          	lw	ra,556(sp)
   120c8:	22812403          	lw	s0,552(sp)
   120cc:	22412483          	lw	s1,548(sp)
   120d0:	22012903          	lw	s2,544(sp)
   120d4:	21c12983          	lw	s3,540(sp)
   120d8:	21812a03          	lw	s4,536(sp)
   120dc:	23010113          	addi	sp,sp,560
   120e0:	00008067          	ret

000120e4 <_Z15SendDebugPacketPKc>:
   120e4:	fe010113          	addi	sp,sp,-32
   120e8:	00912a23          	sw	s1,20(sp)
   120ec:	00c10493          	addi	s1,sp,12
   120f0:	00048593          	mv	a1,s1
   120f4:	00112e23          	sw	ra,28(sp)
   120f8:	00812c23          	sw	s0,24(sp)
   120fc:	00050413          	mv	s0,a0
   12100:	b85ff0ef          	jal	ra,11c84 <_Z11strchecksumPKcPc>
   12104:	0000a517          	auipc	a0,0xa
   12108:	99450513          	addi	a0,a0,-1644 # 1ba98 <_conv_stat+0x8ec>
   1210c:	4a5010ef          	jal	ra,13db0 <_Z8EchoUARTPKc>
   12110:	00040513          	mv	a0,s0
   12114:	49d010ef          	jal	ra,13db0 <_Z8EchoUARTPKc>
   12118:	0000a517          	auipc	a0,0xa
   1211c:	98450513          	addi	a0,a0,-1660 # 1ba9c <_conv_stat+0x8f0>
   12120:	491010ef          	jal	ra,13db0 <_Z8EchoUARTPKc>
   12124:	00048513          	mv	a0,s1
   12128:	489010ef          	jal	ra,13db0 <_Z8EchoUARTPKc>
   1212c:	01c12083          	lw	ra,28(sp)
   12130:	01812403          	lw	s0,24(sp)
   12134:	01412483          	lw	s1,20(sp)
   12138:	02010113          	addi	sp,sp,32
   1213c:	00008067          	ret

00012140 <_Z7dec2intPc>:
   12140:	00054603          	lbu	a2,0(a0)
   12144:	00050593          	mv	a1,a0
   12148:	00000513          	li	a0,0
   1214c:	04060263          	beqz	a2,12190 <_Z7dec2intPc+0x50>
   12150:	00900813          	li	a6,9
   12154:	00251693          	slli	a3,a0,0x2
   12158:	fd060793          	addi	a5,a2,-48
   1215c:	00a686b3          	add	a3,a3,a0
   12160:	0ff7f793          	andi	a5,a5,255
   12164:	00169693          	slli	a3,a3,0x1
   12168:	00158593          	addi	a1,a1,1
   1216c:	00f87a63          	bgeu	a6,a5,12180 <_Z7dec2intPc+0x40>
   12170:	00d60533          	add	a0,a2,a3
   12174:	0005c603          	lbu	a2,0(a1)
   12178:	fc061ee3          	bnez	a2,12154 <_Z7dec2intPc+0x14>
   1217c:	00008067          	ret
   12180:	0005c603          	lbu	a2,0(a1)
   12184:	00d78533          	add	a0,a5,a3
   12188:	fc0616e3          	bnez	a2,12154 <_Z7dec2intPc+0x14>
   1218c:	00008067          	ret
   12190:	00008067          	ret

00012194 <_Z7hex2intPc>:
   12194:	00054703          	lbu	a4,0(a0)
   12198:	00050613          	mv	a2,a0
   1219c:	00000513          	li	a0,0
   121a0:	04070e63          	beqz	a4,121fc <_Z7hex2intPc+0x68>
   121a4:	00900813          	li	a6,9
   121a8:	00500893          	li	a7,5
   121ac:	fd070793          	addi	a5,a4,-48
   121b0:	f9f70693          	addi	a3,a4,-97
   121b4:	0ff7f793          	andi	a5,a5,255
   121b8:	0ff6f693          	andi	a3,a3,255
   121bc:	00160613          	addi	a2,a2,1
   121c0:	02f87463          	bgeu	a6,a5,121e8 <_Z7hex2intPc+0x54>
   121c4:	fbf70593          	addi	a1,a4,-65
   121c8:	fa970793          	addi	a5,a4,-87
   121cc:	0ff5f593          	andi	a1,a1,255
   121d0:	0ff7f793          	andi	a5,a5,255
   121d4:	00d8fa63          	bgeu	a7,a3,121e8 <_Z7hex2intPc+0x54>
   121d8:	fc970693          	addi	a3,a4,-55
   121dc:	00f77793          	andi	a5,a4,15
   121e0:	00b8e463          	bltu	a7,a1,121e8 <_Z7hex2intPc+0x54>
   121e4:	0ff6f793          	andi	a5,a3,255
   121e8:	00064703          	lbu	a4,0(a2)
   121ec:	00451513          	slli	a0,a0,0x4
   121f0:	00a7e533          	or	a0,a5,a0
   121f4:	fa071ce3          	bnez	a4,121ac <_Z7hex2intPc+0x18>
   121f8:	00008067          	ret
   121fc:	00008067          	ret

00012200 <_Z16RemoveBreakPointR11cpu_contextm>:
   12200:	14c52783          	lw	a5,332(a0)
   12204:	38078c63          	beqz	a5,1259c <_Z16RemoveBreakPointR11cpu_contextm+0x39c>
   12208:	10c52703          	lw	a4,268(a0)
   1220c:	ff010113          	addi	sp,sp,-16
   12210:	00812423          	sw	s0,8(sp)
   12214:	00912223          	sw	s1,4(sp)
   12218:	00112623          	sw	ra,12(sp)
   1221c:	00050413          	mv	s0,a0
   12220:	00058493          	mv	s1,a1
   12224:	14e58063          	beq	a1,a4,12364 <_Z16RemoveBreakPointR11cpu_contextm+0x164>
   12228:	00100713          	li	a4,1
   1222c:	06f77663          	bgeu	a4,a5,12298 <_Z16RemoveBreakPointR11cpu_contextm+0x98>
   12230:	11442683          	lw	a3,276(s0)
   12234:	18d48663          	beq	s1,a3,123c0 <_Z16RemoveBreakPointR11cpu_contextm+0x1c0>
   12238:	00200713          	li	a4,2
   1223c:	04f77e63          	bgeu	a4,a5,12298 <_Z16RemoveBreakPointR11cpu_contextm+0x98>
   12240:	11c42683          	lw	a3,284(s0)
   12244:	06d48463          	beq	s1,a3,122ac <_Z16RemoveBreakPointR11cpu_contextm+0xac>
   12248:	00300713          	li	a4,3
   1224c:	04f77663          	bgeu	a4,a5,12298 <_Z16RemoveBreakPointR11cpu_contextm+0x98>
   12250:	12442683          	lw	a3,292(s0)
   12254:	0ad48a63          	beq	s1,a3,12308 <_Z16RemoveBreakPointR11cpu_contextm+0x108>
   12258:	00400713          	li	a4,4
   1225c:	02f77e63          	bgeu	a4,a5,12298 <_Z16RemoveBreakPointR11cpu_contextm+0x98>
   12260:	12c42683          	lw	a3,300(s0)
   12264:	1ad48c63          	beq	s1,a3,1241c <_Z16RemoveBreakPointR11cpu_contextm+0x21c>
   12268:	00500713          	li	a4,5
   1226c:	02f77663          	bgeu	a4,a5,12298 <_Z16RemoveBreakPointR11cpu_contextm+0x98>
   12270:	13442683          	lw	a3,308(s0)
   12274:	26d48863          	beq	s1,a3,124e4 <_Z16RemoveBreakPointR11cpu_contextm+0x2e4>
   12278:	00600713          	li	a4,6
   1227c:	00f77e63          	bgeu	a4,a5,12298 <_Z16RemoveBreakPointR11cpu_contextm+0x98>
   12280:	13c42683          	lw	a3,316(s0)
   12284:	2ad48e63          	beq	s1,a3,12540 <_Z16RemoveBreakPointR11cpu_contextm+0x340>
   12288:	00700713          	li	a4,7
   1228c:	00f77663          	bgeu	a4,a5,12298 <_Z16RemoveBreakPointR11cpu_contextm+0x98>
   12290:	14442783          	lw	a5,324(s0)
   12294:	1e978663          	beq	a5,s1,12480 <_Z16RemoveBreakPointR11cpu_contextm+0x280>
   12298:	00c12083          	lw	ra,12(sp)
   1229c:	00812403          	lw	s0,8(sp)
   122a0:	00412483          	lw	s1,4(sp)
   122a4:	01010113          	addi	sp,sp,16
   122a8:	00008067          	ret
   122ac:	12042783          	lw	a5,288(s0)
   122b0:	00f4a023          	sw	a5,0(s1)
   122b4:	14c42783          	lw	a5,332(s0)
   122b8:	fff78693          	addi	a3,a5,-1
   122bc:	02e68063          	beq	a3,a4,122dc <_Z16RemoveBreakPointR11cpu_contextm+0xdc>
   122c0:	01f78793          	addi	a5,a5,31
   122c4:	00379793          	slli	a5,a5,0x3
   122c8:	00f407b3          	add	a5,s0,a5
   122cc:	00c7a703          	lw	a4,12(a5)
   122d0:	0107a783          	lw	a5,16(a5)
   122d4:	10e42e23          	sw	a4,284(s0)
   122d8:	12f42023          	sw	a5,288(s0)
   122dc:	14d42623          	sw	a3,332(s0)
   122e0:	00009517          	auipc	a0,0x9
   122e4:	7c050513          	addi	a0,a0,1984 # 1baa0 <_conv_stat+0x8f4>
   122e8:	7f5040ef          	jal	ra,172dc <_Z11EchoConsolePKc>
   122ec:	00048513          	mv	a0,s1
   122f0:	4c4050ef          	jal	ra,177b4 <_Z14EchoConsoleHexl>
   122f4:	00009517          	auipc	a0,0x9
   122f8:	23050513          	addi	a0,a0,560 # 1b524 <_conv_stat+0x378>
   122fc:	7e1040ef          	jal	ra,172dc <_Z11EchoConsolePKc>
   12300:	14c42783          	lw	a5,332(s0)
   12304:	f45ff06f          	j	12248 <_Z16RemoveBreakPointR11cpu_contextm+0x48>
   12308:	12842783          	lw	a5,296(s0)
   1230c:	00f4a023          	sw	a5,0(s1)
   12310:	14c42783          	lw	a5,332(s0)
   12314:	fff78693          	addi	a3,a5,-1
   12318:	02e68063          	beq	a3,a4,12338 <_Z16RemoveBreakPointR11cpu_contextm+0x138>
   1231c:	01f78793          	addi	a5,a5,31
   12320:	00379793          	slli	a5,a5,0x3
   12324:	00f407b3          	add	a5,s0,a5
   12328:	00c7a703          	lw	a4,12(a5)
   1232c:	0107a783          	lw	a5,16(a5)
   12330:	12e42223          	sw	a4,292(s0)
   12334:	12f42423          	sw	a5,296(s0)
   12338:	14d42623          	sw	a3,332(s0)
   1233c:	00009517          	auipc	a0,0x9
   12340:	76450513          	addi	a0,a0,1892 # 1baa0 <_conv_stat+0x8f4>
   12344:	799040ef          	jal	ra,172dc <_Z11EchoConsolePKc>
   12348:	00048513          	mv	a0,s1
   1234c:	468050ef          	jal	ra,177b4 <_Z14EchoConsoleHexl>
   12350:	00009517          	auipc	a0,0x9
   12354:	1d450513          	addi	a0,a0,468 # 1b524 <_conv_stat+0x378>
   12358:	785040ef          	jal	ra,172dc <_Z11EchoConsolePKc>
   1235c:	14c42783          	lw	a5,332(s0)
   12360:	ef9ff06f          	j	12258 <_Z16RemoveBreakPointR11cpu_contextm+0x58>
   12364:	11052783          	lw	a5,272(a0)
   12368:	00f5a023          	sw	a5,0(a1)
   1236c:	14c52783          	lw	a5,332(a0)
   12370:	fff78713          	addi	a4,a5,-1
   12374:	02070063          	beqz	a4,12394 <_Z16RemoveBreakPointR11cpu_contextm+0x194>
   12378:	01f78793          	addi	a5,a5,31
   1237c:	00379793          	slli	a5,a5,0x3
   12380:	00f507b3          	add	a5,a0,a5
   12384:	00c7a683          	lw	a3,12(a5)
   12388:	0107a783          	lw	a5,16(a5)
   1238c:	10d52623          	sw	a3,268(a0)
   12390:	10f52823          	sw	a5,272(a0)
   12394:	14e42623          	sw	a4,332(s0)
   12398:	00009517          	auipc	a0,0x9
   1239c:	70850513          	addi	a0,a0,1800 # 1baa0 <_conv_stat+0x8f4>
   123a0:	73d040ef          	jal	ra,172dc <_Z11EchoConsolePKc>
   123a4:	00048513          	mv	a0,s1
   123a8:	40c050ef          	jal	ra,177b4 <_Z14EchoConsoleHexl>
   123ac:	00009517          	auipc	a0,0x9
   123b0:	17850513          	addi	a0,a0,376 # 1b524 <_conv_stat+0x378>
   123b4:	729040ef          	jal	ra,172dc <_Z11EchoConsolePKc>
   123b8:	14c42783          	lw	a5,332(s0)
   123bc:	e6dff06f          	j	12228 <_Z16RemoveBreakPointR11cpu_contextm+0x28>
   123c0:	11842783          	lw	a5,280(s0)
   123c4:	00f4a023          	sw	a5,0(s1)
   123c8:	14c42783          	lw	a5,332(s0)
   123cc:	fff78693          	addi	a3,a5,-1
   123d0:	02e68063          	beq	a3,a4,123f0 <_Z16RemoveBreakPointR11cpu_contextm+0x1f0>
   123d4:	01f78793          	addi	a5,a5,31
   123d8:	00379793          	slli	a5,a5,0x3
   123dc:	00f407b3          	add	a5,s0,a5
   123e0:	00c7a703          	lw	a4,12(a5)
   123e4:	0107a783          	lw	a5,16(a5)
   123e8:	10e42a23          	sw	a4,276(s0)
   123ec:	10f42c23          	sw	a5,280(s0)
   123f0:	14d42623          	sw	a3,332(s0)
   123f4:	00009517          	auipc	a0,0x9
   123f8:	6ac50513          	addi	a0,a0,1708 # 1baa0 <_conv_stat+0x8f4>
   123fc:	6e1040ef          	jal	ra,172dc <_Z11EchoConsolePKc>
   12400:	00048513          	mv	a0,s1
   12404:	3b0050ef          	jal	ra,177b4 <_Z14EchoConsoleHexl>
   12408:	00009517          	auipc	a0,0x9
   1240c:	11c50513          	addi	a0,a0,284 # 1b524 <_conv_stat+0x378>
   12410:	6cd040ef          	jal	ra,172dc <_Z11EchoConsolePKc>
   12414:	14c42783          	lw	a5,332(s0)
   12418:	e21ff06f          	j	12238 <_Z16RemoveBreakPointR11cpu_contextm+0x38>
   1241c:	13042783          	lw	a5,304(s0)
   12420:	00f4a023          	sw	a5,0(s1)
   12424:	14c42783          	lw	a5,332(s0)
   12428:	fff78693          	addi	a3,a5,-1
   1242c:	02e68063          	beq	a3,a4,1244c <_Z16RemoveBreakPointR11cpu_contextm+0x24c>
   12430:	01f78793          	addi	a5,a5,31
   12434:	00379793          	slli	a5,a5,0x3
   12438:	00f407b3          	add	a5,s0,a5
   1243c:	00c7a703          	lw	a4,12(a5)
   12440:	0107a783          	lw	a5,16(a5)
   12444:	12e42623          	sw	a4,300(s0)
   12448:	12f42823          	sw	a5,304(s0)
   1244c:	14d42623          	sw	a3,332(s0)
   12450:	00009517          	auipc	a0,0x9
   12454:	65050513          	addi	a0,a0,1616 # 1baa0 <_conv_stat+0x8f4>
   12458:	685040ef          	jal	ra,172dc <_Z11EchoConsolePKc>
   1245c:	00048513          	mv	a0,s1
   12460:	354050ef          	jal	ra,177b4 <_Z14EchoConsoleHexl>
   12464:	00009517          	auipc	a0,0x9
   12468:	0c050513          	addi	a0,a0,192 # 1b524 <_conv_stat+0x378>
   1246c:	671040ef          	jal	ra,172dc <_Z11EchoConsolePKc>
   12470:	14c42783          	lw	a5,332(s0)
   12474:	00500713          	li	a4,5
   12478:	def76ce3          	bltu	a4,a5,12270 <_Z16RemoveBreakPointR11cpu_contextm+0x70>
   1247c:	e1dff06f          	j	12298 <_Z16RemoveBreakPointR11cpu_contextm+0x98>
   12480:	14842783          	lw	a5,328(s0)
   12484:	00f4a023          	sw	a5,0(s1)
   12488:	14c42783          	lw	a5,332(s0)
   1248c:	fff78693          	addi	a3,a5,-1
   12490:	02e68063          	beq	a3,a4,124b0 <_Z16RemoveBreakPointR11cpu_contextm+0x2b0>
   12494:	01f78793          	addi	a5,a5,31
   12498:	00379793          	slli	a5,a5,0x3
   1249c:	00f407b3          	add	a5,s0,a5
   124a0:	00c7a703          	lw	a4,12(a5)
   124a4:	0107a783          	lw	a5,16(a5)
   124a8:	14e42223          	sw	a4,324(s0)
   124ac:	14f42423          	sw	a5,328(s0)
   124b0:	14d42623          	sw	a3,332(s0)
   124b4:	00009517          	auipc	a0,0x9
   124b8:	5ec50513          	addi	a0,a0,1516 # 1baa0 <_conv_stat+0x8f4>
   124bc:	621040ef          	jal	ra,172dc <_Z11EchoConsolePKc>
   124c0:	00048513          	mv	a0,s1
   124c4:	2f0050ef          	jal	ra,177b4 <_Z14EchoConsoleHexl>
   124c8:	00812403          	lw	s0,8(sp)
   124cc:	00c12083          	lw	ra,12(sp)
   124d0:	00412483          	lw	s1,4(sp)
   124d4:	00009517          	auipc	a0,0x9
   124d8:	05050513          	addi	a0,a0,80 # 1b524 <_conv_stat+0x378>
   124dc:	01010113          	addi	sp,sp,16
   124e0:	5fd0406f          	j	172dc <_Z11EchoConsolePKc>
   124e4:	13842783          	lw	a5,312(s0)
   124e8:	00f4a023          	sw	a5,0(s1)
   124ec:	14c42783          	lw	a5,332(s0)
   124f0:	fff78693          	addi	a3,a5,-1
   124f4:	02e68063          	beq	a3,a4,12514 <_Z16RemoveBreakPointR11cpu_contextm+0x314>
   124f8:	01f78793          	addi	a5,a5,31
   124fc:	00379793          	slli	a5,a5,0x3
   12500:	00f407b3          	add	a5,s0,a5
   12504:	00c7a703          	lw	a4,12(a5)
   12508:	0107a783          	lw	a5,16(a5)
   1250c:	12e42a23          	sw	a4,308(s0)
   12510:	12f42c23          	sw	a5,312(s0)
   12514:	14d42623          	sw	a3,332(s0)
   12518:	00009517          	auipc	a0,0x9
   1251c:	58850513          	addi	a0,a0,1416 # 1baa0 <_conv_stat+0x8f4>
   12520:	5bd040ef          	jal	ra,172dc <_Z11EchoConsolePKc>
   12524:	00048513          	mv	a0,s1
   12528:	28c050ef          	jal	ra,177b4 <_Z14EchoConsoleHexl>
   1252c:	00009517          	auipc	a0,0x9
   12530:	ff850513          	addi	a0,a0,-8 # 1b524 <_conv_stat+0x378>
   12534:	5a9040ef          	jal	ra,172dc <_Z11EchoConsolePKc>
   12538:	14c42783          	lw	a5,332(s0)
   1253c:	d3dff06f          	j	12278 <_Z16RemoveBreakPointR11cpu_contextm+0x78>
   12540:	14042783          	lw	a5,320(s0)
   12544:	00f4a023          	sw	a5,0(s1)
   12548:	14c42783          	lw	a5,332(s0)
   1254c:	fff78693          	addi	a3,a5,-1
   12550:	02e68063          	beq	a3,a4,12570 <_Z16RemoveBreakPointR11cpu_contextm+0x370>
   12554:	01f78793          	addi	a5,a5,31
   12558:	00379793          	slli	a5,a5,0x3
   1255c:	00f407b3          	add	a5,s0,a5
   12560:	00c7a703          	lw	a4,12(a5)
   12564:	0107a783          	lw	a5,16(a5)
   12568:	12e42e23          	sw	a4,316(s0)
   1256c:	14f42023          	sw	a5,320(s0)
   12570:	14d42623          	sw	a3,332(s0)
   12574:	00009517          	auipc	a0,0x9
   12578:	52c50513          	addi	a0,a0,1324 # 1baa0 <_conv_stat+0x8f4>
   1257c:	561040ef          	jal	ra,172dc <_Z11EchoConsolePKc>
   12580:	00048513          	mv	a0,s1
   12584:	230050ef          	jal	ra,177b4 <_Z14EchoConsoleHexl>
   12588:	00009517          	auipc	a0,0x9
   1258c:	f9c50513          	addi	a0,a0,-100 # 1b524 <_conv_stat+0x378>
   12590:	54d040ef          	jal	ra,172dc <_Z11EchoConsolePKc>
   12594:	14c42783          	lw	a5,332(s0)
   12598:	cf1ff06f          	j	12288 <_Z16RemoveBreakPointR11cpu_contextm+0x88>
   1259c:	00008067          	ret

000125a0 <_Z13AddBreakPointR11cpu_contextm>:
   125a0:	14c52783          	lw	a5,332(a0)
   125a4:	ff010113          	addi	sp,sp,-16
   125a8:	00112623          	sw	ra,12(sp)
   125ac:	00379713          	slli	a4,a5,0x3
   125b0:	00812423          	sw	s0,8(sp)
   125b4:	00e50733          	add	a4,a0,a4
   125b8:	10b72623          	sw	a1,268(a4)
   125bc:	0005a683          	lw	a3,0(a1)
   125c0:	00178793          	addi	a5,a5,1
   125c4:	00058413          	mv	s0,a1
   125c8:	10d72823          	sw	a3,272(a4)
   125cc:	14f52623          	sw	a5,332(a0)
   125d0:	001007b7          	lui	a5,0x100
   125d4:	07378793          	addi	a5,a5,115 # 100073 <__BSS_END__+0xda3ab>
   125d8:	00f5a023          	sw	a5,0(a1)
   125dc:	00009517          	auipc	a0,0x9
   125e0:	4cc50513          	addi	a0,a0,1228 # 1baa8 <_conv_stat+0x8fc>
   125e4:	4f9040ef          	jal	ra,172dc <_Z11EchoConsolePKc>
   125e8:	00040513          	mv	a0,s0
   125ec:	1c8050ef          	jal	ra,177b4 <_Z14EchoConsoleHexl>
   125f0:	00812403          	lw	s0,8(sp)
   125f4:	00c12083          	lw	ra,12(sp)
   125f8:	00009517          	auipc	a0,0x9
   125fc:	f2c50513          	addi	a0,a0,-212 # 1b524 <_conv_stat+0x378>
   12600:	01010113          	addi	sp,sp,16
   12604:	4d90406f          	j	172dc <_Z11EchoConsolePKc>

00012608 <_Z14gdb_breakpointP11cpu_context>:
   12608:	0000e797          	auipc	a5,0xe
   1260c:	7907a783          	lw	a5,1936(a5) # 20d98 <_GLOBAL_OFFSET_TABLE_+0x84>
   12610:	0007a703          	lw	a4,0(a5)
   12614:	16000793          	li	a5,352
   12618:	02e787b3          	mul	a5,a5,a4
   1261c:	00f50533          	add	a0,a0,a5
   12620:	15c52783          	lw	a5,348(a0)
   12624:	00078663          	beqz	a5,12630 <_Z14gdb_breakpointP11cpu_context+0x28>
   12628:	00000513          	li	a0,0
   1262c:	00008067          	ret
   12630:	ff010113          	addi	sp,sp,-16
   12634:	00112623          	sw	ra,12(sp)
   12638:	00100793          	li	a5,1
   1263c:	14f52e23          	sw	a5,348(a0)
   12640:	00009517          	auipc	a0,0x9
   12644:	47050513          	addi	a0,a0,1136 # 1bab0 <_conv_stat+0x904>
   12648:	a9dff0ef          	jal	ra,120e4 <_Z15SendDebugPacketPKc>
   1264c:	00c12083          	lw	ra,12(sp)
   12650:	00100513          	li	a0,1
   12654:	01010113          	addi	sp,sp,16
   12658:	00008067          	ret

0001265c <_Z11gdb_handlerP11cpu_contextm>:
   1265c:	bb010113          	addi	sp,sp,-1104
   12660:	43312e23          	sw	s3,1084(sp)
   12664:	43412c23          	sw	s4,1080(sp)
   12668:	00058993          	mv	s3,a1
   1266c:	00050a13          	mv	s4,a0
   12670:	3fc00613          	li	a2,1020
   12674:	00000593          	li	a1,0
   12678:	02410513          	addi	a0,sp,36
   1267c:	44812423          	sw	s0,1096(sp)
   12680:	44912223          	sw	s1,1092(sp)
   12684:	45212023          	sw	s2,1088(sp)
   12688:	43512a23          	sw	s5,1076(sp)
   1268c:	44112623          	sw	ra,1100(sp)
   12690:	43612823          	sw	s6,1072(sp)
   12694:	43712623          	sw	s7,1068(sp)
   12698:	43812423          	sw	s8,1064(sp)
   1269c:	0000e417          	auipc	s0,0xe
   126a0:	6f042403          	lw	s0,1776(s0) # 20d8c <_GLOBAL_OFFSET_TABLE_+0x78>
   126a4:	02012023          	sw	zero,32(sp)
   126a8:	0f5060ef          	jal	ra,18f9c <memset>
   126ac:	00042783          	lw	a5,0(s0)
   126b0:	00000a93          	li	s5,0
   126b4:	0000e917          	auipc	s2,0xe
   126b8:	67492903          	lw	s2,1652(s2) # 20d28 <_GLOBAL_OFFSET_TABLE_+0x14>
   126bc:	0007a783          	lw	a5,0(a5)
   126c0:	00300493          	li	s1,3
   126c4:	02078463          	beqz	a5,126ec <_Z11gdb_handlerP11cpu_contextm+0x90>
   126c8:	00092783          	lw	a5,0(s2)
   126cc:	0007c503          	lbu	a0,0(a5)
   126d0:	0ff57513          	andi	a0,a0,255
   126d4:	04950e63          	beq	a0,s1,12730 <_Z11gdb_handlerP11cpu_contextm+0xd4>
   126d8:	ca0ff0ef          	jal	ra,11b78 <_Z16processgdbpacketc>
   126dc:	00042783          	lw	a5,0(s0)
   126e0:	0007a783          	lw	a5,0(a5)
   126e4:	fe0792e3          	bnez	a5,126c8 <_Z11gdb_handlerP11cpu_contextm+0x6c>
   126e8:	060a9063          	bnez	s5,12748 <_Z11gdb_handlerP11cpu_contextm+0xec>
   126ec:	0000e797          	auipc	a5,0xe
   126f0:	6387a783          	lw	a5,1592(a5) # 20d24 <_GLOBAL_OFFSET_TABLE_+0x10>
   126f4:	0007a703          	lw	a4,0(a5)
   126f8:	08071063          	bnez	a4,12778 <_Z11gdb_handlerP11cpu_contextm+0x11c>
   126fc:	44c12083          	lw	ra,1100(sp)
   12700:	44812403          	lw	s0,1096(sp)
   12704:	44412483          	lw	s1,1092(sp)
   12708:	44012903          	lw	s2,1088(sp)
   1270c:	43c12983          	lw	s3,1084(sp)
   12710:	43812a03          	lw	s4,1080(sp)
   12714:	43412a83          	lw	s5,1076(sp)
   12718:	43012b03          	lw	s6,1072(sp)
   1271c:	42c12b83          	lw	s7,1068(sp)
   12720:	42812c03          	lw	s8,1064(sp)
   12724:	00000513          	li	a0,0
   12728:	45010113          	addi	sp,sp,1104
   1272c:	00008067          	ret
   12730:	00300513          	li	a0,3
   12734:	c44ff0ef          	jal	ra,11b78 <_Z16processgdbpacketc>
   12738:	00042783          	lw	a5,0(s0)
   1273c:	00100a93          	li	s5,1
   12740:	0007a783          	lw	a5,0(a5)
   12744:	f80792e3          	bnez	a5,126c8 <_Z11gdb_handlerP11cpu_contextm+0x6c>
   12748:	0000e797          	auipc	a5,0xe
   1274c:	6507a783          	lw	a5,1616(a5) # 20d98 <_GLOBAL_OFFSET_TABLE_+0x84>
   12750:	0007a783          	lw	a5,0(a5)
   12754:	16000713          	li	a4,352
   12758:	02e787b3          	mul	a5,a5,a4
   1275c:	00100713          	li	a4,1
   12760:	00fa07b3          	add	a5,s4,a5
   12764:	14e7a823          	sw	a4,336(a5)
   12768:	0000e797          	auipc	a5,0xe
   1276c:	5bc7a783          	lw	a5,1468(a5) # 20d24 <_GLOBAL_OFFSET_TABLE_+0x10>
   12770:	0007a703          	lw	a4,0(a5)
   12774:	f80704e3          	beqz	a4,126fc <_Z11gdb_handlerP11cpu_contextm+0xa0>
   12778:	00a00613          	li	a2,10
   1277c:	00009597          	auipc	a1,0x9
   12780:	33858593          	addi	a1,a1,824 # 1bab4 <_conv_stat+0x908>
   12784:	0000e517          	auipc	a0,0xe
   12788:	5b452503          	lw	a0,1460(a0) # 20d38 <_GLOBAL_OFFSET_TABLE_+0x24>
   1278c:	0007a023          	sw	zero,0(a5)
   12790:	cbcff0ef          	jal	ra,11c4c <_Z10startswithPcPKci>
   12794:	00050413          	mv	s0,a0
   12798:	26051a63          	bnez	a0,12a0c <_Z11gdb_handlerP11cpu_contextm+0x3b0>
   1279c:	01400613          	li	a2,20
   127a0:	00009597          	auipc	a1,0x9
   127a4:	36458593          	addi	a1,a1,868 # 1bb04 <_conv_stat+0x958>
   127a8:	0000e517          	auipc	a0,0xe
   127ac:	59052503          	lw	a0,1424(a0) # 20d38 <_GLOBAL_OFFSET_TABLE_+0x24>
   127b0:	c9cff0ef          	jal	ra,11c4c <_Z10startswithPcPKci>
   127b4:	26050463          	beqz	a0,12a1c <_Z11gdb_handlerP11cpu_contextm+0x3c0>
   127b8:	0000e497          	auipc	s1,0xe
   127bc:	5804a483          	lw	s1,1408(s1) # 20d38 <_GLOBAL_OFFSET_TABLE_+0x24>
   127c0:	0144c703          	lbu	a4,20(s1)
   127c4:	02c00793          	li	a5,44
   127c8:	08f70863          	beq	a4,a5,12858 <_Z11gdb_handlerP11cpu_contextm+0x1fc>
   127cc:	0154c683          	lbu	a3,21(s1)
   127d0:	00e10a23          	sb	a4,20(sp)
   127d4:	2cf68c63          	beq	a3,a5,12aac <_Z11gdb_handlerP11cpu_contextm+0x450>
   127d8:	0164c703          	lbu	a4,22(s1)
   127dc:	00d10aa3          	sb	a3,21(sp)
   127e0:	2cf70a63          	beq	a4,a5,12ab4 <_Z11gdb_handlerP11cpu_contextm+0x458>
   127e4:	0174c683          	lbu	a3,23(s1)
   127e8:	00e10b23          	sb	a4,22(sp)
   127ec:	2cf68863          	beq	a3,a5,12abc <_Z11gdb_handlerP11cpu_contextm+0x460>
   127f0:	0184c703          	lbu	a4,24(s1)
   127f4:	00d10ba3          	sb	a3,23(sp)
   127f8:	2cf70663          	beq	a4,a5,12ac4 <_Z11gdb_handlerP11cpu_contextm+0x468>
   127fc:	0194c683          	lbu	a3,25(s1)
   12800:	00e10c23          	sb	a4,24(sp)
   12804:	2cf68463          	beq	a3,a5,12acc <_Z11gdb_handlerP11cpu_contextm+0x470>
   12808:	01a4c703          	lbu	a4,26(s1)
   1280c:	00d10ca3          	sb	a3,25(sp)
   12810:	28f70a63          	beq	a4,a5,12aa4 <_Z11gdb_handlerP11cpu_contextm+0x448>
   12814:	01b4c683          	lbu	a3,27(s1)
   12818:	00e10d23          	sb	a4,26(sp)
   1281c:	2af68c63          	beq	a3,a5,12ad4 <_Z11gdb_handlerP11cpu_contextm+0x478>
   12820:	01c4c703          	lbu	a4,28(s1)
   12824:	00d10da3          	sb	a3,27(sp)
   12828:	2af70a63          	beq	a4,a5,12adc <_Z11gdb_handlerP11cpu_contextm+0x480>
   1282c:	01d4c683          	lbu	a3,29(s1)
   12830:	00e10e23          	sb	a4,28(sp)
   12834:	2cf68e63          	beq	a3,a5,12b10 <_Z11gdb_handlerP11cpu_contextm+0x4b4>
   12838:	01e4c603          	lbu	a2,30(s1)
   1283c:	00d10ea3          	sb	a3,29(sp)
   12840:	2ef60063          	beq	a2,a5,12b20 <_Z11gdb_handlerP11cpu_contextm+0x4c4>
   12844:	01f4c703          	lbu	a4,31(s1)
   12848:	00c10f23          	sb	a2,30(sp)
   1284c:	2cf70663          	beq	a4,a5,12b18 <_Z11gdb_handlerP11cpu_contextm+0x4bc>
   12850:	00e10fa3          	sb	a4,31(sp)
   12854:	00c00413          	li	s0,12
   12858:	42010793          	addi	a5,sp,1056
   1285c:	00878433          	add	s0,a5,s0
   12860:	01410513          	addi	a0,sp,20
   12864:	be040a23          	sb	zero,-1036(s0)
   12868:	8d9ff0ef          	jal	ra,12140 <_Z7dec2intPc>
   1286c:	00050c13          	mv	s8,a0
   12870:	1c051463          	bnez	a0,12a38 <_Z11gdb_handlerP11cpu_contextm+0x3dc>
   12874:	02010493          	addi	s1,sp,32
   12878:	00048513          	mv	a0,s1
   1287c:	334070ef          	jal	ra,19bb0 <strlen>
   12880:	02200613          	li	a2,34
   12884:	00009597          	auipc	a1,0x9
   12888:	29858593          	addi	a1,a1,664 # 1bb1c <_conv_stat+0x970>
   1288c:	00a48533          	add	a0,s1,a0
   12890:	6e8060ef          	jal	ra,18f78 <memcpy>
   12894:	00810a93          	addi	s5,sp,8
   12898:	00009417          	auipc	s0,0x9
   1289c:	2b440413          	addi	s0,s0,692 # 1bb4c <_conv_stat+0x9a0>
   128a0:	00009b97          	auipc	s7,0x9
   128a4:	2bcb8b93          	addi	s7,s7,700 # 1bb5c <_conv_stat+0x9b0>
   128a8:	00009b17          	auipc	s6,0x9
   128ac:	2c8b0b13          	addi	s6,s6,712 # 1bb70 <_conv_stat+0x9c4>
   128b0:	0c098e63          	beqz	s3,1298c <_Z11gdb_handlerP11cpu_contextm+0x330>
   128b4:	001c0c13          	addi	s8,s8,1
   128b8:	000a8593          	mv	a1,s5
   128bc:	000c0513          	mv	a0,s8
   128c0:	c30ff0ef          	jal	ra,11cf0 <_Z8uint2decmPc>
   128c4:	00048513          	mv	a0,s1
   128c8:	2e8070ef          	jal	ra,19bb0 <strlen>
   128cc:	00044383          	lbu	t2,0(s0)
   128d0:	00144283          	lbu	t0,1(s0)
   128d4:	00244f83          	lbu	t6,2(s0)
   128d8:	00344f03          	lbu	t5,3(s0)
   128dc:	00444e83          	lbu	t4,4(s0)
   128e0:	00544e03          	lbu	t3,5(s0)
   128e4:	00644303          	lbu	t1,6(s0)
   128e8:	00744883          	lbu	a7,7(s0)
   128ec:	00844803          	lbu	a6,8(s0)
   128f0:	00a44683          	lbu	a3,10(s0)
   128f4:	00b44703          	lbu	a4,11(s0)
   128f8:	00944603          	lbu	a2,9(s0)
   128fc:	00a487b3          	add	a5,s1,a0
   12900:	00c50913          	addi	s2,a0,12
   12904:	00c784a3          	sb	a2,9(a5)
   12908:	00778023          	sb	t2,0(a5)
   1290c:	005780a3          	sb	t0,1(a5)
   12910:	01f78123          	sb	t6,2(a5)
   12914:	01e781a3          	sb	t5,3(a5)
   12918:	01d78223          	sb	t4,4(a5)
   1291c:	01c782a3          	sb	t3,5(a5)
   12920:	00678323          	sb	t1,6(a5)
   12924:	011783a3          	sb	a7,7(a5)
   12928:	01078423          	sb	a6,8(a5)
   1292c:	00d78523          	sb	a3,10(a5)
   12930:	00e785a3          	sb	a4,11(a5)
   12934:	000a8593          	mv	a1,s5
   12938:	01248533          	add	a0,s1,s2
   1293c:	258070ef          	jal	ra,19b94 <strcpy>
   12940:	00048513          	mv	a0,s1
   12944:	26c070ef          	jal	ra,19bb0 <strlen>
   12948:	01200613          	li	a2,18
   1294c:	00050913          	mv	s2,a0
   12950:	000b8593          	mv	a1,s7
   12954:	00a48533          	add	a0,s1,a0
   12958:	620060ef          	jal	ra,18f78 <memcpy>
   1295c:	000a2583          	lw	a1,0(s4)
   12960:	01190513          	addi	a0,s2,17
   12964:	00a48533          	add	a0,s1,a0
   12968:	22c070ef          	jal	ra,19b94 <strcpy>
   1296c:	00048513          	mv	a0,s1
   12970:	240070ef          	jal	ra,19bb0 <strlen>
   12974:	00d00613          	li	a2,13
   12978:	000b0593          	mv	a1,s6
   1297c:	00a48533          	add	a0,s1,a0
   12980:	5f8060ef          	jal	ra,18f78 <memcpy>
   12984:	160a0a13          	addi	s4,s4,352
   12988:	f33c16e3          	bne	s8,s3,128b4 <_Z11gdb_handlerP11cpu_contextm+0x258>
   1298c:	00048513          	mv	a0,s1
   12990:	220070ef          	jal	ra,19bb0 <strlen>
   12994:	00009797          	auipc	a5,0x9
   12998:	1ac78793          	addi	a5,a5,428 # 1bb40 <_conv_stat+0x994>
   1299c:	0007c283          	lbu	t0,0(a5)
   129a0:	0017cf83          	lbu	t6,1(a5)
   129a4:	0027cf03          	lbu	t5,2(a5)
   129a8:	0037ce83          	lbu	t4,3(a5)
   129ac:	0047ce03          	lbu	t3,4(a5)
   129b0:	0057c303          	lbu	t1,5(a5)
   129b4:	0067c883          	lbu	a7,6(a5)
   129b8:	0077c803          	lbu	a6,7(a5)
   129bc:	0087c583          	lbu	a1,8(a5)
   129c0:	0097c603          	lbu	a2,9(a5)
   129c4:	00a7c683          	lbu	a3,10(a5)
   129c8:	00b7c703          	lbu	a4,11(a5)
   129cc:	00a487b3          	add	a5,s1,a0
   129d0:	00578023          	sb	t0,0(a5)
   129d4:	00048513          	mv	a0,s1
   129d8:	01f780a3          	sb	t6,1(a5)
   129dc:	01e78123          	sb	t5,2(a5)
   129e0:	01d781a3          	sb	t4,3(a5)
   129e4:	01c78223          	sb	t3,4(a5)
   129e8:	006782a3          	sb	t1,5(a5)
   129ec:	01178323          	sb	a7,6(a5)
   129f0:	010783a3          	sb	a6,7(a5)
   129f4:	00b78423          	sb	a1,8(a5)
   129f8:	00c784a3          	sb	a2,9(a5)
   129fc:	00d78523          	sb	a3,10(a5)
   12a00:	00e785a3          	sb	a4,11(a5)
   12a04:	ee0ff0ef          	jal	ra,120e4 <_Z15SendDebugPacketPKc>
   12a08:	cf5ff06f          	j	126fc <_Z11gdb_handlerP11cpu_contextm+0xa0>
   12a0c:	00009517          	auipc	a0,0x9
   12a10:	0b450513          	addi	a0,a0,180 # 1bac0 <_conv_stat+0x914>
   12a14:	ed0ff0ef          	jal	ra,120e4 <_Z15SendDebugPacketPKc>
   12a18:	ce5ff06f          	j	126fc <_Z11gdb_handlerP11cpu_contextm+0xa0>
   12a1c:	00f00613          	li	a2,15
   12a20:	00009597          	auipc	a1,0x9
   12a24:	16058593          	addi	a1,a1,352 # 1bb80 <_conv_stat+0x9d4>
   12a28:	0000e517          	auipc	a0,0xe
   12a2c:	31052503          	lw	a0,784(a0) # 20d38 <_GLOBAL_OFFSET_TABLE_+0x24>
   12a30:	a1cff0ef          	jal	ra,11c4c <_Z10startswithPcPKci>
   12a34:	00050a63          	beqz	a0,12a48 <_Z11gdb_handlerP11cpu_contextm+0x3ec>
   12a38:	00009517          	auipc	a0,0x9
   12a3c:	aa450513          	addi	a0,a0,-1372 # 1b4dc <_conv_stat+0x330>
   12a40:	ea4ff0ef          	jal	ra,120e4 <_Z15SendDebugPacketPKc>
   12a44:	cb9ff06f          	j	126fc <_Z11gdb_handlerP11cpu_contextm+0xa0>
   12a48:	00800613          	li	a2,8
   12a4c:	00009597          	auipc	a1,0x9
   12a50:	14458593          	addi	a1,a1,324 # 1bb90 <_conv_stat+0x9e4>
   12a54:	0000e517          	auipc	a0,0xe
   12a58:	2e452503          	lw	a0,740(a0) # 20d38 <_GLOBAL_OFFSET_TABLE_+0x24>
   12a5c:	9f0ff0ef          	jal	ra,11c4c <_Z10startswithPcPKci>
   12a60:	fc051ce3          	bnez	a0,12a38 <_Z11gdb_handlerP11cpu_contextm+0x3dc>
   12a64:	00100613          	li	a2,1
   12a68:	00009597          	auipc	a1,0x9
   12a6c:	13458593          	addi	a1,a1,308 # 1bb9c <_conv_stat+0x9f0>
   12a70:	0000e517          	auipc	a0,0xe
   12a74:	2c852503          	lw	a0,712(a0) # 20d38 <_GLOBAL_OFFSET_TABLE_+0x24>
   12a78:	9d4ff0ef          	jal	ra,11c4c <_Z10startswithPcPKci>
   12a7c:	06050463          	beqz	a0,12ae4 <_Z11gdb_handlerP11cpu_contextm+0x488>
   12a80:	0000e797          	auipc	a5,0xe
   12a84:	3187a783          	lw	a5,792(a5) # 20d98 <_GLOBAL_OFFSET_TABLE_+0x84>
   12a88:	0007a783          	lw	a5,0(a5)
   12a8c:	16000713          	li	a4,352
   12a90:	02e787b3          	mul	a5,a5,a4
   12a94:	00fa0a33          	add	s4,s4,a5
   12a98:	00100793          	li	a5,1
   12a9c:	14fa2823          	sw	a5,336(s4)
   12aa0:	c5dff06f          	j	126fc <_Z11gdb_handlerP11cpu_contextm+0xa0>
   12aa4:	00600413          	li	s0,6
   12aa8:	db1ff06f          	j	12858 <_Z11gdb_handlerP11cpu_contextm+0x1fc>
   12aac:	00100413          	li	s0,1
   12ab0:	da9ff06f          	j	12858 <_Z11gdb_handlerP11cpu_contextm+0x1fc>
   12ab4:	00200413          	li	s0,2
   12ab8:	da1ff06f          	j	12858 <_Z11gdb_handlerP11cpu_contextm+0x1fc>
   12abc:	00300413          	li	s0,3
   12ac0:	d99ff06f          	j	12858 <_Z11gdb_handlerP11cpu_contextm+0x1fc>
   12ac4:	00400413          	li	s0,4
   12ac8:	d91ff06f          	j	12858 <_Z11gdb_handlerP11cpu_contextm+0x1fc>
   12acc:	00500413          	li	s0,5
   12ad0:	d89ff06f          	j	12858 <_Z11gdb_handlerP11cpu_contextm+0x1fc>
   12ad4:	00700413          	li	s0,7
   12ad8:	d81ff06f          	j	12858 <_Z11gdb_handlerP11cpu_contextm+0x1fc>
   12adc:	00800413          	li	s0,8
   12ae0:	d79ff06f          	j	12858 <_Z11gdb_handlerP11cpu_contextm+0x1fc>
   12ae4:	00c00613          	li	a2,12
   12ae8:	00009597          	auipc	a1,0x9
   12aec:	0b858593          	addi	a1,a1,184 # 1bba0 <_conv_stat+0x9f4>
   12af0:	0000e517          	auipc	a0,0xe
   12af4:	24852503          	lw	a0,584(a0) # 20d38 <_GLOBAL_OFFSET_TABLE_+0x24>
   12af8:	954ff0ef          	jal	ra,11c4c <_Z10startswithPcPKci>
   12afc:	02050663          	beqz	a0,12b28 <_Z11gdb_handlerP11cpu_contextm+0x4cc>
   12b00:	00009517          	auipc	a0,0x9
   12b04:	0b050513          	addi	a0,a0,176 # 1bbb0 <_conv_stat+0xa04>
   12b08:	ddcff0ef          	jal	ra,120e4 <_Z15SendDebugPacketPKc>
   12b0c:	bf1ff06f          	j	126fc <_Z11gdb_handlerP11cpu_contextm+0xa0>
   12b10:	00900413          	li	s0,9
   12b14:	d45ff06f          	j	12858 <_Z11gdb_handlerP11cpu_contextm+0x1fc>
   12b18:	00b00413          	li	s0,11
   12b1c:	d3dff06f          	j	12858 <_Z11gdb_handlerP11cpu_contextm+0x1fc>
   12b20:	00a00413          	li	s0,10
   12b24:	d35ff06f          	j	12858 <_Z11gdb_handlerP11cpu_contextm+0x1fc>
   12b28:	00700613          	li	a2,7
   12b2c:	00009597          	auipc	a1,0x9
   12b30:	08858593          	addi	a1,a1,136 # 1bbb4 <_conv_stat+0xa08>
   12b34:	0000e517          	auipc	a0,0xe
   12b38:	20452503          	lw	a0,516(a0) # 20d38 <_GLOBAL_OFFSET_TABLE_+0x24>
   12b3c:	910ff0ef          	jal	ra,11c4c <_Z10startswithPcPKci>
   12b40:	12051e63          	bnez	a0,12c7c <_Z11gdb_handlerP11cpu_contextm+0x620>
   12b44:	00900613          	li	a2,9
   12b48:	00009597          	auipc	a1,0x9
   12b4c:	07858593          	addi	a1,a1,120 # 1bbc0 <_conv_stat+0xa14>
   12b50:	0000e517          	auipc	a0,0xe
   12b54:	1e852503          	lw	a0,488(a0) # 20d38 <_GLOBAL_OFFSET_TABLE_+0x24>
   12b58:	8f4ff0ef          	jal	ra,11c4c <_Z10startswithPcPKci>
   12b5c:	12050863          	beqz	a0,12c8c <_Z11gdb_handlerP11cpu_contextm+0x630>
   12b60:	00009517          	auipc	a0,0x9
   12b64:	06c50513          	addi	a0,a0,108 # 1bbcc <_conv_stat+0xa20>
   12b68:	d7cff0ef          	jal	ra,120e4 <_Z15SendDebugPacketPKc>
   12b6c:	b91ff06f          	j	126fc <_Z11gdb_handlerP11cpu_contextm+0xa0>
   12b70:	00100613          	li	a2,1
   12b74:	00009597          	auipc	a1,0x9
   12b78:	0b458593          	addi	a1,a1,180 # 1bc28 <_conv_stat+0xa7c>
   12b7c:	0000e517          	auipc	a0,0xe
   12b80:	1bc52503          	lw	a0,444(a0) # 20d38 <_GLOBAL_OFFSET_TABLE_+0x24>
   12b84:	8c8ff0ef          	jal	ra,11c4c <_Z10startswithPcPKci>
   12b88:	ea0518e3          	bnez	a0,12a38 <_Z11gdb_handlerP11cpu_contextm+0x3dc>
   12b8c:	00100613          	li	a2,1
   12b90:	00009597          	auipc	a1,0x9
   12b94:	09c58593          	addi	a1,a1,156 # 1bc2c <_conv_stat+0xa80>
   12b98:	0000e517          	auipc	a0,0xe
   12b9c:	1a052503          	lw	a0,416(a0) # 20d38 <_GLOBAL_OFFSET_TABLE_+0x24>
   12ba0:	8acff0ef          	jal	ra,11c4c <_Z10startswithPcPKci>
   12ba4:	3a050463          	beqz	a0,12f4c <_Z11gdb_handlerP11cpu_contextm+0x8f0>
   12ba8:	00810a93          	addi	s5,sp,8
   12bac:	000a8713          	mv	a4,s5
   12bb0:	00100913          	li	s2,1
   12bb4:	0000e497          	auipc	s1,0xe
   12bb8:	1844a483          	lw	s1,388(s1) # 20d38 <_GLOBAL_OFFSET_TABLE_+0x24>
   12bbc:	02c00613          	li	a2,44
   12bc0:	00c0006f          	j	12bcc <_Z11gdb_handlerP11cpu_contextm+0x570>
   12bc4:	00d70023          	sb	a3,0(a4)
   12bc8:	00170713          	addi	a4,a4,1
   12bcc:	012487b3          	add	a5,s1,s2
   12bd0:	0007c683          	lbu	a3,0(a5)
   12bd4:	fff90793          	addi	a5,s2,-1
   12bd8:	00190913          	addi	s2,s2,1
   12bdc:	fec694e3          	bne	a3,a2,12bc4 <_Z11gdb_handlerP11cpu_contextm+0x568>
   12be0:	42010713          	addi	a4,sp,1056
   12be4:	00f707b3          	add	a5,a4,a5
   12be8:	be078423          	sb	zero,-1048(a5)
   12bec:	01410413          	addi	s0,sp,20
   12bf0:	00000793          	li	a5,0
   12bf4:	03a00693          	li	a3,58
   12bf8:	00c0006f          	j	12c04 <_Z11gdb_handlerP11cpu_contextm+0x5a8>
   12bfc:	00e60023          	sb	a4,0(a2)
   12c00:	00178793          	addi	a5,a5,1
   12c04:	01248733          	add	a4,s1,s2
   12c08:	00074703          	lbu	a4,0(a4)
   12c0c:	00f40633          	add	a2,s0,a5
   12c10:	00190913          	addi	s2,s2,1
   12c14:	fed714e3          	bne	a4,a3,12bfc <_Z11gdb_handlerP11cpu_contextm+0x5a0>
   12c18:	42010713          	addi	a4,sp,1056
   12c1c:	00f707b3          	add	a5,a4,a5
   12c20:	be078a23          	sb	zero,-1036(a5)
   12c24:	000a8513          	mv	a0,s5
   12c28:	d6cff0ef          	jal	ra,12194 <_Z7hex2intPc>
   12c2c:	00050a13          	mv	s4,a0
   12c30:	00040513          	mv	a0,s0
   12c34:	d0cff0ef          	jal	ra,12140 <_Z7dec2intPc>
   12c38:	012484b3          	add	s1,s1,s2
   12c3c:	00050993          	mv	s3,a0
   12c40:	00010323          	sb	zero,6(sp)
   12c44:	00000413          	li	s0,0
   12c48:	00410913          	addi	s2,sp,4
   12c4c:	0280006f          	j	12c74 <_Z11gdb_handlerP11cpu_contextm+0x618>
   12c50:	0014c783          	lbu	a5,1(s1)
   12c54:	0004c703          	lbu	a4,0(s1)
   12c58:	00248493          	addi	s1,s1,2
   12c5c:	00f102a3          	sb	a5,5(sp)
   12c60:	00e10223          	sb	a4,4(sp)
   12c64:	d30ff0ef          	jal	ra,12194 <_Z7hex2intPc>
   12c68:	014407b3          	add	a5,s0,s4
   12c6c:	00a78023          	sb	a0,0(a5)
   12c70:	00140413          	addi	s0,s0,1
   12c74:	00090513          	mv	a0,s2
   12c78:	fd341ce3          	bne	s0,s3,12c50 <_Z11gdb_handlerP11cpu_contextm+0x5f4>
   12c7c:	00009517          	auipc	a0,0x9
   12c80:	f4050513          	addi	a0,a0,-192 # 1bbbc <_conv_stat+0xa10>
   12c84:	c60ff0ef          	jal	ra,120e4 <_Z15SendDebugPacketPKc>
   12c88:	a75ff06f          	j	126fc <_Z11gdb_handlerP11cpu_contextm+0xa0>
   12c8c:	00800613          	li	a2,8
   12c90:	00009597          	auipc	a1,0x9
   12c94:	f4058593          	addi	a1,a1,-192 # 1bbd0 <_conv_stat+0xa24>
   12c98:	0000e517          	auipc	a0,0xe
   12c9c:	0a052503          	lw	a0,160(a0) # 20d38 <_GLOBAL_OFFSET_TABLE_+0x24>
   12ca0:	fadfe0ef          	jal	ra,11c4c <_Z10startswithPcPKci>
   12ca4:	00050a63          	beqz	a0,12cb8 <_Z11gdb_handlerP11cpu_contextm+0x65c>
   12ca8:	00009517          	auipc	a0,0x9
   12cac:	f3450513          	addi	a0,a0,-204 # 1bbdc <_conv_stat+0xa30>
   12cb0:	c34ff0ef          	jal	ra,120e4 <_Z15SendDebugPacketPKc>
   12cb4:	a49ff06f          	j	126fc <_Z11gdb_handlerP11cpu_contextm+0xa0>
   12cb8:	00600613          	li	a2,6
   12cbc:	00009597          	auipc	a1,0x9
   12cc0:	f3458593          	addi	a1,a1,-204 # 1bbf0 <_conv_stat+0xa44>
   12cc4:	0000e517          	auipc	a0,0xe
   12cc8:	07452503          	lw	a0,116(a0) # 20d38 <_GLOBAL_OFFSET_TABLE_+0x24>
   12ccc:	f81fe0ef          	jal	ra,11c4c <_Z10startswithPcPKci>
   12cd0:	fa0516e3          	bnez	a0,12c7c <_Z11gdb_handlerP11cpu_contextm+0x620>
   12cd4:	00600613          	li	a2,6
   12cd8:	00009597          	auipc	a1,0x9
   12cdc:	f2058593          	addi	a1,a1,-224 # 1bbf8 <_conv_stat+0xa4c>
   12ce0:	0000e517          	auipc	a0,0xe
   12ce4:	05852503          	lw	a0,88(a0) # 20d38 <_GLOBAL_OFFSET_TABLE_+0x24>
   12ce8:	f65fe0ef          	jal	ra,11c4c <_Z10startswithPcPKci>
   12cec:	00050a63          	beqz	a0,12d00 <_Z11gdb_handlerP11cpu_contextm+0x6a4>
   12cf0:	00009517          	auipc	a0,0x9
   12cf4:	f1050513          	addi	a0,a0,-240 # 1bc00 <_conv_stat+0xa54>
   12cf8:	becff0ef          	jal	ra,120e4 <_Z15SendDebugPacketPKc>
   12cfc:	a01ff06f          	j	126fc <_Z11gdb_handlerP11cpu_contextm+0xa0>
   12d00:	00200613          	li	a2,2
   12d04:	00009597          	auipc	a1,0x9
   12d08:	f0858593          	addi	a1,a1,-248 # 1bc0c <_conv_stat+0xa60>
   12d0c:	0000e517          	auipc	a0,0xe
   12d10:	02c52503          	lw	a0,44(a0) # 20d38 <_GLOBAL_OFFSET_TABLE_+0x24>
   12d14:	f39fe0ef          	jal	ra,11c4c <_Z10startswithPcPKci>
   12d18:	d20510e3          	bnez	a0,12a38 <_Z11gdb_handlerP11cpu_contextm+0x3dc>
   12d1c:	00200613          	li	a2,2
   12d20:	00009597          	auipc	a1,0x9
   12d24:	ef058593          	addi	a1,a1,-272 # 1bc10 <_conv_stat+0xa64>
   12d28:	0000e517          	auipc	a0,0xe
   12d2c:	01052503          	lw	a0,16(a0) # 20d38 <_GLOBAL_OFFSET_TABLE_+0x24>
   12d30:	f1dfe0ef          	jal	ra,11c4c <_Z10startswithPcPKci>
   12d34:	d00512e3          	bnez	a0,12a38 <_Z11gdb_handlerP11cpu_contextm+0x3dc>
   12d38:	00200613          	li	a2,2
   12d3c:	00009597          	auipc	a1,0x9
   12d40:	ed858593          	addi	a1,a1,-296 # 1bc14 <_conv_stat+0xa68>
   12d44:	0000e517          	auipc	a0,0xe
   12d48:	ff452503          	lw	a0,-12(a0) # 20d38 <_GLOBAL_OFFSET_TABLE_+0x24>
   12d4c:	f01fe0ef          	jal	ra,11c4c <_Z10startswithPcPKci>
   12d50:	ce0514e3          	bnez	a0,12a38 <_Z11gdb_handlerP11cpu_contextm+0x3dc>
   12d54:	00300613          	li	a2,3
   12d58:	00009597          	auipc	a1,0x9
   12d5c:	ec058593          	addi	a1,a1,-320 # 1bc18 <_conv_stat+0xa6c>
   12d60:	0000e517          	auipc	a0,0xe
   12d64:	fd852503          	lw	a0,-40(a0) # 20d38 <_GLOBAL_OFFSET_TABLE_+0x24>
   12d68:	ee5fe0ef          	jal	ra,11c4c <_Z10startswithPcPKci>
   12d6c:	06050c63          	beqz	a0,12de4 <_Z11gdb_handlerP11cpu_contextm+0x788>
   12d70:	0000e717          	auipc	a4,0xe
   12d74:	fc872703          	lw	a4,-56(a4) # 20d38 <_GLOBAL_OFFSET_TABLE_+0x24>
   12d78:	00000793          	li	a5,0
   12d7c:	01410413          	addi	s0,sp,20
   12d80:	02c00613          	li	a2,44
   12d84:	00c0006f          	j	12d90 <_Z11gdb_handlerP11cpu_contextm+0x734>
   12d88:	00d58023          	sb	a3,0(a1)
   12d8c:	00178793          	addi	a5,a5,1
   12d90:	00374683          	lbu	a3,3(a4)
   12d94:	00f405b3          	add	a1,s0,a5
   12d98:	00170713          	addi	a4,a4,1
   12d9c:	fec696e3          	bne	a3,a2,12d88 <_Z11gdb_handlerP11cpu_contextm+0x72c>
   12da0:	42010713          	addi	a4,sp,1056
   12da4:	00f707b3          	add	a5,a4,a5
   12da8:	00040513          	mv	a0,s0
   12dac:	be078a23          	sb	zero,-1036(a5)
   12db0:	be4ff0ef          	jal	ra,12194 <_Z7hex2intPc>
   12db4:	0000e797          	auipc	a5,0xe
   12db8:	fe47a783          	lw	a5,-28(a5) # 20d98 <_GLOBAL_OFFSET_TABLE_+0x84>
   12dbc:	0007a783          	lw	a5,0(a5)
   12dc0:	00050593          	mv	a1,a0
   12dc4:	16000513          	li	a0,352
   12dc8:	02f50533          	mul	a0,a0,a5
   12dcc:	00aa0533          	add	a0,s4,a0
   12dd0:	c30ff0ef          	jal	ra,12200 <_Z16RemoveBreakPointR11cpu_contextm>
   12dd4:	00009517          	auipc	a0,0x9
   12dd8:	de850513          	addi	a0,a0,-536 # 1bbbc <_conv_stat+0xa10>
   12ddc:	b08ff0ef          	jal	ra,120e4 <_Z15SendDebugPacketPKc>
   12de0:	91dff06f          	j	126fc <_Z11gdb_handlerP11cpu_contextm+0xa0>
   12de4:	00300613          	li	a2,3
   12de8:	00009597          	auipc	a1,0x9
   12dec:	e3458593          	addi	a1,a1,-460 # 1bc1c <_conv_stat+0xa70>
   12df0:	0000e517          	auipc	a0,0xe
   12df4:	f4852503          	lw	a0,-184(a0) # 20d38 <_GLOBAL_OFFSET_TABLE_+0x24>
   12df8:	e55fe0ef          	jal	ra,11c4c <_Z10startswithPcPKci>
   12dfc:	06050c63          	beqz	a0,12e74 <_Z11gdb_handlerP11cpu_contextm+0x818>
   12e00:	0000e717          	auipc	a4,0xe
   12e04:	f3872703          	lw	a4,-200(a4) # 20d38 <_GLOBAL_OFFSET_TABLE_+0x24>
   12e08:	00000793          	li	a5,0
   12e0c:	01410413          	addi	s0,sp,20
   12e10:	02c00613          	li	a2,44
   12e14:	00c0006f          	j	12e20 <_Z11gdb_handlerP11cpu_contextm+0x7c4>
   12e18:	00d58023          	sb	a3,0(a1)
   12e1c:	00178793          	addi	a5,a5,1
   12e20:	00374683          	lbu	a3,3(a4)
   12e24:	00f405b3          	add	a1,s0,a5
   12e28:	00170713          	addi	a4,a4,1
   12e2c:	fec696e3          	bne	a3,a2,12e18 <_Z11gdb_handlerP11cpu_contextm+0x7bc>
   12e30:	42010713          	addi	a4,sp,1056
   12e34:	00f707b3          	add	a5,a4,a5
   12e38:	00040513          	mv	a0,s0
   12e3c:	be078a23          	sb	zero,-1036(a5)
   12e40:	b54ff0ef          	jal	ra,12194 <_Z7hex2intPc>
   12e44:	0000e797          	auipc	a5,0xe
   12e48:	f547a783          	lw	a5,-172(a5) # 20d98 <_GLOBAL_OFFSET_TABLE_+0x84>
   12e4c:	0007a783          	lw	a5,0(a5)
   12e50:	00050593          	mv	a1,a0
   12e54:	16000513          	li	a0,352
   12e58:	02f50533          	mul	a0,a0,a5
   12e5c:	00aa0533          	add	a0,s4,a0
   12e60:	f40ff0ef          	jal	ra,125a0 <_Z13AddBreakPointR11cpu_contextm>
   12e64:	00009517          	auipc	a0,0x9
   12e68:	d5850513          	addi	a0,a0,-680 # 1bbbc <_conv_stat+0xa10>
   12e6c:	a78ff0ef          	jal	ra,120e4 <_Z15SendDebugPacketPKc>
   12e70:	88dff06f          	j	126fc <_Z11gdb_handlerP11cpu_contextm+0xa0>
   12e74:	00100613          	li	a2,1
   12e78:	00009597          	auipc	a1,0x9
   12e7c:	da858593          	addi	a1,a1,-600 # 1bc20 <_conv_stat+0xa74>
   12e80:	0000e517          	auipc	a0,0xe
   12e84:	eb852503          	lw	a0,-328(a0) # 20d38 <_GLOBAL_OFFSET_TABLE_+0x24>
   12e88:	dc5fe0ef          	jal	ra,11c4c <_Z10startswithPcPKci>
   12e8c:	02050263          	beqz	a0,12eb0 <_Z11gdb_handlerP11cpu_contextm+0x854>
   12e90:	0000e797          	auipc	a5,0xe
   12e94:	f087a783          	lw	a5,-248(a5) # 20d98 <_GLOBAL_OFFSET_TABLE_+0x84>
   12e98:	0007a783          	lw	a5,0(a5)
   12e9c:	16000513          	li	a0,352
   12ea0:	02f50533          	mul	a0,a0,a5
   12ea4:	00aa0533          	add	a0,s4,a0
   12ea8:	990ff0ef          	jal	ra,12038 <_Z24SendDebugPacketRegistersR11cpu_context>
   12eac:	851ff06f          	j	126fc <_Z11gdb_handlerP11cpu_contextm+0xa0>
   12eb0:	00100613          	li	a2,1
   12eb4:	00009597          	auipc	a1,0x9
   12eb8:	d7058593          	addi	a1,a1,-656 # 1bc24 <_conv_stat+0xa78>
   12ebc:	0000e517          	auipc	a0,0xe
   12ec0:	e7c52503          	lw	a0,-388(a0) # 20d38 <_GLOBAL_OFFSET_TABLE_+0x24>
   12ec4:	d89fe0ef          	jal	ra,11c4c <_Z10startswithPcPKci>
   12ec8:	ca0504e3          	beqz	a0,12b70 <_Z11gdb_handlerP11cpu_contextm+0x514>
   12ecc:	0000e717          	auipc	a4,0xe
   12ed0:	e6c72703          	lw	a4,-404(a4) # 20d38 <_GLOBAL_OFFSET_TABLE_+0x24>
   12ed4:	00000793          	li	a5,0
   12ed8:	00810a93          	addi	s5,sp,8
   12edc:	02300613          	li	a2,35
   12ee0:	00c0006f          	j	12eec <_Z11gdb_handlerP11cpu_contextm+0x890>
   12ee4:	00d58023          	sb	a3,0(a1)
   12ee8:	00178793          	addi	a5,a5,1
   12eec:	00174683          	lbu	a3,1(a4)
   12ef0:	00fa85b3          	add	a1,s5,a5
   12ef4:	00170713          	addi	a4,a4,1
   12ef8:	fec696e3          	bne	a3,a2,12ee4 <_Z11gdb_handlerP11cpu_contextm+0x888>
   12efc:	42010713          	addi	a4,sp,1056
   12f00:	00f707b3          	add	a5,a4,a5
   12f04:	000a8513          	mv	a0,s5
   12f08:	be078423          	sb	zero,-1048(a5)
   12f0c:	a88ff0ef          	jal	ra,12194 <_Z7hex2intPc>
   12f10:	0000e797          	auipc	a5,0xe
   12f14:	e887a783          	lw	a5,-376(a5) # 20d98 <_GLOBAL_OFFSET_TABLE_+0x84>
   12f18:	0007a783          	lw	a5,0(a5)
   12f1c:	16000693          	li	a3,352
   12f20:	00251713          	slli	a4,a0,0x2
   12f24:	02d787b3          	mul	a5,a5,a3
   12f28:	01410413          	addi	s0,sp,20
   12f2c:	00040593          	mv	a1,s0
   12f30:	00fa07b3          	add	a5,s4,a5
   12f34:	00e787b3          	add	a5,a5,a4
   12f38:	0047a503          	lw	a0,4(a5)
   12f3c:	824ff0ef          	jal	ra,11f60 <_Z29int2architectureorderedstringmPc>
   12f40:	00040513          	mv	a0,s0
   12f44:	9a0ff0ef          	jal	ra,120e4 <_Z15SendDebugPacketPKc>
   12f48:	fb4ff06f          	j	126fc <_Z11gdb_handlerP11cpu_contextm+0xa0>
   12f4c:	00100613          	li	a2,1
   12f50:	00009597          	auipc	a1,0x9
   12f54:	ce058593          	addi	a1,a1,-800 # 1bc30 <_conv_stat+0xa84>
   12f58:	0000e517          	auipc	a0,0xe
   12f5c:	de052503          	lw	a0,-544(a0) # 20d38 <_GLOBAL_OFFSET_TABLE_+0x24>
   12f60:	cedfe0ef          	jal	ra,11c4c <_Z10startswithPcPKci>
   12f64:	0c050863          	beqz	a0,13034 <_Z11gdb_handlerP11cpu_contextm+0x9d8>
   12f68:	00810a93          	addi	s5,sp,8
   12f6c:	000a8693          	mv	a3,s5
   12f70:	00100713          	li	a4,1
   12f74:	0000e497          	auipc	s1,0xe
   12f78:	dc44a483          	lw	s1,-572(s1) # 20d38 <_GLOBAL_OFFSET_TABLE_+0x24>
   12f7c:	02c00593          	li	a1,44
   12f80:	00c0006f          	j	12f8c <_Z11gdb_handlerP11cpu_contextm+0x930>
   12f84:	00c68023          	sb	a2,0(a3)
   12f88:	00168693          	addi	a3,a3,1
   12f8c:	00e487b3          	add	a5,s1,a4
   12f90:	0007c603          	lbu	a2,0(a5)
   12f94:	fff70793          	addi	a5,a4,-1
   12f98:	00170713          	addi	a4,a4,1
   12f9c:	feb614e3          	bne	a2,a1,12f84 <_Z11gdb_handlerP11cpu_contextm+0x928>
   12fa0:	42010693          	addi	a3,sp,1056
   12fa4:	00f687b3          	add	a5,a3,a5
   12fa8:	be078423          	sb	zero,-1048(a5)
   12fac:	01410413          	addi	s0,sp,20
   12fb0:	00000793          	li	a5,0
   12fb4:	02300613          	li	a2,35
   12fb8:	00c0006f          	j	12fc4 <_Z11gdb_handlerP11cpu_contextm+0x968>
   12fbc:	00d58023          	sb	a3,0(a1)
   12fc0:	00178793          	addi	a5,a5,1
   12fc4:	00f706b3          	add	a3,a4,a5
   12fc8:	00d486b3          	add	a3,s1,a3
   12fcc:	0006c683          	lbu	a3,0(a3)
   12fd0:	00f405b3          	add	a1,s0,a5
   12fd4:	fec694e3          	bne	a3,a2,12fbc <_Z11gdb_handlerP11cpu_contextm+0x960>
   12fd8:	42010713          	addi	a4,sp,1056
   12fdc:	00f707b3          	add	a5,a4,a5
   12fe0:	be078a23          	sb	zero,-1036(a5)
   12fe4:	000a8513          	mv	a0,s5
   12fe8:	9acff0ef          	jal	ra,12194 <_Z7hex2intPc>
   12fec:	00050a13          	mv	s4,a0
   12ff0:	00040513          	mv	a0,s0
   12ff4:	02010493          	addi	s1,sp,32
   12ff8:	948ff0ef          	jal	ra,12140 <_Z7dec2intPc>
   12ffc:	00050993          	mv	s3,a0
   13000:	00048913          	mv	s2,s1
   13004:	00000413          	li	s0,0
   13008:	0140006f          	j	1301c <_Z11gdb_handlerP11cpu_contextm+0x9c0>
   1300c:	0007c503          	lbu	a0,0(a5)
   13010:	00140413          	addi	s0,s0,1
   13014:	00290913          	addi	s2,s2,2
   13018:	ff1fe0ef          	jal	ra,12008 <_Z30byte2architectureorderedstringhPc>
   1301c:	014407b3          	add	a5,s0,s4
   13020:	00090593          	mv	a1,s2
   13024:	ff3414e3          	bne	s0,s3,1300c <_Z11gdb_handlerP11cpu_contextm+0x9b0>
   13028:	00048513          	mv	a0,s1
   1302c:	8b8ff0ef          	jal	ra,120e4 <_Z15SendDebugPacketPKc>
   13030:	eccff06f          	j	126fc <_Z11gdb_handlerP11cpu_contextm+0xa0>
   13034:	00100613          	li	a2,1
   13038:	00009597          	auipc	a1,0x9
   1303c:	bfc58593          	addi	a1,a1,-1028 # 1bc34 <_conv_stat+0xa88>
   13040:	0000e517          	auipc	a0,0xe
   13044:	cf852503          	lw	a0,-776(a0) # 20d38 <_GLOBAL_OFFSET_TABLE_+0x24>
   13048:	c05fe0ef          	jal	ra,11c4c <_Z10startswithPcPKci>
   1304c:	9e0516e3          	bnez	a0,12a38 <_Z11gdb_handlerP11cpu_contextm+0x3dc>
   13050:	00100613          	li	a2,1
   13054:	00009597          	auipc	a1,0x9
   13058:	be458593          	addi	a1,a1,-1052 # 1bc38 <_conv_stat+0xa8c>
   1305c:	0000e517          	auipc	a0,0xe
   13060:	cdc52503          	lw	a0,-804(a0) # 20d38 <_GLOBAL_OFFSET_TABLE_+0x24>
   13064:	be9fe0ef          	jal	ra,11c4c <_Z10startswithPcPKci>
   13068:	c0051ae3          	bnez	a0,12c7c <_Z11gdb_handlerP11cpu_contextm+0x620>
   1306c:	00100613          	li	a2,1
   13070:	00009597          	auipc	a1,0x9
   13074:	bcc58593          	addi	a1,a1,-1076 # 1bc3c <_conv_stat+0xa90>
   13078:	0000e517          	auipc	a0,0xe
   1307c:	cc052503          	lw	a0,-832(a0) # 20d38 <_GLOBAL_OFFSET_TABLE_+0x24>
   13080:	bcdfe0ef          	jal	ra,11c4c <_Z10startswithPcPKci>
   13084:	04051063          	bnez	a0,130c4 <_Z11gdb_handlerP11cpu_contextm+0xa68>
   13088:	00100613          	li	a2,1
   1308c:	00009597          	auipc	a1,0x9
   13090:	bb458593          	addi	a1,a1,-1100 # 1bc40 <_conv_stat+0xa94>
   13094:	0000e517          	auipc	a0,0xe
   13098:	ca452503          	lw	a0,-860(a0) # 20d38 <_GLOBAL_OFFSET_TABLE_+0x24>
   1309c:	bb1fe0ef          	jal	ra,11c4c <_Z10startswithPcPKci>
   130a0:	08050063          	beqz	a0,13120 <_Z11gdb_handlerP11cpu_contextm+0xac4>
   130a4:	0000e497          	auipc	s1,0xe
   130a8:	c944a483          	lw	s1,-876(s1) # 20d38 <_GLOBAL_OFFSET_TABLE_+0x24>
   130ac:	0014c703          	lbu	a4,1(s1)
   130b0:	06700793          	li	a5,103
   130b4:	04f70063          	beq	a4,a5,130f4 <_Z11gdb_handlerP11cpu_contextm+0xa98>
   130b8:	0014c703          	lbu	a4,1(s1)
   130bc:	06300793          	li	a5,99
   130c0:	e2f71e63          	bne	a4,a5,126fc <_Z11gdb_handlerP11cpu_contextm+0xa0>
   130c4:	0000e797          	auipc	a5,0xe
   130c8:	cd47a783          	lw	a5,-812(a5) # 20d98 <_GLOBAL_OFFSET_TABLE_+0x84>
   130cc:	0007a783          	lw	a5,0(a5)
   130d0:	16000713          	li	a4,352
   130d4:	00009517          	auipc	a0,0x9
   130d8:	ae850513          	addi	a0,a0,-1304 # 1bbbc <_conv_stat+0xa10>
   130dc:	02e787b3          	mul	a5,a5,a4
   130e0:	00fa0a33          	add	s4,s4,a5
   130e4:	00800793          	li	a5,8
   130e8:	14fa2823          	sw	a5,336(s4)
   130ec:	ff9fe0ef          	jal	ra,120e4 <_Z15SendDebugPacketPKc>
   130f0:	e0cff06f          	j	126fc <_Z11gdb_handlerP11cpu_contextm+0xa0>
   130f4:	00048713          	mv	a4,s1
   130f8:	00000793          	li	a5,0
   130fc:	01410413          	addi	s0,sp,20
   13100:	02300613          	li	a2,35
   13104:	00274683          	lbu	a3,2(a4)
   13108:	00f405b3          	add	a1,s0,a5
   1310c:	00170713          	addi	a4,a4,1
   13110:	02c68c63          	beq	a3,a2,13148 <_Z11gdb_handlerP11cpu_contextm+0xaec>
   13114:	00d58023          	sb	a3,0(a1)
   13118:	00178793          	addi	a5,a5,1
   1311c:	fe9ff06f          	j	13104 <_Z11gdb_handlerP11cpu_contextm+0xaa8>
   13120:	00009517          	auipc	a0,0x9
   13124:	b2450513          	addi	a0,a0,-1244 # 1bc44 <_conv_stat+0xa98>
   13128:	1b4040ef          	jal	ra,172dc <_Z11EchoConsolePKc>
   1312c:	0000e517          	auipc	a0,0xe
   13130:	c0c52503          	lw	a0,-1012(a0) # 20d38 <_GLOBAL_OFFSET_TABLE_+0x24>
   13134:	1a8040ef          	jal	ra,172dc <_Z11EchoConsolePKc>
   13138:	00008517          	auipc	a0,0x8
   1313c:	3ec50513          	addi	a0,a0,1004 # 1b524 <_conv_stat+0x378>
   13140:	19c040ef          	jal	ra,172dc <_Z11EchoConsolePKc>
   13144:	db8ff06f          	j	126fc <_Z11gdb_handlerP11cpu_contextm+0xa0>
   13148:	42010713          	addi	a4,sp,1056
   1314c:	00f707b3          	add	a5,a4,a5
   13150:	be078a23          	sb	zero,-1036(a5)
   13154:	00040513          	mv	a0,s0
   13158:	83cff0ef          	jal	ra,12194 <_Z7hex2intPc>
   1315c:	00050793          	mv	a5,a0
   13160:	00050463          	beqz	a0,13168 <_Z11gdb_handlerP11cpu_contextm+0xb0c>
   13164:	fff50793          	addi	a5,a0,-1
   13168:	0000e717          	auipc	a4,0xe
   1316c:	c3072703          	lw	a4,-976(a4) # 20d98 <_GLOBAL_OFFSET_TABLE_+0x84>
   13170:	00009517          	auipc	a0,0x9
   13174:	a4c50513          	addi	a0,a0,-1460 # 1bbbc <_conv_stat+0xa10>
   13178:	00f72023          	sw	a5,0(a4)
   1317c:	f69fe0ef          	jal	ra,120e4 <_Z15SendDebugPacketPKc>
   13180:	f39ff06f          	j	130b8 <_Z11gdb_handlerP11cpu_contextm+0xa5c>

00013184 <_Z8InitFontv>:
   13184:	0000e797          	auipc	a5,0xe
   13188:	ba87a783          	lw	a5,-1112(a5) # 20d2c <_GLOBAL_OFFSET_TABLE_+0x18>
   1318c:	0007a503          	lw	a0,0(a5)
   13190:	00002637          	lui	a2,0x2
   13194:	ff010113          	addi	sp,sp,-16
   13198:	80060613          	addi	a2,a2,-2048 # 1800 <exit-0xe874>
   1319c:	00009597          	auipc	a1,0x9
   131a0:	ae858593          	addi	a1,a1,-1304 # 1bc84 <_ZL9hexdigits+0x3c>
   131a4:	00112623          	sw	ra,12(sp)
   131a8:	5d1050ef          	jal	ra,18f78 <memcpy>
   131ac:	00c12083          	lw	ra,12(sp)
   131b0:	01010113          	addi	sp,sp,16
   131b4:	00008067          	ret

000131b8 <_Z8PrintDMAiiPKcb>:
   131b8:	00064703          	lbu	a4,0(a2)
   131bc:	38070263          	beqz	a4,13540 <_Z8PrintDMAiiPKcb+0x388>
   131c0:	0000e797          	auipc	a5,0xe
   131c4:	b6c7a783          	lw	a5,-1172(a5) # 20d2c <_GLOBAL_OFFSET_TABLE_+0x18>
   131c8:	ff010113          	addi	sp,sp,-16
   131cc:	0007a303          	lw	t1,0(a5)
   131d0:	0000e797          	auipc	a5,0xe
   131d4:	b707a783          	lw	a5,-1168(a5) # 20d40 <_GLOBAL_OFFSET_TABLE_+0x2c>
   131d8:	00258393          	addi	t2,a1,2
   131dc:	00358293          	addi	t0,a1,3
   131e0:	00458f93          	addi	t6,a1,4
   131e4:	00558f13          	addi	t5,a1,5
   131e8:	00658e93          	addi	t4,a1,6
   131ec:	00758e13          	addi	t3,a1,7
   131f0:	00812623          	sw	s0,12(sp)
   131f4:	00d03833          	snez	a6,a3
   131f8:	00158413          	addi	s0,a1,1
   131fc:	000018b7          	lui	a7,0x1
   13200:	0007a783          	lw	a5,0(a5)
   13204:	00859593          	slli	a1,a1,0x8
   13208:	ac488893          	addi	a7,a7,-1340 # ac4 <exit-0xf5b0>
   1320c:	01881813          	slli	a6,a6,0x18
   13210:	00841413          	slli	s0,s0,0x8
   13214:	00839393          	slli	t2,t2,0x8
   13218:	00829293          	slli	t0,t0,0x8
   1321c:	008f9f93          	slli	t6,t6,0x8
   13220:	008f1f13          	slli	t5,t5,0x8
   13224:	008e9e93          	slli	t4,t4,0x8
   13228:	008e1e13          	slli	t3,t3,0x8
   1322c:	01186833          	or	a6,a6,a7
   13230:	00912423          	sw	s1,8(sp)
   13234:	01212223          	sw	s2,4(sp)
   13238:	01312023          	sw	s3,0(sp)
   1323c:	00160893          	addi	a7,a2,1
   13240:	00b50533          	add	a0,a0,a1
   13244:	40b40433          	sub	s0,s0,a1
   13248:	40b383b3          	sub	t2,t2,a1
   1324c:	40b282b3          	sub	t0,t0,a1
   13250:	40bf8fb3          	sub	t6,t6,a1
   13254:	40bf0f33          	sub	t5,t5,a1
   13258:	40be8eb3          	sub	t4,t4,a1
   1325c:	40be0e33          	sub	t3,t3,a1
   13260:	fe070713          	addi	a4,a4,-32
   13264:	00068463          	beqz	a3,1326c <_Z8PrintDMAiiPKcb+0xb4>
   13268:	2a070863          	beqz	a4,13518 <_Z8PrintDMAiiPKcb+0x360>
   1326c:	2a074663          	bltz	a4,13518 <_Z8PrintDMAiiPKcb+0x360>
   13270:	40575493          	srai	s1,a4,0x5
   13274:	01f77713          	andi	a4,a4,31
   13278:	00371613          	slli	a2,a4,0x3
   1327c:	00b49593          	slli	a1,s1,0xb
   13280:	00c585b3          	add	a1,a1,a2
   13284:	00b305b3          	add	a1,t1,a1
   13288:	00349713          	slli	a4,s1,0x3
   1328c:	00a59993          	slli	s3,a1,0xa
   13290:	0165d493          	srli	s1,a1,0x16
   13294:	40255913          	srai	s2,a0,0x2
   13298:	2019e993          	ori	s3,s3,513
   1329c:	00170593          	addi	a1,a4,1
   132a0:	00a49493          	slli	s1,s1,0xa
   132a4:	0137a023          	sw	s3,0(a5)
   132a8:	2414e493          	ori	s1,s1,577
   132ac:	00a91993          	slli	s3,s2,0xa
   132b0:	00859593          	slli	a1,a1,0x8
   132b4:	01695913          	srli	s2,s2,0x16
   132b8:	0097a023          	sw	s1,0(a5)
   132bc:	00c585b3          	add	a1,a1,a2
   132c0:	2819e493          	ori	s1,s3,641
   132c4:	00a91913          	slli	s2,s2,0xa
   132c8:	0097a023          	sw	s1,0(a5)
   132cc:	00b305b3          	add	a1,t1,a1
   132d0:	2d196913          	ori	s2,s2,721
   132d4:	0127a023          	sw	s2,0(a5)
   132d8:	00a59993          	slli	s3,a1,0xa
   132dc:	0165d493          	srli	s1,a1,0x16
   132e0:	00a40933          	add	s2,s0,a0
   132e4:	0107a023          	sw	a6,0(a5)
   132e8:	40295913          	srai	s2,s2,0x2
   132ec:	2019e993          	ori	s3,s3,513
   132f0:	00270593          	addi	a1,a4,2
   132f4:	00a49493          	slli	s1,s1,0xa
   132f8:	0137a023          	sw	s3,0(a5)
   132fc:	2414e493          	ori	s1,s1,577
   13300:	00a91993          	slli	s3,s2,0xa
   13304:	00859593          	slli	a1,a1,0x8
   13308:	01695913          	srli	s2,s2,0x16
   1330c:	0097a023          	sw	s1,0(a5)
   13310:	00c585b3          	add	a1,a1,a2
   13314:	2819e493          	ori	s1,s3,641
   13318:	00a91913          	slli	s2,s2,0xa
   1331c:	0097a023          	sw	s1,0(a5)
   13320:	00b305b3          	add	a1,t1,a1
   13324:	2d196913          	ori	s2,s2,721
   13328:	0127a023          	sw	s2,0(a5)
   1332c:	00a59993          	slli	s3,a1,0xa
   13330:	0165d493          	srli	s1,a1,0x16
   13334:	00a38933          	add	s2,t2,a0
   13338:	0107a023          	sw	a6,0(a5)
   1333c:	40295913          	srai	s2,s2,0x2
   13340:	2019e993          	ori	s3,s3,513
   13344:	00370593          	addi	a1,a4,3
   13348:	00a49493          	slli	s1,s1,0xa
   1334c:	0137a023          	sw	s3,0(a5)
   13350:	2414e493          	ori	s1,s1,577
   13354:	00a91993          	slli	s3,s2,0xa
   13358:	00859593          	slli	a1,a1,0x8
   1335c:	01695913          	srli	s2,s2,0x16
   13360:	0097a023          	sw	s1,0(a5)
   13364:	00c585b3          	add	a1,a1,a2
   13368:	2819e493          	ori	s1,s3,641
   1336c:	00a91913          	slli	s2,s2,0xa
   13370:	0097a023          	sw	s1,0(a5)
   13374:	00b305b3          	add	a1,t1,a1
   13378:	2d196913          	ori	s2,s2,721
   1337c:	0127a023          	sw	s2,0(a5)
   13380:	00a59993          	slli	s3,a1,0xa
   13384:	0165d493          	srli	s1,a1,0x16
   13388:	00a28933          	add	s2,t0,a0
   1338c:	0107a023          	sw	a6,0(a5)
   13390:	40295913          	srai	s2,s2,0x2
   13394:	2019e993          	ori	s3,s3,513
   13398:	00470593          	addi	a1,a4,4
   1339c:	00a49493          	slli	s1,s1,0xa
   133a0:	0137a023          	sw	s3,0(a5)
   133a4:	2414e493          	ori	s1,s1,577
   133a8:	00a91993          	slli	s3,s2,0xa
   133ac:	00859593          	slli	a1,a1,0x8
   133b0:	01695913          	srli	s2,s2,0x16
   133b4:	0097a023          	sw	s1,0(a5)
   133b8:	00c585b3          	add	a1,a1,a2
   133bc:	2819e493          	ori	s1,s3,641
   133c0:	00a91913          	slli	s2,s2,0xa
   133c4:	0097a023          	sw	s1,0(a5)
   133c8:	00b305b3          	add	a1,t1,a1
   133cc:	2d196913          	ori	s2,s2,721
   133d0:	0127a023          	sw	s2,0(a5)
   133d4:	00a59993          	slli	s3,a1,0xa
   133d8:	0165d493          	srli	s1,a1,0x16
   133dc:	00af8933          	add	s2,t6,a0
   133e0:	0107a023          	sw	a6,0(a5)
   133e4:	40295913          	srai	s2,s2,0x2
   133e8:	2019e993          	ori	s3,s3,513
   133ec:	00570593          	addi	a1,a4,5
   133f0:	00a49493          	slli	s1,s1,0xa
   133f4:	0137a023          	sw	s3,0(a5)
   133f8:	2414e493          	ori	s1,s1,577
   133fc:	00a91993          	slli	s3,s2,0xa
   13400:	00859593          	slli	a1,a1,0x8
   13404:	01695913          	srli	s2,s2,0x16
   13408:	0097a023          	sw	s1,0(a5)
   1340c:	00c585b3          	add	a1,a1,a2
   13410:	2819e493          	ori	s1,s3,641
   13414:	00a91913          	slli	s2,s2,0xa
   13418:	0097a023          	sw	s1,0(a5)
   1341c:	00b305b3          	add	a1,t1,a1
   13420:	2d196913          	ori	s2,s2,721
   13424:	0127a023          	sw	s2,0(a5)
   13428:	00a59993          	slli	s3,a1,0xa
   1342c:	0165d493          	srli	s1,a1,0x16
   13430:	00af0933          	add	s2,t5,a0
   13434:	0107a023          	sw	a6,0(a5)
   13438:	40295913          	srai	s2,s2,0x2
   1343c:	2019e993          	ori	s3,s3,513
   13440:	00670593          	addi	a1,a4,6
   13444:	00a49493          	slli	s1,s1,0xa
   13448:	0137a023          	sw	s3,0(a5)
   1344c:	2414e493          	ori	s1,s1,577
   13450:	00a91993          	slli	s3,s2,0xa
   13454:	00859593          	slli	a1,a1,0x8
   13458:	01695913          	srli	s2,s2,0x16
   1345c:	0097a023          	sw	s1,0(a5)
   13460:	00c585b3          	add	a1,a1,a2
   13464:	2819e493          	ori	s1,s3,641
   13468:	00a91913          	slli	s2,s2,0xa
   1346c:	0097a023          	sw	s1,0(a5)
   13470:	00b305b3          	add	a1,t1,a1
   13474:	2d196913          	ori	s2,s2,721
   13478:	00ae84b3          	add	s1,t4,a0
   1347c:	0127a023          	sw	s2,0(a5)
   13480:	4024d493          	srai	s1,s1,0x2
   13484:	00a59993          	slli	s3,a1,0xa
   13488:	00770713          	addi	a4,a4,7
   1348c:	0165d593          	srli	a1,a1,0x16
   13490:	0107a023          	sw	a6,0(a5)
   13494:	0164d913          	srli	s2,s1,0x16
   13498:	2019e993          	ori	s3,s3,513
   1349c:	00a59593          	slli	a1,a1,0xa
   134a0:	00871713          	slli	a4,a4,0x8
   134a4:	0137a023          	sw	s3,0(a5)
   134a8:	2415e593          	ori	a1,a1,577
   134ac:	00c70733          	add	a4,a4,a2
   134b0:	00a49493          	slli	s1,s1,0xa
   134b4:	00a91913          	slli	s2,s2,0xa
   134b8:	00e30733          	add	a4,t1,a4
   134bc:	00b7a023          	sw	a1,0(a5)
   134c0:	2d196613          	ori	a2,s2,721
   134c4:	2814e493          	ori	s1,s1,641
   134c8:	0097a023          	sw	s1,0(a5)
   134cc:	00a71593          	slli	a1,a4,0xa
   134d0:	00c7a023          	sw	a2,0(a5)
   134d4:	01675713          	srli	a4,a4,0x16
   134d8:	00ae0633          	add	a2,t3,a0
   134dc:	0107a023          	sw	a6,0(a5)
   134e0:	40265613          	srai	a2,a2,0x2
   134e4:	2015e593          	ori	a1,a1,513
   134e8:	00a71713          	slli	a4,a4,0xa
   134ec:	00b7a023          	sw	a1,0(a5)
   134f0:	24176713          	ori	a4,a4,577
   134f4:	00a61593          	slli	a1,a2,0xa
   134f8:	01665613          	srli	a2,a2,0x16
   134fc:	00e7a023          	sw	a4,0(a5)
   13500:	00a61613          	slli	a2,a2,0xa
   13504:	2815e713          	ori	a4,a1,641
   13508:	00e7a023          	sw	a4,0(a5)
   1350c:	2d166613          	ori	a2,a2,721
   13510:	00c7a023          	sw	a2,0(a5)
   13514:	0107a023          	sw	a6,0(a5)
   13518:	0008c703          	lbu	a4,0(a7)
   1351c:	00850513          	addi	a0,a0,8
   13520:	00188893          	addi	a7,a7,1
   13524:	d2071ee3          	bnez	a4,13260 <_Z8PrintDMAiiPKcb+0xa8>
   13528:	00c12403          	lw	s0,12(sp)
   1352c:	00812483          	lw	s1,8(sp)
   13530:	00412903          	lw	s2,4(sp)
   13534:	00012983          	lw	s3,0(sp)
   13538:	01010113          	addi	sp,sp,16
   1353c:	00008067          	ret
   13540:	00008067          	ret

00013544 <_Z8PrintDMAiiiPKcb>:
   13544:	38c05a63          	blez	a2,138d8 <_Z8PrintDMAiiiPKcb+0x394>
   13548:	0000d797          	auipc	a5,0xd
   1354c:	7e47a783          	lw	a5,2020(a5) # 20d2c <_GLOBAL_OFFSET_TABLE_+0x18>
   13550:	fe010113          	addi	sp,sp,-32
   13554:	0007a303          	lw	t1,0(a5)
   13558:	0000d797          	auipc	a5,0xd
   1355c:	7e87a783          	lw	a5,2024(a5) # 20d40 <_GLOBAL_OFFSET_TABLE_+0x2c>
   13560:	00358393          	addi	t2,a1,3
   13564:	00458293          	addi	t0,a1,4
   13568:	00558f93          	addi	t6,a1,5
   1356c:	00658f13          	addi	t5,a1,6
   13570:	00758e93          	addi	t4,a1,7
   13574:	00068813          	mv	a6,a3
   13578:	00812e23          	sw	s0,28(sp)
   1357c:	00912c23          	sw	s1,24(sp)
   13580:	00258413          	addi	s0,a1,2
   13584:	00158493          	addi	s1,a1,1
   13588:	00e038b3          	snez	a7,a4
   1358c:	000016b7          	lui	a3,0x1
   13590:	0007a783          	lw	a5,0(a5)
   13594:	00859593          	slli	a1,a1,0x8
   13598:	01889893          	slli	a7,a7,0x18
   1359c:	00849493          	slli	s1,s1,0x8
   135a0:	00841413          	slli	s0,s0,0x8
   135a4:	00839393          	slli	t2,t2,0x8
   135a8:	00829293          	slli	t0,t0,0x8
   135ac:	008f9f93          	slli	t6,t6,0x8
   135b0:	008f1f13          	slli	t5,t5,0x8
   135b4:	008e9e93          	slli	t4,t4,0x8
   135b8:	ac468693          	addi	a3,a3,-1340 # ac4 <exit-0xf5b0>
   135bc:	01212a23          	sw	s2,20(sp)
   135c0:	01312823          	sw	s3,16(sp)
   135c4:	01412623          	sw	s4,12(sp)
   135c8:	00d8e8b3          	or	a7,a7,a3
   135cc:	00b50533          	add	a0,a0,a1
   135d0:	00c80e33          	add	t3,a6,a2
   135d4:	40b484b3          	sub	s1,s1,a1
   135d8:	40b40433          	sub	s0,s0,a1
   135dc:	40b383b3          	sub	t2,t2,a1
   135e0:	40b282b3          	sub	t0,t0,a1
   135e4:	40bf8fb3          	sub	t6,t6,a1
   135e8:	40bf0f33          	sub	t5,t5,a1
   135ec:	40be8eb3          	sub	t4,t4,a1
   135f0:	00084603          	lbu	a2,0(a6)
   135f4:	2c060463          	beqz	a2,138bc <_Z8PrintDMAiiiPKcb+0x378>
   135f8:	fe060613          	addi	a2,a2,-32
   135fc:	00070463          	beqz	a4,13604 <_Z8PrintDMAiiiPKcb+0xc0>
   13600:	2a060863          	beqz	a2,138b0 <_Z8PrintDMAiiiPKcb+0x36c>
   13604:	2a064663          	bltz	a2,138b0 <_Z8PrintDMAiiiPKcb+0x36c>
   13608:	40565693          	srai	a3,a2,0x5
   1360c:	01f67613          	andi	a2,a2,31
   13610:	00361613          	slli	a2,a2,0x3
   13614:	00b69593          	slli	a1,a3,0xb
   13618:	00c585b3          	add	a1,a1,a2
   1361c:	00b305b3          	add	a1,t1,a1
   13620:	00369693          	slli	a3,a3,0x3
   13624:	00a59a13          	slli	s4,a1,0xa
   13628:	0165d913          	srli	s2,a1,0x16
   1362c:	40255993          	srai	s3,a0,0x2
   13630:	201a6a13          	ori	s4,s4,513
   13634:	00168593          	addi	a1,a3,1
   13638:	00a91913          	slli	s2,s2,0xa
   1363c:	0147a023          	sw	s4,0(a5)
   13640:	24196913          	ori	s2,s2,577
   13644:	00a99a13          	slli	s4,s3,0xa
   13648:	00859593          	slli	a1,a1,0x8
   1364c:	0169d993          	srli	s3,s3,0x16
   13650:	0127a023          	sw	s2,0(a5)
   13654:	00c585b3          	add	a1,a1,a2
   13658:	281a6913          	ori	s2,s4,641
   1365c:	00a99993          	slli	s3,s3,0xa
   13660:	0127a023          	sw	s2,0(a5)
   13664:	00b305b3          	add	a1,t1,a1
   13668:	2d19e993          	ori	s3,s3,721
   1366c:	0137a023          	sw	s3,0(a5)
   13670:	00a59a13          	slli	s4,a1,0xa
   13674:	0165d913          	srli	s2,a1,0x16
   13678:	00a489b3          	add	s3,s1,a0
   1367c:	0117a023          	sw	a7,0(a5)
   13680:	4029d993          	srai	s3,s3,0x2
   13684:	201a6a13          	ori	s4,s4,513
   13688:	00268593          	addi	a1,a3,2
   1368c:	00a91913          	slli	s2,s2,0xa
   13690:	0147a023          	sw	s4,0(a5)
   13694:	24196913          	ori	s2,s2,577
   13698:	00a99a13          	slli	s4,s3,0xa
   1369c:	00859593          	slli	a1,a1,0x8
   136a0:	0169d993          	srli	s3,s3,0x16
   136a4:	0127a023          	sw	s2,0(a5)
   136a8:	00c585b3          	add	a1,a1,a2
   136ac:	281a6913          	ori	s2,s4,641
   136b0:	00a99993          	slli	s3,s3,0xa
   136b4:	0127a023          	sw	s2,0(a5)
   136b8:	00b305b3          	add	a1,t1,a1
   136bc:	2d19e993          	ori	s3,s3,721
   136c0:	0137a023          	sw	s3,0(a5)
   136c4:	00a59a13          	slli	s4,a1,0xa
   136c8:	0165d913          	srli	s2,a1,0x16
   136cc:	00a409b3          	add	s3,s0,a0
   136d0:	0117a023          	sw	a7,0(a5)
   136d4:	4029d993          	srai	s3,s3,0x2
   136d8:	201a6a13          	ori	s4,s4,513
   136dc:	00368593          	addi	a1,a3,3
   136e0:	00a91913          	slli	s2,s2,0xa
   136e4:	0147a023          	sw	s4,0(a5)
   136e8:	24196913          	ori	s2,s2,577
   136ec:	00a99a13          	slli	s4,s3,0xa
   136f0:	00859593          	slli	a1,a1,0x8
   136f4:	0169d993          	srli	s3,s3,0x16
   136f8:	0127a023          	sw	s2,0(a5)
   136fc:	00c585b3          	add	a1,a1,a2
   13700:	281a6913          	ori	s2,s4,641
   13704:	00a99993          	slli	s3,s3,0xa
   13708:	0127a023          	sw	s2,0(a5)
   1370c:	00b305b3          	add	a1,t1,a1
   13710:	2d19e993          	ori	s3,s3,721
   13714:	0137a023          	sw	s3,0(a5)
   13718:	00a59a13          	slli	s4,a1,0xa
   1371c:	0165d913          	srli	s2,a1,0x16
   13720:	00a389b3          	add	s3,t2,a0
   13724:	0117a023          	sw	a7,0(a5)
   13728:	4029d993          	srai	s3,s3,0x2
   1372c:	201a6a13          	ori	s4,s4,513
   13730:	00468593          	addi	a1,a3,4
   13734:	00a91913          	slli	s2,s2,0xa
   13738:	0147a023          	sw	s4,0(a5)
   1373c:	24196913          	ori	s2,s2,577
   13740:	00a99a13          	slli	s4,s3,0xa
   13744:	00859593          	slli	a1,a1,0x8
   13748:	0169d993          	srli	s3,s3,0x16
   1374c:	0127a023          	sw	s2,0(a5)
   13750:	00c585b3          	add	a1,a1,a2
   13754:	281a6913          	ori	s2,s4,641
   13758:	00a99993          	slli	s3,s3,0xa
   1375c:	0127a023          	sw	s2,0(a5)
   13760:	00b305b3          	add	a1,t1,a1
   13764:	2d19e993          	ori	s3,s3,721
   13768:	0137a023          	sw	s3,0(a5)
   1376c:	00a59a13          	slli	s4,a1,0xa
   13770:	0165d913          	srli	s2,a1,0x16
   13774:	00a289b3          	add	s3,t0,a0
   13778:	0117a023          	sw	a7,0(a5)
   1377c:	4029d993          	srai	s3,s3,0x2
   13780:	201a6a13          	ori	s4,s4,513
   13784:	00568593          	addi	a1,a3,5
   13788:	00a91913          	slli	s2,s2,0xa
   1378c:	0147a023          	sw	s4,0(a5)
   13790:	24196913          	ori	s2,s2,577
   13794:	00a99a13          	slli	s4,s3,0xa
   13798:	00859593          	slli	a1,a1,0x8
   1379c:	0169d993          	srli	s3,s3,0x16
   137a0:	0127a023          	sw	s2,0(a5)
   137a4:	00c585b3          	add	a1,a1,a2
   137a8:	281a6913          	ori	s2,s4,641
   137ac:	00a99993          	slli	s3,s3,0xa
   137b0:	0127a023          	sw	s2,0(a5)
   137b4:	00b305b3          	add	a1,t1,a1
   137b8:	2d19e993          	ori	s3,s3,721
   137bc:	0137a023          	sw	s3,0(a5)
   137c0:	00a59a13          	slli	s4,a1,0xa
   137c4:	0165d913          	srli	s2,a1,0x16
   137c8:	00af89b3          	add	s3,t6,a0
   137cc:	0117a023          	sw	a7,0(a5)
   137d0:	4029d993          	srai	s3,s3,0x2
   137d4:	201a6a13          	ori	s4,s4,513
   137d8:	00668593          	addi	a1,a3,6
   137dc:	00a91913          	slli	s2,s2,0xa
   137e0:	0147a023          	sw	s4,0(a5)
   137e4:	24196913          	ori	s2,s2,577
   137e8:	00a99a13          	slli	s4,s3,0xa
   137ec:	00859593          	slli	a1,a1,0x8
   137f0:	0169d993          	srli	s3,s3,0x16
   137f4:	0127a023          	sw	s2,0(a5)
   137f8:	00c585b3          	add	a1,a1,a2
   137fc:	281a6913          	ori	s2,s4,641
   13800:	00a99993          	slli	s3,s3,0xa
   13804:	0127a023          	sw	s2,0(a5)
   13808:	00b305b3          	add	a1,t1,a1
   1380c:	2d19e993          	ori	s3,s3,721
   13810:	00af0933          	add	s2,t5,a0
   13814:	0137a023          	sw	s3,0(a5)
   13818:	40295913          	srai	s2,s2,0x2
   1381c:	00a59a13          	slli	s4,a1,0xa
   13820:	00768693          	addi	a3,a3,7
   13824:	0165d593          	srli	a1,a1,0x16
   13828:	0117a023          	sw	a7,0(a5)
   1382c:	01695993          	srli	s3,s2,0x16
   13830:	201a6a13          	ori	s4,s4,513
   13834:	00a59593          	slli	a1,a1,0xa
   13838:	00869693          	slli	a3,a3,0x8
   1383c:	0147a023          	sw	s4,0(a5)
   13840:	2415e593          	ori	a1,a1,577
   13844:	00c686b3          	add	a3,a3,a2
   13848:	00a91913          	slli	s2,s2,0xa
   1384c:	00a99993          	slli	s3,s3,0xa
   13850:	00d306b3          	add	a3,t1,a3
   13854:	00b7a023          	sw	a1,0(a5)
   13858:	2d19e613          	ori	a2,s3,721
   1385c:	28196913          	ori	s2,s2,641
   13860:	0127a023          	sw	s2,0(a5)
   13864:	00a69593          	slli	a1,a3,0xa
   13868:	00c7a023          	sw	a2,0(a5)
   1386c:	0166d693          	srli	a3,a3,0x16
   13870:	00ae8633          	add	a2,t4,a0
   13874:	0117a023          	sw	a7,0(a5)
   13878:	40265613          	srai	a2,a2,0x2
   1387c:	2015e593          	ori	a1,a1,513
   13880:	00a69693          	slli	a3,a3,0xa
   13884:	00b7a023          	sw	a1,0(a5)
   13888:	2416e693          	ori	a3,a3,577
   1388c:	00a61593          	slli	a1,a2,0xa
   13890:	01665613          	srli	a2,a2,0x16
   13894:	00d7a023          	sw	a3,0(a5)
   13898:	00a61613          	slli	a2,a2,0xa
   1389c:	2815e693          	ori	a3,a1,641
   138a0:	00d7a023          	sw	a3,0(a5)
   138a4:	2d166613          	ori	a2,a2,721
   138a8:	00c7a023          	sw	a2,0(a5)
   138ac:	0117a023          	sw	a7,0(a5)
   138b0:	00180813          	addi	a6,a6,1
   138b4:	00850513          	addi	a0,a0,8
   138b8:	d30e1ce3          	bne	t3,a6,135f0 <_Z8PrintDMAiiiPKcb+0xac>
   138bc:	01c12403          	lw	s0,28(sp)
   138c0:	01812483          	lw	s1,24(sp)
   138c4:	01412903          	lw	s2,20(sp)
   138c8:	01012983          	lw	s3,16(sp)
   138cc:	00c12a03          	lw	s4,12(sp)
   138d0:	02010113          	addi	sp,sp,32
   138d4:	00008067          	ret
   138d8:	00008067          	ret

000138dc <_Z11PrintDMAHexiim>:
   138dc:	00008e17          	auipc	t3,0x8
   138e0:	380e0e13          	addi	t3,t3,896 # 1bc5c <_ZL9hexdigits+0x14>
   138e4:	00ce2f03          	lw	t5,12(t3)
   138e8:	008e2f83          	lw	t6,8(t3)
   138ec:	000e2383          	lw	t2,0(t3)
   138f0:	004e2283          	lw	t0,4(t3)
   138f4:	fd010113          	addi	sp,sp,-48
   138f8:	01865313          	srli	t1,a2,0x18
   138fc:	01465893          	srli	a7,a2,0x14
   13900:	01065813          	srli	a6,a2,0x10
   13904:	00c65693          	srli	a3,a2,0xc
   13908:	00865713          	srli	a4,a2,0x8
   1390c:	00465793          	srli	a5,a2,0x4
   13910:	01e12c23          	sw	t5,24(sp)
   13914:	01c65e93          	srli	t4,a2,0x1c
   13918:	02010f13          	addi	t5,sp,32
   1391c:	00f37313          	andi	t1,t1,15
   13920:	00f8f893          	andi	a7,a7,15
   13924:	00f87813          	andi	a6,a6,15
   13928:	00f6f693          	andi	a3,a3,15
   1392c:	00f77713          	andi	a4,a4,15
   13930:	00f7f793          	andi	a5,a5,15
   13934:	00f67613          	andi	a2,a2,15
   13938:	02112623          	sw	ra,44(sp)
   1393c:	01f12a23          	sw	t6,20(sp)
   13940:	00712623          	sw	t2,12(sp)
   13944:	00512823          	sw	t0,16(sp)
   13948:	006f0333          	add	t1,t5,t1
   1394c:	011f08b3          	add	a7,t5,a7
   13950:	010f0833          	add	a6,t5,a6
   13954:	00df06b3          	add	a3,t5,a3
   13958:	00ef0733          	add	a4,t5,a4
   1395c:	00ff07b3          	add	a5,t5,a5
   13960:	00cf0633          	add	a2,t5,a2
   13964:	01df0eb3          	add	t4,t5,t4
   13968:	010e4f83          	lbu	t6,16(t3)
   1396c:	fececf03          	lbu	t5,-20(t4)
   13970:	fec8ce03          	lbu	t3,-20(a7)
   13974:	fec34e83          	lbu	t4,-20(t1)
   13978:	fec6c883          	lbu	a7,-20(a3)
   1397c:	fec84303          	lbu	t1,-20(a6)
   13980:	fec74803          	lbu	a6,-20(a4)
   13984:	fec7c703          	lbu	a4,-20(a5)
   13988:	fec64783          	lbu	a5,-20(a2)
   1398c:	02e00693          	li	a3,46
   13990:	00d11423          	sh	a3,8(sp)
   13994:	00010613          	mv	a2,sp
   13998:	00100693          	li	a3,1
   1399c:	01f10e23          	sb	t6,28(sp)
   139a0:	01e10023          	sb	t5,0(sp)
   139a4:	01d100a3          	sb	t4,1(sp)
   139a8:	01c10123          	sb	t3,2(sp)
   139ac:	006101a3          	sb	t1,3(sp)
   139b0:	01110223          	sb	a7,4(sp)
   139b4:	010102a3          	sb	a6,5(sp)
   139b8:	00e10323          	sb	a4,6(sp)
   139bc:	00f103a3          	sb	a5,7(sp)
   139c0:	00010423          	sb	zero,8(sp)
   139c4:	ff4ff0ef          	jal	ra,131b8 <_Z8PrintDMAiiPKcb>
   139c8:	02c12083          	lw	ra,44(sp)
   139cc:	03010113          	addi	sp,sp,48
   139d0:	00008067          	ret

000139d4 <_Z15PrintDMADecimaliiib>:
   139d4:	00008797          	auipc	a5,0x8
   139d8:	29c78793          	addi	a5,a5,668 # 1bc70 <_ZL9hexdigits+0x28>
   139dc:	00008717          	auipc	a4,0x8
   139e0:	0b070713          	addi	a4,a4,176 # 1ba8c <_conv_stat+0x8e0>
   139e4:	0047a883          	lw	a7,4(a5)
   139e8:	00072f83          	lw	t6,0(a4)
   139ec:	00472f03          	lw	t5,4(a4)
   139f0:	00875e83          	lhu	t4,8(a4)
   139f4:	00a74e03          	lbu	t3,10(a4)
   139f8:	0007a303          	lw	t1,0(a5)
   139fc:	0087a803          	lw	a6,8(a5)
   13a00:	00c7a703          	lw	a4,12(a5)
   13a04:	0107a783          	lw	a5,16(a5)
   13a08:	fd010113          	addi	sp,sp,-48
   13a0c:	01112823          	sw	a7,16(sp)
   13a10:	00f12e23          	sw	a5,28(sp)
   13a14:	02112623          	sw	ra,44(sp)
   13a18:	02812423          	sw	s0,40(sp)
   13a1c:	01f12023          	sw	t6,0(sp)
   13a20:	01e12223          	sw	t5,4(sp)
   13a24:	01d11423          	sh	t4,8(sp)
   13a28:	01c10523          	sb	t3,10(sp)
   13a2c:	00612623          	sw	t1,12(sp)
   13a30:	01012a23          	sw	a6,20(sp)
   13a34:	00e12c23          	sw	a4,24(sp)
   13a38:	02d00893          	li	a7,45
   13a3c:	00100793          	li	a5,1
   13a40:	00064663          	bltz	a2,13a4c <_Z15PrintDMADecimaliiib+0x78>
   13a44:	02000893          	li	a7,32
   13a48:	00000793          	li	a5,0
   13a4c:	3b9ad737          	lui	a4,0x3b9ad
   13a50:	a0070813          	addi	a6,a4,-1536 # 3b9aca00 <__BSS_END__+0x3b986d38>
   13a54:	03064833          	div	a6,a2,a6
   13a58:	9ff70713          	addi	a4,a4,-1537
   13a5c:	01110623          	sb	a7,12(sp)
   13a60:	773598b7          	lui	a7,0x77359
   13a64:	00e60733          	add	a4,a2,a4
   13a68:	3fe88893          	addi	a7,a7,1022 # 773593fe <__BSS_END__+0x77333736>
   13a6c:	41f85313          	srai	t1,a6,0x1f
   13a70:	01034833          	xor	a6,t1,a6
   13a74:	40680833          	sub	a6,a6,t1
   13a78:	14e8e663          	bltu	a7,a4,13bc4 <_Z15PrintDMADecimaliiib+0x1f0>
   13a7c:	05f5e737          	lui	a4,0x5f5e
   13a80:	10070713          	addi	a4,a4,256 # 5f5e100 <__BSS_END__+0x5f38438>
   13a84:	02e64733          	div	a4,a2,a4
   13a88:	00a00893          	li	a7,10
   13a8c:	41f75313          	srai	t1,a4,0x1f
   13a90:	00e34833          	xor	a6,t1,a4
   13a94:	40680833          	sub	a6,a6,t1
   13a98:	03186833          	rem	a6,a6,a7
   13a9c:	16081263          	bnez	a6,13c00 <_Z15PrintDMADecimaliiib+0x22c>
   13aa0:	00989737          	lui	a4,0x989
   13aa4:	68070713          	addi	a4,a4,1664 # 989680 <__BSS_END__+0x9639b8>
   13aa8:	02e64733          	div	a4,a2,a4
   13aac:	41f75313          	srai	t1,a4,0x1f
   13ab0:	00e34833          	xor	a6,t1,a4
   13ab4:	40680833          	sub	a6,a6,t1
   13ab8:	03186833          	rem	a6,a6,a7
   13abc:	18081063          	bnez	a6,13c3c <_Z15PrintDMADecimaliiib+0x268>
   13ac0:	000f4737          	lui	a4,0xf4
   13ac4:	24070713          	addi	a4,a4,576 # f4240 <__BSS_END__+0xce578>
   13ac8:	02e64733          	div	a4,a2,a4
   13acc:	41f75313          	srai	t1,a4,0x1f
   13ad0:	00e34833          	xor	a6,t1,a4
   13ad4:	40680833          	sub	a6,a6,t1
   13ad8:	03186833          	rem	a6,a6,a7
   13adc:	18081e63          	bnez	a6,13c78 <_Z15PrintDMADecimaliiib+0x2a4>
   13ae0:	00018737          	lui	a4,0x18
   13ae4:	6a070713          	addi	a4,a4,1696 # 186a0 <_fopen_r+0xb8>
   13ae8:	02e64733          	div	a4,a2,a4
   13aec:	41f75313          	srai	t1,a4,0x1f
   13af0:	00e34833          	xor	a6,t1,a4
   13af4:	40680833          	sub	a6,a6,t1
   13af8:	03186833          	rem	a6,a6,a7
   13afc:	1a081c63          	bnez	a6,13cb4 <_Z15PrintDMADecimaliiib+0x2e0>
   13b00:	00002737          	lui	a4,0x2
   13b04:	71070713          	addi	a4,a4,1808 # 2710 <exit-0xd964>
   13b08:	02e64733          	div	a4,a2,a4
   13b0c:	41f75813          	srai	a6,a4,0x1f
   13b10:	00e84733          	xor	a4,a6,a4
   13b14:	41070733          	sub	a4,a4,a6
   13b18:	03176733          	rem	a4,a4,a7
   13b1c:	1c071a63          	bnez	a4,13cf0 <_Z15PrintDMADecimaliiib+0x31c>
   13b20:	3e800713          	li	a4,1000
   13b24:	02e64733          	div	a4,a2,a4
   13b28:	41f75313          	srai	t1,a4,0x1f
   13b2c:	00e34833          	xor	a6,t1,a4
   13b30:	40680833          	sub	a6,a6,t1
   13b34:	03186833          	rem	a6,a6,a7
   13b38:	1e081863          	bnez	a6,13d28 <_Z15PrintDMADecimaliiib+0x354>
   13b3c:	06400713          	li	a4,100
   13b40:	02e64733          	div	a4,a2,a4
   13b44:	41f75813          	srai	a6,a4,0x1f
   13b48:	00e84733          	xor	a4,a6,a4
   13b4c:	41070733          	sub	a4,a4,a6
   13b50:	03176733          	rem	a4,a4,a7
   13b54:	20071663          	bnez	a4,13d60 <_Z15PrintDMADecimaliiib+0x38c>
   13b58:	03164733          	div	a4,a2,a7
   13b5c:	41f75813          	srai	a6,a4,0x1f
   13b60:	00e84733          	xor	a4,a6,a4
   13b64:	41070733          	sub	a4,a4,a6
   13b68:	031768b3          	rem	a7,a4,a7
   13b6c:	22089463          	bnez	a7,13d94 <_Z15PrintDMADecimaliiib+0x3c0>
   13b70:	41f65813          	srai	a6,a2,0x1f
   13b74:	00c84733          	xor	a4,a6,a2
   13b78:	41070733          	sub	a4,a4,a6
   13b7c:	00a00613          	li	a2,10
   13b80:	02c76733          	rem	a4,a4,a2
   13b84:	02010893          	addi	a7,sp,32
   13b88:	02010613          	addi	a2,sp,32
   13b8c:	00178413          	addi	s0,a5,1
   13b90:	00f607b3          	add	a5,a2,a5
   13b94:	00860833          	add	a6,a2,s0
   13b98:	00c10613          	addi	a2,sp,12
   13b9c:	00e88733          	add	a4,a7,a4
   13ba0:	fe074703          	lbu	a4,-32(a4)
   13ba4:	fee78623          	sb	a4,-20(a5)
   13ba8:	fe080623          	sb	zero,-20(a6)
   13bac:	e0cff0ef          	jal	ra,131b8 <_Z8PrintDMAiiPKcb>
   13bb0:	02c12083          	lw	ra,44(sp)
   13bb4:	00040513          	mv	a0,s0
   13bb8:	02812403          	lw	s0,40(sp)
   13bbc:	03010113          	addi	sp,sp,48
   13bc0:	00008067          	ret
   13bc4:	05f5e737          	lui	a4,0x5f5e
   13bc8:	10070713          	addi	a4,a4,256 # 5f5e100 <__BSS_END__+0x5f38438>
   13bcc:	02e64733          	div	a4,a2,a4
   13bd0:	02010893          	addi	a7,sp,32
   13bd4:	01088833          	add	a6,a7,a6
   13bd8:	fe084883          	lbu	a7,-32(a6)
   13bdc:	02010813          	addi	a6,sp,32
   13be0:	00f80833          	add	a6,a6,a5
   13be4:	ff180623          	sb	a7,-20(a6)
   13be8:	00178793          	addi	a5,a5,1
   13bec:	41f75893          	srai	a7,a4,0x1f
   13bf0:	00e8c833          	xor	a6,a7,a4
   13bf4:	41180833          	sub	a6,a6,a7
   13bf8:	00a00713          	li	a4,10
   13bfc:	02e86833          	rem	a6,a6,a4
   13c00:	00989737          	lui	a4,0x989
   13c04:	68070713          	addi	a4,a4,1664 # 989680 <__BSS_END__+0x9639b8>
   13c08:	02010893          	addi	a7,sp,32
   13c0c:	01088833          	add	a6,a7,a6
   13c10:	fe084883          	lbu	a7,-32(a6)
   13c14:	02010813          	addi	a6,sp,32
   13c18:	00f80833          	add	a6,a6,a5
   13c1c:	ff180623          	sb	a7,-20(a6)
   13c20:	00178793          	addi	a5,a5,1
   13c24:	02e64733          	div	a4,a2,a4
   13c28:	41f75893          	srai	a7,a4,0x1f
   13c2c:	00e8c833          	xor	a6,a7,a4
   13c30:	41180833          	sub	a6,a6,a7
   13c34:	00a00713          	li	a4,10
   13c38:	02e86833          	rem	a6,a6,a4
   13c3c:	000f4737          	lui	a4,0xf4
   13c40:	24070713          	addi	a4,a4,576 # f4240 <__BSS_END__+0xce578>
   13c44:	02010893          	addi	a7,sp,32
   13c48:	01088833          	add	a6,a7,a6
   13c4c:	fe084883          	lbu	a7,-32(a6)
   13c50:	02010813          	addi	a6,sp,32
   13c54:	00f80833          	add	a6,a6,a5
   13c58:	ff180623          	sb	a7,-20(a6)
   13c5c:	00178793          	addi	a5,a5,1
   13c60:	02e64733          	div	a4,a2,a4
   13c64:	41f75893          	srai	a7,a4,0x1f
   13c68:	00e8c833          	xor	a6,a7,a4
   13c6c:	41180833          	sub	a6,a6,a7
   13c70:	00a00713          	li	a4,10
   13c74:	02e86833          	rem	a6,a6,a4
   13c78:	00018737          	lui	a4,0x18
   13c7c:	6a070713          	addi	a4,a4,1696 # 186a0 <_fopen_r+0xb8>
   13c80:	02010893          	addi	a7,sp,32
   13c84:	01088833          	add	a6,a7,a6
   13c88:	fe084883          	lbu	a7,-32(a6)
   13c8c:	02010813          	addi	a6,sp,32
   13c90:	00f80833          	add	a6,a6,a5
   13c94:	ff180623          	sb	a7,-20(a6)
   13c98:	00178793          	addi	a5,a5,1
   13c9c:	02e64733          	div	a4,a2,a4
   13ca0:	41f75893          	srai	a7,a4,0x1f
   13ca4:	00e8c833          	xor	a6,a7,a4
   13ca8:	41180833          	sub	a6,a6,a7
   13cac:	00a00713          	li	a4,10
   13cb0:	02e86833          	rem	a6,a6,a4
   13cb4:	00002737          	lui	a4,0x2
   13cb8:	71070713          	addi	a4,a4,1808 # 2710 <exit-0xd964>
   13cbc:	02010893          	addi	a7,sp,32
   13cc0:	01088833          	add	a6,a7,a6
   13cc4:	fe084883          	lbu	a7,-32(a6)
   13cc8:	02010813          	addi	a6,sp,32
   13ccc:	00f80833          	add	a6,a6,a5
   13cd0:	ff180623          	sb	a7,-20(a6)
   13cd4:	00178793          	addi	a5,a5,1
   13cd8:	02e64733          	div	a4,a2,a4
   13cdc:	41f75813          	srai	a6,a4,0x1f
   13ce0:	00e84733          	xor	a4,a6,a4
   13ce4:	41070733          	sub	a4,a4,a6
   13ce8:	00a00813          	li	a6,10
   13cec:	03076733          	rem	a4,a4,a6
   13cf0:	3e800813          	li	a6,1000
   13cf4:	02010893          	addi	a7,sp,32
   13cf8:	00e88733          	add	a4,a7,a4
   13cfc:	fe074883          	lbu	a7,-32(a4)
   13d00:	02010713          	addi	a4,sp,32
   13d04:	00f70733          	add	a4,a4,a5
   13d08:	ff170623          	sb	a7,-20(a4)
   13d0c:	00178793          	addi	a5,a5,1
   13d10:	03064833          	div	a6,a2,a6
   13d14:	41f85713          	srai	a4,a6,0x1f
   13d18:	01074833          	xor	a6,a4,a6
   13d1c:	40e80833          	sub	a6,a6,a4
   13d20:	00a00713          	li	a4,10
   13d24:	02e86833          	rem	a6,a6,a4
   13d28:	06400713          	li	a4,100
   13d2c:	02010893          	addi	a7,sp,32
   13d30:	01088833          	add	a6,a7,a6
   13d34:	fe084883          	lbu	a7,-32(a6)
   13d38:	02010813          	addi	a6,sp,32
   13d3c:	00f80833          	add	a6,a6,a5
   13d40:	ff180623          	sb	a7,-20(a6)
   13d44:	00178793          	addi	a5,a5,1
   13d48:	02e64733          	div	a4,a2,a4
   13d4c:	41f75813          	srai	a6,a4,0x1f
   13d50:	00e84733          	xor	a4,a6,a4
   13d54:	41070733          	sub	a4,a4,a6
   13d58:	00a00813          	li	a6,10
   13d5c:	03076733          	rem	a4,a4,a6
   13d60:	00a00313          	li	t1,10
   13d64:	02010893          	addi	a7,sp,32
   13d68:	00e88733          	add	a4,a7,a4
   13d6c:	fe074883          	lbu	a7,-32(a4)
   13d70:	02010713          	addi	a4,sp,32
   13d74:	00f70733          	add	a4,a4,a5
   13d78:	ff170623          	sb	a7,-20(a4)
   13d7c:	00178793          	addi	a5,a5,1
   13d80:	02664833          	div	a6,a2,t1
   13d84:	41f85713          	srai	a4,a6,0x1f
   13d88:	010748b3          	xor	a7,a4,a6
   13d8c:	40e888b3          	sub	a7,a7,a4
   13d90:	0268e8b3          	rem	a7,a7,t1
   13d94:	02010713          	addi	a4,sp,32
   13d98:	011708b3          	add	a7,a4,a7
   13d9c:	fe08c803          	lbu	a6,-32(a7)
   13da0:	00f70733          	add	a4,a4,a5
   13da4:	00178793          	addi	a5,a5,1
   13da8:	ff070623          	sb	a6,-20(a4)
   13dac:	dc5ff06f          	j	13b70 <_Z15PrintDMADecimaliiib+0x19c>

00013db0 <_Z8EchoUARTPKc>:
   13db0:	00054783          	lbu	a5,0(a0)
   13db4:	02078263          	beqz	a5,13dd8 <_Z8EchoUARTPKc+0x28>
   13db8:	00150513          	addi	a0,a0,1
   13dbc:	0000d697          	auipc	a3,0xd
   13dc0:	fc86a683          	lw	a3,-56(a3) # 20d84 <_GLOBAL_OFFSET_TABLE_+0x70>
   13dc4:	0006a703          	lw	a4,0(a3)
   13dc8:	00150513          	addi	a0,a0,1
   13dcc:	00f70023          	sb	a5,0(a4)
   13dd0:	fff54783          	lbu	a5,-1(a0)
   13dd4:	fe0798e3          	bnez	a5,13dc4 <_Z8EchoUARTPKc+0x14>
   13dd8:	00008067          	ret

00013ddc <_Z7EchoHexm>:
   13ddc:	00008617          	auipc	a2,0x8
   13de0:	e8060613          	addi	a2,a2,-384 # 1bc5c <_ZL9hexdigits+0x14>
   13de4:	00c62803          	lw	a6,12(a2)
   13de8:	00062e03          	lw	t3,0(a2)
   13dec:	00462303          	lw	t1,4(a2)
   13df0:	00862883          	lw	a7,8(a2)
   13df4:	fd010113          	addi	sp,sp,-48
   13df8:	00c55793          	srli	a5,a0,0xc
   13dfc:	00855693          	srli	a3,a0,0x8
   13e00:	01855713          	srli	a4,a0,0x18
   13e04:	01012c23          	sw	a6,24(sp)
   13e08:	01c55593          	srli	a1,a0,0x1c
   13e0c:	02010813          	addi	a6,sp,32
   13e10:	00f7f793          	andi	a5,a5,15
   13e14:	00f6f693          	andi	a3,a3,15
   13e18:	00f77713          	andi	a4,a4,15
   13e1c:	02112623          	sw	ra,44(sp)
   13e20:	01112a23          	sw	a7,20(sp)
   13e24:	01c12623          	sw	t3,12(sp)
   13e28:	00612823          	sw	t1,16(sp)
   13e2c:	00d806b3          	add	a3,a6,a3
   13e30:	00b805b3          	add	a1,a6,a1
   13e34:	00e80733          	add	a4,a6,a4
   13e38:	00f807b3          	add	a5,a6,a5
   13e3c:	00455893          	srli	a7,a0,0x4
   13e40:	01455813          	srli	a6,a0,0x14
   13e44:	fec6ce83          	lbu	t4,-20(a3)
   13e48:	fec74e03          	lbu	t3,-20(a4)
   13e4c:	fec5c683          	lbu	a3,-20(a1)
   13e50:	02010713          	addi	a4,sp,32
   13e54:	fec7c783          	lbu	a5,-20(a5)
   13e58:	00f8f893          	andi	a7,a7,15
   13e5c:	00f87813          	andi	a6,a6,15
   13e60:	011708b3          	add	a7,a4,a7
   13e64:	01070833          	add	a6,a4,a6
   13e68:	01055593          	srli	a1,a0,0x10
   13e6c:	ffff0737          	lui	a4,0xffff0
   13e70:	fec8c303          	lbu	t1,-20(a7)
   13e74:	0ff70713          	addi	a4,a4,255 # ffff00ff <__BSS_END__+0xfffca437>
   13e78:	fec84883          	lbu	a7,-20(a6)
   13e7c:	00f5f593          	andi	a1,a1,15
   13e80:	02010813          	addi	a6,sp,32
   13e84:	00f57513          	andi	a0,a0,15
   13e88:	008e9e93          	slli	t4,t4,0x8
   13e8c:	00e7f7b3          	and	a5,a5,a4
   13e90:	00a80533          	add	a0,a6,a0
   13e94:	008e1e13          	slli	t3,t3,0x8
   13e98:	00e6f733          	and	a4,a3,a4
   13e9c:	00b806b3          	add	a3,a6,a1
   13ea0:	ff0105b7          	lui	a1,0xff010
   13ea4:	fec54803          	lbu	a6,-20(a0)
   13ea8:	fff58593          	addi	a1,a1,-1 # ff00ffff <__BSS_END__+0xfefea337>
   13eac:	fec6c503          	lbu	a0,-20(a3)
   13eb0:	01d7e7b3          	or	a5,a5,t4
   13eb4:	01c76733          	or	a4,a4,t3
   13eb8:	01031313          	slli	t1,t1,0x10
   13ebc:	00b7f7b3          	and	a5,a5,a1
   13ec0:	01089893          	slli	a7,a7,0x10
   13ec4:	00b77733          	and	a4,a4,a1
   13ec8:	010006b7          	lui	a3,0x1000
   13ecc:	01064e03          	lbu	t3,16(a2)
   13ed0:	fff68693          	addi	a3,a3,-1 # ffffff <__BSS_END__+0xfda337>
   13ed4:	0067e7b3          	or	a5,a5,t1
   13ed8:	01176733          	or	a4,a4,a7
   13edc:	01851613          	slli	a2,a0,0x18
   13ee0:	01881593          	slli	a1,a6,0x18
   13ee4:	00d7f7b3          	and	a5,a5,a3
   13ee8:	00d77733          	and	a4,a4,a3
   13eec:	00b7e7b3          	or	a5,a5,a1
   13ef0:	00c76733          	or	a4,a4,a2
   13ef4:	00010513          	mv	a0,sp
   13ef8:	01c10e23          	sb	t3,28(sp)
   13efc:	00010423          	sb	zero,8(sp)
   13f00:	00e12023          	sw	a4,0(sp)
   13f04:	00f12223          	sw	a5,4(sp)
   13f08:	ea9ff0ef          	jal	ra,13db0 <_Z8EchoUARTPKc>
   13f0c:	02c12083          	lw	ra,44(sp)
   13f10:	03010113          	addi	sp,sp,48
   13f14:	00008067          	ret

00013f18 <_Z11ClearScreenh>:
   13f18:	01051713          	slli	a4,a0,0x10
   13f1c:	01851793          	slli	a5,a0,0x18
   13f20:	00e7e7b3          	or	a5,a5,a4
   13f24:	00a7e7b3          	or	a5,a5,a0
   13f28:	0000d717          	auipc	a4,0xd
   13f2c:	e1872703          	lw	a4,-488(a4) # 20d40 <_GLOBAL_OFFSET_TABLE_+0x2c>
   13f30:	00851513          	slli	a0,a0,0x8
   13f34:	00072703          	lw	a4,0(a4)
   13f38:	00a7e533          	or	a0,a5,a0
   13f3c:	00a51793          	slli	a5,a0,0xa
   13f40:	01655513          	srli	a0,a0,0x16
   13f44:	0817e793          	ori	a5,a5,129
   13f48:	00a51513          	slli	a0,a0,0xa
   13f4c:	00f72023          	sw	a5,0(a4)
   13f50:	09156513          	ori	a0,a0,145
   13f54:	00a72023          	sw	a0,0(a4)
   13f58:	01300793          	li	a5,19
   13f5c:	00f72023          	sw	a5,0(a4)
   13f60:	00008067          	ret

00013f64 <_Z9ReadClockv>:
   13f64:	c81025f3          	rdtimeh	a1
   13f68:	c0102573          	rdtime	a0
   13f6c:	c81027f3          	rdtimeh	a5
   13f70:	fef59ae3          	bne	a1,a5,13f64 <_Z9ReadClockv>
   13f74:	00008067          	ret

00013f78 <_Z9ClockToMsy>:
   13f78:	00002637          	lui	a2,0x2
   13f7c:	ff010113          	addi	sp,sp,-16
   13f80:	71060613          	addi	a2,a2,1808 # 2710 <exit-0xd964>
   13f84:	00000693          	li	a3,0
   13f88:	00112623          	sw	ra,12(sp)
   13f8c:	395030ef          	jal	ra,17b20 <__udivdi3>
   13f90:	00c12083          	lw	ra,12(sp)
   13f94:	01010113          	addi	sp,sp,16
   13f98:	00008067          	ret

00013f9c <_Z12ClockMsToHMSmRmS_S_>:
   13f9c:	000587b7          	lui	a5,0x58
   13fa0:	e4078793          	addi	a5,a5,-448 # 57e40 <__BSS_END__+0x32178>
   13fa4:	02f577b3          	remu	a5,a0,a5
   13fa8:	0036f837          	lui	a6,0x36f
   13fac:	e8080813          	addi	a6,a6,-384 # 36ee80 <__BSS_END__+0x3491b8>
   13fb0:	0000f737          	lui	a4,0xf
   13fb4:	a6070713          	addi	a4,a4,-1440 # ea60 <exit-0x1614>
   13fb8:	030578b3          	remu	a7,a0,a6
   13fbc:	03055533          	divu	a0,a0,a6
   13fc0:	02e7f7b3          	remu	a5,a5,a4
   13fc4:	00a5a023          	sw	a0,0(a1)
   13fc8:	3e800593          	li	a1,1000
   13fcc:	02e8d733          	divu	a4,a7,a4
   13fd0:	02b7d7b3          	divu	a5,a5,a1
   13fd4:	00e62023          	sw	a4,0(a2)
   13fd8:	00f6a023          	sw	a5,0(a3)
   13fdc:	00008067          	ret

00013fe0 <_chdir>:
   13fe0:	ff010113          	addi	sp,sp,-16
   13fe4:	00112623          	sw	ra,12(sp)
   13fe8:	76d030ef          	jal	ra,17f54 <__errno>
   13fec:	00c12083          	lw	ra,12(sp)
   13ff0:	05800793          	li	a5,88
   13ff4:	00f52023          	sw	a5,0(a0)
   13ff8:	fff00513          	li	a0,-1
   13ffc:	01010113          	addi	sp,sp,16
   14000:	00008067          	ret

00014004 <_getcwd>:
   14004:	ff010113          	addi	sp,sp,-16
   14008:	00112623          	sw	ra,12(sp)
   1400c:	749030ef          	jal	ra,17f54 <__errno>
   14010:	00c12083          	lw	ra,12(sp)
   14014:	fa800793          	li	a5,-88
   14018:	00f52023          	sw	a5,0(a0)
   1401c:	00000513          	li	a0,0
   14020:	01010113          	addi	sp,sp,16
   14024:	00008067          	ret

00014028 <_isatty>:
   14028:	fff50513          	addi	a0,a0,-1
   1402c:	00153513          	seqz	a0,a0
   14030:	00008067          	ret

00014034 <_close>:
   14034:	22400793          	li	a5,548
   14038:	02f50533          	mul	a0,a0,a5
   1403c:	0000d797          	auipc	a5,0xd
   14040:	ce07a783          	lw	a5,-800(a5) # 20d1c <_GLOBAL_OFFSET_TABLE_+0x8>
   14044:	ff010113          	addi	sp,sp,-16
   14048:	00112623          	sw	ra,12(sp)
   1404c:	00a78533          	add	a0,a5,a0
   14050:	298020ef          	jal	ra,162e8 <f_close>
   14054:	00c12083          	lw	ra,12(sp)
   14058:	00000513          	li	a0,0
   1405c:	01010113          	addi	sp,sp,16
   14060:	00008067          	ret

00014064 <_lseek>:
   14064:	22400793          	li	a5,548
   14068:	02f507b3          	mul	a5,a0,a5
   1406c:	ff010113          	addi	sp,sp,-16
   14070:	0000d717          	auipc	a4,0xd
   14074:	cac72703          	lw	a4,-852(a4) # 20d1c <_GLOBAL_OFFSET_TABLE_+0x8>
   14078:	00112623          	sw	ra,12(sp)
   1407c:	00812423          	sw	s0,8(sp)
   14080:	00200693          	li	a3,2
   14084:	00f707b3          	add	a5,a4,a5
   14088:	0147a803          	lw	a6,20(a5)
   1408c:	04d60063          	beq	a2,a3,140cc <_lseek+0x68>
   14090:	00100793          	li	a5,1
   14094:	00058413          	mv	s0,a1
   14098:	02f60463          	beq	a2,a5,140c0 <_lseek+0x5c>
   1409c:	22400793          	li	a5,548
   140a0:	02f50533          	mul	a0,a0,a5
   140a4:	00a70533          	add	a0,a4,a0
   140a8:	3b0020ef          	jal	ra,16458 <f_lseek>
   140ac:	00c12083          	lw	ra,12(sp)
   140b0:	00040513          	mv	a0,s0
   140b4:	00812403          	lw	s0,8(sp)
   140b8:	01010113          	addi	sp,sp,16
   140bc:	00008067          	ret
   140c0:	010585b3          	add	a1,a1,a6
   140c4:	00058413          	mv	s0,a1
   140c8:	fd5ff06f          	j	1409c <_lseek+0x38>
   140cc:	00c7a583          	lw	a1,12(a5)
   140d0:	00058413          	mv	s0,a1
   140d4:	fc9ff06f          	j	1409c <_lseek+0x38>

000140d8 <_lstat>:
   140d8:	ff010113          	addi	sp,sp,-16
   140dc:	00112623          	sw	ra,12(sp)
   140e0:	675030ef          	jal	ra,17f54 <__errno>
   140e4:	00c12083          	lw	ra,12(sp)
   140e8:	05800793          	li	a5,88
   140ec:	00f52023          	sw	a5,0(a0)
   140f0:	fff00513          	li	a0,-1
   140f4:	01010113          	addi	sp,sp,16
   140f8:	00008067          	ret

000140fc <_open>:
   140fc:	ff010113          	addi	sp,sp,-16
   14100:	00812423          	sw	s0,8(sp)
   14104:	0000d417          	auipc	s0,0xd
   14108:	c2c42403          	lw	s0,-980(s0) # 20d30 <_GLOBAL_OFFSET_TABLE_+0x1c>
   1410c:	00912223          	sw	s1,4(sp)
   14110:	00042483          	lw	s1,0(s0)
   14114:	22400793          	li	a5,548
   14118:	00050593          	mv	a1,a0
   1411c:	02f487b3          	mul	a5,s1,a5
   14120:	0000d517          	auipc	a0,0xd
   14124:	bfc52503          	lw	a0,-1028(a0) # 20d1c <_GLOBAL_OFFSET_TABLE_+0x8>
   14128:	00100613          	li	a2,1
   1412c:	00112623          	sw	ra,12(sp)
   14130:	00f50533          	add	a0,a0,a5
   14134:	5e9010ef          	jal	ra,15f1c <f_open>
   14138:	02051463          	bnez	a0,14160 <_open+0x64>
   1413c:	00042783          	lw	a5,0(s0)
   14140:	00178793          	addi	a5,a5,1
   14144:	00f42023          	sw	a5,0(s0)
   14148:	00c12083          	lw	ra,12(sp)
   1414c:	00812403          	lw	s0,8(sp)
   14150:	00048513          	mv	a0,s1
   14154:	00412483          	lw	s1,4(sp)
   14158:	01010113          	addi	sp,sp,16
   1415c:	00008067          	ret
   14160:	5f5030ef          	jal	ra,17f54 <__errno>
   14164:	00200793          	li	a5,2
   14168:	00f52023          	sw	a5,0(a0)
   1416c:	fff00493          	li	s1,-1
   14170:	fd9ff06f          	j	14148 <_open+0x4c>

00014174 <_openat>:
   14174:	ff010113          	addi	sp,sp,-16
   14178:	00112623          	sw	ra,12(sp)
   1417c:	5d9030ef          	jal	ra,17f54 <__errno>
   14180:	00c12083          	lw	ra,12(sp)
   14184:	05800793          	li	a5,88
   14188:	00f52023          	sw	a5,0(a0)
   1418c:	fff00513          	li	a0,-1
   14190:	01010113          	addi	sp,sp,16
   14194:	00008067          	ret

00014198 <_read>:
   14198:	22400793          	li	a5,548
   1419c:	02f50533          	mul	a0,a0,a5
   141a0:	fe010113          	addi	sp,sp,-32
   141a4:	0000d797          	auipc	a5,0xd
   141a8:	b787a783          	lw	a5,-1160(a5) # 20d1c <_GLOBAL_OFFSET_TABLE_+0x8>
   141ac:	00c10693          	addi	a3,sp,12
   141b0:	00112e23          	sw	ra,28(sp)
   141b4:	00a78533          	add	a0,a5,a0
   141b8:	695010ef          	jal	ra,1604c <f_read>
   141bc:	00051a63          	bnez	a0,141d0 <_read+0x38>
   141c0:	01c12083          	lw	ra,28(sp)
   141c4:	00c12503          	lw	a0,12(sp)
   141c8:	02010113          	addi	sp,sp,32
   141cc:	00008067          	ret
   141d0:	01c12083          	lw	ra,28(sp)
   141d4:	00000513          	li	a0,0
   141d8:	02010113          	addi	sp,sp,32
   141dc:	00008067          	ret

000141e0 <_write>:
   141e0:	00100793          	li	a5,1
   141e4:	02f51863          	bne	a0,a5,14214 <_write+0x34>
   141e8:	00c586b3          	add	a3,a1,a2
   141ec:	02d58063          	beq	a1,a3,1420c <_write+0x2c>
   141f0:	0000d817          	auipc	a6,0xd
   141f4:	b9482803          	lw	a6,-1132(a6) # 20d84 <_GLOBAL_OFFSET_TABLE_+0x70>
   141f8:	0005c703          	lbu	a4,0(a1)
   141fc:	00082783          	lw	a5,0(a6)
   14200:	00158593          	addi	a1,a1,1
   14204:	00e78023          	sb	a4,0(a5)
   14208:	feb698e3          	bne	a3,a1,141f8 <_write+0x18>
   1420c:	00060513          	mv	a0,a2
   14210:	00008067          	ret
   14214:	ff010113          	addi	sp,sp,-16
   14218:	00112623          	sw	ra,12(sp)
   1421c:	539030ef          	jal	ra,17f54 <__errno>
   14220:	00c12083          	lw	ra,12(sp)
   14224:	05800793          	li	a5,88
   14228:	00f52023          	sw	a5,0(a0)
   1422c:	fff00513          	li	a0,-1
   14230:	01010113          	addi	sp,sp,16
   14234:	00008067          	ret

00014238 <_wait>:
   14238:	ff010113          	addi	sp,sp,-16
   1423c:	00112623          	sw	ra,12(sp)
   14240:	515030ef          	jal	ra,17f54 <__errno>
   14244:	00c12083          	lw	ra,12(sp)
   14248:	00a00793          	li	a5,10
   1424c:	00f52023          	sw	a5,0(a0)
   14250:	fff00513          	li	a0,-1
   14254:	01010113          	addi	sp,sp,16
   14258:	00008067          	ret

0001425c <_sbrk>:
   1425c:	0000d617          	auipc	a2,0xd
   14260:	a4860613          	addi	a2,a2,-1464 # 20ca4 <_ZL10heap_start>
   14264:	00062703          	lw	a4,0(a2)
   14268:	070007b7          	lui	a5,0x7000
   1426c:	fff78593          	addi	a1,a5,-1 # 6ffffff <__BSS_END__+0x6fda337>
   14270:	02b70663          	beq	a4,a1,1429c <_sbrk+0x40>
   14274:	00a706b3          	add	a3,a4,a0
   14278:	ffe78793          	addi	a5,a5,-2
   1427c:	00d7f863          	bgeu	a5,a3,1428c <_sbrk+0x30>
   14280:	00b62023          	sw	a1,0(a2)
   14284:	00070513          	mv	a0,a4
   14288:	00008067          	ret
   1428c:	00a68533          	add	a0,a3,a0
   14290:	00a62023          	sw	a0,0(a2)
   14294:	00070513          	mv	a0,a4
   14298:	00008067          	ret
   1429c:	00000713          	li	a4,0
   142a0:	fe5ff06f          	j	14284 <_sbrk+0x28>

000142a4 <_Z9SDStrobe8v>:
   142a4:	00008067          	ret

000142a8 <_Z5SDCmd13SDCardCommandm>:
   142a8:	03f57613          	andi	a2,a0,63
   142ac:	01a61793          	slli	a5,a2,0x1a
   142b0:	41f7d793          	srai	a5,a5,0x1f
   142b4:	0097f793          	andi	a5,a5,9
   142b8:	04066613          	ori	a2,a2,64
   142bc:	01278793          	addi	a5,a5,18
   142c0:	00179793          	slli	a5,a5,0x1
   142c4:	00361713          	slli	a4,a2,0x3
   142c8:	00e7c733          	xor	a4,a5,a4
   142cc:	01871893          	slli	a7,a4,0x18
   142d0:	0105d513          	srli	a0,a1,0x10
   142d4:	0085d693          	srli	a3,a1,0x8
   142d8:	4188d893          	srai	a7,a7,0x18
   142dc:	0185d813          	srli	a6,a1,0x18
   142e0:	0ff57513          	andi	a0,a0,255
   142e4:	0ff6f693          	andi	a3,a3,255
   142e8:	0ff5f713          	andi	a4,a1,255
   142ec:	0008d463          	bgez	a7,142f4 <_Z5SDCmd13SDCardCommandm+0x4c>
   142f0:	0097c793          	xori	a5,a5,9
   142f4:	00179793          	slli	a5,a5,0x1
   142f8:	00461593          	slli	a1,a2,0x4
   142fc:	00b7c5b3          	xor	a1,a5,a1
   14300:	01859593          	slli	a1,a1,0x18
   14304:	4185d593          	srai	a1,a1,0x18
   14308:	0005d663          	bgez	a1,14314 <_Z5SDCmd13SDCardCommandm+0x6c>
   1430c:	0097c793          	xori	a5,a5,9
   14310:	0ff7f793          	andi	a5,a5,255
   14314:	00179793          	slli	a5,a5,0x1
   14318:	0ff7f793          	andi	a5,a5,255
   1431c:	00561593          	slli	a1,a2,0x5
   14320:	00b7c5b3          	xor	a1,a5,a1
   14324:	01859593          	slli	a1,a1,0x18
   14328:	4185d593          	srai	a1,a1,0x18
   1432c:	0005d463          	bgez	a1,14334 <_Z5SDCmd13SDCardCommandm+0x8c>
   14330:	0097c793          	xori	a5,a5,9
   14334:	00179793          	slli	a5,a5,0x1
   14338:	0ff7f793          	andi	a5,a5,255
   1433c:	00661593          	slli	a1,a2,0x6
   14340:	00b7c5b3          	xor	a1,a5,a1
   14344:	01859593          	slli	a1,a1,0x18
   14348:	4185d593          	srai	a1,a1,0x18
   1434c:	0005d463          	bgez	a1,14354 <_Z5SDCmd13SDCardCommandm+0xac>
   14350:	0097c793          	xori	a5,a5,9
   14354:	00179793          	slli	a5,a5,0x1
   14358:	0ff7f793          	andi	a5,a5,255
   1435c:	00761593          	slli	a1,a2,0x7
   14360:	00b7c5b3          	xor	a1,a5,a1
   14364:	01859593          	slli	a1,a1,0x18
   14368:	4185d593          	srai	a1,a1,0x18
   1436c:	0005d463          	bgez	a1,14374 <_Z5SDCmd13SDCardCommandm+0xcc>
   14370:	0097c793          	xori	a5,a5,9
   14374:	00179793          	slli	a5,a5,0x1
   14378:	0ff7f793          	andi	a5,a5,255
   1437c:	00f845b3          	xor	a1,a6,a5
   14380:	01859593          	slli	a1,a1,0x18
   14384:	4185d593          	srai	a1,a1,0x18
   14388:	0005d463          	bgez	a1,14390 <_Z5SDCmd13SDCardCommandm+0xe8>
   1438c:	0097c793          	xori	a5,a5,9
   14390:	00179793          	slli	a5,a5,0x1
   14394:	0ff7f793          	andi	a5,a5,255
   14398:	00181593          	slli	a1,a6,0x1
   1439c:	00b7c5b3          	xor	a1,a5,a1
   143a0:	01859593          	slli	a1,a1,0x18
   143a4:	4185d593          	srai	a1,a1,0x18
   143a8:	0005d463          	bgez	a1,143b0 <_Z5SDCmd13SDCardCommandm+0x108>
   143ac:	0097c793          	xori	a5,a5,9
   143b0:	00179793          	slli	a5,a5,0x1
   143b4:	0ff7f793          	andi	a5,a5,255
   143b8:	00281593          	slli	a1,a6,0x2
   143bc:	00b7c5b3          	xor	a1,a5,a1
   143c0:	01859593          	slli	a1,a1,0x18
   143c4:	4185d593          	srai	a1,a1,0x18
   143c8:	0005d463          	bgez	a1,143d0 <_Z5SDCmd13SDCardCommandm+0x128>
   143cc:	0097c793          	xori	a5,a5,9
   143d0:	00179793          	slli	a5,a5,0x1
   143d4:	0ff7f793          	andi	a5,a5,255
   143d8:	00381593          	slli	a1,a6,0x3
   143dc:	00b7c5b3          	xor	a1,a5,a1
   143e0:	01859593          	slli	a1,a1,0x18
   143e4:	4185d593          	srai	a1,a1,0x18
   143e8:	0005d463          	bgez	a1,143f0 <_Z5SDCmd13SDCardCommandm+0x148>
   143ec:	0097c793          	xori	a5,a5,9
   143f0:	00179793          	slli	a5,a5,0x1
   143f4:	0ff7f793          	andi	a5,a5,255
   143f8:	00481593          	slli	a1,a6,0x4
   143fc:	00b7c5b3          	xor	a1,a5,a1
   14400:	01859593          	slli	a1,a1,0x18
   14404:	4185d593          	srai	a1,a1,0x18
   14408:	0005d463          	bgez	a1,14410 <_Z5SDCmd13SDCardCommandm+0x168>
   1440c:	0097c793          	xori	a5,a5,9
   14410:	00179793          	slli	a5,a5,0x1
   14414:	0ff7f793          	andi	a5,a5,255
   14418:	00581593          	slli	a1,a6,0x5
   1441c:	00b7c5b3          	xor	a1,a5,a1
   14420:	01859593          	slli	a1,a1,0x18
   14424:	4185d593          	srai	a1,a1,0x18
   14428:	0005d463          	bgez	a1,14430 <_Z5SDCmd13SDCardCommandm+0x188>
   1442c:	0097c793          	xori	a5,a5,9
   14430:	00179793          	slli	a5,a5,0x1
   14434:	0ff7f793          	andi	a5,a5,255
   14438:	00681593          	slli	a1,a6,0x6
   1443c:	00b7c5b3          	xor	a1,a5,a1
   14440:	01859593          	slli	a1,a1,0x18
   14444:	4185d593          	srai	a1,a1,0x18
   14448:	0005d463          	bgez	a1,14450 <_Z5SDCmd13SDCardCommandm+0x1a8>
   1444c:	0097c793          	xori	a5,a5,9
   14450:	00179793          	slli	a5,a5,0x1
   14454:	0ff7f793          	andi	a5,a5,255
   14458:	00781593          	slli	a1,a6,0x7
   1445c:	00b7c5b3          	xor	a1,a5,a1
   14460:	01859593          	slli	a1,a1,0x18
   14464:	4185d593          	srai	a1,a1,0x18
   14468:	0005d463          	bgez	a1,14470 <_Z5SDCmd13SDCardCommandm+0x1c8>
   1446c:	0097c793          	xori	a5,a5,9
   14470:	00179793          	slli	a5,a5,0x1
   14474:	0ff7f793          	andi	a5,a5,255
   14478:	00f545b3          	xor	a1,a0,a5
   1447c:	01859593          	slli	a1,a1,0x18
   14480:	4185d593          	srai	a1,a1,0x18
   14484:	0005d463          	bgez	a1,1448c <_Z5SDCmd13SDCardCommandm+0x1e4>
   14488:	0097c793          	xori	a5,a5,9
   1448c:	00179793          	slli	a5,a5,0x1
   14490:	0ff7f793          	andi	a5,a5,255
   14494:	00151593          	slli	a1,a0,0x1
   14498:	00b7c5b3          	xor	a1,a5,a1
   1449c:	01859593          	slli	a1,a1,0x18
   144a0:	4185d593          	srai	a1,a1,0x18
   144a4:	0005d463          	bgez	a1,144ac <_Z5SDCmd13SDCardCommandm+0x204>
   144a8:	0097c793          	xori	a5,a5,9
   144ac:	00179793          	slli	a5,a5,0x1
   144b0:	0ff7f793          	andi	a5,a5,255
   144b4:	00251593          	slli	a1,a0,0x2
   144b8:	00b7c5b3          	xor	a1,a5,a1
   144bc:	01859593          	slli	a1,a1,0x18
   144c0:	4185d593          	srai	a1,a1,0x18
   144c4:	0005d463          	bgez	a1,144cc <_Z5SDCmd13SDCardCommandm+0x224>
   144c8:	0097c793          	xori	a5,a5,9
   144cc:	00179793          	slli	a5,a5,0x1
   144d0:	0ff7f793          	andi	a5,a5,255
   144d4:	00351593          	slli	a1,a0,0x3
   144d8:	00b7c5b3          	xor	a1,a5,a1
   144dc:	01859593          	slli	a1,a1,0x18
   144e0:	4185d593          	srai	a1,a1,0x18
   144e4:	0005d463          	bgez	a1,144ec <_Z5SDCmd13SDCardCommandm+0x244>
   144e8:	0097c793          	xori	a5,a5,9
   144ec:	00179793          	slli	a5,a5,0x1
   144f0:	0ff7f793          	andi	a5,a5,255
   144f4:	00451593          	slli	a1,a0,0x4
   144f8:	00b7c5b3          	xor	a1,a5,a1
   144fc:	01859593          	slli	a1,a1,0x18
   14500:	4185d593          	srai	a1,a1,0x18
   14504:	0005d463          	bgez	a1,1450c <_Z5SDCmd13SDCardCommandm+0x264>
   14508:	0097c793          	xori	a5,a5,9
   1450c:	00179793          	slli	a5,a5,0x1
   14510:	0ff7f793          	andi	a5,a5,255
   14514:	00551593          	slli	a1,a0,0x5
   14518:	00b7c5b3          	xor	a1,a5,a1
   1451c:	01859593          	slli	a1,a1,0x18
   14520:	4185d593          	srai	a1,a1,0x18
   14524:	0005d463          	bgez	a1,1452c <_Z5SDCmd13SDCardCommandm+0x284>
   14528:	0097c793          	xori	a5,a5,9
   1452c:	00179793          	slli	a5,a5,0x1
   14530:	0ff7f793          	andi	a5,a5,255
   14534:	00651593          	slli	a1,a0,0x6
   14538:	00b7c5b3          	xor	a1,a5,a1
   1453c:	01859593          	slli	a1,a1,0x18
   14540:	4185d593          	srai	a1,a1,0x18
   14544:	0005d463          	bgez	a1,1454c <_Z5SDCmd13SDCardCommandm+0x2a4>
   14548:	0097c793          	xori	a5,a5,9
   1454c:	00179793          	slli	a5,a5,0x1
   14550:	0ff7f793          	andi	a5,a5,255
   14554:	00751593          	slli	a1,a0,0x7
   14558:	00b7c5b3          	xor	a1,a5,a1
   1455c:	01859593          	slli	a1,a1,0x18
   14560:	4185d593          	srai	a1,a1,0x18
   14564:	0005d463          	bgez	a1,1456c <_Z5SDCmd13SDCardCommandm+0x2c4>
   14568:	0097c793          	xori	a5,a5,9
   1456c:	00179793          	slli	a5,a5,0x1
   14570:	0ff7f793          	andi	a5,a5,255
   14574:	00f6c5b3          	xor	a1,a3,a5
   14578:	01859593          	slli	a1,a1,0x18
   1457c:	4185d593          	srai	a1,a1,0x18
   14580:	0005d463          	bgez	a1,14588 <_Z5SDCmd13SDCardCommandm+0x2e0>
   14584:	0097c793          	xori	a5,a5,9
   14588:	00179793          	slli	a5,a5,0x1
   1458c:	0ff7f793          	andi	a5,a5,255
   14590:	00169593          	slli	a1,a3,0x1
   14594:	00b7c5b3          	xor	a1,a5,a1
   14598:	01859593          	slli	a1,a1,0x18
   1459c:	4185d593          	srai	a1,a1,0x18
   145a0:	0005d463          	bgez	a1,145a8 <_Z5SDCmd13SDCardCommandm+0x300>
   145a4:	0097c793          	xori	a5,a5,9
   145a8:	00179793          	slli	a5,a5,0x1
   145ac:	0ff7f793          	andi	a5,a5,255
   145b0:	00269593          	slli	a1,a3,0x2
   145b4:	00b7c5b3          	xor	a1,a5,a1
   145b8:	01859593          	slli	a1,a1,0x18
   145bc:	4185d593          	srai	a1,a1,0x18
   145c0:	0005d463          	bgez	a1,145c8 <_Z5SDCmd13SDCardCommandm+0x320>
   145c4:	0097c793          	xori	a5,a5,9
   145c8:	00179793          	slli	a5,a5,0x1
   145cc:	0ff7f793          	andi	a5,a5,255
   145d0:	00369593          	slli	a1,a3,0x3
   145d4:	00b7c5b3          	xor	a1,a5,a1
   145d8:	01859593          	slli	a1,a1,0x18
   145dc:	4185d593          	srai	a1,a1,0x18
   145e0:	0005d463          	bgez	a1,145e8 <_Z5SDCmd13SDCardCommandm+0x340>
   145e4:	0097c793          	xori	a5,a5,9
   145e8:	00179793          	slli	a5,a5,0x1
   145ec:	0ff7f793          	andi	a5,a5,255
   145f0:	00469593          	slli	a1,a3,0x4
   145f4:	00b7c5b3          	xor	a1,a5,a1
   145f8:	01859593          	slli	a1,a1,0x18
   145fc:	4185d593          	srai	a1,a1,0x18
   14600:	0005d463          	bgez	a1,14608 <_Z5SDCmd13SDCardCommandm+0x360>
   14604:	0097c793          	xori	a5,a5,9
   14608:	00179793          	slli	a5,a5,0x1
   1460c:	0ff7f793          	andi	a5,a5,255
   14610:	00569593          	slli	a1,a3,0x5
   14614:	00b7c5b3          	xor	a1,a5,a1
   14618:	01859593          	slli	a1,a1,0x18
   1461c:	4185d593          	srai	a1,a1,0x18
   14620:	0005d463          	bgez	a1,14628 <_Z5SDCmd13SDCardCommandm+0x380>
   14624:	0097c793          	xori	a5,a5,9
   14628:	00179793          	slli	a5,a5,0x1
   1462c:	0ff7f793          	andi	a5,a5,255
   14630:	00669593          	slli	a1,a3,0x6
   14634:	00b7c5b3          	xor	a1,a5,a1
   14638:	01859593          	slli	a1,a1,0x18
   1463c:	4185d593          	srai	a1,a1,0x18
   14640:	0005d463          	bgez	a1,14648 <_Z5SDCmd13SDCardCommandm+0x3a0>
   14644:	0097c793          	xori	a5,a5,9
   14648:	00179793          	slli	a5,a5,0x1
   1464c:	0ff7f793          	andi	a5,a5,255
   14650:	00769593          	slli	a1,a3,0x7
   14654:	00b7c5b3          	xor	a1,a5,a1
   14658:	01859593          	slli	a1,a1,0x18
   1465c:	4185d593          	srai	a1,a1,0x18
   14660:	0005d463          	bgez	a1,14668 <_Z5SDCmd13SDCardCommandm+0x3c0>
   14664:	0097c793          	xori	a5,a5,9
   14668:	00179793          	slli	a5,a5,0x1
   1466c:	0ff7f793          	andi	a5,a5,255
   14670:	00f745b3          	xor	a1,a4,a5
   14674:	01859593          	slli	a1,a1,0x18
   14678:	4185d593          	srai	a1,a1,0x18
   1467c:	0005d463          	bgez	a1,14684 <_Z5SDCmd13SDCardCommandm+0x3dc>
   14680:	0097c793          	xori	a5,a5,9
   14684:	00179793          	slli	a5,a5,0x1
   14688:	0ff7f793          	andi	a5,a5,255
   1468c:	00171593          	slli	a1,a4,0x1
   14690:	00b7c5b3          	xor	a1,a5,a1
   14694:	01859593          	slli	a1,a1,0x18
   14698:	4185d593          	srai	a1,a1,0x18
   1469c:	0005d463          	bgez	a1,146a4 <_Z5SDCmd13SDCardCommandm+0x3fc>
   146a0:	0097c793          	xori	a5,a5,9
   146a4:	00179793          	slli	a5,a5,0x1
   146a8:	0ff7f793          	andi	a5,a5,255
   146ac:	00271593          	slli	a1,a4,0x2
   146b0:	00b7c5b3          	xor	a1,a5,a1
   146b4:	01859593          	slli	a1,a1,0x18
   146b8:	4185d593          	srai	a1,a1,0x18
   146bc:	0005d463          	bgez	a1,146c4 <_Z5SDCmd13SDCardCommandm+0x41c>
   146c0:	0097c793          	xori	a5,a5,9
   146c4:	00179793          	slli	a5,a5,0x1
   146c8:	0ff7f793          	andi	a5,a5,255
   146cc:	00371593          	slli	a1,a4,0x3
   146d0:	00b7c5b3          	xor	a1,a5,a1
   146d4:	01859593          	slli	a1,a1,0x18
   146d8:	4185d593          	srai	a1,a1,0x18
   146dc:	0005d463          	bgez	a1,146e4 <_Z5SDCmd13SDCardCommandm+0x43c>
   146e0:	0097c793          	xori	a5,a5,9
   146e4:	00179793          	slli	a5,a5,0x1
   146e8:	0ff7f793          	andi	a5,a5,255
   146ec:	00471593          	slli	a1,a4,0x4
   146f0:	00b7c5b3          	xor	a1,a5,a1
   146f4:	01859593          	slli	a1,a1,0x18
   146f8:	4185d593          	srai	a1,a1,0x18
   146fc:	0005d463          	bgez	a1,14704 <_Z5SDCmd13SDCardCommandm+0x45c>
   14700:	0097c793          	xori	a5,a5,9
   14704:	00179793          	slli	a5,a5,0x1
   14708:	0ff7f793          	andi	a5,a5,255
   1470c:	00571593          	slli	a1,a4,0x5
   14710:	00b7c5b3          	xor	a1,a5,a1
   14714:	01859593          	slli	a1,a1,0x18
   14718:	4185d593          	srai	a1,a1,0x18
   1471c:	0005d463          	bgez	a1,14724 <_Z5SDCmd13SDCardCommandm+0x47c>
   14720:	0097c793          	xori	a5,a5,9
   14724:	00179793          	slli	a5,a5,0x1
   14728:	0ff7f793          	andi	a5,a5,255
   1472c:	00671593          	slli	a1,a4,0x6
   14730:	00b7c5b3          	xor	a1,a5,a1
   14734:	01859593          	slli	a1,a1,0x18
   14738:	4185d593          	srai	a1,a1,0x18
   1473c:	0005d463          	bgez	a1,14744 <_Z5SDCmd13SDCardCommandm+0x49c>
   14740:	0097c793          	xori	a5,a5,9
   14744:	00179793          	slli	a5,a5,0x1
   14748:	0ff7f793          	andi	a5,a5,255
   1474c:	00771593          	slli	a1,a4,0x7
   14750:	00b7c5b3          	xor	a1,a5,a1
   14754:	01859593          	slli	a1,a1,0x18
   14758:	4185d593          	srai	a1,a1,0x18
   1475c:	0005d463          	bgez	a1,14764 <_Z5SDCmd13SDCardCommandm+0x4bc>
   14760:	0097c793          	xori	a5,a5,9
   14764:	0000c597          	auipc	a1,0xc
   14768:	5d85a583          	lw	a1,1496(a1) # 20d3c <_GLOBAL_OFFSET_TABLE_+0x28>
   1476c:	0005a883          	lw	a7,0(a1)
   14770:	fff00313          	li	t1,-1
   14774:	00179793          	slli	a5,a5,0x1
   14778:	00688023          	sb	t1,0(a7)
   1477c:	0005a883          	lw	a7,0(a1)
   14780:	0017e793          	ori	a5,a5,1
   14784:	0ff7f793          	andi	a5,a5,255
   14788:	00c88023          	sb	a2,0(a7)
   1478c:	0005a603          	lw	a2,0(a1)
   14790:	01060023          	sb	a6,0(a2)
   14794:	0005a603          	lw	a2,0(a1)
   14798:	00a60023          	sb	a0,0(a2)
   1479c:	0005a603          	lw	a2,0(a1)
   147a0:	00d60023          	sb	a3,0(a2)
   147a4:	0005a683          	lw	a3,0(a1)
   147a8:	00e68023          	sb	a4,0(a3)
   147ac:	0005a703          	lw	a4,0(a1)
   147b0:	00f70023          	sb	a5,0(a4)
   147b4:	00008067          	ret

000147b8 <_Z6SDIdlev>:
   147b8:	ff010113          	addi	sp,sp,-16
   147bc:	00912223          	sw	s1,4(sp)
   147c0:	00112623          	sw	ra,12(sp)
   147c4:	00812423          	sw	s0,8(sp)
   147c8:	00000493          	li	s1,0
   147cc:	304494f3          	csrrw	s1,mie,s1
   147d0:	00000593          	li	a1,0
   147d4:	00000513          	li	a0,0
   147d8:	ad1ff0ef          	jal	ra,142a8 <_Z5SDCmd13SDCardCommandm>
   147dc:	000107b7          	lui	a5,0x10
   147e0:	0000c517          	auipc	a0,0xc
   147e4:	55c52503          	lw	a0,1372(a0) # 20d3c <_GLOBAL_OFFSET_TABLE_+0x28>
   147e8:	0000c597          	auipc	a1,0xc
   147ec:	5685a583          	lw	a1,1384(a1) # 20d50 <_GLOBAL_OFFSET_TABLE_+0x3c>
   147f0:	fff00613          	li	a2,-1
   147f4:	0ff00693          	li	a3,255
   147f8:	0080006f          	j	14800 <_Z6SDIdlev+0x48>
   147fc:	02078063          	beqz	a5,1481c <_Z6SDIdlev+0x64>
   14800:	00052703          	lw	a4,0(a0)
   14804:	fff78793          	addi	a5,a5,-1 # ffff <exit-0x75>
   14808:	00c70023          	sb	a2,0(a4)
   1480c:	0005a703          	lw	a4,0(a1)
   14810:	00074403          	lbu	s0,0(a4)
   14814:	0ff47413          	andi	s0,s0,255
   14818:	fed402e3          	beq	s0,a3,147fc <_Z6SDIdlev+0x44>
   1481c:	a89ff0ef          	jal	ra,142a4 <_Z9SDStrobe8v>
   14820:	30449073          	csrw	mie,s1
   14824:	00c12083          	lw	ra,12(sp)
   14828:	00040513          	mv	a0,s0
   1482c:	00812403          	lw	s0,8(sp)
   14830:	00412483          	lw	s1,4(sp)
   14834:	01010113          	addi	sp,sp,16
   14838:	00008067          	ret

0001483c <_Z19SDCheckVoltageRangePm>:
   1483c:	ff010113          	addi	sp,sp,-16
   14840:	00912223          	sw	s1,4(sp)
   14844:	01212023          	sw	s2,0(sp)
   14848:	00112623          	sw	ra,12(sp)
   1484c:	00812423          	sw	s0,8(sp)
   14850:	00050493          	mv	s1,a0
   14854:	00000913          	li	s2,0
   14858:	30491973          	csrrw	s2,mie,s2
   1485c:	1aa00593          	li	a1,426
   14860:	00800513          	li	a0,8
   14864:	a45ff0ef          	jal	ra,142a8 <_Z5SDCmd13SDCardCommandm>
   14868:	000107b7          	lui	a5,0x10
   1486c:	0000c617          	auipc	a2,0xc
   14870:	4d062603          	lw	a2,1232(a2) # 20d3c <_GLOBAL_OFFSET_TABLE_+0x28>
   14874:	0000c697          	auipc	a3,0xc
   14878:	4dc6a683          	lw	a3,1244(a3) # 20d50 <_GLOBAL_OFFSET_TABLE_+0x3c>
   1487c:	fff00813          	li	a6,-1
   14880:	0ff00593          	li	a1,255
   14884:	0080006f          	j	1488c <_Z19SDCheckVoltageRangePm+0x50>
   14888:	02078063          	beqz	a5,148a8 <_Z19SDCheckVoltageRangePm+0x6c>
   1488c:	00062703          	lw	a4,0(a2)
   14890:	fff78793          	addi	a5,a5,-1 # ffff <exit-0x75>
   14894:	01070023          	sb	a6,0(a4)
   14898:	0006a703          	lw	a4,0(a3)
   1489c:	00074403          	lbu	s0,0(a4)
   148a0:	0ff47413          	andi	s0,s0,255
   148a4:	feb402e3          	beq	s0,a1,14888 <_Z19SDCheckVoltageRangePm+0x4c>
   148a8:	00062783          	lw	a5,0(a2)
   148ac:	fff00713          	li	a4,-1
   148b0:	0004a023          	sw	zero,0(s1)
   148b4:	00e78023          	sb	a4,0(a5)
   148b8:	0006a583          	lw	a1,0(a3)
   148bc:	0004a783          	lw	a5,0(s1)
   148c0:	00062503          	lw	a0,0(a2)
   148c4:	0005c583          	lbu	a1,0(a1)
   148c8:	0ff5f593          	andi	a1,a1,255
   148cc:	00b7e7b3          	or	a5,a5,a1
   148d0:	00f4a023          	sw	a5,0(s1)
   148d4:	00e50023          	sb	a4,0(a0)
   148d8:	0006a783          	lw	a5,0(a3)
   148dc:	0004a503          	lw	a0,0(s1)
   148e0:	00062803          	lw	a6,0(a2)
   148e4:	0007c783          	lbu	a5,0(a5)
   148e8:	00851593          	slli	a1,a0,0x8
   148ec:	0ff7f793          	andi	a5,a5,255
   148f0:	00a7e7b3          	or	a5,a5,a0
   148f4:	00f5e7b3          	or	a5,a1,a5
   148f8:	00f4a023          	sw	a5,0(s1)
   148fc:	00e80023          	sb	a4,0(a6)
   14900:	0006a783          	lw	a5,0(a3)
   14904:	0004a583          	lw	a1,0(s1)
   14908:	00062503          	lw	a0,0(a2)
   1490c:	0007c783          	lbu	a5,0(a5)
   14910:	00859613          	slli	a2,a1,0x8
   14914:	0ff7f793          	andi	a5,a5,255
   14918:	00b7e7b3          	or	a5,a5,a1
   1491c:	00f667b3          	or	a5,a2,a5
   14920:	00f4a023          	sw	a5,0(s1)
   14924:	00e50023          	sb	a4,0(a0)
   14928:	0006a783          	lw	a5,0(a3)
   1492c:	0004a683          	lw	a3,0(s1)
   14930:	0007c783          	lbu	a5,0(a5)
   14934:	00869713          	slli	a4,a3,0x8
   14938:	0ff7f793          	andi	a5,a5,255
   1493c:	00d7e7b3          	or	a5,a5,a3
   14940:	00f767b3          	or	a5,a4,a5
   14944:	00f4a023          	sw	a5,0(s1)
   14948:	95dff0ef          	jal	ra,142a4 <_Z9SDStrobe8v>
   1494c:	30491073          	csrw	mie,s2
   14950:	00c12083          	lw	ra,12(sp)
   14954:	00040513          	mv	a0,s0
   14958:	00812403          	lw	s0,8(sp)
   1495c:	00412483          	lw	s1,4(sp)
   14960:	00012903          	lw	s2,0(sp)
   14964:	01010113          	addi	sp,sp,16
   14968:	00008067          	ret

0001496c <_Z10SDCardInitv>:
   1496c:	fe010113          	addi	sp,sp,-32
   14970:	01312623          	sw	s3,12(sp)
   14974:	00112e23          	sw	ra,28(sp)
   14978:	00812c23          	sw	s0,24(sp)
   1497c:	00912a23          	sw	s1,20(sp)
   14980:	01212823          	sw	s2,16(sp)
   14984:	00000993          	li	s3,0
   14988:	304999f3          	csrrw	s3,mie,s3
   1498c:	00000593          	li	a1,0
   14990:	03700513          	li	a0,55
   14994:	915ff0ef          	jal	ra,142a8 <_Z5SDCmd13SDCardCommandm>
   14998:	0000c497          	auipc	s1,0xc
   1499c:	3a44a483          	lw	s1,932(s1) # 20d3c <_GLOBAL_OFFSET_TABLE_+0x28>
   149a0:	00010737          	lui	a4,0x10
   149a4:	0000c917          	auipc	s2,0xc
   149a8:	3ac92903          	lw	s2,940(s2) # 20d50 <_GLOBAL_OFFSET_TABLE_+0x3c>
   149ac:	fff00613          	li	a2,-1
   149b0:	0ff00693          	li	a3,255
   149b4:	0080006f          	j	149bc <_Z10SDCardInitv+0x50>
   149b8:	02070063          	beqz	a4,149d8 <_Z10SDCardInitv+0x6c>
   149bc:	0004a783          	lw	a5,0(s1)
   149c0:	fff70713          	addi	a4,a4,-1 # ffff <exit-0x75>
   149c4:	00c78023          	sb	a2,0(a5)
   149c8:	00092783          	lw	a5,0(s2)
   149cc:	0007c783          	lbu	a5,0(a5)
   149d0:	0ff7f793          	andi	a5,a5,255
   149d4:	fed782e3          	beq	a5,a3,149b8 <_Z10SDCardInitv+0x4c>
   149d8:	0004a783          	lw	a5,0(s1)
   149dc:	fff00713          	li	a4,-1
   149e0:	400005b7          	lui	a1,0x40000
   149e4:	00e78023          	sb	a4,0(a5)
   149e8:	02900513          	li	a0,41
   149ec:	8bdff0ef          	jal	ra,142a8 <_Z5SDCmd13SDCardCommandm>
   149f0:	000107b7          	lui	a5,0x10
   149f4:	fff00613          	li	a2,-1
   149f8:	0ff00693          	li	a3,255
   149fc:	0080006f          	j	14a04 <_Z10SDCardInitv+0x98>
   14a00:	02078063          	beqz	a5,14a20 <_Z10SDCardInitv+0xb4>
   14a04:	0004a703          	lw	a4,0(s1)
   14a08:	fff78793          	addi	a5,a5,-1 # ffff <exit-0x75>
   14a0c:	00c70023          	sb	a2,0(a4)
   14a10:	00092703          	lw	a4,0(s2)
   14a14:	00074403          	lbu	s0,0(a4)
   14a18:	0ff47413          	andi	s0,s0,255
   14a1c:	fed402e3          	beq	s0,a3,14a00 <_Z10SDCardInitv+0x94>
   14a20:	885ff0ef          	jal	ra,142a4 <_Z9SDStrobe8v>
   14a24:	30499073          	csrw	mie,s3
   14a28:	01c12083          	lw	ra,28(sp)
   14a2c:	00040513          	mv	a0,s0
   14a30:	01812403          	lw	s0,24(sp)
   14a34:	01412483          	lw	s1,20(sp)
   14a38:	01012903          	lw	s2,16(sp)
   14a3c:	00c12983          	lw	s3,12(sp)
   14a40:	02010113          	addi	sp,sp,32
   14a44:	00008067          	ret

00014a48 <_Z17SDSetBlockSize512v>:
   14a48:	ff010113          	addi	sp,sp,-16
   14a4c:	00912223          	sw	s1,4(sp)
   14a50:	00112623          	sw	ra,12(sp)
   14a54:	00812423          	sw	s0,8(sp)
   14a58:	00000493          	li	s1,0
   14a5c:	304494f3          	csrrw	s1,mie,s1
   14a60:	20000593          	li	a1,512
   14a64:	01000513          	li	a0,16
   14a68:	841ff0ef          	jal	ra,142a8 <_Z5SDCmd13SDCardCommandm>
   14a6c:	000107b7          	lui	a5,0x10
   14a70:	0000c517          	auipc	a0,0xc
   14a74:	2cc52503          	lw	a0,716(a0) # 20d3c <_GLOBAL_OFFSET_TABLE_+0x28>
   14a78:	0000c597          	auipc	a1,0xc
   14a7c:	2d85a583          	lw	a1,728(a1) # 20d50 <_GLOBAL_OFFSET_TABLE_+0x3c>
   14a80:	fff00613          	li	a2,-1
   14a84:	0ff00693          	li	a3,255
   14a88:	0080006f          	j	14a90 <_Z17SDSetBlockSize512v+0x48>
   14a8c:	02078063          	beqz	a5,14aac <_Z17SDSetBlockSize512v+0x64>
   14a90:	00052703          	lw	a4,0(a0)
   14a94:	fff78793          	addi	a5,a5,-1 # ffff <exit-0x75>
   14a98:	00c70023          	sb	a2,0(a4)
   14a9c:	0005a703          	lw	a4,0(a1)
   14aa0:	00074403          	lbu	s0,0(a4)
   14aa4:	0ff47413          	andi	s0,s0,255
   14aa8:	fed402e3          	beq	s0,a3,14a8c <_Z17SDSetBlockSize512v+0x44>
   14aac:	ff8ff0ef          	jal	ra,142a4 <_Z9SDStrobe8v>
   14ab0:	30449073          	csrw	mie,s1
   14ab4:	00c12083          	lw	ra,12(sp)
   14ab8:	00040513          	mv	a0,s0
   14abc:	00812403          	lw	s0,8(sp)
   14ac0:	00412483          	lw	s1,4(sp)
   14ac4:	01010113          	addi	sp,sp,16
   14ac8:	00008067          	ret

00014acc <_Z17SDReadSingleBlockmPhS_>:
   14acc:	fe010113          	addi	sp,sp,-32
   14ad0:	00812c23          	sw	s0,24(sp)
   14ad4:	01212823          	sw	s2,16(sp)
   14ad8:	01312623          	sw	s3,12(sp)
   14adc:	00112e23          	sw	ra,28(sp)
   14ae0:	00912a23          	sw	s1,20(sp)
   14ae4:	00050793          	mv	a5,a0
   14ae8:	00058413          	mv	s0,a1
   14aec:	00060993          	mv	s3,a2
   14af0:	00000913          	li	s2,0
   14af4:	30491973          	csrrw	s2,mie,s2
   14af8:	01100513          	li	a0,17
   14afc:	00078593          	mv	a1,a5
   14b00:	fa8ff0ef          	jal	ra,142a8 <_Z5SDCmd13SDCardCommandm>
   14b04:	00010737          	lui	a4,0x10
   14b08:	0000c517          	auipc	a0,0xc
   14b0c:	23452503          	lw	a0,564(a0) # 20d3c <_GLOBAL_OFFSET_TABLE_+0x28>
   14b10:	0000c697          	auipc	a3,0xc
   14b14:	2406a683          	lw	a3,576(a3) # 20d50 <_GLOBAL_OFFSET_TABLE_+0x3c>
   14b18:	fff00593          	li	a1,-1
   14b1c:	0ff00613          	li	a2,255
   14b20:	0080006f          	j	14b28 <_Z17SDReadSingleBlockmPhS_+0x5c>
   14b24:	08070063          	beqz	a4,14ba4 <_Z17SDReadSingleBlockmPhS_+0xd8>
   14b28:	00052783          	lw	a5,0(a0)
   14b2c:	fff70713          	addi	a4,a4,-1 # ffff <exit-0x75>
   14b30:	00b78023          	sb	a1,0(a5)
   14b34:	0006a783          	lw	a5,0(a3)
   14b38:	0007c783          	lbu	a5,0(a5)
   14b3c:	0ff7f793          	andi	a5,a5,255
   14b40:	fec782e3          	beq	a5,a2,14b24 <_Z17SDReadSingleBlockmPhS_+0x58>
   14b44:	000107b7          	lui	a5,0x10
   14b48:	fff00593          	li	a1,-1
   14b4c:	0ff00613          	li	a2,255
   14b50:	0080006f          	j	14b58 <_Z17SDReadSingleBlockmPhS_+0x8c>
   14b54:	04078863          	beqz	a5,14ba4 <_Z17SDReadSingleBlockmPhS_+0xd8>
   14b58:	00052703          	lw	a4,0(a0)
   14b5c:	fff78793          	addi	a5,a5,-1 # ffff <exit-0x75>
   14b60:	00b70023          	sb	a1,0(a4)
   14b64:	0006a703          	lw	a4,0(a3)
   14b68:	00074483          	lbu	s1,0(a4)
   14b6c:	0ff4f493          	andi	s1,s1,255
   14b70:	fec482e3          	beq	s1,a2,14b54 <_Z17SDReadSingleBlockmPhS_+0x88>
   14b74:	0fe00793          	li	a5,254
   14b78:	02f48a63          	beq	s1,a5,14bac <_Z17SDReadSingleBlockmPhS_+0xe0>
   14b7c:	f28ff0ef          	jal	ra,142a4 <_Z9SDStrobe8v>
   14b80:	30491073          	csrw	mie,s2
   14b84:	01c12083          	lw	ra,28(sp)
   14b88:	01812403          	lw	s0,24(sp)
   14b8c:	01012903          	lw	s2,16(sp)
   14b90:	00c12983          	lw	s3,12(sp)
   14b94:	00048513          	mv	a0,s1
   14b98:	01412483          	lw	s1,20(sp)
   14b9c:	02010113          	addi	sp,sp,32
   14ba0:	00008067          	ret
   14ba4:	0ff00493          	li	s1,255
   14ba8:	fd5ff06f          	j	14b7c <_Z17SDReadSingleBlockmPhS_+0xb0>
   14bac:	00040593          	mv	a1,s0
   14bb0:	20040613          	addi	a2,s0,512
   14bb4:	fff00713          	li	a4,-1
   14bb8:	00052783          	lw	a5,0(a0)
   14bbc:	00158593          	addi	a1,a1,1
   14bc0:	00e78023          	sb	a4,0(a5)
   14bc4:	0006a783          	lw	a5,0(a3)
   14bc8:	0007c783          	lbu	a5,0(a5)
   14bcc:	fef58fa3          	sb	a5,-1(a1)
   14bd0:	fec594e3          	bne	a1,a2,14bb8 <_Z17SDReadSingleBlockmPhS_+0xec>
   14bd4:	00052783          	lw	a5,0(a0)
   14bd8:	00e78023          	sb	a4,0(a5)
   14bdc:	0006a783          	lw	a5,0(a3)
   14be0:	0007c783          	lbu	a5,0(a5)
   14be4:	00f98023          	sb	a5,0(s3)
   14be8:	00052783          	lw	a5,0(a0)
   14bec:	00e78023          	sb	a4,0(a5)
   14bf0:	0006a783          	lw	a5,0(a3)
   14bf4:	0007c783          	lbu	a5,0(a5)
   14bf8:	00f980a3          	sb	a5,1(s3)
   14bfc:	f81ff06f          	j	14b7c <_Z17SDReadSingleBlockmPhS_+0xb0>

00014c00 <_Z20SDReadMultipleBlocksPhmm>:
   14c00:	0a058663          	beqz	a1,14cac <_Z20SDReadMultipleBlocksPhmm+0xac>
   14c04:	dd010113          	addi	sp,sp,-560
   14c08:	22812423          	sw	s0,552(sp)
   14c0c:	22912223          	sw	s1,548(sp)
   14c10:	23212023          	sw	s2,544(sp)
   14c14:	21312e23          	sw	s3,540(sp)
   14c18:	21412c23          	sw	s4,536(sp)
   14c1c:	21512a23          	sw	s5,532(sp)
   14c20:	21612823          	sw	s6,528(sp)
   14c24:	22112623          	sw	ra,556(sp)
   14c28:	00050a13          	mv	s4,a0
   14c2c:	00060413          	mv	s0,a2
   14c30:	00c589b3          	add	s3,a1,a2
   14c34:	00000493          	li	s1,0
   14c38:	00c10b13          	addi	s6,sp,12
   14c3c:	01010913          	addi	s2,sp,16
   14c40:	0fe00a93          	li	s5,254
   14c44:	000b0613          	mv	a2,s6
   14c48:	00090593          	mv	a1,s2
   14c4c:	00040513          	mv	a0,s0
   14c50:	e7dff0ef          	jal	ra,14acc <_Z17SDReadSingleBlockmPhS_>
   14c54:	00050793          	mv	a5,a0
   14c58:	20000613          	li	a2,512
   14c5c:	009a0533          	add	a0,s4,s1
   14c60:	00090593          	mv	a1,s2
   14c64:	00140413          	addi	s0,s0,1
   14c68:	03579e63          	bne	a5,s5,14ca4 <_Z20SDReadMultipleBlocksPhmm+0xa4>
   14c6c:	30c040ef          	jal	ra,18f78 <memcpy>
   14c70:	20048493          	addi	s1,s1,512
   14c74:	fc8998e3          	bne	s3,s0,14c44 <_Z20SDReadMultipleBlocksPhmm+0x44>
   14c78:	00048513          	mv	a0,s1
   14c7c:	22c12083          	lw	ra,556(sp)
   14c80:	22812403          	lw	s0,552(sp)
   14c84:	22412483          	lw	s1,548(sp)
   14c88:	22012903          	lw	s2,544(sp)
   14c8c:	21c12983          	lw	s3,540(sp)
   14c90:	21812a03          	lw	s4,536(sp)
   14c94:	21412a83          	lw	s5,532(sp)
   14c98:	21012b03          	lw	s6,528(sp)
   14c9c:	23010113          	addi	sp,sp,560
   14ca0:	00008067          	ret
   14ca4:	fff00513          	li	a0,-1
   14ca8:	fd5ff06f          	j	14c7c <_Z20SDReadMultipleBlocksPhmm+0x7c>
   14cac:	fff00513          	li	a0,-1
   14cb0:	00008067          	ret

00014cb4 <_Z13SDCardStartupv>:
   14cb4:	fe010113          	addi	sp,sp,-32
   14cb8:	00112e23          	sw	ra,28(sp)
   14cbc:	00812c23          	sw	s0,24(sp)
   14cc0:	00912a23          	sw	s1,20(sp)
   14cc4:	af5ff0ef          	jal	ra,147b8 <_Z6SDIdlev>
   14cc8:	00100793          	li	a5,1
   14ccc:	04f51a63          	bne	a0,a5,14d20 <_Z13SDCardStartupv+0x6c>
   14cd0:	00050413          	mv	s0,a0
   14cd4:	00c10513          	addi	a0,sp,12
   14cd8:	b65ff0ef          	jal	ra,1483c <_Z19SDCheckVoltageRangePm>
   14cdc:	00050493          	mv	s1,a0
   14ce0:	04851063          	bne	a0,s0,14d20 <_Z13SDCardStartupv+0x6c>
   14ce4:	c89ff0ef          	jal	ra,1496c <_Z10SDCardInitv>
   14ce8:	00050793          	mv	a5,a0
   14cec:	00000513          	li	a0,0
   14cf0:	00078e63          	beqz	a5,14d0c <_Z13SDCardStartupv+0x58>
   14cf4:	02979663          	bne	a5,s1,14d20 <_Z13SDCardStartupv+0x6c>
   14cf8:	00100413          	li	s0,1
   14cfc:	c71ff0ef          	jal	ra,1496c <_Z10SDCardInitv>
   14d00:	fe850ee3          	beq	a0,s0,14cfc <_Z13SDCardStartupv+0x48>
   14d04:	00a03533          	snez	a0,a0
   14d08:	40a00533          	neg	a0,a0
   14d0c:	01c12083          	lw	ra,28(sp)
   14d10:	01812403          	lw	s0,24(sp)
   14d14:	01412483          	lw	s1,20(sp)
   14d18:	02010113          	addi	sp,sp,32
   14d1c:	00008067          	ret
   14d20:	fff00513          	li	a0,-1
   14d24:	fe9ff06f          	j	14d0c <_Z13SDCardStartupv+0x58>

00014d28 <_ZL12get_ldnumberPPKc>:
   14d28:	00052f83          	lw	t6,0(a0)
   14d2c:	0e0f8e63          	beqz	t6,14e28 <_ZL12get_ldnumberPPKc+0x100>
   14d30:	00050f13          	mv	t5,a0
   14d34:	000f8793          	mv	a5,t6
   14d38:	02000693          	li	a3,32
   14d3c:	03a00613          	li	a2,58
   14d40:	0080006f          	j	14d48 <_ZL12get_ldnumberPPKc+0x20>
   14d44:	00c70e63          	beq	a4,a2,14d60 <_ZL12get_ldnumberPPKc+0x38>
   14d48:	0007c703          	lbu	a4,0(a5)
   14d4c:	00178793          	addi	a5,a5,1
   14d50:	fee6eae3          	bltu	a3,a4,14d44 <_ZL12get_ldnumberPPKc+0x1c>
   14d54:	00011517          	auipc	a0,0x11
   14d58:	c6854503          	lbu	a0,-920(a0) # 259bc <_ZL7CurrVol>
   14d5c:	00008067          	ret
   14d60:	000fc383          	lbu	t2,0(t6)
   14d64:	00900693          	li	a3,9
   14d68:	fd038713          	addi	a4,t2,-48
   14d6c:	0ff77613          	andi	a2,a4,255
   14d70:	08c6fa63          	bgeu	a3,a2,14e04 <_ZL12get_ldnumberPPKc+0xdc>
   14d74:	ff010113          	addi	sp,sp,-16
   14d78:	00812623          	sw	s0,12(sp)
   14d7c:	0000b297          	auipc	t0,0xb
   14d80:	8ac28293          	addi	t0,t0,-1876 # 1f628 <_ZL9VolumeStr>
   14d84:	00000513          	li	a0,0
   14d88:	01900313          	li	t1,25
   14d8c:	00300413          	li	s0,3
   14d90:	0002a803          	lw	a6,0(t0)
   14d94:	00038613          	mv	a2,t2
   14d98:	000f8893          	mv	a7,t6
   14d9c:	00084683          	lbu	a3,0(a6)
   14da0:	f9f60713          	addi	a4,a2,-97
   14da4:	fe060e13          	addi	t3,a2,-32
   14da8:	f9f68593          	addi	a1,a3,-97
   14dac:	0ff5f593          	andi	a1,a1,255
   14db0:	fe068e93          	addi	t4,a3,-32
   14db4:	0ff77713          	andi	a4,a4,255
   14db8:	00180813          	addi	a6,a6,1
   14dbc:	00188893          	addi	a7,a7,1
   14dc0:	00b36c63          	bltu	t1,a1,14dd8 <_ZL12get_ldnumberPPKc+0xb0>
   14dc4:	0ffef693          	andi	a3,t4,255
   14dc8:	00e37a63          	bgeu	t1,a4,14ddc <_ZL12get_ldnumberPPKc+0xb4>
   14dcc:	00c69e63          	bne	a3,a2,14de8 <_ZL12get_ldnumberPPKc+0xc0>
   14dd0:	0008c603          	lbu	a2,0(a7)
   14dd4:	fc9ff06f          	j	14d9c <_ZL12get_ldnumberPPKc+0x74>
   14dd8:	00e36463          	bltu	t1,a4,14de0 <_ZL12get_ldnumberPPKc+0xb8>
   14ddc:	0ffe7613          	andi	a2,t3,255
   14de0:	fe0696e3          	bnez	a3,14dcc <_ZL12get_ldnumberPPKc+0xa4>
   14de4:	03178e63          	beq	a5,a7,14e20 <_ZL12get_ldnumberPPKc+0xf8>
   14de8:	00150513          	addi	a0,a0,1
   14dec:	00428293          	addi	t0,t0,4
   14df0:	fa8510e3          	bne	a0,s0,14d90 <_ZL12get_ldnumberPPKc+0x68>
   14df4:	fff00513          	li	a0,-1
   14df8:	00c12403          	lw	s0,12(sp)
   14dfc:	01010113          	addi	sp,sp,16
   14e00:	00008067          	ret
   14e04:	002f8693          	addi	a3,t6,2
   14e08:	f6d796e3          	bne	a5,a3,14d74 <_ZL12get_ldnumberPPKc+0x4c>
   14e0c:	00070513          	mv	a0,a4
   14e10:	00200713          	li	a4,2
   14e14:	00a74a63          	blt	a4,a0,14e28 <_ZL12get_ldnumberPPKc+0x100>
   14e18:	00ff2023          	sw	a5,0(t5)
   14e1c:	00008067          	ret
   14e20:	00ff2023          	sw	a5,0(t5)
   14e24:	fd5ff06f          	j	14df8 <_ZL12get_ldnumberPPKc+0xd0>
   14e28:	fff00513          	li	a0,-1
   14e2c:	00008067          	ret

00014e30 <_ZL8check_fsP5FATFSm>:
   14e30:	ff010113          	addi	sp,sp,-16
   14e34:	00812423          	sw	s0,8(sp)
   14e38:	01212023          	sw	s2,0(sp)
   14e3c:	00112623          	sw	ra,12(sp)
   14e40:	00912223          	sw	s1,4(sp)
   14e44:	fff00913          	li	s2,-1
   14e48:	000501a3          	sb	zero,3(a0)
   14e4c:	03252423          	sw	s2,40(a0)
   14e50:	00050413          	mv	s0,a0
   14e54:	19259a63          	bne	a1,s2,14fe8 <_ZL8check_fsP5FATFSm+0x1b8>
   14e58:	22b44483          	lbu	s1,555(s0)
   14e5c:	22a44683          	lbu	a3,554(s0)
   14e60:	02c44783          	lbu	a5,44(s0)
   14e64:	00849493          	slli	s1,s1,0x8
   14e68:	0eb00713          	li	a4,235
   14e6c:	00d4e4b3          	or	s1,s1,a3
   14e70:	04e78063          	beq	a5,a4,14eb0 <_ZL8check_fsP5FATFSm+0x80>
   14e74:	01878793          	addi	a5,a5,24
   14e78:	0ff7f793          	andi	a5,a5,255
   14e7c:	00100713          	li	a4,1
   14e80:	02f77863          	bgeu	a4,a5,14eb0 <_ZL8check_fsP5FATFSm+0x80>
   14e84:	0000b537          	lui	a0,0xb
   14e88:	a5550513          	addi	a0,a0,-1451 # aa55 <exit-0x561f>
   14e8c:	40a48533          	sub	a0,s1,a0
   14e90:	00a03533          	snez	a0,a0
   14e94:	00250513          	addi	a0,a0,2
   14e98:	00c12083          	lw	ra,12(sp)
   14e9c:	00812403          	lw	s0,8(sp)
   14ea0:	00412483          	lw	s1,4(sp)
   14ea4:	00012903          	lw	s2,0(sp)
   14ea8:	01010113          	addi	sp,sp,16
   14eac:	00008067          	ret
   14eb0:	0000b7b7          	lui	a5,0xb
   14eb4:	a5578793          	addi	a5,a5,-1451 # aa55 <exit-0x561f>
   14eb8:	0ef48063          	beq	s1,a5,14f98 <_ZL8check_fsP5FATFSm+0x168>
   14ebc:	03844783          	lbu	a5,56(s0)
   14ec0:	03744703          	lbu	a4,55(s0)
   14ec4:	03944683          	lbu	a3,57(s0)
   14ec8:	00879793          	slli	a5,a5,0x8
   14ecc:	00e7e7b3          	or	a5,a5,a4
   14ed0:	fff78713          	addi	a4,a5,-1
   14ed4:	00f77733          	and	a4,a4,a5
   14ed8:	00300513          	li	a0,3
   14edc:	fa071ee3          	bnez	a4,14e98 <_ZL8check_fsP5FATFSm+0x68>
   14ee0:	20000713          	li	a4,512
   14ee4:	00300513          	li	a0,3
   14ee8:	fae798e3          	bne	a5,a4,14e98 <_ZL8check_fsP5FATFSm+0x68>
   14eec:	fa0686e3          	beqz	a3,14e98 <_ZL8check_fsP5FATFSm+0x68>
   14ef0:	fff68793          	addi	a5,a3,-1
   14ef4:	00d7f6b3          	and	a3,a5,a3
   14ef8:	fa0690e3          	bnez	a3,14e98 <_ZL8check_fsP5FATFSm+0x68>
   14efc:	03b44783          	lbu	a5,59(s0)
   14f00:	03a44703          	lbu	a4,58(s0)
   14f04:	00879793          	slli	a5,a5,0x8
   14f08:	00e7e7b3          	or	a5,a5,a4
   14f0c:	f6078ce3          	beqz	a5,14e84 <_ZL8check_fsP5FATFSm+0x54>
   14f10:	03c44783          	lbu	a5,60(s0)
   14f14:	00100713          	li	a4,1
   14f18:	fff78793          	addi	a5,a5,-1
   14f1c:	f6f764e3          	bltu	a4,a5,14e84 <_ZL8check_fsP5FATFSm+0x54>
   14f20:	03e44783          	lbu	a5,62(s0)
   14f24:	03d44703          	lbu	a4,61(s0)
   14f28:	00879793          	slli	a5,a5,0x8
   14f2c:	00e7e7b3          	or	a5,a5,a4
   14f30:	f4078ae3          	beqz	a5,14e84 <_ZL8check_fsP5FATFSm+0x54>
   14f34:	04044783          	lbu	a5,64(s0)
   14f38:	03f44683          	lbu	a3,63(s0)
   14f3c:	07f00713          	li	a4,127
   14f40:	00879793          	slli	a5,a5,0x8
   14f44:	00d7e7b3          	or	a5,a5,a3
   14f48:	02f76a63          	bltu	a4,a5,14f7c <_ZL8check_fsP5FATFSm+0x14c>
   14f4c:	04d44683          	lbu	a3,77(s0)
   14f50:	04c44603          	lbu	a2,76(s0)
   14f54:	04e44703          	lbu	a4,78(s0)
   14f58:	04f44783          	lbu	a5,79(s0)
   14f5c:	00869693          	slli	a3,a3,0x8
   14f60:	00c6e6b3          	or	a3,a3,a2
   14f64:	01071713          	slli	a4,a4,0x10
   14f68:	00d76733          	or	a4,a4,a3
   14f6c:	01879793          	slli	a5,a5,0x18
   14f70:	00e7e7b3          	or	a5,a5,a4
   14f74:	00010737          	lui	a4,0x10
   14f78:	f0e7e6e3          	bltu	a5,a4,14e84 <_ZL8check_fsP5FATFSm+0x54>
   14f7c:	04344783          	lbu	a5,67(s0)
   14f80:	04244703          	lbu	a4,66(s0)
   14f84:	00879793          	slli	a5,a5,0x8
   14f88:	00e7e7b3          	or	a5,a5,a4
   14f8c:	ee078ce3          	beqz	a5,14e84 <_ZL8check_fsP5FATFSm+0x54>
   14f90:	00000513          	li	a0,0
   14f94:	f05ff06f          	j	14e98 <_ZL8check_fsP5FATFSm+0x68>
   14f98:	00800613          	li	a2,8
   14f9c:	00008597          	auipc	a1,0x8
   14fa0:	4e858593          	addi	a1,a1,1256 # 1d484 <_ZL9hexdigits+0x183c>
   14fa4:	07e40513          	addi	a0,s0,126
   14fa8:	7a1030ef          	jal	ra,18f48 <memcmp>
   14fac:	00050793          	mv	a5,a0
   14fb0:	00000513          	li	a0,0
   14fb4:	ee0782e3          	beqz	a5,14e98 <_ZL8check_fsP5FATFSm+0x68>
   14fb8:	03844783          	lbu	a5,56(s0)
   14fbc:	03744703          	lbu	a4,55(s0)
   14fc0:	00200513          	li	a0,2
   14fc4:	00879793          	slli	a5,a5,0x8
   14fc8:	00e7e7b3          	or	a5,a5,a4
   14fcc:	fff78713          	addi	a4,a5,-1
   14fd0:	00f77733          	and	a4,a4,a5
   14fd4:	ec0712e3          	bnez	a4,14e98 <_ZL8check_fsP5FATFSm+0x68>
   14fd8:	20000713          	li	a4,512
   14fdc:	03944683          	lbu	a3,57(s0)
   14fe0:	eae79ce3          	bne	a5,a4,14e98 <_ZL8check_fsP5FATFSm+0x68>
   14fe4:	f09ff06f          	j	14eec <_ZL8check_fsP5FATFSm+0xbc>
   14fe8:	00154503          	lbu	a0,1(a0)
   14fec:	00058493          	mv	s1,a1
   14ff0:	00058613          	mv	a2,a1
   14ff4:	00100693          	li	a3,1
   14ff8:	02c40593          	addi	a1,s0,44
   14ffc:	124020ef          	jal	ra,17120 <disk_read>
   15000:	00051663          	bnez	a0,1500c <_ZL8check_fsP5FATFSm+0x1dc>
   15004:	02942423          	sw	s1,40(s0)
   15008:	e51ff06f          	j	14e58 <_ZL8check_fsP5FATFSm+0x28>
   1500c:	03242423          	sw	s2,40(s0)
   15010:	00c12083          	lw	ra,12(sp)
   15014:	00812403          	lw	s0,8(sp)
   15018:	00412483          	lw	s1,4(sp)
   1501c:	00012903          	lw	s2,0(sp)
   15020:	00400513          	li	a0,4
   15024:	01010113          	addi	sp,sp,16
   15028:	00008067          	ret

0001502c <_ZL12mount_volumePPKcPP5FATFSh.constprop.0>:
   1502c:	fe010113          	addi	sp,sp,-32
   15030:	01212823          	sw	s2,16(sp)
   15034:	00112e23          	sw	ra,28(sp)
   15038:	00812c23          	sw	s0,24(sp)
   1503c:	00912a23          	sw	s1,20(sp)
   15040:	01312623          	sw	s3,12(sp)
   15044:	0005a023          	sw	zero,0(a1)
   15048:	00058913          	mv	s2,a1
   1504c:	cddff0ef          	jal	ra,14d28 <_ZL12get_ldnumberPPKc>
   15050:	32054663          	bltz	a0,1537c <_ZL12mount_volumePPKcPP5FATFSh.constprop.0+0x350>
   15054:	00251713          	slli	a4,a0,0x2
   15058:	00011797          	auipc	a5,0x11
   1505c:	95878793          	addi	a5,a5,-1704 # 259b0 <_ZL5FatFs>
   15060:	00e787b3          	add	a5,a5,a4
   15064:	0007a403          	lw	s0,0(a5)
   15068:	00050493          	mv	s1,a0
   1506c:	32040863          	beqz	s0,1539c <_ZL12mount_volumePPKcPP5FATFSh.constprop.0+0x370>
   15070:	00892023          	sw	s0,0(s2)
   15074:	00044783          	lbu	a5,0(s0)
   15078:	00078c63          	beqz	a5,15090 <_ZL12mount_volumePPKcPP5FATFSh.constprop.0+0x64>
   1507c:	00144503          	lbu	a0,1(s0)
   15080:	064020ef          	jal	ra,170e4 <disk_status>
   15084:	00157793          	andi	a5,a0,1
   15088:	00000513          	li	a0,0
   1508c:	20078263          	beqz	a5,15290 <_ZL12mount_volumePPKcPP5FATFSh.constprop.0+0x264>
   15090:	0ff4f513          	andi	a0,s1,255
   15094:	00040023          	sb	zero,0(s0)
   15098:	00a400a3          	sb	a0,1(s0)
   1509c:	054020ef          	jal	ra,170f0 <disk_initialize>
   150a0:	00157793          	andi	a5,a0,1
   150a4:	00300513          	li	a0,3
   150a8:	1e079463          	bnez	a5,15290 <_ZL12mount_volumePPKcPP5FATFSh.constprop.0+0x264>
   150ac:	00000593          	li	a1,0
   150b0:	00040513          	mv	a0,s0
   150b4:	d7dff0ef          	jal	ra,14e30 <_ZL8check_fsP5FATFSm>
   150b8:	00200713          	li	a4,2
   150bc:	00050793          	mv	a5,a0
   150c0:	1ee50663          	beq	a0,a4,152ac <_ZL12mount_volumePPKcPP5FATFSh.constprop.0+0x280>
   150c4:	00400713          	li	a4,4
   150c8:	00100513          	li	a0,1
   150cc:	1ce78263          	beq	a5,a4,15290 <_ZL12mount_volumePPKcPP5FATFSh.constprop.0+0x264>
   150d0:	28f56663          	bltu	a0,a5,1535c <_ZL12mount_volumePPKcPP5FATFSh.constprop.0+0x330>
   150d4:	03844783          	lbu	a5,56(s0)
   150d8:	03744683          	lbu	a3,55(s0)
   150dc:	20000713          	li	a4,512
   150e0:	00879793          	slli	a5,a5,0x8
   150e4:	00d7e7b3          	or	a5,a5,a3
   150e8:	26e79a63          	bne	a5,a4,1535c <_ZL12mount_volumePPKcPP5FATFSh.constprop.0+0x330>
   150ec:	04344783          	lbu	a5,67(s0)
   150f0:	04244703          	lbu	a4,66(s0)
   150f4:	00879793          	slli	a5,a5,0x8
   150f8:	00e7e7b3          	or	a5,a5,a4
   150fc:	02079663          	bnez	a5,15128 <_ZL12mount_volumePPKcPP5FATFSh.constprop.0+0xfc>
   15100:	05144703          	lbu	a4,81(s0)
   15104:	05044603          	lbu	a2,80(s0)
   15108:	05244783          	lbu	a5,82(s0)
   1510c:	05344683          	lbu	a3,83(s0)
   15110:	00871713          	slli	a4,a4,0x8
   15114:	01079793          	slli	a5,a5,0x10
   15118:	00c76733          	or	a4,a4,a2
   1511c:	00e7e733          	or	a4,a5,a4
   15120:	01869793          	slli	a5,a3,0x18
   15124:	00e7e7b3          	or	a5,a5,a4
   15128:	03c44683          	lbu	a3,60(s0)
   1512c:	00f42a23          	sw	a5,20(s0)
   15130:	00100613          	li	a2,1
   15134:	fff68713          	addi	a4,a3,-1
   15138:	00d40123          	sb	a3,2(s0)
   1513c:	0ff77713          	andi	a4,a4,255
   15140:	02842803          	lw	a6,40(s0)
   15144:	20e66c63          	bltu	a2,a4,1535c <_ZL12mount_volumePPKcPP5FATFSh.constprop.0+0x330>
   15148:	03944883          	lbu	a7,57(s0)
   1514c:	01089713          	slli	a4,a7,0x10
   15150:	01075713          	srli	a4,a4,0x10
   15154:	00e41523          	sh	a4,10(s0)
   15158:	20070263          	beqz	a4,1535c <_ZL12mount_volumePPKcPP5FATFSh.constprop.0+0x330>
   1515c:	fff88713          	addi	a4,a7,-1
   15160:	01177733          	and	a4,a4,a7
   15164:	1e071c63          	bnez	a4,1535c <_ZL12mount_volumePPKcPP5FATFSh.constprop.0+0x330>
   15168:	03e44603          	lbu	a2,62(s0)
   1516c:	03d44703          	lbu	a4,61(s0)
   15170:	00861613          	slli	a2,a2,0x8
   15174:	00e66633          	or	a2,a2,a4
   15178:	00c41423          	sh	a2,8(s0)
   1517c:	00f67713          	andi	a4,a2,15
   15180:	1c071e63          	bnez	a4,1535c <_ZL12mount_volumePPKcPP5FATFSh.constprop.0+0x330>
   15184:	04044703          	lbu	a4,64(s0)
   15188:	03f44583          	lbu	a1,63(s0)
   1518c:	00871713          	slli	a4,a4,0x8
   15190:	00b76733          	or	a4,a4,a1
   15194:	02071663          	bnez	a4,151c0 <_ZL12mount_volumePPKcPP5FATFSh.constprop.0+0x194>
   15198:	04d44503          	lbu	a0,77(s0)
   1519c:	04c44303          	lbu	t1,76(s0)
   151a0:	04e44583          	lbu	a1,78(s0)
   151a4:	04f44703          	lbu	a4,79(s0)
   151a8:	00851513          	slli	a0,a0,0x8
   151ac:	00656533          	or	a0,a0,t1
   151b0:	01059593          	slli	a1,a1,0x10
   151b4:	00a5e5b3          	or	a1,a1,a0
   151b8:	01871713          	slli	a4,a4,0x18
   151bc:	00b76733          	or	a4,a4,a1
   151c0:	03b44583          	lbu	a1,59(s0)
   151c4:	03a44503          	lbu	a0,58(s0)
   151c8:	00859593          	slli	a1,a1,0x8
   151cc:	00a5e5b3          	or	a1,a1,a0
   151d0:	18058663          	beqz	a1,1535c <_ZL12mount_volumePPKcPP5FATFSh.constprop.0+0x330>
   151d4:	02f686b3          	mul	a3,a3,a5
   151d8:	00465513          	srli	a0,a2,0x4
   151dc:	00b50533          	add	a0,a0,a1
   151e0:	00d50533          	add	a0,a0,a3
   151e4:	16a76c63          	bltu	a4,a0,1535c <_ZL12mount_volumePPKcPP5FATFSh.constprop.0+0x330>
   151e8:	40a70733          	sub	a4,a4,a0
   151ec:	03175333          	divu	t1,a4,a7
   151f0:	17176663          	bltu	a4,a7,1535c <_ZL12mount_volumePPKcPP5FATFSh.constprop.0+0x330>
   151f4:	10000737          	lui	a4,0x10000
   151f8:	ff570713          	addi	a4,a4,-11 # ffffff5 <__BSS_END__+0xffda32d>
   151fc:	16676063          	bltu	a4,t1,1535c <_ZL12mount_volumePPKcPP5FATFSh.constprop.0+0x330>
   15200:	00010737          	lui	a4,0x10
   15204:	ff570713          	addi	a4,a4,-11 # fff5 <exit-0x7f>
   15208:	00230893          	addi	a7,t1,2
   1520c:	00b805b3          	add	a1,a6,a1
   15210:	00a80533          	add	a0,a6,a0
   15214:	1e676e63          	bltu	a4,t1,15410 <_ZL12mount_volumePPKcPP5FATFSh.constprop.0+0x3e4>
   15218:	00001737          	lui	a4,0x1
   1521c:	ff570713          	addi	a4,a4,-11 # ff5 <exit-0xf07f>
   15220:	01142823          	sw	a7,16(s0)
   15224:	01042c23          	sw	a6,24(s0)
   15228:	00b42e23          	sw	a1,28(s0)
   1522c:	02a42223          	sw	a0,36(s0)
   15230:	24676063          	bltu	a4,t1,15470 <_ZL12mount_volumePPKcPP5FATFSh.constprop.0+0x444>
   15234:	12060463          	beqz	a2,1535c <_ZL12mount_volumePPKcPP5FATFSh.constprop.0+0x330>
   15238:	00189713          	slli	a4,a7,0x1
   1523c:	01170733          	add	a4,a4,a7
   15240:	00b686b3          	add	a3,a3,a1
   15244:	00175713          	srli	a4,a4,0x1
   15248:	0018f893          	andi	a7,a7,1
   1524c:	02d42023          	sw	a3,32(s0)
   15250:	01170733          	add	a4,a4,a7
   15254:	00100693          	li	a3,1
   15258:	1ff70713          	addi	a4,a4,511
   1525c:	00975713          	srli	a4,a4,0x9
   15260:	0ee7ee63          	bltu	a5,a4,1535c <_ZL12mount_volumePPKcPP5FATFSh.constprop.0+0x330>
   15264:	00010717          	auipc	a4,0x10
   15268:	74870713          	addi	a4,a4,1864 # 259ac <_ZL4Fsid>
   1526c:	00075783          	lhu	a5,0(a4)
   15270:	00d40023          	sb	a3,0(s0)
   15274:	00042623          	sw	zero,12(s0)
   15278:	00178793          	addi	a5,a5,1
   1527c:	01079793          	slli	a5,a5,0x10
   15280:	0107d793          	srli	a5,a5,0x10
   15284:	00f71023          	sh	a5,0(a4)
   15288:	00f41323          	sh	a5,6(s0)
   1528c:	00000513          	li	a0,0
   15290:	01c12083          	lw	ra,28(sp)
   15294:	01812403          	lw	s0,24(sp)
   15298:	01412483          	lw	s1,20(sp)
   1529c:	01012903          	lw	s2,16(sp)
   152a0:	00c12983          	lw	s3,12(sp)
   152a4:	02010113          	addi	sp,sp,32
   152a8:	00008067          	ret
   152ac:	1f344883          	lbu	a7,499(s0)
   152b0:	1f244f83          	lbu	t6,498(s0)
   152b4:	1f444303          	lbu	t1,500(s0)
   152b8:	20344803          	lbu	a6,515(s0)
   152bc:	21344503          	lbu	a0,531(s0)
   152c0:	22344603          	lbu	a2,547(s0)
   152c4:	1f544583          	lbu	a1,501(s0)
   152c8:	20244f03          	lbu	t5,514(s0)
   152cc:	20444683          	lbu	a3,516(s0)
   152d0:	21244e83          	lbu	t4,530(s0)
   152d4:	21444703          	lbu	a4,532(s0)
   152d8:	22244e03          	lbu	t3,546(s0)
   152dc:	22444783          	lbu	a5,548(s0)
   152e0:	20544483          	lbu	s1,517(s0)
   152e4:	21544903          	lbu	s2,533(s0)
   152e8:	22544983          	lbu	s3,549(s0)
   152ec:	00889893          	slli	a7,a7,0x8
   152f0:	01f8e8b3          	or	a7,a7,t6
   152f4:	01031313          	slli	t1,t1,0x10
   152f8:	00881813          	slli	a6,a6,0x8
   152fc:	00851513          	slli	a0,a0,0x8
   15300:	00861613          	slli	a2,a2,0x8
   15304:	011368b3          	or	a7,t1,a7
   15308:	01859593          	slli	a1,a1,0x18
   1530c:	01e86833          	or	a6,a6,t5
   15310:	01069693          	slli	a3,a3,0x10
   15314:	01d56533          	or	a0,a0,t4
   15318:	01071713          	slli	a4,a4,0x10
   1531c:	01c66633          	or	a2,a2,t3
   15320:	01079793          	slli	a5,a5,0x10
   15324:	0106e6b3          	or	a3,a3,a6
   15328:	01849493          	slli	s1,s1,0x18
   1532c:	00a76733          	or	a4,a4,a0
   15330:	01891913          	slli	s2,s2,0x18
   15334:	00c7e7b3          	or	a5,a5,a2
   15338:	01899993          	slli	s3,s3,0x18
   1533c:	0115e5b3          	or	a1,a1,a7
   15340:	00d4e4b3          	or	s1,s1,a3
   15344:	00e96933          	or	s2,s2,a4
   15348:	00f9e9b3          	or	s3,s3,a5
   1534c:	04059c63          	bnez	a1,153a4 <_ZL12mount_volumePPKcPP5FATFSh.constprop.0+0x378>
   15350:	06049463          	bnez	s1,153b8 <_ZL12mount_volumePPKcPP5FATFSh.constprop.0+0x38c>
   15354:	06091e63          	bnez	s2,153d0 <_ZL12mount_volumePPKcPP5FATFSh.constprop.0+0x3a4>
   15358:	08099863          	bnez	s3,153e8 <_ZL12mount_volumePPKcPP5FATFSh.constprop.0+0x3bc>
   1535c:	01c12083          	lw	ra,28(sp)
   15360:	01812403          	lw	s0,24(sp)
   15364:	01412483          	lw	s1,20(sp)
   15368:	01012903          	lw	s2,16(sp)
   1536c:	00c12983          	lw	s3,12(sp)
   15370:	00d00513          	li	a0,13
   15374:	02010113          	addi	sp,sp,32
   15378:	00008067          	ret
   1537c:	01c12083          	lw	ra,28(sp)
   15380:	01812403          	lw	s0,24(sp)
   15384:	01412483          	lw	s1,20(sp)
   15388:	01012903          	lw	s2,16(sp)
   1538c:	00c12983          	lw	s3,12(sp)
   15390:	00b00513          	li	a0,11
   15394:	02010113          	addi	sp,sp,32
   15398:	00008067          	ret
   1539c:	00c00513          	li	a0,12
   153a0:	ef1ff06f          	j	15290 <_ZL12mount_volumePPKcPP5FATFSh.constprop.0+0x264>
   153a4:	00040513          	mv	a0,s0
   153a8:	a89ff0ef          	jal	ra,14e30 <_ZL8check_fsP5FATFSm>
   153ac:	00100793          	li	a5,1
   153b0:	d2a7f2e3          	bgeu	a5,a0,150d4 <_ZL12mount_volumePPKcPP5FATFSh.constprop.0+0xa8>
   153b4:	fa0480e3          	beqz	s1,15354 <_ZL12mount_volumePPKcPP5FATFSh.constprop.0+0x328>
   153b8:	00048593          	mv	a1,s1
   153bc:	00040513          	mv	a0,s0
   153c0:	a71ff0ef          	jal	ra,14e30 <_ZL8check_fsP5FATFSm>
   153c4:	00100793          	li	a5,1
   153c8:	d0a7f6e3          	bgeu	a5,a0,150d4 <_ZL12mount_volumePPKcPP5FATFSh.constprop.0+0xa8>
   153cc:	f80906e3          	beqz	s2,15358 <_ZL12mount_volumePPKcPP5FATFSh.constprop.0+0x32c>
   153d0:	00090593          	mv	a1,s2
   153d4:	00040513          	mv	a0,s0
   153d8:	a59ff0ef          	jal	ra,14e30 <_ZL8check_fsP5FATFSm>
   153dc:	00100793          	li	a5,1
   153e0:	cea7fae3          	bgeu	a5,a0,150d4 <_ZL12mount_volumePPKcPP5FATFSh.constprop.0+0xa8>
   153e4:	f6098ce3          	beqz	s3,1535c <_ZL12mount_volumePPKcPP5FATFSh.constprop.0+0x330>
   153e8:	00098593          	mv	a1,s3
   153ec:	00040513          	mv	a0,s0
   153f0:	a41ff0ef          	jal	ra,14e30 <_ZL8check_fsP5FATFSm>
   153f4:	00100713          	li	a4,1
   153f8:	00050793          	mv	a5,a0
   153fc:	cca77ce3          	bgeu	a4,a0,150d4 <_ZL12mount_volumePPKcPP5FATFSh.constprop.0+0xa8>
   15400:	00400713          	li	a4,4
   15404:	00100513          	li	a0,1
   15408:	e8e784e3          	beq	a5,a4,15290 <_ZL12mount_volumePPKcPP5FATFSh.constprop.0+0x264>
   1540c:	f51ff06f          	j	1535c <_ZL12mount_volumePPKcPP5FATFSh.constprop.0+0x330>
   15410:	05744703          	lbu	a4,87(s0)
   15414:	05644683          	lbu	a3,86(s0)
   15418:	01142823          	sw	a7,16(s0)
   1541c:	00871713          	slli	a4,a4,0x8
   15420:	00d76733          	or	a4,a4,a3
   15424:	01042c23          	sw	a6,24(s0)
   15428:	00b42e23          	sw	a1,28(s0)
   1542c:	02a42223          	sw	a0,36(s0)
   15430:	00c76633          	or	a2,a4,a2
   15434:	f20614e3          	bnez	a2,1535c <_ZL12mount_volumePPKcPP5FATFSh.constprop.0+0x330>
   15438:	05944603          	lbu	a2,89(s0)
   1543c:	05844583          	lbu	a1,88(s0)
   15440:	05a44683          	lbu	a3,90(s0)
   15444:	05b44703          	lbu	a4,91(s0)
   15448:	00861613          	slli	a2,a2,0x8
   1544c:	00b66633          	or	a2,a2,a1
   15450:	01069693          	slli	a3,a3,0x10
   15454:	00c6e6b3          	or	a3,a3,a2
   15458:	01871713          	slli	a4,a4,0x18
   1545c:	00d76733          	or	a4,a4,a3
   15460:	02e42023          	sw	a4,32(s0)
   15464:	00300693          	li	a3,3
   15468:	00289713          	slli	a4,a7,0x2
   1546c:	dedff06f          	j	15258 <_ZL12mount_volumePPKcPP5FATFSh.constprop.0+0x22c>
   15470:	ee0606e3          	beqz	a2,1535c <_ZL12mount_volumePPKcPP5FATFSh.constprop.0+0x330>
   15474:	00b686b3          	add	a3,a3,a1
   15478:	02d42023          	sw	a3,32(s0)
   1547c:	00189713          	slli	a4,a7,0x1
   15480:	00200693          	li	a3,2
   15484:	dd5ff06f          	j	15258 <_ZL12mount_volumePPKcPP5FATFSh.constprop.0+0x22c>

00015488 <_ZL7get_fatP7FFOBJIDm.isra.0>:
   15488:	00100793          	li	a5,1
   1548c:	06b7f663          	bgeu	a5,a1,154f8 <_ZL7get_fatP7FFOBJIDm.isra.0+0x70>
   15490:	01052703          	lw	a4,16(a0)
   15494:	fe010113          	addi	sp,sp,-32
   15498:	00812c23          	sw	s0,24(sp)
   1549c:	00912a23          	sw	s1,20(sp)
   154a0:	00112e23          	sw	ra,28(sp)
   154a4:	01212823          	sw	s2,16(sp)
   154a8:	01312623          	sw	s3,12(sp)
   154ac:	01412423          	sw	s4,8(sp)
   154b0:	00050493          	mv	s1,a0
   154b4:	00058413          	mv	s0,a1
   154b8:	00100513          	li	a0,1
   154bc:	00e5fe63          	bgeu	a1,a4,154d8 <_ZL7get_fatP7FFOBJIDm.isra.0+0x50>
   154c0:	0004c703          	lbu	a4,0(s1)
   154c4:	00200693          	li	a3,2
   154c8:	0ed70663          	beq	a4,a3,155b4 <_ZL7get_fatP7FFOBJIDm.isra.0+0x12c>
   154cc:	00300693          	li	a3,3
   154d0:	08d70663          	beq	a4,a3,1555c <_ZL7get_fatP7FFOBJIDm.isra.0+0xd4>
   154d4:	02f70663          	beq	a4,a5,15500 <_ZL7get_fatP7FFOBJIDm.isra.0+0x78>
   154d8:	01c12083          	lw	ra,28(sp)
   154dc:	01812403          	lw	s0,24(sp)
   154e0:	01412483          	lw	s1,20(sp)
   154e4:	01012903          	lw	s2,16(sp)
   154e8:	00c12983          	lw	s3,12(sp)
   154ec:	00812a03          	lw	s4,8(sp)
   154f0:	02010113          	addi	sp,sp,32
   154f4:	00008067          	ret
   154f8:	00100513          	li	a0,1
   154fc:	00008067          	ret
   15500:	01c4a603          	lw	a2,28(s1)
   15504:	0015d913          	srli	s2,a1,0x1
   15508:	00b90933          	add	s2,s2,a1
   1550c:	0284a783          	lw	a5,40(s1)
   15510:	00995993          	srli	s3,s2,0x9
   15514:	00c989b3          	add	s3,s3,a2
   15518:	10f99a63          	bne	s3,a5,1562c <_ZL7get_fatP7FFOBJIDm.isra.0+0x1a4>
   1551c:	00190993          	addi	s3,s2,1
   15520:	0099da13          	srli	s4,s3,0x9
   15524:	1ff97913          	andi	s2,s2,511
   15528:	01248933          	add	s2,s1,s2
   1552c:	00ca0a33          	add	s4,s4,a2
   15530:	02c94903          	lbu	s2,44(s2)
   15534:	12fa1063          	bne	s4,a5,15654 <_ZL7get_fatP7FFOBJIDm.isra.0+0x1cc>
   15538:	1ff9f993          	andi	s3,s3,511
   1553c:	013484b3          	add	s1,s1,s3
   15540:	02c4c503          	lbu	a0,44(s1)
   15544:	00147413          	andi	s0,s0,1
   15548:	00851513          	slli	a0,a0,0x8
   1554c:	01256533          	or	a0,a0,s2
   15550:	12040263          	beqz	s0,15674 <_ZL7get_fatP7FFOBJIDm.isra.0+0x1ec>
   15554:	00455513          	srli	a0,a0,0x4
   15558:	f81ff06f          	j	154d8 <_ZL7get_fatP7FFOBJIDm.isra.0+0x50>
   1555c:	01c4a603          	lw	a2,28(s1)
   15560:	0284a783          	lw	a5,40(s1)
   15564:	0075d993          	srli	s3,a1,0x7
   15568:	00c989b3          	add	s3,s3,a2
   1556c:	02c48913          	addi	s2,s1,44
   15570:	08f99e63          	bne	s3,a5,1560c <_ZL7get_fatP7FFOBJIDm.isra.0+0x184>
   15574:	00241413          	slli	s0,s0,0x2
   15578:	1fc47413          	andi	s0,s0,508
   1557c:	00890433          	add	s0,s2,s0
   15580:	00144703          	lbu	a4,1(s0)
   15584:	00044683          	lbu	a3,0(s0)
   15588:	00244783          	lbu	a5,2(s0)
   1558c:	00344503          	lbu	a0,3(s0)
   15590:	00871713          	slli	a4,a4,0x8
   15594:	00d76733          	or	a4,a4,a3
   15598:	01079793          	slli	a5,a5,0x10
   1559c:	00e7e7b3          	or	a5,a5,a4
   155a0:	01851513          	slli	a0,a0,0x18
   155a4:	00f56533          	or	a0,a0,a5
   155a8:	00451513          	slli	a0,a0,0x4
   155ac:	00455513          	srli	a0,a0,0x4
   155b0:	f29ff06f          	j	154d8 <_ZL7get_fatP7FFOBJIDm.isra.0+0x50>
   155b4:	01c4a603          	lw	a2,28(s1)
   155b8:	0284a783          	lw	a5,40(s1)
   155bc:	0085d993          	srli	s3,a1,0x8
   155c0:	00c989b3          	add	s3,s3,a2
   155c4:	02c48913          	addi	s2,s1,44
   155c8:	02f99263          	bne	s3,a5,155ec <_ZL7get_fatP7FFOBJIDm.isra.0+0x164>
   155cc:	00141593          	slli	a1,s0,0x1
   155d0:	1fe5f593          	andi	a1,a1,510
   155d4:	00b905b3          	add	a1,s2,a1
   155d8:	0015c503          	lbu	a0,1(a1)
   155dc:	0005c783          	lbu	a5,0(a1)
   155e0:	00851513          	slli	a0,a0,0x8
   155e4:	00f56533          	or	a0,a0,a5
   155e8:	ef1ff06f          	j	154d8 <_ZL7get_fatP7FFOBJIDm.isra.0+0x50>
   155ec:	0014c503          	lbu	a0,1(s1)
   155f0:	00100693          	li	a3,1
   155f4:	00098613          	mv	a2,s3
   155f8:	00090593          	mv	a1,s2
   155fc:	325010ef          	jal	ra,17120 <disk_read>
   15600:	08051063          	bnez	a0,15680 <_ZL7get_fatP7FFOBJIDm.isra.0+0x1f8>
   15604:	0334a423          	sw	s3,40(s1)
   15608:	fc5ff06f          	j	155cc <_ZL7get_fatP7FFOBJIDm.isra.0+0x144>
   1560c:	0014c503          	lbu	a0,1(s1)
   15610:	00100693          	li	a3,1
   15614:	00098613          	mv	a2,s3
   15618:	00090593          	mv	a1,s2
   1561c:	305010ef          	jal	ra,17120 <disk_read>
   15620:	06051063          	bnez	a0,15680 <_ZL7get_fatP7FFOBJIDm.isra.0+0x1f8>
   15624:	0334a423          	sw	s3,40(s1)
   15628:	f4dff06f          	j	15574 <_ZL7get_fatP7FFOBJIDm.isra.0+0xec>
   1562c:	0014c503          	lbu	a0,1(s1)
   15630:	00100693          	li	a3,1
   15634:	00098613          	mv	a2,s3
   15638:	02c48593          	addi	a1,s1,44
   1563c:	2e5010ef          	jal	ra,17120 <disk_read>
   15640:	04051063          	bnez	a0,15680 <_ZL7get_fatP7FFOBJIDm.isra.0+0x1f8>
   15644:	01c4a603          	lw	a2,28(s1)
   15648:	0334a423          	sw	s3,40(s1)
   1564c:	00098793          	mv	a5,s3
   15650:	ecdff06f          	j	1551c <_ZL7get_fatP7FFOBJIDm.isra.0+0x94>
   15654:	0014c503          	lbu	a0,1(s1)
   15658:	00100693          	li	a3,1
   1565c:	000a0613          	mv	a2,s4
   15660:	02c48593          	addi	a1,s1,44
   15664:	2bd010ef          	jal	ra,17120 <disk_read>
   15668:	00051c63          	bnez	a0,15680 <_ZL7get_fatP7FFOBJIDm.isra.0+0x1f8>
   1566c:	0344a423          	sw	s4,40(s1)
   15670:	ec9ff06f          	j	15538 <_ZL7get_fatP7FFOBJIDm.isra.0+0xb0>
   15674:	01451513          	slli	a0,a0,0x14
   15678:	01455513          	srli	a0,a0,0x14
   1567c:	e5dff06f          	j	154d8 <_ZL7get_fatP7FFOBJIDm.isra.0+0x50>
   15680:	fff00793          	li	a5,-1
   15684:	02f4a423          	sw	a5,40(s1)
   15688:	fff00513          	li	a0,-1
   1568c:	e4dff06f          	j	154d8 <_ZL7get_fatP7FFOBJIDm.isra.0+0x50>

00015690 <_ZL7dir_sdiP3DIRm.constprop.0>:
   15690:	fc010113          	addi	sp,sp,-64
   15694:	02812c23          	sw	s0,56(sp)
   15698:	00852403          	lw	s0,8(a0)
   1569c:	03612023          	sw	s6,32(sp)
   156a0:	01712e23          	sw	s7,28(sp)
   156a4:	02112e23          	sw	ra,60(sp)
   156a8:	02912a23          	sw	s1,52(sp)
   156ac:	03212823          	sw	s2,48(sp)
   156b0:	03312623          	sw	s3,44(sp)
   156b4:	03412423          	sw	s4,40(sp)
   156b8:	03512223          	sw	s5,36(sp)
   156bc:	01812c23          	sw	s8,24(sp)
   156c0:	01912a23          	sw	s9,20(sp)
   156c4:	01a12823          	sw	s10,16(sp)
   156c8:	01b12623          	sw	s11,12(sp)
   156cc:	00052823          	sw	zero,16(a0)
   156d0:	00052b83          	lw	s7,0(a0)
   156d4:	00050b13          	mv	s6,a0
   156d8:	0c041263          	bnez	s0,1579c <_ZL7dir_sdiP3DIRm.constprop.0+0x10c>
   156dc:	000bc703          	lbu	a4,0(s7)
   156e0:	00200793          	li	a5,2
   156e4:	0ae7e663          	bltu	a5,a4,15790 <_ZL7dir_sdiP3DIRm.constprop.0+0x100>
   156e8:	008bd783          	lhu	a5,8(s7)
   156ec:	08078e63          	beqz	a5,15788 <_ZL7dir_sdiP3DIRm.constprop.0+0xf8>
   156f0:	020ba703          	lw	a4,32(s7)
   156f4:	00eb2c23          	sw	a4,24(s6)
   156f8:	008b2a23          	sw	s0,20(s6)
   156fc:	08070663          	beqz	a4,15788 <_ZL7dir_sdiP3DIRm.constprop.0+0xf8>
   15700:	02cb8793          	addi	a5,s7,44
   15704:	00fb2e23          	sw	a5,28(s6)
   15708:	00000513          	li	a0,0
   1570c:	03c12083          	lw	ra,60(sp)
   15710:	03812403          	lw	s0,56(sp)
   15714:	03412483          	lw	s1,52(sp)
   15718:	03012903          	lw	s2,48(sp)
   1571c:	02c12983          	lw	s3,44(sp)
   15720:	02812a03          	lw	s4,40(sp)
   15724:	02412a83          	lw	s5,36(sp)
   15728:	02012b03          	lw	s6,32(sp)
   1572c:	01c12b83          	lw	s7,28(sp)
   15730:	01812c03          	lw	s8,24(sp)
   15734:	01412c83          	lw	s9,20(sp)
   15738:	01012d03          	lw	s10,16(sp)
   1573c:	00c12d83          	lw	s11,12(sp)
   15740:	04010113          	addi	sp,sp,64
   15744:	00008067          	ret
   15748:	01c4a603          	lw	a2,28(s1)
   1574c:	0284a783          	lw	a5,40(s1)
   15750:	00845a93          	srli	s5,s0,0x8
   15754:	00ca8ab3          	add	s5,s5,a2
   15758:	02c48913          	addi	s2,s1,44
   1575c:	12fa9c63          	bne	s5,a5,15894 <_ZL7dir_sdiP3DIRm.constprop.0+0x204>
   15760:	00141593          	slli	a1,s0,0x1
   15764:	1fe5f593          	andi	a1,a1,510
   15768:	00b905b3          	add	a1,s2,a1
   1576c:	0015c403          	lbu	s0,1(a1)
   15770:	0005c783          	lbu	a5,0(a1)
   15774:	00841413          	slli	s0,s0,0x8
   15778:	00f46433          	or	s0,s0,a5
   1577c:	008c7663          	bgeu	s8,s0,15788 <_ZL7dir_sdiP3DIRm.constprop.0+0xf8>
   15780:	010ba703          	lw	a4,16(s7)
   15784:	02e46e63          	bltu	s0,a4,157c0 <_ZL7dir_sdiP3DIRm.constprop.0+0x130>
   15788:	00200513          	li	a0,2
   1578c:	f81ff06f          	j	1570c <_ZL7dir_sdiP3DIRm.constprop.0+0x7c>
   15790:	020ba783          	lw	a5,32(s7)
   15794:	f4078ae3          	beqz	a5,156e8 <_ZL7dir_sdiP3DIRm.constprop.0+0x58>
   15798:	00078413          	mv	s0,a5
   1579c:	00abd703          	lhu	a4,10(s7)
   157a0:	100009b7          	lui	s3,0x10000
   157a4:	00001a37          	lui	s4,0x1
   157a8:	00100c13          	li	s8,1
   157ac:	00200d13          	li	s10,2
   157b0:	00300c93          	li	s9,3
   157b4:	fff98993          	addi	s3,s3,-1 # fffffff <__BSS_END__+0xffda337>
   157b8:	fffa0a13          	addi	s4,s4,-1 # fff <exit-0xf075>
   157bc:	16071063          	bnez	a4,1591c <_ZL7dir_sdiP3DIRm.constprop.0+0x28c>
   157c0:	fc8c74e3          	bgeu	s8,s0,15788 <_ZL7dir_sdiP3DIRm.constprop.0+0xf8>
   157c4:	000b2483          	lw	s1,0(s6)
   157c8:	0104a703          	lw	a4,16(s1)
   157cc:	fae47ee3          	bgeu	s0,a4,15788 <_ZL7dir_sdiP3DIRm.constprop.0+0xf8>
   157d0:	0004c703          	lbu	a4,0(s1)
   157d4:	f7a70ae3          	beq	a4,s10,15748 <_ZL7dir_sdiP3DIRm.constprop.0+0xb8>
   157d8:	07970463          	beq	a4,s9,15840 <_ZL7dir_sdiP3DIRm.constprop.0+0x1b0>
   157dc:	fb8716e3          	bne	a4,s8,15788 <_ZL7dir_sdiP3DIRm.constprop.0+0xf8>
   157e0:	01c4a603          	lw	a2,28(s1)
   157e4:	00145913          	srli	s2,s0,0x1
   157e8:	00890933          	add	s2,s2,s0
   157ec:	0284a703          	lw	a4,40(s1)
   157f0:	00995a93          	srli	s5,s2,0x9
   157f4:	00ca8ab3          	add	s5,s5,a2
   157f8:	0cea9e63          	bne	s5,a4,158d4 <_ZL7dir_sdiP3DIRm.constprop.0+0x244>
   157fc:	00190a93          	addi	s5,s2,1
   15800:	009add93          	srli	s11,s5,0x9
   15804:	1ff97913          	andi	s2,s2,511
   15808:	01248933          	add	s2,s1,s2
   1580c:	00cd8db3          	add	s11,s11,a2
   15810:	02c94903          	lbu	s2,44(s2)
   15814:	0eed9463          	bne	s11,a4,158fc <_ZL7dir_sdiP3DIRm.constprop.0+0x26c>
   15818:	1ffafa93          	andi	s5,s5,511
   1581c:	015484b3          	add	s1,s1,s5
   15820:	02c4c783          	lbu	a5,44(s1)
   15824:	00147713          	andi	a4,s0,1
   15828:	00879793          	slli	a5,a5,0x8
   1582c:	0127e7b3          	or	a5,a5,s2
   15830:	0147f433          	and	s0,a5,s4
   15834:	f40704e3          	beqz	a4,1577c <_ZL7dir_sdiP3DIRm.constprop.0+0xec>
   15838:	0047d413          	srli	s0,a5,0x4
   1583c:	f41ff06f          	j	1577c <_ZL7dir_sdiP3DIRm.constprop.0+0xec>
   15840:	01c4a603          	lw	a2,28(s1)
   15844:	0284a783          	lw	a5,40(s1)
   15848:	00745a93          	srli	s5,s0,0x7
   1584c:	00ca8ab3          	add	s5,s5,a2
   15850:	02c48913          	addi	s2,s1,44
   15854:	06fa9063          	bne	s5,a5,158b4 <_ZL7dir_sdiP3DIRm.constprop.0+0x224>
   15858:	00241593          	slli	a1,s0,0x2
   1585c:	1fc5f593          	andi	a1,a1,508
   15860:	00b905b3          	add	a1,s2,a1
   15864:	0015c703          	lbu	a4,1(a1)
   15868:	0005c683          	lbu	a3,0(a1)
   1586c:	0025c783          	lbu	a5,2(a1)
   15870:	0035c403          	lbu	s0,3(a1)
   15874:	00871713          	slli	a4,a4,0x8
   15878:	00d76733          	or	a4,a4,a3
   1587c:	01079793          	slli	a5,a5,0x10
   15880:	00e7e7b3          	or	a5,a5,a4
   15884:	01841413          	slli	s0,s0,0x18
   15888:	00f46433          	or	s0,s0,a5
   1588c:	01347433          	and	s0,s0,s3
   15890:	eedff06f          	j	1577c <_ZL7dir_sdiP3DIRm.constprop.0+0xec>
   15894:	0014c503          	lbu	a0,1(s1)
   15898:	00100693          	li	a3,1
   1589c:	000a8613          	mv	a2,s5
   158a0:	00090593          	mv	a1,s2
   158a4:	07d010ef          	jal	ra,17120 <disk_read>
   158a8:	08051c63          	bnez	a0,15940 <_ZL7dir_sdiP3DIRm.constprop.0+0x2b0>
   158ac:	0354a423          	sw	s5,40(s1)
   158b0:	eb1ff06f          	j	15760 <_ZL7dir_sdiP3DIRm.constprop.0+0xd0>
   158b4:	0014c503          	lbu	a0,1(s1)
   158b8:	00100693          	li	a3,1
   158bc:	000a8613          	mv	a2,s5
   158c0:	00090593          	mv	a1,s2
   158c4:	05d010ef          	jal	ra,17120 <disk_read>
   158c8:	06051c63          	bnez	a0,15940 <_ZL7dir_sdiP3DIRm.constprop.0+0x2b0>
   158cc:	0354a423          	sw	s5,40(s1)
   158d0:	f89ff06f          	j	15858 <_ZL7dir_sdiP3DIRm.constprop.0+0x1c8>
   158d4:	0014c503          	lbu	a0,1(s1)
   158d8:	00100693          	li	a3,1
   158dc:	000a8613          	mv	a2,s5
   158e0:	02c48593          	addi	a1,s1,44
   158e4:	03d010ef          	jal	ra,17120 <disk_read>
   158e8:	04051c63          	bnez	a0,15940 <_ZL7dir_sdiP3DIRm.constprop.0+0x2b0>
   158ec:	01c4a603          	lw	a2,28(s1)
   158f0:	0354a423          	sw	s5,40(s1)
   158f4:	000a8713          	mv	a4,s5
   158f8:	f05ff06f          	j	157fc <_ZL7dir_sdiP3DIRm.constprop.0+0x16c>
   158fc:	0014c503          	lbu	a0,1(s1)
   15900:	00100693          	li	a3,1
   15904:	000d8613          	mv	a2,s11
   15908:	02c48593          	addi	a1,s1,44
   1590c:	015010ef          	jal	ra,17120 <disk_read>
   15910:	02051863          	bnez	a0,15940 <_ZL7dir_sdiP3DIRm.constprop.0+0x2b0>
   15914:	03b4a423          	sw	s11,40(s1)
   15918:	f01ff06f          	j	15818 <_ZL7dir_sdiP3DIRm.constprop.0+0x188>
   1591c:	010ba783          	lw	a5,16(s7)
   15920:	ffe40693          	addi	a3,s0,-2
   15924:	ffe78793          	addi	a5,a5,-2
   15928:	02f6f463          	bgeu	a3,a5,15950 <_ZL7dir_sdiP3DIRm.constprop.0+0x2c0>
   1592c:	02d70733          	mul	a4,a4,a3
   15930:	024ba783          	lw	a5,36(s7)
   15934:	00f70733          	add	a4,a4,a5
   15938:	00eb2c23          	sw	a4,24(s6)
   1593c:	dbdff06f          	j	156f8 <_ZL7dir_sdiP3DIRm.constprop.0+0x68>
   15940:	fff00793          	li	a5,-1
   15944:	02f4a423          	sw	a5,40(s1)
   15948:	00100513          	li	a0,1
   1594c:	dc1ff06f          	j	1570c <_ZL7dir_sdiP3DIRm.constprop.0+0x7c>
   15950:	000b2c23          	sw	zero,24(s6)
   15954:	008b2a23          	sw	s0,20(s6)
   15958:	00200513          	li	a0,2
   1595c:	db1ff06f          	j	1570c <_ZL7dir_sdiP3DIRm.constprop.0+0x7c>

00015960 <_ZL11follow_pathP3DIRPKc>:
   15960:	fb010113          	addi	sp,sp,-80
   15964:	04812423          	sw	s0,72(sp)
   15968:	03712623          	sw	s7,44(sp)
   1596c:	01b12e23          	sw	s11,28(sp)
   15970:	04112623          	sw	ra,76(sp)
   15974:	04912223          	sw	s1,68(sp)
   15978:	05212023          	sw	s2,64(sp)
   1597c:	03312e23          	sw	s3,60(sp)
   15980:	03412c23          	sw	s4,56(sp)
   15984:	03512a23          	sw	s5,52(sp)
   15988:	03612823          	sw	s6,48(sp)
   1598c:	03812423          	sw	s8,40(sp)
   15990:	03912223          	sw	s9,36(sp)
   15994:	03a12023          	sw	s10,32(sp)
   15998:	0005c703          	lbu	a4,0(a1)
   1599c:	02f00693          	li	a3,47
   159a0:	00052b83          	lw	s7,0(a0)
   159a4:	00058413          	mv	s0,a1
   159a8:	00050d93          	mv	s11,a0
   159ac:	06d70463          	beq	a4,a3,15a14 <_ZL11follow_pathP3DIRPKc+0xb4>
   159b0:	05c00693          	li	a3,92
   159b4:	06d70063          	beq	a4,a3,15a14 <_ZL11follow_pathP3DIRPKc+0xb4>
   159b8:	00cba703          	lw	a4,12(s7)
   159bc:	00e52423          	sw	a4,8(a0)
   159c0:	00044683          	lbu	a3,0(s0)
   159c4:	01f00713          	li	a4,31
   159c8:	06d76c63          	bltu	a4,a3,15a40 <_ZL11follow_pathP3DIRPKc+0xe0>
   159cc:	f8000713          	li	a4,-128
   159d0:	02ed85a3          	sb	a4,43(s11)
   159d4:	04812403          	lw	s0,72(sp)
   159d8:	04c12083          	lw	ra,76(sp)
   159dc:	04412483          	lw	s1,68(sp)
   159e0:	04012903          	lw	s2,64(sp)
   159e4:	03c12983          	lw	s3,60(sp)
   159e8:	03812a03          	lw	s4,56(sp)
   159ec:	03412a83          	lw	s5,52(sp)
   159f0:	03012b03          	lw	s6,48(sp)
   159f4:	02c12b83          	lw	s7,44(sp)
   159f8:	02812c03          	lw	s8,40(sp)
   159fc:	02412c83          	lw	s9,36(sp)
   15a00:	02012d03          	lw	s10,32(sp)
   15a04:	000d8513          	mv	a0,s11
   15a08:	01c12d83          	lw	s11,28(sp)
   15a0c:	05010113          	addi	sp,sp,80
   15a10:	c81ff06f          	j	15690 <_ZL7dir_sdiP3DIRm.constprop.0>
   15a14:	02f00693          	li	a3,47
   15a18:	05c00613          	li	a2,92
   15a1c:	00044703          	lbu	a4,0(s0)
   15a20:	00d70463          	beq	a4,a3,15a28 <_ZL11follow_pathP3DIRPKc+0xc8>
   15a24:	00c71663          	bne	a4,a2,15a30 <_ZL11follow_pathP3DIRPKc+0xd0>
   15a28:	00140413          	addi	s0,s0,1
   15a2c:	ff1ff06f          	j	15a1c <_ZL11follow_pathP3DIRPKc+0xbc>
   15a30:	000da423          	sw	zero,8(s11)
   15a34:	00044683          	lbu	a3,0(s0)
   15a38:	01f00713          	li	a4,31
   15a3c:	f8d778e3          	bgeu	a4,a3,159cc <_ZL11follow_pathP3DIRPKc+0x6c>
   15a40:	02cb8793          	addi	a5,s7,44
   15a44:	020d8493          	addi	s1,s11,32
   15a48:	02e00a93          	li	s5,46
   15a4c:	05c00b13          	li	s6,92
   15a50:	00008c97          	auipc	s9,0x8
   15a54:	a40c8c93          	addi	s9,s9,-1472 # 1d490 <_ZL9hexdigits+0x1848>
   15a58:	00f12023          	sw	a5,0(sp)
   15a5c:	02000713          	li	a4,32
   15a60:	00e48023          	sb	a4,0(s1)
   15a64:	00e480a3          	sb	a4,1(s1)
   15a68:	00e48123          	sb	a4,2(s1)
   15a6c:	00e481a3          	sb	a4,3(s1)
   15a70:	00e48223          	sb	a4,4(s1)
   15a74:	00e482a3          	sb	a4,5(s1)
   15a78:	00e48323          	sb	a4,6(s1)
   15a7c:	00e483a3          	sb	a4,7(s1)
   15a80:	00e48423          	sb	a4,8(s1)
   15a84:	00e484a3          	sb	a4,9(s1)
   15a88:	00e48523          	sb	a4,10(s1)
   15a8c:	00044903          	lbu	s2,0(s0)
   15a90:	0b590663          	beq	s2,s5,15b3c <_ZL11follow_pathP3DIRPKc+0x1dc>
   15a94:	0d277063          	bgeu	a4,s2,15b54 <_ZL11follow_pathP3DIRPKc+0x1f4>
   15a98:	00000a13          	li	s4,0
   15a9c:	00800c13          	li	s8,8
   15aa0:	00100993          	li	s3,1
   15aa4:	02f00713          	li	a4,47
   15aa8:	00b00813          	li	a6,11
   15aac:	02000d13          	li	s10,32
   15ab0:	10e90263          	beq	s2,a4,15bb4 <_ZL11follow_pathP3DIRPKc+0x254>
   15ab4:	11690063          	beq	s2,s6,15bb4 <_ZL11follow_pathP3DIRPKc+0x254>
   15ab8:	0f590063          	beq	s2,s5,15b98 <_ZL11follow_pathP3DIRPKc+0x238>
   15abc:	098a7c63          	bgeu	s4,s8,15b54 <_ZL11follow_pathP3DIRPKc+0x1f4>
   15ac0:	01891693          	slli	a3,s2,0x18
   15ac4:	4186d693          	srai	a3,a3,0x18
   15ac8:	0006dc63          	bgez	a3,15ae0 <_ZL11follow_pathP3DIRPKc+0x180>
   15acc:	07f97913          	andi	s2,s2,127
   15ad0:	00008797          	auipc	a5,0x8
   15ad4:	9dc78793          	addi	a5,a5,-1572 # 1d4ac <_ZL5ExCvt>
   15ad8:	01278933          	add	s2,a5,s2
   15adc:	00094903          	lbu	s2,0(s2)
   15ae0:	00090593          	mv	a1,s2
   15ae4:	000c8513          	mv	a0,s9
   15ae8:	084040ef          	jal	ra,19b6c <strchr>
   15aec:	06051463          	bnez	a0,15b54 <_ZL11follow_pathP3DIRPKc+0x1f4>
   15af0:	f9f90693          	addi	a3,s2,-97
   15af4:	0ff6f693          	andi	a3,a3,255
   15af8:	01900893          	li	a7,25
   15afc:	02f00713          	li	a4,47
   15b00:	00b00813          	li	a6,11
   15b04:	0ad8f263          	bgeu	a7,a3,15ba8 <_ZL11follow_pathP3DIRPKc+0x248>
   15b08:	014486b3          	add	a3,s1,s4
   15b0c:	01268023          	sb	s2,0(a3)
   15b10:	001a0a13          	addi	s4,s4,1
   15b14:	00198993          	addi	s3,s3,1
   15b18:	013406b3          	add	a3,s0,s3
   15b1c:	fff6c903          	lbu	s2,-1(a3)
   15b20:	f92d68e3          	bltu	s10,s2,15ab0 <_ZL11follow_pathP3DIRPKc+0x150>
   15b24:	020dc603          	lbu	a2,32(s11)
   15b28:	0e500713          	li	a4,229
   15b2c:	32e60063          	beq	a2,a4,15e4c <_ZL11follow_pathP3DIRPKc+0x4ec>
   15b30:	00068413          	mv	s0,a3
   15b34:	00400713          	li	a4,4
   15b38:	0b80006f          	j	15bf0 <_ZL11follow_pathP3DIRPKc+0x290>
   15b3c:	035d8023          	sb	s5,32(s11)
   15b40:	00144703          	lbu	a4,1(s0)
   15b44:	2f571863          	bne	a4,s5,15e34 <_ZL11follow_pathP3DIRPKc+0x4d4>
   15b48:	035d80a3          	sb	s5,33(s11)
   15b4c:	00244703          	lbu	a4,2(s0)
   15b50:	2b571263          	bne	a4,s5,15df4 <_ZL11follow_pathP3DIRPKc+0x494>
   15b54:	00600993          	li	s3,6
   15b58:	04c12083          	lw	ra,76(sp)
   15b5c:	04812403          	lw	s0,72(sp)
   15b60:	04412483          	lw	s1,68(sp)
   15b64:	04012903          	lw	s2,64(sp)
   15b68:	03812a03          	lw	s4,56(sp)
   15b6c:	03412a83          	lw	s5,52(sp)
   15b70:	03012b03          	lw	s6,48(sp)
   15b74:	02c12b83          	lw	s7,44(sp)
   15b78:	02812c03          	lw	s8,40(sp)
   15b7c:	02412c83          	lw	s9,36(sp)
   15b80:	02012d03          	lw	s10,32(sp)
   15b84:	01c12d83          	lw	s11,28(sp)
   15b88:	00098513          	mv	a0,s3
   15b8c:	03c12983          	lw	s3,60(sp)
   15b90:	05010113          	addi	sp,sp,80
   15b94:	00008067          	ret
   15b98:	fb0c0ee3          	beq	s8,a6,15b54 <_ZL11follow_pathP3DIRPKc+0x1f4>
   15b9c:	00800a13          	li	s4,8
   15ba0:	00b00c13          	li	s8,11
   15ba4:	f71ff06f          	j	15b14 <_ZL11follow_pathP3DIRPKc+0x1b4>
   15ba8:	fe090913          	addi	s2,s2,-32
   15bac:	0ff97913          	andi	s2,s2,255
   15bb0:	f59ff06f          	j	15b08 <_ZL11follow_pathP3DIRPKc+0x1a8>
   15bb4:	013409b3          	add	s3,s0,s3
   15bb8:	02f00693          	li	a3,47
   15bbc:	0009c703          	lbu	a4,0(s3)
   15bc0:	00098413          	mv	s0,s3
   15bc4:	00d70463          	beq	a4,a3,15bcc <_ZL11follow_pathP3DIRPKc+0x26c>
   15bc8:	01671663          	bne	a4,s6,15bd4 <_ZL11follow_pathP3DIRPKc+0x274>
   15bcc:	00198993          	addi	s3,s3,1
   15bd0:	fedff06f          	j	15bbc <_ZL11follow_pathP3DIRPKc+0x25c>
   15bd4:	f80a00e3          	beqz	s4,15b54 <_ZL11follow_pathP3DIRPKc+0x1f4>
   15bd8:	020dc683          	lbu	a3,32(s11)
   15bdc:	0e500713          	li	a4,229
   15be0:	26e68c63          	beq	a3,a4,15e58 <_ZL11follow_pathP3DIRPKc+0x4f8>
   15be4:	0009c703          	lbu	a4,0(s3)
   15be8:	02173713          	sltiu	a4,a4,33
   15bec:	00271713          	slli	a4,a4,0x2
   15bf0:	02ed85a3          	sb	a4,43(s11)
   15bf4:	000d8513          	mv	a0,s11
   15bf8:	000dad03          	lw	s10,0(s11)
   15bfc:	a95ff0ef          	jal	ra,15690 <_ZL7dir_sdiP3DIRm.constprop.0>
   15c00:	00050993          	mv	s3,a0
   15c04:	22051063          	bnez	a0,15e24 <_ZL11follow_pathP3DIRPKc+0x4c4>
   15c08:	018dac03          	lw	s8,24(s11)
   15c0c:	02cd0a13          	addi	s4,s10,44
   15c10:	00200937          	lui	s2,0x200
   15c14:	028d2703          	lw	a4,40(s10)
   15c18:	03870863          	beq	a4,s8,15c48 <_ZL11follow_pathP3DIRPKc+0x2e8>
   15c1c:	001d4503          	lbu	a0,1(s10)
   15c20:	00100693          	li	a3,1
   15c24:	000c0613          	mv	a2,s8
   15c28:	000a0593          	mv	a1,s4
   15c2c:	4f4010ef          	jal	ra,17120 <disk_read>
   15c30:	00050a63          	beqz	a0,15c44 <_ZL11follow_pathP3DIRPKc+0x2e4>
   15c34:	fff00793          	li	a5,-1
   15c38:	02fd2423          	sw	a5,40(s10)
   15c3c:	00100993          	li	s3,1
   15c40:	f19ff06f          	j	15b58 <_ZL11follow_pathP3DIRPKc+0x1f8>
   15c44:	038d2423          	sw	s8,40(s10)
   15c48:	01cda503          	lw	a0,28(s11)
   15c4c:	00054703          	lbu	a4,0(a0)
   15c50:	02070e63          	beqz	a4,15c8c <_ZL11follow_pathP3DIRPKc+0x32c>
   15c54:	00b54c03          	lbu	s8,11(a0)
   15c58:	03fc7713          	andi	a4,s8,63
   15c5c:	00ed8323          	sb	a4,6(s11)
   15c60:	00b54703          	lbu	a4,11(a0)
   15c64:	00877713          	andi	a4,a4,8
   15c68:	00071a63          	bnez	a4,15c7c <_ZL11follow_pathP3DIRPKc+0x31c>
   15c6c:	00b00613          	li	a2,11
   15c70:	00048593          	mv	a1,s1
   15c74:	2d4030ef          	jal	ra,18f48 <memcmp>
   15c78:	0c050e63          	beqz	a0,15d54 <_ZL11follow_pathP3DIRPKc+0x3f4>
   15c7c:	010da703          	lw	a4,16(s11)
   15c80:	02070713          	addi	a4,a4,32
   15c84:	01276863          	bltu	a4,s2,15c94 <_ZL11follow_pathP3DIRPKc+0x334>
   15c88:	000dac23          	sw	zero,24(s11)
   15c8c:	02bdc703          	lbu	a4,43(s11)
   15c90:	1340006f          	j	15dc4 <_ZL11follow_pathP3DIRPKc+0x464>
   15c94:	018dac03          	lw	s8,24(s11)
   15c98:	fe0c0ae3          	beqz	s8,15c8c <_ZL11follow_pathP3DIRPKc+0x32c>
   15c9c:	1ff77893          	andi	a7,a4,511
   15ca0:	000da683          	lw	a3,0(s11)
   15ca4:	02089063          	bnez	a7,15cc4 <_ZL11follow_pathP3DIRPKc+0x364>
   15ca8:	014da583          	lw	a1,20(s11)
   15cac:	001c0c13          	addi	s8,s8,1
   15cb0:	018dac23          	sw	s8,24(s11)
   15cb4:	02059263          	bnez	a1,15cd8 <_ZL11follow_pathP3DIRPKc+0x378>
   15cb8:	0086d583          	lhu	a1,8(a3)
   15cbc:	00575513          	srli	a0,a4,0x5
   15cc0:	0eb57e63          	bgeu	a0,a1,15dbc <_ZL11follow_pathP3DIRPKc+0x45c>
   15cc4:	02c68693          	addi	a3,a3,44
   15cc8:	011686b3          	add	a3,a3,a7
   15ccc:	00eda823          	sw	a4,16(s11)
   15cd0:	00ddae23          	sw	a3,28(s11)
   15cd4:	f41ff06f          	j	15c14 <_ZL11follow_pathP3DIRPKc+0x2b4>
   15cd8:	00a6d303          	lhu	t1,10(a3)
   15cdc:	00975513          	srli	a0,a4,0x9
   15ce0:	fff30313          	addi	t1,t1,-1
   15ce4:	00a37533          	and	a0,t1,a0
   15ce8:	fc051ee3          	bnez	a0,15cc4 <_ZL11follow_pathP3DIRPKc+0x364>
   15cec:	00068513          	mv	a0,a3
   15cf0:	01112623          	sw	a7,12(sp)
   15cf4:	00e12423          	sw	a4,8(sp)
   15cf8:	00d12223          	sw	a3,4(sp)
   15cfc:	f8cff0ef          	jal	ra,15488 <_ZL7get_fatP7FFOBJIDm.isra.0>
   15d00:	00100613          	li	a2,1
   15d04:	0ea67463          	bgeu	a2,a0,15dec <_ZL11follow_pathP3DIRPKc+0x48c>
   15d08:	fff00793          	li	a5,-1
   15d0c:	0cf50c63          	beq	a0,a5,15de4 <_ZL11follow_pathP3DIRPKc+0x484>
   15d10:	00412683          	lw	a3,4(sp)
   15d14:	00812703          	lw	a4,8(sp)
   15d18:	00c12883          	lw	a7,12(sp)
   15d1c:	0106a603          	lw	a2,16(a3)
   15d20:	08c57e63          	bgeu	a0,a2,15dbc <_ZL11follow_pathP3DIRPKc+0x45c>
   15d24:	00adaa23          	sw	a0,20(s11)
   15d28:	0106a583          	lw	a1,16(a3)
   15d2c:	ffe50513          	addi	a0,a0,-2
   15d30:	00000c13          	li	s8,0
   15d34:	ffe58593          	addi	a1,a1,-2
   15d38:	00b57a63          	bgeu	a0,a1,15d4c <_ZL11follow_pathP3DIRPKc+0x3ec>
   15d3c:	00a6d603          	lhu	a2,10(a3)
   15d40:	0246a583          	lw	a1,36(a3)
   15d44:	02a60533          	mul	a0,a2,a0
   15d48:	00b50c33          	add	s8,a0,a1
   15d4c:	018dac23          	sw	s8,24(s11)
   15d50:	f75ff06f          	j	15cc4 <_ZL11follow_pathP3DIRPKc+0x364>
   15d54:	02bdc703          	lbu	a4,43(s11)
   15d58:	00477713          	andi	a4,a4,4
   15d5c:	de071ee3          	bnez	a4,15b58 <_ZL11follow_pathP3DIRPKc+0x1f8>
   15d60:	010c7693          	andi	a3,s8,16
   15d64:	0e068063          	beqz	a3,15e44 <_ZL11follow_pathP3DIRPKc+0x4e4>
   15d68:	010da703          	lw	a4,16(s11)
   15d6c:	00012783          	lw	a5,0(sp)
   15d70:	000bc583          	lbu	a1,0(s7)
   15d74:	1ff77713          	andi	a4,a4,511
   15d78:	00e78733          	add	a4,a5,a4
   15d7c:	01b74683          	lbu	a3,27(a4)
   15d80:	01a74503          	lbu	a0,26(a4)
   15d84:	00300613          	li	a2,3
   15d88:	00869693          	slli	a3,a3,0x8
   15d8c:	00a6e6b3          	or	a3,a3,a0
   15d90:	00c58663          	beq	a1,a2,15d9c <_ZL11follow_pathP3DIRPKc+0x43c>
   15d94:	00dda423          	sw	a3,8(s11)
   15d98:	cc5ff06f          	j	15a5c <_ZL11follow_pathP3DIRPKc+0xfc>
   15d9c:	01574603          	lbu	a2,21(a4)
   15da0:	01474583          	lbu	a1,20(a4)
   15da4:	00861713          	slli	a4,a2,0x8
   15da8:	00b76733          	or	a4,a4,a1
   15dac:	01071713          	slli	a4,a4,0x10
   15db0:	00e6e6b3          	or	a3,a3,a4
   15db4:	00dda423          	sw	a3,8(s11)
   15db8:	ca5ff06f          	j	15a5c <_ZL11follow_pathP3DIRPKc+0xfc>
   15dbc:	02bdc703          	lbu	a4,43(s11)
   15dc0:	000dac23          	sw	zero,24(s11)
   15dc4:	02077693          	andi	a3,a4,32
   15dc8:	00477713          	andi	a4,a4,4
   15dcc:	06068863          	beqz	a3,15e3c <_ZL11follow_pathP3DIRPKc+0x4dc>
   15dd0:	c80706e3          	beqz	a4,15a5c <_ZL11follow_pathP3DIRPKc+0xfc>
   15dd4:	f8000713          	li	a4,-128
   15dd8:	02ed85a3          	sb	a4,43(s11)
   15ddc:	00000993          	li	s3,0
   15de0:	d79ff06f          	j	15b58 <_ZL11follow_pathP3DIRPKc+0x1f8>
   15de4:	00100993          	li	s3,1
   15de8:	d71ff06f          	j	15b58 <_ZL11follow_pathP3DIRPKc+0x1f8>
   15dec:	00200993          	li	s3,2
   15df0:	d69ff06f          	j	15b58 <_ZL11follow_pathP3DIRPKc+0x1f8>
   15df4:	00300693          	li	a3,3
   15df8:	02f00613          	li	a2,47
   15dfc:	00c70463          	beq	a4,a2,15e04 <_ZL11follow_pathP3DIRPKc+0x4a4>
   15e00:	07671263          	bne	a4,s6,15e64 <_ZL11follow_pathP3DIRPKc+0x504>
   15e04:	02000713          	li	a4,32
   15e08:	02ed85a3          	sb	a4,43(s11)
   15e0c:	000d8513          	mv	a0,s11
   15e10:	000dad03          	lw	s10,0(s11)
   15e14:	00d40433          	add	s0,s0,a3
   15e18:	879ff0ef          	jal	ra,15690 <_ZL7dir_sdiP3DIRm.constprop.0>
   15e1c:	00050993          	mv	s3,a0
   15e20:	de0504e3          	beqz	a0,15c08 <_ZL11follow_pathP3DIRPKc+0x2a8>
   15e24:	00400693          	li	a3,4
   15e28:	02bdc703          	lbu	a4,43(s11)
   15e2c:	f8d50ce3          	beq	a0,a3,15dc4 <_ZL11follow_pathP3DIRPKc+0x464>
   15e30:	d29ff06f          	j	15b58 <_ZL11follow_pathP3DIRPKc+0x1f8>
   15e34:	00200693          	li	a3,2
   15e38:	fc1ff06f          	j	15df8 <_ZL11follow_pathP3DIRPKc+0x498>
   15e3c:	00400993          	li	s3,4
   15e40:	d0071ce3          	bnez	a4,15b58 <_ZL11follow_pathP3DIRPKc+0x1f8>
   15e44:	00500993          	li	s3,5
   15e48:	d11ff06f          	j	15b58 <_ZL11follow_pathP3DIRPKc+0x1f8>
   15e4c:	00500713          	li	a4,5
   15e50:	02ed8023          	sb	a4,32(s11)
   15e54:	cddff06f          	j	15b30 <_ZL11follow_pathP3DIRPKc+0x1d0>
   15e58:	00500713          	li	a4,5
   15e5c:	02ed8023          	sb	a4,32(s11)
   15e60:	d85ff06f          	j	15be4 <_ZL11follow_pathP3DIRPKc+0x284>
   15e64:	02000613          	li	a2,32
   15e68:	cee666e3          	bltu	a2,a4,15b54 <_ZL11follow_pathP3DIRPKc+0x1f4>
   15e6c:	00d40433          	add	s0,s0,a3
   15e70:	02400713          	li	a4,36
   15e74:	d7dff06f          	j	15bf0 <_ZL11follow_pathP3DIRPKc+0x290>

00015e78 <f_mount>:
   15e78:	fd010113          	addi	sp,sp,-48
   15e7c:	00a12623          	sw	a0,12(sp)
   15e80:	01c10513          	addi	a0,sp,28
   15e84:	02812423          	sw	s0,40(sp)
   15e88:	02112623          	sw	ra,44(sp)
   15e8c:	00b12423          	sw	a1,8(sp)
   15e90:	00060413          	mv	s0,a2
   15e94:	00b12e23          	sw	a1,28(sp)
   15e98:	e91fe0ef          	jal	ra,14d28 <_ZL12get_ldnumberPPKc>
   15e9c:	06054663          	bltz	a0,15f08 <f_mount+0x90>
   15ea0:	00010797          	auipc	a5,0x10
   15ea4:	b1078793          	addi	a5,a5,-1264 # 259b0 <_ZL5FatFs>
   15ea8:	00251513          	slli	a0,a0,0x2
   15eac:	00a78733          	add	a4,a5,a0
   15eb0:	00072703          	lw	a4,0(a4)
   15eb4:	00070463          	beqz	a4,15ebc <f_mount+0x44>
   15eb8:	00070023          	sb	zero,0(a4)
   15ebc:	00c12703          	lw	a4,12(sp)
   15ec0:	00070663          	beqz	a4,15ecc <f_mount+0x54>
   15ec4:	00070023          	sb	zero,0(a4)
   15ec8:	00c12703          	lw	a4,12(sp)
   15ecc:	00a78533          	add	a0,a5,a0
   15ed0:	00e52023          	sw	a4,0(a0)
   15ed4:	00000513          	li	a0,0
   15ed8:	00041a63          	bnez	s0,15eec <f_mount+0x74>
   15edc:	02c12083          	lw	ra,44(sp)
   15ee0:	02812403          	lw	s0,40(sp)
   15ee4:	03010113          	addi	sp,sp,48
   15ee8:	00008067          	ret
   15eec:	00c10593          	addi	a1,sp,12
   15ef0:	00810513          	addi	a0,sp,8
   15ef4:	938ff0ef          	jal	ra,1502c <_ZL12mount_volumePPKcPP5FATFSh.constprop.0>
   15ef8:	02c12083          	lw	ra,44(sp)
   15efc:	02812403          	lw	s0,40(sp)
   15f00:	03010113          	addi	sp,sp,48
   15f04:	00008067          	ret
   15f08:	02c12083          	lw	ra,44(sp)
   15f0c:	02812403          	lw	s0,40(sp)
   15f10:	00b00513          	li	a0,11
   15f14:	03010113          	addi	sp,sp,48
   15f18:	00008067          	ret

00015f1c <f_open>:
   15f1c:	fb010113          	addi	sp,sp,-80
   15f20:	04112623          	sw	ra,76(sp)
   15f24:	04812423          	sw	s0,72(sp)
   15f28:	04912223          	sw	s1,68(sp)
   15f2c:	00b12623          	sw	a1,12(sp)
   15f30:	0e050a63          	beqz	a0,16024 <f_open+0x108>
   15f34:	00050413          	mv	s0,a0
   15f38:	01010593          	addi	a1,sp,16
   15f3c:	00c10513          	addi	a0,sp,12
   15f40:	00060493          	mv	s1,a2
   15f44:	8e8ff0ef          	jal	ra,1502c <_ZL12mount_volumePPKcPP5FATFSh.constprop.0>
   15f48:	00050e63          	beqz	a0,15f64 <f_open+0x48>
   15f4c:	00042023          	sw	zero,0(s0)
   15f50:	04c12083          	lw	ra,76(sp)
   15f54:	04812403          	lw	s0,72(sp)
   15f58:	04412483          	lw	s1,68(sp)
   15f5c:	05010113          	addi	sp,sp,80
   15f60:	00008067          	ret
   15f64:	01012783          	lw	a5,16(sp)
   15f68:	00c12583          	lw	a1,12(sp)
   15f6c:	01410513          	addi	a0,sp,20
   15f70:	00f12a23          	sw	a5,20(sp)
   15f74:	9edff0ef          	jal	ra,15960 <_ZL11follow_pathP3DIRPKc>
   15f78:	fc051ae3          	bnez	a0,15f4c <f_open+0x30>
   15f7c:	03f10783          	lb	a5,63(sp)
   15f80:	0a07ce63          	bltz	a5,1603c <f_open+0x120>
   15f84:	01a14783          	lbu	a5,26(sp)
   15f88:	0107f793          	andi	a5,a5,16
   15f8c:	0a079c63          	bnez	a5,16044 <f_open+0x128>
   15f90:	03012783          	lw	a5,48(sp)
   15f94:	01012583          	lw	a1,16(sp)
   15f98:	00300693          	li	a3,3
   15f9c:	01b7c703          	lbu	a4,27(a5)
   15fa0:	01a7c803          	lbu	a6,26(a5)
   15fa4:	0005c603          	lbu	a2,0(a1)
   15fa8:	00871713          	slli	a4,a4,0x8
   15fac:	01076733          	or	a4,a4,a6
   15fb0:	00d61e63          	bne	a2,a3,15fcc <f_open+0xb0>
   15fb4:	0157c683          	lbu	a3,21(a5)
   15fb8:	0147c603          	lbu	a2,20(a5)
   15fbc:	00869693          	slli	a3,a3,0x8
   15fc0:	00c6e6b3          	or	a3,a3,a2
   15fc4:	01069693          	slli	a3,a3,0x10
   15fc8:	00d76733          	or	a4,a4,a3
   15fcc:	00e42423          	sw	a4,8(s0)
   15fd0:	01d7c683          	lbu	a3,29(a5)
   15fd4:	01c7c603          	lbu	a2,28(a5)
   15fd8:	01e7c703          	lbu	a4,30(a5)
   15fdc:	01f7c783          	lbu	a5,31(a5)
   15fe0:	00869693          	slli	a3,a3,0x8
   15fe4:	0065d803          	lhu	a6,6(a1)
   15fe8:	00c6e6b3          	or	a3,a3,a2
   15fec:	01071713          	slli	a4,a4,0x10
   15ff0:	00d76733          	or	a4,a4,a3
   15ff4:	01879793          	slli	a5,a5,0x18
   15ff8:	00e7e7b3          	or	a5,a5,a4
   15ffc:	0014f613          	andi	a2,s1,1
   16000:	00f42623          	sw	a5,12(s0)
   16004:	02042023          	sw	zero,32(s0)
   16008:	00b42023          	sw	a1,0(s0)
   1600c:	01041223          	sh	a6,4(s0)
   16010:	00c40823          	sb	a2,16(s0)
   16014:	000408a3          	sb	zero,17(s0)
   16018:	00042e23          	sw	zero,28(s0)
   1601c:	00042a23          	sw	zero,20(s0)
   16020:	f31ff06f          	j	15f50 <f_open+0x34>
   16024:	04c12083          	lw	ra,76(sp)
   16028:	04812403          	lw	s0,72(sp)
   1602c:	04412483          	lw	s1,68(sp)
   16030:	00900513          	li	a0,9
   16034:	05010113          	addi	sp,sp,80
   16038:	00008067          	ret
   1603c:	00600513          	li	a0,6
   16040:	f0dff06f          	j	15f4c <f_open+0x30>
   16044:	00400513          	li	a0,4
   16048:	f05ff06f          	j	15f4c <f_open+0x30>

0001604c <f_read>:
   1604c:	fb010113          	addi	sp,sp,-80
   16050:	04112623          	sw	ra,76(sp)
   16054:	04812423          	sw	s0,72(sp)
   16058:	04912223          	sw	s1,68(sp)
   1605c:	05212023          	sw	s2,64(sp)
   16060:	03312e23          	sw	s3,60(sp)
   16064:	03412c23          	sw	s4,56(sp)
   16068:	03512a23          	sw	s5,52(sp)
   1606c:	03612823          	sw	s6,48(sp)
   16070:	03712623          	sw	s7,44(sp)
   16074:	03812423          	sw	s8,40(sp)
   16078:	03912223          	sw	s9,36(sp)
   1607c:	03a12023          	sw	s10,32(sp)
   16080:	01b12e23          	sw	s11,28(sp)
   16084:	0006a023          	sw	zero,0(a3)
   16088:	02050463          	beqz	a0,160b0 <f_read+0x64>
   1608c:	00052783          	lw	a5,0(a0)
   16090:	00050413          	mv	s0,a0
   16094:	00078e63          	beqz	a5,160b0 <f_read+0x64>
   16098:	0007c703          	lbu	a4,0(a5)
   1609c:	00070a63          	beqz	a4,160b0 <f_read+0x64>
   160a0:	00068b13          	mv	s6,a3
   160a4:	0067d703          	lhu	a4,6(a5)
   160a8:	00455683          	lhu	a3,4(a0)
   160ac:	04e68463          	beq	a3,a4,160f4 <f_read+0xa8>
   160b0:	00900d13          	li	s10,9
   160b4:	04c12083          	lw	ra,76(sp)
   160b8:	04812403          	lw	s0,72(sp)
   160bc:	04412483          	lw	s1,68(sp)
   160c0:	04012903          	lw	s2,64(sp)
   160c4:	03c12983          	lw	s3,60(sp)
   160c8:	03812a03          	lw	s4,56(sp)
   160cc:	03412a83          	lw	s5,52(sp)
   160d0:	03012b03          	lw	s6,48(sp)
   160d4:	02c12b83          	lw	s7,44(sp)
   160d8:	02812c03          	lw	s8,40(sp)
   160dc:	02412c83          	lw	s9,36(sp)
   160e0:	01c12d83          	lw	s11,28(sp)
   160e4:	000d0513          	mv	a0,s10
   160e8:	02012d03          	lw	s10,32(sp)
   160ec:	05010113          	addi	sp,sp,80
   160f0:	00008067          	ret
   160f4:	0017c503          	lbu	a0,1(a5)
   160f8:	00058b93          	mv	s7,a1
   160fc:	00c12623          	sw	a2,12(sp)
   16100:	7e5000ef          	jal	ra,170e4 <disk_status>
   16104:	00157513          	andi	a0,a0,1
   16108:	fa0514e3          	bnez	a0,160b0 <f_read+0x64>
   1610c:	01144d03          	lbu	s10,17(s0)
   16110:	fa0d12e3          	bnez	s10,160b4 <f_read+0x68>
   16114:	01044783          	lbu	a5,16(s0)
   16118:	0017f793          	andi	a5,a5,1
   1611c:	1a078663          	beqz	a5,162c8 <f_read+0x27c>
   16120:	01442703          	lw	a4,20(s0)
   16124:	00c42a83          	lw	s5,12(s0)
   16128:	00c12603          	lw	a2,12(sp)
   1612c:	40ea8ab3          	sub	s5,s5,a4
   16130:	01567463          	bgeu	a2,s5,16138 <f_read+0xec>
   16134:	00060a93          	mv	s5,a2
   16138:	f60a8ee3          	beqz	s5,160b4 <f_read+0x68>
   1613c:	1ff77593          	andi	a1,a4,511
   16140:	00042d83          	lw	s11,0(s0)
   16144:	20000913          	li	s2,512
   16148:	1ff00993          	li	s3,511
   1614c:	02440493          	addi	s1,s0,36
   16150:	fff00a13          	li	s4,-1
   16154:	08059e63          	bnez	a1,161f0 <f_read+0x1a4>
   16158:	00addc83          	lhu	s9,10(s11)
   1615c:	00975793          	srli	a5,a4,0x9
   16160:	fffc8c93          	addi	s9,s9,-1
   16164:	00fcfcb3          	and	s9,s9,a5
   16168:	0a0c8663          	beqz	s9,16214 <f_read+0x1c8>
   1616c:	01842503          	lw	a0,24(s0)
   16170:	010da703          	lw	a4,16(s11)
   16174:	ffe50793          	addi	a5,a0,-2
   16178:	ffe70713          	addi	a4,a4,-2
   1617c:	0ce7f063          	bgeu	a5,a4,1623c <f_read+0x1f0>
   16180:	00add703          	lhu	a4,10(s11)
   16184:	024da603          	lw	a2,36(s11)
   16188:	02e787b3          	mul	a5,a5,a4
   1618c:	00c78633          	add	a2,a5,a2
   16190:	0a060663          	beqz	a2,1623c <f_read+0x1f0>
   16194:	00cc8633          	add	a2,s9,a2
   16198:	0b59fa63          	bgeu	s3,s5,1624c <f_read+0x200>
   1619c:	009adc13          	srli	s8,s5,0x9
   161a0:	018c87b3          	add	a5,s9,s8
   161a4:	00f77463          	bgeu	a4,a5,161ac <f_read+0x160>
   161a8:	41970c33          	sub	s8,a4,s9
   161ac:	001dc503          	lbu	a0,1(s11)
   161b0:	000c0693          	mv	a3,s8
   161b4:	000b8593          	mv	a1,s7
   161b8:	769000ef          	jal	ra,17120 <disk_read>
   161bc:	0e051e63          	bnez	a0,162b8 <f_read+0x26c>
   161c0:	009c1c13          	slli	s8,s8,0x9
   161c4:	000b2783          	lw	a5,0(s6)
   161c8:	01442703          	lw	a4,20(s0)
   161cc:	418a8ab3          	sub	s5,s5,s8
   161d0:	018787b3          	add	a5,a5,s8
   161d4:	00fb2023          	sw	a5,0(s6)
   161d8:	00ec0733          	add	a4,s8,a4
   161dc:	00e42a23          	sw	a4,20(s0)
   161e0:	018b8bb3          	add	s7,s7,s8
   161e4:	ec0a88e3          	beqz	s5,160b4 <f_read+0x68>
   161e8:	1ff77593          	andi	a1,a4,511
   161ec:	f60586e3          	beqz	a1,16158 <f_read+0x10c>
   161f0:	40b907b3          	sub	a5,s2,a1
   161f4:	000a8c13          	mv	s8,s5
   161f8:	0157f463          	bgeu	a5,s5,16200 <f_read+0x1b4>
   161fc:	00078c13          	mv	s8,a5
   16200:	000c0613          	mv	a2,s8
   16204:	00b485b3          	add	a1,s1,a1
   16208:	000b8513          	mv	a0,s7
   1620c:	56d020ef          	jal	ra,18f78 <memcpy>
   16210:	fb5ff06f          	j	161c4 <f_read+0x178>
   16214:	06071663          	bnez	a4,16280 <f_read+0x234>
   16218:	00842503          	lw	a0,8(s0)
   1621c:	00100793          	li	a5,1
   16220:	00a7fe63          	bgeu	a5,a0,1623c <f_read+0x1f0>
   16224:	09450a63          	beq	a0,s4,162b8 <f_read+0x26c>
   16228:	00a42c23          	sw	a0,24(s0)
   1622c:	010da703          	lw	a4,16(s11)
   16230:	ffe50793          	addi	a5,a0,-2
   16234:	ffe70713          	addi	a4,a4,-2
   16238:	f4e7e4e3          	bltu	a5,a4,16180 <f_read+0x134>
   1623c:	00200793          	li	a5,2
   16240:	00f408a3          	sb	a5,17(s0)
   16244:	00200d13          	li	s10,2
   16248:	e6dff06f          	j	160b4 <f_read+0x68>
   1624c:	01c42783          	lw	a5,28(s0)
   16250:	02c78063          	beq	a5,a2,16270 <f_read+0x224>
   16254:	001dc503          	lbu	a0,1(s11)
   16258:	00100693          	li	a3,1
   1625c:	00048593          	mv	a1,s1
   16260:	00c12623          	sw	a2,12(sp)
   16264:	6bd000ef          	jal	ra,17120 <disk_read>
   16268:	00c12603          	lw	a2,12(sp)
   1626c:	04051663          	bnez	a0,162b8 <f_read+0x26c>
   16270:	01442583          	lw	a1,20(s0)
   16274:	00c42e23          	sw	a2,28(s0)
   16278:	1ff5f593          	andi	a1,a1,511
   1627c:	f75ff06f          	j	161f0 <f_read+0x1a4>
   16280:	02042683          	lw	a3,32(s0)
   16284:	00042503          	lw	a0,0(s0)
   16288:	04068463          	beqz	a3,162d0 <f_read+0x284>
   1628c:	00a55603          	lhu	a2,10(a0)
   16290:	0046a703          	lw	a4,4(a3)
   16294:	00468693          	addi	a3,a3,4
   16298:	02c7d7b3          	divu	a5,a5,a2
   1629c:	fa0700e3          	beqz	a4,1623c <f_read+0x1f0>
   162a0:	02e7ee63          	bltu	a5,a4,162dc <f_read+0x290>
   162a4:	00868693          	addi	a3,a3,8
   162a8:	40e787b3          	sub	a5,a5,a4
   162ac:	0006a703          	lw	a4,0(a3)
   162b0:	fe0718e3          	bnez	a4,162a0 <f_read+0x254>
   162b4:	f89ff06f          	j	1623c <f_read+0x1f0>
   162b8:	00100793          	li	a5,1
   162bc:	00f408a3          	sb	a5,17(s0)
   162c0:	00100d13          	li	s10,1
   162c4:	df1ff06f          	j	160b4 <f_read+0x68>
   162c8:	00700d13          	li	s10,7
   162cc:	de9ff06f          	j	160b4 <f_read+0x68>
   162d0:	01842583          	lw	a1,24(s0)
   162d4:	9b4ff0ef          	jal	ra,15488 <_ZL7get_fatP7FFOBJIDm.isra.0>
   162d8:	f45ff06f          	j	1621c <f_read+0x1d0>
   162dc:	0046a503          	lw	a0,4(a3)
   162e0:	00a78533          	add	a0,a5,a0
   162e4:	f39ff06f          	j	1621c <f_read+0x1d0>

000162e8 <f_close>:
   162e8:	06050463          	beqz	a0,16350 <f_close+0x68>
   162ec:	00052783          	lw	a5,0(a0)
   162f0:	ff010113          	addi	sp,sp,-16
   162f4:	00812423          	sw	s0,8(sp)
   162f8:	00112623          	sw	ra,12(sp)
   162fc:	00050413          	mv	s0,a0
   16300:	00078c63          	beqz	a5,16318 <f_close+0x30>
   16304:	0007c703          	lbu	a4,0(a5)
   16308:	00070863          	beqz	a4,16318 <f_close+0x30>
   1630c:	00455683          	lhu	a3,4(a0)
   16310:	0067d703          	lhu	a4,6(a5)
   16314:	00e68c63          	beq	a3,a4,1632c <f_close+0x44>
   16318:	00c12083          	lw	ra,12(sp)
   1631c:	00812403          	lw	s0,8(sp)
   16320:	00900513          	li	a0,9
   16324:	01010113          	addi	sp,sp,16
   16328:	00008067          	ret
   1632c:	0017c503          	lbu	a0,1(a5)
   16330:	5b5000ef          	jal	ra,170e4 <disk_status>
   16334:	00157513          	andi	a0,a0,1
   16338:	fe0510e3          	bnez	a0,16318 <f_close+0x30>
   1633c:	00c12083          	lw	ra,12(sp)
   16340:	00042023          	sw	zero,0(s0)
   16344:	00812403          	lw	s0,8(sp)
   16348:	01010113          	addi	sp,sp,16
   1634c:	00008067          	ret
   16350:	00900513          	li	a0,9
   16354:	00008067          	ret

00016358 <f_chdrive>:
   16358:	fe010113          	addi	sp,sp,-32
   1635c:	00a12623          	sw	a0,12(sp)
   16360:	00c10513          	addi	a0,sp,12
   16364:	00112e23          	sw	ra,28(sp)
   16368:	9c1fe0ef          	jal	ra,14d28 <_ZL12get_ldnumberPPKc>
   1636c:	00054e63          	bltz	a0,16388 <f_chdrive+0x30>
   16370:	01c12083          	lw	ra,28(sp)
   16374:	0000f797          	auipc	a5,0xf
   16378:	64a78423          	sb	a0,1608(a5) # 259bc <_ZL7CurrVol>
   1637c:	00000513          	li	a0,0
   16380:	02010113          	addi	sp,sp,32
   16384:	00008067          	ret
   16388:	01c12083          	lw	ra,28(sp)
   1638c:	00b00513          	li	a0,11
   16390:	02010113          	addi	sp,sp,32
   16394:	00008067          	ret

00016398 <f_chdir>:
   16398:	fb010113          	addi	sp,sp,-80
   1639c:	00a12623          	sw	a0,12(sp)
   163a0:	01010593          	addi	a1,sp,16
   163a4:	00c10513          	addi	a0,sp,12
   163a8:	04112623          	sw	ra,76(sp)
   163ac:	c81fe0ef          	jal	ra,1502c <_ZL12mount_volumePPKcPP5FATFSh.constprop.0>
   163b0:	00050863          	beqz	a0,163c0 <f_chdir+0x28>
   163b4:	04c12083          	lw	ra,76(sp)
   163b8:	05010113          	addi	sp,sp,80
   163bc:	00008067          	ret
   163c0:	01012783          	lw	a5,16(sp)
   163c4:	00c12583          	lw	a1,12(sp)
   163c8:	01410513          	addi	a0,sp,20
   163cc:	00f12a23          	sw	a5,20(sp)
   163d0:	d90ff0ef          	jal	ra,15960 <_ZL11follow_pathP3DIRPKc>
   163d4:	04051263          	bnez	a0,16418 <f_chdir+0x80>
   163d8:	03f10783          	lb	a5,63(sp)
   163dc:	0407c663          	bltz	a5,16428 <f_chdir+0x90>
   163e0:	01a14783          	lbu	a5,26(sp)
   163e4:	0107f793          	andi	a5,a5,16
   163e8:	02078c63          	beqz	a5,16420 <f_chdir+0x88>
   163ec:	03012703          	lw	a4,48(sp)
   163f0:	01012683          	lw	a3,16(sp)
   163f4:	00300613          	li	a2,3
   163f8:	01b74783          	lbu	a5,27(a4)
   163fc:	01a74803          	lbu	a6,26(a4)
   16400:	0006c583          	lbu	a1,0(a3)
   16404:	00879793          	slli	a5,a5,0x8
   16408:	0107e7b3          	or	a5,a5,a6
   1640c:	02c58663          	beq	a1,a2,16438 <f_chdir+0xa0>
   16410:	00f6a623          	sw	a5,12(a3)
   16414:	fa1ff06f          	j	163b4 <f_chdir+0x1c>
   16418:	00400793          	li	a5,4
   1641c:	f8f51ce3          	bne	a0,a5,163b4 <f_chdir+0x1c>
   16420:	00500513          	li	a0,5
   16424:	f91ff06f          	j	163b4 <f_chdir+0x1c>
   16428:	01012783          	lw	a5,16(sp)
   1642c:	01c12703          	lw	a4,28(sp)
   16430:	00e7a623          	sw	a4,12(a5)
   16434:	f81ff06f          	j	163b4 <f_chdir+0x1c>
   16438:	01574603          	lbu	a2,21(a4)
   1643c:	01474583          	lbu	a1,20(a4)
   16440:	00861713          	slli	a4,a2,0x8
   16444:	00b76733          	or	a4,a4,a1
   16448:	01071713          	slli	a4,a4,0x10
   1644c:	00e7e7b3          	or	a5,a5,a4
   16450:	00f6a623          	sw	a5,12(a3)
   16454:	f61ff06f          	j	163b4 <f_chdir+0x1c>

00016458 <f_lseek>:
   16458:	fa010113          	addi	sp,sp,-96
   1645c:	04112e23          	sw	ra,92(sp)
   16460:	04812c23          	sw	s0,88(sp)
   16464:	04912a23          	sw	s1,84(sp)
   16468:	05212823          	sw	s2,80(sp)
   1646c:	05312623          	sw	s3,76(sp)
   16470:	05412423          	sw	s4,72(sp)
   16474:	05512223          	sw	s5,68(sp)
   16478:	05612023          	sw	s6,64(sp)
   1647c:	03712e23          	sw	s7,60(sp)
   16480:	03812c23          	sw	s8,56(sp)
   16484:	03912a23          	sw	s9,52(sp)
   16488:	03a12823          	sw	s10,48(sp)
   1648c:	03b12623          	sw	s11,44(sp)
   16490:	02050263          	beqz	a0,164b4 <f_lseek+0x5c>
   16494:	00052783          	lw	a5,0(a0)
   16498:	00050413          	mv	s0,a0
   1649c:	00078c63          	beqz	a5,164b4 <f_lseek+0x5c>
   164a0:	0007c703          	lbu	a4,0(a5)
   164a4:	00070863          	beqz	a4,164b4 <f_lseek+0x5c>
   164a8:	00455683          	lhu	a3,4(a0)
   164ac:	0067d703          	lhu	a4,6(a5)
   164b0:	04e68463          	beq	a3,a4,164f8 <f_lseek+0xa0>
   164b4:	00900913          	li	s2,9
   164b8:	05c12083          	lw	ra,92(sp)
   164bc:	05812403          	lw	s0,88(sp)
   164c0:	05412483          	lw	s1,84(sp)
   164c4:	04c12983          	lw	s3,76(sp)
   164c8:	04812a03          	lw	s4,72(sp)
   164cc:	04412a83          	lw	s5,68(sp)
   164d0:	04012b03          	lw	s6,64(sp)
   164d4:	03c12b83          	lw	s7,60(sp)
   164d8:	03812c03          	lw	s8,56(sp)
   164dc:	03412c83          	lw	s9,52(sp)
   164e0:	03012d03          	lw	s10,48(sp)
   164e4:	02c12d83          	lw	s11,44(sp)
   164e8:	00090513          	mv	a0,s2
   164ec:	05012903          	lw	s2,80(sp)
   164f0:	06010113          	addi	sp,sp,96
   164f4:	00008067          	ret
   164f8:	0017c503          	lbu	a0,1(a5)
   164fc:	00b12623          	sw	a1,12(sp)
   16500:	3e5000ef          	jal	ra,170e4 <disk_status>
   16504:	00157513          	andi	a0,a0,1
   16508:	fa0516e3          	bnez	a0,164b4 <f_lseek+0x5c>
   1650c:	01144903          	lbu	s2,17(s0)
   16510:	00042c03          	lw	s8,0(s0)
   16514:	fa0912e3          	bnez	s2,164b8 <f_lseek+0x60>
   16518:	02042783          	lw	a5,32(s0)
   1651c:	00c12583          	lw	a1,12(sp)
   16520:	0a078a63          	beqz	a5,165d4 <f_lseek+0x17c>
   16524:	fff00713          	li	a4,-1
   16528:	1ae58063          	beq	a1,a4,166c8 <f_lseek+0x270>
   1652c:	00c42603          	lw	a2,12(s0)
   16530:	00c5f463          	bgeu	a1,a2,16538 <f_lseek+0xe0>
   16534:	00058613          	mv	a2,a1
   16538:	00c42a23          	sw	a2,20(s0)
   1653c:	f6060ee3          	beqz	a2,164b8 <f_lseek+0x60>
   16540:	00ac5583          	lhu	a1,10(s8)
   16544:	0047a703          	lw	a4,4(a5)
   16548:	fff60493          	addi	s1,a2,-1
   1654c:	0094d513          	srli	a0,s1,0x9
   16550:	02b556b3          	divu	a3,a0,a1
   16554:	00478793          	addi	a5,a5,4
   16558:	00070c63          	beqz	a4,16570 <f_lseek+0x118>
   1655c:	2ee6ec63          	bltu	a3,a4,16854 <f_lseek+0x3fc>
   16560:	00878793          	addi	a5,a5,8
   16564:	40e686b3          	sub	a3,a3,a4
   16568:	0007a703          	lw	a4,0(a5)
   1656c:	fe0718e3          	bnez	a4,1655c <f_lseek+0x104>
   16570:	ffe00793          	li	a5,-2
   16574:	00e42c23          	sw	a4,24(s0)
   16578:	010c2703          	lw	a4,16(s8)
   1657c:	ffe70713          	addi	a4,a4,-2
   16580:	18e7fe63          	bgeu	a5,a4,1671c <f_lseek+0x2c4>
   16584:	02f587b3          	mul	a5,a1,a5
   16588:	024c2703          	lw	a4,36(s8)
   1658c:	00e787b3          	add	a5,a5,a4
   16590:	18078663          	beqz	a5,1671c <f_lseek+0x2c4>
   16594:	1ff67613          	andi	a2,a2,511
   16598:	f20600e3          	beqz	a2,164b8 <f_lseek+0x60>
   1659c:	fff58493          	addi	s1,a1,-1
   165a0:	01c42703          	lw	a4,28(s0)
   165a4:	00a4f4b3          	and	s1,s1,a0
   165a8:	00f484b3          	add	s1,s1,a5
   165ac:	f09706e3          	beq	a4,s1,164b8 <f_lseek+0x60>
   165b0:	001c4503          	lbu	a0,1(s8)
   165b4:	00100693          	li	a3,1
   165b8:	00048613          	mv	a2,s1
   165bc:	02440593          	addi	a1,s0,36
   165c0:	361000ef          	jal	ra,17120 <disk_read>
   165c4:	00050913          	mv	s2,a0
   165c8:	0e051863          	bnez	a0,166b8 <f_lseek+0x260>
   165cc:	00942e23          	sw	s1,28(s0)
   165d0:	ee9ff06f          	j	164b8 <f_lseek+0x60>
   165d4:	00c42703          	lw	a4,12(s0)
   165d8:	00e5f463          	bgeu	a1,a4,165e0 <f_lseek+0x188>
   165dc:	00058713          	mv	a4,a1
   165e0:	01442783          	lw	a5,20(s0)
   165e4:	00042a23          	sw	zero,20(s0)
   165e8:	ec0708e3          	beqz	a4,164b8 <f_lseek+0x60>
   165ec:	00ac5483          	lhu	s1,10(s8)
   165f0:	00949493          	slli	s1,s1,0x9
   165f4:	06078463          	beqz	a5,1665c <f_lseek+0x204>
   165f8:	fff78693          	addi	a3,a5,-1
   165fc:	fff70793          	addi	a5,a4,-1
   16600:	0297d7b3          	divu	a5,a5,s1
   16604:	0296d633          	divu	a2,a3,s1
   16608:	04c7ea63          	bltu	a5,a2,1665c <f_lseek+0x204>
   1660c:	01842a03          	lw	s4,24(s0)
   16610:	409007b3          	neg	a5,s1
   16614:	00d7f7b3          	and	a5,a5,a3
   16618:	00f42a23          	sw	a5,20(s0)
   1661c:	40f709b3          	sub	s3,a4,a5
   16620:	000a0593          	mv	a1,s4
   16624:	040a1663          	bnez	s4,16670 <f_lseek+0x218>
   16628:	1ff7f793          	andi	a5,a5,511
   1662c:	e80786e3          	beqz	a5,164b8 <f_lseek+0x60>
   16630:	01c42783          	lw	a5,28(s0)
   16634:	e94782e3          	beq	a5,s4,164b8 <f_lseek+0x60>
   16638:	001c4503          	lbu	a0,1(s8)
   1663c:	00100693          	li	a3,1
   16640:	000a0613          	mv	a2,s4
   16644:	02440593          	addi	a1,s0,36
   16648:	2d9000ef          	jal	ra,17120 <disk_read>
   1664c:	00050913          	mv	s2,a0
   16650:	06051463          	bnez	a0,166b8 <f_lseek+0x260>
   16654:	01442e23          	sw	s4,28(s0)
   16658:	e61ff06f          	j	164b8 <f_lseek+0x60>
   1665c:	00842583          	lw	a1,8(s0)
   16660:	00b42c23          	sw	a1,24(s0)
   16664:	e4058ae3          	beqz	a1,164b8 <f_lseek+0x60>
   16668:	00000793          	li	a5,0
   1666c:	00070993          	mv	s3,a4
   16670:	3534fa63          	bgeu	s1,s3,169c4 <f_lseek+0x56c>
   16674:	000c0513          	mv	a0,s8
   16678:	fff00a13          	li	s4,-1
   1667c:	00100a93          	li	s5,1
   16680:	0200006f          	j	166a0 <f_lseek+0x248>
   16684:	08aafc63          	bgeu	s5,a0,1671c <f_lseek+0x2c4>
   16688:	010c2783          	lw	a5,16(s8)
   1668c:	08f57863          	bgeu	a0,a5,1671c <f_lseek+0x2c4>
   16690:	00a42c23          	sw	a0,24(s0)
   16694:	01442783          	lw	a5,20(s0)
   16698:	2f34f663          	bgeu	s1,s3,16984 <f_lseek+0x52c>
   1669c:	00042503          	lw	a0,0(s0)
   166a0:	00f487b3          	add	a5,s1,a5
   166a4:	00f42a23          	sw	a5,20(s0)
   166a8:	de1fe0ef          	jal	ra,15488 <_ZL7get_fatP7FFOBJIDm.isra.0>
   166ac:	00050593          	mv	a1,a0
   166b0:	409989b3          	sub	s3,s3,s1
   166b4:	fd4518e3          	bne	a0,s4,16684 <f_lseek+0x22c>
   166b8:	00100793          	li	a5,1
   166bc:	00f408a3          	sb	a5,17(s0)
   166c0:	00100913          	li	s2,1
   166c4:	df5ff06f          	j	164b8 <f_lseek+0x60>
   166c8:	0007a703          	lw	a4,0(a5)
   166cc:	00842d83          	lw	s11,8(s0)
   166d0:	00478a13          	addi	s4,a5,4
   166d4:	00e12623          	sw	a4,12(sp)
   166d8:	160d8263          	beqz	s11,1683c <f_lseek+0x3e4>
   166dc:	00001bb7          	lui	s7,0x1
   166e0:	10000ab7          	lui	s5,0x10000
   166e4:	fffb8793          	addi	a5,s7,-1 # fff <exit-0xf075>
   166e8:	000c0993          	mv	s3,s8
   166ec:	00200b13          	li	s6,2
   166f0:	00200893          	li	a7,2
   166f4:	fffa8a93          	addi	s5,s5,-1 # fffffff <__BSS_END__+0xffda337>
   166f8:	00f12823          	sw	a5,16(sp)
   166fc:	00000c93          	li	s9,0
   16700:	000d8493          	mv	s1,s11
   16704:	00100d13          	li	s10,1
   16708:	00300b93          	li	s7,3
   1670c:	001c8c93          	addi	s9,s9,1
   16710:	009d7663          	bgeu	s10,s1,1671c <f_lseek+0x2c4>
   16714:	0109a783          	lw	a5,16(s3)
   16718:	00f4ea63          	bltu	s1,a5,1672c <f_lseek+0x2d4>
   1671c:	00200793          	li	a5,2
   16720:	00f408a3          	sb	a5,17(s0)
   16724:	00200913          	li	s2,2
   16728:	d91ff06f          	j	164b8 <f_lseek+0x60>
   1672c:	0009c783          	lbu	a5,0(s3)
   16730:	0d178a63          	beq	a5,a7,16804 <f_lseek+0x3ac>
   16734:	07778e63          	beq	a5,s7,167b0 <f_lseek+0x358>
   16738:	ffa792e3          	bne	a5,s10,1671c <f_lseek+0x2c4>
   1673c:	01c9a583          	lw	a1,28(s3)
   16740:	0014d793          	srli	a5,s1,0x1
   16744:	009787b3          	add	a5,a5,s1
   16748:	0289a683          	lw	a3,40(s3)
   1674c:	0097d613          	srli	a2,a5,0x9
   16750:	00b60633          	add	a2,a2,a1
   16754:	16d61463          	bne	a2,a3,168bc <f_lseek+0x464>
   16758:	00178313          	addi	t1,a5,1
   1675c:	00935613          	srli	a2,t1,0x9
   16760:	1ff7f793          	andi	a5,a5,511
   16764:	00f987b3          	add	a5,s3,a5
   16768:	00b60633          	add	a2,a2,a1
   1676c:	02c7c783          	lbu	a5,44(a5)
   16770:	18d61263          	bne	a2,a3,168f4 <f_lseek+0x49c>
   16774:	1ff37313          	andi	t1,t1,511
   16778:	006989b3          	add	s3,s3,t1
   1677c:	02c9c683          	lbu	a3,44(s3)
   16780:	0014f613          	andi	a2,s1,1
   16784:	00869693          	slli	a3,a3,0x8
   16788:	00f6e6b3          	or	a3,a3,a5
   1678c:	01012783          	lw	a5,16(sp)
   16790:	00f6f7b3          	and	a5,a3,a5
   16794:	18061c63          	bnez	a2,1692c <f_lseek+0x4d4>
   16798:	f8fd72e3          	bgeu	s10,a5,1671c <f_lseek+0x2c4>
   1679c:	00148493          	addi	s1,s1,1
   167a0:	1af49063          	bne	s1,a5,16940 <f_lseek+0x4e8>
   167a4:	00042983          	lw	s3,0(s0)
   167a8:	00078493          	mv	s1,a5
   167ac:	f61ff06f          	j	1670c <f_lseek+0x2b4>
   167b0:	01c9a683          	lw	a3,28(s3)
   167b4:	0289a783          	lw	a5,40(s3)
   167b8:	0074d613          	srli	a2,s1,0x7
   167bc:	00d60633          	add	a2,a2,a3
   167c0:	02c98593          	addi	a1,s3,44
   167c4:	0cf61663          	bne	a2,a5,16890 <f_lseek+0x438>
   167c8:	00249793          	slli	a5,s1,0x2
   167cc:	1fc7f793          	andi	a5,a5,508
   167d0:	00f585b3          	add	a1,a1,a5
   167d4:	0015c603          	lbu	a2,1(a1)
   167d8:	0005c503          	lbu	a0,0(a1)
   167dc:	0025c683          	lbu	a3,2(a1)
   167e0:	0035c783          	lbu	a5,3(a1)
   167e4:	00861613          	slli	a2,a2,0x8
   167e8:	00a66633          	or	a2,a2,a0
   167ec:	01069693          	slli	a3,a3,0x10
   167f0:	00c6e6b3          	or	a3,a3,a2
   167f4:	01879793          	slli	a5,a5,0x18
   167f8:	00d7e7b3          	or	a5,a5,a3
   167fc:	0157f7b3          	and	a5,a5,s5
   16800:	f99ff06f          	j	16798 <f_lseek+0x340>
   16804:	01c9a683          	lw	a3,28(s3)
   16808:	0289a783          	lw	a5,40(s3)
   1680c:	0084d613          	srli	a2,s1,0x8
   16810:	00d60633          	add	a2,a2,a3
   16814:	02c98593          	addi	a1,s3,44
   16818:	04f61663          	bne	a2,a5,16864 <f_lseek+0x40c>
   1681c:	00149793          	slli	a5,s1,0x1
   16820:	1fe7f793          	andi	a5,a5,510
   16824:	00f585b3          	add	a1,a1,a5
   16828:	0015c783          	lbu	a5,1(a1)
   1682c:	0005c683          	lbu	a3,0(a1)
   16830:	00879793          	slli	a5,a5,0x8
   16834:	00d7e7b3          	or	a5,a5,a3
   16838:	f61ff06f          	j	16798 <f_lseek+0x340>
   1683c:	00200b13          	li	s6,2
   16840:	0167a023          	sw	s6,0(a5)
   16844:	00c12783          	lw	a5,12(sp)
   16848:	1367e263          	bltu	a5,s6,1696c <f_lseek+0x514>
   1684c:	000a2023          	sw	zero,0(s4)
   16850:	c69ff06f          	j	164b8 <f_lseek+0x60>
   16854:	0047a703          	lw	a4,4(a5)
   16858:	00e68733          	add	a4,a3,a4
   1685c:	ffe70793          	addi	a5,a4,-2
   16860:	d15ff06f          	j	16574 <f_lseek+0x11c>
   16864:	0019c503          	lbu	a0,1(s3)
   16868:	00100693          	li	a3,1
   1686c:	00c12c23          	sw	a2,24(sp)
   16870:	00b12a23          	sw	a1,20(sp)
   16874:	0ad000ef          	jal	ra,17120 <disk_read>
   16878:	01412583          	lw	a1,20(sp)
   1687c:	01812603          	lw	a2,24(sp)
   16880:	00200893          	li	a7,2
   16884:	0a051863          	bnez	a0,16934 <f_lseek+0x4dc>
   16888:	02c9a423          	sw	a2,40(s3)
   1688c:	f91ff06f          	j	1681c <f_lseek+0x3c4>
   16890:	0019c503          	lbu	a0,1(s3)
   16894:	00100693          	li	a3,1
   16898:	00c12c23          	sw	a2,24(sp)
   1689c:	00b12a23          	sw	a1,20(sp)
   168a0:	081000ef          	jal	ra,17120 <disk_read>
   168a4:	08051863          	bnez	a0,16934 <f_lseek+0x4dc>
   168a8:	01812603          	lw	a2,24(sp)
   168ac:	01412583          	lw	a1,20(sp)
   168b0:	00200893          	li	a7,2
   168b4:	02c9a423          	sw	a2,40(s3)
   168b8:	f11ff06f          	j	167c8 <f_lseek+0x370>
   168bc:	0019c503          	lbu	a0,1(s3)
   168c0:	00100693          	li	a3,1
   168c4:	02c98593          	addi	a1,s3,44
   168c8:	00f12c23          	sw	a5,24(sp)
   168cc:	00c12a23          	sw	a2,20(sp)
   168d0:	051000ef          	jal	ra,17120 <disk_read>
   168d4:	01412603          	lw	a2,20(sp)
   168d8:	01812783          	lw	a5,24(sp)
   168dc:	00200893          	li	a7,2
   168e0:	04051a63          	bnez	a0,16934 <f_lseek+0x4dc>
   168e4:	01c9a583          	lw	a1,28(s3)
   168e8:	02c9a423          	sw	a2,40(s3)
   168ec:	00060693          	mv	a3,a2
   168f0:	e69ff06f          	j	16758 <f_lseek+0x300>
   168f4:	0019c503          	lbu	a0,1(s3)
   168f8:	00100693          	li	a3,1
   168fc:	02c98593          	addi	a1,s3,44
   16900:	00f12e23          	sw	a5,28(sp)
   16904:	00612c23          	sw	t1,24(sp)
   16908:	00c12a23          	sw	a2,20(sp)
   1690c:	015000ef          	jal	ra,17120 <disk_read>
   16910:	01412603          	lw	a2,20(sp)
   16914:	01812303          	lw	t1,24(sp)
   16918:	01c12783          	lw	a5,28(sp)
   1691c:	00200893          	li	a7,2
   16920:	00051a63          	bnez	a0,16934 <f_lseek+0x4dc>
   16924:	02c9a423          	sw	a2,40(s3)
   16928:	e4dff06f          	j	16774 <f_lseek+0x31c>
   1692c:	0046d793          	srli	a5,a3,0x4
   16930:	e69ff06f          	j	16798 <f_lseek+0x340>
   16934:	fff00793          	li	a5,-1
   16938:	02f9a423          	sw	a5,40(s3)
   1693c:	d7dff06f          	j	166b8 <f_lseek+0x260>
   16940:	00c12703          	lw	a4,12(sp)
   16944:	002b0b13          	addi	s6,s6,2
   16948:	03676663          	bltu	a4,s6,16974 <f_lseek+0x51c>
   1694c:	019a2023          	sw	s9,0(s4)
   16950:	01ba2223          	sw	s11,4(s4)
   16954:	010c2703          	lw	a4,16(s8)
   16958:	008a0a13          	addi	s4,s4,8
   1695c:	02e7f063          	bgeu	a5,a4,1697c <f_lseek+0x524>
   16960:	00042983          	lw	s3,0(s0)
   16964:	00078d93          	mv	s11,a5
   16968:	d95ff06f          	j	166fc <f_lseek+0x2a4>
   1696c:	01100913          	li	s2,17
   16970:	b49ff06f          	j	164b8 <f_lseek+0x60>
   16974:	010c2703          	lw	a4,16(s8)
   16978:	fee7e4e3          	bltu	a5,a4,16960 <f_lseek+0x508>
   1697c:	02042783          	lw	a5,32(s0)
   16980:	ec1ff06f          	j	16840 <f_lseek+0x3e8>
   16984:	013787b3          	add	a5,a5,s3
   16988:	00f42a23          	sw	a5,20(s0)
   1698c:	1ff9fa13          	andi	s4,s3,511
   16990:	c80a0ce3          	beqz	s4,16628 <f_lseek+0x1d0>
   16994:	010c2703          	lw	a4,16(s8)
   16998:	ffe58593          	addi	a1,a1,-2
   1699c:	ffe70713          	addi	a4,a4,-2
   169a0:	d6e5fee3          	bgeu	a1,a4,1671c <f_lseek+0x2c4>
   169a4:	00ac5a03          	lhu	s4,10(s8)
   169a8:	024c2703          	lw	a4,36(s8)
   169ac:	02ba05b3          	mul	a1,s4,a1
   169b0:	00e58a33          	add	s4,a1,a4
   169b4:	d60a04e3          	beqz	s4,1671c <f_lseek+0x2c4>
   169b8:	0099d993          	srli	s3,s3,0x9
   169bc:	01498a33          	add	s4,s3,s4
   169c0:	c69ff06f          	j	16628 <f_lseek+0x1d0>
   169c4:	00070793          	mv	a5,a4
   169c8:	fc1ff06f          	j	16988 <f_lseek+0x530>

000169cc <f_opendir>:
   169cc:	fd010113          	addi	sp,sp,-48
   169d0:	02112623          	sw	ra,44(sp)
   169d4:	02812423          	sw	s0,40(sp)
   169d8:	00b12623          	sw	a1,12(sp)
   169dc:	0a050e63          	beqz	a0,16a98 <f_opendir+0xcc>
   169e0:	00050413          	mv	s0,a0
   169e4:	01c10593          	addi	a1,sp,28
   169e8:	00c10513          	addi	a0,sp,12
   169ec:	e40fe0ef          	jal	ra,1502c <_ZL12mount_volumePPKcPP5FATFSh.constprop.0>
   169f0:	00050c63          	beqz	a0,16a08 <f_opendir+0x3c>
   169f4:	02c12083          	lw	ra,44(sp)
   169f8:	00042023          	sw	zero,0(s0)
   169fc:	02812403          	lw	s0,40(sp)
   16a00:	03010113          	addi	sp,sp,48
   16a04:	00008067          	ret
   16a08:	01c12783          	lw	a5,28(sp)
   16a0c:	00c12583          	lw	a1,12(sp)
   16a10:	00040513          	mv	a0,s0
   16a14:	00f42023          	sw	a5,0(s0)
   16a18:	f49fe0ef          	jal	ra,15960 <_ZL11follow_pathP3DIRPKc>
   16a1c:	06051663          	bnez	a0,16a88 <f_opendir+0xbc>
   16a20:	02b40783          	lb	a5,43(s0)
   16a24:	0a07c263          	bltz	a5,16ac8 <f_opendir+0xfc>
   16a28:	00644783          	lbu	a5,6(s0)
   16a2c:	0107f793          	andi	a5,a5,16
   16a30:	06078063          	beqz	a5,16a90 <f_opendir+0xc4>
   16a34:	01c42683          	lw	a3,28(s0)
   16a38:	01c12703          	lw	a4,28(sp)
   16a3c:	00300613          	li	a2,3
   16a40:	01b6c783          	lbu	a5,27(a3)
   16a44:	01a6c503          	lbu	a0,26(a3)
   16a48:	00074583          	lbu	a1,0(a4)
   16a4c:	00879793          	slli	a5,a5,0x8
   16a50:	00a7e7b3          	or	a5,a5,a0
   16a54:	04c58c63          	beq	a1,a2,16aac <f_opendir+0xe0>
   16a58:	00f42423          	sw	a5,8(s0)
   16a5c:	00675783          	lhu	a5,6(a4)
   16a60:	00040513          	mv	a0,s0
   16a64:	00f41223          	sh	a5,4(s0)
   16a68:	c29fe0ef          	jal	ra,15690 <_ZL7dir_sdiP3DIRm.constprop.0>
   16a6c:	00400793          	li	a5,4
   16a70:	02f50063          	beq	a0,a5,16a90 <f_opendir+0xc4>
   16a74:	f80510e3          	bnez	a0,169f4 <f_opendir+0x28>
   16a78:	02c12083          	lw	ra,44(sp)
   16a7c:	02812403          	lw	s0,40(sp)
   16a80:	03010113          	addi	sp,sp,48
   16a84:	00008067          	ret
   16a88:	00400793          	li	a5,4
   16a8c:	f6f514e3          	bne	a0,a5,169f4 <f_opendir+0x28>
   16a90:	00500513          	li	a0,5
   16a94:	f61ff06f          	j	169f4 <f_opendir+0x28>
   16a98:	02c12083          	lw	ra,44(sp)
   16a9c:	02812403          	lw	s0,40(sp)
   16aa0:	00900513          	li	a0,9
   16aa4:	03010113          	addi	sp,sp,48
   16aa8:	00008067          	ret
   16aac:	0156c603          	lbu	a2,21(a3)
   16ab0:	0146c583          	lbu	a1,20(a3)
   16ab4:	00861693          	slli	a3,a2,0x8
   16ab8:	00b6e6b3          	or	a3,a3,a1
   16abc:	01069693          	slli	a3,a3,0x10
   16ac0:	00d7e7b3          	or	a5,a5,a3
   16ac4:	f95ff06f          	j	16a58 <f_opendir+0x8c>
   16ac8:	01c12703          	lw	a4,28(sp)
   16acc:	f91ff06f          	j	16a5c <f_opendir+0x90>

00016ad0 <f_closedir>:
   16ad0:	06050463          	beqz	a0,16b38 <f_closedir+0x68>
   16ad4:	00052783          	lw	a5,0(a0)
   16ad8:	ff010113          	addi	sp,sp,-16
   16adc:	00812423          	sw	s0,8(sp)
   16ae0:	00112623          	sw	ra,12(sp)
   16ae4:	00050413          	mv	s0,a0
   16ae8:	00078c63          	beqz	a5,16b00 <f_closedir+0x30>
   16aec:	0007c703          	lbu	a4,0(a5)
   16af0:	00070863          	beqz	a4,16b00 <f_closedir+0x30>
   16af4:	00455683          	lhu	a3,4(a0)
   16af8:	0067d703          	lhu	a4,6(a5)
   16afc:	00e68c63          	beq	a3,a4,16b14 <f_closedir+0x44>
   16b00:	00c12083          	lw	ra,12(sp)
   16b04:	00812403          	lw	s0,8(sp)
   16b08:	00900513          	li	a0,9
   16b0c:	01010113          	addi	sp,sp,16
   16b10:	00008067          	ret
   16b14:	0017c503          	lbu	a0,1(a5)
   16b18:	5cc000ef          	jal	ra,170e4 <disk_status>
   16b1c:	00157513          	andi	a0,a0,1
   16b20:	fe0510e3          	bnez	a0,16b00 <f_closedir+0x30>
   16b24:	00c12083          	lw	ra,12(sp)
   16b28:	00042023          	sw	zero,0(s0)
   16b2c:	00812403          	lw	s0,8(sp)
   16b30:	01010113          	addi	sp,sp,16
   16b34:	00008067          	ret
   16b38:	00900513          	li	a0,9
   16b3c:	00008067          	ret

00016b40 <f_readdir>:
   16b40:	4e050a63          	beqz	a0,17034 <f_readdir+0x4f4>
   16b44:	00052783          	lw	a5,0(a0)
   16b48:	fc010113          	addi	sp,sp,-64
   16b4c:	02812c23          	sw	s0,56(sp)
   16b50:	02112e23          	sw	ra,60(sp)
   16b54:	02912a23          	sw	s1,52(sp)
   16b58:	03212823          	sw	s2,48(sp)
   16b5c:	03312623          	sw	s3,44(sp)
   16b60:	03412423          	sw	s4,40(sp)
   16b64:	03512223          	sw	s5,36(sp)
   16b68:	03612023          	sw	s6,32(sp)
   16b6c:	01712e23          	sw	s7,28(sp)
   16b70:	01812c23          	sw	s8,24(sp)
   16b74:	01912a23          	sw	s9,20(sp)
   16b78:	01a12823          	sw	s10,16(sp)
   16b7c:	01b12623          	sw	s11,12(sp)
   16b80:	00050413          	mv	s0,a0
   16b84:	00078c63          	beqz	a5,16b9c <f_readdir+0x5c>
   16b88:	0007c703          	lbu	a4,0(a5)
   16b8c:	00070863          	beqz	a4,16b9c <f_readdir+0x5c>
   16b90:	00455683          	lhu	a3,4(a0)
   16b94:	0067d703          	lhu	a4,6(a5)
   16b98:	04e68263          	beq	a3,a4,16bdc <f_readdir+0x9c>
   16b9c:	00900513          	li	a0,9
   16ba0:	03c12083          	lw	ra,60(sp)
   16ba4:	03812403          	lw	s0,56(sp)
   16ba8:	03412483          	lw	s1,52(sp)
   16bac:	03012903          	lw	s2,48(sp)
   16bb0:	02c12983          	lw	s3,44(sp)
   16bb4:	02812a03          	lw	s4,40(sp)
   16bb8:	02412a83          	lw	s5,36(sp)
   16bbc:	02012b03          	lw	s6,32(sp)
   16bc0:	01c12b83          	lw	s7,28(sp)
   16bc4:	01812c03          	lw	s8,24(sp)
   16bc8:	01412c83          	lw	s9,20(sp)
   16bcc:	01012d03          	lw	s10,16(sp)
   16bd0:	00c12d83          	lw	s11,12(sp)
   16bd4:	04010113          	addi	sp,sp,64
   16bd8:	00008067          	ret
   16bdc:	0017c503          	lbu	a0,1(a5)
   16be0:	00058913          	mv	s2,a1
   16be4:	500000ef          	jal	ra,170e4 <disk_status>
   16be8:	00157513          	andi	a0,a0,1
   16bec:	fa0518e3          	bnez	a0,16b9c <f_readdir+0x5c>
   16bf0:	44090663          	beqz	s2,1703c <f_readdir+0x4fc>
   16bf4:	01842d83          	lw	s11,24(s0)
   16bf8:	00042c83          	lw	s9,0(s0)
   16bfc:	080d8663          	beqz	s11,16c88 <f_readdir+0x148>
   16c00:	02cc8b93          	addi	s7,s9,44
   16c04:	0e500993          	li	s3,229
   16c08:	02e00a93          	li	s5,46
   16c0c:	00f00b13          	li	s6,15
   16c10:	00800c13          	li	s8,8
   16c14:	00200a37          	lui	s4,0x200
   16c18:	028ca783          	lw	a5,40(s9)
   16c1c:	03b78a63          	beq	a5,s11,16c50 <f_readdir+0x110>
   16c20:	001cc503          	lbu	a0,1(s9)
   16c24:	00100693          	li	a3,1
   16c28:	000d8613          	mv	a2,s11
   16c2c:	000b8593          	mv	a1,s7
   16c30:	4f0000ef          	jal	ra,17120 <disk_read>
   16c34:	00050c63          	beqz	a0,16c4c <f_readdir+0x10c>
   16c38:	fff00793          	li	a5,-1
   16c3c:	02fca423          	sw	a5,40(s9)
   16c40:	00042c23          	sw	zero,24(s0)
   16c44:	00100513          	li	a0,1
   16c48:	f59ff06f          	j	16ba0 <f_readdir+0x60>
   16c4c:	03bca423          	sw	s11,40(s9)
   16c50:	01c42783          	lw	a5,28(s0)
   16c54:	0007c703          	lbu	a4,0(a5)
   16c58:	02070863          	beqz	a4,16c88 <f_readdir+0x148>
   16c5c:	00b7c783          	lbu	a5,11(a5)
   16c60:	03f7f793          	andi	a5,a5,63
   16c64:	00f40323          	sb	a5,6(s0)
   16c68:	01370a63          	beq	a4,s3,16c7c <f_readdir+0x13c>
   16c6c:	01570863          	beq	a4,s5,16c7c <f_readdir+0x13c>
   16c70:	01678663          	beq	a5,s6,16c7c <f_readdir+0x13c>
   16c74:	fdf7f793          	andi	a5,a5,-33
   16c78:	01879a63          	bne	a5,s8,16c8c <f_readdir+0x14c>
   16c7c:	01042483          	lw	s1,16(s0)
   16c80:	02048493          	addi	s1,s1,32
   16c84:	2f44ec63          	bltu	s1,s4,16f7c <f_readdir+0x43c>
   16c88:	00042c23          	sw	zero,24(s0)
   16c8c:	000904a3          	sb	zero,9(s2) # 200009 <__BSS_END__+0x1da341>
   16c90:	01842783          	lw	a5,24(s0)
   16c94:	3e078463          	beqz	a5,1707c <f_readdir+0x53c>
   16c98:	01c42703          	lw	a4,28(s0)
   16c9c:	02000693          	li	a3,32
   16ca0:	00074783          	lbu	a5,0(a4)
   16ca4:	42d78863          	beq	a5,a3,170d4 <f_readdir+0x594>
   16ca8:	00500713          	li	a4,5
   16cac:	00e79463          	bne	a5,a4,16cb4 <f_readdir+0x174>
   16cb0:	0e500793          	li	a5,229
   16cb4:	00f904a3          	sb	a5,9(s2)
   16cb8:	01c42703          	lw	a4,28(s0)
   16cbc:	00100793          	li	a5,1
   16cc0:	00174683          	lbu	a3,1(a4)
   16cc4:	02000613          	li	a2,32
   16cc8:	02c68063          	beq	a3,a2,16ce8 <f_readdir+0x1a8>
   16ccc:	00500713          	li	a4,5
   16cd0:	00e69463          	bne	a3,a4,16cd8 <f_readdir+0x198>
   16cd4:	0e500693          	li	a3,229
   16cd8:	00f90733          	add	a4,s2,a5
   16cdc:	00d704a3          	sb	a3,9(a4)
   16ce0:	01c42703          	lw	a4,28(s0)
   16ce4:	00178793          	addi	a5,a5,1
   16ce8:	00274683          	lbu	a3,2(a4)
   16cec:	02000613          	li	a2,32
   16cf0:	02c68063          	beq	a3,a2,16d10 <f_readdir+0x1d0>
   16cf4:	00500713          	li	a4,5
   16cf8:	00e69463          	bne	a3,a4,16d00 <f_readdir+0x1c0>
   16cfc:	0e500693          	li	a3,229
   16d00:	00f90733          	add	a4,s2,a5
   16d04:	00d704a3          	sb	a3,9(a4)
   16d08:	01c42703          	lw	a4,28(s0)
   16d0c:	00178793          	addi	a5,a5,1
   16d10:	00374683          	lbu	a3,3(a4)
   16d14:	02000613          	li	a2,32
   16d18:	02c68063          	beq	a3,a2,16d38 <f_readdir+0x1f8>
   16d1c:	00500713          	li	a4,5
   16d20:	00e69463          	bne	a3,a4,16d28 <f_readdir+0x1e8>
   16d24:	0e500693          	li	a3,229
   16d28:	00f90733          	add	a4,s2,a5
   16d2c:	00d704a3          	sb	a3,9(a4)
   16d30:	01c42703          	lw	a4,28(s0)
   16d34:	00178793          	addi	a5,a5,1
   16d38:	00474683          	lbu	a3,4(a4)
   16d3c:	02000613          	li	a2,32
   16d40:	02c68063          	beq	a3,a2,16d60 <f_readdir+0x220>
   16d44:	00500713          	li	a4,5
   16d48:	00e69463          	bne	a3,a4,16d50 <f_readdir+0x210>
   16d4c:	0e500693          	li	a3,229
   16d50:	00f90733          	add	a4,s2,a5
   16d54:	00d704a3          	sb	a3,9(a4)
   16d58:	01c42703          	lw	a4,28(s0)
   16d5c:	00178793          	addi	a5,a5,1
   16d60:	00574683          	lbu	a3,5(a4)
   16d64:	02000613          	li	a2,32
   16d68:	02c68063          	beq	a3,a2,16d88 <f_readdir+0x248>
   16d6c:	00500713          	li	a4,5
   16d70:	00e69463          	bne	a3,a4,16d78 <f_readdir+0x238>
   16d74:	0e500693          	li	a3,229
   16d78:	00f90733          	add	a4,s2,a5
   16d7c:	00d704a3          	sb	a3,9(a4)
   16d80:	01c42703          	lw	a4,28(s0)
   16d84:	00178793          	addi	a5,a5,1
   16d88:	00674683          	lbu	a3,6(a4)
   16d8c:	02000613          	li	a2,32
   16d90:	02c68063          	beq	a3,a2,16db0 <f_readdir+0x270>
   16d94:	00500713          	li	a4,5
   16d98:	00e69463          	bne	a3,a4,16da0 <f_readdir+0x260>
   16d9c:	0e500693          	li	a3,229
   16da0:	00f90733          	add	a4,s2,a5
   16da4:	00d704a3          	sb	a3,9(a4)
   16da8:	01c42703          	lw	a4,28(s0)
   16dac:	00178793          	addi	a5,a5,1
   16db0:	00774683          	lbu	a3,7(a4)
   16db4:	02000613          	li	a2,32
   16db8:	02c68063          	beq	a3,a2,16dd8 <f_readdir+0x298>
   16dbc:	00500713          	li	a4,5
   16dc0:	00e69463          	bne	a3,a4,16dc8 <f_readdir+0x288>
   16dc4:	0e500693          	li	a3,229
   16dc8:	00f90733          	add	a4,s2,a5
   16dcc:	00d704a3          	sb	a3,9(a4)
   16dd0:	01c42703          	lw	a4,28(s0)
   16dd4:	00178793          	addi	a5,a5,1
   16dd8:	00874683          	lbu	a3,8(a4)
   16ddc:	02000613          	li	a2,32
   16de0:	02c68863          	beq	a3,a2,16e10 <f_readdir+0x2d0>
   16de4:	00500713          	li	a4,5
   16de8:	00e69463          	bne	a3,a4,16df0 <f_readdir+0x2b0>
   16dec:	0e500693          	li	a3,229
   16df0:	00178713          	addi	a4,a5,1
   16df4:	00f90633          	add	a2,s2,a5
   16df8:	02e00593          	li	a1,46
   16dfc:	00b604a3          	sb	a1,9(a2)
   16e00:	00e90733          	add	a4,s2,a4
   16e04:	00d704a3          	sb	a3,9(a4)
   16e08:	01c42703          	lw	a4,28(s0)
   16e0c:	00278793          	addi	a5,a5,2
   16e10:	00974683          	lbu	a3,9(a4)
   16e14:	02000613          	li	a2,32
   16e18:	02c68063          	beq	a3,a2,16e38 <f_readdir+0x2f8>
   16e1c:	00500713          	li	a4,5
   16e20:	00e69463          	bne	a3,a4,16e28 <f_readdir+0x2e8>
   16e24:	0e500693          	li	a3,229
   16e28:	00f90733          	add	a4,s2,a5
   16e2c:	00d704a3          	sb	a3,9(a4)
   16e30:	01c42703          	lw	a4,28(s0)
   16e34:	00178793          	addi	a5,a5,1
   16e38:	00a74703          	lbu	a4,10(a4)
   16e3c:	02000693          	li	a3,32
   16e40:	00d70e63          	beq	a4,a3,16e5c <f_readdir+0x31c>
   16e44:	00500693          	li	a3,5
   16e48:	00d71463          	bne	a4,a3,16e50 <f_readdir+0x310>
   16e4c:	0e500713          	li	a4,229
   16e50:	00f906b3          	add	a3,s2,a5
   16e54:	00e684a3          	sb	a4,9(a3)
   16e58:	00178793          	addi	a5,a5,1
   16e5c:	00f907b3          	add	a5,s2,a5
   16e60:	000784a3          	sb	zero,9(a5)
   16e64:	01c42783          	lw	a5,28(s0)
   16e68:	002005b7          	lui	a1,0x200
   16e6c:	00b7c783          	lbu	a5,11(a5)
   16e70:	03f7f793          	andi	a5,a5,63
   16e74:	00f90423          	sb	a5,8(s2)
   16e78:	01c42783          	lw	a5,28(s0)
   16e7c:	00042483          	lw	s1,0(s0)
   16e80:	01d7c603          	lbu	a2,29(a5)
   16e84:	01c7c503          	lbu	a0,28(a5)
   16e88:	01e7c683          	lbu	a3,30(a5)
   16e8c:	01f7c703          	lbu	a4,31(a5)
   16e90:	00861613          	slli	a2,a2,0x8
   16e94:	00a66633          	or	a2,a2,a0
   16e98:	01069693          	slli	a3,a3,0x10
   16e9c:	00c6e6b3          	or	a3,a3,a2
   16ea0:	01871713          	slli	a4,a4,0x18
   16ea4:	00d76733          	or	a4,a4,a3
   16ea8:	00e92023          	sw	a4,0(s2)
   16eac:	0177c703          	lbu	a4,23(a5)
   16eb0:	0167c683          	lbu	a3,22(a5)
   16eb4:	01042983          	lw	s3,16(s0)
   16eb8:	00871713          	slli	a4,a4,0x8
   16ebc:	00d76733          	or	a4,a4,a3
   16ec0:	00e91323          	sh	a4,6(s2)
   16ec4:	0197c703          	lbu	a4,25(a5)
   16ec8:	0187c683          	lbu	a3,24(a5)
   16ecc:	02098993          	addi	s3,s3,32
   16ed0:	00871793          	slli	a5,a4,0x8
   16ed4:	00d7e7b3          	or	a5,a5,a3
   16ed8:	00f91223          	sh	a5,4(s2)
   16edc:	1ab9f863          	bgeu	s3,a1,1708c <f_readdir+0x54c>
   16ee0:	01842783          	lw	a5,24(s0)
   16ee4:	08078863          	beqz	a5,16f74 <f_readdir+0x434>
   16ee8:	1ff9f913          	andi	s2,s3,511
   16eec:	06091c63          	bnez	s2,16f64 <f_readdir+0x424>
   16ef0:	01442583          	lw	a1,20(s0)
   16ef4:	00178793          	addi	a5,a5,1
   16ef8:	00f42c23          	sw	a5,24(s0)
   16efc:	18058e63          	beqz	a1,17098 <f_readdir+0x558>
   16f00:	00a4d783          	lhu	a5,10(s1)
   16f04:	0099da13          	srli	s4,s3,0x9
   16f08:	fff78793          	addi	a5,a5,-1
   16f0c:	0147fa33          	and	s4,a5,s4
   16f10:	040a1a63          	bnez	s4,16f64 <f_readdir+0x424>
   16f14:	00048513          	mv	a0,s1
   16f18:	d70fe0ef          	jal	ra,15488 <_ZL7get_fatP7FFOBJIDm.isra.0>
   16f1c:	00100713          	li	a4,1
   16f20:	00050793          	mv	a5,a0
   16f24:	1aa77c63          	bgeu	a4,a0,170dc <f_readdir+0x59c>
   16f28:	fff00713          	li	a4,-1
   16f2c:	00100513          	li	a0,1
   16f30:	c6e788e3          	beq	a5,a4,16ba0 <f_readdir+0x60>
   16f34:	0104a703          	lw	a4,16(s1)
   16f38:	14e7fa63          	bgeu	a5,a4,1708c <f_readdir+0x54c>
   16f3c:	00f42a23          	sw	a5,20(s0)
   16f40:	0104a703          	lw	a4,16(s1)
   16f44:	ffe78793          	addi	a5,a5,-2
   16f48:	ffe70713          	addi	a4,a4,-2
   16f4c:	00e7fa63          	bgeu	a5,a4,16f60 <f_readdir+0x420>
   16f50:	00a4da03          	lhu	s4,10(s1)
   16f54:	0244a703          	lw	a4,36(s1)
   16f58:	02fa0a33          	mul	s4,s4,a5
   16f5c:	00ea0a33          	add	s4,s4,a4
   16f60:	01442c23          	sw	s4,24(s0)
   16f64:	02c48493          	addi	s1,s1,44
   16f68:	012484b3          	add	s1,s1,s2
   16f6c:	01342823          	sw	s3,16(s0)
   16f70:	00942e23          	sw	s1,28(s0)
   16f74:	00000513          	li	a0,0
   16f78:	c29ff06f          	j	16ba0 <f_readdir+0x60>
   16f7c:	01842d83          	lw	s11,24(s0)
   16f80:	d00d84e3          	beqz	s11,16c88 <f_readdir+0x148>
   16f84:	1ff4f793          	andi	a5,s1,511
   16f88:	00042d03          	lw	s10,0(s0)
   16f8c:	02079a63          	bnez	a5,16fc0 <f_readdir+0x480>
   16f90:	01442583          	lw	a1,20(s0)
   16f94:	001d8d93          	addi	s11,s11,1
   16f98:	01b42c23          	sw	s11,24(s0)
   16f9c:	02059c63          	bnez	a1,16fd4 <f_readdir+0x494>
   16fa0:	008d5783          	lhu	a5,8(s10)
   16fa4:	0054d713          	srli	a4,s1,0x5
   16fa8:	cef770e3          	bgeu	a4,a5,16c88 <f_readdir+0x148>
   16fac:	02cd0d13          	addi	s10,s10,44
   16fb0:	00942823          	sw	s1,16(s0)
   16fb4:	01a42e23          	sw	s10,28(s0)
   16fb8:	c60d90e3          	bnez	s11,16c18 <f_readdir+0xd8>
   16fbc:	cd1ff06f          	j	16c8c <f_readdir+0x14c>
   16fc0:	02cd0d13          	addi	s10,s10,44
   16fc4:	00fd07b3          	add	a5,s10,a5
   16fc8:	00942823          	sw	s1,16(s0)
   16fcc:	00f42e23          	sw	a5,28(s0)
   16fd0:	c49ff06f          	j	16c18 <f_readdir+0xd8>
   16fd4:	00ad5703          	lhu	a4,10(s10)
   16fd8:	0094d793          	srli	a5,s1,0x9
   16fdc:	fff70713          	addi	a4,a4,-1
   16fe0:	00f777b3          	and	a5,a4,a5
   16fe4:	fc0794e3          	bnez	a5,16fac <f_readdir+0x46c>
   16fe8:	000d0513          	mv	a0,s10
   16fec:	c9cfe0ef          	jal	ra,15488 <_ZL7get_fatP7FFOBJIDm.isra.0>
   16ff0:	00100793          	li	a5,1
   16ff4:	0ca7fa63          	bgeu	a5,a0,170c8 <f_readdir+0x588>
   16ff8:	fff00793          	li	a5,-1
   16ffc:	0cf50063          	beq	a0,a5,170bc <f_readdir+0x57c>
   17000:	010d2783          	lw	a5,16(s10)
   17004:	c8f572e3          	bgeu	a0,a5,16c88 <f_readdir+0x148>
   17008:	00a42a23          	sw	a0,20(s0)
   1700c:	010d2783          	lw	a5,16(s10)
   17010:	ffe50513          	addi	a0,a0,-2
   17014:	ffe78793          	addi	a5,a5,-2
   17018:	08f57863          	bgeu	a0,a5,170a8 <f_readdir+0x568>
   1701c:	00ad5d83          	lhu	s11,10(s10)
   17020:	024d2603          	lw	a2,36(s10)
   17024:	02ad8533          	mul	a0,s11,a0
   17028:	00c50db3          	add	s11,a0,a2
   1702c:	01b42c23          	sw	s11,24(s0)
   17030:	f7dff06f          	j	16fac <f_readdir+0x46c>
   17034:	00900513          	li	a0,9
   17038:	00008067          	ret
   1703c:	00040513          	mv	a0,s0
   17040:	03812403          	lw	s0,56(sp)
   17044:	03c12083          	lw	ra,60(sp)
   17048:	03412483          	lw	s1,52(sp)
   1704c:	03012903          	lw	s2,48(sp)
   17050:	02c12983          	lw	s3,44(sp)
   17054:	02812a03          	lw	s4,40(sp)
   17058:	02412a83          	lw	s5,36(sp)
   1705c:	02012b03          	lw	s6,32(sp)
   17060:	01c12b83          	lw	s7,28(sp)
   17064:	01812c03          	lw	s8,24(sp)
   17068:	01412c83          	lw	s9,20(sp)
   1706c:	01012d03          	lw	s10,16(sp)
   17070:	00c12d83          	lw	s11,12(sp)
   17074:	04010113          	addi	sp,sp,64
   17078:	e18fe06f          	j	15690 <_ZL7dir_sdiP3DIRm.constprop.0>
   1707c:	01042783          	lw	a5,16(s0)
   17080:	00200737          	lui	a4,0x200
   17084:	02078793          	addi	a5,a5,32
   17088:	eee7e6e3          	bltu	a5,a4,16f74 <f_readdir+0x434>
   1708c:	00042c23          	sw	zero,24(s0)
   17090:	00000513          	li	a0,0
   17094:	b0dff06f          	j	16ba0 <f_readdir+0x60>
   17098:	0084d783          	lhu	a5,8(s1)
   1709c:	0059d713          	srli	a4,s3,0x5
   170a0:	ecf762e3          	bltu	a4,a5,16f64 <f_readdir+0x424>
   170a4:	fe9ff06f          	j	1708c <f_readdir+0x54c>
   170a8:	02cd0d13          	addi	s10,s10,44
   170ac:	00042c23          	sw	zero,24(s0)
   170b0:	00942823          	sw	s1,16(s0)
   170b4:	01a42e23          	sw	s10,28(s0)
   170b8:	bd5ff06f          	j	16c8c <f_readdir+0x14c>
   170bc:	00100513          	li	a0,1
   170c0:	00042c23          	sw	zero,24(s0)
   170c4:	addff06f          	j	16ba0 <f_readdir+0x60>
   170c8:	00200513          	li	a0,2
   170cc:	00042c23          	sw	zero,24(s0)
   170d0:	ad1ff06f          	j	16ba0 <f_readdir+0x60>
   170d4:	00000793          	li	a5,0
   170d8:	be9ff06f          	j	16cc0 <f_readdir+0x180>
   170dc:	00200513          	li	a0,2
   170e0:	ac1ff06f          	j	16ba0 <f_readdir+0x60>

000170e4 <disk_status>:
   170e4:	fff50513          	addi	a0,a0,-1
   170e8:	00a03533          	snez	a0,a0
   170ec:	00008067          	ret

000170f0 <disk_initialize>:
   170f0:	00100793          	li	a5,1
   170f4:	00f50663          	beq	a0,a5,17100 <disk_initialize+0x10>
   170f8:	00100513          	li	a0,1
   170fc:	00008067          	ret
   17100:	ff010113          	addi	sp,sp,-16
   17104:	00112623          	sw	ra,12(sp)
   17108:	badfd0ef          	jal	ra,14cb4 <_Z13SDCardStartupv>
   1710c:	00c12083          	lw	ra,12(sp)
   17110:	00150513          	addi	a0,a0,1
   17114:	00153513          	seqz	a0,a0
   17118:	01010113          	addi	sp,sp,16
   1711c:	00008067          	ret

00017120 <disk_read>:
   17120:	00100713          	li	a4,1
   17124:	00e50a63          	beq	a0,a4,17138 <disk_read+0x18>
   17128:	0fd57513          	andi	a0,a0,253
   1712c:	00a03533          	snez	a0,a0
   17130:	00350513          	addi	a0,a0,3
   17134:	00008067          	ret
   17138:	ff010113          	addi	sp,sp,-16
   1713c:	00058513          	mv	a0,a1
   17140:	00068593          	mv	a1,a3
   17144:	00112623          	sw	ra,12(sp)
   17148:	ab9fd0ef          	jal	ra,14c00 <_Z20SDReadMultipleBlocksPhmm>
   1714c:	00c12083          	lw	ra,12(sp)
   17150:	00150513          	addi	a0,a0,1
   17154:	00153513          	seqz	a0,a0
   17158:	01010113          	addi	sp,sp,16
   1715c:	00008067          	ret

00017160 <_Z12ClearConsolev>:
   17160:	30000613          	li	a2,768
   17164:	02000593          	li	a1,32
   17168:	0000f517          	auipc	a0,0xf
   1716c:	85850513          	addi	a0,a0,-1960 # 259c0 <_ZL11consoleText>
   17170:	0000f797          	auipc	a5,0xf
   17174:	b407a823          	sw	zero,-1200(a5) # 25cc0 <_ZL7cursorx>
   17178:	0000f797          	auipc	a5,0xf
   1717c:	b407a623          	sw	zero,-1204(a5) # 25cc4 <_ZL7cursory>
   17180:	61d0106f          	j	18f9c <memset>

00017184 <_Z15ClearConsoleRowv>:
   17184:	0000f797          	auipc	a5,0xf
   17188:	b407a783          	lw	a5,-1216(a5) # 25cc4 <_ZL7cursory>
   1718c:	00579793          	slli	a5,a5,0x5
   17190:	0000f517          	auipc	a0,0xf
   17194:	83050513          	addi	a0,a0,-2000 # 259c0 <_ZL11consoleText>
   17198:	02000613          	li	a2,32
   1719c:	02000593          	li	a1,32
   171a0:	00f50533          	add	a0,a0,a5
   171a4:	5f90106f          	j	18f9c <memset>

000171a8 <_Z16SetConsoleCursorii>:
   171a8:	fff54793          	not	a5,a0
   171ac:	41f7d793          	srai	a5,a5,0x1f
   171b0:	00f57533          	and	a0,a0,a5
   171b4:	01f00793          	li	a5,31
   171b8:	00a7d463          	bge	a5,a0,171c0 <_Z16SetConsoleCursorii+0x18>
   171bc:	01f00513          	li	a0,31
   171c0:	fff5c793          	not	a5,a1
   171c4:	41f7d793          	srai	a5,a5,0x1f
   171c8:	00f5f5b3          	and	a1,a1,a5
   171cc:	0000f717          	auipc	a4,0xf
   171d0:	aea72a23          	sw	a0,-1292(a4) # 25cc0 <_ZL7cursorx>
   171d4:	01700793          	li	a5,23
   171d8:	00b7d463          	bge	a5,a1,171e0 <_Z16SetConsoleCursorii+0x38>
   171dc:	01700593          	li	a1,23
   171e0:	0000f797          	auipc	a5,0xf
   171e4:	aeb7a223          	sw	a1,-1308(a5) # 25cc4 <_ZL7cursory>
   171e8:	00008067          	ret

000171ec <_Z13ScrollConsolev>:
   171ec:	ff010113          	addi	sp,sp,-16
   171f0:	00112623          	sw	ra,12(sp)
   171f4:	0000e797          	auipc	a5,0xe
   171f8:	7cc78793          	addi	a5,a5,1996 # 259c0 <_ZL11consoleText>
   171fc:	0000fe17          	auipc	t3,0xf
   17200:	aa4e0e13          	addi	t3,t3,-1372 # 25ca0 <_ZL11consoleText+0x2e0>
   17204:	0207a303          	lw	t1,32(a5)
   17208:	0247a883          	lw	a7,36(a5)
   1720c:	0287a803          	lw	a6,40(a5)
   17210:	02c7a503          	lw	a0,44(a5)
   17214:	0307a583          	lw	a1,48(a5)
   17218:	0347a603          	lw	a2,52(a5)
   1721c:	0387a683          	lw	a3,56(a5)
   17220:	03c7a703          	lw	a4,60(a5)
   17224:	0067a023          	sw	t1,0(a5)
   17228:	0117a223          	sw	a7,4(a5)
   1722c:	0107a423          	sw	a6,8(a5)
   17230:	00a7a623          	sw	a0,12(a5)
   17234:	00b7a823          	sw	a1,16(a5)
   17238:	00c7aa23          	sw	a2,20(a5)
   1723c:	00d7ac23          	sw	a3,24(a5)
   17240:	00e7ae23          	sw	a4,28(a5)
   17244:	02078793          	addi	a5,a5,32
   17248:	fafe1ee3          	bne	t3,a5,17204 <_Z13ScrollConsolev+0x18>
   1724c:	01700593          	li	a1,23
   17250:	0000f517          	auipc	a0,0xf
   17254:	a7052503          	lw	a0,-1424(a0) # 25cc0 <_ZL7cursorx>
   17258:	f51ff0ef          	jal	ra,171a8 <_Z16SetConsoleCursorii>
   1725c:	00c12083          	lw	ra,12(sp)
   17260:	01010113          	addi	sp,sp,16
   17264:	f21ff06f          	j	17184 <_Z15ClearConsoleRowv>

00017268 <_Z16GetConsoleCursorRiS_>:
   17268:	0000f797          	auipc	a5,0xf
   1726c:	a587a783          	lw	a5,-1448(a5) # 25cc0 <_ZL7cursorx>
   17270:	00f52023          	sw	a5,0(a0)
   17274:	0000f797          	auipc	a5,0xf
   17278:	a507a783          	lw	a5,-1456(a5) # 25cc4 <_ZL7cursory>
   1727c:	00f5a023          	sw	a5,0(a1) # 200000 <__BSS_END__+0x1da338>
   17280:	00008067          	ret

00017284 <_Z21ConsoleCursorStepBackv>:
   17284:	0000f717          	auipc	a4,0xf
   17288:	a3c70713          	addi	a4,a4,-1476 # 25cc0 <_ZL7cursorx>
   1728c:	00072783          	lw	a5,0(a4)
   17290:	0000f617          	auipc	a2,0xf
   17294:	a3460613          	addi	a2,a2,-1484 # 25cc4 <_ZL7cursory>
   17298:	00062683          	lw	a3,0(a2)
   1729c:	fff78793          	addi	a5,a5,-1
   172a0:	00f72023          	sw	a5,0(a4)
   172a4:	0207c063          	bltz	a5,172c4 <_Z21ConsoleCursorStepBackv+0x40>
   172a8:	0006c463          	bltz	a3,172b0 <_Z21ConsoleCursorStepBackv+0x2c>
   172ac:	00008067          	ret
   172b0:	0000f797          	auipc	a5,0xf
   172b4:	a007a823          	sw	zero,-1520(a5) # 25cc0 <_ZL7cursorx>
   172b8:	0000f797          	auipc	a5,0xf
   172bc:	a007a623          	sw	zero,-1524(a5) # 25cc4 <_ZL7cursory>
   172c0:	00008067          	ret
   172c4:	fff68693          	addi	a3,a3,-1
   172c8:	01f00793          	li	a5,31
   172cc:	00f72023          	sw	a5,0(a4)
   172d0:	00d62023          	sw	a3,0(a2)
   172d4:	fc06dce3          	bgez	a3,172ac <_Z21ConsoleCursorStepBackv+0x28>
   172d8:	fd9ff06f          	j	172b0 <_Z21ConsoleCursorStepBackv+0x2c>

000172dc <_Z11EchoConsolePKc>:
   172dc:	00054703          	lbu	a4,0(a0)
   172e0:	10070663          	beqz	a4,173ec <_Z11EchoConsolePKc+0x110>
   172e4:	fd010113          	addi	sp,sp,-48
   172e8:	02812423          	sw	s0,40(sp)
   172ec:	02912223          	sw	s1,36(sp)
   172f0:	03212023          	sw	s2,32(sp)
   172f4:	01312e23          	sw	s3,28(sp)
   172f8:	01412c23          	sw	s4,24(sp)
   172fc:	01512a23          	sw	s5,20(sp)
   17300:	01612823          	sw	s6,16(sp)
   17304:	01712623          	sw	s7,12(sp)
   17308:	02112623          	sw	ra,44(sp)
   1730c:	00050413          	mv	s0,a0
   17310:	0000f497          	auipc	s1,0xf
   17314:	9b448493          	addi	s1,s1,-1612 # 25cc4 <_ZL7cursory>
   17318:	00d00a13          	li	s4,13
   1731c:	0000f997          	auipc	s3,0xf
   17320:	9a498993          	addi	s3,s3,-1628 # 25cc0 <_ZL7cursorx>
   17324:	00a00b93          	li	s7,10
   17328:	01f00b13          	li	s6,31
   1732c:	0000ea97          	auipc	s5,0xe
   17330:	694a8a93          	addi	s5,s5,1684 # 259c0 <_ZL11consoleText>
   17334:	01700913          	li	s2,23
   17338:	0004a783          	lw	a5,0(s1)
   1733c:	09470c63          	beq	a4,s4,173d4 <_Z11EchoConsolePKc+0xf8>
   17340:	0009a683          	lw	a3,0(s3)
   17344:	09770e63          	beq	a4,s7,173e0 <_Z11EchoConsolePKc+0x104>
   17348:	00579613          	slli	a2,a5,0x5
   1734c:	00ca8633          	add	a2,s5,a2
   17350:	00d60633          	add	a2,a2,a3
   17354:	00168693          	addi	a3,a3,1
   17358:	00e60023          	sb	a4,0(a2)
   1735c:	00d9a023          	sw	a3,0(s3)
   17360:	00db5a63          	bge	s6,a3,17374 <_Z11EchoConsolePKc+0x98>
   17364:	00178793          	addi	a5,a5,1
   17368:	0000f717          	auipc	a4,0xf
   1736c:	94072c23          	sw	zero,-1704(a4) # 25cc0 <_ZL7cursorx>
   17370:	00f4a023          	sw	a5,0(s1)
   17374:	02f94e63          	blt	s2,a5,173b0 <_Z11EchoConsolePKc+0xd4>
   17378:	00144703          	lbu	a4,1(s0)
   1737c:	00140413          	addi	s0,s0,1
   17380:	fa071ce3          	bnez	a4,17338 <_Z11EchoConsolePKc+0x5c>
   17384:	02c12083          	lw	ra,44(sp)
   17388:	02812403          	lw	s0,40(sp)
   1738c:	02412483          	lw	s1,36(sp)
   17390:	02012903          	lw	s2,32(sp)
   17394:	01c12983          	lw	s3,28(sp)
   17398:	01812a03          	lw	s4,24(sp)
   1739c:	01412a83          	lw	s5,20(sp)
   173a0:	01012b03          	lw	s6,16(sp)
   173a4:	00c12b83          	lw	s7,12(sp)
   173a8:	03010113          	addi	sp,sp,48
   173ac:	00008067          	ret
   173b0:	00140413          	addi	s0,s0,1
   173b4:	0124a023          	sw	s2,0(s1)
   173b8:	0000f797          	auipc	a5,0xf
   173bc:	9007a423          	sw	zero,-1784(a5) # 25cc0 <_ZL7cursorx>
   173c0:	e2dff0ef          	jal	ra,171ec <_Z13ScrollConsolev>
   173c4:	00044703          	lbu	a4,0(s0)
   173c8:	fa070ee3          	beqz	a4,17384 <_Z11EchoConsolePKc+0xa8>
   173cc:	0004a783          	lw	a5,0(s1)
   173d0:	f74718e3          	bne	a4,s4,17340 <_Z11EchoConsolePKc+0x64>
   173d4:	0000f717          	auipc	a4,0xf
   173d8:	8e072623          	sw	zero,-1812(a4) # 25cc0 <_ZL7cursorx>
   173dc:	f99ff06f          	j	17374 <_Z11EchoConsolePKc+0x98>
   173e0:	00178793          	addi	a5,a5,1
   173e4:	00f4a023          	sw	a5,0(s1)
   173e8:	f79ff06f          	j	17360 <_Z11EchoConsolePKc+0x84>
   173ec:	00008067          	ret

000173f0 <_Z11EchoConsolel>:
   173f0:	00005797          	auipc	a5,0x5
   173f4:	88078793          	addi	a5,a5,-1920 # 1bc70 <_ZL9hexdigits+0x28>
   173f8:	00004717          	auipc	a4,0x4
   173fc:	69470713          	addi	a4,a4,1684 # 1ba8c <_conv_stat+0x8e0>
   17400:	0047a603          	lw	a2,4(a5)
   17404:	00072e03          	lw	t3,0(a4)
   17408:	00472303          	lw	t1,4(a4)
   1740c:	00875883          	lhu	a7,8(a4)
   17410:	00a74803          	lbu	a6,10(a4)
   17414:	0007a583          	lw	a1,0(a5)
   17418:	0087a683          	lw	a3,8(a5)
   1741c:	00c7a703          	lw	a4,12(a5)
   17420:	0107a783          	lw	a5,16(a5)
   17424:	fd010113          	addi	sp,sp,-48
   17428:	00c12823          	sw	a2,16(sp)
   1742c:	00f12e23          	sw	a5,28(sp)
   17430:	02112623          	sw	ra,44(sp)
   17434:	01c12023          	sw	t3,0(sp)
   17438:	00612223          	sw	t1,4(sp)
   1743c:	01111423          	sh	a7,8(sp)
   17440:	01010523          	sb	a6,10(sp)
   17444:	00b12623          	sw	a1,12(sp)
   17448:	00d12a23          	sw	a3,20(sp)
   1744c:	00e12c23          	sw	a4,24(sp)
   17450:	02d00613          	li	a2,45
   17454:	00100793          	li	a5,1
   17458:	00054663          	bltz	a0,17464 <_Z11EchoConsolel+0x74>
   1745c:	02000613          	li	a2,32
   17460:	00000793          	li	a5,0
   17464:	3b9ad737          	lui	a4,0x3b9ad
   17468:	a0070693          	addi	a3,a4,-1536 # 3b9aca00 <__BSS_END__+0x3b986d38>
   1746c:	02d546b3          	div	a3,a0,a3
   17470:	9ff70713          	addi	a4,a4,-1537
   17474:	00c10623          	sb	a2,12(sp)
   17478:	77359637          	lui	a2,0x77359
   1747c:	00e50733          	add	a4,a0,a4
   17480:	3fe60613          	addi	a2,a2,1022 # 773593fe <__BSS_END__+0x77333736>
   17484:	41f6d593          	srai	a1,a3,0x1f
   17488:	00d5c6b3          	xor	a3,a1,a3
   1748c:	40b686b3          	sub	a3,a3,a1
   17490:	12e66c63          	bltu	a2,a4,175c8 <_Z11EchoConsolel+0x1d8>
   17494:	05f5e737          	lui	a4,0x5f5e
   17498:	10070713          	addi	a4,a4,256 # 5f5e100 <__BSS_END__+0x5f38438>
   1749c:	02e54733          	div	a4,a0,a4
   174a0:	00a00613          	li	a2,10
   174a4:	41f75593          	srai	a1,a4,0x1f
   174a8:	00e5c6b3          	xor	a3,a1,a4
   174ac:	40b686b3          	sub	a3,a3,a1
   174b0:	02c6e6b3          	rem	a3,a3,a2
   174b4:	14069863          	bnez	a3,17604 <_Z11EchoConsolel+0x214>
   174b8:	00989737          	lui	a4,0x989
   174bc:	68070713          	addi	a4,a4,1664 # 989680 <__BSS_END__+0x9639b8>
   174c0:	02e54733          	div	a4,a0,a4
   174c4:	41f75593          	srai	a1,a4,0x1f
   174c8:	00e5c6b3          	xor	a3,a1,a4
   174cc:	40b686b3          	sub	a3,a3,a1
   174d0:	02c6e6b3          	rem	a3,a3,a2
   174d4:	16069663          	bnez	a3,17640 <_Z11EchoConsolel+0x250>
   174d8:	000f4737          	lui	a4,0xf4
   174dc:	24070713          	addi	a4,a4,576 # f4240 <__BSS_END__+0xce578>
   174e0:	02e54733          	div	a4,a0,a4
   174e4:	41f75593          	srai	a1,a4,0x1f
   174e8:	00e5c6b3          	xor	a3,a1,a4
   174ec:	40b686b3          	sub	a3,a3,a1
   174f0:	02c6e6b3          	rem	a3,a3,a2
   174f4:	18069463          	bnez	a3,1767c <_Z11EchoConsolel+0x28c>
   174f8:	00018737          	lui	a4,0x18
   174fc:	6a070713          	addi	a4,a4,1696 # 186a0 <_fopen_r+0xb8>
   17500:	02e54733          	div	a4,a0,a4
   17504:	41f75593          	srai	a1,a4,0x1f
   17508:	00e5c6b3          	xor	a3,a1,a4
   1750c:	40b686b3          	sub	a3,a3,a1
   17510:	02c6e6b3          	rem	a3,a3,a2
   17514:	1a069263          	bnez	a3,176b8 <_Z11EchoConsolel+0x2c8>
   17518:	00002737          	lui	a4,0x2
   1751c:	71070713          	addi	a4,a4,1808 # 2710 <exit-0xd964>
   17520:	02e54733          	div	a4,a0,a4
   17524:	41f75693          	srai	a3,a4,0x1f
   17528:	00e6c733          	xor	a4,a3,a4
   1752c:	40d70733          	sub	a4,a4,a3
   17530:	02c76733          	rem	a4,a4,a2
   17534:	1c071063          	bnez	a4,176f4 <_Z11EchoConsolel+0x304>
   17538:	3e800713          	li	a4,1000
   1753c:	02e54733          	div	a4,a0,a4
   17540:	41f75593          	srai	a1,a4,0x1f
   17544:	00e5c6b3          	xor	a3,a1,a4
   17548:	40b686b3          	sub	a3,a3,a1
   1754c:	02c6e6b3          	rem	a3,a3,a2
   17550:	1c069e63          	bnez	a3,1772c <_Z11EchoConsolel+0x33c>
   17554:	06400713          	li	a4,100
   17558:	02e54733          	div	a4,a0,a4
   1755c:	41f75693          	srai	a3,a4,0x1f
   17560:	00e6c733          	xor	a4,a3,a4
   17564:	40d70733          	sub	a4,a4,a3
   17568:	02c76733          	rem	a4,a4,a2
   1756c:	1e071c63          	bnez	a4,17764 <_Z11EchoConsolel+0x374>
   17570:	02c54733          	div	a4,a0,a2
   17574:	41f75693          	srai	a3,a4,0x1f
   17578:	00e6c733          	xor	a4,a3,a4
   1757c:	40d70733          	sub	a4,a4,a3
   17580:	02c76633          	rem	a2,a4,a2
   17584:	20061a63          	bnez	a2,17798 <_Z11EchoConsolel+0x3a8>
   17588:	41f55693          	srai	a3,a0,0x1f
   1758c:	00a6c733          	xor	a4,a3,a0
   17590:	40d70733          	sub	a4,a4,a3
   17594:	00a00513          	li	a0,10
   17598:	02a76733          	rem	a4,a4,a0
   1759c:	02010693          	addi	a3,sp,32
   175a0:	00f687b3          	add	a5,a3,a5
   175a4:	00c10513          	addi	a0,sp,12
   175a8:	fe0786a3          	sb	zero,-19(a5)
   175ac:	00e68733          	add	a4,a3,a4
   175b0:	fe074703          	lbu	a4,-32(a4)
   175b4:	fee78623          	sb	a4,-20(a5)
   175b8:	d25ff0ef          	jal	ra,172dc <_Z11EchoConsolePKc>
   175bc:	02c12083          	lw	ra,44(sp)
   175c0:	03010113          	addi	sp,sp,48
   175c4:	00008067          	ret
   175c8:	05f5e737          	lui	a4,0x5f5e
   175cc:	10070713          	addi	a4,a4,256 # 5f5e100 <__BSS_END__+0x5f38438>
   175d0:	02e54733          	div	a4,a0,a4
   175d4:	02010613          	addi	a2,sp,32
   175d8:	00d606b3          	add	a3,a2,a3
   175dc:	fe06c603          	lbu	a2,-32(a3)
   175e0:	02010693          	addi	a3,sp,32
   175e4:	00f686b3          	add	a3,a3,a5
   175e8:	fec68623          	sb	a2,-20(a3)
   175ec:	00178793          	addi	a5,a5,1
   175f0:	41f75613          	srai	a2,a4,0x1f
   175f4:	00e646b3          	xor	a3,a2,a4
   175f8:	40c686b3          	sub	a3,a3,a2
   175fc:	00a00713          	li	a4,10
   17600:	02e6e6b3          	rem	a3,a3,a4
   17604:	00989737          	lui	a4,0x989
   17608:	68070713          	addi	a4,a4,1664 # 989680 <__BSS_END__+0x9639b8>
   1760c:	02010613          	addi	a2,sp,32
   17610:	00d606b3          	add	a3,a2,a3
   17614:	fe06c603          	lbu	a2,-32(a3)
   17618:	02010693          	addi	a3,sp,32
   1761c:	00f686b3          	add	a3,a3,a5
   17620:	fec68623          	sb	a2,-20(a3)
   17624:	00178793          	addi	a5,a5,1
   17628:	02e54733          	div	a4,a0,a4
   1762c:	41f75613          	srai	a2,a4,0x1f
   17630:	00e646b3          	xor	a3,a2,a4
   17634:	40c686b3          	sub	a3,a3,a2
   17638:	00a00713          	li	a4,10
   1763c:	02e6e6b3          	rem	a3,a3,a4
   17640:	000f4737          	lui	a4,0xf4
   17644:	24070713          	addi	a4,a4,576 # f4240 <__BSS_END__+0xce578>
   17648:	02010613          	addi	a2,sp,32
   1764c:	00d606b3          	add	a3,a2,a3
   17650:	fe06c603          	lbu	a2,-32(a3)
   17654:	02010693          	addi	a3,sp,32
   17658:	00f686b3          	add	a3,a3,a5
   1765c:	fec68623          	sb	a2,-20(a3)
   17660:	00178793          	addi	a5,a5,1
   17664:	02e54733          	div	a4,a0,a4
   17668:	41f75613          	srai	a2,a4,0x1f
   1766c:	00e646b3          	xor	a3,a2,a4
   17670:	40c686b3          	sub	a3,a3,a2
   17674:	00a00713          	li	a4,10
   17678:	02e6e6b3          	rem	a3,a3,a4
   1767c:	00018737          	lui	a4,0x18
   17680:	6a070713          	addi	a4,a4,1696 # 186a0 <_fopen_r+0xb8>
   17684:	02010613          	addi	a2,sp,32
   17688:	00d606b3          	add	a3,a2,a3
   1768c:	fe06c603          	lbu	a2,-32(a3)
   17690:	02010693          	addi	a3,sp,32
   17694:	00f686b3          	add	a3,a3,a5
   17698:	fec68623          	sb	a2,-20(a3)
   1769c:	00178793          	addi	a5,a5,1
   176a0:	02e54733          	div	a4,a0,a4
   176a4:	41f75613          	srai	a2,a4,0x1f
   176a8:	00e646b3          	xor	a3,a2,a4
   176ac:	40c686b3          	sub	a3,a3,a2
   176b0:	00a00713          	li	a4,10
   176b4:	02e6e6b3          	rem	a3,a3,a4
   176b8:	00002737          	lui	a4,0x2
   176bc:	71070713          	addi	a4,a4,1808 # 2710 <exit-0xd964>
   176c0:	02010613          	addi	a2,sp,32
   176c4:	00d606b3          	add	a3,a2,a3
   176c8:	fe06c603          	lbu	a2,-32(a3)
   176cc:	02010693          	addi	a3,sp,32
   176d0:	00f686b3          	add	a3,a3,a5
   176d4:	fec68623          	sb	a2,-20(a3)
   176d8:	00178793          	addi	a5,a5,1
   176dc:	02e54733          	div	a4,a0,a4
   176e0:	41f75693          	srai	a3,a4,0x1f
   176e4:	00e6c733          	xor	a4,a3,a4
   176e8:	40d70733          	sub	a4,a4,a3
   176ec:	00a00693          	li	a3,10
   176f0:	02d76733          	rem	a4,a4,a3
   176f4:	3e800693          	li	a3,1000
   176f8:	02010613          	addi	a2,sp,32
   176fc:	00e60733          	add	a4,a2,a4
   17700:	fe074603          	lbu	a2,-32(a4)
   17704:	02010713          	addi	a4,sp,32
   17708:	00f70733          	add	a4,a4,a5
   1770c:	fec70623          	sb	a2,-20(a4)
   17710:	00178793          	addi	a5,a5,1
   17714:	02d546b3          	div	a3,a0,a3
   17718:	41f6d713          	srai	a4,a3,0x1f
   1771c:	00d746b3          	xor	a3,a4,a3
   17720:	40e686b3          	sub	a3,a3,a4
   17724:	00a00713          	li	a4,10
   17728:	02e6e6b3          	rem	a3,a3,a4
   1772c:	06400713          	li	a4,100
   17730:	02010613          	addi	a2,sp,32
   17734:	00d606b3          	add	a3,a2,a3
   17738:	fe06c603          	lbu	a2,-32(a3)
   1773c:	02010693          	addi	a3,sp,32
   17740:	00f686b3          	add	a3,a3,a5
   17744:	fec68623          	sb	a2,-20(a3)
   17748:	00178793          	addi	a5,a5,1
   1774c:	02e54733          	div	a4,a0,a4
   17750:	41f75693          	srai	a3,a4,0x1f
   17754:	00e6c733          	xor	a4,a3,a4
   17758:	40d70733          	sub	a4,a4,a3
   1775c:	00a00693          	li	a3,10
   17760:	02d76733          	rem	a4,a4,a3
   17764:	00a00593          	li	a1,10
   17768:	02010613          	addi	a2,sp,32
   1776c:	00e60733          	add	a4,a2,a4
   17770:	fe074603          	lbu	a2,-32(a4)
   17774:	02010713          	addi	a4,sp,32
   17778:	00f70733          	add	a4,a4,a5
   1777c:	fec70623          	sb	a2,-20(a4)
   17780:	00178793          	addi	a5,a5,1
   17784:	02b546b3          	div	a3,a0,a1
   17788:	41f6d713          	srai	a4,a3,0x1f
   1778c:	00d74633          	xor	a2,a4,a3
   17790:	40e60633          	sub	a2,a2,a4
   17794:	02b66633          	rem	a2,a2,a1
   17798:	02010713          	addi	a4,sp,32
   1779c:	00c70633          	add	a2,a4,a2
   177a0:	fe064683          	lbu	a3,-32(a2)
   177a4:	00f70733          	add	a4,a4,a5
   177a8:	00178793          	addi	a5,a5,1
   177ac:	fed70623          	sb	a3,-20(a4)
   177b0:	dd9ff06f          	j	17588 <_Z11EchoConsolel+0x198>

000177b4 <_Z14EchoConsoleHexl>:
   177b4:	00004897          	auipc	a7,0x4
   177b8:	4a888893          	addi	a7,a7,1192 # 1bc5c <_ZL9hexdigits+0x14>
   177bc:	41f55793          	srai	a5,a0,0x1f
   177c0:	01c7d793          	srli	a5,a5,0x1c
   177c4:	00c8a603          	lw	a2,12(a7)
   177c8:	40c55713          	srai	a4,a0,0xc
   177cc:	41855313          	srai	t1,a0,0x18
   177d0:	0048af03          	lw	t5,4(a7)
   177d4:	0088ae83          	lw	t4,8(a7)
   177d8:	0008af83          	lw	t6,0(a7)
   177dc:	40855693          	srai	a3,a0,0x8
   177e0:	00f70733          	add	a4,a4,a5
   177e4:	00f30333          	add	t1,t1,a5
   177e8:	fd010113          	addi	sp,sp,-48
   177ec:	00f686b3          	add	a3,a3,a5
   177f0:	40455813          	srai	a6,a0,0x4
   177f4:	41455593          	srai	a1,a0,0x14
   177f8:	00f77713          	andi	a4,a4,15
   177fc:	00f37313          	andi	t1,t1,15
   17800:	00c12c23          	sw	a2,24(sp)
   17804:	40f70733          	sub	a4,a4,a5
   17808:	02010613          	addi	a2,sp,32
   1780c:	00f80833          	add	a6,a6,a5
   17810:	40f30333          	sub	t1,t1,a5
   17814:	00f585b3          	add	a1,a1,a5
   17818:	00f6f693          	andi	a3,a3,15
   1781c:	02112623          	sw	ra,44(sp)
   17820:	01f12623          	sw	t6,12(sp)
   17824:	01e12823          	sw	t5,16(sp)
   17828:	01d12a23          	sw	t4,20(sp)
   1782c:	00660333          	add	t1,a2,t1
   17830:	40f686b3          	sub	a3,a3,a5
   17834:	41c55e13          	srai	t3,a0,0x1c
   17838:	00e60733          	add	a4,a2,a4
   1783c:	00f87813          	andi	a6,a6,15
   17840:	00f5f593          	andi	a1,a1,15
   17844:	fec74703          	lbu	a4,-20(a4)
   17848:	fec34e83          	lbu	t4,-20(t1)
   1784c:	00d606b3          	add	a3,a2,a3
   17850:	02010313          	addi	t1,sp,32
   17854:	01c60e33          	add	t3,a2,t3
   17858:	40f80833          	sub	a6,a6,a5
   1785c:	41055613          	srai	a2,a0,0x10
   17860:	40f585b3          	sub	a1,a1,a5
   17864:	fec6cf03          	lbu	t5,-20(a3)
   17868:	01030833          	add	a6,t1,a6
   1786c:	fece4683          	lbu	a3,-20(t3)
   17870:	00b305b3          	add	a1,t1,a1
   17874:	00f50533          	add	a0,a0,a5
   17878:	00f60633          	add	a2,a2,a5
   1787c:	ffff0337          	lui	t1,0xffff0
   17880:	0ff30313          	addi	t1,t1,255 # ffff00ff <__BSS_END__+0xfffca437>
   17884:	00f57513          	andi	a0,a0,15
   17888:	00f67613          	andi	a2,a2,15
   1788c:	40f60633          	sub	a2,a2,a5
   17890:	40f50533          	sub	a0,a0,a5
   17894:	006777b3          	and	a5,a4,t1
   17898:	02010713          	addi	a4,sp,32
   1789c:	fec84e03          	lbu	t3,-20(a6)
   178a0:	00a70533          	add	a0,a4,a0
   178a4:	fec5c803          	lbu	a6,-20(a1)
   178a8:	0066f733          	and	a4,a3,t1
   178ac:	02010693          	addi	a3,sp,32
   178b0:	00c686b3          	add	a3,a3,a2
   178b4:	008f1f13          	slli	t5,t5,0x8
   178b8:	008e9e93          	slli	t4,t4,0x8
   178bc:	ff010637          	lui	a2,0xff010
   178c0:	fec6c583          	lbu	a1,-20(a3)
   178c4:	fff60613          	addi	a2,a2,-1 # ff00ffff <__BSS_END__+0xfefea337>
   178c8:	fec54503          	lbu	a0,-20(a0)
   178cc:	01e7e7b3          	or	a5,a5,t5
   178d0:	01d76733          	or	a4,a4,t4
   178d4:	010e1313          	slli	t1,t3,0x10
   178d8:	00c7f7b3          	and	a5,a5,a2
   178dc:	01081813          	slli	a6,a6,0x10
   178e0:	00c77733          	and	a4,a4,a2
   178e4:	010006b7          	lui	a3,0x1000
   178e8:	fff68693          	addi	a3,a3,-1 # ffffff <__BSS_END__+0xfda337>
   178ec:	0108c883          	lbu	a7,16(a7)
   178f0:	0067e7b3          	or	a5,a5,t1
   178f4:	01076733          	or	a4,a4,a6
   178f8:	01851513          	slli	a0,a0,0x18
   178fc:	00d7f7b3          	and	a5,a5,a3
   17900:	01859613          	slli	a2,a1,0x18
   17904:	00d77733          	and	a4,a4,a3
   17908:	00a7e7b3          	or	a5,a5,a0
   1790c:	00c76733          	or	a4,a4,a2
   17910:	00010513          	mv	a0,sp
   17914:	01110e23          	sb	a7,28(sp)
   17918:	00010423          	sb	zero,8(sp)
   1791c:	00e12023          	sw	a4,0(sp)
   17920:	00f12223          	sw	a5,4(sp)
   17924:	9b9ff0ef          	jal	ra,172dc <_Z11EchoConsolePKc>
   17928:	02c12083          	lw	ra,44(sp)
   1792c:	03010113          	addi	sp,sp,48
   17930:	00008067          	ret

00017934 <_Z18EchoConsoleHexBytel>:
   17934:	41f55793          	srai	a5,a0,0x1f
   17938:	01c7d713          	srli	a4,a5,0x1c
   1793c:	00004697          	auipc	a3,0x4
   17940:	32068693          	addi	a3,a3,800 # 1bc5c <_ZL9hexdigits+0x14>
   17944:	40455793          	srai	a5,a0,0x4
   17948:	00c6a603          	lw	a2,12(a3)
   1794c:	0006a883          	lw	a7,0(a3)
   17950:	0046a803          	lw	a6,4(a3)
   17954:	0086a583          	lw	a1,8(a3)
   17958:	00e50533          	add	a0,a0,a4
   1795c:	00e787b3          	add	a5,a5,a4
   17960:	fd010113          	addi	sp,sp,-48
   17964:	00f57513          	andi	a0,a0,15
   17968:	00f7f793          	andi	a5,a5,15
   1796c:	40e50533          	sub	a0,a0,a4
   17970:	40e787b3          	sub	a5,a5,a4
   17974:	02010713          	addi	a4,sp,32
   17978:	02112623          	sw	ra,44(sp)
   1797c:	00c12c23          	sw	a2,24(sp)
   17980:	01112623          	sw	a7,12(sp)
   17984:	01012823          	sw	a6,16(sp)
   17988:	00b12a23          	sw	a1,20(sp)
   1798c:	02010613          	addi	a2,sp,32
   17990:	00a70533          	add	a0,a4,a0
   17994:	fec54703          	lbu	a4,-20(a0)
   17998:	00f607b3          	add	a5,a2,a5
   1799c:	fec7c783          	lbu	a5,-20(a5)
   179a0:	0106c683          	lbu	a3,16(a3)
   179a4:	00871713          	slli	a4,a4,0x8
   179a8:	00e7e7b3          	or	a5,a5,a4
   179ac:	00810513          	addi	a0,sp,8
   179b0:	00d10e23          	sb	a3,28(sp)
   179b4:	00010523          	sb	zero,10(sp)
   179b8:	00f11423          	sh	a5,8(sp)
   179bc:	921ff0ef          	jal	ra,172dc <_Z11EchoConsolePKc>
   179c0:	02c12083          	lw	ra,44(sp)
   179c4:	03010113          	addi	sp,sp,48
   179c8:	00008067          	ret

000179cc <_Z11DrawConsolev>:
   179cc:	ff010113          	addi	sp,sp,-16
   179d0:	00812423          	sw	s0,8(sp)
   179d4:	00912223          	sw	s1,4(sp)
   179d8:	01212023          	sw	s2,0(sp)
   179dc:	00112623          	sw	ra,12(sp)
   179e0:	0000e417          	auipc	s0,0xe
   179e4:	fe040413          	addi	s0,s0,-32 # 259c0 <_ZL11consoleText>
   179e8:	0000e917          	auipc	s2,0xe
   179ec:	2d890913          	addi	s2,s2,728 # 25cc0 <_ZL7cursorx>
   179f0:	00000493          	li	s1,0
   179f4:	00040693          	mv	a3,s0
   179f8:	00048593          	mv	a1,s1
   179fc:	00100713          	li	a4,1
   17a00:	02000613          	li	a2,32
   17a04:	00000513          	li	a0,0
   17a08:	02040413          	addi	s0,s0,32
   17a0c:	b39fb0ef          	jal	ra,13544 <_Z8PrintDMAiiiPKcb>
   17a10:	00848493          	addi	s1,s1,8
   17a14:	ff2410e3          	bne	s0,s2,179f4 <_Z11DrawConsolev+0x28>
   17a18:	00c12083          	lw	ra,12(sp)
   17a1c:	00812403          	lw	s0,8(sp)
   17a20:	00412483          	lw	s1,4(sp)
   17a24:	00012903          	lw	s2,0(sp)
   17a28:	01010113          	addi	sp,sp,16
   17a2c:	00008067          	ret

00017a30 <_Z18ConsoleStringAtRowPc>:
   17a30:	0000e817          	auipc	a6,0xe
   17a34:	29082803          	lw	a6,656(a6) # 25cc0 <_ZL7cursorx>
   17a38:	0d005063          	blez	a6,17af8 <_Z18ConsoleStringAtRowPc+0xc8>
   17a3c:	fff80793          	addi	a5,a6,-1
   17a40:	00357713          	andi	a4,a0,3
   17a44:	0087b793          	sltiu	a5,a5,8
   17a48:	0017c793          	xori	a5,a5,1
   17a4c:	00173713          	seqz	a4,a4
   17a50:	00f77733          	and	a4,a4,a5
   17a54:	0000e797          	auipc	a5,0xe
   17a58:	2707a783          	lw	a5,624(a5) # 25cc4 <_ZL7cursory>
   17a5c:	00579893          	slli	a7,a5,0x5
   17a60:	0000e697          	auipc	a3,0xe
   17a64:	f6068693          	addi	a3,a3,-160 # 259c0 <_ZL11consoleText>
   17a68:	08070c63          	beqz	a4,17b00 <_Z18ConsoleStringAtRowPc+0xd0>
   17a6c:	00188713          	addi	a4,a7,1
   17a70:	00e68733          	add	a4,a3,a4
   17a74:	40e50733          	sub	a4,a0,a4
   17a78:	00373713          	sltiu	a4,a4,3
   17a7c:	08071263          	bnez	a4,17b00 <_Z18ConsoleStringAtRowPc+0xd0>
   17a80:	011687b3          	add	a5,a3,a7
   17a84:	ffc87593          	andi	a1,a6,-4
   17a88:	00050713          	mv	a4,a0
   17a8c:	00f585b3          	add	a1,a1,a5
   17a90:	0007a603          	lw	a2,0(a5)
   17a94:	00478793          	addi	a5,a5,4
   17a98:	00470713          	addi	a4,a4,4
   17a9c:	fec72e23          	sw	a2,-4(a4)
   17aa0:	feb798e3          	bne	a5,a1,17a90 <_Z18ConsoleStringAtRowPc+0x60>
   17aa4:	ffc87713          	andi	a4,a6,-4
   17aa8:	01050633          	add	a2,a0,a6
   17aac:	04e80463          	beq	a6,a4,17af4 <_Z18ConsoleStringAtRowPc+0xc4>
   17ab0:	011687b3          	add	a5,a3,a7
   17ab4:	00e786b3          	add	a3,a5,a4
   17ab8:	0006c883          	lbu	a7,0(a3)
   17abc:	00e505b3          	add	a1,a0,a4
   17ac0:	00170693          	addi	a3,a4,1
   17ac4:	01158023          	sb	a7,0(a1)
   17ac8:	0306d663          	bge	a3,a6,17af4 <_Z18ConsoleStringAtRowPc+0xc4>
   17acc:	00d785b3          	add	a1,a5,a3
   17ad0:	0005c583          	lbu	a1,0(a1)
   17ad4:	00d506b3          	add	a3,a0,a3
   17ad8:	00270713          	addi	a4,a4,2
   17adc:	00b68023          	sb	a1,0(a3)
   17ae0:	01075a63          	bge	a4,a6,17af4 <_Z18ConsoleStringAtRowPc+0xc4>
   17ae4:	00e787b3          	add	a5,a5,a4
   17ae8:	0007c783          	lbu	a5,0(a5)
   17aec:	00e50733          	add	a4,a0,a4
   17af0:	00f70023          	sb	a5,0(a4)
   17af4:	00060513          	mv	a0,a2
   17af8:	00050023          	sb	zero,0(a0)
   17afc:	00008067          	ret
   17b00:	011687b3          	add	a5,a3,a7
   17b04:	01050633          	add	a2,a0,a6
   17b08:	0007c703          	lbu	a4,0(a5)
   17b0c:	00150513          	addi	a0,a0,1
   17b10:	00178793          	addi	a5,a5,1
   17b14:	fee50fa3          	sb	a4,-1(a0)
   17b18:	fea618e3          	bne	a2,a0,17b08 <_Z18ConsoleStringAtRowPc+0xd8>
   17b1c:	fd9ff06f          	j	17af4 <_Z18ConsoleStringAtRowPc+0xc4>

00017b20 <__udivdi3>:
   17b20:	00050893          	mv	a7,a0
   17b24:	00058793          	mv	a5,a1
   17b28:	00060813          	mv	a6,a2
   17b2c:	00068513          	mv	a0,a3
   17b30:	00088313          	mv	t1,a7
   17b34:	28069463          	bnez	a3,17dbc <__udivdi3+0x29c>
   17b38:	0001d6b7          	lui	a3,0x1d
   17b3c:	52c68693          	addi	a3,a3,1324 # 1d52c <__clz_tab>
   17b40:	0ec5f663          	bgeu	a1,a2,17c2c <__udivdi3+0x10c>
   17b44:	00010737          	lui	a4,0x10
   17b48:	0ce67863          	bgeu	a2,a4,17c18 <__udivdi3+0xf8>
   17b4c:	0ff00713          	li	a4,255
   17b50:	00c73733          	sltu	a4,a4,a2
   17b54:	00371713          	slli	a4,a4,0x3
   17b58:	00e65533          	srl	a0,a2,a4
   17b5c:	00a686b3          	add	a3,a3,a0
   17b60:	0006c683          	lbu	a3,0(a3)
   17b64:	02000513          	li	a0,32
   17b68:	00e68733          	add	a4,a3,a4
   17b6c:	40e506b3          	sub	a3,a0,a4
   17b70:	00e50c63          	beq	a0,a4,17b88 <__udivdi3+0x68>
   17b74:	00d795b3          	sll	a1,a5,a3
   17b78:	00e8d733          	srl	a4,a7,a4
   17b7c:	00d61833          	sll	a6,a2,a3
   17b80:	00b765b3          	or	a1,a4,a1
   17b84:	00d89333          	sll	t1,a7,a3
   17b88:	01085893          	srli	a7,a6,0x10
   17b8c:	0315d6b3          	divu	a3,a1,a7
   17b90:	01081613          	slli	a2,a6,0x10
   17b94:	01065613          	srli	a2,a2,0x10
   17b98:	01035793          	srli	a5,t1,0x10
   17b9c:	0315f733          	remu	a4,a1,a7
   17ba0:	00068513          	mv	a0,a3
   17ba4:	02d605b3          	mul	a1,a2,a3
   17ba8:	01071713          	slli	a4,a4,0x10
   17bac:	00f767b3          	or	a5,a4,a5
   17bb0:	00b7fe63          	bgeu	a5,a1,17bcc <__udivdi3+0xac>
   17bb4:	010787b3          	add	a5,a5,a6
   17bb8:	fff68513          	addi	a0,a3,-1
   17bbc:	0107e863          	bltu	a5,a6,17bcc <__udivdi3+0xac>
   17bc0:	00b7f663          	bgeu	a5,a1,17bcc <__udivdi3+0xac>
   17bc4:	ffe68513          	addi	a0,a3,-2
   17bc8:	010787b3          	add	a5,a5,a6
   17bcc:	40b787b3          	sub	a5,a5,a1
   17bd0:	0317f733          	remu	a4,a5,a7
   17bd4:	01031313          	slli	t1,t1,0x10
   17bd8:	01035313          	srli	t1,t1,0x10
   17bdc:	0317d7b3          	divu	a5,a5,a7
   17be0:	01071713          	slli	a4,a4,0x10
   17be4:	00676333          	or	t1,a4,t1
   17be8:	02f606b3          	mul	a3,a2,a5
   17bec:	00078613          	mv	a2,a5
   17bf0:	00d37c63          	bgeu	t1,a3,17c08 <__udivdi3+0xe8>
   17bf4:	00680333          	add	t1,a6,t1
   17bf8:	fff78613          	addi	a2,a5,-1
   17bfc:	01036663          	bltu	t1,a6,17c08 <__udivdi3+0xe8>
   17c00:	00d37463          	bgeu	t1,a3,17c08 <__udivdi3+0xe8>
   17c04:	ffe78613          	addi	a2,a5,-2
   17c08:	01051513          	slli	a0,a0,0x10
   17c0c:	00c56533          	or	a0,a0,a2
   17c10:	00000593          	li	a1,0
   17c14:	0e40006f          	j	17cf8 <__udivdi3+0x1d8>
   17c18:	01000537          	lui	a0,0x1000
   17c1c:	01000713          	li	a4,16
   17c20:	f2a66ce3          	bltu	a2,a0,17b58 <__udivdi3+0x38>
   17c24:	01800713          	li	a4,24
   17c28:	f31ff06f          	j	17b58 <__udivdi3+0x38>
   17c2c:	00061663          	bnez	a2,17c38 <__udivdi3+0x118>
   17c30:	00100713          	li	a4,1
   17c34:	02c75833          	divu	a6,a4,a2
   17c38:	00010737          	lui	a4,0x10
   17c3c:	0ce87063          	bgeu	a6,a4,17cfc <__udivdi3+0x1dc>
   17c40:	0ff00713          	li	a4,255
   17c44:	01077463          	bgeu	a4,a6,17c4c <__udivdi3+0x12c>
   17c48:	00800513          	li	a0,8
   17c4c:	00a85733          	srl	a4,a6,a0
   17c50:	00e686b3          	add	a3,a3,a4
   17c54:	0006c703          	lbu	a4,0(a3)
   17c58:	02000613          	li	a2,32
   17c5c:	00a70733          	add	a4,a4,a0
   17c60:	40e606b3          	sub	a3,a2,a4
   17c64:	0ae61663          	bne	a2,a4,17d10 <__udivdi3+0x1f0>
   17c68:	410787b3          	sub	a5,a5,a6
   17c6c:	00100593          	li	a1,1
   17c70:	01085893          	srli	a7,a6,0x10
   17c74:	01081613          	slli	a2,a6,0x10
   17c78:	01065613          	srli	a2,a2,0x10
   17c7c:	01035713          	srli	a4,t1,0x10
   17c80:	0317f6b3          	remu	a3,a5,a7
   17c84:	0317d7b3          	divu	a5,a5,a7
   17c88:	01069693          	slli	a3,a3,0x10
   17c8c:	00e6e733          	or	a4,a3,a4
   17c90:	02f60e33          	mul	t3,a2,a5
   17c94:	00078513          	mv	a0,a5
   17c98:	01c77e63          	bgeu	a4,t3,17cb4 <__udivdi3+0x194>
   17c9c:	01070733          	add	a4,a4,a6
   17ca0:	fff78513          	addi	a0,a5,-1
   17ca4:	01076863          	bltu	a4,a6,17cb4 <__udivdi3+0x194>
   17ca8:	01c77663          	bgeu	a4,t3,17cb4 <__udivdi3+0x194>
   17cac:	ffe78513          	addi	a0,a5,-2
   17cb0:	01070733          	add	a4,a4,a6
   17cb4:	41c70733          	sub	a4,a4,t3
   17cb8:	031777b3          	remu	a5,a4,a7
   17cbc:	01031313          	slli	t1,t1,0x10
   17cc0:	01035313          	srli	t1,t1,0x10
   17cc4:	03175733          	divu	a4,a4,a7
   17cc8:	01079793          	slli	a5,a5,0x10
   17ccc:	0067e333          	or	t1,a5,t1
   17cd0:	02e606b3          	mul	a3,a2,a4
   17cd4:	00070613          	mv	a2,a4
   17cd8:	00d37c63          	bgeu	t1,a3,17cf0 <__udivdi3+0x1d0>
   17cdc:	00680333          	add	t1,a6,t1
   17ce0:	fff70613          	addi	a2,a4,-1 # ffff <exit-0x75>
   17ce4:	01036663          	bltu	t1,a6,17cf0 <__udivdi3+0x1d0>
   17ce8:	00d37463          	bgeu	t1,a3,17cf0 <__udivdi3+0x1d0>
   17cec:	ffe70613          	addi	a2,a4,-2
   17cf0:	01051513          	slli	a0,a0,0x10
   17cf4:	00c56533          	or	a0,a0,a2
   17cf8:	00008067          	ret
   17cfc:	01000737          	lui	a4,0x1000
   17d00:	01000513          	li	a0,16
   17d04:	f4e864e3          	bltu	a6,a4,17c4c <__udivdi3+0x12c>
   17d08:	01800513          	li	a0,24
   17d0c:	f41ff06f          	j	17c4c <__udivdi3+0x12c>
   17d10:	00d81833          	sll	a6,a6,a3
   17d14:	00e7d533          	srl	a0,a5,a4
   17d18:	00d89333          	sll	t1,a7,a3
   17d1c:	00d797b3          	sll	a5,a5,a3
   17d20:	00e8d733          	srl	a4,a7,a4
   17d24:	01085893          	srli	a7,a6,0x10
   17d28:	00f76633          	or	a2,a4,a5
   17d2c:	03157733          	remu	a4,a0,a7
   17d30:	01081793          	slli	a5,a6,0x10
   17d34:	0107d793          	srli	a5,a5,0x10
   17d38:	01065593          	srli	a1,a2,0x10
   17d3c:	03155533          	divu	a0,a0,a7
   17d40:	01071713          	slli	a4,a4,0x10
   17d44:	00b76733          	or	a4,a4,a1
   17d48:	02a786b3          	mul	a3,a5,a0
   17d4c:	00050593          	mv	a1,a0
   17d50:	00d77e63          	bgeu	a4,a3,17d6c <__udivdi3+0x24c>
   17d54:	01070733          	add	a4,a4,a6
   17d58:	fff50593          	addi	a1,a0,-1 # ffffff <__BSS_END__+0xfda337>
   17d5c:	01076863          	bltu	a4,a6,17d6c <__udivdi3+0x24c>
   17d60:	00d77663          	bgeu	a4,a3,17d6c <__udivdi3+0x24c>
   17d64:	ffe50593          	addi	a1,a0,-2
   17d68:	01070733          	add	a4,a4,a6
   17d6c:	40d706b3          	sub	a3,a4,a3
   17d70:	0316f733          	remu	a4,a3,a7
   17d74:	01061613          	slli	a2,a2,0x10
   17d78:	01065613          	srli	a2,a2,0x10
   17d7c:	0316d6b3          	divu	a3,a3,a7
   17d80:	01071713          	slli	a4,a4,0x10
   17d84:	02d78533          	mul	a0,a5,a3
   17d88:	00c767b3          	or	a5,a4,a2
   17d8c:	00068713          	mv	a4,a3
   17d90:	00a7fe63          	bgeu	a5,a0,17dac <__udivdi3+0x28c>
   17d94:	010787b3          	add	a5,a5,a6
   17d98:	fff68713          	addi	a4,a3,-1
   17d9c:	0107e863          	bltu	a5,a6,17dac <__udivdi3+0x28c>
   17da0:	00a7f663          	bgeu	a5,a0,17dac <__udivdi3+0x28c>
   17da4:	ffe68713          	addi	a4,a3,-2
   17da8:	010787b3          	add	a5,a5,a6
   17dac:	01059593          	slli	a1,a1,0x10
   17db0:	40a787b3          	sub	a5,a5,a0
   17db4:	00e5e5b3          	or	a1,a1,a4
   17db8:	eb9ff06f          	j	17c70 <__udivdi3+0x150>
   17dbc:	18d5e663          	bltu	a1,a3,17f48 <__udivdi3+0x428>
   17dc0:	00010737          	lui	a4,0x10
   17dc4:	04e6f463          	bgeu	a3,a4,17e0c <__udivdi3+0x2ec>
   17dc8:	0ff00713          	li	a4,255
   17dcc:	00d735b3          	sltu	a1,a4,a3
   17dd0:	00359593          	slli	a1,a1,0x3
   17dd4:	0001d737          	lui	a4,0x1d
   17dd8:	00b6d533          	srl	a0,a3,a1
   17ddc:	52c70713          	addi	a4,a4,1324 # 1d52c <__clz_tab>
   17de0:	00a70733          	add	a4,a4,a0
   17de4:	00074703          	lbu	a4,0(a4)
   17de8:	02000513          	li	a0,32
   17dec:	00b70733          	add	a4,a4,a1
   17df0:	40e505b3          	sub	a1,a0,a4
   17df4:	02e51663          	bne	a0,a4,17e20 <__udivdi3+0x300>
   17df8:	00100513          	li	a0,1
   17dfc:	eef6eee3          	bltu	a3,a5,17cf8 <__udivdi3+0x1d8>
   17e00:	00c8b533          	sltu	a0,a7,a2
   17e04:	00154513          	xori	a0,a0,1
   17e08:	ef1ff06f          	j	17cf8 <__udivdi3+0x1d8>
   17e0c:	01000737          	lui	a4,0x1000
   17e10:	01000593          	li	a1,16
   17e14:	fce6e0e3          	bltu	a3,a4,17dd4 <__udivdi3+0x2b4>
   17e18:	01800593          	li	a1,24
   17e1c:	fb9ff06f          	j	17dd4 <__udivdi3+0x2b4>
   17e20:	00e65833          	srl	a6,a2,a4
   17e24:	00b696b3          	sll	a3,a3,a1
   17e28:	00d86833          	or	a6,a6,a3
   17e2c:	00e7de33          	srl	t3,a5,a4
   17e30:	01085e93          	srli	t4,a6,0x10
   17e34:	03de76b3          	remu	a3,t3,t4
   17e38:	00b797b3          	sll	a5,a5,a1
   17e3c:	00e8d733          	srl	a4,a7,a4
   17e40:	00b61333          	sll	t1,a2,a1
   17e44:	00f76633          	or	a2,a4,a5
   17e48:	01081793          	slli	a5,a6,0x10
   17e4c:	0107d793          	srli	a5,a5,0x10
   17e50:	01065713          	srli	a4,a2,0x10
   17e54:	03de5e33          	divu	t3,t3,t4
   17e58:	01069693          	slli	a3,a3,0x10
   17e5c:	00e6e733          	or	a4,a3,a4
   17e60:	03c78f33          	mul	t5,a5,t3
   17e64:	000e0513          	mv	a0,t3
   17e68:	01e77e63          	bgeu	a4,t5,17e84 <__udivdi3+0x364>
   17e6c:	01070733          	add	a4,a4,a6
   17e70:	fffe0513          	addi	a0,t3,-1
   17e74:	01076863          	bltu	a4,a6,17e84 <__udivdi3+0x364>
   17e78:	01e77663          	bgeu	a4,t5,17e84 <__udivdi3+0x364>
   17e7c:	ffee0513          	addi	a0,t3,-2
   17e80:	01070733          	add	a4,a4,a6
   17e84:	41e70733          	sub	a4,a4,t5
   17e88:	03d776b3          	remu	a3,a4,t4
   17e8c:	03d75733          	divu	a4,a4,t4
   17e90:	01069693          	slli	a3,a3,0x10
   17e94:	02e78e33          	mul	t3,a5,a4
   17e98:	01061793          	slli	a5,a2,0x10
   17e9c:	0107d793          	srli	a5,a5,0x10
   17ea0:	00f6e7b3          	or	a5,a3,a5
   17ea4:	00070613          	mv	a2,a4
   17ea8:	01c7fe63          	bgeu	a5,t3,17ec4 <__udivdi3+0x3a4>
   17eac:	010787b3          	add	a5,a5,a6
   17eb0:	fff70613          	addi	a2,a4,-1 # ffffff <__BSS_END__+0xfda337>
   17eb4:	0107e863          	bltu	a5,a6,17ec4 <__udivdi3+0x3a4>
   17eb8:	01c7f663          	bgeu	a5,t3,17ec4 <__udivdi3+0x3a4>
   17ebc:	ffe70613          	addi	a2,a4,-2
   17ec0:	010787b3          	add	a5,a5,a6
   17ec4:	01051513          	slli	a0,a0,0x10
   17ec8:	00010eb7          	lui	t4,0x10
   17ecc:	00c56533          	or	a0,a0,a2
   17ed0:	fffe8693          	addi	a3,t4,-1 # ffff <exit-0x75>
   17ed4:	00d57833          	and	a6,a0,a3
   17ed8:	01055613          	srli	a2,a0,0x10
   17edc:	00d376b3          	and	a3,t1,a3
   17ee0:	01035313          	srli	t1,t1,0x10
   17ee4:	41c787b3          	sub	a5,a5,t3
   17ee8:	02d80e33          	mul	t3,a6,a3
   17eec:	02d606b3          	mul	a3,a2,a3
   17ef0:	010e5713          	srli	a4,t3,0x10
   17ef4:	02680833          	mul	a6,a6,t1
   17ef8:	00d80833          	add	a6,a6,a3
   17efc:	01070733          	add	a4,a4,a6
   17f00:	02660633          	mul	a2,a2,t1
   17f04:	00d77463          	bgeu	a4,a3,17f0c <__udivdi3+0x3ec>
   17f08:	01d60633          	add	a2,a2,t4
   17f0c:	01075693          	srli	a3,a4,0x10
   17f10:	00c68633          	add	a2,a3,a2
   17f14:	02c7e663          	bltu	a5,a2,17f40 <__udivdi3+0x420>
   17f18:	cec79ce3          	bne	a5,a2,17c10 <__udivdi3+0xf0>
   17f1c:	000107b7          	lui	a5,0x10
   17f20:	fff78793          	addi	a5,a5,-1 # ffff <exit-0x75>
   17f24:	00f77733          	and	a4,a4,a5
   17f28:	01071713          	slli	a4,a4,0x10
   17f2c:	00fe7e33          	and	t3,t3,a5
   17f30:	00b898b3          	sll	a7,a7,a1
   17f34:	01c70733          	add	a4,a4,t3
   17f38:	00000593          	li	a1,0
   17f3c:	dae8fee3          	bgeu	a7,a4,17cf8 <__udivdi3+0x1d8>
   17f40:	fff50513          	addi	a0,a0,-1
   17f44:	ccdff06f          	j	17c10 <__udivdi3+0xf0>
   17f48:	00000593          	li	a1,0
   17f4c:	00000513          	li	a0,0
   17f50:	da9ff06f          	j	17cf8 <__udivdi3+0x1d8>

00017f54 <__errno>:
   17f54:	000217b7          	lui	a5,0x21
   17f58:	dc07a503          	lw	a0,-576(a5) # 20dc0 <_impure_ptr>
   17f5c:	00008067          	ret

00017f60 <_fclose_r>:
   17f60:	ff010113          	addi	sp,sp,-16
   17f64:	00112623          	sw	ra,12(sp)
   17f68:	00812423          	sw	s0,8(sp)
   17f6c:	00912223          	sw	s1,4(sp)
   17f70:	01212023          	sw	s2,0(sp)
   17f74:	02059263          	bnez	a1,17f98 <_fclose_r+0x38>
   17f78:	00000913          	li	s2,0
   17f7c:	00c12083          	lw	ra,12(sp)
   17f80:	00812403          	lw	s0,8(sp)
   17f84:	00412483          	lw	s1,4(sp)
   17f88:	00090513          	mv	a0,s2
   17f8c:	00012903          	lw	s2,0(sp)
   17f90:	01010113          	addi	sp,sp,16
   17f94:	00008067          	ret
   17f98:	00050493          	mv	s1,a0
   17f9c:	00058413          	mv	s0,a1
   17fa0:	00050863          	beqz	a0,17fb0 <_fclose_r+0x50>
   17fa4:	01852783          	lw	a5,24(a0)
   17fa8:	00079463          	bnez	a5,17fb0 <_fclose_r+0x50>
   17fac:	494000ef          	jal	ra,18440 <__sinit>
   17fb0:	0001d7b7          	lui	a5,0x1d
   17fb4:	64c78793          	addi	a5,a5,1612 # 1d64c <__sf_fake_stdin>
   17fb8:	08f41a63          	bne	s0,a5,1804c <_fclose_r+0xec>
   17fbc:	0044a403          	lw	s0,4(s1)
   17fc0:	00c41783          	lh	a5,12(s0)
   17fc4:	fa078ae3          	beqz	a5,17f78 <_fclose_r+0x18>
   17fc8:	00040593          	mv	a1,s0
   17fcc:	00048513          	mv	a0,s1
   17fd0:	0b4000ef          	jal	ra,18084 <__sflush_r>
   17fd4:	03042783          	lw	a5,48(s0)
   17fd8:	00050913          	mv	s2,a0
   17fdc:	00078c63          	beqz	a5,17ff4 <_fclose_r+0x94>
   17fe0:	02042583          	lw	a1,32(s0)
   17fe4:	00048513          	mv	a0,s1
   17fe8:	000780e7          	jalr	a5
   17fec:	00055463          	bgez	a0,17ff4 <_fclose_r+0x94>
   17ff0:	fff00913          	li	s2,-1
   17ff4:	00c45783          	lhu	a5,12(s0)
   17ff8:	0807f793          	andi	a5,a5,128
   17ffc:	00078863          	beqz	a5,1800c <_fclose_r+0xac>
   18000:	01042583          	lw	a1,16(s0)
   18004:	00048513          	mv	a0,s1
   18008:	7b1000ef          	jal	ra,18fb8 <_free_r>
   1800c:	03442583          	lw	a1,52(s0)
   18010:	00058c63          	beqz	a1,18028 <_fclose_r+0xc8>
   18014:	04440793          	addi	a5,s0,68
   18018:	00f58663          	beq	a1,a5,18024 <_fclose_r+0xc4>
   1801c:	00048513          	mv	a0,s1
   18020:	799000ef          	jal	ra,18fb8 <_free_r>
   18024:	02042a23          	sw	zero,52(s0)
   18028:	04842583          	lw	a1,72(s0)
   1802c:	00058863          	beqz	a1,1803c <_fclose_r+0xdc>
   18030:	00048513          	mv	a0,s1
   18034:	785000ef          	jal	ra,18fb8 <_free_r>
   18038:	04042423          	sw	zero,72(s0)
   1803c:	5a4000ef          	jal	ra,185e0 <__sfp_lock_acquire>
   18040:	00041623          	sh	zero,12(s0)
   18044:	5a0000ef          	jal	ra,185e4 <__sfp_lock_release>
   18048:	f35ff06f          	j	17f7c <_fclose_r+0x1c>
   1804c:	0001d7b7          	lui	a5,0x1d
   18050:	66c78793          	addi	a5,a5,1644 # 1d66c <__sf_fake_stdout>
   18054:	00f41663          	bne	s0,a5,18060 <_fclose_r+0x100>
   18058:	0084a403          	lw	s0,8(s1)
   1805c:	f65ff06f          	j	17fc0 <_fclose_r+0x60>
   18060:	0001d7b7          	lui	a5,0x1d
   18064:	62c78793          	addi	a5,a5,1580 # 1d62c <__sf_fake_stderr>
   18068:	f4f41ce3          	bne	s0,a5,17fc0 <_fclose_r+0x60>
   1806c:	00c4a403          	lw	s0,12(s1)
   18070:	f51ff06f          	j	17fc0 <_fclose_r+0x60>

00018074 <fclose>:
   18074:	000217b7          	lui	a5,0x21
   18078:	00050593          	mv	a1,a0
   1807c:	dc07a503          	lw	a0,-576(a5) # 20dc0 <_impure_ptr>
   18080:	ee1ff06f          	j	17f60 <_fclose_r>

00018084 <__sflush_r>:
   18084:	00c5d783          	lhu	a5,12(a1)
   18088:	fe010113          	addi	sp,sp,-32
   1808c:	00812c23          	sw	s0,24(sp)
   18090:	00912a23          	sw	s1,20(sp)
   18094:	00112e23          	sw	ra,28(sp)
   18098:	01212823          	sw	s2,16(sp)
   1809c:	01312623          	sw	s3,12(sp)
   180a0:	0087f713          	andi	a4,a5,8
   180a4:	00050493          	mv	s1,a0
   180a8:	00058413          	mv	s0,a1
   180ac:	16071263          	bnez	a4,18210 <__sflush_r+0x18c>
   180b0:	0045a703          	lw	a4,4(a1)
   180b4:	00e04a63          	bgtz	a4,180c8 <__sflush_r+0x44>
   180b8:	0405a703          	lw	a4,64(a1)
   180bc:	00e04663          	bgtz	a4,180c8 <__sflush_r+0x44>
   180c0:	00000513          	li	a0,0
   180c4:	1240006f          	j	181e8 <__sflush_r+0x164>
   180c8:	02c42703          	lw	a4,44(s0)
   180cc:	fe070ae3          	beqz	a4,180c0 <__sflush_r+0x3c>
   180d0:	000016b7          	lui	a3,0x1
   180d4:	0004a903          	lw	s2,0(s1)
   180d8:	00d7f7b3          	and	a5,a5,a3
   180dc:	0004a023          	sw	zero,0(s1)
   180e0:	0c078063          	beqz	a5,181a0 <__sflush_r+0x11c>
   180e4:	05442503          	lw	a0,84(s0)
   180e8:	00c45783          	lhu	a5,12(s0)
   180ec:	0047f793          	andi	a5,a5,4
   180f0:	00078e63          	beqz	a5,1810c <__sflush_r+0x88>
   180f4:	00442783          	lw	a5,4(s0)
   180f8:	40f50533          	sub	a0,a0,a5
   180fc:	03442783          	lw	a5,52(s0)
   18100:	00078663          	beqz	a5,1810c <__sflush_r+0x88>
   18104:	04042783          	lw	a5,64(s0)
   18108:	40f50533          	sub	a0,a0,a5
   1810c:	02c42783          	lw	a5,44(s0)
   18110:	02042583          	lw	a1,32(s0)
   18114:	00050613          	mv	a2,a0
   18118:	00000693          	li	a3,0
   1811c:	00048513          	mv	a0,s1
   18120:	000780e7          	jalr	a5
   18124:	fff00793          	li	a5,-1
   18128:	00c45703          	lhu	a4,12(s0)
   1812c:	02f51263          	bne	a0,a5,18150 <__sflush_r+0xcc>
   18130:	0004a683          	lw	a3,0(s1)
   18134:	01d00793          	li	a5,29
   18138:	0cd7e663          	bltu	a5,a3,18204 <__sflush_r+0x180>
   1813c:	204007b7          	lui	a5,0x20400
   18140:	00178793          	addi	a5,a5,1 # 20400001 <__BSS_END__+0x203da339>
   18144:	00d7d7b3          	srl	a5,a5,a3
   18148:	0017f793          	andi	a5,a5,1
   1814c:	0a078c63          	beqz	a5,18204 <__sflush_r+0x180>
   18150:	01042783          	lw	a5,16(s0)
   18154:	00042223          	sw	zero,4(s0)
   18158:	00f42023          	sw	a5,0(s0)
   1815c:	000017b7          	lui	a5,0x1
   18160:	00f77733          	and	a4,a4,a5
   18164:	00070c63          	beqz	a4,1817c <__sflush_r+0xf8>
   18168:	fff00793          	li	a5,-1
   1816c:	00f51663          	bne	a0,a5,18178 <__sflush_r+0xf4>
   18170:	0004a783          	lw	a5,0(s1)
   18174:	00079463          	bnez	a5,1817c <__sflush_r+0xf8>
   18178:	04a42a23          	sw	a0,84(s0)
   1817c:	03442583          	lw	a1,52(s0)
   18180:	0124a023          	sw	s2,0(s1)
   18184:	f2058ee3          	beqz	a1,180c0 <__sflush_r+0x3c>
   18188:	04440793          	addi	a5,s0,68
   1818c:	00f58663          	beq	a1,a5,18198 <__sflush_r+0x114>
   18190:	00048513          	mv	a0,s1
   18194:	625000ef          	jal	ra,18fb8 <_free_r>
   18198:	02042a23          	sw	zero,52(s0)
   1819c:	f25ff06f          	j	180c0 <__sflush_r+0x3c>
   181a0:	02042583          	lw	a1,32(s0)
   181a4:	00100693          	li	a3,1
   181a8:	00000613          	li	a2,0
   181ac:	00048513          	mv	a0,s1
   181b0:	000700e7          	jalr	a4
   181b4:	fff00793          	li	a5,-1
   181b8:	f2f518e3          	bne	a0,a5,180e8 <__sflush_r+0x64>
   181bc:	0004a783          	lw	a5,0(s1)
   181c0:	f20784e3          	beqz	a5,180e8 <__sflush_r+0x64>
   181c4:	01d00713          	li	a4,29
   181c8:	00e78663          	beq	a5,a4,181d4 <__sflush_r+0x150>
   181cc:	01600713          	li	a4,22
   181d0:	00e79663          	bne	a5,a4,181dc <__sflush_r+0x158>
   181d4:	0124a023          	sw	s2,0(s1)
   181d8:	ee9ff06f          	j	180c0 <__sflush_r+0x3c>
   181dc:	00c45783          	lhu	a5,12(s0)
   181e0:	0407e793          	ori	a5,a5,64
   181e4:	00f41623          	sh	a5,12(s0)
   181e8:	01c12083          	lw	ra,28(sp)
   181ec:	01812403          	lw	s0,24(sp)
   181f0:	01412483          	lw	s1,20(sp)
   181f4:	01012903          	lw	s2,16(sp)
   181f8:	00c12983          	lw	s3,12(sp)
   181fc:	02010113          	addi	sp,sp,32
   18200:	00008067          	ret
   18204:	04076713          	ori	a4,a4,64
   18208:	00e41623          	sh	a4,12(s0)
   1820c:	fddff06f          	j	181e8 <__sflush_r+0x164>
   18210:	0105a983          	lw	s3,16(a1)
   18214:	ea0986e3          	beqz	s3,180c0 <__sflush_r+0x3c>
   18218:	0005a903          	lw	s2,0(a1)
   1821c:	0037f793          	andi	a5,a5,3
   18220:	0135a023          	sw	s3,0(a1)
   18224:	41390933          	sub	s2,s2,s3
   18228:	00000713          	li	a4,0
   1822c:	00079463          	bnez	a5,18234 <__sflush_r+0x1b0>
   18230:	0145a703          	lw	a4,20(a1)
   18234:	00e42423          	sw	a4,8(s0)
   18238:	e92054e3          	blez	s2,180c0 <__sflush_r+0x3c>
   1823c:	02842783          	lw	a5,40(s0)
   18240:	02042583          	lw	a1,32(s0)
   18244:	00090693          	mv	a3,s2
   18248:	00098613          	mv	a2,s3
   1824c:	00048513          	mv	a0,s1
   18250:	000780e7          	jalr	a5 # 1000 <exit-0xf074>
   18254:	00a04c63          	bgtz	a0,1826c <__sflush_r+0x1e8>
   18258:	00c45783          	lhu	a5,12(s0)
   1825c:	fff00513          	li	a0,-1
   18260:	0407e793          	ori	a5,a5,64
   18264:	00f41623          	sh	a5,12(s0)
   18268:	f81ff06f          	j	181e8 <__sflush_r+0x164>
   1826c:	00a989b3          	add	s3,s3,a0
   18270:	40a90933          	sub	s2,s2,a0
   18274:	fc5ff06f          	j	18238 <__sflush_r+0x1b4>

00018278 <_fflush_r>:
   18278:	0105a783          	lw	a5,16(a1)
   1827c:	08078a63          	beqz	a5,18310 <_fflush_r+0x98>
   18280:	fe010113          	addi	sp,sp,-32
   18284:	00812c23          	sw	s0,24(sp)
   18288:	00112e23          	sw	ra,28(sp)
   1828c:	00050413          	mv	s0,a0
   18290:	00050c63          	beqz	a0,182a8 <_fflush_r+0x30>
   18294:	01852783          	lw	a5,24(a0)
   18298:	00079863          	bnez	a5,182a8 <_fflush_r+0x30>
   1829c:	00b12623          	sw	a1,12(sp)
   182a0:	1a0000ef          	jal	ra,18440 <__sinit>
   182a4:	00c12583          	lw	a1,12(sp)
   182a8:	0001d7b7          	lui	a5,0x1d
   182ac:	64c78793          	addi	a5,a5,1612 # 1d64c <__sf_fake_stdin>
   182b0:	02f59263          	bne	a1,a5,182d4 <_fflush_r+0x5c>
   182b4:	00442583          	lw	a1,4(s0)
   182b8:	00c59783          	lh	a5,12(a1)
   182bc:	04078063          	beqz	a5,182fc <_fflush_r+0x84>
   182c0:	00040513          	mv	a0,s0
   182c4:	01812403          	lw	s0,24(sp)
   182c8:	01c12083          	lw	ra,28(sp)
   182cc:	02010113          	addi	sp,sp,32
   182d0:	db5ff06f          	j	18084 <__sflush_r>
   182d4:	0001d7b7          	lui	a5,0x1d
   182d8:	66c78793          	addi	a5,a5,1644 # 1d66c <__sf_fake_stdout>
   182dc:	00f59663          	bne	a1,a5,182e8 <_fflush_r+0x70>
   182e0:	00842583          	lw	a1,8(s0)
   182e4:	fd5ff06f          	j	182b8 <_fflush_r+0x40>
   182e8:	0001d7b7          	lui	a5,0x1d
   182ec:	62c78793          	addi	a5,a5,1580 # 1d62c <__sf_fake_stderr>
   182f0:	fcf594e3          	bne	a1,a5,182b8 <_fflush_r+0x40>
   182f4:	00c42583          	lw	a1,12(s0)
   182f8:	fc1ff06f          	j	182b8 <_fflush_r+0x40>
   182fc:	01c12083          	lw	ra,28(sp)
   18300:	01812403          	lw	s0,24(sp)
   18304:	00000513          	li	a0,0
   18308:	02010113          	addi	sp,sp,32
   1830c:	00008067          	ret
   18310:	00000513          	li	a0,0
   18314:	00008067          	ret

00018318 <fflush>:
   18318:	00050593          	mv	a1,a0
   1831c:	00051c63          	bnez	a0,18334 <fflush+0x1c>
   18320:	000217b7          	lui	a5,0x21
   18324:	dbc7a503          	lw	a0,-580(a5) # 20dbc <_global_impure_ptr>
   18328:	000185b7          	lui	a1,0x18
   1832c:	27858593          	addi	a1,a1,632 # 18278 <_fflush_r>
   18330:	12d0006f          	j	18c5c <_fwalk_reent>
   18334:	000217b7          	lui	a5,0x21
   18338:	dc07a503          	lw	a0,-576(a5) # 20dc0 <_impure_ptr>
   1833c:	f3dff06f          	j	18278 <_fflush_r>

00018340 <std>:
   18340:	ff010113          	addi	sp,sp,-16
   18344:	00812423          	sw	s0,8(sp)
   18348:	00112623          	sw	ra,12(sp)
   1834c:	00050413          	mv	s0,a0
   18350:	00b51623          	sh	a1,12(a0)
   18354:	00c51723          	sh	a2,14(a0)
   18358:	00052023          	sw	zero,0(a0)
   1835c:	00052223          	sw	zero,4(a0)
   18360:	00052423          	sw	zero,8(a0)
   18364:	06052223          	sw	zero,100(a0)
   18368:	00052823          	sw	zero,16(a0)
   1836c:	00052a23          	sw	zero,20(a0)
   18370:	00052c23          	sw	zero,24(a0)
   18374:	00800613          	li	a2,8
   18378:	00000593          	li	a1,0
   1837c:	05c50513          	addi	a0,a0,92
   18380:	41d000ef          	jal	ra,18f9c <memset>
   18384:	0001a7b7          	lui	a5,0x1a
   18388:	a3878793          	addi	a5,a5,-1480 # 19a38 <__sread>
   1838c:	02f42223          	sw	a5,36(s0)
   18390:	0001a7b7          	lui	a5,0x1a
   18394:	a8878793          	addi	a5,a5,-1400 # 19a88 <__swrite>
   18398:	02f42423          	sw	a5,40(s0)
   1839c:	0001a7b7          	lui	a5,0x1a
   183a0:	b0c78793          	addi	a5,a5,-1268 # 19b0c <__sseek>
   183a4:	02f42623          	sw	a5,44(s0)
   183a8:	0001a7b7          	lui	a5,0x1a
   183ac:	b6478793          	addi	a5,a5,-1180 # 19b64 <__sclose>
   183b0:	00c12083          	lw	ra,12(sp)
   183b4:	02842023          	sw	s0,32(s0)
   183b8:	02f42823          	sw	a5,48(s0)
   183bc:	00812403          	lw	s0,8(sp)
   183c0:	01010113          	addi	sp,sp,16
   183c4:	00008067          	ret

000183c8 <_cleanup_r>:
   183c8:	000185b7          	lui	a1,0x18
   183cc:	27858593          	addi	a1,a1,632 # 18278 <_fflush_r>
   183d0:	08d0006f          	j	18c5c <_fwalk_reent>

000183d4 <__sfmoreglue>:
   183d4:	ff010113          	addi	sp,sp,-16
   183d8:	00912223          	sw	s1,4(sp)
   183dc:	06800613          	li	a2,104
   183e0:	fff58493          	addi	s1,a1,-1
   183e4:	02c484b3          	mul	s1,s1,a2
   183e8:	01212023          	sw	s2,0(sp)
   183ec:	00058913          	mv	s2,a1
   183f0:	00812423          	sw	s0,8(sp)
   183f4:	00112623          	sw	ra,12(sp)
   183f8:	07448593          	addi	a1,s1,116
   183fc:	4c1000ef          	jal	ra,190bc <_malloc_r>
   18400:	00050413          	mv	s0,a0
   18404:	02050063          	beqz	a0,18424 <__sfmoreglue+0x50>
   18408:	00052023          	sw	zero,0(a0)
   1840c:	01252223          	sw	s2,4(a0)
   18410:	00c50513          	addi	a0,a0,12
   18414:	00a42423          	sw	a0,8(s0)
   18418:	06848613          	addi	a2,s1,104
   1841c:	00000593          	li	a1,0
   18420:	37d000ef          	jal	ra,18f9c <memset>
   18424:	00c12083          	lw	ra,12(sp)
   18428:	00040513          	mv	a0,s0
   1842c:	00812403          	lw	s0,8(sp)
   18430:	00412483          	lw	s1,4(sp)
   18434:	00012903          	lw	s2,0(sp)
   18438:	01010113          	addi	sp,sp,16
   1843c:	00008067          	ret

00018440 <__sinit>:
   18440:	01852783          	lw	a5,24(a0)
   18444:	0a079663          	bnez	a5,184f0 <__sinit+0xb0>
   18448:	ff010113          	addi	sp,sp,-16
   1844c:	000187b7          	lui	a5,0x18
   18450:	00812423          	sw	s0,8(sp)
   18454:	00112623          	sw	ra,12(sp)
   18458:	3c878793          	addi	a5,a5,968 # 183c8 <_cleanup_r>
   1845c:	02f52423          	sw	a5,40(a0)
   18460:	000217b7          	lui	a5,0x21
   18464:	dbc7a783          	lw	a5,-580(a5) # 20dbc <_global_impure_ptr>
   18468:	04052423          	sw	zero,72(a0)
   1846c:	04052623          	sw	zero,76(a0)
   18470:	04052823          	sw	zero,80(a0)
   18474:	00050413          	mv	s0,a0
   18478:	00f51663          	bne	a0,a5,18484 <__sinit+0x44>
   1847c:	00100793          	li	a5,1
   18480:	00f52c23          	sw	a5,24(a0)
   18484:	00040513          	mv	a0,s0
   18488:	06c000ef          	jal	ra,184f4 <__sfp>
   1848c:	00a42223          	sw	a0,4(s0)
   18490:	00040513          	mv	a0,s0
   18494:	060000ef          	jal	ra,184f4 <__sfp>
   18498:	00a42423          	sw	a0,8(s0)
   1849c:	00040513          	mv	a0,s0
   184a0:	054000ef          	jal	ra,184f4 <__sfp>
   184a4:	00a42623          	sw	a0,12(s0)
   184a8:	00442503          	lw	a0,4(s0)
   184ac:	00000613          	li	a2,0
   184b0:	00400593          	li	a1,4
   184b4:	e8dff0ef          	jal	ra,18340 <std>
   184b8:	00842503          	lw	a0,8(s0)
   184bc:	00100613          	li	a2,1
   184c0:	00900593          	li	a1,9
   184c4:	e7dff0ef          	jal	ra,18340 <std>
   184c8:	00c42503          	lw	a0,12(s0)
   184cc:	00200613          	li	a2,2
   184d0:	01200593          	li	a1,18
   184d4:	e6dff0ef          	jal	ra,18340 <std>
   184d8:	00100793          	li	a5,1
   184dc:	00c12083          	lw	ra,12(sp)
   184e0:	00f42c23          	sw	a5,24(s0)
   184e4:	00812403          	lw	s0,8(sp)
   184e8:	01010113          	addi	sp,sp,16
   184ec:	00008067          	ret
   184f0:	00008067          	ret

000184f4 <__sfp>:
   184f4:	ff010113          	addi	sp,sp,-16
   184f8:	000217b7          	lui	a5,0x21
   184fc:	00912223          	sw	s1,4(sp)
   18500:	dbc7a483          	lw	s1,-580(a5) # 20dbc <_global_impure_ptr>
   18504:	01212023          	sw	s2,0(sp)
   18508:	00112623          	sw	ra,12(sp)
   1850c:	0184a783          	lw	a5,24(s1)
   18510:	00812423          	sw	s0,8(sp)
   18514:	00050913          	mv	s2,a0
   18518:	00079663          	bnez	a5,18524 <__sfp+0x30>
   1851c:	00048513          	mv	a0,s1
   18520:	f21ff0ef          	jal	ra,18440 <__sinit>
   18524:	04848493          	addi	s1,s1,72
   18528:	0084a403          	lw	s0,8(s1)
   1852c:	0044a783          	lw	a5,4(s1)
   18530:	fff78793          	addi	a5,a5,-1
   18534:	0007da63          	bgez	a5,18548 <__sfp+0x54>
   18538:	0004a783          	lw	a5,0(s1)
   1853c:	08078063          	beqz	a5,185bc <__sfp+0xc8>
   18540:	0004a483          	lw	s1,0(s1)
   18544:	fe5ff06f          	j	18528 <__sfp+0x34>
   18548:	00c41703          	lh	a4,12(s0)
   1854c:	06071463          	bnez	a4,185b4 <__sfp+0xc0>
   18550:	ffff07b7          	lui	a5,0xffff0
   18554:	00178793          	addi	a5,a5,1 # ffff0001 <__BSS_END__+0xfffca339>
   18558:	06042223          	sw	zero,100(s0)
   1855c:	00042023          	sw	zero,0(s0)
   18560:	00042223          	sw	zero,4(s0)
   18564:	00042423          	sw	zero,8(s0)
   18568:	00f42623          	sw	a5,12(s0)
   1856c:	00042823          	sw	zero,16(s0)
   18570:	00042a23          	sw	zero,20(s0)
   18574:	00042c23          	sw	zero,24(s0)
   18578:	00800613          	li	a2,8
   1857c:	00000593          	li	a1,0
   18580:	05c40513          	addi	a0,s0,92
   18584:	219000ef          	jal	ra,18f9c <memset>
   18588:	02042a23          	sw	zero,52(s0)
   1858c:	02042c23          	sw	zero,56(s0)
   18590:	04042423          	sw	zero,72(s0)
   18594:	04042623          	sw	zero,76(s0)
   18598:	00c12083          	lw	ra,12(sp)
   1859c:	00040513          	mv	a0,s0
   185a0:	00812403          	lw	s0,8(sp)
   185a4:	00412483          	lw	s1,4(sp)
   185a8:	00012903          	lw	s2,0(sp)
   185ac:	01010113          	addi	sp,sp,16
   185b0:	00008067          	ret
   185b4:	06840413          	addi	s0,s0,104
   185b8:	f79ff06f          	j	18530 <__sfp+0x3c>
   185bc:	00400593          	li	a1,4
   185c0:	00090513          	mv	a0,s2
   185c4:	e11ff0ef          	jal	ra,183d4 <__sfmoreglue>
   185c8:	00a4a023          	sw	a0,0(s1)
   185cc:	00050413          	mv	s0,a0
   185d0:	f60518e3          	bnez	a0,18540 <__sfp+0x4c>
   185d4:	00c00793          	li	a5,12
   185d8:	00f92023          	sw	a5,0(s2)
   185dc:	fbdff06f          	j	18598 <__sfp+0xa4>

000185e0 <__sfp_lock_acquire>:
   185e0:	00008067          	ret

000185e4 <__sfp_lock_release>:
   185e4:	00008067          	ret

000185e8 <_fopen_r>:
   185e8:	fd010113          	addi	sp,sp,-48
   185ec:	01312e23          	sw	s3,28(sp)
   185f0:	00058993          	mv	s3,a1
   185f4:	00060593          	mv	a1,a2
   185f8:	00c10613          	addi	a2,sp,12
   185fc:	03212023          	sw	s2,32(sp)
   18600:	02112623          	sw	ra,44(sp)
   18604:	02812423          	sw	s0,40(sp)
   18608:	02912223          	sw	s1,36(sp)
   1860c:	00050913          	mv	s2,a0
   18610:	105010ef          	jal	ra,19f14 <__sflags>
   18614:	02051463          	bnez	a0,1863c <_fopen_r+0x54>
   18618:	00000413          	li	s0,0
   1861c:	02c12083          	lw	ra,44(sp)
   18620:	00040513          	mv	a0,s0
   18624:	02812403          	lw	s0,40(sp)
   18628:	02412483          	lw	s1,36(sp)
   1862c:	02012903          	lw	s2,32(sp)
   18630:	01c12983          	lw	s3,28(sp)
   18634:	03010113          	addi	sp,sp,48
   18638:	00008067          	ret
   1863c:	00050493          	mv	s1,a0
   18640:	00090513          	mv	a0,s2
   18644:	eb1ff0ef          	jal	ra,184f4 <__sfp>
   18648:	00050413          	mv	s0,a0
   1864c:	fc0506e3          	beqz	a0,18618 <_fopen_r+0x30>
   18650:	00c12603          	lw	a2,12(sp)
   18654:	1b600693          	li	a3,438
   18658:	00098593          	mv	a1,s3
   1865c:	00090513          	mv	a0,s2
   18660:	3ad000ef          	jal	ra,1920c <_open_r>
   18664:	00055a63          	bgez	a0,18678 <_fopen_r+0x90>
   18668:	f79ff0ef          	jal	ra,185e0 <__sfp_lock_acquire>
   1866c:	00041623          	sh	zero,12(s0)
   18670:	f75ff0ef          	jal	ra,185e4 <__sfp_lock_release>
   18674:	fa5ff06f          	j	18618 <_fopen_r+0x30>
   18678:	0001a7b7          	lui	a5,0x1a
   1867c:	a3878793          	addi	a5,a5,-1480 # 19a38 <__sread>
   18680:	02f42223          	sw	a5,36(s0)
   18684:	0001a7b7          	lui	a5,0x1a
   18688:	a8878793          	addi	a5,a5,-1400 # 19a88 <__swrite>
   1868c:	02f42423          	sw	a5,40(s0)
   18690:	0001a7b7          	lui	a5,0x1a
   18694:	b0c78793          	addi	a5,a5,-1268 # 19b0c <__sseek>
   18698:	02f42623          	sw	a5,44(s0)
   1869c:	0001a7b7          	lui	a5,0x1a
   186a0:	b6478793          	addi	a5,a5,-1180 # 19b64 <__sclose>
   186a4:	00941623          	sh	s1,12(s0)
   186a8:	00a41723          	sh	a0,14(s0)
   186ac:	02842023          	sw	s0,32(s0)
   186b0:	02f42823          	sw	a5,48(s0)
   186b4:	1004f493          	andi	s1,s1,256
   186b8:	f60482e3          	beqz	s1,1861c <_fopen_r+0x34>
   186bc:	00200693          	li	a3,2
   186c0:	00000613          	li	a2,0
   186c4:	00040593          	mv	a1,s0
   186c8:	00090513          	mv	a0,s2
   186cc:	188000ef          	jal	ra,18854 <_fseek_r>
   186d0:	f4dff06f          	j	1861c <_fopen_r+0x34>

000186d4 <fopen>:
   186d4:	000217b7          	lui	a5,0x21
   186d8:	00058613          	mv	a2,a1
   186dc:	00050593          	mv	a1,a0
   186e0:	dc07a503          	lw	a0,-576(a5) # 20dc0 <_impure_ptr>
   186e4:	f05ff06f          	j	185e8 <_fopen_r>

000186e8 <_fread_r>:
   186e8:	fd010113          	addi	sp,sp,-48
   186ec:	01412c23          	sw	s4,24(sp)
   186f0:	02c68a33          	mul	s4,a3,a2
   186f4:	02112623          	sw	ra,44(sp)
   186f8:	02812423          	sw	s0,40(sp)
   186fc:	02912223          	sw	s1,36(sp)
   18700:	03212023          	sw	s2,32(sp)
   18704:	01312e23          	sw	s3,28(sp)
   18708:	01512a23          	sw	s5,20(sp)
   1870c:	01612823          	sw	s6,16(sp)
   18710:	01712623          	sw	s7,12(sp)
   18714:	01812423          	sw	s8,8(sp)
   18718:	0e0a0263          	beqz	s4,187fc <_fread_r+0x114>
   1871c:	00050913          	mv	s2,a0
   18720:	00058a93          	mv	s5,a1
   18724:	00060b93          	mv	s7,a2
   18728:	00068b13          	mv	s6,a3
   1872c:	00070413          	mv	s0,a4
   18730:	00050863          	beqz	a0,18740 <_fread_r+0x58>
   18734:	01852783          	lw	a5,24(a0)
   18738:	00079463          	bnez	a5,18740 <_fread_r+0x58>
   1873c:	d05ff0ef          	jal	ra,18440 <__sinit>
   18740:	0001d7b7          	lui	a5,0x1d
   18744:	64c78793          	addi	a5,a5,1612 # 1d64c <__sf_fake_stdin>
   18748:	04f41863          	bne	s0,a5,18798 <_fread_r+0xb0>
   1874c:	00492403          	lw	s0,4(s2)
   18750:	00442783          	lw	a5,4(s0)
   18754:	0007d463          	bgez	a5,1875c <_fread_r+0x74>
   18758:	00042223          	sw	zero,4(s0)
   1875c:	000a0993          	mv	s3,s4
   18760:	00442483          	lw	s1,4(s0)
   18764:	00042583          	lw	a1,0(s0)
   18768:	0534ec63          	bltu	s1,s3,187c0 <_fread_r+0xd8>
   1876c:	00098613          	mv	a2,s3
   18770:	000a8513          	mv	a0,s5
   18774:	005000ef          	jal	ra,18f78 <memcpy>
   18778:	00442783          	lw	a5,4(s0)
   1877c:	00042483          	lw	s1,0(s0)
   18780:	000b0a13          	mv	s4,s6
   18784:	413787b3          	sub	a5,a5,s3
   18788:	013484b3          	add	s1,s1,s3
   1878c:	00f42223          	sw	a5,4(s0)
   18790:	00942023          	sw	s1,0(s0)
   18794:	0680006f          	j	187fc <_fread_r+0x114>
   18798:	0001d7b7          	lui	a5,0x1d
   1879c:	66c78793          	addi	a5,a5,1644 # 1d66c <__sf_fake_stdout>
   187a0:	00f41663          	bne	s0,a5,187ac <_fread_r+0xc4>
   187a4:	00892403          	lw	s0,8(s2)
   187a8:	fa9ff06f          	j	18750 <_fread_r+0x68>
   187ac:	0001d7b7          	lui	a5,0x1d
   187b0:	62c78793          	addi	a5,a5,1580 # 1d62c <__sf_fake_stderr>
   187b4:	f8f41ee3          	bne	s0,a5,18750 <_fread_r+0x68>
   187b8:	00c92403          	lw	s0,12(s2)
   187bc:	f95ff06f          	j	18750 <_fread_r+0x68>
   187c0:	000a8513          	mv	a0,s5
   187c4:	00048613          	mv	a2,s1
   187c8:	7b0000ef          	jal	ra,18f78 <memcpy>
   187cc:	00042783          	lw	a5,0(s0)
   187d0:	00040593          	mv	a1,s0
   187d4:	00090513          	mv	a0,s2
   187d8:	009787b3          	add	a5,a5,s1
   187dc:	00f42023          	sw	a5,0(s0)
   187e0:	009a8ab3          	add	s5,s5,s1
   187e4:	40998c33          	sub	s8,s3,s1
   187e8:	581000ef          	jal	ra,19568 <__srefill_r>
   187ec:	04050263          	beqz	a0,18830 <_fread_r+0x148>
   187f0:	014484b3          	add	s1,s1,s4
   187f4:	413484b3          	sub	s1,s1,s3
   187f8:	0374da33          	divu	s4,s1,s7
   187fc:	02c12083          	lw	ra,44(sp)
   18800:	02812403          	lw	s0,40(sp)
   18804:	02412483          	lw	s1,36(sp)
   18808:	02012903          	lw	s2,32(sp)
   1880c:	01c12983          	lw	s3,28(sp)
   18810:	01412a83          	lw	s5,20(sp)
   18814:	01012b03          	lw	s6,16(sp)
   18818:	00c12b83          	lw	s7,12(sp)
   1881c:	00812c03          	lw	s8,8(sp)
   18820:	000a0513          	mv	a0,s4
   18824:	01812a03          	lw	s4,24(sp)
   18828:	03010113          	addi	sp,sp,48
   1882c:	00008067          	ret
   18830:	000c0993          	mv	s3,s8
   18834:	f2dff06f          	j	18760 <_fread_r+0x78>

00018838 <fread>:
   18838:	000217b7          	lui	a5,0x21
   1883c:	00068713          	mv	a4,a3
   18840:	00060693          	mv	a3,a2
   18844:	00058613          	mv	a2,a1
   18848:	00050593          	mv	a1,a0
   1884c:	dc07a503          	lw	a0,-576(a5) # 20dc0 <_impure_ptr>
   18850:	e99ff06f          	j	186e8 <_fread_r>

00018854 <_fseek_r>:
   18854:	01c0006f          	j	18870 <_fseeko_r>

00018858 <fseek>:
   18858:	000217b7          	lui	a5,0x21
   1885c:	00060693          	mv	a3,a2
   18860:	00058613          	mv	a2,a1
   18864:	00050593          	mv	a1,a0
   18868:	dc07a503          	lw	a0,-576(a5) # 20dc0 <_impure_ptr>
   1886c:	0040006f          	j	18870 <_fseeko_r>

00018870 <_fseeko_r>:
   18870:	fe010113          	addi	sp,sp,-32
   18874:	00812c23          	sw	s0,24(sp)
   18878:	00912a23          	sw	s1,20(sp)
   1887c:	01312623          	sw	s3,12(sp)
   18880:	01412423          	sw	s4,8(sp)
   18884:	00112e23          	sw	ra,28(sp)
   18888:	01212823          	sw	s2,16(sp)
   1888c:	01512223          	sw	s5,4(sp)
   18890:	00050493          	mv	s1,a0
   18894:	00058413          	mv	s0,a1
   18898:	00060a13          	mv	s4,a2
   1889c:	00068993          	mv	s3,a3
   188a0:	00050863          	beqz	a0,188b0 <_fseeko_r+0x40>
   188a4:	01852783          	lw	a5,24(a0)
   188a8:	00079463          	bnez	a5,188b0 <_fseeko_r+0x40>
   188ac:	b95ff0ef          	jal	ra,18440 <__sinit>
   188b0:	0001d7b7          	lui	a5,0x1d
   188b4:	64c78793          	addi	a5,a5,1612 # 1d64c <__sf_fake_stdin>
   188b8:	0cf41a63          	bne	s0,a5,1898c <_fseeko_r+0x11c>
   188bc:	0044a403          	lw	s0,4(s1)
   188c0:	00c45783          	lhu	a5,12(s0)
   188c4:	10800713          	li	a4,264
   188c8:	1087f793          	andi	a5,a5,264
   188cc:	00e79863          	bne	a5,a4,188dc <_fseeko_r+0x6c>
   188d0:	00040593          	mv	a1,s0
   188d4:	00048513          	mv	a0,s1
   188d8:	9a1ff0ef          	jal	ra,18278 <_fflush_r>
   188dc:	02c42a83          	lw	s5,44(s0)
   188e0:	01d00793          	li	a5,29
   188e4:	180a8663          	beqz	s5,18a70 <_fseeko_r+0x200>
   188e8:	00100793          	li	a5,1
   188ec:	0cf98463          	beq	s3,a5,189b4 <_fseeko_r+0x144>
   188f0:	ffd9f793          	andi	a5,s3,-3
   188f4:	16079c63          	bnez	a5,18a6c <_fseeko_r+0x1fc>
   188f8:	01042783          	lw	a5,16(s0)
   188fc:	00079863          	bnez	a5,1890c <_fseeko_r+0x9c>
   18900:	00040593          	mv	a1,s0
   18904:	00048513          	mv	a0,s1
   18908:	530000ef          	jal	ra,18e38 <__smakebuf_r>
   1890c:	00040593          	mv	a1,s0
   18910:	00048513          	mv	a0,s1
   18914:	965ff0ef          	jal	ra,18278 <_fflush_r>
   18918:	00050913          	mv	s2,a0
   1891c:	10051263          	bnez	a0,18a20 <_fseeko_r+0x1b0>
   18920:	02042583          	lw	a1,32(s0)
   18924:	00098693          	mv	a3,s3
   18928:	000a0613          	mv	a2,s4
   1892c:	00048513          	mv	a0,s1
   18930:	000a80e7          	jalr	s5
   18934:	fff00793          	li	a5,-1
   18938:	0ef50463          	beq	a0,a5,18a20 <_fseeko_r+0x1b0>
   1893c:	03442583          	lw	a1,52(s0)
   18940:	00058c63          	beqz	a1,18958 <_fseeko_r+0xe8>
   18944:	04440793          	addi	a5,s0,68
   18948:	00f58663          	beq	a1,a5,18954 <_fseeko_r+0xe4>
   1894c:	00048513          	mv	a0,s1
   18950:	668000ef          	jal	ra,18fb8 <_free_r>
   18954:	02042a23          	sw	zero,52(s0)
   18958:	01042783          	lw	a5,16(s0)
   1895c:	fffff737          	lui	a4,0xfffff
   18960:	7df70713          	addi	a4,a4,2015 # fffff7df <__BSS_END__+0xfffd9b17>
   18964:	00f42023          	sw	a5,0(s0)
   18968:	00c45783          	lhu	a5,12(s0)
   1896c:	00042223          	sw	zero,4(s0)
   18970:	00800613          	li	a2,8
   18974:	00e7f7b3          	and	a5,a5,a4
   18978:	00f41623          	sh	a5,12(s0)
   1897c:	00000593          	li	a1,0
   18980:	05c40513          	addi	a0,s0,92
   18984:	618000ef          	jal	ra,18f9c <memset>
   18988:	09c0006f          	j	18a24 <_fseeko_r+0x1b4>
   1898c:	0001d7b7          	lui	a5,0x1d
   18990:	66c78793          	addi	a5,a5,1644 # 1d66c <__sf_fake_stdout>
   18994:	00f41663          	bne	s0,a5,189a0 <_fseeko_r+0x130>
   18998:	0084a403          	lw	s0,8(s1)
   1899c:	f25ff06f          	j	188c0 <_fseeko_r+0x50>
   189a0:	0001d7b7          	lui	a5,0x1d
   189a4:	62c78793          	addi	a5,a5,1580 # 1d62c <__sf_fake_stderr>
   189a8:	f0f41ce3          	bne	s0,a5,188c0 <_fseeko_r+0x50>
   189ac:	00c4a403          	lw	s0,12(s1)
   189b0:	f11ff06f          	j	188c0 <_fseeko_r+0x50>
   189b4:	00040593          	mv	a1,s0
   189b8:	00048513          	mv	a0,s1
   189bc:	8bdff0ef          	jal	ra,18278 <_fflush_r>
   189c0:	00c45783          	lhu	a5,12(s0)
   189c4:	00001737          	lui	a4,0x1
   189c8:	00e7f7b3          	and	a5,a5,a4
   189cc:	02078c63          	beqz	a5,18a04 <_fseeko_r+0x194>
   189d0:	05442503          	lw	a0,84(s0)
   189d4:	00c45783          	lhu	a5,12(s0)
   189d8:	0047f713          	andi	a4,a5,4
   189dc:	06070863          	beqz	a4,18a4c <_fseeko_r+0x1dc>
   189e0:	00442783          	lw	a5,4(s0)
   189e4:	40f50533          	sub	a0,a0,a5
   189e8:	03442783          	lw	a5,52(s0)
   189ec:	00078663          	beqz	a5,189f8 <_fseeko_r+0x188>
   189f0:	04042783          	lw	a5,64(s0)
   189f4:	40f50533          	sub	a0,a0,a5
   189f8:	00aa0a33          	add	s4,s4,a0
   189fc:	00000993          	li	s3,0
   18a00:	ef9ff06f          	j	188f8 <_fseeko_r+0x88>
   18a04:	02042583          	lw	a1,32(s0)
   18a08:	00100693          	li	a3,1
   18a0c:	00000613          	li	a2,0
   18a10:	00048513          	mv	a0,s1
   18a14:	000a80e7          	jalr	s5
   18a18:	fff00793          	li	a5,-1
   18a1c:	faf51ce3          	bne	a0,a5,189d4 <_fseeko_r+0x164>
   18a20:	fff00913          	li	s2,-1
   18a24:	01c12083          	lw	ra,28(sp)
   18a28:	01812403          	lw	s0,24(sp)
   18a2c:	01412483          	lw	s1,20(sp)
   18a30:	00c12983          	lw	s3,12(sp)
   18a34:	00812a03          	lw	s4,8(sp)
   18a38:	00412a83          	lw	s5,4(sp)
   18a3c:	00090513          	mv	a0,s2
   18a40:	01012903          	lw	s2,16(sp)
   18a44:	02010113          	addi	sp,sp,32
   18a48:	00008067          	ret
   18a4c:	0087f793          	andi	a5,a5,8
   18a50:	fa0784e3          	beqz	a5,189f8 <_fseeko_r+0x188>
   18a54:	00042783          	lw	a5,0(s0)
   18a58:	01042703          	lw	a4,16(s0)
   18a5c:	f8078ee3          	beqz	a5,189f8 <_fseeko_r+0x188>
   18a60:	40e787b3          	sub	a5,a5,a4
   18a64:	00f50533          	add	a0,a0,a5
   18a68:	f91ff06f          	j	189f8 <_fseeko_r+0x188>
   18a6c:	01600793          	li	a5,22
   18a70:	00f4a023          	sw	a5,0(s1)
   18a74:	fadff06f          	j	18a20 <_fseeko_r+0x1b0>

00018a78 <ftell>:
   18a78:	000217b7          	lui	a5,0x21
   18a7c:	00050593          	mv	a1,a0
   18a80:	dc07a503          	lw	a0,-576(a5) # 20dc0 <_impure_ptr>
   18a84:	0040006f          	j	18a88 <_ftello_r>

00018a88 <_ftello_r>:
   18a88:	ff010113          	addi	sp,sp,-16
   18a8c:	00812423          	sw	s0,8(sp)
   18a90:	00912223          	sw	s1,4(sp)
   18a94:	00112623          	sw	ra,12(sp)
   18a98:	00050493          	mv	s1,a0
   18a9c:	00058413          	mv	s0,a1
   18aa0:	00050863          	beqz	a0,18ab0 <_ftello_r+0x28>
   18aa4:	01852783          	lw	a5,24(a0)
   18aa8:	00079463          	bnez	a5,18ab0 <_ftello_r+0x28>
   18aac:	995ff0ef          	jal	ra,18440 <__sinit>
   18ab0:	0001d7b7          	lui	a5,0x1d
   18ab4:	64c78793          	addi	a5,a5,1612 # 1d64c <__sf_fake_stdin>
   18ab8:	02f41863          	bne	s0,a5,18ae8 <_ftello_r+0x60>
   18abc:	0044a403          	lw	s0,4(s1)
   18ac0:	02c42803          	lw	a6,44(s0)
   18ac4:	04081663          	bnez	a6,18b10 <_ftello_r+0x88>
   18ac8:	01d00793          	li	a5,29
   18acc:	00f4a023          	sw	a5,0(s1)
   18ad0:	fff00513          	li	a0,-1
   18ad4:	00c12083          	lw	ra,12(sp)
   18ad8:	00812403          	lw	s0,8(sp)
   18adc:	00412483          	lw	s1,4(sp)
   18ae0:	01010113          	addi	sp,sp,16
   18ae4:	00008067          	ret
   18ae8:	0001d7b7          	lui	a5,0x1d
   18aec:	66c78793          	addi	a5,a5,1644 # 1d66c <__sf_fake_stdout>
   18af0:	00f41663          	bne	s0,a5,18afc <_ftello_r+0x74>
   18af4:	0084a403          	lw	s0,8(s1)
   18af8:	fc9ff06f          	j	18ac0 <_ftello_r+0x38>
   18afc:	0001d7b7          	lui	a5,0x1d
   18b00:	62c78793          	addi	a5,a5,1580 # 1d62c <__sf_fake_stderr>
   18b04:	faf41ee3          	bne	s0,a5,18ac0 <_ftello_r+0x38>
   18b08:	00c4a403          	lw	s0,12(s1)
   18b0c:	fb5ff06f          	j	18ac0 <_ftello_r+0x38>
   18b10:	00c45783          	lhu	a5,12(s0)
   18b14:	00800713          	li	a4,8
   18b18:	00c7f693          	andi	a3,a5,12
   18b1c:	06e69263          	bne	a3,a4,18b80 <_ftello_r+0xf8>
   18b20:	00042703          	lw	a4,0(s0)
   18b24:	04070e63          	beqz	a4,18b80 <_ftello_r+0xf8>
   18b28:	01042683          	lw	a3,16(s0)
   18b2c:	40d70733          	sub	a4,a4,a3
   18b30:	04e05863          	blez	a4,18b80 <_ftello_r+0xf8>
   18b34:	1007f713          	andi	a4,a5,256
   18b38:	04070463          	beqz	a4,18b80 <_ftello_r+0xf8>
   18b3c:	00200693          	li	a3,2
   18b40:	02042583          	lw	a1,32(s0)
   18b44:	00000613          	li	a2,0
   18b48:	00048513          	mv	a0,s1
   18b4c:	000800e7          	jalr	a6
   18b50:	fff00793          	li	a5,-1
   18b54:	f6f50ee3          	beq	a0,a5,18ad0 <_ftello_r+0x48>
   18b58:	00c45783          	lhu	a5,12(s0)
   18b5c:	0047f713          	andi	a4,a5,4
   18b60:	02070e63          	beqz	a4,18b9c <_ftello_r+0x114>
   18b64:	00442783          	lw	a5,4(s0)
   18b68:	40f50533          	sub	a0,a0,a5
   18b6c:	03442783          	lw	a5,52(s0)
   18b70:	f60782e3          	beqz	a5,18ad4 <_ftello_r+0x4c>
   18b74:	04042783          	lw	a5,64(s0)
   18b78:	40f50533          	sub	a0,a0,a5
   18b7c:	f59ff06f          	j	18ad4 <_ftello_r+0x4c>
   18b80:	00001737          	lui	a4,0x1
   18b84:	00e7f7b3          	and	a5,a5,a4
   18b88:	00078663          	beqz	a5,18b94 <_ftello_r+0x10c>
   18b8c:	05442503          	lw	a0,84(s0)
   18b90:	fc9ff06f          	j	18b58 <_ftello_r+0xd0>
   18b94:	00100693          	li	a3,1
   18b98:	fa9ff06f          	j	18b40 <_ftello_r+0xb8>
   18b9c:	0087f793          	andi	a5,a5,8
   18ba0:	f2078ae3          	beqz	a5,18ad4 <_ftello_r+0x4c>
   18ba4:	00042783          	lw	a5,0(s0)
   18ba8:	f20786e3          	beqz	a5,18ad4 <_ftello_r+0x4c>
   18bac:	01042703          	lw	a4,16(s0)
   18bb0:	40e787b3          	sub	a5,a5,a4
   18bb4:	00f50533          	add	a0,a0,a5
   18bb8:	f1dff06f          	j	18ad4 <_ftello_r+0x4c>

00018bbc <_fwalk>:
   18bbc:	fe010113          	addi	sp,sp,-32
   18bc0:	00812c23          	sw	s0,24(sp)
   18bc4:	01212823          	sw	s2,16(sp)
   18bc8:	01312623          	sw	s3,12(sp)
   18bcc:	01512223          	sw	s5,4(sp)
   18bd0:	01612023          	sw	s6,0(sp)
   18bd4:	00112e23          	sw	ra,28(sp)
   18bd8:	00912a23          	sw	s1,20(sp)
   18bdc:	01412423          	sw	s4,8(sp)
   18be0:	00058993          	mv	s3,a1
   18be4:	04850413          	addi	s0,a0,72
   18be8:	00000913          	li	s2,0
   18bec:	00100a93          	li	s5,1
   18bf0:	fff00b13          	li	s6,-1
   18bf4:	00842483          	lw	s1,8(s0)
   18bf8:	00442a03          	lw	s4,4(s0)
   18bfc:	fffa0a13          	addi	s4,s4,-1 # 1fffff <__BSS_END__+0x1da337>
   18c00:	020a5c63          	bgez	s4,18c38 <_fwalk+0x7c>
   18c04:	00042403          	lw	s0,0(s0)
   18c08:	fe0416e3          	bnez	s0,18bf4 <_fwalk+0x38>
   18c0c:	01c12083          	lw	ra,28(sp)
   18c10:	01812403          	lw	s0,24(sp)
   18c14:	01412483          	lw	s1,20(sp)
   18c18:	00c12983          	lw	s3,12(sp)
   18c1c:	00812a03          	lw	s4,8(sp)
   18c20:	00412a83          	lw	s5,4(sp)
   18c24:	00012b03          	lw	s6,0(sp)
   18c28:	00090513          	mv	a0,s2
   18c2c:	01012903          	lw	s2,16(sp)
   18c30:	02010113          	addi	sp,sp,32
   18c34:	00008067          	ret
   18c38:	00c4d783          	lhu	a5,12(s1)
   18c3c:	00fafc63          	bgeu	s5,a5,18c54 <_fwalk+0x98>
   18c40:	00e49783          	lh	a5,14(s1)
   18c44:	01678863          	beq	a5,s6,18c54 <_fwalk+0x98>
   18c48:	00048513          	mv	a0,s1
   18c4c:	000980e7          	jalr	s3
   18c50:	00a96933          	or	s2,s2,a0
   18c54:	06848493          	addi	s1,s1,104
   18c58:	fa5ff06f          	j	18bfc <_fwalk+0x40>

00018c5c <_fwalk_reent>:
   18c5c:	fd010113          	addi	sp,sp,-48
   18c60:	02812423          	sw	s0,40(sp)
   18c64:	03212023          	sw	s2,32(sp)
   18c68:	01312e23          	sw	s3,28(sp)
   18c6c:	01412c23          	sw	s4,24(sp)
   18c70:	01612823          	sw	s6,16(sp)
   18c74:	01712623          	sw	s7,12(sp)
   18c78:	02112623          	sw	ra,44(sp)
   18c7c:	02912223          	sw	s1,36(sp)
   18c80:	01512a23          	sw	s5,20(sp)
   18c84:	00050913          	mv	s2,a0
   18c88:	00058a13          	mv	s4,a1
   18c8c:	04850413          	addi	s0,a0,72
   18c90:	00000993          	li	s3,0
   18c94:	00100b13          	li	s6,1
   18c98:	fff00b93          	li	s7,-1
   18c9c:	00842483          	lw	s1,8(s0)
   18ca0:	00442a83          	lw	s5,4(s0)
   18ca4:	fffa8a93          	addi	s5,s5,-1
   18ca8:	020ade63          	bgez	s5,18ce4 <_fwalk_reent+0x88>
   18cac:	00042403          	lw	s0,0(s0)
   18cb0:	fe0416e3          	bnez	s0,18c9c <_fwalk_reent+0x40>
   18cb4:	02c12083          	lw	ra,44(sp)
   18cb8:	02812403          	lw	s0,40(sp)
   18cbc:	02412483          	lw	s1,36(sp)
   18cc0:	02012903          	lw	s2,32(sp)
   18cc4:	01812a03          	lw	s4,24(sp)
   18cc8:	01412a83          	lw	s5,20(sp)
   18ccc:	01012b03          	lw	s6,16(sp)
   18cd0:	00c12b83          	lw	s7,12(sp)
   18cd4:	00098513          	mv	a0,s3
   18cd8:	01c12983          	lw	s3,28(sp)
   18cdc:	03010113          	addi	sp,sp,48
   18ce0:	00008067          	ret
   18ce4:	00c4d783          	lhu	a5,12(s1)
   18ce8:	00fb7e63          	bgeu	s6,a5,18d04 <_fwalk_reent+0xa8>
   18cec:	00e49783          	lh	a5,14(s1)
   18cf0:	01778a63          	beq	a5,s7,18d04 <_fwalk_reent+0xa8>
   18cf4:	00048593          	mv	a1,s1
   18cf8:	00090513          	mv	a0,s2
   18cfc:	000a00e7          	jalr	s4
   18d00:	00a9e9b3          	or	s3,s3,a0
   18d04:	06848493          	addi	s1,s1,104
   18d08:	f9dff06f          	j	18ca4 <_fwalk_reent+0x48>

00018d0c <__libc_init_array>:
   18d0c:	ff010113          	addi	sp,sp,-16
   18d10:	00812423          	sw	s0,8(sp)
   18d14:	00912223          	sw	s1,4(sp)
   18d18:	0001f437          	lui	s0,0x1f
   18d1c:	0001f4b7          	lui	s1,0x1f
   18d20:	62048793          	addi	a5,s1,1568 # 1f620 <__frame_dummy_init_array_entry>
   18d24:	62040413          	addi	s0,s0,1568 # 1f620 <__frame_dummy_init_array_entry>
   18d28:	40f40433          	sub	s0,s0,a5
   18d2c:	01212023          	sw	s2,0(sp)
   18d30:	00112623          	sw	ra,12(sp)
   18d34:	40245413          	srai	s0,s0,0x2
   18d38:	62048493          	addi	s1,s1,1568
   18d3c:	00000913          	li	s2,0
   18d40:	04891063          	bne	s2,s0,18d80 <__libc_init_array+0x74>
   18d44:	0001f4b7          	lui	s1,0x1f
   18d48:	0001f437          	lui	s0,0x1f
   18d4c:	62048793          	addi	a5,s1,1568 # 1f620 <__frame_dummy_init_array_entry>
   18d50:	62440413          	addi	s0,s0,1572 # 1f624 <__do_global_dtors_aux_fini_array_entry>
   18d54:	40f40433          	sub	s0,s0,a5
   18d58:	40245413          	srai	s0,s0,0x2
   18d5c:	62048493          	addi	s1,s1,1568
   18d60:	00000913          	li	s2,0
   18d64:	02891863          	bne	s2,s0,18d94 <__libc_init_array+0x88>
   18d68:	00c12083          	lw	ra,12(sp)
   18d6c:	00812403          	lw	s0,8(sp)
   18d70:	00412483          	lw	s1,4(sp)
   18d74:	00012903          	lw	s2,0(sp)
   18d78:	01010113          	addi	sp,sp,16
   18d7c:	00008067          	ret
   18d80:	0004a783          	lw	a5,0(s1)
   18d84:	00190913          	addi	s2,s2,1
   18d88:	00448493          	addi	s1,s1,4
   18d8c:	000780e7          	jalr	a5
   18d90:	fb1ff06f          	j	18d40 <__libc_init_array+0x34>
   18d94:	0004a783          	lw	a5,0(s1)
   18d98:	00190913          	addi	s2,s2,1
   18d9c:	00448493          	addi	s1,s1,4
   18da0:	000780e7          	jalr	a5
   18da4:	fc1ff06f          	j	18d64 <__libc_init_array+0x58>

00018da8 <__swhatbuf_r>:
   18da8:	f9010113          	addi	sp,sp,-112
   18dac:	07212023          	sw	s2,96(sp)
   18db0:	00058913          	mv	s2,a1
   18db4:	00e59583          	lh	a1,14(a1)
   18db8:	06812423          	sw	s0,104(sp)
   18dbc:	06912223          	sw	s1,100(sp)
   18dc0:	06112623          	sw	ra,108(sp)
   18dc4:	00060413          	mv	s0,a2
   18dc8:	00068493          	mv	s1,a3
   18dcc:	0005de63          	bgez	a1,18de8 <__swhatbuf_r+0x40>
   18dd0:	00c91783          	lh	a5,12(s2)
   18dd4:	0004a023          	sw	zero,0(s1)
   18dd8:	0807f793          	andi	a5,a5,128
   18ddc:	02079c63          	bnez	a5,18e14 <__swhatbuf_r+0x6c>
   18de0:	40000793          	li	a5,1024
   18de4:	0340006f          	j	18e18 <__swhatbuf_r+0x70>
   18de8:	00810613          	addi	a2,sp,8
   18dec:	1d0010ef          	jal	ra,19fbc <_fstat_r>
   18df0:	fe0540e3          	bltz	a0,18dd0 <__swhatbuf_r+0x28>
   18df4:	00c12703          	lw	a4,12(sp)
   18df8:	0000f7b7          	lui	a5,0xf
   18dfc:	00e7f7b3          	and	a5,a5,a4
   18e00:	ffffe737          	lui	a4,0xffffe
   18e04:	00e787b3          	add	a5,a5,a4
   18e08:	0017b793          	seqz	a5,a5
   18e0c:	00f4a023          	sw	a5,0(s1)
   18e10:	fd1ff06f          	j	18de0 <__swhatbuf_r+0x38>
   18e14:	04000793          	li	a5,64
   18e18:	06c12083          	lw	ra,108(sp)
   18e1c:	00f42023          	sw	a5,0(s0)
   18e20:	06812403          	lw	s0,104(sp)
   18e24:	06412483          	lw	s1,100(sp)
   18e28:	06012903          	lw	s2,96(sp)
   18e2c:	00000513          	li	a0,0
   18e30:	07010113          	addi	sp,sp,112
   18e34:	00008067          	ret

00018e38 <__smakebuf_r>:
   18e38:	00c5d783          	lhu	a5,12(a1)
   18e3c:	fe010113          	addi	sp,sp,-32
   18e40:	00812c23          	sw	s0,24(sp)
   18e44:	00112e23          	sw	ra,28(sp)
   18e48:	00912a23          	sw	s1,20(sp)
   18e4c:	01212823          	sw	s2,16(sp)
   18e50:	0027f793          	andi	a5,a5,2
   18e54:	00058413          	mv	s0,a1
   18e58:	02078863          	beqz	a5,18e88 <__smakebuf_r+0x50>
   18e5c:	04740793          	addi	a5,s0,71
   18e60:	00f42023          	sw	a5,0(s0)
   18e64:	00f42823          	sw	a5,16(s0)
   18e68:	00100793          	li	a5,1
   18e6c:	00f42a23          	sw	a5,20(s0)
   18e70:	01c12083          	lw	ra,28(sp)
   18e74:	01812403          	lw	s0,24(sp)
   18e78:	01412483          	lw	s1,20(sp)
   18e7c:	01012903          	lw	s2,16(sp)
   18e80:	02010113          	addi	sp,sp,32
   18e84:	00008067          	ret
   18e88:	00c10693          	addi	a3,sp,12
   18e8c:	00810613          	addi	a2,sp,8
   18e90:	00050913          	mv	s2,a0
   18e94:	f15ff0ef          	jal	ra,18da8 <__swhatbuf_r>
   18e98:	00812583          	lw	a1,8(sp)
   18e9c:	00050493          	mv	s1,a0
   18ea0:	00090513          	mv	a0,s2
   18ea4:	218000ef          	jal	ra,190bc <_malloc_r>
   18ea8:	02051063          	bnez	a0,18ec8 <__smakebuf_r+0x90>
   18eac:	00c41783          	lh	a5,12(s0)
   18eb0:	2007f713          	andi	a4,a5,512
   18eb4:	fa071ee3          	bnez	a4,18e70 <__smakebuf_r+0x38>
   18eb8:	ffc7f793          	andi	a5,a5,-4
   18ebc:	0027e793          	ori	a5,a5,2
   18ec0:	00f41623          	sh	a5,12(s0)
   18ec4:	f99ff06f          	j	18e5c <__smakebuf_r+0x24>
   18ec8:	000187b7          	lui	a5,0x18
   18ecc:	3c878793          	addi	a5,a5,968 # 183c8 <_cleanup_r>
   18ed0:	02f92423          	sw	a5,40(s2)
   18ed4:	00c45783          	lhu	a5,12(s0)
   18ed8:	00a42023          	sw	a0,0(s0)
   18edc:	00a42823          	sw	a0,16(s0)
   18ee0:	0807e793          	ori	a5,a5,128
   18ee4:	00f41623          	sh	a5,12(s0)
   18ee8:	00812783          	lw	a5,8(sp)
   18eec:	00f42a23          	sw	a5,20(s0)
   18ef0:	00c12783          	lw	a5,12(sp)
   18ef4:	02078263          	beqz	a5,18f18 <__smakebuf_r+0xe0>
   18ef8:	00e41583          	lh	a1,14(s0)
   18efc:	00090513          	mv	a0,s2
   18f00:	108010ef          	jal	ra,1a008 <_isatty_r>
   18f04:	00050a63          	beqz	a0,18f18 <__smakebuf_r+0xe0>
   18f08:	00c45783          	lhu	a5,12(s0)
   18f0c:	ffc7f793          	andi	a5,a5,-4
   18f10:	0017e793          	ori	a5,a5,1
   18f14:	00f41623          	sh	a5,12(s0)
   18f18:	00c45503          	lhu	a0,12(s0)
   18f1c:	00a4e4b3          	or	s1,s1,a0
   18f20:	00941623          	sh	s1,12(s0)
   18f24:	f4dff06f          	j	18e70 <__smakebuf_r+0x38>

00018f28 <malloc>:
   18f28:	000217b7          	lui	a5,0x21
   18f2c:	00050593          	mv	a1,a0
   18f30:	dc07a503          	lw	a0,-576(a5) # 20dc0 <_impure_ptr>
   18f34:	1880006f          	j	190bc <_malloc_r>

00018f38 <free>:
   18f38:	000217b7          	lui	a5,0x21
   18f3c:	00050593          	mv	a1,a0
   18f40:	dc07a503          	lw	a0,-576(a5) # 20dc0 <_impure_ptr>
   18f44:	0740006f          	j	18fb8 <_free_r>

00018f48 <memcmp>:
   18f48:	00000713          	li	a4,0
   18f4c:	00e61663          	bne	a2,a4,18f58 <memcmp+0x10>
   18f50:	00000513          	li	a0,0
   18f54:	00008067          	ret
   18f58:	00e507b3          	add	a5,a0,a4
   18f5c:	00170713          	addi	a4,a4,1 # ffffe001 <__BSS_END__+0xfffd8339>
   18f60:	00e586b3          	add	a3,a1,a4
   18f64:	0007c783          	lbu	a5,0(a5)
   18f68:	fff6c683          	lbu	a3,-1(a3) # fff <exit-0xf075>
   18f6c:	fed780e3          	beq	a5,a3,18f4c <memcmp+0x4>
   18f70:	40d78533          	sub	a0,a5,a3
   18f74:	00008067          	ret

00018f78 <memcpy>:
   18f78:	00050313          	mv	t1,a0
   18f7c:	00060e63          	beqz	a2,18f98 <memcpy+0x20>
   18f80:	00058383          	lb	t2,0(a1)
   18f84:	00730023          	sb	t2,0(t1)
   18f88:	fff60613          	addi	a2,a2,-1
   18f8c:	00130313          	addi	t1,t1,1
   18f90:	00158593          	addi	a1,a1,1
   18f94:	fe0616e3          	bnez	a2,18f80 <memcpy+0x8>
   18f98:	00008067          	ret

00018f9c <memset>:
   18f9c:	00050313          	mv	t1,a0
   18fa0:	00060a63          	beqz	a2,18fb4 <memset+0x18>
   18fa4:	00b30023          	sb	a1,0(t1)
   18fa8:	fff60613          	addi	a2,a2,-1
   18fac:	00130313          	addi	t1,t1,1
   18fb0:	fe061ae3          	bnez	a2,18fa4 <memset+0x8>
   18fb4:	00008067          	ret

00018fb8 <_free_r>:
   18fb8:	10058063          	beqz	a1,190b8 <_free_r+0x100>
   18fbc:	ffc5a783          	lw	a5,-4(a1)
   18fc0:	fe010113          	addi	sp,sp,-32
   18fc4:	00812c23          	sw	s0,24(sp)
   18fc8:	00112e23          	sw	ra,28(sp)
   18fcc:	ffc58413          	addi	s0,a1,-4
   18fd0:	0007d463          	bgez	a5,18fd8 <_free_r+0x20>
   18fd4:	00f40433          	add	s0,s0,a5
   18fd8:	00a12623          	sw	a0,12(sp)
   18fdc:	0c4010ef          	jal	ra,1a0a0 <__malloc_lock>
   18fe0:	00021737          	lui	a4,0x21
   18fe4:	dc472783          	lw	a5,-572(a4) # 20dc4 <__malloc_free_list>
   18fe8:	00c12503          	lw	a0,12(sp)
   18fec:	00070613          	mv	a2,a4
   18ff0:	00079e63          	bnez	a5,1900c <_free_r+0x54>
   18ff4:	00042223          	sw	zero,4(s0)
   18ff8:	dc872223          	sw	s0,-572(a4)
   18ffc:	01812403          	lw	s0,24(sp)
   19000:	01c12083          	lw	ra,28(sp)
   19004:	02010113          	addi	sp,sp,32
   19008:	09c0106f          	j	1a0a4 <__malloc_unlock>
   1900c:	02f47663          	bgeu	s0,a5,19038 <_free_r+0x80>
   19010:	00042683          	lw	a3,0(s0)
   19014:	00d40733          	add	a4,s0,a3
   19018:	00e79a63          	bne	a5,a4,1902c <_free_r+0x74>
   1901c:	0007a703          	lw	a4,0(a5)
   19020:	0047a783          	lw	a5,4(a5)
   19024:	00d70733          	add	a4,a4,a3
   19028:	00e42023          	sw	a4,0(s0)
   1902c:	00f42223          	sw	a5,4(s0)
   19030:	dc862223          	sw	s0,-572(a2)
   19034:	fc9ff06f          	j	18ffc <_free_r+0x44>
   19038:	00078713          	mv	a4,a5
   1903c:	0047a783          	lw	a5,4(a5)
   19040:	00078463          	beqz	a5,19048 <_free_r+0x90>
   19044:	fef47ae3          	bgeu	s0,a5,19038 <_free_r+0x80>
   19048:	00072683          	lw	a3,0(a4)
   1904c:	00d70633          	add	a2,a4,a3
   19050:	02861863          	bne	a2,s0,19080 <_free_r+0xc8>
   19054:	00042603          	lw	a2,0(s0)
   19058:	00c686b3          	add	a3,a3,a2
   1905c:	00d72023          	sw	a3,0(a4)
   19060:	00d70633          	add	a2,a4,a3
   19064:	f8c79ce3          	bne	a5,a2,18ffc <_free_r+0x44>
   19068:	0007a603          	lw	a2,0(a5)
   1906c:	0047a783          	lw	a5,4(a5)
   19070:	00d606b3          	add	a3,a2,a3
   19074:	00d72023          	sw	a3,0(a4)
   19078:	00f72223          	sw	a5,4(a4)
   1907c:	f81ff06f          	j	18ffc <_free_r+0x44>
   19080:	00c47863          	bgeu	s0,a2,19090 <_free_r+0xd8>
   19084:	00c00793          	li	a5,12
   19088:	00f52023          	sw	a5,0(a0)
   1908c:	f71ff06f          	j	18ffc <_free_r+0x44>
   19090:	00042603          	lw	a2,0(s0)
   19094:	00c406b3          	add	a3,s0,a2
   19098:	00d79a63          	bne	a5,a3,190ac <_free_r+0xf4>
   1909c:	0007a683          	lw	a3,0(a5)
   190a0:	0047a783          	lw	a5,4(a5)
   190a4:	00c686b3          	add	a3,a3,a2
   190a8:	00d42023          	sw	a3,0(s0)
   190ac:	00f42223          	sw	a5,4(s0)
   190b0:	00872223          	sw	s0,4(a4)
   190b4:	f49ff06f          	j	18ffc <_free_r+0x44>
   190b8:	00008067          	ret

000190bc <_malloc_r>:
   190bc:	fe010113          	addi	sp,sp,-32
   190c0:	00912a23          	sw	s1,20(sp)
   190c4:	00358493          	addi	s1,a1,3
   190c8:	ffc4f493          	andi	s1,s1,-4
   190cc:	01212823          	sw	s2,16(sp)
   190d0:	00112e23          	sw	ra,28(sp)
   190d4:	00812c23          	sw	s0,24(sp)
   190d8:	01312623          	sw	s3,12(sp)
   190dc:	00848493          	addi	s1,s1,8
   190e0:	00c00793          	li	a5,12
   190e4:	00050913          	mv	s2,a0
   190e8:	06f4f463          	bgeu	s1,a5,19150 <_malloc_r+0x94>
   190ec:	00c00493          	li	s1,12
   190f0:	06b4e263          	bltu	s1,a1,19154 <_malloc_r+0x98>
   190f4:	00090513          	mv	a0,s2
   190f8:	7a9000ef          	jal	ra,1a0a0 <__malloc_lock>
   190fc:	8081a703          	lw	a4,-2040(gp) # 20dc4 <__malloc_free_list>
   19100:	80818693          	addi	a3,gp,-2040 # 20dc4 <__malloc_free_list>
   19104:	00070413          	mv	s0,a4
   19108:	06041a63          	bnez	s0,1917c <_malloc_r+0xc0>
   1910c:	80c18413          	addi	s0,gp,-2036 # 20dc8 <__malloc_sbrk_start>
   19110:	00042783          	lw	a5,0(s0)
   19114:	00079a63          	bnez	a5,19128 <_malloc_r+0x6c>
   19118:	00000593          	li	a1,0
   1911c:	00090513          	mv	a0,s2
   19120:	628000ef          	jal	ra,19748 <_sbrk_r>
   19124:	00a42023          	sw	a0,0(s0)
   19128:	00048593          	mv	a1,s1
   1912c:	00090513          	mv	a0,s2
   19130:	618000ef          	jal	ra,19748 <_sbrk_r>
   19134:	fff00993          	li	s3,-1
   19138:	0b351a63          	bne	a0,s3,191ec <_malloc_r+0x130>
   1913c:	00c00793          	li	a5,12
   19140:	00f92023          	sw	a5,0(s2)
   19144:	00090513          	mv	a0,s2
   19148:	75d000ef          	jal	ra,1a0a4 <__malloc_unlock>
   1914c:	0100006f          	j	1915c <_malloc_r+0xa0>
   19150:	fa04d0e3          	bgez	s1,190f0 <_malloc_r+0x34>
   19154:	00c00793          	li	a5,12
   19158:	00f92023          	sw	a5,0(s2)
   1915c:	00000513          	li	a0,0
   19160:	01c12083          	lw	ra,28(sp)
   19164:	01812403          	lw	s0,24(sp)
   19168:	01412483          	lw	s1,20(sp)
   1916c:	01012903          	lw	s2,16(sp)
   19170:	00c12983          	lw	s3,12(sp)
   19174:	02010113          	addi	sp,sp,32
   19178:	00008067          	ret
   1917c:	00042783          	lw	a5,0(s0)
   19180:	409787b3          	sub	a5,a5,s1
   19184:	0407ce63          	bltz	a5,191e0 <_malloc_r+0x124>
   19188:	00b00613          	li	a2,11
   1918c:	00f67a63          	bgeu	a2,a5,191a0 <_malloc_r+0xe4>
   19190:	00f42023          	sw	a5,0(s0)
   19194:	00f40433          	add	s0,s0,a5
   19198:	00942023          	sw	s1,0(s0)
   1919c:	0100006f          	j	191ac <_malloc_r+0xf0>
   191a0:	00442783          	lw	a5,4(s0)
   191a4:	02871a63          	bne	a4,s0,191d8 <_malloc_r+0x11c>
   191a8:	00f6a023          	sw	a5,0(a3)
   191ac:	00090513          	mv	a0,s2
   191b0:	6f5000ef          	jal	ra,1a0a4 <__malloc_unlock>
   191b4:	00b40513          	addi	a0,s0,11
   191b8:	00440793          	addi	a5,s0,4
   191bc:	ff857513          	andi	a0,a0,-8
   191c0:	40f50733          	sub	a4,a0,a5
   191c4:	f8f50ee3          	beq	a0,a5,19160 <_malloc_r+0xa4>
   191c8:	00e40433          	add	s0,s0,a4
   191cc:	40a787b3          	sub	a5,a5,a0
   191d0:	00f42023          	sw	a5,0(s0)
   191d4:	f8dff06f          	j	19160 <_malloc_r+0xa4>
   191d8:	00f72223          	sw	a5,4(a4)
   191dc:	fd1ff06f          	j	191ac <_malloc_r+0xf0>
   191e0:	00040713          	mv	a4,s0
   191e4:	00442403          	lw	s0,4(s0)
   191e8:	f21ff06f          	j	19108 <_malloc_r+0x4c>
   191ec:	00350413          	addi	s0,a0,3
   191f0:	ffc47413          	andi	s0,s0,-4
   191f4:	fa8502e3          	beq	a0,s0,19198 <_malloc_r+0xdc>
   191f8:	40a405b3          	sub	a1,s0,a0
   191fc:	00090513          	mv	a0,s2
   19200:	548000ef          	jal	ra,19748 <_sbrk_r>
   19204:	f9351ae3          	bne	a0,s3,19198 <_malloc_r+0xdc>
   19208:	f35ff06f          	j	1913c <_malloc_r+0x80>

0001920c <_open_r>:
   1920c:	ff010113          	addi	sp,sp,-16
   19210:	00812423          	sw	s0,8(sp)
   19214:	00912223          	sw	s1,4(sp)
   19218:	00050413          	mv	s0,a0
   1921c:	00058513          	mv	a0,a1
   19220:	00060593          	mv	a1,a2
   19224:	00068613          	mv	a2,a3
   19228:	00112623          	sw	ra,12(sp)
   1922c:	8001a823          	sw	zero,-2032(gp) # 20dcc <errno>
   19230:	ecdfa0ef          	jal	ra,140fc <_open>
   19234:	fff00793          	li	a5,-1
   19238:	00f51863          	bne	a0,a5,19248 <_open_r+0x3c>
   1923c:	8101a783          	lw	a5,-2032(gp) # 20dcc <errno>
   19240:	00078463          	beqz	a5,19248 <_open_r+0x3c>
   19244:	00f42023          	sw	a5,0(s0)
   19248:	00c12083          	lw	ra,12(sp)
   1924c:	00812403          	lw	s0,8(sp)
   19250:	00412483          	lw	s1,4(sp)
   19254:	01010113          	addi	sp,sp,16
   19258:	00008067          	ret

0001925c <iprintf>:
   1925c:	fb010113          	addi	sp,sp,-80
   19260:	04f12223          	sw	a5,68(sp)
   19264:	000217b7          	lui	a5,0x21
   19268:	02812423          	sw	s0,40(sp)
   1926c:	00050413          	mv	s0,a0
   19270:	dc07a503          	lw	a0,-576(a5) # 20dc0 <_impure_ptr>
   19274:	02112623          	sw	ra,44(sp)
   19278:	02b12a23          	sw	a1,52(sp)
   1927c:	02c12c23          	sw	a2,56(sp)
   19280:	02d12e23          	sw	a3,60(sp)
   19284:	04e12023          	sw	a4,64(sp)
   19288:	05012423          	sw	a6,72(sp)
   1928c:	05112623          	sw	a7,76(sp)
   19290:	00050c63          	beqz	a0,192a8 <iprintf+0x4c>
   19294:	01852783          	lw	a5,24(a0)
   19298:	00079863          	bnez	a5,192a8 <iprintf+0x4c>
   1929c:	00a12623          	sw	a0,12(sp)
   192a0:	9a0ff0ef          	jal	ra,18440 <__sinit>
   192a4:	00c12503          	lw	a0,12(sp)
   192a8:	00852583          	lw	a1,8(a0)
   192ac:	03410693          	addi	a3,sp,52
   192b0:	00040613          	mv	a2,s0
   192b4:	00d12e23          	sw	a3,28(sp)
   192b8:	0f9010ef          	jal	ra,1abb0 <_vfiprintf_r>
   192bc:	02c12083          	lw	ra,44(sp)
   192c0:	02812403          	lw	s0,40(sp)
   192c4:	05010113          	addi	sp,sp,80
   192c8:	00008067          	ret

000192cc <putchar>:
   192cc:	000217b7          	lui	a5,0x21
   192d0:	00050593          	mv	a1,a0
   192d4:	dc07a503          	lw	a0,-576(a5) # 20dc0 <_impure_ptr>
   192d8:	02050c63          	beqz	a0,19310 <putchar+0x44>
   192dc:	01852783          	lw	a5,24(a0)
   192e0:	02079863          	bnez	a5,19310 <putchar+0x44>
   192e4:	fe010113          	addi	sp,sp,-32
   192e8:	00112e23          	sw	ra,28(sp)
   192ec:	00b12623          	sw	a1,12(sp)
   192f0:	00a12423          	sw	a0,8(sp)
   192f4:	94cff0ef          	jal	ra,18440 <__sinit>
   192f8:	00812503          	lw	a0,8(sp)
   192fc:	00c12583          	lw	a1,12(sp)
   19300:	01c12083          	lw	ra,28(sp)
   19304:	00852603          	lw	a2,8(a0)
   19308:	02010113          	addi	sp,sp,32
   1930c:	00c0006f          	j	19318 <_putc_r>
   19310:	00852603          	lw	a2,8(a0)
   19314:	ff9ff06f          	j	1930c <putchar+0x40>

00019318 <_putc_r>:
   19318:	fe010113          	addi	sp,sp,-32
   1931c:	00812c23          	sw	s0,24(sp)
   19320:	00112e23          	sw	ra,28(sp)
   19324:	00050413          	mv	s0,a0
   19328:	02050063          	beqz	a0,19348 <_putc_r+0x30>
   1932c:	01852783          	lw	a5,24(a0)
   19330:	00079c63          	bnez	a5,19348 <_putc_r+0x30>
   19334:	00c12623          	sw	a2,12(sp)
   19338:	00b12423          	sw	a1,8(sp)
   1933c:	904ff0ef          	jal	ra,18440 <__sinit>
   19340:	00c12603          	lw	a2,12(sp)
   19344:	00812583          	lw	a1,8(sp)
   19348:	0001d7b7          	lui	a5,0x1d
   1934c:	64c78793          	addi	a5,a5,1612 # 1d64c <__sf_fake_stdin>
   19350:	04f61063          	bne	a2,a5,19390 <_putc_r+0x78>
   19354:	00442603          	lw	a2,4(s0)
   19358:	00862783          	lw	a5,8(a2)
   1935c:	fff78793          	addi	a5,a5,-1
   19360:	00f62423          	sw	a5,8(a2)
   19364:	0407da63          	bgez	a5,193b8 <_putc_r+0xa0>
   19368:	01862703          	lw	a4,24(a2)
   1936c:	00e7c863          	blt	a5,a4,1937c <_putc_r+0x64>
   19370:	0ff5f793          	andi	a5,a1,255
   19374:	00a00713          	li	a4,10
   19378:	04e79063          	bne	a5,a4,193b8 <_putc_r+0xa0>
   1937c:	00040513          	mv	a0,s0
   19380:	01812403          	lw	s0,24(sp)
   19384:	01c12083          	lw	ra,28(sp)
   19388:	02010113          	addi	sp,sp,32
   1938c:	0410006f          	j	19bcc <__swbuf_r>
   19390:	0001d7b7          	lui	a5,0x1d
   19394:	66c78793          	addi	a5,a5,1644 # 1d66c <__sf_fake_stdout>
   19398:	00f61663          	bne	a2,a5,193a4 <_putc_r+0x8c>
   1939c:	00842603          	lw	a2,8(s0)
   193a0:	fb9ff06f          	j	19358 <_putc_r+0x40>
   193a4:	0001d7b7          	lui	a5,0x1d
   193a8:	62c78793          	addi	a5,a5,1580 # 1d62c <__sf_fake_stderr>
   193ac:	faf616e3          	bne	a2,a5,19358 <_putc_r+0x40>
   193b0:	00c42603          	lw	a2,12(s0)
   193b4:	fa5ff06f          	j	19358 <_putc_r+0x40>
   193b8:	00062783          	lw	a5,0(a2)
   193bc:	0ff5f513          	andi	a0,a1,255
   193c0:	00178713          	addi	a4,a5,1
   193c4:	00e62023          	sw	a4,0(a2)
   193c8:	00b78023          	sb	a1,0(a5)
   193cc:	01c12083          	lw	ra,28(sp)
   193d0:	01812403          	lw	s0,24(sp)
   193d4:	02010113          	addi	sp,sp,32
   193d8:	00008067          	ret

000193dc <_puts_r>:
   193dc:	fe010113          	addi	sp,sp,-32
   193e0:	00912a23          	sw	s1,20(sp)
   193e4:	01212823          	sw	s2,16(sp)
   193e8:	00112e23          	sw	ra,28(sp)
   193ec:	00812c23          	sw	s0,24(sp)
   193f0:	01312623          	sw	s3,12(sp)
   193f4:	01412423          	sw	s4,8(sp)
   193f8:	00050493          	mv	s1,a0
   193fc:	00058913          	mv	s2,a1
   19400:	00050863          	beqz	a0,19410 <_puts_r+0x34>
   19404:	01852783          	lw	a5,24(a0)
   19408:	00079463          	bnez	a5,19410 <_puts_r+0x34>
   1940c:	834ff0ef          	jal	ra,18440 <__sinit>
   19410:	0184a783          	lw	a5,24(s1)
   19414:	0084a403          	lw	s0,8(s1)
   19418:	00079663          	bnez	a5,19424 <_puts_r+0x48>
   1941c:	00048513          	mv	a0,s1
   19420:	820ff0ef          	jal	ra,18440 <__sinit>
   19424:	0001d7b7          	lui	a5,0x1d
   19428:	64c78793          	addi	a5,a5,1612 # 1d64c <__sf_fake_stdin>
   1942c:	04f41e63          	bne	s0,a5,19488 <_puts_r+0xac>
   19430:	0044a403          	lw	s0,4(s1)
   19434:	00c45783          	lhu	a5,12(s0)
   19438:	0087f793          	andi	a5,a5,8
   1943c:	06078a63          	beqz	a5,194b0 <_puts_r+0xd4>
   19440:	01042783          	lw	a5,16(s0)
   19444:	06078663          	beqz	a5,194b0 <_puts_r+0xd4>
   19448:	fff00993          	li	s3,-1
   1944c:	00a00a13          	li	s4,10
   19450:	00842783          	lw	a5,8(s0)
   19454:	00094583          	lbu	a1,0(s2)
   19458:	fff78793          	addi	a5,a5,-1
   1945c:	08059463          	bnez	a1,194e4 <_puts_r+0x108>
   19460:	00f42423          	sw	a5,8(s0)
   19464:	0c07d063          	bgez	a5,19524 <_puts_r+0x148>
   19468:	00040613          	mv	a2,s0
   1946c:	00a00593          	li	a1,10
   19470:	00048513          	mv	a0,s1
   19474:	758000ef          	jal	ra,19bcc <__swbuf_r>
   19478:	fff00793          	li	a5,-1
   1947c:	04f50263          	beq	a0,a5,194c0 <_puts_r+0xe4>
   19480:	00a00513          	li	a0,10
   19484:	0400006f          	j	194c4 <_puts_r+0xe8>
   19488:	0001d7b7          	lui	a5,0x1d
   1948c:	66c78793          	addi	a5,a5,1644 # 1d66c <__sf_fake_stdout>
   19490:	00f41663          	bne	s0,a5,1949c <_puts_r+0xc0>
   19494:	0084a403          	lw	s0,8(s1)
   19498:	f9dff06f          	j	19434 <_puts_r+0x58>
   1949c:	0001d7b7          	lui	a5,0x1d
   194a0:	62c78793          	addi	a5,a5,1580 # 1d62c <__sf_fake_stderr>
   194a4:	f8f418e3          	bne	s0,a5,19434 <_puts_r+0x58>
   194a8:	00c4a403          	lw	s0,12(s1)
   194ac:	f89ff06f          	j	19434 <_puts_r+0x58>
   194b0:	00040593          	mv	a1,s0
   194b4:	00048513          	mv	a0,s1
   194b8:	09d000ef          	jal	ra,19d54 <__swsetup_r>
   194bc:	f80506e3          	beqz	a0,19448 <_puts_r+0x6c>
   194c0:	fff00513          	li	a0,-1
   194c4:	01c12083          	lw	ra,28(sp)
   194c8:	01812403          	lw	s0,24(sp)
   194cc:	01412483          	lw	s1,20(sp)
   194d0:	01012903          	lw	s2,16(sp)
   194d4:	00c12983          	lw	s3,12(sp)
   194d8:	00812a03          	lw	s4,8(sp)
   194dc:	02010113          	addi	sp,sp,32
   194e0:	00008067          	ret
   194e4:	00f42423          	sw	a5,8(s0)
   194e8:	00190913          	addi	s2,s2,1
   194ec:	0007d863          	bgez	a5,194fc <_puts_r+0x120>
   194f0:	01842703          	lw	a4,24(s0)
   194f4:	00e7ce63          	blt	a5,a4,19510 <_puts_r+0x134>
   194f8:	01458c63          	beq	a1,s4,19510 <_puts_r+0x134>
   194fc:	00042783          	lw	a5,0(s0)
   19500:	00178713          	addi	a4,a5,1
   19504:	00e42023          	sw	a4,0(s0)
   19508:	00b78023          	sb	a1,0(a5)
   1950c:	f45ff06f          	j	19450 <_puts_r+0x74>
   19510:	00040613          	mv	a2,s0
   19514:	00048513          	mv	a0,s1
   19518:	6b4000ef          	jal	ra,19bcc <__swbuf_r>
   1951c:	f3351ae3          	bne	a0,s3,19450 <_puts_r+0x74>
   19520:	fa1ff06f          	j	194c0 <_puts_r+0xe4>
   19524:	00042783          	lw	a5,0(s0)
   19528:	00178713          	addi	a4,a5,1
   1952c:	00e42023          	sw	a4,0(s0)
   19530:	00a00713          	li	a4,10
   19534:	00e78023          	sb	a4,0(a5)
   19538:	f49ff06f          	j	19480 <_puts_r+0xa4>

0001953c <puts>:
   1953c:	000217b7          	lui	a5,0x21
   19540:	00050593          	mv	a1,a0
   19544:	dc07a503          	lw	a0,-576(a5) # 20dc0 <_impure_ptr>
   19548:	e95ff06f          	j	193dc <_puts_r>

0001954c <lflush>:
   1954c:	00c55783          	lhu	a5,12(a0)
   19550:	00900713          	li	a4,9
   19554:	0097f793          	andi	a5,a5,9
   19558:	00e79463          	bne	a5,a4,19560 <lflush+0x14>
   1955c:	dbdfe06f          	j	18318 <fflush>
   19560:	00000513          	li	a0,0
   19564:	00008067          	ret

00019568 <__srefill_r>:
   19568:	fe010113          	addi	sp,sp,-32
   1956c:	00812c23          	sw	s0,24(sp)
   19570:	00912a23          	sw	s1,20(sp)
   19574:	00112e23          	sw	ra,28(sp)
   19578:	01212823          	sw	s2,16(sp)
   1957c:	01312623          	sw	s3,12(sp)
   19580:	00050493          	mv	s1,a0
   19584:	00058413          	mv	s0,a1
   19588:	00050863          	beqz	a0,19598 <__srefill_r+0x30>
   1958c:	01852783          	lw	a5,24(a0)
   19590:	00079463          	bnez	a5,19598 <__srefill_r+0x30>
   19594:	eadfe0ef          	jal	ra,18440 <__sinit>
   19598:	0001d7b7          	lui	a5,0x1d
   1959c:	64c78793          	addi	a5,a5,1612 # 1d64c <__sf_fake_stdin>
   195a0:	02f41463          	bne	s0,a5,195c8 <__srefill_r+0x60>
   195a4:	0044a403          	lw	s0,4(s1)
   195a8:	00c41703          	lh	a4,12(s0)
   195ac:	00042223          	sw	zero,4(s0)
   195b0:	01071793          	slli	a5,a4,0x10
   195b4:	02077693          	andi	a3,a4,32
   195b8:	0107d793          	srli	a5,a5,0x10
   195bc:	02068a63          	beqz	a3,195f0 <__srefill_r+0x88>
   195c0:	fff00513          	li	a0,-1
   195c4:	15c0006f          	j	19720 <__srefill_r+0x1b8>
   195c8:	0001d7b7          	lui	a5,0x1d
   195cc:	66c78793          	addi	a5,a5,1644 # 1d66c <__sf_fake_stdout>
   195d0:	00f41663          	bne	s0,a5,195dc <__srefill_r+0x74>
   195d4:	0084a403          	lw	s0,8(s1)
   195d8:	fd1ff06f          	j	195a8 <__srefill_r+0x40>
   195dc:	0001d7b7          	lui	a5,0x1d
   195e0:	62c78793          	addi	a5,a5,1580 # 1d62c <__sf_fake_stderr>
   195e4:	fcf412e3          	bne	s0,a5,195a8 <__srefill_r+0x40>
   195e8:	00c4a403          	lw	s0,12(s1)
   195ec:	fbdff06f          	j	195a8 <__srefill_r+0x40>
   195f0:	0047f693          	andi	a3,a5,4
   195f4:	0e069c63          	bnez	a3,196ec <__srefill_r+0x184>
   195f8:	0107f693          	andi	a3,a5,16
   195fc:	00069c63          	bnez	a3,19614 <__srefill_r+0xac>
   19600:	00900793          	li	a5,9
   19604:	00f4a023          	sw	a5,0(s1)
   19608:	04076713          	ori	a4,a4,64
   1960c:	00e41623          	sh	a4,12(s0)
   19610:	fb1ff06f          	j	195c0 <__srefill_r+0x58>
   19614:	0087f793          	andi	a5,a5,8
   19618:	02078463          	beqz	a5,19640 <__srefill_r+0xd8>
   1961c:	00040593          	mv	a1,s0
   19620:	00048513          	mv	a0,s1
   19624:	c55fe0ef          	jal	ra,18278 <_fflush_r>
   19628:	f8051ce3          	bnez	a0,195c0 <__srefill_r+0x58>
   1962c:	00c45783          	lhu	a5,12(s0)
   19630:	00042423          	sw	zero,8(s0)
   19634:	00042c23          	sw	zero,24(s0)
   19638:	ff77f793          	andi	a5,a5,-9
   1963c:	00f41623          	sh	a5,12(s0)
   19640:	00c45783          	lhu	a5,12(s0)
   19644:	0047e793          	ori	a5,a5,4
   19648:	00f41623          	sh	a5,12(s0)
   1964c:	01042783          	lw	a5,16(s0)
   19650:	00079863          	bnez	a5,19660 <__srefill_r+0xf8>
   19654:	00040593          	mv	a1,s0
   19658:	00048513          	mv	a0,s1
   1965c:	fdcff0ef          	jal	ra,18e38 <__smakebuf_r>
   19660:	00c41983          	lh	s3,12(s0)
   19664:	01099913          	slli	s2,s3,0x10
   19668:	0039f793          	andi	a5,s3,3
   1966c:	01095913          	srli	s2,s2,0x10
   19670:	02078e63          	beqz	a5,196ac <__srefill_r+0x144>
   19674:	00100793          	li	a5,1
   19678:	00f41623          	sh	a5,12(s0)
   1967c:	000217b7          	lui	a5,0x21
   19680:	dbc7a503          	lw	a0,-580(a5) # 20dbc <_global_impure_ptr>
   19684:	000195b7          	lui	a1,0x19
   19688:	54c58593          	addi	a1,a1,1356 # 1954c <lflush>
   1968c:	d30ff0ef          	jal	ra,18bbc <_fwalk>
   19690:	00997913          	andi	s2,s2,9
   19694:	01341623          	sh	s3,12(s0)
   19698:	00900793          	li	a5,9
   1969c:	00f91863          	bne	s2,a5,196ac <__srefill_r+0x144>
   196a0:	00040593          	mv	a1,s0
   196a4:	00048513          	mv	a0,s1
   196a8:	9ddfe0ef          	jal	ra,18084 <__sflush_r>
   196ac:	01042603          	lw	a2,16(s0)
   196b0:	02442783          	lw	a5,36(s0)
   196b4:	01442683          	lw	a3,20(s0)
   196b8:	02042583          	lw	a1,32(s0)
   196bc:	00c42023          	sw	a2,0(s0)
   196c0:	00048513          	mv	a0,s1
   196c4:	000780e7          	jalr	a5
   196c8:	00050713          	mv	a4,a0
   196cc:	00a42223          	sw	a0,4(s0)
   196d0:	00000513          	li	a0,0
   196d4:	04e04663          	bgtz	a4,19720 <__srefill_r+0x1b8>
   196d8:	00c41783          	lh	a5,12(s0)
   196dc:	06071063          	bnez	a4,1973c <__srefill_r+0x1d4>
   196e0:	0207e793          	ori	a5,a5,32
   196e4:	00f41623          	sh	a5,12(s0)
   196e8:	ed9ff06f          	j	195c0 <__srefill_r+0x58>
   196ec:	03442583          	lw	a1,52(s0)
   196f0:	f4058ee3          	beqz	a1,1964c <__srefill_r+0xe4>
   196f4:	04440793          	addi	a5,s0,68
   196f8:	00f58663          	beq	a1,a5,19704 <__srefill_r+0x19c>
   196fc:	00048513          	mv	a0,s1
   19700:	8b9ff0ef          	jal	ra,18fb8 <_free_r>
   19704:	04042783          	lw	a5,64(s0)
   19708:	02042a23          	sw	zero,52(s0)
   1970c:	00f42223          	sw	a5,4(s0)
   19710:	f2078ee3          	beqz	a5,1964c <__srefill_r+0xe4>
   19714:	03c42783          	lw	a5,60(s0)
   19718:	00000513          	li	a0,0
   1971c:	00f42023          	sw	a5,0(s0)
   19720:	01c12083          	lw	ra,28(sp)
   19724:	01812403          	lw	s0,24(sp)
   19728:	01412483          	lw	s1,20(sp)
   1972c:	01012903          	lw	s2,16(sp)
   19730:	00c12983          	lw	s3,12(sp)
   19734:	02010113          	addi	sp,sp,32
   19738:	00008067          	ret
   1973c:	00042223          	sw	zero,4(s0)
   19740:	0407e793          	ori	a5,a5,64
   19744:	fa1ff06f          	j	196e4 <__srefill_r+0x17c>

00019748 <_sbrk_r>:
   19748:	ff010113          	addi	sp,sp,-16
   1974c:	00812423          	sw	s0,8(sp)
   19750:	00912223          	sw	s1,4(sp)
   19754:	00050413          	mv	s0,a0
   19758:	00058513          	mv	a0,a1
   1975c:	00112623          	sw	ra,12(sp)
   19760:	8001a823          	sw	zero,-2032(gp) # 20dcc <errno>
   19764:	af9fa0ef          	jal	ra,1425c <_sbrk>
   19768:	fff00793          	li	a5,-1
   1976c:	00f51863          	bne	a0,a5,1977c <_sbrk_r+0x34>
   19770:	8101a783          	lw	a5,-2032(gp) # 20dcc <errno>
   19774:	00078463          	beqz	a5,1977c <_sbrk_r+0x34>
   19778:	00f42023          	sw	a5,0(s0)
   1977c:	00c12083          	lw	ra,12(sp)
   19780:	00812403          	lw	s0,8(sp)
   19784:	00412483          	lw	s1,4(sp)
   19788:	01010113          	addi	sp,sp,16
   1978c:	00008067          	ret

00019790 <setbuf>:
   19790:	0015b613          	seqz	a2,a1
   19794:	40000693          	li	a3,1024
   19798:	00161613          	slli	a2,a2,0x1
   1979c:	0040006f          	j	197a0 <setvbuf>

000197a0 <setvbuf>:
   197a0:	fd010113          	addi	sp,sp,-48
   197a4:	000217b7          	lui	a5,0x21
   197a8:	01312e23          	sw	s3,28(sp)
   197ac:	dc07a983          	lw	s3,-576(a5) # 20dc0 <_impure_ptr>
   197b0:	02812423          	sw	s0,40(sp)
   197b4:	02912223          	sw	s1,36(sp)
   197b8:	03212023          	sw	s2,32(sp)
   197bc:	01412c23          	sw	s4,24(sp)
   197c0:	02112623          	sw	ra,44(sp)
   197c4:	01512a23          	sw	s5,20(sp)
   197c8:	00050413          	mv	s0,a0
   197cc:	00058913          	mv	s2,a1
   197d0:	00060a13          	mv	s4,a2
   197d4:	00068493          	mv	s1,a3
   197d8:	00098a63          	beqz	s3,197ec <setvbuf+0x4c>
   197dc:	0189a783          	lw	a5,24(s3)
   197e0:	00079663          	bnez	a5,197ec <setvbuf+0x4c>
   197e4:	00098513          	mv	a0,s3
   197e8:	c59fe0ef          	jal	ra,18440 <__sinit>
   197ec:	0001d7b7          	lui	a5,0x1d
   197f0:	64c78793          	addi	a5,a5,1612 # 1d64c <__sf_fake_stdin>
   197f4:	10f41863          	bne	s0,a5,19904 <setvbuf+0x164>
   197f8:	0049a403          	lw	s0,4(s3)
   197fc:	00200793          	li	a5,2
   19800:	00fa0a63          	beq	s4,a5,19814 <setvbuf+0x74>
   19804:	00100793          	li	a5,1
   19808:	fff00513          	li	a0,-1
   1980c:	0d47ea63          	bltu	a5,s4,198e0 <setvbuf+0x140>
   19810:	0c04c863          	bltz	s1,198e0 <setvbuf+0x140>
   19814:	00040593          	mv	a1,s0
   19818:	00098513          	mv	a0,s3
   1981c:	a5dfe0ef          	jal	ra,18278 <_fflush_r>
   19820:	03442583          	lw	a1,52(s0)
   19824:	00058c63          	beqz	a1,1983c <setvbuf+0x9c>
   19828:	04440793          	addi	a5,s0,68
   1982c:	00f58663          	beq	a1,a5,19838 <setvbuf+0x98>
   19830:	00098513          	mv	a0,s3
   19834:	f84ff0ef          	jal	ra,18fb8 <_free_r>
   19838:	02042a23          	sw	zero,52(s0)
   1983c:	00c45783          	lhu	a5,12(s0)
   19840:	00042c23          	sw	zero,24(s0)
   19844:	00042223          	sw	zero,4(s0)
   19848:	0807f793          	andi	a5,a5,128
   1984c:	00078863          	beqz	a5,1985c <setvbuf+0xbc>
   19850:	01042583          	lw	a1,16(s0)
   19854:	00098513          	mv	a0,s3
   19858:	f60ff0ef          	jal	ra,18fb8 <_free_r>
   1985c:	00c45783          	lhu	a5,12(s0)
   19860:	fffff737          	lui	a4,0xfffff
   19864:	35c70713          	addi	a4,a4,860 # fffff35c <__BSS_END__+0xfffd9694>
   19868:	00e7f7b3          	and	a5,a5,a4
   1986c:	00f41623          	sh	a5,12(s0)
   19870:	00200793          	li	a5,2
   19874:	12fa0c63          	beq	s4,a5,199ac <setvbuf+0x20c>
   19878:	00c10693          	addi	a3,sp,12
   1987c:	00810613          	addi	a2,sp,8
   19880:	00040593          	mv	a1,s0
   19884:	00098513          	mv	a0,s3
   19888:	d20ff0ef          	jal	ra,18da8 <__swhatbuf_r>
   1988c:	00c45783          	lhu	a5,12(s0)
   19890:	00f56533          	or	a0,a0,a5
   19894:	00a41623          	sh	a0,12(s0)
   19898:	08049a63          	bnez	s1,1992c <setvbuf+0x18c>
   1989c:	00812483          	lw	s1,8(sp)
   198a0:	00048513          	mv	a0,s1
   198a4:	e84ff0ef          	jal	ra,18f28 <malloc>
   198a8:	00050913          	mv	s2,a0
   198ac:	0e051863          	bnez	a0,1999c <setvbuf+0x1fc>
   198b0:	00812a83          	lw	s5,8(sp)
   198b4:	0c9a9a63          	bne	s5,s1,19988 <setvbuf+0x1e8>
   198b8:	fff00513          	li	a0,-1
   198bc:	00c45783          	lhu	a5,12(s0)
   198c0:	00042423          	sw	zero,8(s0)
   198c4:	0027e793          	ori	a5,a5,2
   198c8:	00f41623          	sh	a5,12(s0)
   198cc:	04740793          	addi	a5,s0,71
   198d0:	00f42023          	sw	a5,0(s0)
   198d4:	00f42823          	sw	a5,16(s0)
   198d8:	00100793          	li	a5,1
   198dc:	00f42a23          	sw	a5,20(s0)
   198e0:	02c12083          	lw	ra,44(sp)
   198e4:	02812403          	lw	s0,40(sp)
   198e8:	02412483          	lw	s1,36(sp)
   198ec:	02012903          	lw	s2,32(sp)
   198f0:	01c12983          	lw	s3,28(sp)
   198f4:	01812a03          	lw	s4,24(sp)
   198f8:	01412a83          	lw	s5,20(sp)
   198fc:	03010113          	addi	sp,sp,48
   19900:	00008067          	ret
   19904:	0001d7b7          	lui	a5,0x1d
   19908:	66c78793          	addi	a5,a5,1644 # 1d66c <__sf_fake_stdout>
   1990c:	00f41663          	bne	s0,a5,19918 <setvbuf+0x178>
   19910:	0089a403          	lw	s0,8(s3)
   19914:	ee9ff06f          	j	197fc <setvbuf+0x5c>
   19918:	0001d7b7          	lui	a5,0x1d
   1991c:	62c78793          	addi	a5,a5,1580 # 1d62c <__sf_fake_stderr>
   19920:	ecf41ee3          	bne	s0,a5,197fc <setvbuf+0x5c>
   19924:	00c9a403          	lw	s0,12(s3)
   19928:	ed5ff06f          	j	197fc <setvbuf+0x5c>
   1992c:	f6090ae3          	beqz	s2,198a0 <setvbuf+0x100>
   19930:	0189a783          	lw	a5,24(s3)
   19934:	00079663          	bnez	a5,19940 <setvbuf+0x1a0>
   19938:	00098513          	mv	a0,s3
   1993c:	b05fe0ef          	jal	ra,18440 <__sinit>
   19940:	00100793          	li	a5,1
   19944:	00fa1863          	bne	s4,a5,19954 <setvbuf+0x1b4>
   19948:	00c45783          	lhu	a5,12(s0)
   1994c:	0017e793          	ori	a5,a5,1
   19950:	00f41623          	sh	a5,12(s0)
   19954:	00c45783          	lhu	a5,12(s0)
   19958:	01242023          	sw	s2,0(s0)
   1995c:	01242823          	sw	s2,16(s0)
   19960:	00942a23          	sw	s1,20(s0)
   19964:	0087f713          	andi	a4,a5,8
   19968:	04070a63          	beqz	a4,199bc <setvbuf+0x21c>
   1996c:	0017f793          	andi	a5,a5,1
   19970:	04078263          	beqz	a5,199b4 <setvbuf+0x214>
   19974:	409004b3          	neg	s1,s1
   19978:	00042423          	sw	zero,8(s0)
   1997c:	00942c23          	sw	s1,24(s0)
   19980:	00000513          	li	a0,0
   19984:	f5dff06f          	j	198e0 <setvbuf+0x140>
   19988:	000a8513          	mv	a0,s5
   1998c:	d9cff0ef          	jal	ra,18f28 <malloc>
   19990:	00050913          	mv	s2,a0
   19994:	000a8493          	mv	s1,s5
   19998:	f20500e3          	beqz	a0,198b8 <setvbuf+0x118>
   1999c:	00c45783          	lhu	a5,12(s0)
   199a0:	0807e793          	ori	a5,a5,128
   199a4:	00f41623          	sh	a5,12(s0)
   199a8:	f89ff06f          	j	19930 <setvbuf+0x190>
   199ac:	00000513          	li	a0,0
   199b0:	f0dff06f          	j	198bc <setvbuf+0x11c>
   199b4:	00942423          	sw	s1,8(s0)
   199b8:	fc9ff06f          	j	19980 <setvbuf+0x1e0>
   199bc:	00042423          	sw	zero,8(s0)
   199c0:	fc1ff06f          	j	19980 <setvbuf+0x1e0>

000199c4 <siprintf>:
   199c4:	f6010113          	addi	sp,sp,-160
   199c8:	08f12a23          	sw	a5,148(sp)
   199cc:	800007b7          	lui	a5,0x80000
   199d0:	fff7c793          	not	a5,a5
   199d4:	00f12e23          	sw	a5,28(sp)
   199d8:	00f12823          	sw	a5,16(sp)
   199dc:	ffff07b7          	lui	a5,0xffff0
   199e0:	20878793          	addi	a5,a5,520 # ffff0208 <__BSS_END__+0xfffca540>
   199e4:	00f12a23          	sw	a5,20(sp)
   199e8:	000217b7          	lui	a5,0x21
   199ec:	00a12423          	sw	a0,8(sp)
   199f0:	00a12c23          	sw	a0,24(sp)
   199f4:	dc07a503          	lw	a0,-576(a5) # 20dc0 <_impure_ptr>
   199f8:	08c12423          	sw	a2,136(sp)
   199fc:	08d12623          	sw	a3,140(sp)
   19a00:	00058613          	mv	a2,a1
   19a04:	08810693          	addi	a3,sp,136
   19a08:	00810593          	addi	a1,sp,8
   19a0c:	06112e23          	sw	ra,124(sp)
   19a10:	08e12823          	sw	a4,144(sp)
   19a14:	09012c23          	sw	a6,152(sp)
   19a18:	09112e23          	sw	a7,156(sp)
   19a1c:	00d12223          	sw	a3,4(sp)
   19a20:	7f0000ef          	jal	ra,1a210 <_svfiprintf_r>
   19a24:	00812783          	lw	a5,8(sp)
   19a28:	00078023          	sb	zero,0(a5)
   19a2c:	07c12083          	lw	ra,124(sp)
   19a30:	0a010113          	addi	sp,sp,160
   19a34:	00008067          	ret

00019a38 <__sread>:
   19a38:	ff010113          	addi	sp,sp,-16
   19a3c:	00812423          	sw	s0,8(sp)
   19a40:	00058413          	mv	s0,a1
   19a44:	00e59583          	lh	a1,14(a1)
   19a48:	00112623          	sw	ra,12(sp)
   19a4c:	534010ef          	jal	ra,1af80 <_read_r>
   19a50:	02054063          	bltz	a0,19a70 <__sread+0x38>
   19a54:	05442783          	lw	a5,84(s0)
   19a58:	00a787b3          	add	a5,a5,a0
   19a5c:	04f42a23          	sw	a5,84(s0)
   19a60:	00c12083          	lw	ra,12(sp)
   19a64:	00812403          	lw	s0,8(sp)
   19a68:	01010113          	addi	sp,sp,16
   19a6c:	00008067          	ret
   19a70:	00c45783          	lhu	a5,12(s0)
   19a74:	fffff737          	lui	a4,0xfffff
   19a78:	fff70713          	addi	a4,a4,-1 # ffffefff <__BSS_END__+0xfffd9337>
   19a7c:	00e7f7b3          	and	a5,a5,a4
   19a80:	00f41623          	sh	a5,12(s0)
   19a84:	fddff06f          	j	19a60 <__sread+0x28>

00019a88 <__swrite>:
   19a88:	00c5d783          	lhu	a5,12(a1)
   19a8c:	fe010113          	addi	sp,sp,-32
   19a90:	00812c23          	sw	s0,24(sp)
   19a94:	00912a23          	sw	s1,20(sp)
   19a98:	01212823          	sw	s2,16(sp)
   19a9c:	01312623          	sw	s3,12(sp)
   19aa0:	00112e23          	sw	ra,28(sp)
   19aa4:	1007f793          	andi	a5,a5,256
   19aa8:	00050493          	mv	s1,a0
   19aac:	00058413          	mv	s0,a1
   19ab0:	00060913          	mv	s2,a2
   19ab4:	00068993          	mv	s3,a3
   19ab8:	00078a63          	beqz	a5,19acc <__swrite+0x44>
   19abc:	00e59583          	lh	a1,14(a1)
   19ac0:	00200693          	li	a3,2
   19ac4:	00000613          	li	a2,0
   19ac8:	588000ef          	jal	ra,1a050 <_lseek_r>
   19acc:	00c45783          	lhu	a5,12(s0)
   19ad0:	fffff737          	lui	a4,0xfffff
   19ad4:	fff70713          	addi	a4,a4,-1 # ffffefff <__BSS_END__+0xfffd9337>
   19ad8:	00e7f7b3          	and	a5,a5,a4
   19adc:	00e41583          	lh	a1,14(s0)
   19ae0:	00f41623          	sh	a5,12(s0)
   19ae4:	01812403          	lw	s0,24(sp)
   19ae8:	01c12083          	lw	ra,28(sp)
   19aec:	00098693          	mv	a3,s3
   19af0:	00090613          	mv	a2,s2
   19af4:	00c12983          	lw	s3,12(sp)
   19af8:	01012903          	lw	s2,16(sp)
   19afc:	00048513          	mv	a0,s1
   19b00:	01412483          	lw	s1,20(sp)
   19b04:	02010113          	addi	sp,sp,32
   19b08:	1fc0006f          	j	19d04 <_write_r>

00019b0c <__sseek>:
   19b0c:	ff010113          	addi	sp,sp,-16
   19b10:	00812423          	sw	s0,8(sp)
   19b14:	00058413          	mv	s0,a1
   19b18:	00e59583          	lh	a1,14(a1)
   19b1c:	00112623          	sw	ra,12(sp)
   19b20:	530000ef          	jal	ra,1a050 <_lseek_r>
   19b24:	fff00793          	li	a5,-1
   19b28:	00c45703          	lhu	a4,12(s0)
   19b2c:	02f51263          	bne	a0,a5,19b50 <__sseek+0x44>
   19b30:	fffff7b7          	lui	a5,0xfffff
   19b34:	fff78793          	addi	a5,a5,-1 # ffffefff <__BSS_END__+0xfffd9337>
   19b38:	00e7f7b3          	and	a5,a5,a4
   19b3c:	00f41623          	sh	a5,12(s0)
   19b40:	00c12083          	lw	ra,12(sp)
   19b44:	00812403          	lw	s0,8(sp)
   19b48:	01010113          	addi	sp,sp,16
   19b4c:	00008067          	ret
   19b50:	000017b7          	lui	a5,0x1
   19b54:	00f767b3          	or	a5,a4,a5
   19b58:	00f41623          	sh	a5,12(s0)
   19b5c:	04a42a23          	sw	a0,84(s0)
   19b60:	fe1ff06f          	j	19b40 <__sseek+0x34>

00019b64 <__sclose>:
   19b64:	00e59583          	lh	a1,14(a1)
   19b68:	3640006f          	j	19ecc <_close_r>

00019b6c <strchr>:
   19b6c:	0ff5f593          	andi	a1,a1,255
   19b70:	00054783          	lbu	a5,0(a0)
   19b74:	00078a63          	beqz	a5,19b88 <strchr+0x1c>
   19b78:	00b79463          	bne	a5,a1,19b80 <strchr+0x14>
   19b7c:	00008067          	ret
   19b80:	00150513          	addi	a0,a0,1
   19b84:	fedff06f          	j	19b70 <strchr+0x4>
   19b88:	00058463          	beqz	a1,19b90 <strchr+0x24>
   19b8c:	00000513          	li	a0,0
   19b90:	00008067          	ret

00019b94 <strcpy>:
   19b94:	00050793          	mv	a5,a0
   19b98:	0005c703          	lbu	a4,0(a1)
   19b9c:	00178793          	addi	a5,a5,1 # 1001 <exit-0xf073>
   19ba0:	00158593          	addi	a1,a1,1
   19ba4:	fee78fa3          	sb	a4,-1(a5)
   19ba8:	fe0718e3          	bnez	a4,19b98 <strcpy+0x4>
   19bac:	00008067          	ret

00019bb0 <strlen>:
   19bb0:	00050793          	mv	a5,a0
   19bb4:	0007c703          	lbu	a4,0(a5)
   19bb8:	00178793          	addi	a5,a5,1
   19bbc:	fe071ce3          	bnez	a4,19bb4 <strlen+0x4>
   19bc0:	40a78533          	sub	a0,a5,a0
   19bc4:	fff50513          	addi	a0,a0,-1
   19bc8:	00008067          	ret

00019bcc <__swbuf_r>:
   19bcc:	fe010113          	addi	sp,sp,-32
   19bd0:	00812c23          	sw	s0,24(sp)
   19bd4:	00912a23          	sw	s1,20(sp)
   19bd8:	01212823          	sw	s2,16(sp)
   19bdc:	00112e23          	sw	ra,28(sp)
   19be0:	01312623          	sw	s3,12(sp)
   19be4:	00050493          	mv	s1,a0
   19be8:	00058913          	mv	s2,a1
   19bec:	00060413          	mv	s0,a2
   19bf0:	00050863          	beqz	a0,19c00 <__swbuf_r+0x34>
   19bf4:	01852783          	lw	a5,24(a0)
   19bf8:	00079463          	bnez	a5,19c00 <__swbuf_r+0x34>
   19bfc:	845fe0ef          	jal	ra,18440 <__sinit>
   19c00:	0001d7b7          	lui	a5,0x1d
   19c04:	64c78793          	addi	a5,a5,1612 # 1d64c <__sf_fake_stdin>
   19c08:	0af41e63          	bne	s0,a5,19cc4 <__swbuf_r+0xf8>
   19c0c:	0044a403          	lw	s0,4(s1)
   19c10:	01842783          	lw	a5,24(s0)
   19c14:	00f42423          	sw	a5,8(s0)
   19c18:	00c45783          	lhu	a5,12(s0)
   19c1c:	0087f793          	andi	a5,a5,8
   19c20:	0c078663          	beqz	a5,19cec <__swbuf_r+0x120>
   19c24:	01042783          	lw	a5,16(s0)
   19c28:	0c078263          	beqz	a5,19cec <__swbuf_r+0x120>
   19c2c:	01042783          	lw	a5,16(s0)
   19c30:	00042503          	lw	a0,0(s0)
   19c34:	0ff97993          	andi	s3,s2,255
   19c38:	0ff97913          	andi	s2,s2,255
   19c3c:	40f50533          	sub	a0,a0,a5
   19c40:	01442783          	lw	a5,20(s0)
   19c44:	00f54a63          	blt	a0,a5,19c58 <__swbuf_r+0x8c>
   19c48:	00040593          	mv	a1,s0
   19c4c:	00048513          	mv	a0,s1
   19c50:	e28fe0ef          	jal	ra,18278 <_fflush_r>
   19c54:	0a051463          	bnez	a0,19cfc <__swbuf_r+0x130>
   19c58:	00842783          	lw	a5,8(s0)
   19c5c:	00150513          	addi	a0,a0,1
   19c60:	fff78793          	addi	a5,a5,-1
   19c64:	00f42423          	sw	a5,8(s0)
   19c68:	00042783          	lw	a5,0(s0)
   19c6c:	00178713          	addi	a4,a5,1
   19c70:	00e42023          	sw	a4,0(s0)
   19c74:	01378023          	sb	s3,0(a5)
   19c78:	01442783          	lw	a5,20(s0)
   19c7c:	00a78c63          	beq	a5,a0,19c94 <__swbuf_r+0xc8>
   19c80:	00c45783          	lhu	a5,12(s0)
   19c84:	0017f793          	andi	a5,a5,1
   19c88:	00078e63          	beqz	a5,19ca4 <__swbuf_r+0xd8>
   19c8c:	00a00793          	li	a5,10
   19c90:	00f91a63          	bne	s2,a5,19ca4 <__swbuf_r+0xd8>
   19c94:	00040593          	mv	a1,s0
   19c98:	00048513          	mv	a0,s1
   19c9c:	ddcfe0ef          	jal	ra,18278 <_fflush_r>
   19ca0:	04051e63          	bnez	a0,19cfc <__swbuf_r+0x130>
   19ca4:	01c12083          	lw	ra,28(sp)
   19ca8:	01812403          	lw	s0,24(sp)
   19cac:	01412483          	lw	s1,20(sp)
   19cb0:	00c12983          	lw	s3,12(sp)
   19cb4:	00090513          	mv	a0,s2
   19cb8:	01012903          	lw	s2,16(sp)
   19cbc:	02010113          	addi	sp,sp,32
   19cc0:	00008067          	ret
   19cc4:	0001d7b7          	lui	a5,0x1d
   19cc8:	66c78793          	addi	a5,a5,1644 # 1d66c <__sf_fake_stdout>
   19ccc:	00f41663          	bne	s0,a5,19cd8 <__swbuf_r+0x10c>
   19cd0:	0084a403          	lw	s0,8(s1)
   19cd4:	f3dff06f          	j	19c10 <__swbuf_r+0x44>
   19cd8:	0001d7b7          	lui	a5,0x1d
   19cdc:	62c78793          	addi	a5,a5,1580 # 1d62c <__sf_fake_stderr>
   19ce0:	f2f418e3          	bne	s0,a5,19c10 <__swbuf_r+0x44>
   19ce4:	00c4a403          	lw	s0,12(s1)
   19ce8:	f29ff06f          	j	19c10 <__swbuf_r+0x44>
   19cec:	00040593          	mv	a1,s0
   19cf0:	00048513          	mv	a0,s1
   19cf4:	060000ef          	jal	ra,19d54 <__swsetup_r>
   19cf8:	f2050ae3          	beqz	a0,19c2c <__swbuf_r+0x60>
   19cfc:	fff00913          	li	s2,-1
   19d00:	fa5ff06f          	j	19ca4 <__swbuf_r+0xd8>

00019d04 <_write_r>:
   19d04:	ff010113          	addi	sp,sp,-16
   19d08:	00812423          	sw	s0,8(sp)
   19d0c:	00912223          	sw	s1,4(sp)
   19d10:	00050413          	mv	s0,a0
   19d14:	00058513          	mv	a0,a1
   19d18:	00060593          	mv	a1,a2
   19d1c:	00068613          	mv	a2,a3
   19d20:	00112623          	sw	ra,12(sp)
   19d24:	8001a823          	sw	zero,-2032(gp) # 20dcc <errno>
   19d28:	cb8fa0ef          	jal	ra,141e0 <_write>
   19d2c:	fff00793          	li	a5,-1
   19d30:	00f51863          	bne	a0,a5,19d40 <_write_r+0x3c>
   19d34:	8101a783          	lw	a5,-2032(gp) # 20dcc <errno>
   19d38:	00078463          	beqz	a5,19d40 <_write_r+0x3c>
   19d3c:	00f42023          	sw	a5,0(s0)
   19d40:	00c12083          	lw	ra,12(sp)
   19d44:	00812403          	lw	s0,8(sp)
   19d48:	00412483          	lw	s1,4(sp)
   19d4c:	01010113          	addi	sp,sp,16
   19d50:	00008067          	ret

00019d54 <__swsetup_r>:
   19d54:	ff010113          	addi	sp,sp,-16
   19d58:	000217b7          	lui	a5,0x21
   19d5c:	00912223          	sw	s1,4(sp)
   19d60:	dc07a483          	lw	s1,-576(a5) # 20dc0 <_impure_ptr>
   19d64:	00812423          	sw	s0,8(sp)
   19d68:	01212023          	sw	s2,0(sp)
   19d6c:	00112623          	sw	ra,12(sp)
   19d70:	00050913          	mv	s2,a0
   19d74:	00058413          	mv	s0,a1
   19d78:	00048a63          	beqz	s1,19d8c <__swsetup_r+0x38>
   19d7c:	0184a783          	lw	a5,24(s1)
   19d80:	00079663          	bnez	a5,19d8c <__swsetup_r+0x38>
   19d84:	00048513          	mv	a0,s1
   19d88:	eb8fe0ef          	jal	ra,18440 <__sinit>
   19d8c:	0001d7b7          	lui	a5,0x1d
   19d90:	64c78793          	addi	a5,a5,1612 # 1d64c <__sf_fake_stdin>
   19d94:	02f41e63          	bne	s0,a5,19dd0 <__swsetup_r+0x7c>
   19d98:	0044a403          	lw	s0,4(s1)
   19d9c:	00c41783          	lh	a5,12(s0)
   19da0:	01079713          	slli	a4,a5,0x10
   19da4:	0087f693          	andi	a3,a5,8
   19da8:	01075713          	srli	a4,a4,0x10
   19dac:	08069a63          	bnez	a3,19e40 <__swsetup_r+0xec>
   19db0:	01077693          	andi	a3,a4,16
   19db4:	04069263          	bnez	a3,19df8 <__swsetup_r+0xa4>
   19db8:	00900713          	li	a4,9
   19dbc:	00e92023          	sw	a4,0(s2)
   19dc0:	0407e793          	ori	a5,a5,64
   19dc4:	00f41623          	sh	a5,12(s0)
   19dc8:	fff00513          	li	a0,-1
   19dcc:	0d00006f          	j	19e9c <__swsetup_r+0x148>
   19dd0:	0001d7b7          	lui	a5,0x1d
   19dd4:	66c78793          	addi	a5,a5,1644 # 1d66c <__sf_fake_stdout>
   19dd8:	00f41663          	bne	s0,a5,19de4 <__swsetup_r+0x90>
   19ddc:	0084a403          	lw	s0,8(s1)
   19de0:	fbdff06f          	j	19d9c <__swsetup_r+0x48>
   19de4:	0001d7b7          	lui	a5,0x1d
   19de8:	62c78793          	addi	a5,a5,1580 # 1d62c <__sf_fake_stderr>
   19dec:	faf418e3          	bne	s0,a5,19d9c <__swsetup_r+0x48>
   19df0:	00c4a403          	lw	s0,12(s1)
   19df4:	fa9ff06f          	j	19d9c <__swsetup_r+0x48>
   19df8:	00477713          	andi	a4,a4,4
   19dfc:	02070c63          	beqz	a4,19e34 <__swsetup_r+0xe0>
   19e00:	03442583          	lw	a1,52(s0)
   19e04:	00058c63          	beqz	a1,19e1c <__swsetup_r+0xc8>
   19e08:	04440793          	addi	a5,s0,68
   19e0c:	00f58663          	beq	a1,a5,19e18 <__swsetup_r+0xc4>
   19e10:	00090513          	mv	a0,s2
   19e14:	9a4ff0ef          	jal	ra,18fb8 <_free_r>
   19e18:	02042a23          	sw	zero,52(s0)
   19e1c:	00c45783          	lhu	a5,12(s0)
   19e20:	00042223          	sw	zero,4(s0)
   19e24:	fdb7f793          	andi	a5,a5,-37
   19e28:	00f41623          	sh	a5,12(s0)
   19e2c:	01042783          	lw	a5,16(s0)
   19e30:	00f42023          	sw	a5,0(s0)
   19e34:	00c45783          	lhu	a5,12(s0)
   19e38:	0087e793          	ori	a5,a5,8
   19e3c:	00f41623          	sh	a5,12(s0)
   19e40:	01042783          	lw	a5,16(s0)
   19e44:	02079063          	bnez	a5,19e64 <__swsetup_r+0x110>
   19e48:	00c45783          	lhu	a5,12(s0)
   19e4c:	20000713          	li	a4,512
   19e50:	2807f793          	andi	a5,a5,640
   19e54:	00e78863          	beq	a5,a4,19e64 <__swsetup_r+0x110>
   19e58:	00040593          	mv	a1,s0
   19e5c:	00090513          	mv	a0,s2
   19e60:	fd9fe0ef          	jal	ra,18e38 <__smakebuf_r>
   19e64:	00c41783          	lh	a5,12(s0)
   19e68:	01079713          	slli	a4,a5,0x10
   19e6c:	0017f693          	andi	a3,a5,1
   19e70:	01075713          	srli	a4,a4,0x10
   19e74:	04068063          	beqz	a3,19eb4 <__swsetup_r+0x160>
   19e78:	01442683          	lw	a3,20(s0)
   19e7c:	00042423          	sw	zero,8(s0)
   19e80:	40d006b3          	neg	a3,a3
   19e84:	00d42c23          	sw	a3,24(s0)
   19e88:	01042683          	lw	a3,16(s0)
   19e8c:	00000513          	li	a0,0
   19e90:	00069663          	bnez	a3,19e9c <__swsetup_r+0x148>
   19e94:	08077713          	andi	a4,a4,128
   19e98:	f20714e3          	bnez	a4,19dc0 <__swsetup_r+0x6c>
   19e9c:	00c12083          	lw	ra,12(sp)
   19ea0:	00812403          	lw	s0,8(sp)
   19ea4:	00412483          	lw	s1,4(sp)
   19ea8:	00012903          	lw	s2,0(sp)
   19eac:	01010113          	addi	sp,sp,16
   19eb0:	00008067          	ret
   19eb4:	00277693          	andi	a3,a4,2
   19eb8:	00000613          	li	a2,0
   19ebc:	00069463          	bnez	a3,19ec4 <__swsetup_r+0x170>
   19ec0:	01442603          	lw	a2,20(s0)
   19ec4:	00c42423          	sw	a2,8(s0)
   19ec8:	fc1ff06f          	j	19e88 <__swsetup_r+0x134>

00019ecc <_close_r>:
   19ecc:	ff010113          	addi	sp,sp,-16
   19ed0:	00812423          	sw	s0,8(sp)
   19ed4:	00912223          	sw	s1,4(sp)
   19ed8:	00050413          	mv	s0,a0
   19edc:	00058513          	mv	a0,a1
   19ee0:	00112623          	sw	ra,12(sp)
   19ee4:	8001a823          	sw	zero,-2032(gp) # 20dcc <errno>
   19ee8:	94cfa0ef          	jal	ra,14034 <_close>
   19eec:	fff00793          	li	a5,-1
   19ef0:	00f51863          	bne	a0,a5,19f00 <_close_r+0x34>
   19ef4:	8101a783          	lw	a5,-2032(gp) # 20dcc <errno>
   19ef8:	00078463          	beqz	a5,19f00 <_close_r+0x34>
   19efc:	00f42023          	sw	a5,0(s0)
   19f00:	00c12083          	lw	ra,12(sp)
   19f04:	00812403          	lw	s0,8(sp)
   19f08:	00412483          	lw	s1,4(sp)
   19f0c:	01010113          	addi	sp,sp,16
   19f10:	00008067          	ret

00019f14 <__sflags>:
   19f14:	0005c783          	lbu	a5,0(a1)
   19f18:	07200713          	li	a4,114
   19f1c:	06e78063          	beq	a5,a4,19f7c <__sflags+0x68>
   19f20:	07700713          	li	a4,119
   19f24:	06e78c63          	beq	a5,a4,19f9c <__sflags+0x88>
   19f28:	06100713          	li	a4,97
   19f2c:	08e78063          	beq	a5,a4,19fac <__sflags+0x98>
   19f30:	01600793          	li	a5,22
   19f34:	00f52023          	sw	a5,0(a0)
   19f38:	00000513          	li	a0,0
   19f3c:	00008067          	ret
   19f40:	03168063          	beq	a3,a7,19f60 <__sflags+0x4c>
   19f44:	02668863          	beq	a3,t1,19f74 <__sflags+0x60>
   19f48:	0015c683          	lbu	a3,1(a1)
   19f4c:	00158593          	addi	a1,a1,1
   19f50:	fe0698e3          	bnez	a3,19f40 <__sflags+0x2c>
   19f54:	00e7e7b3          	or	a5,a5,a4
   19f58:	00f62023          	sw	a5,0(a2)
   19f5c:	00008067          	ret
   19f60:	fe357513          	andi	a0,a0,-29
   19f64:	ffc7f793          	andi	a5,a5,-4
   19f68:	01056513          	ori	a0,a0,16
   19f6c:	0027e793          	ori	a5,a5,2
   19f70:	fd9ff06f          	j	19f48 <__sflags+0x34>
   19f74:	0107e7b3          	or	a5,a5,a6
   19f78:	fd1ff06f          	j	19f48 <__sflags+0x34>
   19f7c:	00000713          	li	a4,0
   19f80:	00000793          	li	a5,0
   19f84:	00400513          	li	a0,4
   19f88:	00001837          	lui	a6,0x1
   19f8c:	02b00893          	li	a7,43
   19f90:	07800313          	li	t1,120
   19f94:	80080813          	addi	a6,a6,-2048 # 800 <exit-0xf874>
   19f98:	fb1ff06f          	j	19f48 <__sflags+0x34>
   19f9c:	60000713          	li	a4,1536
   19fa0:	00100793          	li	a5,1
   19fa4:	00800513          	li	a0,8
   19fa8:	fe1ff06f          	j	19f88 <__sflags+0x74>
   19fac:	20800713          	li	a4,520
   19fb0:	00100793          	li	a5,1
   19fb4:	10800513          	li	a0,264
   19fb8:	fd1ff06f          	j	19f88 <__sflags+0x74>

00019fbc <_fstat_r>:
   19fbc:	ff010113          	addi	sp,sp,-16
   19fc0:	00812423          	sw	s0,8(sp)
   19fc4:	00912223          	sw	s1,4(sp)
   19fc8:	00050413          	mv	s0,a0
   19fcc:	00058513          	mv	a0,a1
   19fd0:	00060593          	mv	a1,a2
   19fd4:	00112623          	sw	ra,12(sp)
   19fd8:	8001a823          	sw	zero,-2032(gp) # 20dcc <errno>
   19fdc:	174010ef          	jal	ra,1b150 <_fstat>
   19fe0:	fff00793          	li	a5,-1
   19fe4:	00f51863          	bne	a0,a5,19ff4 <_fstat_r+0x38>
   19fe8:	8101a783          	lw	a5,-2032(gp) # 20dcc <errno>
   19fec:	00078463          	beqz	a5,19ff4 <_fstat_r+0x38>
   19ff0:	00f42023          	sw	a5,0(s0)
   19ff4:	00c12083          	lw	ra,12(sp)
   19ff8:	00812403          	lw	s0,8(sp)
   19ffc:	00412483          	lw	s1,4(sp)
   1a000:	01010113          	addi	sp,sp,16
   1a004:	00008067          	ret

0001a008 <_isatty_r>:
   1a008:	ff010113          	addi	sp,sp,-16
   1a00c:	00812423          	sw	s0,8(sp)
   1a010:	00912223          	sw	s1,4(sp)
   1a014:	00050413          	mv	s0,a0
   1a018:	00058513          	mv	a0,a1
   1a01c:	00112623          	sw	ra,12(sp)
   1a020:	8001a823          	sw	zero,-2032(gp) # 20dcc <errno>
   1a024:	804fa0ef          	jal	ra,14028 <_isatty>
   1a028:	fff00793          	li	a5,-1
   1a02c:	00f51863          	bne	a0,a5,1a03c <_isatty_r+0x34>
   1a030:	8101a783          	lw	a5,-2032(gp) # 20dcc <errno>
   1a034:	00078463          	beqz	a5,1a03c <_isatty_r+0x34>
   1a038:	00f42023          	sw	a5,0(s0)
   1a03c:	00c12083          	lw	ra,12(sp)
   1a040:	00812403          	lw	s0,8(sp)
   1a044:	00412483          	lw	s1,4(sp)
   1a048:	01010113          	addi	sp,sp,16
   1a04c:	00008067          	ret

0001a050 <_lseek_r>:
   1a050:	ff010113          	addi	sp,sp,-16
   1a054:	00812423          	sw	s0,8(sp)
   1a058:	00912223          	sw	s1,4(sp)
   1a05c:	00050413          	mv	s0,a0
   1a060:	00058513          	mv	a0,a1
   1a064:	00060593          	mv	a1,a2
   1a068:	00068613          	mv	a2,a3
   1a06c:	00112623          	sw	ra,12(sp)
   1a070:	8001a823          	sw	zero,-2032(gp) # 20dcc <errno>
   1a074:	ff1f90ef          	jal	ra,14064 <_lseek>
   1a078:	fff00793          	li	a5,-1
   1a07c:	00f51863          	bne	a0,a5,1a08c <_lseek_r+0x3c>
   1a080:	8101a783          	lw	a5,-2032(gp) # 20dcc <errno>
   1a084:	00078463          	beqz	a5,1a08c <_lseek_r+0x3c>
   1a088:	00f42023          	sw	a5,0(s0)
   1a08c:	00c12083          	lw	ra,12(sp)
   1a090:	00812403          	lw	s0,8(sp)
   1a094:	00412483          	lw	s1,4(sp)
   1a098:	01010113          	addi	sp,sp,16
   1a09c:	00008067          	ret

0001a0a0 <__malloc_lock>:
   1a0a0:	00008067          	ret

0001a0a4 <__malloc_unlock>:
   1a0a4:	00008067          	ret

0001a0a8 <__ssputs_r>:
   1a0a8:	fe010113          	addi	sp,sp,-32
   1a0ac:	01212823          	sw	s2,16(sp)
   1a0b0:	0085a903          	lw	s2,8(a1)
   1a0b4:	00812c23          	sw	s0,24(sp)
   1a0b8:	01312623          	sw	s3,12(sp)
   1a0bc:	01412423          	sw	s4,8(sp)
   1a0c0:	00112e23          	sw	ra,28(sp)
   1a0c4:	00912a23          	sw	s1,20(sp)
   1a0c8:	01512223          	sw	s5,4(sp)
   1a0cc:	01612023          	sw	s6,0(sp)
   1a0d0:	00058413          	mv	s0,a1
   1a0d4:	00060a13          	mv	s4,a2
   1a0d8:	00068993          	mv	s3,a3
   1a0dc:	0d26ee63          	bltu	a3,s2,1a1b8 <__ssputs_r+0x110>
   1a0e0:	00c5d783          	lhu	a5,12(a1)
   1a0e4:	4807f713          	andi	a4,a5,1152
   1a0e8:	0c070663          	beqz	a4,1a1b4 <__ssputs_r+0x10c>
   1a0ec:	00042483          	lw	s1,0(s0)
   1a0f0:	0105a583          	lw	a1,16(a1)
   1a0f4:	01442703          	lw	a4,20(s0)
   1a0f8:	00050b13          	mv	s6,a0
   1a0fc:	40b48ab3          	sub	s5,s1,a1
   1a100:	00300493          	li	s1,3
   1a104:	02e484b3          	mul	s1,s1,a4
   1a108:	00200713          	li	a4,2
   1a10c:	02e4c4b3          	div	s1,s1,a4
   1a110:	00168713          	addi	a4,a3,1
   1a114:	01570733          	add	a4,a4,s5
   1a118:	00e4f463          	bgeu	s1,a4,1a120 <__ssputs_r+0x78>
   1a11c:	00070493          	mv	s1,a4
   1a120:	4007f793          	andi	a5,a5,1024
   1a124:	0c078463          	beqz	a5,1a1ec <__ssputs_r+0x144>
   1a128:	00048593          	mv	a1,s1
   1a12c:	000b0513          	mv	a0,s6
   1a130:	f8dfe0ef          	jal	ra,190bc <_malloc_r>
   1a134:	00050913          	mv	s2,a0
   1a138:	04051263          	bnez	a0,1a17c <__ssputs_r+0xd4>
   1a13c:	00c00793          	li	a5,12
   1a140:	00fb2023          	sw	a5,0(s6)
   1a144:	00c45783          	lhu	a5,12(s0)
   1a148:	fff00513          	li	a0,-1
   1a14c:	0407e793          	ori	a5,a5,64
   1a150:	00f41623          	sh	a5,12(s0)
   1a154:	01c12083          	lw	ra,28(sp)
   1a158:	01812403          	lw	s0,24(sp)
   1a15c:	01412483          	lw	s1,20(sp)
   1a160:	01012903          	lw	s2,16(sp)
   1a164:	00c12983          	lw	s3,12(sp)
   1a168:	00812a03          	lw	s4,8(sp)
   1a16c:	00412a83          	lw	s5,4(sp)
   1a170:	00012b03          	lw	s6,0(sp)
   1a174:	02010113          	addi	sp,sp,32
   1a178:	00008067          	ret
   1a17c:	01042583          	lw	a1,16(s0)
   1a180:	000a8613          	mv	a2,s5
   1a184:	df5fe0ef          	jal	ra,18f78 <memcpy>
   1a188:	00c45783          	lhu	a5,12(s0)
   1a18c:	b7f7f793          	andi	a5,a5,-1153
   1a190:	0807e793          	ori	a5,a5,128
   1a194:	00f41623          	sh	a5,12(s0)
   1a198:	01242823          	sw	s2,16(s0)
   1a19c:	00942a23          	sw	s1,20(s0)
   1a1a0:	01590933          	add	s2,s2,s5
   1a1a4:	415484b3          	sub	s1,s1,s5
   1a1a8:	01242023          	sw	s2,0(s0)
   1a1ac:	00942423          	sw	s1,8(s0)
   1a1b0:	00098913          	mv	s2,s3
   1a1b4:	0129f463          	bgeu	s3,s2,1a1bc <__ssputs_r+0x114>
   1a1b8:	00098913          	mv	s2,s3
   1a1bc:	00042503          	lw	a0,0(s0)
   1a1c0:	00090613          	mv	a2,s2
   1a1c4:	000a0593          	mv	a1,s4
   1a1c8:	62d000ef          	jal	ra,1aff4 <memmove>
   1a1cc:	00842783          	lw	a5,8(s0)
   1a1d0:	00000513          	li	a0,0
   1a1d4:	412787b3          	sub	a5,a5,s2
   1a1d8:	00f42423          	sw	a5,8(s0)
   1a1dc:	00042783          	lw	a5,0(s0)
   1a1e0:	012787b3          	add	a5,a5,s2
   1a1e4:	00f42023          	sw	a5,0(s0)
   1a1e8:	f6dff06f          	j	1a154 <__ssputs_r+0xac>
   1a1ec:	00048613          	mv	a2,s1
   1a1f0:	000b0513          	mv	a0,s6
   1a1f4:	63d000ef          	jal	ra,1b030 <_realloc_r>
   1a1f8:	00050913          	mv	s2,a0
   1a1fc:	f8051ee3          	bnez	a0,1a198 <__ssputs_r+0xf0>
   1a200:	01042583          	lw	a1,16(s0)
   1a204:	000b0513          	mv	a0,s6
   1a208:	db1fe0ef          	jal	ra,18fb8 <_free_r>
   1a20c:	f31ff06f          	j	1a13c <__ssputs_r+0x94>

0001a210 <_svfiprintf_r>:
   1a210:	00c5d783          	lhu	a5,12(a1)
   1a214:	f5010113          	addi	sp,sp,-176
   1a218:	0a812423          	sw	s0,168(sp)
   1a21c:	0a912223          	sw	s1,164(sp)
   1a220:	0b212023          	sw	s2,160(sp)
   1a224:	09412c23          	sw	s4,152(sp)
   1a228:	0a112623          	sw	ra,172(sp)
   1a22c:	09312e23          	sw	s3,156(sp)
   1a230:	09512a23          	sw	s5,148(sp)
   1a234:	09612823          	sw	s6,144(sp)
   1a238:	09712623          	sw	s7,140(sp)
   1a23c:	09812423          	sw	s8,136(sp)
   1a240:	09912223          	sw	s9,132(sp)
   1a244:	09a12023          	sw	s10,128(sp)
   1a248:	07b12e23          	sw	s11,124(sp)
   1a24c:	0807f793          	andi	a5,a5,128
   1a250:	00050a13          	mv	s4,a0
   1a254:	00058913          	mv	s2,a1
   1a258:	00060493          	mv	s1,a2
   1a25c:	00068413          	mv	s0,a3
   1a260:	06078863          	beqz	a5,1a2d0 <_svfiprintf_r+0xc0>
   1a264:	0105a783          	lw	a5,16(a1)
   1a268:	06079463          	bnez	a5,1a2d0 <_svfiprintf_r+0xc0>
   1a26c:	04000593          	li	a1,64
   1a270:	e4dfe0ef          	jal	ra,190bc <_malloc_r>
   1a274:	00a92023          	sw	a0,0(s2)
   1a278:	00a92823          	sw	a0,16(s2)
   1a27c:	04051663          	bnez	a0,1a2c8 <_svfiprintf_r+0xb8>
   1a280:	00c00793          	li	a5,12
   1a284:	00fa2023          	sw	a5,0(s4)
   1a288:	fff00513          	li	a0,-1
   1a28c:	0ac12083          	lw	ra,172(sp)
   1a290:	0a812403          	lw	s0,168(sp)
   1a294:	0a412483          	lw	s1,164(sp)
   1a298:	0a012903          	lw	s2,160(sp)
   1a29c:	09c12983          	lw	s3,156(sp)
   1a2a0:	09812a03          	lw	s4,152(sp)
   1a2a4:	09412a83          	lw	s5,148(sp)
   1a2a8:	09012b03          	lw	s6,144(sp)
   1a2ac:	08c12b83          	lw	s7,140(sp)
   1a2b0:	08812c03          	lw	s8,136(sp)
   1a2b4:	08412c83          	lw	s9,132(sp)
   1a2b8:	08012d03          	lw	s10,128(sp)
   1a2bc:	07c12d83          	lw	s11,124(sp)
   1a2c0:	0b010113          	addi	sp,sp,176
   1a2c4:	00008067          	ret
   1a2c8:	04000793          	li	a5,64
   1a2cc:	00f92a23          	sw	a5,20(s2)
   1a2d0:	02000793          	li	a5,32
   1a2d4:	02f104a3          	sb	a5,41(sp)
   1a2d8:	03000793          	li	a5,48
   1a2dc:	02012223          	sw	zero,36(sp)
   1a2e0:	02f10523          	sb	a5,42(sp)
   1a2e4:	00812623          	sw	s0,12(sp)
   1a2e8:	02500c93          	li	s9,37
   1a2ec:	0001db37          	lui	s6,0x1d
   1a2f0:	0001dbb7          	lui	s7,0x1d
   1a2f4:	0001dd37          	lui	s10,0x1d
   1a2f8:	0001ac37          	lui	s8,0x1a
   1a2fc:	00000a93          	li	s5,0
   1a300:	00048413          	mv	s0,s1
   1a304:	00044783          	lbu	a5,0(s0)
   1a308:	00078463          	beqz	a5,1a310 <_svfiprintf_r+0x100>
   1a30c:	0d979c63          	bne	a5,s9,1a3e4 <_svfiprintf_r+0x1d4>
   1a310:	40940db3          	sub	s11,s0,s1
   1a314:	02940663          	beq	s0,s1,1a340 <_svfiprintf_r+0x130>
   1a318:	000d8693          	mv	a3,s11
   1a31c:	00048613          	mv	a2,s1
   1a320:	00090593          	mv	a1,s2
   1a324:	000a0513          	mv	a0,s4
   1a328:	d81ff0ef          	jal	ra,1a0a8 <__ssputs_r>
   1a32c:	fff00793          	li	a5,-1
   1a330:	24f50663          	beq	a0,a5,1a57c <_svfiprintf_r+0x36c>
   1a334:	02412783          	lw	a5,36(sp)
   1a338:	01b787b3          	add	a5,a5,s11
   1a33c:	02f12223          	sw	a5,36(sp)
   1a340:	00044783          	lbu	a5,0(s0)
   1a344:	22078c63          	beqz	a5,1a57c <_svfiprintf_r+0x36c>
   1a348:	fff00793          	li	a5,-1
   1a34c:	00140493          	addi	s1,s0,1
   1a350:	00012823          	sw	zero,16(sp)
   1a354:	00012e23          	sw	zero,28(sp)
   1a358:	00f12a23          	sw	a5,20(sp)
   1a35c:	00012c23          	sw	zero,24(sp)
   1a360:	040109a3          	sb	zero,83(sp)
   1a364:	06012423          	sw	zero,104(sp)
   1a368:	00100d93          	li	s11,1
   1a36c:	0004c583          	lbu	a1,0(s1)
   1a370:	00500613          	li	a2,5
   1a374:	68cb0513          	addi	a0,s6,1676 # 1d68c <__sf_fake_stdout+0x20>
   1a378:	459000ef          	jal	ra,1afd0 <memchr>
   1a37c:	01012783          	lw	a5,16(sp)
   1a380:	00148413          	addi	s0,s1,1
   1a384:	06051463          	bnez	a0,1a3ec <_svfiprintf_r+0x1dc>
   1a388:	0107f713          	andi	a4,a5,16
   1a38c:	00070663          	beqz	a4,1a398 <_svfiprintf_r+0x188>
   1a390:	02000713          	li	a4,32
   1a394:	04e109a3          	sb	a4,83(sp)
   1a398:	0087f713          	andi	a4,a5,8
   1a39c:	00070663          	beqz	a4,1a3a8 <_svfiprintf_r+0x198>
   1a3a0:	02b00713          	li	a4,43
   1a3a4:	04e109a3          	sb	a4,83(sp)
   1a3a8:	0004c683          	lbu	a3,0(s1)
   1a3ac:	02a00713          	li	a4,42
   1a3b0:	04e68c63          	beq	a3,a4,1a408 <_svfiprintf_r+0x1f8>
   1a3b4:	01c12783          	lw	a5,28(sp)
   1a3b8:	00048413          	mv	s0,s1
   1a3bc:	00000693          	li	a3,0
   1a3c0:	00900613          	li	a2,9
   1a3c4:	00a00513          	li	a0,10
   1a3c8:	00044703          	lbu	a4,0(s0)
   1a3cc:	00140593          	addi	a1,s0,1
   1a3d0:	fd070713          	addi	a4,a4,-48
   1a3d4:	08e67c63          	bgeu	a2,a4,1a46c <_svfiprintf_r+0x25c>
   1a3d8:	04068463          	beqz	a3,1a420 <_svfiprintf_r+0x210>
   1a3dc:	00f12e23          	sw	a5,28(sp)
   1a3e0:	0400006f          	j	1a420 <_svfiprintf_r+0x210>
   1a3e4:	00140413          	addi	s0,s0,1
   1a3e8:	f1dff06f          	j	1a304 <_svfiprintf_r+0xf4>
   1a3ec:	68cb0713          	addi	a4,s6,1676
   1a3f0:	40e50533          	sub	a0,a0,a4
   1a3f4:	00ad9533          	sll	a0,s11,a0
   1a3f8:	00a7e7b3          	or	a5,a5,a0
   1a3fc:	00f12823          	sw	a5,16(sp)
   1a400:	00040493          	mv	s1,s0
   1a404:	f69ff06f          	j	1a36c <_svfiprintf_r+0x15c>
   1a408:	00c12703          	lw	a4,12(sp)
   1a40c:	00470693          	addi	a3,a4,4
   1a410:	00072703          	lw	a4,0(a4)
   1a414:	00d12623          	sw	a3,12(sp)
   1a418:	04074063          	bltz	a4,1a458 <_svfiprintf_r+0x248>
   1a41c:	00e12e23          	sw	a4,28(sp)
   1a420:	00044703          	lbu	a4,0(s0)
   1a424:	02e00793          	li	a5,46
   1a428:	08f71663          	bne	a4,a5,1a4b4 <_svfiprintf_r+0x2a4>
   1a42c:	00144703          	lbu	a4,1(s0)
   1a430:	02a00793          	li	a5,42
   1a434:	04f71a63          	bne	a4,a5,1a488 <_svfiprintf_r+0x278>
   1a438:	00c12783          	lw	a5,12(sp)
   1a43c:	00240413          	addi	s0,s0,2
   1a440:	00478713          	addi	a4,a5,4
   1a444:	0007a783          	lw	a5,0(a5)
   1a448:	00e12623          	sw	a4,12(sp)
   1a44c:	0207ca63          	bltz	a5,1a480 <_svfiprintf_r+0x270>
   1a450:	00f12a23          	sw	a5,20(sp)
   1a454:	0600006f          	j	1a4b4 <_svfiprintf_r+0x2a4>
   1a458:	40e00733          	neg	a4,a4
   1a45c:	0027e793          	ori	a5,a5,2
   1a460:	00e12e23          	sw	a4,28(sp)
   1a464:	00f12823          	sw	a5,16(sp)
   1a468:	fb9ff06f          	j	1a420 <_svfiprintf_r+0x210>
   1a46c:	02a787b3          	mul	a5,a5,a0
   1a470:	00058413          	mv	s0,a1
   1a474:	00100693          	li	a3,1
   1a478:	00e787b3          	add	a5,a5,a4
   1a47c:	f4dff06f          	j	1a3c8 <_svfiprintf_r+0x1b8>
   1a480:	fff00793          	li	a5,-1
   1a484:	fcdff06f          	j	1a450 <_svfiprintf_r+0x240>
   1a488:	00140413          	addi	s0,s0,1
   1a48c:	00012a23          	sw	zero,20(sp)
   1a490:	00000693          	li	a3,0
   1a494:	00000793          	li	a5,0
   1a498:	00900613          	li	a2,9
   1a49c:	00a00513          	li	a0,10
   1a4a0:	00044703          	lbu	a4,0(s0)
   1a4a4:	00140593          	addi	a1,s0,1
   1a4a8:	fd070713          	addi	a4,a4,-48
   1a4ac:	08e67263          	bgeu	a2,a4,1a530 <_svfiprintf_r+0x320>
   1a4b0:	fa0690e3          	bnez	a3,1a450 <_svfiprintf_r+0x240>
   1a4b4:	00044583          	lbu	a1,0(s0)
   1a4b8:	00300613          	li	a2,3
   1a4bc:	694b8513          	addi	a0,s7,1684 # 1d694 <__sf_fake_stdout+0x28>
   1a4c0:	311000ef          	jal	ra,1afd0 <memchr>
   1a4c4:	02050263          	beqz	a0,1a4e8 <_svfiprintf_r+0x2d8>
   1a4c8:	694b8793          	addi	a5,s7,1684
   1a4cc:	40f50533          	sub	a0,a0,a5
   1a4d0:	04000793          	li	a5,64
   1a4d4:	00a797b3          	sll	a5,a5,a0
   1a4d8:	01012503          	lw	a0,16(sp)
   1a4dc:	00140413          	addi	s0,s0,1
   1a4e0:	00f56533          	or	a0,a0,a5
   1a4e4:	00a12823          	sw	a0,16(sp)
   1a4e8:	00044583          	lbu	a1,0(s0)
   1a4ec:	00600613          	li	a2,6
   1a4f0:	698d0513          	addi	a0,s10,1688 # 1d698 <__sf_fake_stdout+0x2c>
   1a4f4:	00140493          	addi	s1,s0,1
   1a4f8:	02b10423          	sb	a1,40(sp)
   1a4fc:	2d5000ef          	jal	ra,1afd0 <memchr>
   1a500:	08050a63          	beqz	a0,1a594 <_svfiprintf_r+0x384>
   1a504:	040a9863          	bnez	s5,1a554 <_svfiprintf_r+0x344>
   1a508:	01012703          	lw	a4,16(sp)
   1a50c:	00c12783          	lw	a5,12(sp)
   1a510:	10077713          	andi	a4,a4,256
   1a514:	02070863          	beqz	a4,1a544 <_svfiprintf_r+0x334>
   1a518:	00478793          	addi	a5,a5,4
   1a51c:	00f12623          	sw	a5,12(sp)
   1a520:	02412783          	lw	a5,36(sp)
   1a524:	013787b3          	add	a5,a5,s3
   1a528:	02f12223          	sw	a5,36(sp)
   1a52c:	dd5ff06f          	j	1a300 <_svfiprintf_r+0xf0>
   1a530:	02a787b3          	mul	a5,a5,a0
   1a534:	00058413          	mv	s0,a1
   1a538:	00100693          	li	a3,1
   1a53c:	00e787b3          	add	a5,a5,a4
   1a540:	f61ff06f          	j	1a4a0 <_svfiprintf_r+0x290>
   1a544:	00778793          	addi	a5,a5,7
   1a548:	ff87f793          	andi	a5,a5,-8
   1a54c:	00878793          	addi	a5,a5,8
   1a550:	fcdff06f          	j	1a51c <_svfiprintf_r+0x30c>
   1a554:	00c10713          	addi	a4,sp,12
   1a558:	0a8c0693          	addi	a3,s8,168 # 1a0a8 <__ssputs_r>
   1a55c:	00090613          	mv	a2,s2
   1a560:	01010593          	addi	a1,sp,16
   1a564:	000a0513          	mv	a0,s4
   1a568:	00000097          	auipc	ra,0x0
   1a56c:	000000e7          	jalr	zero # 0 <exit-0x10074>
   1a570:	fff00793          	li	a5,-1
   1a574:	00050993          	mv	s3,a0
   1a578:	faf514e3          	bne	a0,a5,1a520 <_svfiprintf_r+0x310>
   1a57c:	00c95783          	lhu	a5,12(s2)
   1a580:	fff00513          	li	a0,-1
   1a584:	0407f793          	andi	a5,a5,64
   1a588:	d00792e3          	bnez	a5,1a28c <_svfiprintf_r+0x7c>
   1a58c:	02412503          	lw	a0,36(sp)
   1a590:	cfdff06f          	j	1a28c <_svfiprintf_r+0x7c>
   1a594:	00c10713          	addi	a4,sp,12
   1a598:	0a8c0693          	addi	a3,s8,168
   1a59c:	00090613          	mv	a2,s2
   1a5a0:	01010593          	addi	a1,sp,16
   1a5a4:	000a0513          	mv	a0,s4
   1a5a8:	1b8000ef          	jal	ra,1a760 <_printf_i>
   1a5ac:	fc5ff06f          	j	1a570 <_svfiprintf_r+0x360>

0001a5b0 <_printf_common>:
   1a5b0:	fd010113          	addi	sp,sp,-48
   1a5b4:	01412c23          	sw	s4,24(sp)
   1a5b8:	0105a783          	lw	a5,16(a1)
   1a5bc:	00070a13          	mv	s4,a4
   1a5c0:	0085a703          	lw	a4,8(a1)
   1a5c4:	02812423          	sw	s0,40(sp)
   1a5c8:	02912223          	sw	s1,36(sp)
   1a5cc:	01312e23          	sw	s3,28(sp)
   1a5d0:	01512a23          	sw	s5,20(sp)
   1a5d4:	02112623          	sw	ra,44(sp)
   1a5d8:	03212023          	sw	s2,32(sp)
   1a5dc:	01612823          	sw	s6,16(sp)
   1a5e0:	01712623          	sw	s7,12(sp)
   1a5e4:	00050993          	mv	s3,a0
   1a5e8:	00058413          	mv	s0,a1
   1a5ec:	00060493          	mv	s1,a2
   1a5f0:	00068a93          	mv	s5,a3
   1a5f4:	00e7d463          	bge	a5,a4,1a5fc <_printf_common+0x4c>
   1a5f8:	00070793          	mv	a5,a4
   1a5fc:	00f4a023          	sw	a5,0(s1)
   1a600:	04344703          	lbu	a4,67(s0)
   1a604:	00070663          	beqz	a4,1a610 <_printf_common+0x60>
   1a608:	00178793          	addi	a5,a5,1
   1a60c:	00f4a023          	sw	a5,0(s1)
   1a610:	00042783          	lw	a5,0(s0)
   1a614:	0207f793          	andi	a5,a5,32
   1a618:	00078863          	beqz	a5,1a628 <_printf_common+0x78>
   1a61c:	0004a783          	lw	a5,0(s1)
   1a620:	00278793          	addi	a5,a5,2
   1a624:	00f4a023          	sw	a5,0(s1)
   1a628:	00042903          	lw	s2,0(s0)
   1a62c:	00697913          	andi	s2,s2,6
   1a630:	00091e63          	bnez	s2,1a64c <_printf_common+0x9c>
   1a634:	01940b13          	addi	s6,s0,25
   1a638:	fff00b93          	li	s7,-1
   1a63c:	00c42783          	lw	a5,12(s0)
   1a640:	0004a703          	lw	a4,0(s1)
   1a644:	40e787b3          	sub	a5,a5,a4
   1a648:	08f94263          	blt	s2,a5,1a6cc <_printf_common+0x11c>
   1a64c:	04344783          	lbu	a5,67(s0)
   1a650:	00f036b3          	snez	a3,a5
   1a654:	00042783          	lw	a5,0(s0)
   1a658:	0207f793          	andi	a5,a5,32
   1a65c:	0c079063          	bnez	a5,1a71c <_printf_common+0x16c>
   1a660:	04340613          	addi	a2,s0,67
   1a664:	000a8593          	mv	a1,s5
   1a668:	00098513          	mv	a0,s3
   1a66c:	000a00e7          	jalr	s4
   1a670:	fff00793          	li	a5,-1
   1a674:	06f50863          	beq	a0,a5,1a6e4 <_printf_common+0x134>
   1a678:	00042783          	lw	a5,0(s0)
   1a67c:	00400613          	li	a2,4
   1a680:	0004a703          	lw	a4,0(s1)
   1a684:	0067f793          	andi	a5,a5,6
   1a688:	00c42683          	lw	a3,12(s0)
   1a68c:	00000493          	li	s1,0
   1a690:	00c79863          	bne	a5,a2,1a6a0 <_printf_common+0xf0>
   1a694:	40e684b3          	sub	s1,a3,a4
   1a698:	0004d463          	bgez	s1,1a6a0 <_printf_common+0xf0>
   1a69c:	00000493          	li	s1,0
   1a6a0:	00842783          	lw	a5,8(s0)
   1a6a4:	01042703          	lw	a4,16(s0)
   1a6a8:	00f75663          	bge	a4,a5,1a6b4 <_printf_common+0x104>
   1a6ac:	40e787b3          	sub	a5,a5,a4
   1a6b0:	00f484b3          	add	s1,s1,a5
   1a6b4:	00000913          	li	s2,0
   1a6b8:	01a40413          	addi	s0,s0,26
   1a6bc:	fff00b13          	li	s6,-1
   1a6c0:	09249063          	bne	s1,s2,1a740 <_printf_common+0x190>
   1a6c4:	00000513          	li	a0,0
   1a6c8:	0200006f          	j	1a6e8 <_printf_common+0x138>
   1a6cc:	00100693          	li	a3,1
   1a6d0:	000b0613          	mv	a2,s6
   1a6d4:	000a8593          	mv	a1,s5
   1a6d8:	00098513          	mv	a0,s3
   1a6dc:	000a00e7          	jalr	s4
   1a6e0:	03751a63          	bne	a0,s7,1a714 <_printf_common+0x164>
   1a6e4:	fff00513          	li	a0,-1
   1a6e8:	02c12083          	lw	ra,44(sp)
   1a6ec:	02812403          	lw	s0,40(sp)
   1a6f0:	02412483          	lw	s1,36(sp)
   1a6f4:	02012903          	lw	s2,32(sp)
   1a6f8:	01c12983          	lw	s3,28(sp)
   1a6fc:	01812a03          	lw	s4,24(sp)
   1a700:	01412a83          	lw	s5,20(sp)
   1a704:	01012b03          	lw	s6,16(sp)
   1a708:	00c12b83          	lw	s7,12(sp)
   1a70c:	03010113          	addi	sp,sp,48
   1a710:	00008067          	ret
   1a714:	00190913          	addi	s2,s2,1
   1a718:	f25ff06f          	j	1a63c <_printf_common+0x8c>
   1a71c:	00d40733          	add	a4,s0,a3
   1a720:	03000613          	li	a2,48
   1a724:	04c701a3          	sb	a2,67(a4)
   1a728:	04544703          	lbu	a4,69(s0)
   1a72c:	00168793          	addi	a5,a3,1
   1a730:	00f407b3          	add	a5,s0,a5
   1a734:	00268693          	addi	a3,a3,2
   1a738:	04e781a3          	sb	a4,67(a5)
   1a73c:	f25ff06f          	j	1a660 <_printf_common+0xb0>
   1a740:	00100693          	li	a3,1
   1a744:	00040613          	mv	a2,s0
   1a748:	000a8593          	mv	a1,s5
   1a74c:	00098513          	mv	a0,s3
   1a750:	000a00e7          	jalr	s4
   1a754:	f96508e3          	beq	a0,s6,1a6e4 <_printf_common+0x134>
   1a758:	00190913          	addi	s2,s2,1
   1a75c:	f65ff06f          	j	1a6c0 <_printf_common+0x110>

0001a760 <_printf_i>:
   1a760:	fd010113          	addi	sp,sp,-48
   1a764:	02812423          	sw	s0,40(sp)
   1a768:	02912223          	sw	s1,36(sp)
   1a76c:	03212023          	sw	s2,32(sp)
   1a770:	01312e23          	sw	s3,28(sp)
   1a774:	02112623          	sw	ra,44(sp)
   1a778:	01412c23          	sw	s4,24(sp)
   1a77c:	01512a23          	sw	s5,20(sp)
   1a780:	01612823          	sw	s6,16(sp)
   1a784:	0185c883          	lbu	a7,24(a1)
   1a788:	07800793          	li	a5,120
   1a78c:	00050493          	mv	s1,a0
   1a790:	00058413          	mv	s0,a1
   1a794:	00060913          	mv	s2,a2
   1a798:	00068993          	mv	s3,a3
   1a79c:	0117ee63          	bltu	a5,a7,1a7b8 <_printf_i+0x58>
   1a7a0:	06200793          	li	a5,98
   1a7a4:	04358693          	addi	a3,a1,67
   1a7a8:	0117ee63          	bltu	a5,a7,1a7c4 <_printf_i+0x64>
   1a7ac:	28088a63          	beqz	a7,1aa40 <_printf_i+0x2e0>
   1a7b0:	05800793          	li	a5,88
   1a7b4:	1cf88063          	beq	a7,a5,1a974 <_printf_i+0x214>
   1a7b8:	04240a93          	addi	s5,s0,66
   1a7bc:	05140123          	sb	a7,66(s0)
   1a7c0:	0440006f          	j	1a804 <_printf_i+0xa4>
   1a7c4:	f9d88793          	addi	a5,a7,-99
   1a7c8:	0ff7f793          	andi	a5,a5,255
   1a7cc:	01500613          	li	a2,21
   1a7d0:	fef664e3          	bltu	a2,a5,1a7b8 <_printf_i+0x58>
   1a7d4:	0001d637          	lui	a2,0x1d
   1a7d8:	00279793          	slli	a5,a5,0x2
   1a7dc:	6b460613          	addi	a2,a2,1716 # 1d6b4 <__sf_fake_stdout+0x48>
   1a7e0:	00c787b3          	add	a5,a5,a2
   1a7e4:	0007a783          	lw	a5,0(a5)
   1a7e8:	00078067          	jr	a5
   1a7ec:	00072783          	lw	a5,0(a4)
   1a7f0:	04258a93          	addi	s5,a1,66
   1a7f4:	00478693          	addi	a3,a5,4
   1a7f8:	0007a783          	lw	a5,0(a5)
   1a7fc:	00d72023          	sw	a3,0(a4)
   1a800:	04f58123          	sb	a5,66(a1)
   1a804:	00100793          	li	a5,1
   1a808:	2740006f          	j	1aa7c <_printf_i+0x31c>
   1a80c:	0005a783          	lw	a5,0(a1)
   1a810:	00072503          	lw	a0,0(a4)
   1a814:	0807f613          	andi	a2,a5,128
   1a818:	00450593          	addi	a1,a0,4
   1a81c:	02060663          	beqz	a2,1a848 <_printf_i+0xe8>
   1a820:	00052783          	lw	a5,0(a0)
   1a824:	00b72023          	sw	a1,0(a4)
   1a828:	0001c837          	lui	a6,0x1c
   1a82c:	0007d863          	bgez	a5,1a83c <_printf_i+0xdc>
   1a830:	02d00713          	li	a4,45
   1a834:	40f007b3          	neg	a5,a5
   1a838:	04e401a3          	sb	a4,67(s0)
   1a83c:	c5c80813          	addi	a6,a6,-932 # 1bc5c <_ZL9hexdigits+0x14>
   1a840:	00a00713          	li	a4,10
   1a844:	0680006f          	j	1a8ac <_printf_i+0x14c>
   1a848:	0407f613          	andi	a2,a5,64
   1a84c:	00052783          	lw	a5,0(a0)
   1a850:	00b72023          	sw	a1,0(a4)
   1a854:	fc060ae3          	beqz	a2,1a828 <_printf_i+0xc8>
   1a858:	01079793          	slli	a5,a5,0x10
   1a85c:	4107d793          	srai	a5,a5,0x10
   1a860:	fc9ff06f          	j	1a828 <_printf_i+0xc8>
   1a864:	0005a603          	lw	a2,0(a1)
   1a868:	00072783          	lw	a5,0(a4)
   1a86c:	08067513          	andi	a0,a2,128
   1a870:	00478593          	addi	a1,a5,4
   1a874:	00050863          	beqz	a0,1a884 <_printf_i+0x124>
   1a878:	00b72023          	sw	a1,0(a4)
   1a87c:	0007a783          	lw	a5,0(a5)
   1a880:	0140006f          	j	1a894 <_printf_i+0x134>
   1a884:	04067613          	andi	a2,a2,64
   1a888:	00b72023          	sw	a1,0(a4)
   1a88c:	fe0608e3          	beqz	a2,1a87c <_printf_i+0x11c>
   1a890:	0007d783          	lhu	a5,0(a5)
   1a894:	0001c837          	lui	a6,0x1c
   1a898:	06f00713          	li	a4,111
   1a89c:	c5c80813          	addi	a6,a6,-932 # 1bc5c <_ZL9hexdigits+0x14>
   1a8a0:	14e88e63          	beq	a7,a4,1a9fc <_printf_i+0x29c>
   1a8a4:	00a00713          	li	a4,10
   1a8a8:	040401a3          	sb	zero,67(s0)
   1a8ac:	00442603          	lw	a2,4(s0)
   1a8b0:	00c42423          	sw	a2,8(s0)
   1a8b4:	00064863          	bltz	a2,1a8c4 <_printf_i+0x164>
   1a8b8:	00042583          	lw	a1,0(s0)
   1a8bc:	ffb5f593          	andi	a1,a1,-5
   1a8c0:	00b42023          	sw	a1,0(s0)
   1a8c4:	00079663          	bnez	a5,1a8d0 <_printf_i+0x170>
   1a8c8:	00068a93          	mv	s5,a3
   1a8cc:	02060463          	beqz	a2,1a8f4 <_printf_i+0x194>
   1a8d0:	00068a93          	mv	s5,a3
   1a8d4:	02e7f633          	remu	a2,a5,a4
   1a8d8:	fffa8a93          	addi	s5,s5,-1
   1a8dc:	00c80633          	add	a2,a6,a2
   1a8e0:	00064603          	lbu	a2,0(a2)
   1a8e4:	00ca8023          	sb	a2,0(s5)
   1a8e8:	00078613          	mv	a2,a5
   1a8ec:	02e7d7b3          	divu	a5,a5,a4
   1a8f0:	fee672e3          	bgeu	a2,a4,1a8d4 <_printf_i+0x174>
   1a8f4:	00800793          	li	a5,8
   1a8f8:	02f71463          	bne	a4,a5,1a920 <_printf_i+0x1c0>
   1a8fc:	00042783          	lw	a5,0(s0)
   1a900:	0017f793          	andi	a5,a5,1
   1a904:	00078e63          	beqz	a5,1a920 <_printf_i+0x1c0>
   1a908:	00442703          	lw	a4,4(s0)
   1a90c:	01042783          	lw	a5,16(s0)
   1a910:	00e7c863          	blt	a5,a4,1a920 <_printf_i+0x1c0>
   1a914:	03000793          	li	a5,48
   1a918:	fefa8fa3          	sb	a5,-1(s5)
   1a91c:	fffa8a93          	addi	s5,s5,-1
   1a920:	415686b3          	sub	a3,a3,s5
   1a924:	00d42823          	sw	a3,16(s0)
   1a928:	00098713          	mv	a4,s3
   1a92c:	00090693          	mv	a3,s2
   1a930:	00c10613          	addi	a2,sp,12
   1a934:	00040593          	mv	a1,s0
   1a938:	00048513          	mv	a0,s1
   1a93c:	c75ff0ef          	jal	ra,1a5b0 <_printf_common>
   1a940:	fff00a13          	li	s4,-1
   1a944:	15451263          	bne	a0,s4,1aa88 <_printf_i+0x328>
   1a948:	fff00513          	li	a0,-1
   1a94c:	02c12083          	lw	ra,44(sp)
   1a950:	02812403          	lw	s0,40(sp)
   1a954:	02412483          	lw	s1,36(sp)
   1a958:	02012903          	lw	s2,32(sp)
   1a95c:	01c12983          	lw	s3,28(sp)
   1a960:	01812a03          	lw	s4,24(sp)
   1a964:	01412a83          	lw	s5,20(sp)
   1a968:	01012b03          	lw	s6,16(sp)
   1a96c:	03010113          	addi	sp,sp,48
   1a970:	00008067          	ret
   1a974:	0001c837          	lui	a6,0x1c
   1a978:	051582a3          	sb	a7,69(a1)
   1a97c:	c5c80813          	addi	a6,a6,-932 # 1bc5c <_ZL9hexdigits+0x14>
   1a980:	00042603          	lw	a2,0(s0)
   1a984:	00072583          	lw	a1,0(a4)
   1a988:	08067513          	andi	a0,a2,128
   1a98c:	0005a783          	lw	a5,0(a1)
   1a990:	00458593          	addi	a1,a1,4
   1a994:	04050863          	beqz	a0,1a9e4 <_printf_i+0x284>
   1a998:	00b72023          	sw	a1,0(a4)
   1a99c:	00167713          	andi	a4,a2,1
   1a9a0:	00070663          	beqz	a4,1a9ac <_printf_i+0x24c>
   1a9a4:	02066613          	ori	a2,a2,32
   1a9a8:	00c42023          	sw	a2,0(s0)
   1a9ac:	01000713          	li	a4,16
   1a9b0:	ee079ce3          	bnez	a5,1a8a8 <_printf_i+0x148>
   1a9b4:	00042603          	lw	a2,0(s0)
   1a9b8:	fdf67613          	andi	a2,a2,-33
   1a9bc:	00c42023          	sw	a2,0(s0)
   1a9c0:	ee9ff06f          	j	1a8a8 <_printf_i+0x148>
   1a9c4:	0005a783          	lw	a5,0(a1)
   1a9c8:	0207e793          	ori	a5,a5,32
   1a9cc:	00f5a023          	sw	a5,0(a1)
   1a9d0:	07800793          	li	a5,120
   1a9d4:	0001d837          	lui	a6,0x1d
   1a9d8:	04f402a3          	sb	a5,69(s0)
   1a9dc:	6a080813          	addi	a6,a6,1696 # 1d6a0 <__sf_fake_stdout+0x34>
   1a9e0:	fa1ff06f          	j	1a980 <_printf_i+0x220>
   1a9e4:	04067513          	andi	a0,a2,64
   1a9e8:	00b72023          	sw	a1,0(a4)
   1a9ec:	fa0508e3          	beqz	a0,1a99c <_printf_i+0x23c>
   1a9f0:	01079793          	slli	a5,a5,0x10
   1a9f4:	0107d793          	srli	a5,a5,0x10
   1a9f8:	fa5ff06f          	j	1a99c <_printf_i+0x23c>
   1a9fc:	00800713          	li	a4,8
   1aa00:	ea9ff06f          	j	1a8a8 <_printf_i+0x148>
   1aa04:	0005a603          	lw	a2,0(a1)
   1aa08:	00072783          	lw	a5,0(a4)
   1aa0c:	0145a583          	lw	a1,20(a1)
   1aa10:	08067813          	andi	a6,a2,128
   1aa14:	00478513          	addi	a0,a5,4
   1aa18:	00080a63          	beqz	a6,1aa2c <_printf_i+0x2cc>
   1aa1c:	00a72023          	sw	a0,0(a4)
   1aa20:	0007a783          	lw	a5,0(a5)
   1aa24:	00b7a023          	sw	a1,0(a5)
   1aa28:	0180006f          	j	1aa40 <_printf_i+0x2e0>
   1aa2c:	00a72023          	sw	a0,0(a4)
   1aa30:	04067613          	andi	a2,a2,64
   1aa34:	0007a783          	lw	a5,0(a5)
   1aa38:	fe0606e3          	beqz	a2,1aa24 <_printf_i+0x2c4>
   1aa3c:	00b79023          	sh	a1,0(a5)
   1aa40:	00042823          	sw	zero,16(s0)
   1aa44:	00068a93          	mv	s5,a3
   1aa48:	ee1ff06f          	j	1a928 <_printf_i+0x1c8>
   1aa4c:	00072783          	lw	a5,0(a4)
   1aa50:	0045a603          	lw	a2,4(a1)
   1aa54:	00000593          	li	a1,0
   1aa58:	00478693          	addi	a3,a5,4
   1aa5c:	00d72023          	sw	a3,0(a4)
   1aa60:	0007aa83          	lw	s5,0(a5)
   1aa64:	000a8513          	mv	a0,s5
   1aa68:	568000ef          	jal	ra,1afd0 <memchr>
   1aa6c:	00050663          	beqz	a0,1aa78 <_printf_i+0x318>
   1aa70:	41550533          	sub	a0,a0,s5
   1aa74:	00a42223          	sw	a0,4(s0)
   1aa78:	00442783          	lw	a5,4(s0)
   1aa7c:	00f42823          	sw	a5,16(s0)
   1aa80:	040401a3          	sb	zero,67(s0)
   1aa84:	ea5ff06f          	j	1a928 <_printf_i+0x1c8>
   1aa88:	01042683          	lw	a3,16(s0)
   1aa8c:	000a8613          	mv	a2,s5
   1aa90:	00090593          	mv	a1,s2
   1aa94:	00048513          	mv	a0,s1
   1aa98:	000980e7          	jalr	s3
   1aa9c:	eb4506e3          	beq	a0,s4,1a948 <_printf_i+0x1e8>
   1aaa0:	00042783          	lw	a5,0(s0)
   1aaa4:	0027f793          	andi	a5,a5,2
   1aaa8:	04079463          	bnez	a5,1aaf0 <_printf_i+0x390>
   1aaac:	00c12783          	lw	a5,12(sp)
   1aab0:	00c42503          	lw	a0,12(s0)
   1aab4:	e8f55ce3          	bge	a0,a5,1a94c <_printf_i+0x1ec>
   1aab8:	00078513          	mv	a0,a5
   1aabc:	e91ff06f          	j	1a94c <_printf_i+0x1ec>
   1aac0:	00100693          	li	a3,1
   1aac4:	000a8613          	mv	a2,s5
   1aac8:	00090593          	mv	a1,s2
   1aacc:	00048513          	mv	a0,s1
   1aad0:	000980e7          	jalr	s3
   1aad4:	e7650ae3          	beq	a0,s6,1a948 <_printf_i+0x1e8>
   1aad8:	001a0a13          	addi	s4,s4,1
   1aadc:	00c42783          	lw	a5,12(s0)
   1aae0:	00c12703          	lw	a4,12(sp)
   1aae4:	40e787b3          	sub	a5,a5,a4
   1aae8:	fcfa4ce3          	blt	s4,a5,1aac0 <_printf_i+0x360>
   1aaec:	fc1ff06f          	j	1aaac <_printf_i+0x34c>
   1aaf0:	00000a13          	li	s4,0
   1aaf4:	01940a93          	addi	s5,s0,25
   1aaf8:	fff00b13          	li	s6,-1
   1aafc:	fe1ff06f          	j	1aadc <_printf_i+0x37c>

0001ab00 <__sfputc_r>:
   1ab00:	00862783          	lw	a5,8(a2)
   1ab04:	fff78793          	addi	a5,a5,-1
   1ab08:	00f62423          	sw	a5,8(a2)
   1ab0c:	0007dc63          	bgez	a5,1ab24 <__sfputc_r+0x24>
   1ab10:	01862703          	lw	a4,24(a2)
   1ab14:	00e7c663          	blt	a5,a4,1ab20 <__sfputc_r+0x20>
   1ab18:	00a00793          	li	a5,10
   1ab1c:	00f59463          	bne	a1,a5,1ab24 <__sfputc_r+0x24>
   1ab20:	8acff06f          	j	19bcc <__swbuf_r>
   1ab24:	00062783          	lw	a5,0(a2)
   1ab28:	00058513          	mv	a0,a1
   1ab2c:	00178713          	addi	a4,a5,1
   1ab30:	00e62023          	sw	a4,0(a2)
   1ab34:	00b78023          	sb	a1,0(a5)
   1ab38:	00008067          	ret

0001ab3c <__sfputs_r>:
   1ab3c:	fe010113          	addi	sp,sp,-32
   1ab40:	00812c23          	sw	s0,24(sp)
   1ab44:	00912a23          	sw	s1,20(sp)
   1ab48:	01212823          	sw	s2,16(sp)
   1ab4c:	01312623          	sw	s3,12(sp)
   1ab50:	01412423          	sw	s4,8(sp)
   1ab54:	00112e23          	sw	ra,28(sp)
   1ab58:	00050913          	mv	s2,a0
   1ab5c:	00058993          	mv	s3,a1
   1ab60:	00060413          	mv	s0,a2
   1ab64:	00d604b3          	add	s1,a2,a3
   1ab68:	fff00a13          	li	s4,-1
   1ab6c:	00941663          	bne	s0,s1,1ab78 <__sfputs_r+0x3c>
   1ab70:	00000513          	li	a0,0
   1ab74:	01c0006f          	j	1ab90 <__sfputs_r+0x54>
   1ab78:	00044583          	lbu	a1,0(s0)
   1ab7c:	00098613          	mv	a2,s3
   1ab80:	00090513          	mv	a0,s2
   1ab84:	f7dff0ef          	jal	ra,1ab00 <__sfputc_r>
   1ab88:	00140413          	addi	s0,s0,1
   1ab8c:	ff4510e3          	bne	a0,s4,1ab6c <__sfputs_r+0x30>
   1ab90:	01c12083          	lw	ra,28(sp)
   1ab94:	01812403          	lw	s0,24(sp)
   1ab98:	01412483          	lw	s1,20(sp)
   1ab9c:	01012903          	lw	s2,16(sp)
   1aba0:	00c12983          	lw	s3,12(sp)
   1aba4:	00812a03          	lw	s4,8(sp)
   1aba8:	02010113          	addi	sp,sp,32
   1abac:	00008067          	ret

0001abb0 <_vfiprintf_r>:
   1abb0:	f5010113          	addi	sp,sp,-176
   1abb4:	0a812423          	sw	s0,168(sp)
   1abb8:	0a912223          	sw	s1,164(sp)
   1abbc:	0b212023          	sw	s2,160(sp)
   1abc0:	09312e23          	sw	s3,156(sp)
   1abc4:	0a112623          	sw	ra,172(sp)
   1abc8:	09412c23          	sw	s4,152(sp)
   1abcc:	09512a23          	sw	s5,148(sp)
   1abd0:	09612823          	sw	s6,144(sp)
   1abd4:	09712623          	sw	s7,140(sp)
   1abd8:	09812423          	sw	s8,136(sp)
   1abdc:	09912223          	sw	s9,132(sp)
   1abe0:	09a12023          	sw	s10,128(sp)
   1abe4:	07b12e23          	sw	s11,124(sp)
   1abe8:	00050993          	mv	s3,a0
   1abec:	00058493          	mv	s1,a1
   1abf0:	00060913          	mv	s2,a2
   1abf4:	00068413          	mv	s0,a3
   1abf8:	00050863          	beqz	a0,1ac08 <_vfiprintf_r+0x58>
   1abfc:	01852783          	lw	a5,24(a0)
   1ac00:	00079463          	bnez	a5,1ac08 <_vfiprintf_r+0x58>
   1ac04:	83dfd0ef          	jal	ra,18440 <__sinit>
   1ac08:	0001d7b7          	lui	a5,0x1d
   1ac0c:	64c78793          	addi	a5,a5,1612 # 1d64c <__sf_fake_stdin>
   1ac10:	12f49863          	bne	s1,a5,1ad40 <_vfiprintf_r+0x190>
   1ac14:	0049a483          	lw	s1,4(s3)
   1ac18:	00c4d783          	lhu	a5,12(s1)
   1ac1c:	0087f793          	andi	a5,a5,8
   1ac20:	14078463          	beqz	a5,1ad68 <_vfiprintf_r+0x1b8>
   1ac24:	0104a783          	lw	a5,16(s1)
   1ac28:	14078063          	beqz	a5,1ad68 <_vfiprintf_r+0x1b8>
   1ac2c:	02000793          	li	a5,32
   1ac30:	02f104a3          	sb	a5,41(sp)
   1ac34:	03000793          	li	a5,48
   1ac38:	02012223          	sw	zero,36(sp)
   1ac3c:	02f10523          	sb	a5,42(sp)
   1ac40:	00812623          	sw	s0,12(sp)
   1ac44:	02500c93          	li	s9,37
   1ac48:	0001db37          	lui	s6,0x1d
   1ac4c:	0001dbb7          	lui	s7,0x1d
   1ac50:	0001dd37          	lui	s10,0x1d
   1ac54:	0001bc37          	lui	s8,0x1b
   1ac58:	00000a93          	li	s5,0
   1ac5c:	00090413          	mv	s0,s2
   1ac60:	00044783          	lbu	a5,0(s0)
   1ac64:	00078463          	beqz	a5,1ac6c <_vfiprintf_r+0xbc>
   1ac68:	15979863          	bne	a5,s9,1adb8 <_vfiprintf_r+0x208>
   1ac6c:	41240db3          	sub	s11,s0,s2
   1ac70:	03240663          	beq	s0,s2,1ac9c <_vfiprintf_r+0xec>
   1ac74:	000d8693          	mv	a3,s11
   1ac78:	00090613          	mv	a2,s2
   1ac7c:	00048593          	mv	a1,s1
   1ac80:	00098513          	mv	a0,s3
   1ac84:	eb9ff0ef          	jal	ra,1ab3c <__sfputs_r>
   1ac88:	fff00793          	li	a5,-1
   1ac8c:	2cf50263          	beq	a0,a5,1af50 <_vfiprintf_r+0x3a0>
   1ac90:	02412783          	lw	a5,36(sp)
   1ac94:	01b787b3          	add	a5,a5,s11
   1ac98:	02f12223          	sw	a5,36(sp)
   1ac9c:	00044783          	lbu	a5,0(s0)
   1aca0:	2a078863          	beqz	a5,1af50 <_vfiprintf_r+0x3a0>
   1aca4:	fff00793          	li	a5,-1
   1aca8:	00140913          	addi	s2,s0,1
   1acac:	00012823          	sw	zero,16(sp)
   1acb0:	00012e23          	sw	zero,28(sp)
   1acb4:	00f12a23          	sw	a5,20(sp)
   1acb8:	00012c23          	sw	zero,24(sp)
   1acbc:	040109a3          	sb	zero,83(sp)
   1acc0:	06012423          	sw	zero,104(sp)
   1acc4:	00100d93          	li	s11,1
   1acc8:	00094583          	lbu	a1,0(s2)
   1accc:	00500613          	li	a2,5
   1acd0:	68cb0513          	addi	a0,s6,1676 # 1d68c <__sf_fake_stdout+0x20>
   1acd4:	2fc000ef          	jal	ra,1afd0 <memchr>
   1acd8:	01012783          	lw	a5,16(sp)
   1acdc:	00190413          	addi	s0,s2,1
   1ace0:	0e051063          	bnez	a0,1adc0 <_vfiprintf_r+0x210>
   1ace4:	0107f713          	andi	a4,a5,16
   1ace8:	00070663          	beqz	a4,1acf4 <_vfiprintf_r+0x144>
   1acec:	02000713          	li	a4,32
   1acf0:	04e109a3          	sb	a4,83(sp)
   1acf4:	0087f713          	andi	a4,a5,8
   1acf8:	00070663          	beqz	a4,1ad04 <_vfiprintf_r+0x154>
   1acfc:	02b00713          	li	a4,43
   1ad00:	04e109a3          	sb	a4,83(sp)
   1ad04:	00094683          	lbu	a3,0(s2)
   1ad08:	02a00713          	li	a4,42
   1ad0c:	0ce68863          	beq	a3,a4,1addc <_vfiprintf_r+0x22c>
   1ad10:	01c12783          	lw	a5,28(sp)
   1ad14:	00090413          	mv	s0,s2
   1ad18:	00000693          	li	a3,0
   1ad1c:	00900613          	li	a2,9
   1ad20:	00a00513          	li	a0,10
   1ad24:	00044703          	lbu	a4,0(s0)
   1ad28:	00140593          	addi	a1,s0,1
   1ad2c:	fd070713          	addi	a4,a4,-48
   1ad30:	10e67863          	bgeu	a2,a4,1ae40 <_vfiprintf_r+0x290>
   1ad34:	0c068063          	beqz	a3,1adf4 <_vfiprintf_r+0x244>
   1ad38:	00f12e23          	sw	a5,28(sp)
   1ad3c:	0b80006f          	j	1adf4 <_vfiprintf_r+0x244>
   1ad40:	0001d7b7          	lui	a5,0x1d
   1ad44:	66c78793          	addi	a5,a5,1644 # 1d66c <__sf_fake_stdout>
   1ad48:	00f49663          	bne	s1,a5,1ad54 <_vfiprintf_r+0x1a4>
   1ad4c:	0089a483          	lw	s1,8(s3)
   1ad50:	ec9ff06f          	j	1ac18 <_vfiprintf_r+0x68>
   1ad54:	0001d7b7          	lui	a5,0x1d
   1ad58:	62c78793          	addi	a5,a5,1580 # 1d62c <__sf_fake_stderr>
   1ad5c:	eaf49ee3          	bne	s1,a5,1ac18 <_vfiprintf_r+0x68>
   1ad60:	00c9a483          	lw	s1,12(s3)
   1ad64:	eb5ff06f          	j	1ac18 <_vfiprintf_r+0x68>
   1ad68:	00048593          	mv	a1,s1
   1ad6c:	00098513          	mv	a0,s3
   1ad70:	fe5fe0ef          	jal	ra,19d54 <__swsetup_r>
   1ad74:	ea050ce3          	beqz	a0,1ac2c <_vfiprintf_r+0x7c>
   1ad78:	fff00513          	li	a0,-1
   1ad7c:	0ac12083          	lw	ra,172(sp)
   1ad80:	0a812403          	lw	s0,168(sp)
   1ad84:	0a412483          	lw	s1,164(sp)
   1ad88:	0a012903          	lw	s2,160(sp)
   1ad8c:	09c12983          	lw	s3,156(sp)
   1ad90:	09812a03          	lw	s4,152(sp)
   1ad94:	09412a83          	lw	s5,148(sp)
   1ad98:	09012b03          	lw	s6,144(sp)
   1ad9c:	08c12b83          	lw	s7,140(sp)
   1ada0:	08812c03          	lw	s8,136(sp)
   1ada4:	08412c83          	lw	s9,132(sp)
   1ada8:	08012d03          	lw	s10,128(sp)
   1adac:	07c12d83          	lw	s11,124(sp)
   1adb0:	0b010113          	addi	sp,sp,176
   1adb4:	00008067          	ret
   1adb8:	00140413          	addi	s0,s0,1
   1adbc:	ea5ff06f          	j	1ac60 <_vfiprintf_r+0xb0>
   1adc0:	68cb0713          	addi	a4,s6,1676
   1adc4:	40e50533          	sub	a0,a0,a4
   1adc8:	00ad9533          	sll	a0,s11,a0
   1adcc:	00a7e7b3          	or	a5,a5,a0
   1add0:	00f12823          	sw	a5,16(sp)
   1add4:	00040913          	mv	s2,s0
   1add8:	ef1ff06f          	j	1acc8 <_vfiprintf_r+0x118>
   1addc:	00c12703          	lw	a4,12(sp)
   1ade0:	00470693          	addi	a3,a4,4
   1ade4:	00072703          	lw	a4,0(a4)
   1ade8:	00d12623          	sw	a3,12(sp)
   1adec:	04074063          	bltz	a4,1ae2c <_vfiprintf_r+0x27c>
   1adf0:	00e12e23          	sw	a4,28(sp)
   1adf4:	00044703          	lbu	a4,0(s0)
   1adf8:	02e00793          	li	a5,46
   1adfc:	08f71663          	bne	a4,a5,1ae88 <_vfiprintf_r+0x2d8>
   1ae00:	00144703          	lbu	a4,1(s0)
   1ae04:	02a00793          	li	a5,42
   1ae08:	04f71a63          	bne	a4,a5,1ae5c <_vfiprintf_r+0x2ac>
   1ae0c:	00c12783          	lw	a5,12(sp)
   1ae10:	00240413          	addi	s0,s0,2
   1ae14:	00478713          	addi	a4,a5,4
   1ae18:	0007a783          	lw	a5,0(a5)
   1ae1c:	00e12623          	sw	a4,12(sp)
   1ae20:	0207ca63          	bltz	a5,1ae54 <_vfiprintf_r+0x2a4>
   1ae24:	00f12a23          	sw	a5,20(sp)
   1ae28:	0600006f          	j	1ae88 <_vfiprintf_r+0x2d8>
   1ae2c:	40e00733          	neg	a4,a4
   1ae30:	0027e793          	ori	a5,a5,2
   1ae34:	00e12e23          	sw	a4,28(sp)
   1ae38:	00f12823          	sw	a5,16(sp)
   1ae3c:	fb9ff06f          	j	1adf4 <_vfiprintf_r+0x244>
   1ae40:	02a787b3          	mul	a5,a5,a0
   1ae44:	00058413          	mv	s0,a1
   1ae48:	00100693          	li	a3,1
   1ae4c:	00e787b3          	add	a5,a5,a4
   1ae50:	ed5ff06f          	j	1ad24 <_vfiprintf_r+0x174>
   1ae54:	fff00793          	li	a5,-1
   1ae58:	fcdff06f          	j	1ae24 <_vfiprintf_r+0x274>
   1ae5c:	00140413          	addi	s0,s0,1
   1ae60:	00012a23          	sw	zero,20(sp)
   1ae64:	00000693          	li	a3,0
   1ae68:	00000793          	li	a5,0
   1ae6c:	00900613          	li	a2,9
   1ae70:	00a00513          	li	a0,10
   1ae74:	00044703          	lbu	a4,0(s0)
   1ae78:	00140593          	addi	a1,s0,1
   1ae7c:	fd070713          	addi	a4,a4,-48
   1ae80:	08e67263          	bgeu	a2,a4,1af04 <_vfiprintf_r+0x354>
   1ae84:	fa0690e3          	bnez	a3,1ae24 <_vfiprintf_r+0x274>
   1ae88:	00044583          	lbu	a1,0(s0)
   1ae8c:	00300613          	li	a2,3
   1ae90:	694b8513          	addi	a0,s7,1684 # 1d694 <__sf_fake_stdout+0x28>
   1ae94:	13c000ef          	jal	ra,1afd0 <memchr>
   1ae98:	02050263          	beqz	a0,1aebc <_vfiprintf_r+0x30c>
   1ae9c:	694b8793          	addi	a5,s7,1684
   1aea0:	40f50533          	sub	a0,a0,a5
   1aea4:	04000793          	li	a5,64
   1aea8:	00a797b3          	sll	a5,a5,a0
   1aeac:	01012503          	lw	a0,16(sp)
   1aeb0:	00140413          	addi	s0,s0,1
   1aeb4:	00f56533          	or	a0,a0,a5
   1aeb8:	00a12823          	sw	a0,16(sp)
   1aebc:	00044583          	lbu	a1,0(s0)
   1aec0:	00600613          	li	a2,6
   1aec4:	698d0513          	addi	a0,s10,1688 # 1d698 <__sf_fake_stdout+0x2c>
   1aec8:	00140913          	addi	s2,s0,1
   1aecc:	02b10423          	sb	a1,40(sp)
   1aed0:	100000ef          	jal	ra,1afd0 <memchr>
   1aed4:	08050863          	beqz	a0,1af64 <_vfiprintf_r+0x3b4>
   1aed8:	040a9863          	bnez	s5,1af28 <_vfiprintf_r+0x378>
   1aedc:	01012703          	lw	a4,16(sp)
   1aee0:	00c12783          	lw	a5,12(sp)
   1aee4:	10077713          	andi	a4,a4,256
   1aee8:	02070863          	beqz	a4,1af18 <_vfiprintf_r+0x368>
   1aeec:	00478793          	addi	a5,a5,4
   1aef0:	00f12623          	sw	a5,12(sp)
   1aef4:	02412783          	lw	a5,36(sp)
   1aef8:	014787b3          	add	a5,a5,s4
   1aefc:	02f12223          	sw	a5,36(sp)
   1af00:	d5dff06f          	j	1ac5c <_vfiprintf_r+0xac>
   1af04:	02a787b3          	mul	a5,a5,a0
   1af08:	00058413          	mv	s0,a1
   1af0c:	00100693          	li	a3,1
   1af10:	00e787b3          	add	a5,a5,a4
   1af14:	f61ff06f          	j	1ae74 <_vfiprintf_r+0x2c4>
   1af18:	00778793          	addi	a5,a5,7
   1af1c:	ff87f793          	andi	a5,a5,-8
   1af20:	00878793          	addi	a5,a5,8
   1af24:	fcdff06f          	j	1aef0 <_vfiprintf_r+0x340>
   1af28:	00c10713          	addi	a4,sp,12
   1af2c:	b3cc0693          	addi	a3,s8,-1220 # 1ab3c <__sfputs_r>
   1af30:	00048613          	mv	a2,s1
   1af34:	01010593          	addi	a1,sp,16
   1af38:	00098513          	mv	a0,s3
   1af3c:	00000097          	auipc	ra,0x0
   1af40:	000000e7          	jalr	zero # 0 <exit-0x10074>
   1af44:	fff00793          	li	a5,-1
   1af48:	00050a13          	mv	s4,a0
   1af4c:	faf514e3          	bne	a0,a5,1aef4 <_vfiprintf_r+0x344>
   1af50:	00c4d783          	lhu	a5,12(s1)
   1af54:	0407f793          	andi	a5,a5,64
   1af58:	e20790e3          	bnez	a5,1ad78 <_vfiprintf_r+0x1c8>
   1af5c:	02412503          	lw	a0,36(sp)
   1af60:	e1dff06f          	j	1ad7c <_vfiprintf_r+0x1cc>
   1af64:	00c10713          	addi	a4,sp,12
   1af68:	b3cc0693          	addi	a3,s8,-1220
   1af6c:	00048613          	mv	a2,s1
   1af70:	01010593          	addi	a1,sp,16
   1af74:	00098513          	mv	a0,s3
   1af78:	fe8ff0ef          	jal	ra,1a760 <_printf_i>
   1af7c:	fc9ff06f          	j	1af44 <_vfiprintf_r+0x394>

0001af80 <_read_r>:
   1af80:	ff010113          	addi	sp,sp,-16
   1af84:	00812423          	sw	s0,8(sp)
   1af88:	00912223          	sw	s1,4(sp)
   1af8c:	00050413          	mv	s0,a0
   1af90:	00058513          	mv	a0,a1
   1af94:	00060593          	mv	a1,a2
   1af98:	00068613          	mv	a2,a3
   1af9c:	00112623          	sw	ra,12(sp)
   1afa0:	8001a823          	sw	zero,-2032(gp) # 20dcc <errno>
   1afa4:	9f4f90ef          	jal	ra,14198 <_read>
   1afa8:	fff00793          	li	a5,-1
   1afac:	00f51863          	bne	a0,a5,1afbc <_read_r+0x3c>
   1afb0:	8101a783          	lw	a5,-2032(gp) # 20dcc <errno>
   1afb4:	00078463          	beqz	a5,1afbc <_read_r+0x3c>
   1afb8:	00f42023          	sw	a5,0(s0)
   1afbc:	00c12083          	lw	ra,12(sp)
   1afc0:	00812403          	lw	s0,8(sp)
   1afc4:	00412483          	lw	s1,4(sp)
   1afc8:	01010113          	addi	sp,sp,16
   1afcc:	00008067          	ret

0001afd0 <memchr>:
   1afd0:	0ff5f593          	andi	a1,a1,255
   1afd4:	00c50633          	add	a2,a0,a2
   1afd8:	00c51663          	bne	a0,a2,1afe4 <memchr+0x14>
   1afdc:	00000513          	li	a0,0
   1afe0:	00008067          	ret
   1afe4:	00054783          	lbu	a5,0(a0)
   1afe8:	feb78ce3          	beq	a5,a1,1afe0 <memchr+0x10>
   1afec:	00150513          	addi	a0,a0,1
   1aff0:	fe9ff06f          	j	1afd8 <memchr+0x8>

0001aff4 <memmove>:
   1aff4:	02060c63          	beqz	a2,1b02c <memmove+0x38>
   1aff8:	00050313          	mv	t1,a0
   1affc:	00100693          	li	a3,1
   1b000:	00b56a63          	bltu	a0,a1,1b014 <memmove+0x20>
   1b004:	fff00693          	li	a3,-1
   1b008:	fff60713          	addi	a4,a2,-1
   1b00c:	00e30333          	add	t1,t1,a4
   1b010:	00e585b3          	add	a1,a1,a4
   1b014:	00058383          	lb	t2,0(a1)
   1b018:	00730023          	sb	t2,0(t1)
   1b01c:	fff60613          	addi	a2,a2,-1
   1b020:	00d30333          	add	t1,t1,a3
   1b024:	00d585b3          	add	a1,a1,a3
   1b028:	fe0616e3          	bnez	a2,1b014 <memmove+0x20>
   1b02c:	00008067          	ret

0001b030 <_realloc_r>:
   1b030:	fe010113          	addi	sp,sp,-32
   1b034:	00812c23          	sw	s0,24(sp)
   1b038:	00112e23          	sw	ra,28(sp)
   1b03c:	00912a23          	sw	s1,20(sp)
   1b040:	01212823          	sw	s2,16(sp)
   1b044:	01312623          	sw	s3,12(sp)
   1b048:	01412423          	sw	s4,8(sp)
   1b04c:	00060413          	mv	s0,a2
   1b050:	02059463          	bnez	a1,1b078 <_realloc_r+0x48>
   1b054:	01812403          	lw	s0,24(sp)
   1b058:	01c12083          	lw	ra,28(sp)
   1b05c:	01412483          	lw	s1,20(sp)
   1b060:	01012903          	lw	s2,16(sp)
   1b064:	00c12983          	lw	s3,12(sp)
   1b068:	00812a03          	lw	s4,8(sp)
   1b06c:	00060593          	mv	a1,a2
   1b070:	02010113          	addi	sp,sp,32
   1b074:	848fe06f          	j	190bc <_malloc_r>
   1b078:	02061863          	bnez	a2,1b0a8 <_realloc_r+0x78>
   1b07c:	f3dfd0ef          	jal	ra,18fb8 <_free_r>
   1b080:	00000493          	li	s1,0
   1b084:	01c12083          	lw	ra,28(sp)
   1b088:	01812403          	lw	s0,24(sp)
   1b08c:	01012903          	lw	s2,16(sp)
   1b090:	00c12983          	lw	s3,12(sp)
   1b094:	00812a03          	lw	s4,8(sp)
   1b098:	00048513          	mv	a0,s1
   1b09c:	01412483          	lw	s1,20(sp)
   1b0a0:	02010113          	addi	sp,sp,32
   1b0a4:	00008067          	ret
   1b0a8:	00050a13          	mv	s4,a0
   1b0ac:	00058913          	mv	s2,a1
   1b0b0:	054000ef          	jal	ra,1b104 <_malloc_usable_size_r>
   1b0b4:	00050993          	mv	s3,a0
   1b0b8:	00856863          	bltu	a0,s0,1b0c8 <_realloc_r+0x98>
   1b0bc:	00155793          	srli	a5,a0,0x1
   1b0c0:	00090493          	mv	s1,s2
   1b0c4:	fc87e0e3          	bltu	a5,s0,1b084 <_realloc_r+0x54>
   1b0c8:	00040593          	mv	a1,s0
   1b0cc:	000a0513          	mv	a0,s4
   1b0d0:	fedfd0ef          	jal	ra,190bc <_malloc_r>
   1b0d4:	00050493          	mv	s1,a0
   1b0d8:	fa0506e3          	beqz	a0,1b084 <_realloc_r+0x54>
   1b0dc:	00040613          	mv	a2,s0
   1b0e0:	0089f463          	bgeu	s3,s0,1b0e8 <_realloc_r+0xb8>
   1b0e4:	00098613          	mv	a2,s3
   1b0e8:	00090593          	mv	a1,s2
   1b0ec:	00048513          	mv	a0,s1
   1b0f0:	e89fd0ef          	jal	ra,18f78 <memcpy>
   1b0f4:	00090593          	mv	a1,s2
   1b0f8:	000a0513          	mv	a0,s4
   1b0fc:	ebdfd0ef          	jal	ra,18fb8 <_free_r>
   1b100:	f85ff06f          	j	1b084 <_realloc_r+0x54>

0001b104 <_malloc_usable_size_r>:
   1b104:	ffc5a783          	lw	a5,-4(a1)
   1b108:	ffc78513          	addi	a0,a5,-4
   1b10c:	0007d863          	bgez	a5,1b11c <_malloc_usable_size_r+0x18>
   1b110:	00a585b3          	add	a1,a1,a0
   1b114:	0005a783          	lw	a5,0(a1)
   1b118:	00f50533          	add	a0,a0,a5
   1b11c:	00008067          	ret

0001b120 <_exit>:
   1b120:	05d00893          	li	a7,93
   1b124:	00000073          	ecall
   1b128:	02055263          	bgez	a0,1b14c <_exit+0x2c>
   1b12c:	ff010113          	addi	sp,sp,-16
   1b130:	00812423          	sw	s0,8(sp)
   1b134:	00050413          	mv	s0,a0
   1b138:	00112623          	sw	ra,12(sp)
   1b13c:	40800433          	neg	s0,s0
   1b140:	e15fc0ef          	jal	ra,17f54 <__errno>
   1b144:	00852023          	sw	s0,0(a0)
   1b148:	0000006f          	j	1b148 <_exit+0x28>
   1b14c:	0000006f          	j	1b14c <_exit+0x2c>

0001b150 <_fstat>:
   1b150:	f7010113          	addi	sp,sp,-144
   1b154:	08912223          	sw	s1,132(sp)
   1b158:	08112623          	sw	ra,140(sp)
   1b15c:	00058493          	mv	s1,a1
   1b160:	08812423          	sw	s0,136(sp)
   1b164:	05000893          	li	a7,80
   1b168:	00010593          	mv	a1,sp
   1b16c:	00000073          	ecall
   1b170:	00050413          	mv	s0,a0
   1b174:	00055a63          	bgez	a0,1b188 <_fstat+0x38>
   1b178:	40800433          	neg	s0,s0
   1b17c:	dd9fc0ef          	jal	ra,17f54 <__errno>
   1b180:	00852023          	sw	s0,0(a0)
   1b184:	fff00413          	li	s0,-1
   1b188:	00048513          	mv	a0,s1
   1b18c:	00010593          	mv	a1,sp
   1b190:	01c000ef          	jal	ra,1b1ac <_conv_stat>
   1b194:	08c12083          	lw	ra,140(sp)
   1b198:	00040513          	mv	a0,s0
   1b19c:	08812403          	lw	s0,136(sp)
   1b1a0:	08412483          	lw	s1,132(sp)
   1b1a4:	09010113          	addi	sp,sp,144
   1b1a8:	00008067          	ret

0001b1ac <_conv_stat>:
   1b1ac:	0005a783          	lw	a5,0(a1)
   1b1b0:	0485a703          	lw	a4,72(a1)
   1b1b4:	00f51023          	sh	a5,0(a0)
   1b1b8:	0085a783          	lw	a5,8(a1)
   1b1bc:	00f51123          	sh	a5,2(a0)
   1b1c0:	0105a783          	lw	a5,16(a1)
   1b1c4:	00f52223          	sw	a5,4(a0)
   1b1c8:	0145a783          	lw	a5,20(a1)
   1b1cc:	00f51423          	sh	a5,8(a0)
   1b1d0:	0185a783          	lw	a5,24(a1)
   1b1d4:	00f51523          	sh	a5,10(a0)
   1b1d8:	01c5a783          	lw	a5,28(a1)
   1b1dc:	00f51623          	sh	a5,12(a0)
   1b1e0:	0205a783          	lw	a5,32(a1)
   1b1e4:	00f51723          	sh	a5,14(a0)
   1b1e8:	0305a783          	lw	a5,48(a1)
   1b1ec:	00f52823          	sw	a5,16(a0)
   1b1f0:	0405a783          	lw	a5,64(a1)
   1b1f4:	04f52623          	sw	a5,76(a0)
   1b1f8:	0385a783          	lw	a5,56(a1)
   1b1fc:	04f52423          	sw	a5,72(a0)
   1b200:	04c5a783          	lw	a5,76(a1)
   1b204:	00e52c23          	sw	a4,24(a0)
   1b208:	0585a703          	lw	a4,88(a1)
   1b20c:	00f52e23          	sw	a5,28(a0)
   1b210:	05c5a783          	lw	a5,92(a1)
   1b214:	02e52423          	sw	a4,40(a0)
   1b218:	0685a703          	lw	a4,104(a1)
   1b21c:	02f52623          	sw	a5,44(a0)
   1b220:	06c5a783          	lw	a5,108(a1)
   1b224:	02e52c23          	sw	a4,56(a0)
   1b228:	02f52e23          	sw	a5,60(a0)
   1b22c:	00008067          	ret
ELF Header:
  Magic:   7f 45 4c 46 01 01 01 00 00 00 00 00 00 00 00 00 
  Class:                             ELF32
  Data:                              2's complement, little endian
  Version:                           1 (current)
  OS/ABI:                            UNIX - System V
  ABI Version:                       0
  Type:                              EXEC (Executable file)
  Machine:                           RISC-V
  Version:                           0x1
  Entry point address:               0x101d8
  Start of program headers:          52 (bytes into file)
  Start of section headers:          74644 (bytes into file)
  Flags:                             0x2, single-float ABI
  Size of this header:               52 (bytes)
  Size of program headers:           32 (bytes)
  Number of program headers:         2
  Size of section headers:           40 (bytes)
  Number of section headers:         17
  Section header string table index: 16

Section Headers:
  [Nr] Name              Type            Addr     Off    Size   ES Flg Lk Inf Al
  [ 0]                   NULL            00000000 000000 000000 00      0   0  0
  [ 1] .text             PROGBITS        00010074 000074 00b1bc 00  AX  0   0  4
  [ 2] .rodata           PROGBITS        0001b230 00b230 0024dc 00   A  0   0  4
  [ 3] .eh_frame         PROGBITS        0001e70c 00d70c 000f14 00  WA  0   0  4
  [ 4] .init_array       INIT_ARRAY      0001f620 00e620 000004 04  WA  0   0  4
  [ 5] .fini_array       FINI_ARRAY      0001f624 00e624 000004 04  WA  0   0  4
  [ 6] .data.rel.ro      PROGBITS        0001f628 00e628 00000c 00  WA  0   0  4
  [ 7] .data             PROGBITS        0001f634 00e634 0016d8 00  WA  0   0  4
  [ 8] .got              PROGBITS        00020d0c 00fd0c 0000b0 04  WA  0   0  4
  [ 9] .sdata            PROGBITS        00020dbc 00fdbc 000008 00  WA  0   0  4
  [10] .sbss             NOBITS          00020dc4 00fdc4 00000c 00  WA  0   0  4
  [11] .bss              NOBITS          00020dd0 00fdc4 004ef8 00  WA  0   0  8
  [12] .comment          PROGBITS        00000000 00fdc4 000012 01  MS  0   0  1
  [13] .riscv.attributes RISCV_ATTRIBUTE 00000000 00fdd6 00002a 00      0   0  1
  [14] .symtab           SYMTAB          00000000 00fe00 0014f0 10     15 112  4
  [15] .strtab           STRTAB          00000000 0112f0 001012 00      0   0  1
  [16] .shstrtab         STRTAB          00000000 012302 000090 00      0   0  1
Key to Flags:
  W (write), A (alloc), X (execute), M (merge), S (strings), I (info),
  L (link order), O (extra OS processing required), G (group), T (TLS),
  C (compressed), x (unknown), o (OS specific), E (exclude),
  p (processor specific)

There are no section groups in this file.

Program Headers:
  Type           Offset   VirtAddr   PhysAddr   FileSiz MemSiz  Flg Align
  LOAD           0x000000 0x00010000 0x00010000 0x0d70c 0x0d70c R E 0x1000
  LOAD           0x00d70c 0x0001e70c 0x0001e70c 0x026b8 0x075bc RW  0x1000

 Section to Segment mapping:
  Segment Sections...
   00     .text .rodata 
   01     .eh_frame .init_array .fini_array .data.rel.ro .data .got .sdata .sbss .bss 

There is no dynamic section in this file.

There are no relocations in this file.

The decoding of unwind sections for machine type RISC-V is not currently supported.

Symbol table '.symtab' contains 335 entries:
   Num:    Value  Size Type    Bind   Vis      Ndx Name
     0: 00000000     0 NOTYPE  LOCAL  DEFAULT  UND 
     1: 00010074     0 SECTION LOCAL  DEFAULT    1 
     2: 0001b230     0 SECTION LOCAL  DEFAULT    2 
     3: 0001e70c     0 SECTION LOCAL  DEFAULT    3 
     4: 0001f620     0 SECTION LOCAL  DEFAULT    4 
     5: 0001f624     0 SECTION LOCAL  DEFAULT    5 
     6: 0001f628     0 SECTION LOCAL  DEFAULT    6 
     7: 0001f634     0 SECTION LOCAL  DEFAULT    7 
     8: 00020d0c     0 SECTION LOCAL  DEFAULT    8 
     9: 00020dbc     0 SECTION LOCAL  DEFAULT    9 
    10: 00020dc4     0 SECTION LOCAL  DEFAULT   10 
    11: 00020dd0     0 SECTION LOCAL  DEFAULT   11 
    12: 00000000     0 SECTION LOCAL  DEFAULT   12 
    13: 00000000     0 SECTION LOCAL  DEFAULT   13 
    14: 00000000     0 FILE    LOCAL  DEFAULT  ABS exit.c
    15: 00000000     0 FILE    LOCAL  DEFAULT  ABS ROM_experimental.cpp
    16: 00021018     4 OBJECT  LOCAL  DEFAULT   11 _ZZ18HandleDemoCommandscE
    17: 00000000     0 FILE    LOCAL  DEFAULT  ABS crtstuff.c
    18: 0001e70c     0 OBJECT  LOCAL  DEFAULT    3 __EH_FRAME_BEGIN__
    19: 00010224     0 FUNC    LOCAL  DEFAULT    1 __do_global_dtors_aux
    20: 00020dd0     1 OBJECT  LOCAL  DEFAULT   11 completed.1
    21: 0001f624     0 OBJECT  LOCAL  DEFAULT    5 __do_global_dtors_aux_fin
    22: 00010270     0 FUNC    LOCAL  DEFAULT    1 frame_dummy
    23: 00020dd4    24 OBJECT  LOCAL  DEFAULT   11 object.0
    24: 0001f620     0 OBJECT  LOCAL  DEFAULT    4 __frame_dummy_init_array_
    25: 00000000     0 FILE    LOCAL  DEFAULT  ABS debugger.cpp
    26: 0001bc48    17 OBJECT  LOCAL  DEFAULT    2 _ZL9hexdigits
    27: 00000000     0 FILE    LOCAL  DEFAULT  ABS nekoichi.cpp
    28: 00020ca4     4 OBJECT  LOCAL  DEFAULT    7 _ZL10heap_start
    29: 00000000     0 FILE    LOCAL  DEFAULT  ABS sdcard.cpp
    30: 00000000     0 FILE    LOCAL  DEFAULT  ABS ff.c
    31: 00014d28   264 FUNC    LOCAL  DEFAULT    1 _ZL12get_ldnumberPPKc
    32: 00014e30   508 FUNC    LOCAL  DEFAULT    1 _ZL8check_fsP5FATFSm
    33: 0001502c  1116 FUNC    LOCAL  DEFAULT    1 _ZL12mount_volumePPKcPP5F
    34: 00015488   520 FUNC    LOCAL  DEFAULT    1 _ZL7get_fatP7FFOBJIDm.isr
    35: 00015690   720 FUNC    LOCAL  DEFAULT    1 _ZL7dir_sdiP3DIRm.constpr
    36: 00015960  1304 FUNC    LOCAL  DEFAULT    1 _ZL11follow_pathP3DIRPKc
    37: 000259ac     2 OBJECT  LOCAL  DEFAULT   11 _ZL4Fsid
    38: 000259b0    12 OBJECT  LOCAL  DEFAULT   11 _ZL5FatFs
    39: 000259bc     1 OBJECT  LOCAL  DEFAULT   11 _ZL7CurrVol
    40: 0001f628    12 OBJECT  LOCAL  DEFAULT    6 _ZL9VolumeStr
    41: 0001d4ac   128 OBJECT  LOCAL  DEFAULT    2 _ZL5ExCvt
    42: 00000000     0 FILE    LOCAL  DEFAULT  ABS diskio.c
    43: 00000000     0 FILE    LOCAL  DEFAULT  ABS console.cpp
    44: 000259c0   768 OBJECT  LOCAL  DEFAULT   11 _ZL11consoleText
    45: 00025cc0     4 OBJECT  LOCAL  DEFAULT   11 _ZL7cursorx
    46: 00025cc4     4 OBJECT  LOCAL  DEFAULT   11 _ZL7cursory
    47: 00000000     0 FILE    LOCAL  DEFAULT  ABS libgcc2.c
    48: 00000000     0 FILE    LOCAL  DEFAULT  ABS errno.c
    49: 00000000     0 FILE    LOCAL  DEFAULT  ABS fclose.c
    50: 00000000     0 FILE    LOCAL  DEFAULT  ABS fflush.c
    51: 00000000     0 FILE    LOCAL  DEFAULT  ABS findfp.c
    52: 00018340   136 FUNC    LOCAL  DEFAULT    1 std
    53: 00000000     0 FILE    LOCAL  DEFAULT  ABS fopen.c
    54: 00000000     0 FILE    LOCAL  DEFAULT  ABS fread.c
    55: 00000000     0 FILE    LOCAL  DEFAULT  ABS fseek.c
    56: 00000000     0 FILE    LOCAL  DEFAULT  ABS fseeko.c
    57: 00000000     0 FILE    LOCAL  DEFAULT  ABS ftell.c
    58: 00000000     0 FILE    LOCAL  DEFAULT  ABS ftello.c
    59: 00000000     0 FILE    LOCAL  DEFAULT  ABS fwalk.c
    60: 00000000     0 FILE    LOCAL  DEFAULT  ABS init.c
    61: 00000000     0 FILE    LOCAL  DEFAULT  ABS makebuf.c
    62: 00000000     0 FILE    LOCAL  DEFAULT  ABS malloc.c
    63: 00000000     0 FILE    LOCAL  DEFAULT  ABS memcmp.c
    64: 00000000     0 FILE    LOCAL  DEFAULT  ABS nano-mallocr.c
    65: 00000000     0 FILE    LOCAL  DEFAULT  ABS nano-mallocr.c
    66: 00000000     0 FILE    LOCAL  DEFAULT  ABS openr.c
    67: 00000000     0 FILE    LOCAL  DEFAULT  ABS printf.c
    68: 00000000     0 FILE    LOCAL  DEFAULT  ABS putchar.c
    69: 00000000     0 FILE    LOCAL  DEFAULT  ABS putc.c
    70: 00000000     0 FILE    LOCAL  DEFAULT  ABS puts.c
    71: 00000000     0 FILE    LOCAL  DEFAULT  ABS refill.c
    72: 0001954c    28 FUNC    LOCAL  DEFAULT    1 lflush
    73: 00000000     0 FILE    LOCAL  DEFAULT  ABS sbrkr.c
    74: 00000000     0 FILE    LOCAL  DEFAULT  ABS setbuf.c
    75: 00000000     0 FILE    LOCAL  DEFAULT  ABS setvbuf.c
    76: 00000000     0 FILE    LOCAL  DEFAULT  ABS sprintf.c
    77: 00000000     0 FILE    LOCAL  DEFAULT  ABS stdio.c
    78: 00000000     0 FILE    LOCAL  DEFAULT  ABS strchr.c
    79: 00000000     0 FILE    LOCAL  DEFAULT  ABS strcpy.c
    80: 00000000     0 FILE    LOCAL  DEFAULT  ABS strlen.c
    81: 00000000     0 FILE    LOCAL  DEFAULT  ABS wbuf.c
    82: 00000000     0 FILE    LOCAL  DEFAULT  ABS writer.c
    83: 00000000     0 FILE    LOCAL  DEFAULT  ABS wsetup.c
    84: 00000000     0 FILE    LOCAL  DEFAULT  ABS closer.c
    85: 00000000     0 FILE    LOCAL  DEFAULT  ABS flags.c
    86: 00000000     0 FILE    LOCAL  DEFAULT  ABS fstatr.c
    87: 00000000     0 FILE    LOCAL  DEFAULT  ABS isattyr.c
    88: 00000000     0 FILE    LOCAL  DEFAULT  ABS lseekr.c
    89: 00000000     0 FILE    LOCAL  DEFAULT  ABS mlock.c
    90: 00000000     0 FILE    LOCAL  DEFAULT  ABS nano-vfprintf.c
    91: 00000000     0 FILE    LOCAL  DEFAULT  ABS nano-vfprintf_i.c
    92: 00000000     0 FILE    LOCAL  DEFAULT  ABS nano-vfprintf.c
    93: 0001ab00    60 FUNC    LOCAL  DEFAULT    1 __sfputc_r
    94: 00000000     0 FILE    LOCAL  DEFAULT  ABS readr.c
    95: 00000000     0 FILE    LOCAL  DEFAULT  ABS memchr.c
    96: 00000000     0 FILE    LOCAL  DEFAULT  ABS nano-mallocr.c
    97: 00000000     0 FILE    LOCAL  DEFAULT  ABS nano-mallocr.c
    98: 00000000     0 FILE    LOCAL  DEFAULT  ABS sys_exit.c
    99: 00000000     0 FILE    LOCAL  DEFAULT  ABS sys_fstat.c
   100: 00000000     0 FILE    LOCAL  DEFAULT  ABS sys_conv_stat.c
   101: 00000000     0 FILE    LOCAL  DEFAULT  ABS libgcc2.c
   102: 00000000     0 FILE    LOCAL  DEFAULT  ABS crtstuff.c
   103: 0001f61c     0 OBJECT  LOCAL  DEFAULT    3 __FRAME_END__
   104: 00000000     0 FILE    LOCAL  DEFAULT  ABS impure.c
   105: 00020cac    96 OBJECT  LOCAL  DEFAULT    7 impure_data
   106: 00000000     0 FILE    LOCAL  DEFAULT  ABS 
   107: 0001f624     0 NOTYPE  LOCAL  DEFAULT    4 __init_array_end
   108: 0001f620     0 NOTYPE  LOCAL  DEFAULT    4 __preinit_array_end
   109: 00020d14     0 OBJECT  LOCAL  DEFAULT    8 _GLOBAL_OFFSET_TABLE_
   110: 0001f620     0 NOTYPE  LOCAL  DEFAULT    4 __init_array_start
   111: 0001f620     0 NOTYPE  LOCAL  DEFAULT    4 __preinit_array_start
   112: 0001b104    28 FUNC    GLOBAL DEFAULT    1 _malloc_usable_size_r
   113: 00013f18    76 FUNC    GLOBAL DEFAULT    1 _Z11ClearScreenh
   114: 000192cc    76 FUNC    GLOBAL DEFAULT    1 putchar
   115: 0001a008    72 FUNC    GLOBAL DEFAULT    1 _isatty_r
   116: 00019b94    28 FUNC    GLOBAL DEFAULT    1 strcpy
   117: 000193dc   352 FUNC    GLOBAL DEFAULT    1 _puts_r
   118: 0001a050    80 FUNC    GLOBAL DEFAULT    1 _lseek_r
   119: 00019f14   168 FUNC    GLOBAL DEFAULT    1 __sflags
   120: 00020c94     4 OBJECT  GLOBAL DEFAULT    7 IO_SwitchState
   121: 0001925c   112 FUNC    GLOBAL DEFAULT    1 printf
   122: 00021528 17536 OBJECT  GLOBAL DEFAULT   11 s_filehandles
   123: 000215bc     0 NOTYPE  GLOBAL DEFAULT  ABS __global_pointer$
   124: 00019b0c    88 FUNC    GLOBAL DEFAULT    1 __sseek
   125: 00018440   180 FUNC    GLOBAL DEFAULT    1 __sinit
   126: 00019bcc   312 FUNC    GLOBAL DEFAULT    1 __swbuf_r
   127: 000183d4   108 FUNC    GLOBAL DEFAULT    1 __sfmoreglue
   128: 0001a0a4     4 FUNC    GLOBAL DEFAULT    1 __malloc_unlock
   129: 00014acc   308 FUNC    GLOBAL DEFAULT    1 _Z17SDReadSingleBlockmPhS
   130: 00011b24    84 FUNC    GLOBAL DEFAULT    1 _Z22SetupInterruptHandler
   131: 000117d0    32 FUNC    GLOBAL DEFAULT    1 _Z28illegalinstruction_ex
   132: 00021068     4 OBJECT  GLOBAL DEFAULT   11 checksumcounter
   133: 0001aff4    60 FUNC    GLOBAL DEFAULT    1 memmove
   134: 00010fec  1012 FUNC    GLOBAL DEFAULT    1 _Z18HandleDemoCommandsc
   135: 00017f54    12 FUNC    GLOBAL DEFAULT    1 __errno
   136: 0001b1ac   132 FUNC    GLOBAL DEFAULT    1 _conv_stat
   137: 000131b8   908 FUNC    GLOBAL DEFAULT    1 _Z8PrintDMAiiPKcb
   138: 00019fbc    76 FUNC    GLOBAL DEFAULT    1 _fstat_r
   139: 00020dcc     4 OBJECT  GLOBAL DEFAULT   10 errno
   140: 00011510   704 FUNC    GLOBAL DEFAULT    1 _Z15timer_interruptv
   141: 00021520     4 OBJECT  GLOBAL DEFAULT   11 packetcomplete
   142: 00020c98     4 OBJECT  GLOBAL DEFAULT    7 IO_UARTRX
   143: 00020dbc     0 NOTYPE  GLOBAL DEFAULT    9 __SDATA_BEGIN__
   144: 00020ca8     4 OBJECT  GLOBAL DEFAULT    7 font
   145: 00018f78    36 FUNC    GLOBAL DEFAULT    1 memcpy
   146: 000197a0   548 FUNC    GLOBAL DEFAULT    1 setvbuf
   147: 000183c8    12 FUNC    GLOBAL DEFAULT    1 _cleanup_r
   148: 0001a210   928 FUNC    GLOBAL DEFAULT    1 _svfprintf_r
   149: 000113e0    92 FUNC    GLOBAL DEFAULT    1 _Z21ProcessUARTInputAsync
   150: 000170f0    48 FUNC    GLOBAL DEFAULT    1 disk_initialize
   151: 0001953c    16 FUNC    GLOBAL DEFAULT    1 puts
   152: 000171a8    68 FUNC    GLOBAL DEFAULT    1 _Z16SetConsoleCursorii
   153: 000179cc   100 FUNC    GLOBAL DEFAULT    1 _Z11DrawConsolev
   154: 00018f28    16 FUNC    GLOBAL DEFAULT    1 malloc
   155: 0001b150    92 FUNC    GLOBAL DEFAULT    1 _fstat
   156: 00017184    36 FUNC    GLOBAL DEFAULT    1 _Z15ClearConsoleRowv
   157: 00016398   192 FUNC    GLOBAL DEFAULT    1 f_chdir
   158: 000117fc   464 FUNC    GLOBAL DEFAULT    1 _Z18external_interruptm
   159: 000170e4    12 FUNC    GLOBAL DEFAULT    1 disk_status
   160: 000259a8     4 OBJECT  GLOBAL DEFAULT   11 s_numhandles
   161: 0002105c     4 OBJECT  GLOBAL DEFAULT   11 sdcardtriggerread
   162: 00019748    72 FUNC    GLOBAL DEFAULT    1 _sbrk_r
   163: 00014c00   180 FUNC    GLOBAL DEFAULT    1 _Z20SDReadMultipleBlocksP
   164: 00012140    84 FUNC    GLOBAL DEFAULT    1 _Z7dec2intPc
   165: 00016ad0   112 FUNC    GLOBAL DEFAULT    1 f_closedir
   166: 0001af80    80 FUNC    GLOBAL DEFAULT    1 _read_r
   167: 00017f60   276 FUNC    GLOBAL DEFAULT    1 _fclose_r
   168: 00018318    40 FUNC    GLOBAL DEFAULT    1 fflush
   169: 00010684   468 FUNC    GLOBAL DEFAULT    1 _Z8LoadFilePcm
   170: 00021070  1200 OBJECT  GLOBAL DEFAULT   11 packetbuffer
   171: 00020c90     4 OBJECT  GLOBAL DEFAULT    7 IO_SPIOutput
   172: 00020c88     4 OBJECT  GLOBAL DEFAULT    7 IO_GPUFIFO
   173: 00014028    12 FUNC    GLOBAL DEFAULT    1 _isatty
   174: 00020dbc     4 OBJECT  GLOBAL DEFAULT    9 _global_impure_ptr
   175: 0001b030   212 FUNC    GLOBAL DEFAULT    1 _realloc_r
   176: 00018d0c   156 FUNC    GLOBAL DEFAULT    1 __libc_init_array
   177: 0001036c   792 FUNC    GLOBAL DEFAULT    1 _Z29ParseELFHeaderAndLoad
   178: 00013f64    20 FUNC    GLOBAL DEFAULT    1 _Z9ReadClockv
   179: 00013f78    36 FUNC    GLOBAL DEFAULT    1 _Z9ClockToMsy
   180: 00017b20  1076 FUNC    GLOBAL HIDDEN     1 __udivdi3
   181: 000140fc   120 FUNC    GLOBAL DEFAULT    1 _open
   182: 0001425c    72 FUNC    GLOBAL DEFAULT    1 _sbrk
   183: 00010a60   896 FUNC    GLOBAL DEFAULT    1 _Z10OSMainTaskv
   184: 00010858   384 FUNC    GLOBAL DEFAULT    1 _Z4Dumpmm
   185: 00018870   520 FUNC    GLOBAL DEFAULT    1 _fseeko_r
   186: 00021048     4 OBJECT  GLOBAL DEFAULT   11 num_tasks
   187: 00017160    36 FUNC    GLOBAL DEFAULT    1 _Z12ClearConsolev
   188: 00021038     1 OBJECT  GLOBAL DEFAULT   11 hardwareswitchstates
   189: 00020c8c     4 OBJECT  GLOBAL DEFAULT    7 IO_SPIInput
   190: 00019318   196 FUNC    GLOBAL DEFAULT    1 _putc_r
   191: 00021020     8 OBJECT  GLOBAL DEFAULT   11 clk
   192: 00017934   152 FUNC    GLOBAL DEFAULT    1 _Z18EchoConsoleHexBytel
   193: 00021064     4 OBJECT  GLOBAL DEFAULT   11 showtime
   194: 00016358    64 FUNC    GLOBAL DEFAULT    1 f_chdrive
   195: 0001d62c    32 OBJECT  GLOBAL DEFAULT    2 __sf_fake_stderr
   196: 000142a4     4 FUNC    GLOBAL DEFAULT    1 _Z9SDStrobe8v
   197: 0001a0a8   360 FUNC    GLOBAL DEFAULT    1 __ssputs_r
   198: 00018858    24 FUNC    GLOBAL DEFAULT    1 fseek
   199: 00013fe0    36 FUNC    GLOBAL DEFAULT    1 _chdir
   200: 00017a30   240 FUNC    GLOBAL DEFAULT    1 _Z18ConsoleStringAtRowPc
   201: 0001ab3c   116 FUNC    GLOBAL DEFAULT    1 __sfputs_r
   202: 000185e0     4 FUNC    GLOBAL DEFAULT    1 __sfp_lock_acquire
   203: 0001afd0    36 FUNC    GLOBAL DEFAULT    1 memchr
   204: 00018fb8   260 FUNC    GLOBAL DEFAULT    1 _free_r
   205: 00012194   108 FUNC    GLOBAL DEFAULT    1 _Z7hex2intPc
   206: 000147b8   132 FUNC    GLOBAL DEFAULT    1 _Z6SDIdlev
   207: 0001f688  5632 OBJECT  GLOBAL DEFAULT    7 task_array
   208: 000162e8   112 FUNC    GLOBAL DEFAULT    1 f_close
   209: 00021030     4 OBJECT  GLOBAL DEFAULT   11 escapemode
   210: 0002104c     1 OBJECT  GLOBAL DEFAULT   11 oldhardwareswitchstates
   211: 000101d8    76 FUNC    GLOBAL DEFAULT    1 _start
   212: 00014238    36 FUNC    GLOBAL DEFAULT    1 _wait
   213: 00013f9c    68 FUNC    GLOBAL DEFAULT    1 _Z12ClockMsToHMSmRmS_S_
   214: 00014064   116 FUNC    GLOBAL DEFAULT    1 _lseek
   215: 00017284    88 FUNC    GLOBAL DEFAULT    1 _Z21ConsoleCursorStepBack
   216: 00021058     4 OBJECT  GLOBAL DEFAULT   11 sdcardstate
   217: 00011cf0   624 FUNC    GLOBAL DEFAULT    1 _Z8uint2decmPc
   218: 0001920c    80 FUNC    GLOBAL DEFAULT    1 _open_r
   219: 00021040     4 OBJECT  GLOBAL DEFAULT   11 milliseconds
   220: 0001604c   668 FUNC    GLOBAL DEFAULT    1 f_read
   221: 00016b40  1444 FUNC    GLOBAL DEFAULT    1 f_readdir
   222: 00011c84   108 FUNC    GLOBAL DEFAULT    1 _Z11strchecksumPKcPc
   223: 0001143c   212 FUNC    GLOBAL DEFAULT    1 _Z10SetupTasksv
   224: 00014a48   132 FUNC    GLOBAL DEFAULT    1 _Z17SDSetBlockSize512v
   225: 000171ec   124 FUNC    GLOBAL DEFAULT    1 _Z13ScrollConsolev
   226: 00019ecc    72 FUNC    GLOBAL DEFAULT    1 _close_r
   227: 000125a0   104 FUNC    GLOBAL DEFAULT    1 _Z13AddBreakPointR11cpu_c
   228: 00018f48    48 FUNC    GLOBAL DEFAULT    1 memcmp
   229: 00018a88   308 FUNC    GLOBAL DEFAULT    1 _ftello_r
   230: 00019d54   376 FUNC    GLOBAL DEFAULT    1 __swsetup_r
   231: 000184f4   236 FUNC    GLOBAL DEFAULT    1 __sfp
   232: 00025cc8     0 NOTYPE  GLOBAL DEFAULT   11 __BSS_END__
   233: 00021028     4 OBJECT  GLOBAL DEFAULT   11 current_task
   234: 00019a38    80 FUNC    GLOBAL DEFAULT    1 __sread
   235: 00018838    28 FUNC    GLOBAL DEFAULT    1 fread
   236: 000177b4   384 FUNC    GLOBAL DEFAULT    1 _Z14EchoConsoleHexl
   237: 0001a0a0     4 FUNC    GLOBAL DEFAULT    1 __malloc_lock
   238: 00018278   160 FUNC    GLOBAL DEFAULT    1 _fflush_r
   239: 000120e4    92 FUNC    GLOBAL DEFAULT    1 _Z15SendDebugPacketPKc
   240: 0001d64c    32 OBJECT  GLOBAL DEFAULT    2 __sf_fake_stdin
   241: 00010298   212 FUNC    GLOBAL DEFAULT    1 _Z14OSPeriodicTaskv
   242: 000186d4    20 FUNC    GLOBAL DEFAULT    1 fopen
   243: 00020dc4     0 NOTYPE  GLOBAL DEFAULT   10 __bss_start
   244: 000173f0   964 FUNC    GLOBAL DEFAULT    1 _Z11EchoConsolel
   245: 00013184    52 FUNC    GLOBAL DEFAULT    1 _Z8InitFontv
   246: 00018f9c    28 FUNC    GLOBAL DEFAULT    1 memset
   247: 000100b4   292 FUNC    GLOBAL DEFAULT    1 main
   248: 00018a78    16 FUNC    GLOBAL DEFAULT    1 ftell
   249: 00012038   172 FUNC    GLOBAL DEFAULT    1 _Z24SendDebugPacketRegist
   250: 000186e8   336 FUNC    GLOBAL DEFAULT    1 _fread_r
   251: 00019b64     8 FUNC    GLOBAL DEFAULT    1 __sclose
   252: 00018074    16 FUNC    GLOBAL DEFAULT    1 fclose
   253: 0001496c   220 FUNC    GLOBAL DEFAULT    1 _Z10SDCardInitv
   254: 00011b78   212 FUNC    GLOBAL DEFAULT    1 _Z16processgdbpacketc
   255: 000190bc   336 FUNC    GLOBAL DEFAULT    1 _malloc_r
   256: 00015e78   164 FUNC    GLOBAL DEFAULT    1 f_mount
   257: 00010294     4 FUNC    GLOBAL DEFAULT    1 _Z10OSIdleTaskv
   258: 00021060     4 OBJECT  GLOBAL DEFAULT   11 seconds
   259: 00013ddc   316 FUNC    GLOBAL DEFAULT    1 _Z7EchoHexm
   260: 00018bbc   160 FUNC    GLOBAL DEFAULT    1 _fwalk
   261: 000169cc   260 FUNC    GLOBAL DEFAULT    1 f_opendir
   262: 00014174    36 FUNC    GLOBAL DEFAULT    1 _openat
   263: 000119cc   344 FUNC    GLOBAL DEFAULT    1 _Z17interrupt_handlerv
   264: 0001925c   112 FUNC    GLOBAL DEFAULT    1 iprintf
   265: 00016458  1396 FUNC    GLOBAL DEFAULT    1 f_lseek
   266: 000199c4   116 FUNC    GLOBAL DEFAULT    1 sprintf
   267: 0001d52c   256 OBJECT  GLOBAL HIDDEN     2 __clz_tab
   268: 00014cb4   116 FUNC    GLOBAL DEFAULT    1 _Z13SDCardStartupv
   269: 000142a8  1296 FUNC    GLOBAL DEFAULT    1 _Z5SDCmd13SDCardCommandm
   270: 00012608    84 FUNC    GLOBAL DEFAULT    1 _Z14gdb_breakpointP11cpu_
   271: 00011f60   168 FUNC    GLOBAL DEFAULT    1 _Z29int2architectureorder
   272: 00020ca0     4 OBJECT  GLOBAL DEFAULT    7 IO_UARTTX
   273: 00019d04    80 FUNC    GLOBAL DEFAULT    1 _write_r
   274: 000117f0    12 FUNC    GLOBAL DEFAULT    1 _Z20breakpoint_interruptv
   275: 0001a5b0   432 FUNC    GLOBAL DEFAULT    1 _printf_common
   276: 00020dc0     4 OBJECT  GLOBAL DEFAULT    9 _impure_ptr
   277: 000138dc   248 FUNC    GLOBAL DEFAULT    1 _Z11PrintDMAHexiim
   278: 000140d8    36 FUNC    GLOBAL DEFAULT    1 _lstat
   279: 00018084   500 FUNC    GLOBAL DEFAULT    1 __sflush_r
   280: 00020c9c     4 OBJECT  GLOBAL DEFAULT    7 IO_UARTRXByteCount
   281: 00018854     4 FUNC    GLOBAL DEFAULT    1 _fseek_r
   282: 0001265c  2856 FUNC    GLOBAL DEFAULT    1 _Z11gdb_handlerP11cpu_con
   283: 0001a210   928 FUNC    GLOBAL DEFAULT    1 _svfiprintf_r
   284: 00019568   480 FUNC    GLOBAL DEFAULT    1 __srefill_r
   285: 000109d8   136 FUNC    GLOBAL DEFAULT    1 _Z7LoadELFPKc
   286: 00018da8   144 FUNC    GLOBAL DEFAULT    1 __swhatbuf_r
   287: 0001f634     4 OBJECT  GLOBAL DEFAULT    7 branchaddress
   288: 00014004    36 FUNC    GLOBAL DEFAULT    1 _getcwd
   289: 0001f634     0 NOTYPE  GLOBAL DEFAULT    7 __DATA_BEGIN__
   290: 00013db0    44 FUNC    GLOBAL DEFAULT    1 _Z8EchoUARTPKc
   291: 00013544   920 FUNC    GLOBAL DEFAULT    1 _Z8PrintDMAiiiPKcb
   292: 000141e0    88 FUNC    GLOBAL DEFAULT    1 _write
   293: 00020dc4     0 NOTYPE  GLOBAL DEFAULT    9 _edata
   294: 00025cc8     0 NOTYPE  GLOBAL DEFAULT   11 _end
   295: 00021524     4 OBJECT  GLOBAL DEFAULT   11 packetcursor
   296: 00012008    48 FUNC    GLOBAL DEFAULT    1 _Z30byte2architectureorde
   297: 0002106c     4 OBJECT  GLOBAL DEFAULT   11 dbg_current_thread
   298: 00011c4c    56 FUNC    GLOBAL DEFAULT    1 _Z10startswithPcPKci
   299: 00019a88   132 FUNC    GLOBAL DEFAULT    1 __swrite
   300: 00015f1c   304 FUNC    GLOBAL DEFAULT    1 f_open
   301: 00010074    64 FUNC    GLOBAL DEFAULT    1 exit
   302: 0001abb0   976 FUNC    GLOBAL DEFAULT    1 _vfiprintf_r
   303: 00018c5c   176 FUNC    GLOBAL DEFAULT    1 _fwalk_reent
   304: 00019790    16 FUNC    GLOBAL DEFAULT    1 setbuf
   305: 000185e4     4 FUNC    GLOBAL DEFAULT    1 __sfp_lock_release
   306: 0001d66c    32 OBJECT  GLOBAL DEFAULT    2 __sf_fake_stdout
   307: 000199c4   116 FUNC    GLOBAL DEFAULT    1 siprintf
   308: 00014198    72 FUNC    GLOBAL DEFAULT    1 _read
   309: 000185e8   236 FUNC    GLOBAL DEFAULT    1 _fopen_r
   310: 0001b120    48 FUNC    GLOBAL DEFAULT    1 _exit
   311: 00021044     4 OBJECT  GLOBAL DEFAULT   11 minutes
   312: 00018e38   240 FUNC    GLOBAL DEFAULT    1 __smakebuf_r
   313: 0001483c   304 FUNC    GLOBAL DEFAULT    1 _Z19SDCheckVoltageRangePm
   314: 00019bb0    28 FUNC    GLOBAL DEFAULT    1 strlen
   315: 00017120    64 FUNC    GLOBAL DEFAULT    1 disk_read
   316: 0001a760   928 FUNC    GLOBAL DEFAULT    1 _printf_i
   317: 00010de0   524 FUNC    GLOBAL DEFAULT    1 _Z7ListDirPKc
   318: 00020dc8     4 OBJECT  GLOBAL DEFAULT   10 __malloc_sbrk_start
   319: 00017268    28 FUNC    GLOBAL DEFAULT    1 _Z16GetConsoleCursorRiS_
   320: 0002102c     4 OBJECT  GLOBAL DEFAULT   11 cursorevenodd
   321: 00019b6c    40 FUNC    GLOBAL DEFAULT    1 strchr
   322: 0002103c     4 OBJECT  GLOBAL DEFAULT   11 hours
   323: 00020dc4     4 OBJECT  GLOBAL DEFAULT   10 __malloc_free_list
   324: 0001f638    80 OBJECT  GLOBAL DEFAULT    7 FRtoString
   325: 000139d4   988 FUNC    GLOBAL DEFAULT    1 _Z15PrintDMADecimaliiib
   326: 00020dec   556 OBJECT  GLOBAL DEFAULT   11 Fs
   327: 0001abb0   976 FUNC    GLOBAL DEFAULT    1 _vfprintf_r
   328: 00021054     4 OBJECT  GLOBAL DEFAULT   11 sdcardavailable
   329: 00021050     4 OBJECT  GLOBAL DEFAULT   11 recessmaintask
   330: 000172dc   276 FUNC    GLOBAL DEFAULT    1 _Z11EchoConsolePKc
   331: 00012200   928 FUNC    GLOBAL DEFAULT    1 _Z16RemoveBreakPointR11cp
   332: 00014034    48 FUNC    GLOBAL DEFAULT    1 _close
   333: 00018f38    16 FUNC    GLOBAL DEFAULT    1 free
   334: 00021034     4 OBJECT  GLOBAL DEFAULT   11 eventuallydie

No version information found in this file.
Attribute Section: riscv
File Attributes
  Tag_RISCV_stack_align: 16-bytes
  Tag_RISCV_arch: "rv32i2p0_m2p0_f2p0"
  Tag_RISCV_priv_spec: 1
  Tag_RISCV_priv_spec_minor: 11
