
ROM_nekoichi.elf:     file format elf32-littleriscv

SYMBOL TABLE:
00000000 l    d  .boot	00000000 .boot
0000017c l    d  .text	00000000 .text
00003f38 l    d  .rodata	00000000 .rodata
0000482c l    d  .srodata	00000000 .srodata
00004830 l    d  .eh_frame	00000000 .eh_frame
00004c90 l    d  .data	00000000 .data
000054dc l    d  .got	00000000 .got
00005528 l    d  .got.plt	00000000 .got.plt
00005530 l    d  .sdata	00000000 .sdata
000055c4 l    d  .sbss	00000000 .sbss
000055d8 l    d  .bss	00000000 .bss
00005644 l    d  .stack	00000000 .stack
00000000 l    d  .comment	00000000 .comment
00000000 l    d  .riscv.attributes	00000000 .riscv.attributes
00000000 l    d  .debug_info	00000000 .debug_info
00000000 l    d  .debug_abbrev	00000000 .debug_abbrev
00000000 l    d  .debug_loc	00000000 .debug_loc
00000000 l    d  .debug_aranges	00000000 .debug_aranges
00000000 l    d  .debug_ranges	00000000 .debug_ranges
00000000 l    d  .debug_line	00000000 .debug_line
00000000 l    d  .debug_str	00000000 .debug_str
00000000 l    df *ABS*	00000000 ROM_nekoichi.cpp
00000148 l       .boot	00000000 noatexitfound
000054c0 l     O .data	00000004 _ZZ16DrawRotatingRectffE4roll
00000000 l    df *ABS*	00000000 atexit.c
00000000 l    df *ABS*	00000000 fini.c
00000000 l    df *ABS*	00000000 init.c
00000000 l    df *ABS*	00000000 malloc.c
00000000 l    df *ABS*	00000000 mallocr.c
00000000 l    df *ABS*	00000000 memcpy.c
00000000 l    df *ABS*	00000000 mlock.c
00000000 l    df *ABS*	00000000 sbrkr.c
00000000 l    df *ABS*	00000000 __atexit.c
00000000 l    df *ABS*	00000000 mallocr.c
00000000 l    df *ABS*	00000000 sys_sbrk.c
000055d4 l     O .sbss	00000004 heap_end.0
00000000 l    df *ABS*	00000000 errno.c
00000000 l    df *ABS*	00000000 sf_cos.c
00000000 l    df *ABS*	00000000 sf_sin.c
00000000 l    df *ABS*	00000000 ef_rem_pio2.c
00003f38 l     O .rodata	00000080 npio2_hw
00003fb8 l     O .rodata	00000318 two_over_pi
00000000 l    df *ABS*	00000000 kf_cos.c
00000000 l    df *ABS*	00000000 kf_rem_pio2.c
000042d0 l     O .rodata	0000000c init_jk
000042dc l     O .rodata	0000002c PIo2
00000000 l    df *ABS*	00000000 kf_sin.c
00000000 l    df *ABS*	00000000 sf_fabs.c
00000000 l    df *ABS*	00000000 sf_floor.c
00000000 l    df *ABS*	00000000 sf_scalbn.c
00000000 l    df *ABS*	00000000 utils.cpp
00000000 l    df *ABS*	00000000 SDCARD.cpp
00000000 l    df *ABS*	00000000 FAT.cpp
0000329c l     F .text	000000a8 _ZL7get_fatm
00003344 l     F .text	00000420 _ZL11follow_pathP3DIRPhPKc
00005640 l     O .bss	00000004 _ZL5FatFs
000047ac l     O .rodata	00000080 _ZL3cvt
00000000 l    df *ABS*	00000000 diskio.cpp
00000000 l    df *ABS*	00000000 impure.c
00005098 l     O .data	00000428 impure_data
00000000 l    df *ABS*	00000000 libgcc2.c
00000000 l    df *ABS*	00000000 
0000482c l       .srodata	00000000 __fini_array_end
0000482c l       .srodata	00000000 __fini_array_start
0000482c l       .srodata	00000000 __init_array_end
0000482c l       .srodata	00000000 __preinit_array_end
000054dc l     O .got	00000000 _GLOBAL_OFFSET_TABLE_
0000482c l       .srodata	00000000 __init_array_start
0000482c l       .srodata	00000000 __preinit_array_start
00003f0c g     F .text	0000002c _Z10disk_readpPhmtt
00003a68 g     F .text	000000a8 _Z7pf_openPKc
00005d30 g       *ABS*	00000000 __global_pointer$
00004c90 g       .data	00000000 _fdata
00000c54 g     F .text	00000004 __malloc_unlock
00002fac g     F .text	0000012c _Z17SDReadSingleBlockmPhS_
00001210 g     F .text	0000000c __errno
00002878 g     F .text	0000004c _Z7loadelfPKc
00001360 g     F .text	000002d0 __ieee754_rem_pio2f
000055d0 g     O .sbss	00000004 errno
0000482c g       .rodata	00000000 _etext
000054d4 g     O .data	00000004 UARTRXStatus
00005d30 g       .sdata	00000000 _gp
00003764 g     F .text	00000304 _Z8pf_mountP5FATFS
0000017c g       .boot	00000000 _boot
00003cdc g     F .text	00000210 _Z8pf_lseekm
00000a4c g     F .text	00000128 memcpy
00002c10 g     F .text	0000013c _Z7EchoIntm
000054c4 g     O .data	00000004 GPUFIFO
00000288 g     F .text	00000010 malloc
000055d8 g       .bss	00000000 _bss_start
000055cc g     O .sbss	00000004 __malloc_top_pad
00000c58 g     F .text	0000005c _sbrk_r
00002074 g     F .text	00000008 fabsf
000055c8 g     O .sbss	00000004 __malloc_max_sbrked_mem
000054c8 g     O .data	00000004 SPIInput
0000482c g     O .srodata	00000004 _global_impure_ptr
00002448 g     F .text	0000012c _Z14SubmitGPUFramev
00002dc8 g     F .text	00000108 _Z19SDCheckVoltageRangeRm
000001ec g     F .text	0000009c __libc_init_array
00001fe8 g     F .text	0000008c __kernel_sinf
00001198 g     F .text	00000078 _sbrk
000054d0 g     O .data	00000004 UARTRX
0000121c g     F .text	000000a0 cosf
00005644 g       .bss	00000000 _bss_end
000054cc g     O .data	00000004 SPIOutput
00000190 g     F .text	0000005c __libc_fini_array
0000563c g     O .bss	00000004 vramPage
00001630 g     F .text	00000100 __kernel_cosf
00006044 g       .stack	00000000 __stack_top
00000e88 g     F .text	00000310 _free_r
00002d4c g     F .text	0000007c _Z6SDIdlev
0000017c g       .boot	00000000 _ftext
00005530 g     O .sdata	00000004 __malloc_sbrk_base
00000000 g     F .boot	0000015c _start
00003eec g     F .text	00000020 _Z15disk_initializev
00000cb4 g     F .text	0000009c __register_exitproc
000055d8 g     O .bss	00000028 __malloc_current_mallinfo
00004c90 g     O .data	00000408 __malloc_av_
00002574 g     F .text	000000a0 _Z6RunELFv
00000c50 g     F .text	00000004 __malloc_lock
00002134 g     F .text	00000120 scalbnf
00000a00 g       *ABS*	00000000 _STACK_SIZE
00000b74 g     F .text	000000dc memset
000029c8 g     F .text	00000214 main
000055c4 g     O .sbss	00000004 __malloc_max_total_mem
00002614 g     F .text	00000264 _Z14parseelfheaderP16SElfFileHeader32
00002ed0 g     F .text	000000dc _Z10SDCardInitv
000002a8 g     F .text	000007a4 _malloc_r
00005644 g       .stack	00000000 _stack_end
00000d50 g     F .text	00000138 _malloc_trim_r
00005630 g     O .bss	00000004 gpuSideSubmitCounter
00002254 g     F .text	000001f4 _Z16DrawRotatingRectff
00003238 g     F .text	00000064 _Z13SDCardStartupv
0000017c g     F .text	00000014 atexit
00005538 g     O .sdata	00000004 _impure_ptr
00005644 g       .bss	00000000 __BSS_END__$
00003b10 g     F .text	000001cc _Z7pf_readPvtPt
000012bc g     F .text	000000a4 sinf
0000562c g     O .bss	00000004 branchaddress
00006044 g       .stack	00000000 __stack
00002bdc g     F .text	00000034 _Z8EchoUARTPKc
000054dc g       .data	00000000 _edata
00006048 g       .stack	00000000 _end
000030d8 g     F .text	00000160 _Z20SDReadMultipleBlocksPhmmm
00005634 g     O .bss	00000004 gpuSubmitCounter
00005534 g     O .sdata	00000004 __malloc_trim_threshold
0000296c g     F .text	0000005c _Z13runbinaryblobv
0000015c g     F .boot	00000020 _exit
00001730 g     F .text	000008b8 __kernel_rem_pio2f
0000207c g     F .text	000000b8 floorf
000054d8 g     O .data	00000004 UARTTX
00005600 g     O .bss	0000002c Fs
00005638 g     O .bss	00000004 sdcardavailable
000055c8 g       .sbss	00000000 _fbss
00000298 g     F .text	00000010 free
000028c4 g     F .text	000000a8 _Z14loadbinaryblobv



Disassembly of section .boot:

00000000 <_start>:
   0:	00000093          	li	ra,0
   4:	00008113          	mv	sp,ra
   8:	00008193          	mv	gp,ra
   c:	00008213          	mv	tp,ra
  10:	00008293          	mv	t0,ra
  14:	00008313          	mv	t1,ra
  18:	00008393          	mv	t2,ra
  1c:	00008413          	mv	s0,ra
  20:	00008493          	mv	s1,ra
  24:	00008513          	mv	a0,ra
  28:	00008593          	mv	a1,ra
  2c:	00008613          	mv	a2,ra
  30:	00008693          	mv	a3,ra
  34:	00008713          	mv	a4,ra
  38:	00008793          	mv	a5,ra
  3c:	00008813          	mv	a6,ra
  40:	00008893          	mv	a7,ra
  44:	00008913          	mv	s2,ra
  48:	00008993          	mv	s3,ra
  4c:	00008a13          	mv	s4,ra
  50:	00008a93          	mv	s5,ra
  54:	00008b13          	mv	s6,ra
  58:	00008b93          	mv	s7,ra
  5c:	00008c13          	mv	s8,ra
  60:	00008c93          	mv	s9,ra
  64:	00008d13          	mv	s10,ra
  68:	00008d93          	mv	s11,ra
  6c:	00008e13          	mv	t3,ra
  70:	00008e93          	mv	t4,ra
  74:	00008f13          	mv	t5,ra
  78:	00008f93          	mv	t6,ra
  7c:	f0000053          	fmv.w.x	ft0,zero
  80:	f00000d3          	fmv.w.x	ft1,zero
  84:	f0000153          	fmv.w.x	ft2,zero
  88:	f00001d3          	fmv.w.x	ft3,zero
  8c:	f0000253          	fmv.w.x	ft4,zero
  90:	f00002d3          	fmv.w.x	ft5,zero
  94:	f0000353          	fmv.w.x	ft6,zero
  98:	f00003d3          	fmv.w.x	ft7,zero
  9c:	f0000453          	fmv.w.x	fs0,zero
  a0:	f00004d3          	fmv.w.x	fs1,zero
  a4:	f0000553          	fmv.w.x	fa0,zero
  a8:	f00005d3          	fmv.w.x	fa1,zero
  ac:	f0000653          	fmv.w.x	fa2,zero
  b0:	f00006d3          	fmv.w.x	fa3,zero
  b4:	f0000753          	fmv.w.x	fa4,zero
  b8:	f00007d3          	fmv.w.x	fa5,zero
  bc:	f0000853          	fmv.w.x	fa6,zero
  c0:	f00008d3          	fmv.w.x	fa7,zero
  c4:	f0000953          	fmv.w.x	fs2,zero
  c8:	f00009d3          	fmv.w.x	fs3,zero
  cc:	f0000a53          	fmv.w.x	fs4,zero
  d0:	f0000ad3          	fmv.w.x	fs5,zero
  d4:	f0000b53          	fmv.w.x	fs6,zero
  d8:	f0000bd3          	fmv.w.x	fs7,zero
  dc:	f0000c53          	fmv.w.x	fs8,zero
  e0:	f0000cd3          	fmv.w.x	fs9,zero
  e4:	f0000d53          	fmv.w.x	fs10,zero
  e8:	f0000dd3          	fmv.w.x	fs11,zero
  ec:	f0000e53          	fmv.w.x	ft8,zero
  f0:	f0000ed3          	fmv.w.x	ft9,zero
  f4:	f0000f53          	fmv.w.x	ft10,zero
  f8:	f0000fd3          	fmv.w.x	ft11,zero
  fc:	00005197          	auipc	gp,0x5
 100:	3e41a183          	lw	gp,996(gp) # 54e0 <_GLOBAL_OFFSET_TABLE_+0x4>
 104:	00005117          	auipc	sp,0x5
 108:	3fc12103          	lw	sp,1020(sp) # 5500 <_GLOBAL_OFFSET_TABLE_+0x24>
 10c:	00010433          	add	s0,sp,zero
 110:	00005517          	auipc	a0,0x5
 114:	3f452503          	lw	a0,1012(a0) # 5504 <_GLOBAL_OFFSET_TABLE_+0x28>
 118:	00005617          	auipc	a2,0x5
 11c:	3f862603          	lw	a2,1016(a2) # 5510 <_GLOBAL_OFFSET_TABLE_+0x34>
 120:	40a60633          	sub	a2,a2,a0
 124:	00000593          	li	a1,0
 128:	24d000ef          	jal	ra,b74 <memset>
 12c:	00005517          	auipc	a0,0x5
 130:	3e052503          	lw	a0,992(a0) # 550c <_GLOBAL_OFFSET_TABLE_+0x30>
 134:	00050a63          	beqz	a0,148 <noatexitfound>
 138:	00001517          	auipc	a0,0x1
 13c:	00005517          	auipc	a0,0x5
 140:	3bc52503          	lw	a0,956(a0) # 54f8 <_GLOBAL_OFFSET_TABLE_+0x1c>
 144:	038000ef          	jal	ra,17c <_boot>

00000148 <noatexitfound>:
 148:	0a4000ef          	jal	ra,1ec <__libc_init_array>
 14c:	00012503          	lw	a0,0(sp)
 150:	00410593          	addi	a1,sp,4
 154:	00000613          	li	a2,0
 158:	0710206f          	j	29c8 <main>

0000015c <_exit>:
 15c:	00000593          	li	a1,0
 160:	00000613          	li	a2,0
 164:	00000693          	li	a3,0
 168:	00000713          	li	a4,0
 16c:	00000793          	li	a5,0
 170:	05d00893          	li	a7,93
 174:	00000073          	ecall
 178:	fe5ff06f          	j	15c <_exit>

Disassembly of section .text:

0000017c <atexit>:
     17c:	00050593          	mv	a1,a0
     180:	00000693          	li	a3,0
     184:	00000613          	li	a2,0
     188:	00000513          	li	a0,0
     18c:	3290006f          	j	cb4 <__register_exitproc>

00000190 <__libc_fini_array>:
     190:	ff010113          	addi	sp,sp,-16
     194:	00812423          	sw	s0,8(sp)
     198:	000057b7          	lui	a5,0x5
     19c:	00005437          	lui	s0,0x5
     1a0:	82c40413          	addi	s0,s0,-2004 # 482c <_global_impure_ptr>
     1a4:	82c78793          	addi	a5,a5,-2004 # 482c <_global_impure_ptr>
     1a8:	408787b3          	sub	a5,a5,s0
     1ac:	00912223          	sw	s1,4(sp)
     1b0:	00112623          	sw	ra,12(sp)
     1b4:	4027d493          	srai	s1,a5,0x2
     1b8:	02048063          	beqz	s1,1d8 <__libc_fini_array+0x48>
     1bc:	ffc78793          	addi	a5,a5,-4
     1c0:	00878433          	add	s0,a5,s0
     1c4:	00042783          	lw	a5,0(s0)
     1c8:	fff48493          	addi	s1,s1,-1
     1cc:	ffc40413          	addi	s0,s0,-4
     1d0:	000780e7          	jalr	a5
     1d4:	fe0498e3          	bnez	s1,1c4 <__libc_fini_array+0x34>
     1d8:	00c12083          	lw	ra,12(sp)
     1dc:	00812403          	lw	s0,8(sp)
     1e0:	00412483          	lw	s1,4(sp)
     1e4:	01010113          	addi	sp,sp,16
     1e8:	00008067          	ret

000001ec <__libc_init_array>:
     1ec:	ff010113          	addi	sp,sp,-16
     1f0:	00812423          	sw	s0,8(sp)
     1f4:	01212023          	sw	s2,0(sp)
     1f8:	00005437          	lui	s0,0x5
     1fc:	00005937          	lui	s2,0x5
     200:	82c40793          	addi	a5,s0,-2004 # 482c <_global_impure_ptr>
     204:	82c90913          	addi	s2,s2,-2004 # 482c <_global_impure_ptr>
     208:	40f90933          	sub	s2,s2,a5
     20c:	00112623          	sw	ra,12(sp)
     210:	00912223          	sw	s1,4(sp)
     214:	40295913          	srai	s2,s2,0x2
     218:	02090063          	beqz	s2,238 <__libc_init_array+0x4c>
     21c:	82c40413          	addi	s0,s0,-2004
     220:	00000493          	li	s1,0
     224:	00042783          	lw	a5,0(s0)
     228:	00148493          	addi	s1,s1,1
     22c:	00440413          	addi	s0,s0,4
     230:	000780e7          	jalr	a5
     234:	fe9918e3          	bne	s2,s1,224 <__libc_init_array+0x38>
     238:	00005437          	lui	s0,0x5
     23c:	00005937          	lui	s2,0x5
     240:	82c40793          	addi	a5,s0,-2004 # 482c <_global_impure_ptr>
     244:	82c90913          	addi	s2,s2,-2004 # 482c <_global_impure_ptr>
     248:	40f90933          	sub	s2,s2,a5
     24c:	40295913          	srai	s2,s2,0x2
     250:	02090063          	beqz	s2,270 <__libc_init_array+0x84>
     254:	82c40413          	addi	s0,s0,-2004
     258:	00000493          	li	s1,0
     25c:	00042783          	lw	a5,0(s0)
     260:	00148493          	addi	s1,s1,1
     264:	00440413          	addi	s0,s0,4
     268:	000780e7          	jalr	a5
     26c:	fe9918e3          	bne	s2,s1,25c <__libc_init_array+0x70>
     270:	00c12083          	lw	ra,12(sp)
     274:	00812403          	lw	s0,8(sp)
     278:	00412483          	lw	s1,4(sp)
     27c:	00012903          	lw	s2,0(sp)
     280:	01010113          	addi	sp,sp,16
     284:	00008067          	ret

00000288 <malloc>:
     288:	000057b7          	lui	a5,0x5
     28c:	00050593          	mv	a1,a0
     290:	5387a503          	lw	a0,1336(a5) # 5538 <_impure_ptr>
     294:	0140006f          	j	2a8 <_malloc_r>

00000298 <free>:
     298:	000057b7          	lui	a5,0x5
     29c:	00050593          	mv	a1,a0
     2a0:	5387a503          	lw	a0,1336(a5) # 5538 <_impure_ptr>
     2a4:	3e50006f          	j	e88 <_free_r>

000002a8 <_malloc_r>:
     2a8:	fd010113          	addi	sp,sp,-48
     2ac:	01312e23          	sw	s3,28(sp)
     2b0:	02112623          	sw	ra,44(sp)
     2b4:	02812423          	sw	s0,40(sp)
     2b8:	02912223          	sw	s1,36(sp)
     2bc:	03212023          	sw	s2,32(sp)
     2c0:	01412c23          	sw	s4,24(sp)
     2c4:	01512a23          	sw	s5,20(sp)
     2c8:	01612823          	sw	s6,16(sp)
     2cc:	01712623          	sw	s7,12(sp)
     2d0:	01812423          	sw	s8,8(sp)
     2d4:	01912223          	sw	s9,4(sp)
     2d8:	00b58793          	addi	a5,a1,11
     2dc:	01600713          	li	a4,22
     2e0:	00050993          	mv	s3,a0
     2e4:	06f76663          	bltu	a4,a5,350 <_malloc_r+0xa8>
     2e8:	01000793          	li	a5,16
     2ec:	1eb7e663          	bltu	a5,a1,4d8 <_malloc_r+0x230>
     2f0:	161000ef          	jal	ra,c50 <__malloc_lock>
     2f4:	01000493          	li	s1,16
     2f8:	01800793          	li	a5,24
     2fc:	00200613          	li	a2,2
     300:	00005937          	lui	s2,0x5
     304:	c9090913          	addi	s2,s2,-880 # 4c90 <__malloc_av_>
     308:	00f907b3          	add	a5,s2,a5
     30c:	0047a403          	lw	s0,4(a5)
     310:	ff878713          	addi	a4,a5,-8
     314:	20e40a63          	beq	s0,a4,528 <_malloc_r+0x280>
     318:	00442783          	lw	a5,4(s0)
     31c:	00c42683          	lw	a3,12(s0)
     320:	00842603          	lw	a2,8(s0)
     324:	ffc7f793          	andi	a5,a5,-4
     328:	00f407b3          	add	a5,s0,a5
     32c:	0047a703          	lw	a4,4(a5)
     330:	00d62623          	sw	a3,12(a2)
     334:	00c6a423          	sw	a2,8(a3)
     338:	00176713          	ori	a4,a4,1
     33c:	00098513          	mv	a0,s3
     340:	00e7a223          	sw	a4,4(a5)
     344:	111000ef          	jal	ra,c54 <__malloc_unlock>
     348:	00840513          	addi	a0,s0,8
     34c:	1980006f          	j	4e4 <_malloc_r+0x23c>
     350:	ff87f493          	andi	s1,a5,-8
     354:	1807c263          	bltz	a5,4d8 <_malloc_r+0x230>
     358:	18b4e063          	bltu	s1,a1,4d8 <_malloc_r+0x230>
     35c:	0f5000ef          	jal	ra,c50 <__malloc_lock>
     360:	1f700793          	li	a5,503
     364:	4497fe63          	bgeu	a5,s1,7c0 <_malloc_r+0x518>
     368:	0094d793          	srli	a5,s1,0x9
     36c:	1a078663          	beqz	a5,518 <_malloc_r+0x270>
     370:	00400713          	li	a4,4
     374:	3cf76463          	bltu	a4,a5,73c <_malloc_r+0x494>
     378:	0064d793          	srli	a5,s1,0x6
     37c:	03978613          	addi	a2,a5,57
     380:	03878513          	addi	a0,a5,56
     384:	00361693          	slli	a3,a2,0x3
     388:	00005937          	lui	s2,0x5
     38c:	c9090913          	addi	s2,s2,-880 # 4c90 <__malloc_av_>
     390:	00d906b3          	add	a3,s2,a3
     394:	0046a403          	lw	s0,4(a3)
     398:	ff868693          	addi	a3,a3,-8
     39c:	02868663          	beq	a3,s0,3c8 <_malloc_r+0x120>
     3a0:	00f00593          	li	a1,15
     3a4:	0100006f          	j	3b4 <_malloc_r+0x10c>
     3a8:	32075463          	bgez	a4,6d0 <_malloc_r+0x428>
     3ac:	00c42403          	lw	s0,12(s0)
     3b0:	00868c63          	beq	a3,s0,3c8 <_malloc_r+0x120>
     3b4:	00442783          	lw	a5,4(s0)
     3b8:	ffc7f793          	andi	a5,a5,-4
     3bc:	40978733          	sub	a4,a5,s1
     3c0:	fee5d4e3          	bge	a1,a4,3a8 <_malloc_r+0x100>
     3c4:	00050613          	mv	a2,a0
     3c8:	01092403          	lw	s0,16(s2)
     3cc:	00890893          	addi	a7,s2,8
     3d0:	17140863          	beq	s0,a7,540 <_malloc_r+0x298>
     3d4:	00442503          	lw	a0,4(s0)
     3d8:	00f00693          	li	a3,15
     3dc:	ffc57513          	andi	a0,a0,-4
     3e0:	409507b3          	sub	a5,a0,s1
     3e4:	40f6c463          	blt	a3,a5,7ec <_malloc_r+0x544>
     3e8:	01192a23          	sw	a7,20(s2)
     3ec:	01192823          	sw	a7,16(s2)
     3f0:	3c07de63          	bgez	a5,7cc <_malloc_r+0x524>
     3f4:	1ff00793          	li	a5,511
     3f8:	2ea7e263          	bltu	a5,a0,6dc <_malloc_r+0x434>
     3fc:	ff857793          	andi	a5,a0,-8
     400:	00878793          	addi	a5,a5,8
     404:	00492583          	lw	a1,4(s2)
     408:	00f907b3          	add	a5,s2,a5
     40c:	0007a683          	lw	a3,0(a5)
     410:	00555513          	srli	a0,a0,0x5
     414:	00100713          	li	a4,1
     418:	00a71733          	sll	a4,a4,a0
     41c:	00b76733          	or	a4,a4,a1
     420:	ff878593          	addi	a1,a5,-8
     424:	00b42623          	sw	a1,12(s0)
     428:	00d42423          	sw	a3,8(s0)
     42c:	00e92223          	sw	a4,4(s2)
     430:	0087a023          	sw	s0,0(a5)
     434:	0086a623          	sw	s0,12(a3)
     438:	40265793          	srai	a5,a2,0x2
     43c:	00100593          	li	a1,1
     440:	00f595b3          	sll	a1,a1,a5
     444:	10b76863          	bltu	a4,a1,554 <_malloc_r+0x2ac>
     448:	00e5f7b3          	and	a5,a1,a4
     44c:	02079463          	bnez	a5,474 <_malloc_r+0x1cc>
     450:	00159593          	slli	a1,a1,0x1
     454:	ffc67613          	andi	a2,a2,-4
     458:	00e5f7b3          	and	a5,a1,a4
     45c:	00460613          	addi	a2,a2,4
     460:	00079a63          	bnez	a5,474 <_malloc_r+0x1cc>
     464:	00159593          	slli	a1,a1,0x1
     468:	00e5f7b3          	and	a5,a1,a4
     46c:	00460613          	addi	a2,a2,4
     470:	fe078ae3          	beqz	a5,464 <_malloc_r+0x1bc>
     474:	00f00813          	li	a6,15
     478:	00361313          	slli	t1,a2,0x3
     47c:	00690333          	add	t1,s2,t1
     480:	00030513          	mv	a0,t1
     484:	00c52783          	lw	a5,12(a0)
     488:	00060e13          	mv	t3,a2
     48c:	2cf50a63          	beq	a0,a5,760 <_malloc_r+0x4b8>
     490:	0047a703          	lw	a4,4(a5)
     494:	00078413          	mv	s0,a5
     498:	00c7a783          	lw	a5,12(a5)
     49c:	ffc77713          	andi	a4,a4,-4
     4a0:	409706b3          	sub	a3,a4,s1
     4a4:	2cd84a63          	blt	a6,a3,778 <_malloc_r+0x4d0>
     4a8:	fe06c2e3          	bltz	a3,48c <_malloc_r+0x1e4>
     4ac:	00e40733          	add	a4,s0,a4
     4b0:	00472683          	lw	a3,4(a4)
     4b4:	00842603          	lw	a2,8(s0)
     4b8:	00098513          	mv	a0,s3
     4bc:	0016e693          	ori	a3,a3,1
     4c0:	00d72223          	sw	a3,4(a4)
     4c4:	00f62623          	sw	a5,12(a2)
     4c8:	00c7a423          	sw	a2,8(a5)
     4cc:	788000ef          	jal	ra,c54 <__malloc_unlock>
     4d0:	00840513          	addi	a0,s0,8
     4d4:	0100006f          	j	4e4 <_malloc_r+0x23c>
     4d8:	00c00793          	li	a5,12
     4dc:	00f9a023          	sw	a5,0(s3)
     4e0:	00000513          	li	a0,0
     4e4:	02c12083          	lw	ra,44(sp)
     4e8:	02812403          	lw	s0,40(sp)
     4ec:	02412483          	lw	s1,36(sp)
     4f0:	02012903          	lw	s2,32(sp)
     4f4:	01c12983          	lw	s3,28(sp)
     4f8:	01812a03          	lw	s4,24(sp)
     4fc:	01412a83          	lw	s5,20(sp)
     500:	01012b03          	lw	s6,16(sp)
     504:	00c12b83          	lw	s7,12(sp)
     508:	00812c03          	lw	s8,8(sp)
     50c:	00412c83          	lw	s9,4(sp)
     510:	03010113          	addi	sp,sp,48
     514:	00008067          	ret
     518:	20000693          	li	a3,512
     51c:	04000613          	li	a2,64
     520:	03f00513          	li	a0,63
     524:	e65ff06f          	j	388 <_malloc_r+0xe0>
     528:	00c7a403          	lw	s0,12(a5)
     52c:	00260613          	addi	a2,a2,2
     530:	de8794e3          	bne	a5,s0,318 <_malloc_r+0x70>
     534:	01092403          	lw	s0,16(s2)
     538:	00890893          	addi	a7,s2,8
     53c:	e9141ce3          	bne	s0,a7,3d4 <_malloc_r+0x12c>
     540:	00492703          	lw	a4,4(s2)
     544:	40265793          	srai	a5,a2,0x2
     548:	00100593          	li	a1,1
     54c:	00f595b3          	sll	a1,a1,a5
     550:	eeb77ce3          	bgeu	a4,a1,448 <_malloc_r+0x1a0>
     554:	00892403          	lw	s0,8(s2)
     558:	00442a83          	lw	s5,4(s0)
     55c:	ffcafb13          	andi	s6,s5,-4
     560:	009b6863          	bltu	s6,s1,570 <_malloc_r+0x2c8>
     564:	409b07b3          	sub	a5,s6,s1
     568:	00f00713          	li	a4,15
     56c:	12f74e63          	blt	a4,a5,6a8 <_malloc_r+0x400>
     570:	00005cb7          	lui	s9,0x5
     574:	89c1aa83          	lw	s5,-1892(gp) # 55cc <__malloc_top_pad>
     578:	530ca703          	lw	a4,1328(s9) # 5530 <__malloc_sbrk_base>
     57c:	fff00793          	li	a5,-1
     580:	01640a33          	add	s4,s0,s6
     584:	01548ab3          	add	s5,s1,s5
     588:	34f70463          	beq	a4,a5,8d0 <_malloc_r+0x628>
     58c:	000017b7          	lui	a5,0x1
     590:	00f78793          	addi	a5,a5,15 # 100f <_free_r+0x187>
     594:	00fa8ab3          	add	s5,s5,a5
     598:	fffff7b7          	lui	a5,0xfffff
     59c:	00fafab3          	and	s5,s5,a5
     5a0:	000a8593          	mv	a1,s5
     5a4:	00098513          	mv	a0,s3
     5a8:	6b0000ef          	jal	ra,c58 <_sbrk_r>
     5ac:	fff00793          	li	a5,-1
     5b0:	00050b93          	mv	s7,a0
     5b4:	28f50663          	beq	a0,a5,840 <_malloc_r+0x598>
     5b8:	29456263          	bltu	a0,s4,83c <_malloc_r+0x594>
     5bc:	8a818c13          	addi	s8,gp,-1880 # 55d8 <__malloc_current_mallinfo>
     5c0:	000c2583          	lw	a1,0(s8)
     5c4:	00ba85b3          	add	a1,s5,a1
     5c8:	00bc2023          	sw	a1,0(s8)
     5cc:	00058793          	mv	a5,a1
     5d0:	38aa0e63          	beq	s4,a0,96c <_malloc_r+0x6c4>
     5d4:	530ca683          	lw	a3,1328(s9)
     5d8:	fff00713          	li	a4,-1
     5dc:	3ae68663          	beq	a3,a4,988 <_malloc_r+0x6e0>
     5e0:	414b8a33          	sub	s4,s7,s4
     5e4:	00fa07b3          	add	a5,s4,a5
     5e8:	00fc2023          	sw	a5,0(s8)
     5ec:	007bfc93          	andi	s9,s7,7
     5f0:	300c8263          	beqz	s9,8f4 <_malloc_r+0x64c>
     5f4:	000017b7          	lui	a5,0x1
     5f8:	419b8bb3          	sub	s7,s7,s9
     5fc:	00878593          	addi	a1,a5,8 # 1008 <_free_r+0x180>
     600:	008b8b93          	addi	s7,s7,8
     604:	419585b3          	sub	a1,a1,s9
     608:	015b8ab3          	add	s5,s7,s5
     60c:	fff78793          	addi	a5,a5,-1
     610:	415585b3          	sub	a1,a1,s5
     614:	00f5fa33          	and	s4,a1,a5
     618:	000a0593          	mv	a1,s4
     61c:	00098513          	mv	a0,s3
     620:	638000ef          	jal	ra,c58 <_sbrk_r>
     624:	fff00793          	li	a5,-1
     628:	3af50a63          	beq	a0,a5,9dc <_malloc_r+0x734>
     62c:	41750533          	sub	a0,a0,s7
     630:	01450ab3          	add	s5,a0,s4
     634:	000c2583          	lw	a1,0(s8)
     638:	01792423          	sw	s7,8(s2)
     63c:	001aea93          	ori	s5,s5,1
     640:	00ba05b3          	add	a1,s4,a1
     644:	00bc2023          	sw	a1,0(s8)
     648:	015ba223          	sw	s5,4(s7)
     64c:	35240263          	beq	s0,s2,990 <_malloc_r+0x6e8>
     650:	00f00693          	li	a3,15
     654:	3566f263          	bgeu	a3,s6,998 <_malloc_r+0x6f0>
     658:	00442703          	lw	a4,4(s0)
     65c:	ff4b0793          	addi	a5,s6,-12
     660:	ff87f793          	andi	a5,a5,-8
     664:	00177713          	andi	a4,a4,1
     668:	00f76733          	or	a4,a4,a5
     66c:	00e42223          	sw	a4,4(s0)
     670:	00500613          	li	a2,5
     674:	00f40733          	add	a4,s0,a5
     678:	00c72223          	sw	a2,4(a4)
     67c:	00c72423          	sw	a2,8(a4)
     680:	36f6e863          	bltu	a3,a5,9f0 <_malloc_r+0x748>
     684:	004baa83          	lw	s5,4(s7)
     688:	000b8413          	mv	s0,s7
     68c:	8981a703          	lw	a4,-1896(gp) # 55c8 <__malloc_max_sbrked_mem>
     690:	00b77463          	bgeu	a4,a1,698 <_malloc_r+0x3f0>
     694:	88b1ac23          	sw	a1,-1896(gp) # 55c8 <__malloc_max_sbrked_mem>
     698:	8941a703          	lw	a4,-1900(gp) # 55c4 <__malloc_max_total_mem>
     69c:	1ab77663          	bgeu	a4,a1,848 <_malloc_r+0x5a0>
     6a0:	88b1aa23          	sw	a1,-1900(gp) # 55c4 <__malloc_max_total_mem>
     6a4:	1a40006f          	j	848 <_malloc_r+0x5a0>
     6a8:	0014e713          	ori	a4,s1,1
     6ac:	00e42223          	sw	a4,4(s0)
     6b0:	009404b3          	add	s1,s0,s1
     6b4:	00992423          	sw	s1,8(s2)
     6b8:	0017e793          	ori	a5,a5,1
     6bc:	00098513          	mv	a0,s3
     6c0:	00f4a223          	sw	a5,4(s1)
     6c4:	590000ef          	jal	ra,c54 <__malloc_unlock>
     6c8:	00840513          	addi	a0,s0,8
     6cc:	e19ff06f          	j	4e4 <_malloc_r+0x23c>
     6d0:	00c42683          	lw	a3,12(s0)
     6d4:	00842603          	lw	a2,8(s0)
     6d8:	c51ff06f          	j	328 <_malloc_r+0x80>
     6dc:	00955793          	srli	a5,a0,0x9
     6e0:	00400713          	li	a4,4
     6e4:	14f77263          	bgeu	a4,a5,828 <_malloc_r+0x580>
     6e8:	01400713          	li	a4,20
     6ec:	22f76a63          	bltu	a4,a5,920 <_malloc_r+0x678>
     6f0:	05c78693          	addi	a3,a5,92
     6f4:	05b78593          	addi	a1,a5,91
     6f8:	00369693          	slli	a3,a3,0x3
     6fc:	00d906b3          	add	a3,s2,a3
     700:	0006a783          	lw	a5,0(a3)
     704:	ff868693          	addi	a3,a3,-8
     708:	1cf68863          	beq	a3,a5,8d8 <_malloc_r+0x630>
     70c:	0047a703          	lw	a4,4(a5)
     710:	ffc77713          	andi	a4,a4,-4
     714:	00e57663          	bgeu	a0,a4,720 <_malloc_r+0x478>
     718:	0087a783          	lw	a5,8(a5)
     71c:	fef698e3          	bne	a3,a5,70c <_malloc_r+0x464>
     720:	00c7a683          	lw	a3,12(a5)
     724:	00492703          	lw	a4,4(s2)
     728:	00d42623          	sw	a3,12(s0)
     72c:	00f42423          	sw	a5,8(s0)
     730:	0086a423          	sw	s0,8(a3)
     734:	0087a623          	sw	s0,12(a5)
     738:	d01ff06f          	j	438 <_malloc_r+0x190>
     73c:	01400713          	li	a4,20
     740:	12f77663          	bgeu	a4,a5,86c <_malloc_r+0x5c4>
     744:	05400713          	li	a4,84
     748:	1ef76a63          	bltu	a4,a5,93c <_malloc_r+0x694>
     74c:	00c4d793          	srli	a5,s1,0xc
     750:	06f78613          	addi	a2,a5,111
     754:	06e78513          	addi	a0,a5,110
     758:	00361693          	slli	a3,a2,0x3
     75c:	c2dff06f          	j	388 <_malloc_r+0xe0>
     760:	001e0e13          	addi	t3,t3,1
     764:	003e7793          	andi	a5,t3,3
     768:	00850513          	addi	a0,a0,8
     76c:	10078e63          	beqz	a5,888 <_malloc_r+0x5e0>
     770:	00c52783          	lw	a5,12(a0)
     774:	d19ff06f          	j	48c <_malloc_r+0x1e4>
     778:	00842603          	lw	a2,8(s0)
     77c:	0014e593          	ori	a1,s1,1
     780:	00b42223          	sw	a1,4(s0)
     784:	00f62623          	sw	a5,12(a2)
     788:	00c7a423          	sw	a2,8(a5)
     78c:	009404b3          	add	s1,s0,s1
     790:	00992a23          	sw	s1,20(s2)
     794:	00992823          	sw	s1,16(s2)
     798:	0016e793          	ori	a5,a3,1
     79c:	0114a623          	sw	a7,12(s1)
     7a0:	0114a423          	sw	a7,8(s1)
     7a4:	00f4a223          	sw	a5,4(s1)
     7a8:	00e40733          	add	a4,s0,a4
     7ac:	00098513          	mv	a0,s3
     7b0:	00d72023          	sw	a3,0(a4)
     7b4:	4a0000ef          	jal	ra,c54 <__malloc_unlock>
     7b8:	00840513          	addi	a0,s0,8
     7bc:	d29ff06f          	j	4e4 <_malloc_r+0x23c>
     7c0:	0034d613          	srli	a2,s1,0x3
     7c4:	00848793          	addi	a5,s1,8
     7c8:	b39ff06f          	j	300 <_malloc_r+0x58>
     7cc:	00a40733          	add	a4,s0,a0
     7d0:	00472783          	lw	a5,4(a4)
     7d4:	00098513          	mv	a0,s3
     7d8:	0017e793          	ori	a5,a5,1
     7dc:	00f72223          	sw	a5,4(a4)
     7e0:	474000ef          	jal	ra,c54 <__malloc_unlock>
     7e4:	00840513          	addi	a0,s0,8
     7e8:	cfdff06f          	j	4e4 <_malloc_r+0x23c>
     7ec:	0014e713          	ori	a4,s1,1
     7f0:	00e42223          	sw	a4,4(s0)
     7f4:	009404b3          	add	s1,s0,s1
     7f8:	00992a23          	sw	s1,20(s2)
     7fc:	00992823          	sw	s1,16(s2)
     800:	0017e713          	ori	a4,a5,1
     804:	0114a623          	sw	a7,12(s1)
     808:	0114a423          	sw	a7,8(s1)
     80c:	00e4a223          	sw	a4,4(s1)
     810:	00a40533          	add	a0,s0,a0
     814:	00f52023          	sw	a5,0(a0)
     818:	00098513          	mv	a0,s3
     81c:	438000ef          	jal	ra,c54 <__malloc_unlock>
     820:	00840513          	addi	a0,s0,8
     824:	cc1ff06f          	j	4e4 <_malloc_r+0x23c>
     828:	00655793          	srli	a5,a0,0x6
     82c:	03978693          	addi	a3,a5,57
     830:	03878593          	addi	a1,a5,56
     834:	00369693          	slli	a3,a3,0x3
     838:	ec5ff06f          	j	6fc <_malloc_r+0x454>
     83c:	11240e63          	beq	s0,s2,958 <_malloc_r+0x6b0>
     840:	00892403          	lw	s0,8(s2)
     844:	00442a83          	lw	s5,4(s0)
     848:	ffcafa93          	andi	s5,s5,-4
     84c:	409a87b3          	sub	a5,s5,s1
     850:	009ae663          	bltu	s5,s1,85c <_malloc_r+0x5b4>
     854:	00f00713          	li	a4,15
     858:	e4f748e3          	blt	a4,a5,6a8 <_malloc_r+0x400>
     85c:	00098513          	mv	a0,s3
     860:	3f4000ef          	jal	ra,c54 <__malloc_unlock>
     864:	00000513          	li	a0,0
     868:	c7dff06f          	j	4e4 <_malloc_r+0x23c>
     86c:	05c78613          	addi	a2,a5,92
     870:	05b78513          	addi	a0,a5,91
     874:	00361693          	slli	a3,a2,0x3
     878:	b11ff06f          	j	388 <_malloc_r+0xe0>
     87c:	00832783          	lw	a5,8(t1)
     880:	fff60613          	addi	a2,a2,-1
     884:	1c679063          	bne	a5,t1,a44 <_STACK_SIZE+0x44>
     888:	00367793          	andi	a5,a2,3
     88c:	ff830313          	addi	t1,t1,-8
     890:	fe0796e3          	bnez	a5,87c <_malloc_r+0x5d4>
     894:	00492703          	lw	a4,4(s2)
     898:	fff5c793          	not	a5,a1
     89c:	00e7f7b3          	and	a5,a5,a4
     8a0:	00f92223          	sw	a5,4(s2)
     8a4:	00159593          	slli	a1,a1,0x1
     8a8:	cab7e6e3          	bltu	a5,a1,554 <_malloc_r+0x2ac>
     8ac:	ca0584e3          	beqz	a1,554 <_malloc_r+0x2ac>
     8b0:	00f5f733          	and	a4,a1,a5
     8b4:	00071a63          	bnez	a4,8c8 <_malloc_r+0x620>
     8b8:	00159593          	slli	a1,a1,0x1
     8bc:	00f5f733          	and	a4,a1,a5
     8c0:	004e0e13          	addi	t3,t3,4
     8c4:	fe070ae3          	beqz	a4,8b8 <_malloc_r+0x610>
     8c8:	000e0613          	mv	a2,t3
     8cc:	badff06f          	j	478 <_malloc_r+0x1d0>
     8d0:	010a8a93          	addi	s5,s5,16
     8d4:	ccdff06f          	j	5a0 <_malloc_r+0x2f8>
     8d8:	00492503          	lw	a0,4(s2)
     8dc:	4025d593          	srai	a1,a1,0x2
     8e0:	00100713          	li	a4,1
     8e4:	00b71733          	sll	a4,a4,a1
     8e8:	00a76733          	or	a4,a4,a0
     8ec:	00e92223          	sw	a4,4(s2)
     8f0:	e39ff06f          	j	728 <_malloc_r+0x480>
     8f4:	015b85b3          	add	a1,s7,s5
     8f8:	40b005b3          	neg	a1,a1
     8fc:	01459593          	slli	a1,a1,0x14
     900:	0145da13          	srli	s4,a1,0x14
     904:	000a0593          	mv	a1,s4
     908:	00098513          	mv	a0,s3
     90c:	34c000ef          	jal	ra,c58 <_sbrk_r>
     910:	fff00793          	li	a5,-1
     914:	d0f51ce3          	bne	a0,a5,62c <_malloc_r+0x384>
     918:	00000a13          	li	s4,0
     91c:	d19ff06f          	j	634 <_malloc_r+0x38c>
     920:	05400713          	li	a4,84
     924:	08f76063          	bltu	a4,a5,9a4 <_malloc_r+0x6fc>
     928:	00c55793          	srli	a5,a0,0xc
     92c:	06f78693          	addi	a3,a5,111
     930:	06e78593          	addi	a1,a5,110
     934:	00369693          	slli	a3,a3,0x3
     938:	dc5ff06f          	j	6fc <_malloc_r+0x454>
     93c:	15400713          	li	a4,340
     940:	08f76063          	bltu	a4,a5,9c0 <_malloc_r+0x718>
     944:	00f4d793          	srli	a5,s1,0xf
     948:	07878613          	addi	a2,a5,120
     94c:	07778513          	addi	a0,a5,119
     950:	00361693          	slli	a3,a2,0x3
     954:	a35ff06f          	j	388 <_malloc_r+0xe0>
     958:	8a818c13          	addi	s8,gp,-1880 # 55d8 <__malloc_current_mallinfo>
     95c:	000c2783          	lw	a5,0(s8)
     960:	00fa87b3          	add	a5,s5,a5
     964:	00fc2023          	sw	a5,0(s8)
     968:	c6dff06f          	j	5d4 <_malloc_r+0x32c>
     96c:	014a1713          	slli	a4,s4,0x14
     970:	c60712e3          	bnez	a4,5d4 <_malloc_r+0x32c>
     974:	00892403          	lw	s0,8(s2)
     978:	015b0ab3          	add	s5,s6,s5
     97c:	001aea93          	ori	s5,s5,1
     980:	01542223          	sw	s5,4(s0)
     984:	d09ff06f          	j	68c <_malloc_r+0x3e4>
     988:	537ca823          	sw	s7,1328(s9)
     98c:	c61ff06f          	j	5ec <_malloc_r+0x344>
     990:	000b8413          	mv	s0,s7
     994:	cf9ff06f          	j	68c <_malloc_r+0x3e4>
     998:	00100793          	li	a5,1
     99c:	00fba223          	sw	a5,4(s7)
     9a0:	ebdff06f          	j	85c <_malloc_r+0x5b4>
     9a4:	15400713          	li	a4,340
     9a8:	06f76263          	bltu	a4,a5,a0c <_STACK_SIZE+0xc>
     9ac:	00f55793          	srli	a5,a0,0xf
     9b0:	07878693          	addi	a3,a5,120
     9b4:	07778593          	addi	a1,a5,119
     9b8:	00369693          	slli	a3,a3,0x3
     9bc:	d41ff06f          	j	6fc <_malloc_r+0x454>
     9c0:	55400713          	li	a4,1364
     9c4:	06f76263          	bltu	a4,a5,a28 <_STACK_SIZE+0x28>
     9c8:	0124d793          	srli	a5,s1,0x12
     9cc:	07d78613          	addi	a2,a5,125
     9d0:	07c78513          	addi	a0,a5,124
     9d4:	00361693          	slli	a3,a2,0x3
     9d8:	9b1ff06f          	j	388 <_malloc_r+0xe0>
     9dc:	ff8c8c93          	addi	s9,s9,-8
     9e0:	019a8ab3          	add	s5,s5,s9
     9e4:	417a8ab3          	sub	s5,s5,s7
     9e8:	00000a13          	li	s4,0
     9ec:	c49ff06f          	j	634 <_malloc_r+0x38c>
     9f0:	00840593          	addi	a1,s0,8
     9f4:	00098513          	mv	a0,s3
     9f8:	490000ef          	jal	ra,e88 <_free_r>
     9fc:	00892403          	lw	s0,8(s2)
     a00:	000c2583          	lw	a1,0(s8)
     a04:	00442a83          	lw	s5,4(s0)
     a08:	c85ff06f          	j	68c <_malloc_r+0x3e4>
     a0c:	55400713          	li	a4,1364
     a10:	02f76463          	bltu	a4,a5,a38 <_STACK_SIZE+0x38>
     a14:	01255793          	srli	a5,a0,0x12
     a18:	07d78693          	addi	a3,a5,125
     a1c:	07c78593          	addi	a1,a5,124
     a20:	00369693          	slli	a3,a3,0x3
     a24:	cd9ff06f          	j	6fc <_malloc_r+0x454>
     a28:	3f800693          	li	a3,1016
     a2c:	07f00613          	li	a2,127
     a30:	07e00513          	li	a0,126
     a34:	955ff06f          	j	388 <_malloc_r+0xe0>
     a38:	3f800693          	li	a3,1016
     a3c:	07e00593          	li	a1,126
     a40:	cbdff06f          	j	6fc <_malloc_r+0x454>
     a44:	00492783          	lw	a5,4(s2)
     a48:	e5dff06f          	j	8a4 <_malloc_r+0x5fc>

00000a4c <memcpy>:
     a4c:	00a5c7b3          	xor	a5,a1,a0
     a50:	0037f793          	andi	a5,a5,3
     a54:	00c508b3          	add	a7,a0,a2
     a58:	06079663          	bnez	a5,ac4 <memcpy+0x78>
     a5c:	00300793          	li	a5,3
     a60:	06c7f263          	bgeu	a5,a2,ac4 <memcpy+0x78>
     a64:	00357793          	andi	a5,a0,3
     a68:	00050713          	mv	a4,a0
     a6c:	0c079a63          	bnez	a5,b40 <memcpy+0xf4>
     a70:	ffc8f613          	andi	a2,a7,-4
     a74:	40e606b3          	sub	a3,a2,a4
     a78:	02000793          	li	a5,32
     a7c:	02000293          	li	t0,32
     a80:	06d7c263          	blt	a5,a3,ae4 <memcpy+0x98>
     a84:	00058693          	mv	a3,a1
     a88:	00070793          	mv	a5,a4
     a8c:	02c77863          	bgeu	a4,a2,abc <memcpy+0x70>
     a90:	0006a803          	lw	a6,0(a3)
     a94:	00478793          	addi	a5,a5,4
     a98:	00468693          	addi	a3,a3,4
     a9c:	ff07ae23          	sw	a6,-4(a5)
     aa0:	fec7e8e3          	bltu	a5,a2,a90 <memcpy+0x44>
     aa4:	fff60793          	addi	a5,a2,-1
     aa8:	40e787b3          	sub	a5,a5,a4
     aac:	ffc7f793          	andi	a5,a5,-4
     ab0:	00478793          	addi	a5,a5,4
     ab4:	00f70733          	add	a4,a4,a5
     ab8:	00f585b3          	add	a1,a1,a5
     abc:	01176863          	bltu	a4,a7,acc <memcpy+0x80>
     ac0:	00008067          	ret
     ac4:	00050713          	mv	a4,a0
     ac8:	ff157ce3          	bgeu	a0,a7,ac0 <memcpy+0x74>
     acc:	0005c783          	lbu	a5,0(a1)
     ad0:	00170713          	addi	a4,a4,1
     ad4:	00158593          	addi	a1,a1,1
     ad8:	fef70fa3          	sb	a5,-1(a4)
     adc:	ff1768e3          	bltu	a4,a7,acc <memcpy+0x80>
     ae0:	00008067          	ret
     ae4:	0045a683          	lw	a3,4(a1)
     ae8:	01c5a783          	lw	a5,28(a1)
     aec:	0005af83          	lw	t6,0(a1)
     af0:	0085af03          	lw	t5,8(a1)
     af4:	00c5ae83          	lw	t4,12(a1)
     af8:	0105ae03          	lw	t3,16(a1)
     afc:	0145a303          	lw	t1,20(a1)
     b00:	0185a803          	lw	a6,24(a1)
     b04:	00d72223          	sw	a3,4(a4)
     b08:	0205a683          	lw	a3,32(a1)
     b0c:	01f72023          	sw	t6,0(a4)
     b10:	01e72423          	sw	t5,8(a4)
     b14:	01d72623          	sw	t4,12(a4)
     b18:	01c72823          	sw	t3,16(a4)
     b1c:	00672a23          	sw	t1,20(a4)
     b20:	01072c23          	sw	a6,24(a4)
     b24:	00f72e23          	sw	a5,28(a4)
     b28:	02470713          	addi	a4,a4,36
     b2c:	40e607b3          	sub	a5,a2,a4
     b30:	fed72e23          	sw	a3,-4(a4)
     b34:	02458593          	addi	a1,a1,36
     b38:	faf2c6e3          	blt	t0,a5,ae4 <memcpy+0x98>
     b3c:	f49ff06f          	j	a84 <memcpy+0x38>
     b40:	0005c683          	lbu	a3,0(a1)
     b44:	00170713          	addi	a4,a4,1
     b48:	00377793          	andi	a5,a4,3
     b4c:	fed70fa3          	sb	a3,-1(a4)
     b50:	00158593          	addi	a1,a1,1
     b54:	f0078ee3          	beqz	a5,a70 <memcpy+0x24>
     b58:	0005c683          	lbu	a3,0(a1)
     b5c:	00170713          	addi	a4,a4,1
     b60:	00377793          	andi	a5,a4,3
     b64:	fed70fa3          	sb	a3,-1(a4)
     b68:	00158593          	addi	a1,a1,1
     b6c:	fc079ae3          	bnez	a5,b40 <memcpy+0xf4>
     b70:	f01ff06f          	j	a70 <memcpy+0x24>

00000b74 <memset>:
     b74:	00f00313          	li	t1,15
     b78:	00050713          	mv	a4,a0
     b7c:	02c37e63          	bgeu	t1,a2,bb8 <memset+0x44>
     b80:	00f77793          	andi	a5,a4,15
     b84:	0a079063          	bnez	a5,c24 <memset+0xb0>
     b88:	08059263          	bnez	a1,c0c <memset+0x98>
     b8c:	ff067693          	andi	a3,a2,-16
     b90:	00f67613          	andi	a2,a2,15
     b94:	00e686b3          	add	a3,a3,a4
     b98:	00b72023          	sw	a1,0(a4)
     b9c:	00b72223          	sw	a1,4(a4)
     ba0:	00b72423          	sw	a1,8(a4)
     ba4:	00b72623          	sw	a1,12(a4)
     ba8:	01070713          	addi	a4,a4,16
     bac:	fed766e3          	bltu	a4,a3,b98 <memset+0x24>
     bb0:	00061463          	bnez	a2,bb8 <memset+0x44>
     bb4:	00008067          	ret
     bb8:	40c306b3          	sub	a3,t1,a2
     bbc:	00269693          	slli	a3,a3,0x2
     bc0:	00000297          	auipc	t0,0x0
     bc4:	005686b3          	add	a3,a3,t0
     bc8:	00c68067          	jr	12(a3)
     bcc:	00b70723          	sb	a1,14(a4)
     bd0:	00b706a3          	sb	a1,13(a4)
     bd4:	00b70623          	sb	a1,12(a4)
     bd8:	00b705a3          	sb	a1,11(a4)
     bdc:	00b70523          	sb	a1,10(a4)
     be0:	00b704a3          	sb	a1,9(a4)
     be4:	00b70423          	sb	a1,8(a4)
     be8:	00b703a3          	sb	a1,7(a4)
     bec:	00b70323          	sb	a1,6(a4)
     bf0:	00b702a3          	sb	a1,5(a4)
     bf4:	00b70223          	sb	a1,4(a4)
     bf8:	00b701a3          	sb	a1,3(a4)
     bfc:	00b70123          	sb	a1,2(a4)
     c00:	00b700a3          	sb	a1,1(a4)
     c04:	00b70023          	sb	a1,0(a4)
     c08:	00008067          	ret
     c0c:	0ff5f593          	andi	a1,a1,255
     c10:	00859693          	slli	a3,a1,0x8
     c14:	00d5e5b3          	or	a1,a1,a3
     c18:	01059693          	slli	a3,a1,0x10
     c1c:	00d5e5b3          	or	a1,a1,a3
     c20:	f6dff06f          	j	b8c <memset+0x18>
     c24:	00279693          	slli	a3,a5,0x2
     c28:	00000297          	auipc	t0,0x0
     c2c:	005686b3          	add	a3,a3,t0
     c30:	00008293          	mv	t0,ra
     c34:	fa0680e7          	jalr	-96(a3)
     c38:	00028093          	mv	ra,t0
     c3c:	ff078793          	addi	a5,a5,-16
     c40:	40f70733          	sub	a4,a4,a5
     c44:	00f60633          	add	a2,a2,a5
     c48:	f6c378e3          	bgeu	t1,a2,bb8 <memset+0x44>
     c4c:	f3dff06f          	j	b88 <memset+0x14>

00000c50 <__malloc_lock>:
     c50:	00008067          	ret

00000c54 <__malloc_unlock>:
     c54:	00008067          	ret

00000c58 <_sbrk_r>:
     c58:	ff010113          	addi	sp,sp,-16
     c5c:	00812423          	sw	s0,8(sp)
     c60:	00912223          	sw	s1,4(sp)
     c64:	00050413          	mv	s0,a0
     c68:	00058513          	mv	a0,a1
     c6c:	00112623          	sw	ra,12(sp)
     c70:	8a01a023          	sw	zero,-1888(gp) # 55d0 <errno>
     c74:	524000ef          	jal	ra,1198 <_sbrk>
     c78:	fff00793          	li	a5,-1
     c7c:	00f50c63          	beq	a0,a5,c94 <_sbrk_r+0x3c>
     c80:	00c12083          	lw	ra,12(sp)
     c84:	00812403          	lw	s0,8(sp)
     c88:	00412483          	lw	s1,4(sp)
     c8c:	01010113          	addi	sp,sp,16
     c90:	00008067          	ret
     c94:	8a01a783          	lw	a5,-1888(gp) # 55d0 <errno>
     c98:	fe0784e3          	beqz	a5,c80 <_sbrk_r+0x28>
     c9c:	00c12083          	lw	ra,12(sp)
     ca0:	00f42023          	sw	a5,0(s0)
     ca4:	00812403          	lw	s0,8(sp)
     ca8:	00412483          	lw	s1,4(sp)
     cac:	01010113          	addi	sp,sp,16
     cb0:	00008067          	ret

00000cb4 <__register_exitproc>:
     cb4:	000057b7          	lui	a5,0x5
     cb8:	82c7a703          	lw	a4,-2004(a5) # 482c <_global_impure_ptr>
     cbc:	14872783          	lw	a5,328(a4)
     cc0:	04078c63          	beqz	a5,d18 <__register_exitproc+0x64>
     cc4:	0047a703          	lw	a4,4(a5)
     cc8:	01f00813          	li	a6,31
     ccc:	06e84e63          	blt	a6,a4,d48 <__register_exitproc+0x94>
     cd0:	00271813          	slli	a6,a4,0x2
     cd4:	02050663          	beqz	a0,d00 <__register_exitproc+0x4c>
     cd8:	01078333          	add	t1,a5,a6
     cdc:	08c32423          	sw	a2,136(t1)
     ce0:	1887a883          	lw	a7,392(a5)
     ce4:	00100613          	li	a2,1
     ce8:	00e61633          	sll	a2,a2,a4
     cec:	00c8e8b3          	or	a7,a7,a2
     cf0:	1917a423          	sw	a7,392(a5)
     cf4:	10d32423          	sw	a3,264(t1)
     cf8:	00200693          	li	a3,2
     cfc:	02d50463          	beq	a0,a3,d24 <__register_exitproc+0x70>
     d00:	00170713          	addi	a4,a4,1
     d04:	00e7a223          	sw	a4,4(a5)
     d08:	010787b3          	add	a5,a5,a6
     d0c:	00b7a423          	sw	a1,8(a5)
     d10:	00000513          	li	a0,0
     d14:	00008067          	ret
     d18:	14c70793          	addi	a5,a4,332
     d1c:	14f72423          	sw	a5,328(a4)
     d20:	fa5ff06f          	j	cc4 <__register_exitproc+0x10>
     d24:	18c7a683          	lw	a3,396(a5)
     d28:	00170713          	addi	a4,a4,1
     d2c:	00e7a223          	sw	a4,4(a5)
     d30:	00c6e633          	or	a2,a3,a2
     d34:	18c7a623          	sw	a2,396(a5)
     d38:	010787b3          	add	a5,a5,a6
     d3c:	00b7a423          	sw	a1,8(a5)
     d40:	00000513          	li	a0,0
     d44:	00008067          	ret
     d48:	fff00513          	li	a0,-1
     d4c:	00008067          	ret

00000d50 <_malloc_trim_r>:
     d50:	fe010113          	addi	sp,sp,-32
     d54:	01312623          	sw	s3,12(sp)
     d58:	000059b7          	lui	s3,0x5
     d5c:	00812c23          	sw	s0,24(sp)
     d60:	00912a23          	sw	s1,20(sp)
     d64:	01212823          	sw	s2,16(sp)
     d68:	01412423          	sw	s4,8(sp)
     d6c:	00112e23          	sw	ra,28(sp)
     d70:	00058a13          	mv	s4,a1
     d74:	00050913          	mv	s2,a0
     d78:	c9098993          	addi	s3,s3,-880 # 4c90 <__malloc_av_>
     d7c:	ed5ff0ef          	jal	ra,c50 <__malloc_lock>
     d80:	0089a703          	lw	a4,8(s3)
     d84:	000017b7          	lui	a5,0x1
     d88:	fef78413          	addi	s0,a5,-17 # fef <_free_r+0x167>
     d8c:	00472483          	lw	s1,4(a4)
     d90:	41440433          	sub	s0,s0,s4
     d94:	ffc4f493          	andi	s1,s1,-4
     d98:	00940433          	add	s0,s0,s1
     d9c:	00c45413          	srli	s0,s0,0xc
     da0:	fff40413          	addi	s0,s0,-1
     da4:	00c41413          	slli	s0,s0,0xc
     da8:	00f44e63          	blt	s0,a5,dc4 <_malloc_trim_r+0x74>
     dac:	00000593          	li	a1,0
     db0:	00090513          	mv	a0,s2
     db4:	ea5ff0ef          	jal	ra,c58 <_sbrk_r>
     db8:	0089a783          	lw	a5,8(s3)
     dbc:	009787b3          	add	a5,a5,s1
     dc0:	02f50863          	beq	a0,a5,df0 <_malloc_trim_r+0xa0>
     dc4:	00090513          	mv	a0,s2
     dc8:	e8dff0ef          	jal	ra,c54 <__malloc_unlock>
     dcc:	01c12083          	lw	ra,28(sp)
     dd0:	01812403          	lw	s0,24(sp)
     dd4:	01412483          	lw	s1,20(sp)
     dd8:	01012903          	lw	s2,16(sp)
     ddc:	00c12983          	lw	s3,12(sp)
     de0:	00812a03          	lw	s4,8(sp)
     de4:	00000513          	li	a0,0
     de8:	02010113          	addi	sp,sp,32
     dec:	00008067          	ret
     df0:	408005b3          	neg	a1,s0
     df4:	00090513          	mv	a0,s2
     df8:	e61ff0ef          	jal	ra,c58 <_sbrk_r>
     dfc:	fff00793          	li	a5,-1
     e00:	04f50863          	beq	a0,a5,e50 <_malloc_trim_r+0x100>
     e04:	8a818793          	addi	a5,gp,-1880 # 55d8 <__malloc_current_mallinfo>
     e08:	0007a703          	lw	a4,0(a5)
     e0c:	0089a683          	lw	a3,8(s3)
     e10:	408484b3          	sub	s1,s1,s0
     e14:	0014e493          	ori	s1,s1,1
     e18:	40870433          	sub	s0,a4,s0
     e1c:	00090513          	mv	a0,s2
     e20:	0096a223          	sw	s1,4(a3)
     e24:	0087a023          	sw	s0,0(a5)
     e28:	e2dff0ef          	jal	ra,c54 <__malloc_unlock>
     e2c:	01c12083          	lw	ra,28(sp)
     e30:	01812403          	lw	s0,24(sp)
     e34:	01412483          	lw	s1,20(sp)
     e38:	01012903          	lw	s2,16(sp)
     e3c:	00c12983          	lw	s3,12(sp)
     e40:	00812a03          	lw	s4,8(sp)
     e44:	00100513          	li	a0,1
     e48:	02010113          	addi	sp,sp,32
     e4c:	00008067          	ret
     e50:	00000593          	li	a1,0
     e54:	00090513          	mv	a0,s2
     e58:	e01ff0ef          	jal	ra,c58 <_sbrk_r>
     e5c:	0089a703          	lw	a4,8(s3)
     e60:	00f00693          	li	a3,15
     e64:	40e507b3          	sub	a5,a0,a4
     e68:	f4f6dee3          	bge	a3,a5,dc4 <_malloc_trim_r+0x74>
     e6c:	000056b7          	lui	a3,0x5
     e70:	5306a683          	lw	a3,1328(a3) # 5530 <__malloc_sbrk_base>
     e74:	0017e793          	ori	a5,a5,1
     e78:	00f72223          	sw	a5,4(a4)
     e7c:	40d50533          	sub	a0,a0,a3
     e80:	8aa1a423          	sw	a0,-1880(gp) # 55d8 <__malloc_current_mallinfo>
     e84:	f41ff06f          	j	dc4 <_malloc_trim_r+0x74>

00000e88 <_free_r>:
     e88:	12058a63          	beqz	a1,fbc <_free_r+0x134>
     e8c:	ff010113          	addi	sp,sp,-16
     e90:	00812423          	sw	s0,8(sp)
     e94:	00912223          	sw	s1,4(sp)
     e98:	00058413          	mv	s0,a1
     e9c:	00050493          	mv	s1,a0
     ea0:	00112623          	sw	ra,12(sp)
     ea4:	dadff0ef          	jal	ra,c50 <__malloc_lock>
     ea8:	ffc42803          	lw	a6,-4(s0)
     eac:	ff840713          	addi	a4,s0,-8
     eb0:	000055b7          	lui	a1,0x5
     eb4:	ffe87793          	andi	a5,a6,-2
     eb8:	00f70633          	add	a2,a4,a5
     ebc:	c9058593          	addi	a1,a1,-880 # 4c90 <__malloc_av_>
     ec0:	00462683          	lw	a3,4(a2)
     ec4:	0085a503          	lw	a0,8(a1)
     ec8:	ffc6f693          	andi	a3,a3,-4
     ecc:	1ac50a63          	beq	a0,a2,1080 <_free_r+0x1f8>
     ed0:	00d62223          	sw	a3,4(a2)
     ed4:	00187813          	andi	a6,a6,1
     ed8:	00d60533          	add	a0,a2,a3
     edc:	0a081063          	bnez	a6,f7c <_free_r+0xf4>
     ee0:	ff842303          	lw	t1,-8(s0)
     ee4:	00452803          	lw	a6,4(a0)
     ee8:	00005537          	lui	a0,0x5
     eec:	40670733          	sub	a4,a4,t1
     ef0:	00872883          	lw	a7,8(a4)
     ef4:	c9850513          	addi	a0,a0,-872 # 4c98 <__malloc_av_+0x8>
     ef8:	006787b3          	add	a5,a5,t1
     efc:	00187813          	andi	a6,a6,1
     f00:	14a88063          	beq	a7,a0,1040 <_free_r+0x1b8>
     f04:	00c72303          	lw	t1,12(a4)
     f08:	0068a623          	sw	t1,12(a7)
     f0c:	01132423          	sw	a7,8(t1)
     f10:	1e080263          	beqz	a6,10f4 <_free_r+0x26c>
     f14:	0017e693          	ori	a3,a5,1
     f18:	00d72223          	sw	a3,4(a4)
     f1c:	00f62023          	sw	a5,0(a2)
     f20:	1ff00693          	li	a3,511
     f24:	0af6e863          	bltu	a3,a5,fd4 <_free_r+0x14c>
     f28:	ff87f693          	andi	a3,a5,-8
     f2c:	00868693          	addi	a3,a3,8
     f30:	0045a503          	lw	a0,4(a1)
     f34:	00d586b3          	add	a3,a1,a3
     f38:	0006a603          	lw	a2,0(a3)
     f3c:	0057d813          	srli	a6,a5,0x5
     f40:	00100793          	li	a5,1
     f44:	010797b3          	sll	a5,a5,a6
     f48:	00a7e7b3          	or	a5,a5,a0
     f4c:	ff868513          	addi	a0,a3,-8
     f50:	00a72623          	sw	a0,12(a4)
     f54:	00c72423          	sw	a2,8(a4)
     f58:	00f5a223          	sw	a5,4(a1)
     f5c:	00e6a023          	sw	a4,0(a3)
     f60:	00e62623          	sw	a4,12(a2)
     f64:	00812403          	lw	s0,8(sp)
     f68:	00c12083          	lw	ra,12(sp)
     f6c:	00048513          	mv	a0,s1
     f70:	00412483          	lw	s1,4(sp)
     f74:	01010113          	addi	sp,sp,16
     f78:	cddff06f          	j	c54 <__malloc_unlock>
     f7c:	00452503          	lw	a0,4(a0)
     f80:	00157513          	andi	a0,a0,1
     f84:	02051e63          	bnez	a0,fc0 <_free_r+0x138>
     f88:	00005537          	lui	a0,0x5
     f8c:	00d787b3          	add	a5,a5,a3
     f90:	c9850513          	addi	a0,a0,-872 # 4c98 <__malloc_av_+0x8>
     f94:	00862683          	lw	a3,8(a2)
     f98:	0017e893          	ori	a7,a5,1
     f9c:	00f70833          	add	a6,a4,a5
     fa0:	16a68663          	beq	a3,a0,110c <_free_r+0x284>
     fa4:	00c62603          	lw	a2,12(a2)
     fa8:	00c6a623          	sw	a2,12(a3)
     fac:	00d62423          	sw	a3,8(a2)
     fb0:	01172223          	sw	a7,4(a4)
     fb4:	00f82023          	sw	a5,0(a6)
     fb8:	f69ff06f          	j	f20 <_free_r+0x98>
     fbc:	00008067          	ret
     fc0:	0017e693          	ori	a3,a5,1
     fc4:	fed42e23          	sw	a3,-4(s0)
     fc8:	00f62023          	sw	a5,0(a2)
     fcc:	1ff00693          	li	a3,511
     fd0:	f4f6fce3          	bgeu	a3,a5,f28 <_free_r+0xa0>
     fd4:	0097d693          	srli	a3,a5,0x9
     fd8:	00400613          	li	a2,4
     fdc:	0ed66a63          	bltu	a2,a3,10d0 <_free_r+0x248>
     fe0:	0067d693          	srli	a3,a5,0x6
     fe4:	03968813          	addi	a6,a3,57
     fe8:	03868613          	addi	a2,a3,56
     fec:	00381813          	slli	a6,a6,0x3
     ff0:	01058833          	add	a6,a1,a6
     ff4:	00082683          	lw	a3,0(a6)
     ff8:	ff880813          	addi	a6,a6,-8
     ffc:	12d80663          	beq	a6,a3,1128 <_free_r+0x2a0>
    1000:	0046a603          	lw	a2,4(a3)
    1004:	ffc67613          	andi	a2,a2,-4
    1008:	00c7f663          	bgeu	a5,a2,1014 <_free_r+0x18c>
    100c:	0086a683          	lw	a3,8(a3)
    1010:	fed818e3          	bne	a6,a3,1000 <_free_r+0x178>
    1014:	00c6a803          	lw	a6,12(a3)
    1018:	01072623          	sw	a6,12(a4)
    101c:	00d72423          	sw	a3,8(a4)
    1020:	00812403          	lw	s0,8(sp)
    1024:	00c12083          	lw	ra,12(sp)
    1028:	00e82423          	sw	a4,8(a6)
    102c:	00048513          	mv	a0,s1
    1030:	00412483          	lw	s1,4(sp)
    1034:	00e6a623          	sw	a4,12(a3)
    1038:	01010113          	addi	sp,sp,16
    103c:	c19ff06f          	j	c54 <__malloc_unlock>
    1040:	14081463          	bnez	a6,1188 <_free_r+0x300>
    1044:	00c62583          	lw	a1,12(a2)
    1048:	00862603          	lw	a2,8(a2)
    104c:	00f687b3          	add	a5,a3,a5
    1050:	00812403          	lw	s0,8(sp)
    1054:	00b62623          	sw	a1,12(a2)
    1058:	00c5a423          	sw	a2,8(a1)
    105c:	0017e693          	ori	a3,a5,1
    1060:	00c12083          	lw	ra,12(sp)
    1064:	00d72223          	sw	a3,4(a4)
    1068:	00048513          	mv	a0,s1
    106c:	00f70733          	add	a4,a4,a5
    1070:	00412483          	lw	s1,4(sp)
    1074:	00f72023          	sw	a5,0(a4)
    1078:	01010113          	addi	sp,sp,16
    107c:	bd9ff06f          	j	c54 <__malloc_unlock>
    1080:	00187813          	andi	a6,a6,1
    1084:	00d787b3          	add	a5,a5,a3
    1088:	02081063          	bnez	a6,10a8 <_free_r+0x220>
    108c:	ff842503          	lw	a0,-8(s0)
    1090:	40a70733          	sub	a4,a4,a0
    1094:	00c72683          	lw	a3,12(a4)
    1098:	00872603          	lw	a2,8(a4)
    109c:	00a787b3          	add	a5,a5,a0
    10a0:	00d62623          	sw	a3,12(a2)
    10a4:	00c6a423          	sw	a2,8(a3)
    10a8:	000056b7          	lui	a3,0x5
    10ac:	0017e613          	ori	a2,a5,1
    10b0:	5346a683          	lw	a3,1332(a3) # 5534 <__malloc_trim_threshold>
    10b4:	00c72223          	sw	a2,4(a4)
    10b8:	00e5a423          	sw	a4,8(a1)
    10bc:	ead7e4e3          	bltu	a5,a3,f64 <_free_r+0xdc>
    10c0:	89c1a583          	lw	a1,-1892(gp) # 55cc <__malloc_top_pad>
    10c4:	00048513          	mv	a0,s1
    10c8:	c89ff0ef          	jal	ra,d50 <_malloc_trim_r>
    10cc:	e99ff06f          	j	f64 <_free_r+0xdc>
    10d0:	01400613          	li	a2,20
    10d4:	02d67463          	bgeu	a2,a3,10fc <_free_r+0x274>
    10d8:	05400613          	li	a2,84
    10dc:	06d66463          	bltu	a2,a3,1144 <_free_r+0x2bc>
    10e0:	00c7d693          	srli	a3,a5,0xc
    10e4:	06f68813          	addi	a6,a3,111
    10e8:	06e68613          	addi	a2,a3,110
    10ec:	00381813          	slli	a6,a6,0x3
    10f0:	f01ff06f          	j	ff0 <_free_r+0x168>
    10f4:	00d787b3          	add	a5,a5,a3
    10f8:	e9dff06f          	j	f94 <_free_r+0x10c>
    10fc:	05c68813          	addi	a6,a3,92
    1100:	05b68613          	addi	a2,a3,91
    1104:	00381813          	slli	a6,a6,0x3
    1108:	ee9ff06f          	j	ff0 <_free_r+0x168>
    110c:	00e5aa23          	sw	a4,20(a1)
    1110:	00e5a823          	sw	a4,16(a1)
    1114:	00a72623          	sw	a0,12(a4)
    1118:	00a72423          	sw	a0,8(a4)
    111c:	01172223          	sw	a7,4(a4)
    1120:	00f82023          	sw	a5,0(a6)
    1124:	e41ff06f          	j	f64 <_free_r+0xdc>
    1128:	0045a503          	lw	a0,4(a1)
    112c:	40265613          	srai	a2,a2,0x2
    1130:	00100793          	li	a5,1
    1134:	00c79633          	sll	a2,a5,a2
    1138:	00a66633          	or	a2,a2,a0
    113c:	00c5a223          	sw	a2,4(a1)
    1140:	ed9ff06f          	j	1018 <_free_r+0x190>
    1144:	15400613          	li	a2,340
    1148:	00d66c63          	bltu	a2,a3,1160 <_free_r+0x2d8>
    114c:	00f7d693          	srli	a3,a5,0xf
    1150:	07868813          	addi	a6,a3,120
    1154:	07768613          	addi	a2,a3,119
    1158:	00381813          	slli	a6,a6,0x3
    115c:	e95ff06f          	j	ff0 <_free_r+0x168>
    1160:	55400613          	li	a2,1364
    1164:	00d66c63          	bltu	a2,a3,117c <_free_r+0x2f4>
    1168:	0127d693          	srli	a3,a5,0x12
    116c:	07d68813          	addi	a6,a3,125
    1170:	07c68613          	addi	a2,a3,124
    1174:	00381813          	slli	a6,a6,0x3
    1178:	e79ff06f          	j	ff0 <_free_r+0x168>
    117c:	3f800813          	li	a6,1016
    1180:	07e00613          	li	a2,126
    1184:	e6dff06f          	j	ff0 <_free_r+0x168>
    1188:	0017e693          	ori	a3,a5,1
    118c:	00d72223          	sw	a3,4(a4)
    1190:	00f62023          	sw	a5,0(a2)
    1194:	dd1ff06f          	j	f64 <_free_r+0xdc>

00001198 <_sbrk>:
    1198:	8a41a703          	lw	a4,-1884(gp) # 55d4 <heap_end.0>
    119c:	ff010113          	addi	sp,sp,-16
    11a0:	00112623          	sw	ra,12(sp)
    11a4:	00050793          	mv	a5,a0
    11a8:	02071063          	bnez	a4,11c8 <_sbrk+0x30>
    11ac:	0d600893          	li	a7,214
    11b0:	00000513          	li	a0,0
    11b4:	00000073          	ecall
    11b8:	fff00613          	li	a2,-1
    11bc:	00050713          	mv	a4,a0
    11c0:	02c50a63          	beq	a0,a2,11f4 <_sbrk+0x5c>
    11c4:	8aa1a223          	sw	a0,-1884(gp) # 55d4 <heap_end.0>
    11c8:	0d600893          	li	a7,214
    11cc:	00e78533          	add	a0,a5,a4
    11d0:	00000073          	ecall
    11d4:	8a41a703          	lw	a4,-1884(gp) # 55d4 <heap_end.0>
    11d8:	00e787b3          	add	a5,a5,a4
    11dc:	00f51c63          	bne	a0,a5,11f4 <_sbrk+0x5c>
    11e0:	00c12083          	lw	ra,12(sp)
    11e4:	8aa1a223          	sw	a0,-1884(gp) # 55d4 <heap_end.0>
    11e8:	00070513          	mv	a0,a4
    11ec:	01010113          	addi	sp,sp,16
    11f0:	00008067          	ret
    11f4:	01c000ef          	jal	ra,1210 <__errno>
    11f8:	00c12083          	lw	ra,12(sp)
    11fc:	00c00793          	li	a5,12
    1200:	00f52023          	sw	a5,0(a0)
    1204:	fff00513          	li	a0,-1
    1208:	01010113          	addi	sp,sp,16
    120c:	00008067          	ret

00001210 <__errno>:
    1210:	000057b7          	lui	a5,0x5
    1214:	5387a503          	lw	a0,1336(a5) # 5538 <_impure_ptr>
    1218:	00008067          	ret

0000121c <cosf>:
    121c:	e00507d3          	fmv.x.w	a5,fa0
    1220:	3f4916b7          	lui	a3,0x3f491
    1224:	fd868693          	addi	a3,a3,-40 # 3f490fd8 <_end+0x3f48af90>
    1228:	00179713          	slli	a4,a5,0x1
    122c:	00175713          	srli	a4,a4,0x1
    1230:	04e6dc63          	bge	a3,a4,1288 <cosf+0x6c>
    1234:	7f8006b7          	lui	a3,0x7f800
    1238:	00d74663          	blt	a4,a3,1244 <cosf+0x28>
    123c:	08a57553          	fsub.s	fa0,fa0,fa0
    1240:	00008067          	ret
    1244:	fe010113          	addi	sp,sp,-32
    1248:	00810513          	addi	a0,sp,8
    124c:	00112e23          	sw	ra,28(sp)
    1250:	110000ef          	jal	ra,1360 <__ieee754_rem_pio2f>
    1254:	00357513          	andi	a0,a0,3
    1258:	00100793          	li	a5,1
    125c:	02f50a63          	beq	a0,a5,1290 <cosf+0x74>
    1260:	00200793          	li	a5,2
    1264:	00c12587          	flw	fa1,12(sp)
    1268:	00812507          	flw	fa0,8(sp)
    126c:	04f50263          	beq	a0,a5,12b0 <cosf+0x94>
    1270:	02050c63          	beqz	a0,12a8 <cosf+0x8c>
    1274:	00100513          	li	a0,1
    1278:	571000ef          	jal	ra,1fe8 <__kernel_sinf>
    127c:	01c12083          	lw	ra,28(sp)
    1280:	02010113          	addi	sp,sp,32
    1284:	00008067          	ret
    1288:	f00005d3          	fmv.w.x	fa1,zero
    128c:	3a40006f          	j	1630 <__kernel_cosf>
    1290:	00c12587          	flw	fa1,12(sp)
    1294:	00812507          	flw	fa0,8(sp)
    1298:	00100513          	li	a0,1
    129c:	54d000ef          	jal	ra,1fe8 <__kernel_sinf>
    12a0:	20a51553          	fneg.s	fa0,fa0
    12a4:	fd9ff06f          	j	127c <cosf+0x60>
    12a8:	388000ef          	jal	ra,1630 <__kernel_cosf>
    12ac:	fd1ff06f          	j	127c <cosf+0x60>
    12b0:	380000ef          	jal	ra,1630 <__kernel_cosf>
    12b4:	20a51553          	fneg.s	fa0,fa0
    12b8:	fc5ff06f          	j	127c <cosf+0x60>

000012bc <sinf>:
    12bc:	e00507d3          	fmv.x.w	a5,fa0
    12c0:	3f4916b7          	lui	a3,0x3f491
    12c4:	fd868693          	addi	a3,a3,-40 # 3f490fd8 <_end+0x3f48af90>
    12c8:	00179713          	slli	a4,a5,0x1
    12cc:	00175713          	srli	a4,a4,0x1
    12d0:	04e6dc63          	bge	a3,a4,1328 <sinf+0x6c>
    12d4:	7f8006b7          	lui	a3,0x7f800
    12d8:	00d74663          	blt	a4,a3,12e4 <sinf+0x28>
    12dc:	08a57553          	fsub.s	fa0,fa0,fa0
    12e0:	00008067          	ret
    12e4:	fe010113          	addi	sp,sp,-32
    12e8:	00810513          	addi	a0,sp,8
    12ec:	00112e23          	sw	ra,28(sp)
    12f0:	070000ef          	jal	ra,1360 <__ieee754_rem_pio2f>
    12f4:	00357513          	andi	a0,a0,3
    12f8:	00100793          	li	a5,1
    12fc:	02f50c63          	beq	a0,a5,1334 <sinf+0x78>
    1300:	00200793          	li	a5,2
    1304:	00c12587          	flw	fa1,12(sp)
    1308:	00812507          	flw	fa0,8(sp)
    130c:	04f50263          	beq	a0,a5,1350 <sinf+0x94>
    1310:	02050a63          	beqz	a0,1344 <sinf+0x88>
    1314:	31c000ef          	jal	ra,1630 <__kernel_cosf>
    1318:	20a51553          	fneg.s	fa0,fa0
    131c:	01c12083          	lw	ra,28(sp)
    1320:	02010113          	addi	sp,sp,32
    1324:	00008067          	ret
    1328:	f00005d3          	fmv.w.x	fa1,zero
    132c:	00000513          	li	a0,0
    1330:	4b90006f          	j	1fe8 <__kernel_sinf>
    1334:	00c12587          	flw	fa1,12(sp)
    1338:	00812507          	flw	fa0,8(sp)
    133c:	2f4000ef          	jal	ra,1630 <__kernel_cosf>
    1340:	fddff06f          	j	131c <sinf+0x60>
    1344:	00100513          	li	a0,1
    1348:	4a1000ef          	jal	ra,1fe8 <__kernel_sinf>
    134c:	fd1ff06f          	j	131c <sinf+0x60>
    1350:	00100513          	li	a0,1
    1354:	495000ef          	jal	ra,1fe8 <__kernel_sinf>
    1358:	20a51553          	fneg.s	fa0,fa0
    135c:	fc1ff06f          	j	131c <sinf+0x60>

00001360 <__ieee754_rem_pio2f>:
    1360:	e00507d3          	fmv.x.w	a5,fa0
    1364:	fe010113          	addi	sp,sp,-32
    1368:	00812c23          	sw	s0,24(sp)
    136c:	3f491737          	lui	a4,0x3f491
    1370:	00179413          	slli	s0,a5,0x1
    1374:	00912a23          	sw	s1,20(sp)
    1378:	00112e23          	sw	ra,28(sp)
    137c:	01212823          	sw	s2,16(sp)
    1380:	fd870713          	addi	a4,a4,-40 # 3f490fd8 <_end+0x3f48af90>
    1384:	00145413          	srli	s0,s0,0x1
    1388:	00050493          	mv	s1,a0
    138c:	10875c63          	bge	a4,s0,14a4 <__ieee754_rem_pio2f+0x144>
    1390:	4016d737          	lui	a4,0x4016d
    1394:	be370713          	addi	a4,a4,-1053 # 4016cbe3 <_end+0x40166b9b>
    1398:	00078913          	mv	s2,a5
    139c:	04874a63          	blt	a4,s0,13f0 <__ieee754_rem_pio2f+0x90>
    13a0:	3fc91737          	lui	a4,0x3fc91
    13a4:	80c1a787          	flw	fa5,-2036(gp) # 553c <_impure_ptr+0x4>
    13a8:	ff047413          	andi	s0,s0,-16
    13ac:	fd070713          	addi	a4,a4,-48 # 3fc90fd0 <_end+0x3fc8af88>
    13b0:	24f05463          	blez	a5,15f8 <__ieee754_rem_pio2f+0x298>
    13b4:	08f577d3          	fsub.s	fa5,fa0,fa5
    13b8:	12e40263          	beq	s0,a4,14dc <__ieee754_rem_pio2f+0x17c>
    13bc:	8101a707          	flw	fa4,-2032(gp) # 5540 <_impure_ptr+0x8>
    13c0:	08e7f6d3          	fsub.s	fa3,fa5,fa4
    13c4:	00100513          	li	a0,1
    13c8:	08d7f7d3          	fsub.s	fa5,fa5,fa3
    13cc:	00d4a027          	fsw	fa3,0(s1)
    13d0:	08e7f7d3          	fsub.s	fa5,fa5,fa4
    13d4:	00f4a227          	fsw	fa5,4(s1)
    13d8:	01c12083          	lw	ra,28(sp)
    13dc:	01812403          	lw	s0,24(sp)
    13e0:	01412483          	lw	s1,20(sp)
    13e4:	01012903          	lw	s2,16(sp)
    13e8:	02010113          	addi	sp,sp,32
    13ec:	00008067          	ret
    13f0:	43491737          	lui	a4,0x43491
    13f4:	f8070713          	addi	a4,a4,-128 # 43490f80 <_end+0x4348af38>
    13f8:	0e875a63          	bge	a4,s0,14ec <__ieee754_rem_pio2f+0x18c>
    13fc:	7f800737          	lui	a4,0x7f800
    1400:	0ce45463          	bge	s0,a4,14c8 <__ieee754_rem_pio2f+0x168>
    1404:	41745613          	srai	a2,s0,0x17
    1408:	f7a60613          	addi	a2,a2,-134
    140c:	01761793          	slli	a5,a2,0x17
    1410:	40f40433          	sub	s0,s0,a5
    1414:	f00407d3          	fmv.w.x	fa5,s0
    1418:	f0040753          	fmv.w.x	fa4,s0
    141c:	c00797d3          	fcvt.w.s	a5,fa5,rtz
    1420:	82c1a687          	flw	fa3,-2004(gp) # 555c <_impure_ptr+0x24>
    1424:	f0000653          	fmv.w.x	fa2,zero
    1428:	d007f7d3          	fcvt.s.w	fa5,a5
    142c:	00300693          	li	a3,3
    1430:	08f77753          	fsub.s	fa4,fa4,fa5
    1434:	00f12227          	fsw	fa5,4(sp)
    1438:	10d777d3          	fmul.s	fa5,fa4,fa3
    143c:	c00797d3          	fcvt.w.s	a5,fa5,rtz
    1440:	d007f753          	fcvt.s.w	fa4,a5
    1444:	08e7f7d3          	fsub.s	fa5,fa5,fa4
    1448:	00e12427          	fsw	fa4,8(sp)
    144c:	10d7f7d3          	fmul.s	fa5,fa5,fa3
    1450:	a0c7a7d3          	feq.s	a5,fa5,fa2
    1454:	00f12627          	fsw	fa5,12(sp)
    1458:	00078863          	beqz	a5,1468 <__ieee754_rem_pio2f+0x108>
    145c:	a0c726d3          	feq.s	a3,fa4,fa2
    1460:	0016b693          	seqz	a3,a3
    1464:	00168693          	addi	a3,a3,1 # 7f800001 <_end+0x7f7f9fb9>
    1468:	000047b7          	lui	a5,0x4
    146c:	fb878793          	addi	a5,a5,-72 # 3fb8 <two_over_pi>
    1470:	00200713          	li	a4,2
    1474:	00048593          	mv	a1,s1
    1478:	00410513          	addi	a0,sp,4
    147c:	2b4000ef          	jal	ra,1730 <__kernel_rem_pio2f>
    1480:	f4095ce3          	bgez	s2,13d8 <__ieee754_rem_pio2f+0x78>
    1484:	0004a707          	flw	fa4,0(s1)
    1488:	0044a787          	flw	fa5,4(s1)
    148c:	40a00533          	neg	a0,a0
    1490:	20e71753          	fneg.s	fa4,fa4
    1494:	20f797d3          	fneg.s	fa5,fa5
    1498:	00e4a027          	fsw	fa4,0(s1)
    149c:	00f4a227          	fsw	fa5,4(s1)
    14a0:	f39ff06f          	j	13d8 <__ieee754_rem_pio2f+0x78>
    14a4:	01c12083          	lw	ra,28(sp)
    14a8:	01812403          	lw	s0,24(sp)
    14ac:	00a4a027          	fsw	fa0,0(s1)
    14b0:	00052223          	sw	zero,4(a0)
    14b4:	01412483          	lw	s1,20(sp)
    14b8:	01012903          	lw	s2,16(sp)
    14bc:	00000513          	li	a0,0
    14c0:	02010113          	addi	sp,sp,32
    14c4:	00008067          	ret
    14c8:	08a577d3          	fsub.s	fa5,fa0,fa0
    14cc:	00000513          	li	a0,0
    14d0:	00f4a227          	fsw	fa5,4(s1)
    14d4:	00f4a027          	fsw	fa5,0(s1)
    14d8:	f01ff06f          	j	13d8 <__ieee754_rem_pio2f+0x78>
    14dc:	8181a707          	flw	fa4,-2024(gp) # 5548 <_impure_ptr+0x10>
    14e0:	8141a687          	flw	fa3,-2028(gp) # 5544 <_impure_ptr+0xc>
    14e4:	08d7f7d3          	fsub.s	fa5,fa5,fa3
    14e8:	ed9ff06f          	j	13c0 <__ieee754_rem_pio2f+0x60>
    14ec:	389000ef          	jal	ra,2074 <fabsf>
    14f0:	81c1a787          	flw	fa5,-2020(gp) # 554c <_impure_ptr+0x14>
    14f4:	8201a707          	flw	fa4,-2016(gp) # 5550 <_impure_ptr+0x18>
    14f8:	01f00793          	li	a5,31
    14fc:	70f577c3          	fmadd.s	fa5,fa0,fa5,fa4
    1500:	c0079553          	fcvt.w.s	a0,fa5,rtz
    1504:	80c1a787          	flw	fa5,-2036(gp) # 553c <_impure_ptr+0x4>
    1508:	d0057753          	fcvt.s.w	fa4,a0
    150c:	50f7754b          	fnmsub.s	fa0,fa4,fa5,fa0
    1510:	8101a787          	flw	fa5,-2032(gp) # 5540 <_impure_ptr+0x8>
    1514:	10f777d3          	fmul.s	fa5,fa4,fa5
    1518:	04a7ce63          	blt	a5,a0,1574 <__ieee754_rem_pio2f+0x214>
    151c:	fff50793          	addi	a5,a0,-1
    1520:	00279713          	slli	a4,a5,0x2
    1524:	000047b7          	lui	a5,0x4
    1528:	08f576d3          	fsub.s	fa3,fa0,fa5
    152c:	f3878793          	addi	a5,a5,-200 # 3f38 <npio2_hw>
    1530:	00e787b3          	add	a5,a5,a4
    1534:	0007a683          	lw	a3,0(a5)
    1538:	f0047713          	andi	a4,s0,-256
    153c:	e00687d3          	fmv.x.w	a5,fa3
    1540:	02d70e63          	beq	a4,a3,157c <__ieee754_rem_pio2f+0x21c>
    1544:	00f4a023          	sw	a5,0(s1)
    1548:	f0078753          	fmv.w.x	fa4,a5
    154c:	08e57553          	fsub.s	fa0,fa0,fa4
    1550:	08f57553          	fsub.s	fa0,fa0,fa5
    1554:	00a4a227          	fsw	fa0,4(s1)
    1558:	e80950e3          	bgez	s2,13d8 <__ieee754_rem_pio2f+0x78>
    155c:	20e717d3          	fneg.s	fa5,fa4
    1560:	20a51553          	fneg.s	fa0,fa0
    1564:	40a00533          	neg	a0,a0
    1568:	00f4a027          	fsw	fa5,0(s1)
    156c:	00a4a227          	fsw	fa0,4(s1)
    1570:	e69ff06f          	j	13d8 <__ieee754_rem_pio2f+0x78>
    1574:	08f576d3          	fsub.s	fa3,fa0,fa5
    1578:	e00687d3          	fmv.x.w	a5,fa3
    157c:	0177d713          	srli	a4,a5,0x17
    1580:	41745413          	srai	s0,s0,0x17
    1584:	0ff77713          	andi	a4,a4,255
    1588:	40e40733          	sub	a4,s0,a4
    158c:	00800693          	li	a3,8
    1590:	fae6dae3          	bge	a3,a4,1544 <__ieee754_rem_pio2f+0x1e4>
    1594:	8141a787          	flw	fa5,-2028(gp) # 5544 <_impure_ptr+0xc>
    1598:	01900693          	li	a3,25
    159c:	50f776cb          	fnmsub.s	fa3,fa4,fa5,fa0
    15a0:	08d57553          	fsub.s	fa0,fa0,fa3
    15a4:	50f7754b          	fnmsub.s	fa0,fa4,fa5,fa0
    15a8:	8181a787          	flw	fa5,-2024(gp) # 5548 <_impure_ptr+0x10>
    15ac:	50f777c7          	fmsub.s	fa5,fa4,fa5,fa0
    15b0:	08f6f653          	fsub.s	fa2,fa3,fa5
    15b4:	e00607d3          	fmv.x.w	a5,fa2
    15b8:	0177d713          	srli	a4,a5,0x17
    15bc:	0ff77713          	andi	a4,a4,255
    15c0:	40e40433          	sub	s0,s0,a4
    15c4:	0086c863          	blt	a3,s0,15d4 <__ieee754_rem_pio2f+0x274>
    15c8:	20d68553          	fmv.s	fa0,fa3
    15cc:	00c4a027          	fsw	fa2,0(s1)
    15d0:	f79ff06f          	j	1548 <__ieee754_rem_pio2f+0x1e8>
    15d4:	8241a787          	flw	fa5,-2012(gp) # 5554 <_impure_ptr+0x1c>
    15d8:	68f7754b          	fnmsub.s	fa0,fa4,fa5,fa3
    15dc:	08a6f6d3          	fsub.s	fa3,fa3,fa0
    15e0:	68f776cb          	fnmsub.s	fa3,fa4,fa5,fa3
    15e4:	8281a787          	flw	fa5,-2008(gp) # 5558 <_impure_ptr+0x20>
    15e8:	68f777c7          	fmsub.s	fa5,fa4,fa5,fa3
    15ec:	08f57753          	fsub.s	fa4,fa0,fa5
    15f0:	e00707d3          	fmv.x.w	a5,fa4
    15f4:	f51ff06f          	j	1544 <__ieee754_rem_pio2f+0x1e4>
    15f8:	00f577d3          	fadd.s	fa5,fa0,fa5
    15fc:	02e40263          	beq	s0,a4,1620 <__ieee754_rem_pio2f+0x2c0>
    1600:	8101a707          	flw	fa4,-2032(gp) # 5540 <_impure_ptr+0x8>
    1604:	00e7f6d3          	fadd.s	fa3,fa5,fa4
    1608:	fff00513          	li	a0,-1
    160c:	08d7f7d3          	fsub.s	fa5,fa5,fa3
    1610:	00d4a027          	fsw	fa3,0(s1)
    1614:	00e7f7d3          	fadd.s	fa5,fa5,fa4
    1618:	00f4a227          	fsw	fa5,4(s1)
    161c:	dbdff06f          	j	13d8 <__ieee754_rem_pio2f+0x78>
    1620:	8181a707          	flw	fa4,-2024(gp) # 5548 <_impure_ptr+0x10>
    1624:	8141a687          	flw	fa3,-2028(gp) # 5544 <_impure_ptr+0xc>
    1628:	00d7f7d3          	fadd.s	fa5,fa5,fa3
    162c:	fd9ff06f          	j	1604 <__ieee754_rem_pio2f+0x2a4>

00001630 <__kernel_cosf>:
    1630:	e00507d3          	fmv.x.w	a5,fa0
    1634:	320006b7          	lui	a3,0x32000
    1638:	00179713          	slli	a4,a5,0x1
    163c:	00175713          	srli	a4,a4,0x1
    1640:	06d75063          	bge	a4,a3,16a0 <__kernel_cosf+0x70>
    1644:	c0051753          	fcvt.w.s	a4,fa0,rtz
    1648:	0e070063          	beqz	a4,1728 <__kernel_cosf+0xf8>
    164c:	10a576d3          	fmul.s	fa3,fa0,fa0
    1650:	83c1a707          	flw	fa4,-1988(gp) # 556c <_impure_ptr+0x34>
    1654:	8401a787          	flw	fa5,-1984(gp) # 5570 <_impure_ptr+0x38>
    1658:	78e6f743          	fmadd.s	fa4,fa3,fa4,fa5
    165c:	8441a787          	flw	fa5,-1980(gp) # 5574 <_impure_ptr+0x3c>
    1660:	78e6f743          	fmadd.s	fa4,fa3,fa4,fa5
    1664:	8481a787          	flw	fa5,-1976(gp) # 5578 <_impure_ptr+0x40>
    1668:	78e6f743          	fmadd.s	fa4,fa3,fa4,fa5
    166c:	84c1a787          	flw	fa5,-1972(gp) # 557c <_impure_ptr+0x44>
    1670:	78e6f743          	fmadd.s	fa4,fa3,fa4,fa5
    1674:	8501a787          	flw	fa5,-1968(gp) # 5580 <_impure_ptr+0x48>
    1678:	78e6f7c3          	fmadd.s	fa5,fa3,fa4,fa5
    167c:	10f6f7d3          	fmul.s	fa5,fa3,fa5
    1680:	f0078753          	fmv.w.x	fa4,a5
    1684:	8201a507          	flw	fa0,-2016(gp) # 5550 <_impure_ptr+0x18>
    1688:	10b775d3          	fmul.s	fa1,fa4,fa1
    168c:	58f6f7c7          	fmsub.s	fa5,fa3,fa5,fa1
    1690:	78a6f7c7          	fmsub.s	fa5,fa3,fa0,fa5
    1694:	8381a507          	flw	fa0,-1992(gp) # 5568 <_impure_ptr+0x30>
    1698:	08f57553          	fsub.s	fa0,fa0,fa5
    169c:	00008067          	ret
    16a0:	10a576d3          	fmul.s	fa3,fa0,fa0
    16a4:	83c1a787          	flw	fa5,-1988(gp) # 556c <_impure_ptr+0x34>
    16a8:	8401a707          	flw	fa4,-1984(gp) # 5570 <_impure_ptr+0x38>
    16ac:	70f6f7c3          	fmadd.s	fa5,fa3,fa5,fa4
    16b0:	8441a707          	flw	fa4,-1980(gp) # 5574 <_impure_ptr+0x3c>
    16b4:	3e99a6b7          	lui	a3,0x3e99a
    16b8:	99968693          	addi	a3,a3,-1639 # 3e999999 <_end+0x3e993951>
    16bc:	70d7f7c3          	fmadd.s	fa5,fa5,fa3,fa4
    16c0:	8481a707          	flw	fa4,-1976(gp) # 5578 <_impure_ptr+0x40>
    16c4:	70d7f7c3          	fmadd.s	fa5,fa5,fa3,fa4
    16c8:	84c1a707          	flw	fa4,-1972(gp) # 557c <_impure_ptr+0x44>
    16cc:	70d7f7c3          	fmadd.s	fa5,fa5,fa3,fa4
    16d0:	8501a707          	flw	fa4,-1968(gp) # 5580 <_impure_ptr+0x48>
    16d4:	70d7f7c3          	fmadd.s	fa5,fa5,fa3,fa4
    16d8:	10d7f7d3          	fmul.s	fa5,fa5,fa3
    16dc:	fae6d2e3          	bge	a3,a4,1680 <__kernel_cosf+0x50>
    16e0:	3f4806b7          	lui	a3,0x3f480
    16e4:	02e6cc63          	blt	a3,a4,171c <__kernel_cosf+0xec>
    16e8:	ff0006b7          	lui	a3,0xff000
    16ec:	00d70733          	add	a4,a4,a3
    16f0:	8381a507          	flw	fa0,-1992(gp) # 5568 <_impure_ptr+0x30>
    16f4:	f0070753          	fmv.w.x	fa4,a4
    16f8:	08e57553          	fsub.s	fa0,fa0,fa4
    16fc:	f0078653          	fmv.w.x	fa2,a5
    1700:	10b675d3          	fmul.s	fa1,fa2,fa1
    1704:	8201a607          	flw	fa2,-2016(gp) # 5550 <_impure_ptr+0x18>
    1708:	58f6f7c7          	fmsub.s	fa5,fa3,fa5,fa1
    170c:	70c6f6c7          	fmsub.s	fa3,fa3,fa2,fa4
    1710:	08f6f7d3          	fsub.s	fa5,fa3,fa5
    1714:	08f57553          	fsub.s	fa0,fa0,fa5
    1718:	00008067          	ret
    171c:	8301a507          	flw	fa0,-2000(gp) # 5560 <_impure_ptr+0x28>
    1720:	8341a707          	flw	fa4,-1996(gp) # 5564 <_impure_ptr+0x2c>
    1724:	fd9ff06f          	j	16fc <__kernel_cosf+0xcc>
    1728:	8381a507          	flw	fa0,-1992(gp) # 5568 <_impure_ptr+0x30>
    172c:	00008067          	ret

00001730 <__kernel_rem_pio2f>:
    1730:	e4010113          	addi	sp,sp,-448
    1734:	1a912a23          	sw	s1,436(sp)
    1738:	000044b7          	lui	s1,0x4
    173c:	2d048893          	addi	a7,s1,720 # 42d0 <init_jk>
    1740:	00e12a23          	sw	a4,20(sp)
    1744:	00271713          	slli	a4,a4,0x2
    1748:	00068813          	mv	a6,a3
    174c:	1a812c23          	sw	s0,440(sp)
    1750:	1b212823          	sw	s2,432(sp)
    1754:	19a12823          	sw	s10,400(sp)
    1758:	00e88733          	add	a4,a7,a4
    175c:	1a112e23          	sw	ra,444(sp)
    1760:	1b312623          	sw	s3,428(sp)
    1764:	1b412423          	sw	s4,424(sp)
    1768:	1b512223          	sw	s5,420(sp)
    176c:	1b612023          	sw	s6,416(sp)
    1770:	19712e23          	sw	s7,412(sp)
    1774:	19812c23          	sw	s8,408(sp)
    1778:	19912a23          	sw	s9,404(sp)
    177c:	19b12623          	sw	s11,396(sp)
    1780:	16812e27          	fsw	fs0,380(sp)
    1784:	16912c27          	fsw	fs1,376(sp)
    1788:	17212a27          	fsw	fs2,372(sp)
    178c:	17312827          	fsw	fs3,368(sp)
    1790:	17412627          	fsw	fs4,364(sp)
    1794:	17512427          	fsw	fs5,360(sp)
    1798:	17612227          	fsw	fs6,356(sp)
    179c:	01112623          	sw	a7,12(sp)
    17a0:	00c12e23          	sw	a2,28(sp)
    17a4:	ffc00693          	li	a3,-4
    17a8:	00b12823          	sw	a1,16(sp)
    17ac:	00f12223          	sw	a5,4(sp)
    17b0:	00072d03          	lw	s10,0(a4) # 7f800000 <_end+0x7f7f9fb8>
    17b4:	00050913          	mv	s2,a0
    17b8:	fff80413          	addi	s0,a6,-1
    17bc:	78d64463          	blt	a2,a3,1f44 <__kernel_rem_pio2f+0x814>
    17c0:	ffd60793          	addi	a5,a2,-3
    17c4:	41f7d713          	srai	a4,a5,0x1f
    17c8:	00777713          	andi	a4,a4,7
    17cc:	00f707b3          	add	a5,a4,a5
    17d0:	4037d793          	srai	a5,a5,0x3
    17d4:	00178b93          	addi	s7,a5,1
    17d8:	00f12023          	sw	a5,0(sp)
    17dc:	003b9793          	slli	a5,s7,0x3
    17e0:	00f12c23          	sw	a5,24(sp)
    17e4:	01c12783          	lw	a5,28(sp)
    17e8:	01812683          	lw	a3,24(sp)
    17ec:	008d0733          	add	a4,s10,s0
    17f0:	40d78ab3          	sub	s5,a5,a3
    17f4:	00012783          	lw	a5,0(sp)
    17f8:	408787b3          	sub	a5,a5,s0
    17fc:	04074063          	bltz	a4,183c <__kernel_rem_pio2f+0x10c>
    1800:	00412583          	lw	a1,4(sp)
    1804:	00170613          	addi	a2,a4,1
    1808:	00279693          	slli	a3,a5,0x2
    180c:	07010713          	addi	a4,sp,112
    1810:	00d586b3          	add	a3,a1,a3
    1814:	00f60633          	add	a2,a2,a5
    1818:	f00007d3          	fmv.w.x	fa5,zero
    181c:	0007c663          	bltz	a5,1828 <__kernel_rem_pio2f+0xf8>
    1820:	0006a503          	lw	a0,0(a3) # ff000000 <_end+0xfeff9fb8>
    1824:	d00577d3          	fcvt.s.w	fa5,a0
    1828:	00178793          	addi	a5,a5,1
    182c:	00f72027          	fsw	fa5,0(a4)
    1830:	00470713          	addi	a4,a4,4
    1834:	00468693          	addi	a3,a3,4
    1838:	fec790e3          	bne	a5,a2,1818 <__kernel_rem_pio2f+0xe8>
    183c:	060d4063          	bltz	s10,189c <__kernel_rem_pio2f+0x16c>
    1840:	00241613          	slli	a2,s0,0x2
    1844:	00460693          	addi	a3,a2,4
    1848:	07010793          	addi	a5,sp,112
    184c:	11010e13          	addi	t3,sp,272
    1850:	00040513          	mv	a0,s0
    1854:	00c78633          	add	a2,a5,a2
    1858:	010d0eb3          	add	t4,s10,a6
    185c:	012686b3          	add	a3,a3,s2
    1860:	f00007d3          	fmv.w.x	fa5,zero
    1864:	00060713          	mv	a4,a2
    1868:	00090793          	mv	a5,s2
    186c:	00044e63          	bltz	s0,1888 <__kernel_rem_pio2f+0x158>
    1870:	0007a687          	flw	fa3,0(a5)
    1874:	00072707          	flw	fa4,0(a4)
    1878:	00478793          	addi	a5,a5,4
    187c:	ffc70713          	addi	a4,a4,-4
    1880:	78e6f7c3          	fmadd.s	fa5,fa3,fa4,fa5
    1884:	fed796e3          	bne	a5,a3,1870 <__kernel_rem_pio2f+0x140>
    1888:	00fe2027          	fsw	fa5,0(t3)
    188c:	00150513          	addi	a0,a0,1
    1890:	004e0e13          	addi	t3,t3,4
    1894:	00460613          	addi	a2,a2,4
    1898:	fdd514e3          	bne	a0,t4,1860 <__kernel_rem_pio2f+0x130>
    189c:	8581aa87          	flw	fs5,-1960(gp) # 5588 <_impure_ptr+0x50>
    18a0:	82c1aa07          	flw	fs4,-2004(gp) # 555c <_impure_ptr+0x24>
    18a4:	85c1a487          	flw	fs1,-1956(gp) # 558c <_impure_ptr+0x54>
    18a8:	8601a407          	flw	fs0,-1952(gp) # 5590 <_impure_ptr+0x58>
    18ac:	002d1793          	slli	a5,s10,0x2
    18b0:	8381a987          	flw	fs3,-1992(gp) # 5568 <_impure_ptr+0x30>
    18b4:	8201a907          	flw	fs2,-2016(gp) # 5550 <_impure_ptr+0x18>
    18b8:	02010b13          	addi	s6,sp,32
    18bc:	ff878993          	addi	s3,a5,-8
    18c0:	01c10713          	addi	a4,sp,28
    18c4:	00281c93          	slli	s9,a6,0x2
    18c8:	00f704b3          	add	s1,a4,a5
    18cc:	013b07b3          	add	a5,s6,s3
    18d0:	00f12423          	sw	a5,8(sp)
    18d4:	01990cb3          	add	s9,s2,s9
    18d8:	000d0a13          	mv	s4,s10
    18dc:	11010d93          	addi	s11,sp,272
    18e0:	002a1993          	slli	s3,s4,0x2
    18e4:	16010793          	addi	a5,sp,352
    18e8:	013787b3          	add	a5,a5,s3
    18ec:	fb07a507          	flw	fa0,-80(a5)
    18f0:	05405063          	blez	s4,1930 <__kernel_rem_pio2f+0x200>
    18f4:	ffc98793          	addi	a5,s3,-4
    18f8:	00fd87b3          	add	a5,s11,a5
    18fc:	000b0713          	mv	a4,s6
    1900:	115577d3          	fmul.s	fa5,fa0,fs5
    1904:	0007a687          	flw	fa3,0(a5)
    1908:	00470713          	addi	a4,a4,4
    190c:	00078613          	mv	a2,a5
    1910:	ffc78793          	addi	a5,a5,-4
    1914:	c0079553          	fcvt.w.s	a0,fa5,rtz
    1918:	d00577d3          	fcvt.s.w	fa5,a0
    191c:	5147f74b          	fnmsub.s	fa4,fa5,fs4,fa0
    1920:	00d7f553          	fadd.s	fa0,fa5,fa3
    1924:	c0071553          	fcvt.w.s	a0,fa4,rtz
    1928:	fea72e23          	sw	a0,-4(a4)
    192c:	fccd9ae3          	bne	s11,a2,1900 <__kernel_rem_pio2f+0x1d0>
    1930:	000a8513          	mv	a0,s5
    1934:	001000ef          	jal	ra,2134 <scalbnf>
    1938:	20a50b53          	fmv.s	fs6,fa0
    193c:	10957553          	fmul.s	fa0,fa0,fs1
    1940:	73c000ef          	jal	ra,207c <floorf>
    1944:	b085754b          	fnmsub.s	fa0,fa0,fs0,fs6
    1948:	c0051bd3          	fcvt.w.s	s7,fa0,rtz
    194c:	d00bfb53          	fcvt.s.w	fs6,s7
    1950:	09657b53          	fsub.s	fs6,fa0,fs6
    1954:	15505063          	blez	s5,1a94 <__kernel_rem_pio2f+0x364>
    1958:	fffa0713          	addi	a4,s4,-1
    195c:	16010793          	addi	a5,sp,352
    1960:	00271713          	slli	a4,a4,0x2
    1964:	00e78733          	add	a4,a5,a4
    1968:	ec072e83          	lw	t4,-320(a4)
    196c:	00800793          	li	a5,8
    1970:	415787b3          	sub	a5,a5,s5
    1974:	40fed533          	sra	a0,t4,a5
    1978:	00f51633          	sll	a2,a0,a5
    197c:	00700793          	li	a5,7
    1980:	40ce8633          	sub	a2,t4,a2
    1984:	415787b3          	sub	a5,a5,s5
    1988:	ecc72023          	sw	a2,-320(a4)
    198c:	40f65c33          	sra	s8,a2,a5
    1990:	00ab8bb3          	add	s7,s7,a0
    1994:	13804063          	bgtz	s8,1ab4 <__kernel_rem_pio2f+0x384>
    1998:	f0000753          	fmv.w.x	fa4,zero
    199c:	a0eb27d3          	feq.s	a5,fs6,fa4
    19a0:	20078463          	beqz	a5,1ba8 <__kernel_rem_pio2f+0x478>
    19a4:	fffa0e93          	addi	t4,s4,-1
    19a8:	03aec463          	blt	t4,s10,19d0 <__kernel_rem_pio2f+0x2a0>
    19ac:	002a1793          	slli	a5,s4,0x2
    19b0:	ffc78793          	addi	a5,a5,-4
    19b4:	00fb07b3          	add	a5,s6,a5
    19b8:	00000713          	li	a4,0
    19bc:	0007a503          	lw	a0,0(a5)
    19c0:	ffc78793          	addi	a5,a5,-4
    19c4:	00a76733          	or	a4,a4,a0
    19c8:	fe979ae3          	bne	a5,s1,19bc <__kernel_rem_pio2f+0x28c>
    19cc:	3e071463          	bnez	a4,1db4 <__kernel_rem_pio2f+0x684>
    19d0:	fffd0793          	addi	a5,s10,-1
    19d4:	00279793          	slli	a5,a5,0x2
    19d8:	16010713          	addi	a4,sp,352
    19dc:	00f707b3          	add	a5,a4,a5
    19e0:	ec07a783          	lw	a5,-320(a5)
    19e4:	3c079063          	bnez	a5,1da4 <__kernel_rem_pio2f+0x674>
    19e8:	00812783          	lw	a5,8(sp)
    19ec:	00100713          	li	a4,1
    19f0:	0007a603          	lw	a2,0(a5)
    19f4:	00170713          	addi	a4,a4,1
    19f8:	ffc78793          	addi	a5,a5,-4
    19fc:	fe060ae3          	beqz	a2,19f0 <__kernel_rem_pio2f+0x2c0>
    1a00:	001a0793          	addi	a5,s4,1
    1a04:	00078e93          	mv	t4,a5
    1a08:	00ea0f33          	add	t5,s4,a4
    1a0c:	00012703          	lw	a4,0(sp)
    1a10:	00f406b3          	add	a3,s0,a5
    1a14:	00269693          	slli	a3,a3,0x2
    1a18:	00f70533          	add	a0,a4,a5
    1a1c:	16010713          	addi	a4,sp,352
    1a20:	00d706b3          	add	a3,a4,a3
    1a24:	00412703          	lw	a4,4(sp)
    1a28:	00251513          	slli	a0,a0,0x2
    1a2c:	00279793          	slli	a5,a5,0x2
    1a30:	00a70533          	add	a0,a4,a0
    1a34:	00fd8633          	add	a2,s11,a5
    1a38:	f0c68693          	addi	a3,a3,-244
    1a3c:	00052783          	lw	a5,0(a0)
    1a40:	f00007d3          	fmv.w.x	fa5,zero
    1a44:	d007f753          	fcvt.s.w	fa4,a5
    1a48:	00e6a227          	fsw	fa4,4(a3)
    1a4c:	02044463          	bltz	s0,1a74 <__kernel_rem_pio2f+0x344>
    1a50:	00068713          	mv	a4,a3
    1a54:	00090793          	mv	a5,s2
    1a58:	00c0006f          	j	1a64 <__kernel_rem_pio2f+0x334>
    1a5c:	00072707          	flw	fa4,0(a4)
    1a60:	ffc70713          	addi	a4,a4,-4
    1a64:	0007a687          	flw	fa3,0(a5)
    1a68:	00478793          	addi	a5,a5,4
    1a6c:	78e6f7c3          	fmadd.s	fa5,fa3,fa4,fa5
    1a70:	ff9796e3          	bne	a5,s9,1a5c <__kernel_rem_pio2f+0x32c>
    1a74:	00f62027          	fsw	fa5,0(a2)
    1a78:	001e8e93          	addi	t4,t4,1
    1a7c:	00450513          	addi	a0,a0,4
    1a80:	00460613          	addi	a2,a2,4
    1a84:	00468693          	addi	a3,a3,4
    1a88:	fbdf5ae3          	bge	t5,t4,1a3c <__kernel_rem_pio2f+0x30c>
    1a8c:	000f0a13          	mv	s4,t5
    1a90:	e51ff06f          	j	18e0 <__kernel_rem_pio2f+0x1b0>
    1a94:	2e0a9863          	bnez	s5,1d84 <__kernel_rem_pio2f+0x654>
    1a98:	fffa0793          	addi	a5,s4,-1
    1a9c:	00279793          	slli	a5,a5,0x2
    1aa0:	16010713          	addi	a4,sp,352
    1aa4:	00f707b3          	add	a5,a4,a5
    1aa8:	ec07a603          	lw	a2,-320(a5)
    1aac:	40765c13          	srai	s8,a2,0x7
    1ab0:	ef8054e3          	blez	s8,1998 <__kernel_rem_pio2f+0x268>
    1ab4:	001b8b93          	addi	s7,s7,1
    1ab8:	49405e63          	blez	s4,1f54 <__kernel_rem_pio2f+0x824>
    1abc:	02012e83          	lw	t4,32(sp)
    1ac0:	00100793          	li	a5,1
    1ac4:	2a0e9c63          	bnez	t4,1d7c <__kernel_rem_pio2f+0x64c>
    1ac8:	08fa0263          	beq	s4,a5,1b4c <__kernel_rem_pio2f+0x41c>
    1acc:	02412e83          	lw	t4,36(sp)
    1ad0:	02410513          	addi	a0,sp,36
    1ad4:	00100713          	li	a4,1
    1ad8:	00170793          	addi	a5,a4,1
    1adc:	00450513          	addi	a0,a0,4
    1ae0:	000e9e63          	bnez	t4,1afc <__kernel_rem_pio2f+0x3cc>
    1ae4:	06fa0463          	beq	s4,a5,1b4c <__kernel_rem_pio2f+0x41c>
    1ae8:	00052e83          	lw	t4,0(a0)
    1aec:	00078713          	mv	a4,a5
    1af0:	00170793          	addi	a5,a4,1
    1af4:	00450513          	addi	a0,a0,4
    1af8:	fe0e86e3          	beqz	t4,1ae4 <__kernel_rem_pio2f+0x3b4>
    1afc:	00271713          	slli	a4,a4,0x2
    1b00:	16010693          	addi	a3,sp,352
    1b04:	00e68533          	add	a0,a3,a4
    1b08:	10000713          	li	a4,256
    1b0c:	41d70733          	sub	a4,a4,t4
    1b10:	ece52023          	sw	a4,-320(a0)
    1b14:	0347da63          	bge	a5,s4,1b48 <__kernel_rem_pio2f+0x418>
    1b18:	00279793          	slli	a5,a5,0x2
    1b1c:	00f68733          	add	a4,a3,a5
    1b20:	ec072703          	lw	a4,-320(a4)
    1b24:	00fb07b3          	add	a5,s6,a5
    1b28:	013b0eb3          	add	t4,s6,s3
    1b2c:	0ff00513          	li	a0,255
    1b30:	0080006f          	j	1b38 <__kernel_rem_pio2f+0x408>
    1b34:	0007a703          	lw	a4,0(a5)
    1b38:	40e50733          	sub	a4,a0,a4
    1b3c:	00e7a023          	sw	a4,0(a5)
    1b40:	00478793          	addi	a5,a5,4
    1b44:	ffd798e3          	bne	a5,t4,1b34 <__kernel_rem_pio2f+0x404>
    1b48:	00100e93          	li	t4,1
    1b4c:	03505863          	blez	s5,1b7c <__kernel_rem_pio2f+0x44c>
    1b50:	00100793          	li	a5,1
    1b54:	3cfa8863          	beq	s5,a5,1f24 <__kernel_rem_pio2f+0x7f4>
    1b58:	00200793          	li	a5,2
    1b5c:	02fa9063          	bne	s5,a5,1b7c <__kernel_rem_pio2f+0x44c>
    1b60:	fffa0793          	addi	a5,s4,-1
    1b64:	16010713          	addi	a4,sp,352
    1b68:	00279793          	slli	a5,a5,0x2
    1b6c:	00f707b3          	add	a5,a4,a5
    1b70:	ec07a703          	lw	a4,-320(a5)
    1b74:	03f77713          	andi	a4,a4,63
    1b78:	ece7a023          	sw	a4,-320(a5)
    1b7c:	00200793          	li	a5,2
    1b80:	e0fc1ce3          	bne	s8,a5,1998 <__kernel_rem_pio2f+0x268>
    1b84:	0969fb53          	fsub.s	fs6,fs3,fs6
    1b88:	e00e88e3          	beqz	t4,1998 <__kernel_rem_pio2f+0x268>
    1b8c:	21398553          	fmv.s	fa0,fs3
    1b90:	000a8513          	mv	a0,s5
    1b94:	5a0000ef          	jal	ra,2134 <scalbnf>
    1b98:	08ab7b53          	fsub.s	fs6,fs6,fa0
    1b9c:	f0000753          	fmv.w.x	fa4,zero
    1ba0:	a0eb27d3          	feq.s	a5,fs6,fa4
    1ba4:	e00790e3          	bnez	a5,19a4 <__kernel_rem_pio2f+0x274>
    1ba8:	01812783          	lw	a5,24(sp)
    1bac:	01c12703          	lw	a4,28(sp)
    1bb0:	216b0553          	fmv.s	fa0,fs6
    1bb4:	40e78533          	sub	a0,a5,a4
    1bb8:	57c000ef          	jal	ra,2134 <scalbnf>
    1bbc:	82c1a707          	flw	fa4,-2004(gp) # 555c <_impure_ptr+0x24>
    1bc0:	a0a707d3          	fle.s	a5,fa4,fa0
    1bc4:	38078c63          	beqz	a5,1f5c <__kernel_rem_pio2f+0x82c>
    1bc8:	8581a687          	flw	fa3,-1960(gp) # 5588 <_impure_ptr+0x50>
    1bcc:	001a0e93          	addi	t4,s4,1
    1bd0:	16010793          	addi	a5,sp,352
    1bd4:	10d576d3          	fmul.s	fa3,fa0,fa3
    1bd8:	01378fb3          	add	t6,a5,s3
    1bdc:	16010713          	addi	a4,sp,352
    1be0:	002e9793          	slli	a5,t4,0x2
    1be4:	00f707b3          	add	a5,a4,a5
    1be8:	c0069753          	fcvt.w.s	a4,fa3,rtz
    1bec:	008a8a93          	addi	s5,s5,8
    1bf0:	d00776d3          	fcvt.s.w	fa3,a4
    1bf4:	50e6f7cb          	fnmsub.s	fa5,fa3,fa4,fa0
    1bf8:	c0069753          	fcvt.w.s	a4,fa3,rtz
    1bfc:	c00796d3          	fcvt.w.s	a3,fa5,rtz
    1c00:	ecdfa023          	sw	a3,-320(t6)
    1c04:	ece7a023          	sw	a4,-320(a5)
    1c08:	8381a507          	flw	fa0,-1992(gp) # 5568 <_impure_ptr+0x30>
    1c0c:	000a8513          	mv	a0,s5
    1c10:	01d12023          	sw	t4,0(sp)
    1c14:	520000ef          	jal	ra,2134 <scalbnf>
    1c18:	00012e83          	lw	t4,0(sp)
    1c1c:	380ecc63          	bltz	t4,1fb4 <__kernel_rem_pio2f+0x884>
    1c20:	002e9893          	slli	a7,t4,0x2
    1c24:	8581a687          	flw	fa3,-1960(gp) # 5588 <_impure_ptr+0x50>
    1c28:	11010793          	addi	a5,sp,272
    1c2c:	01178533          	add	a0,a5,a7
    1c30:	00050713          	mv	a4,a0
    1c34:	011b07b3          	add	a5,s6,a7
    1c38:	0007a583          	lw	a1,0(a5)
    1c3c:	ffc70713          	addi	a4,a4,-4
    1c40:	00078693          	mv	a3,a5
    1c44:	d005f7d3          	fcvt.s.w	fa5,a1
    1c48:	ffc78793          	addi	a5,a5,-4
    1c4c:	10a7f7d3          	fmul.s	fa5,fa5,fa0
    1c50:	10d57553          	fmul.s	fa0,fa0,fa3
    1c54:	00f72227          	fsw	fa5,4(a4)
    1c58:	fedb10e3          	bne	s6,a3,1c38 <__kernel_rem_pio2f+0x508>
    1c5c:	0c010313          	addi	t1,sp,192
    1c60:	8541a607          	flw	fa2,-1964(gp) # 5584 <_impure_ptr+0x4c>
    1c64:	00030813          	mv	a6,t1
    1c68:	00000593          	li	a1,0
    1c6c:	040d4e63          	bltz	s10,1cc8 <__kernel_rem_pio2f+0x598>
    1c70:	00c12783          	lw	a5,12(sp)
    1c74:	20c60753          	fmv.s	fa4,fa2
    1c78:	f00007d3          	fmv.w.x	fa5,zero
    1c7c:	01078693          	addi	a3,a5,16
    1c80:	00050713          	mv	a4,a0
    1c84:	00000793          	li	a5,0
    1c88:	0100006f          	j	1c98 <__kernel_rem_pio2f+0x568>
    1c8c:	02f5c063          	blt	a1,a5,1cac <__kernel_rem_pio2f+0x57c>
    1c90:	0006a707          	flw	fa4,0(a3)
    1c94:	00468693          	addi	a3,a3,4
    1c98:	00072687          	flw	fa3,0(a4)
    1c9c:	00178793          	addi	a5,a5,1
    1ca0:	00470713          	addi	a4,a4,4
    1ca4:	78e6f7c3          	fmadd.s	fa5,fa3,fa4,fa5
    1ca8:	fefd52e3          	bge	s10,a5,1c8c <__kernel_rem_pio2f+0x55c>
    1cac:	00f82027          	fsw	fa5,0(a6)
    1cb0:	00158793          	addi	a5,a1,1
    1cb4:	00480813          	addi	a6,a6,4
    1cb8:	ffc50513          	addi	a0,a0,-4
    1cbc:	02be8263          	beq	t4,a1,1ce0 <__kernel_rem_pio2f+0x5b0>
    1cc0:	00078593          	mv	a1,a5
    1cc4:	fa0d56e3          	bgez	s10,1c70 <__kernel_rem_pio2f+0x540>
    1cc8:	f00007d3          	fmv.w.x	fa5,zero
    1ccc:	00158793          	addi	a5,a1,1
    1cd0:	00480813          	addi	a6,a6,4
    1cd4:	fef82e27          	fsw	fa5,-4(a6)
    1cd8:	ffc50513          	addi	a0,a0,-4
    1cdc:	febe92e3          	bne	t4,a1,1cc0 <__kernel_rem_pio2f+0x590>
    1ce0:	01412703          	lw	a4,20(sp)
    1ce4:	00200793          	li	a5,2
    1ce8:	16e7c263          	blt	a5,a4,1e4c <__kernel_rem_pio2f+0x71c>
    1cec:	f00007d3          	fmv.w.x	fa5,zero
    1cf0:	011308b3          	add	a7,t1,a7
    1cf4:	0ee04e63          	bgtz	a4,1df0 <__kernel_rem_pio2f+0x6c0>
    1cf8:	02071463          	bnez	a4,1d20 <__kernel_rem_pio2f+0x5f0>
    1cfc:	0008a707          	flw	fa4,0(a7)
    1d00:	00088793          	mv	a5,a7
    1d04:	ffc88893          	addi	a7,a7,-4
    1d08:	00e7f7d3          	fadd.s	fa5,fa5,fa4
    1d0c:	fef318e3          	bne	t1,a5,1cfc <__kernel_rem_pio2f+0x5cc>
    1d10:	000c0463          	beqz	s8,1d18 <__kernel_rem_pio2f+0x5e8>
    1d14:	20f797d3          	fneg.s	fa5,fa5
    1d18:	01012783          	lw	a5,16(sp)
    1d1c:	00f7a027          	fsw	fa5,0(a5)
    1d20:	1bc12083          	lw	ra,444(sp)
    1d24:	1b812403          	lw	s0,440(sp)
    1d28:	1b412483          	lw	s1,436(sp)
    1d2c:	1b012903          	lw	s2,432(sp)
    1d30:	1ac12983          	lw	s3,428(sp)
    1d34:	1a812a03          	lw	s4,424(sp)
    1d38:	1a412a83          	lw	s5,420(sp)
    1d3c:	1a012b03          	lw	s6,416(sp)
    1d40:	19812c03          	lw	s8,408(sp)
    1d44:	19412c83          	lw	s9,404(sp)
    1d48:	19012d03          	lw	s10,400(sp)
    1d4c:	18c12d83          	lw	s11,396(sp)
    1d50:	17c12407          	flw	fs0,380(sp)
    1d54:	17812487          	flw	fs1,376(sp)
    1d58:	17412907          	flw	fs2,372(sp)
    1d5c:	17012987          	flw	fs3,368(sp)
    1d60:	16c12a07          	flw	fs4,364(sp)
    1d64:	16812a87          	flw	fs5,360(sp)
    1d68:	16412b07          	flw	fs6,356(sp)
    1d6c:	007bf513          	andi	a0,s7,7
    1d70:	19c12b83          	lw	s7,412(sp)
    1d74:	1c010113          	addi	sp,sp,448
    1d78:	00008067          	ret
    1d7c:	00000713          	li	a4,0
    1d80:	d7dff06f          	j	1afc <__kernel_rem_pio2f+0x3cc>
    1d84:	a16907d3          	fle.s	a5,fs2,fs6
    1d88:	00000c13          	li	s8,0
    1d8c:	c00786e3          	beqz	a5,1998 <__kernel_rem_pio2f+0x268>
    1d90:	001b8b93          	addi	s7,s7,1
    1d94:	00200c13          	li	s8,2
    1d98:	d34042e3          	bgtz	s4,1abc <__kernel_rem_pio2f+0x38c>
    1d9c:	0969fb53          	fsub.s	fs6,fs3,fs6
    1da0:	bf9ff06f          	j	1998 <__kernel_rem_pio2f+0x268>
    1da4:	001a0793          	addi	a5,s4,1
    1da8:	00078e93          	mv	t4,a5
    1dac:	00078f13          	mv	t5,a5
    1db0:	c5dff06f          	j	1a0c <__kernel_rem_pio2f+0x2dc>
    1db4:	002e9793          	slli	a5,t4,0x2
    1db8:	16010713          	addi	a4,sp,352
    1dbc:	00f707b3          	add	a5,a4,a5
    1dc0:	ec07a783          	lw	a5,-320(a5)
    1dc4:	ff8a8a93          	addi	s5,s5,-8
    1dc8:	e40790e3          	bnez	a5,1c08 <__kernel_rem_pio2f+0x4d8>
    1dcc:	002a1793          	slli	a5,s4,0x2
    1dd0:	ff878793          	addi	a5,a5,-8
    1dd4:	00fb07b3          	add	a5,s6,a5
    1dd8:	0007a703          	lw	a4,0(a5)
    1ddc:	fffe8e93          	addi	t4,t4,-1
    1de0:	ffc78793          	addi	a5,a5,-4
    1de4:	ff8a8a93          	addi	s5,s5,-8
    1de8:	fe0708e3          	beqz	a4,1dd8 <__kernel_rem_pio2f+0x6a8>
    1dec:	e1dff06f          	j	1c08 <__kernel_rem_pio2f+0x4d8>
    1df0:	0008a707          	flw	fa4,0(a7)
    1df4:	00088793          	mv	a5,a7
    1df8:	ffc88893          	addi	a7,a7,-4
    1dfc:	00e7f7d3          	fadd.s	fa5,fa5,fa4
    1e00:	fef318e3          	bne	t1,a5,1df0 <__kernel_rem_pio2f+0x6c0>
    1e04:	160c1863          	bnez	s8,1f74 <__kernel_rem_pio2f+0x844>
    1e08:	01012783          	lw	a5,16(sp)
    1e0c:	0c012707          	flw	fa4,192(sp)
    1e10:	00f7a027          	fsw	fa5,0(a5)
    1e14:	08f777d3          	fsub.s	fa5,fa4,fa5
    1e18:	03d05463          	blez	t4,1e40 <__kernel_rem_pio2f+0x710>
    1e1c:	0c410713          	addi	a4,sp,196
    1e20:	00100793          	li	a5,1
    1e24:	00072707          	flw	fa4,0(a4)
    1e28:	00178793          	addi	a5,a5,1
    1e2c:	00470713          	addi	a4,a4,4
    1e30:	00e7f7d3          	fadd.s	fa5,fa5,fa4
    1e34:	fefed8e3          	bge	t4,a5,1e24 <__kernel_rem_pio2f+0x6f4>
    1e38:	000c0463          	beqz	s8,1e40 <__kernel_rem_pio2f+0x710>
    1e3c:	20f797d3          	fneg.s	fa5,fa5
    1e40:	01012783          	lw	a5,16(sp)
    1e44:	00f7a227          	fsw	fa5,4(a5)
    1e48:	ed9ff06f          	j	1d20 <__kernel_rem_pio2f+0x5f0>
    1e4c:	01412703          	lw	a4,20(sp)
    1e50:	00300793          	li	a5,3
    1e54:	ecf716e3          	bne	a4,a5,1d20 <__kernel_rem_pio2f+0x5f0>
    1e58:	040e8263          	beqz	t4,1e9c <__kernel_rem_pio2f+0x76c>
    1e5c:	16010713          	addi	a4,sp,352
    1e60:	01170733          	add	a4,a4,a7
    1e64:	002e9793          	slli	a5,t4,0x2
    1e68:	f6072707          	flw	fa4,-160(a4)
    1e6c:	ffc78793          	addi	a5,a5,-4
    1e70:	00f307b3          	add	a5,t1,a5
    1e74:	0007a787          	flw	fa5,0(a5)
    1e78:	20e706d3          	fmv.s	fa3,fa4
    1e7c:	00078713          	mv	a4,a5
    1e80:	00f77753          	fadd.s	fa4,fa4,fa5
    1e84:	ffc78793          	addi	a5,a5,-4
    1e88:	08e7f7d3          	fsub.s	fa5,fa5,fa4
    1e8c:	00e7a227          	fsw	fa4,4(a5)
    1e90:	00d7f7d3          	fadd.s	fa5,fa5,fa3
    1e94:	00f7a427          	fsw	fa5,8(a5)
    1e98:	fce31ee3          	bne	t1,a4,1e74 <__kernel_rem_pio2f+0x744>
    1e9c:	00100793          	li	a5,1
    1ea0:	f00007d3          	fmv.w.x	fa5,zero
    1ea4:	07d7d063          	bge	a5,t4,1f04 <__kernel_rem_pio2f+0x7d4>
    1ea8:	16010793          	addi	a5,sp,352
    1eac:	011788b3          	add	a7,a5,a7
    1eb0:	f608a707          	flw	fa4,-160(a7)
    1eb4:	002e9793          	slli	a5,t4,0x2
    1eb8:	ffc78793          	addi	a5,a5,-4
    1ebc:	00f30733          	add	a4,t1,a5
    1ec0:	00072787          	flw	fa5,0(a4)
    1ec4:	20e706d3          	fmv.s	fa3,fa4
    1ec8:	00070693          	mv	a3,a4
    1ecc:	00f77753          	fadd.s	fa4,fa4,fa5
    1ed0:	ffc70713          	addi	a4,a4,-4
    1ed4:	08e7f7d3          	fsub.s	fa5,fa5,fa4
    1ed8:	00e72227          	fsw	fa4,4(a4)
    1edc:	00d7f7d3          	fadd.s	fa5,fa5,fa3
    1ee0:	00f72427          	fsw	fa5,8(a4)
    1ee4:	fce31ee3          	bne	t1,a4,1ec0 <__kernel_rem_pio2f+0x790>
    1ee8:	f00007d3          	fmv.w.x	fa5,zero
    1eec:	00478793          	addi	a5,a5,4
    1ef0:	00f30333          	add	t1,t1,a5
    1ef4:	00032707          	flw	fa4,0(t1)
    1ef8:	ffc30313          	addi	t1,t1,-4
    1efc:	00e7f7d3          	fadd.s	fa5,fa5,fa4
    1f00:	fe669ae3          	bne	a3,t1,1ef4 <__kernel_rem_pio2f+0x7c4>
    1f04:	0c012687          	flw	fa3,192(sp)
    1f08:	0c412707          	flw	fa4,196(sp)
    1f0c:	080c1463          	bnez	s8,1f94 <__kernel_rem_pio2f+0x864>
    1f10:	01012783          	lw	a5,16(sp)
    1f14:	00d7a027          	fsw	fa3,0(a5)
    1f18:	00e7a227          	fsw	fa4,4(a5)
    1f1c:	00f7a427          	fsw	fa5,8(a5)
    1f20:	e01ff06f          	j	1d20 <__kernel_rem_pio2f+0x5f0>
    1f24:	fffa0793          	addi	a5,s4,-1
    1f28:	16010713          	addi	a4,sp,352
    1f2c:	00279793          	slli	a5,a5,0x2
    1f30:	00f707b3          	add	a5,a4,a5
    1f34:	ec07a703          	lw	a4,-320(a5)
    1f38:	07f77713          	andi	a4,a4,127
    1f3c:	ece7a023          	sw	a4,-320(a5)
    1f40:	c3dff06f          	j	1b7c <__kernel_rem_pio2f+0x44c>
    1f44:	00800793          	li	a5,8
    1f48:	00f12c23          	sw	a5,24(sp)
    1f4c:	00012023          	sw	zero,0(sp)
    1f50:	895ff06f          	j	17e4 <__kernel_rem_pio2f+0xb4>
    1f54:	00000e93          	li	t4,0
    1f58:	bf5ff06f          	j	1b4c <__kernel_rem_pio2f+0x41c>
    1f5c:	c00517d3          	fcvt.w.s	a5,fa0,rtz
    1f60:	16010713          	addi	a4,sp,352
    1f64:	01370fb3          	add	t6,a4,s3
    1f68:	000a0e93          	mv	t4,s4
    1f6c:	ecffa023          	sw	a5,-320(t6)
    1f70:	c99ff06f          	j	1c08 <__kernel_rem_pio2f+0x4d8>
    1f74:	20f79753          	fneg.s	fa4,fa5
    1f78:	01012783          	lw	a5,16(sp)
    1f7c:	00e7a027          	fsw	fa4,0(a5)
    1f80:	0c012707          	flw	fa4,192(sp)
    1f84:	08f777d3          	fsub.s	fa5,fa4,fa5
    1f88:	e9d04ae3          	bgtz	t4,1e1c <__kernel_rem_pio2f+0x6ec>
    1f8c:	20f797d3          	fneg.s	fa5,fa5
    1f90:	eb1ff06f          	j	1e40 <__kernel_rem_pio2f+0x710>
    1f94:	01012783          	lw	a5,16(sp)
    1f98:	20d696d3          	fneg.s	fa3,fa3
    1f9c:	20e71753          	fneg.s	fa4,fa4
    1fa0:	20f797d3          	fneg.s	fa5,fa5
    1fa4:	00d7a027          	fsw	fa3,0(a5)
    1fa8:	00e7a227          	fsw	fa4,4(a5)
    1fac:	00f7a427          	fsw	fa5,8(a5)
    1fb0:	d71ff06f          	j	1d20 <__kernel_rem_pio2f+0x5f0>
    1fb4:	01412703          	lw	a4,20(sp)
    1fb8:	00200793          	li	a5,2
    1fbc:	00e7cc63          	blt	a5,a4,1fd4 <__kernel_rem_pio2f+0x8a4>
    1fc0:	f00007d3          	fmv.w.x	fa5,zero
    1fc4:	e4e040e3          	bgtz	a4,1e04 <__kernel_rem_pio2f+0x6d4>
    1fc8:	d4071ce3          	bnez	a4,1d20 <__kernel_rem_pio2f+0x5f0>
    1fcc:	d40c06e3          	beqz	s8,1d18 <__kernel_rem_pio2f+0x5e8>
    1fd0:	d45ff06f          	j	1d14 <__kernel_rem_pio2f+0x5e4>
    1fd4:	01412703          	lw	a4,20(sp)
    1fd8:	00300793          	li	a5,3
    1fdc:	f00007d3          	fmv.w.x	fa5,zero
    1fe0:	f2f702e3          	beq	a4,a5,1f04 <__kernel_rem_pio2f+0x7d4>
    1fe4:	d3dff06f          	j	1d20 <__kernel_rem_pio2f+0x5f0>

00001fe8 <__kernel_sinf>:
    1fe8:	e00507d3          	fmv.x.w	a5,fa0
    1fec:	320006b7          	lui	a3,0x32000
    1ff0:	00179713          	slli	a4,a5,0x1
    1ff4:	00175713          	srli	a4,a4,0x1
    1ff8:	00d75663          	bge	a4,a3,2004 <__kernel_sinf+0x1c>
    1ffc:	c0051753          	fcvt.w.s	a4,fa0,rtz
    2000:	06070863          	beqz	a4,2070 <__kernel_sinf+0x88>
    2004:	f00787d3          	fmv.w.x	fa5,a5
    2008:	10f7f753          	fmul.s	fa4,fa5,fa5
    200c:	8641a787          	flw	fa5,-1948(gp) # 5594 <_impure_ptr+0x5c>
    2010:	8681a687          	flw	fa3,-1944(gp) # 5598 <_impure_ptr+0x60>
    2014:	68f777c3          	fmadd.s	fa5,fa4,fa5,fa3
    2018:	86c1a687          	flw	fa3,-1940(gp) # 559c <_impure_ptr+0x64>
    201c:	68e7f7c3          	fmadd.s	fa5,fa5,fa4,fa3
    2020:	f00786d3          	fmv.w.x	fa3,a5
    2024:	10e6f553          	fmul.s	fa0,fa3,fa4
    2028:	8701a687          	flw	fa3,-1936(gp) # 55a0 <_impure_ptr+0x68>
    202c:	68e7f7c3          	fmadd.s	fa5,fa5,fa4,fa3
    2030:	8741a687          	flw	fa3,-1932(gp) # 55a4 <_impure_ptr+0x6c>
    2034:	68e7f7c3          	fmadd.s	fa5,fa5,fa4,fa3
    2038:	00051c63          	bnez	a0,2050 <__kernel_sinf+0x68>
    203c:	8781a687          	flw	fa3,-1928(gp) # 55a8 <_impure_ptr+0x70>
    2040:	68f777c3          	fmadd.s	fa5,fa4,fa5,fa3
    2044:	f0078753          	fmv.w.x	fa4,a5
    2048:	70a7f543          	fmadd.s	fa0,fa5,fa0,fa4
    204c:	00008067          	ret
    2050:	10f577d3          	fmul.s	fa5,fa0,fa5
    2054:	8201a687          	flw	fa3,-2016(gp) # 5550 <_impure_ptr+0x18>
    2058:	78d5f7c7          	fmsub.s	fa5,fa1,fa3,fa5
    205c:	58e7f5c7          	fmsub.s	fa1,fa5,fa4,fa1
    2060:	87c1a787          	flw	fa5,-1924(gp) # 55ac <_impure_ptr+0x74>
    2064:	58f57543          	fmadd.s	fa0,fa0,fa5,fa1
    2068:	f00787d3          	fmv.w.x	fa5,a5
    206c:	08a7f553          	fsub.s	fa0,fa5,fa0
    2070:	00008067          	ret

00002074 <fabsf>:
    2074:	20a52553          	fabs.s	fa0,fa0
    2078:	00008067          	ret

0000207c <floorf>:
    207c:	e00507d3          	fmv.x.w	a5,fa0
    2080:	01600613          	li	a2,22
    2084:	00179693          	slli	a3,a5,0x1
    2088:	0186d713          	srli	a4,a3,0x18
    208c:	f8170713          	addi	a4,a4,-127
    2090:	00078593          	mv	a1,a5
    2094:	0016d693          	srli	a3,a3,0x1
    2098:	08e64063          	blt	a2,a4,2118 <floorf+0x9c>
    209c:	04074663          	bltz	a4,20e8 <floorf+0x6c>
    20a0:	00800537          	lui	a0,0x800
    20a4:	fff50693          	addi	a3,a0,-1 # 7fffff <_end+0x7f9fb7>
    20a8:	40e6d6b3          	sra	a3,a3,a4
    20ac:	00f6f833          	and	a6,a3,a5
    20b0:	e0050653          	fmv.x.w	a2,fa0
    20b4:	02080663          	beqz	a6,20e0 <floorf+0x64>
    20b8:	8841a787          	flw	fa5,-1916(gp) # 55b4 <_impure_ptr+0x7c>
    20bc:	f0000753          	fmv.w.x	fa4,zero
    20c0:	00f577d3          	fadd.s	fa5,fa0,fa5
    20c4:	a0f71853          	flt.s	a6,fa4,fa5
    20c8:	00080c63          	beqz	a6,20e0 <floorf+0x64>
    20cc:	0007d663          	bgez	a5,20d8 <floorf+0x5c>
    20d0:	40e55733          	sra	a4,a0,a4
    20d4:	00f705b3          	add	a1,a4,a5
    20d8:	fff6c693          	not	a3,a3
    20dc:	00b6f633          	and	a2,a3,a1
    20e0:	f0060553          	fmv.w.x	fa0,a2
    20e4:	00008067          	ret
    20e8:	8841a787          	flw	fa5,-1916(gp) # 55b4 <_impure_ptr+0x7c>
    20ec:	f0000753          	fmv.w.x	fa4,zero
    20f0:	e0050653          	fmv.x.w	a2,fa0
    20f4:	00f577d3          	fadd.s	fa5,fa0,fa5
    20f8:	a0f71753          	flt.s	a4,fa4,fa5
    20fc:	fe0702e3          	beqz	a4,20e0 <floorf+0x64>
    2100:	e0070653          	fmv.x.w	a2,fa4
    2104:	fc07dee3          	bgez	a5,20e0 <floorf+0x64>
    2108:	e0050653          	fmv.x.w	a2,fa0
    210c:	fc068ae3          	beqz	a3,20e0 <floorf+0x64>
    2110:	8801a603          	lw	a2,-1920(gp) # 55b0 <_impure_ptr+0x78>
    2114:	fcdff06f          	j	20e0 <floorf+0x64>
    2118:	7f800737          	lui	a4,0x7f800
    211c:	e0050653          	fmv.x.w	a2,fa0
    2120:	fce6e0e3          	bltu	a3,a4,20e0 <floorf+0x64>
    2124:	00a577d3          	fadd.s	fa5,fa0,fa0
    2128:	e0078653          	fmv.x.w	a2,fa5
    212c:	f0060553          	fmv.w.x	fa0,a2
    2130:	00008067          	ret

00002134 <scalbnf>:
    2134:	e00507d3          	fmv.x.w	a5,fa0
    2138:	00179693          	slli	a3,a5,0x1
    213c:	0016d713          	srli	a4,a3,0x1
    2140:	04068e63          	beqz	a3,219c <scalbnf+0x68>
    2144:	7f8006b7          	lui	a3,0x7f800
    2148:	04d77e63          	bgeu	a4,a3,21a4 <scalbnf+0x70>
    214c:	00d7f633          	and	a2,a5,a3
    2150:	06061263          	bnez	a2,21b4 <scalbnf+0x80>
    2154:	8881a787          	flw	fa5,-1912(gp) # 55b8 <_impure_ptr+0x80>
    2158:	ffff4737          	lui	a4,0xffff4
    215c:	cb070713          	addi	a4,a4,-848 # ffff3cb0 <_end+0xfffedc68>
    2160:	10f577d3          	fmul.s	fa5,fa0,fa5
    2164:	e00787d3          	fmv.x.w	a5,fa5
    2168:	0ae54663          	blt	a0,a4,2214 <scalbnf+0xe0>
    216c:	4177d713          	srai	a4,a5,0x17
    2170:	0ff77713          	andi	a4,a4,255
    2174:	fe770713          	addi	a4,a4,-25
    2178:	00a70733          	add	a4,a4,a0
    217c:	0fe00613          	li	a2,254
    2180:	00078693          	mv	a3,a5
    2184:	04e65263          	bge	a2,a4,21c8 <scalbnf+0x94>
    2188:	8841a707          	flw	fa4,-1916(gp) # 55b4 <_impure_ptr+0x7c>
    218c:	f00787d3          	fmv.w.x	fa5,a5
    2190:	20f707d3          	fsgnj.s	fa5,fa4,fa5
    2194:	10e7f7d3          	fmul.s	fa5,fa5,fa4
    2198:	e00787d3          	fmv.x.w	a5,fa5
    219c:	f0078553          	fmv.w.x	fa0,a5
    21a0:	00008067          	ret
    21a4:	00a577d3          	fadd.s	fa5,fa0,fa0
    21a8:	e00787d3          	fmv.x.w	a5,fa5
    21ac:	f0078553          	fmv.w.x	fa0,a5
    21b0:	00008067          	ret
    21b4:	01775713          	srli	a4,a4,0x17
    21b8:	00a70733          	add	a4,a4,a0
    21bc:	0fe00613          	li	a2,254
    21c0:	00078693          	mv	a3,a5
    21c4:	fce642e3          	blt	a2,a4,2188 <scalbnf+0x54>
    21c8:	02e04863          	bgtz	a4,21f8 <scalbnf+0xc4>
    21cc:	fea00613          	li	a2,-22
    21d0:	04c75c63          	bge	a4,a2,2228 <scalbnf+0xf4>
    21d4:	0000c737          	lui	a4,0xc
    21d8:	35070713          	addi	a4,a4,848 # c350 <_end+0x6308>
    21dc:	faa746e3          	blt	a4,a0,2188 <scalbnf+0x54>
    21e0:	88c1a707          	flw	fa4,-1908(gp) # 55bc <_impure_ptr+0x84>
    21e4:	f00787d3          	fmv.w.x	fa5,a5
    21e8:	20f707d3          	fsgnj.s	fa5,fa4,fa5
    21ec:	10e7f7d3          	fmul.s	fa5,fa5,fa4
    21f0:	e00787d3          	fmv.x.w	a5,fa5
    21f4:	fa9ff06f          	j	219c <scalbnf+0x68>
    21f8:	808007b7          	lui	a5,0x80800
    21fc:	fff78793          	addi	a5,a5,-1 # 807fffff <_end+0x807f9fb7>
    2200:	00f6f6b3          	and	a3,a3,a5
    2204:	01771793          	slli	a5,a4,0x17
    2208:	00f6e7b3          	or	a5,a3,a5
    220c:	f0078553          	fmv.w.x	fa0,a5
    2210:	00008067          	ret
    2214:	f0078753          	fmv.w.x	fa4,a5
    2218:	88c1a787          	flw	fa5,-1908(gp) # 55bc <_impure_ptr+0x84>
    221c:	10f777d3          	fmul.s	fa5,fa4,fa5
    2220:	e00787d3          	fmv.x.w	a5,fa5
    2224:	f79ff06f          	j	219c <scalbnf+0x68>
    2228:	01970793          	addi	a5,a4,25
    222c:	80800737          	lui	a4,0x80800
    2230:	fff70713          	addi	a4,a4,-1 # 807fffff <_end+0x807f9fb7>
    2234:	00e6f6b3          	and	a3,a3,a4
    2238:	01779793          	slli	a5,a5,0x17
    223c:	00d7e7b3          	or	a5,a5,a3
    2240:	f0078753          	fmv.w.x	fa4,a5
    2244:	8901a787          	flw	fa5,-1904(gp) # 55c0 <_impure_ptr+0x88>
    2248:	10f777d3          	fmul.s	fa5,fa4,fa5
    224c:	e00787d3          	fmv.x.w	a5,fa5
    2250:	f4dff06f          	j	219c <scalbnf+0x68>

00002254 <_Z16DrawRotatingRectff>:
    2254:	fd010113          	addi	sp,sp,-48
    2258:	02812423          	sw	s0,40(sp)
    225c:	00003417          	auipc	s0,0x3
    2260:	26440413          	addi	s0,s0,612 # 54c0 <_ZZ16DrawRotatingRectffE4roll>
    2264:	01312827          	fsw	fs3,16(sp)
    2268:	00042987          	flw	fs3,0(s0)
    226c:	01512427          	fsw	fs5,8(sp)
    2270:	20a50ad3          	fmv.s	fs5,fa0
    2274:	21398553          	fmv.s	fa0,fs3
    2278:	02112623          	sw	ra,44(sp)
    227c:	00812e27          	fsw	fs0,28(sp)
    2280:	00912c27          	fsw	fs1,24(sp)
    2284:	01212a27          	fsw	fs2,20(sp)
    2288:	01412627          	fsw	fs4,12(sp)
    228c:	01612227          	fsw	fs6,4(sp)
    2290:	20b58a53          	fmv.s	fs4,fa1
    2294:	f89fe0ef          	jal	ra,121c <cosf>
    2298:	20a504d3          	fmv.s	fs1,fa0
    229c:	21398553          	fmv.s	fa0,fs3
    22a0:	81cff0ef          	jal	ra,12bc <sinf>
    22a4:	00002797          	auipc	a5,0x2
    22a8:	4987ab07          	flw	fs6,1176(a5) # 473c <PIo2+0x460>
    22ac:	0169fb53          	fadd.s	fs6,fs3,fs6
    22b0:	20a50453          	fmv.s	fs0,fa0
    22b4:	216b0553          	fmv.s	fa0,fs6
    22b8:	f65fe0ef          	jal	ra,121c <cosf>
    22bc:	20a50953          	fmv.s	fs2,fa0
    22c0:	216b0553          	fmv.s	fa0,fs6
    22c4:	ff9fe0ef          	jal	ra,12bc <sinf>
    22c8:	00002797          	auipc	a5,0x2
    22cc:	4787a787          	flw	fa5,1144(a5) # 4740 <PIo2+0x464>
    22d0:	a8f4f6cb          	fnmsub.s	fa3,fs1,fa5,fs5
    22d4:	a0f4774b          	fnmsub.s	fa4,fs0,fa5,fs4
    22d8:	a8f4f4c3          	fmadd.s	fs1,fs1,fa5,fs5
    22dc:	a0f47443          	fmadd.s	fs0,fs0,fa5,fs4
    22e0:	00010537          	lui	a0,0x10
    22e4:	68f970cb          	fnmsub.s	ft1,fs2,fa5,fa3
    22e8:	70f5704b          	fnmsub.s	ft0,fa0,fa5,fa4
    22ec:	48f975cb          	fnmsub.s	fa1,fs2,fa5,fs1
    22f0:	40f5764b          	fnmsub.s	fa2,fa0,fa5,fs0
    22f4:	48f974c3          	fmadd.s	fs1,fs2,fa5,fs1
    22f8:	c0009753          	fcvt.w.s	a4,ft1,rtz
    22fc:	40f57443          	fmadd.s	fs0,fa0,fa5,fs0
    2300:	68f97943          	fmadd.s	fs2,fs2,fa5,fa3
    2304:	c0001653          	fcvt.w.s	a2,ft0,rtz
    2308:	c00597d3          	fcvt.w.s	a5,fa1,rtz
    230c:	01071713          	slli	a4,a4,0x10
    2310:	fff50513          	addi	a0,a0,-1 # ffff <_end+0x9fb7>
    2314:	70f577c3          	fmadd.s	fa5,fa0,fa5,fa4
    2318:	41075713          	srai	a4,a4,0x10
    231c:	00a77733          	and	a4,a4,a0
    2320:	c00498d3          	fcvt.w.s	a7,fs1,rtz
    2324:	c00616d3          	fcvt.w.s	a3,fa2,rtz
    2328:	01061613          	slli	a2,a2,0x10
    232c:	00003597          	auipc	a1,0x3
    2330:	1bc5a583          	lw	a1,444(a1) # 54e8 <_GLOBAL_OFFSET_TABLE_+0xc>
    2334:	0005a583          	lw	a1,0(a1)
    2338:	00e66633          	or	a2,a2,a4
    233c:	01079793          	slli	a5,a5,0x10
    2340:	c0091853          	fcvt.w.s	a6,fs2,rtz
    2344:	c0041753          	fcvt.w.s	a4,fs0,rtz
    2348:	00a61313          	slli	t1,a2,0xa
    234c:	4107d793          	srai	a5,a5,0x10
    2350:	01665613          	srli	a2,a2,0x16
    2354:	00a7f7b3          	and	a5,a5,a0
    2358:	08136313          	ori	t1,t1,129
    235c:	01069693          	slli	a3,a3,0x10
    2360:	01089893          	slli	a7,a7,0x10
    2364:	00a61613          	slli	a2,a2,0xa
    2368:	0065a023          	sw	t1,0(a1)
    236c:	00f6e6b3          	or	a3,a3,a5
    2370:	09166613          	ori	a2,a2,145
    2374:	c00797d3          	fcvt.w.s	a5,fa5,rtz
    2378:	4108d893          	srai	a7,a7,0x10
    237c:	00c5a223          	sw	a2,4(a1)
    2380:	00a8f8b3          	and	a7,a7,a0
    2384:	00a69313          	slli	t1,a3,0xa
    2388:	01081613          	slli	a2,a6,0x10
    238c:	01071713          	slli	a4,a4,0x10
    2390:	0166d693          	srli	a3,a3,0x16
    2394:	01176733          	or	a4,a4,a7
    2398:	41065613          	srai	a2,a2,0x10
    239c:	10136813          	ori	a6,t1,257
    23a0:	00a69693          	slli	a3,a3,0xa
    23a4:	0105a023          	sw	a6,0(a1)
    23a8:	00a67533          	and	a0,a2,a0
    23ac:	1216e693          	ori	a3,a3,289
    23b0:	00a71613          	slli	a2,a4,0xa
    23b4:	01079793          	slli	a5,a5,0x10
    23b8:	01675713          	srli	a4,a4,0x16
    23bc:	00d5a223          	sw	a3,4(a1)
    23c0:	00a7e7b3          	or	a5,a5,a0
    23c4:	18166693          	ori	a3,a2,385
    23c8:	00a71713          	slli	a4,a4,0xa
    23cc:	00002617          	auipc	a2,0x2
    23d0:	37862787          	flw	fa5,888(a2) # 4744 <PIo2+0x468>
    23d4:	00d5a023          	sw	a3,0(a1)
    23d8:	00f9f9d3          	fadd.s	fs3,fs3,fa5
    23dc:	1b176713          	ori	a4,a4,433
    23e0:	00a79693          	slli	a3,a5,0xa
    23e4:	0167d793          	srli	a5,a5,0x16
    23e8:	00e5a223          	sw	a4,4(a1)
    23ec:	00a79793          	slli	a5,a5,0xa
    23f0:	2016e713          	ori	a4,a3,513
    23f4:	00e5a023          	sw	a4,0(a1)
    23f8:	2417e793          	ori	a5,a5,577
    23fc:	00f5a223          	sw	a5,4(a1)
    2400:	0006f7b7          	lui	a5,0x6f
    2404:	d1578793          	addi	a5,a5,-747 # 6ed15 <_end+0x68ccd>
    2408:	00f5a023          	sw	a5,0(a1)
    240c:	01342027          	fsw	fs3,0(s0)
    2410:	02c12083          	lw	ra,44(sp)
    2414:	02812403          	lw	s0,40(sp)
    2418:	001907b7          	lui	a5,0x190
    241c:	63578793          	addi	a5,a5,1589 # 190635 <_end+0x18a5ed>
    2420:	00f5a023          	sw	a5,0(a1)
    2424:	01c12407          	flw	fs0,28(sp)
    2428:	01812487          	flw	fs1,24(sp)
    242c:	01412907          	flw	fs2,20(sp)
    2430:	01012987          	flw	fs3,16(sp)
    2434:	00c12a07          	flw	fs4,12(sp)
    2438:	00812a87          	flw	fs5,8(sp)
    243c:	00412b07          	flw	fs6,4(sp)
    2440:	03010113          	addi	sp,sp,48
    2444:	00008067          	ret

00002448 <_Z14SubmitGPUFramev>:
    2448:	ff010113          	addi	sp,sp,-16
    244c:	00812423          	sw	s0,8(sp)
    2450:	00912223          	sw	s1,4(sp)
    2454:	00003417          	auipc	s0,0x3
    2458:	0b442403          	lw	s0,180(s0) # 5508 <_GLOBAL_OFFSET_TABLE_+0x2c>
    245c:	00003497          	auipc	s1,0x3
    2460:	0bc4a483          	lw	s1,188(s1) # 5518 <_GLOBAL_OFFSET_TABLE_+0x3c>
    2464:	00042783          	lw	a5,0(s0)
    2468:	0004a703          	lw	a4,0(s1)
    246c:	00112623          	sw	ra,12(sp)
    2470:	01212023          	sw	s2,0(sp)
    2474:	00e78e63          	beq	a5,a4,2490 <_Z14SubmitGPUFramev+0x48>
    2478:	00c12083          	lw	ra,12(sp)
    247c:	00812403          	lw	s0,8(sp)
    2480:	00412483          	lw	s1,4(sp)
    2484:	00012903          	lw	s2,0(sp)
    2488:	01010113          	addi	sp,sp,16
    248c:	00008067          	ret
    2490:	00003917          	auipc	s2,0x3
    2494:	05892903          	lw	s2,88(s2) # 54e8 <_GLOBAL_OFFSET_TABLE_+0xc>
    2498:	00092703          	lw	a4,0(s2)
    249c:	00178793          	addi	a5,a5,1
    24a0:	00f4a023          	sw	a5,0(s1)
    24a4:	0c0c17b7          	lui	a5,0xc0c1
    24a8:	c8178793          	addi	a5,a5,-895 # c0c0c81 <_end+0xc0bac39>
    24ac:	00f72023          	sw	a5,0(a4)
    24b0:	000037b7          	lui	a5,0x3
    24b4:	09178793          	addi	a5,a5,145 # 3091 <_Z17SDReadSingleBlockmPhS_+0xe5>
    24b8:	00f72223          	sw	a5,4(a4)
    24bc:	01300793          	li	a5,19
    24c0:	00f72023          	sw	a5,0(a4)
    24c4:	00002797          	auipc	a5,0x2
    24c8:	2847a587          	flw	fa1,644(a5) # 4748 <PIo2+0x46c>
    24cc:	00002797          	auipc	a5,0x2
    24d0:	2807a507          	flw	fa0,640(a5) # 474c <PIo2+0x470>
    24d4:	d81ff0ef          	jal	ra,2254 <_Z16DrawRotatingRectff>
    24d8:	00003597          	auipc	a1,0x3
    24dc:	0245a583          	lw	a1,36(a1) # 54fc <_GLOBAL_OFFSET_TABLE_+0x20>
    24e0:	0005a683          	lw	a3,0(a1)
    24e4:	00092783          	lw	a5,0(s2)
    24e8:	0004a703          	lw	a4,0(s1)
    24ec:	00168693          	addi	a3,a3,1 # 7f800001 <_end+0x7f7f9fb9>
    24f0:	0016f693          	andi	a3,a3,1
    24f4:	0007a023          	sw	zero,0(a5)
    24f8:	00a69613          	slli	a2,a3,0xa
    24fc:	00d5a023          	sw	a3,0(a1)
    2500:	10166693          	ori	a3,a2,257
    2504:	00d7a023          	sw	a3,0(a5)
    2508:	12100693          	li	a3,289
    250c:	00d7a223          	sw	a3,4(a5)
    2510:	00a41613          	slli	a2,s0,0xa
    2514:	01645693          	srli	a3,s0,0x16
    2518:	02700593          	li	a1,39
    251c:	00b7a023          	sw	a1,0(a5)
    2520:	18166613          	ori	a2,a2,385
    2524:	00a69693          	slli	a3,a3,0xa
    2528:	00c7a023          	sw	a2,0(a5)
    252c:	1b16e693          	ori	a3,a3,433
    2530:	00a71613          	slli	a2,a4,0xa
    2534:	01675713          	srli	a4,a4,0x16
    2538:	00d7a223          	sw	a3,4(a5)
    253c:	00a71713          	slli	a4,a4,0xa
    2540:	10166693          	ori	a3,a2,257
    2544:	00d7a023          	sw	a3,0(a5)
    2548:	12176713          	ori	a4,a4,289
    254c:	00e7a223          	sw	a4,4(a5)
    2550:	1a600713          	li	a4,422
    2554:	00e7a023          	sw	a4,0(a5)
    2558:	00c12083          	lw	ra,12(sp)
    255c:	00042023          	sw	zero,0(s0)
    2560:	00812403          	lw	s0,8(sp)
    2564:	00412483          	lw	s1,4(sp)
    2568:	00012903          	lw	s2,0(sp)
    256c:	01010113          	addi	sp,sp,16
    2570:	00008067          	ret

00002574 <_Z6RunELFv>:
    2574:	00003797          	auipc	a5,0x3
    2578:	fa07a783          	lw	a5,-96(a5) # 5514 <_GLOBAL_OFFSET_TABLE_+0x38>
    257c:	0007a083          	lw	ra,0(a5)
    2580:	f0000053          	fmv.w.x	ft0,zero
    2584:	f00000d3          	fmv.w.x	ft1,zero
    2588:	f0000153          	fmv.w.x	ft2,zero
    258c:	f00001d3          	fmv.w.x	ft3,zero
    2590:	f0000253          	fmv.w.x	ft4,zero
    2594:	f00002d3          	fmv.w.x	ft5,zero
    2598:	f0000353          	fmv.w.x	ft6,zero
    259c:	f00003d3          	fmv.w.x	ft7,zero
    25a0:	f0000453          	fmv.w.x	fs0,zero
    25a4:	f00004d3          	fmv.w.x	fs1,zero
    25a8:	f0000553          	fmv.w.x	fa0,zero
    25ac:	f00005d3          	fmv.w.x	fa1,zero
    25b0:	f0000653          	fmv.w.x	fa2,zero
    25b4:	f00006d3          	fmv.w.x	fa3,zero
    25b8:	f0000753          	fmv.w.x	fa4,zero
    25bc:	f00007d3          	fmv.w.x	fa5,zero
    25c0:	f0000853          	fmv.w.x	fa6,zero
    25c4:	f00008d3          	fmv.w.x	fa7,zero
    25c8:	f0000953          	fmv.w.x	fs2,zero
    25cc:	f00009d3          	fmv.w.x	fs3,zero
    25d0:	f0000a53          	fmv.w.x	fs4,zero
    25d4:	f0000ad3          	fmv.w.x	fs5,zero
    25d8:	f0000b53          	fmv.w.x	fs6,zero
    25dc:	f0000bd3          	fmv.w.x	fs7,zero
    25e0:	f0000c53          	fmv.w.x	fs8,zero
    25e4:	f0000cd3          	fmv.w.x	fs9,zero
    25e8:	f0000d53          	fmv.w.x	fs10,zero
    25ec:	f0000dd3          	fmv.w.x	fs11,zero
    25f0:	f0000e53          	fmv.w.x	ft8,zero
    25f4:	f0000ed3          	fmv.w.x	ft9,zero
    25f8:	f0000f53          	fmv.w.x	ft10,zero
    25fc:	f0000fd3          	fmv.w.x	ft11,zero
    2600:	00020637          	lui	a2,0x20
    2604:	ff060613          	addi	a2,a2,-16 # 1fff0 <_end+0x19fa8>
    2608:	00060113          	mv	sp,a2
    260c:	00008067          	ret
    2610:	00008067          	ret

00002614 <_Z14parseelfheaderP16SElfFileHeader32>:
    2614:	00154683          	lbu	a3,1(a0)
    2618:	00054603          	lbu	a2,0(a0)
    261c:	00254703          	lbu	a4,2(a0)
    2620:	00354783          	lbu	a5,3(a0)
    2624:	00869693          	slli	a3,a3,0x8
    2628:	00c6e6b3          	or	a3,a3,a2
    262c:	01071713          	slli	a4,a4,0x10
    2630:	00d76733          	or	a4,a4,a3
    2634:	01879793          	slli	a5,a5,0x18
    2638:	00e7e7b3          	or	a5,a5,a4
    263c:	464c4737          	lui	a4,0x464c4
    2640:	57f70713          	addi	a4,a4,1407 # 464c457f <_end+0x464be537>
    2644:	00e78463          	beq	a5,a4,264c <_Z14parseelfheaderP16SElfFileHeader32+0x38>
    2648:	00008067          	ret
    264c:	f6010113          	addi	sp,sp,-160
    2650:	08112e23          	sw	ra,156(sp)
    2654:	08812c23          	sw	s0,152(sp)
    2658:	09212823          	sw	s2,144(sp)
    265c:	09412423          	sw	s4,136(sp)
    2660:	08912a23          	sw	s1,148(sp)
    2664:	09312623          	sw	s3,140(sp)
    2668:	09512223          	sw	s5,132(sp)
    266c:	01954683          	lbu	a3,25(a0)
    2670:	01854603          	lbu	a2,24(a0)
    2674:	01a54703          	lbu	a4,26(a0)
    2678:	01b54783          	lbu	a5,27(a0)
    267c:	00869693          	slli	a3,a3,0x8
    2680:	00c6e6b3          	or	a3,a3,a2
    2684:	01071713          	slli	a4,a4,0x10
    2688:	00d76733          	or	a4,a4,a3
    268c:	01879793          	slli	a5,a5,0x18
    2690:	00e7e7b3          	or	a5,a5,a4
    2694:	00003717          	auipc	a4,0x3
    2698:	e8072703          	lw	a4,-384(a4) # 5514 <_GLOBAL_OFFSET_TABLE_+0x38>
    269c:	00f72023          	sw	a5,0(a4)
    26a0:	00050413          	mv	s0,a0
    26a4:	01d54503          	lbu	a0,29(a0)
    26a8:	01c44683          	lbu	a3,28(s0)
    26ac:	01e44783          	lbu	a5,30(s0)
    26b0:	01f44703          	lbu	a4,31(s0)
    26b4:	00851513          	slli	a0,a0,0x8
    26b8:	00d56533          	or	a0,a0,a3
    26bc:	01079793          	slli	a5,a5,0x10
    26c0:	00a7e7b3          	or	a5,a5,a0
    26c4:	01871513          	slli	a0,a4,0x18
    26c8:	00f56533          	or	a0,a0,a5
    26cc:	610010ef          	jal	ra,3cdc <_Z8pf_lseekm>
    26d0:	00e10913          	addi	s2,sp,14
    26d4:	02000593          	li	a1,32
    26d8:	00090613          	mv	a2,s2
    26dc:	01010513          	addi	a0,sp,16
    26e0:	430010ef          	jal	ra,3b10 <_Z7pf_readPvtPt>
    26e4:	03344783          	lbu	a5,51(s0)
    26e8:	02f44503          	lbu	a0,47(s0)
    26ec:	03244683          	lbu	a3,50(s0)
    26f0:	02e44703          	lbu	a4,46(s0)
    26f4:	00879793          	slli	a5,a5,0x8
    26f8:	00851513          	slli	a0,a0,0x8
    26fc:	00e56533          	or	a0,a0,a4
    2700:	00d7e7b3          	or	a5,a5,a3
    2704:	02a787b3          	mul	a5,a5,a0
    2708:	02144683          	lbu	a3,33(s0)
    270c:	02044603          	lbu	a2,32(s0)
    2710:	02244703          	lbu	a4,34(s0)
    2714:	02344503          	lbu	a0,35(s0)
    2718:	00869693          	slli	a3,a3,0x8
    271c:	00c6e6b3          	or	a3,a3,a2
    2720:	01071713          	slli	a4,a4,0x10
    2724:	00d76733          	or	a4,a4,a3
    2728:	01851513          	slli	a0,a0,0x18
    272c:	00e56533          	or	a0,a0,a4
    2730:	00a78533          	add	a0,a5,a0
    2734:	5a8010ef          	jal	ra,3cdc <_Z8pf_lseekm>
    2738:	00090613          	mv	a2,s2
    273c:	02800593          	li	a1,40
    2740:	03010513          	addi	a0,sp,48
    2744:	3cc010ef          	jal	ra,3b10 <_Z7pf_readPvtPt>
    2748:	04412503          	lw	a0,68(sp)
    274c:	b3dfd0ef          	jal	ra,288 <malloc>
    2750:	00050a13          	mv	s4,a0
    2754:	04012503          	lw	a0,64(sp)
    2758:	584010ef          	jal	ra,3cdc <_Z8pf_lseekm>
    275c:	04415583          	lhu	a1,68(sp)
    2760:	00090613          	mv	a2,s2
    2764:	000a0513          	mv	a0,s4
    2768:	3a8010ef          	jal	ra,3b10 <_Z7pf_readPvtPt>
    276c:	03144783          	lbu	a5,49(s0)
    2770:	03044703          	lbu	a4,48(s0)
    2774:	00879793          	slli	a5,a5,0x8
    2778:	00e7e7b3          	or	a5,a5,a4
    277c:	0c078a63          	beqz	a5,2850 <_Z14parseelfheaderP16SElfFileHeader32+0x23c>
    2780:	00000493          	li	s1,0
    2784:	05810993          	addi	s3,sp,88
    2788:	0240006f          	j	27ac <_Z14parseelfheaderP16SElfFileHeader32+0x198>
    278c:	03144783          	lbu	a5,49(s0)
    2790:	03044703          	lbu	a4,48(s0)
    2794:	00148493          	addi	s1,s1,1
    2798:	00879793          	slli	a5,a5,0x8
    279c:	01049493          	slli	s1,s1,0x10
    27a0:	0104d493          	srli	s1,s1,0x10
    27a4:	00e7e7b3          	or	a5,a5,a4
    27a8:	0af4f463          	bgeu	s1,a5,2850 <_Z14parseelfheaderP16SElfFileHeader32+0x23c>
    27ac:	02f44783          	lbu	a5,47(s0)
    27b0:	02e44503          	lbu	a0,46(s0)
    27b4:	02144683          	lbu	a3,33(s0)
    27b8:	00879793          	slli	a5,a5,0x8
    27bc:	00a7e7b3          	or	a5,a5,a0
    27c0:	029787b3          	mul	a5,a5,s1
    27c4:	02044603          	lbu	a2,32(s0)
    27c8:	02244703          	lbu	a4,34(s0)
    27cc:	02344503          	lbu	a0,35(s0)
    27d0:	00869693          	slli	a3,a3,0x8
    27d4:	00c6e6b3          	or	a3,a3,a2
    27d8:	01071713          	slli	a4,a4,0x10
    27dc:	00d76733          	or	a4,a4,a3
    27e0:	01851513          	slli	a0,a0,0x18
    27e4:	00e56533          	or	a0,a0,a4
    27e8:	00a78533          	add	a0,a5,a0
    27ec:	4f0010ef          	jal	ra,3cdc <_Z8pf_lseekm>
    27f0:	00090613          	mv	a2,s2
    27f4:	02800593          	li	a1,40
    27f8:	00098513          	mv	a0,s3
    27fc:	314010ef          	jal	ra,3b10 <_Z7pf_readPvtPt>
    2800:	06012783          	lw	a5,96(sp)
    2804:	0077f793          	andi	a5,a5,7
    2808:	f80782e3          	beqz	a5,278c <_Z14parseelfheaderP16SElfFileHeader32+0x178>
    280c:	06c12783          	lw	a5,108(sp)
    2810:	f6078ee3          	beqz	a5,278c <_Z14parseelfheaderP16SElfFileHeader32+0x178>
    2814:	06812503          	lw	a0,104(sp)
    2818:	06412a83          	lw	s5,100(sp)
    281c:	00148493          	addi	s1,s1,1
    2820:	4bc010ef          	jal	ra,3cdc <_Z8pf_lseekm>
    2824:	06c15583          	lhu	a1,108(sp)
    2828:	00090613          	mv	a2,s2
    282c:	000a8513          	mv	a0,s5
    2830:	2e0010ef          	jal	ra,3b10 <_Z7pf_readPvtPt>
    2834:	03144783          	lbu	a5,49(s0)
    2838:	03044703          	lbu	a4,48(s0)
    283c:	01049493          	slli	s1,s1,0x10
    2840:	00879793          	slli	a5,a5,0x8
    2844:	0104d493          	srli	s1,s1,0x10
    2848:	00e7e7b3          	or	a5,a5,a4
    284c:	f6f4e0e3          	bltu	s1,a5,27ac <_Z14parseelfheaderP16SElfFileHeader32+0x198>
    2850:	09812403          	lw	s0,152(sp)
    2854:	09c12083          	lw	ra,156(sp)
    2858:	09412483          	lw	s1,148(sp)
    285c:	09012903          	lw	s2,144(sp)
    2860:	08c12983          	lw	s3,140(sp)
    2864:	08412a83          	lw	s5,132(sp)
    2868:	000a0513          	mv	a0,s4
    286c:	08812a03          	lw	s4,136(sp)
    2870:	0a010113          	addi	sp,sp,160
    2874:	a25fd06f          	j	298 <free>

00002878 <_Z7loadelfPKc>:
    2878:	fb010113          	addi	sp,sp,-80
    287c:	04112623          	sw	ra,76(sp)
    2880:	04812423          	sw	s0,72(sp)
    2884:	1e4010ef          	jal	ra,3a68 <_Z7pf_openPKc>
    2888:	02051a63          	bnez	a0,28bc <_Z7loadelfPKc+0x44>
    288c:	00c10413          	addi	s0,sp,12
    2890:	00a10613          	addi	a2,sp,10
    2894:	03400593          	li	a1,52
    2898:	00040513          	mv	a0,s0
    289c:	274010ef          	jal	ra,3b10 <_Z7pf_readPvtPt>
    28a0:	00040513          	mv	a0,s0
    28a4:	d71ff0ef          	jal	ra,2614 <_Z14parseelfheaderP16SElfFileHeader32>
    28a8:	00000513          	li	a0,0
    28ac:	04c12083          	lw	ra,76(sp)
    28b0:	04812403          	lw	s0,72(sp)
    28b4:	05010113          	addi	sp,sp,80
    28b8:	00008067          	ret
    28bc:	fff00513          	li	a0,-1
    28c0:	fedff06f          	j	28ac <_Z7loadelfPKc+0x34>

000028c4 <_Z14loadbinaryblobv>:
    28c4:	00003597          	auipc	a1,0x3
    28c8:	c205a583          	lw	a1,-992(a1) # 54e4 <_GLOBAL_OFFSET_TABLE_+0x8>
    28cc:	00003517          	auipc	a0,0x3
    28d0:	c2452503          	lw	a0,-988(a0) # 54f0 <_GLOBAL_OFFSET_TABLE_+0x14>
    28d4:	fe010113          	addi	sp,sp,-32
    28d8:	0005a783          	lw	a5,0(a1)
    28dc:	00052803          	lw	a6,0(a0)
    28e0:	01c10613          	addi	a2,sp,28
    28e4:	02010713          	addi	a4,sp,32
    28e8:	00012c23          	sw	zero,24(sp)
    28ec:	00012e23          	sw	zero,28(sp)
    28f0:	00060693          	mv	a3,a2
    28f4:	00e12623          	sw	a4,12(sp)
    28f8:	0007a703          	lw	a4,0(a5)
    28fc:	fe070ee3          	beqz	a4,28f8 <_Z14loadbinaryblobv+0x34>
    2900:	00084703          	lbu	a4,0(a6)
    2904:	00168693          	addi	a3,a3,1
    2908:	fee68fa3          	sb	a4,-1(a3)
    290c:	00c12703          	lw	a4,12(sp)
    2910:	fee694e3          	bne	a3,a4,28f8 <_Z14loadbinaryblobv+0x34>
    2914:	01810693          	addi	a3,sp,24
    2918:	0007a703          	lw	a4,0(a5)
    291c:	fe070ee3          	beqz	a4,2918 <_Z14loadbinaryblobv+0x54>
    2920:	00084703          	lbu	a4,0(a6)
    2924:	00168693          	addi	a3,a3,1
    2928:	fee68fa3          	sb	a4,-1(a3)
    292c:	fec696e3          	bne	a3,a2,2918 <_Z14loadbinaryblobv+0x54>
    2930:	01812703          	lw	a4,24(sp)
    2934:	01c12683          	lw	a3,28(sp)
    2938:	02070663          	beqz	a4,2964 <_Z14loadbinaryblobv+0xa0>
    293c:	00e68633          	add	a2,a3,a4
    2940:	0007a703          	lw	a4,0(a5)
    2944:	fe070ee3          	beqz	a4,2940 <_Z14loadbinaryblobv+0x7c>
    2948:	00052783          	lw	a5,0(a0)
    294c:	00168693          	addi	a3,a3,1
    2950:	0007c783          	lbu	a5,0(a5)
    2954:	0ff7f793          	andi	a5,a5,255
    2958:	fef68fa3          	sb	a5,-1(a3)
    295c:	0005a783          	lw	a5,0(a1)
    2960:	fed610e3          	bne	a2,a3,2940 <_Z14loadbinaryblobv+0x7c>
    2964:	02010113          	addi	sp,sp,32
    2968:	00008067          	ret

0000296c <_Z13runbinaryblobv>:
    296c:	00003797          	auipc	a5,0x3
    2970:	b787a783          	lw	a5,-1160(a5) # 54e4 <_GLOBAL_OFFSET_TABLE_+0x8>
    2974:	0007a703          	lw	a4,0(a5)
    2978:	00003797          	auipc	a5,0x3
    297c:	b787a783          	lw	a5,-1160(a5) # 54f0 <_GLOBAL_OFFSET_TABLE_+0x14>
    2980:	0007a583          	lw	a1,0(a5)
    2984:	ff010113          	addi	sp,sp,-16
    2988:	00003697          	auipc	a3,0x3
    298c:	b8c6a683          	lw	a3,-1140(a3) # 5514 <_GLOBAL_OFFSET_TABLE_+0x38>
    2990:	00112623          	sw	ra,12(sp)
    2994:	00468613          	addi	a2,a3,4
    2998:	00072783          	lw	a5,0(a4)
    299c:	fe078ee3          	beqz	a5,2998 <_Z13runbinaryblobv+0x2c>
    29a0:	0005c783          	lbu	a5,0(a1)
    29a4:	00168693          	addi	a3,a3,1
    29a8:	fef68fa3          	sb	a5,-1(a3)
    29ac:	fed616e3          	bne	a2,a3,2998 <_Z13runbinaryblobv+0x2c>
    29b0:	00002517          	auipc	a0,0x2
    29b4:	95850513          	addi	a0,a0,-1704 # 4308 <PIo2+0x2c>
    29b8:	224000ef          	jal	ra,2bdc <_Z8EchoUARTPKc>
    29bc:	00c12083          	lw	ra,12(sp)
    29c0:	01010113          	addi	sp,sp,16
    29c4:	bb1ff06f          	j	2574 <_Z6RunELFv>

000029c8 <main>:
    29c8:	fe010113          	addi	sp,sp,-32
    29cc:	00002517          	auipc	a0,0x2
    29d0:	94c50513          	addi	a0,a0,-1716 # 4318 <PIo2+0x3c>
    29d4:	00112e23          	sw	ra,28(sp)
    29d8:	00812c23          	sw	s0,24(sp)
    29dc:	00912a23          	sw	s1,20(sp)
    29e0:	01212823          	sw	s2,16(sp)
    29e4:	01312623          	sw	s3,12(sp)
    29e8:	01412423          	sw	s4,8(sp)
    29ec:	01512223          	sw	s5,4(sp)
    29f0:	1ec000ef          	jal	ra,2bdc <_Z8EchoUARTPKc>
    29f4:	00002517          	auipc	a0,0x2
    29f8:	95850513          	addi	a0,a0,-1704 # 434c <PIo2+0x70>
    29fc:	1e0000ef          	jal	ra,2bdc <_Z8EchoUARTPKc>
    2a00:	00002517          	auipc	a0,0x2
    2a04:	98050513          	addi	a0,a0,-1664 # 4380 <PIo2+0xa4>
    2a08:	1d4000ef          	jal	ra,2bdc <_Z8EchoUARTPKc>
    2a0c:	00002517          	auipc	a0,0x2
    2a10:	9a850513          	addi	a0,a0,-1624 # 43b4 <PIo2+0xd8>
    2a14:	1c8000ef          	jal	ra,2bdc <_Z8EchoUARTPKc>
    2a18:	00002517          	auipc	a0,0x2
    2a1c:	9d050513          	addi	a0,a0,-1584 # 43e8 <PIo2+0x10c>
    2a20:	1bc000ef          	jal	ra,2bdc <_Z8EchoUARTPKc>
    2a24:	00002517          	auipc	a0,0x2
    2a28:	9c450513          	addi	a0,a0,-1596 # 43e8 <PIo2+0x10c>
    2a2c:	1b0000ef          	jal	ra,2bdc <_Z8EchoUARTPKc>
    2a30:	00002517          	auipc	a0,0x2
    2a34:	9b850513          	addi	a0,a0,-1608 # 43e8 <PIo2+0x10c>
    2a38:	1a4000ef          	jal	ra,2bdc <_Z8EchoUARTPKc>
    2a3c:	00002517          	auipc	a0,0x2
    2a40:	9e050513          	addi	a0,a0,-1568 # 441c <PIo2+0x140>
    2a44:	198000ef          	jal	ra,2bdc <_Z8EchoUARTPKc>
    2a48:	00002517          	auipc	a0,0x2
    2a4c:	a0850513          	addi	a0,a0,-1528 # 4450 <PIo2+0x174>
    2a50:	18c000ef          	jal	ra,2bdc <_Z8EchoUARTPKc>
    2a54:	00002517          	auipc	a0,0x2
    2a58:	a3050513          	addi	a0,a0,-1488 # 4484 <PIo2+0x1a8>
    2a5c:	180000ef          	jal	ra,2bdc <_Z8EchoUARTPKc>
    2a60:	00002517          	auipc	a0,0x2
    2a64:	a5850513          	addi	a0,a0,-1448 # 44b8 <PIo2+0x1dc>
    2a68:	174000ef          	jal	ra,2bdc <_Z8EchoUARTPKc>
    2a6c:	00002517          	auipc	a0,0x2
    2a70:	a8050513          	addi	a0,a0,-1408 # 44ec <PIo2+0x210>
    2a74:	168000ef          	jal	ra,2bdc <_Z8EchoUARTPKc>
    2a78:	00002517          	auipc	a0,0x2
    2a7c:	aa850513          	addi	a0,a0,-1368 # 4520 <PIo2+0x244>
    2a80:	15c000ef          	jal	ra,2bdc <_Z8EchoUARTPKc>
    2a84:	00002517          	auipc	a0,0x2
    2a88:	ad050513          	addi	a0,a0,-1328 # 4554 <PIo2+0x278>
    2a8c:	150000ef          	jal	ra,2bdc <_Z8EchoUARTPKc>
    2a90:	00002517          	auipc	a0,0x2
    2a94:	af850513          	addi	a0,a0,-1288 # 4588 <PIo2+0x2ac>
    2a98:	144000ef          	jal	ra,2bdc <_Z8EchoUARTPKc>
    2a9c:	00002517          	auipc	a0,0x2
    2aa0:	b2050513          	addi	a0,a0,-1248 # 45bc <PIo2+0x2e0>
    2aa4:	138000ef          	jal	ra,2bdc <_Z8EchoUARTPKc>
    2aa8:	00002517          	auipc	a0,0x2
    2aac:	b4850513          	addi	a0,a0,-1208 # 45f0 <PIo2+0x314>
    2ab0:	12c000ef          	jal	ra,2bdc <_Z8EchoUARTPKc>
    2ab4:	00002517          	auipc	a0,0x2
    2ab8:	b7050513          	addi	a0,a0,-1168 # 4624 <PIo2+0x348>
    2abc:	120000ef          	jal	ra,2bdc <_Z8EchoUARTPKc>
    2ac0:	00002517          	auipc	a0,0x2
    2ac4:	b9850513          	addi	a0,a0,-1128 # 4658 <PIo2+0x37c>
    2ac8:	114000ef          	jal	ra,2bdc <_Z8EchoUARTPKc>
    2acc:	00002517          	auipc	a0,0x2
    2ad0:	bc050513          	addi	a0,a0,-1088 # 468c <PIo2+0x3b0>
    2ad4:	108000ef          	jal	ra,2bdc <_Z8EchoUARTPKc>
    2ad8:	00002517          	auipc	a0,0x2
    2adc:	be850513          	addi	a0,a0,-1048 # 46c0 <PIo2+0x3e4>
    2ae0:	0fc000ef          	jal	ra,2bdc <_Z8EchoUARTPKc>
    2ae4:	00002517          	auipc	a0,0x2
    2ae8:	c1050513          	addi	a0,a0,-1008 # 46f4 <PIo2+0x418>
    2aec:	0f0000ef          	jal	ra,2bdc <_Z8EchoUARTPKc>
    2af0:	00002517          	auipc	a0,0x2
    2af4:	c2850513          	addi	a0,a0,-984 # 4718 <PIo2+0x43c>
    2af8:	0e4000ef          	jal	ra,2bdc <_Z8EchoUARTPKc>
    2afc:	00003517          	auipc	a0,0x3
    2b00:	a2452503          	lw	a0,-1500(a0) # 5520 <_GLOBAL_OFFSET_TABLE_+0x44>
    2b04:	461000ef          	jal	ra,3764 <_Z8pf_mountP5FATFS>
    2b08:	00153793          	seqz	a5,a0
    2b0c:	00003717          	auipc	a4,0x3
    2b10:	a1872703          	lw	a4,-1512(a4) # 5524 <_GLOBAL_OFFSET_TABLE_+0x48>
    2b14:	00002517          	auipc	a0,0x2
    2b18:	c1c50513          	addi	a0,a0,-996 # 4730 <PIo2+0x454>
    2b1c:	00f72023          	sw	a5,0(a4)
    2b20:	d59ff0ef          	jal	ra,2878 <_Z7loadelfPKc>
    2b24:	fff00793          	li	a5,-1
    2b28:	00f50463          	beq	a0,a5,2b30 <main+0x168>
    2b2c:	a49ff0ef          	jal	ra,2574 <_Z6RunELFv>
    2b30:	00003797          	auipc	a5,0x3
    2b34:	9cc7a783          	lw	a5,-1588(a5) # 54fc <_GLOBAL_OFFSET_TABLE_+0x20>
    2b38:	0007a783          	lw	a5,0(a5)
    2b3c:	00003717          	auipc	a4,0x3
    2b40:	9ac72703          	lw	a4,-1620(a4) # 54e8 <_GLOBAL_OFFSET_TABLE_+0xc>
    2b44:	00072703          	lw	a4,0(a4)
    2b48:	00a79693          	slli	a3,a5,0xa
    2b4c:	0167d793          	srli	a5,a5,0x16
    2b50:	1016e693          	ori	a3,a3,257
    2b54:	00a79793          	slli	a5,a5,0xa
    2b58:	00d72023          	sw	a3,0(a4)
    2b5c:	1217e793          	ori	a5,a5,289
    2b60:	00f72223          	sw	a5,4(a4)
    2b64:	02700793          	li	a5,39
    2b68:	00f72023          	sw	a5,0(a4)
    2b6c:	0ff00413          	li	s0,255
    2b70:	00003497          	auipc	s1,0x3
    2b74:	9744a483          	lw	s1,-1676(s1) # 54e4 <_GLOBAL_OFFSET_TABLE_+0x8>
    2b78:	00003997          	auipc	s3,0x3
    2b7c:	9789a983          	lw	s3,-1672(s3) # 54f0 <_GLOBAL_OFFSET_TABLE_+0x14>
    2b80:	00d00913          	li	s2,13
    2b84:	04200a13          	li	s4,66
    2b88:	05200a93          	li	s5,82
    2b8c:	00c0006f          	j	2b98 <main+0x1d0>
    2b90:	00078413          	mv	s0,a5
    2b94:	8b5ff0ef          	jal	ra,2448 <_Z14SubmitGPUFramev>
    2b98:	0004a783          	lw	a5,0(s1)
    2b9c:	0007a783          	lw	a5,0(a5)
    2ba0:	fe078ae3          	beqz	a5,2b94 <main+0x1cc>
    2ba4:	0009a783          	lw	a5,0(s3)
    2ba8:	0007c783          	lbu	a5,0(a5)
    2bac:	0ff7f793          	andi	a5,a5,255
    2bb0:	ff2790e3          	bne	a5,s2,2b90 <main+0x1c8>
    2bb4:	01440e63          	beq	s0,s4,2bd0 <main+0x208>
    2bb8:	01540663          	beq	s0,s5,2bc4 <main+0x1fc>
    2bbc:	00d00413          	li	s0,13
    2bc0:	fd5ff06f          	j	2b94 <main+0x1cc>
    2bc4:	da9ff0ef          	jal	ra,296c <_Z13runbinaryblobv>
    2bc8:	00d00413          	li	s0,13
    2bcc:	fc9ff06f          	j	2b94 <main+0x1cc>
    2bd0:	cf5ff0ef          	jal	ra,28c4 <_Z14loadbinaryblobv>
    2bd4:	00d00413          	li	s0,13
    2bd8:	fbdff06f          	j	2b94 <main+0x1cc>

00002bdc <_Z8EchoUARTPKc>:
    2bdc:	00054683          	lbu	a3,0(a0)
    2be0:	02068663          	beqz	a3,2c0c <_Z8EchoUARTPKc+0x30>
    2be4:	00000793          	li	a5,0
    2be8:	00003617          	auipc	a2,0x3
    2bec:	93462603          	lw	a2,-1740(a2) # 551c <_GLOBAL_OFFSET_TABLE_+0x40>
    2bf0:	00062703          	lw	a4,0(a2)
    2bf4:	00f70733          	add	a4,a4,a5
    2bf8:	00178793          	addi	a5,a5,1
    2bfc:	00d70023          	sb	a3,0(a4)
    2c00:	00f50733          	add	a4,a0,a5
    2c04:	00074683          	lbu	a3,0(a4)
    2c08:	fe0694e3          	bnez	a3,2bf0 <_Z8EchoUARTPKc+0x14>
    2c0c:	00008067          	ret

00002c10 <_Z7EchoIntm>:
    2c10:	00002617          	auipc	a2,0x2
    2c14:	b4060613          	addi	a2,a2,-1216 # 4750 <PIo2+0x474>
    2c18:	00c62803          	lw	a6,12(a2)
    2c1c:	00062e03          	lw	t3,0(a2)
    2c20:	00462303          	lw	t1,4(a2)
    2c24:	00862883          	lw	a7,8(a2)
    2c28:	fd010113          	addi	sp,sp,-48
    2c2c:	00c55793          	srli	a5,a0,0xc
    2c30:	00855693          	srli	a3,a0,0x8
    2c34:	01855713          	srli	a4,a0,0x18
    2c38:	01012c23          	sw	a6,24(sp)
    2c3c:	01c55593          	srli	a1,a0,0x1c
    2c40:	02010813          	addi	a6,sp,32
    2c44:	00f7f793          	andi	a5,a5,15
    2c48:	00f6f693          	andi	a3,a3,15
    2c4c:	00f77713          	andi	a4,a4,15
    2c50:	02112623          	sw	ra,44(sp)
    2c54:	01112a23          	sw	a7,20(sp)
    2c58:	01c12623          	sw	t3,12(sp)
    2c5c:	00612823          	sw	t1,16(sp)
    2c60:	00d806b3          	add	a3,a6,a3
    2c64:	00b805b3          	add	a1,a6,a1
    2c68:	00e80733          	add	a4,a6,a4
    2c6c:	00f807b3          	add	a5,a6,a5
    2c70:	00455893          	srli	a7,a0,0x4
    2c74:	01455813          	srli	a6,a0,0x14
    2c78:	fec6ce83          	lbu	t4,-20(a3)
    2c7c:	fec74e03          	lbu	t3,-20(a4)
    2c80:	fec5c683          	lbu	a3,-20(a1)
    2c84:	02010713          	addi	a4,sp,32
    2c88:	fec7c783          	lbu	a5,-20(a5)
    2c8c:	00f8f893          	andi	a7,a7,15
    2c90:	00f87813          	andi	a6,a6,15
    2c94:	011708b3          	add	a7,a4,a7
    2c98:	01070833          	add	a6,a4,a6
    2c9c:	01055593          	srli	a1,a0,0x10
    2ca0:	ffff0737          	lui	a4,0xffff0
    2ca4:	fec8c303          	lbu	t1,-20(a7)
    2ca8:	0ff70713          	addi	a4,a4,255 # ffff00ff <_end+0xfffea0b7>
    2cac:	fec84883          	lbu	a7,-20(a6)
    2cb0:	00f5f593          	andi	a1,a1,15
    2cb4:	02010813          	addi	a6,sp,32
    2cb8:	00f57513          	andi	a0,a0,15
    2cbc:	008e9e93          	slli	t4,t4,0x8
    2cc0:	00e7f7b3          	and	a5,a5,a4
    2cc4:	00a80533          	add	a0,a6,a0
    2cc8:	008e1e13          	slli	t3,t3,0x8
    2ccc:	00e6f733          	and	a4,a3,a4
    2cd0:	00b806b3          	add	a3,a6,a1
    2cd4:	ff0105b7          	lui	a1,0xff010
    2cd8:	fec54803          	lbu	a6,-20(a0)
    2cdc:	fff58593          	addi	a1,a1,-1 # ff00ffff <_end+0xff009fb7>
    2ce0:	fec6c503          	lbu	a0,-20(a3)
    2ce4:	01d7e7b3          	or	a5,a5,t4
    2ce8:	01c76733          	or	a4,a4,t3
    2cec:	01031313          	slli	t1,t1,0x10
    2cf0:	00b7f7b3          	and	a5,a5,a1
    2cf4:	01089893          	slli	a7,a7,0x10
    2cf8:	00b77733          	and	a4,a4,a1
    2cfc:	010006b7          	lui	a3,0x1000
    2d00:	01064e03          	lbu	t3,16(a2)
    2d04:	fff68693          	addi	a3,a3,-1 # ffffff <_end+0xff9fb7>
    2d08:	0067e7b3          	or	a5,a5,t1
    2d0c:	01176733          	or	a4,a4,a7
    2d10:	01851613          	slli	a2,a0,0x18
    2d14:	01881593          	slli	a1,a6,0x18
    2d18:	00d7f7b3          	and	a5,a5,a3
    2d1c:	00d77733          	and	a4,a4,a3
    2d20:	00b7e7b3          	or	a5,a5,a1
    2d24:	00c76733          	or	a4,a4,a2
    2d28:	00010513          	mv	a0,sp
    2d2c:	01c10e23          	sb	t3,28(sp)
    2d30:	00010423          	sb	zero,8(sp)
    2d34:	00e12023          	sw	a4,0(sp)
    2d38:	00f12223          	sw	a5,4(sp)
    2d3c:	ea1ff0ef          	jal	ra,2bdc <_Z8EchoUARTPKc>
    2d40:	02c12083          	lw	ra,44(sp)
    2d44:	03010113          	addi	sp,sp,48
    2d48:	00008067          	ret

00002d4c <_Z6SDIdlev>:
    2d4c:	00002717          	auipc	a4,0x2
    2d50:	7a872703          	lw	a4,1960(a4) # 54f4 <_GLOBAL_OFFSET_TABLE_+0x18>
    2d54:	00072783          	lw	a5,0(a4)
    2d58:	fff00693          	li	a3,-1
    2d5c:	f9500513          	li	a0,-107
    2d60:	02d780a3          	sb	a3,33(a5)
    2d64:	04000693          	li	a3,64
    2d68:	00d78023          	sb	a3,0(a5)
    2d6c:	00072783          	lw	a5,0(a4)
    2d70:	fff00593          	li	a1,-1
    2d74:	0ff00613          	li	a2,255
    2d78:	000780a3          	sb	zero,1(a5)
    2d7c:	00072683          	lw	a3,0(a4)
    2d80:	000107b7          	lui	a5,0x10
    2d84:	00068123          	sb	zero,2(a3)
    2d88:	00072683          	lw	a3,0(a4)
    2d8c:	000681a3          	sb	zero,3(a3)
    2d90:	00072703          	lw	a4,0(a4)
    2d94:	00002697          	auipc	a3,0x2
    2d98:	7586a683          	lw	a3,1880(a3) # 54ec <_GLOBAL_OFFSET_TABLE_+0x10>
    2d9c:	0006a683          	lw	a3,0(a3)
    2da0:	00070223          	sb	zero,4(a4)
    2da4:	00a702a3          	sb	a0,5(a4)
    2da8:	0080006f          	j	2db0 <_Z6SDIdlev+0x64>
    2dac:	00078c63          	beqz	a5,2dc4 <_Z6SDIdlev+0x78>
    2db0:	02b70223          	sb	a1,36(a4)
    2db4:	0006c503          	lbu	a0,0(a3)
    2db8:	fff78793          	addi	a5,a5,-1 # ffff <_end+0x9fb7>
    2dbc:	0ff57513          	andi	a0,a0,255
    2dc0:	fec506e3          	beq	a0,a2,2dac <_Z6SDIdlev+0x60>
    2dc4:	00008067          	ret

00002dc8 <_Z19SDCheckVoltageRangeRm>:
    2dc8:	00002797          	auipc	a5,0x2
    2dcc:	72c7a783          	lw	a5,1836(a5) # 54f4 <_GLOBAL_OFFSET_TABLE_+0x18>
    2dd0:	0007a703          	lw	a4,0(a5)
    2dd4:	fff00693          	li	a3,-1
    2dd8:	faa00613          	li	a2,-86
    2ddc:	02d701a3          	sb	a3,35(a4)
    2de0:	04800693          	li	a3,72
    2de4:	00d70023          	sb	a3,0(a4)
    2de8:	0007a703          	lw	a4,0(a5)
    2dec:	00100693          	li	a3,1
    2df0:	00050813          	mv	a6,a0
    2df4:	000700a3          	sb	zero,1(a4)
    2df8:	0007a703          	lw	a4,0(a5)
    2dfc:	fff00593          	li	a1,-1
    2e00:	00070123          	sb	zero,2(a4)
    2e04:	0007a703          	lw	a4,0(a5)
    2e08:	00d701a3          	sb	a3,3(a4)
    2e0c:	0007a703          	lw	a4,0(a5)
    2e10:	00002797          	auipc	a5,0x2
    2e14:	6dc7a783          	lw	a5,1756(a5) # 54ec <_GLOBAL_OFFSET_TABLE_+0x10>
    2e18:	0007a683          	lw	a3,0(a5)
    2e1c:	00c70223          	sb	a2,4(a4)
    2e20:	f8700613          	li	a2,-121
    2e24:	00c702a3          	sb	a2,5(a4)
    2e28:	000107b7          	lui	a5,0x10
    2e2c:	0ff00613          	li	a2,255
    2e30:	0080006f          	j	2e38 <_Z19SDCheckVoltageRangeRm+0x70>
    2e34:	00078c63          	beqz	a5,2e4c <_Z19SDCheckVoltageRangeRm+0x84>
    2e38:	02b70223          	sb	a1,36(a4)
    2e3c:	0006c503          	lbu	a0,0(a3)
    2e40:	fff78793          	addi	a5,a5,-1 # ffff <_end+0x9fb7>
    2e44:	0ff57513          	andi	a0,a0,255
    2e48:	fec506e3          	beq	a0,a2,2e34 <_Z19SDCheckVoltageRangeRm+0x6c>
    2e4c:	00082023          	sw	zero,0(a6)
    2e50:	fff00613          	li	a2,-1
    2e54:	02c70223          	sb	a2,36(a4)
    2e58:	0006c583          	lbu	a1,0(a3)
    2e5c:	00082783          	lw	a5,0(a6)
    2e60:	0ff5f593          	andi	a1,a1,255
    2e64:	00b7e7b3          	or	a5,a5,a1
    2e68:	00f82023          	sw	a5,0(a6)
    2e6c:	02c70223          	sb	a2,36(a4)
    2e70:	0016c783          	lbu	a5,1(a3)
    2e74:	00082883          	lw	a7,0(a6)
    2e78:	0ff7f793          	andi	a5,a5,255
    2e7c:	00889593          	slli	a1,a7,0x8
    2e80:	0117e7b3          	or	a5,a5,a7
    2e84:	00f5e7b3          	or	a5,a1,a5
    2e88:	00f82023          	sw	a5,0(a6)
    2e8c:	02c70223          	sb	a2,36(a4)
    2e90:	0026c783          	lbu	a5,2(a3)
    2e94:	00082883          	lw	a7,0(a6)
    2e98:	0ff7f793          	andi	a5,a5,255
    2e9c:	00889593          	slli	a1,a7,0x8
    2ea0:	0117e7b3          	or	a5,a5,a7
    2ea4:	00f5e7b3          	or	a5,a1,a5
    2ea8:	00f82023          	sw	a5,0(a6)
    2eac:	02c70223          	sb	a2,36(a4)
    2eb0:	0036c783          	lbu	a5,3(a3)
    2eb4:	00082703          	lw	a4,0(a6)
    2eb8:	0ff7f793          	andi	a5,a5,255
    2ebc:	00e7e7b3          	or	a5,a5,a4
    2ec0:	00871713          	slli	a4,a4,0x8
    2ec4:	00e7e7b3          	or	a5,a5,a4
    2ec8:	00f82023          	sw	a5,0(a6)
    2ecc:	00008067          	ret

00002ed0 <_Z10SDCardInitv>:
    2ed0:	00002817          	auipc	a6,0x2
    2ed4:	62482803          	lw	a6,1572(a6) # 54f4 <_GLOBAL_OFFSET_TABLE_+0x18>
    2ed8:	00082703          	lw	a4,0(a6)
    2edc:	fff00793          	li	a5,-1
    2ee0:	07700693          	li	a3,119
    2ee4:	02f702a3          	sb	a5,37(a4)
    2ee8:	00d70023          	sb	a3,0(a4)
    2eec:	00082683          	lw	a3,0(a6)
    2ef0:	00002897          	auipc	a7,0x2
    2ef4:	5fc8a883          	lw	a7,1532(a7) # 54ec <_GLOBAL_OFFSET_TABLE_+0x10>
    2ef8:	00010737          	lui	a4,0x10
    2efc:	000680a3          	sb	zero,1(a3)
    2f00:	00082683          	lw	a3,0(a6)
    2f04:	fff00513          	li	a0,-1
    2f08:	0ff00593          	li	a1,255
    2f0c:	00068123          	sb	zero,2(a3)
    2f10:	00082683          	lw	a3,0(a6)
    2f14:	000681a3          	sb	zero,3(a3)
    2f18:	00082683          	lw	a3,0(a6)
    2f1c:	0008a603          	lw	a2,0(a7)
    2f20:	00068223          	sb	zero,4(a3)
    2f24:	00f682a3          	sb	a5,5(a3)
    2f28:	0080006f          	j	2f30 <_Z10SDCardInitv+0x60>
    2f2c:	00070c63          	beqz	a4,2f44 <_Z10SDCardInitv+0x74>
    2f30:	02a68323          	sb	a0,38(a3)
    2f34:	00064783          	lbu	a5,0(a2)
    2f38:	fff70713          	addi	a4,a4,-1 # ffff <_end+0x9fb7>
    2f3c:	0ff7f793          	andi	a5,a5,255
    2f40:	feb786e3          	beq	a5,a1,2f2c <_Z10SDCardInitv+0x5c>
    2f44:	fff00513          	li	a0,-1
    2f48:	02a682a3          	sb	a0,37(a3)
    2f4c:	06900793          	li	a5,105
    2f50:	00f68023          	sb	a5,0(a3)
    2f54:	00082703          	lw	a4,0(a6)
    2f58:	04000693          	li	a3,64
    2f5c:	000107b7          	lui	a5,0x10
    2f60:	00d700a3          	sb	a3,1(a4)
    2f64:	00082703          	lw	a4,0(a6)
    2f68:	fff00593          	li	a1,-1
    2f6c:	0ff00613          	li	a2,255
    2f70:	00070123          	sb	zero,2(a4)
    2f74:	00082703          	lw	a4,0(a6)
    2f78:	000701a3          	sb	zero,3(a4)
    2f7c:	00082703          	lw	a4,0(a6)
    2f80:	0008a683          	lw	a3,0(a7)
    2f84:	00070223          	sb	zero,4(a4)
    2f88:	00a702a3          	sb	a0,5(a4)
    2f8c:	0080006f          	j	2f94 <_Z10SDCardInitv+0xc4>
    2f90:	00078c63          	beqz	a5,2fa8 <_Z10SDCardInitv+0xd8>
    2f94:	02b70323          	sb	a1,38(a4)
    2f98:	0006c503          	lbu	a0,0(a3)
    2f9c:	fff78793          	addi	a5,a5,-1 # ffff <_end+0x9fb7>
    2fa0:	0ff57513          	andi	a0,a0,255
    2fa4:	fec506e3          	beq	a0,a2,2f90 <_Z10SDCardInitv+0xc0>
    2fa8:	00008067          	ret

00002fac <_Z17SDReadSingleBlockmPhS_>:
    2fac:	00002817          	auipc	a6,0x2
    2fb0:	54882803          	lw	a6,1352(a6) # 54f4 <_GLOBAL_OFFSET_TABLE_+0x18>
    2fb4:	00082783          	lw	a5,0(a6)
    2fb8:	fff00893          	li	a7,-1
    2fbc:	05100713          	li	a4,81
    2fc0:	031780a3          	sb	a7,33(a5)
    2fc4:	00e78023          	sb	a4,0(a5)
    2fc8:	00082783          	lw	a5,0(a6)
    2fcc:	01855713          	srli	a4,a0,0x18
    2fd0:	00002e17          	auipc	t3,0x2
    2fd4:	51ce2e03          	lw	t3,1308(t3) # 54ec <_GLOBAL_OFFSET_TABLE_+0x10>
    2fd8:	00e780a3          	sb	a4,1(a5)
    2fdc:	00082703          	lw	a4,0(a6)
    2fe0:	01055793          	srli	a5,a0,0x10
    2fe4:	0ff7f793          	andi	a5,a5,255
    2fe8:	00f70123          	sb	a5,2(a4)
    2fec:	00082703          	lw	a4,0(a6)
    2ff0:	00855793          	srli	a5,a0,0x8
    2ff4:	0ff7f793          	andi	a5,a5,255
    2ff8:	00f701a3          	sb	a5,3(a4)
    2ffc:	00082703          	lw	a4,0(a6)
    3000:	0ff57513          	andi	a0,a0,255
    3004:	000e2683          	lw	a3,0(t3)
    3008:	00a70223          	sb	a0,4(a4)
    300c:	011702a3          	sb	a7,5(a4)
    3010:	000107b7          	lui	a5,0x10
    3014:	fff00313          	li	t1,-1
    3018:	0ff00893          	li	a7,255
    301c:	0080006f          	j	3024 <_Z17SDReadSingleBlockmPhS_+0x78>
    3020:	04078863          	beqz	a5,3070 <_Z17SDReadSingleBlockmPhS_+0xc4>
    3024:	02670223          	sb	t1,36(a4)
    3028:	0006c503          	lbu	a0,0(a3)
    302c:	fff78793          	addi	a5,a5,-1 # ffff <_end+0x9fb7>
    3030:	0ff57513          	andi	a0,a0,255
    3034:	ff1506e3          	beq	a0,a7,3020 <_Z17SDReadSingleBlockmPhS_+0x74>
    3038:	02051a63          	bnez	a0,306c <_Z17SDReadSingleBlockmPhS_+0xc0>
    303c:	000107b7          	lui	a5,0x10
    3040:	fff00893          	li	a7,-1
    3044:	0ff00313          	li	t1,255
    3048:	0080006f          	j	3050 <_Z17SDReadSingleBlockmPhS_+0xa4>
    304c:	02078263          	beqz	a5,3070 <_Z17SDReadSingleBlockmPhS_+0xc4>
    3050:	03170223          	sb	a7,36(a4)
    3054:	0006c503          	lbu	a0,0(a3)
    3058:	fff78793          	addi	a5,a5,-1 # ffff <_end+0x9fb7>
    305c:	0ff57513          	andi	a0,a0,255
    3060:	fe6506e3          	beq	a0,t1,304c <_Z17SDReadSingleBlockmPhS_+0xa0>
    3064:	0fe00793          	li	a5,254
    3068:	00f50863          	beq	a0,a5,3078 <_Z17SDReadSingleBlockmPhS_+0xcc>
    306c:	00008067          	ret
    3070:	0ff00513          	li	a0,255
    3074:	00008067          	ret
    3078:	03170223          	sb	a7,36(a4)
    307c:	0006c703          	lbu	a4,0(a3)
    3080:	00158793          	addi	a5,a1,1
    3084:	20058893          	addi	a7,a1,512
    3088:	00e58023          	sb	a4,0(a1)
    308c:	fff00593          	li	a1,-1
    3090:	00082683          	lw	a3,0(a6)
    3094:	000e2703          	lw	a4,0(t3)
    3098:	00178793          	addi	a5,a5,1
    309c:	02b68223          	sb	a1,36(a3)
    30a0:	00074703          	lbu	a4,0(a4)
    30a4:	fee78fa3          	sb	a4,-1(a5)
    30a8:	ff1794e3          	bne	a5,a7,3090 <_Z17SDReadSingleBlockmPhS_+0xe4>
    30ac:	00082703          	lw	a4,0(a6)
    30b0:	000e2783          	lw	a5,0(t3)
    30b4:	02b70223          	sb	a1,36(a4)
    30b8:	0007c783          	lbu	a5,0(a5)
    30bc:	00f60023          	sb	a5,0(a2)
    30c0:	00082703          	lw	a4,0(a6)
    30c4:	000e2783          	lw	a5,0(t3)
    30c8:	02b70223          	sb	a1,36(a4)
    30cc:	0007c783          	lbu	a5,0(a5)
    30d0:	00f600a3          	sb	a5,1(a2)
    30d4:	00008067          	ret

000030d8 <_Z20SDReadMultipleBlocksPhmmm>:
    30d8:	14058c63          	beqz	a1,3230 <_Z20SDReadMultipleBlocksPhmmm+0x158>
    30dc:	da010113          	addi	sp,sp,-608
    30e0:	23812c23          	sw	s8,568(sp)
    30e4:	00c58c33          	add	s8,a1,a2
    30e8:	1ffc7793          	andi	a5,s8,511
    30ec:	25212823          	sw	s2,592(sp)
    30f0:	25412423          	sw	s4,584(sp)
    30f4:	23912a23          	sw	s9,564(sp)
    30f8:	24112e23          	sw	ra,604(sp)
    30fc:	24812c23          	sw	s0,600(sp)
    3100:	24912a23          	sw	s1,596(sp)
    3104:	25312623          	sw	s3,588(sp)
    3108:	25512223          	sw	s5,580(sp)
    310c:	25612023          	sw	s6,576(sp)
    3110:	23712e23          	sw	s7,572(sp)
    3114:	23a12823          	sw	s10,560(sp)
    3118:	23b12623          	sw	s11,556(sp)
    311c:	00965a13          	srli	s4,a2,0x9
    3120:	009c5913          	srli	s2,s8,0x9
    3124:	00f12423          	sw	a5,8(sp)
    3128:	00058c93          	mv	s9,a1
    312c:	0f496e63          	bltu	s2,s4,3228 <_Z20SDReadMultipleBlocksPhmmm+0x150>
    3130:	20000d13          	li	s10,512
    3134:	02010493          	addi	s1,sp,32
    3138:	40cd07b3          	sub	a5,s10,a2
    313c:	00050993          	mv	s3,a0
    3140:	00068a93          	mv	s5,a3
    3144:	000a0c13          	mv	s8,s4
    3148:	00000413          	li	s0,0
    314c:	01c10b93          	addi	s7,sp,28
    3150:	0fe00b13          	li	s6,254
    3154:	00c48db3          	add	s11,s1,a2
    3158:	00f12623          	sw	a5,12(sp)
    315c:	01c0006f          	j	3178 <_Z20SDReadMultipleBlocksPhmmm+0xa0>
    3160:	07890063          	beq	s2,s8,31c0 <_Z20SDReadMultipleBlocksPhmmm+0xe8>
    3164:	8e9fd0ef          	jal	ra,a4c <memcpy>
    3168:	20040413          	addi	s0,s0,512
    316c:	001c0713          	addi	a4,s8,1
    3170:	05890c63          	beq	s2,s8,31c8 <_Z20SDReadMultipleBlocksPhmmm+0xf0>
    3174:	00070c13          	mv	s8,a4
    3178:	000b8613          	mv	a2,s7
    317c:	00048593          	mv	a1,s1
    3180:	018a8533          	add	a0,s5,s8
    3184:	e29ff0ef          	jal	ra,2fac <_Z17SDReadSingleBlockmPhS_>
    3188:	00050713          	mv	a4,a0
    318c:	20000613          	li	a2,512
    3190:	00898533          	add	a0,s3,s0
    3194:	00048593          	mv	a1,s1
    3198:	09671463          	bne	a4,s6,3220 <_Z20SDReadMultipleBlocksPhmmm+0x148>
    319c:	fd8a12e3          	bne	s4,s8,3160 <_Z20SDReadMultipleBlocksPhmmm+0x88>
    31a0:	000d8593          	mv	a1,s11
    31a4:	000c8d13          	mv	s10,s9
    31a8:	01490463          	beq	s2,s4,31b0 <_Z20SDReadMultipleBlocksPhmmm+0xd8>
    31ac:	00c12d03          	lw	s10,12(sp)
    31b0:	000d0613          	mv	a2,s10
    31b4:	899fd0ef          	jal	ra,a4c <memcpy>
    31b8:	01a40433          	add	s0,s0,s10
    31bc:	fb1ff06f          	j	316c <_Z20SDReadMultipleBlocksPhmmm+0x94>
    31c0:	00812783          	lw	a5,8(sp)
    31c4:	04079263          	bnez	a5,3208 <_Z20SDReadMultipleBlocksPhmmm+0x130>
    31c8:	00040513          	mv	a0,s0
    31cc:	25c12083          	lw	ra,604(sp)
    31d0:	25812403          	lw	s0,600(sp)
    31d4:	25412483          	lw	s1,596(sp)
    31d8:	25012903          	lw	s2,592(sp)
    31dc:	24c12983          	lw	s3,588(sp)
    31e0:	24812a03          	lw	s4,584(sp)
    31e4:	24412a83          	lw	s5,580(sp)
    31e8:	24012b03          	lw	s6,576(sp)
    31ec:	23c12b83          	lw	s7,572(sp)
    31f0:	23812c03          	lw	s8,568(sp)
    31f4:	23412c83          	lw	s9,564(sp)
    31f8:	23012d03          	lw	s10,560(sp)
    31fc:	22c12d83          	lw	s11,556(sp)
    3200:	26010113          	addi	sp,sp,608
    3204:	00008067          	ret
    3208:	00898533          	add	a0,s3,s0
    320c:	00078913          	mv	s2,a5
    3210:	00078613          	mv	a2,a5
    3214:	839fd0ef          	jal	ra,a4c <memcpy>
    3218:	01240433          	add	s0,s0,s2
    321c:	fadff06f          	j	31c8 <_Z20SDReadMultipleBlocksPhmmm+0xf0>
    3220:	fff00513          	li	a0,-1
    3224:	fa9ff06f          	j	31cc <_Z20SDReadMultipleBlocksPhmmm+0xf4>
    3228:	00000513          	li	a0,0
    322c:	fa1ff06f          	j	31cc <_Z20SDReadMultipleBlocksPhmmm+0xf4>
    3230:	fff00513          	li	a0,-1
    3234:	00008067          	ret

00003238 <_Z13SDCardStartupv>:
    3238:	fe010113          	addi	sp,sp,-32
    323c:	00112e23          	sw	ra,28(sp)
    3240:	00812c23          	sw	s0,24(sp)
    3244:	00912a23          	sw	s1,20(sp)
    3248:	b05ff0ef          	jal	ra,2d4c <_Z6SDIdlev>
    324c:	00100793          	li	a5,1
    3250:	04f51263          	bne	a0,a5,3294 <_Z13SDCardStartupv+0x5c>
    3254:	00050413          	mv	s0,a0
    3258:	00c10513          	addi	a0,sp,12
    325c:	b6dff0ef          	jal	ra,2dc8 <_Z19SDCheckVoltageRangeRm>
    3260:	00050493          	mv	s1,a0
    3264:	02851863          	bne	a0,s0,3294 <_Z13SDCardStartupv+0x5c>
    3268:	c69ff0ef          	jal	ra,2ed0 <_Z10SDCardInitv>
    326c:	02951463          	bne	a0,s1,3294 <_Z13SDCardStartupv+0x5c>
    3270:	00100413          	li	s0,1
    3274:	c5dff0ef          	jal	ra,2ed0 <_Z10SDCardInitv>
    3278:	fe850ee3          	beq	a0,s0,3274 <_Z13SDCardStartupv+0x3c>
    327c:	00000513          	li	a0,0
    3280:	01c12083          	lw	ra,28(sp)
    3284:	01812403          	lw	s0,24(sp)
    3288:	01412483          	lw	s1,20(sp)
    328c:	02010113          	addi	sp,sp,32
    3290:	00008067          	ret
    3294:	fff00513          	li	a0,-1
    3298:	fe9ff06f          	j	3280 <_Z13SDCardStartupv+0x48>

0000329c <_ZL7get_fatm>:
    329c:	00100793          	li	a5,1
    32a0:	06a7f063          	bgeu	a5,a0,3300 <_ZL7get_fatm+0x64>
    32a4:	9101a783          	lw	a5,-1776(gp) # 5640 <_ZL5FatFs>
    32a8:	0087a703          	lw	a4,8(a5)
    32ac:	04e57a63          	bgeu	a0,a4,3300 <_ZL7get_fatm+0x64>
    32b0:	fe010113          	addi	sp,sp,-32
    32b4:	00112e23          	sw	ra,28(sp)
    32b8:	0007c703          	lbu	a4,0(a5)
    32bc:	00200693          	li	a3,2
    32c0:	04d70c63          	beq	a4,a3,3318 <_ZL7get_fatm+0x7c>
    32c4:	00300693          	li	a3,3
    32c8:	02d71463          	bne	a4,a3,32f0 <_ZL7get_fatm+0x54>
    32cc:	00c7a583          	lw	a1,12(a5)
    32d0:	07f57613          	andi	a2,a0,127
    32d4:	00755513          	srli	a0,a0,0x7
    32d8:	00b505b3          	add	a1,a0,a1
    32dc:	00400693          	li	a3,4
    32e0:	00261613          	slli	a2,a2,0x2
    32e4:	00c10513          	addi	a0,sp,12
    32e8:	425000ef          	jal	ra,3f0c <_Z10disk_readpPhmtt>
    32ec:	00050e63          	beqz	a0,3308 <_ZL7get_fatm+0x6c>
    32f0:	00100513          	li	a0,1
    32f4:	01c12083          	lw	ra,28(sp)
    32f8:	02010113          	addi	sp,sp,32
    32fc:	00008067          	ret
    3300:	00100513          	li	a0,1
    3304:	00008067          	ret
    3308:	00c12503          	lw	a0,12(sp)
    330c:	00451513          	slli	a0,a0,0x4
    3310:	00455513          	srli	a0,a0,0x4
    3314:	fe1ff06f          	j	32f4 <_ZL7get_fatm+0x58>
    3318:	00c7a583          	lw	a1,12(a5)
    331c:	0ff57613          	andi	a2,a0,255
    3320:	00855513          	srli	a0,a0,0x8
    3324:	00b505b3          	add	a1,a0,a1
    3328:	00200693          	li	a3,2
    332c:	00161613          	slli	a2,a2,0x1
    3330:	00c10513          	addi	a0,sp,12
    3334:	3d9000ef          	jal	ra,3f0c <_Z10disk_readpPhmtt>
    3338:	fa051ce3          	bnez	a0,32f0 <_ZL7get_fatm+0x54>
    333c:	00c15503          	lhu	a0,12(sp)
    3340:	fb5ff06f          	j	32f4 <_ZL7get_fatm+0x58>

00003344 <_ZL11follow_pathP3DIRPhPKc>:
    3344:	fd010113          	addi	sp,sp,-48
    3348:	02912223          	sw	s1,36(sp)
    334c:	03212023          	sw	s2,32(sp)
    3350:	01312e23          	sw	s3,28(sp)
    3354:	02112623          	sw	ra,44(sp)
    3358:	02812423          	sw	s0,40(sp)
    335c:	01412c23          	sw	s4,24(sp)
    3360:	01512a23          	sw	s5,20(sp)
    3364:	01612823          	sw	s6,16(sp)
    3368:	01712623          	sw	s7,12(sp)
    336c:	01812423          	sw	s8,8(sp)
    3370:	01912223          	sw	s9,4(sp)
    3374:	01a12023          	sw	s10,0(sp)
    3378:	00064783          	lbu	a5,0(a2)
    337c:	02000713          	li	a4,32
    3380:	00060993          	mv	s3,a2
    3384:	00050913          	mv	s2,a0
    3388:	00058493          	mv	s1,a1
    338c:	00e79863          	bne	a5,a4,339c <_ZL11follow_pathP3DIRPhPKc+0x58>
    3390:	0019c783          	lbu	a5,1(s3)
    3394:	00198993          	addi	s3,s3,1
    3398:	fee78ce3          	beq	a5,a4,3390 <_ZL11follow_pathP3DIRPhPKc+0x4c>
    339c:	fd178793          	addi	a5,a5,-47
    33a0:	0017b793          	seqz	a5,a5
    33a4:	00f989b3          	add	s3,s3,a5
    33a8:	00092423          	sw	zero,8(s2)
    33ac:	0009c703          	lbu	a4,0(s3)
    33b0:	91018a13          	addi	s4,gp,-1776 # 5640 <_ZL5FatFs>
    33b4:	02000793          	li	a5,32
    33b8:	000a2803          	lw	a6,0(s4)
    33bc:	32e7fc63          	bgeu	a5,a4,36f4 <_ZL11follow_pathP3DIRPhPKc+0x3b0>
    33c0:	00492783          	lw	a5,4(s2)
    33c4:	00100b13          	li	s6,1
    33c8:	00800b93          	li	s7,8
    33cc:	02e00a93          	li	s5,46
    33d0:	00001c17          	auipc	s8,0x1
    33d4:	3dcc0c13          	addi	s8,s8,988 # 47ac <_ZL3cvt>
    33d8:	02000713          	li	a4,32
    33dc:	00e78023          	sb	a4,0(a5)
    33e0:	00e780a3          	sb	a4,1(a5)
    33e4:	00e78123          	sb	a4,2(a5)
    33e8:	00e781a3          	sb	a4,3(a5)
    33ec:	00e78223          	sb	a4,4(a5)
    33f0:	00e782a3          	sb	a4,5(a5)
    33f4:	00e78323          	sb	a4,6(a5)
    33f8:	00e783a3          	sb	a4,7(a5)
    33fc:	00e78423          	sb	a4,8(a5)
    3400:	00e784a3          	sb	a4,9(a5)
    3404:	00e78523          	sb	a4,10(a5)
    3408:	0009c683          	lbu	a3,0(s3)
    340c:	34d77463          	bgeu	a4,a3,3754 <_ZL11follow_pathP3DIRPhPKc+0x410>
    3410:	00000613          	li	a2,0
    3414:	00800593          	li	a1,8
    3418:	00100713          	li	a4,1
    341c:	02f00513          	li	a0,47
    3420:	01900e13          	li	t3,25
    3424:	02000313          	li	t1,32
    3428:	00a68663          	beq	a3,a0,3434 <_ZL11follow_pathP3DIRPhPKc+0xf0>
    342c:	23568663          	beq	a3,s5,3658 <_ZL11follow_pathP3DIRPhPKc+0x314>
    3430:	24b66a63          	bltu	a2,a1,3684 <_ZL11follow_pathP3DIRPhPKc+0x340>
    3434:	00e989b3          	add	s3,s3,a4
    3438:	00000713          	li	a4,0
    343c:	00e785a3          	sb	a4,11(a5)
    3440:	00892583          	lw	a1,8(s2)
    3444:	00091023          	sh	zero,0(s2)
    3448:	0b658863          	beq	a1,s6,34f8 <_ZL11follow_pathP3DIRPhPKc+0x1b4>
    344c:	00882783          	lw	a5,8(a6)
    3450:	0af5f463          	bgeu	a1,a5,34f8 <_ZL11follow_pathP3DIRPhPKc+0x1b4>
    3454:	26059663          	bnez	a1,36c0 <_ZL11follow_pathP3DIRPhPKc+0x37c>
    3458:	00084683          	lbu	a3,0(a6)
    345c:	00300713          	li	a4,3
    3460:	01082583          	lw	a1,16(a6)
    3464:	28e68263          	beq	a3,a4,36e8 <_ZL11follow_pathP3DIRPhPKc+0x3a4>
    3468:	00092623          	sw	zero,12(s2)
    346c:	00000c93          	li	s9,0
    3470:	00b92823          	sw	a1,16(s2)
    3474:	02000693          	li	a3,32
    3478:	005c9613          	slli	a2,s9,0x5
    347c:	00048513          	mv	a0,s1
    3480:	28d000ef          	jal	ra,3f0c <_Z10disk_readpPhmtt>
    3484:	06051a63          	bnez	a0,34f8 <_ZL11follow_pathP3DIRPhPKc+0x1b4>
    3488:	0004c703          	lbu	a4,0(s1)
    348c:	0a070463          	beqz	a4,3534 <_ZL11follow_pathP3DIRPhPKc+0x1f0>
    3490:	00b4c683          	lbu	a3,11(s1)
    3494:	0086f793          	andi	a5,a3,8
    3498:	0a078a63          	beqz	a5,354c <_ZL11follow_pathP3DIRPhPKc+0x208>
    349c:	00095403          	lhu	s0,0(s2)
    34a0:	00140413          	addi	s0,s0,1
    34a4:	01041413          	slli	s0,s0,0x10
    34a8:	01045413          	srli	s0,s0,0x10
    34ac:	08040463          	beqz	s0,3534 <_ZL11follow_pathP3DIRPhPKc+0x1f0>
    34b0:	01092583          	lw	a1,16(s2)
    34b4:	08058063          	beqz	a1,3534 <_ZL11follow_pathP3DIRPhPKc+0x1f0>
    34b8:	00f47793          	andi	a5,s0,15
    34bc:	00078c93          	mv	s9,a5
    34c0:	02079063          	bnez	a5,34e0 <_ZL11follow_pathP3DIRPhPKc+0x19c>
    34c4:	00c92503          	lw	a0,12(s2)
    34c8:	00158593          	addi	a1,a1,1
    34cc:	00b92823          	sw	a1,16(s2)
    34d0:	000a2d03          	lw	s10,0(s4)
    34d4:	12051463          	bnez	a0,35fc <_ZL11follow_pathP3DIRPhPKc+0x2b8>
    34d8:	004d5783          	lhu	a5,4(s10)
    34dc:	04f47c63          	bgeu	s0,a5,3534 <_ZL11follow_pathP3DIRPhPKc+0x1f0>
    34e0:	00891023          	sh	s0,0(s2)
    34e4:	02000693          	li	a3,32
    34e8:	005c9613          	slli	a2,s9,0x5
    34ec:	00048513          	mv	a0,s1
    34f0:	21d000ef          	jal	ra,3f0c <_Z10disk_readpPhmtt>
    34f4:	f8050ae3          	beqz	a0,3488 <_ZL11follow_pathP3DIRPhPKc+0x144>
    34f8:	00100513          	li	a0,1
    34fc:	02c12083          	lw	ra,44(sp)
    3500:	02812403          	lw	s0,40(sp)
    3504:	02412483          	lw	s1,36(sp)
    3508:	02012903          	lw	s2,32(sp)
    350c:	01c12983          	lw	s3,28(sp)
    3510:	01812a03          	lw	s4,24(sp)
    3514:	01412a83          	lw	s5,20(sp)
    3518:	01012b03          	lw	s6,16(sp)
    351c:	00c12b83          	lw	s7,12(sp)
    3520:	00812c03          	lw	s8,8(sp)
    3524:	00412c83          	lw	s9,4(sp)
    3528:	00012d03          	lw	s10,0(sp)
    352c:	03010113          	addi	sp,sp,48
    3530:	00008067          	ret
    3534:	00492783          	lw	a5,4(s2)
    3538:	00300513          	li	a0,3
    353c:	00b7c783          	lbu	a5,11(a5)
    3540:	fa079ee3          	bnez	a5,34fc <_ZL11follow_pathP3DIRPhPKc+0x1b8>
    3544:	00400513          	li	a0,4
    3548:	fb5ff06f          	j	34fc <_ZL11follow_pathP3DIRPhPKc+0x1b8>
    354c:	00492783          	lw	a5,4(s2)
    3550:	0007c603          	lbu	a2,0(a5)
    3554:	f4e614e3          	bne	a2,a4,349c <_ZL11follow_pathP3DIRPhPKc+0x158>
    3558:	0017c603          	lbu	a2,1(a5)
    355c:	0014c703          	lbu	a4,1(s1)
    3560:	f2e61ee3          	bne	a2,a4,349c <_ZL11follow_pathP3DIRPhPKc+0x158>
    3564:	0027c603          	lbu	a2,2(a5)
    3568:	0024c703          	lbu	a4,2(s1)
    356c:	f2e618e3          	bne	a2,a4,349c <_ZL11follow_pathP3DIRPhPKc+0x158>
    3570:	0034c603          	lbu	a2,3(s1)
    3574:	0037c703          	lbu	a4,3(a5)
    3578:	f2e612e3          	bne	a2,a4,349c <_ZL11follow_pathP3DIRPhPKc+0x158>
    357c:	0047c603          	lbu	a2,4(a5)
    3580:	0044c703          	lbu	a4,4(s1)
    3584:	f0e61ce3          	bne	a2,a4,349c <_ZL11follow_pathP3DIRPhPKc+0x158>
    3588:	0057c603          	lbu	a2,5(a5)
    358c:	0054c703          	lbu	a4,5(s1)
    3590:	f0e616e3          	bne	a2,a4,349c <_ZL11follow_pathP3DIRPhPKc+0x158>
    3594:	0064c603          	lbu	a2,6(s1)
    3598:	0067c703          	lbu	a4,6(a5)
    359c:	f0e610e3          	bne	a2,a4,349c <_ZL11follow_pathP3DIRPhPKc+0x158>
    35a0:	0077c603          	lbu	a2,7(a5)
    35a4:	0074c703          	lbu	a4,7(s1)
    35a8:	eee61ae3          	bne	a2,a4,349c <_ZL11follow_pathP3DIRPhPKc+0x158>
    35ac:	0087c603          	lbu	a2,8(a5)
    35b0:	0084c703          	lbu	a4,8(s1)
    35b4:	eee614e3          	bne	a2,a4,349c <_ZL11follow_pathP3DIRPhPKc+0x158>
    35b8:	0097c603          	lbu	a2,9(a5)
    35bc:	0094c703          	lbu	a4,9(s1)
    35c0:	ece61ee3          	bne	a2,a4,349c <_ZL11follow_pathP3DIRPhPKc+0x158>
    35c4:	00a4c603          	lbu	a2,10(s1)
    35c8:	00a7c703          	lbu	a4,10(a5)
    35cc:	ece618e3          	bne	a2,a4,349c <_ZL11follow_pathP3DIRPhPKc+0x158>
    35d0:	00b7c703          	lbu	a4,11(a5)
    35d4:	f20714e3          	bnez	a4,34fc <_ZL11follow_pathP3DIRPhPKc+0x1b8>
    35d8:	0106f713          	andi	a4,a3,16
    35dc:	f60704e3          	beqz	a4,3544 <_ZL11follow_pathP3DIRPhPKc+0x200>
    35e0:	0144d703          	lhu	a4,20(s1)
    35e4:	01a4d683          	lhu	a3,26(s1)
    35e8:	000a2803          	lw	a6,0(s4)
    35ec:	01071713          	slli	a4,a4,0x10
    35f0:	00d76733          	or	a4,a4,a3
    35f4:	00e92423          	sw	a4,8(s2)
    35f8:	de1ff06f          	j	33d8 <_ZL11follow_pathP3DIRPhPKc+0x94>
    35fc:	002d4703          	lbu	a4,2(s10)
    3600:	00445793          	srli	a5,s0,0x4
    3604:	fff70713          	addi	a4,a4,-1
    3608:	00f777b3          	and	a5,a4,a5
    360c:	ec079ae3          	bnez	a5,34e0 <_ZL11follow_pathP3DIRPhPKc+0x19c>
    3610:	c8dff0ef          	jal	ra,329c <_ZL7get_fatm>
    3614:	eeab72e3          	bgeu	s6,a0,34f8 <_ZL11follow_pathP3DIRPhPKc+0x1b4>
    3618:	008d2783          	lw	a5,8(s10)
    361c:	f0f57ce3          	bgeu	a0,a5,3534 <_ZL11follow_pathP3DIRPhPKc+0x1f0>
    3620:	000a2703          	lw	a4,0(s4)
    3624:	00a92623          	sw	a0,12(s2)
    3628:	ffe50513          	addi	a0,a0,-2
    362c:	00872783          	lw	a5,8(a4)
    3630:	00000593          	li	a1,0
    3634:	ffe78793          	addi	a5,a5,-2
    3638:	00f57a63          	bgeu	a0,a5,364c <_ZL11follow_pathP3DIRPhPKc+0x308>
    363c:	00274583          	lbu	a1,2(a4)
    3640:	01472783          	lw	a5,20(a4)
    3644:	02a58533          	mul	a0,a1,a0
    3648:	00f505b3          	add	a1,a0,a5
    364c:	00b92823          	sw	a1,16(s2)
    3650:	00891023          	sh	s0,0(s2)
    3654:	e91ff06f          	j	34e4 <_ZL11follow_pathP3DIRPhPKc+0x1a0>
    3658:	dd759ee3          	bne	a1,s7,3434 <_ZL11follow_pathP3DIRPhPKc+0xf0>
    365c:	00800613          	li	a2,8
    3660:	00b00593          	li	a1,11
    3664:	00e986b3          	add	a3,s3,a4
    3668:	0006c683          	lbu	a3,0(a3)
    366c:	00170713          	addi	a4,a4,1
    3670:	0ff77713          	andi	a4,a4,255
    3674:	dad36ae3          	bltu	t1,a3,3428 <_ZL11follow_pathP3DIRPhPKc+0xe4>
    3678:	00e989b3          	add	s3,s3,a4
    367c:	00100713          	li	a4,1
    3680:	dbdff06f          	j	343c <_ZL11follow_pathP3DIRPhPKc+0xf8>
    3684:	01869893          	slli	a7,a3,0x18
    3688:	4188d893          	srai	a7,a7,0x18
    368c:	0008d663          	bgez	a7,3698 <_ZL11follow_pathP3DIRPhPKc+0x354>
    3690:	00dc06b3          	add	a3,s8,a3
    3694:	f806c683          	lbu	a3,-128(a3)
    3698:	f9f68893          	addi	a7,a3,-97
    369c:	0ff8f893          	andi	a7,a7,255
    36a0:	011e6663          	bltu	t3,a7,36ac <_ZL11follow_pathP3DIRPhPKc+0x368>
    36a4:	fe068693          	addi	a3,a3,-32
    36a8:	0ff6f693          	andi	a3,a3,255
    36ac:	00c788b3          	add	a7,a5,a2
    36b0:	00160613          	addi	a2,a2,1
    36b4:	00d88023          	sb	a3,0(a7)
    36b8:	0ff67613          	andi	a2,a2,255
    36bc:	fa9ff06f          	j	3664 <_ZL11follow_pathP3DIRPhPKc+0x320>
    36c0:	00b92623          	sw	a1,12(s2)
    36c4:	ffe58713          	addi	a4,a1,-2
    36c8:	ffe78793          	addi	a5,a5,-2
    36cc:	00000593          	li	a1,0
    36d0:	d8f77ee3          	bgeu	a4,a5,346c <_ZL11follow_pathP3DIRPhPKc+0x128>
    36d4:	00284583          	lbu	a1,2(a6)
    36d8:	01482783          	lw	a5,20(a6)
    36dc:	02e585b3          	mul	a1,a1,a4
    36e0:	00f585b3          	add	a1,a1,a5
    36e4:	d89ff06f          	j	346c <_ZL11follow_pathP3DIRPhPKc+0x128>
    36e8:	00b92623          	sw	a1,12(s2)
    36ec:	fc059ce3          	bnez	a1,36c4 <_ZL11follow_pathP3DIRPhPKc+0x380>
    36f0:	d7dff06f          	j	346c <_ZL11follow_pathP3DIRPhPKc+0x128>
    36f4:	00882703          	lw	a4,8(a6)
    36f8:	00091023          	sh	zero,0(s2)
    36fc:	00100513          	li	a0,1
    3700:	02070063          	beqz	a4,3720 <_ZL11follow_pathP3DIRPhPKc+0x3dc>
    3704:	00084603          	lbu	a2,0(a6)
    3708:	00300693          	li	a3,3
    370c:	01082783          	lw	a5,16(a6)
    3710:	00d60c63          	beq	a2,a3,3728 <_ZL11follow_pathP3DIRPhPKc+0x3e4>
    3714:	00092623          	sw	zero,12(s2)
    3718:	00f92823          	sw	a5,16(s2)
    371c:	00000513          	li	a0,0
    3720:	00048023          	sb	zero,0(s1)
    3724:	dd9ff06f          	j	34fc <_ZL11follow_pathP3DIRPhPKc+0x1b8>
    3728:	00f92623          	sw	a5,12(s2)
    372c:	fe0786e3          	beqz	a5,3718 <_ZL11follow_pathP3DIRPhPKc+0x3d4>
    3730:	ffe78693          	addi	a3,a5,-2
    3734:	ffe70713          	addi	a4,a4,-2
    3738:	00000793          	li	a5,0
    373c:	fce6fee3          	bgeu	a3,a4,3718 <_ZL11follow_pathP3DIRPhPKc+0x3d4>
    3740:	00284783          	lbu	a5,2(a6)
    3744:	01482703          	lw	a4,20(a6)
    3748:	02d787b3          	mul	a5,a5,a3
    374c:	00e787b3          	add	a5,a5,a4
    3750:	fc9ff06f          	j	3718 <_ZL11follow_pathP3DIRPhPKc+0x3d4>
    3754:	00100713          	li	a4,1
    3758:	00e989b3          	add	s3,s3,a4
    375c:	00100713          	li	a4,1
    3760:	cddff06f          	j	343c <_ZL11follow_pathP3DIRPhPKc+0xf8>

00003764 <_Z8pf_mountP5FATFS>:
    3764:	fc010113          	addi	sp,sp,-64
    3768:	02912a23          	sw	s1,52(sp)
    376c:	02112e23          	sw	ra,60(sp)
    3770:	02812c23          	sw	s0,56(sp)
    3774:	03212823          	sw	s2,48(sp)
    3778:	9001a823          	sw	zero,-1776(gp) # 5640 <_ZL5FatFs>
    377c:	00000493          	li	s1,0
    3780:	0a050063          	beqz	a0,3820 <_Z8pf_mountP5FATFS+0xbc>
    3784:	00050413          	mv	s0,a0
    3788:	764000ef          	jal	ra,3eec <_Z15disk_initializev>
    378c:	00157513          	andi	a0,a0,1
    3790:	00200493          	li	s1,2
    3794:	08051663          	bnez	a0,3820 <_Z8pf_mountP5FATFS+0xbc>
    3798:	00001517          	auipc	a0,0x1
    379c:	fcc50513          	addi	a0,a0,-52 # 4764 <PIo2+0x488>
    37a0:	c3cff0ef          	jal	ra,2bdc <_Z8EchoUARTPKc>
    37a4:	00c10493          	addi	s1,sp,12
    37a8:	00200693          	li	a3,2
    37ac:	1fe00613          	li	a2,510
    37b0:	00000593          	li	a1,0
    37b4:	00048513          	mv	a0,s1
    37b8:	754000ef          	jal	ra,3f0c <_Z10disk_readpPhmtt>
    37bc:	28051863          	bnez	a0,3a4c <_Z8pf_mountP5FATFS+0x2e8>
    37c0:	00c15703          	lhu	a4,12(sp)
    37c4:	0000b7b7          	lui	a5,0xb
    37c8:	a5578793          	addi	a5,a5,-1451 # aa55 <_end+0x4a0d>
    37cc:	22f71c63          	bne	a4,a5,3a04 <_Z8pf_mountP5FATFS+0x2a0>
    37d0:	00200693          	li	a3,2
    37d4:	05200613          	li	a2,82
    37d8:	00000593          	li	a1,0
    37dc:	00048513          	mv	a0,s1
    37e0:	72c000ef          	jal	ra,3f0c <_Z10disk_readpPhmtt>
    37e4:	00050913          	mv	s2,a0
    37e8:	00051a63          	bnez	a0,37fc <_Z8pf_mountP5FATFS+0x98>
    37ec:	00c15703          	lhu	a4,12(sp)
    37f0:	000047b7          	lui	a5,0x4
    37f4:	14678793          	addi	a5,a5,326 # 4146 <two_over_pi+0x18e>
    37f8:	0af70263          	beq	a4,a5,389c <_Z8pf_mountP5FATFS+0x138>
    37fc:	01000693          	li	a3,16
    3800:	1be00613          	li	a2,446
    3804:	00000593          	li	a1,0
    3808:	00048513          	mv	a0,s1
    380c:	700000ef          	jal	ra,3f0c <_Z10disk_readpPhmtt>
    3810:	20051e63          	bnez	a0,3a2c <_Z8pf_mountP5FATFS+0x2c8>
    3814:	01014783          	lbu	a5,16(sp)
    3818:	02079263          	bnez	a5,383c <_Z8pf_mountP5FATFS+0xd8>
    381c:	00700493          	li	s1,7
    3820:	03c12083          	lw	ra,60(sp)
    3824:	03812403          	lw	s0,56(sp)
    3828:	03012903          	lw	s2,48(sp)
    382c:	00048513          	mv	a0,s1
    3830:	03412483          	lw	s1,52(sp)
    3834:	04010113          	addi	sp,sp,64
    3838:	00008067          	ret
    383c:	01412903          	lw	s2,20(sp)
    3840:	00001517          	auipc	a0,0x1
    3844:	f3850513          	addi	a0,a0,-200 # 4778 <PIo2+0x49c>
    3848:	b94ff0ef          	jal	ra,2bdc <_Z8EchoUARTPKc>
    384c:	00200693          	li	a3,2
    3850:	1fe00613          	li	a2,510
    3854:	00090593          	mv	a1,s2
    3858:	00048513          	mv	a0,s1
    385c:	6b0000ef          	jal	ra,3f0c <_Z10disk_readpPhmtt>
    3860:	1e051663          	bnez	a0,3a4c <_Z8pf_mountP5FATFS+0x2e8>
    3864:	00c15703          	lhu	a4,12(sp)
    3868:	0000b7b7          	lui	a5,0xb
    386c:	a5578793          	addi	a5,a5,-1451 # aa55 <_end+0x4a0d>
    3870:	18f71a63          	bne	a4,a5,3a04 <_Z8pf_mountP5FATFS+0x2a0>
    3874:	00200693          	li	a3,2
    3878:	05200613          	li	a2,82
    387c:	00090593          	mv	a1,s2
    3880:	00048513          	mv	a0,s1
    3884:	688000ef          	jal	ra,3f0c <_Z10disk_readpPhmtt>
    3888:	f8051ae3          	bnez	a0,381c <_Z8pf_mountP5FATFS+0xb8>
    388c:	00c15703          	lhu	a4,12(sp)
    3890:	000047b7          	lui	a5,0x4
    3894:	14678793          	addi	a5,a5,326 # 4146 <two_over_pi+0x18e>
    3898:	f8f712e3          	bne	a4,a5,381c <_Z8pf_mountP5FATFS+0xb8>
    389c:	00001517          	auipc	a0,0x1
    38a0:	ef050513          	addi	a0,a0,-272 # 478c <PIo2+0x4b0>
    38a4:	b38ff0ef          	jal	ra,2bdc <_Z8EchoUARTPKc>
    38a8:	00048513          	mv	a0,s1
    38ac:	02400693          	li	a3,36
    38b0:	00d00613          	li	a2,13
    38b4:	00090593          	mv	a1,s2
    38b8:	654000ef          	jal	ra,3f0c <_Z10disk_readpPhmtt>
    38bc:	00050493          	mv	s1,a0
    38c0:	16051663          	bnez	a0,3a2c <_Z8pf_mountP5FATFS+0x2c8>
    38c4:	01614703          	lbu	a4,22(sp)
    38c8:	01514783          	lbu	a5,21(sp)
    38cc:	00871713          	slli	a4,a4,0x8
    38d0:	00f76733          	or	a4,a4,a5
    38d4:	02071663          	bnez	a4,3900 <_Z8pf_mountP5FATFS+0x19c>
    38d8:	02414683          	lbu	a3,36(sp)
    38dc:	02314603          	lbu	a2,35(sp)
    38e0:	02514783          	lbu	a5,37(sp)
    38e4:	02614703          	lbu	a4,38(sp)
    38e8:	00869693          	slli	a3,a3,0x8
    38ec:	00c6e6b3          	or	a3,a3,a2
    38f0:	01079793          	slli	a5,a5,0x10
    38f4:	00d7e7b3          	or	a5,a5,a3
    38f8:	01871713          	slli	a4,a4,0x18
    38fc:	00f76733          	or	a4,a4,a5
    3900:	00e14683          	lbu	a3,14(sp)
    3904:	00d14783          	lbu	a5,13(sp)
    3908:	00c14603          	lbu	a2,12(sp)
    390c:	01015583          	lhu	a1,16(sp)
    3910:	00869693          	slli	a3,a3,0x8
    3914:	00f6e6b3          	or	a3,a3,a5
    3918:	00f14503          	lbu	a0,15(sp)
    391c:	01215783          	lhu	a5,18(sp)
    3920:	01268933          	add	s2,a3,s2
    3924:	01242623          	sw	s2,12(s0)
    3928:	00c40123          	sb	a2,2(s0)
    392c:	00b41223          	sh	a1,4(s0)
    3930:	02e50533          	mul	a0,a0,a4
    3934:	02079663          	bnez	a5,3960 <_Z8pf_mountP5FATFS+0x1fc>
    3938:	02014803          	lbu	a6,32(sp)
    393c:	01f14883          	lbu	a7,31(sp)
    3940:	02114783          	lbu	a5,33(sp)
    3944:	02214703          	lbu	a4,34(sp)
    3948:	00881813          	slli	a6,a6,0x8
    394c:	01186833          	or	a6,a6,a7
    3950:	01079793          	slli	a5,a5,0x10
    3954:	0107e7b3          	or	a5,a5,a6
    3958:	01871713          	slli	a4,a4,0x18
    395c:	00f767b3          	or	a5,a4,a5
    3960:	0045d713          	srli	a4,a1,0x4
    3964:	00e686b3          	add	a3,a3,a4
    3968:	00a686b3          	add	a3,a3,a0
    396c:	40d787b3          	sub	a5,a5,a3
    3970:	02c7d7b3          	divu	a5,a5,a2
    3974:	000016b7          	lui	a3,0x1
    3978:	ff668693          	addi	a3,a3,-10 # ff6 <_free_r+0x16e>
    397c:	00278793          	addi	a5,a5,2
    3980:	00f42423          	sw	a5,8(s0)
    3984:	e8f6fce3          	bgeu	a3,a5,381c <_Z8pf_mountP5FATFS+0xb8>
    3988:	000106b7          	lui	a3,0x10
    398c:	ff668693          	addi	a3,a3,-10 # fff6 <_end+0x9fae>
    3990:	0cf6f663          	bgeu	a3,a5,3a5c <_Z8pf_mountP5FATFS+0x2f8>
    3994:	02c14603          	lbu	a2,44(sp)
    3998:	02b14583          	lbu	a1,43(sp)
    399c:	02d14683          	lbu	a3,45(sp)
    39a0:	02e14783          	lbu	a5,46(sp)
    39a4:	00861613          	slli	a2,a2,0x8
    39a8:	00b66633          	or	a2,a2,a1
    39ac:	01069693          	slli	a3,a3,0x10
    39b0:	00c6e6b3          	or	a3,a3,a2
    39b4:	01879793          	slli	a5,a5,0x18
    39b8:	00d7e7b3          	or	a5,a5,a3
    39bc:	00300693          	li	a3,3
    39c0:	00e90733          	add	a4,s2,a4
    39c4:	00a70733          	add	a4,a4,a0
    39c8:	00f42823          	sw	a5,16(s0)
    39cc:	00d40023          	sb	a3,0(s0)
    39d0:	00e42a23          	sw	a4,20(s0)
    39d4:	000400a3          	sb	zero,1(s0)
    39d8:	00001517          	auipc	a0,0x1
    39dc:	dc850513          	addi	a0,a0,-568 # 47a0 <PIo2+0x4c4>
    39e0:	9081a823          	sw	s0,-1776(gp) # 5640 <_ZL5FatFs>
    39e4:	9f8ff0ef          	jal	ra,2bdc <_Z8EchoUARTPKc>
    39e8:	03c12083          	lw	ra,60(sp)
    39ec:	03812403          	lw	s0,56(sp)
    39f0:	03012903          	lw	s2,48(sp)
    39f4:	00048513          	mv	a0,s1
    39f8:	03412483          	lw	s1,52(sp)
    39fc:	04010113          	addi	sp,sp,64
    3a00:	00008067          	ret
    3a04:	00200513          	li	a0,2
    3a08:	a08ff0ef          	jal	ra,2c10 <_Z7EchoIntm>
    3a0c:	03c12083          	lw	ra,60(sp)
    3a10:	03812403          	lw	s0,56(sp)
    3a14:	00700493          	li	s1,7
    3a18:	03012903          	lw	s2,48(sp)
    3a1c:	00048513          	mv	a0,s1
    3a20:	03412483          	lw	s1,52(sp)
    3a24:	04010113          	addi	sp,sp,64
    3a28:	00008067          	ret
    3a2c:	03c12083          	lw	ra,60(sp)
    3a30:	03812403          	lw	s0,56(sp)
    3a34:	00100493          	li	s1,1
    3a38:	03012903          	lw	s2,48(sp)
    3a3c:	00048513          	mv	a0,s1
    3a40:	03412483          	lw	s1,52(sp)
    3a44:	04010113          	addi	sp,sp,64
    3a48:	00008067          	ret
    3a4c:	00300513          	li	a0,3
    3a50:	9c0ff0ef          	jal	ra,2c10 <_Z7EchoIntm>
    3a54:	00100493          	li	s1,1
    3a58:	dc9ff06f          	j	3820 <_Z8pf_mountP5FATFS+0xbc>
    3a5c:	00a907b3          	add	a5,s2,a0
    3a60:	00200693          	li	a3,2
    3a64:	f5dff06f          	j	39c0 <_Z8pf_mountP5FATFS+0x25c>

00003a68 <_Z7pf_openPKc>:
    3a68:	fb010113          	addi	sp,sp,-80
    3a6c:	04812423          	sw	s0,72(sp)
    3a70:	04112623          	sw	ra,76(sp)
    3a74:	9101a403          	lw	s0,-1776(gp) # 5640 <_ZL5FatFs>
    3a78:	08040263          	beqz	s0,3afc <_Z7pf_openPKc+0x94>
    3a7c:	00050613          	mv	a2,a0
    3a80:	000400a3          	sb	zero,1(s0)
    3a84:	00010793          	mv	a5,sp
    3a88:	02010593          	addi	a1,sp,32
    3a8c:	00c10513          	addi	a0,sp,12
    3a90:	00f12823          	sw	a5,16(sp)
    3a94:	8b1ff0ef          	jal	ra,3344 <_ZL11follow_pathP3DIRPhPKc>
    3a98:	04051063          	bnez	a0,3ad8 <_Z7pf_openPKc+0x70>
    3a9c:	02014783          	lbu	a5,32(sp)
    3aa0:	04078463          	beqz	a5,3ae8 <_Z7pf_openPKc+0x80>
    3aa4:	02b14783          	lbu	a5,43(sp)
    3aa8:	0107f793          	andi	a5,a5,16
    3aac:	02079e63          	bnez	a5,3ae8 <_Z7pf_openPKc+0x80>
    3ab0:	03415783          	lhu	a5,52(sp)
    3ab4:	03a15703          	lhu	a4,58(sp)
    3ab8:	01079793          	slli	a5,a5,0x10
    3abc:	00e7e7b3          	or	a5,a5,a4
    3ac0:	02f42023          	sw	a5,32(s0)
    3ac4:	03c12783          	lw	a5,60(sp)
    3ac8:	00042c23          	sw	zero,24(s0)
    3acc:	00f42e23          	sw	a5,28(s0)
    3ad0:	00100793          	li	a5,1
    3ad4:	00f400a3          	sb	a5,1(s0)
    3ad8:	04c12083          	lw	ra,76(sp)
    3adc:	04812403          	lw	s0,72(sp)
    3ae0:	05010113          	addi	sp,sp,80
    3ae4:	00008067          	ret
    3ae8:	04c12083          	lw	ra,76(sp)
    3aec:	04812403          	lw	s0,72(sp)
    3af0:	00300513          	li	a0,3
    3af4:	05010113          	addi	sp,sp,80
    3af8:	00008067          	ret
    3afc:	04c12083          	lw	ra,76(sp)
    3b00:	04812403          	lw	s0,72(sp)
    3b04:	00600513          	li	a0,6
    3b08:	05010113          	addi	sp,sp,80
    3b0c:	00008067          	ret

00003b10 <_Z7pf_readPvtPt>:
    3b10:	fd010113          	addi	sp,sp,-48
    3b14:	01312e23          	sw	s3,28(sp)
    3b18:	91018993          	addi	s3,gp,-1776 # 5640 <_ZL5FatFs>
    3b1c:	01612823          	sw	s6,16(sp)
    3b20:	0009ab03          	lw	s6,0(s3)
    3b24:	02112623          	sw	ra,44(sp)
    3b28:	02812423          	sw	s0,40(sp)
    3b2c:	02912223          	sw	s1,36(sp)
    3b30:	03212023          	sw	s2,32(sp)
    3b34:	01412c23          	sw	s4,24(sp)
    3b38:	01512a23          	sw	s5,20(sp)
    3b3c:	01712623          	sw	s7,12(sp)
    3b40:	01812423          	sw	s8,8(sp)
    3b44:	00061023          	sh	zero,0(a2)
    3b48:	180b0663          	beqz	s6,3cd4 <_Z7pf_readPvtPt+0x1c4>
    3b4c:	001b4783          	lbu	a5,1(s6)
    3b50:	00050913          	mv	s2,a0
    3b54:	00500513          	li	a0,5
    3b58:	0017f793          	andi	a5,a5,1
    3b5c:	0a078463          	beqz	a5,3c04 <_Z7pf_readPvtPt+0xf4>
    3b60:	018b2703          	lw	a4,24(s6)
    3b64:	01cb2783          	lw	a5,28(s6)
    3b68:	00060b93          	mv	s7,a2
    3b6c:	00058493          	mv	s1,a1
    3b70:	40e787b3          	sub	a5,a5,a4
    3b74:	14b7e463          	bltu	a5,a1,3cbc <_Z7pf_readPvtPt+0x1ac>
    3b78:	00090c13          	mv	s8,s2
    3b7c:	00100a93          	li	s5,1
    3b80:	20000a13          	li	s4,512
    3b84:	06048e63          	beqz	s1,3c00 <_Z7pf_readPvtPt+0xf0>
    3b88:	1ff77793          	andi	a5,a4,511
    3b8c:	0a078463          	beqz	a5,3c34 <_Z7pf_readPvtPt+0x124>
    3b90:	028b2583          	lw	a1,40(s6)
    3b94:	40fa0733          	sub	a4,s4,a5
    3b98:	01071713          	slli	a4,a4,0x10
    3b9c:	01075713          	srli	a4,a4,0x10
    3ba0:	01079613          	slli	a2,a5,0x10
    3ba4:	01065613          	srli	a2,a2,0x10
    3ba8:	00070413          	mv	s0,a4
    3bac:	00e4f463          	bgeu	s1,a4,3bb4 <_Z7pf_readPvtPt+0xa4>
    3bb0:	00048413          	mv	s0,s1
    3bb4:	01041413          	slli	s0,s0,0x10
    3bb8:	01045413          	srli	s0,s0,0x10
    3bbc:	00000513          	li	a0,0
    3bc0:	00090463          	beqz	s2,3bc8 <_Z7pf_readPvtPt+0xb8>
    3bc4:	000c0513          	mv	a0,s8
    3bc8:	00040693          	mv	a3,s0
    3bcc:	340000ef          	jal	ra,3f0c <_Z10disk_readpPhmtt>
    3bd0:	0e051063          	bnez	a0,3cb0 <_Z7pf_readPvtPt+0x1a0>
    3bd4:	018b2703          	lw	a4,24(s6)
    3bd8:	000bd783          	lhu	a5,0(s7)
    3bdc:	408484b3          	sub	s1,s1,s0
    3be0:	00e40733          	add	a4,s0,a4
    3be4:	00eb2c23          	sw	a4,24(s6)
    3be8:	00f407b3          	add	a5,s0,a5
    3bec:	01049493          	slli	s1,s1,0x10
    3bf0:	0104d493          	srli	s1,s1,0x10
    3bf4:	00fb9023          	sh	a5,0(s7)
    3bf8:	008c0c33          	add	s8,s8,s0
    3bfc:	f80496e3          	bnez	s1,3b88 <_Z7pf_readPvtPt+0x78>
    3c00:	00000513          	li	a0,0
    3c04:	02c12083          	lw	ra,44(sp)
    3c08:	02812403          	lw	s0,40(sp)
    3c0c:	02412483          	lw	s1,36(sp)
    3c10:	02012903          	lw	s2,32(sp)
    3c14:	01c12983          	lw	s3,28(sp)
    3c18:	01812a03          	lw	s4,24(sp)
    3c1c:	01412a83          	lw	s5,20(sp)
    3c20:	01012b03          	lw	s6,16(sp)
    3c24:	00c12b83          	lw	s7,12(sp)
    3c28:	00812c03          	lw	s8,8(sp)
    3c2c:	03010113          	addi	sp,sp,48
    3c30:	00008067          	ret
    3c34:	002b4783          	lbu	a5,2(s6)
    3c38:	00975593          	srli	a1,a4,0x9
    3c3c:	fff78793          	addi	a5,a5,-1
    3c40:	00b7f5b3          	and	a1,a5,a1
    3c44:	0ff5f413          	andi	s0,a1,255
    3c48:	04040263          	beqz	s0,3c8c <_Z7pf_readPvtPt+0x17c>
    3c4c:	0009a703          	lw	a4,0(s3)
    3c50:	024b2503          	lw	a0,36(s6)
    3c54:	00872783          	lw	a5,8(a4)
    3c58:	ffe50513          	addi	a0,a0,-2
    3c5c:	ffe78793          	addi	a5,a5,-2
    3c60:	04f57863          	bgeu	a0,a5,3cb0 <_Z7pf_readPvtPt+0x1a0>
    3c64:	00274583          	lbu	a1,2(a4)
    3c68:	01472783          	lw	a5,20(a4)
    3c6c:	02a58533          	mul	a0,a1,a0
    3c70:	00f505b3          	add	a1,a0,a5
    3c74:	02058e63          	beqz	a1,3cb0 <_Z7pf_readPvtPt+0x1a0>
    3c78:	018b2703          	lw	a4,24(s6)
    3c7c:	00b405b3          	add	a1,s0,a1
    3c80:	02bb2423          	sw	a1,40(s6)
    3c84:	1ff77793          	andi	a5,a4,511
    3c88:	f0dff06f          	j	3b94 <_Z7pf_readPvtPt+0x84>
    3c8c:	02071e63          	bnez	a4,3cc8 <_Z7pf_readPvtPt+0x1b8>
    3c90:	020b2503          	lw	a0,32(s6)
    3c94:	00aafe63          	bgeu	s5,a0,3cb0 <_Z7pf_readPvtPt+0x1a0>
    3c98:	0009a703          	lw	a4,0(s3)
    3c9c:	02ab2223          	sw	a0,36(s6)
    3ca0:	ffe50513          	addi	a0,a0,-2
    3ca4:	00872783          	lw	a5,8(a4)
    3ca8:	ffe78793          	addi	a5,a5,-2
    3cac:	faf56ce3          	bltu	a0,a5,3c64 <_Z7pf_readPvtPt+0x154>
    3cb0:	000b00a3          	sb	zero,1(s6)
    3cb4:	00100513          	li	a0,1
    3cb8:	f4dff06f          	j	3c04 <_Z7pf_readPvtPt+0xf4>
    3cbc:	01079493          	slli	s1,a5,0x10
    3cc0:	0104d493          	srli	s1,s1,0x10
    3cc4:	eb5ff06f          	j	3b78 <_Z7pf_readPvtPt+0x68>
    3cc8:	024b2503          	lw	a0,36(s6)
    3ccc:	dd0ff0ef          	jal	ra,329c <_ZL7get_fatm>
    3cd0:	fc5ff06f          	j	3c94 <_Z7pf_readPvtPt+0x184>
    3cd4:	00600513          	li	a0,6
    3cd8:	f2dff06f          	j	3c04 <_Z7pf_readPvtPt+0xf4>

00003cdc <_Z8pf_lseekm>:
    3cdc:	fc010113          	addi	sp,sp,-64
    3ce0:	02912a23          	sw	s1,52(sp)
    3ce4:	91018493          	addi	s1,gp,-1776 # 5640 <_ZL5FatFs>
    3ce8:	02812c23          	sw	s0,56(sp)
    3cec:	0004a403          	lw	s0,0(s1)
    3cf0:	02112e23          	sw	ra,60(sp)
    3cf4:	03212823          	sw	s2,48(sp)
    3cf8:	03312623          	sw	s3,44(sp)
    3cfc:	03412423          	sw	s4,40(sp)
    3d00:	03512223          	sw	s5,36(sp)
    3d04:	03612023          	sw	s6,32(sp)
    3d08:	01712e23          	sw	s7,28(sp)
    3d0c:	01812c23          	sw	s8,24(sp)
    3d10:	1c040663          	beqz	s0,3edc <_Z8pf_lseekm+0x200>
    3d14:	00144703          	lbu	a4,1(s0)
    3d18:	00050793          	mv	a5,a0
    3d1c:	00500513          	li	a0,5
    3d20:	00177713          	andi	a4,a4,1
    3d24:	08070863          	beqz	a4,3db4 <_Z8pf_lseekm+0xd8>
    3d28:	01c42503          	lw	a0,28(s0)
    3d2c:	0aa7ec63          	bltu	a5,a0,3de4 <_Z8pf_lseekm+0x108>
    3d30:	01842783          	lw	a5,24(s0)
    3d34:	00042c23          	sw	zero,24(s0)
    3d38:	06050e63          	beqz	a0,3db4 <_Z8pf_lseekm+0xd8>
    3d3c:	00244b03          	lbu	s6,2(s0)
    3d40:	009b1b13          	slli	s6,s6,0x9
    3d44:	0a078a63          	beqz	a5,3df8 <_Z8pf_lseekm+0x11c>
    3d48:	fff78713          	addi	a4,a5,-1
    3d4c:	fff50793          	addi	a5,a0,-1
    3d50:	0367d7b3          	divu	a5,a5,s6
    3d54:	036756b3          	divu	a3,a4,s6
    3d58:	0ad7e063          	bltu	a5,a3,3df8 <_Z8pf_lseekm+0x11c>
    3d5c:	41600bb3          	neg	s7,s6
    3d60:	02442783          	lw	a5,36(s0)
    3d64:	00ebf733          	and	a4,s7,a4
    3d68:	00e42c23          	sw	a4,24(s0)
    3d6c:	40e50bb3          	sub	s7,a0,a4
    3d70:	177b7a63          	bgeu	s6,s7,3ee4 <_Z8pf_lseekm+0x208>
    3d74:	00100713          	li	a4,1
    3d78:	00040693          	mv	a3,s0
    3d7c:	02f77863          	bgeu	a4,a5,3dac <_Z8pf_lseekm+0xd0>
    3d80:	10000a37          	lui	s4,0x10000
    3d84:	00200993          	li	s3,2
    3d88:	00c10c13          	addi	s8,sp,12
    3d8c:	00300913          	li	s2,3
    3d90:	fffa0a13          	addi	s4,s4,-1 # fffffff <_end+0xfff9fb7>
    3d94:	00100a93          	li	s5,1
    3d98:	0086a703          	lw	a4,8(a3)
    3d9c:	00e7f863          	bgeu	a5,a4,3dac <_Z8pf_lseekm+0xd0>
    3da0:	0006c703          	lbu	a4,0(a3)
    3da4:	0d370063          	beq	a4,s3,3e64 <_Z8pf_lseekm+0x188>
    3da8:	07270063          	beq	a4,s2,3e08 <_Z8pf_lseekm+0x12c>
    3dac:	000400a3          	sb	zero,1(s0)
    3db0:	00100513          	li	a0,1
    3db4:	03c12083          	lw	ra,60(sp)
    3db8:	03812403          	lw	s0,56(sp)
    3dbc:	03412483          	lw	s1,52(sp)
    3dc0:	03012903          	lw	s2,48(sp)
    3dc4:	02c12983          	lw	s3,44(sp)
    3dc8:	02812a03          	lw	s4,40(sp)
    3dcc:	02412a83          	lw	s5,36(sp)
    3dd0:	02012b03          	lw	s6,32(sp)
    3dd4:	01c12b83          	lw	s7,28(sp)
    3dd8:	01812c03          	lw	s8,24(sp)
    3ddc:	04010113          	addi	sp,sp,64
    3de0:	00008067          	ret
    3de4:	00078513          	mv	a0,a5
    3de8:	01842783          	lw	a5,24(s0)
    3dec:	00042c23          	sw	zero,24(s0)
    3df0:	fc0502e3          	beqz	a0,3db4 <_Z8pf_lseekm+0xd8>
    3df4:	f49ff06f          	j	3d3c <_Z8pf_lseekm+0x60>
    3df8:	02042783          	lw	a5,32(s0)
    3dfc:	00050b93          	mv	s7,a0
    3e00:	02f42223          	sw	a5,36(s0)
    3e04:	f6dff06f          	j	3d70 <_Z8pf_lseekm+0x94>
    3e08:	00c6a503          	lw	a0,12(a3)
    3e0c:	07f7f613          	andi	a2,a5,127
    3e10:	0077d593          	srli	a1,a5,0x7
    3e14:	00a585b3          	add	a1,a1,a0
    3e18:	00400693          	li	a3,4
    3e1c:	00261613          	slli	a2,a2,0x2
    3e20:	000c0513          	mv	a0,s8
    3e24:	0e8000ef          	jal	ra,3f0c <_Z10disk_readpPhmtt>
    3e28:	f80512e3          	bnez	a0,3dac <_Z8pf_lseekm+0xd0>
    3e2c:	00c12783          	lw	a5,12(sp)
    3e30:	0147f7b3          	and	a5,a5,s4
    3e34:	f6fafce3          	bgeu	s5,a5,3dac <_Z8pf_lseekm+0xd0>
    3e38:	00842703          	lw	a4,8(s0)
    3e3c:	f6e7f8e3          	bgeu	a5,a4,3dac <_Z8pf_lseekm+0xd0>
    3e40:	01842503          	lw	a0,24(s0)
    3e44:	02f42223          	sw	a5,36(s0)
    3e48:	416b8733          	sub	a4,s7,s6
    3e4c:	016506b3          	add	a3,a0,s6
    3e50:	00d42c23          	sw	a3,24(s0)
    3e54:	0004a683          	lw	a3,0(s1)
    3e58:	02eb7c63          	bgeu	s6,a4,3e90 <_Z8pf_lseekm+0x1b4>
    3e5c:	00070b93          	mv	s7,a4
    3e60:	f39ff06f          	j	3d98 <_Z8pf_lseekm+0xbc>
    3e64:	00c6a703          	lw	a4,12(a3)
    3e68:	0ff7f613          	andi	a2,a5,255
    3e6c:	0087d593          	srli	a1,a5,0x8
    3e70:	00200693          	li	a3,2
    3e74:	00161613          	slli	a2,a2,0x1
    3e78:	00e585b3          	add	a1,a1,a4
    3e7c:	000c0513          	mv	a0,s8
    3e80:	08c000ef          	jal	ra,3f0c <_Z10disk_readpPhmtt>
    3e84:	f20514e3          	bnez	a0,3dac <_Z8pf_lseekm+0xd0>
    3e88:	00c15783          	lhu	a5,12(sp)
    3e8c:	fa9ff06f          	j	3e34 <_Z8pf_lseekm+0x158>
    3e90:	01750533          	add	a0,a0,s7
    3e94:	0086a703          	lw	a4,8(a3)
    3e98:	ffe78793          	addi	a5,a5,-2
    3e9c:	00a42c23          	sw	a0,24(s0)
    3ea0:	ffe70713          	addi	a4,a4,-2
    3ea4:	f0e7f4e3          	bgeu	a5,a4,3dac <_Z8pf_lseekm+0xd0>
    3ea8:	0026c703          	lbu	a4,2(a3)
    3eac:	0146a683          	lw	a3,20(a3)
    3eb0:	02f707b3          	mul	a5,a4,a5
    3eb4:	00d787b3          	add	a5,a5,a3
    3eb8:	ee078ae3          	beqz	a5,3dac <_Z8pf_lseekm+0xd0>
    3ebc:	00244703          	lbu	a4,2(s0)
    3ec0:	00955693          	srli	a3,a0,0x9
    3ec4:	00000513          	li	a0,0
    3ec8:	fff70713          	addi	a4,a4,-1
    3ecc:	00d77733          	and	a4,a4,a3
    3ed0:	00f707b3          	add	a5,a4,a5
    3ed4:	02f42423          	sw	a5,40(s0)
    3ed8:	eddff06f          	j	3db4 <_Z8pf_lseekm+0xd8>
    3edc:	00600513          	li	a0,6
    3ee0:	ed5ff06f          	j	3db4 <_Z8pf_lseekm+0xd8>
    3ee4:	00040693          	mv	a3,s0
    3ee8:	fadff06f          	j	3e94 <_Z8pf_lseekm+0x1b8>

00003eec <_Z15disk_initializev>:
    3eec:	ff010113          	addi	sp,sp,-16
    3ef0:	00112623          	sw	ra,12(sp)
    3ef4:	b44ff0ef          	jal	ra,3238 <_Z13SDCardStartupv>
    3ef8:	00c12083          	lw	ra,12(sp)
    3efc:	00150513          	addi	a0,a0,1
    3f00:	00153513          	seqz	a0,a0
    3f04:	01010113          	addi	sp,sp,16
    3f08:	00008067          	ret

00003f0c <_Z10disk_readpPhmtt>:
    3f0c:	00058793          	mv	a5,a1
    3f10:	ff010113          	addi	sp,sp,-16
    3f14:	00068593          	mv	a1,a3
    3f18:	00078693          	mv	a3,a5
    3f1c:	00112623          	sw	ra,12(sp)
    3f20:	9b8ff0ef          	jal	ra,30d8 <_Z20SDReadMultipleBlocksPhmmm>
    3f24:	00c12083          	lw	ra,12(sp)
    3f28:	00150513          	addi	a0,a0,1
    3f2c:	00153513          	seqz	a0,a0
    3f30:	01010113          	addi	sp,sp,16
    3f34:	00008067          	ret
ELF Header:
  Magic:   7f 45 4c 46 01 01 01 00 00 00 00 00 00 00 00 00 
  Class:                             ELF32
  Data:                              2's complement, little endian
  Version:                           1 (current)
  OS/ABI:                            UNIX - System V
  ABI Version:                       0
  Type:                              EXEC (Executable file)
  Machine:                           RISC-V
  Version:                           0x1
  Entry point address:               0x0
  Start of program headers:          52 (bytes into file)
  Start of section headers:          38724 (bytes into file)
  Flags:                             0x2, single-float ABI
  Size of this header:               52 (bytes)
  Size of program headers:           32 (bytes)
  Number of program headers:         1
  Size of section headers:           40 (bytes)
  Number of section headers:         25
  Section header string table index: 24

Section Headers:
  [Nr] Name              Type            Addr     Off    Size   ES Flg Lk Inf Al
  [ 0]                   NULL            00000000 000000 000000 00      0   0  0
  [ 1] .boot             PROGBITS        00000000 001000 00017c 00  AX  0   0  4
  [ 2] .text             PROGBITS        0000017c 00117c 003dbc 00  AX  0   0  4
  [ 3] .rodata           PROGBITS        00003f38 004f38 0008f4 00   A  0   0  4
  [ 4] .srodata          PROGBITS        0000482c 00582c 000004 00   A  0   0  4
  [ 5] .eh_frame         PROGBITS        00004830 005830 00045c 00   A  0   0  4
  [ 6] .data             PROGBITS        00004c90 005c90 00084c 00  WA  0   0  8
  [ 7] .got              PROGBITS        000054dc 0064dc 00004c 04  WA  0   0  4
  [ 8] .got.plt          PROGBITS        00005528 006528 000008 04  WA  0   0  4
  [ 9] .sdata            PROGBITS        00005530 006530 000094 00  WA  0   0  4
  [10] .sbss             NOBITS          000055c4 0065c4 000014 00  WA  0   0  4
  [11] .bss              NOBITS          000055d8 0065c4 00006c 00  WA  0   0  4
  [12] .stack            NOBITS          00005644 0065c4 000a00 00  WA  0   0  1
  [13] .comment          PROGBITS        00000000 0065c4 000012 01  MS  0   0  1
  [14] .riscv.attributes RISCV_ATTRIBUTE 00000000 0065d6 000026 00      0   0  1
  [15] .debug_info       PROGBITS        00000000 0065fc 0007b2 00      0   0  1
  [16] .debug_abbrev     PROGBITS        00000000 006dae 00019d 00      0   0  1
  [17] .debug_loc        PROGBITS        00000000 006f4b 000bcd 00      0   0  1
  [18] .debug_aranges    PROGBITS        00000000 007b18 000020 00      0   0  1
  [19] .debug_ranges     PROGBITS        00000000 007b38 0000f8 00      0   0  1
  [20] .debug_line       PROGBITS        00000000 007c30 00074f 00      0   0  1
  [21] .debug_str        PROGBITS        00000000 00837f 00028d 01  MS  0   0  1
  [22] .symtab           SYMTAB          00000000 00860c 0009d0 10     23  70  4
  [23] .strtab           STRTAB          00000000 008fdc 000684 00      0   0  1
  [24] .shstrtab         STRTAB          00000000 009660 0000e3 00      0   0  1
Key to Flags:
  W (write), A (alloc), X (execute), M (merge), S (strings), I (info),
  L (link order), O (extra OS processing required), G (group), T (TLS),
  C (compressed), x (unknown), o (OS specific), E (exclude),
  p (processor specific)

There are no section groups in this file.

Program Headers:
  Type           Offset   VirtAddr   PhysAddr   FileSiz MemSiz  Flg Align
  LOAD           0x001000 0x00000000 0x00000000 0x055c4 0x06044 RWE 0x1000

 Section to Segment mapping:
  Segment Sections...
   00     .boot .text .rodata .srodata .eh_frame .data .got .got.plt .sdata .sbss .bss .stack 

There is no dynamic section in this file.

There are no relocations in this file.

The decoding of unwind sections for machine type RISC-V is not currently supported.

Symbol table '.symtab' contains 157 entries:
   Num:    Value  Size Type    Bind   Vis      Ndx Name
     0: 00000000     0 NOTYPE  LOCAL  DEFAULT  UND 
     1: 00000000     0 SECTION LOCAL  DEFAULT    1 
     2: 0000017c     0 SECTION LOCAL  DEFAULT    2 
     3: 00003f38     0 SECTION LOCAL  DEFAULT    3 
     4: 0000482c     0 SECTION LOCAL  DEFAULT    4 
     5: 00004830     0 SECTION LOCAL  DEFAULT    5 
     6: 00004c90     0 SECTION LOCAL  DEFAULT    6 
     7: 000054dc     0 SECTION LOCAL  DEFAULT    7 
     8: 00005528     0 SECTION LOCAL  DEFAULT    8 
     9: 00005530     0 SECTION LOCAL  DEFAULT    9 
    10: 000055c4     0 SECTION LOCAL  DEFAULT   10 
    11: 000055d8     0 SECTION LOCAL  DEFAULT   11 
    12: 00005644     0 SECTION LOCAL  DEFAULT   12 
    13: 00000000     0 SECTION LOCAL  DEFAULT   13 
    14: 00000000     0 SECTION LOCAL  DEFAULT   14 
    15: 00000000     0 SECTION LOCAL  DEFAULT   15 
    16: 00000000     0 SECTION LOCAL  DEFAULT   16 
    17: 00000000     0 SECTION LOCAL  DEFAULT   17 
    18: 00000000     0 SECTION LOCAL  DEFAULT   18 
    19: 00000000     0 SECTION LOCAL  DEFAULT   19 
    20: 00000000     0 SECTION LOCAL  DEFAULT   20 
    21: 00000000     0 SECTION LOCAL  DEFAULT   21 
    22: 00000000     0 FILE    LOCAL  DEFAULT  ABS ROM_nekoichi.cpp
    23: 00000148     0 NOTYPE  LOCAL  DEFAULT    1 noatexitfound
    24: 000054c0     4 OBJECT  LOCAL  DEFAULT    6 _ZZ16DrawRotatingRectffE4
    25: 00000000     0 FILE    LOCAL  DEFAULT  ABS atexit.c
    26: 00000000     0 FILE    LOCAL  DEFAULT  ABS fini.c
    27: 00000000     0 FILE    LOCAL  DEFAULT  ABS init.c
    28: 00000000     0 FILE    LOCAL  DEFAULT  ABS malloc.c
    29: 00000000     0 FILE    LOCAL  DEFAULT  ABS mallocr.c
    30: 00000000     0 FILE    LOCAL  DEFAULT  ABS memcpy.c
    31: 00000000     0 FILE    LOCAL  DEFAULT  ABS mlock.c
    32: 00000000     0 FILE    LOCAL  DEFAULT  ABS sbrkr.c
    33: 00000000     0 FILE    LOCAL  DEFAULT  ABS __atexit.c
    34: 00000000     0 FILE    LOCAL  DEFAULT  ABS mallocr.c
    35: 00000000     0 FILE    LOCAL  DEFAULT  ABS sys_sbrk.c
    36: 000055d4     4 OBJECT  LOCAL  DEFAULT   10 heap_end.0
    37: 00000000     0 FILE    LOCAL  DEFAULT  ABS errno.c
    38: 00000000     0 FILE    LOCAL  DEFAULT  ABS sf_cos.c
    39: 00000000     0 FILE    LOCAL  DEFAULT  ABS sf_sin.c
    40: 00000000     0 FILE    LOCAL  DEFAULT  ABS ef_rem_pio2.c
    41: 00003f38   128 OBJECT  LOCAL  DEFAULT    3 npio2_hw
    42: 00003fb8   792 OBJECT  LOCAL  DEFAULT    3 two_over_pi
    43: 00000000     0 FILE    LOCAL  DEFAULT  ABS kf_cos.c
    44: 00000000     0 FILE    LOCAL  DEFAULT  ABS kf_rem_pio2.c
    45: 000042d0    12 OBJECT  LOCAL  DEFAULT    3 init_jk
    46: 000042dc    44 OBJECT  LOCAL  DEFAULT    3 PIo2
    47: 00000000     0 FILE    LOCAL  DEFAULT  ABS kf_sin.c
    48: 00000000     0 FILE    LOCAL  DEFAULT  ABS sf_fabs.c
    49: 00000000     0 FILE    LOCAL  DEFAULT  ABS sf_floor.c
    50: 00000000     0 FILE    LOCAL  DEFAULT  ABS sf_scalbn.c
    51: 00000000     0 FILE    LOCAL  DEFAULT  ABS utils.cpp
    52: 00000000     0 FILE    LOCAL  DEFAULT  ABS SDCARD.cpp
    53: 00000000     0 FILE    LOCAL  DEFAULT  ABS FAT.cpp
    54: 0000329c   168 FUNC    LOCAL  DEFAULT    2 _ZL7get_fatm
    55: 00003344  1056 FUNC    LOCAL  DEFAULT    2 _ZL11follow_pathP3DIRPhPK
    56: 00005640     4 OBJECT  LOCAL  DEFAULT   11 _ZL5FatFs
    57: 000047ac   128 OBJECT  LOCAL  DEFAULT    3 _ZL3cvt
    58: 00000000     0 FILE    LOCAL  DEFAULT  ABS diskio.cpp
    59: 00000000     0 FILE    LOCAL  DEFAULT  ABS impure.c
    60: 00005098  1064 OBJECT  LOCAL  DEFAULT    6 impure_data
    61: 00000000     0 FILE    LOCAL  DEFAULT  ABS libgcc2.c
    62: 00000000     0 FILE    LOCAL  DEFAULT  ABS 
    63: 0000482c     0 NOTYPE  LOCAL  DEFAULT    4 __fini_array_end
    64: 0000482c     0 NOTYPE  LOCAL  DEFAULT    4 __fini_array_start
    65: 0000482c     0 NOTYPE  LOCAL  DEFAULT    4 __init_array_end
    66: 0000482c     0 NOTYPE  LOCAL  DEFAULT    4 __preinit_array_end
    67: 000054dc     0 OBJECT  LOCAL  DEFAULT    7 _GLOBAL_OFFSET_TABLE_
    68: 0000482c     0 NOTYPE  LOCAL  DEFAULT    4 __init_array_start
    69: 0000482c     0 NOTYPE  LOCAL  DEFAULT    4 __preinit_array_start
    70: 00003f0c    44 FUNC    GLOBAL DEFAULT    2 _Z10disk_readpPhmtt
    71: 00003a68   168 FUNC    GLOBAL DEFAULT    2 _Z7pf_openPKc
    72: 00005d30     0 NOTYPE  GLOBAL DEFAULT  ABS __global_pointer$
    73: 00004c90     0 NOTYPE  GLOBAL DEFAULT    6 _fdata
    74: 00000c54     4 FUNC    GLOBAL DEFAULT    2 __malloc_unlock
    75: 00002fac   300 FUNC    GLOBAL DEFAULT    2 _Z17SDReadSingleBlockmPhS
    76: 00001210    12 FUNC    GLOBAL DEFAULT    2 __errno
    77: 00002878    76 FUNC    GLOBAL DEFAULT    2 _Z7loadelfPKc
    78: 00001360   720 FUNC    GLOBAL DEFAULT    2 __ieee754_rem_pio2f
    79: 000055d0     4 OBJECT  GLOBAL DEFAULT   10 errno
    80: 0000482c     0 NOTYPE  GLOBAL DEFAULT    3 _etext
    81: 000054d4     4 OBJECT  GLOBAL DEFAULT    6 UARTRXStatus
    82: 00005d30     0 NOTYPE  GLOBAL DEFAULT    9 _gp
    83: 00003764   772 FUNC    GLOBAL DEFAULT    2 _Z8pf_mountP5FATFS
    84: 0000017c     0 NOTYPE  GLOBAL DEFAULT    1 _boot
    85: 00003cdc   528 FUNC    GLOBAL DEFAULT    2 _Z8pf_lseekm
    86: 00000a4c   296 FUNC    GLOBAL DEFAULT    2 memcpy
    87: 00002c10   316 FUNC    GLOBAL DEFAULT    2 _Z7EchoIntm
    88: 000054c4     4 OBJECT  GLOBAL DEFAULT    6 GPUFIFO
    89: 00000288    16 FUNC    GLOBAL DEFAULT    2 malloc
    90: 000055d8     0 NOTYPE  GLOBAL DEFAULT   11 _bss_start
    91: 000055cc     4 OBJECT  GLOBAL DEFAULT   10 __malloc_top_pad
    92: 00000c58    92 FUNC    GLOBAL DEFAULT    2 _sbrk_r
    93: 00002074     8 FUNC    GLOBAL DEFAULT    2 fabsf
    94: 000055c8     4 OBJECT  GLOBAL DEFAULT   10 __malloc_max_sbrked_mem
    95: 000054c8     4 OBJECT  GLOBAL DEFAULT    6 SPIInput
    96: 0000482c     4 OBJECT  GLOBAL DEFAULT    4 _global_impure_ptr
    97: 00002448   300 FUNC    GLOBAL DEFAULT    2 _Z14SubmitGPUFramev
    98: 00002dc8   264 FUNC    GLOBAL DEFAULT    2 _Z19SDCheckVoltageRangeRm
    99: 000001ec   156 FUNC    GLOBAL DEFAULT    2 __libc_init_array
   100: 00001fe8   140 FUNC    GLOBAL DEFAULT    2 __kernel_sinf
   101: 00001198   120 FUNC    GLOBAL DEFAULT    2 _sbrk
   102: 000054d0     4 OBJECT  GLOBAL DEFAULT    6 UARTRX
   103: 0000121c   160 FUNC    GLOBAL DEFAULT    2 cosf
   104: 00005644     0 NOTYPE  GLOBAL DEFAULT   11 _bss_end
   105: 000054cc     4 OBJECT  GLOBAL DEFAULT    6 SPIOutput
   106: 00000190    92 FUNC    GLOBAL DEFAULT    2 __libc_fini_array
   107: 0000563c     4 OBJECT  GLOBAL DEFAULT   11 vramPage
   108: 00001630   256 FUNC    GLOBAL DEFAULT    2 __kernel_cosf
   109: 00006044     0 NOTYPE  GLOBAL DEFAULT   12 __stack_top
   110: 00000e88   784 FUNC    GLOBAL DEFAULT    2 _free_r
   111: 00002d4c   124 FUNC    GLOBAL DEFAULT    2 _Z6SDIdlev
   112: 0000017c     0 NOTYPE  GLOBAL DEFAULT    1 _ftext
   113: 00005530     4 OBJECT  GLOBAL DEFAULT    9 __malloc_sbrk_base
   114: 00000000   348 FUNC    GLOBAL DEFAULT    1 _start
   115: 00003eec    32 FUNC    GLOBAL DEFAULT    2 _Z15disk_initializev
   116: 00000cb4   156 FUNC    GLOBAL DEFAULT    2 __register_exitproc
   117: 000055d8    40 OBJECT  GLOBAL DEFAULT   11 __malloc_current_mallinfo
   118: 00004c90  1032 OBJECT  GLOBAL DEFAULT    6 __malloc_av_
   119: 00002574   160 FUNC    GLOBAL DEFAULT    2 _Z6RunELFv
   120: 00000c50     4 FUNC    GLOBAL DEFAULT    2 __malloc_lock
   121: 00002134   288 FUNC    GLOBAL DEFAULT    2 scalbnf
   122: 00000a00     0 NOTYPE  GLOBAL DEFAULT  ABS _STACK_SIZE
   123: 00000b74   220 FUNC    GLOBAL DEFAULT    2 memset
   124: 000029c8   532 FUNC    GLOBAL DEFAULT    2 main
   125: 000055c4     4 OBJECT  GLOBAL DEFAULT   10 __malloc_max_total_mem
   126: 00002614   612 FUNC    GLOBAL DEFAULT    2 _Z14parseelfheaderP16SElf
   127: 00002ed0   220 FUNC    GLOBAL DEFAULT    2 _Z10SDCardInitv
   128: 000002a8  1956 FUNC    GLOBAL DEFAULT    2 _malloc_r
   129: 00005644     0 NOTYPE  GLOBAL DEFAULT   12 _stack_end
   130: 00000d50   312 FUNC    GLOBAL DEFAULT    2 _malloc_trim_r
   131: 00005630     4 OBJECT  GLOBAL DEFAULT   11 gpuSideSubmitCounter
   132: 00002254   500 FUNC    GLOBAL DEFAULT    2 _Z16DrawRotatingRectff
   133: 00003238   100 FUNC    GLOBAL DEFAULT    2 _Z13SDCardStartupv
   134: 0000017c    20 FUNC    GLOBAL DEFAULT    2 atexit
   135: 00005538     4 OBJECT  GLOBAL DEFAULT    9 _impure_ptr
   136: 00005644     0 NOTYPE  GLOBAL DEFAULT   11 __BSS_END__$
   137: 00003b10   460 FUNC    GLOBAL DEFAULT    2 _Z7pf_readPvtPt
   138: 000012bc   164 FUNC    GLOBAL DEFAULT    2 sinf
   139: 0000562c     4 OBJECT  GLOBAL DEFAULT   11 branchaddress
   140: 00006044     0 NOTYPE  GLOBAL DEFAULT   12 __stack
   141: 00002bdc    52 FUNC    GLOBAL DEFAULT    2 _Z8EchoUARTPKc
   142: 000054dc     0 NOTYPE  GLOBAL DEFAULT    6 _edata
   143: 00006048     0 NOTYPE  GLOBAL DEFAULT   12 _end
   144: 000030d8   352 FUNC    GLOBAL DEFAULT    2 _Z20SDReadMultipleBlocksP
   145: 00005634     4 OBJECT  GLOBAL DEFAULT   11 gpuSubmitCounter
   146: 00005534     4 OBJECT  GLOBAL DEFAULT    9 __malloc_trim_threshold
   147: 0000296c    92 FUNC    GLOBAL DEFAULT    2 _Z13runbinaryblobv
   148: 0000015c    32 FUNC    GLOBAL DEFAULT    1 _exit
   149: 00001730  2232 FUNC    GLOBAL DEFAULT    2 __kernel_rem_pio2f
   150: 0000207c   184 FUNC    GLOBAL DEFAULT    2 floorf
   151: 000054d8     4 OBJECT  GLOBAL DEFAULT    6 UARTTX
   152: 00005600    44 OBJECT  GLOBAL DEFAULT   11 Fs
   153: 00005638     4 OBJECT  GLOBAL DEFAULT   11 sdcardavailable
   154: 000055c8     0 NOTYPE  GLOBAL DEFAULT   10 _fbss
   155: 00000298    16 FUNC    GLOBAL DEFAULT    2 free
   156: 000028c4   168 FUNC    GLOBAL DEFAULT    2 _Z14loadbinaryblobv

No version information found in this file.
Attribute Section: riscv
File Attributes
  Tag_RISCV_stack_align: 16-bytes
  Tag_RISCV_arch: "rv32i2p0_m2p0_f2p0"
