
./BOOT.elf:     file format elf32-littleriscv
./BOOT.elf
architecture: riscv:rv32, flags 0x00000112:
EXEC_P, HAS_SYMS, D_PAGED
start address 0x20000000

Program Header:
0x70000003 off    0x0000a76d vaddr 0x00000000 paddr 0x00000000 align 2**0
         filesz 0x00000025 memsz 0x00000000 flags r--
    LOAD off    0x00001000 vaddr 0x20000000 paddr 0x20000000 align 2**12
         filesz 0x00009740 memsz 0x0000a254 flags rwx

Sections:
Idx Name          Size      VMA       LMA       File off  Algn
  0 .boot         00000088  20000000  20000000  00001000  2**2
                  CONTENTS, ALLOC, LOAD, READONLY, CODE
  1 .text         00006a40  20000090  20000090  00001090  2**4
                  CONTENTS, ALLOC, LOAD, READONLY, CODE
  2 .rodata       00001198  20006ad0  20006ad0  00007ad0  2**2
                  CONTENTS, ALLOC, LOAD, READONLY, DATA
  3 .eh_frame     00000d88  20007c68  20007c68  00008c68  2**2
                  CONTENTS, ALLOC, LOAD, READONLY, DATA
  4 .data         00000cc8  200089f0  200089f0  000099f0  2**3
                  CONTENTS, ALLOC, LOAD, DATA
  5 .got          00000070  200096b8  200096b8  0000a6b8  2**2
                  CONTENTS, ALLOC, LOAD, DATA
  6 .got.plt      00000008  20009728  20009728  0000a728  2**2
                  CONTENTS, ALLOC, LOAD, DATA
  7 .sdata        00000010  20009730  20009730  0000a730  2**2
                  CONTENTS, ALLOC, LOAD, DATA
  8 .sbss         00000010  20009740  20009740  0000a740  2**2
                  ALLOC
  9 .bss          00000b04  20009750  20009750  0000a740  2**2
                  ALLOC
 10 .comment      0000002d  00000000  00000000  0000a740  2**0
                  CONTENTS, READONLY
 11 .riscv.attributes 00000025  00000000  00000000  0000a76d  2**0
                  CONTENTS, READONLY
SYMBOL TABLE:
20000000 l    d  .boot	00000000 .boot
20000090 l    d  .text	00000000 .text
20006ad0 l    d  .rodata	00000000 .rodata
20007c68 l    d  .eh_frame	00000000 .eh_frame
200089f0 l    d  .data	00000000 .data
200096b8 l    d  .got	00000000 .got
20009728 l    d  .got.plt	00000000 .got.plt
20009730 l    d  .sdata	00000000 .sdata
20009740 l    d  .sbss	00000000 .sbss
20009750 l    d  .bss	00000000 .bss
00000000 l    d  .comment	00000000 .comment
00000000 l    d  .riscv.attributes	00000000 .riscv.attributes
00000000 l    df *ABS*	00000000 rom.cpp
20000074 l       .boot	00000000 workerhartstart
2000005c l       .boot	00000000 noatexitfound
20009d90 l     O .bss	00000004 _ZL16numdetectedharts
200089f4 l     O .data	00000200 _ZL10currentdir
20009d94 l     O .bss	00000004 _ZL9havedrive
20009e1c l     O .bss	00000200 _ZL11commandline
20009d98 l     O .bss	00000004 _ZL6cmdlen
20009d8c l     O .bss	00000004 _ZL12mainloopdone
20009d9c l     O .bss	00000080 _ZL8filename
20009750 l     O .bss	00000004 _ZZ16ProcessKeyEventsvE9uppercase
00000000 l    df *ABS*	00000000 lib_a-memset.o
00000000 l    df *ABS*	00000000 lib_a-strcmp.o
00000000 l    df *ABS*	00000000 uart.c
00000000 l    df *ABS*	00000000 core.c
20008c50 l     O .data	00000004 _ZL10heap_start
00000000 l    df *ABS*	00000000 leds.c
00000000 l    df *ABS*	00000000 ringbuffer.c
00000000 l    df *ABS*	00000000 ps2.c
00000000 l    df *ABS*	00000000 sdcard.c
00000000 l    df *ABS*	00000000 ff.c
20001ff8 l     F .text	0000002c _ZL8ld_dwordPKh
20002024 l     F .text	0000002c _ZL9clst2sectP5FATFSm
20002050 l     F .text	0000003c _ZL10clmt_clustP3FILm
2000208c l     F .text	00000030 _ZL7sum_sfnPKh
200020bc l     F .text	000000e0 _ZL12get_ldnumberPPKc
20008e7c l     O .data	0000000c _ZL9VolumeStr
2000a21c l     O .bss	00000001 _ZL7CurrVol
2000219c l     F .text	00000070 _ZL8validateP7FFOBJIDPP5FATFS
2000220c l     F .text	00000094 _ZL11sync_windowP5FATFS
200022a0 l     F .text	00000068 _ZL11move_windowP5FATFSm
20002308 l     F .text	0000018c _ZL8check_fsP5FATFSm
20002494 l     F .text	000001f0 _ZL7put_fatP5FATFSmm
20002684 l     F .text	000003dc _ZL12mount_volumePPKcPP5FATFSh
2000a220 l     O .bss	0000000c _ZL5FatFs
2000a21e l     O .bss	00000002 _ZL4Fsid
2000a01c l     O .bss	00000200 _ZL6LfnBuf
20002a60 l     F .text	00000038 _ZL8ld_clustP5FATFSPKh.isra.0
20002a98 l     F .text	00000150 _ZL7get_fatP7FFOBJIDm.isra.0
20002be8 l     F .text	000001ac _ZL12create_chainP7FFOBJIDm
20002d94 l     F .text	000001ac _ZL8dir_nextP3DIRi
20002f40 l     F .text	00000128 _ZL7dir_sdiP3DIRm
20003068 l     F .text	00000274 _ZL8dir_findP3DIR
20007878 l     O .rodata	0000000d _ZL6LfnOfs
200032dc l     F .text	00000544 _ZL11follow_pathP3DIRPKc
200077f8 l     O .rodata	00000080 _ZL5ExCvt
00000000 l    df *ABS*	00000000 ffunicode.c
20007b68 l     O .rodata	00000100 _ZL5uc437
20007974 l     O .rodata	000001f2 _ZZ11ff_wtoupperE4cvt1
200078b8 l     O .rodata	000000bc _ZZ11ff_wtoupperE4cvt2
00000000 l    df *ABS*	00000000 diskio.c
00000000 l    df *ABS*	00000000 atexit.c
00000000 l    df *ABS*	00000000 fini.c
00000000 l    df *ABS*	00000000 init.c
00000000 l    df *ABS*	00000000 malloc.c
00000000 l    df *ABS*	00000000 mallocr.c
00000000 l    df *ABS*	00000000 memcmp.c
00000000 l    df *ABS*	00000000 memcpy.c
00000000 l    df *ABS*	00000000 mlock.c
00000000 l    df *ABS*	00000000 sbrkr.c
00000000 l    df *ABS*	00000000 strcat.c
00000000 l    df *ABS*	00000000 strchr.c
00000000 l    df *ABS*	00000000 strcpy.c
00000000 l    df *ABS*	00000000 strstr.c
20005de0 l     F .text	0000041c two_way_long_needle
00000000 l    df *ABS*	00000000 strtok.c
00000000 l    df *ABS*	00000000 strtok_r.c
00000000 l    df *ABS*	00000000 __atexit.c
00000000 l    df *ABS*	00000000 mallocr.c
00000000 l    df *ABS*	00000000 strlen.c
00000000 l    df *ABS*	00000000 strnlen.c
00000000 l    df *ABS*	00000000 task.c
00000000 l    df *ABS*	00000000 console.c
00000000 l    df *ABS*	00000000 gpu.c
00000000 l    df *ABS*	00000000 debugger.c
00000000 l    df *ABS*	00000000 buttons.c
00000000 l    df *ABS*	00000000 spi.c
00000000 l    df *ABS*	00000000 impure.c
20008e88 l     O .data	00000428 impure_data
20007c68 l       .eh_frame	00000000 __fini_array_end
20007c68 l       .eh_frame	00000000 __fini_array_start
20007c68 l       .eh_frame	00000000 __init_array_end
20007c68 l       .eh_frame	00000000 __preinit_array_end
200096b8 l     O .got	00000000 _GLOBAL_OFFSET_TABLE_
20007c68 l       .eh_frame	00000000 __init_array_start
20007c68 l       .eh_frame	00000000 __preinit_array_start
2000170c g     F .text	00000098 _Z14RingBufferReadPhPvm
20000c64 g     F .text	0000000c _Z13ClearTerminalv
20005d30 g     F .text	000000b0 strcpy
20009f30 g       *ABS*	00000000 __global_pointer$
200089f0 g       .data	00000000 _fdata
20000980 g     F .text	00000150 _Z32worker_interrupt_service_routinev
200003b8 g     F .text	00000150 _Z11HandleTimerv
200008a0 g     F .text	000000d8 _Z13HandleHARTIRQm
20001414 g     F .text	00000024 _Z9UARTFlushv
200016f8 g     F .text	00000014 _Z11SetLEDStatem
20005b08 g     F .text	00000004 __malloc_unlock
20001c8c g     F .text	00000120 _Z17SDReadSingleBlockmPhS_
2000118c g     F .text	00000150 _Z16ProcessKeyEventsv
20009754 g     O .bss	00000200 keymapprev
20006498 g     F .text	00000098 __strtok_r
20008c6c g     O .data	00000100 scantoasciitable_uppercase
20001838 g     F .text	00000094 _Z12ScanKeyboardPt
200016b0 g     F .text	00000014 _Z17E32SetTimeComparey
2000974c g     O .sbss	00000004 errno
20007c68 g       .rodata	00000000 _etext
20009f30 g       .sdata	00000000 _gp
20008c4c g     O .data	00000004 IO_UARTRX
20004e78 g     F .text	000000f0 ff_wtoupper
20008e6c g     O .data	00000004 PS2KEYBOARDDATAAVAIL
20001438 g     F .text	00000014 _Z11UARTPutCharc
20000088 g       .boot	00000000 _boot
2000032c g     F .text	0000008c _Z13HandleButtonsv
20005960 g     F .text	000001a4 memcpy
20004f74 g     F .text	00000030 disk_initialize
20008c5c g     O .data	00000004 LEDSTATE
200002e8 g     F .text	00000044 _Z10HandleUARTv
200018ec g     F .text	0000001c _Z7SPITxRxh
20005140 g     F .text	00000010 malloc
20009750 g       .bss	00000000 _bss_start
20009748 g     O .sbss	00000004 __malloc_top_pad
20004f68 g     F .text	0000000c disk_status
20005b0c g     F .text	0000005c _sbrk_r
20001e4c g     F .text	000000a8 _Z20SDReadMultipleBlocksPhmm
200048fc g     F .text	00000030 f_closedir
20005024 g     F .text	00000010 disk_ioctl
20009744 g     O .sbss	00000004 __malloc_max_sbrked_mem
2000973c g     O .sdata	00000004 _global_impure_ptr
200050a4 g     F .text	0000009c __libc_init_array
20008c64 g     O .data	00000004 m_writeOffset
200016c4 g     F .text	00000034 _sbrk
200013fc g     F .text	00000018 _Z11UARTHasDatav
20008d6c g     O .data	00000100 scantoasciitable_lowercase
20006a98 g     F .text	00000038 strnlen
2000a254 g       .bss	00000000 _bss_end
20004ddc g     F .text	00000064 ff_uni2oem
20005048 g     F .text	0000005c __libc_fini_array
200019f8 g     F .text	0000003c _Z11SDResponse1v
20008c60 g     O .data	00000004 IO_SPIRXTX
20005b68 g     F .text	00000088 strcat
20008e78 g     O .data	00000004 BUTTONCHANGE
20000ed4 g     F .text	000000fc _Z13RunExecutableiPKcb
20006704 g     F .text	00000308 _free_r
20001ad8 g     F .text	0000005c _Z6SDIdlev
2000446c g     F .text	0000003c f_close
20000088 g       .boot	00000000 _ftext
20009734 g     O .sdata	00000004 __malloc_sbrk_base
20000000 g     F .boot	00000088 _start
200061fc g     F .text	00000288 strstr
200015c0 g     F .text	000000dc _Z16UARTWriteDecimall
20006530 g     F .text	0000009c __register_exitproc
20003fec g     F .text	00000264 f_read
20000850 g     F .text	00000050 _Z10InstallISRv
2000492c g     F .text	000004b0 f_readdir
2000a22c g     O .bss	00000028 __malloc_current_mallinfo
20006484 g     F .text	00000014 strtok
20008e70 g     O .data	00000004 PS2KEYBOARDDATA
200058e8 g     F .text	00000078 memcmp
200092b0 g     O .data	00000408 __malloc_av_
20005b04 g     F .text	00000004 __malloc_lock
20000af8 g     F .text	0000016c _Z9ListFilesPKc
20000090 g     F .text	000000dc memset
200012f0 g     F .text	0000010c main
20009740 g     O .sbss	00000004 __malloc_max_total_mem
2000144c g     F .text	0000006c _Z9UARTWritePKc
20000fd0 g     F .text	000001bc _Z13ParseCommandsv
20008c54 g     O .data	00000004 HARTIRQ
20004250 g     F .text	0000021c f_sync
200018cc g     F .text	00000020 _Z11ScanToASCIIhh
20001bc0 g     F .text	000000cc _Z10SDCardInitv
20005160 g     F .text	00000788 _malloc_r
20003820 g     F .text	00000084 f_mount
20001dac g     F .text	000000a0 _Z18SDWriteSingleBlockmPhS_
20000ad8 g     F .text	00000020 _Z16InstallWorkerISRv
20004840 g     F .text	000000bc f_opendir
200065cc g     F .text	00000138 _malloc_trim_r
20000508 g     F .text	000000dc _Z14HandleKeyboardv
20004e40 g     F .text	00000038 ff_oem2uni
20008c58 g     O .data	00000004 HARTMAILBOX
2000016c g     F .text	0000017c strcmp
200044a8 g     F .text	00000398 f_lseek
20001f9c g     F .text	0000005c _Z13SDCardStartupv
20001908 g     F .text	000000f0 _Z5SDCmd13SDCardCommandm
20005034 g     F .text	00000014 atexit
20008c48 g     O .data	00000004 IO_UARTTX
20001b34 g     F .text	0000008c _Z19SDCheckVoltageRangev
20009730 g     O .sdata	00000004 _impure_ptr
20001a34 g     F .text	000000a4 _Z11SDResponse7Pm
2000a254 g       .bss	00000000 __BSS_END__$
200096b8 g       .data	00000000 _edata
2000a258 g       .bss	00000000 _end
20008c68 g     O .data	00000004 m_readOffset
20009738 g     O .sdata	00000004 __malloc_trim_threshold
200038a4 g     F .text	00000748 f_open
20004fe4 g     F .text	00000040 disk_write
20000c70 g     F .text	00000264 _Z29ParseELFHeaderAndLoadSectionsP3FILP16SElfFileHeader32Rm
20008c44 g     O .data	00000004 IO_UARTStatus
20000088 g     F .boot	00000000 _exit
200017a4 g     F .text	00000094 _Z15RingBufferWritePhPKvm
2000169c g     F .text	00000014 _Z11E32ReadTimev
20009954 g     O .bss	00000200 keymap
20006a0c g     F .text	0000008c strlen
20004fa4 g     F .text	00000040 disk_read
200089f0 g     O .data	00000004 keyboardringbuffer
20000750 g     F .text	00000100 _Z25interrupt_service_routinev
20005bf0 g     F .text	00000140 strchr
20008bf4 g     O .data	00000050 FRtoString
20001ef4 g     F .text	000000a8 _Z21SDWriteMultipleBlocksPKhmm
20009b54 g     O .bss	00000238 Fs
200005e4 g     F .text	00000168 _Z10HandleTrapmmmm
200014b8 g     F .text	00000108 _Z12UARTWriteHexm
20009740 g       .sbss	00000000 _fbss
20008e74 g     O .data	00000004 BUTTONCHANGEAVAIL
200012dc g     F .text	00000014 _Z10workermainv
20005150 g     F .text	00000010 free



Disassembly of section .boot:

20000000 <_start>:
20000000:	00009197          	auipc	gp,0x9
20000004:	6bc1a183          	lw	gp,1724(gp) # 200096bc <_GLOBAL_OFFSET_TABLE_+0x4>
20000008:	f14024f3          	csrr	s1,mhartid
2000000c:	00c49493          	slli	s1,s1,0xc
20000010:	1fff0937          	lui	s2,0x1fff0
20000014:	40990933          	sub	s2,s2,s1
20000018:	00090113          	mv	sp,s2
2000001c:	00010413          	mv	s0,sp
20000020:	04049a63          	bnez	s1,20000074 <workerhartstart>
20000024:	00009517          	auipc	a0,0x9
20000028:	6cc52503          	lw	a0,1740(a0) # 200096f0 <_GLOBAL_OFFSET_TABLE_+0x38>
2000002c:	00009617          	auipc	a2,0x9
20000030:	6d862603          	lw	a2,1752(a2) # 20009704 <_GLOBAL_OFFSET_TABLE_+0x4c>
20000034:	40a60633          	sub	a2,a2,a0
20000038:	00000593          	li	a1,0
2000003c:	054000ef          	jal	ra,20000090 <memset>
20000040:	00009517          	auipc	a0,0x9
20000044:	6bc52503          	lw	a0,1724(a0) # 200096fc <_GLOBAL_OFFSET_TABLE_+0x44>
20000048:	00050a63          	beqz	a0,2000005c <noatexitfound>
2000004c:	00001517          	auipc	a0,0x1
20000050:	00009517          	auipc	a0,0x9
20000054:	69052503          	lw	a0,1680(a0) # 200096e0 <_GLOBAL_OFFSET_TABLE_+0x28>
20000058:	7dd040ef          	jal	ra,20005034 <atexit>

2000005c <noatexitfound>:
2000005c:	048050ef          	jal	ra,200050a4 <__libc_init_array>
20000060:	00012503          	lw	a0,0(sp)
20000064:	00410593          	addi	a1,sp,4
20000068:	00000613          	li	a2,0
2000006c:	2840106f          	j	200012f0 <main>
20000070:	00100073          	ebreak

20000074 <workerhartstart>:
20000074:	00012503          	lw	a0,0(sp)
20000078:	00410593          	addi	a1,sp,4
2000007c:	00000613          	li	a2,0
20000080:	25c0106f          	j	200012dc <_Z10workermainv>
20000084:	00100073          	ebreak

Disassembly of section .text:

20000090 <memset>:
20000090:	00f00313          	li	t1,15
20000094:	00050713          	mv	a4,a0
20000098:	02c37e63          	bgeu	t1,a2,200000d4 <memset+0x44>
2000009c:	00f77793          	andi	a5,a4,15
200000a0:	0a079063          	bnez	a5,20000140 <memset+0xb0>
200000a4:	08059263          	bnez	a1,20000128 <memset+0x98>
200000a8:	ff067693          	andi	a3,a2,-16
200000ac:	00f67613          	andi	a2,a2,15
200000b0:	00e686b3          	add	a3,a3,a4
200000b4:	00b72023          	sw	a1,0(a4)
200000b8:	00b72223          	sw	a1,4(a4)
200000bc:	00b72423          	sw	a1,8(a4)
200000c0:	00b72623          	sw	a1,12(a4)
200000c4:	01070713          	addi	a4,a4,16
200000c8:	fed766e3          	bltu	a4,a3,200000b4 <memset+0x24>
200000cc:	00061463          	bnez	a2,200000d4 <memset+0x44>
200000d0:	00008067          	ret
200000d4:	40c306b3          	sub	a3,t1,a2
200000d8:	00269693          	slli	a3,a3,0x2
200000dc:	00000297          	auipc	t0,0x0
200000e0:	005686b3          	add	a3,a3,t0
200000e4:	00c68067          	jr	12(a3)
200000e8:	00b70723          	sb	a1,14(a4)
200000ec:	00b706a3          	sb	a1,13(a4)
200000f0:	00b70623          	sb	a1,12(a4)
200000f4:	00b705a3          	sb	a1,11(a4)
200000f8:	00b70523          	sb	a1,10(a4)
200000fc:	00b704a3          	sb	a1,9(a4)
20000100:	00b70423          	sb	a1,8(a4)
20000104:	00b703a3          	sb	a1,7(a4)
20000108:	00b70323          	sb	a1,6(a4)
2000010c:	00b702a3          	sb	a1,5(a4)
20000110:	00b70223          	sb	a1,4(a4)
20000114:	00b701a3          	sb	a1,3(a4)
20000118:	00b70123          	sb	a1,2(a4)
2000011c:	00b700a3          	sb	a1,1(a4)
20000120:	00b70023          	sb	a1,0(a4)
20000124:	00008067          	ret
20000128:	0ff5f593          	zext.b	a1,a1
2000012c:	00859693          	slli	a3,a1,0x8
20000130:	00d5e5b3          	or	a1,a1,a3
20000134:	01059693          	slli	a3,a1,0x10
20000138:	00d5e5b3          	or	a1,a1,a3
2000013c:	f6dff06f          	j	200000a8 <memset+0x18>
20000140:	00279693          	slli	a3,a5,0x2
20000144:	00000297          	auipc	t0,0x0
20000148:	005686b3          	add	a3,a3,t0
2000014c:	00008293          	mv	t0,ra
20000150:	fa0680e7          	jalr	-96(a3)
20000154:	00028093          	mv	ra,t0
20000158:	ff078793          	addi	a5,a5,-16
2000015c:	40f70733          	sub	a4,a4,a5
20000160:	00f60633          	add	a2,a2,a5
20000164:	f6c378e3          	bgeu	t1,a2,200000d4 <memset+0x44>
20000168:	f3dff06f          	j	200000a4 <memset+0x14>

2000016c <strcmp>:
2000016c:	00b56733          	or	a4,a0,a1
20000170:	fff00393          	li	t2,-1
20000174:	00377713          	andi	a4,a4,3
20000178:	10071063          	bnez	a4,20000278 <strcmp+0x10c>
2000017c:	7f7f87b7          	lui	a5,0x7f7f8
20000180:	f7f78793          	addi	a5,a5,-129 # 7f7f7f7f <_end+0x5f7edd27>
20000184:	00052603          	lw	a2,0(a0)
20000188:	0005a683          	lw	a3,0(a1)
2000018c:	00f672b3          	and	t0,a2,a5
20000190:	00f66333          	or	t1,a2,a5
20000194:	00f282b3          	add	t0,t0,a5
20000198:	0062e2b3          	or	t0,t0,t1
2000019c:	10729263          	bne	t0,t2,200002a0 <strcmp+0x134>
200001a0:	08d61663          	bne	a2,a3,2000022c <strcmp+0xc0>
200001a4:	00452603          	lw	a2,4(a0)
200001a8:	0045a683          	lw	a3,4(a1)
200001ac:	00f672b3          	and	t0,a2,a5
200001b0:	00f66333          	or	t1,a2,a5
200001b4:	00f282b3          	add	t0,t0,a5
200001b8:	0062e2b3          	or	t0,t0,t1
200001bc:	0c729e63          	bne	t0,t2,20000298 <strcmp+0x12c>
200001c0:	06d61663          	bne	a2,a3,2000022c <strcmp+0xc0>
200001c4:	00852603          	lw	a2,8(a0)
200001c8:	0085a683          	lw	a3,8(a1)
200001cc:	00f672b3          	and	t0,a2,a5
200001d0:	00f66333          	or	t1,a2,a5
200001d4:	00f282b3          	add	t0,t0,a5
200001d8:	0062e2b3          	or	t0,t0,t1
200001dc:	0c729863          	bne	t0,t2,200002ac <strcmp+0x140>
200001e0:	04d61663          	bne	a2,a3,2000022c <strcmp+0xc0>
200001e4:	00c52603          	lw	a2,12(a0)
200001e8:	00c5a683          	lw	a3,12(a1)
200001ec:	00f672b3          	and	t0,a2,a5
200001f0:	00f66333          	or	t1,a2,a5
200001f4:	00f282b3          	add	t0,t0,a5
200001f8:	0062e2b3          	or	t0,t0,t1
200001fc:	0c729263          	bne	t0,t2,200002c0 <strcmp+0x154>
20000200:	02d61663          	bne	a2,a3,2000022c <strcmp+0xc0>
20000204:	01052603          	lw	a2,16(a0)
20000208:	0105a683          	lw	a3,16(a1)
2000020c:	00f672b3          	and	t0,a2,a5
20000210:	00f66333          	or	t1,a2,a5
20000214:	00f282b3          	add	t0,t0,a5
20000218:	0062e2b3          	or	t0,t0,t1
2000021c:	0a729c63          	bne	t0,t2,200002d4 <strcmp+0x168>
20000220:	01450513          	addi	a0,a0,20
20000224:	01458593          	addi	a1,a1,20
20000228:	f4d60ee3          	beq	a2,a3,20000184 <strcmp+0x18>
2000022c:	01061713          	slli	a4,a2,0x10
20000230:	01069793          	slli	a5,a3,0x10
20000234:	00f71e63          	bne	a4,a5,20000250 <strcmp+0xe4>
20000238:	01065713          	srli	a4,a2,0x10
2000023c:	0106d793          	srli	a5,a3,0x10
20000240:	40f70533          	sub	a0,a4,a5
20000244:	0ff57593          	zext.b	a1,a0
20000248:	02059063          	bnez	a1,20000268 <strcmp+0xfc>
2000024c:	00008067          	ret
20000250:	01075713          	srli	a4,a4,0x10
20000254:	0107d793          	srli	a5,a5,0x10
20000258:	40f70533          	sub	a0,a4,a5
2000025c:	0ff57593          	zext.b	a1,a0
20000260:	00059463          	bnez	a1,20000268 <strcmp+0xfc>
20000264:	00008067          	ret
20000268:	0ff77713          	zext.b	a4,a4
2000026c:	0ff7f793          	zext.b	a5,a5
20000270:	40f70533          	sub	a0,a4,a5
20000274:	00008067          	ret
20000278:	00054603          	lbu	a2,0(a0)
2000027c:	0005c683          	lbu	a3,0(a1)
20000280:	00150513          	addi	a0,a0,1
20000284:	00158593          	addi	a1,a1,1
20000288:	00d61463          	bne	a2,a3,20000290 <strcmp+0x124>
2000028c:	fe0616e3          	bnez	a2,20000278 <strcmp+0x10c>
20000290:	40d60533          	sub	a0,a2,a3
20000294:	00008067          	ret
20000298:	00450513          	addi	a0,a0,4
2000029c:	00458593          	addi	a1,a1,4
200002a0:	fcd61ce3          	bne	a2,a3,20000278 <strcmp+0x10c>
200002a4:	00000513          	li	a0,0
200002a8:	00008067          	ret
200002ac:	00850513          	addi	a0,a0,8
200002b0:	00858593          	addi	a1,a1,8
200002b4:	fcd612e3          	bne	a2,a3,20000278 <strcmp+0x10c>
200002b8:	00000513          	li	a0,0
200002bc:	00008067          	ret
200002c0:	00c50513          	addi	a0,a0,12
200002c4:	00c58593          	addi	a1,a1,12
200002c8:	fad618e3          	bne	a2,a3,20000278 <strcmp+0x10c>
200002cc:	00000513          	li	a0,0
200002d0:	00008067          	ret
200002d4:	01050513          	addi	a0,a0,16
200002d8:	01058593          	addi	a1,a1,16
200002dc:	f8d61ee3          	bne	a2,a3,20000278 <strcmp+0x10c>
200002e0:	00000513          	li	a0,0
200002e4:	00008067          	ret

200002e8 <_Z10HandleUARTv>:
200002e8:	00009797          	auipc	a5,0x9
200002ec:	4247a783          	lw	a5,1060(a5) # 2000970c <_GLOBAL_OFFSET_TABLE_+0x54>
200002f0:	0007a703          	lw	a4,0(a5)
200002f4:	00009797          	auipc	a5,0x9
200002f8:	3d87a783          	lw	a5,984(a5) # 200096cc <_GLOBAL_OFFSET_TABLE_+0x14>
200002fc:	0007a683          	lw	a3,0(a5)
20000300:	00009797          	auipc	a5,0x9
20000304:	4007a783          	lw	a5,1024(a5) # 20009700 <_GLOBAL_OFFSET_TABLE_+0x48>
20000308:	0007a603          	lw	a2,0(a5)
2000030c:	00072783          	lw	a5,0(a4)
20000310:	0017f793          	andi	a5,a5,1
20000314:	00079463          	bnez	a5,2000031c <_Z10HandleUARTv+0x34>
20000318:	0fc0106f          	j	20001414 <_Z9UARTFlushv>
2000031c:	0006a783          	lw	a5,0(a3)
20000320:	0ff7f793          	zext.b	a5,a5
20000324:	00f62023          	sw	a5,0(a2)
20000328:	fe5ff06f          	j	2000030c <_Z10HandleUARTv+0x24>

2000032c <_Z13HandleButtonsv>:
2000032c:	fe010113          	addi	sp,sp,-32
20000330:	00812c23          	sw	s0,24(sp)
20000334:	00912a23          	sw	s1,20(sp)
20000338:	01212823          	sw	s2,16(sp)
2000033c:	01312623          	sw	s3,12(sp)
20000340:	00112e23          	sw	ra,28(sp)
20000344:	01412423          	sw	s4,8(sp)
20000348:	00009417          	auipc	s0,0x9
2000034c:	3dc42403          	lw	s0,988(s0) # 20009724 <_GLOBAL_OFFSET_TABLE_+0x6c>
20000350:	00009497          	auipc	s1,0x9
20000354:	3984a483          	lw	s1,920(s1) # 200096e8 <_GLOBAL_OFFSET_TABLE_+0x30>
20000358:	00006917          	auipc	s2,0x6
2000035c:	77890913          	addi	s2,s2,1912 # 20006ad0 <strnlen+0x38>
20000360:	00007997          	auipc	s3,0x7
20000364:	e2c98993          	addi	s3,s3,-468 # 2000718c <strnlen+0x6f4>
20000368:	00042783          	lw	a5,0(s0)
2000036c:	0007a783          	lw	a5,0(a5)
20000370:	02079263          	bnez	a5,20000394 <_Z13HandleButtonsv+0x68>
20000374:	01c12083          	lw	ra,28(sp)
20000378:	01812403          	lw	s0,24(sp)
2000037c:	01412483          	lw	s1,20(sp)
20000380:	01012903          	lw	s2,16(sp)
20000384:	00c12983          	lw	s3,12(sp)
20000388:	00812a03          	lw	s4,8(sp)
2000038c:	02010113          	addi	sp,sp,32
20000390:	00008067          	ret
20000394:	0004a783          	lw	a5,0(s1)
20000398:	00090513          	mv	a0,s2
2000039c:	0007aa03          	lw	s4,0(a5)
200003a0:	0ac010ef          	jal	ra,2000144c <_Z9UARTWritePKc>
200003a4:	000a0513          	mv	a0,s4
200003a8:	110010ef          	jal	ra,200014b8 <_Z12UARTWriteHexm>
200003ac:	00098513          	mv	a0,s3
200003b0:	09c010ef          	jal	ra,2000144c <_Z9UARTWritePKc>
200003b4:	fb5ff06f          	j	20000368 <_Z13HandleButtonsv+0x3c>

200003b8 <_Z11HandleTimerv>:
200003b8:	ff010113          	addi	sp,sp,-16
200003bc:	00009797          	auipc	a5,0x9
200003c0:	33c7a783          	lw	a5,828(a5) # 200096f8 <_GLOBAL_OFFSET_TABLE_+0x40>
200003c4:	0007a783          	lw	a5,0(a5)
200003c8:	00812423          	sw	s0,8(sp)
200003cc:	e6018413          	addi	s0,gp,-416 # 20009d90 <_ZL16numdetectedharts>
200003d0:	00042683          	lw	a3,0(s0)
200003d4:	e32ec637          	lui	a2,0xe32ec
200003d8:	00478713          	addi	a4,a5,4
200003dc:	00112623          	sw	ra,12(sp)
200003e0:	02078793          	addi	a5,a5,32
200003e4:	00000593          	li	a1,0
200003e8:	abe60613          	addi	a2,a2,-1346 # e32ebabe <_end+0xc32e1866>
200003ec:	00072503          	lw	a0,0(a4)
200003f0:	00c51663          	bne	a0,a2,200003fc <_Z11HandleTimerv+0x44>
200003f4:	00168693          	addi	a3,a3,1
200003f8:	00100593          	li	a1,1
200003fc:	00470713          	addi	a4,a4,4
20000400:	fef716e3          	bne	a4,a5,200003ec <_Z11HandleTimerv+0x34>
20000404:	00058463          	beqz	a1,2000040c <_Z11HandleTimerv+0x54>
20000408:	00d42023          	sw	a3,0(s0)
2000040c:	00006517          	auipc	a0,0x6
20000410:	6dc50513          	addi	a0,a0,1756 # 20006ae8 <strnlen+0x50>
20000414:	038010ef          	jal	ra,2000144c <_Z9UARTWritePKc>
20000418:	00006517          	auipc	a0,0x6
2000041c:	72450513          	addi	a0,a0,1828 # 20006b3c <strnlen+0xa4>
20000420:	02c010ef          	jal	ra,2000144c <_Z9UARTWritePKc>
20000424:	00006517          	auipc	a0,0x6
20000428:	75850513          	addi	a0,a0,1880 # 20006b7c <strnlen+0xe4>
2000042c:	020010ef          	jal	ra,2000144c <_Z9UARTWritePKc>
20000430:	00006517          	auipc	a0,0x6
20000434:	79850513          	addi	a0,a0,1944 # 20006bc8 <strnlen+0x130>
20000438:	014010ef          	jal	ra,2000144c <_Z9UARTWritePKc>
2000043c:	00006517          	auipc	a0,0x6
20000440:	7d850513          	addi	a0,a0,2008 # 20006c14 <strnlen+0x17c>
20000444:	008010ef          	jal	ra,2000144c <_Z9UARTWritePKc>
20000448:	00007517          	auipc	a0,0x7
2000044c:	81450513          	addi	a0,a0,-2028 # 20006c5c <strnlen+0x1c4>
20000450:	7fd000ef          	jal	ra,2000144c <_Z9UARTWritePKc>
20000454:	00007517          	auipc	a0,0x7
20000458:	84450513          	addi	a0,a0,-1980 # 20006c98 <strnlen+0x200>
2000045c:	7f1000ef          	jal	ra,2000144c <_Z9UARTWritePKc>
20000460:	00007517          	auipc	a0,0x7
20000464:	87c50513          	addi	a0,a0,-1924 # 20006cdc <strnlen+0x244>
20000468:	7e5000ef          	jal	ra,2000144c <_Z9UARTWritePKc>
2000046c:	00007517          	auipc	a0,0x7
20000470:	8b450513          	addi	a0,a0,-1868 # 20006d20 <strnlen+0x288>
20000474:	7d9000ef          	jal	ra,2000144c <_Z9UARTWritePKc>
20000478:	00007517          	auipc	a0,0x7
2000047c:	8ec50513          	addi	a0,a0,-1812 # 20006d64 <strnlen+0x2cc>
20000480:	7cd000ef          	jal	ra,2000144c <_Z9UARTWritePKc>
20000484:	00007517          	auipc	a0,0x7
20000488:	92450513          	addi	a0,a0,-1756 # 20006da8 <strnlen+0x310>
2000048c:	7c1000ef          	jal	ra,2000144c <_Z9UARTWritePKc>
20000490:	00007517          	auipc	a0,0x7
20000494:	96450513          	addi	a0,a0,-1692 # 20006df4 <strnlen+0x35c>
20000498:	7b5000ef          	jal	ra,2000144c <_Z9UARTWritePKc>
2000049c:	00007517          	auipc	a0,0x7
200004a0:	97c50513          	addi	a0,a0,-1668 # 20006e18 <strnlen+0x380>
200004a4:	7a9000ef          	jal	ra,2000144c <_Z9UARTWritePKc>
200004a8:	00007517          	auipc	a0,0x7
200004ac:	99450513          	addi	a0,a0,-1644 # 20006e3c <strnlen+0x3a4>
200004b0:	79d000ef          	jal	ra,2000144c <_Z9UARTWritePKc>
200004b4:	00007517          	auipc	a0,0x7
200004b8:	94050513          	addi	a0,a0,-1728 # 20006df4 <strnlen+0x35c>
200004bc:	791000ef          	jal	ra,2000144c <_Z9UARTWritePKc>
200004c0:	00007517          	auipc	a0,0x7
200004c4:	9a050513          	addi	a0,a0,-1632 # 20006e60 <strnlen+0x3c8>
200004c8:	785000ef          	jal	ra,2000144c <_Z9UARTWritePKc>
200004cc:	00042503          	lw	a0,0(s0)
200004d0:	0f0010ef          	jal	ra,200015c0 <_Z16UARTWriteDecimall>
200004d4:	00007517          	auipc	a0,0x7
200004d8:	92c50513          	addi	a0,a0,-1748 # 20006e00 <strnlen+0x368>
200004dc:	771000ef          	jal	ra,2000144c <_Z9UARTWritePKc>
200004e0:	00007517          	auipc	a0,0x7
200004e4:	98c50513          	addi	a0,a0,-1652 # 20006e6c <strnlen+0x3d4>
200004e8:	765000ef          	jal	ra,2000144c <_Z9UARTWritePKc>
200004ec:	fff00793          	li	a5,-1
200004f0:	80179773          	csrrw	a4,0x801,a5
200004f4:	800797f3          	csrrw	a5,0x800,a5
200004f8:	00c12083          	lw	ra,12(sp)
200004fc:	00812403          	lw	s0,8(sp)
20000500:	01010113          	addi	sp,sp,16
20000504:	00008067          	ret

20000508 <_Z14HandleKeyboardv>:
20000508:	fd010113          	addi	sp,sp,-48
2000050c:	02812423          	sw	s0,40(sp)
20000510:	03212023          	sw	s2,32(sp)
20000514:	02112623          	sw	ra,44(sp)
20000518:	02912223          	sw	s1,36(sp)
2000051c:	01312e23          	sw	s3,28(sp)
20000520:	01412c23          	sw	s4,24(sp)
20000524:	01512a23          	sw	s5,20(sp)
20000528:	01612823          	sw	s6,16(sp)
2000052c:	00009417          	auipc	s0,0x9
20000530:	1a442403          	lw	s0,420(s0) # 200096d0 <_GLOBAL_OFFSET_TABLE_+0x18>
20000534:	00009917          	auipc	s2,0x9
20000538:	1dc92903          	lw	s2,476(s2) # 20009710 <_GLOBAL_OFFSET_TABLE_+0x58>
2000053c:	00042783          	lw	a5,0(s0)
20000540:	0007a483          	lw	s1,0(a5)
20000544:	08049a63          	bnez	s1,200005d8 <_Z14HandleKeyboardv+0xd0>
20000548:	00009417          	auipc	s0,0x9
2000054c:	17c42403          	lw	s0,380(s0) # 200096c4 <_GLOBAL_OFFSET_TABLE_+0xc>
20000550:	00009917          	auipc	s2,0x9
20000554:	1c092903          	lw	s2,448(s2) # 20009710 <_GLOBAL_OFFSET_TABLE_+0x58>
20000558:	0aa00a93          	li	s5,170
2000055c:	00c10a13          	addi	s4,sp,12
20000560:	00009997          	auipc	s3,0x9
20000564:	1b49a983          	lw	s3,436(s3) # 20009714 <_GLOBAL_OFFSET_TABLE_+0x5c>
20000568:	10000b13          	li	s6,256
2000056c:	01549863          	bne	s1,s5,2000057c <_Z14HandleKeyboardv+0x74>
20000570:	00240413          	addi	s0,s0,2
20000574:	00290913          	addi	s2,s2,2
20000578:	0ab00493          	li	s1,171
2000057c:	00095783          	lhu	a5,0(s2)
20000580:	00045703          	lhu	a4,0(s0)
20000584:	00f12623          	sw	a5,12(sp)
20000588:	00e78c63          	beq	a5,a4,200005a0 <_Z14HandleKeyboardv+0x98>
2000058c:	0009a503          	lw	a0,0(s3)
20000590:	00f41023          	sh	a5,0(s0)
20000594:	00400613          	li	a2,4
20000598:	000a0593          	mv	a1,s4
2000059c:	208010ef          	jal	ra,200017a4 <_Z15RingBufferWritePhPKvm>
200005a0:	00148493          	addi	s1,s1,1
200005a4:	00240413          	addi	s0,s0,2
200005a8:	00290913          	addi	s2,s2,2
200005ac:	fd6490e3          	bne	s1,s6,2000056c <_Z14HandleKeyboardv+0x64>
200005b0:	02c12083          	lw	ra,44(sp)
200005b4:	02812403          	lw	s0,40(sp)
200005b8:	02412483          	lw	s1,36(sp)
200005bc:	02012903          	lw	s2,32(sp)
200005c0:	01c12983          	lw	s3,28(sp)
200005c4:	01812a03          	lw	s4,24(sp)
200005c8:	01412a83          	lw	s5,20(sp)
200005cc:	01012b03          	lw	s6,16(sp)
200005d0:	03010113          	addi	sp,sp,48
200005d4:	00008067          	ret
200005d8:	00090513          	mv	a0,s2
200005dc:	25c010ef          	jal	ra,20001838 <_Z12ScanKeyboardPt>
200005e0:	f5dff06f          	j	2000053c <_Z14HandleKeyboardv+0x34>

200005e4 <_Z10HandleTrapmmmm>:
200005e4:	00300793          	li	a5,3
200005e8:	16f50063          	beq	a0,a5,20000748 <_Z10HandleTrapmmmm+0x164>
200005ec:	fe010113          	addi	sp,sp,-32
200005f0:	00812c23          	sw	s0,24(sp)
200005f4:	00912a23          	sw	s1,20(sp)
200005f8:	00112e23          	sw	ra,28(sp)
200005fc:	01212823          	sw	s2,16(sp)
20000600:	01312623          	sw	s3,12(sp)
20000604:	00b00793          	li	a5,11
20000608:	00050413          	mv	s0,a0
2000060c:	00068493          	mv	s1,a3
20000610:	08f51e63          	bne	a0,a5,200006ac <_Z10HandleTrapmmmm+0xc8>
20000614:	00007517          	auipc	a0,0x7
20000618:	8ac50513          	addi	a0,a0,-1876 # 20006ec0 <strnlen+0x428>
2000061c:	00058993          	mv	s3,a1
20000620:	62d000ef          	jal	ra,2000144c <_Z9UARTWritePKc>
20000624:	00007517          	auipc	a0,0x7
20000628:	8a850513          	addi	a0,a0,-1880 # 20006ecc <strnlen+0x434>
2000062c:	621000ef          	jal	ra,2000144c <_Z9UARTWritePKc>
20000630:	00007517          	auipc	a0,0x7
20000634:	94050513          	addi	a0,a0,-1728 # 20006f70 <strnlen+0x4d8>
20000638:	615000ef          	jal	ra,2000144c <_Z9UARTWritePKc>
2000063c:	00007517          	auipc	a0,0x7
20000640:	97050513          	addi	a0,a0,-1680 # 20006fac <strnlen+0x514>
20000644:	609000ef          	jal	ra,2000144c <_Z9UARTWritePKc>
20000648:	00007517          	auipc	a0,0x7
2000064c:	9a050513          	addi	a0,a0,-1632 # 20006fe8 <strnlen+0x550>
20000650:	5fd000ef          	jal	ra,2000144c <_Z9UARTWritePKc>
20000654:	00098513          	mv	a0,s3
20000658:	661000ef          	jal	ra,200014b8 <_Z12UARTWriteHexm>
2000065c:	00007517          	auipc	a0,0x7
20000660:	99450513          	addi	a0,a0,-1644 # 20006ff0 <strnlen+0x558>
20000664:	5e9000ef          	jal	ra,2000144c <_Z9UARTWritePKc>
20000668:	00048513          	mv	a0,s1
2000066c:	64d000ef          	jal	ra,200014b8 <_Z12UARTWriteHexm>
20000670:	00007517          	auipc	a0,0x7
20000674:	98450513          	addi	a0,a0,-1660 # 20006ff4 <strnlen+0x55c>
20000678:	5d5000ef          	jal	ra,2000144c <_Z9UARTWritePKc>
2000067c:	00007517          	auipc	a0,0x7
20000680:	99c50513          	addi	a0,a0,-1636 # 20007018 <strnlen+0x580>
20000684:	5c9000ef          	jal	ra,2000144c <_Z9UARTWritePKc>
20000688:	01812403          	lw	s0,24(sp)
2000068c:	01c12083          	lw	ra,28(sp)
20000690:	01412483          	lw	s1,20(sp)
20000694:	01012903          	lw	s2,16(sp)
20000698:	00c12983          	lw	s3,12(sp)
2000069c:	00007517          	auipc	a0,0x7
200006a0:	a2050513          	addi	a0,a0,-1504 # 200070bc <strnlen+0x624>
200006a4:	02010113          	addi	sp,sp,32
200006a8:	5a50006f          	j	2000144c <_Z9UARTWritePKc>
200006ac:	00007517          	auipc	a0,0x7
200006b0:	a1850513          	addi	a0,a0,-1512 # 200070c4 <strnlen+0x62c>
200006b4:	00060913          	mv	s2,a2
200006b8:	595000ef          	jal	ra,2000144c <_Z9UARTWritePKc>
200006bc:	00007517          	auipc	a0,0x7
200006c0:	80450513          	addi	a0,a0,-2044 # 20006ec0 <strnlen+0x428>
200006c4:	589000ef          	jal	ra,2000144c <_Z9UARTWritePKc>
200006c8:	00007517          	auipc	a0,0x7
200006cc:	80450513          	addi	a0,a0,-2044 # 20006ecc <strnlen+0x434>
200006d0:	57d000ef          	jal	ra,2000144c <_Z9UARTWritePKc>
200006d4:	00007517          	auipc	a0,0x7
200006d8:	9f850513          	addi	a0,a0,-1544 # 200070cc <strnlen+0x634>
200006dc:	571000ef          	jal	ra,2000144c <_Z9UARTWritePKc>
200006e0:	00007517          	auipc	a0,0x7
200006e4:	a2850513          	addi	a0,a0,-1496 # 20007108 <strnlen+0x670>
200006e8:	565000ef          	jal	ra,2000144c <_Z9UARTWritePKc>
200006ec:	00040513          	mv	a0,s0
200006f0:	5c9000ef          	jal	ra,200014b8 <_Z12UARTWriteHexm>
200006f4:	00007517          	auipc	a0,0x7
200006f8:	a2c50513          	addi	a0,a0,-1492 # 20007120 <strnlen+0x688>
200006fc:	551000ef          	jal	ra,2000144c <_Z9UARTWritePKc>
20000700:	00090513          	mv	a0,s2
20000704:	5b5000ef          	jal	ra,200014b8 <_Z12UARTWriteHexm>
20000708:	00007517          	auipc	a0,0x7
2000070c:	8e850513          	addi	a0,a0,-1816 # 20006ff0 <strnlen+0x558>
20000710:	53d000ef          	jal	ra,2000144c <_Z9UARTWritePKc>
20000714:	00048513          	mv	a0,s1
20000718:	5a1000ef          	jal	ra,200014b8 <_Z12UARTWriteHexm>
2000071c:	00006517          	auipc	a0,0x6
20000720:	6f050513          	addi	a0,a0,1776 # 20006e0c <strnlen+0x374>
20000724:	529000ef          	jal	ra,2000144c <_Z9UARTWritePKc>
20000728:	00007517          	auipc	a0,0x7
2000072c:	8f050513          	addi	a0,a0,-1808 # 20007018 <strnlen+0x580>
20000730:	51d000ef          	jal	ra,2000144c <_Z9UARTWritePKc>
20000734:	00007517          	auipc	a0,0x7
20000738:	98850513          	addi	a0,a0,-1656 # 200070bc <strnlen+0x624>
2000073c:	511000ef          	jal	ra,2000144c <_Z9UARTWritePKc>
20000740:	10500073          	wfi
20000744:	ffdff06f          	j	20000740 <_Z10HandleTrapmmmm+0x15c>
20000748:	00008067          	ret
2000074c:	0000                	.2byte	0x0
	...

20000750 <_Z25interrupt_service_routinev>:
20000750:	fa010113          	addi	sp,sp,-96
20000754:	04112e23          	sw	ra,92(sp)
20000758:	04512c23          	sw	t0,88(sp)
2000075c:	04612a23          	sw	t1,84(sp)
20000760:	04712823          	sw	t2,80(sp)
20000764:	04812623          	sw	s0,76(sp)
20000768:	04a12423          	sw	a0,72(sp)
2000076c:	04b12223          	sw	a1,68(sp)
20000770:	04c12023          	sw	a2,64(sp)
20000774:	02d12e23          	sw	a3,60(sp)
20000778:	02e12c23          	sw	a4,56(sp)
2000077c:	02f12a23          	sw	a5,52(sp)
20000780:	03012823          	sw	a6,48(sp)
20000784:	03112623          	sw	a7,44(sp)
20000788:	03c12423          	sw	t3,40(sp)
2000078c:	03d12223          	sw	t4,36(sp)
20000790:	03e12023          	sw	t5,32(sp)
20000794:	01f12e23          	sw	t6,28(sp)
20000798:	01112623          	sw	a7,12(sp)
2000079c:	34302473          	csrr	s0,mtval
200007a0:	34202573          	csrr	a0,mcause
200007a4:	341026f3          	csrr	a3,mepc
200007a8:	08055a63          	bgez	a0,2000083c <_Z25interrupt_service_routinev+0xec>
200007ac:	00151513          	slli	a0,a0,0x1
200007b0:	00155513          	srli	a0,a0,0x1
200007b4:	00b00793          	li	a5,11
200007b8:	06f51a63          	bne	a0,a5,2000082c <_Z25interrupt_service_routinev+0xdc>
200007bc:	00147793          	andi	a5,s0,1
200007c0:	00078463          	beqz	a5,200007c8 <_Z25interrupt_service_routinev+0x78>
200007c4:	b25ff0ef          	jal	ra,200002e8 <_Z10HandleUARTv>
200007c8:	00247793          	andi	a5,s0,2
200007cc:	00078463          	beqz	a5,200007d4 <_Z25interrupt_service_routinev+0x84>
200007d0:	b5dff0ef          	jal	ra,2000032c <_Z13HandleButtonsv>
200007d4:	00447413          	andi	s0,s0,4
200007d8:	00040463          	beqz	s0,200007e0 <_Z25interrupt_service_routinev+0x90>
200007dc:	d2dff0ef          	jal	ra,20000508 <_Z14HandleKeyboardv>
200007e0:	04c12403          	lw	s0,76(sp)
200007e4:	05c12083          	lw	ra,92(sp)
200007e8:	05812283          	lw	t0,88(sp)
200007ec:	05412303          	lw	t1,84(sp)
200007f0:	05012383          	lw	t2,80(sp)
200007f4:	04812503          	lw	a0,72(sp)
200007f8:	04412583          	lw	a1,68(sp)
200007fc:	04012603          	lw	a2,64(sp)
20000800:	03c12683          	lw	a3,60(sp)
20000804:	03812703          	lw	a4,56(sp)
20000808:	03412783          	lw	a5,52(sp)
2000080c:	03012803          	lw	a6,48(sp)
20000810:	02c12883          	lw	a7,44(sp)
20000814:	02812e03          	lw	t3,40(sp)
20000818:	02412e83          	lw	t4,36(sp)
2000081c:	02012f03          	lw	t5,32(sp)
20000820:	01c12f83          	lw	t6,28(sp)
20000824:	06010113          	addi	sp,sp,96
20000828:	30200073          	mret
2000082c:	00700793          	li	a5,7
20000830:	faf518e3          	bne	a0,a5,200007e0 <_Z25interrupt_service_routinev+0x90>
20000834:	b85ff0ef          	jal	ra,200003b8 <_Z11HandleTimerv>
20000838:	fa9ff06f          	j	200007e0 <_Z25interrupt_service_routinev+0x90>
2000083c:	00c12583          	lw	a1,12(sp)
20000840:	ffc68693          	addi	a3,a3,-4
20000844:	00040613          	mv	a2,s0
20000848:	d9dff0ef          	jal	ra,200005e4 <_Z10HandleTrapmmmm>
2000084c:	f95ff06f          	j	200007e0 <_Z25interrupt_service_routinev+0x90>

20000850 <_Z10InstallISRv>:
20000850:	ff010113          	addi	sp,sp,-16
20000854:	00112623          	sw	ra,12(sp)
20000858:	00009797          	auipc	a5,0x9
2000085c:	ec07a783          	lw	a5,-320(a5) # 20009718 <_GLOBAL_OFFSET_TABLE_+0x60>
20000860:	305797f3          	csrrw	a5,mtvec,a5
20000864:	639000ef          	jal	ra,2000169c <_Z11E32ReadTimev>
20000868:	00050793          	mv	a5,a0
2000086c:	00989537          	lui	a0,0x989
20000870:	68050513          	addi	a0,a0,1664 # 989680 <_start-0x1f676980>
20000874:	00a78533          	add	a0,a5,a0
20000878:	00f537b3          	sltu	a5,a0,a5
2000087c:	00b785b3          	add	a1,a5,a1
20000880:	631000ef          	jal	ra,200016b0 <_Z17E32SetTimeComparey>
20000884:	000017b7          	lui	a5,0x1
20000888:	88878793          	addi	a5,a5,-1912 # 888 <_start-0x1ffff778>
2000088c:	304797f3          	csrrw	a5,mie,a5
20000890:	300457f3          	csrrwi	a5,mstatus,8
20000894:	00c12083          	lw	ra,12(sp)
20000898:	01010113          	addi	sp,sp,16
2000089c:	00008067          	ret

200008a0 <_Z13HandleHARTIRQm>:
200008a0:	fe010113          	addi	sp,sp,-32
200008a4:	01312623          	sw	s3,12(sp)
200008a8:	00009997          	auipc	s3,0x9
200008ac:	e509a983          	lw	s3,-432(s3) # 200096f8 <_GLOBAL_OFFSET_TABLE_+0x40>
200008b0:	0009a703          	lw	a4,0(s3)
200008b4:	01212823          	sw	s2,16(sp)
200008b8:	00251913          	slli	s2,a0,0x2
200008bc:	012707b3          	add	a5,a4,s2
200008c0:	0007a683          	lw	a3,0(a5)
200008c4:	00812c23          	sw	s0,24(sp)
200008c8:	00112e23          	sw	ra,28(sp)
200008cc:	00912a23          	sw	s1,20(sp)
200008d0:	00100613          	li	a2,1
200008d4:	00050413          	mv	s0,a0
200008d8:	04c68663          	beq	a3,a2,20000924 <_Z13HandleHARTIRQm+0x84>
200008dc:	00200713          	li	a4,2
200008e0:	00e68a63          	beq	a3,a4,200008f4 <_Z13HandleHARTIRQm+0x54>
200008e4:	08069663          	bnez	a3,20000970 <_Z13HandleHARTIRQm+0xd0>
200008e8:	e32ec737          	lui	a4,0xe32ec
200008ec:	abe70713          	addi	a4,a4,-1346 # e32ebabe <_end+0xc32e1866>
200008f0:	00e7a023          	sw	a4,0(a5)
200008f4:	00009797          	auipc	a5,0x9
200008f8:	e007a783          	lw	a5,-512(a5) # 200096f4 <_GLOBAL_OFFSET_TABLE_+0x3c>
200008fc:	0007a783          	lw	a5,0(a5)
20000900:	008787b3          	add	a5,a5,s0
20000904:	00078023          	sb	zero,0(a5)
20000908:	01c12083          	lw	ra,28(sp)
2000090c:	01812403          	lw	s0,24(sp)
20000910:	01412483          	lw	s1,20(sp)
20000914:	01012903          	lw	s2,16(sp)
20000918:	00c12983          	lw	s3,12(sp)
2000091c:	02010113          	addi	sp,sp,32
20000920:	00008067          	ret
20000924:	00250793          	addi	a5,a0,2
20000928:	00479793          	slli	a5,a5,0x4
2000092c:	00f706b3          	add	a3,a4,a5
20000930:	00478793          	addi	a5,a5,4
20000934:	00f70733          	add	a4,a4,a5
20000938:	0006a683          	lw	a3,0(a3)
2000093c:	00072483          	lw	s1,0(a4)
20000940:	1fff07b7          	lui	a5,0x1fff0
20000944:	00b51713          	slli	a4,a0,0xb
20000948:	00e787b3          	add	a5,a5,a4
2000094c:	0097a223          	sw	s1,4(a5) # 1fff0004 <_start-0xfffc>
20000950:	00d7a023          	sw	a3,0(a5)
20000954:	549000ef          	jal	ra,2000169c <_Z11E32ReadTimev>
20000958:	00a48533          	add	a0,s1,a0
2000095c:	009534b3          	sltu	s1,a0,s1
20000960:	00b485b3          	add	a1,s1,a1
20000964:	54d000ef          	jal	ra,200016b0 <_Z17E32SetTimeComparey>
20000968:	0009a783          	lw	a5,0(s3)
2000096c:	012787b3          	add	a5,a5,s2
20000970:	0007a023          	sw	zero,0(a5)
20000974:	f81ff06f          	j	200008f4 <_Z13HandleHARTIRQm+0x54>
	...

20000980 <_Z32worker_interrupt_service_routinev>:
20000980:	f9010113          	addi	sp,sp,-112
20000984:	06112623          	sw	ra,108(sp)
20000988:	06512423          	sw	t0,104(sp)
2000098c:	06612223          	sw	t1,100(sp)
20000990:	06712023          	sw	t2,96(sp)
20000994:	04812e23          	sw	s0,92(sp)
20000998:	04912c23          	sw	s1,88(sp)
2000099c:	04a12a23          	sw	a0,84(sp)
200009a0:	04b12823          	sw	a1,80(sp)
200009a4:	04c12623          	sw	a2,76(sp)
200009a8:	04d12423          	sw	a3,72(sp)
200009ac:	04e12223          	sw	a4,68(sp)
200009b0:	04f12023          	sw	a5,64(sp)
200009b4:	03012e23          	sw	a6,60(sp)
200009b8:	03112c23          	sw	a7,56(sp)
200009bc:	03c12a23          	sw	t3,52(sp)
200009c0:	03d12823          	sw	t4,48(sp)
200009c4:	03e12623          	sw	t5,44(sp)
200009c8:	03f12423          	sw	t6,40(sp)
200009cc:	01112e23          	sw	a7,28(sp)
200009d0:	34302773          	csrr	a4,mtval
200009d4:	342027f3          	csrr	a5,mcause
200009d8:	f1402573          	csrr	a0,mhartid
200009dc:	0207d063          	bgez	a5,200009fc <_Z32worker_interrupt_service_routinev+0x7c>
200009e0:	00179793          	slli	a5,a5,0x1
200009e4:	0017d793          	srli	a5,a5,0x1
200009e8:	00b00693          	li	a3,11
200009ec:	06d79063          	bne	a5,a3,20000a4c <_Z32worker_interrupt_service_routinev+0xcc>
200009f0:	01077793          	andi	a5,a4,16
200009f4:	00078463          	beqz	a5,200009fc <_Z32worker_interrupt_service_routinev+0x7c>
200009f8:	ea9ff0ef          	jal	ra,200008a0 <_Z13HandleHARTIRQm>
200009fc:	05c12403          	lw	s0,92(sp)
20000a00:	06c12083          	lw	ra,108(sp)
20000a04:	06812283          	lw	t0,104(sp)
20000a08:	06412303          	lw	t1,100(sp)
20000a0c:	06012383          	lw	t2,96(sp)
20000a10:	05812483          	lw	s1,88(sp)
20000a14:	05412503          	lw	a0,84(sp)
20000a18:	05012583          	lw	a1,80(sp)
20000a1c:	04c12603          	lw	a2,76(sp)
20000a20:	04812683          	lw	a3,72(sp)
20000a24:	04412703          	lw	a4,68(sp)
20000a28:	04012783          	lw	a5,64(sp)
20000a2c:	03c12803          	lw	a6,60(sp)
20000a30:	03812883          	lw	a7,56(sp)
20000a34:	03412e03          	lw	t3,52(sp)
20000a38:	03012e83          	lw	t4,48(sp)
20000a3c:	02c12f03          	lw	t5,44(sp)
20000a40:	02812f83          	lw	t6,40(sp)
20000a44:	07010113          	addi	sp,sp,112
20000a48:	30200073          	mret
20000a4c:	00700713          	li	a4,7
20000a50:	fae796e3          	bne	a5,a4,200009fc <_Z32worker_interrupt_service_routinev+0x7c>
20000a54:	00b51793          	slli	a5,a0,0xb
20000a58:	1fff0437          	lui	s0,0x1fff0
20000a5c:	00f404b3          	add	s1,s0,a5
20000a60:	0004a703          	lw	a4,0(s1)
20000a64:	00478793          	addi	a5,a5,4
20000a68:	00f40433          	add	s0,s0,a5
20000a6c:	04070663          	beqz	a4,20000ab8 <_Z32worker_interrupt_service_routinev+0x138>
20000a70:	00a12623          	sw	a0,12(sp)
20000a74:	000700e7          	jalr	a4
20000a78:	00c12503          	lw	a0,12(sp)
20000a7c:	00009797          	auipc	a5,0x9
20000a80:	c7c7a783          	lw	a5,-900(a5) # 200096f8 <_GLOBAL_OFFSET_TABLE_+0x40>
20000a84:	0007a783          	lw	a5,0(a5)
20000a88:	00250513          	addi	a0,a0,2
20000a8c:	00451513          	slli	a0,a0,0x4
20000a90:	00a787b3          	add	a5,a5,a0
20000a94:	0007a783          	lw	a5,0(a5)
20000a98:	02078063          	beqz	a5,20000ab8 <_Z32worker_interrupt_service_routinev+0x138>
20000a9c:	00042403          	lw	s0,0(s0) # 1fff0000 <_start-0x10000>
20000aa0:	3fd000ef          	jal	ra,2000169c <_Z11E32ReadTimev>
20000aa4:	00a40533          	add	a0,s0,a0
20000aa8:	00853433          	sltu	s0,a0,s0
20000aac:	00b405b3          	add	a1,s0,a1
20000ab0:	401000ef          	jal	ra,200016b0 <_Z17E32SetTimeComparey>
20000ab4:	f49ff06f          	j	200009fc <_Z32worker_interrupt_service_routinev+0x7c>
20000ab8:	0004a023          	sw	zero,0(s1)
20000abc:	00042023          	sw	zero,0(s0)
20000ac0:	fff00793          	li	a5,-1
20000ac4:	80179773          	csrrw	a4,0x801,a5
20000ac8:	800797f3          	csrrw	a5,0x800,a5
20000acc:	f31ff06f          	j	200009fc <_Z32worker_interrupt_service_routinev+0x7c>
	...

20000ad8 <_Z16InstallWorkerISRv>:
20000ad8:	00009797          	auipc	a5,0x9
20000adc:	be87a783          	lw	a5,-1048(a5) # 200096c0 <_GLOBAL_OFFSET_TABLE_+0x8>
20000ae0:	305797f3          	csrrw	a5,mtvec,a5
20000ae4:	000017b7          	lui	a5,0x1
20000ae8:	88878793          	addi	a5,a5,-1912 # 888 <_start-0x1ffff778>
20000aec:	304797f3          	csrrw	a5,mie,a5
20000af0:	300457f3          	csrrwi	a5,mstatus,8
20000af4:	00008067          	ret

20000af8 <_Z9ListFilesPKc>:
20000af8:	e8010113          	addi	sp,sp,-384
20000afc:	17212823          	sw	s2,368(sp)
20000b00:	00810913          	addi	s2,sp,8
20000b04:	00050593          	mv	a1,a0
20000b08:	00090513          	mv	a0,s2
20000b0c:	16112e23          	sw	ra,380(sp)
20000b10:	16812c23          	sw	s0,376(sp)
20000b14:	16912a23          	sw	s1,372(sp)
20000b18:	17312623          	sw	s3,364(sp)
20000b1c:	17412423          	sw	s4,360(sp)
20000b20:	17512223          	sw	s5,356(sp)
20000b24:	17612023          	sw	s6,352(sp)
20000b28:	15712e23          	sw	s7,348(sp)
20000b2c:	15812c23          	sw	s8,344(sp)
20000b30:	15912a23          	sw	s9,340(sp)
20000b34:	50d030ef          	jal	ra,20004840 <f_opendir>
20000b38:	10051863          	bnez	a0,20000c48 <_Z9ListFilesPKc+0x150>
20000b3c:	03810a13          	addi	s4,sp,56
20000b40:	04e10413          	addi	s0,sp,78
20000b44:	00006a97          	auipc	s5,0x6
20000b48:	780a8a93          	addi	s5,s5,1920 # 200072c4 <strnlen+0x82c>
20000b4c:	00006b17          	auipc	s6,0x6
20000b50:	5e0b0b13          	addi	s6,s6,1504 # 2000712c <strnlen+0x694>
20000b54:	00006b97          	auipc	s7,0x6
20000b58:	5e0b8b93          	addi	s7,s7,1504 # 20007134 <strnlen+0x69c>
20000b5c:	00006997          	auipc	s3,0x6
20000b60:	5c898993          	addi	s3,s3,1480 # 20007124 <strnlen+0x68c>
20000b64:	00006c17          	auipc	s8,0x6
20000b68:	f80c0c13          	addi	s8,s8,-128 # 20006ae4 <strnlen+0x4c>
20000b6c:	00006c97          	auipc	s9,0x6
20000b70:	5d0c8c93          	addi	s9,s9,1488 # 2000713c <strnlen+0x6a4>
20000b74:	000a0593          	mv	a1,s4
20000b78:	00090513          	mv	a0,s2
20000b7c:	5b1030ef          	jal	ra,2000492c <f_readdir>
20000b80:	08051663          	bnez	a0,20000c0c <_Z9ListFilesPKc+0x114>
20000b84:	04e14783          	lbu	a5,78(sp)
20000b88:	08078263          	beqz	a5,20000c0c <_Z9ListFilesPKc+0x114>
20000b8c:	000a8593          	mv	a1,s5
20000b90:	00040513          	mv	a0,s0
20000b94:	668050ef          	jal	ra,200061fc <strstr>
20000b98:	04014783          	lbu	a5,64(sp)
20000b9c:	00050493          	mv	s1,a0
20000ba0:	0107f793          	andi	a5,a5,16
20000ba4:	04079063          	bnez	a5,20000be4 <_Z9ListFilesPKc+0xec>
20000ba8:	00050663          	beqz	a0,20000bb4 <_Z9ListFilesPKc+0xbc>
20000bac:	00098513          	mv	a0,s3
20000bb0:	09d000ef          	jal	ra,2000144c <_Z9UARTWritePKc>
20000bb4:	00040513          	mv	a0,s0
20000bb8:	095000ef          	jal	ra,2000144c <_Z9UARTWritePKc>
20000bbc:	000c0513          	mv	a0,s8
20000bc0:	08d000ef          	jal	ra,2000144c <_Z9UARTWritePKc>
20000bc4:	03812503          	lw	a0,56(sp)
20000bc8:	1f9000ef          	jal	ra,200015c0 <_Z16UARTWriteDecimall>
20000bcc:	000c8513          	mv	a0,s9
20000bd0:	07d000ef          	jal	ra,2000144c <_Z9UARTWritePKc>
20000bd4:	00006517          	auipc	a0,0x6
20000bd8:	4e850513          	addi	a0,a0,1256 # 200070bc <strnlen+0x624>
20000bdc:	071000ef          	jal	ra,2000144c <_Z9UARTWritePKc>
20000be0:	f95ff06f          	j	20000b74 <_Z9ListFilesPKc+0x7c>
20000be4:	000b0513          	mv	a0,s6
20000be8:	065000ef          	jal	ra,2000144c <_Z9UARTWritePKc>
20000bec:	00049a63          	bnez	s1,20000c00 <_Z9ListFilesPKc+0x108>
20000bf0:	00040513          	mv	a0,s0
20000bf4:	059000ef          	jal	ra,2000144c <_Z9UARTWritePKc>
20000bf8:	000b8513          	mv	a0,s7
20000bfc:	fd5ff06f          	j	20000bd0 <_Z9ListFilesPKc+0xd8>
20000c00:	00098513          	mv	a0,s3
20000c04:	049000ef          	jal	ra,2000144c <_Z9UARTWritePKc>
20000c08:	fe9ff06f          	j	20000bf0 <_Z9ListFilesPKc+0xf8>
20000c0c:	00090513          	mv	a0,s2
20000c10:	4ed030ef          	jal	ra,200048fc <f_closedir>
20000c14:	17c12083          	lw	ra,380(sp)
20000c18:	17812403          	lw	s0,376(sp)
20000c1c:	17412483          	lw	s1,372(sp)
20000c20:	17012903          	lw	s2,368(sp)
20000c24:	16c12983          	lw	s3,364(sp)
20000c28:	16812a03          	lw	s4,360(sp)
20000c2c:	16412a83          	lw	s5,356(sp)
20000c30:	16012b03          	lw	s6,352(sp)
20000c34:	15c12b83          	lw	s7,348(sp)
20000c38:	15812c03          	lw	s8,344(sp)
20000c3c:	15412c83          	lw	s9,340(sp)
20000c40:	18010113          	addi	sp,sp,384
20000c44:	00008067          	ret
20000c48:	00251513          	slli	a0,a0,0x2
20000c4c:	00009797          	auipc	a5,0x9
20000c50:	ad07a783          	lw	a5,-1328(a5) # 2000971c <_GLOBAL_OFFSET_TABLE_+0x64>
20000c54:	00a787b3          	add	a5,a5,a0
20000c58:	0007a503          	lw	a0,0(a5)
20000c5c:	7f0000ef          	jal	ra,2000144c <_Z9UARTWritePKc>
20000c60:	fb5ff06f          	j	20000c14 <_Z9ListFilesPKc+0x11c>

20000c64 <_Z13ClearTerminalv>:
20000c64:	00006517          	auipc	a0,0x6
20000c68:	4dc50513          	addi	a0,a0,1244 # 20007140 <strnlen+0x6a8>
20000c6c:	7e00006f          	j	2000144c <_Z9UARTWritePKc>

20000c70 <_Z29ParseELFHeaderAndLoadSectionsP3FILP16SElfFileHeader32Rm>:
20000c70:	0015c783          	lbu	a5,1(a1)
20000c74:	0005c703          	lbu	a4,0(a1)
20000c78:	00879793          	slli	a5,a5,0x8
20000c7c:	00e7e7b3          	or	a5,a5,a4
20000c80:	0025c703          	lbu	a4,2(a1)
20000c84:	01071713          	slli	a4,a4,0x10
20000c88:	00f76733          	or	a4,a4,a5
20000c8c:	0035c783          	lbu	a5,3(a1)
20000c90:	01879793          	slli	a5,a5,0x18
20000c94:	00e7e7b3          	or	a5,a5,a4
20000c98:	464c4737          	lui	a4,0x464c4
20000c9c:	57f70713          	addi	a4,a4,1407 # 464c457f <_end+0x264ba327>
20000ca0:	00e78863          	beq	a5,a4,20000cb0 <_Z29ParseELFHeaderAndLoadSectionsP3FILP16SElfFileHeader32Rm+0x40>
20000ca4:	00006517          	auipc	a0,0x6
20000ca8:	4a850513          	addi	a0,a0,1192 # 2000714c <strnlen+0x6b4>
20000cac:	7a00006f          	j	2000144c <_Z9UARTWritePKc>
20000cb0:	f6010113          	addi	sp,sp,-160
20000cb4:	08112e23          	sw	ra,156(sp)
20000cb8:	08812c23          	sw	s0,152(sp)
20000cbc:	08912a23          	sw	s1,148(sp)
20000cc0:	09212823          	sw	s2,144(sp)
20000cc4:	09312623          	sw	s3,140(sp)
20000cc8:	09412423          	sw	s4,136(sp)
20000ccc:	09512223          	sw	s5,132(sp)
20000cd0:	09612023          	sw	s6,128(sp)
20000cd4:	0195c783          	lbu	a5,25(a1)
20000cd8:	0185c703          	lbu	a4,24(a1)
20000cdc:	00058413          	mv	s0,a1
20000ce0:	00879793          	slli	a5,a5,0x8
20000ce4:	00e7e7b3          	or	a5,a5,a4
20000ce8:	01a5c703          	lbu	a4,26(a1)
20000cec:	00050493          	mv	s1,a0
20000cf0:	00c10993          	addi	s3,sp,12
20000cf4:	01071713          	slli	a4,a4,0x10
20000cf8:	00f76733          	or	a4,a4,a5
20000cfc:	01b5c783          	lbu	a5,27(a1)
20000d00:	00000913          	li	s2,0
20000d04:	05810a93          	addi	s5,sp,88
20000d08:	01879793          	slli	a5,a5,0x18
20000d0c:	00e7e7b3          	or	a5,a5,a4
20000d10:	00f62023          	sw	a5,0(a2)
20000d14:	01d5c703          	lbu	a4,29(a1)
20000d18:	01c5c783          	lbu	a5,28(a1)
20000d1c:	00871713          	slli	a4,a4,0x8
20000d20:	00f76733          	or	a4,a4,a5
20000d24:	01e5c783          	lbu	a5,30(a1)
20000d28:	01f5c583          	lbu	a1,31(a1)
20000d2c:	01079793          	slli	a5,a5,0x10
20000d30:	00e7e7b3          	or	a5,a5,a4
20000d34:	01859593          	slli	a1,a1,0x18
20000d38:	00f5e5b3          	or	a1,a1,a5
20000d3c:	76c030ef          	jal	ra,200044a8 <f_lseek>
20000d40:	02000613          	li	a2,32
20000d44:	00098693          	mv	a3,s3
20000d48:	01010593          	addi	a1,sp,16
20000d4c:	00048513          	mv	a0,s1
20000d50:	29c030ef          	jal	ra,20003fec <f_read>
20000d54:	03344783          	lbu	a5,51(s0)
20000d58:	03244703          	lbu	a4,50(s0)
20000d5c:	02e44683          	lbu	a3,46(s0)
20000d60:	00879793          	slli	a5,a5,0x8
20000d64:	00e7e7b3          	or	a5,a5,a4
20000d68:	02f44703          	lbu	a4,47(s0)
20000d6c:	02344583          	lbu	a1,35(s0)
20000d70:	00048513          	mv	a0,s1
20000d74:	00871713          	slli	a4,a4,0x8
20000d78:	00d76733          	or	a4,a4,a3
20000d7c:	02e787b3          	mul	a5,a5,a4
20000d80:	02144683          	lbu	a3,33(s0)
20000d84:	02044703          	lbu	a4,32(s0)
20000d88:	01859593          	slli	a1,a1,0x18
20000d8c:	00869693          	slli	a3,a3,0x8
20000d90:	00e6e6b3          	or	a3,a3,a4
20000d94:	02244703          	lbu	a4,34(s0)
20000d98:	01071713          	slli	a4,a4,0x10
20000d9c:	00d76733          	or	a4,a4,a3
20000da0:	00e5e5b3          	or	a1,a1,a4
20000da4:	00b785b3          	add	a1,a5,a1
20000da8:	700030ef          	jal	ra,200044a8 <f_lseek>
20000dac:	00098693          	mv	a3,s3
20000db0:	02800613          	li	a2,40
20000db4:	03010593          	addi	a1,sp,48
20000db8:	00048513          	mv	a0,s1
20000dbc:	230030ef          	jal	ra,20003fec <f_read>
20000dc0:	04412503          	lw	a0,68(sp)
20000dc4:	37c040ef          	jal	ra,20005140 <malloc>
20000dc8:	04012583          	lw	a1,64(sp)
20000dcc:	00050a13          	mv	s4,a0
20000dd0:	00048513          	mv	a0,s1
20000dd4:	6d4030ef          	jal	ra,200044a8 <f_lseek>
20000dd8:	04412603          	lw	a2,68(sp)
20000ddc:	00098693          	mv	a3,s3
20000de0:	000a0593          	mv	a1,s4
20000de4:	00048513          	mv	a0,s1
20000de8:	204030ef          	jal	ra,20003fec <f_read>
20000dec:	03144783          	lbu	a5,49(s0)
20000df0:	03044703          	lbu	a4,48(s0)
20000df4:	00879793          	slli	a5,a5,0x8
20000df8:	00e7e7b3          	or	a5,a5,a4
20000dfc:	02f96a63          	bltu	s2,a5,20000e30 <_Z29ParseELFHeaderAndLoadSectionsP3FILP16SElfFileHeader32Rm+0x1c0>
20000e00:	000a0513          	mv	a0,s4
20000e04:	34c040ef          	jal	ra,20005150 <free>
20000e08:	09c12083          	lw	ra,156(sp)
20000e0c:	09812403          	lw	s0,152(sp)
20000e10:	09412483          	lw	s1,148(sp)
20000e14:	09012903          	lw	s2,144(sp)
20000e18:	08c12983          	lw	s3,140(sp)
20000e1c:	08812a03          	lw	s4,136(sp)
20000e20:	08412a83          	lw	s5,132(sp)
20000e24:	08012b03          	lw	s6,128(sp)
20000e28:	0a010113          	addi	sp,sp,160
20000e2c:	00008067          	ret
20000e30:	02f44783          	lbu	a5,47(s0)
20000e34:	02e44703          	lbu	a4,46(s0)
20000e38:	02144683          	lbu	a3,33(s0)
20000e3c:	00879793          	slli	a5,a5,0x8
20000e40:	00e7e7b3          	or	a5,a5,a4
20000e44:	032787b3          	mul	a5,a5,s2
20000e48:	02044703          	lbu	a4,32(s0)
20000e4c:	00869693          	slli	a3,a3,0x8
20000e50:	02344583          	lbu	a1,35(s0)
20000e54:	00e6e6b3          	or	a3,a3,a4
20000e58:	02244703          	lbu	a4,34(s0)
20000e5c:	01859593          	slli	a1,a1,0x18
20000e60:	00048513          	mv	a0,s1
20000e64:	01071713          	slli	a4,a4,0x10
20000e68:	00d76733          	or	a4,a4,a3
20000e6c:	00e5e5b3          	or	a1,a1,a4
20000e70:	00b785b3          	add	a1,a5,a1
20000e74:	634030ef          	jal	ra,200044a8 <f_lseek>
20000e78:	00098693          	mv	a3,s3
20000e7c:	02800613          	li	a2,40
20000e80:	000a8593          	mv	a1,s5
20000e84:	00048513          	mv	a0,s1
20000e88:	164030ef          	jal	ra,20003fec <f_read>
20000e8c:	06012783          	lw	a5,96(sp)
20000e90:	0077f793          	andi	a5,a5,7
20000e94:	02078863          	beqz	a5,20000ec4 <_Z29ParseELFHeaderAndLoadSectionsP3FILP16SElfFileHeader32Rm+0x254>
20000e98:	06c12783          	lw	a5,108(sp)
20000e9c:	02078463          	beqz	a5,20000ec4 <_Z29ParseELFHeaderAndLoadSectionsP3FILP16SElfFileHeader32Rm+0x254>
20000ea0:	06812583          	lw	a1,104(sp)
20000ea4:	00048513          	mv	a0,s1
20000ea8:	06412b03          	lw	s6,100(sp)
20000eac:	5fc030ef          	jal	ra,200044a8 <f_lseek>
20000eb0:	06c12603          	lw	a2,108(sp)
20000eb4:	00098693          	mv	a3,s3
20000eb8:	000b0593          	mv	a1,s6
20000ebc:	00048513          	mv	a0,s1
20000ec0:	12c030ef          	jal	ra,20003fec <f_read>
20000ec4:	00190913          	addi	s2,s2,1
20000ec8:	01091913          	slli	s2,s2,0x10
20000ecc:	01095913          	srli	s2,s2,0x10
20000ed0:	f1dff06f          	j	20000dec <_Z29ParseELFHeaderAndLoadSectionsP3FILP16SElfFileHeader32Rm+0x17c>

20000ed4 <_Z13RunExecutableiPKcb>:
20000ed4:	d7010113          	addi	sp,sp,-656
20000ed8:	28812423          	sw	s0,648(sp)
20000edc:	05410413          	addi	s0,sp,84
20000ee0:	29212023          	sw	s2,640(sp)
20000ee4:	00040513          	mv	a0,s0
20000ee8:	00060913          	mv	s2,a2
20000eec:	00100613          	li	a2,1
20000ef0:	28912223          	sw	s1,644(sp)
20000ef4:	28112623          	sw	ra,652(sp)
20000ef8:	00058493          	mv	s1,a1
20000efc:	1a9020ef          	jal	ra,200038a4 <f_open>
20000f00:	0a051463          	bnez	a0,20000fa8 <_Z13RunExecutableiPKcb+0xd4>
20000f04:	01810693          	addi	a3,sp,24
20000f08:	02010593          	addi	a1,sp,32
20000f0c:	03400613          	li	a2,52
20000f10:	00040513          	mv	a0,s0
20000f14:	00b12623          	sw	a1,12(sp)
20000f18:	0d4030ef          	jal	ra,20003fec <f_read>
20000f1c:	00c12583          	lw	a1,12(sp)
20000f20:	01c10613          	addi	a2,sp,28
20000f24:	00040513          	mv	a0,s0
20000f28:	d49ff0ef          	jal	ra,20000c70 <_Z29ParseELFHeaderAndLoadSectionsP3FILP16SElfFileHeader32Rm>
20000f2c:	00040513          	mv	a0,s0
20000f30:	53c030ef          	jal	ra,2000446c <f_close>
20000f34:	00100613          	li	a2,1
20000f38:	00006597          	auipc	a1,0x6
20000f3c:	23458593          	addi	a1,a1,564 # 2000716c <strnlen+0x6d4>
20000f40:	00000513          	li	a0,0
20000f44:	0dd020ef          	jal	ra,20003820 <f_mount>
20000f48:	00006597          	auipc	a1,0x6
20000f4c:	22458593          	addi	a1,a1,548 # 2000716c <strnlen+0x6d4>
20000f50:	00008517          	auipc	a0,0x8
20000f54:	aa450513          	addi	a0,a0,-1372 # 200089f4 <_ZL10currentdir>
20000f58:	5d9040ef          	jal	ra,20005d30 <strcpy>
20000f5c:	e601a223          	sw	zero,-412(gp) # 20009d94 <_ZL9havedrive>
20000f60:	fc000073          	.4byte	0xfc000073
20000f64:	0000100f          	fence.i
20000f68:	01c12403          	lw	s0,28(sp)
20000f6c:	000400e7          	jalr	s0
20000f70:	00100613          	li	a2,1
20000f74:	00006597          	auipc	a1,0x6
20000f78:	1f858593          	addi	a1,a1,504 # 2000716c <strnlen+0x6d4>
20000f7c:	00008517          	auipc	a0,0x8
20000f80:	7a452503          	lw	a0,1956(a0) # 20009720 <_GLOBAL_OFFSET_TABLE_+0x68>
20000f84:	09d020ef          	jal	ra,20003820 <f_mount>
20000f88:	00100793          	li	a5,1
20000f8c:	e6f1a223          	sw	a5,-412(gp) # 20009d94 <_ZL9havedrive>
20000f90:	28c12083          	lw	ra,652(sp)
20000f94:	28812403          	lw	s0,648(sp)
20000f98:	28412483          	lw	s1,644(sp)
20000f9c:	28012903          	lw	s2,640(sp)
20000fa0:	29010113          	addi	sp,sp,656
20000fa4:	00008067          	ret
20000fa8:	fe0904e3          	beqz	s2,20000f90 <_Z13RunExecutableiPKcb+0xbc>
20000fac:	00006517          	auipc	a0,0x6
20000fb0:	1c450513          	addi	a0,a0,452 # 20007170 <strnlen+0x6d8>
20000fb4:	498000ef          	jal	ra,2000144c <_Z9UARTWritePKc>
20000fb8:	00048513          	mv	a0,s1
20000fbc:	490000ef          	jal	ra,2000144c <_Z9UARTWritePKc>
20000fc0:	00006517          	auipc	a0,0x6
20000fc4:	1c050513          	addi	a0,a0,448 # 20007180 <strnlen+0x6e8>
20000fc8:	484000ef          	jal	ra,2000144c <_Z9UARTWritePKc>
20000fcc:	fc5ff06f          	j	20000f90 <_Z13RunExecutableiPKcb+0xbc>

20000fd0 <_Z13ParseCommandsv>:
20000fd0:	ff010113          	addi	sp,sp,-16
20000fd4:	00006597          	auipc	a1,0x6
20000fd8:	b1058593          	addi	a1,a1,-1264 # 20006ae4 <strnlen+0x4c>
20000fdc:	eec18513          	addi	a0,gp,-276 # 20009e1c <_ZL11commandline>
20000fe0:	00812423          	sw	s0,8(sp)
20000fe4:	00112623          	sw	ra,12(sp)
20000fe8:	49c050ef          	jal	ra,20006484 <strtok>
20000fec:	00006597          	auipc	a1,0x6
20000ff0:	1a458593          	addi	a1,a1,420 # 20007190 <strnlen+0x6f8>
20000ff4:	00050413          	mv	s0,a0
20000ff8:	974ff0ef          	jal	ra,2000016c <strcmp>
20000ffc:	04051263          	bnez	a0,20001040 <_Z13ParseCommandsv+0x70>
20001000:	00006517          	auipc	a0,0x6
20001004:	19850513          	addi	a0,a0,408 # 20007198 <strnlen+0x700>
20001008:	444000ef          	jal	ra,2000144c <_Z9UARTWritePKc>
2000100c:	00006517          	auipc	a0,0x6
20001010:	1cc50513          	addi	a0,a0,460 # 200071d8 <strnlen+0x740>
20001014:	438000ef          	jal	ra,2000144c <_Z9UARTWritePKc>
20001018:	00006517          	auipc	a0,0x6
2000101c:	1f450513          	addi	a0,a0,500 # 2000720c <strnlen+0x774>
20001020:	42c000ef          	jal	ra,2000144c <_Z9UARTWritePKc>
20001024:	00006517          	auipc	a0,0x6
20001028:	21850513          	addi	a0,a0,536 # 2000723c <strnlen+0x7a4>
2000102c:	420000ef          	jal	ra,2000144c <_Z9UARTWritePKc>
20001030:	00006517          	auipc	a0,0x6
20001034:	24850513          	addi	a0,a0,584 # 20007278 <strnlen+0x7e0>
20001038:	414000ef          	jal	ra,2000144c <_Z9UARTWritePKc>
2000103c:	0380006f          	j	20001074 <_Z13ParseCommandsv+0xa4>
20001040:	00006597          	auipc	a1,0x6
20001044:	26458593          	addi	a1,a1,612 # 200072a4 <strnlen+0x80c>
20001048:	00040513          	mv	a0,s0
2000104c:	920ff0ef          	jal	ra,2000016c <strcmp>
20001050:	04051463          	bnez	a0,20001098 <_Z13ParseCommandsv+0xc8>
20001054:	00006597          	auipc	a1,0x6
20001058:	a9058593          	addi	a1,a1,-1392 # 20006ae4 <strnlen+0x4c>
2000105c:	428050ef          	jal	ra,20006484 <strtok>
20001060:	00050593          	mv	a1,a0
20001064:	02050463          	beqz	a0,2000108c <_Z13ParseCommandsv+0xbc>
20001068:	00008517          	auipc	a0,0x8
2000106c:	98c50513          	addi	a0,a0,-1652 # 200089f4 <_ZL10currentdir>
20001070:	4c1040ef          	jal	ra,20005d30 <strcpy>
20001074:	00c12083          	lw	ra,12(sp)
20001078:	00812403          	lw	s0,8(sp)
2000107c:	e601a423          	sw	zero,-408(gp) # 20009d98 <_ZL6cmdlen>
20001080:	ee018623          	sb	zero,-276(gp) # 20009e1c <_ZL11commandline>
20001084:	01010113          	addi	sp,sp,16
20001088:	00008067          	ret
2000108c:	00006597          	auipc	a1,0x6
20001090:	0e058593          	addi	a1,a1,224 # 2000716c <strnlen+0x6d4>
20001094:	fd5ff06f          	j	20001068 <_Z13ParseCommandsv+0x98>
20001098:	00006597          	auipc	a1,0x6
2000109c:	21058593          	addi	a1,a1,528 # 200072a8 <strnlen+0x810>
200010a0:	00040513          	mv	a0,s0
200010a4:	8c8ff0ef          	jal	ra,2000016c <strcmp>
200010a8:	00051e63          	bnez	a0,200010c4 <_Z13ParseCommandsv+0xf4>
200010ac:	00008517          	auipc	a0,0x8
200010b0:	94850513          	addi	a0,a0,-1720 # 200089f4 <_ZL10currentdir>
200010b4:	398000ef          	jal	ra,2000144c <_Z9UARTWritePKc>
200010b8:	00006517          	auipc	a0,0x6
200010bc:	0d450513          	addi	a0,a0,212 # 2000718c <strnlen+0x6f4>
200010c0:	f79ff06f          	j	20001038 <_Z13ParseCommandsv+0x68>
200010c4:	00006597          	auipc	a1,0x6
200010c8:	1e858593          	addi	a1,a1,488 # 200072ac <strnlen+0x814>
200010cc:	00040513          	mv	a0,s0
200010d0:	89cff0ef          	jal	ra,2000016c <strcmp>
200010d4:	02051c63          	bnez	a0,2000110c <_Z13ParseCommandsv+0x13c>
200010d8:	00006517          	auipc	a0,0x6
200010dc:	0b450513          	addi	a0,a0,180 # 2000718c <strnlen+0x6f4>
200010e0:	36c000ef          	jal	ra,2000144c <_Z9UARTWritePKc>
200010e4:	00008517          	auipc	a0,0x8
200010e8:	91050513          	addi	a0,a0,-1776 # 200089f4 <_ZL10currentdir>
200010ec:	360000ef          	jal	ra,2000144c <_Z9UARTWritePKc>
200010f0:	00006517          	auipc	a0,0x6
200010f4:	09c50513          	addi	a0,a0,156 # 2000718c <strnlen+0x6f4>
200010f8:	354000ef          	jal	ra,2000144c <_Z9UARTWritePKc>
200010fc:	00008517          	auipc	a0,0x8
20001100:	8f850513          	addi	a0,a0,-1800 # 200089f4 <_ZL10currentdir>
20001104:	9f5ff0ef          	jal	ra,20000af8 <_Z9ListFilesPKc>
20001108:	f6dff06f          	j	20001074 <_Z13ParseCommandsv+0xa4>
2000110c:	00006597          	auipc	a1,0x6
20001110:	1a458593          	addi	a1,a1,420 # 200072b0 <strnlen+0x818>
20001114:	00040513          	mv	a0,s0
20001118:	854ff0ef          	jal	ra,2000016c <strcmp>
2000111c:	00051663          	bnez	a0,20001128 <_Z13ParseCommandsv+0x158>
20001120:	b45ff0ef          	jal	ra,20000c64 <_Z13ClearTerminalv>
20001124:	f51ff06f          	j	20001074 <_Z13ParseCommandsv+0xa4>
20001128:	00006597          	auipc	a1,0x6
2000112c:	18c58593          	addi	a1,a1,396 # 200072b4 <strnlen+0x81c>
20001130:	00040513          	mv	a0,s0
20001134:	838ff0ef          	jal	ra,2000016c <strcmp>
20001138:	00051863          	bnez	a0,20001148 <_Z13ParseCommandsv+0x178>
2000113c:	00100793          	li	a5,1
20001140:	e4f1ae23          	sw	a5,-420(gp) # 20009d8c <_ZL12mainloopdone>
20001144:	f31ff06f          	j	20001074 <_Z13ParseCommandsv+0xa4>
20001148:	f20406e3          	beqz	s0,20001074 <_Z13ParseCommandsv+0xa4>
2000114c:	00008597          	auipc	a1,0x8
20001150:	8a858593          	addi	a1,a1,-1880 # 200089f4 <_ZL10currentdir>
20001154:	e6c18513          	addi	a0,gp,-404 # 20009d9c <_ZL8filename>
20001158:	3d9040ef          	jal	ra,20005d30 <strcpy>
2000115c:	00040593          	mv	a1,s0
20001160:	e6c18513          	addi	a0,gp,-404 # 20009d9c <_ZL8filename>
20001164:	205040ef          	jal	ra,20005b68 <strcat>
20001168:	00006597          	auipc	a1,0x6
2000116c:	15c58593          	addi	a1,a1,348 # 200072c4 <strnlen+0x82c>
20001170:	e6c18513          	addi	a0,gp,-404 # 20009d9c <_ZL8filename>
20001174:	1f5040ef          	jal	ra,20005b68 <strcat>
20001178:	00100613          	li	a2,1
2000117c:	e6c18593          	addi	a1,gp,-404 # 20009d9c <_ZL8filename>
20001180:	00000513          	li	a0,0
20001184:	d51ff0ef          	jal	ra,20000ed4 <_Z13RunExecutableiPKcb>
20001188:	eedff06f          	j	20001074 <_Z13ParseCommandsv+0xa4>

2000118c <_Z16ProcessKeyEventsv>:
2000118c:	fe010113          	addi	sp,sp,-32
20001190:	00112e23          	sw	ra,28(sp)
20001194:	00812c23          	sw	s0,24(sp)
20001198:	00912a23          	sw	s1,20(sp)
2000119c:	00012623          	sw	zero,12(sp)
200011a0:	08800793          	li	a5,136
200011a4:	304797f3          	csrrw	a5,mie,a5
200011a8:	00008797          	auipc	a5,0x8
200011ac:	56c7a783          	lw	a5,1388(a5) # 20009714 <_GLOBAL_OFFSET_TABLE_+0x5c>
200011b0:	0007a503          	lw	a0,0(a5)
200011b4:	00400613          	li	a2,4
200011b8:	00c10593          	addi	a1,sp,12
200011bc:	550000ef          	jal	ra,2000170c <_Z14RingBufferReadPhPvm>
200011c0:	000017b7          	lui	a5,0x1
200011c4:	88878793          	addi	a5,a5,-1912 # 888 <_start-0x1ffff778>
200011c8:	304797f3          	csrrw	a5,mie,a5
200011cc:	08050463          	beqz	a0,20001254 <_Z16ProcessKeyEventsv+0xc8>
200011d0:	00c12503          	lw	a0,12(sp)
200011d4:	05800693          	li	a3,88
200011d8:	0ff57793          	zext.b	a5,a0
200011dc:	10057713          	andi	a4,a0,256
200011e0:	04d79e63          	bne	a5,a3,2000123c <_Z16ProcessKeyEventsv+0xb0>
200011e4:	82018693          	addi	a3,gp,-2016 # 20009750 <_ZZ16ProcessKeyEventsvE9uppercase>
200011e8:	0006a783          	lw	a5,0(a3)
200011ec:	0017b793          	seqz	a5,a5
200011f0:	00f6a023          	sw	a5,0(a3)
200011f4:	06071063          	bnez	a4,20001254 <_Z16ProcessKeyEventsv+0xc8>
200011f8:	e6818413          	addi	s0,gp,-408 # 20009d98 <_ZL6cmdlen>
200011fc:	00042483          	lw	s1,0(s0)
20001200:	8201c583          	lbu	a1,-2016(gp) # 20009750 <_ZZ16ProcessKeyEventsvE9uppercase>
20001204:	0ff57513          	zext.b	a0,a0
20001208:	00148793          	addi	a5,s1,1
2000120c:	00f42023          	sw	a5,0(s0)
20001210:	6bc000ef          	jal	ra,200018cc <_Z11ScanToASCIIhh>
20001214:	eec18793          	addi	a5,gp,-276 # 20009e1c <_ZL11commandline>
20001218:	00042683          	lw	a3,0(s0)
2000121c:	009784b3          	add	s1,a5,s1
20001220:	00a48023          	sb	a0,0(s1)
20001224:	1fe00713          	li	a4,510
20001228:	00d75663          	bge	a4,a3,20001234 <_Z16ProcessKeyEventsv+0xa8>
2000122c:	1ff00713          	li	a4,511
20001230:	00e42023          	sw	a4,0(s0)
20001234:	00042703          	lw	a4,0(s0)
20001238:	0840006f          	j	200012bc <_Z16ProcessKeyEventsv+0x130>
2000123c:	02070a63          	beqz	a4,20001270 <_Z16ProcessKeyEventsv+0xe4>
20001240:	01200713          	li	a4,18
20001244:	00e78663          	beq	a5,a4,20001250 <_Z16ProcessKeyEventsv+0xc4>
20001248:	05900713          	li	a4,89
2000124c:	00e79463          	bne	a5,a4,20001254 <_Z16ProcessKeyEventsv+0xc8>
20001250:	8201a023          	sw	zero,-2016(gp) # 20009750 <_ZZ16ProcessKeyEventsvE9uppercase>
20001254:	00000413          	li	s0,0
20001258:	01c12083          	lw	ra,28(sp)
2000125c:	00040513          	mv	a0,s0
20001260:	01812403          	lw	s0,24(sp)
20001264:	01412483          	lw	s1,20(sp)
20001268:	02010113          	addi	sp,sp,32
2000126c:	00008067          	ret
20001270:	01200713          	li	a4,18
20001274:	00e78663          	beq	a5,a4,20001280 <_Z16ProcessKeyEventsv+0xf4>
20001278:	05900713          	li	a4,89
2000127c:	00e79863          	bne	a5,a4,2000128c <_Z16ProcessKeyEventsv+0x100>
20001280:	00100793          	li	a5,1
20001284:	82f1a023          	sw	a5,-2016(gp) # 20009750 <_ZZ16ProcessKeyEventsvE9uppercase>
20001288:	fcdff06f          	j	20001254 <_Z16ProcessKeyEventsv+0xc8>
2000128c:	05a00713          	li	a4,90
20001290:	00100413          	li	s0,1
20001294:	02e78a63          	beq	a5,a4,200012c8 <_Z16ProcessKeyEventsv+0x13c>
20001298:	e6818693          	addi	a3,gp,-408 # 20009d98 <_ZL6cmdlen>
2000129c:	06600613          	li	a2,102
200012a0:	0006a703          	lw	a4,0(a3)
200012a4:	f4c79ae3          	bne	a5,a2,200011f8 <_Z16ProcessKeyEventsv+0x6c>
200012a8:	fff70793          	addi	a5,a4,-1
200012ac:	0007d463          	bgez	a5,200012b4 <_Z16ProcessKeyEventsv+0x128>
200012b0:	00000793          	li	a5,0
200012b4:	00f6a023          	sw	a5,0(a3)
200012b8:	eec18713          	addi	a4,gp,-276 # 20009e1c <_ZL11commandline>
200012bc:	00e787b3          	add	a5,a5,a4
200012c0:	00078023          	sb	zero,0(a5)
200012c4:	00000413          	li	s0,0
200012c8:	00c14503          	lbu	a0,12(sp)
200012cc:	8201c583          	lbu	a1,-2016(gp) # 20009750 <_ZZ16ProcessKeyEventsvE9uppercase>
200012d0:	5fc000ef          	jal	ra,200018cc <_Z11ScanToASCIIhh>
200012d4:	164000ef          	jal	ra,20001438 <_Z11UARTPutCharc>
200012d8:	f81ff06f          	j	20001258 <_Z16ProcessKeyEventsv+0xcc>

200012dc <_Z10workermainv>:
200012dc:	ff010113          	addi	sp,sp,-16
200012e0:	00112623          	sw	ra,12(sp)
200012e4:	ff4ff0ef          	jal	ra,20000ad8 <_Z16InstallWorkerISRv>
200012e8:	10500073          	wfi
200012ec:	ffdff06f          	j	200012e8 <_Z10workermainv+0xc>

200012f0 <main>:
200012f0:	ff010113          	addi	sp,sp,-16
200012f4:	00000513          	li	a0,0
200012f8:	00112623          	sw	ra,12(sp)
200012fc:	00812423          	sw	s0,8(sp)
20001300:	3f8000ef          	jal	ra,200016f8 <_Z11SetLEDStatem>
20001304:	00100613          	li	a2,1
20001308:	00006597          	auipc	a1,0x6
2000130c:	e6458593          	addi	a1,a1,-412 # 2000716c <strnlen+0x6d4>
20001310:	00008517          	auipc	a0,0x8
20001314:	41052503          	lw	a0,1040(a0) # 20009720 <_GLOBAL_OFFSET_TABLE_+0x68>
20001318:	508020ef          	jal	ra,20003820 <f_mount>
2000131c:	e6418413          	addi	s0,gp,-412 # 20009d94 <_ZL9havedrive>
20001320:	0a050e63          	beqz	a0,200013dc <main+0xec>
20001324:	e601a223          	sw	zero,-412(gp) # 20009d94 <_ZL9havedrive>
20001328:	00251513          	slli	a0,a0,0x2
2000132c:	00008797          	auipc	a5,0x8
20001330:	3f07a783          	lw	a5,1008(a5) # 2000971c <_GLOBAL_OFFSET_TABLE_+0x64>
20001334:	00a787b3          	add	a5,a5,a0
20001338:	0007a503          	lw	a0,0(a5)
2000133c:	110000ef          	jal	ra,2000144c <_Z9UARTWritePKc>
20001340:	925ff0ef          	jal	ra,20000c64 <_Z13ClearTerminalv>
20001344:	00042783          	lw	a5,0(s0)
20001348:	00078c63          	beqz	a5,20001360 <main+0x70>
2000134c:	00000613          	li	a2,0
20001350:	00006597          	auipc	a1,0x6
20001354:	f6c58593          	addi	a1,a1,-148 # 200072bc <strnlen+0x824>
20001358:	00000513          	li	a0,0
2000135c:	b79ff0ef          	jal	ra,20000ed4 <_Z13RunExecutableiPKcb>
20001360:	1fff07b7          	lui	a5,0x1fff0
20001364:	1fff4737          	lui	a4,0x1fff4
20001368:	0007a023          	sw	zero,0(a5) # 1fff0000 <_start-0x10000>
2000136c:	00478793          	addi	a5,a5,4
20001370:	fee79ce3          	bne	a5,a4,20001368 <main+0x78>
20001374:	cdcff0ef          	jal	ra,20000850 <_Z10InstallISRv>
20001378:	00100793          	li	a5,1
2000137c:	e6f1a023          	sw	a5,-416(gp) # 20009d90 <_ZL16numdetectedharts>
20001380:	00008817          	auipc	a6,0x8
20001384:	37882803          	lw	a6,888(a6) # 200096f8 <_GLOBAL_OFFSET_TABLE_+0x40>
20001388:	00008597          	auipc	a1,0x8
2000138c:	36c5a583          	lw	a1,876(a1) # 200096f4 <_GLOBAL_OFFSET_TABLE_+0x3c>
20001390:	00100613          	li	a2,1
20001394:	00800693          	li	a3,8
20001398:	00082703          	lw	a4,0(a6)
2000139c:	00279513          	slli	a0,a5,0x2
200013a0:	00a70733          	add	a4,a4,a0
200013a4:	00072023          	sw	zero,0(a4) # 1fff4000 <_start-0xc000>
200013a8:	0005a703          	lw	a4,0(a1)
200013ac:	00f70733          	add	a4,a4,a5
200013b0:	00c70023          	sb	a2,0(a4)
200013b4:	00178793          	addi	a5,a5,1
200013b8:	fed790e3          	bne	a5,a3,20001398 <main+0xa8>
200013bc:	e5c18413          	addi	s0,gp,-420 # 20009d8c <_ZL12mainloopdone>
200013c0:	00042783          	lw	a5,0(s0)
200013c4:	02078263          	beqz	a5,200013e8 <main+0xf8>
200013c8:	00c12083          	lw	ra,12(sp)
200013cc:	00812403          	lw	s0,8(sp)
200013d0:	00000513          	li	a0,0
200013d4:	01010113          	addi	sp,sp,16
200013d8:	00008067          	ret
200013dc:	00100793          	li	a5,1
200013e0:	00f42023          	sw	a5,0(s0)
200013e4:	f5dff06f          	j	20001340 <main+0x50>
200013e8:	10500073          	wfi
200013ec:	da1ff0ef          	jal	ra,2000118c <_Z16ProcessKeyEventsv>
200013f0:	fc0508e3          	beqz	a0,200013c0 <main+0xd0>
200013f4:	bddff0ef          	jal	ra,20000fd0 <_Z13ParseCommandsv>
200013f8:	fc9ff06f          	j	200013c0 <main+0xd0>

200013fc <_Z11UARTHasDatav>:
200013fc:	00008797          	auipc	a5,0x8
20001400:	3107a783          	lw	a5,784(a5) # 2000970c <_GLOBAL_OFFSET_TABLE_+0x54>
20001404:	0007a783          	lw	a5,0(a5)
20001408:	0007a503          	lw	a0,0(a5)
2000140c:	00157513          	andi	a0,a0,1
20001410:	00008067          	ret

20001414 <_Z9UARTFlushv>:
20001414:	ff010113          	addi	sp,sp,-16
20001418:	00112623          	sw	ra,12(sp)
2000141c:	fe1ff0ef          	jal	ra,200013fc <_Z11UARTHasDatav>
20001420:	00051863          	bnez	a0,20001430 <_Z9UARTFlushv+0x1c>
20001424:	00c12083          	lw	ra,12(sp)
20001428:	01010113          	addi	sp,sp,16
2000142c:	00008067          	ret
20001430:	00000013          	nop
20001434:	fe9ff06f          	j	2000141c <_Z9UARTFlushv+0x8>

20001438 <_Z11UARTPutCharc>:
20001438:	00008797          	auipc	a5,0x8
2000143c:	2c87a783          	lw	a5,712(a5) # 20009700 <_GLOBAL_OFFSET_TABLE_+0x48>
20001440:	0007a783          	lw	a5,0(a5)
20001444:	00a7a023          	sw	a0,0(a5)
20001448:	00008067          	ret

2000144c <_Z9UARTWritePKc>:
2000144c:	fe010113          	addi	sp,sp,-32
20001450:	00812c23          	sw	s0,24(sp)
20001454:	00912a23          	sw	s1,20(sp)
20001458:	01212823          	sw	s2,16(sp)
2000145c:	00112e23          	sw	ra,28(sp)
20001460:	01312623          	sw	s3,12(sp)
20001464:	00050493          	mv	s1,a0
20001468:	00000413          	li	s0,0
2000146c:	30000913          	li	s2,768
20001470:	008487b3          	add	a5,s1,s0
20001474:	0007c503          	lbu	a0,0(a5)
20001478:	02051063          	bnez	a0,20001498 <_Z9UARTWritePKc+0x4c>
2000147c:	01c12083          	lw	ra,28(sp)
20001480:	01812403          	lw	s0,24(sp)
20001484:	01412483          	lw	s1,20(sp)
20001488:	01012903          	lw	s2,16(sp)
2000148c:	00c12983          	lw	s3,12(sp)
20001490:	02010113          	addi	sp,sp,32
20001494:	00008067          	ret
20001498:	00140993          	addi	s3,s0,1
2000149c:	00240413          	addi	s0,s0,2
200014a0:	f99ff0ef          	jal	ra,20001438 <_Z11UARTPutCharc>
200014a4:	03246433          	rem	s0,s0,s2
200014a8:	00041463          	bnez	s0,200014b0 <_Z9UARTWritePKc+0x64>
200014ac:	f69ff0ef          	jal	ra,20001414 <_Z9UARTFlushv>
200014b0:	00098413          	mv	s0,s3
200014b4:	fbdff06f          	j	20001470 <_Z9UARTWritePKc+0x24>

200014b8 <_Z12UARTWriteHexm>:
200014b8:	fd010113          	addi	sp,sp,-48
200014bc:	02812423          	sw	s0,40(sp)
200014c0:	01100613          	li	a2,17
200014c4:	00050413          	mv	s0,a0
200014c8:	00006597          	auipc	a1,0x6
200014cc:	11058593          	addi	a1,a1,272 # 200075d8 <strnlen+0xb40>
200014d0:	00c10513          	addi	a0,sp,12
200014d4:	02112623          	sw	ra,44(sp)
200014d8:	488040ef          	jal	ra,20005960 <memcpy>
200014dc:	00010713          	mv	a4,sp
200014e0:	00900613          	li	a2,9
200014e4:	00006597          	auipc	a1,0x6
200014e8:	10858593          	addi	a1,a1,264 # 200075ec <strnlen+0xb54>
200014ec:	00070513          	mv	a0,a4
200014f0:	470040ef          	jal	ra,20005960 <memcpy>
200014f4:	01c45793          	srli	a5,s0,0x1c
200014f8:	02078793          	addi	a5,a5,32
200014fc:	002787b3          	add	a5,a5,sp
20001500:	fec7c783          	lbu	a5,-20(a5)
20001504:	00f10023          	sb	a5,0(sp)
20001508:	01845793          	srli	a5,s0,0x18
2000150c:	00f7f793          	andi	a5,a5,15
20001510:	02078793          	addi	a5,a5,32
20001514:	002787b3          	add	a5,a5,sp
20001518:	fec7c783          	lbu	a5,-20(a5)
2000151c:	00f100a3          	sb	a5,1(sp)
20001520:	01445793          	srli	a5,s0,0x14
20001524:	00f7f793          	andi	a5,a5,15
20001528:	02078793          	addi	a5,a5,32
2000152c:	002787b3          	add	a5,a5,sp
20001530:	fec7c783          	lbu	a5,-20(a5)
20001534:	00f10123          	sb	a5,2(sp)
20001538:	01045793          	srli	a5,s0,0x10
2000153c:	00f7f793          	andi	a5,a5,15
20001540:	02078793          	addi	a5,a5,32
20001544:	002787b3          	add	a5,a5,sp
20001548:	fec7c783          	lbu	a5,-20(a5)
2000154c:	00f101a3          	sb	a5,3(sp)
20001550:	00c45793          	srli	a5,s0,0xc
20001554:	00f7f793          	andi	a5,a5,15
20001558:	02078793          	addi	a5,a5,32
2000155c:	002787b3          	add	a5,a5,sp
20001560:	fec7c783          	lbu	a5,-20(a5)
20001564:	00f10223          	sb	a5,4(sp)
20001568:	00845793          	srli	a5,s0,0x8
2000156c:	00f7f793          	andi	a5,a5,15
20001570:	02078793          	addi	a5,a5,32
20001574:	002787b3          	add	a5,a5,sp
20001578:	fec7c783          	lbu	a5,-20(a5)
2000157c:	00f102a3          	sb	a5,5(sp)
20001580:	00445793          	srli	a5,s0,0x4
20001584:	00f7f793          	andi	a5,a5,15
20001588:	02078793          	addi	a5,a5,32
2000158c:	002787b3          	add	a5,a5,sp
20001590:	fec7c783          	lbu	a5,-20(a5)
20001594:	00f47413          	andi	s0,s0,15
20001598:	00f10323          	sb	a5,6(sp)
2000159c:	02040793          	addi	a5,s0,32
200015a0:	00278433          	add	s0,a5,sp
200015a4:	fec44783          	lbu	a5,-20(s0)
200015a8:	00f103a3          	sb	a5,7(sp)
200015ac:	ea1ff0ef          	jal	ra,2000144c <_Z9UARTWritePKc>
200015b0:	02c12083          	lw	ra,44(sp)
200015b4:	02812403          	lw	s0,40(sp)
200015b8:	03010113          	addi	sp,sp,48
200015bc:	00008067          	ret

200015c0 <_Z16UARTWriteDecimall>:
200015c0:	fd010113          	addi	sp,sp,-48
200015c4:	02812423          	sw	s0,40(sp)
200015c8:	00b00613          	li	a2,11
200015cc:	00006597          	auipc	a1,0x6
200015d0:	02c58593          	addi	a1,a1,44 # 200075f8 <strnlen+0xb60>
200015d4:	00050413          	mv	s0,a0
200015d8:	00010513          	mv	a0,sp
200015dc:	02112623          	sw	ra,44(sp)
200015e0:	380040ef          	jal	ra,20005960 <memcpy>
200015e4:	00c10813          	addi	a6,sp,12
200015e8:	00080513          	mv	a0,a6
200015ec:	01400613          	li	a2,20
200015f0:	00006597          	auipc	a1,0x6
200015f4:	01458593          	addi	a1,a1,20 # 20007604 <strnlen+0xb6c>
200015f8:	368040ef          	jal	ra,20005960 <memcpy>
200015fc:	00050813          	mv	a6,a0
20001600:	00000713          	li	a4,0
20001604:	00045863          	bgez	s0,20001614 <_Z16UARTWriteDecimall+0x54>
20001608:	02d00793          	li	a5,45
2000160c:	00f10623          	sb	a5,12(sp)
20001610:	00100713          	li	a4,1
20001614:	3b9ad6b7          	lui	a3,0x3b9ad
20001618:	80000537          	lui	a0,0x80000
2000161c:	00a00593          	li	a1,10
20001620:	00000613          	li	a2,0
20001624:	a0068693          	addi	a3,a3,-1536 # 3b9aca00 <_end+0x1b9a27a8>
20001628:	00a00893          	li	a7,10
2000162c:	fff54513          	not	a0,a0
20001630:	00100313          	li	t1,1
20001634:	02d447b3          	div	a5,s0,a3
20001638:	0317e7b3          	rem	a5,a5,a7
2000163c:	00a7f7b3          	and	a5,a5,a0
20001640:	00f66633          	or	a2,a2,a5
20001644:	00061463          	bnez	a2,2000164c <_Z16UARTWriteDecimall+0x8c>
20001648:	02669263          	bne	a3,t1,2000166c <_Z16UARTWriteDecimall+0xac>
2000164c:	02078793          	addi	a5,a5,32
20001650:	002787b3          	add	a5,a5,sp
20001654:	fe07c783          	lbu	a5,-32(a5)
20001658:	02070613          	addi	a2,a4,32
2000165c:	00260633          	add	a2,a2,sp
20001660:	fef60623          	sb	a5,-20(a2)
20001664:	00170713          	addi	a4,a4,1
20001668:	00100613          	li	a2,1
2000166c:	fff58593          	addi	a1,a1,-1
20001670:	0316c6b3          	div	a3,a3,a7
20001674:	fc0590e3          	bnez	a1,20001634 <_Z16UARTWriteDecimall+0x74>
20001678:	02070793          	addi	a5,a4,32
2000167c:	00278733          	add	a4,a5,sp
20001680:	fe070623          	sb	zero,-20(a4)
20001684:	00080513          	mv	a0,a6
20001688:	dc5ff0ef          	jal	ra,2000144c <_Z9UARTWritePKc>
2000168c:	02c12083          	lw	ra,44(sp)
20001690:	02812403          	lw	s0,40(sp)
20001694:	03010113          	addi	sp,sp,48
20001698:	00008067          	ret

2000169c <_Z11E32ReadTimev>:
2000169c:	c81025f3          	rdtimeh	a1
200016a0:	c0102573          	rdtime	a0
200016a4:	c81027f3          	rdtimeh	a5
200016a8:	fef59ae3          	bne	a1,a5,2000169c <_Z11E32ReadTimev>
200016ac:	00008067          	ret

200016b0 <_Z17E32SetTimeComparey>:
200016b0:	00058713          	mv	a4,a1
200016b4:	00000793          	li	a5,0
200016b8:	80171773          	csrrw	a4,0x801,a4
200016bc:	80051573          	csrrw	a0,0x800,a0
200016c0:	00008067          	ret

200016c4 <_sbrk>:
200016c4:	00007697          	auipc	a3,0x7
200016c8:	58c68693          	addi	a3,a3,1420 # 20008c50 <_ZL10heap_start>
200016cc:	00050793          	mv	a5,a0
200016d0:	0006a503          	lw	a0,0(a3)
200016d4:	1ffe0737          	lui	a4,0x1ffe0
200016d8:	00e50c63          	beq	a0,a4,200016f0 <_sbrk+0x2c>
200016dc:	00f50633          	add	a2,a0,a5
200016e0:	00e67463          	bgeu	a2,a4,200016e8 <_sbrk+0x24>
200016e4:	00f60733          	add	a4,a2,a5
200016e8:	00e6a023          	sw	a4,0(a3)
200016ec:	00008067          	ret
200016f0:	00000513          	li	a0,0
200016f4:	00008067          	ret

200016f8 <_Z11SetLEDStatem>:
200016f8:	00008797          	auipc	a5,0x8
200016fc:	fdc7a783          	lw	a5,-36(a5) # 200096d4 <_GLOBAL_OFFSET_TABLE_+0x1c>
20001700:	0007a783          	lw	a5,0(a5)
20001704:	00a7a023          	sw	a0,0(a5)
20001708:	00008067          	ret

2000170c <_Z14RingBufferReadPhPvm>:
2000170c:	ff010113          	addi	sp,sp,-16
20001710:	01212023          	sw	s2,0(sp)
20001714:	00008917          	auipc	s2,0x8
20001718:	ff492903          	lw	s2,-12(s2) # 20009708 <_GLOBAL_OFFSET_TABLE_+0x50>
2000171c:	00092703          	lw	a4,0(s2)
20001720:	00912223          	sw	s1,4(sp)
20001724:	00112623          	sw	ra,12(sp)
20001728:	00072483          	lw	s1,0(a4) # 1ffe0000 <_start-0x20000>
2000172c:	00008717          	auipc	a4,0x8
20001730:	fac72703          	lw	a4,-84(a4) # 200096d8 <_GLOBAL_OFFSET_TABLE_+0x20>
20001734:	00072703          	lw	a4,0(a4)
20001738:	00812423          	sw	s0,8(sp)
2000173c:	00072703          	lw	a4,0(a4)
20001740:	40970733          	sub	a4,a4,s1
20001744:	04c76c63          	bltu	a4,a2,2000179c <_Z14RingBufferReadPhPvm+0x90>
20001748:	00050793          	mv	a5,a0
2000174c:	00060413          	mv	s0,a2
20001750:	00058513          	mv	a0,a1
20001754:	00000013          	nop
20001758:	40000613          	li	a2,1024
2000175c:	3ff4f593          	andi	a1,s1,1023
20001760:	40b60633          	sub	a2,a2,a1
20001764:	00c47463          	bgeu	s0,a2,2000176c <_Z14RingBufferReadPhPvm+0x60>
20001768:	00040613          	mv	a2,s0
2000176c:	00b785b3          	add	a1,a5,a1
20001770:	1f0040ef          	jal	ra,20005960 <memcpy>
20001774:	00092783          	lw	a5,0(s2)
20001778:	008484b3          	add	s1,s1,s0
2000177c:	00100513          	li	a0,1
20001780:	0097a023          	sw	s1,0(a5)
20001784:	00c12083          	lw	ra,12(sp)
20001788:	00812403          	lw	s0,8(sp)
2000178c:	00412483          	lw	s1,4(sp)
20001790:	00012903          	lw	s2,0(sp)
20001794:	01010113          	addi	sp,sp,16
20001798:	00008067          	ret
2000179c:	00000513          	li	a0,0
200017a0:	fe5ff06f          	j	20001784 <_Z14RingBufferReadPhPvm+0x78>

200017a4 <_Z15RingBufferWritePhPKvm>:
200017a4:	ff010113          	addi	sp,sp,-16
200017a8:	00008797          	auipc	a5,0x8
200017ac:	f607a783          	lw	a5,-160(a5) # 20009708 <_GLOBAL_OFFSET_TABLE_+0x50>
200017b0:	0007a783          	lw	a5,0(a5)
200017b4:	01212023          	sw	s2,0(sp)
200017b8:	00008917          	auipc	s2,0x8
200017bc:	f2092903          	lw	s2,-224(s2) # 200096d8 <_GLOBAL_OFFSET_TABLE_+0x20>
200017c0:	00092703          	lw	a4,0(s2)
200017c4:	0007a783          	lw	a5,0(a5)
200017c8:	00912223          	sw	s1,4(sp)
200017cc:	00072483          	lw	s1,0(a4)
200017d0:	40078793          	addi	a5,a5,1024
200017d4:	00112623          	sw	ra,12(sp)
200017d8:	00812423          	sw	s0,8(sp)
200017dc:	409787b3          	sub	a5,a5,s1
200017e0:	04c7e863          	bltu	a5,a2,20001830 <_Z15RingBufferWritePhPKvm+0x8c>
200017e4:	00060413          	mv	s0,a2
200017e8:	3ff4f793          	andi	a5,s1,1023
200017ec:	40000613          	li	a2,1024
200017f0:	40f60633          	sub	a2,a2,a5
200017f4:	00c47463          	bgeu	s0,a2,200017fc <_Z15RingBufferWritePhPKvm+0x58>
200017f8:	00040613          	mv	a2,s0
200017fc:	00f50533          	add	a0,a0,a5
20001800:	160040ef          	jal	ra,20005960 <memcpy>
20001804:	00000013          	nop
20001808:	00092783          	lw	a5,0(s2)
2000180c:	008484b3          	add	s1,s1,s0
20001810:	00100513          	li	a0,1
20001814:	0097a023          	sw	s1,0(a5)
20001818:	00c12083          	lw	ra,12(sp)
2000181c:	00812403          	lw	s0,8(sp)
20001820:	00412483          	lw	s1,4(sp)
20001824:	00012903          	lw	s2,0(sp)
20001828:	01010113          	addi	sp,sp,16
2000182c:	00008067          	ret
20001830:	00000513          	li	a0,0
20001834:	fe5ff06f          	j	20001818 <_Z15RingBufferWritePhPKvm+0x74>

20001838 <_Z12ScanKeyboardPt>:
20001838:	00008797          	auipc	a5,0x8
2000183c:	e987a783          	lw	a5,-360(a5) # 200096d0 <_GLOBAL_OFFSET_TABLE_+0x18>
20001840:	0007a583          	lw	a1,0(a5)
20001844:	0005a683          	lw	a3,0(a1)
20001848:	06068c63          	beqz	a3,200018c0 <_Z12ScanKeyboardPt+0x88>
2000184c:	00008797          	auipc	a5,0x8
20001850:	ea07a783          	lw	a5,-352(a5) # 200096ec <_GLOBAL_OFFSET_TABLE_+0x34>
20001854:	0007a603          	lw	a2,0(a5)
20001858:	0e000693          	li	a3,224
2000185c:	00000713          	li	a4,0
20001860:	00062783          	lw	a5,0(a2)
20001864:	0ff7f793          	zext.b	a5,a5
20001868:	00d79c63          	bne	a5,a3,20001880 <_Z12ScanKeyboardPt+0x48>
2000186c:	0005a783          	lw	a5,0(a1)
20001870:	fe078ee3          	beqz	a5,2000186c <_Z12ScanKeyboardPt+0x34>
20001874:	00062783          	lw	a5,0(a2)
20001878:	00200713          	li	a4,2
2000187c:	0ff7f793          	zext.b	a5,a5
20001880:	0f000813          	li	a6,240
20001884:	00000693          	li	a3,0
20001888:	01079c63          	bne	a5,a6,200018a0 <_Z12ScanKeyboardPt+0x68>
2000188c:	0005a783          	lw	a5,0(a1)
20001890:	fe078ee3          	beqz	a5,2000188c <_Z12ScanKeyboardPt+0x54>
20001894:	00062783          	lw	a5,0(a2)
20001898:	00100693          	li	a3,1
2000189c:	0ff7f793          	zext.b	a5,a5
200018a0:	00971713          	slli	a4,a4,0x9
200018a4:	00869693          	slli	a3,a3,0x8
200018a8:	00179613          	slli	a2,a5,0x1
200018ac:	00d76733          	or	a4,a4,a3
200018b0:	00c50533          	add	a0,a0,a2
200018b4:	00f76733          	or	a4,a4,a5
200018b8:	00e51023          	sh	a4,0(a0) # 80000000 <_end+0x5fff5da8>
200018bc:	00008067          	ret
200018c0:	00000713          	li	a4,0
200018c4:	00000793          	li	a5,0
200018c8:	fd9ff06f          	j	200018a0 <_Z12ScanKeyboardPt+0x68>

200018cc <_Z11ScanToASCIIhh>:
200018cc:	00008797          	auipc	a5,0x8
200018d0:	dfc7a783          	lw	a5,-516(a5) # 200096c8 <_GLOBAL_OFFSET_TABLE_+0x10>
200018d4:	00059663          	bnez	a1,200018e0 <_Z11ScanToASCIIhh+0x14>
200018d8:	00008797          	auipc	a5,0x8
200018dc:	e047a783          	lw	a5,-508(a5) # 200096dc <_GLOBAL_OFFSET_TABLE_+0x24>
200018e0:	00a787b3          	add	a5,a5,a0
200018e4:	0007c503          	lbu	a0,0(a5)
200018e8:	00008067          	ret

200018ec <_Z7SPITxRxh>:
200018ec:	00008797          	auipc	a5,0x8
200018f0:	df87a783          	lw	a5,-520(a5) # 200096e4 <_GLOBAL_OFFSET_TABLE_+0x2c>
200018f4:	0007a703          	lw	a4,0(a5)
200018f8:	00a70023          	sb	a0,0(a4)
200018fc:	0007a783          	lw	a5,0(a5)
20001900:	0007c503          	lbu	a0,0(a5)
20001904:	00008067          	ret

20001908 <_Z5SDCmd13SDCardCommandm>:
20001908:	fd010113          	addi	sp,sp,-48
2000190c:	0185d793          	srli	a5,a1,0x18
20001910:	03f57513          	andi	a0,a0,63
20001914:	00f104a3          	sb	a5,9(sp)
20001918:	0105d793          	srli	a5,a1,0x10
2000191c:	04056513          	ori	a0,a0,64
20001920:	00f10523          	sb	a5,10(sp)
20001924:	0085d793          	srli	a5,a1,0x8
20001928:	03212023          	sw	s2,32(sp)
2000192c:	00a10423          	sb	a0,8(sp)
20001930:	00f105a3          	sb	a5,11(sp)
20001934:	02112623          	sw	ra,44(sp)
20001938:	02812423          	sw	s0,40(sp)
2000193c:	02912223          	sw	s1,36(sp)
20001940:	01312e23          	sw	s3,28(sp)
20001944:	00b10623          	sb	a1,12(sp)
20001948:	00000613          	li	a2,0
2000194c:	00000793          	li	a5,0
20001950:	00810913          	addi	s2,sp,8
20001954:	00500513          	li	a0,5
20001958:	00c90733          	add	a4,s2,a2
2000195c:	00074683          	lbu	a3,0(a4)
20001960:	00800713          	li	a4,8
20001964:	00179793          	slli	a5,a5,0x1
20001968:	0ff7f793          	zext.b	a5,a5
2000196c:	00d7c5b3          	xor	a1,a5,a3
20001970:	01859593          	slli	a1,a1,0x18
20001974:	4185d593          	srai	a1,a1,0x18
20001978:	0005d463          	bgez	a1,20001980 <_Z5SDCmd13SDCardCommandm+0x78>
2000197c:	0097c793          	xori	a5,a5,9
20001980:	fff70713          	addi	a4,a4,-1
20001984:	00169693          	slli	a3,a3,0x1
20001988:	0ff77713          	zext.b	a4,a4
2000198c:	0ff6f693          	zext.b	a3,a3
20001990:	fc071ae3          	bnez	a4,20001964 <_Z5SDCmd13SDCardCommandm+0x5c>
20001994:	00160613          	addi	a2,a2,1
20001998:	fca610e3          	bne	a2,a0,20001958 <_Z5SDCmd13SDCardCommandm+0x50>
2000199c:	00179793          	slli	a5,a5,0x1
200019a0:	0017e793          	ori	a5,a5,1
200019a4:	0ff00513          	li	a0,255
200019a8:	00f106a3          	sb	a5,13(sp)
200019ac:	00000413          	li	s0,0
200019b0:	f3dff0ef          	jal	ra,200018ec <_Z7SPITxRxh>
200019b4:	00600993          	li	s3,6
200019b8:	008907b3          	add	a5,s2,s0
200019bc:	0007c503          	lbu	a0,0(a5)
200019c0:	00140413          	addi	s0,s0,1
200019c4:	f29ff0ef          	jal	ra,200018ec <_Z7SPITxRxh>
200019c8:	00050493          	mv	s1,a0
200019cc:	ff3416e3          	bne	s0,s3,200019b8 <_Z5SDCmd13SDCardCommandm+0xb0>
200019d0:	0ff00513          	li	a0,255
200019d4:	f19ff0ef          	jal	ra,200018ec <_Z7SPITxRxh>
200019d8:	02c12083          	lw	ra,44(sp)
200019dc:	02812403          	lw	s0,40(sp)
200019e0:	02012903          	lw	s2,32(sp)
200019e4:	01c12983          	lw	s3,28(sp)
200019e8:	00048513          	mv	a0,s1
200019ec:	02412483          	lw	s1,36(sp)
200019f0:	03010113          	addi	sp,sp,48
200019f4:	00008067          	ret

200019f8 <_Z11SDResponse1v>:
200019f8:	ff010113          	addi	sp,sp,-16
200019fc:	00812423          	sw	s0,8(sp)
20001a00:	00010437          	lui	s0,0x10
20001a04:	00112623          	sw	ra,12(sp)
20001a08:	00140413          	addi	s0,s0,1 # 10001 <_start-0x1ffeffff>
20001a0c:	0ff00513          	li	a0,255
20001a10:	eddff0ef          	jal	ra,200018ec <_Z7SPITxRxh>
20001a14:	0ff00793          	li	a5,255
20001a18:	00f51663          	bne	a0,a5,20001a24 <_Z11SDResponse1v+0x2c>
20001a1c:	fff40413          	addi	s0,s0,-1
20001a20:	fe0416e3          	bnez	s0,20001a0c <_Z11SDResponse1v+0x14>
20001a24:	00c12083          	lw	ra,12(sp)
20001a28:	00812403          	lw	s0,8(sp)
20001a2c:	01010113          	addi	sp,sp,16
20001a30:	00008067          	ret

20001a34 <_Z11SDResponse7Pm>:
20001a34:	fe010113          	addi	sp,sp,-32
20001a38:	00912a23          	sw	s1,20(sp)
20001a3c:	01312623          	sw	s3,12(sp)
20001a40:	00112e23          	sw	ra,28(sp)
20001a44:	00812c23          	sw	s0,24(sp)
20001a48:	01212823          	sw	s2,16(sp)
20001a4c:	01412423          	sw	s4,8(sp)
20001a50:	00052023          	sw	zero,0(a0)
20001a54:	00050993          	mv	s3,a0
20001a58:	fa1ff0ef          	jal	ra,200019f8 <_Z11SDResponse1v>
20001a5c:	00100793          	li	a5,1
20001a60:	0ff00493          	li	s1,255
20001a64:	04a7e863          	bltu	a5,a0,20001ab4 <_Z11SDResponse7Pm+0x80>
20001a68:	00050493          	mv	s1,a0
20001a6c:	0ff00513          	li	a0,255
20001a70:	e7dff0ef          	jal	ra,200018ec <_Z7SPITxRxh>
20001a74:	00050413          	mv	s0,a0
20001a78:	0ff00513          	li	a0,255
20001a7c:	e71ff0ef          	jal	ra,200018ec <_Z7SPITxRxh>
20001a80:	00050a13          	mv	s4,a0
20001a84:	0ff00513          	li	a0,255
20001a88:	e65ff0ef          	jal	ra,200018ec <_Z7SPITxRxh>
20001a8c:	00050913          	mv	s2,a0
20001a90:	01841413          	slli	s0,s0,0x18
20001a94:	0ff00513          	li	a0,255
20001a98:	010a1a13          	slli	s4,s4,0x10
20001a9c:	e51ff0ef          	jal	ra,200018ec <_Z7SPITxRxh>
20001aa0:	01446433          	or	s0,s0,s4
20001aa4:	00a46433          	or	s0,s0,a0
20001aa8:	00891913          	slli	s2,s2,0x8
20001aac:	01246433          	or	s0,s0,s2
20001ab0:	0089a023          	sw	s0,0(s3)
20001ab4:	01c12083          	lw	ra,28(sp)
20001ab8:	01812403          	lw	s0,24(sp)
20001abc:	01012903          	lw	s2,16(sp)
20001ac0:	00c12983          	lw	s3,12(sp)
20001ac4:	00812a03          	lw	s4,8(sp)
20001ac8:	00048513          	mv	a0,s1
20001acc:	01412483          	lw	s1,20(sp)
20001ad0:	02010113          	addi	sp,sp,32
20001ad4:	00008067          	ret

20001ad8 <_Z6SDIdlev>:
20001ad8:	ff010113          	addi	sp,sp,-16
20001adc:	00000593          	li	a1,0
20001ae0:	00000513          	li	a0,0
20001ae4:	00112623          	sw	ra,12(sp)
20001ae8:	00812423          	sw	s0,8(sp)
20001aec:	e1dff0ef          	jal	ra,20001908 <_Z5SDCmd13SDCardCommandm>
20001af0:	f09ff0ef          	jal	ra,200019f8 <_Z11SDResponse1v>
20001af4:	00100793          	li	a5,1
20001af8:	00050413          	mv	s0,a0
20001afc:	02f50263          	beq	a0,a5,20001b20 <_Z6SDIdlev+0x48>
20001b00:	00006517          	auipc	a0,0x6
20001b04:	b1850513          	addi	a0,a0,-1256 # 20007618 <strnlen+0xb80>
20001b08:	945ff0ef          	jal	ra,2000144c <_Z9UARTWritePKc>
20001b0c:	00040513          	mv	a0,s0
20001b10:	9a9ff0ef          	jal	ra,200014b8 <_Z12UARTWriteHexm>
20001b14:	00005517          	auipc	a0,0x5
20001b18:	67850513          	addi	a0,a0,1656 # 2000718c <strnlen+0x6f4>
20001b1c:	931ff0ef          	jal	ra,2000144c <_Z9UARTWritePKc>
20001b20:	00c12083          	lw	ra,12(sp)
20001b24:	00040513          	mv	a0,s0
20001b28:	00812403          	lw	s0,8(sp)
20001b2c:	01010113          	addi	sp,sp,16
20001b30:	00008067          	ret

20001b34 <_Z19SDCheckVoltageRangev>:
20001b34:	fe010113          	addi	sp,sp,-32
20001b38:	1aa00593          	li	a1,426
20001b3c:	00800513          	li	a0,8
20001b40:	00112e23          	sw	ra,28(sp)
20001b44:	00812c23          	sw	s0,24(sp)
20001b48:	dc1ff0ef          	jal	ra,20001908 <_Z5SDCmd13SDCardCommandm>
20001b4c:	00c10513          	addi	a0,sp,12
20001b50:	ee5ff0ef          	jal	ra,20001a34 <_Z11SDResponse7Pm>
20001b54:	00100793          	li	a5,1
20001b58:	00050413          	mv	s0,a0
20001b5c:	02f50263          	beq	a0,a5,20001b80 <_Z19SDCheckVoltageRangev+0x4c>
20001b60:	00006517          	auipc	a0,0x6
20001b64:	ad850513          	addi	a0,a0,-1320 # 20007638 <strnlen+0xba0>
20001b68:	8e5ff0ef          	jal	ra,2000144c <_Z9UARTWritePKc>
20001b6c:	00040513          	mv	a0,s0
20001b70:	949ff0ef          	jal	ra,200014b8 <_Z12UARTWriteHexm>
20001b74:	00005517          	auipc	a0,0x5
20001b78:	61850513          	addi	a0,a0,1560 # 2000718c <strnlen+0x6f4>
20001b7c:	8d1ff0ef          	jal	ra,2000144c <_Z9UARTWritePKc>
20001b80:	00c12703          	lw	a4,12(sp)
20001b84:	1aa00793          	li	a5,426
20001b88:	02f70263          	beq	a4,a5,20001bac <_Z19SDCheckVoltageRangev+0x78>
20001b8c:	00006517          	auipc	a0,0x6
20001b90:	ad850513          	addi	a0,a0,-1320 # 20007664 <strnlen+0xbcc>
20001b94:	8b9ff0ef          	jal	ra,2000144c <_Z9UARTWritePKc>
20001b98:	00c12503          	lw	a0,12(sp)
20001b9c:	91dff0ef          	jal	ra,200014b8 <_Z12UARTWriteHexm>
20001ba0:	00005517          	auipc	a0,0x5
20001ba4:	5ec50513          	addi	a0,a0,1516 # 2000718c <strnlen+0x6f4>
20001ba8:	8a5ff0ef          	jal	ra,2000144c <_Z9UARTWritePKc>
20001bac:	01c12083          	lw	ra,28(sp)
20001bb0:	00040513          	mv	a0,s0
20001bb4:	01812403          	lw	s0,24(sp)
20001bb8:	02010113          	addi	sp,sp,32
20001bbc:	00008067          	ret

20001bc0 <_Z10SDCardInitv>:
20001bc0:	ff010113          	addi	sp,sp,-16
20001bc4:	01212023          	sw	s2,0(sp)
20001bc8:	00112623          	sw	ra,12(sp)
20001bcc:	00812423          	sw	s0,8(sp)
20001bd0:	00912223          	sw	s1,4(sp)
20001bd4:	00010937          	lui	s2,0x10
20001bd8:	00000593          	li	a1,0
20001bdc:	03700513          	li	a0,55
20001be0:	d29ff0ef          	jal	ra,20001908 <_Z5SDCmd13SDCardCommandm>
20001be4:	e15ff0ef          	jal	ra,200019f8 <_Z11SDResponse1v>
20001be8:	400005b7          	lui	a1,0x40000
20001bec:	00050413          	mv	s0,a0
20001bf0:	02900513          	li	a0,41
20001bf4:	d15ff0ef          	jal	ra,20001908 <_Z5SDCmd13SDCardCommandm>
20001bf8:	e01ff0ef          	jal	ra,200019f8 <_Z11SDResponse1v>
20001bfc:	00050493          	mv	s1,a0
20001c00:	04050463          	beqz	a0,20001c48 <_Z10SDCardInitv+0x88>
20001c04:	fff90913          	addi	s2,s2,-1 # ffff <_start-0x1fff0001>
20001c08:	fc0918e3          	bnez	s2,20001bd8 <_Z10SDCardInitv+0x18>
20001c0c:	00100793          	li	a5,1
20001c10:	02f40263          	beq	s0,a5,20001c34 <_Z10SDCardInitv+0x74>
20001c14:	00006517          	auipc	a0,0x6
20001c18:	a8050513          	addi	a0,a0,-1408 # 20007694 <strnlen+0xbfc>
20001c1c:	831ff0ef          	jal	ra,2000144c <_Z9UARTWritePKc>
20001c20:	00040513          	mv	a0,s0
20001c24:	895ff0ef          	jal	ra,200014b8 <_Z12UARTWriteHexm>
20001c28:	00005517          	auipc	a0,0x5
20001c2c:	56450513          	addi	a0,a0,1380 # 2000718c <strnlen+0x6f4>
20001c30:	81dff0ef          	jal	ra,2000144c <_Z9UARTWritePKc>
20001c34:	00006517          	auipc	a0,0x6
20001c38:	a8450513          	addi	a0,a0,-1404 # 200076b8 <strnlen+0xc20>
20001c3c:	811ff0ef          	jal	ra,2000144c <_Z9UARTWritePKc>
20001c40:	00048513          	mv	a0,s1
20001c44:	01c0006f          	j	20001c60 <_Z10SDCardInitv+0xa0>
20001c48:	00100793          	li	a5,1
20001c4c:	02f40263          	beq	s0,a5,20001c70 <_Z10SDCardInitv+0xb0>
20001c50:	00006517          	auipc	a0,0x6
20001c54:	a4450513          	addi	a0,a0,-1468 # 20007694 <strnlen+0xbfc>
20001c58:	ff4ff0ef          	jal	ra,2000144c <_Z9UARTWritePKc>
20001c5c:	00040513          	mv	a0,s0
20001c60:	859ff0ef          	jal	ra,200014b8 <_Z12UARTWriteHexm>
20001c64:	00005517          	auipc	a0,0x5
20001c68:	52850513          	addi	a0,a0,1320 # 2000718c <strnlen+0x6f4>
20001c6c:	fe0ff0ef          	jal	ra,2000144c <_Z9UARTWritePKc>
20001c70:	00c12083          	lw	ra,12(sp)
20001c74:	00812403          	lw	s0,8(sp)
20001c78:	00012903          	lw	s2,0(sp)
20001c7c:	00048513          	mv	a0,s1
20001c80:	00412483          	lw	s1,4(sp)
20001c84:	01010113          	addi	sp,sp,16
20001c88:	00008067          	ret

20001c8c <_Z17SDReadSingleBlockmPhS_>:
20001c8c:	fe010113          	addi	sp,sp,-32
20001c90:	00912a23          	sw	s1,20(sp)
20001c94:	01312623          	sw	s3,12(sp)
20001c98:	00050493          	mv	s1,a0
20001c9c:	00058993          	mv	s3,a1
20001ca0:	00050593          	mv	a1,a0
20001ca4:	01100513          	li	a0,17
20001ca8:	00112e23          	sw	ra,28(sp)
20001cac:	00812c23          	sw	s0,24(sp)
20001cb0:	01212823          	sw	s2,16(sp)
20001cb4:	01412423          	sw	s4,8(sp)
20001cb8:	00060913          	mv	s2,a2
20001cbc:	c4dff0ef          	jal	ra,20001908 <_Z5SDCmd13SDCardCommandm>
20001cc0:	d39ff0ef          	jal	ra,200019f8 <_Z11SDResponse1v>
20001cc4:	0ff00793          	li	a5,255
20001cc8:	00050413          	mv	s0,a0
20001ccc:	04f50663          	beq	a0,a5,20001d18 <_Z17SDReadSingleBlockmPhS_+0x8c>
20001cd0:	d29ff0ef          	jal	ra,200019f8 <_Z11SDResponse1v>
20001cd4:	0fe00793          	li	a5,254
20001cd8:	00050413          	mv	s0,a0
20001cdc:	06f51063          	bne	a0,a5,20001d3c <_Z17SDReadSingleBlockmPhS_+0xb0>
20001ce0:	00000493          	li	s1,0
20001ce4:	20000a13          	li	s4,512
20001ce8:	0ff00513          	li	a0,255
20001cec:	c01ff0ef          	jal	ra,200018ec <_Z7SPITxRxh>
20001cf0:	009987b3          	add	a5,s3,s1
20001cf4:	00a78023          	sb	a0,0(a5)
20001cf8:	00148493          	addi	s1,s1,1
20001cfc:	ff4496e3          	bne	s1,s4,20001ce8 <_Z17SDReadSingleBlockmPhS_+0x5c>
20001d00:	0ff00513          	li	a0,255
20001d04:	be9ff0ef          	jal	ra,200018ec <_Z7SPITxRxh>
20001d08:	00a90023          	sb	a0,0(s2)
20001d0c:	0ff00513          	li	a0,255
20001d10:	bddff0ef          	jal	ra,200018ec <_Z7SPITxRxh>
20001d14:	00a900a3          	sb	a0,1(s2)
20001d18:	01c12083          	lw	ra,28(sp)
20001d1c:	00040513          	mv	a0,s0
20001d20:	01812403          	lw	s0,24(sp)
20001d24:	01412483          	lw	s1,20(sp)
20001d28:	01012903          	lw	s2,16(sp)
20001d2c:	00c12983          	lw	s3,12(sp)
20001d30:	00812a03          	lw	s4,8(sp)
20001d34:	02010113          	addi	sp,sp,32
20001d38:	00008067          	ret
20001d3c:	00f00793          	li	a5,15
20001d40:	fca7ece3          	bltu	a5,a0,20001d18 <_Z17SDReadSingleBlockmPhS_+0x8c>
20001d44:	00157793          	andi	a5,a0,1
20001d48:	00078863          	beqz	a5,20001d58 <_Z17SDReadSingleBlockmPhS_+0xcc>
20001d4c:	00006517          	auipc	a0,0x6
20001d50:	99050513          	addi	a0,a0,-1648 # 200076dc <strnlen+0xc44>
20001d54:	ef8ff0ef          	jal	ra,2000144c <_Z9UARTWritePKc>
20001d58:	00247793          	andi	a5,s0,2
20001d5c:	00078863          	beqz	a5,20001d6c <_Z17SDReadSingleBlockmPhS_+0xe0>
20001d60:	00006517          	auipc	a0,0x6
20001d64:	9ac50513          	addi	a0,a0,-1620 # 2000770c <strnlen+0xc74>
20001d68:	ee4ff0ef          	jal	ra,2000144c <_Z9UARTWritePKc>
20001d6c:	00447793          	andi	a5,s0,4
20001d70:	00078863          	beqz	a5,20001d80 <_Z17SDReadSingleBlockmPhS_+0xf4>
20001d74:	00006517          	auipc	a0,0x6
20001d78:	9c850513          	addi	a0,a0,-1592 # 2000773c <strnlen+0xca4>
20001d7c:	ed0ff0ef          	jal	ra,2000144c <_Z9UARTWritePKc>
20001d80:	00847793          	andi	a5,s0,8
20001d84:	f8078ae3          	beqz	a5,20001d18 <_Z17SDReadSingleBlockmPhS_+0x8c>
20001d88:	00006517          	auipc	a0,0x6
20001d8c:	9ec50513          	addi	a0,a0,-1556 # 20007774 <strnlen+0xcdc>
20001d90:	ebcff0ef          	jal	ra,2000144c <_Z9UARTWritePKc>
20001d94:	00048513          	mv	a0,s1
20001d98:	f20ff0ef          	jal	ra,200014b8 <_Z12UARTWriteHexm>
20001d9c:	00005517          	auipc	a0,0x5
20001da0:	3f050513          	addi	a0,a0,1008 # 2000718c <strnlen+0x6f4>
20001da4:	ea8ff0ef          	jal	ra,2000144c <_Z9UARTWritePKc>
20001da8:	f71ff06f          	j	20001d18 <_Z17SDReadSingleBlockmPhS_+0x8c>

20001dac <_Z18SDWriteSingleBlockmPhS_>:
20001dac:	ff010113          	addi	sp,sp,-16
20001db0:	00912223          	sw	s1,4(sp)
20001db4:	00058493          	mv	s1,a1
20001db8:	00050593          	mv	a1,a0
20001dbc:	01100513          	li	a0,17
20001dc0:	00112623          	sw	ra,12(sp)
20001dc4:	00812423          	sw	s0,8(sp)
20001dc8:	01212023          	sw	s2,0(sp)
20001dcc:	b3dff0ef          	jal	ra,20001908 <_Z5SDCmd13SDCardCommandm>
20001dd0:	c29ff0ef          	jal	ra,200019f8 <_Z11SDResponse1v>
20001dd4:	06051063          	bnez	a0,20001e34 <_Z18SDWriteSingleBlockmPhS_+0x88>
20001dd8:	0fe00513          	li	a0,254
20001ddc:	b11ff0ef          	jal	ra,200018ec <_Z7SPITxRxh>
20001de0:	00000413          	li	s0,0
20001de4:	20000913          	li	s2,512
20001de8:	008487b3          	add	a5,s1,s0
20001dec:	0007c503          	lbu	a0,0(a5)
20001df0:	00140413          	addi	s0,s0,1
20001df4:	af9ff0ef          	jal	ra,200018ec <_Z7SPITxRxh>
20001df8:	ff2418e3          	bne	s0,s2,20001de8 <_Z18SDWriteSingleBlockmPhS_+0x3c>
20001dfc:	bfdff0ef          	jal	ra,200019f8 <_Z11SDResponse1v>
20001e00:	01f57513          	andi	a0,a0,31
20001e04:	00500793          	li	a5,5
20001e08:	00f51e63          	bne	a0,a5,20001e24 <_Z18SDWriteSingleBlockmPhS_+0x78>
20001e0c:	00812403          	lw	s0,8(sp)
20001e10:	00c12083          	lw	ra,12(sp)
20001e14:	00412483          	lw	s1,4(sp)
20001e18:	00012903          	lw	s2,0(sp)
20001e1c:	01010113          	addi	sp,sp,16
20001e20:	bd9ff06f          	j	200019f8 <_Z11SDResponse1v>
20001e24:	00006517          	auipc	a0,0x6
20001e28:	99050513          	addi	a0,a0,-1648 # 200077b4 <strnlen+0xd1c>
20001e2c:	e20ff0ef          	jal	ra,2000144c <_Z9UARTWritePKc>
20001e30:	0ff00513          	li	a0,255
20001e34:	00c12083          	lw	ra,12(sp)
20001e38:	00812403          	lw	s0,8(sp)
20001e3c:	00412483          	lw	s1,4(sp)
20001e40:	00012903          	lw	s2,0(sp)
20001e44:	01010113          	addi	sp,sp,16
20001e48:	00008067          	ret

20001e4c <_Z20SDReadMultipleBlocksPhmm>:
20001e4c:	dd010113          	addi	sp,sp,-560
20001e50:	21412c23          	sw	s4,536(sp)
20001e54:	22112623          	sw	ra,556(sp)
20001e58:	22812423          	sw	s0,552(sp)
20001e5c:	22912223          	sw	s1,548(sp)
20001e60:	23212023          	sw	s2,544(sp)
20001e64:	21312e23          	sw	s3,540(sp)
20001e68:	21512a23          	sw	s5,532(sp)
20001e6c:	21612823          	sw	s6,528(sp)
20001e70:	00c58a33          	add	s4,a1,a2
20001e74:	04058a63          	beqz	a1,20001ec8 <_Z20SDReadMultipleBlocksPhmm+0x7c>
20001e78:	00050913          	mv	s2,a0
20001e7c:	00060493          	mv	s1,a2
20001e80:	00000413          	li	s0,0
20001e84:	00c10a93          	addi	s5,sp,12
20001e88:	01010993          	addi	s3,sp,16
20001e8c:	0fe00b13          	li	s6,254
20001e90:	000a8613          	mv	a2,s5
20001e94:	00098593          	mv	a1,s3
20001e98:	00048513          	mv	a0,s1
20001e9c:	df1ff0ef          	jal	ra,20001c8c <_Z17SDReadSingleBlockmPhS_>
20001ea0:	03651463          	bne	a0,s6,20001ec8 <_Z20SDReadMultipleBlocksPhmm+0x7c>
20001ea4:	00890533          	add	a0,s2,s0
20001ea8:	20000613          	li	a2,512
20001eac:	00098593          	mv	a1,s3
20001eb0:	00148493          	addi	s1,s1,1
20001eb4:	2ad030ef          	jal	ra,20005960 <memcpy>
20001eb8:	20040413          	addi	s0,s0,512
20001ebc:	fc9a1ae3          	bne	s4,s1,20001e90 <_Z20SDReadMultipleBlocksPhmm+0x44>
20001ec0:	00040513          	mv	a0,s0
20001ec4:	0080006f          	j	20001ecc <_Z20SDReadMultipleBlocksPhmm+0x80>
20001ec8:	fff00513          	li	a0,-1
20001ecc:	22c12083          	lw	ra,556(sp)
20001ed0:	22812403          	lw	s0,552(sp)
20001ed4:	22412483          	lw	s1,548(sp)
20001ed8:	22012903          	lw	s2,544(sp)
20001edc:	21c12983          	lw	s3,540(sp)
20001ee0:	21812a03          	lw	s4,536(sp)
20001ee4:	21412a83          	lw	s5,532(sp)
20001ee8:	21012b03          	lw	s6,528(sp)
20001eec:	23010113          	addi	sp,sp,560
20001ef0:	00008067          	ret

20001ef4 <_Z21SDWriteMultipleBlocksPKhmm>:
20001ef4:	dd010113          	addi	sp,sp,-560
20001ef8:	21412c23          	sw	s4,536(sp)
20001efc:	22112623          	sw	ra,556(sp)
20001f00:	22812423          	sw	s0,552(sp)
20001f04:	22912223          	sw	s1,548(sp)
20001f08:	23212023          	sw	s2,544(sp)
20001f0c:	21312e23          	sw	s3,540(sp)
20001f10:	21512a23          	sw	s5,532(sp)
20001f14:	21612823          	sw	s6,528(sp)
20001f18:	00c58a33          	add	s4,a1,a2
20001f1c:	04058a63          	beqz	a1,20001f70 <_Z21SDWriteMultipleBlocksPKhmm+0x7c>
20001f20:	00050913          	mv	s2,a0
20001f24:	00060493          	mv	s1,a2
20001f28:	00000413          	li	s0,0
20001f2c:	01010993          	addi	s3,sp,16
20001f30:	00c10a93          	addi	s5,sp,12
20001f34:	0fe00b13          	li	s6,254
20001f38:	20000613          	li	a2,512
20001f3c:	008905b3          	add	a1,s2,s0
20001f40:	00098513          	mv	a0,s3
20001f44:	21d030ef          	jal	ra,20005960 <memcpy>
20001f48:	000a8613          	mv	a2,s5
20001f4c:	00098593          	mv	a1,s3
20001f50:	00048513          	mv	a0,s1
20001f54:	e59ff0ef          	jal	ra,20001dac <_Z18SDWriteSingleBlockmPhS_>
20001f58:	01651c63          	bne	a0,s6,20001f70 <_Z21SDWriteMultipleBlocksPKhmm+0x7c>
20001f5c:	00148493          	addi	s1,s1,1
20001f60:	20040413          	addi	s0,s0,512
20001f64:	fc9a1ae3          	bne	s4,s1,20001f38 <_Z21SDWriteMultipleBlocksPKhmm+0x44>
20001f68:	00040513          	mv	a0,s0
20001f6c:	0080006f          	j	20001f74 <_Z21SDWriteMultipleBlocksPKhmm+0x80>
20001f70:	fff00513          	li	a0,-1
20001f74:	22c12083          	lw	ra,556(sp)
20001f78:	22812403          	lw	s0,552(sp)
20001f7c:	22412483          	lw	s1,548(sp)
20001f80:	22012903          	lw	s2,544(sp)
20001f84:	21c12983          	lw	s3,540(sp)
20001f88:	21812a03          	lw	s4,536(sp)
20001f8c:	21412a83          	lw	s5,532(sp)
20001f90:	21012b03          	lw	s6,528(sp)
20001f94:	23010113          	addi	sp,sp,560
20001f98:	00008067          	ret

20001f9c <_Z13SDCardStartupv>:
20001f9c:	ff010113          	addi	sp,sp,-16
20001fa0:	00812423          	sw	s0,8(sp)
20001fa4:	00112623          	sw	ra,12(sp)
20001fa8:	00a00413          	li	s0,10
20001fac:	0ff00513          	li	a0,255
20001fb0:	fff40413          	addi	s0,s0,-1
20001fb4:	939ff0ef          	jal	ra,200018ec <_Z7SPITxRxh>
20001fb8:	fe041ae3          	bnez	s0,20001fac <_Z13SDCardStartupv+0x10>
20001fbc:	b1dff0ef          	jal	ra,20001ad8 <_Z6SDIdlev>
20001fc0:	00100793          	li	a5,1
20001fc4:	00050413          	mv	s0,a0
20001fc8:	00f50c63          	beq	a0,a5,20001fe0 <_Z13SDCardStartupv+0x44>
20001fcc:	fff00513          	li	a0,-1
20001fd0:	00c12083          	lw	ra,12(sp)
20001fd4:	00812403          	lw	s0,8(sp)
20001fd8:	01010113          	addi	sp,sp,16
20001fdc:	00008067          	ret
20001fe0:	b55ff0ef          	jal	ra,20001b34 <_Z19SDCheckVoltageRangev>
20001fe4:	fe8514e3          	bne	a0,s0,20001fcc <_Z13SDCardStartupv+0x30>
20001fe8:	bd9ff0ef          	jal	ra,20001bc0 <_Z10SDCardInitv>
20001fec:	00a03533          	snez	a0,a0
20001ff0:	40a00533          	neg	a0,a0
20001ff4:	fddff06f          	j	20001fd0 <_Z13SDCardStartupv+0x34>

20001ff8 <_ZL8ld_dwordPKh>:
20001ff8:	00154703          	lbu	a4,1(a0)
20001ffc:	00054783          	lbu	a5,0(a0)
20002000:	00871713          	slli	a4,a4,0x8
20002004:	00f76733          	or	a4,a4,a5
20002008:	00254783          	lbu	a5,2(a0)
2000200c:	00354503          	lbu	a0,3(a0)
20002010:	01079793          	slli	a5,a5,0x10
20002014:	00e7e7b3          	or	a5,a5,a4
20002018:	01851513          	slli	a0,a0,0x18
2000201c:	00f56533          	or	a0,a0,a5
20002020:	00008067          	ret

20002024 <_ZL9clst2sectP5FATFSm>:
20002024:	01c52783          	lw	a5,28(a0)
20002028:	ffe58593          	addi	a1,a1,-2 # 3ffffffe <_end+0x1fff5da6>
2000202c:	ffe78793          	addi	a5,a5,-2
20002030:	00f5fc63          	bgeu	a1,a5,20002048 <_ZL9clst2sectP5FATFSm+0x24>
20002034:	00a55783          	lhu	a5,10(a0)
20002038:	03052703          	lw	a4,48(a0)
2000203c:	02b787b3          	mul	a5,a5,a1
20002040:	00e78533          	add	a0,a5,a4
20002044:	00008067          	ret
20002048:	00000513          	li	a0,0
2000204c:	00008067          	ret

20002050 <_ZL10clmt_clustP3FILm>:
20002050:	00052703          	lw	a4,0(a0)
20002054:	0095d593          	srli	a1,a1,0x9
20002058:	02852783          	lw	a5,40(a0)
2000205c:	00a75703          	lhu	a4,10(a4)
20002060:	00478793          	addi	a5,a5,4
20002064:	02e5d5b3          	divu	a1,a1,a4
20002068:	0007a503          	lw	a0,0(a5)
2000206c:	00050e63          	beqz	a0,20002088 <_ZL10clmt_clustP3FILm+0x38>
20002070:	00a5e863          	bltu	a1,a0,20002080 <_ZL10clmt_clustP3FILm+0x30>
20002074:	40a585b3          	sub	a1,a1,a0
20002078:	00878793          	addi	a5,a5,8
2000207c:	fedff06f          	j	20002068 <_ZL10clmt_clustP3FILm+0x18>
20002080:	0047a503          	lw	a0,4(a5)
20002084:	00a58533          	add	a0,a1,a0
20002088:	00008067          	ret

2000208c <_ZL7sum_sfnPKh>:
2000208c:	00050793          	mv	a5,a0
20002090:	00b50693          	addi	a3,a0,11
20002094:	00000513          	li	a0,0
20002098:	0007c603          	lbu	a2,0(a5)
2000209c:	00155713          	srli	a4,a0,0x1
200020a0:	00751513          	slli	a0,a0,0x7
200020a4:	00a76733          	or	a4,a4,a0
200020a8:	00178793          	addi	a5,a5,1
200020ac:	00c70733          	add	a4,a4,a2
200020b0:	0ff77513          	zext.b	a0,a4
200020b4:	fed792e3          	bne	a5,a3,20002098 <_ZL7sum_sfnPKh+0xc>
200020b8:	00008067          	ret

200020bc <_ZL12get_ldnumberPPKc>:
200020bc:	00052603          	lw	a2,0(a0)
200020c0:	00050593          	mv	a1,a0
200020c4:	0a060a63          	beqz	a2,20002178 <_ZL12get_ldnumberPPKc+0xbc>
200020c8:	00060693          	mv	a3,a2
200020cc:	01f00513          	li	a0,31
200020d0:	03a00713          	li	a4,58
200020d4:	0006c783          	lbu	a5,0(a3)
200020d8:	00168693          	addi	a3,a3,1
200020dc:	08f57263          	bgeu	a0,a5,20002160 <_ZL12get_ldnumberPPKc+0xa4>
200020e0:	fee79ae3          	bne	a5,a4,200020d4 <_ZL12get_ldnumberPPKc+0x18>
200020e4:	00064783          	lbu	a5,0(a2)
200020e8:	fd078513          	addi	a0,a5,-48
200020ec:	0ff57713          	zext.b	a4,a0
200020f0:	00900793          	li	a5,9
200020f4:	06e7fa63          	bgeu	a5,a4,20002168 <_ZL12get_ldnumberPPKc+0xac>
200020f8:	00007317          	auipc	t1,0x7
200020fc:	d8430313          	addi	t1,t1,-636 # 20008e7c <_ZL9VolumeStr>
20002100:	00000513          	li	a0,0
20002104:	01900e13          	li	t3,25
20002108:	00300f93          	li	t6,3
2000210c:	00032e83          	lw	t4,0(t1)
20002110:	00060813          	mv	a6,a2
20002114:	000ec703          	lbu	a4,0(t4)
20002118:	00084783          	lbu	a5,0(a6)
2000211c:	001e8e93          	addi	t4,t4,1
20002120:	f9f70f13          	addi	t5,a4,-97
20002124:	f9f78893          	addi	a7,a5,-97
20002128:	0fff7f13          	zext.b	t5,t5
2000212c:	00180813          	addi	a6,a6,1
20002130:	0ff8f893          	zext.b	a7,a7
20002134:	05ee6663          	bltu	t3,t5,20002180 <_ZL12get_ldnumberPPKc+0xc4>
20002138:	fe070713          	addi	a4,a4,-32
2000213c:	0ff77713          	zext.b	a4,a4
20002140:	011e6663          	bltu	t3,a7,2000214c <_ZL12get_ldnumberPPKc+0x90>
20002144:	fe078793          	addi	a5,a5,-32
20002148:	0ff7f793          	zext.b	a5,a5
2000214c:	fce784e3          	beq	a5,a4,20002114 <_ZL12get_ldnumberPPKc+0x58>
20002150:	00150513          	addi	a0,a0,1
20002154:	00430313          	addi	t1,t1,4
20002158:	fbf51ae3          	bne	a0,t6,2000210c <_ZL12get_ldnumberPPKc+0x50>
2000215c:	01c0006f          	j	20002178 <_ZL12get_ldnumberPPKc+0xbc>
20002160:	2ec1c503          	lbu	a0,748(gp) # 2000a21c <_ZL7CurrVol>
20002164:	00008067          	ret
20002168:	00260793          	addi	a5,a2,2
2000216c:	f8f696e3          	bne	a3,a5,200020f8 <_ZL12get_ldnumberPPKc+0x3c>
20002170:	00200793          	li	a5,2
20002174:	02a7d063          	bge	a5,a0,20002194 <_ZL12get_ldnumberPPKc+0xd8>
20002178:	fff00513          	li	a0,-1
2000217c:	00008067          	ret
20002180:	011e6663          	bltu	t3,a7,2000218c <_ZL12get_ldnumberPPKc+0xd0>
20002184:	fe078793          	addi	a5,a5,-32
20002188:	0ff7f793          	zext.b	a5,a5
2000218c:	fc0710e3          	bnez	a4,2000214c <_ZL12get_ldnumberPPKc+0x90>
20002190:	fd0690e3          	bne	a3,a6,20002150 <_ZL12get_ldnumberPPKc+0x94>
20002194:	00d5a023          	sw	a3,0(a1)
20002198:	00008067          	ret

2000219c <_ZL8validateP7FFOBJIDPP5FATFS>:
2000219c:	ff010113          	addi	sp,sp,-16
200021a0:	00912223          	sw	s1,4(sp)
200021a4:	00112623          	sw	ra,12(sp)
200021a8:	00812423          	sw	s0,8(sp)
200021ac:	00058493          	mv	s1,a1
200021b0:	02051263          	bnez	a0,200021d4 <_ZL8validateP7FFOBJIDPP5FATFS+0x38>
200021b4:	00900513          	li	a0,9
200021b8:	00000793          	li	a5,0
200021bc:	00c12083          	lw	ra,12(sp)
200021c0:	00812403          	lw	s0,8(sp)
200021c4:	00f4a023          	sw	a5,0(s1)
200021c8:	00412483          	lw	s1,4(sp)
200021cc:	01010113          	addi	sp,sp,16
200021d0:	00008067          	ret
200021d4:	00052783          	lw	a5,0(a0)
200021d8:	00050413          	mv	s0,a0
200021dc:	fc078ce3          	beqz	a5,200021b4 <_ZL8validateP7FFOBJIDPP5FATFS+0x18>
200021e0:	0007c703          	lbu	a4,0(a5)
200021e4:	fc0708e3          	beqz	a4,200021b4 <_ZL8validateP7FFOBJIDPP5FATFS+0x18>
200021e8:	00455683          	lhu	a3,4(a0)
200021ec:	0067d703          	lhu	a4,6(a5)
200021f0:	fce692e3          	bne	a3,a4,200021b4 <_ZL8validateP7FFOBJIDPP5FATFS+0x18>
200021f4:	0017c503          	lbu	a0,1(a5)
200021f8:	571020ef          	jal	ra,20004f68 <disk_status>
200021fc:	00157513          	andi	a0,a0,1
20002200:	fa051ae3          	bnez	a0,200021b4 <_ZL8validateP7FFOBJIDPP5FATFS+0x18>
20002204:	00042783          	lw	a5,0(s0)
20002208:	fb5ff06f          	j	200021bc <_ZL8validateP7FFOBJIDPP5FATFS+0x20>

2000220c <_ZL11sync_windowP5FATFS>:
2000220c:	00354783          	lbu	a5,3(a0)
20002210:	08078263          	beqz	a5,20002294 <_ZL11sync_windowP5FATFS+0x88>
20002214:	fe010113          	addi	sp,sp,-32
20002218:	00812c23          	sw	s0,24(sp)
2000221c:	00112e23          	sw	ra,28(sp)
20002220:	03850593          	addi	a1,a0,56
20002224:	03452603          	lw	a2,52(a0)
20002228:	00050413          	mv	s0,a0
2000222c:	00154503          	lbu	a0,1(a0)
20002230:	00100693          	li	a3,1
20002234:	00b12623          	sw	a1,12(sp)
20002238:	5ad020ef          	jal	ra,20004fe4 <disk_write>
2000223c:	00100793          	li	a5,1
20002240:	04051063          	bnez	a0,20002280 <_ZL11sync_windowP5FATFS+0x74>
20002244:	03442603          	lw	a2,52(s0)
20002248:	02842783          	lw	a5,40(s0)
2000224c:	02042703          	lw	a4,32(s0)
20002250:	000401a3          	sb	zero,3(s0)
20002254:	40f607b3          	sub	a5,a2,a5
20002258:	02e7f263          	bgeu	a5,a4,2000227c <_ZL11sync_windowP5FATFS+0x70>
2000225c:	00244683          	lbu	a3,2(s0)
20002260:	00200793          	li	a5,2
20002264:	00c12583          	lw	a1,12(sp)
20002268:	00f69a63          	bne	a3,a5,2000227c <_ZL11sync_windowP5FATFS+0x70>
2000226c:	00144503          	lbu	a0,1(s0)
20002270:	00100693          	li	a3,1
20002274:	00e60633          	add	a2,a2,a4
20002278:	56d020ef          	jal	ra,20004fe4 <disk_write>
2000227c:	00000793          	li	a5,0
20002280:	01c12083          	lw	ra,28(sp)
20002284:	01812403          	lw	s0,24(sp)
20002288:	00078513          	mv	a0,a5
2000228c:	02010113          	addi	sp,sp,32
20002290:	00008067          	ret
20002294:	00000793          	li	a5,0
20002298:	00078513          	mv	a0,a5
2000229c:	00008067          	ret

200022a0 <_ZL11move_windowP5FATFSm>:
200022a0:	03452783          	lw	a5,52(a0)
200022a4:	04b78e63          	beq	a5,a1,20002300 <_ZL11move_windowP5FATFSm+0x60>
200022a8:	ff010113          	addi	sp,sp,-16
200022ac:	00812423          	sw	s0,8(sp)
200022b0:	00912223          	sw	s1,4(sp)
200022b4:	00112623          	sw	ra,12(sp)
200022b8:	00050413          	mv	s0,a0
200022bc:	00058493          	mv	s1,a1
200022c0:	f4dff0ef          	jal	ra,2000220c <_ZL11sync_windowP5FATFS>
200022c4:	02051463          	bnez	a0,200022ec <_ZL11move_windowP5FATFSm+0x4c>
200022c8:	00144503          	lbu	a0,1(s0)
200022cc:	00100693          	li	a3,1
200022d0:	00048613          	mv	a2,s1
200022d4:	03840593          	addi	a1,s0,56
200022d8:	4cd020ef          	jal	ra,20004fa4 <disk_read>
200022dc:	00050663          	beqz	a0,200022e8 <_ZL11move_windowP5FATFSm+0x48>
200022e0:	00100513          	li	a0,1
200022e4:	fff00493          	li	s1,-1
200022e8:	02942a23          	sw	s1,52(s0)
200022ec:	00c12083          	lw	ra,12(sp)
200022f0:	00812403          	lw	s0,8(sp)
200022f4:	00412483          	lw	s1,4(sp)
200022f8:	01010113          	addi	sp,sp,16
200022fc:	00008067          	ret
20002300:	00000513          	li	a0,0
20002304:	00008067          	ret

20002308 <_ZL8check_fsP5FATFSm>:
20002308:	ff010113          	addi	sp,sp,-16
2000230c:	00812423          	sw	s0,8(sp)
20002310:	00912223          	sw	s1,4(sp)
20002314:	00112623          	sw	ra,12(sp)
20002318:	01212023          	sw	s2,0(sp)
2000231c:	fff00793          	li	a5,-1
20002320:	000501a3          	sb	zero,3(a0)
20002324:	02f52a23          	sw	a5,52(a0)
20002328:	00050413          	mv	s0,a0
2000232c:	f75ff0ef          	jal	ra,200022a0 <_ZL11move_windowP5FATFSm>
20002330:	00400493          	li	s1,4
20002334:	04051263          	bnez	a0,20002378 <_ZL8check_fsP5FATFSm+0x70>
20002338:	23744903          	lbu	s2,567(s0)
2000233c:	23644783          	lbu	a5,566(s0)
20002340:	0eb00713          	li	a4,235
20002344:	00891913          	slli	s2,s2,0x8
20002348:	00f96933          	or	s2,s2,a5
2000234c:	03844783          	lbu	a5,56(s0)
20002350:	00050493          	mv	s1,a0
20002354:	04e78063          	beq	a5,a4,20002394 <_ZL8check_fsP5FATFSm+0x8c>
20002358:	01878793          	addi	a5,a5,24
2000235c:	0ff7f793          	zext.b	a5,a5
20002360:	00100713          	li	a4,1
20002364:	02f77863          	bgeu	a4,a5,20002394 <_ZL8check_fsP5FATFSm+0x8c>
20002368:	0000b7b7          	lui	a5,0xb
2000236c:	a5578793          	addi	a5,a5,-1451 # aa55 <_start-0x1fff55ab>
20002370:	04f91863          	bne	s2,a5,200023c0 <_ZL8check_fsP5FATFSm+0xb8>
20002374:	00200493          	li	s1,2
20002378:	00c12083          	lw	ra,12(sp)
2000237c:	00812403          	lw	s0,8(sp)
20002380:	00012903          	lw	s2,0(sp)
20002384:	00048513          	mv	a0,s1
20002388:	00412483          	lw	s1,4(sp)
2000238c:	01010113          	addi	sp,sp,16
20002390:	00008067          	ret
20002394:	0000b7b7          	lui	a5,0xb
20002398:	a5578793          	addi	a5,a5,-1451 # aa55 <_start-0x1fff55ab>
2000239c:	02f90663          	beq	s2,a5,200023c8 <_ZL8check_fsP5FATFSm+0xc0>
200023a0:	04444783          	lbu	a5,68(s0)
200023a4:	04344683          	lbu	a3,67(s0)
200023a8:	04544703          	lbu	a4,69(s0)
200023ac:	00879793          	slli	a5,a5,0x8
200023b0:	00d7e7b3          	or	a5,a5,a3
200023b4:	20000693          	li	a3,512
200023b8:	00d79463          	bne	a5,a3,200023c0 <_ZL8check_fsP5FATFSm+0xb8>
200023bc:	0c071463          	bnez	a4,20002484 <_ZL8check_fsP5FATFSm+0x17c>
200023c0:	00300493          	li	s1,3
200023c4:	fb5ff06f          	j	20002378 <_ZL8check_fsP5FATFSm+0x70>
200023c8:	00800613          	li	a2,8
200023cc:	00005597          	auipc	a1,0x5
200023d0:	40c58593          	addi	a1,a1,1036 # 200077d8 <strnlen+0xd40>
200023d4:	08a40513          	addi	a0,s0,138
200023d8:	510030ef          	jal	ra,200058e8 <memcmp>
200023dc:	f8050ee3          	beqz	a0,20002378 <_ZL8check_fsP5FATFSm+0x70>
200023e0:	04444783          	lbu	a5,68(s0)
200023e4:	04344683          	lbu	a3,67(s0)
200023e8:	04544703          	lbu	a4,69(s0)
200023ec:	00879793          	slli	a5,a5,0x8
200023f0:	00d7e7b3          	or	a5,a5,a3
200023f4:	20000693          	li	a3,512
200023f8:	f6d79ee3          	bne	a5,a3,20002374 <_ZL8check_fsP5FATFSm+0x6c>
200023fc:	f6070ce3          	beqz	a4,20002374 <_ZL8check_fsP5FATFSm+0x6c>
20002400:	fff70793          	addi	a5,a4,-1
20002404:	00e7f7b3          	and	a5,a5,a4
20002408:	f60796e3          	bnez	a5,20002374 <_ZL8check_fsP5FATFSm+0x6c>
2000240c:	04744783          	lbu	a5,71(s0)
20002410:	04644703          	lbu	a4,70(s0)
20002414:	00879793          	slli	a5,a5,0x8
20002418:	00e7e7b3          	or	a5,a5,a4
2000241c:	f40786e3          	beqz	a5,20002368 <_ZL8check_fsP5FATFSm+0x60>
20002420:	04844783          	lbu	a5,72(s0)
20002424:	00100713          	li	a4,1
20002428:	fff78793          	addi	a5,a5,-1
2000242c:	f2f76ee3          	bltu	a4,a5,20002368 <_ZL8check_fsP5FATFSm+0x60>
20002430:	04a44783          	lbu	a5,74(s0)
20002434:	04944703          	lbu	a4,73(s0)
20002438:	00879793          	slli	a5,a5,0x8
2000243c:	00e7e7b3          	or	a5,a5,a4
20002440:	f20784e3          	beqz	a5,20002368 <_ZL8check_fsP5FATFSm+0x60>
20002444:	04c44783          	lbu	a5,76(s0)
20002448:	04b44703          	lbu	a4,75(s0)
2000244c:	00879793          	slli	a5,a5,0x8
20002450:	00e7e7b3          	or	a5,a5,a4
20002454:	07f00713          	li	a4,127
20002458:	00f76a63          	bltu	a4,a5,2000246c <_ZL8check_fsP5FATFSm+0x164>
2000245c:	05840513          	addi	a0,s0,88
20002460:	b99ff0ef          	jal	ra,20001ff8 <_ZL8ld_dwordPKh>
20002464:	000107b7          	lui	a5,0x10
20002468:	f0f560e3          	bltu	a0,a5,20002368 <_ZL8check_fsP5FATFSm+0x60>
2000246c:	04f44783          	lbu	a5,79(s0)
20002470:	04e44703          	lbu	a4,78(s0)
20002474:	00879793          	slli	a5,a5,0x8
20002478:	00e7e7b3          	or	a5,a5,a4
2000247c:	ee0786e3          	beqz	a5,20002368 <_ZL8check_fsP5FATFSm+0x60>
20002480:	ef9ff06f          	j	20002378 <_ZL8check_fsP5FATFSm+0x70>
20002484:	fff70793          	addi	a5,a4,-1
20002488:	00e7f7b3          	and	a5,a5,a4
2000248c:	f2079ae3          	bnez	a5,200023c0 <_ZL8check_fsP5FATFSm+0xb8>
20002490:	f7dff06f          	j	2000240c <_ZL8check_fsP5FATFSm+0x104>

20002494 <_ZL7put_fatP5FATFSmm>:
20002494:	00100693          	li	a3,1
20002498:	1eb6f063          	bgeu	a3,a1,20002678 <_ZL7put_fatP5FATFSmm+0x1e4>
2000249c:	01c52703          	lw	a4,28(a0)
200024a0:	fe010113          	addi	sp,sp,-32
200024a4:	00912a23          	sw	s1,20(sp)
200024a8:	01212823          	sw	s2,16(sp)
200024ac:	00112e23          	sw	ra,28(sp)
200024b0:	00812c23          	sw	s0,24(sp)
200024b4:	01312623          	sw	s3,12(sp)
200024b8:	01412423          	sw	s4,8(sp)
200024bc:	01512223          	sw	s5,4(sp)
200024c0:	00050913          	mv	s2,a0
200024c4:	00058493          	mv	s1,a1
200024c8:	00200793          	li	a5,2
200024cc:	0ce5f463          	bgeu	a1,a4,20002594 <_ZL7put_fatP5FATFSmm+0x100>
200024d0:	00054703          	lbu	a4,0(a0)
200024d4:	00060413          	mv	s0,a2
200024d8:	0ef70e63          	beq	a4,a5,200025d4 <_ZL7put_fatP5FATFSmm+0x140>
200024dc:	00300793          	li	a5,3
200024e0:	12f70a63          	beq	a4,a5,20002614 <_ZL7put_fatP5FATFSmm+0x180>
200024e4:	00200793          	li	a5,2
200024e8:	0ad71663          	bne	a4,a3,20002594 <_ZL7put_fatP5FATFSmm+0x100>
200024ec:	02852783          	lw	a5,40(a0)
200024f0:	0015d993          	srli	s3,a1,0x1
200024f4:	00b989b3          	add	s3,s3,a1
200024f8:	0099d593          	srli	a1,s3,0x9
200024fc:	00f585b3          	add	a1,a1,a5
20002500:	da1ff0ef          	jal	ra,200022a0 <_ZL11move_windowP5FATFSm>
20002504:	00050793          	mv	a5,a0
20002508:	08051663          	bnez	a0,20002594 <_ZL7put_fatP5FATFSmm+0x100>
2000250c:	03890a13          	addi	s4,s2,56
20002510:	00198a93          	addi	s5,s3,1
20002514:	0014f493          	andi	s1,s1,1
20002518:	1ff9f993          	andi	s3,s3,511
2000251c:	013a09b3          	add	s3,s4,s3
20002520:	0ff47793          	zext.b	a5,s0
20002524:	02048263          	beqz	s1,20002548 <_ZL7put_fatP5FATFSmm+0xb4>
20002528:	0009c783          	lbu	a5,0(s3)
2000252c:	000016b7          	lui	a3,0x1
20002530:	00441713          	slli	a4,s0,0x4
20002534:	ff068693          	addi	a3,a3,-16 # ff0 <_start-0x1ffff010>
20002538:	00f7f793          	andi	a5,a5,15
2000253c:	00d77733          	and	a4,a4,a3
20002540:	00e7e7b3          	or	a5,a5,a4
20002544:	0ff7f793          	zext.b	a5,a5
20002548:	00f98023          	sb	a5,0(s3)
2000254c:	00100793          	li	a5,1
20002550:	00f901a3          	sb	a5,3(s2)
20002554:	02892783          	lw	a5,40(s2)
20002558:	009ad593          	srli	a1,s5,0x9
2000255c:	00090513          	mv	a0,s2
20002560:	00f585b3          	add	a1,a1,a5
20002564:	d3dff0ef          	jal	ra,200022a0 <_ZL11move_windowP5FATFSm>
20002568:	00050793          	mv	a5,a0
2000256c:	02051463          	bnez	a0,20002594 <_ZL7put_fatP5FATFSmm+0x100>
20002570:	1ffafa93          	andi	s5,s5,511
20002574:	015a0a33          	add	s4,s4,s5
20002578:	04048263          	beqz	s1,200025bc <_ZL7put_fatP5FATFSmm+0x128>
2000257c:	00445793          	srli	a5,s0,0x4
20002580:	0ff7f793          	zext.b	a5,a5
20002584:	00fa0023          	sb	a5,0(s4)
20002588:	00100793          	li	a5,1
2000258c:	00f901a3          	sb	a5,3(s2)
20002590:	00000793          	li	a5,0
20002594:	01c12083          	lw	ra,28(sp)
20002598:	01812403          	lw	s0,24(sp)
2000259c:	01412483          	lw	s1,20(sp)
200025a0:	01012903          	lw	s2,16(sp)
200025a4:	00c12983          	lw	s3,12(sp)
200025a8:	00812a03          	lw	s4,8(sp)
200025ac:	00412a83          	lw	s5,4(sp)
200025b0:	00078513          	mv	a0,a5
200025b4:	02010113          	addi	sp,sp,32
200025b8:	00008067          	ret
200025bc:	000a4783          	lbu	a5,0(s4)
200025c0:	00845413          	srli	s0,s0,0x8
200025c4:	00f47413          	andi	s0,s0,15
200025c8:	ff07f793          	andi	a5,a5,-16
200025cc:	0087e7b3          	or	a5,a5,s0
200025d0:	fb5ff06f          	j	20002584 <_ZL7put_fatP5FATFSmm+0xf0>
200025d4:	02852783          	lw	a5,40(a0)
200025d8:	0085d593          	srli	a1,a1,0x8
200025dc:	00f585b3          	add	a1,a1,a5
200025e0:	cc1ff0ef          	jal	ra,200022a0 <_ZL11move_windowP5FATFSm>
200025e4:	00050793          	mv	a5,a0
200025e8:	fa0516e3          	bnez	a0,20002594 <_ZL7put_fatP5FATFSmm+0x100>
200025ec:	00149493          	slli	s1,s1,0x1
200025f0:	03890793          	addi	a5,s2,56
200025f4:	1fe4f493          	andi	s1,s1,510
200025f8:	009787b3          	add	a5,a5,s1
200025fc:	00878023          	sb	s0,0(a5) # 10000 <_start-0x1fff0000>
20002600:	01041413          	slli	s0,s0,0x10
20002604:	01045413          	srli	s0,s0,0x10
20002608:	00845413          	srli	s0,s0,0x8
2000260c:	008780a3          	sb	s0,1(a5)
20002610:	f79ff06f          	j	20002588 <_ZL7put_fatP5FATFSmm+0xf4>
20002614:	02852783          	lw	a5,40(a0)
20002618:	0075d593          	srli	a1,a1,0x7
2000261c:	00f585b3          	add	a1,a1,a5
20002620:	c81ff0ef          	jal	ra,200022a0 <_ZL11move_windowP5FATFSm>
20002624:	00050793          	mv	a5,a0
20002628:	f60516e3          	bnez	a0,20002594 <_ZL7put_fatP5FATFSmm+0x100>
2000262c:	00249493          	slli	s1,s1,0x2
20002630:	03890793          	addi	a5,s2,56
20002634:	1fc4f493          	andi	s1,s1,508
20002638:	009784b3          	add	s1,a5,s1
2000263c:	00048513          	mv	a0,s1
20002640:	9b9ff0ef          	jal	ra,20001ff8 <_ZL8ld_dwordPKh>
20002644:	f00007b7          	lui	a5,0xf0000
20002648:	00441413          	slli	s0,s0,0x4
2000264c:	00f57533          	and	a0,a0,a5
20002650:	00445413          	srli	s0,s0,0x4
20002654:	00a46433          	or	s0,s0,a0
20002658:	00845793          	srli	a5,s0,0x8
2000265c:	00848023          	sb	s0,0(s1)
20002660:	00f480a3          	sb	a5,1(s1)
20002664:	01045793          	srli	a5,s0,0x10
20002668:	01845413          	srli	s0,s0,0x18
2000266c:	00f48123          	sb	a5,2(s1)
20002670:	008481a3          	sb	s0,3(s1)
20002674:	f15ff06f          	j	20002588 <_ZL7put_fatP5FATFSmm+0xf4>
20002678:	00200793          	li	a5,2
2000267c:	00078513          	mv	a0,a5
20002680:	00008067          	ret

20002684 <_ZL12mount_volumePPKcPP5FATFSh>:
20002684:	fd010113          	addi	sp,sp,-48
20002688:	03212023          	sw	s2,32(sp)
2000268c:	01312e23          	sw	s3,28(sp)
20002690:	02112623          	sw	ra,44(sp)
20002694:	02812423          	sw	s0,40(sp)
20002698:	02912223          	sw	s1,36(sp)
2000269c:	01412c23          	sw	s4,24(sp)
200026a0:	01512a23          	sw	s5,20(sp)
200026a4:	0005a023          	sw	zero,0(a1)
200026a8:	00058993          	mv	s3,a1
200026ac:	00060913          	mv	s2,a2
200026b0:	a0dff0ef          	jal	ra,200020bc <_ZL12get_ldnumberPPKc>
200026b4:	3a054263          	bltz	a0,20002a58 <_ZL12mount_volumePPKcPP5FATFSh+0x3d4>
200026b8:	00251713          	slli	a4,a0,0x2
200026bc:	2f018793          	addi	a5,gp,752 # 2000a220 <_ZL5FatFs>
200026c0:	00e787b3          	add	a5,a5,a4
200026c4:	0007a403          	lw	s0,0(a5) # f0000000 <_end+0xcfff5da8>
200026c8:	00050493          	mv	s1,a0
200026cc:	00c00513          	li	a0,12
200026d0:	02040a63          	beqz	s0,20002704 <_ZL12mount_volumePPKcPP5FATFSh+0x80>
200026d4:	0089a023          	sw	s0,0(s3)
200026d8:	00044783          	lbu	a5,0(s0)
200026dc:	0fe97913          	andi	s2,s2,254
200026e0:	04078863          	beqz	a5,20002730 <_ZL12mount_volumePPKcPP5FATFSh+0xac>
200026e4:	00144503          	lbu	a0,1(s0)
200026e8:	081020ef          	jal	ra,20004f68 <disk_status>
200026ec:	00157793          	andi	a5,a0,1
200026f0:	04079063          	bnez	a5,20002730 <_ZL12mount_volumePPKcPP5FATFSh+0xac>
200026f4:	00090663          	beqz	s2,20002700 <_ZL12mount_volumePPKcPP5FATFSh+0x7c>
200026f8:	00457513          	andi	a0,a0,4
200026fc:	02051663          	bnez	a0,20002728 <_ZL12mount_volumePPKcPP5FATFSh+0xa4>
20002700:	00000513          	li	a0,0
20002704:	02c12083          	lw	ra,44(sp)
20002708:	02812403          	lw	s0,40(sp)
2000270c:	02412483          	lw	s1,36(sp)
20002710:	02012903          	lw	s2,32(sp)
20002714:	01c12983          	lw	s3,28(sp)
20002718:	01812a03          	lw	s4,24(sp)
2000271c:	01412a83          	lw	s5,20(sp)
20002720:	03010113          	addi	sp,sp,48
20002724:	00008067          	ret
20002728:	00a00513          	li	a0,10
2000272c:	fd9ff06f          	j	20002704 <_ZL12mount_volumePPKcPP5FATFSh+0x80>
20002730:	0ff4f513          	zext.b	a0,s1
20002734:	00040023          	sb	zero,0(s0)
20002738:	00a400a3          	sb	a0,1(s0)
2000273c:	039020ef          	jal	ra,20004f74 <disk_initialize>
20002740:	00157713          	andi	a4,a0,1
20002744:	00050793          	mv	a5,a0
20002748:	00300513          	li	a0,3
2000274c:	fa071ce3          	bnez	a4,20002704 <_ZL12mount_volumePPKcPP5FATFSh+0x80>
20002750:	00090663          	beqz	s2,2000275c <_ZL12mount_volumePPKcPP5FATFSh+0xd8>
20002754:	0047f793          	andi	a5,a5,4
20002758:	fc0798e3          	bnez	a5,20002728 <_ZL12mount_volumePPKcPP5FATFSh+0xa4>
2000275c:	00000593          	li	a1,0
20002760:	00040513          	mv	a0,s0
20002764:	ba5ff0ef          	jal	ra,20002308 <_ZL8check_fsP5FATFSm>
20002768:	00200793          	li	a5,2
2000276c:	06f51263          	bne	a0,a5,200027d0 <_ZL12mount_volumePPKcPP5FATFSh+0x14c>
20002770:	00010493          	mv	s1,sp
20002774:	1fe40913          	addi	s2,s0,510
20002778:	23e40a13          	addi	s4,s0,574
2000277c:	00048993          	mv	s3,s1
20002780:	00090513          	mv	a0,s2
20002784:	875ff0ef          	jal	ra,20001ff8 <_ZL8ld_dwordPKh>
20002788:	00a9a023          	sw	a0,0(s3)
2000278c:	01090913          	addi	s2,s2,16
20002790:	00498993          	addi	s3,s3,4
20002794:	ff4916e3          	bne	s2,s4,20002780 <_ZL12mount_volumePPKcPP5FATFSh+0xfc>
20002798:	01048913          	addi	s2,s1,16
2000279c:	00100993          	li	s3,1
200027a0:	0004a583          	lw	a1,0(s1)
200027a4:	00300513          	li	a0,3
200027a8:	00058863          	beqz	a1,200027b8 <_ZL12mount_volumePPKcPP5FATFSh+0x134>
200027ac:	00040513          	mv	a0,s0
200027b0:	b59ff0ef          	jal	ra,20002308 <_ZL8check_fsP5FATFSm>
200027b4:	02a9fa63          	bgeu	s3,a0,200027e8 <_ZL12mount_volumePPKcPP5FATFSh+0x164>
200027b8:	00448493          	addi	s1,s1,4
200027bc:	fe9912e3          	bne	s2,s1,200027a0 <_ZL12mount_volumePPKcPP5FATFSh+0x11c>
200027c0:	00400793          	li	a5,4
200027c4:	00f51e63          	bne	a0,a5,200027e0 <_ZL12mount_volumePPKcPP5FATFSh+0x15c>
200027c8:	00100513          	li	a0,1
200027cc:	f39ff06f          	j	20002704 <_ZL12mount_volumePPKcPP5FATFSh+0x80>
200027d0:	00400793          	li	a5,4
200027d4:	fef50ae3          	beq	a0,a5,200027c8 <_ZL12mount_volumePPKcPP5FATFSh+0x144>
200027d8:	00100793          	li	a5,1
200027dc:	00a7f663          	bgeu	a5,a0,200027e8 <_ZL12mount_volumePPKcPP5FATFSh+0x164>
200027e0:	00d00513          	li	a0,13
200027e4:	f21ff06f          	j	20002704 <_ZL12mount_volumePPKcPP5FATFSh+0x80>
200027e8:	04444783          	lbu	a5,68(s0)
200027ec:	04344703          	lbu	a4,67(s0)
200027f0:	03442a03          	lw	s4,52(s0)
200027f4:	00879793          	slli	a5,a5,0x8
200027f8:	00e7e7b3          	or	a5,a5,a4
200027fc:	20000713          	li	a4,512
20002800:	fee790e3          	bne	a5,a4,200027e0 <_ZL12mount_volumePPKcPP5FATFSh+0x15c>
20002804:	04f44983          	lbu	s3,79(s0)
20002808:	04e44783          	lbu	a5,78(s0)
2000280c:	00899993          	slli	s3,s3,0x8
20002810:	00f9e9b3          	or	s3,s3,a5
20002814:	00099863          	bnez	s3,20002824 <_ZL12mount_volumePPKcPP5FATFSh+0x1a0>
20002818:	05c40513          	addi	a0,s0,92
2000281c:	fdcff0ef          	jal	ra,20001ff8 <_ZL8ld_dwordPKh>
20002820:	00050993          	mv	s3,a0
20002824:	04844483          	lbu	s1,72(s0)
20002828:	03342023          	sw	s3,32(s0)
2000282c:	00100713          	li	a4,1
20002830:	fff48793          	addi	a5,s1,-1
20002834:	00940123          	sb	s1,2(s0)
20002838:	0ff7f793          	zext.b	a5,a5
2000283c:	faf762e3          	bltu	a4,a5,200027e0 <_ZL12mount_volumePPKcPP5FATFSh+0x15c>
20002840:	04544a83          	lbu	s5,69(s0)
20002844:	01541523          	sh	s5,10(s0)
20002848:	f80a8ce3          	beqz	s5,200027e0 <_ZL12mount_volumePPKcPP5FATFSh+0x15c>
2000284c:	fffa8793          	addi	a5,s5,-1
20002850:	0157f7b3          	and	a5,a5,s5
20002854:	f80796e3          	bnez	a5,200027e0 <_ZL12mount_volumePPKcPP5FATFSh+0x15c>
20002858:	04a44903          	lbu	s2,74(s0)
2000285c:	04944783          	lbu	a5,73(s0)
20002860:	00891913          	slli	s2,s2,0x8
20002864:	00f96933          	or	s2,s2,a5
20002868:	01241423          	sh	s2,8(s0)
2000286c:	00f97793          	andi	a5,s2,15
20002870:	f60798e3          	bnez	a5,200027e0 <_ZL12mount_volumePPKcPP5FATFSh+0x15c>
20002874:	04c44783          	lbu	a5,76(s0)
20002878:	04b44703          	lbu	a4,75(s0)
2000287c:	00879793          	slli	a5,a5,0x8
20002880:	00e7e533          	or	a0,a5,a4
20002884:	00051663          	bnez	a0,20002890 <_ZL12mount_volumePPKcPP5FATFSh+0x20c>
20002888:	05840513          	addi	a0,s0,88
2000288c:	f6cff0ef          	jal	ra,20001ff8 <_ZL8ld_dwordPKh>
20002890:	04744703          	lbu	a4,71(s0)
20002894:	04644783          	lbu	a5,70(s0)
20002898:	00871713          	slli	a4,a4,0x8
2000289c:	00f76733          	or	a4,a4,a5
200028a0:	f40700e3          	beqz	a4,200027e0 <_ZL12mount_volumePPKcPP5FATFSh+0x15c>
200028a4:	033487b3          	mul	a5,s1,s3
200028a8:	00495693          	srli	a3,s2,0x4
200028ac:	00e686b3          	add	a3,a3,a4
200028b0:	00f68633          	add	a2,a3,a5
200028b4:	f2c566e3          	bltu	a0,a2,200027e0 <_ZL12mount_volumePPKcPP5FATFSh+0x15c>
200028b8:	40c506b3          	sub	a3,a0,a2
200028bc:	0356d5b3          	divu	a1,a3,s5
200028c0:	f356e0e3          	bltu	a3,s5,200027e0 <_ZL12mount_volumePPKcPP5FATFSh+0x15c>
200028c4:	100006b7          	lui	a3,0x10000
200028c8:	ff568693          	addi	a3,a3,-11 # ffffff5 <_start-0x1000000b>
200028cc:	f0b6eae3          	bltu	a3,a1,200027e0 <_ZL12mount_volumePPKcPP5FATFSh+0x15c>
200028d0:	00ca06b3          	add	a3,s4,a2
200028d4:	00010637          	lui	a2,0x10
200028d8:	ff560613          	addi	a2,a2,-11 # fff5 <_start-0x1fff000b>
200028dc:	01470733          	add	a4,a4,s4
200028e0:	00258493          	addi	s1,a1,2
200028e4:	04b66c63          	bltu	a2,a1,2000293c <_ZL12mount_volumePPKcPP5FATFSh+0x2b8>
200028e8:	00001637          	lui	a2,0x1
200028ec:	ff560613          	addi	a2,a2,-11 # ff5 <_start-0x1ffff00b>
200028f0:	00942e23          	sw	s1,28(s0)
200028f4:	03442223          	sw	s4,36(s0)
200028f8:	02e42423          	sw	a4,40(s0)
200028fc:	02d42823          	sw	a3,48(s0)
20002900:	02b66463          	bltu	a2,a1,20002928 <_ZL12mount_volumePPKcPP5FATFSh+0x2a4>
20002904:	ec090ee3          	beqz	s2,200027e0 <_ZL12mount_volumePPKcPP5FATFSh+0x15c>
20002908:	00e78533          	add	a0,a5,a4
2000290c:	00300793          	li	a5,3
20002910:	00100913          	li	s2,1
20002914:	02f487b3          	mul	a5,s1,a5
20002918:	0014f493          	andi	s1,s1,1
2000291c:	0017d793          	srli	a5,a5,0x1
20002920:	009784b3          	add	s1,a5,s1
20002924:	0500006f          	j	20002974 <_ZL12mount_volumePPKcPP5FATFSh+0x2f0>
20002928:	ea090ce3          	beqz	s2,200027e0 <_ZL12mount_volumePPKcPP5FATFSh+0x15c>
2000292c:	00e78533          	add	a0,a5,a4
20002930:	00149493          	slli	s1,s1,0x1
20002934:	00200913          	li	s2,2
20002938:	03c0006f          	j	20002974 <_ZL12mount_volumePPKcPP5FATFSh+0x2f0>
2000293c:	06344783          	lbu	a5,99(s0)
20002940:	02e42423          	sw	a4,40(s0)
20002944:	06244703          	lbu	a4,98(s0)
20002948:	00879793          	slli	a5,a5,0x8
2000294c:	00942e23          	sw	s1,28(s0)
20002950:	00e7e7b3          	or	a5,a5,a4
20002954:	03442223          	sw	s4,36(s0)
20002958:	02d42823          	sw	a3,48(s0)
2000295c:	00f96933          	or	s2,s2,a5
20002960:	e80910e3          	bnez	s2,200027e0 <_ZL12mount_volumePPKcPP5FATFSh+0x15c>
20002964:	06440513          	addi	a0,s0,100
20002968:	e90ff0ef          	jal	ra,20001ff8 <_ZL8ld_dwordPKh>
2000296c:	00249493          	slli	s1,s1,0x2
20002970:	00300913          	li	s2,3
20002974:	1ff48493          	addi	s1,s1,511
20002978:	02a42623          	sw	a0,44(s0)
2000297c:	0094d493          	srli	s1,s1,0x9
20002980:	e699e0e3          	bltu	s3,s1,200027e0 <_ZL12mount_volumePPKcPP5FATFSh+0x15c>
20002984:	fff00793          	li	a5,-1
20002988:	00f42a23          	sw	a5,20(s0)
2000298c:	00f42823          	sw	a5,16(s0)
20002990:	f8000793          	li	a5,-128
20002994:	00f40223          	sb	a5,4(s0)
20002998:	00300793          	li	a5,3
2000299c:	08f91663          	bne	s2,a5,20002a28 <_ZL12mount_volumePPKcPP5FATFSh+0x3a4>
200029a0:	06944783          	lbu	a5,105(s0)
200029a4:	06844703          	lbu	a4,104(s0)
200029a8:	00879793          	slli	a5,a5,0x8
200029ac:	00e7e7b3          	or	a5,a5,a4
200029b0:	00100713          	li	a4,1
200029b4:	06e79a63          	bne	a5,a4,20002a28 <_ZL12mount_volumePPKcPP5FATFSh+0x3a4>
200029b8:	001a0593          	addi	a1,s4,1
200029bc:	00040513          	mv	a0,s0
200029c0:	8e1ff0ef          	jal	ra,200022a0 <_ZL11move_windowP5FATFSm>
200029c4:	06051263          	bnez	a0,20002a28 <_ZL12mount_volumePPKcPP5FATFSh+0x3a4>
200029c8:	23744783          	lbu	a5,567(s0)
200029cc:	23644703          	lbu	a4,566(s0)
200029d0:	00040223          	sb	zero,4(s0)
200029d4:	00879793          	slli	a5,a5,0x8
200029d8:	00e7e7b3          	or	a5,a5,a4
200029dc:	0000b737          	lui	a4,0xb
200029e0:	a5570713          	addi	a4,a4,-1451 # aa55 <_start-0x1fff55ab>
200029e4:	04e79263          	bne	a5,a4,20002a28 <_ZL12mount_volumePPKcPP5FATFSh+0x3a4>
200029e8:	03840513          	addi	a0,s0,56
200029ec:	e0cff0ef          	jal	ra,20001ff8 <_ZL8ld_dwordPKh>
200029f0:	416157b7          	lui	a5,0x41615
200029f4:	25278793          	addi	a5,a5,594 # 41615252 <_end+0x2160affa>
200029f8:	02f51863          	bne	a0,a5,20002a28 <_ZL12mount_volumePPKcPP5FATFSh+0x3a4>
200029fc:	21c40513          	addi	a0,s0,540
20002a00:	df8ff0ef          	jal	ra,20001ff8 <_ZL8ld_dwordPKh>
20002a04:	614177b7          	lui	a5,0x61417
20002a08:	27278793          	addi	a5,a5,626 # 61417272 <_end+0x4140d01a>
20002a0c:	00f51e63          	bne	a0,a5,20002a28 <_ZL12mount_volumePPKcPP5FATFSh+0x3a4>
20002a10:	22040513          	addi	a0,s0,544
20002a14:	de4ff0ef          	jal	ra,20001ff8 <_ZL8ld_dwordPKh>
20002a18:	00a42a23          	sw	a0,20(s0)
20002a1c:	22440513          	addi	a0,s0,548
20002a20:	dd8ff0ef          	jal	ra,20001ff8 <_ZL8ld_dwordPKh>
20002a24:	00a42823          	sw	a0,16(s0)
20002a28:	2ee18713          	addi	a4,gp,750 # 2000a21e <_ZL4Fsid>
20002a2c:	00075783          	lhu	a5,0(a4)
20002a30:	01240023          	sb	s2,0(s0)
20002a34:	00042c23          	sw	zero,24(s0)
20002a38:	00178793          	addi	a5,a5,1
20002a3c:	01079793          	slli	a5,a5,0x10
20002a40:	0107d793          	srli	a5,a5,0x10
20002a44:	00f71023          	sh	a5,0(a4)
20002a48:	00f41323          	sh	a5,6(s0)
20002a4c:	0ec18793          	addi	a5,gp,236 # 2000a01c <_ZL6LfnBuf>
20002a50:	00f42623          	sw	a5,12(s0)
20002a54:	cadff06f          	j	20002700 <_ZL12mount_volumePPKcPP5FATFSh+0x7c>
20002a58:	00b00513          	li	a0,11
20002a5c:	ca9ff06f          	j	20002704 <_ZL12mount_volumePPKcPP5FATFSh+0x80>

20002a60 <_ZL8ld_clustP5FATFSPKh.isra.0>:
20002a60:	01b5c783          	lbu	a5,27(a1)
20002a64:	01a5c683          	lbu	a3,26(a1)
20002a68:	00050713          	mv	a4,a0
20002a6c:	00879793          	slli	a5,a5,0x8
20002a70:	00d7e533          	or	a0,a5,a3
20002a74:	00300793          	li	a5,3
20002a78:	00f71e63          	bne	a4,a5,20002a94 <_ZL8ld_clustP5FATFSPKh.isra.0+0x34>
20002a7c:	0155c783          	lbu	a5,21(a1)
20002a80:	0145c703          	lbu	a4,20(a1)
20002a84:	00879793          	slli	a5,a5,0x8
20002a88:	00e7e7b3          	or	a5,a5,a4
20002a8c:	01079793          	slli	a5,a5,0x10
20002a90:	00f56533          	or	a0,a0,a5
20002a94:	00008067          	ret

20002a98 <_ZL7get_fatP7FFOBJIDm.isra.0>:
20002a98:	00100793          	li	a5,1
20002a9c:	14b7f063          	bgeu	a5,a1,20002bdc <_ZL7get_fatP7FFOBJIDm.isra.0+0x144>
20002aa0:	01c52703          	lw	a4,28(a0)
20002aa4:	fe010113          	addi	sp,sp,-32
20002aa8:	00812c23          	sw	s0,24(sp)
20002aac:	00912a23          	sw	s1,20(sp)
20002ab0:	00112e23          	sw	ra,28(sp)
20002ab4:	01212823          	sw	s2,16(sp)
20002ab8:	01312623          	sw	s3,12(sp)
20002abc:	00050493          	mv	s1,a0
20002ac0:	00058413          	mv	s0,a1
20002ac4:	02e5fe63          	bgeu	a1,a4,20002b00 <_ZL7get_fatP7FFOBJIDm.isra.0+0x68>
20002ac8:	00054703          	lbu	a4,0(a0)
20002acc:	00200693          	li	a3,2
20002ad0:	0ad70463          	beq	a4,a3,20002b78 <_ZL7get_fatP7FFOBJIDm.isra.0+0xe0>
20002ad4:	00300693          	li	a3,3
20002ad8:	0cd70a63          	beq	a4,a3,20002bac <_ZL7get_fatP7FFOBJIDm.isra.0+0x114>
20002adc:	02f71263          	bne	a4,a5,20002b00 <_ZL7get_fatP7FFOBJIDm.isra.0+0x68>
20002ae0:	0015d913          	srli	s2,a1,0x1
20002ae4:	02852783          	lw	a5,40(a0)
20002ae8:	00b90933          	add	s2,s2,a1
20002aec:	00995593          	srli	a1,s2,0x9
20002af0:	00f585b3          	add	a1,a1,a5
20002af4:	facff0ef          	jal	ra,200022a0 <_ZL11move_windowP5FATFSm>
20002af8:	02050463          	beqz	a0,20002b20 <_ZL7get_fatP7FFOBJIDm.isra.0+0x88>
20002afc:	fff00793          	li	a5,-1
20002b00:	01c12083          	lw	ra,28(sp)
20002b04:	01812403          	lw	s0,24(sp)
20002b08:	01412483          	lw	s1,20(sp)
20002b0c:	01012903          	lw	s2,16(sp)
20002b10:	00c12983          	lw	s3,12(sp)
20002b14:	00078513          	mv	a0,a5
20002b18:	02010113          	addi	sp,sp,32
20002b1c:	00008067          	ret
20002b20:	0284a783          	lw	a5,40(s1)
20002b24:	00190993          	addi	s3,s2,1
20002b28:	0099d593          	srli	a1,s3,0x9
20002b2c:	1ff97913          	andi	s2,s2,511
20002b30:	01248933          	add	s2,s1,s2
20002b34:	00f585b3          	add	a1,a1,a5
20002b38:	00048513          	mv	a0,s1
20002b3c:	03894903          	lbu	s2,56(s2)
20002b40:	f60ff0ef          	jal	ra,200022a0 <_ZL11move_windowP5FATFSm>
20002b44:	fa051ce3          	bnez	a0,20002afc <_ZL7get_fatP7FFOBJIDm.isra.0+0x64>
20002b48:	1ff9f993          	andi	s3,s3,511
20002b4c:	013489b3          	add	s3,s1,s3
20002b50:	0389c783          	lbu	a5,56(s3)
20002b54:	00147413          	andi	s0,s0,1
20002b58:	00879793          	slli	a5,a5,0x8
20002b5c:	0127e7b3          	or	a5,a5,s2
20002b60:	00040663          	beqz	s0,20002b6c <_ZL7get_fatP7FFOBJIDm.isra.0+0xd4>
20002b64:	0047d793          	srli	a5,a5,0x4
20002b68:	f99ff06f          	j	20002b00 <_ZL7get_fatP7FFOBJIDm.isra.0+0x68>
20002b6c:	01479793          	slli	a5,a5,0x14
20002b70:	0147d793          	srli	a5,a5,0x14
20002b74:	f8dff06f          	j	20002b00 <_ZL7get_fatP7FFOBJIDm.isra.0+0x68>
20002b78:	02852783          	lw	a5,40(a0)
20002b7c:	0085d593          	srli	a1,a1,0x8
20002b80:	00f585b3          	add	a1,a1,a5
20002b84:	f1cff0ef          	jal	ra,200022a0 <_ZL11move_windowP5FATFSm>
20002b88:	f6051ae3          	bnez	a0,20002afc <_ZL7get_fatP7FFOBJIDm.isra.0+0x64>
20002b8c:	00141413          	slli	s0,s0,0x1
20002b90:	1fe47413          	andi	s0,s0,510
20002b94:	00848433          	add	s0,s1,s0
20002b98:	03944783          	lbu	a5,57(s0)
20002b9c:	03844703          	lbu	a4,56(s0)
20002ba0:	00879793          	slli	a5,a5,0x8
20002ba4:	00e7e7b3          	or	a5,a5,a4
20002ba8:	f59ff06f          	j	20002b00 <_ZL7get_fatP7FFOBJIDm.isra.0+0x68>
20002bac:	02852783          	lw	a5,40(a0)
20002bb0:	0075d593          	srli	a1,a1,0x7
20002bb4:	00f585b3          	add	a1,a1,a5
20002bb8:	ee8ff0ef          	jal	ra,200022a0 <_ZL11move_windowP5FATFSm>
20002bbc:	f40510e3          	bnez	a0,20002afc <_ZL7get_fatP7FFOBJIDm.isra.0+0x64>
20002bc0:	00241413          	slli	s0,s0,0x2
20002bc4:	03848513          	addi	a0,s1,56
20002bc8:	1fc47413          	andi	s0,s0,508
20002bcc:	00850533          	add	a0,a0,s0
20002bd0:	c28ff0ef          	jal	ra,20001ff8 <_ZL8ld_dwordPKh>
20002bd4:	00451793          	slli	a5,a0,0x4
20002bd8:	f8dff06f          	j	20002b64 <_ZL7get_fatP7FFOBJIDm.isra.0+0xcc>
20002bdc:	00100793          	li	a5,1
20002be0:	00078513          	mv	a0,a5
20002be4:	00008067          	ret

20002be8 <_ZL12create_chainP7FFOBJIDm>:
20002be8:	fe010113          	addi	sp,sp,-32
20002bec:	00912a23          	sw	s1,20(sp)
20002bf0:	01312623          	sw	s3,12(sp)
20002bf4:	01412423          	sw	s4,8(sp)
20002bf8:	00112e23          	sw	ra,28(sp)
20002bfc:	00812c23          	sw	s0,24(sp)
20002c00:	01212823          	sw	s2,16(sp)
20002c04:	01512223          	sw	s5,4(sp)
20002c08:	01612023          	sw	s6,0(sp)
20002c0c:	00052483          	lw	s1,0(a0)
20002c10:	00050a13          	mv	s4,a0
20002c14:	00058993          	mv	s3,a1
20002c18:	08059a63          	bnez	a1,20002cac <_ZL12create_chainP7FFOBJIDm+0xc4>
20002c1c:	0104a903          	lw	s2,16(s1)
20002c20:	0144a783          	lw	a5,20(s1)
20002c24:	04090063          	beqz	s2,20002c64 <_ZL12create_chainP7FFOBJIDm+0x7c>
20002c28:	01c4a703          	lw	a4,28(s1)
20002c2c:	02e97c63          	bgeu	s2,a4,20002c64 <_ZL12create_chainP7FFOBJIDm+0x7c>
20002c30:	02079e63          	bnez	a5,20002c6c <_ZL12create_chainP7FFOBJIDm+0x84>
20002c34:	00000413          	li	s0,0
20002c38:	01c12083          	lw	ra,28(sp)
20002c3c:	00040513          	mv	a0,s0
20002c40:	01812403          	lw	s0,24(sp)
20002c44:	01412483          	lw	s1,20(sp)
20002c48:	01012903          	lw	s2,16(sp)
20002c4c:	00c12983          	lw	s3,12(sp)
20002c50:	00812a03          	lw	s4,8(sp)
20002c54:	00412a83          	lw	s5,4(sp)
20002c58:	00012b03          	lw	s6,0(sp)
20002c5c:	02010113          	addi	sp,sp,32
20002c60:	00008067          	ret
20002c64:	00100913          	li	s2,1
20002c68:	fc0786e3          	beqz	a5,20002c34 <_ZL12create_chainP7FFOBJIDm+0x4c>
20002c6c:	00090413          	mv	s0,s2
20002c70:	00100a93          	li	s5,1
20002c74:	fff00b13          	li	s6,-1
20002c78:	01c4a783          	lw	a5,28(s1)
20002c7c:	00140413          	addi	s0,s0,1
20002c80:	00f46663          	bltu	s0,a5,20002c8c <_ZL12create_chainP7FFOBJIDm+0xa4>
20002c84:	fb5908e3          	beq	s2,s5,20002c34 <_ZL12create_chainP7FFOBJIDm+0x4c>
20002c88:	00200413          	li	s0,2
20002c8c:	000a2503          	lw	a0,0(s4)
20002c90:	00040593          	mv	a1,s0
20002c94:	e05ff0ef          	jal	ra,20002a98 <_ZL7get_fatP7FFOBJIDm.isra.0>
20002c98:	08050863          	beqz	a0,20002d28 <_ZL12create_chainP7FFOBJIDm+0x140>
20002c9c:	03550263          	beq	a0,s5,20002cc0 <_ZL12create_chainP7FFOBJIDm+0xd8>
20002ca0:	0f650063          	beq	a0,s6,20002d80 <_ZL12create_chainP7FFOBJIDm+0x198>
20002ca4:	fd241ae3          	bne	s0,s2,20002c78 <_ZL12create_chainP7FFOBJIDm+0x90>
20002ca8:	f8dff06f          	j	20002c34 <_ZL12create_chainP7FFOBJIDm+0x4c>
20002cac:	00048513          	mv	a0,s1
20002cb0:	de9ff0ef          	jal	ra,20002a98 <_ZL7get_fatP7FFOBJIDm.isra.0>
20002cb4:	00100793          	li	a5,1
20002cb8:	00050413          	mv	s0,a0
20002cbc:	00a7e663          	bltu	a5,a0,20002cc8 <_ZL12create_chainP7FFOBJIDm+0xe0>
20002cc0:	00100413          	li	s0,1
20002cc4:	f75ff06f          	j	20002c38 <_ZL12create_chainP7FFOBJIDm+0x50>
20002cc8:	fff00793          	li	a5,-1
20002ccc:	0af50a63          	beq	a0,a5,20002d80 <_ZL12create_chainP7FFOBJIDm+0x198>
20002cd0:	01c4a783          	lw	a5,28(s1)
20002cd4:	f6f562e3          	bltu	a0,a5,20002c38 <_ZL12create_chainP7FFOBJIDm+0x50>
20002cd8:	0144a703          	lw	a4,20(s1)
20002cdc:	f4070ce3          	beqz	a4,20002c34 <_ZL12create_chainP7FFOBJIDm+0x4c>
20002ce0:	00198413          	addi	s0,s3,1
20002ce4:	00f46463          	bltu	s0,a5,20002cec <_ZL12create_chainP7FFOBJIDm+0x104>
20002ce8:	00200413          	li	s0,2
20002cec:	000a2503          	lw	a0,0(s4)
20002cf0:	00040593          	mv	a1,s0
20002cf4:	da5ff0ef          	jal	ra,20002a98 <_ZL7get_fatP7FFOBJIDm.isra.0>
20002cf8:	00100793          	li	a5,1
20002cfc:	fcf502e3          	beq	a0,a5,20002cc0 <_ZL12create_chainP7FFOBJIDm+0xd8>
20002d00:	fff00713          	li	a4,-1
20002d04:	06e50e63          	beq	a0,a4,20002d80 <_ZL12create_chainP7FFOBJIDm+0x198>
20002d08:	00050e63          	beqz	a0,20002d24 <_ZL12create_chainP7FFOBJIDm+0x13c>
20002d0c:	0104a903          	lw	s2,16(s1)
20002d10:	0127f663          	bgeu	a5,s2,20002d1c <_ZL12create_chainP7FFOBJIDm+0x134>
20002d14:	01c4a783          	lw	a5,28(s1)
20002d18:	f4f96ae3          	bltu	s2,a5,20002c6c <_ZL12create_chainP7FFOBJIDm+0x84>
20002d1c:	00098913          	mv	s2,s3
20002d20:	f4dff06f          	j	20002c6c <_ZL12create_chainP7FFOBJIDm+0x84>
20002d24:	fe040ce3          	beqz	s0,20002d1c <_ZL12create_chainP7FFOBJIDm+0x134>
20002d28:	fff00613          	li	a2,-1
20002d2c:	00040593          	mv	a1,s0
20002d30:	00048513          	mv	a0,s1
20002d34:	f60ff0ef          	jal	ra,20002494 <_ZL7put_fatP5FATFSmm>
20002d38:	04051063          	bnez	a0,20002d78 <_ZL12create_chainP7FFOBJIDm+0x190>
20002d3c:	02099463          	bnez	s3,20002d64 <_ZL12create_chainP7FFOBJIDm+0x17c>
20002d40:	01c4a703          	lw	a4,28(s1)
20002d44:	0144a783          	lw	a5,20(s1)
20002d48:	0084a823          	sw	s0,16(s1)
20002d4c:	ffe70713          	addi	a4,a4,-2
20002d50:	02f77c63          	bgeu	a4,a5,20002d88 <_ZL12create_chainP7FFOBJIDm+0x1a0>
20002d54:	0044c783          	lbu	a5,4(s1)
20002d58:	0017e793          	ori	a5,a5,1
20002d5c:	00f48223          	sb	a5,4(s1)
20002d60:	ed9ff06f          	j	20002c38 <_ZL12create_chainP7FFOBJIDm+0x50>
20002d64:	00040613          	mv	a2,s0
20002d68:	00098593          	mv	a1,s3
20002d6c:	00048513          	mv	a0,s1
20002d70:	f24ff0ef          	jal	ra,20002494 <_ZL7put_fatP5FATFSmm>
20002d74:	fc0506e3          	beqz	a0,20002d40 <_ZL12create_chainP7FFOBJIDm+0x158>
20002d78:	00100793          	li	a5,1
20002d7c:	f4f512e3          	bne	a0,a5,20002cc0 <_ZL12create_chainP7FFOBJIDm+0xd8>
20002d80:	fff00413          	li	s0,-1
20002d84:	eb5ff06f          	j	20002c38 <_ZL12create_chainP7FFOBJIDm+0x50>
20002d88:	fff78793          	addi	a5,a5,-1
20002d8c:	00f4aa23          	sw	a5,20(s1)
20002d90:	fc5ff06f          	j	20002d54 <_ZL12create_chainP7FFOBJIDm+0x16c>

20002d94 <_ZL8dir_nextP3DIRi>:
20002d94:	fd010113          	addi	sp,sp,-48
20002d98:	01412c23          	sw	s4,24(sp)
20002d9c:	01052a03          	lw	s4,16(a0)
20002da0:	02812423          	sw	s0,40(sp)
20002da4:	02912223          	sw	s1,36(sp)
20002da8:	01312e23          	sw	s3,28(sp)
20002dac:	02112623          	sw	ra,44(sp)
20002db0:	03212023          	sw	s2,32(sp)
20002db4:	01512a23          	sw	s5,20(sp)
20002db8:	01612823          	sw	s6,16(sp)
20002dbc:	01712623          	sw	s7,12(sp)
20002dc0:	020a0a13          	addi	s4,s4,32
20002dc4:	002007b7          	lui	a5,0x200
20002dc8:	00052403          	lw	s0,0(a0)
20002dcc:	00050493          	mv	s1,a0
20002dd0:	00058993          	mv	s3,a1
20002dd4:	00fa6463          	bltu	s4,a5,20002ddc <_ZL8dir_nextP3DIRi+0x48>
20002dd8:	00052c23          	sw	zero,24(a0)
20002ddc:	0184a783          	lw	a5,24(s1)
20002de0:	02078663          	beqz	a5,20002e0c <_ZL8dir_nextP3DIRi+0x78>
20002de4:	1ffa7a93          	andi	s5,s4,511
20002de8:	140a9063          	bnez	s5,20002f28 <_ZL8dir_nextP3DIRi+0x194>
20002dec:	0144a583          	lw	a1,20(s1)
20002df0:	00178793          	addi	a5,a5,1 # 200001 <_start-0x1fdfffff>
20002df4:	00f4ac23          	sw	a5,24(s1)
20002df8:	04059263          	bnez	a1,20002e3c <_ZL8dir_nextP3DIRi+0xa8>
20002dfc:	00845703          	lhu	a4,8(s0)
20002e00:	005a5793          	srli	a5,s4,0x5
20002e04:	12e7e263          	bltu	a5,a4,20002f28 <_ZL8dir_nextP3DIRi+0x194>
20002e08:	0004ac23          	sw	zero,24(s1)
20002e0c:	00400513          	li	a0,4
20002e10:	02c12083          	lw	ra,44(sp)
20002e14:	02812403          	lw	s0,40(sp)
20002e18:	02412483          	lw	s1,36(sp)
20002e1c:	02012903          	lw	s2,32(sp)
20002e20:	01c12983          	lw	s3,28(sp)
20002e24:	01812a03          	lw	s4,24(sp)
20002e28:	01412a83          	lw	s5,20(sp)
20002e2c:	01012b03          	lw	s6,16(sp)
20002e30:	00c12b83          	lw	s7,12(sp)
20002e34:	03010113          	addi	sp,sp,48
20002e38:	00008067          	ret
20002e3c:	00a45783          	lhu	a5,10(s0)
20002e40:	009a5713          	srli	a4,s4,0x9
20002e44:	fff78793          	addi	a5,a5,-1
20002e48:	00e7f7b3          	and	a5,a5,a4
20002e4c:	0c079e63          	bnez	a5,20002f28 <_ZL8dir_nextP3DIRi+0x194>
20002e50:	00040513          	mv	a0,s0
20002e54:	c45ff0ef          	jal	ra,20002a98 <_ZL7get_fatP7FFOBJIDm.isra.0>
20002e58:	00100b13          	li	s6,1
20002e5c:	00050913          	mv	s2,a0
20002e60:	00ab6663          	bltu	s6,a0,20002e6c <_ZL8dir_nextP3DIRi+0xd8>
20002e64:	00200513          	li	a0,2
20002e68:	fa9ff06f          	j	20002e10 <_ZL8dir_nextP3DIRi+0x7c>
20002e6c:	fff00793          	li	a5,-1
20002e70:	00f51663          	bne	a0,a5,20002e7c <_ZL8dir_nextP3DIRi+0xe8>
20002e74:	00100513          	li	a0,1
20002e78:	f99ff06f          	j	20002e10 <_ZL8dir_nextP3DIRi+0x7c>
20002e7c:	01c42783          	lw	a5,28(s0)
20002e80:	08f56a63          	bltu	a0,a5,20002f14 <_ZL8dir_nextP3DIRi+0x180>
20002e84:	f80982e3          	beqz	s3,20002e08 <_ZL8dir_nextP3DIRi+0x74>
20002e88:	0144a583          	lw	a1,20(s1)
20002e8c:	00048513          	mv	a0,s1
20002e90:	d59ff0ef          	jal	ra,20002be8 <_ZL12create_chainP7FFOBJIDm>
20002e94:	00050913          	mv	s2,a0
20002e98:	00700513          	li	a0,7
20002e9c:	f6090ae3          	beqz	s2,20002e10 <_ZL8dir_nextP3DIRi+0x7c>
20002ea0:	fd6902e3          	beq	s2,s6,20002e64 <_ZL8dir_nextP3DIRi+0xd0>
20002ea4:	fff00793          	li	a5,-1
20002ea8:	fcf906e3          	beq	s2,a5,20002e74 <_ZL8dir_nextP3DIRi+0xe0>
20002eac:	00040513          	mv	a0,s0
20002eb0:	b5cff0ef          	jal	ra,2000220c <_ZL11sync_windowP5FATFS>
20002eb4:	00050993          	mv	s3,a0
20002eb8:	fa051ee3          	bnez	a0,20002e74 <_ZL8dir_nextP3DIRi+0xe0>
20002ebc:	00090593          	mv	a1,s2
20002ec0:	00040513          	mv	a0,s0
20002ec4:	960ff0ef          	jal	ra,20002024 <_ZL9clst2sectP5FATFSm>
20002ec8:	03840b93          	addi	s7,s0,56
20002ecc:	00050b13          	mv	s6,a0
20002ed0:	02a42a23          	sw	a0,52(s0)
20002ed4:	20000613          	li	a2,512
20002ed8:	00000593          	li	a1,0
20002edc:	000b8513          	mv	a0,s7
20002ee0:	9b0fd0ef          	jal	ra,20000090 <memset>
20002ee4:	00a45783          	lhu	a5,10(s0)
20002ee8:	02f9f263          	bgeu	s3,a5,20002f0c <_ZL8dir_nextP3DIRi+0x178>
20002eec:	00144503          	lbu	a0,1(s0)
20002ef0:	00100693          	li	a3,1
20002ef4:	013b0633          	add	a2,s6,s3
20002ef8:	000b8593          	mv	a1,s7
20002efc:	0e8020ef          	jal	ra,20004fe4 <disk_write>
20002f00:	00051663          	bnez	a0,20002f0c <_ZL8dir_nextP3DIRi+0x178>
20002f04:	00198993          	addi	s3,s3,1
20002f08:	fddff06f          	j	20002ee4 <_ZL8dir_nextP3DIRi+0x150>
20002f0c:	00a45783          	lhu	a5,10(s0)
20002f10:	f6f992e3          	bne	s3,a5,20002e74 <_ZL8dir_nextP3DIRi+0xe0>
20002f14:	0124aa23          	sw	s2,20(s1)
20002f18:	00090593          	mv	a1,s2
20002f1c:	00040513          	mv	a0,s0
20002f20:	904ff0ef          	jal	ra,20002024 <_ZL9clst2sectP5FATFSm>
20002f24:	00a4ac23          	sw	a0,24(s1)
20002f28:	03840413          	addi	s0,s0,56
20002f2c:	01540433          	add	s0,s0,s5
20002f30:	0144a823          	sw	s4,16(s1)
20002f34:	0084ae23          	sw	s0,28(s1)
20002f38:	00000513          	li	a0,0
20002f3c:	ed5ff06f          	j	20002e10 <_ZL8dir_nextP3DIRi+0x7c>

20002f40 <_ZL7dir_sdiP3DIRm>:
20002f40:	fd010113          	addi	sp,sp,-48
20002f44:	02912223          	sw	s1,36(sp)
20002f48:	02112623          	sw	ra,44(sp)
20002f4c:	02812423          	sw	s0,40(sp)
20002f50:	03212023          	sw	s2,32(sp)
20002f54:	01312e23          	sw	s3,28(sp)
20002f58:	01412c23          	sw	s4,24(sp)
20002f5c:	01512a23          	sw	s5,20(sp)
20002f60:	01612823          	sw	s6,16(sp)
20002f64:	002007b7          	lui	a5,0x200
20002f68:	00052483          	lw	s1,0(a0)
20002f6c:	02f5ea63          	bltu	a1,a5,20002fa0 <_ZL7dir_sdiP3DIRm+0x60>
20002f70:	00200993          	li	s3,2
20002f74:	02c12083          	lw	ra,44(sp)
20002f78:	02812403          	lw	s0,40(sp)
20002f7c:	02412483          	lw	s1,36(sp)
20002f80:	02012903          	lw	s2,32(sp)
20002f84:	01812a03          	lw	s4,24(sp)
20002f88:	01412a83          	lw	s5,20(sp)
20002f8c:	01012b03          	lw	s6,16(sp)
20002f90:	00098513          	mv	a0,s3
20002f94:	01c12983          	lw	s3,28(sp)
20002f98:	03010113          	addi	sp,sp,48
20002f9c:	00008067          	ret
20002fa0:	01f5f993          	andi	s3,a1,31
20002fa4:	00058413          	mv	s0,a1
20002fa8:	fc0994e3          	bnez	s3,20002f70 <_ZL7dir_sdiP3DIRm+0x30>
20002fac:	00b52823          	sw	a1,16(a0)
20002fb0:	00852583          	lw	a1,8(a0)
20002fb4:	00050913          	mv	s2,a0
20002fb8:	04059a63          	bnez	a1,2000300c <_ZL7dir_sdiP3DIRm+0xcc>
20002fbc:	0004c703          	lbu	a4,0(s1)
20002fc0:	00200793          	li	a5,2
20002fc4:	00e7f663          	bgeu	a5,a4,20002fd0 <_ZL7dir_sdiP3DIRm+0x90>
20002fc8:	02c4a783          	lw	a5,44(s1)
20002fcc:	04079263          	bnez	a5,20003010 <_ZL7dir_sdiP3DIRm+0xd0>
20002fd0:	0084d703          	lhu	a4,8(s1)
20002fd4:	00545793          	srli	a5,s0,0x5
20002fd8:	f8e7fce3          	bgeu	a5,a4,20002f70 <_ZL7dir_sdiP3DIRm+0x30>
20002fdc:	02c4a503          	lw	a0,44(s1)
20002fe0:	00a92c23          	sw	a0,24(s2)
20002fe4:	00b92a23          	sw	a1,20(s2)
20002fe8:	f80504e3          	beqz	a0,20002f70 <_ZL7dir_sdiP3DIRm+0x30>
20002fec:	00945793          	srli	a5,s0,0x9
20002ff0:	03848493          	addi	s1,s1,56
20002ff4:	1ff47413          	andi	s0,s0,511
20002ff8:	00a787b3          	add	a5,a5,a0
20002ffc:	008484b3          	add	s1,s1,s0
20003000:	00f92c23          	sw	a5,24(s2)
20003004:	00992e23          	sw	s1,28(s2)
20003008:	f6dff06f          	j	20002f74 <_ZL7dir_sdiP3DIRm+0x34>
2000300c:	00058793          	mv	a5,a1
20003010:	00a4da03          	lhu	s4,10(s1)
20003014:	00078593          	mv	a1,a5
20003018:	fff00a93          	li	s5,-1
2000301c:	009a1a13          	slli	s4,s4,0x9
20003020:	00100b13          	li	s6,1
20003024:	01447c63          	bgeu	s0,s4,2000303c <_ZL7dir_sdiP3DIRm+0xfc>
20003028:	00048513          	mv	a0,s1
2000302c:	00b12623          	sw	a1,12(sp)
20003030:	ff5fe0ef          	jal	ra,20002024 <_ZL9clst2sectP5FATFSm>
20003034:	00c12583          	lw	a1,12(sp)
20003038:	fa9ff06f          	j	20002fe0 <_ZL7dir_sdiP3DIRm+0xa0>
2000303c:	00092503          	lw	a0,0(s2)
20003040:	a59ff0ef          	jal	ra,20002a98 <_ZL7get_fatP7FFOBJIDm.isra.0>
20003044:	00050593          	mv	a1,a0
20003048:	01550c63          	beq	a0,s5,20003060 <_ZL7dir_sdiP3DIRm+0x120>
2000304c:	f2ab72e3          	bgeu	s6,a0,20002f70 <_ZL7dir_sdiP3DIRm+0x30>
20003050:	01c4a783          	lw	a5,28(s1)
20003054:	f0f57ee3          	bgeu	a0,a5,20002f70 <_ZL7dir_sdiP3DIRm+0x30>
20003058:	41440433          	sub	s0,s0,s4
2000305c:	fc9ff06f          	j	20003024 <_ZL7dir_sdiP3DIRm+0xe4>
20003060:	00100993          	li	s3,1
20003064:	f11ff06f          	j	20002f74 <_ZL7dir_sdiP3DIRm+0x34>

20003068 <_ZL8dir_findP3DIR>:
20003068:	fb010113          	addi	sp,sp,-80
2000306c:	00000593          	li	a1,0
20003070:	04812423          	sw	s0,72(sp)
20003074:	03412c23          	sw	s4,56(sp)
20003078:	03912223          	sw	s9,36(sp)
2000307c:	00052a03          	lw	s4,0(a0)
20003080:	04112623          	sw	ra,76(sp)
20003084:	04912223          	sw	s1,68(sp)
20003088:	05212023          	sw	s2,64(sp)
2000308c:	03312e23          	sw	s3,60(sp)
20003090:	03512a23          	sw	s5,52(sp)
20003094:	03612823          	sw	s6,48(sp)
20003098:	03712623          	sw	s7,44(sp)
2000309c:	03812423          	sw	s8,40(sp)
200030a0:	03a12023          	sw	s10,32(sp)
200030a4:	01b12e23          	sw	s11,28(sp)
200030a8:	00050c93          	mv	s9,a0
200030ac:	e95ff0ef          	jal	ra,20002f40 <_ZL7dir_sdiP3DIRm>
200030b0:	00050413          	mv	s0,a0
200030b4:	1e051063          	bnez	a0,20003294 <_ZL8dir_findP3DIR+0x22c>
200030b8:	fff00793          	li	a5,-1
200030bc:	02fca623          	sw	a5,44(s9)
200030c0:	0ff00993          	li	s3,255
200030c4:	0ff00493          	li	s1,255
200030c8:	0e500b93          	li	s7,229
200030cc:	fff00a93          	li	s5,-1
200030d0:	00f00b13          	li	s6,15
200030d4:	018ca583          	lw	a1,24(s9)
200030d8:	000a0513          	mv	a0,s4
200030dc:	9c4ff0ef          	jal	ra,200022a0 <_ZL11move_windowP5FATFSm>
200030e0:	00050413          	mv	s0,a0
200030e4:	1a051863          	bnez	a0,20003294 <_ZL8dir_findP3DIR+0x22c>
200030e8:	01ccad03          	lw	s10,28(s9)
200030ec:	000d4d83          	lbu	s11,0(s10)
200030f0:	1e0d8263          	beqz	s11,200032d4 <_ZL8dir_findP3DIR+0x26c>
200030f4:	00bd4783          	lbu	a5,11(s10)
200030f8:	03f7f713          	andi	a4,a5,63
200030fc:	00ec8323          	sb	a4,6(s9)
20003100:	017d8863          	beq	s11,s7,20003110 <_ZL8dir_findP3DIR+0xa8>
20003104:	0087f793          	andi	a5,a5,8
20003108:	00078863          	beqz	a5,20003118 <_ZL8dir_findP3DIR+0xb0>
2000310c:	01670863          	beq	a4,s6,2000311c <_ZL8dir_findP3DIR+0xb4>
20003110:	035ca623          	sw	s5,44(s9)
20003114:	1400006f          	j	20003254 <_ZL8dir_findP3DIR+0x1ec>
20003118:	15671663          	bne	a4,s6,20003264 <_ZL8dir_findP3DIR+0x1fc>
2000311c:	02bcc783          	lbu	a5,43(s9)
20003120:	0407f793          	andi	a5,a5,64
20003124:	10079a63          	bnez	a5,20003238 <_ZL8dir_findP3DIR+0x1d0>
20003128:	040df793          	andi	a5,s11,64
2000312c:	12078263          	beqz	a5,20003250 <_ZL8dir_findP3DIR+0x1e8>
20003130:	010ca783          	lw	a5,16(s9)
20003134:	00dd4983          	lbu	s3,13(s10)
20003138:	0bfdfd93          	andi	s11,s11,191
2000313c:	02fca623          	sw	a5,44(s9)
20003140:	00dd4783          	lbu	a5,13(s10)
20003144:	0ff00493          	li	s1,255
20003148:	0f379863          	bne	a5,s3,20003238 <_ZL8dir_findP3DIR+0x1d0>
2000314c:	01bd4783          	lbu	a5,27(s10)
20003150:	01ad4703          	lbu	a4,26(s10)
20003154:	00879793          	slli	a5,a5,0x8
20003158:	00e7e7b3          	or	a5,a5,a4
2000315c:	0e079c63          	bnez	a5,20003254 <_ZL8dir_findP3DIR+0x1ec>
20003160:	000d4483          	lbu	s1,0(s10)
20003164:	00d00793          	li	a5,13
20003168:	00ca2c03          	lw	s8,12(s4)
2000316c:	03f4f493          	andi	s1,s1,63
20003170:	fff48493          	addi	s1,s1,-1
20003174:	02f484b3          	mul	s1,s1,a5
20003178:	000106b7          	lui	a3,0x10
2000317c:	00100713          	li	a4,1
20003180:	00004597          	auipc	a1,0x4
20003184:	6f858593          	addi	a1,a1,1784 # 20007878 <_ZL6LfnOfs>
20003188:	fff68693          	addi	a3,a3,-1 # ffff <_start-0x1fff0001>
2000318c:	0ff00813          	li	a6,255
20003190:	00d00613          	li	a2,13
20003194:	00b407b3          	add	a5,s0,a1
20003198:	0007c783          	lbu	a5,0(a5) # 200000 <_start-0x1fe00000>
2000319c:	00fd07b3          	add	a5,s10,a5
200031a0:	0017c903          	lbu	s2,1(a5)
200031a4:	0007c503          	lbu	a0,0(a5)
200031a8:	00891913          	slli	s2,s2,0x8
200031ac:	00a96933          	or	s2,s2,a0
200031b0:	0a070663          	beqz	a4,2000325c <_ZL8dir_findP3DIR+0x1f4>
200031b4:	0a986063          	bltu	a6,s1,20003254 <_ZL8dir_findP3DIR+0x1ec>
200031b8:	00090513          	mv	a0,s2
200031bc:	4bd010ef          	jal	ra,20004e78 <ff_wtoupper>
200031c0:	00148893          	addi	a7,s1,1
200031c4:	00149493          	slli	s1,s1,0x1
200031c8:	009c04b3          	add	s1,s8,s1
200031cc:	00a12623          	sw	a0,12(sp)
200031d0:	0004d503          	lhu	a0,0(s1)
200031d4:	01112423          	sw	a7,8(sp)
200031d8:	4a1010ef          	jal	ra,20004e78 <ff_wtoupper>
200031dc:	00c12783          	lw	a5,12(sp)
200031e0:	06a79a63          	bne	a5,a0,20003254 <_ZL8dir_findP3DIR+0x1ec>
200031e4:	00812883          	lw	a7,8(sp)
200031e8:	000107b7          	lui	a5,0x10
200031ec:	00090713          	mv	a4,s2
200031f0:	00088493          	mv	s1,a7
200031f4:	0ff00813          	li	a6,255
200031f8:	00004597          	auipc	a1,0x4
200031fc:	68058593          	addi	a1,a1,1664 # 20007878 <_ZL6LfnOfs>
20003200:	fff78693          	addi	a3,a5,-1 # ffff <_start-0x1fff0001>
20003204:	00d00613          	li	a2,13
20003208:	00140413          	addi	s0,s0,1
2000320c:	f8c414e3          	bne	s0,a2,20003194 <_ZL8dir_findP3DIR+0x12c>
20003210:	000d4783          	lbu	a5,0(s10)
20003214:	0407f793          	andi	a5,a5,64
20003218:	00078c63          	beqz	a5,20003230 <_ZL8dir_findP3DIR+0x1c8>
2000321c:	00070a63          	beqz	a4,20003230 <_ZL8dir_findP3DIR+0x1c8>
20003220:	00149493          	slli	s1,s1,0x1
20003224:	009c0c33          	add	s8,s8,s1
20003228:	000c5783          	lhu	a5,0(s8)
2000322c:	02079463          	bnez	a5,20003254 <_ZL8dir_findP3DIR+0x1ec>
20003230:	fffd8793          	addi	a5,s11,-1
20003234:	0ff7f493          	zext.b	s1,a5
20003238:	00000593          	li	a1,0
2000323c:	000c8513          	mv	a0,s9
20003240:	b55ff0ef          	jal	ra,20002d94 <_ZL8dir_nextP3DIRi>
20003244:	00050413          	mv	s0,a0
20003248:	e80506e3          	beqz	a0,200030d4 <_ZL8dir_findP3DIR+0x6c>
2000324c:	0480006f          	j	20003294 <_ZL8dir_findP3DIR+0x22c>
20003250:	efb488e3          	beq	s1,s11,20003140 <_ZL8dir_findP3DIR+0xd8>
20003254:	0ff00493          	li	s1,255
20003258:	fe1ff06f          	j	20003238 <_ZL8dir_findP3DIR+0x1d0>
2000325c:	fad906e3          	beq	s2,a3,20003208 <_ZL8dir_findP3DIR+0x1a0>
20003260:	ff5ff06f          	j	20003254 <_ZL8dir_findP3DIR+0x1ec>
20003264:	00049863          	bnez	s1,20003274 <_ZL8dir_findP3DIR+0x20c>
20003268:	000d0513          	mv	a0,s10
2000326c:	e21fe0ef          	jal	ra,2000208c <_ZL7sum_sfnPKh>
20003270:	03350263          	beq	a0,s3,20003294 <_ZL8dir_findP3DIR+0x22c>
20003274:	02bcc783          	lbu	a5,43(s9)
20003278:	0017f793          	andi	a5,a5,1
2000327c:	e8079ae3          	bnez	a5,20003110 <_ZL8dir_findP3DIR+0xa8>
20003280:	00b00613          	li	a2,11
20003284:	020c8593          	addi	a1,s9,32
20003288:	000d0513          	mv	a0,s10
2000328c:	65c020ef          	jal	ra,200058e8 <memcmp>
20003290:	e80510e3          	bnez	a0,20003110 <_ZL8dir_findP3DIR+0xa8>
20003294:	04c12083          	lw	ra,76(sp)
20003298:	00040513          	mv	a0,s0
2000329c:	04812403          	lw	s0,72(sp)
200032a0:	04412483          	lw	s1,68(sp)
200032a4:	04012903          	lw	s2,64(sp)
200032a8:	03c12983          	lw	s3,60(sp)
200032ac:	03812a03          	lw	s4,56(sp)
200032b0:	03412a83          	lw	s5,52(sp)
200032b4:	03012b03          	lw	s6,48(sp)
200032b8:	02c12b83          	lw	s7,44(sp)
200032bc:	02812c03          	lw	s8,40(sp)
200032c0:	02412c83          	lw	s9,36(sp)
200032c4:	02012d03          	lw	s10,32(sp)
200032c8:	01c12d83          	lw	s11,28(sp)
200032cc:	05010113          	addi	sp,sp,80
200032d0:	00008067          	ret
200032d4:	00400413          	li	s0,4
200032d8:	fbdff06f          	j	20003294 <_ZL8dir_findP3DIR+0x22c>

200032dc <_ZL11follow_pathP3DIRPKc>:
200032dc:	fb010113          	addi	sp,sp,-80
200032e0:	05212023          	sw	s2,64(sp)
200032e4:	03312e23          	sw	s3,60(sp)
200032e8:	03412c23          	sw	s4,56(sp)
200032ec:	04112623          	sw	ra,76(sp)
200032f0:	04812423          	sw	s0,72(sp)
200032f4:	04912223          	sw	s1,68(sp)
200032f8:	03512a23          	sw	s5,52(sp)
200032fc:	03612823          	sw	s6,48(sp)
20003300:	03712623          	sw	s7,44(sp)
20003304:	03812423          	sw	s8,40(sp)
20003308:	03912223          	sw	s9,36(sp)
2000330c:	03a12023          	sw	s10,32(sp)
20003310:	01b12e23          	sw	s11,28(sp)
20003314:	0005c783          	lbu	a5,0(a1)
20003318:	02f00713          	li	a4,47
2000331c:	00052a03          	lw	s4,0(a0)
20003320:	00050913          	mv	s2,a0
20003324:	00058993          	mv	s3,a1
20003328:	08e78c63          	beq	a5,a4,200033c0 <_ZL11follow_pathP3DIRPKc+0xe4>
2000332c:	05c00713          	li	a4,92
20003330:	08e78863          	beq	a5,a4,200033c0 <_ZL11follow_pathP3DIRPKc+0xe4>
20003334:	018a2783          	lw	a5,24(s4)
20003338:	00f92423          	sw	a5,8(s2)
2000333c:	0009c703          	lbu	a4,0(s3)
20003340:	01f00793          	li	a5,31
20003344:	08e7f463          	bgeu	a5,a4,200033cc <_ZL11follow_pathP3DIRPKc+0xf0>
20003348:	02090793          	addi	a5,s2,32
2000334c:	00f12623          	sw	a5,12(sp)
20003350:	00092783          	lw	a5,0(s2)
20003354:	00000b13          	li	s6,0
20003358:	07f00413          	li	s0,127
2000335c:	00c7aa83          	lw	s5,12(a5)
20003360:	0ff00493          	li	s1,255
20003364:	0009c503          	lbu	a0,0(s3)
20003368:	00198993          	addi	s3,s3,1
2000336c:	1a050e63          	beqz	a0,20003528 <_ZL11follow_pathP3DIRPKc+0x24c>
20003370:	1b500593          	li	a1,437
20003374:	2cd010ef          	jal	ra,20004e40 <ff_oem2uni>
20003378:	00050d13          	mv	s10,a0
2000337c:	02050263          	beqz	a0,200033a0 <_ZL11follow_pathP3DIRPKc+0xc4>
20003380:	01f00793          	li	a5,31
20003384:	1aa7f263          	bgeu	a5,a0,20003528 <_ZL11follow_pathP3DIRPKc+0x24c>
20003388:	02f00793          	li	a5,47
2000338c:	18f50863          	beq	a0,a5,2000351c <_ZL11follow_pathP3DIRPKc+0x240>
20003390:	05c00793          	li	a5,92
20003394:	18f50463          	beq	a0,a5,2000351c <_ZL11follow_pathP3DIRPKc+0x240>
20003398:	08a47063          	bgeu	s0,a0,20003418 <_ZL11follow_pathP3DIRPKc+0x13c>
2000339c:	089b1a63          	bne	s6,s1,20003430 <_ZL11follow_pathP3DIRPKc+0x154>
200033a0:	00600513          	li	a0,6
200033a4:	13c0006f          	j	200034e0 <_ZL11follow_pathP3DIRPKc+0x204>
200033a8:	00198993          	addi	s3,s3,1
200033ac:	0009c783          	lbu	a5,0(s3)
200033b0:	fed78ce3          	beq	a5,a3,200033a8 <_ZL11follow_pathP3DIRPKc+0xcc>
200033b4:	fee78ae3          	beq	a5,a4,200033a8 <_ZL11follow_pathP3DIRPKc+0xcc>
200033b8:	00000793          	li	a5,0
200033bc:	f7dff06f          	j	20003338 <_ZL11follow_pathP3DIRPKc+0x5c>
200033c0:	02f00693          	li	a3,47
200033c4:	05c00713          	li	a4,92
200033c8:	fe5ff06f          	j	200033ac <_ZL11follow_pathP3DIRPKc+0xd0>
200033cc:	f8000793          	li	a5,-128
200033d0:	02f905a3          	sb	a5,43(s2)
200033d4:	04812403          	lw	s0,72(sp)
200033d8:	04c12083          	lw	ra,76(sp)
200033dc:	04412483          	lw	s1,68(sp)
200033e0:	03c12983          	lw	s3,60(sp)
200033e4:	03812a03          	lw	s4,56(sp)
200033e8:	03412a83          	lw	s5,52(sp)
200033ec:	03012b03          	lw	s6,48(sp)
200033f0:	02c12b83          	lw	s7,44(sp)
200033f4:	02812c03          	lw	s8,40(sp)
200033f8:	02412c83          	lw	s9,36(sp)
200033fc:	02012d03          	lw	s10,32(sp)
20003400:	01c12d83          	lw	s11,28(sp)
20003404:	00090513          	mv	a0,s2
20003408:	04012903          	lw	s2,64(sp)
2000340c:	00000593          	li	a1,0
20003410:	05010113          	addi	sp,sp,80
20003414:	b2dff06f          	j	20002f40 <_ZL7dir_sdiP3DIRm>
20003418:	00050593          	mv	a1,a0
2000341c:	00004517          	auipc	a0,0x4
20003420:	3c850513          	addi	a0,a0,968 # 200077e4 <strnlen+0xd4c>
20003424:	7cc020ef          	jal	ra,20005bf0 <strchr>
20003428:	f6050ae3          	beqz	a0,2000339c <_ZL11follow_pathP3DIRPKc+0xc0>
2000342c:	f75ff06f          	j	200033a0 <_ZL11follow_pathP3DIRPKc+0xc4>
20003430:	001b1713          	slli	a4,s6,0x1
20003434:	00ea8733          	add	a4,s5,a4
20003438:	01a71023          	sh	s10,0(a4)
2000343c:	001b0b13          	addi	s6,s6,1
20003440:	f25ff06f          	j	20003364 <_ZL11follow_pathP3DIRPKc+0x88>
20003444:	00198993          	addi	s3,s3,1
20003448:	0009c403          	lbu	s0,0(s3)
2000344c:	fec40ce3          	beq	s0,a2,20003444 <_ZL11follow_pathP3DIRPKc+0x168>
20003450:	fee40ae3          	beq	s0,a4,20003444 <_ZL11follow_pathP3DIRPKc+0x168>
20003454:	02043413          	sltiu	s0,s0,32
20003458:	00241413          	slli	s0,s0,0x2
2000345c:	00100713          	li	a4,1
20003460:	0ceb1863          	bne	s6,a4,20003530 <_ZL11follow_pathP3DIRPKc+0x254>
20003464:	000ad603          	lhu	a2,0(s5)
20003468:	02e00713          	li	a4,46
2000346c:	1ae61663          	bne	a2,a4,20003618 <_ZL11follow_pathP3DIRPKc+0x33c>
20003470:	001b1713          	slli	a4,s6,0x1
20003474:	00ea8733          	add	a4,s5,a4
20003478:	00071023          	sh	zero,0(a4)
2000347c:	00b00613          	li	a2,11
20003480:	00000713          	li	a4,0
20003484:	02e00693          	li	a3,46
20003488:	01676463          	bltu	a4,s6,20003490 <_ZL11follow_pathP3DIRPKc+0x1b4>
2000348c:	02000693          	li	a3,32
20003490:	00e905b3          	add	a1,s2,a4
20003494:	02d58023          	sb	a3,32(a1)
20003498:	00170713          	addi	a4,a4,1
2000349c:	fec714e3          	bne	a4,a2,20003484 <_ZL11follow_pathP3DIRPKc+0x1a8>
200034a0:	02046413          	ori	s0,s0,32
200034a4:	0ff47413          	zext.b	s0,s0
200034a8:	028905a3          	sb	s0,43(s2)
200034ac:	00090513          	mv	a0,s2
200034b0:	bb9ff0ef          	jal	ra,20003068 <_ZL8dir_findP3DIR>
200034b4:	02b94783          	lbu	a5,43(s2)
200034b8:	32050a63          	beqz	a0,200037ec <_ZL11follow_pathP3DIRPKc+0x510>
200034bc:	00400713          	li	a4,4
200034c0:	02e51063          	bne	a0,a4,200034e0 <_ZL11follow_pathP3DIRPKc+0x204>
200034c4:	0047f713          	andi	a4,a5,4
200034c8:	0207f793          	andi	a5,a5,32
200034cc:	30078a63          	beqz	a5,200037e0 <_ZL11follow_pathP3DIRPKc+0x504>
200034d0:	e80700e3          	beqz	a4,20003350 <_ZL11follow_pathP3DIRPKc+0x74>
200034d4:	f8000793          	li	a5,-128
200034d8:	02f905a3          	sb	a5,43(s2)
200034dc:	00000513          	li	a0,0
200034e0:	04c12083          	lw	ra,76(sp)
200034e4:	04812403          	lw	s0,72(sp)
200034e8:	04412483          	lw	s1,68(sp)
200034ec:	04012903          	lw	s2,64(sp)
200034f0:	03c12983          	lw	s3,60(sp)
200034f4:	03812a03          	lw	s4,56(sp)
200034f8:	03412a83          	lw	s5,52(sp)
200034fc:	03012b03          	lw	s6,48(sp)
20003500:	02c12b83          	lw	s7,44(sp)
20003504:	02812c03          	lw	s8,40(sp)
20003508:	02412c83          	lw	s9,36(sp)
2000350c:	02012d03          	lw	s10,32(sp)
20003510:	01c12d83          	lw	s11,28(sp)
20003514:	05010113          	addi	sp,sp,80
20003518:	00008067          	ret
2000351c:	02f00613          	li	a2,47
20003520:	05c00713          	li	a4,92
20003524:	f25ff06f          	j	20003448 <_ZL11follow_pathP3DIRPKc+0x16c>
20003528:	00400413          	li	s0,4
2000352c:	f31ff06f          	j	2000345c <_ZL11follow_pathP3DIRPKc+0x180>
20003530:	00200713          	li	a4,2
20003534:	0eeb1263          	bne	s6,a4,20003618 <_ZL11follow_pathP3DIRPKc+0x33c>
20003538:	002ad703          	lhu	a4,2(s5)
2000353c:	02e00613          	li	a2,46
20003540:	0cc71c63          	bne	a4,a2,20003618 <_ZL11follow_pathP3DIRPKc+0x33c>
20003544:	000ad603          	lhu	a2,0(s5)
20003548:	f25ff06f          	j	2000346c <_ZL11follow_pathP3DIRPKc+0x190>
2000354c:	00ea8633          	add	a2,s5,a4
20003550:	ffe65603          	lhu	a2,-2(a2)
20003554:	00b60463          	beq	a2,a1,2000355c <_ZL11follow_pathP3DIRPKc+0x280>
20003558:	00a61863          	bne	a2,a0,20003568 <_ZL11follow_pathP3DIRPKc+0x28c>
2000355c:	fffb0b13          	addi	s6,s6,-1
20003560:	001b1713          	slli	a4,s6,0x1
20003564:	fe0b14e3          	bnez	s6,2000354c <_ZL11follow_pathP3DIRPKc+0x270>
20003568:	00ea8733          	add	a4,s5,a4
2000356c:	00071023          	sh	zero,0(a4)
20003570:	e20b08e3          	beqz	s6,200033a0 <_ZL11follow_pathP3DIRPKc+0xc4>
20003574:	00000713          	li	a4,0
20003578:	02000593          	li	a1,32
2000357c:	00171613          	slli	a2,a4,0x1
20003580:	00ca8633          	add	a2,s5,a2
20003584:	00065603          	lhu	a2,0(a2)
20003588:	00070493          	mv	s1,a4
2000358c:	00170713          	addi	a4,a4,1
20003590:	feb606e3          	beq	a2,a1,2000357c <_ZL11follow_pathP3DIRPKc+0x2a0>
20003594:	00049663          	bnez	s1,200035a0 <_ZL11follow_pathP3DIRPKc+0x2c4>
20003598:	02e00713          	li	a4,46
2000359c:	00e61663          	bne	a2,a4,200035a8 <_ZL11follow_pathP3DIRPKc+0x2cc>
200035a0:	00346413          	ori	s0,s0,3
200035a4:	0ff47413          	zext.b	s0,s0
200035a8:	02e00613          	li	a2,46
200035ac:	001b1713          	slli	a4,s6,0x1
200035b0:	00ea8733          	add	a4,s5,a4
200035b4:	ffe75703          	lhu	a4,-2(a4)
200035b8:	00c70663          	beq	a4,a2,200035c4 <_ZL11follow_pathP3DIRPKc+0x2e8>
200035bc:	fffb0b13          	addi	s6,s6,-1
200035c0:	fe0b16e3          	bnez	s6,200035ac <_ZL11follow_pathP3DIRPKc+0x2d0>
200035c4:	00c12503          	lw	a0,12(sp)
200035c8:	00b00613          	li	a2,11
200035cc:	02000593          	li	a1,32
200035d0:	ac1fc0ef          	jal	ra,20000090 <memset>
200035d4:	00800c93          	li	s9,8
200035d8:	00000d13          	li	s10,0
200035dc:	00000c13          	li	s8,0
200035e0:	00148d93          	addi	s11,s1,1
200035e4:	00149493          	slli	s1,s1,0x1
200035e8:	009a84b3          	add	s1,s5,s1
200035ec:	0004d483          	lhu	s1,0(s1)
200035f0:	1c048463          	beqz	s1,200037b8 <_ZL11follow_pathP3DIRPKc+0x4dc>
200035f4:	02000793          	li	a5,32
200035f8:	00f48863          	beq	s1,a5,20003608 <_ZL11follow_pathP3DIRPKc+0x32c>
200035fc:	02e00793          	li	a5,46
20003600:	02f49263          	bne	s1,a5,20003624 <_ZL11follow_pathP3DIRPKc+0x348>
20003604:	036d8463          	beq	s11,s6,2000362c <_ZL11follow_pathP3DIRPKc+0x350>
20003608:	00346413          	ori	s0,s0,3
2000360c:	0ff47413          	zext.b	s0,s0
20003610:	000d8493          	mv	s1,s11
20003614:	fcdff06f          	j	200035e0 <_ZL11follow_pathP3DIRPKc+0x304>
20003618:	02000593          	li	a1,32
2000361c:	02e00513          	li	a0,46
20003620:	f41ff06f          	j	20003560 <_ZL11follow_pathP3DIRPKc+0x284>
20003624:	019d7a63          	bgeu	s10,s9,20003638 <_ZL11follow_pathP3DIRPKc+0x35c>
20003628:	0b6d9263          	bne	s11,s6,200036cc <_ZL11follow_pathP3DIRPKc+0x3f0>
2000362c:	00b00613          	li	a2,11
20003630:	08cc9263          	bne	s9,a2,200036b4 <_ZL11follow_pathP3DIRPKc+0x3d8>
20003634:	00c0006f          	j	20003640 <_ZL11follow_pathP3DIRPKc+0x364>
20003638:	00b00613          	li	a2,11
2000363c:	06cc9463          	bne	s9,a2,200036a4 <_ZL11follow_pathP3DIRPKc+0x3c8>
20003640:	02094683          	lbu	a3,32(s2)
20003644:	0e500793          	li	a5,229
20003648:	00f69663          	bne	a3,a5,20003654 <_ZL11follow_pathP3DIRPKc+0x378>
2000364c:	00500793          	li	a5,5
20003650:	02f90023          	sb	a5,32(s2)
20003654:	00346413          	ori	s0,s0,3
20003658:	0ff47413          	zext.b	s0,s0
2000365c:	00cc7793          	andi	a5,s8,12
20003660:	00c00693          	li	a3,12
20003664:	00d78863          	beq	a5,a3,20003674 <_ZL11follow_pathP3DIRPKc+0x398>
20003668:	003c7793          	andi	a5,s8,3
2000366c:	00300693          	li	a3,3
20003670:	00d79663          	bne	a5,a3,2000367c <_ZL11follow_pathP3DIRPKc+0x3a0>
20003674:	00246413          	ori	s0,s0,2
20003678:	0ff47413          	zext.b	s0,s0
2000367c:	00247793          	andi	a5,s0,2
20003680:	e20794e3          	bnez	a5,200034a8 <_ZL11follow_pathP3DIRPKc+0x1cc>
20003684:	001c7793          	andi	a5,s8,1
20003688:	00078663          	beqz	a5,20003694 <_ZL11follow_pathP3DIRPKc+0x3b8>
2000368c:	01046413          	ori	s0,s0,16
20003690:	0ff47413          	zext.b	s0,s0
20003694:	004c7713          	andi	a4,s8,4
20003698:	e00708e3          	beqz	a4,200034a8 <_ZL11follow_pathP3DIRPKc+0x1cc>
2000369c:	00846413          	ori	s0,s0,8
200036a0:	e05ff06f          	j	200034a4 <_ZL11follow_pathP3DIRPKc+0x1c8>
200036a4:	016d8863          	beq	s11,s6,200036b4 <_ZL11follow_pathP3DIRPKc+0x3d8>
200036a8:	00346413          	ori	s0,s0,3
200036ac:	0ff47413          	zext.b	s0,s0
200036b0:	11bb6463          	bltu	s6,s11,200037b8 <_ZL11follow_pathP3DIRPKc+0x4dc>
200036b4:	002c1713          	slli	a4,s8,0x2
200036b8:	0ff77c13          	zext.b	s8,a4
200036bc:	000b0d93          	mv	s11,s6
200036c0:	00b00c93          	li	s9,11
200036c4:	00800d13          	li	s10,8
200036c8:	f49ff06f          	j	20003610 <_ZL11follow_pathP3DIRPKc+0x334>
200036cc:	07f00593          	li	a1,127
200036d0:	00040b93          	mv	s7,s0
200036d4:	0295fe63          	bgeu	a1,s1,20003710 <_ZL11follow_pathP3DIRPKc+0x434>
200036d8:	00246813          	ori	a6,s0,2
200036dc:	1b500593          	li	a1,437
200036e0:	00048513          	mv	a0,s1
200036e4:	0ff87b93          	zext.b	s7,a6
200036e8:	6f4010ef          	jal	ra,20004ddc <ff_uni2oem>
200036ec:	08057593          	andi	a1,a0,128
200036f0:	00050493          	mv	s1,a0
200036f4:	06058463          	beqz	a1,2000375c <_ZL11follow_pathP3DIRPKc+0x480>
200036f8:	07f57493          	andi	s1,a0,127
200036fc:	00004597          	auipc	a1,0x4
20003700:	0fc58593          	addi	a1,a1,252 # 200077f8 <_ZL5ExCvt>
20003704:	009584b3          	add	s1,a1,s1
20003708:	0004c483          	lbu	s1,0(s1)
2000370c:	08048a63          	beqz	s1,200037a0 <_ZL11follow_pathP3DIRPKc+0x4c4>
20003710:	00048593          	mv	a1,s1
20003714:	00004517          	auipc	a0,0x4
20003718:	0dc50513          	addi	a0,a0,220 # 200077f0 <strnlen+0xd58>
2000371c:	4d4020ef          	jal	ra,20005bf0 <strchr>
20003720:	08051063          	bnez	a0,200037a0 <_ZL11follow_pathP3DIRPKc+0x4c4>
20003724:	fbf48593          	addi	a1,s1,-65
20003728:	01059593          	slli	a1,a1,0x10
2000372c:	0105d593          	srli	a1,a1,0x10
20003730:	01900513          	li	a0,25
20003734:	06b57e63          	bgeu	a0,a1,200037b0 <_ZL11follow_pathP3DIRPKc+0x4d4>
20003738:	f9f48593          	addi	a1,s1,-97
2000373c:	01059593          	slli	a1,a1,0x10
20003740:	0105d593          	srli	a1,a1,0x10
20003744:	04b56463          	bltu	a0,a1,2000378c <_ZL11follow_pathP3DIRPKc+0x4b0>
20003748:	fe048493          	addi	s1,s1,-32
2000374c:	01049493          	slli	s1,s1,0x10
20003750:	001c6c13          	ori	s8,s8,1
20003754:	0104d493          	srli	s1,s1,0x10
20003758:	0340006f          	j	2000378c <_ZL11follow_pathP3DIRPKc+0x4b0>
2000375c:	0ff00593          	li	a1,255
20003760:	faa5f6e3          	bgeu	a1,a0,2000370c <_ZL11follow_pathP3DIRPKc+0x430>
20003764:	fffc8593          	addi	a1,s9,-1
20003768:	00bd6a63          	bltu	s10,a1,2000377c <_ZL11follow_pathP3DIRPKc+0x4a0>
2000376c:	00346413          	ori	s0,s0,3
20003770:	0ff47413          	zext.b	s0,s0
20003774:	000c8d13          	mv	s10,s9
20003778:	e99ff06f          	j	20003610 <_ZL11follow_pathP3DIRPKc+0x334>
2000377c:	01a905b3          	add	a1,s2,s10
20003780:	00855513          	srli	a0,a0,0x8
20003784:	02a58023          	sb	a0,32(a1)
20003788:	001d0d13          	addi	s10,s10,1
2000378c:	01a905b3          	add	a1,s2,s10
20003790:	02958023          	sb	s1,32(a1)
20003794:	001d0d13          	addi	s10,s10,1
20003798:	000b8413          	mv	s0,s7
2000379c:	e75ff06f          	j	20003610 <_ZL11follow_pathP3DIRPKc+0x334>
200037a0:	003be813          	ori	a6,s7,3
200037a4:	0ff87b93          	zext.b	s7,a6
200037a8:	05f00493          	li	s1,95
200037ac:	fe1ff06f          	j	2000378c <_ZL11follow_pathP3DIRPKc+0x4b0>
200037b0:	002c6c13          	ori	s8,s8,2
200037b4:	fd9ff06f          	j	2000378c <_ZL11follow_pathP3DIRPKc+0x4b0>
200037b8:	02094683          	lbu	a3,32(s2)
200037bc:	0e500793          	li	a5,229
200037c0:	00f69663          	bne	a3,a5,200037cc <_ZL11follow_pathP3DIRPKc+0x4f0>
200037c4:	00500793          	li	a5,5
200037c8:	02f90023          	sb	a5,32(s2)
200037cc:	00800793          	li	a5,8
200037d0:	e8fc96e3          	bne	s9,a5,2000365c <_ZL11follow_pathP3DIRPKc+0x380>
200037d4:	002c1713          	slli	a4,s8,0x2
200037d8:	0ff77c13          	zext.b	s8,a4
200037dc:	e81ff06f          	j	2000365c <_ZL11follow_pathP3DIRPKc+0x380>
200037e0:	d00710e3          	bnez	a4,200034e0 <_ZL11follow_pathP3DIRPKc+0x204>
200037e4:	00500513          	li	a0,5
200037e8:	cf9ff06f          	j	200034e0 <_ZL11follow_pathP3DIRPKc+0x204>
200037ec:	0047f793          	andi	a5,a5,4
200037f0:	ce0796e3          	bnez	a5,200034dc <_ZL11follow_pathP3DIRPKc+0x200>
200037f4:	00694783          	lbu	a5,6(s2)
200037f8:	0107f793          	andi	a5,a5,16
200037fc:	fe0784e3          	beqz	a5,200037e4 <_ZL11follow_pathP3DIRPKc+0x508>
20003800:	01092783          	lw	a5,16(s2)
20003804:	000a4503          	lbu	a0,0(s4)
20003808:	038a0593          	addi	a1,s4,56
2000380c:	1ff7f793          	andi	a5,a5,511
20003810:	00f585b3          	add	a1,a1,a5
20003814:	a4cff0ef          	jal	ra,20002a60 <_ZL8ld_clustP5FATFSPKh.isra.0>
20003818:	00a92423          	sw	a0,8(s2)
2000381c:	b35ff06f          	j	20003350 <_ZL11follow_pathP3DIRPKc+0x74>

20003820 <f_mount>:
20003820:	fd010113          	addi	sp,sp,-48
20003824:	00a12623          	sw	a0,12(sp)
20003828:	01c10513          	addi	a0,sp,28
2000382c:	02812423          	sw	s0,40(sp)
20003830:	02112623          	sw	ra,44(sp)
20003834:	00b12423          	sw	a1,8(sp)
20003838:	00060413          	mv	s0,a2
2000383c:	00b12e23          	sw	a1,28(sp)
20003840:	87dfe0ef          	jal	ra,200020bc <_ZL12get_ldnumberPPKc>
20003844:	04054c63          	bltz	a0,2000389c <f_mount+0x7c>
20003848:	2f018793          	addi	a5,gp,752 # 2000a220 <_ZL5FatFs>
2000384c:	00251513          	slli	a0,a0,0x2
20003850:	00a78733          	add	a4,a5,a0
20003854:	00072703          	lw	a4,0(a4)
20003858:	00070463          	beqz	a4,20003860 <f_mount+0x40>
2000385c:	00070023          	sb	zero,0(a4)
20003860:	00c12703          	lw	a4,12(sp)
20003864:	00070463          	beqz	a4,2000386c <f_mount+0x4c>
20003868:	00070023          	sb	zero,0(a4)
2000386c:	00a787b3          	add	a5,a5,a0
20003870:	00e7a023          	sw	a4,0(a5)
20003874:	00000513          	li	a0,0
20003878:	00040a63          	beqz	s0,2000388c <f_mount+0x6c>
2000387c:	00000613          	li	a2,0
20003880:	00c10593          	addi	a1,sp,12
20003884:	00810513          	addi	a0,sp,8
20003888:	dfdfe0ef          	jal	ra,20002684 <_ZL12mount_volumePPKcPP5FATFSh>
2000388c:	02c12083          	lw	ra,44(sp)
20003890:	02812403          	lw	s0,40(sp)
20003894:	03010113          	addi	sp,sp,48
20003898:	00008067          	ret
2000389c:	00b00513          	li	a0,11
200038a0:	fedff06f          	j	2000388c <f_mount+0x6c>

200038a4 <f_open>:
200038a4:	f6010113          	addi	sp,sp,-160
200038a8:	09512223          	sw	s5,132(sp)
200038ac:	08112e23          	sw	ra,156(sp)
200038b0:	08812c23          	sw	s0,152(sp)
200038b4:	08912a23          	sw	s1,148(sp)
200038b8:	09212823          	sw	s2,144(sp)
200038bc:	09312623          	sw	s3,140(sp)
200038c0:	09412423          	sw	s4,136(sp)
200038c4:	09612023          	sw	s6,128(sp)
200038c8:	07712e23          	sw	s7,124(sp)
200038cc:	07812c23          	sw	s8,120(sp)
200038d0:	07912a23          	sw	s9,116(sp)
200038d4:	07a12823          	sw	s10,112(sp)
200038d8:	07b12623          	sw	s11,108(sp)
200038dc:	00b12623          	sw	a1,12(sp)
200038e0:	00900a93          	li	s5,9
200038e4:	04050e63          	beqz	a0,20003940 <f_open+0x9c>
200038e8:	03f67993          	andi	s3,a2,63
200038ec:	00050493          	mv	s1,a0
200038f0:	00060b13          	mv	s6,a2
200038f4:	01810593          	addi	a1,sp,24
200038f8:	00098613          	mv	a2,s3
200038fc:	00c10513          	addi	a0,sp,12
20003900:	d85fe0ef          	jal	ra,20002684 <_ZL12mount_volumePPKcPP5FATFSh>
20003904:	00050a93          	mv	s5,a0
20003908:	00050413          	mv	s0,a0
2000390c:	02051663          	bnez	a0,20003938 <f_open+0x94>
20003910:	01812903          	lw	s2,24(sp)
20003914:	00c12583          	lw	a1,12(sp)
20003918:	03010a13          	addi	s4,sp,48
2000391c:	000a0513          	mv	a0,s4
20003920:	03212823          	sw	s2,48(sp)
20003924:	9b9ff0ef          	jal	ra,200032dc <_ZL11follow_pathP3DIRPKc>
20003928:	00050413          	mv	s0,a0
2000392c:	04050a63          	beqz	a0,20003980 <f_open+0xdc>
20003930:	01cb7b13          	andi	s6,s6,28
20003934:	060b1e63          	bnez	s6,200039b0 <f_open+0x10c>
20003938:	0004a023          	sw	zero,0(s1)
2000393c:	00040a93          	mv	s5,s0
20003940:	09c12083          	lw	ra,156(sp)
20003944:	09812403          	lw	s0,152(sp)
20003948:	09412483          	lw	s1,148(sp)
2000394c:	09012903          	lw	s2,144(sp)
20003950:	08c12983          	lw	s3,140(sp)
20003954:	08812a03          	lw	s4,136(sp)
20003958:	08012b03          	lw	s6,128(sp)
2000395c:	07c12b83          	lw	s7,124(sp)
20003960:	07812c03          	lw	s8,120(sp)
20003964:	07412c83          	lw	s9,116(sp)
20003968:	07012d03          	lw	s10,112(sp)
2000396c:	06c12d83          	lw	s11,108(sp)
20003970:	000a8513          	mv	a0,s5
20003974:	08412a83          	lw	s5,132(sp)
20003978:	0a010113          	addi	sp,sp,160
2000397c:	00008067          	ret
20003980:	05b10783          	lb	a5,91(sp)
20003984:	2a07c063          	bltz	a5,20003c24 <f_open+0x380>
20003988:	01cb7713          	andi	a4,s6,28
2000398c:	03614783          	lbu	a5,54(sp)
20003990:	28071e63          	bnez	a4,20003c2c <f_open+0x388>
20003994:	0107f713          	andi	a4,a5,16
20003998:	44071a63          	bnez	a4,20003dec <f_open+0x548>
2000399c:	002b7b13          	andi	s6,s6,2
200039a0:	2e0b0863          	beqz	s6,20003c90 <f_open+0x3ec>
200039a4:	0017f793          	andi	a5,a5,1
200039a8:	2e078463          	beqz	a5,20003c90 <f_open+0x3ec>
200039ac:	14c0006f          	j	20003af8 <f_open+0x254>
200039b0:	00400793          	li	a5,4
200039b4:	f8f512e3          	bne	a0,a5,20003938 <f_open+0x94>
200039b8:	05b14783          	lbu	a5,91(sp)
200039bc:	03012b03          	lw	s6,48(sp)
200039c0:	0a07f793          	andi	a5,a5,160
200039c4:	26079063          	bnez	a5,20003c24 <f_open+0x380>
200039c8:	00cb2703          	lw	a4,12(s6)
200039cc:	00000c13          	li	s8,0
200039d0:	001c1793          	slli	a5,s8,0x1
200039d4:	00f707b3          	add	a5,a4,a5
200039d8:	0007d783          	lhu	a5,0(a5)
200039dc:	12079263          	bnez	a5,20003b00 <f_open+0x25c>
200039e0:	05010793          	addi	a5,sp,80
200039e4:	02410d13          	addi	s10,sp,36
200039e8:	00078593          	mv	a1,a5
200039ec:	00c00613          	li	a2,12
200039f0:	000d0513          	mv	a0,s10
200039f4:	00f12223          	sw	a5,4(sp)
200039f8:	769010ef          	jal	ra,20005960 <memcpy>
200039fc:	02f14783          	lbu	a5,47(sp)
20003a00:	0017f793          	andi	a5,a5,1
20003a04:	16078263          	beqz	a5,20003b68 <f_open+0x2c4>
20003a08:	04000793          	li	a5,64
20003a0c:	00011cb7          	lui	s9,0x11
20003a10:	04f10da3          	sb	a5,91(sp)
20003a14:	00100b93          	li	s7,1
20003a18:	00010db7          	lui	s11,0x10
20003a1c:	021c8c93          	addi	s9,s9,33 # 11021 <_start-0x1ffeefdf>
20003a20:	00412503          	lw	a0,4(sp)
20003a24:	00b00613          	li	a2,11
20003a28:	000d0593          	mv	a1,s10
20003a2c:	00cb2403          	lw	s0,12(s6)
20003a30:	731010ef          	jal	ra,20005960 <memcpy>
20003a34:	00500793          	li	a5,5
20003a38:	1177e463          	bltu	a5,s7,20003b40 <f_open+0x29c>
20003a3c:	000b8793          	mv	a5,s7
20003a40:	00700613          	li	a2,7
20003a44:	03900893          	li	a7,57
20003a48:	01c10313          	addi	t1,sp,28
20003a4c:	00f00513          	li	a0,15
20003a50:	00f7f713          	andi	a4,a5,15
20003a54:	03070593          	addi	a1,a4,48
20003a58:	00078813          	mv	a6,a5
20003a5c:	0047d793          	srli	a5,a5,0x4
20003a60:	00b8f463          	bgeu	a7,a1,20003a68 <f_open+0x1c4>
20003a64:	03770593          	addi	a1,a4,55
20003a68:	fff60713          	addi	a4,a2,-1
20003a6c:	00c30633          	add	a2,t1,a2
20003a70:	00b60023          	sb	a1,0(a2)
20003a74:	00070463          	beqz	a4,20003a7c <f_open+0x1d8>
20003a78:	0d056863          	bltu	a0,a6,20003b48 <f_open+0x2a4>
20003a7c:	06070793          	addi	a5,a4,96
20003a80:	07e00613          	li	a2,126
20003a84:	002787b3          	add	a5,a5,sp
20003a88:	fac78e23          	sb	a2,-68(a5)
20003a8c:	02000593          	li	a1,32
20003a90:	000a0613          	mv	a2,s4
20003a94:	00000793          	li	a5,0
20003a98:	00f70a63          	beq	a4,a5,20003aac <f_open+0x208>
20003a9c:	02064503          	lbu	a0,32(a2)
20003aa0:	00178813          	addi	a6,a5,1
20003aa4:	00160613          	addi	a2,a2,1
20003aa8:	0ab51463          	bne	a0,a1,20003b50 <f_open+0x2ac>
20003aac:	00700813          	li	a6,7
20003ab0:	00800593          	li	a1,8
20003ab4:	02000613          	li	a2,32
20003ab8:	00e86a63          	bltu	a6,a4,20003acc <f_open+0x228>
20003abc:	06070693          	addi	a3,a4,96
20003ac0:	00268633          	add	a2,a3,sp
20003ac4:	fbc64603          	lbu	a2,-68(a2)
20003ac8:	00170713          	addi	a4,a4,1
20003acc:	00178793          	addi	a5,a5,1
20003ad0:	00fa0533          	add	a0,s4,a5
20003ad4:	00c50fa3          	sb	a2,31(a0)
20003ad8:	fcb79ee3          	bne	a5,a1,20003ab4 <f_open+0x210>
20003adc:	000a0513          	mv	a0,s4
20003ae0:	d88ff0ef          	jal	ra,20003068 <_ZL8dir_findP3DIR>
20003ae4:	00050413          	mv	s0,a0
20003ae8:	06051863          	bnez	a0,20003b58 <f_open+0x2b4>
20003aec:	001b8b93          	addi	s7,s7,1
20003af0:	06400793          	li	a5,100
20003af4:	f2fb96e3          	bne	s7,a5,20003a20 <f_open+0x17c>
20003af8:	00700413          	li	s0,7
20003afc:	e3dff06f          	j	20003938 <f_open+0x94>
20003b00:	001c0c13          	addi	s8,s8,1
20003b04:	ecdff06f          	j	200039d0 <f_open+0x12c>
20003b08:	00240413          	addi	s0,s0,2
20003b0c:	01000613          	li	a2,16
20003b10:	00177593          	andi	a1,a4,1
20003b14:	00179793          	slli	a5,a5,0x1
20003b18:	00f587b3          	add	a5,a1,a5
20003b1c:	01b7f5b3          	and	a1,a5,s11
20003b20:	00175713          	srli	a4,a4,0x1
20003b24:	00058463          	beqz	a1,20003b2c <f_open+0x288>
20003b28:	0197c7b3          	xor	a5,a5,s9
20003b2c:	fff60613          	addi	a2,a2,-1
20003b30:	fe0610e3          	bnez	a2,20003b10 <f_open+0x26c>
20003b34:	00045703          	lhu	a4,0(s0)
20003b38:	fc0718e3          	bnez	a4,20003b08 <f_open+0x264>
20003b3c:	f05ff06f          	j	20003a40 <f_open+0x19c>
20003b40:	000b8793          	mv	a5,s7
20003b44:	ff1ff06f          	j	20003b34 <f_open+0x290>
20003b48:	00070613          	mv	a2,a4
20003b4c:	f05ff06f          	j	20003a50 <f_open+0x1ac>
20003b50:	00080793          	mv	a5,a6
20003b54:	f45ff06f          	j	20003a98 <f_open+0x1f4>
20003b58:	00400793          	li	a5,4
20003b5c:	dcf51ee3          	bne	a0,a5,20003938 <f_open+0x94>
20003b60:	02f14783          	lbu	a5,47(sp)
20003b64:	04f10da3          	sb	a5,91(sp)
20003b68:	02f14783          	lbu	a5,47(sp)
20003b6c:	00100c93          	li	s9,1
20003b70:	0027f793          	andi	a5,a5,2
20003b74:	00078a63          	beqz	a5,20003b88 <f_open+0x2e4>
20003b78:	00cc0c13          	addi	s8,s8,12
20003b7c:	00d00793          	li	a5,13
20003b80:	02fc5c33          	divu	s8,s8,a5
20003b84:	001c0c93          	addi	s9,s8,1
20003b88:	00000593          	li	a1,0
20003b8c:	000a0513          	mv	a0,s4
20003b90:	03012d03          	lw	s10,48(sp)
20003b94:	bacff0ef          	jal	ra,20002f40 <_ZL7dir_sdiP3DIRm>
20003b98:	00050413          	mv	s0,a0
20003b9c:	0e500d93          	li	s11,229
20003ba0:	00050a63          	beqz	a0,20003bb4 <f_open+0x310>
20003ba4:	00400793          	li	a5,4
20003ba8:	f4f408e3          	beq	s0,a5,20003af8 <f_open+0x254>
20003bac:	d8dff06f          	j	20003938 <f_open+0x94>
20003bb0:	000c0413          	mv	s0,s8
20003bb4:	04812583          	lw	a1,72(sp)
20003bb8:	000d0513          	mv	a0,s10
20003bbc:	ee4fe0ef          	jal	ra,200022a0 <_ZL11move_windowP5FATFSm>
20003bc0:	00050c13          	mv	s8,a0
20003bc4:	42051063          	bnez	a0,20003fe4 <f_open+0x740>
20003bc8:	04c12783          	lw	a5,76(sp)
20003bcc:	0007c783          	lbu	a5,0(a5)
20003bd0:	01b78463          	beq	a5,s11,20003bd8 <f_open+0x334>
20003bd4:	00079663          	bnez	a5,20003be0 <f_open+0x33c>
20003bd8:	00140c13          	addi	s8,s0,1
20003bdc:	218c8c63          	beq	s9,s8,20003df4 <f_open+0x550>
20003be0:	00100593          	li	a1,1
20003be4:	000a0513          	mv	a0,s4
20003be8:	9acff0ef          	jal	ra,20002d94 <_ZL8dir_nextP3DIRi>
20003bec:	00050413          	mv	s0,a0
20003bf0:	fc0500e3          	beqz	a0,20003bb0 <f_open+0x30c>
20003bf4:	fb1ff06f          	j	20003ba4 <f_open+0x300>
20003bf8:	00178313          	addi	t1,a5,1
20003bfc:	00179793          	slli	a5,a5,0x1
20003c00:	00f507b3          	add	a5,a0,a5
20003c04:	0007d603          	lhu	a2,0(a5)
20003c08:	00865793          	srli	a5,a2,0x8
20003c0c:	00f580a3          	sb	a5,1(a1)
20003c10:	00c58023          	sb	a2,0(a1)
20003c14:	00030793          	mv	a5,t1
20003c18:	28061663          	bnez	a2,20003ea4 <f_open+0x600>
20003c1c:	000c0613          	mv	a2,s8
20003c20:	2840006f          	j	20003ea4 <f_open+0x600>
20003c24:	00600413          	li	s0,6
20003c28:	d11ff06f          	j	20003938 <f_open+0x94>
20003c2c:	0117f793          	andi	a5,a5,17
20003c30:	ec0794e3          	bnez	a5,20003af8 <f_open+0x254>
20003c34:	004b7b13          	andi	s6,s6,4
20003c38:	300b0263          	beqz	s6,20003f3c <f_open+0x698>
20003c3c:	00800413          	li	s0,8
20003c40:	cf9ff06f          	j	20003938 <f_open+0x94>
20003c44:	01cba783          	lw	a5,28(s7)
20003c48:	38fa7a63          	bgeu	s4,a5,20003fdc <f_open+0x738>
20003c4c:	000a0b13          	mv	s6,s4
20003c50:	00100c93          	li	s9,1
20003c54:	fff00d13          	li	s10,-1
20003c58:	03012503          	lw	a0,48(sp)
20003c5c:	000b0593          	mv	a1,s6
20003c60:	01612223          	sw	s6,4(sp)
20003c64:	e35fe0ef          	jal	ra,20002a98 <_ZL7get_fatP7FFOBJIDm.isra.0>
20003c68:	00412583          	lw	a1,4(sp)
20003c6c:	00050b13          	mv	s6,a0
20003c70:	0e051263          	bnez	a0,20003d54 <f_open+0x4b0>
20003c74:	000c0593          	mv	a1,s8
20003c78:	00090513          	mv	a0,s2
20003c7c:	fffa0a13          	addi	s4,s4,-1
20003c80:	e20fe0ef          	jal	ra,200022a0 <_ZL11move_windowP5FATFSm>
20003c84:	01492823          	sw	s4,16(s2)
20003c88:	00050413          	mv	s0,a0
20003c8c:	ca0516e3          	bnez	a0,20003938 <f_open+0x94>
20003c90:	0089f793          	andi	a5,s3,8
20003c94:	00078463          	beqz	a5,20003c9c <f_open+0x3f8>
20003c98:	0409e993          	ori	s3,s3,64
20003c9c:	03492783          	lw	a5,52(s2)
20003ca0:	04c12403          	lw	s0,76(sp)
20003ca4:	02c48a13          	addi	s4,s1,44
20003ca8:	02f4a023          	sw	a5,32(s1)
20003cac:	0284a223          	sw	s0,36(s1)
20003cb0:	00094503          	lbu	a0,0(s2)
20003cb4:	00040593          	mv	a1,s0
20003cb8:	da9fe0ef          	jal	ra,20002a60 <_ZL8ld_clustP5FATFSPKh.isra.0>
20003cbc:	00a4a423          	sw	a0,8(s1)
20003cc0:	01c40513          	addi	a0,s0,28
20003cc4:	b34fe0ef          	jal	ra,20001ff8 <_ZL8ld_dwordPKh>
20003cc8:	00695783          	lhu	a5,6(s2)
20003ccc:	00a4a623          	sw	a0,12(s1)
20003cd0:	01348823          	sb	s3,16(s1)
20003cd4:	0204a423          	sw	zero,40(s1)
20003cd8:	0124a023          	sw	s2,0(s1)
20003cdc:	00f49223          	sh	a5,4(s1)
20003ce0:	000488a3          	sb	zero,17(s1)
20003ce4:	0004ae23          	sw	zero,28(s1)
20003ce8:	0004aa23          	sw	zero,20(s1)
20003cec:	20000613          	li	a2,512
20003cf0:	00000593          	li	a1,0
20003cf4:	000a0513          	mv	a0,s4
20003cf8:	0209f993          	andi	s3,s3,32
20003cfc:	b94fc0ef          	jal	ra,20000090 <memset>
20003d00:	c40980e3          	beqz	s3,20003940 <f_open+0x9c>
20003d04:	00c4a983          	lw	s3,12(s1)
20003d08:	c2098ce3          	beqz	s3,20003940 <f_open+0x9c>
20003d0c:	00a95403          	lhu	s0,10(s2)
20003d10:	0134aa23          	sw	s3,20(s1)
20003d14:	0084a583          	lw	a1,8(s1)
20003d18:	00941413          	slli	s0,s0,0x9
20003d1c:	09347063          	bgeu	s0,s3,20003d9c <f_open+0x4f8>
20003d20:	00100b13          	li	s6,1
20003d24:	fff00b93          	li	s7,-1
20003d28:	0004a503          	lw	a0,0(s1)
20003d2c:	408989b3          	sub	s3,s3,s0
20003d30:	d69fe0ef          	jal	ra,20002a98 <_ZL7get_fatP7FFOBJIDm.isra.0>
20003d34:	00050593          	mv	a1,a0
20003d38:	0aab7263          	bgeu	s6,a0,20003ddc <f_open+0x538>
20003d3c:	0b750463          	beq	a0,s7,20003de4 <f_open+0x540>
20003d40:	ff3464e3          	bltu	s0,s3,20003d28 <f_open+0x484>
20003d44:	00000413          	li	s0,0
20003d48:	00b4ac23          	sw	a1,24(s1)
20003d4c:	be0416e3          	bnez	s0,20003938 <f_open+0x94>
20003d50:	0500006f          	j	20003da0 <f_open+0x4fc>
20003d54:	29950463          	beq	a0,s9,20003fdc <f_open+0x738>
20003d58:	07a50e63          	beq	a0,s10,20003dd4 <f_open+0x530>
20003d5c:	00000613          	li	a2,0
20003d60:	000b8513          	mv	a0,s7
20003d64:	f30fe0ef          	jal	ra,20002494 <_ZL7put_fatP5FATFSmm>
20003d68:	00050413          	mv	s0,a0
20003d6c:	bc0516e3          	bnez	a0,20003938 <f_open+0x94>
20003d70:	01cba703          	lw	a4,28(s7)
20003d74:	014ba783          	lw	a5,20(s7)
20003d78:	ffe70693          	addi	a3,a4,-2
20003d7c:	00d7fc63          	bgeu	a5,a3,20003d94 <f_open+0x4f0>
20003d80:	00178793          	addi	a5,a5,1
20003d84:	00fbaa23          	sw	a5,20(s7)
20003d88:	004bc783          	lbu	a5,4(s7)
20003d8c:	0017e793          	ori	a5,a5,1
20003d90:	00fb8223          	sb	a5,4(s7)
20003d94:	eceb62e3          	bltu	s6,a4,20003c58 <f_open+0x3b4>
20003d98:	eddff06f          	j	20003c74 <f_open+0x3d0>
20003d9c:	00b4ac23          	sw	a1,24(s1)
20003da0:	1ff9f793          	andi	a5,s3,511
20003da4:	b8078ee3          	beqz	a5,20003940 <f_open+0x9c>
20003da8:	00090513          	mv	a0,s2
20003dac:	a78fe0ef          	jal	ra,20002024 <_ZL9clst2sectP5FATFSm>
20003db0:	22050663          	beqz	a0,20003fdc <f_open+0x738>
20003db4:	0099d613          	srli	a2,s3,0x9
20003db8:	00a60633          	add	a2,a2,a0
20003dbc:	00c4ae23          	sw	a2,28(s1)
20003dc0:	00194503          	lbu	a0,1(s2)
20003dc4:	00100693          	li	a3,1
20003dc8:	000a0593          	mv	a1,s4
20003dcc:	1d8010ef          	jal	ra,20004fa4 <disk_read>
20003dd0:	b60508e3          	beqz	a0,20003940 <f_open+0x9c>
20003dd4:	00100413          	li	s0,1
20003dd8:	b61ff06f          	j	20003938 <f_open+0x94>
20003ddc:	00200413          	li	s0,2
20003de0:	f69ff06f          	j	20003d48 <f_open+0x4a4>
20003de4:	00100413          	li	s0,1
20003de8:	f61ff06f          	j	20003d48 <f_open+0x4a4>
20003dec:	00400413          	li	s0,4
20003df0:	b49ff06f          	j	20003938 <f_open+0x94>
20003df4:	00040b93          	mv	s7,s0
20003df8:	0e040a63          	beqz	s0,20003eec <f_open+0x648>
20003dfc:	04012783          	lw	a5,64(sp)
20003e00:	005b9593          	slli	a1,s7,0x5
20003e04:	000a0513          	mv	a0,s4
20003e08:	40b785b3          	sub	a1,a5,a1
20003e0c:	934ff0ef          	jal	ra,20002f40 <_ZL7dir_sdiP3DIRm>
20003e10:	00050413          	mv	s0,a0
20003e14:	b20512e3          	bnez	a0,20003938 <f_open+0x94>
20003e18:	00412503          	lw	a0,4(sp)
20003e1c:	00f00d13          	li	s10,15
20003e20:	00004d97          	auipc	s11,0x4
20003e24:	a58d8d93          	addi	s11,s11,-1448 # 20007878 <_ZL6LfnOfs>
20003e28:	a64fe0ef          	jal	ra,2000208c <_ZL7sum_sfnPKh>
20003e2c:	00010837          	lui	a6,0x10
20003e30:	00a12423          	sw	a0,8(sp)
20003e34:	fff80c13          	addi	s8,a6,-1 # ffff <_start-0x1fff0001>
20003e38:	fff00c93          	li	s9,-1
20003e3c:	04812583          	lw	a1,72(sp)
20003e40:	000b0513          	mv	a0,s6
20003e44:	c5cfe0ef          	jal	ra,200022a0 <_ZL11move_windowP5FATFSm>
20003e48:	00050413          	mv	s0,a0
20003e4c:	ae0516e3          	bnez	a0,20003938 <f_open+0x94>
20003e50:	04c12683          	lw	a3,76(sp)
20003e54:	00812783          	lw	a5,8(sp)
20003e58:	00cb2503          	lw	a0,12(s6)
20003e5c:	00d00613          	li	a2,13
20003e60:	00f686a3          	sb	a5,13(a3)
20003e64:	0ffbf793          	zext.b	a5,s7
20003e68:	fff78793          	addi	a5,a5,-1
20003e6c:	02c787b3          	mul	a5,a5,a2
20003e70:	0ffbf893          	zext.b	a7,s7
20003e74:	01a685a3          	sb	s10,11(a3)
20003e78:	00068623          	sb	zero,12(a3)
20003e7c:	00068d23          	sb	zero,26(a3)
20003e80:	00068da3          	sb	zero,27(a3)
20003e84:	00000613          	li	a2,0
20003e88:	00d00e13          	li	t3,13
20003e8c:	01b405b3          	add	a1,s0,s11
20003e90:	0005c583          	lbu	a1,0(a1)
20003e94:	00b685b3          	add	a1,a3,a1
20003e98:	d78610e3          	bne	a2,s8,20003bf8 <f_open+0x354>
20003e9c:	01958023          	sb	s9,0(a1)
20003ea0:	019580a3          	sb	s9,1(a1)
20003ea4:	00140413          	addi	s0,s0,1
20003ea8:	ffc412e3          	bne	s0,t3,20003e8c <f_open+0x5e8>
20003eac:	01860a63          	beq	a2,s8,20003ec0 <f_open+0x61c>
20003eb0:	00179793          	slli	a5,a5,0x1
20003eb4:	00f50533          	add	a0,a0,a5
20003eb8:	00055783          	lhu	a5,0(a0)
20003ebc:	00079463          	bnez	a5,20003ec4 <f_open+0x620>
20003ec0:	0408e893          	ori	a7,a7,64
20003ec4:	01168023          	sb	a7,0(a3)
20003ec8:	00100793          	li	a5,1
20003ecc:	00fb01a3          	sb	a5,3(s6)
20003ed0:	00000593          	li	a1,0
20003ed4:	000a0513          	mv	a0,s4
20003ed8:	ebdfe0ef          	jal	ra,20002d94 <_ZL8dir_nextP3DIRi>
20003edc:	00050413          	mv	s0,a0
20003ee0:	a4051ce3          	bnez	a0,20003938 <f_open+0x94>
20003ee4:	fffb8b93          	addi	s7,s7,-1
20003ee8:	f40b9ae3          	bnez	s7,20003e3c <f_open+0x598>
20003eec:	04812583          	lw	a1,72(sp)
20003ef0:	000b0513          	mv	a0,s6
20003ef4:	bacfe0ef          	jal	ra,200022a0 <_ZL11move_windowP5FATFSm>
20003ef8:	00050413          	mv	s0,a0
20003efc:	a2051ee3          	bnez	a0,20003938 <f_open+0x94>
20003f00:	04c12503          	lw	a0,76(sp)
20003f04:	02000613          	li	a2,32
20003f08:	00000593          	li	a1,0
20003f0c:	984fc0ef          	jal	ra,20000090 <memset>
20003f10:	00412583          	lw	a1,4(sp)
20003f14:	04c12503          	lw	a0,76(sp)
20003f18:	00b00613          	li	a2,11
20003f1c:	0089e993          	ori	s3,s3,8
20003f20:	241010ef          	jal	ra,20005960 <memcpy>
20003f24:	05b14783          	lbu	a5,91(sp)
20003f28:	04c12703          	lw	a4,76(sp)
20003f2c:	0187f793          	andi	a5,a5,24
20003f30:	00f70623          	sb	a5,12(a4)
20003f34:	00100793          	li	a5,1
20003f38:	00fb01a3          	sb	a5,3(s6)
20003f3c:	0089f713          	andi	a4,s3,8
20003f40:	04c12783          	lw	a5,76(sp)
20003f44:	d40706e3          	beqz	a4,20003c90 <f_open+0x3ec>
20003f48:	02100693          	li	a3,33
20003f4c:	05200713          	li	a4,82
20003f50:	00d78823          	sb	a3,16(a5)
20003f54:	00e788a3          	sb	a4,17(a5)
20003f58:	00078723          	sb	zero,14(a5)
20003f5c:	000787a3          	sb	zero,15(a5)
20003f60:	04c12783          	lw	a5,76(sp)
20003f64:	00d78c23          	sb	a3,24(a5)
20003f68:	00e78ca3          	sb	a4,25(a5)
20003f6c:	00078b23          	sb	zero,22(a5)
20003f70:	00078ba3          	sb	zero,23(a5)
20003f74:	04c12403          	lw	s0,76(sp)
20003f78:	00094503          	lbu	a0,0(s2)
20003f7c:	00040593          	mv	a1,s0
20003f80:	ae1fe0ef          	jal	ra,20002a60 <_ZL8ld_clustP5FATFSPKh.isra.0>
20003f84:	02000793          	li	a5,32
20003f88:	00f405a3          	sb	a5,11(s0)
20003f8c:	04c12783          	lw	a5,76(sp)
20003f90:	00300713          	li	a4,3
20003f94:	00050a13          	mv	s4,a0
20003f98:	00078d23          	sb	zero,26(a5)
20003f9c:	00078da3          	sb	zero,27(a5)
20003fa0:	00094683          	lbu	a3,0(s2)
20003fa4:	00e69663          	bne	a3,a4,20003fb0 <f_open+0x70c>
20003fa8:	00078a23          	sb	zero,20(a5)
20003fac:	00078aa3          	sb	zero,21(a5)
20003fb0:	04c12783          	lw	a5,76(sp)
20003fb4:	00078e23          	sb	zero,28(a5)
20003fb8:	00078ea3          	sb	zero,29(a5)
20003fbc:	00078f23          	sb	zero,30(a5)
20003fc0:	00078fa3          	sb	zero,31(a5)
20003fc4:	00100793          	li	a5,1
20003fc8:	00f901a3          	sb	a5,3(s2)
20003fcc:	cc0a02e3          	beqz	s4,20003c90 <f_open+0x3ec>
20003fd0:	03492c03          	lw	s8,52(s2)
20003fd4:	03012b83          	lw	s7,48(sp)
20003fd8:	c6fa16e3          	bne	s4,a5,20003c44 <f_open+0x3a0>
20003fdc:	00200413          	li	s0,2
20003fe0:	959ff06f          	j	20003938 <f_open+0x94>
20003fe4:	00050413          	mv	s0,a0
20003fe8:	bbdff06f          	j	20003ba4 <f_open+0x300>

20003fec <f_read>:
20003fec:	fa010113          	addi	sp,sp,-96
20003ff0:	04812c23          	sw	s0,88(sp)
20003ff4:	04912a23          	sw	s1,84(sp)
20003ff8:	05212823          	sw	s2,80(sp)
20003ffc:	05512223          	sw	s5,68(sp)
20004000:	05612023          	sw	s6,64(sp)
20004004:	04112e23          	sw	ra,92(sp)
20004008:	05312623          	sw	s3,76(sp)
2000400c:	05412423          	sw	s4,72(sp)
20004010:	03712e23          	sw	s7,60(sp)
20004014:	03812c23          	sw	s8,56(sp)
20004018:	03912a23          	sw	s9,52(sp)
2000401c:	03a12823          	sw	s10,48(sp)
20004020:	03b12623          	sw	s11,44(sp)
20004024:	00058a93          	mv	s5,a1
20004028:	0006a023          	sw	zero,0(a3)
2000402c:	01c10593          	addi	a1,sp,28
20004030:	00050413          	mv	s0,a0
20004034:	00060913          	mv	s2,a2
20004038:	00068b13          	mv	s6,a3
2000403c:	960fe0ef          	jal	ra,2000219c <_ZL8validateP7FFOBJIDPP5FATFS>
20004040:	00050493          	mv	s1,a0
20004044:	08051063          	bnez	a0,200040c4 <f_read+0xd8>
20004048:	01144483          	lbu	s1,17(s0)
2000404c:	06049c63          	bnez	s1,200040c4 <f_read+0xd8>
20004050:	01044783          	lbu	a5,16(s0)
20004054:	00700493          	li	s1,7
20004058:	0017f793          	andi	a5,a5,1
2000405c:	06078463          	beqz	a5,200040c4 <f_read+0xd8>
20004060:	00c42483          	lw	s1,12(s0)
20004064:	01442783          	lw	a5,20(s0)
20004068:	40f484b3          	sub	s1,s1,a5
2000406c:	00997463          	bgeu	s2,s1,20004074 <f_read+0x88>
20004070:	00090493          	mv	s1,s2
20004074:	02c40c13          	addi	s8,s0,44
20004078:	1ff00c93          	li	s9,511
2000407c:	00100d13          	li	s10,1
20004080:	fff00d93          	li	s11,-1
20004084:	04048063          	beqz	s1,200040c4 <f_read+0xd8>
20004088:	01442583          	lw	a1,20(s0)
2000408c:	1ff5f793          	andi	a5,a1,511
20004090:	18079a63          	bnez	a5,20004224 <f_read+0x238>
20004094:	01c12903          	lw	s2,28(sp)
20004098:	0095d793          	srli	a5,a1,0x9
2000409c:	00a95a03          	lhu	s4,10(s2)
200040a0:	fffa0a13          	addi	s4,s4,-1
200040a4:	00fa7a33          	and	s4,s4,a5
200040a8:	080a1c63          	bnez	s4,20004140 <f_read+0x154>
200040ac:	04059c63          	bnez	a1,20004104 <f_read+0x118>
200040b0:	00842503          	lw	a0,8(s0)
200040b4:	06ad6a63          	bltu	s10,a0,20004128 <f_read+0x13c>
200040b8:	00200793          	li	a5,2
200040bc:	00f408a3          	sb	a5,17(s0)
200040c0:	00200493          	li	s1,2
200040c4:	05c12083          	lw	ra,92(sp)
200040c8:	05812403          	lw	s0,88(sp)
200040cc:	05012903          	lw	s2,80(sp)
200040d0:	04c12983          	lw	s3,76(sp)
200040d4:	04812a03          	lw	s4,72(sp)
200040d8:	04412a83          	lw	s5,68(sp)
200040dc:	04012b03          	lw	s6,64(sp)
200040e0:	03c12b83          	lw	s7,60(sp)
200040e4:	03812c03          	lw	s8,56(sp)
200040e8:	03412c83          	lw	s9,52(sp)
200040ec:	03012d03          	lw	s10,48(sp)
200040f0:	02c12d83          	lw	s11,44(sp)
200040f4:	00048513          	mv	a0,s1
200040f8:	05412483          	lw	s1,84(sp)
200040fc:	06010113          	addi	sp,sp,96
20004100:	00008067          	ret
20004104:	02842783          	lw	a5,40(s0)
20004108:	00078863          	beqz	a5,20004118 <f_read+0x12c>
2000410c:	00040513          	mv	a0,s0
20004110:	f41fd0ef          	jal	ra,20002050 <_ZL10clmt_clustP3FILm>
20004114:	fa1ff06f          	j	200040b4 <f_read+0xc8>
20004118:	01842583          	lw	a1,24(s0)
2000411c:	00042503          	lw	a0,0(s0)
20004120:	979fe0ef          	jal	ra,20002a98 <_ZL7get_fatP7FFOBJIDm.isra.0>
20004124:	f91ff06f          	j	200040b4 <f_read+0xc8>
20004128:	01b51a63          	bne	a0,s11,2000413c <f_read+0x150>
2000412c:	00100793          	li	a5,1
20004130:	00f408a3          	sb	a5,17(s0)
20004134:	00100493          	li	s1,1
20004138:	f8dff06f          	j	200040c4 <f_read+0xd8>
2000413c:	00a42c23          	sw	a0,24(s0)
20004140:	01842583          	lw	a1,24(s0)
20004144:	00090513          	mv	a0,s2
20004148:	eddfd0ef          	jal	ra,20002024 <_ZL9clst2sectP5FATFSm>
2000414c:	f60506e3          	beqz	a0,200040b8 <f_read+0xcc>
20004150:	00aa09b3          	add	s3,s4,a0
20004154:	089cf063          	bgeu	s9,s1,200041d4 <f_read+0x1e8>
20004158:	00a95783          	lhu	a5,10(s2)
2000415c:	0094db93          	srli	s7,s1,0x9
20004160:	017a0733          	add	a4,s4,s7
20004164:	00e7f463          	bgeu	a5,a4,2000416c <f_read+0x180>
20004168:	41478bb3          	sub	s7,a5,s4
2000416c:	00194503          	lbu	a0,1(s2)
20004170:	000b8693          	mv	a3,s7
20004174:	00098613          	mv	a2,s3
20004178:	000a8593          	mv	a1,s5
2000417c:	629000ef          	jal	ra,20004fa4 <disk_read>
20004180:	fa0516e3          	bnez	a0,2000412c <f_read+0x140>
20004184:	01040783          	lb	a5,16(s0)
20004188:	0207d263          	bgez	a5,200041ac <f_read+0x1c0>
2000418c:	01c42503          	lw	a0,28(s0)
20004190:	41350533          	sub	a0,a0,s3
20004194:	01757c63          	bgeu	a0,s7,200041ac <f_read+0x1c0>
20004198:	00951513          	slli	a0,a0,0x9
2000419c:	20000613          	li	a2,512
200041a0:	02c40593          	addi	a1,s0,44
200041a4:	00aa8533          	add	a0,s5,a0
200041a8:	7b8010ef          	jal	ra,20005960 <memcpy>
200041ac:	009b9913          	slli	s2,s7,0x9
200041b0:	000b2783          	lw	a5,0(s6)
200041b4:	412484b3          	sub	s1,s1,s2
200041b8:	012a8ab3          	add	s5,s5,s2
200041bc:	012787b3          	add	a5,a5,s2
200041c0:	00fb2023          	sw	a5,0(s6)
200041c4:	01442783          	lw	a5,20(s0)
200041c8:	012787b3          	add	a5,a5,s2
200041cc:	00f42a23          	sw	a5,20(s0)
200041d0:	eb5ff06f          	j	20004084 <f_read+0x98>
200041d4:	01c42603          	lw	a2,28(s0)
200041d8:	05360463          	beq	a2,s3,20004220 <f_read+0x234>
200041dc:	01040783          	lb	a5,16(s0)
200041e0:	00194503          	lbu	a0,1(s2)
200041e4:	02c40593          	addi	a1,s0,44
200041e8:	0207d263          	bgez	a5,2000420c <f_read+0x220>
200041ec:	00100693          	li	a3,1
200041f0:	00b12623          	sw	a1,12(sp)
200041f4:	5f1000ef          	jal	ra,20004fe4 <disk_write>
200041f8:	f2051ae3          	bnez	a0,2000412c <f_read+0x140>
200041fc:	01044783          	lbu	a5,16(s0)
20004200:	00c12583          	lw	a1,12(sp)
20004204:	07f7f793          	andi	a5,a5,127
20004208:	00f40823          	sb	a5,16(s0)
2000420c:	00194503          	lbu	a0,1(s2)
20004210:	00100693          	li	a3,1
20004214:	00098613          	mv	a2,s3
20004218:	58d000ef          	jal	ra,20004fa4 <disk_read>
2000421c:	f00518e3          	bnez	a0,2000412c <f_read+0x140>
20004220:	01342e23          	sw	s3,28(s0)
20004224:	01442583          	lw	a1,20(s0)
20004228:	20000793          	li	a5,512
2000422c:	1ff5f593          	andi	a1,a1,511
20004230:	40b78933          	sub	s2,a5,a1
20004234:	0124f463          	bgeu	s1,s2,2000423c <f_read+0x250>
20004238:	00048913          	mv	s2,s1
2000423c:	00090613          	mv	a2,s2
20004240:	00bc05b3          	add	a1,s8,a1
20004244:	000a8513          	mv	a0,s5
20004248:	718010ef          	jal	ra,20005960 <memcpy>
2000424c:	f65ff06f          	j	200041b0 <f_read+0x1c4>

20004250 <f_sync>:
20004250:	fd010113          	addi	sp,sp,-48
20004254:	00c10593          	addi	a1,sp,12
20004258:	02912223          	sw	s1,36(sp)
2000425c:	02112623          	sw	ra,44(sp)
20004260:	02812423          	sw	s0,40(sp)
20004264:	03212023          	sw	s2,32(sp)
20004268:	01312e23          	sw	s3,28(sp)
2000426c:	00050493          	mv	s1,a0
20004270:	f2dfd0ef          	jal	ra,2000219c <_ZL8validateP7FFOBJIDPP5FATFS>
20004274:	1c051e63          	bnez	a0,20004450 <f_sync+0x200>
20004278:	0104c783          	lbu	a5,16(s1)
2000427c:	0407f713          	andi	a4,a5,64
20004280:	1c070863          	beqz	a4,20004450 <f_sync+0x200>
20004284:	01879793          	slli	a5,a5,0x18
20004288:	4187d793          	srai	a5,a5,0x18
2000428c:	00c12403          	lw	s0,12(sp)
20004290:	0207d863          	bgez	a5,200042c0 <f_sync+0x70>
20004294:	01c4a603          	lw	a2,28(s1)
20004298:	00144503          	lbu	a0,1(s0)
2000429c:	00100693          	li	a3,1
200042a0:	02c48593          	addi	a1,s1,44
200042a4:	541000ef          	jal	ra,20004fe4 <disk_write>
200042a8:	00050793          	mv	a5,a0
200042ac:	00100513          	li	a0,1
200042b0:	1a079063          	bnez	a5,20004450 <f_sync+0x200>
200042b4:	0104c783          	lbu	a5,16(s1)
200042b8:	07f7f793          	andi	a5,a5,127
200042bc:	00f48823          	sb	a5,16(s1)
200042c0:	0204a583          	lw	a1,32(s1)
200042c4:	00040513          	mv	a0,s0
200042c8:	fd9fd0ef          	jal	ra,200022a0 <_ZL11move_windowP5FATFSm>
200042cc:	18051263          	bnez	a0,20004450 <f_sync+0x200>
200042d0:	0244a783          	lw	a5,36(s1)
200042d4:	00b7c703          	lbu	a4,11(a5)
200042d8:	02076713          	ori	a4,a4,32
200042dc:	00e785a3          	sb	a4,11(a5)
200042e0:	0084a703          	lw	a4,8(s1)
200042e4:	0004a603          	lw	a2,0(s1)
200042e8:	01071693          	slli	a3,a4,0x10
200042ec:	0106d693          	srli	a3,a3,0x10
200042f0:	0086d693          	srli	a3,a3,0x8
200042f4:	00d78da3          	sb	a3,27(a5)
200042f8:	00e78d23          	sb	a4,26(a5)
200042fc:	00064603          	lbu	a2,0(a2)
20004300:	00300693          	li	a3,3
20004304:	00d61a63          	bne	a2,a3,20004318 <f_sync+0xc8>
20004308:	01075713          	srli	a4,a4,0x10
2000430c:	00e78a23          	sb	a4,20(a5)
20004310:	00875713          	srli	a4,a4,0x8
20004314:	00e78aa3          	sb	a4,21(a5)
20004318:	00c4a703          	lw	a4,12(s1)
2000431c:	05200993          	li	s3,82
20004320:	00078b23          	sb	zero,22(a5)
20004324:	00875693          	srli	a3,a4,0x8
20004328:	00e78e23          	sb	a4,28(a5)
2000432c:	00d78ea3          	sb	a3,29(a5)
20004330:	01075693          	srli	a3,a4,0x10
20004334:	01875713          	srli	a4,a4,0x18
20004338:	00e78fa3          	sb	a4,31(a5)
2000433c:	02100713          	li	a4,33
20004340:	00d78f23          	sb	a3,30(a5)
20004344:	00078ba3          	sb	zero,23(a5)
20004348:	00e78c23          	sb	a4,24(a5)
2000434c:	01378ca3          	sb	s3,25(a5)
20004350:	00078923          	sb	zero,18(a5)
20004354:	000789a3          	sb	zero,19(a5)
20004358:	00100913          	li	s2,1
2000435c:	012401a3          	sb	s2,3(s0)
20004360:	00040513          	mv	a0,s0
20004364:	ea9fd0ef          	jal	ra,2000220c <_ZL11sync_windowP5FATFS>
20004368:	0c051e63          	bnez	a0,20004444 <f_sync+0x1f4>
2000436c:	00044703          	lbu	a4,0(s0)
20004370:	00300793          	li	a5,3
20004374:	0af71e63          	bne	a4,a5,20004430 <f_sync+0x1e0>
20004378:	00444783          	lbu	a5,4(s0)
2000437c:	0b279a63          	bne	a5,s2,20004430 <f_sync+0x1e0>
20004380:	03840913          	addi	s2,s0,56
20004384:	20000613          	li	a2,512
20004388:	00000593          	li	a1,0
2000438c:	00090513          	mv	a0,s2
20004390:	d01fb0ef          	jal	ra,20000090 <memset>
20004394:	05500793          	li	a5,85
20004398:	22f40b23          	sb	a5,566(s0)
2000439c:	faa00793          	li	a5,-86
200043a0:	22f40ba3          	sb	a5,567(s0)
200043a4:	06100793          	li	a5,97
200043a8:	02f40d23          	sb	a5,58(s0)
200043ac:	20f40fa3          	sb	a5,543(s0)
200043b0:	01442783          	lw	a5,20(s0)
200043b4:	04100713          	li	a4,65
200043b8:	02e40da3          	sb	a4,59(s0)
200043bc:	20e40f23          	sb	a4,542(s0)
200043c0:	0087d713          	srli	a4,a5,0x8
200043c4:	22f40023          	sb	a5,544(s0)
200043c8:	22e400a3          	sb	a4,545(s0)
200043cc:	0107d713          	srli	a4,a5,0x10
200043d0:	0187d793          	srli	a5,a5,0x18
200043d4:	22f401a3          	sb	a5,547(s0)
200043d8:	01042783          	lw	a5,16(s0)
200043dc:	02442603          	lw	a2,36(s0)
200043e0:	22e40123          	sb	a4,546(s0)
200043e4:	00144503          	lbu	a0,1(s0)
200043e8:	0087d713          	srli	a4,a5,0x8
200043ec:	07200693          	li	a3,114
200043f0:	22f40223          	sb	a5,548(s0)
200043f4:	22e402a3          	sb	a4,549(s0)
200043f8:	00160613          	addi	a2,a2,1
200043fc:	0107d713          	srli	a4,a5,0x10
20004400:	0187d793          	srli	a5,a5,0x18
20004404:	20d40e23          	sb	a3,540(s0)
20004408:	20d40ea3          	sb	a3,541(s0)
2000440c:	03340c23          	sb	s3,56(s0)
20004410:	03340ca3          	sb	s3,57(s0)
20004414:	22e40323          	sb	a4,550(s0)
20004418:	22f403a3          	sb	a5,551(s0)
2000441c:	02c42a23          	sw	a2,52(s0)
20004420:	00100693          	li	a3,1
20004424:	00090593          	mv	a1,s2
20004428:	3bd000ef          	jal	ra,20004fe4 <disk_write>
2000442c:	00040223          	sb	zero,4(s0)
20004430:	00144503          	lbu	a0,1(s0)
20004434:	00000613          	li	a2,0
20004438:	00000593          	li	a1,0
2000443c:	3e9000ef          	jal	ra,20005024 <disk_ioctl>
20004440:	00a03533          	snez	a0,a0
20004444:	0104c783          	lbu	a5,16(s1)
20004448:	fbf7f793          	andi	a5,a5,-65
2000444c:	00f48823          	sb	a5,16(s1)
20004450:	02c12083          	lw	ra,44(sp)
20004454:	02812403          	lw	s0,40(sp)
20004458:	02412483          	lw	s1,36(sp)
2000445c:	02012903          	lw	s2,32(sp)
20004460:	01c12983          	lw	s3,28(sp)
20004464:	03010113          	addi	sp,sp,48
20004468:	00008067          	ret

2000446c <f_close>:
2000446c:	fe010113          	addi	sp,sp,-32
20004470:	00812c23          	sw	s0,24(sp)
20004474:	00112e23          	sw	ra,28(sp)
20004478:	00050413          	mv	s0,a0
2000447c:	dd5ff0ef          	jal	ra,20004250 <f_sync>
20004480:	00051c63          	bnez	a0,20004498 <f_close+0x2c>
20004484:	00c10593          	addi	a1,sp,12
20004488:	00040513          	mv	a0,s0
2000448c:	d11fd0ef          	jal	ra,2000219c <_ZL8validateP7FFOBJIDPP5FATFS>
20004490:	00051463          	bnez	a0,20004498 <f_close+0x2c>
20004494:	00042023          	sw	zero,0(s0)
20004498:	01c12083          	lw	ra,28(sp)
2000449c:	01812403          	lw	s0,24(sp)
200044a0:	02010113          	addi	sp,sp,32
200044a4:	00008067          	ret

200044a8 <f_lseek>:
200044a8:	fb010113          	addi	sp,sp,-80
200044ac:	04912223          	sw	s1,68(sp)
200044b0:	00058493          	mv	s1,a1
200044b4:	01c10593          	addi	a1,sp,28
200044b8:	04812423          	sw	s0,72(sp)
200044bc:	05212023          	sw	s2,64(sp)
200044c0:	04112623          	sw	ra,76(sp)
200044c4:	03312e23          	sw	s3,60(sp)
200044c8:	03412c23          	sw	s4,56(sp)
200044cc:	03512a23          	sw	s5,52(sp)
200044d0:	03612823          	sw	s6,48(sp)
200044d4:	03712623          	sw	s7,44(sp)
200044d8:	03812423          	sw	s8,40(sp)
200044dc:	03912223          	sw	s9,36(sp)
200044e0:	00050413          	mv	s0,a0
200044e4:	cb9fd0ef          	jal	ra,2000219c <_ZL8validateP7FFOBJIDPP5FATFS>
200044e8:	00050913          	mv	s2,a0
200044ec:	06051263          	bnez	a0,20004550 <f_lseek+0xa8>
200044f0:	01144903          	lbu	s2,17(s0)
200044f4:	04091e63          	bnez	s2,20004550 <f_lseek+0xa8>
200044f8:	02842783          	lw	a5,40(s0)
200044fc:	18078863          	beqz	a5,2000468c <f_lseek+0x1e4>
20004500:	fff00713          	li	a4,-1
20004504:	0ce49e63          	bne	s1,a4,200045e0 <f_lseek+0x138>
20004508:	00842a03          	lw	s4,8(s0)
2000450c:	0007ab83          	lw	s7,0(a5)
20004510:	00478993          	addi	s3,a5,4
20004514:	00200493          	li	s1,2
20004518:	0a0a0a63          	beqz	s4,200045cc <f_lseek+0x124>
2000451c:	00100c13          	li	s8,1
20004520:	fff00c93          	li	s9,-1
20004524:	00000b13          	li	s6,0
20004528:	000a0513          	mv	a0,s4
2000452c:	00050a93          	mv	s5,a0
20004530:	00050593          	mv	a1,a0
20004534:	00042503          	lw	a0,0(s0)
20004538:	001b0b13          	addi	s6,s6,1
2000453c:	d5cfe0ef          	jal	ra,20002a98 <_ZL7get_fatP7FFOBJIDm.isra.0>
20004540:	04ac6863          	bltu	s8,a0,20004590 <f_lseek+0xe8>
20004544:	00200793          	li	a5,2
20004548:	00f408a3          	sb	a5,17(s0)
2000454c:	00200913          	li	s2,2
20004550:	04c12083          	lw	ra,76(sp)
20004554:	04812403          	lw	s0,72(sp)
20004558:	04412483          	lw	s1,68(sp)
2000455c:	03c12983          	lw	s3,60(sp)
20004560:	03812a03          	lw	s4,56(sp)
20004564:	03412a83          	lw	s5,52(sp)
20004568:	03012b03          	lw	s6,48(sp)
2000456c:	02c12b83          	lw	s7,44(sp)
20004570:	02812c03          	lw	s8,40(sp)
20004574:	02412c83          	lw	s9,36(sp)
20004578:	00090513          	mv	a0,s2
2000457c:	04012903          	lw	s2,64(sp)
20004580:	05010113          	addi	sp,sp,80
20004584:	00008067          	ret
20004588:	00050a13          	mv	s4,a0
2000458c:	f99ff06f          	j	20004524 <f_lseek+0x7c>
20004590:	01951a63          	bne	a0,s9,200045a4 <f_lseek+0xfc>
20004594:	00100793          	li	a5,1
20004598:	00f408a3          	sb	a5,17(s0)
2000459c:	00100913          	li	s2,1
200045a0:	fb1ff06f          	j	20004550 <f_lseek+0xa8>
200045a4:	001a8a93          	addi	s5,s5,1
200045a8:	f8aa82e3          	beq	s5,a0,2000452c <f_lseek+0x84>
200045ac:	00248493          	addi	s1,s1,2
200045b0:	009be863          	bltu	s7,s1,200045c0 <f_lseek+0x118>
200045b4:	0169a023          	sw	s6,0(s3)
200045b8:	0149a223          	sw	s4,4(s3)
200045bc:	00898993          	addi	s3,s3,8
200045c0:	01c12783          	lw	a5,28(sp)
200045c4:	01c7a783          	lw	a5,28(a5)
200045c8:	fcf560e3          	bltu	a0,a5,20004588 <f_lseek+0xe0>
200045cc:	02842783          	lw	a5,40(s0)
200045d0:	0097a023          	sw	s1,0(a5)
200045d4:	269be263          	bltu	s7,s1,20004838 <f_lseek+0x390>
200045d8:	0009a023          	sw	zero,0(s3)
200045dc:	f75ff06f          	j	20004550 <f_lseek+0xa8>
200045e0:	00c42983          	lw	s3,12(s0)
200045e4:	0134f463          	bgeu	s1,s3,200045ec <f_lseek+0x144>
200045e8:	00048993          	mv	s3,s1
200045ec:	01342a23          	sw	s3,20(s0)
200045f0:	f60980e3          	beqz	s3,20004550 <f_lseek+0xa8>
200045f4:	fff98493          	addi	s1,s3,-1
200045f8:	00048593          	mv	a1,s1
200045fc:	00040513          	mv	a0,s0
20004600:	a51fd0ef          	jal	ra,20002050 <_ZL10clmt_clustP3FILm>
20004604:	01c12a03          	lw	s4,28(sp)
20004608:	00050593          	mv	a1,a0
2000460c:	00a42c23          	sw	a0,24(s0)
20004610:	000a0513          	mv	a0,s4
20004614:	a11fd0ef          	jal	ra,20002024 <_ZL9clst2sectP5FATFSm>
20004618:	f20506e3          	beqz	a0,20004544 <f_lseek+0x9c>
2000461c:	1ff9f993          	andi	s3,s3,511
20004620:	00aa5783          	lhu	a5,10(s4)
20004624:	f20986e3          	beqz	s3,20004550 <f_lseek+0xa8>
20004628:	0094d493          	srli	s1,s1,0x9
2000462c:	fff78793          	addi	a5,a5,-1
20004630:	01c42603          	lw	a2,28(s0)
20004634:	00f4f4b3          	and	s1,s1,a5
20004638:	00a484b3          	add	s1,s1,a0
2000463c:	f0960ae3          	beq	a2,s1,20004550 <f_lseek+0xa8>
20004640:	01040783          	lb	a5,16(s0)
20004644:	001a4503          	lbu	a0,1(s4)
20004648:	02c40593          	addi	a1,s0,44
2000464c:	0207d263          	bgez	a5,20004670 <f_lseek+0x1c8>
20004650:	00100693          	li	a3,1
20004654:	00b12623          	sw	a1,12(sp)
20004658:	18d000ef          	jal	ra,20004fe4 <disk_write>
2000465c:	f2051ce3          	bnez	a0,20004594 <f_lseek+0xec>
20004660:	01044783          	lbu	a5,16(s0)
20004664:	00c12583          	lw	a1,12(sp)
20004668:	07f7f793          	andi	a5,a5,127
2000466c:	00f40823          	sb	a5,16(s0)
20004670:	001a4503          	lbu	a0,1(s4)
20004674:	00100693          	li	a3,1
20004678:	00048613          	mv	a2,s1
2000467c:	129000ef          	jal	ra,20004fa4 <disk_read>
20004680:	f0051ae3          	bnez	a0,20004594 <f_lseek+0xec>
20004684:	00942e23          	sw	s1,28(s0)
20004688:	ec9ff06f          	j	20004550 <f_lseek+0xa8>
2000468c:	00c42683          	lw	a3,12(s0)
20004690:	01442783          	lw	a5,20(s0)
20004694:	0496fc63          	bgeu	a3,s1,200046ec <f_lseek+0x244>
20004698:	01044703          	lbu	a4,16(s0)
2000469c:	00277713          	andi	a4,a4,2
200046a0:	04070463          	beqz	a4,200046e8 <f_lseek+0x240>
200046a4:	00042a23          	sw	zero,20(s0)
200046a8:	01c12a03          	lw	s4,28(sp)
200046ac:	00aa5983          	lhu	s3,10(s4)
200046b0:	00999993          	slli	s3,s3,0x9
200046b4:	0a078a63          	beqz	a5,20004768 <f_lseek+0x2c0>
200046b8:	fff78793          	addi	a5,a5,-1
200046bc:	fff48713          	addi	a4,s1,-1
200046c0:	03375733          	divu	a4,a4,s3
200046c4:	0337d6b3          	divu	a3,a5,s3
200046c8:	0ad76063          	bltu	a4,a3,20004768 <f_lseek+0x2c0>
200046cc:	41300733          	neg	a4,s3
200046d0:	01842583          	lw	a1,24(s0)
200046d4:	00f777b3          	and	a5,a4,a5
200046d8:	00f42a23          	sw	a5,20(s0)
200046dc:	40f484b3          	sub	s1,s1,a5
200046e0:	00058a63          	beqz	a1,200046f4 <f_lseek+0x24c>
200046e4:	0900006f          	j	20004774 <f_lseek+0x2cc>
200046e8:	00068493          	mv	s1,a3
200046ec:	00042a23          	sw	zero,20(s0)
200046f0:	fa049ce3          	bnez	s1,200046a8 <f_lseek+0x200>
200046f4:	00000493          	li	s1,0
200046f8:	01442783          	lw	a5,20(s0)
200046fc:	00c42703          	lw	a4,12(s0)
20004700:	00f77a63          	bgeu	a4,a5,20004714 <f_lseek+0x26c>
20004704:	01044703          	lbu	a4,16(s0)
20004708:	00f42623          	sw	a5,12(s0)
2000470c:	04076713          	ori	a4,a4,64
20004710:	00e40823          	sb	a4,16(s0)
20004714:	1ff7f793          	andi	a5,a5,511
20004718:	e2078ce3          	beqz	a5,20004550 <f_lseek+0xa8>
2000471c:	01c42603          	lw	a2,28(s0)
20004720:	e29608e3          	beq	a2,s1,20004550 <f_lseek+0xa8>
20004724:	01c12983          	lw	s3,28(sp)
20004728:	01040783          	lb	a5,16(s0)
2000472c:	02c40593          	addi	a1,s0,44
20004730:	0019c503          	lbu	a0,1(s3)
20004734:	0207d263          	bgez	a5,20004758 <f_lseek+0x2b0>
20004738:	00100693          	li	a3,1
2000473c:	00b12623          	sw	a1,12(sp)
20004740:	0a5000ef          	jal	ra,20004fe4 <disk_write>
20004744:	e40518e3          	bnez	a0,20004594 <f_lseek+0xec>
20004748:	01044783          	lbu	a5,16(s0)
2000474c:	00c12583          	lw	a1,12(sp)
20004750:	07f7f793          	andi	a5,a5,127
20004754:	00f40823          	sb	a5,16(s0)
20004758:	0019c503          	lbu	a0,1(s3)
2000475c:	00100693          	li	a3,1
20004760:	00048613          	mv	a2,s1
20004764:	f19ff06f          	j	2000467c <f_lseek+0x1d4>
20004768:	00842583          	lw	a1,8(s0)
2000476c:	04058263          	beqz	a1,200047b0 <f_lseek+0x308>
20004770:	00b42c23          	sw	a1,24(s0)
20004774:	fff00a93          	li	s5,-1
20004778:	00100b13          	li	s6,1
2000477c:	01442783          	lw	a5,20(s0)
20004780:	0499ee63          	bltu	s3,s1,200047dc <f_lseek+0x334>
20004784:	01442783          	lw	a5,20(s0)
20004788:	009787b3          	add	a5,a5,s1
2000478c:	00f42a23          	sw	a5,20(s0)
20004790:	1ff4f793          	andi	a5,s1,511
20004794:	f60780e3          	beqz	a5,200046f4 <f_lseek+0x24c>
20004798:	000a0513          	mv	a0,s4
2000479c:	889fd0ef          	jal	ra,20002024 <_ZL9clst2sectP5FATFSm>
200047a0:	da0502e3          	beqz	a0,20004544 <f_lseek+0x9c>
200047a4:	0094d493          	srli	s1,s1,0x9
200047a8:	00a484b3          	add	s1,s1,a0
200047ac:	f4dff06f          	j	200046f8 <f_lseek+0x250>
200047b0:	00000593          	li	a1,0
200047b4:	00040513          	mv	a0,s0
200047b8:	c30fe0ef          	jal	ra,20002be8 <_ZL12create_chainP7FFOBJIDm>
200047bc:	00100793          	li	a5,1
200047c0:	00050593          	mv	a1,a0
200047c4:	d8f500e3          	beq	a0,a5,20004544 <f_lseek+0x9c>
200047c8:	fff00793          	li	a5,-1
200047cc:	dcf504e3          	beq	a0,a5,20004594 <f_lseek+0xec>
200047d0:	00a42423          	sw	a0,8(s0)
200047d4:	00a42c23          	sw	a0,24(s0)
200047d8:	f09ff06f          	j	200046e0 <f_lseek+0x238>
200047dc:	00f987b3          	add	a5,s3,a5
200047e0:	00f42a23          	sw	a5,20(s0)
200047e4:	01044783          	lbu	a5,16(s0)
200047e8:	41348bb3          	sub	s7,s1,s3
200047ec:	0027f793          	andi	a5,a5,2
200047f0:	00078e63          	beqz	a5,2000480c <f_lseek+0x364>
200047f4:	00040513          	mv	a0,s0
200047f8:	bf0fe0ef          	jal	ra,20002be8 <_ZL12create_chainP7FFOBJIDm>
200047fc:	00050493          	mv	s1,a0
20004800:	00051c63          	bnez	a0,20004818 <f_lseek+0x370>
20004804:	00000593          	li	a1,0
20004808:	f7dff06f          	j	20004784 <f_lseek+0x2dc>
2000480c:	00042503          	lw	a0,0(s0)
20004810:	a88fe0ef          	jal	ra,20002a98 <_ZL7get_fatP7FFOBJIDm.isra.0>
20004814:	00050493          	mv	s1,a0
20004818:	d7548ee3          	beq	s1,s5,20004594 <f_lseek+0xec>
2000481c:	d29b74e3          	bgeu	s6,s1,20004544 <f_lseek+0x9c>
20004820:	01ca2783          	lw	a5,28(s4)
20004824:	d2f4f0e3          	bgeu	s1,a5,20004544 <f_lseek+0x9c>
20004828:	00942c23          	sw	s1,24(s0)
2000482c:	00048593          	mv	a1,s1
20004830:	000b8493          	mv	s1,s7
20004834:	f49ff06f          	j	2000477c <f_lseek+0x2d4>
20004838:	01100913          	li	s2,17
2000483c:	d15ff06f          	j	20004550 <f_lseek+0xa8>

20004840 <f_opendir>:
20004840:	fd010113          	addi	sp,sp,-48
20004844:	02112623          	sw	ra,44(sp)
20004848:	02812423          	sw	s0,40(sp)
2000484c:	02912223          	sw	s1,36(sp)
20004850:	00b12623          	sw	a1,12(sp)
20004854:	0a050063          	beqz	a0,200048f4 <f_opendir+0xb4>
20004858:	00050413          	mv	s0,a0
2000485c:	00000613          	li	a2,0
20004860:	01c10593          	addi	a1,sp,28
20004864:	00c10513          	addi	a0,sp,12
20004868:	e1dfd0ef          	jal	ra,20002684 <_ZL12mount_volumePPKcPP5FATFSh>
2000486c:	02051463          	bnez	a0,20004894 <f_opendir+0x54>
20004870:	01c12483          	lw	s1,28(sp)
20004874:	00c12583          	lw	a1,12(sp)
20004878:	00040513          	mv	a0,s0
2000487c:	00942023          	sw	s1,0(s0)
20004880:	a5dfe0ef          	jal	ra,200032dc <_ZL11follow_pathP3DIRPKc>
20004884:	00050c63          	beqz	a0,2000489c <f_opendir+0x5c>
20004888:	00400793          	li	a5,4
2000488c:	00f51463          	bne	a0,a5,20004894 <f_opendir+0x54>
20004890:	00500513          	li	a0,5
20004894:	00042023          	sw	zero,0(s0)
20004898:	0480006f          	j	200048e0 <f_opendir+0xa0>
2000489c:	02b40783          	lb	a5,43(s0)
200048a0:	0207c063          	bltz	a5,200048c0 <f_opendir+0x80>
200048a4:	00644783          	lbu	a5,6(s0)
200048a8:	0107f793          	andi	a5,a5,16
200048ac:	fe0782e3          	beqz	a5,20004890 <f_opendir+0x50>
200048b0:	0004c503          	lbu	a0,0(s1)
200048b4:	01c42583          	lw	a1,28(s0)
200048b8:	9a8fe0ef          	jal	ra,20002a60 <_ZL8ld_clustP5FATFSPKh.isra.0>
200048bc:	00a42423          	sw	a0,8(s0)
200048c0:	0064d783          	lhu	a5,6(s1)
200048c4:	00000593          	li	a1,0
200048c8:	00040513          	mv	a0,s0
200048cc:	00f41223          	sh	a5,4(s0)
200048d0:	e70fe0ef          	jal	ra,20002f40 <_ZL7dir_sdiP3DIRm>
200048d4:	00400793          	li	a5,4
200048d8:	faf50ce3          	beq	a0,a5,20004890 <f_opendir+0x50>
200048dc:	fa051ce3          	bnez	a0,20004894 <f_opendir+0x54>
200048e0:	02c12083          	lw	ra,44(sp)
200048e4:	02812403          	lw	s0,40(sp)
200048e8:	02412483          	lw	s1,36(sp)
200048ec:	03010113          	addi	sp,sp,48
200048f0:	00008067          	ret
200048f4:	00900513          	li	a0,9
200048f8:	fe9ff06f          	j	200048e0 <f_opendir+0xa0>

200048fc <f_closedir>:
200048fc:	fe010113          	addi	sp,sp,-32
20004900:	00c10593          	addi	a1,sp,12
20004904:	00812c23          	sw	s0,24(sp)
20004908:	00112e23          	sw	ra,28(sp)
2000490c:	00050413          	mv	s0,a0
20004910:	88dfd0ef          	jal	ra,2000219c <_ZL8validateP7FFOBJIDPP5FATFS>
20004914:	00051463          	bnez	a0,2000491c <f_closedir+0x20>
20004918:	00042023          	sw	zero,0(s0)
2000491c:	01c12083          	lw	ra,28(sp)
20004920:	01812403          	lw	s0,24(sp)
20004924:	02010113          	addi	sp,sp,32
20004928:	00008067          	ret

2000492c <f_readdir>:
2000492c:	fb010113          	addi	sp,sp,-80
20004930:	04912223          	sw	s1,68(sp)
20004934:	00058493          	mv	s1,a1
20004938:	00c10593          	addi	a1,sp,12
2000493c:	04812423          	sw	s0,72(sp)
20004940:	05212023          	sw	s2,64(sp)
20004944:	04112623          	sw	ra,76(sp)
20004948:	03312e23          	sw	s3,60(sp)
2000494c:	03412c23          	sw	s4,56(sp)
20004950:	03512a23          	sw	s5,52(sp)
20004954:	03612823          	sw	s6,48(sp)
20004958:	03712623          	sw	s7,44(sp)
2000495c:	03812423          	sw	s8,40(sp)
20004960:	03912223          	sw	s9,36(sp)
20004964:	03a12023          	sw	s10,32(sp)
20004968:	01b12e23          	sw	s11,28(sp)
2000496c:	00050413          	mv	s0,a0
20004970:	82dfd0ef          	jal	ra,2000219c <_ZL8validateP7FFOBJIDPP5FATFS>
20004974:	00050913          	mv	s2,a0
20004978:	3c051e63          	bnez	a0,20004d54 <f_readdir+0x428>
2000497c:	04049463          	bnez	s1,200049c4 <f_readdir+0x98>
20004980:	00040513          	mv	a0,s0
20004984:	04812403          	lw	s0,72(sp)
20004988:	04c12083          	lw	ra,76(sp)
2000498c:	04412483          	lw	s1,68(sp)
20004990:	04012903          	lw	s2,64(sp)
20004994:	03c12983          	lw	s3,60(sp)
20004998:	03812a03          	lw	s4,56(sp)
2000499c:	03412a83          	lw	s5,52(sp)
200049a0:	03012b03          	lw	s6,48(sp)
200049a4:	02c12b83          	lw	s7,44(sp)
200049a8:	02812c03          	lw	s8,40(sp)
200049ac:	02412c83          	lw	s9,36(sp)
200049b0:	02012d03          	lw	s10,32(sp)
200049b4:	01c12d83          	lw	s11,28(sp)
200049b8:	00000593          	li	a1,0
200049bc:	05010113          	addi	sp,sp,80
200049c0:	d80fe06f          	j	20002f40 <_ZL7dir_sdiP3DIRm>
200049c4:	00042a03          	lw	s4,0(s0)
200049c8:	0ff00993          	li	s3,255
200049cc:	0ff00c93          	li	s9,255
200049d0:	0e500a93          	li	s5,229
200049d4:	02e00b13          	li	s6,46
200049d8:	00800b93          	li	s7,8
200049dc:	00f00c13          	li	s8,15
200049e0:	01842583          	lw	a1,24(s0)
200049e4:	16058263          	beqz	a1,20004b48 <f_readdir+0x21c>
200049e8:	000a0513          	mv	a0,s4
200049ec:	8b5fd0ef          	jal	ra,200022a0 <_ZL11move_windowP5FATFSm>
200049f0:	00050793          	mv	a5,a0
200049f4:	10051c63          	bnez	a0,20004b0c <f_readdir+0x1e0>
200049f8:	01c42503          	lw	a0,28(s0)
200049fc:	00054703          	lbu	a4,0(a0)
20004a00:	3c070a63          	beqz	a4,20004dd4 <f_readdir+0x4a8>
20004a04:	00b54683          	lbu	a3,11(a0)
20004a08:	03f6f693          	andi	a3,a3,63
20004a0c:	00d40323          	sb	a3,6(s0)
20004a10:	11570a63          	beq	a4,s5,20004b24 <f_readdir+0x1f8>
20004a14:	11670863          	beq	a4,s6,20004b24 <f_readdir+0x1f8>
20004a18:	fdf6f613          	andi	a2,a3,-33
20004a1c:	11760463          	beq	a2,s7,20004b24 <f_readdir+0x1f8>
20004a20:	11869a63          	bne	a3,s8,20004b34 <f_readdir+0x208>
20004a24:	04077693          	andi	a3,a4,64
20004a28:	0e068c63          	beqz	a3,20004b20 <f_readdir+0x1f4>
20004a2c:	0bf77c93          	andi	s9,a4,191
20004a30:	01042703          	lw	a4,16(s0)
20004a34:	00d54983          	lbu	s3,13(a0)
20004a38:	02e42623          	sw	a4,44(s0)
20004a3c:	00d54703          	lbu	a4,13(a0)
20004a40:	0f371263          	bne	a4,s3,20004b24 <f_readdir+0x1f8>
20004a44:	01b54703          	lbu	a4,27(a0)
20004a48:	01a54683          	lbu	a3,26(a0)
20004a4c:	00871713          	slli	a4,a4,0x8
20004a50:	00d76733          	or	a4,a4,a3
20004a54:	0c071863          	bnez	a4,20004b24 <f_readdir+0x1f8>
20004a58:	00054703          	lbu	a4,0(a0)
20004a5c:	00d00693          	li	a3,13
20004a60:	00ca2603          	lw	a2,12(s4)
20004a64:	fbf77713          	andi	a4,a4,-65
20004a68:	fff70713          	addi	a4,a4,-1
20004a6c:	02d70733          	mul	a4,a4,a3
20004a70:	00010837          	lui	a6,0x10
20004a74:	00100593          	li	a1,1
20004a78:	00003317          	auipc	t1,0x3
20004a7c:	e0030313          	addi	t1,t1,-512 # 20007878 <_ZL6LfnOfs>
20004a80:	fff80813          	addi	a6,a6,-1 # ffff <_start-0x1fff0001>
20004a84:	0ff00e13          	li	t3,255
20004a88:	00d00893          	li	a7,13
20004a8c:	006786b3          	add	a3,a5,t1
20004a90:	0006c683          	lbu	a3,0(a3)
20004a94:	00d506b3          	add	a3,a0,a3
20004a98:	0006ce83          	lbu	t4,0(a3)
20004a9c:	0016c683          	lbu	a3,1(a3)
20004aa0:	00869693          	slli	a3,a3,0x8
20004aa4:	01d6e6b3          	or	a3,a3,t4
20004aa8:	08058263          	beqz	a1,20004b2c <f_readdir+0x200>
20004aac:	06ee6c63          	bltu	t3,a4,20004b24 <f_readdir+0x1f8>
20004ab0:	00171593          	slli	a1,a4,0x1
20004ab4:	00b605b3          	add	a1,a2,a1
20004ab8:	00d59023          	sh	a3,0(a1)
20004abc:	00170713          	addi	a4,a4,1
20004ac0:	00068593          	mv	a1,a3
20004ac4:	00178793          	addi	a5,a5,1
20004ac8:	fd1792e3          	bne	a5,a7,20004a8c <f_readdir+0x160>
20004acc:	00054783          	lbu	a5,0(a0)
20004ad0:	0407f793          	andi	a5,a5,64
20004ad4:	00078e63          	beqz	a5,20004af0 <f_readdir+0x1c4>
20004ad8:	00058c63          	beqz	a1,20004af0 <f_readdir+0x1c4>
20004adc:	0ff00793          	li	a5,255
20004ae0:	04e7e263          	bltu	a5,a4,20004b24 <f_readdir+0x1f8>
20004ae4:	00171713          	slli	a4,a4,0x1
20004ae8:	00e60633          	add	a2,a2,a4
20004aec:	00061023          	sh	zero,0(a2)
20004af0:	fffc8c93          	addi	s9,s9,-1
20004af4:	0ffcfc93          	zext.b	s9,s9
20004af8:	00000593          	li	a1,0
20004afc:	00040513          	mv	a0,s0
20004b00:	a94fe0ef          	jal	ra,20002d94 <_ZL8dir_nextP3DIRi>
20004b04:	00050793          	mv	a5,a0
20004b08:	ec050ce3          	beqz	a0,200049e0 <f_readdir+0xb4>
20004b0c:	00042c23          	sw	zero,24(s0)
20004b10:	00400713          	li	a4,4
20004b14:	02e78a63          	beq	a5,a4,20004b48 <f_readdir+0x21c>
20004b18:	00078913          	mv	s2,a5
20004b1c:	2380006f          	j	20004d54 <f_readdir+0x428>
20004b20:	f1970ee3          	beq	a4,s9,20004a3c <f_readdir+0x110>
20004b24:	0ff00c93          	li	s9,255
20004b28:	fd1ff06f          	j	20004af8 <f_readdir+0x1cc>
20004b2c:	f9068ce3          	beq	a3,a6,20004ac4 <f_readdir+0x198>
20004b30:	ff5ff06f          	j	20004b24 <f_readdir+0x1f8>
20004b34:	000c9663          	bnez	s9,20004b40 <f_readdir+0x214>
20004b38:	d54fd0ef          	jal	ra,2000208c <_ZL7sum_sfnPKh>
20004b3c:	01350663          	beq	a0,s3,20004b48 <f_readdir+0x21c>
20004b40:	fff00793          	li	a5,-1
20004b44:	02f42623          	sw	a5,44(s0)
20004b48:	00042c83          	lw	s9,0(s0)
20004b4c:	00048b23          	sb	zero,22(s1)
20004b50:	01842783          	lw	a5,24(s0)
20004b54:	1e078463          	beqz	a5,20004d3c <f_readdir+0x410>
20004b58:	02c42703          	lw	a4,44(s0)
20004b5c:	fff00793          	li	a5,-1
20004b60:	0ef71a63          	bne	a4,a5,20004c54 <f_readdir+0x328>
20004b64:	00000793          	li	a5,0
20004b68:	00000713          	li	a4,0
20004b6c:	02000813          	li	a6,32
20004b70:	00b00513          	li	a0,11
20004b74:	00500893          	li	a7,5
20004b78:	00900313          	li	t1,9
20004b7c:	02e00e13          	li	t3,46
20004b80:	01c42683          	lw	a3,28(s0)
20004b84:	00170613          	addi	a2,a4,1
20004b88:	00e68733          	add	a4,a3,a4
20004b8c:	00074703          	lbu	a4,0(a4)
20004b90:	11070263          	beq	a4,a6,20004c94 <f_readdir+0x368>
20004b94:	01171463          	bne	a4,a7,20004b9c <f_readdir+0x270>
20004b98:	0e500713          	li	a4,229
20004b9c:	00178693          	addi	a3,a5,1
20004ba0:	00f485b3          	add	a1,s1,a5
20004ba4:	0e661463          	bne	a2,t1,20004c8c <f_readdir+0x360>
20004ba8:	0cf56c63          	bltu	a0,a5,20004c80 <f_readdir+0x354>
20004bac:	01c584a3          	sb	t3,9(a1)
20004bb0:	00d486b3          	add	a3,s1,a3
20004bb4:	00278793          	addi	a5,a5,2
20004bb8:	00e684a3          	sb	a4,9(a3)
20004bbc:	00060713          	mv	a4,a2
20004bc0:	fc1ff06f          	j	20004b80 <f_readdir+0x254>
20004bc4:	000a1a63          	bnez	s4,20004bd8 <f_readdir+0x2ac>
20004bc8:	016707b3          	add	a5,a4,s6
20004bcc:	01079793          	slli	a5,a5,0x10
20004bd0:	0107d793          	srli	a5,a5,0x10
20004bd4:	02fdfe63          	bgeu	s11,a5,20004c10 <f_readdir+0x2e4>
20004bd8:	010a1513          	slli	a0,s4,0x10
20004bdc:	1b500593          	li	a1,437
20004be0:	00e56533          	or	a0,a0,a4
20004be4:	413c0bb3          	sub	s7,s8,s3
20004be8:	1f4000ef          	jal	ra,20004ddc <ff_uni2oem>
20004bec:	04ac7863          	bgeu	s8,a0,20004c3c <f_readdir+0x310>
20004bf0:	097d7463          	bgeu	s10,s7,20004c78 <f_readdir+0x34c>
20004bf4:	013487b3          	add	a5,s1,s3
20004bf8:	00855713          	srli	a4,a0,0x8
20004bfc:	00e78b23          	sb	a4,22(a5)
20004c00:	00a78ba3          	sb	a0,23(a5)
20004c04:	00200793          	li	a5,2
20004c08:	00f989b3          	add	s3,s3,a5
20004c0c:	00000713          	li	a4,0
20004c10:	002a8a93          	addi	s5,s5,2
20004c14:	00070a13          	mv	s4,a4
20004c18:	00cca783          	lw	a5,12(s9)
20004c1c:	015787b3          	add	a5,a5,s5
20004c20:	0007d703          	lhu	a4,0(a5)
20004c24:	fa0710e3          	bnez	a4,20004bc4 <f_readdir+0x298>
20004c28:	000a0463          	beqz	s4,20004c30 <f_readdir+0x304>
20004c2c:	00000993          	li	s3,0
20004c30:	013487b3          	add	a5,s1,s3
20004c34:	00078b23          	sb	zero,22(a5)
20004c38:	f2dff06f          	j	20004b64 <f_readdir+0x238>
20004c3c:	02050e63          	beqz	a0,20004c78 <f_readdir+0x34c>
20004c40:	020b8c63          	beqz	s7,20004c78 <f_readdir+0x34c>
20004c44:	013487b3          	add	a5,s1,s3
20004c48:	00a78b23          	sb	a0,22(a5)
20004c4c:	00100793          	li	a5,1
20004c50:	fb9ff06f          	j	20004c08 <f_readdir+0x2dc>
20004c54:	00003b37          	lui	s6,0x3
20004c58:	00000a93          	li	s5,0
20004c5c:	00000993          	li	s3,0
20004c60:	00000a13          	li	s4,0
20004c64:	0ff00c13          	li	s8,255
20004c68:	00100d13          	li	s10,1
20004c6c:	800b0b13          	addi	s6,s6,-2048 # 2800 <_start-0x1fffd800>
20004c70:	7ff00d93          	li	s11,2047
20004c74:	fa5ff06f          	j	20004c18 <f_readdir+0x2ec>
20004c78:	00000993          	li	s3,0
20004c7c:	fadff06f          	j	20004c28 <f_readdir+0x2fc>
20004c80:	00e584a3          	sb	a4,9(a1)
20004c84:	00068793          	mv	a5,a3
20004c88:	f35ff06f          	j	20004bbc <f_readdir+0x290>
20004c8c:	00e584a3          	sb	a4,9(a1)
20004c90:	00068793          	mv	a5,a3
20004c94:	f2a614e3          	bne	a2,a0,20004bbc <f_readdir+0x290>
20004c98:	00f48733          	add	a4,s1,a5
20004c9c:	000704a3          	sb	zero,9(a4)
20004ca0:	0164c703          	lbu	a4,22(s1)
20004ca4:	04071863          	bnez	a4,20004cf4 <f_readdir+0x3c8>
20004ca8:	02078463          	beqz	a5,20004cd0 <f_readdir+0x3a4>
20004cac:	00948793          	addi	a5,s1,9
20004cb0:	00800613          	li	a2,8
20004cb4:	02e00593          	li	a1,46
20004cb8:	01900513          	li	a0,25
20004cbc:	0007c703          	lbu	a4,0(a5)
20004cc0:	0c071a63          	bnez	a4,20004d94 <f_readdir+0x468>
20004cc4:	409787b3          	sub	a5,a5,s1
20004cc8:	ff778793          	addi	a5,a5,-9
20004ccc:	0100006f          	j	20004cdc <f_readdir+0x3b0>
20004cd0:	03f00793          	li	a5,63
20004cd4:	00f48b23          	sb	a5,22(s1)
20004cd8:	00100793          	li	a5,1
20004cdc:	00f487b3          	add	a5,s1,a5
20004ce0:	00078b23          	sb	zero,22(a5)
20004ce4:	01c42783          	lw	a5,28(s0)
20004ce8:	00c7c783          	lbu	a5,12(a5)
20004cec:	00079463          	bnez	a5,20004cf4 <f_readdir+0x3c8>
20004cf0:	000484a3          	sb	zero,9(s1)
20004cf4:	01c42783          	lw	a5,28(s0)
20004cf8:	00b7c783          	lbu	a5,11(a5)
20004cfc:	03f7f793          	andi	a5,a5,63
20004d00:	00f48423          	sb	a5,8(s1)
20004d04:	01c42983          	lw	s3,28(s0)
20004d08:	01c98513          	addi	a0,s3,28
20004d0c:	aecfd0ef          	jal	ra,20001ff8 <_ZL8ld_dwordPKh>
20004d10:	00a4a023          	sw	a0,0(s1)
20004d14:	0179c783          	lbu	a5,23(s3)
20004d18:	0169c703          	lbu	a4,22(s3)
20004d1c:	00879793          	slli	a5,a5,0x8
20004d20:	00e7e7b3          	or	a5,a5,a4
20004d24:	00f49323          	sh	a5,6(s1)
20004d28:	0199c783          	lbu	a5,25(s3)
20004d2c:	0189c703          	lbu	a4,24(s3)
20004d30:	00879793          	slli	a5,a5,0x8
20004d34:	00e7e7b3          	or	a5,a5,a4
20004d38:	00f49223          	sh	a5,4(s1)
20004d3c:	00000593          	li	a1,0
20004d40:	00040513          	mv	a0,s0
20004d44:	850fe0ef          	jal	ra,20002d94 <_ZL8dir_nextP3DIRi>
20004d48:	00400793          	li	a5,4
20004d4c:	00f50463          	beq	a0,a5,20004d54 <f_readdir+0x428>
20004d50:	00050913          	mv	s2,a0
20004d54:	04c12083          	lw	ra,76(sp)
20004d58:	04812403          	lw	s0,72(sp)
20004d5c:	04412483          	lw	s1,68(sp)
20004d60:	03c12983          	lw	s3,60(sp)
20004d64:	03812a03          	lw	s4,56(sp)
20004d68:	03412a83          	lw	s5,52(sp)
20004d6c:	03012b03          	lw	s6,48(sp)
20004d70:	02c12b83          	lw	s7,44(sp)
20004d74:	02812c03          	lw	s8,40(sp)
20004d78:	02412c83          	lw	s9,36(sp)
20004d7c:	02012d03          	lw	s10,32(sp)
20004d80:	01c12d83          	lw	s11,28(sp)
20004d84:	00090513          	mv	a0,s2
20004d88:	04012903          	lw	s2,64(sp)
20004d8c:	05010113          	addi	sp,sp,80
20004d90:	00008067          	ret
20004d94:	02b70a63          	beq	a4,a1,20004dc8 <f_readdir+0x49c>
20004d98:	fbf70693          	addi	a3,a4,-65
20004d9c:	01069693          	slli	a3,a3,0x10
20004da0:	0106d693          	srli	a3,a3,0x10
20004da4:	00d56c63          	bltu	a0,a3,20004dbc <f_readdir+0x490>
20004da8:	01c42683          	lw	a3,28(s0)
20004dac:	00c6c683          	lbu	a3,12(a3)
20004db0:	00d676b3          	and	a3,a2,a3
20004db4:	00068463          	beqz	a3,20004dbc <f_readdir+0x490>
20004db8:	02070713          	addi	a4,a4,32
20004dbc:	00e786a3          	sb	a4,13(a5)
20004dc0:	00178793          	addi	a5,a5,1
20004dc4:	ef9ff06f          	j	20004cbc <f_readdir+0x390>
20004dc8:	01000613          	li	a2,16
20004dcc:	02e00713          	li	a4,46
20004dd0:	fedff06f          	j	20004dbc <f_readdir+0x490>
20004dd4:	00400793          	li	a5,4
20004dd8:	d35ff06f          	j	20004b0c <f_readdir+0x1e0>

20004ddc <ff_uni2oem>:
20004ddc:	07f00793          	li	a5,127
20004de0:	00050713          	mv	a4,a0
20004de4:	00a7e863          	bltu	a5,a0,20004df4 <ff_uni2oem+0x18>
20004de8:	01051513          	slli	a0,a0,0x10
20004dec:	01055513          	srli	a0,a0,0x10
20004df0:	00008067          	ret
20004df4:	000107b7          	lui	a5,0x10
20004df8:	00000513          	li	a0,0
20004dfc:	04f77063          	bgeu	a4,a5,20004e3c <ff_uni2oem+0x60>
20004e00:	1b500793          	li	a5,437
20004e04:	02f59c63          	bne	a1,a5,20004e3c <ff_uni2oem+0x60>
20004e08:	00003697          	auipc	a3,0x3
20004e0c:	d6068693          	addi	a3,a3,-672 # 20007b68 <_ZL5uc437>
20004e10:	00000793          	li	a5,0
20004e14:	08000593          	li	a1,128
20004e18:	0006d603          	lhu	a2,0(a3)
20004e1c:	00e60c63          	beq	a2,a4,20004e34 <ff_uni2oem+0x58>
20004e20:	00178793          	addi	a5,a5,1 # 10001 <_start-0x1ffeffff>
20004e24:	01079793          	slli	a5,a5,0x10
20004e28:	0107d793          	srli	a5,a5,0x10
20004e2c:	00268693          	addi	a3,a3,2
20004e30:	feb794e3          	bne	a5,a1,20004e18 <ff_uni2oem+0x3c>
20004e34:	08078513          	addi	a0,a5,128
20004e38:	0ff57513          	zext.b	a0,a0
20004e3c:	00008067          	ret

20004e40 <ff_oem2uni>:
20004e40:	07f00793          	li	a5,127
20004e44:	02a7f863          	bgeu	a5,a0,20004e74 <ff_oem2uni+0x34>
20004e48:	1b500793          	li	a5,437
20004e4c:	02f59263          	bne	a1,a5,20004e70 <ff_oem2uni+0x30>
20004e50:	0ff00793          	li	a5,255
20004e54:	00a7ee63          	bltu	a5,a0,20004e70 <ff_oem2uni+0x30>
20004e58:	00003797          	auipc	a5,0x3
20004e5c:	c1078793          	addi	a5,a5,-1008 # 20007a68 <_ZZ11ff_wtoupperE4cvt1+0xf4>
20004e60:	00151513          	slli	a0,a0,0x1
20004e64:	00f50533          	add	a0,a0,a5
20004e68:	00055503          	lhu	a0,0(a0)
20004e6c:	00008067          	ret
20004e70:	00000513          	li	a0,0
20004e74:	00008067          	ret

20004e78 <ff_wtoupper>:
20004e78:	000107b7          	lui	a5,0x10
20004e7c:	08f57063          	bgeu	a0,a5,20004efc <ff_wtoupper+0x84>
20004e80:	01051793          	slli	a5,a0,0x10
20004e84:	000016b7          	lui	a3,0x1
20004e88:	0107d793          	srli	a5,a5,0x10
20004e8c:	00003717          	auipc	a4,0x3
20004e90:	ae870713          	addi	a4,a4,-1304 # 20007974 <_ZZ11ff_wtoupperE4cvt1>
20004e94:	00d56663          	bltu	a0,a3,20004ea0 <ff_wtoupper+0x28>
20004e98:	00003717          	auipc	a4,0x3
20004e9c:	a2070713          	addi	a4,a4,-1504 # 200078b8 <_ZZ11ff_wtoupperE4cvt2>
20004ea0:	00075683          	lhu	a3,0(a4)
20004ea4:	04068a63          	beqz	a3,20004ef8 <ff_wtoupper+0x80>
20004ea8:	04d7e863          	bltu	a5,a3,20004ef8 <ff_wtoupper+0x80>
20004eac:	00275603          	lhu	a2,2(a4)
20004eb0:	00470713          	addi	a4,a4,4
20004eb4:	00865593          	srli	a1,a2,0x8
20004eb8:	0ff67613          	zext.b	a2,a2
20004ebc:	00d60833          	add	a6,a2,a3
20004ec0:	09055c63          	bge	a0,a6,20004f58 <ff_wtoupper+0xe0>
20004ec4:	00800613          	li	a2,8
20004ec8:	02b66863          	bltu	a2,a1,20004ef8 <ff_wtoupper+0x80>
20004ecc:	00003817          	auipc	a6,0x3
20004ed0:	9c880813          	addi	a6,a6,-1592 # 20007894 <_ZL6LfnOfs+0x1c>
20004ed4:	00259593          	slli	a1,a1,0x2
20004ed8:	010585b3          	add	a1,a1,a6
20004edc:	0005a603          	lw	a2,0(a1)
20004ee0:	01060633          	add	a2,a2,a6
20004ee4:	00060067          	jr	a2
20004ee8:	40d50533          	sub	a0,a0,a3
20004eec:	00151513          	slli	a0,a0,0x1
20004ef0:	00a70733          	add	a4,a4,a0
20004ef4:	00075783          	lhu	a5,0(a4)
20004ef8:	00078513          	mv	a0,a5
20004efc:	00008067          	ret
20004f00:	40d786b3          	sub	a3,a5,a3
20004f04:	0016f693          	andi	a3,a3,1
20004f08:	40d787b3          	sub	a5,a5,a3
20004f0c:	01079793          	slli	a5,a5,0x10
20004f10:	0107d793          	srli	a5,a5,0x10
20004f14:	fe5ff06f          	j	20004ef8 <ff_wtoupper+0x80>
20004f18:	ff078793          	addi	a5,a5,-16 # fff0 <_start-0x1fff0010>
20004f1c:	ff1ff06f          	j	20004f0c <ff_wtoupper+0x94>
20004f20:	fe078793          	addi	a5,a5,-32
20004f24:	fe9ff06f          	j	20004f0c <ff_wtoupper+0x94>
20004f28:	fd078793          	addi	a5,a5,-48
20004f2c:	fe1ff06f          	j	20004f0c <ff_wtoupper+0x94>
20004f30:	fe678793          	addi	a5,a5,-26
20004f34:	fd9ff06f          	j	20004f0c <ff_wtoupper+0x94>
20004f38:	00878793          	addi	a5,a5,8
20004f3c:	fd1ff06f          	j	20004f0c <ff_wtoupper+0x94>
20004f40:	fb078793          	addi	a5,a5,-80
20004f44:	fc9ff06f          	j	20004f0c <ff_wtoupper+0x94>
20004f48:	ffffe737          	lui	a4,0xffffe
20004f4c:	3a070713          	addi	a4,a4,928 # ffffe3a0 <_end+0xdfff4148>
20004f50:	00e787b3          	add	a5,a5,a4
20004f54:	fb9ff06f          	j	20004f0c <ff_wtoupper+0x94>
20004f58:	f40594e3          	bnez	a1,20004ea0 <ff_wtoupper+0x28>
20004f5c:	00161613          	slli	a2,a2,0x1
20004f60:	00c70733          	add	a4,a4,a2
20004f64:	f3dff06f          	j	20004ea0 <ff_wtoupper+0x28>

20004f68 <disk_status>:
20004f68:	fff50513          	addi	a0,a0,-1
20004f6c:	00a03533          	snez	a0,a0
20004f70:	00008067          	ret

20004f74 <disk_initialize>:
20004f74:	00100793          	li	a5,1
20004f78:	02f51263          	bne	a0,a5,20004f9c <disk_initialize+0x28>
20004f7c:	ff010113          	addi	sp,sp,-16
20004f80:	00112623          	sw	ra,12(sp)
20004f84:	818fd0ef          	jal	ra,20001f9c <_Z13SDCardStartupv>
20004f88:	00c12083          	lw	ra,12(sp)
20004f8c:	00150513          	addi	a0,a0,1
20004f90:	00153513          	seqz	a0,a0
20004f94:	01010113          	addi	sp,sp,16
20004f98:	00008067          	ret
20004f9c:	00100513          	li	a0,1
20004fa0:	00008067          	ret

20004fa4 <disk_read>:
20004fa4:	00100713          	li	a4,1
20004fa8:	00e50a63          	beq	a0,a4,20004fbc <disk_read+0x18>
20004fac:	0fd57513          	andi	a0,a0,253
20004fb0:	00a03533          	snez	a0,a0
20004fb4:	00350513          	addi	a0,a0,3
20004fb8:	00008067          	ret
20004fbc:	ff010113          	addi	sp,sp,-16
20004fc0:	00058513          	mv	a0,a1
20004fc4:	00068593          	mv	a1,a3
20004fc8:	00112623          	sw	ra,12(sp)
20004fcc:	e81fc0ef          	jal	ra,20001e4c <_Z20SDReadMultipleBlocksPhmm>
20004fd0:	00c12083          	lw	ra,12(sp)
20004fd4:	00150513          	addi	a0,a0,1
20004fd8:	00153513          	seqz	a0,a0
20004fdc:	01010113          	addi	sp,sp,16
20004fe0:	00008067          	ret

20004fe4 <disk_write>:
20004fe4:	00100713          	li	a4,1
20004fe8:	00e50a63          	beq	a0,a4,20004ffc <disk_write+0x18>
20004fec:	0fd57513          	andi	a0,a0,253
20004ff0:	00a03533          	snez	a0,a0
20004ff4:	00350513          	addi	a0,a0,3
20004ff8:	00008067          	ret
20004ffc:	ff010113          	addi	sp,sp,-16
20005000:	00058513          	mv	a0,a1
20005004:	00068593          	mv	a1,a3
20005008:	00112623          	sw	ra,12(sp)
2000500c:	ee9fc0ef          	jal	ra,20001ef4 <_Z21SDWriteMultipleBlocksPKhmm>
20005010:	00c12083          	lw	ra,12(sp)
20005014:	00150513          	addi	a0,a0,1
20005018:	00153513          	seqz	a0,a0
2000501c:	01010113          	addi	sp,sp,16
20005020:	00008067          	ret

20005024 <disk_ioctl>:
20005024:	00353513          	sltiu	a0,a0,3
20005028:	00154513          	xori	a0,a0,1
2000502c:	00251513          	slli	a0,a0,0x2
20005030:	00008067          	ret

20005034 <atexit>:
20005034:	00050593          	mv	a1,a0
20005038:	00000693          	li	a3,0
2000503c:	00000613          	li	a2,0
20005040:	00000513          	li	a0,0
20005044:	4ec0106f          	j	20006530 <__register_exitproc>

20005048 <__libc_fini_array>:
20005048:	ff010113          	addi	sp,sp,-16
2000504c:	00812423          	sw	s0,8(sp)
20005050:	200087b7          	lui	a5,0x20008
20005054:	20008437          	lui	s0,0x20008
20005058:	c6878793          	addi	a5,a5,-920 # 20007c68 <_etext>
2000505c:	c6840413          	addi	s0,s0,-920 # 20007c68 <_etext>
20005060:	40f40433          	sub	s0,s0,a5
20005064:	00912223          	sw	s1,4(sp)
20005068:	00112623          	sw	ra,12(sp)
2000506c:	40245493          	srai	s1,s0,0x2
20005070:	02048063          	beqz	s1,20005090 <__libc_fini_array+0x48>
20005074:	ffc40413          	addi	s0,s0,-4
20005078:	00f40433          	add	s0,s0,a5
2000507c:	00042783          	lw	a5,0(s0)
20005080:	fff48493          	addi	s1,s1,-1
20005084:	ffc40413          	addi	s0,s0,-4
20005088:	000780e7          	jalr	a5
2000508c:	fe0498e3          	bnez	s1,2000507c <__libc_fini_array+0x34>
20005090:	00c12083          	lw	ra,12(sp)
20005094:	00812403          	lw	s0,8(sp)
20005098:	00412483          	lw	s1,4(sp)
2000509c:	01010113          	addi	sp,sp,16
200050a0:	00008067          	ret

200050a4 <__libc_init_array>:
200050a4:	ff010113          	addi	sp,sp,-16
200050a8:	00812423          	sw	s0,8(sp)
200050ac:	200087b7          	lui	a5,0x20008
200050b0:	20008437          	lui	s0,0x20008
200050b4:	01212023          	sw	s2,0(sp)
200050b8:	c6878793          	addi	a5,a5,-920 # 20007c68 <_etext>
200050bc:	c6840713          	addi	a4,s0,-920 # 20007c68 <_etext>
200050c0:	00112623          	sw	ra,12(sp)
200050c4:	00912223          	sw	s1,4(sp)
200050c8:	40e78933          	sub	s2,a5,a4
200050cc:	02e78263          	beq	a5,a4,200050f0 <__libc_init_array+0x4c>
200050d0:	40295913          	srai	s2,s2,0x2
200050d4:	c6840413          	addi	s0,s0,-920
200050d8:	00000493          	li	s1,0
200050dc:	00042783          	lw	a5,0(s0)
200050e0:	00148493          	addi	s1,s1,1
200050e4:	00440413          	addi	s0,s0,4
200050e8:	000780e7          	jalr	a5
200050ec:	ff24e8e3          	bltu	s1,s2,200050dc <__libc_init_array+0x38>
200050f0:	20008437          	lui	s0,0x20008
200050f4:	200087b7          	lui	a5,0x20008
200050f8:	c6878793          	addi	a5,a5,-920 # 20007c68 <_etext>
200050fc:	c6840713          	addi	a4,s0,-920 # 20007c68 <_etext>
20005100:	40e78933          	sub	s2,a5,a4
20005104:	40295913          	srai	s2,s2,0x2
20005108:	02e78063          	beq	a5,a4,20005128 <__libc_init_array+0x84>
2000510c:	c6840413          	addi	s0,s0,-920
20005110:	00000493          	li	s1,0
20005114:	00042783          	lw	a5,0(s0)
20005118:	00148493          	addi	s1,s1,1
2000511c:	00440413          	addi	s0,s0,4
20005120:	000780e7          	jalr	a5
20005124:	ff24e8e3          	bltu	s1,s2,20005114 <__libc_init_array+0x70>
20005128:	00c12083          	lw	ra,12(sp)
2000512c:	00812403          	lw	s0,8(sp)
20005130:	00412483          	lw	s1,4(sp)
20005134:	00012903          	lw	s2,0(sp)
20005138:	01010113          	addi	sp,sp,16
2000513c:	00008067          	ret

20005140 <malloc>:
20005140:	200097b7          	lui	a5,0x20009
20005144:	00050593          	mv	a1,a0
20005148:	7307a503          	lw	a0,1840(a5) # 20009730 <_impure_ptr>
2000514c:	0140006f          	j	20005160 <_malloc_r>

20005150 <free>:
20005150:	200097b7          	lui	a5,0x20009
20005154:	00050593          	mv	a1,a0
20005158:	7307a503          	lw	a0,1840(a5) # 20009730 <_impure_ptr>
2000515c:	5a80106f          	j	20006704 <_free_r>

20005160 <_malloc_r>:
20005160:	fd010113          	addi	sp,sp,-48
20005164:	01312e23          	sw	s3,28(sp)
20005168:	02112623          	sw	ra,44(sp)
2000516c:	02812423          	sw	s0,40(sp)
20005170:	02912223          	sw	s1,36(sp)
20005174:	03212023          	sw	s2,32(sp)
20005178:	01412c23          	sw	s4,24(sp)
2000517c:	01512a23          	sw	s5,20(sp)
20005180:	01612823          	sw	s6,16(sp)
20005184:	01712623          	sw	s7,12(sp)
20005188:	01812423          	sw	s8,8(sp)
2000518c:	01912223          	sw	s9,4(sp)
20005190:	00b58793          	addi	a5,a1,11
20005194:	01600713          	li	a4,22
20005198:	00050993          	mv	s3,a0
2000519c:	08f76e63          	bltu	a4,a5,20005238 <_malloc_r+0xd8>
200051a0:	01000793          	li	a5,16
200051a4:	22b7e063          	bltu	a5,a1,200053c4 <_malloc_r+0x264>
200051a8:	15d000ef          	jal	ra,20005b04 <__malloc_lock>
200051ac:	01000493          	li	s1,16
200051b0:	01800793          	li	a5,24
200051b4:	00200593          	li	a1,2
200051b8:	20009937          	lui	s2,0x20009
200051bc:	2b090913          	addi	s2,s2,688 # 200092b0 <__malloc_av_>
200051c0:	00f907b3          	add	a5,s2,a5
200051c4:	0047a403          	lw	s0,4(a5)
200051c8:	ff878713          	addi	a4,a5,-8
200051cc:	30e40863          	beq	s0,a4,200054dc <_malloc_r+0x37c>
200051d0:	00442783          	lw	a5,4(s0)
200051d4:	00c42683          	lw	a3,12(s0)
200051d8:	00842603          	lw	a2,8(s0)
200051dc:	ffc7f793          	andi	a5,a5,-4
200051e0:	00f407b3          	add	a5,s0,a5
200051e4:	0047a703          	lw	a4,4(a5)
200051e8:	00d62623          	sw	a3,12(a2)
200051ec:	00c6a423          	sw	a2,8(a3) # 1008 <_start-0x1fffeff8>
200051f0:	00176713          	ori	a4,a4,1
200051f4:	00098513          	mv	a0,s3
200051f8:	00e7a223          	sw	a4,4(a5)
200051fc:	10d000ef          	jal	ra,20005b08 <__malloc_unlock>
20005200:	00840513          	addi	a0,s0,8
20005204:	02c12083          	lw	ra,44(sp)
20005208:	02812403          	lw	s0,40(sp)
2000520c:	02412483          	lw	s1,36(sp)
20005210:	02012903          	lw	s2,32(sp)
20005214:	01c12983          	lw	s3,28(sp)
20005218:	01812a03          	lw	s4,24(sp)
2000521c:	01412a83          	lw	s5,20(sp)
20005220:	01012b03          	lw	s6,16(sp)
20005224:	00c12b83          	lw	s7,12(sp)
20005228:	00812c03          	lw	s8,8(sp)
2000522c:	00412c83          	lw	s9,4(sp)
20005230:	03010113          	addi	sp,sp,48
20005234:	00008067          	ret
20005238:	ff87f493          	andi	s1,a5,-8
2000523c:	1807c463          	bltz	a5,200053c4 <_malloc_r+0x264>
20005240:	18b4e263          	bltu	s1,a1,200053c4 <_malloc_r+0x264>
20005244:	0c1000ef          	jal	ra,20005b04 <__malloc_lock>
20005248:	1f700793          	li	a5,503
2000524c:	3a97f263          	bgeu	a5,s1,200055f0 <_malloc_r+0x490>
20005250:	0094d793          	srli	a5,s1,0x9
20005254:	18078063          	beqz	a5,200053d4 <_malloc_r+0x274>
20005258:	00400713          	li	a4,4
2000525c:	2ef76863          	bltu	a4,a5,2000554c <_malloc_r+0x3ec>
20005260:	0064d793          	srli	a5,s1,0x6
20005264:	03978593          	addi	a1,a5,57
20005268:	03878513          	addi	a0,a5,56
2000526c:	00359693          	slli	a3,a1,0x3
20005270:	20009937          	lui	s2,0x20009
20005274:	2b090913          	addi	s2,s2,688 # 200092b0 <__malloc_av_>
20005278:	00d906b3          	add	a3,s2,a3
2000527c:	0046a403          	lw	s0,4(a3)
20005280:	ff868693          	addi	a3,a3,-8
20005284:	02868663          	beq	a3,s0,200052b0 <_malloc_r+0x150>
20005288:	00f00613          	li	a2,15
2000528c:	0100006f          	j	2000529c <_malloc_r+0x13c>
20005290:	24075063          	bgez	a4,200054d0 <_malloc_r+0x370>
20005294:	00c42403          	lw	s0,12(s0)
20005298:	00868c63          	beq	a3,s0,200052b0 <_malloc_r+0x150>
2000529c:	00442783          	lw	a5,4(s0)
200052a0:	ffc7f793          	andi	a5,a5,-4
200052a4:	40978733          	sub	a4,a5,s1
200052a8:	fee654e3          	bge	a2,a4,20005290 <_malloc_r+0x130>
200052ac:	00050593          	mv	a1,a0
200052b0:	01092403          	lw	s0,16(s2)
200052b4:	20009837          	lui	a6,0x20009
200052b8:	2b880813          	addi	a6,a6,696 # 200092b8 <__malloc_av_+0x8>
200052bc:	1f040263          	beq	s0,a6,200054a0 <_malloc_r+0x340>
200052c0:	00442783          	lw	a5,4(s0)
200052c4:	00f00693          	li	a3,15
200052c8:	ffc7f793          	andi	a5,a5,-4
200052cc:	40978733          	sub	a4,a5,s1
200052d0:	32e6c663          	blt	a3,a4,200055fc <_malloc_r+0x49c>
200052d4:	01092a23          	sw	a6,20(s2)
200052d8:	01092823          	sw	a6,16(s2)
200052dc:	2e075a63          	bgez	a4,200055d0 <_malloc_r+0x470>
200052e0:	1ff00713          	li	a4,511
200052e4:	00492503          	lw	a0,4(s2)
200052e8:	20f76263          	bltu	a4,a5,200054ec <_malloc_r+0x38c>
200052ec:	ff87f713          	andi	a4,a5,-8
200052f0:	00870713          	addi	a4,a4,8
200052f4:	00e90733          	add	a4,s2,a4
200052f8:	00072683          	lw	a3,0(a4)
200052fc:	0057d613          	srli	a2,a5,0x5
20005300:	00100793          	li	a5,1
20005304:	00c797b3          	sll	a5,a5,a2
20005308:	00f56533          	or	a0,a0,a5
2000530c:	ff870793          	addi	a5,a4,-8
20005310:	00f42623          	sw	a5,12(s0)
20005314:	00d42423          	sw	a3,8(s0)
20005318:	00a92223          	sw	a0,4(s2)
2000531c:	00872023          	sw	s0,0(a4)
20005320:	0086a623          	sw	s0,12(a3)
20005324:	4025d793          	srai	a5,a1,0x2
20005328:	00100613          	li	a2,1
2000532c:	00f61633          	sll	a2,a2,a5
20005330:	0ac56a63          	bltu	a0,a2,200053e4 <_malloc_r+0x284>
20005334:	00a677b3          	and	a5,a2,a0
20005338:	02079463          	bnez	a5,20005360 <_malloc_r+0x200>
2000533c:	00161613          	slli	a2,a2,0x1
20005340:	ffc5f593          	andi	a1,a1,-4
20005344:	00a677b3          	and	a5,a2,a0
20005348:	00458593          	addi	a1,a1,4
2000534c:	00079a63          	bnez	a5,20005360 <_malloc_r+0x200>
20005350:	00161613          	slli	a2,a2,0x1
20005354:	00a677b3          	and	a5,a2,a0
20005358:	00458593          	addi	a1,a1,4
2000535c:	fe078ae3          	beqz	a5,20005350 <_malloc_r+0x1f0>
20005360:	00f00893          	li	a7,15
20005364:	00359313          	slli	t1,a1,0x3
20005368:	00690333          	add	t1,s2,t1
2000536c:	00030513          	mv	a0,t1
20005370:	00c52783          	lw	a5,12(a0)
20005374:	00058e13          	mv	t3,a1
20005378:	1ef50c63          	beq	a0,a5,20005570 <_malloc_r+0x410>
2000537c:	0047a703          	lw	a4,4(a5)
20005380:	00078413          	mv	s0,a5
20005384:	00c7a783          	lw	a5,12(a5)
20005388:	ffc77713          	andi	a4,a4,-4
2000538c:	409706b3          	sub	a3,a4,s1
20005390:	1ed8cc63          	blt	a7,a3,20005588 <_malloc_r+0x428>
20005394:	fe06c2e3          	bltz	a3,20005378 <_malloc_r+0x218>
20005398:	00e40733          	add	a4,s0,a4
2000539c:	00472683          	lw	a3,4(a4)
200053a0:	00842603          	lw	a2,8(s0)
200053a4:	00098513          	mv	a0,s3
200053a8:	0016e693          	ori	a3,a3,1
200053ac:	00d72223          	sw	a3,4(a4)
200053b0:	00f62623          	sw	a5,12(a2)
200053b4:	00c7a423          	sw	a2,8(a5)
200053b8:	750000ef          	jal	ra,20005b08 <__malloc_unlock>
200053bc:	00840513          	addi	a0,s0,8
200053c0:	e45ff06f          	j	20005204 <_malloc_r+0xa4>
200053c4:	00c00793          	li	a5,12
200053c8:	00f9a023          	sw	a5,0(s3)
200053cc:	00000513          	li	a0,0
200053d0:	e35ff06f          	j	20005204 <_malloc_r+0xa4>
200053d4:	20000693          	li	a3,512
200053d8:	04000593          	li	a1,64
200053dc:	03f00513          	li	a0,63
200053e0:	e91ff06f          	j	20005270 <_malloc_r+0x110>
200053e4:	00892403          	lw	s0,8(s2)
200053e8:	00442783          	lw	a5,4(s0)
200053ec:	ffc7fb13          	andi	s6,a5,-4
200053f0:	009b6863          	bltu	s6,s1,20005400 <_malloc_r+0x2a0>
200053f4:	409b0733          	sub	a4,s6,s1
200053f8:	00f00793          	li	a5,15
200053fc:	0ae7c663          	blt	a5,a4,200054a8 <_malloc_r+0x348>
20005400:	20009cb7          	lui	s9,0x20009
20005404:	8181aa83          	lw	s5,-2024(gp) # 20009748 <__malloc_top_pad>
20005408:	734ca703          	lw	a4,1844(s9) # 20009734 <__malloc_sbrk_base>
2000540c:	fff00793          	li	a5,-1
20005410:	01640a33          	add	s4,s0,s6
20005414:	01548ab3          	add	s5,s1,s5
20005418:	3af70663          	beq	a4,a5,200057c4 <_malloc_r+0x664>
2000541c:	000017b7          	lui	a5,0x1
20005420:	00f78793          	addi	a5,a5,15 # 100f <_start-0x1fffeff1>
20005424:	00fa8ab3          	add	s5,s5,a5
20005428:	fffff7b7          	lui	a5,0xfffff
2000542c:	00fafab3          	and	s5,s5,a5
20005430:	000a8593          	mv	a1,s5
20005434:	00098513          	mv	a0,s3
20005438:	6d4000ef          	jal	ra,20005b0c <_sbrk_r>
2000543c:	fff00793          	li	a5,-1
20005440:	00050b93          	mv	s7,a0
20005444:	20f50663          	beq	a0,a5,20005650 <_malloc_r+0x4f0>
20005448:	21456263          	bltu	a0,s4,2000564c <_malloc_r+0x4ec>
2000544c:	2fc18c13          	addi	s8,gp,764 # 2000a22c <__malloc_current_mallinfo>
20005450:	000c2583          	lw	a1,0(s8)
20005454:	00ba85b3          	add	a1,s5,a1
20005458:	00bc2023          	sw	a1,0(s8)
2000545c:	00058713          	mv	a4,a1
20005460:	28aa1863          	bne	s4,a0,200056f0 <_malloc_r+0x590>
20005464:	01451793          	slli	a5,a0,0x14
20005468:	28079463          	bnez	a5,200056f0 <_malloc_r+0x590>
2000546c:	00892b83          	lw	s7,8(s2)
20005470:	015b07b3          	add	a5,s6,s5
20005474:	0017e793          	ori	a5,a5,1
20005478:	00fba223          	sw	a5,4(s7)
2000547c:	8141a683          	lw	a3,-2028(gp) # 20009744 <__malloc_max_sbrked_mem>
20005480:	00b6f463          	bgeu	a3,a1,20005488 <_malloc_r+0x328>
20005484:	80b1aa23          	sw	a1,-2028(gp) # 20009744 <__malloc_max_sbrked_mem>
20005488:	20009737          	lui	a4,0x20009
2000548c:	74072683          	lw	a3,1856(a4) # 20009740 <__malloc_max_total_mem>
20005490:	00b6f463          	bgeu	a3,a1,20005498 <_malloc_r+0x338>
20005494:	74b72023          	sw	a1,1856(a4)
20005498:	000b8413          	mv	s0,s7
2000549c:	1bc0006f          	j	20005658 <_malloc_r+0x4f8>
200054a0:	00492503          	lw	a0,4(s2)
200054a4:	e81ff06f          	j	20005324 <_malloc_r+0x1c4>
200054a8:	0014e793          	ori	a5,s1,1
200054ac:	00f42223          	sw	a5,4(s0)
200054b0:	009404b3          	add	s1,s0,s1
200054b4:	00992423          	sw	s1,8(s2)
200054b8:	00176713          	ori	a4,a4,1
200054bc:	00098513          	mv	a0,s3
200054c0:	00e4a223          	sw	a4,4(s1)
200054c4:	644000ef          	jal	ra,20005b08 <__malloc_unlock>
200054c8:	00840513          	addi	a0,s0,8
200054cc:	d39ff06f          	j	20005204 <_malloc_r+0xa4>
200054d0:	00c42683          	lw	a3,12(s0)
200054d4:	00842603          	lw	a2,8(s0)
200054d8:	d09ff06f          	j	200051e0 <_malloc_r+0x80>
200054dc:	00c7a403          	lw	s0,12(a5) # fffff00c <_end+0xdfff4db4>
200054e0:	00258593          	addi	a1,a1,2
200054e4:	dc8786e3          	beq	a5,s0,200052b0 <_malloc_r+0x150>
200054e8:	ce9ff06f          	j	200051d0 <_malloc_r+0x70>
200054ec:	0097d713          	srli	a4,a5,0x9
200054f0:	00400693          	li	a3,4
200054f4:	14e6f263          	bgeu	a3,a4,20005638 <_malloc_r+0x4d8>
200054f8:	01400693          	li	a3,20
200054fc:	30e6ea63          	bltu	a3,a4,20005810 <_malloc_r+0x6b0>
20005500:	05c70613          	addi	a2,a4,92
20005504:	05b70693          	addi	a3,a4,91
20005508:	00361613          	slli	a2,a2,0x3
2000550c:	00c90633          	add	a2,s2,a2
20005510:	00062703          	lw	a4,0(a2)
20005514:	ff860613          	addi	a2,a2,-8
20005518:	00e61863          	bne	a2,a4,20005528 <_malloc_r+0x3c8>
2000551c:	2b00006f          	j	200057cc <_malloc_r+0x66c>
20005520:	00872703          	lw	a4,8(a4)
20005524:	00e60863          	beq	a2,a4,20005534 <_malloc_r+0x3d4>
20005528:	00472683          	lw	a3,4(a4)
2000552c:	ffc6f693          	andi	a3,a3,-4
20005530:	fed7e8e3          	bltu	a5,a3,20005520 <_malloc_r+0x3c0>
20005534:	00c72603          	lw	a2,12(a4)
20005538:	00c42623          	sw	a2,12(s0)
2000553c:	00e42423          	sw	a4,8(s0)
20005540:	00862423          	sw	s0,8(a2)
20005544:	00872623          	sw	s0,12(a4)
20005548:	dddff06f          	j	20005324 <_malloc_r+0x1c4>
2000554c:	01400713          	li	a4,20
20005550:	12f77663          	bgeu	a4,a5,2000567c <_malloc_r+0x51c>
20005554:	05400713          	li	a4,84
20005558:	2cf76a63          	bltu	a4,a5,2000582c <_malloc_r+0x6cc>
2000555c:	00c4d793          	srli	a5,s1,0xc
20005560:	06f78593          	addi	a1,a5,111
20005564:	06e78513          	addi	a0,a5,110
20005568:	00359693          	slli	a3,a1,0x3
2000556c:	d05ff06f          	j	20005270 <_malloc_r+0x110>
20005570:	001e0e13          	addi	t3,t3,1
20005574:	003e7793          	andi	a5,t3,3
20005578:	00850513          	addi	a0,a0,8
2000557c:	10078e63          	beqz	a5,20005698 <_malloc_r+0x538>
20005580:	00c52783          	lw	a5,12(a0)
20005584:	df5ff06f          	j	20005378 <_malloc_r+0x218>
20005588:	00842603          	lw	a2,8(s0)
2000558c:	0014e593          	ori	a1,s1,1
20005590:	00b42223          	sw	a1,4(s0)
20005594:	00f62623          	sw	a5,12(a2)
20005598:	00c7a423          	sw	a2,8(a5)
2000559c:	009404b3          	add	s1,s0,s1
200055a0:	00992a23          	sw	s1,20(s2)
200055a4:	00992823          	sw	s1,16(s2)
200055a8:	0016e793          	ori	a5,a3,1
200055ac:	0104a623          	sw	a6,12(s1)
200055b0:	0104a423          	sw	a6,8(s1)
200055b4:	00f4a223          	sw	a5,4(s1)
200055b8:	00e40733          	add	a4,s0,a4
200055bc:	00098513          	mv	a0,s3
200055c0:	00d72023          	sw	a3,0(a4)
200055c4:	544000ef          	jal	ra,20005b08 <__malloc_unlock>
200055c8:	00840513          	addi	a0,s0,8
200055cc:	c39ff06f          	j	20005204 <_malloc_r+0xa4>
200055d0:	00f407b3          	add	a5,s0,a5
200055d4:	0047a703          	lw	a4,4(a5)
200055d8:	00098513          	mv	a0,s3
200055dc:	00176713          	ori	a4,a4,1
200055e0:	00e7a223          	sw	a4,4(a5)
200055e4:	524000ef          	jal	ra,20005b08 <__malloc_unlock>
200055e8:	00840513          	addi	a0,s0,8
200055ec:	c19ff06f          	j	20005204 <_malloc_r+0xa4>
200055f0:	0034d593          	srli	a1,s1,0x3
200055f4:	00848793          	addi	a5,s1,8
200055f8:	bc1ff06f          	j	200051b8 <_malloc_r+0x58>
200055fc:	0014e693          	ori	a3,s1,1
20005600:	00d42223          	sw	a3,4(s0)
20005604:	009404b3          	add	s1,s0,s1
20005608:	00992a23          	sw	s1,20(s2)
2000560c:	00992823          	sw	s1,16(s2)
20005610:	00176693          	ori	a3,a4,1
20005614:	0104a623          	sw	a6,12(s1)
20005618:	0104a423          	sw	a6,8(s1)
2000561c:	00d4a223          	sw	a3,4(s1)
20005620:	00f407b3          	add	a5,s0,a5
20005624:	00098513          	mv	a0,s3
20005628:	00e7a023          	sw	a4,0(a5)
2000562c:	4dc000ef          	jal	ra,20005b08 <__malloc_unlock>
20005630:	00840513          	addi	a0,s0,8
20005634:	bd1ff06f          	j	20005204 <_malloc_r+0xa4>
20005638:	0067d713          	srli	a4,a5,0x6
2000563c:	03970613          	addi	a2,a4,57
20005640:	03870693          	addi	a3,a4,56
20005644:	00361613          	slli	a2,a2,0x3
20005648:	ec5ff06f          	j	2000550c <_malloc_r+0x3ac>
2000564c:	09240a63          	beq	s0,s2,200056e0 <_malloc_r+0x580>
20005650:	00892403          	lw	s0,8(s2)
20005654:	00442783          	lw	a5,4(s0)
20005658:	ffc7f793          	andi	a5,a5,-4
2000565c:	40978733          	sub	a4,a5,s1
20005660:	0097e663          	bltu	a5,s1,2000566c <_malloc_r+0x50c>
20005664:	00f00793          	li	a5,15
20005668:	e4e7c0e3          	blt	a5,a4,200054a8 <_malloc_r+0x348>
2000566c:	00098513          	mv	a0,s3
20005670:	498000ef          	jal	ra,20005b08 <__malloc_unlock>
20005674:	00000513          	li	a0,0
20005678:	b8dff06f          	j	20005204 <_malloc_r+0xa4>
2000567c:	05c78593          	addi	a1,a5,92
20005680:	05b78513          	addi	a0,a5,91
20005684:	00359693          	slli	a3,a1,0x3
20005688:	be9ff06f          	j	20005270 <_malloc_r+0x110>
2000568c:	00832783          	lw	a5,8(t1)
20005690:	fff58593          	addi	a1,a1,-1
20005694:	24679663          	bne	a5,t1,200058e0 <_malloc_r+0x780>
20005698:	0035f793          	andi	a5,a1,3
2000569c:	ff830313          	addi	t1,t1,-8
200056a0:	fe0796e3          	bnez	a5,2000568c <_malloc_r+0x52c>
200056a4:	00492703          	lw	a4,4(s2)
200056a8:	fff64793          	not	a5,a2
200056ac:	00e7f7b3          	and	a5,a5,a4
200056b0:	00f92223          	sw	a5,4(s2)
200056b4:	00161613          	slli	a2,a2,0x1
200056b8:	d2c7e6e3          	bltu	a5,a2,200053e4 <_malloc_r+0x284>
200056bc:	d20604e3          	beqz	a2,200053e4 <_malloc_r+0x284>
200056c0:	00f67733          	and	a4,a2,a5
200056c4:	00071a63          	bnez	a4,200056d8 <_malloc_r+0x578>
200056c8:	00161613          	slli	a2,a2,0x1
200056cc:	00f67733          	and	a4,a2,a5
200056d0:	004e0e13          	addi	t3,t3,4
200056d4:	fe070ae3          	beqz	a4,200056c8 <_malloc_r+0x568>
200056d8:	000e0593          	mv	a1,t3
200056dc:	c89ff06f          	j	20005364 <_malloc_r+0x204>
200056e0:	2fc18c13          	addi	s8,gp,764 # 2000a22c <__malloc_current_mallinfo>
200056e4:	000c2703          	lw	a4,0(s8)
200056e8:	00ea8733          	add	a4,s5,a4
200056ec:	00ec2023          	sw	a4,0(s8)
200056f0:	734ca683          	lw	a3,1844(s9)
200056f4:	fff00793          	li	a5,-1
200056f8:	14f68863          	beq	a3,a5,20005848 <_malloc_r+0x6e8>
200056fc:	414b87b3          	sub	a5,s7,s4
20005700:	00e787b3          	add	a5,a5,a4
20005704:	00fc2023          	sw	a5,0(s8)
20005708:	007bfc93          	andi	s9,s7,7
2000570c:	0c0c8c63          	beqz	s9,200057e4 <_malloc_r+0x684>
20005710:	00001737          	lui	a4,0x1
20005714:	419b8bb3          	sub	s7,s7,s9
20005718:	00870593          	addi	a1,a4,8 # 1008 <_start-0x1fffeff8>
2000571c:	008b8b93          	addi	s7,s7,8
20005720:	419585b3          	sub	a1,a1,s9
20005724:	015b8ab3          	add	s5,s7,s5
20005728:	415585b3          	sub	a1,a1,s5
2000572c:	fff70713          	addi	a4,a4,-1
20005730:	00e5fa33          	and	s4,a1,a4
20005734:	000a0593          	mv	a1,s4
20005738:	00098513          	mv	a0,s3
2000573c:	3d0000ef          	jal	ra,20005b0c <_sbrk_r>
20005740:	fff00793          	li	a5,-1
20005744:	14f50863          	beq	a0,a5,20005894 <_malloc_r+0x734>
20005748:	41750533          	sub	a0,a0,s7
2000574c:	01450ab3          	add	s5,a0,s4
20005750:	000c2703          	lw	a4,0(s8)
20005754:	01792423          	sw	s7,8(s2)
20005758:	001ae793          	ori	a5,s5,1
2000575c:	00ea05b3          	add	a1,s4,a4
20005760:	00bc2023          	sw	a1,0(s8)
20005764:	00fba223          	sw	a5,4(s7)
20005768:	d1240ae3          	beq	s0,s2,2000547c <_malloc_r+0x31c>
2000576c:	00f00693          	li	a3,15
20005770:	0f66f063          	bgeu	a3,s6,20005850 <_malloc_r+0x6f0>
20005774:	00442703          	lw	a4,4(s0)
20005778:	ff4b0793          	addi	a5,s6,-12
2000577c:	ff87f793          	andi	a5,a5,-8
20005780:	00177713          	andi	a4,a4,1
20005784:	00f76733          	or	a4,a4,a5
20005788:	00e42223          	sw	a4,4(s0)
2000578c:	00500613          	li	a2,5
20005790:	00f40733          	add	a4,s0,a5
20005794:	00c72223          	sw	a2,4(a4)
20005798:	00c72423          	sw	a2,8(a4)
2000579c:	00f6e663          	bltu	a3,a5,200057a8 <_malloc_r+0x648>
200057a0:	004ba783          	lw	a5,4(s7)
200057a4:	cd9ff06f          	j	2000547c <_malloc_r+0x31c>
200057a8:	00840593          	addi	a1,s0,8
200057ac:	00098513          	mv	a0,s3
200057b0:	755000ef          	jal	ra,20006704 <_free_r>
200057b4:	00892b83          	lw	s7,8(s2)
200057b8:	000c2583          	lw	a1,0(s8)
200057bc:	004ba783          	lw	a5,4(s7)
200057c0:	cbdff06f          	j	2000547c <_malloc_r+0x31c>
200057c4:	010a8a93          	addi	s5,s5,16
200057c8:	c69ff06f          	j	20005430 <_malloc_r+0x2d0>
200057cc:	4026d693          	srai	a3,a3,0x2
200057d0:	00100793          	li	a5,1
200057d4:	00d797b3          	sll	a5,a5,a3
200057d8:	00f56533          	or	a0,a0,a5
200057dc:	00a92223          	sw	a0,4(s2)
200057e0:	d59ff06f          	j	20005538 <_malloc_r+0x3d8>
200057e4:	015b85b3          	add	a1,s7,s5
200057e8:	40b005b3          	neg	a1,a1
200057ec:	01459593          	slli	a1,a1,0x14
200057f0:	0145da13          	srli	s4,a1,0x14
200057f4:	000a0593          	mv	a1,s4
200057f8:	00098513          	mv	a0,s3
200057fc:	310000ef          	jal	ra,20005b0c <_sbrk_r>
20005800:	fff00793          	li	a5,-1
20005804:	f4f512e3          	bne	a0,a5,20005748 <_malloc_r+0x5e8>
20005808:	00000a13          	li	s4,0
2000580c:	f45ff06f          	j	20005750 <_malloc_r+0x5f0>
20005810:	05400693          	li	a3,84
20005814:	04e6e463          	bltu	a3,a4,2000585c <_malloc_r+0x6fc>
20005818:	00c7d713          	srli	a4,a5,0xc
2000581c:	06f70613          	addi	a2,a4,111
20005820:	06e70693          	addi	a3,a4,110
20005824:	00361613          	slli	a2,a2,0x3
20005828:	ce5ff06f          	j	2000550c <_malloc_r+0x3ac>
2000582c:	15400713          	li	a4,340
20005830:	04f76463          	bltu	a4,a5,20005878 <_malloc_r+0x718>
20005834:	00f4d793          	srli	a5,s1,0xf
20005838:	07878593          	addi	a1,a5,120
2000583c:	07778513          	addi	a0,a5,119
20005840:	00359693          	slli	a3,a1,0x3
20005844:	a2dff06f          	j	20005270 <_malloc_r+0x110>
20005848:	737caa23          	sw	s7,1844(s9)
2000584c:	ebdff06f          	j	20005708 <_malloc_r+0x5a8>
20005850:	00100793          	li	a5,1
20005854:	00fba223          	sw	a5,4(s7)
20005858:	e15ff06f          	j	2000566c <_malloc_r+0x50c>
2000585c:	15400693          	li	a3,340
20005860:	04e6e463          	bltu	a3,a4,200058a8 <_malloc_r+0x748>
20005864:	00f7d713          	srli	a4,a5,0xf
20005868:	07870613          	addi	a2,a4,120
2000586c:	07770693          	addi	a3,a4,119
20005870:	00361613          	slli	a2,a2,0x3
20005874:	c99ff06f          	j	2000550c <_malloc_r+0x3ac>
20005878:	55400713          	li	a4,1364
2000587c:	04f76463          	bltu	a4,a5,200058c4 <_malloc_r+0x764>
20005880:	0124d793          	srli	a5,s1,0x12
20005884:	07d78593          	addi	a1,a5,125
20005888:	07c78513          	addi	a0,a5,124
2000588c:	00359693          	slli	a3,a1,0x3
20005890:	9e1ff06f          	j	20005270 <_malloc_r+0x110>
20005894:	ff8c8c93          	addi	s9,s9,-8
20005898:	019a8ab3          	add	s5,s5,s9
2000589c:	417a8ab3          	sub	s5,s5,s7
200058a0:	00000a13          	li	s4,0
200058a4:	eadff06f          	j	20005750 <_malloc_r+0x5f0>
200058a8:	55400693          	li	a3,1364
200058ac:	02e6e463          	bltu	a3,a4,200058d4 <_malloc_r+0x774>
200058b0:	0127d713          	srli	a4,a5,0x12
200058b4:	07d70613          	addi	a2,a4,125
200058b8:	07c70693          	addi	a3,a4,124
200058bc:	00361613          	slli	a2,a2,0x3
200058c0:	c4dff06f          	j	2000550c <_malloc_r+0x3ac>
200058c4:	3f800693          	li	a3,1016
200058c8:	07f00593          	li	a1,127
200058cc:	07e00513          	li	a0,126
200058d0:	9a1ff06f          	j	20005270 <_malloc_r+0x110>
200058d4:	3f800613          	li	a2,1016
200058d8:	07e00693          	li	a3,126
200058dc:	c31ff06f          	j	2000550c <_malloc_r+0x3ac>
200058e0:	00492783          	lw	a5,4(s2)
200058e4:	dd1ff06f          	j	200056b4 <_malloc_r+0x554>

200058e8 <memcmp>:
200058e8:	00300793          	li	a5,3
200058ec:	02c7fc63          	bgeu	a5,a2,20005924 <memcmp+0x3c>
200058f0:	00b567b3          	or	a5,a0,a1
200058f4:	0037f793          	andi	a5,a5,3
200058f8:	00300693          	li	a3,3
200058fc:	00078e63          	beqz	a5,20005918 <memcmp+0x30>
20005900:	fff60693          	addi	a3,a2,-1
20005904:	0280006f          	j	2000592c <memcmp+0x44>
20005908:	ffc60613          	addi	a2,a2,-4
2000590c:	00450513          	addi	a0,a0,4
20005910:	00458593          	addi	a1,a1,4
20005914:	00c6f863          	bgeu	a3,a2,20005924 <memcmp+0x3c>
20005918:	00052703          	lw	a4,0(a0)
2000591c:	0005a783          	lw	a5,0(a1)
20005920:	fef704e3          	beq	a4,a5,20005908 <memcmp+0x20>
20005924:	fff60693          	addi	a3,a2,-1
20005928:	02060863          	beqz	a2,20005958 <memcmp+0x70>
2000592c:	00168693          	addi	a3,a3,1
20005930:	00d586b3          	add	a3,a1,a3
20005934:	0080006f          	j	2000593c <memcmp+0x54>
20005938:	02d58063          	beq	a1,a3,20005958 <memcmp+0x70>
2000593c:	00054783          	lbu	a5,0(a0)
20005940:	0005c703          	lbu	a4,0(a1)
20005944:	00150513          	addi	a0,a0,1
20005948:	00158593          	addi	a1,a1,1
2000594c:	fee786e3          	beq	a5,a4,20005938 <memcmp+0x50>
20005950:	40e78533          	sub	a0,a5,a4
20005954:	00008067          	ret
20005958:	00000513          	li	a0,0
2000595c:	00008067          	ret

20005960 <memcpy>:
20005960:	00b547b3          	xor	a5,a0,a1
20005964:	0037f793          	andi	a5,a5,3
20005968:	00c508b3          	add	a7,a0,a2
2000596c:	06079463          	bnez	a5,200059d4 <memcpy+0x74>
20005970:	00300793          	li	a5,3
20005974:	06c7f063          	bgeu	a5,a2,200059d4 <memcpy+0x74>
20005978:	00357793          	andi	a5,a0,3
2000597c:	00050713          	mv	a4,a0
20005980:	06079a63          	bnez	a5,200059f4 <memcpy+0x94>
20005984:	ffc8f613          	andi	a2,a7,-4
20005988:	40e606b3          	sub	a3,a2,a4
2000598c:	02000793          	li	a5,32
20005990:	08d7ce63          	blt	a5,a3,20005a2c <memcpy+0xcc>
20005994:	00058693          	mv	a3,a1
20005998:	00070793          	mv	a5,a4
2000599c:	02c77863          	bgeu	a4,a2,200059cc <memcpy+0x6c>
200059a0:	0006a803          	lw	a6,0(a3)
200059a4:	00478793          	addi	a5,a5,4
200059a8:	00468693          	addi	a3,a3,4
200059ac:	ff07ae23          	sw	a6,-4(a5)
200059b0:	fec7e8e3          	bltu	a5,a2,200059a0 <memcpy+0x40>
200059b4:	fff60793          	addi	a5,a2,-1
200059b8:	40e787b3          	sub	a5,a5,a4
200059bc:	ffc7f793          	andi	a5,a5,-4
200059c0:	00478793          	addi	a5,a5,4
200059c4:	00f70733          	add	a4,a4,a5
200059c8:	00f585b3          	add	a1,a1,a5
200059cc:	01176863          	bltu	a4,a7,200059dc <memcpy+0x7c>
200059d0:	00008067          	ret
200059d4:	00050713          	mv	a4,a0
200059d8:	05157863          	bgeu	a0,a7,20005a28 <memcpy+0xc8>
200059dc:	0005c783          	lbu	a5,0(a1)
200059e0:	00170713          	addi	a4,a4,1
200059e4:	00158593          	addi	a1,a1,1
200059e8:	fef70fa3          	sb	a5,-1(a4)
200059ec:	fee898e3          	bne	a7,a4,200059dc <memcpy+0x7c>
200059f0:	00008067          	ret
200059f4:	0005c683          	lbu	a3,0(a1)
200059f8:	00170713          	addi	a4,a4,1
200059fc:	00377793          	andi	a5,a4,3
20005a00:	fed70fa3          	sb	a3,-1(a4)
20005a04:	00158593          	addi	a1,a1,1
20005a08:	f6078ee3          	beqz	a5,20005984 <memcpy+0x24>
20005a0c:	0005c683          	lbu	a3,0(a1)
20005a10:	00170713          	addi	a4,a4,1
20005a14:	00377793          	andi	a5,a4,3
20005a18:	fed70fa3          	sb	a3,-1(a4)
20005a1c:	00158593          	addi	a1,a1,1
20005a20:	fc079ae3          	bnez	a5,200059f4 <memcpy+0x94>
20005a24:	f61ff06f          	j	20005984 <memcpy+0x24>
20005a28:	00008067          	ret
20005a2c:	ff010113          	addi	sp,sp,-16
20005a30:	00812623          	sw	s0,12(sp)
20005a34:	02000413          	li	s0,32
20005a38:	0005a383          	lw	t2,0(a1)
20005a3c:	0045a283          	lw	t0,4(a1)
20005a40:	0085af83          	lw	t6,8(a1)
20005a44:	00c5af03          	lw	t5,12(a1)
20005a48:	0105ae83          	lw	t4,16(a1)
20005a4c:	0145ae03          	lw	t3,20(a1)
20005a50:	0185a303          	lw	t1,24(a1)
20005a54:	01c5a803          	lw	a6,28(a1)
20005a58:	0205a683          	lw	a3,32(a1)
20005a5c:	02470713          	addi	a4,a4,36
20005a60:	40e607b3          	sub	a5,a2,a4
20005a64:	fc772e23          	sw	t2,-36(a4)
20005a68:	fe572023          	sw	t0,-32(a4)
20005a6c:	fff72223          	sw	t6,-28(a4)
20005a70:	ffe72423          	sw	t5,-24(a4)
20005a74:	ffd72623          	sw	t4,-20(a4)
20005a78:	ffc72823          	sw	t3,-16(a4)
20005a7c:	fe672a23          	sw	t1,-12(a4)
20005a80:	ff072c23          	sw	a6,-8(a4)
20005a84:	fed72e23          	sw	a3,-4(a4)
20005a88:	02458593          	addi	a1,a1,36
20005a8c:	faf446e3          	blt	s0,a5,20005a38 <memcpy+0xd8>
20005a90:	00058693          	mv	a3,a1
20005a94:	00070793          	mv	a5,a4
20005a98:	02c77863          	bgeu	a4,a2,20005ac8 <memcpy+0x168>
20005a9c:	0006a803          	lw	a6,0(a3)
20005aa0:	00478793          	addi	a5,a5,4
20005aa4:	00468693          	addi	a3,a3,4
20005aa8:	ff07ae23          	sw	a6,-4(a5)
20005aac:	fec7e8e3          	bltu	a5,a2,20005a9c <memcpy+0x13c>
20005ab0:	fff60793          	addi	a5,a2,-1
20005ab4:	40e787b3          	sub	a5,a5,a4
20005ab8:	ffc7f793          	andi	a5,a5,-4
20005abc:	00478793          	addi	a5,a5,4
20005ac0:	00f70733          	add	a4,a4,a5
20005ac4:	00f585b3          	add	a1,a1,a5
20005ac8:	01176863          	bltu	a4,a7,20005ad8 <memcpy+0x178>
20005acc:	00c12403          	lw	s0,12(sp)
20005ad0:	01010113          	addi	sp,sp,16
20005ad4:	00008067          	ret
20005ad8:	0005c783          	lbu	a5,0(a1)
20005adc:	00170713          	addi	a4,a4,1
20005ae0:	00158593          	addi	a1,a1,1
20005ae4:	fef70fa3          	sb	a5,-1(a4)
20005ae8:	fee882e3          	beq	a7,a4,20005acc <memcpy+0x16c>
20005aec:	0005c783          	lbu	a5,0(a1)
20005af0:	00170713          	addi	a4,a4,1
20005af4:	00158593          	addi	a1,a1,1
20005af8:	fef70fa3          	sb	a5,-1(a4)
20005afc:	fce89ee3          	bne	a7,a4,20005ad8 <memcpy+0x178>
20005b00:	fcdff06f          	j	20005acc <memcpy+0x16c>

20005b04 <__malloc_lock>:
20005b04:	00008067          	ret

20005b08 <__malloc_unlock>:
20005b08:	00008067          	ret

20005b0c <_sbrk_r>:
20005b0c:	ff010113          	addi	sp,sp,-16
20005b10:	00812423          	sw	s0,8(sp)
20005b14:	00912223          	sw	s1,4(sp)
20005b18:	00050413          	mv	s0,a0
20005b1c:	00058513          	mv	a0,a1
20005b20:	00112623          	sw	ra,12(sp)
20005b24:	8001ae23          	sw	zero,-2020(gp) # 2000974c <errno>
20005b28:	b9dfb0ef          	jal	ra,200016c4 <_sbrk>
20005b2c:	fff00793          	li	a5,-1
20005b30:	00f50c63          	beq	a0,a5,20005b48 <_sbrk_r+0x3c>
20005b34:	00c12083          	lw	ra,12(sp)
20005b38:	00812403          	lw	s0,8(sp)
20005b3c:	00412483          	lw	s1,4(sp)
20005b40:	01010113          	addi	sp,sp,16
20005b44:	00008067          	ret
20005b48:	81c1a783          	lw	a5,-2020(gp) # 2000974c <errno>
20005b4c:	fe0784e3          	beqz	a5,20005b34 <_sbrk_r+0x28>
20005b50:	00c12083          	lw	ra,12(sp)
20005b54:	00f42023          	sw	a5,0(s0)
20005b58:	00812403          	lw	s0,8(sp)
20005b5c:	00412483          	lw	s1,4(sp)
20005b60:	01010113          	addi	sp,sp,16
20005b64:	00008067          	ret

20005b68 <strcat>:
20005b68:	ff010113          	addi	sp,sp,-16
20005b6c:	00812423          	sw	s0,8(sp)
20005b70:	00112623          	sw	ra,12(sp)
20005b74:	00357793          	andi	a5,a0,3
20005b78:	00050413          	mv	s0,a0
20005b7c:	04079463          	bnez	a5,20005bc4 <strcat+0x5c>
20005b80:	00052703          	lw	a4,0(a0)
20005b84:	feff0637          	lui	a2,0xfeff0
20005b88:	eff60613          	addi	a2,a2,-257 # fefefeff <_end+0xdefe5ca7>
20005b8c:	00c707b3          	add	a5,a4,a2
20005b90:	808086b7          	lui	a3,0x80808
20005b94:	fff74713          	not	a4,a4
20005b98:	00e7f7b3          	and	a5,a5,a4
20005b9c:	08068693          	addi	a3,a3,128 # 80808080 <_end+0x607fde28>
20005ba0:	00d7f7b3          	and	a5,a5,a3
20005ba4:	02079063          	bnez	a5,20005bc4 <strcat+0x5c>
20005ba8:	00452703          	lw	a4,4(a0)
20005bac:	00450513          	addi	a0,a0,4
20005bb0:	00c707b3          	add	a5,a4,a2
20005bb4:	fff74713          	not	a4,a4
20005bb8:	00e7f7b3          	and	a5,a5,a4
20005bbc:	00d7f7b3          	and	a5,a5,a3
20005bc0:	fe0784e3          	beqz	a5,20005ba8 <strcat+0x40>
20005bc4:	00054783          	lbu	a5,0(a0)
20005bc8:	00078863          	beqz	a5,20005bd8 <strcat+0x70>
20005bcc:	00154783          	lbu	a5,1(a0)
20005bd0:	00150513          	addi	a0,a0,1
20005bd4:	fe079ce3          	bnez	a5,20005bcc <strcat+0x64>
20005bd8:	158000ef          	jal	ra,20005d30 <strcpy>
20005bdc:	00c12083          	lw	ra,12(sp)
20005be0:	00040513          	mv	a0,s0
20005be4:	00812403          	lw	s0,8(sp)
20005be8:	01010113          	addi	sp,sp,16
20005bec:	00008067          	ret

20005bf0 <strchr>:
20005bf0:	0ff5f693          	zext.b	a3,a1
20005bf4:	00357793          	andi	a5,a0,3
20005bf8:	0c068063          	beqz	a3,20005cb8 <strchr+0xc8>
20005bfc:	00078e63          	beqz	a5,20005c18 <strchr+0x28>
20005c00:	00054783          	lbu	a5,0(a0)
20005c04:	0a078663          	beqz	a5,20005cb0 <strchr+0xc0>
20005c08:	0ad78663          	beq	a5,a3,20005cb4 <strchr+0xc4>
20005c0c:	00150513          	addi	a0,a0,1
20005c10:	00357793          	andi	a5,a0,3
20005c14:	fe0796e3          	bnez	a5,20005c00 <strchr+0x10>
20005c18:	0ff5f593          	zext.b	a1,a1
20005c1c:	00859793          	slli	a5,a1,0x8
20005c20:	00b787b3          	add	a5,a5,a1
20005c24:	00052703          	lw	a4,0(a0)
20005c28:	01079313          	slli	t1,a5,0x10
20005c2c:	00f36333          	or	t1,t1,a5
20005c30:	feff0837          	lui	a6,0xfeff0
20005c34:	00e34633          	xor	a2,t1,a4
20005c38:	eff80813          	addi	a6,a6,-257 # fefefeff <_end+0xdefe5ca7>
20005c3c:	010707b3          	add	a5,a4,a6
20005c40:	010605b3          	add	a1,a2,a6
20005c44:	fff74713          	not	a4,a4
20005c48:	fff64613          	not	a2,a2
20005c4c:	00e7f7b3          	and	a5,a5,a4
20005c50:	808088b7          	lui	a7,0x80808
20005c54:	00c5f733          	and	a4,a1,a2
20005c58:	00e7e7b3          	or	a5,a5,a4
20005c5c:	08088893          	addi	a7,a7,128 # 80808080 <_end+0x607fde28>
20005c60:	0117f7b3          	and	a5,a5,a7
20005c64:	02079a63          	bnez	a5,20005c98 <strchr+0xa8>
20005c68:	00452703          	lw	a4,4(a0)
20005c6c:	00450513          	addi	a0,a0,4
20005c70:	00674633          	xor	a2,a4,t1
20005c74:	010707b3          	add	a5,a4,a6
20005c78:	010605b3          	add	a1,a2,a6
20005c7c:	fff74713          	not	a4,a4
20005c80:	fff64613          	not	a2,a2
20005c84:	00e7f7b3          	and	a5,a5,a4
20005c88:	00c5f733          	and	a4,a1,a2
20005c8c:	00e7e7b3          	or	a5,a5,a4
20005c90:	0117f7b3          	and	a5,a5,a7
20005c94:	fc078ae3          	beqz	a5,20005c68 <strchr+0x78>
20005c98:	00054783          	lbu	a5,0(a0)
20005c9c:	00078a63          	beqz	a5,20005cb0 <strchr+0xc0>
20005ca0:	08f68663          	beq	a3,a5,20005d2c <strchr+0x13c>
20005ca4:	00154783          	lbu	a5,1(a0)
20005ca8:	00150513          	addi	a0,a0,1
20005cac:	fe079ae3          	bnez	a5,20005ca0 <strchr+0xb0>
20005cb0:	00000513          	li	a0,0
20005cb4:	00008067          	ret
20005cb8:	00078c63          	beqz	a5,20005cd0 <strchr+0xe0>
20005cbc:	00054783          	lbu	a5,0(a0)
20005cc0:	fe078ae3          	beqz	a5,20005cb4 <strchr+0xc4>
20005cc4:	00150513          	addi	a0,a0,1
20005cc8:	00357793          	andi	a5,a0,3
20005ccc:	fe0798e3          	bnez	a5,20005cbc <strchr+0xcc>
20005cd0:	00052703          	lw	a4,0(a0)
20005cd4:	feff0637          	lui	a2,0xfeff0
20005cd8:	eff60613          	addi	a2,a2,-257 # fefefeff <_end+0xdefe5ca7>
20005cdc:	fff74793          	not	a5,a4
20005ce0:	808086b7          	lui	a3,0x80808
20005ce4:	00c70733          	add	a4,a4,a2
20005ce8:	00e7f7b3          	and	a5,a5,a4
20005cec:	08068693          	addi	a3,a3,128 # 80808080 <_end+0x607fde28>
20005cf0:	00d7f7b3          	and	a5,a5,a3
20005cf4:	02079063          	bnez	a5,20005d14 <strchr+0x124>
20005cf8:	00452703          	lw	a4,4(a0)
20005cfc:	00450513          	addi	a0,a0,4
20005d00:	00c707b3          	add	a5,a4,a2
20005d04:	fff74713          	not	a4,a4
20005d08:	00e7f7b3          	and	a5,a5,a4
20005d0c:	00d7f7b3          	and	a5,a5,a3
20005d10:	fe0784e3          	beqz	a5,20005cf8 <strchr+0x108>
20005d14:	00054783          	lbu	a5,0(a0)
20005d18:	f8078ee3          	beqz	a5,20005cb4 <strchr+0xc4>
20005d1c:	00154783          	lbu	a5,1(a0)
20005d20:	00150513          	addi	a0,a0,1
20005d24:	fe079ce3          	bnez	a5,20005d1c <strchr+0x12c>
20005d28:	00008067          	ret
20005d2c:	00008067          	ret

20005d30 <strcpy>:
20005d30:	00b567b3          	or	a5,a0,a1
20005d34:	0037f793          	andi	a5,a5,3
20005d38:	08079263          	bnez	a5,20005dbc <strcpy+0x8c>
20005d3c:	0005a703          	lw	a4,0(a1)
20005d40:	7f7f86b7          	lui	a3,0x7f7f8
20005d44:	f7f68693          	addi	a3,a3,-129 # 7f7f7f7f <_end+0x5f7edd27>
20005d48:	00d777b3          	and	a5,a4,a3
20005d4c:	00d787b3          	add	a5,a5,a3
20005d50:	00e7e7b3          	or	a5,a5,a4
20005d54:	00d7e7b3          	or	a5,a5,a3
20005d58:	fff00613          	li	a2,-1
20005d5c:	06c79e63          	bne	a5,a2,20005dd8 <strcpy+0xa8>
20005d60:	00050613          	mv	a2,a0
20005d64:	fff00813          	li	a6,-1
20005d68:	00e62023          	sw	a4,0(a2)
20005d6c:	0045a703          	lw	a4,4(a1)
20005d70:	00458593          	addi	a1,a1,4
20005d74:	00460613          	addi	a2,a2,4
20005d78:	00d777b3          	and	a5,a4,a3
20005d7c:	00d787b3          	add	a5,a5,a3
20005d80:	00e7e7b3          	or	a5,a5,a4
20005d84:	00d7e7b3          	or	a5,a5,a3
20005d88:	ff0780e3          	beq	a5,a6,20005d68 <strcpy+0x38>
20005d8c:	0005c783          	lbu	a5,0(a1)
20005d90:	0015c703          	lbu	a4,1(a1)
20005d94:	0025c683          	lbu	a3,2(a1)
20005d98:	00f60023          	sb	a5,0(a2)
20005d9c:	00078a63          	beqz	a5,20005db0 <strcpy+0x80>
20005da0:	00e600a3          	sb	a4,1(a2)
20005da4:	00070663          	beqz	a4,20005db0 <strcpy+0x80>
20005da8:	00d60123          	sb	a3,2(a2)
20005dac:	00069463          	bnez	a3,20005db4 <strcpy+0x84>
20005db0:	00008067          	ret
20005db4:	000601a3          	sb	zero,3(a2)
20005db8:	00008067          	ret
20005dbc:	00050793          	mv	a5,a0
20005dc0:	0005c703          	lbu	a4,0(a1)
20005dc4:	00178793          	addi	a5,a5,1
20005dc8:	00158593          	addi	a1,a1,1
20005dcc:	fee78fa3          	sb	a4,-1(a5)
20005dd0:	fe0718e3          	bnez	a4,20005dc0 <strcpy+0x90>
20005dd4:	00008067          	ret
20005dd8:	00050613          	mv	a2,a0
20005ddc:	fb1ff06f          	j	20005d8c <strcpy+0x5c>

20005de0 <two_way_long_needle>:
20005de0:	bc010113          	addi	sp,sp,-1088
20005de4:	42912a23          	sw	s1,1076(sp)
20005de8:	43212823          	sw	s2,1072(sp)
20005dec:	43612023          	sw	s6,1056(sp)
20005df0:	41812c23          	sw	s8,1048(sp)
20005df4:	42112e23          	sw	ra,1084(sp)
20005df8:	42812c23          	sw	s0,1080(sp)
20005dfc:	43312623          	sw	s3,1068(sp)
20005e00:	43412423          	sw	s4,1064(sp)
20005e04:	43512223          	sw	s5,1060(sp)
20005e08:	41712e23          	sw	s7,1052(sp)
20005e0c:	41912a23          	sw	s9,1044(sp)
20005e10:	41a12823          	sw	s10,1040(sp)
20005e14:	41b12623          	sw	s11,1036(sp)
20005e18:	00100793          	li	a5,1
20005e1c:	00068b13          	mv	s6,a3
20005e20:	00050913          	mv	s2,a0
20005e24:	00058c13          	mv	s8,a1
20005e28:	00060493          	mv	s1,a2
20005e2c:	3cd7f263          	bgeu	a5,a3,200061f0 <two_way_long_needle+0x410>
20005e30:	00000613          	li	a2,0
20005e34:	00100c93          	li	s9,1
20005e38:	00100693          	li	a3,1
20005e3c:	fff00b93          	li	s7,-1
20005e40:	0180006f          	j	20005e58 <two_way_long_needle+0x78>
20005e44:	41778cb3          	sub	s9,a5,s7
20005e48:	00078613          	mv	a2,a5
20005e4c:	00100693          	li	a3,1
20005e50:	00d607b3          	add	a5,a2,a3
20005e54:	0367fc63          	bgeu	a5,s6,20005e8c <two_way_long_needle+0xac>
20005e58:	01748733          	add	a4,s1,s7
20005e5c:	00d70733          	add	a4,a4,a3
20005e60:	00f485b3          	add	a1,s1,a5
20005e64:	0005c583          	lbu	a1,0(a1)
20005e68:	00074703          	lbu	a4,0(a4)
20005e6c:	fce5ece3          	bltu	a1,a4,20005e44 <two_way_long_needle+0x64>
20005e70:	1ae58463          	beq	a1,a4,20006018 <two_way_long_needle+0x238>
20005e74:	00060b93          	mv	s7,a2
20005e78:	00100693          	li	a3,1
20005e7c:	00160613          	addi	a2,a2,1
20005e80:	00d607b3          	add	a5,a2,a3
20005e84:	00100c93          	li	s9,1
20005e88:	fd67e8e3          	bltu	a5,s6,20005e58 <two_way_long_needle+0x78>
20005e8c:	00000593          	li	a1,0
20005e90:	00100813          	li	a6,1
20005e94:	00100613          	li	a2,1
20005e98:	fff00513          	li	a0,-1
20005e9c:	00100713          	li	a4,1
20005ea0:	0180006f          	j	20005eb8 <two_way_long_needle+0xd8>
20005ea4:	40a70833          	sub	a6,a4,a0
20005ea8:	00070593          	mv	a1,a4
20005eac:	00100613          	li	a2,1
20005eb0:	00c58733          	add	a4,a1,a2
20005eb4:	03677c63          	bgeu	a4,s6,20005eec <two_way_long_needle+0x10c>
20005eb8:	00c487b3          	add	a5,s1,a2
20005ebc:	00e486b3          	add	a3,s1,a4
20005ec0:	00a787b3          	add	a5,a5,a0
20005ec4:	0006c683          	lbu	a3,0(a3)
20005ec8:	0007c783          	lbu	a5,0(a5)
20005ecc:	fcd7ece3          	bltu	a5,a3,20005ea4 <two_way_long_needle+0xc4>
20005ed0:	14d78a63          	beq	a5,a3,20006024 <two_way_long_needle+0x244>
20005ed4:	00058513          	mv	a0,a1
20005ed8:	00100613          	li	a2,1
20005edc:	00158593          	addi	a1,a1,1
20005ee0:	00c58733          	add	a4,a1,a2
20005ee4:	00100813          	li	a6,1
20005ee8:	fd6768e3          	bltu	a4,s6,20005eb8 <two_way_long_needle+0xd8>
20005eec:	00150513          	addi	a0,a0,1
20005ef0:	001b8b93          	addi	s7,s7,1
20005ef4:	01756663          	bltu	a0,s7,20005f00 <two_way_long_needle+0x120>
20005ef8:	00080c93          	mv	s9,a6
20005efc:	00050b93          	mv	s7,a0
20005f00:	00010793          	mv	a5,sp
20005f04:	40010713          	addi	a4,sp,1024
20005f08:	0167a023          	sw	s6,0(a5)
20005f0c:	00478793          	addi	a5,a5,4
20005f10:	fee79ce3          	bne	a5,a4,20005f08 <two_way_long_needle+0x128>
20005f14:	020b0a63          	beqz	s6,20005f48 <two_way_long_needle+0x168>
20005f18:	fffb0613          	addi	a2,s6,-1
20005f1c:	009b05b3          	add	a1,s6,s1
20005f20:	00048713          	mv	a4,s1
20005f24:	00c48633          	add	a2,s1,a2
20005f28:	00074783          	lbu	a5,0(a4)
20005f2c:	40e606b3          	sub	a3,a2,a4
20005f30:	00170713          	addi	a4,a4,1
20005f34:	00279793          	slli	a5,a5,0x2
20005f38:	40078793          	addi	a5,a5,1024
20005f3c:	002787b3          	add	a5,a5,sp
20005f40:	c0d7a023          	sw	a3,-1024(a5)
20005f44:	fee592e3          	bne	a1,a4,20005f28 <two_way_long_needle+0x148>
20005f48:	000b8613          	mv	a2,s7
20005f4c:	019485b3          	add	a1,s1,s9
20005f50:	00048513          	mv	a0,s1
20005f54:	995ff0ef          	jal	ra,200058e8 <memcmp>
20005f58:	16051263          	bnez	a0,200060bc <two_way_long_needle+0x2dc>
20005f5c:	000019b7          	lui	s3,0x1
20005f60:	80098993          	addi	s3,s3,-2048 # 800 <_start-0x1ffff800>
20005f64:	00100a13          	li	s4,1
20005f68:	00000d93          	li	s11,0
20005f6c:	00000413          	li	s0,0
20005f70:	416c06b3          	sub	a3,s8,s6
20005f74:	013b69b3          	or	s3,s6,s3
20005f78:	fffb0d13          	addi	s10,s6,-1
20005f7c:	417a0a33          	sub	s4,s4,s7
20005f80:	419b0ab3          	sub	s5,s6,s9
20005f84:	0286ee63          	bltu	a3,s0,20005fc0 <two_way_long_needle+0x1e0>
20005f88:	00890633          	add	a2,s2,s0
20005f8c:	01a607b3          	add	a5,a2,s10
20005f90:	0007c783          	lbu	a5,0(a5)
20005f94:	00279793          	slli	a5,a5,0x2
20005f98:	40078793          	addi	a5,a5,1024
20005f9c:	002787b3          	add	a5,a5,sp
20005fa0:	c007a783          	lw	a5,-1024(a5)
20005fa4:	08078663          	beqz	a5,20006030 <two_way_long_needle+0x250>
20005fa8:	000d8663          	beqz	s11,20005fb4 <two_way_long_needle+0x1d4>
20005fac:	0197f463          	bgeu	a5,s9,20005fb4 <two_way_long_needle+0x1d4>
20005fb0:	000a8793          	mv	a5,s5
20005fb4:	00f40433          	add	s0,s0,a5
20005fb8:	00000d93          	li	s11,0
20005fbc:	fc86f6e3          	bgeu	a3,s0,20005f88 <two_way_long_needle+0x1a8>
20005fc0:	01890533          	add	a0,s2,s8
20005fc4:	00098593          	mv	a1,s3
20005fc8:	2d1000ef          	jal	ra,20006a98 <strnlen>
20005fcc:	00ac0c33          	add	s8,s8,a0
20005fd0:	416c06b3          	sub	a3,s8,s6
20005fd4:	fa86fae3          	bgeu	a3,s0,20005f88 <two_way_long_needle+0x1a8>
20005fd8:	00000513          	li	a0,0
20005fdc:	43c12083          	lw	ra,1084(sp)
20005fe0:	43812403          	lw	s0,1080(sp)
20005fe4:	43412483          	lw	s1,1076(sp)
20005fe8:	43012903          	lw	s2,1072(sp)
20005fec:	42c12983          	lw	s3,1068(sp)
20005ff0:	42812a03          	lw	s4,1064(sp)
20005ff4:	42412a83          	lw	s5,1060(sp)
20005ff8:	42012b03          	lw	s6,1056(sp)
20005ffc:	41c12b83          	lw	s7,1052(sp)
20006000:	41812c03          	lw	s8,1048(sp)
20006004:	41412c83          	lw	s9,1044(sp)
20006008:	41012d03          	lw	s10,1040(sp)
2000600c:	40c12d83          	lw	s11,1036(sp)
20006010:	44010113          	addi	sp,sp,1088
20006014:	00008067          	ret
20006018:	1b968e63          	beq	a3,s9,200061d4 <two_way_long_needle+0x3f4>
2000601c:	00168693          	addi	a3,a3,1
20006020:	e31ff06f          	j	20005e50 <two_way_long_needle+0x70>
20006024:	1ac80263          	beq	a6,a2,200061c8 <two_way_long_needle+0x3e8>
20006028:	00160613          	addi	a2,a2,1
2000602c:	e85ff06f          	j	20005eb0 <two_way_long_needle+0xd0>
20006030:	000d8713          	mv	a4,s11
20006034:	017df463          	bgeu	s11,s7,2000603c <two_way_long_needle+0x25c>
20006038:	000b8713          	mv	a4,s7
2000603c:	03a77263          	bgeu	a4,s10,20006060 <two_way_long_needle+0x280>
20006040:	00e407b3          	add	a5,s0,a4
20006044:	00e48833          	add	a6,s1,a4
20006048:	00f907b3          	add	a5,s2,a5
2000604c:	00084503          	lbu	a0,0(a6)
20006050:	0007c783          	lbu	a5,0(a5)
20006054:	04f51a63          	bne	a0,a5,200060a8 <two_way_long_needle+0x2c8>
20006058:	00170713          	addi	a4,a4,1
2000605c:	ffa762e3          	bltu	a4,s10,20006040 <two_way_long_needle+0x260>
20006060:	fffb8713          	addi	a4,s7,-1
20006064:	017de863          	bltu	s11,s7,20006074 <two_way_long_needle+0x294>
20006068:	1800006f          	j	200061e8 <two_way_long_needle+0x408>
2000606c:	02ed8463          	beq	s11,a4,20006094 <two_way_long_needle+0x2b4>
20006070:	00050713          	mv	a4,a0
20006074:	00e407b3          	add	a5,s0,a4
20006078:	00e485b3          	add	a1,s1,a4
2000607c:	00f907b3          	add	a5,s2,a5
20006080:	0005c583          	lbu	a1,0(a1)
20006084:	0007c783          	lbu	a5,0(a5)
20006088:	fff70513          	addi	a0,a4,-1
2000608c:	fef580e3          	beq	a1,a5,2000606c <two_way_long_needle+0x28c>
20006090:	00170713          	addi	a4,a4,1
20006094:	001d8d93          	addi	s11,s11,1
20006098:	15b76463          	bltu	a4,s11,200061e0 <two_way_long_needle+0x400>
2000609c:	01940433          	add	s0,s0,s9
200060a0:	000a8d93          	mv	s11,s5
200060a4:	ee1ff06f          	j	20005f84 <two_way_long_needle+0x1a4>
200060a8:	fba77ce3          	bgeu	a4,s10,20006060 <two_way_long_needle+0x280>
200060ac:	008a0433          	add	s0,s4,s0
200060b0:	00870433          	add	s0,a4,s0
200060b4:	00000d93          	li	s11,0
200060b8:	ecdff06f          	j	20005f84 <two_way_long_needle+0x1a4>
200060bc:	417b0a33          	sub	s4,s6,s7
200060c0:	117a6063          	bltu	s4,s7,200061c0 <two_way_long_needle+0x3e0>
200060c4:	00001437          	lui	s0,0x1
200060c8:	80040413          	addi	s0,s0,-2048 # 800 <_start-0x1ffff800>
200060cc:	00100993          	li	s3,1
200060d0:	001a0a13          	addi	s4,s4,1
200060d4:	00000a93          	li	s5,0
200060d8:	416c06b3          	sub	a3,s8,s6
200060dc:	008b6433          	or	s0,s6,s0
200060e0:	fffb0c93          	addi	s9,s6,-1
200060e4:	417989b3          	sub	s3,s3,s7
200060e8:	fff00d13          	li	s10,-1
200060ec:	0356e663          	bltu	a3,s5,20006118 <two_way_long_needle+0x338>
200060f0:	01590533          	add	a0,s2,s5
200060f4:	019507b3          	add	a5,a0,s9
200060f8:	0007c783          	lbu	a5,0(a5)
200060fc:	00279793          	slli	a5,a5,0x2
20006100:	40078793          	addi	a5,a5,1024
20006104:	002787b3          	add	a5,a5,sp
20006108:	c007a783          	lw	a5,-1024(a5)
2000610c:	04078263          	beqz	a5,20006150 <two_way_long_needle+0x370>
20006110:	00fa8ab3          	add	s5,s5,a5
20006114:	fd56fee3          	bgeu	a3,s5,200060f0 <two_way_long_needle+0x310>
20006118:	01890533          	add	a0,s2,s8
2000611c:	00040593          	mv	a1,s0
20006120:	179000ef          	jal	ra,20006a98 <strnlen>
20006124:	00ac0c33          	add	s8,s8,a0
20006128:	416c06b3          	sub	a3,s8,s6
2000612c:	eb56e6e3          	bltu	a3,s5,20005fd8 <two_way_long_needle+0x1f8>
20006130:	01590533          	add	a0,s2,s5
20006134:	019507b3          	add	a5,a0,s9
20006138:	0007c783          	lbu	a5,0(a5)
2000613c:	00279793          	slli	a5,a5,0x2
20006140:	40078793          	addi	a5,a5,1024
20006144:	002787b3          	add	a5,a5,sp
20006148:	c007a783          	lw	a5,-1024(a5)
2000614c:	fc0792e3          	bnez	a5,20006110 <two_way_long_needle+0x330>
20006150:	000b8713          	mv	a4,s7
20006154:	019be863          	bltu	s7,s9,20006164 <two_way_long_needle+0x384>
20006158:	0340006f          	j	2000618c <two_way_long_needle+0x3ac>
2000615c:	00170713          	addi	a4,a4,1
20006160:	03977663          	bgeu	a4,s9,2000618c <two_way_long_needle+0x3ac>
20006164:	015707b3          	add	a5,a4,s5
20006168:	00e485b3          	add	a1,s1,a4
2000616c:	00f907b3          	add	a5,s2,a5
20006170:	0005c603          	lbu	a2,0(a1)
20006174:	0007c783          	lbu	a5,0(a5)
20006178:	fef602e3          	beq	a2,a5,2000615c <two_way_long_needle+0x37c>
2000617c:	01977863          	bgeu	a4,s9,2000618c <two_way_long_needle+0x3ac>
20006180:	01598ab3          	add	s5,s3,s5
20006184:	01570ab3          	add	s5,a4,s5
20006188:	f65ff06f          	j	200060ec <two_way_long_needle+0x30c>
2000618c:	fffb8793          	addi	a5,s7,-1
20006190:	01a79663          	bne	a5,s10,2000619c <two_way_long_needle+0x3bc>
20006194:	e49ff06f          	j	20005fdc <two_way_long_needle+0x1fc>
20006198:	e5a782e3          	beq	a5,s10,20005fdc <two_way_long_needle+0x1fc>
2000619c:	00fa8733          	add	a4,s5,a5
200061a0:	00f48633          	add	a2,s1,a5
200061a4:	00e90733          	add	a4,s2,a4
200061a8:	00064603          	lbu	a2,0(a2)
200061ac:	00074703          	lbu	a4,0(a4)
200061b0:	fff78793          	addi	a5,a5,-1
200061b4:	fee602e3          	beq	a2,a4,20006198 <two_way_long_needle+0x3b8>
200061b8:	014a8ab3          	add	s5,s5,s4
200061bc:	f31ff06f          	j	200060ec <two_way_long_needle+0x30c>
200061c0:	000b8a13          	mv	s4,s7
200061c4:	f01ff06f          	j	200060c4 <two_way_long_needle+0x2e4>
200061c8:	010585b3          	add	a1,a1,a6
200061cc:	00100613          	li	a2,1
200061d0:	ce1ff06f          	j	20005eb0 <two_way_long_needle+0xd0>
200061d4:	00d60633          	add	a2,a2,a3
200061d8:	00100693          	li	a3,1
200061dc:	c75ff06f          	j	20005e50 <two_way_long_needle+0x70>
200061e0:	00060513          	mv	a0,a2
200061e4:	df9ff06f          	j	20005fdc <two_way_long_needle+0x1fc>
200061e8:	000b8713          	mv	a4,s7
200061ec:	ea9ff06f          	j	20006094 <two_way_long_needle+0x2b4>
200061f0:	00100c93          	li	s9,1
200061f4:	00000b93          	li	s7,0
200061f8:	d09ff06f          	j	20005f00 <two_way_long_needle+0x120>

200061fc <strstr>:
200061fc:	fa010113          	addi	sp,sp,-96
20006200:	04812c23          	sw	s0,88(sp)
20006204:	04912a23          	sw	s1,84(sp)
20006208:	04112e23          	sw	ra,92(sp)
2000620c:	05212823          	sw	s2,80(sp)
20006210:	05312623          	sw	s3,76(sp)
20006214:	05412423          	sw	s4,72(sp)
20006218:	00058493          	mv	s1,a1
2000621c:	0005c583          	lbu	a1,0(a1)
20006220:	00050413          	mv	s0,a0
20006224:	0e058863          	beqz	a1,20006314 <strstr+0x118>
20006228:	0014c603          	lbu	a2,1(s1)
2000622c:	1a060c63          	beqz	a2,200063e4 <strstr+0x1e8>
20006230:	0024c703          	lbu	a4,2(s1)
20006234:	10070263          	beqz	a4,20006338 <strstr+0x13c>
20006238:	0034c503          	lbu	a0,3(s1)
2000623c:	1c050863          	beqz	a0,2000640c <strstr+0x210>
20006240:	0044c783          	lbu	a5,4(s1)
20006244:	12078463          	beqz	a5,2000636c <strstr+0x170>
20006248:	00048513          	mv	a0,s1
2000624c:	7c0000ef          	jal	ra,20006a0c <strlen>
20006250:	00050913          	mv	s2,a0
20006254:	20056593          	ori	a1,a0,512
20006258:	00040513          	mv	a0,s0
2000625c:	03d000ef          	jal	ra,20006a98 <strnlen>
20006260:	15256a63          	bltu	a0,s2,200063b4 <strstr+0x1b8>
20006264:	0fe00793          	li	a5,254
20006268:	1f27e663          	bltu	a5,s2,20006454 <strstr+0x258>
2000626c:	412509b3          	sub	s3,a0,s2
20006270:	04000613          	li	a2,64
20006274:	00190593          	addi	a1,s2,1
20006278:	00010513          	mv	a0,sp
2000627c:	013409b3          	add	s3,s0,s3
20006280:	e11f90ef          	jal	ra,20000090 <memset>
20006284:	02090a63          	beqz	s2,200062b8 <strstr+0xbc>
20006288:	0ff97613          	zext.b	a2,s2
2000628c:	00048713          	mv	a4,s1
20006290:	009905b3          	add	a1,s2,s1
20006294:	00c48633          	add	a2,s1,a2
20006298:	00074783          	lbu	a5,0(a4)
2000629c:	40e606b3          	sub	a3,a2,a4
200062a0:	00170713          	addi	a4,a4,1
200062a4:	03f7f793          	andi	a5,a5,63
200062a8:	04078793          	addi	a5,a5,64
200062ac:	002787b3          	add	a5,a5,sp
200062b0:	fcd78023          	sb	a3,-64(a5)
200062b4:	fee592e3          	bne	a1,a4,20006298 <strstr+0x9c>
200062b8:	fff40413          	addi	s0,s0,-1
200062bc:	012407b3          	add	a5,s0,s2
200062c0:	0007c783          	lbu	a5,0(a5)
200062c4:	03f7f793          	andi	a5,a5,63
200062c8:	04078793          	addi	a5,a5,64
200062cc:	002787b3          	add	a5,a5,sp
200062d0:	fc07c783          	lbu	a5,-64(a5)
200062d4:	00f40433          	add	s0,s0,a5
200062d8:	0089f863          	bgeu	s3,s0,200062e8 <strstr+0xec>
200062dc:	0e00006f          	j	200063bc <strstr+0x1c0>
200062e0:	01440433          	add	s0,s0,s4
200062e4:	0c89ec63          	bltu	s3,s0,200063bc <strstr+0x1c0>
200062e8:	012407b3          	add	a5,s0,s2
200062ec:	0007c783          	lbu	a5,0(a5)
200062f0:	00040513          	mv	a0,s0
200062f4:	00090613          	mv	a2,s2
200062f8:	03f7f793          	andi	a5,a5,63
200062fc:	04078793          	addi	a5,a5,64
20006300:	002787b3          	add	a5,a5,sp
20006304:	00048593          	mv	a1,s1
20006308:	fc07ca03          	lbu	s4,-64(a5)
2000630c:	ddcff0ef          	jal	ra,200058e8 <memcmp>
20006310:	fc0518e3          	bnez	a0,200062e0 <strstr+0xe4>
20006314:	05c12083          	lw	ra,92(sp)
20006318:	00040513          	mv	a0,s0
2000631c:	05812403          	lw	s0,88(sp)
20006320:	05412483          	lw	s1,84(sp)
20006324:	05012903          	lw	s2,80(sp)
20006328:	04c12983          	lw	s3,76(sp)
2000632c:	04812a03          	lw	s4,72(sp)
20006330:	06010113          	addi	sp,sp,96
20006334:	00008067          	ret
20006338:	00054703          	lbu	a4,0(a0)
2000633c:	01059593          	slli	a1,a1,0x10
20006340:	00c5e5b3          	or	a1,a1,a2
20006344:	00000793          	li	a5,0
20006348:	06070663          	beqz	a4,200063b4 <strstr+0x1b8>
2000634c:	01079793          	slli	a5,a5,0x10
20006350:	00040693          	mv	a3,s0
20006354:	00f767b3          	or	a5,a4,a5
20006358:	00140413          	addi	s0,s0,1
2000635c:	00044703          	lbu	a4,0(s0)
20006360:	fef594e3          	bne	a1,a5,20006348 <strstr+0x14c>
20006364:	fff68413          	addi	s0,a3,-1
20006368:	fadff06f          	j	20006314 <strstr+0x118>
2000636c:	01859793          	slli	a5,a1,0x18
20006370:	01061613          	slli	a2,a2,0x10
20006374:	00044683          	lbu	a3,0(s0)
20006378:	00c7e7b3          	or	a5,a5,a2
2000637c:	00a7e7b3          	or	a5,a5,a0
20006380:	00871713          	slli	a4,a4,0x8
20006384:	00e7e7b3          	or	a5,a5,a4
20006388:	02068663          	beqz	a3,200063b4 <strstr+0x1b8>
2000638c:	00000713          	li	a4,0
20006390:	0080006f          	j	20006398 <strstr+0x19c>
20006394:	06e78863          	beq	a5,a4,20006404 <strstr+0x208>
20006398:	00040613          	mv	a2,s0
2000639c:	00871713          	slli	a4,a4,0x8
200063a0:	00140413          	addi	s0,s0,1
200063a4:	00e6e733          	or	a4,a3,a4
200063a8:	00044683          	lbu	a3,0(s0)
200063ac:	fe0694e3          	bnez	a3,20006394 <strstr+0x198>
200063b0:	04e78a63          	beq	a5,a4,20006404 <strstr+0x208>
200063b4:	00000413          	li	s0,0
200063b8:	f5dff06f          	j	20006314 <strstr+0x118>
200063bc:	01298533          	add	a0,s3,s2
200063c0:	00054783          	lbu	a5,0(a0)
200063c4:	fe0788e3          	beqz	a5,200063b4 <strstr+0x1b8>
200063c8:	000015b7          	lui	a1,0x1
200063cc:	80058593          	addi	a1,a1,-2048 # 800 <_start-0x1ffff800>
200063d0:	6c8000ef          	jal	ra,20006a98 <strnlen>
200063d4:	00a989b3          	add	s3,s3,a0
200063d8:	ee89f0e3          	bgeu	s3,s0,200062b8 <strstr+0xbc>
200063dc:	00000413          	li	s0,0
200063e0:	f35ff06f          	j	20006314 <strstr+0x118>
200063e4:	05812403          	lw	s0,88(sp)
200063e8:	05c12083          	lw	ra,92(sp)
200063ec:	05412483          	lw	s1,84(sp)
200063f0:	05012903          	lw	s2,80(sp)
200063f4:	04c12983          	lw	s3,76(sp)
200063f8:	04812a03          	lw	s4,72(sp)
200063fc:	06010113          	addi	sp,sp,96
20006400:	ff0ff06f          	j	20005bf0 <strchr>
20006404:	ffd60413          	addi	s0,a2,-3
20006408:	f0dff06f          	j	20006314 <strstr+0x118>
2000640c:	00044683          	lbu	a3,0(s0)
20006410:	01859793          	slli	a5,a1,0x18
20006414:	01061613          	slli	a2,a2,0x10
20006418:	00c7e7b3          	or	a5,a5,a2
2000641c:	00871713          	slli	a4,a4,0x8
20006420:	00e7e7b3          	or	a5,a5,a4
20006424:	f80688e3          	beqz	a3,200063b4 <strstr+0x1b8>
20006428:	00000713          	li	a4,0
2000642c:	0080006f          	j	20006434 <strstr+0x238>
20006430:	f80682e3          	beqz	a3,200063b4 <strstr+0x1b8>
20006434:	00e6e733          	or	a4,a3,a4
20006438:	00040613          	mv	a2,s0
2000643c:	00871713          	slli	a4,a4,0x8
20006440:	00140413          	addi	s0,s0,1
20006444:	00044683          	lbu	a3,0(s0)
20006448:	fef714e3          	bne	a4,a5,20006430 <strstr+0x234>
2000644c:	ffe60413          	addi	s0,a2,-2
20006450:	ec5ff06f          	j	20006314 <strstr+0x118>
20006454:	00050593          	mv	a1,a0
20006458:	00040513          	mv	a0,s0
2000645c:	05812403          	lw	s0,88(sp)
20006460:	05c12083          	lw	ra,92(sp)
20006464:	04c12983          	lw	s3,76(sp)
20006468:	04812a03          	lw	s4,72(sp)
2000646c:	00090693          	mv	a3,s2
20006470:	00048613          	mv	a2,s1
20006474:	05012903          	lw	s2,80(sp)
20006478:	05412483          	lw	s1,84(sp)
2000647c:	06010113          	addi	sp,sp,96
20006480:	961ff06f          	j	20005de0 <two_way_long_needle>

20006484 <strtok>:
20006484:	200097b7          	lui	a5,0x20009
20006488:	7307a603          	lw	a2,1840(a5) # 20009730 <_impure_ptr>
2000648c:	00100693          	li	a3,1
20006490:	05c60613          	addi	a2,a2,92
20006494:	0040006f          	j	20006498 <__strtok_r>

20006498 <__strtok_r>:
20006498:	06050863          	beqz	a0,20006508 <__strtok_r+0x70>
2000649c:	00054803          	lbu	a6,0(a0)
200064a0:	00150893          	addi	a7,a0,1
200064a4:	00058793          	mv	a5,a1
200064a8:	0080006f          	j	200064b0 <__strtok_r+0x18>
200064ac:	04e80263          	beq	a6,a4,200064f0 <__strtok_r+0x58>
200064b0:	0007c703          	lbu	a4,0(a5)
200064b4:	00178793          	addi	a5,a5,1
200064b8:	fe071ae3          	bnez	a4,200064ac <__strtok_r+0x14>
200064bc:	04080e63          	beqz	a6,20006518 <__strtok_r+0x80>
200064c0:	0008c683          	lbu	a3,0(a7)
200064c4:	00058793          	mv	a5,a1
200064c8:	00188893          	addi	a7,a7,1
200064cc:	0080006f          	j	200064d4 <__strtok_r+0x3c>
200064d0:	fe0708e3          	beqz	a4,200064c0 <__strtok_r+0x28>
200064d4:	0007c703          	lbu	a4,0(a5)
200064d8:	00178793          	addi	a5,a5,1
200064dc:	fee69ae3          	bne	a3,a4,200064d0 <__strtok_r+0x38>
200064e0:	00068e63          	beqz	a3,200064fc <__strtok_r+0x64>
200064e4:	fe088fa3          	sb	zero,-1(a7)
200064e8:	01162023          	sw	a7,0(a2)
200064ec:	00008067          	ret
200064f0:	02068a63          	beqz	a3,20006524 <__strtok_r+0x8c>
200064f4:	00088513          	mv	a0,a7
200064f8:	fa5ff06f          	j	2000649c <__strtok_r+0x4>
200064fc:	00000893          	li	a7,0
20006500:	01162023          	sw	a7,0(a2)
20006504:	00008067          	ret
20006508:	00062503          	lw	a0,0(a2)
2000650c:	f80518e3          	bnez	a0,2000649c <__strtok_r+0x4>
20006510:	00000513          	li	a0,0
20006514:	00008067          	ret
20006518:	00062023          	sw	zero,0(a2)
2000651c:	00000513          	li	a0,0
20006520:	00008067          	ret
20006524:	01162023          	sw	a7,0(a2)
20006528:	00050023          	sb	zero,0(a0)
2000652c:	00008067          	ret

20006530 <__register_exitproc>:
20006530:	200097b7          	lui	a5,0x20009
20006534:	73c7a703          	lw	a4,1852(a5) # 2000973c <_global_impure_ptr>
20006538:	14872783          	lw	a5,328(a4)
2000653c:	04078c63          	beqz	a5,20006594 <__register_exitproc+0x64>
20006540:	0047a703          	lw	a4,4(a5)
20006544:	01f00813          	li	a6,31
20006548:	06e84e63          	blt	a6,a4,200065c4 <__register_exitproc+0x94>
2000654c:	00271813          	slli	a6,a4,0x2
20006550:	02050663          	beqz	a0,2000657c <__register_exitproc+0x4c>
20006554:	01078333          	add	t1,a5,a6
20006558:	08c32423          	sw	a2,136(t1)
2000655c:	1887a883          	lw	a7,392(a5)
20006560:	00100613          	li	a2,1
20006564:	00e61633          	sll	a2,a2,a4
20006568:	00c8e8b3          	or	a7,a7,a2
2000656c:	1917a423          	sw	a7,392(a5)
20006570:	10d32423          	sw	a3,264(t1)
20006574:	00200693          	li	a3,2
20006578:	02d50463          	beq	a0,a3,200065a0 <__register_exitproc+0x70>
2000657c:	00170713          	addi	a4,a4,1
20006580:	00e7a223          	sw	a4,4(a5)
20006584:	010787b3          	add	a5,a5,a6
20006588:	00b7a423          	sw	a1,8(a5)
2000658c:	00000513          	li	a0,0
20006590:	00008067          	ret
20006594:	14c70793          	addi	a5,a4,332
20006598:	14f72423          	sw	a5,328(a4)
2000659c:	fa5ff06f          	j	20006540 <__register_exitproc+0x10>
200065a0:	18c7a683          	lw	a3,396(a5)
200065a4:	00170713          	addi	a4,a4,1
200065a8:	00e7a223          	sw	a4,4(a5)
200065ac:	00c6e6b3          	or	a3,a3,a2
200065b0:	18d7a623          	sw	a3,396(a5)
200065b4:	010787b3          	add	a5,a5,a6
200065b8:	00b7a423          	sw	a1,8(a5)
200065bc:	00000513          	li	a0,0
200065c0:	00008067          	ret
200065c4:	fff00513          	li	a0,-1
200065c8:	00008067          	ret

200065cc <_malloc_trim_r>:
200065cc:	fe010113          	addi	sp,sp,-32
200065d0:	01312623          	sw	s3,12(sp)
200065d4:	200099b7          	lui	s3,0x20009
200065d8:	00812c23          	sw	s0,24(sp)
200065dc:	00912a23          	sw	s1,20(sp)
200065e0:	01212823          	sw	s2,16(sp)
200065e4:	01412423          	sw	s4,8(sp)
200065e8:	00112e23          	sw	ra,28(sp)
200065ec:	00058a13          	mv	s4,a1
200065f0:	00050913          	mv	s2,a0
200065f4:	2b098993          	addi	s3,s3,688 # 200092b0 <__malloc_av_>
200065f8:	d0cff0ef          	jal	ra,20005b04 <__malloc_lock>
200065fc:	0089a703          	lw	a4,8(s3)
20006600:	000017b7          	lui	a5,0x1
20006604:	fef78413          	addi	s0,a5,-17 # fef <_start-0x1ffff011>
20006608:	00472483          	lw	s1,4(a4)
2000660c:	ffc4f493          	andi	s1,s1,-4
20006610:	00848433          	add	s0,s1,s0
20006614:	41440433          	sub	s0,s0,s4
20006618:	00c45413          	srli	s0,s0,0xc
2000661c:	fff40413          	addi	s0,s0,-1
20006620:	00c41413          	slli	s0,s0,0xc
20006624:	00f44e63          	blt	s0,a5,20006640 <_malloc_trim_r+0x74>
20006628:	00000593          	li	a1,0
2000662c:	00090513          	mv	a0,s2
20006630:	cdcff0ef          	jal	ra,20005b0c <_sbrk_r>
20006634:	0089a783          	lw	a5,8(s3)
20006638:	009787b3          	add	a5,a5,s1
2000663c:	02f50863          	beq	a0,a5,2000666c <_malloc_trim_r+0xa0>
20006640:	00090513          	mv	a0,s2
20006644:	cc4ff0ef          	jal	ra,20005b08 <__malloc_unlock>
20006648:	01c12083          	lw	ra,28(sp)
2000664c:	01812403          	lw	s0,24(sp)
20006650:	01412483          	lw	s1,20(sp)
20006654:	01012903          	lw	s2,16(sp)
20006658:	00c12983          	lw	s3,12(sp)
2000665c:	00812a03          	lw	s4,8(sp)
20006660:	00000513          	li	a0,0
20006664:	02010113          	addi	sp,sp,32
20006668:	00008067          	ret
2000666c:	408005b3          	neg	a1,s0
20006670:	00090513          	mv	a0,s2
20006674:	c98ff0ef          	jal	ra,20005b0c <_sbrk_r>
20006678:	fff00793          	li	a5,-1
2000667c:	04f50863          	beq	a0,a5,200066cc <_malloc_trim_r+0x100>
20006680:	2fc18793          	addi	a5,gp,764 # 2000a22c <__malloc_current_mallinfo>
20006684:	0007a703          	lw	a4,0(a5)
20006688:	0089a683          	lw	a3,8(s3)
2000668c:	408484b3          	sub	s1,s1,s0
20006690:	0014e493          	ori	s1,s1,1
20006694:	40870733          	sub	a4,a4,s0
20006698:	00090513          	mv	a0,s2
2000669c:	0096a223          	sw	s1,4(a3)
200066a0:	00e7a023          	sw	a4,0(a5)
200066a4:	c64ff0ef          	jal	ra,20005b08 <__malloc_unlock>
200066a8:	01c12083          	lw	ra,28(sp)
200066ac:	01812403          	lw	s0,24(sp)
200066b0:	01412483          	lw	s1,20(sp)
200066b4:	01012903          	lw	s2,16(sp)
200066b8:	00c12983          	lw	s3,12(sp)
200066bc:	00812a03          	lw	s4,8(sp)
200066c0:	00100513          	li	a0,1
200066c4:	02010113          	addi	sp,sp,32
200066c8:	00008067          	ret
200066cc:	00000593          	li	a1,0
200066d0:	00090513          	mv	a0,s2
200066d4:	c38ff0ef          	jal	ra,20005b0c <_sbrk_r>
200066d8:	0089a703          	lw	a4,8(s3)
200066dc:	00f00693          	li	a3,15
200066e0:	40e507b3          	sub	a5,a0,a4
200066e4:	f4f6dee3          	bge	a3,a5,20006640 <_malloc_trim_r+0x74>
200066e8:	200096b7          	lui	a3,0x20009
200066ec:	7346a683          	lw	a3,1844(a3) # 20009734 <__malloc_sbrk_base>
200066f0:	0017e793          	ori	a5,a5,1
200066f4:	00f72223          	sw	a5,4(a4)
200066f8:	40d50533          	sub	a0,a0,a3
200066fc:	2ea1ae23          	sw	a0,764(gp) # 2000a22c <__malloc_current_mallinfo>
20006700:	f41ff06f          	j	20006640 <_malloc_trim_r+0x74>

20006704 <_free_r>:
20006704:	18058263          	beqz	a1,20006888 <_free_r+0x184>
20006708:	ff010113          	addi	sp,sp,-16
2000670c:	00812423          	sw	s0,8(sp)
20006710:	00912223          	sw	s1,4(sp)
20006714:	00058413          	mv	s0,a1
20006718:	00050493          	mv	s1,a0
2000671c:	00112623          	sw	ra,12(sp)
20006720:	be4ff0ef          	jal	ra,20005b04 <__malloc_lock>
20006724:	ffc42503          	lw	a0,-4(s0)
20006728:	ff840713          	addi	a4,s0,-8
2000672c:	200095b7          	lui	a1,0x20009
20006730:	ffe57793          	andi	a5,a0,-2
20006734:	00f70633          	add	a2,a4,a5
20006738:	2b058593          	addi	a1,a1,688 # 200092b0 <__malloc_av_>
2000673c:	00462683          	lw	a3,4(a2)
20006740:	0085a803          	lw	a6,8(a1)
20006744:	ffc6f693          	andi	a3,a3,-4
20006748:	1ac80263          	beq	a6,a2,200068ec <_free_r+0x1e8>
2000674c:	00d62223          	sw	a3,4(a2)
20006750:	00157513          	andi	a0,a0,1
20006754:	00d60833          	add	a6,a2,a3
20006758:	0a051063          	bnez	a0,200067f8 <_free_r+0xf4>
2000675c:	ff842303          	lw	t1,-8(s0)
20006760:	00482803          	lw	a6,4(a6)
20006764:	20009537          	lui	a0,0x20009
20006768:	40670733          	sub	a4,a4,t1
2000676c:	00872883          	lw	a7,8(a4)
20006770:	2b850513          	addi	a0,a0,696 # 200092b8 <__malloc_av_+0x8>
20006774:	006787b3          	add	a5,a5,t1
20006778:	00187813          	andi	a6,a6,1
2000677c:	14a88263          	beq	a7,a0,200068c0 <_free_r+0x1bc>
20006780:	00c72303          	lw	t1,12(a4)
20006784:	0068a623          	sw	t1,12(a7)
20006788:	01132423          	sw	a7,8(t1)
2000678c:	1a080863          	beqz	a6,2000693c <_free_r+0x238>
20006790:	0017e693          	ori	a3,a5,1
20006794:	00d72223          	sw	a3,4(a4)
20006798:	00f62023          	sw	a5,0(a2)
2000679c:	1ff00693          	li	a3,511
200067a0:	06f6ec63          	bltu	a3,a5,20006818 <_free_r+0x114>
200067a4:	ff87f693          	andi	a3,a5,-8
200067a8:	00868693          	addi	a3,a3,8
200067ac:	0045a503          	lw	a0,4(a1)
200067b0:	00d586b3          	add	a3,a1,a3
200067b4:	0006a603          	lw	a2,0(a3)
200067b8:	0057d813          	srli	a6,a5,0x5
200067bc:	00100793          	li	a5,1
200067c0:	010797b3          	sll	a5,a5,a6
200067c4:	00a7e7b3          	or	a5,a5,a0
200067c8:	ff868513          	addi	a0,a3,-8
200067cc:	00a72623          	sw	a0,12(a4)
200067d0:	00c72423          	sw	a2,8(a4)
200067d4:	00f5a223          	sw	a5,4(a1)
200067d8:	00e6a023          	sw	a4,0(a3)
200067dc:	00e62623          	sw	a4,12(a2)
200067e0:	00812403          	lw	s0,8(sp)
200067e4:	00c12083          	lw	ra,12(sp)
200067e8:	00048513          	mv	a0,s1
200067ec:	00412483          	lw	s1,4(sp)
200067f0:	01010113          	addi	sp,sp,16
200067f4:	b14ff06f          	j	20005b08 <__malloc_unlock>
200067f8:	00482503          	lw	a0,4(a6)
200067fc:	00157513          	andi	a0,a0,1
20006800:	08050663          	beqz	a0,2000688c <_free_r+0x188>
20006804:	0017e693          	ori	a3,a5,1
20006808:	fed42e23          	sw	a3,-4(s0)
2000680c:	00f62023          	sw	a5,0(a2)
20006810:	1ff00693          	li	a3,511
20006814:	f8f6f8e3          	bgeu	a3,a5,200067a4 <_free_r+0xa0>
20006818:	0097d693          	srli	a3,a5,0x9
2000681c:	00400613          	li	a2,4
20006820:	12d66263          	bltu	a2,a3,20006944 <_free_r+0x240>
20006824:	0067d693          	srli	a3,a5,0x6
20006828:	03968513          	addi	a0,a3,57
2000682c:	03868613          	addi	a2,a3,56
20006830:	00351513          	slli	a0,a0,0x3
20006834:	00a58533          	add	a0,a1,a0
20006838:	00052683          	lw	a3,0(a0)
2000683c:	ff850513          	addi	a0,a0,-8
20006840:	00d51863          	bne	a0,a3,20006850 <_free_r+0x14c>
20006844:	1580006f          	j	2000699c <_free_r+0x298>
20006848:	0086a683          	lw	a3,8(a3)
2000684c:	00d50863          	beq	a0,a3,2000685c <_free_r+0x158>
20006850:	0046a603          	lw	a2,4(a3)
20006854:	ffc67613          	andi	a2,a2,-4
20006858:	fec7e8e3          	bltu	a5,a2,20006848 <_free_r+0x144>
2000685c:	00c6a503          	lw	a0,12(a3)
20006860:	00a72623          	sw	a0,12(a4)
20006864:	00d72423          	sw	a3,8(a4)
20006868:	00812403          	lw	s0,8(sp)
2000686c:	00e52423          	sw	a4,8(a0)
20006870:	00c12083          	lw	ra,12(sp)
20006874:	00048513          	mv	a0,s1
20006878:	00412483          	lw	s1,4(sp)
2000687c:	00e6a623          	sw	a4,12(a3)
20006880:	01010113          	addi	sp,sp,16
20006884:	a84ff06f          	j	20005b08 <__malloc_unlock>
20006888:	00008067          	ret
2000688c:	20009537          	lui	a0,0x20009
20006890:	00d787b3          	add	a5,a5,a3
20006894:	2b850513          	addi	a0,a0,696 # 200092b8 <__malloc_av_+0x8>
20006898:	00862683          	lw	a3,8(a2)
2000689c:	0ca68e63          	beq	a3,a0,20006978 <_free_r+0x274>
200068a0:	00c62803          	lw	a6,12(a2)
200068a4:	0017e513          	ori	a0,a5,1
200068a8:	00f70633          	add	a2,a4,a5
200068ac:	0106a623          	sw	a6,12(a3)
200068b0:	00d82423          	sw	a3,8(a6)
200068b4:	00a72223          	sw	a0,4(a4)
200068b8:	00f62023          	sw	a5,0(a2)
200068bc:	ee1ff06f          	j	2000679c <_free_r+0x98>
200068c0:	12081e63          	bnez	a6,200069fc <_free_r+0x2f8>
200068c4:	00862583          	lw	a1,8(a2)
200068c8:	00c62603          	lw	a2,12(a2)
200068cc:	00f686b3          	add	a3,a3,a5
200068d0:	0016e793          	ori	a5,a3,1
200068d4:	00c5a623          	sw	a2,12(a1)
200068d8:	00b62423          	sw	a1,8(a2)
200068dc:	00f72223          	sw	a5,4(a4)
200068e0:	00d70733          	add	a4,a4,a3
200068e4:	00d72023          	sw	a3,0(a4)
200068e8:	ef9ff06f          	j	200067e0 <_free_r+0xdc>
200068ec:	00157513          	andi	a0,a0,1
200068f0:	00d786b3          	add	a3,a5,a3
200068f4:	02051063          	bnez	a0,20006914 <_free_r+0x210>
200068f8:	ff842503          	lw	a0,-8(s0)
200068fc:	40a70733          	sub	a4,a4,a0
20006900:	00c72783          	lw	a5,12(a4)
20006904:	00872603          	lw	a2,8(a4)
20006908:	00a686b3          	add	a3,a3,a0
2000690c:	00f62623          	sw	a5,12(a2)
20006910:	00c7a423          	sw	a2,8(a5)
20006914:	200097b7          	lui	a5,0x20009
20006918:	0016e613          	ori	a2,a3,1
2000691c:	7387a783          	lw	a5,1848(a5) # 20009738 <__malloc_trim_threshold>
20006920:	00c72223          	sw	a2,4(a4)
20006924:	00e5a423          	sw	a4,8(a1)
20006928:	eaf6ece3          	bltu	a3,a5,200067e0 <_free_r+0xdc>
2000692c:	8181a583          	lw	a1,-2024(gp) # 20009748 <__malloc_top_pad>
20006930:	00048513          	mv	a0,s1
20006934:	c99ff0ef          	jal	ra,200065cc <_malloc_trim_r>
20006938:	ea9ff06f          	j	200067e0 <_free_r+0xdc>
2000693c:	00d787b3          	add	a5,a5,a3
20006940:	f59ff06f          	j	20006898 <_free_r+0x194>
20006944:	01400613          	li	a2,20
20006948:	02d67063          	bgeu	a2,a3,20006968 <_free_r+0x264>
2000694c:	05400613          	li	a2,84
20006950:	06d66463          	bltu	a2,a3,200069b8 <_free_r+0x2b4>
20006954:	00c7d693          	srli	a3,a5,0xc
20006958:	06f68513          	addi	a0,a3,111
2000695c:	06e68613          	addi	a2,a3,110
20006960:	00351513          	slli	a0,a0,0x3
20006964:	ed1ff06f          	j	20006834 <_free_r+0x130>
20006968:	05c68513          	addi	a0,a3,92
2000696c:	05b68613          	addi	a2,a3,91
20006970:	00351513          	slli	a0,a0,0x3
20006974:	ec1ff06f          	j	20006834 <_free_r+0x130>
20006978:	00e5aa23          	sw	a4,20(a1)
2000697c:	00e5a823          	sw	a4,16(a1)
20006980:	0017e693          	ori	a3,a5,1
20006984:	00a72623          	sw	a0,12(a4)
20006988:	00a72423          	sw	a0,8(a4)
2000698c:	00d72223          	sw	a3,4(a4)
20006990:	00f70733          	add	a4,a4,a5
20006994:	00f72023          	sw	a5,0(a4)
20006998:	e49ff06f          	j	200067e0 <_free_r+0xdc>
2000699c:	0045a803          	lw	a6,4(a1)
200069a0:	40265613          	srai	a2,a2,0x2
200069a4:	00100793          	li	a5,1
200069a8:	00c797b3          	sll	a5,a5,a2
200069ac:	0107e7b3          	or	a5,a5,a6
200069b0:	00f5a223          	sw	a5,4(a1)
200069b4:	eadff06f          	j	20006860 <_free_r+0x15c>
200069b8:	15400613          	li	a2,340
200069bc:	00d66c63          	bltu	a2,a3,200069d4 <_free_r+0x2d0>
200069c0:	00f7d693          	srli	a3,a5,0xf
200069c4:	07868513          	addi	a0,a3,120
200069c8:	07768613          	addi	a2,a3,119
200069cc:	00351513          	slli	a0,a0,0x3
200069d0:	e65ff06f          	j	20006834 <_free_r+0x130>
200069d4:	55400613          	li	a2,1364
200069d8:	00d66c63          	bltu	a2,a3,200069f0 <_free_r+0x2ec>
200069dc:	0127d693          	srli	a3,a5,0x12
200069e0:	07d68513          	addi	a0,a3,125
200069e4:	07c68613          	addi	a2,a3,124
200069e8:	00351513          	slli	a0,a0,0x3
200069ec:	e49ff06f          	j	20006834 <_free_r+0x130>
200069f0:	3f800513          	li	a0,1016
200069f4:	07e00613          	li	a2,126
200069f8:	e3dff06f          	j	20006834 <_free_r+0x130>
200069fc:	0017e693          	ori	a3,a5,1
20006a00:	00d72223          	sw	a3,4(a4)
20006a04:	00f62023          	sw	a5,0(a2)
20006a08:	dd9ff06f          	j	200067e0 <_free_r+0xdc>

20006a0c <strlen>:
20006a0c:	00357793          	andi	a5,a0,3
20006a10:	00050713          	mv	a4,a0
20006a14:	04079c63          	bnez	a5,20006a6c <strlen+0x60>
20006a18:	7f7f86b7          	lui	a3,0x7f7f8
20006a1c:	f7f68693          	addi	a3,a3,-129 # 7f7f7f7f <_end+0x5f7edd27>
20006a20:	fff00593          	li	a1,-1
20006a24:	00072603          	lw	a2,0(a4)
20006a28:	00470713          	addi	a4,a4,4
20006a2c:	00d677b3          	and	a5,a2,a3
20006a30:	00d787b3          	add	a5,a5,a3
20006a34:	00c7e7b3          	or	a5,a5,a2
20006a38:	00d7e7b3          	or	a5,a5,a3
20006a3c:	feb784e3          	beq	a5,a1,20006a24 <strlen+0x18>
20006a40:	ffc74683          	lbu	a3,-4(a4)
20006a44:	40a707b3          	sub	a5,a4,a0
20006a48:	04068463          	beqz	a3,20006a90 <strlen+0x84>
20006a4c:	ffd74683          	lbu	a3,-3(a4)
20006a50:	02068c63          	beqz	a3,20006a88 <strlen+0x7c>
20006a54:	ffe74503          	lbu	a0,-2(a4)
20006a58:	00a03533          	snez	a0,a0
20006a5c:	00f50533          	add	a0,a0,a5
20006a60:	ffe50513          	addi	a0,a0,-2
20006a64:	00008067          	ret
20006a68:	fa0688e3          	beqz	a3,20006a18 <strlen+0xc>
20006a6c:	00074783          	lbu	a5,0(a4)
20006a70:	00170713          	addi	a4,a4,1
20006a74:	00377693          	andi	a3,a4,3
20006a78:	fe0798e3          	bnez	a5,20006a68 <strlen+0x5c>
20006a7c:	40a70733          	sub	a4,a4,a0
20006a80:	fff70513          	addi	a0,a4,-1
20006a84:	00008067          	ret
20006a88:	ffd78513          	addi	a0,a5,-3
20006a8c:	00008067          	ret
20006a90:	ffc78513          	addi	a0,a5,-4
20006a94:	00008067          	ret

20006a98 <strnlen>:
20006a98:	00b506b3          	add	a3,a0,a1
20006a9c:	00050793          	mv	a5,a0
20006aa0:	00059863          	bnez	a1,20006ab0 <strnlen+0x18>
20006aa4:	0240006f          	j	20006ac8 <strnlen+0x30>
20006aa8:	00178793          	addi	a5,a5,1
20006aac:	00f68a63          	beq	a3,a5,20006ac0 <strnlen+0x28>
20006ab0:	0007c703          	lbu	a4,0(a5)
20006ab4:	fe071ae3          	bnez	a4,20006aa8 <strnlen+0x10>
20006ab8:	40a78533          	sub	a0,a5,a0
20006abc:	00008067          	ret
20006ac0:	40a68533          	sub	a0,a3,a0
20006ac4:	00008067          	ret
20006ac8:	00000513          	li	a0,0
20006acc:	00008067          	ret

Disassembly of section .rodata:

20006ad0 <_ZL5ExCvt-0xd28>:
20006ad0:	7542                	.2byte	0x7542
20006ad2:	7474                	.2byte	0x7474
20006ad4:	73206e6f          	jal	t3,2000d206 <_end+0x2fae>
20006ad8:	6174                	.2byte	0x6174
20006ada:	6574                	.2byte	0x6574
20006adc:	6320                	.2byte	0x6320
20006ade:	6168                	.2byte	0x6168
20006ae0:	676e                	.2byte	0x676e
20006ae2:	3a65                	.2byte	0x3a65
20006ae4:	0020                	.2byte	0x20
20006ae6:	0000                	.2byte	0x0
20006ae8:	94e2                	.2byte	0x94e2
20006aea:	e28c                	.2byte	0xe28c
20006aec:	8094                	.2byte	0x8094
20006aee:	94e2                	.2byte	0x94e2
20006af0:	e280                	.2byte	0xe280
20006af2:	8094                	.2byte	0x8094
20006af4:	94e2                	.2byte	0x94e2
20006af6:	e280                	.2byte	0xe280
20006af8:	8094                	.2byte	0x8094
20006afa:	94e2                	.2byte	0x94e2
20006afc:	e280                	.2byte	0xe280
20006afe:	8094                	.2byte	0x8094
20006b00:	94e2                	.2byte	0x94e2
20006b02:	e280                	.2byte	0xe280
20006b04:	8094                	.2byte	0x8094
20006b06:	94e2                	.2byte	0x94e2
20006b08:	e280                	.2byte	0xe280
20006b0a:	8094                	.2byte	0x8094
20006b0c:	94e2                	.2byte	0x94e2
20006b0e:	e280                	.2byte	0xe280
20006b10:	8094                	.2byte	0x8094
20006b12:	94e2                	.2byte	0x94e2
20006b14:	e280                	.2byte	0xe280
20006b16:	8094                	.2byte	0x8094
20006b18:	94e2                	.2byte	0x94e2
20006b1a:	e280                	.2byte	0xe280
20006b1c:	8094                	.2byte	0x8094
20006b1e:	94e2                	.2byte	0x94e2
20006b20:	e280                	.2byte	0xe280
20006b22:	8094                	.2byte	0x8094
20006b24:	94e2                	.2byte	0x94e2
20006b26:	e280                	.2byte	0xe280
20006b28:	8094                	.2byte	0x8094
20006b2a:	94e2                	.2byte	0x94e2
20006b2c:	e280                	.2byte	0xe280
20006b2e:	8094                	.2byte	0x8094
20006b30:	94e2                	.2byte	0x94e2
20006b32:	e280                	.2byte	0xe280
20006b34:	8094                	.2byte	0x8094
20006b36:	94e2                	.2byte	0x94e2
20006b38:	0a90                	.2byte	0xa90
20006b3a:	0000                	.2byte	0x0
20006b3c:	94e2                	.2byte	0x94e2
20006b3e:	2082                	.2byte	0x2082
20006b40:	2020                	.2byte	0x2020
20006b42:	2020                	.2byte	0x2020
20006b44:	2020                	.2byte	0x2020
20006b46:	2020                	.2byte	0x2020
20006b48:	e220                	.2byte	0xe220
20006b4a:	9296                	.2byte	0x9296
20006b4c:	96e2                	.2byte	0x96e2
20006b4e:	e292                	.2byte	0xe292
20006b50:	9296                	.2byte	0x9296
20006b52:	96e2                	.2byte	0x96e2
20006b54:	e292                	.2byte	0xe292
20006b56:	9296                	.2byte	0x9296
20006b58:	96e2                	.2byte	0x96e2
20006b5a:	e292                	.2byte	0xe292
20006b5c:	9296                	.2byte	0x9296
20006b5e:	96e2                	.2byte	0x96e2
20006b60:	e292                	.2byte	0xe292
20006b62:	9296                	.2byte	0x9296
20006b64:	96e2                	.2byte	0x96e2
20006b66:	e292                	.2byte	0xe292
20006b68:	9296                	.2byte	0x9296
20006b6a:	96e2                	.2byte	0x96e2
20006b6c:	e292                	.2byte	0xe292
20006b6e:	9296                	.2byte	0x9296
20006b70:	96e2                	.2byte	0x96e2
20006b72:	2092                	.2byte	0x2092
20006b74:	94e2                	.2byte	0x94e2
20006b76:	0a82                	.2byte	0xa82
20006b78:	0000                	.2byte	0x0
20006b7a:	0000                	.2byte	0x0
20006b7c:	94e2                	.2byte	0x94e2
20006b7e:	2082                	.2byte	0x2082
20006b80:	96e2                	.2byte	0x96e2
20006b82:	e288                	.2byte	0xe288
20006b84:	8896                	.2byte	0x8896
20006b86:	96e2                	.2byte	0x96e2
20006b88:	e288                	.2byte	0xe288
20006b8a:	8896                	.2byte	0x8896
20006b8c:	96e2                	.2byte	0x96e2
20006b8e:	e288                	.2byte	0xe288
20006b90:	8896                	.2byte	0x8896
20006b92:	96e2                	.2byte	0x96e2
20006b94:	e288                	.2byte	0xe288
20006b96:	8896                	.2byte	0x8896
20006b98:	2020                	.2byte	0x2020
20006b9a:	e220                	.2byte	0xe220
20006b9c:	9296                	.2byte	0x9296
20006b9e:	96e2                	.2byte	0x96e2
20006ba0:	e292                	.2byte	0xe292
20006ba2:	9296                	.2byte	0x9296
20006ba4:	96e2                	.2byte	0x96e2
20006ba6:	e292                	.2byte	0xe292
20006ba8:	9296                	.2byte	0x9296
20006baa:	96e2                	.2byte	0x96e2
20006bac:	e292                	.2byte	0xe292
20006bae:	9296                	.2byte	0x9296
20006bb0:	96e2                	.2byte	0x96e2
20006bb2:	e292                	.2byte	0xe292
20006bb4:	9296                	.2byte	0x9296
20006bb6:	96e2                	.2byte	0x96e2
20006bb8:	e292                	.2byte	0xe292
20006bba:	9296                	.2byte	0x9296
20006bbc:	96e2                	.2byte	0x96e2
20006bbe:	2092                	.2byte	0x2092
20006bc0:	94e2                	.2byte	0x94e2
20006bc2:	0a82                	.2byte	0xa82
20006bc4:	0000                	.2byte	0x0
20006bc6:	0000                	.2byte	0x0
20006bc8:	94e2                	.2byte	0x94e2
20006bca:	2082                	.2byte	0x2082
20006bcc:	96e2                	.2byte	0x96e2
20006bce:	e288                	.2byte	0xe288
20006bd0:	8896                	.2byte	0x8896
20006bd2:	96e2                	.2byte	0x96e2
20006bd4:	e288                	.2byte	0xe288
20006bd6:	8896                	.2byte	0x8896
20006bd8:	96e2                	.2byte	0x96e2
20006bda:	e288                	.2byte	0xe288
20006bdc:	8896                	.2byte	0x8896
20006bde:	96e2                	.2byte	0x96e2
20006be0:	e288                	.2byte	0xe288
20006be2:	8896                	.2byte	0x8896
20006be4:	96e2                	.2byte	0x96e2
20006be6:	2088                	.2byte	0x2088
20006be8:	e220                	.2byte	0xe220
20006bea:	9296                	.2byte	0x9296
20006bec:	96e2                	.2byte	0x96e2
20006bee:	e292                	.2byte	0xe292
20006bf0:	9296                	.2byte	0x9296
20006bf2:	96e2                	.2byte	0x96e2
20006bf4:	e292                	.2byte	0xe292
20006bf6:	9296                	.2byte	0x9296
20006bf8:	96e2                	.2byte	0x96e2
20006bfa:	e292                	.2byte	0xe292
20006bfc:	9296                	.2byte	0x9296
20006bfe:	96e2                	.2byte	0x96e2
20006c00:	e292                	.2byte	0xe292
20006c02:	9296                	.2byte	0x9296
20006c04:	96e2                	.2byte	0x96e2
20006c06:	e292                	.2byte	0xe292
20006c08:	9296                	.2byte	0x9296
20006c0a:	96e2                	.2byte	0x96e2
20006c0c:	2092                	.2byte	0x2092
20006c0e:	94e2                	.2byte	0x94e2
20006c10:	0a82                	.2byte	0xa82
20006c12:	0000                	.2byte	0x0
20006c14:	94e2                	.2byte	0x94e2
20006c16:	2082                	.2byte	0x2082
20006c18:	96e2                	.2byte	0x96e2
20006c1a:	e288                	.2byte	0xe288
20006c1c:	8896                	.2byte	0x8896
20006c1e:	96e2                	.2byte	0x96e2
20006c20:	e288                	.2byte	0xe288
20006c22:	8896                	.2byte	0x8896
20006c24:	96e2                	.2byte	0x96e2
20006c26:	e288                	.2byte	0xe288
20006c28:	8896                	.2byte	0x8896
20006c2a:	96e2                	.2byte	0x96e2
20006c2c:	e288                	.2byte	0xe288
20006c2e:	8896                	.2byte	0x8896
20006c30:	2020                	.2byte	0x2020
20006c32:	e220                	.2byte	0xe220
20006c34:	9296                	.2byte	0x9296
20006c36:	96e2                	.2byte	0x96e2
20006c38:	e292                	.2byte	0xe292
20006c3a:	9296                	.2byte	0x9296
20006c3c:	96e2                	.2byte	0x96e2
20006c3e:	e292                	.2byte	0xe292
20006c40:	9296                	.2byte	0x9296
20006c42:	96e2                	.2byte	0x96e2
20006c44:	e292                	.2byte	0xe292
20006c46:	9296                	.2byte	0x9296
20006c48:	96e2                	.2byte	0x96e2
20006c4a:	e292                	.2byte	0xe292
20006c4c:	9296                	.2byte	0x9296
20006c4e:	96e2                	.2byte	0x96e2
20006c50:	e292                	.2byte	0xe292
20006c52:	9296                	.2byte	0x9296
20006c54:	2020                	.2byte	0x2020
20006c56:	94e2                	.2byte	0x94e2
20006c58:	0a82                	.2byte	0xa82
20006c5a:	0000                	.2byte	0x0
20006c5c:	94e2                	.2byte	0x94e2
20006c5e:	2082                	.2byte	0x2082
20006c60:	96e2                	.2byte	0x96e2
20006c62:	2088                	.2byte	0x2088
20006c64:	2020                	.2byte	0x2020
20006c66:	2020                	.2byte	0x2020
20006c68:	2020                	.2byte	0x2020
20006c6a:	e220                	.2byte	0xe220
20006c6c:	9296                	.2byte	0x9296
20006c6e:	96e2                	.2byte	0x96e2
20006c70:	e292                	.2byte	0xe292
20006c72:	9296                	.2byte	0x9296
20006c74:	96e2                	.2byte	0x96e2
20006c76:	e292                	.2byte	0xe292
20006c78:	9296                	.2byte	0x9296
20006c7a:	96e2                	.2byte	0x96e2
20006c7c:	e292                	.2byte	0xe292
20006c7e:	9296                	.2byte	0x9296
20006c80:	96e2                	.2byte	0x96e2
20006c82:	e292                	.2byte	0xe292
20006c84:	9296                	.2byte	0x9296
20006c86:	96e2                	.2byte	0x96e2
20006c88:	e292                	.2byte	0xe292
20006c8a:	9296                	.2byte	0x9296
20006c8c:	2020                	.2byte	0x2020
20006c8e:	2020                	.2byte	0x2020
20006c90:	94e2                	.2byte	0x94e2
20006c92:	0a82                	.2byte	0xa82
20006c94:	0000                	.2byte	0x0
20006c96:	0000                	.2byte	0x0
20006c98:	94e2                	.2byte	0x94e2
20006c9a:	2082                	.2byte	0x2082
20006c9c:	96e2                	.2byte	0x96e2
20006c9e:	e288                	.2byte	0xe288
20006ca0:	8896                	.2byte	0x8896
20006ca2:	2020                	.2byte	0x2020
20006ca4:	e220                	.2byte	0xe220
20006ca6:	9296                	.2byte	0x9296
20006ca8:	96e2                	.2byte	0x96e2
20006caa:	e292                	.2byte	0xe292
20006cac:	9296                	.2byte	0x9296
20006cae:	96e2                	.2byte	0x96e2
20006cb0:	e292                	.2byte	0xe292
20006cb2:	9296                	.2byte	0x9296
20006cb4:	96e2                	.2byte	0x96e2
20006cb6:	e292                	.2byte	0xe292
20006cb8:	9296                	.2byte	0x9296
20006cba:	96e2                	.2byte	0x96e2
20006cbc:	e292                	.2byte	0xe292
20006cbe:	9296                	.2byte	0x9296
20006cc0:	96e2                	.2byte	0x96e2
20006cc2:	e292                	.2byte	0xe292
20006cc4:	9296                	.2byte	0x9296
20006cc6:	96e2                	.2byte	0x96e2
20006cc8:	e292                	.2byte	0xe292
20006cca:	9296                	.2byte	0x9296
20006ccc:	2020                	.2byte	0x2020
20006cce:	e220                	.2byte	0xe220
20006cd0:	8896                	.2byte	0x8896
20006cd2:	96e2                	.2byte	0x96e2
20006cd4:	2088                	.2byte	0x2088
20006cd6:	94e2                	.2byte	0x94e2
20006cd8:	0a82                	.2byte	0xa82
20006cda:	0000                	.2byte	0x0
20006cdc:	94e2                	.2byte	0x94e2
20006cde:	2082                	.2byte	0x2082
20006ce0:	96e2                	.2byte	0x96e2
20006ce2:	e288                	.2byte	0xe288
20006ce4:	8896                	.2byte	0x8896
20006ce6:	96e2                	.2byte	0x96e2
20006ce8:	e288                	.2byte	0xe288
20006cea:	8896                	.2byte	0x8896
20006cec:	2020                	.2byte	0x2020
20006cee:	e220                	.2byte	0xe220
20006cf0:	9296                	.2byte	0x9296
20006cf2:	96e2                	.2byte	0x96e2
20006cf4:	e292                	.2byte	0xe292
20006cf6:	9296                	.2byte	0x9296
20006cf8:	96e2                	.2byte	0x96e2
20006cfa:	e292                	.2byte	0xe292
20006cfc:	9296                	.2byte	0x9296
20006cfe:	96e2                	.2byte	0x96e2
20006d00:	e292                	.2byte	0xe292
20006d02:	9296                	.2byte	0x9296
20006d04:	96e2                	.2byte	0x96e2
20006d06:	e292                	.2byte	0xe292
20006d08:	9296                	.2byte	0x9296
20006d0a:	2020                	.2byte	0x2020
20006d0c:	e220                	.2byte	0xe220
20006d0e:	8896                	.2byte	0x8896
20006d10:	96e2                	.2byte	0x96e2
20006d12:	e288                	.2byte	0xe288
20006d14:	8896                	.2byte	0x8896
20006d16:	96e2                	.2byte	0x96e2
20006d18:	2088                	.2byte	0x2088
20006d1a:	94e2                	.2byte	0x94e2
20006d1c:	0a82                	.2byte	0xa82
20006d1e:	0000                	.2byte	0x0
20006d20:	94e2                	.2byte	0x94e2
20006d22:	2082                	.2byte	0x2082
20006d24:	96e2                	.2byte	0x96e2
20006d26:	e288                	.2byte	0xe288
20006d28:	8896                	.2byte	0x8896
20006d2a:	96e2                	.2byte	0x96e2
20006d2c:	e288                	.2byte	0xe288
20006d2e:	8896                	.2byte	0x8896
20006d30:	96e2                	.2byte	0x96e2
20006d32:	e288                	.2byte	0xe288
20006d34:	8896                	.2byte	0x8896
20006d36:	2020                	.2byte	0x2020
20006d38:	e220                	.2byte	0xe220
20006d3a:	9296                	.2byte	0x9296
20006d3c:	96e2                	.2byte	0x96e2
20006d3e:	e292                	.2byte	0xe292
20006d40:	9296                	.2byte	0x9296
20006d42:	96e2                	.2byte	0x96e2
20006d44:	e292                	.2byte	0xe292
20006d46:	9296                	.2byte	0x9296
20006d48:	2020                	.2byte	0x2020
20006d4a:	e220                	.2byte	0xe220
20006d4c:	8896                	.2byte	0x8896
20006d4e:	96e2                	.2byte	0x96e2
20006d50:	e288                	.2byte	0xe288
20006d52:	8896                	.2byte	0x8896
20006d54:	96e2                	.2byte	0x96e2
20006d56:	e288                	.2byte	0xe288
20006d58:	8896                	.2byte	0x8896
20006d5a:	96e2                	.2byte	0x96e2
20006d5c:	2088                	.2byte	0x2088
20006d5e:	94e2                	.2byte	0x94e2
20006d60:	0a82                	.2byte	0xa82
20006d62:	0000                	.2byte	0x0
20006d64:	94e2                	.2byte	0x94e2
20006d66:	2082                	.2byte	0x2082
20006d68:	96e2                	.2byte	0x96e2
20006d6a:	e288                	.2byte	0xe288
20006d6c:	8896                	.2byte	0x8896
20006d6e:	96e2                	.2byte	0x96e2
20006d70:	e288                	.2byte	0xe288
20006d72:	8896                	.2byte	0x8896
20006d74:	96e2                	.2byte	0x96e2
20006d76:	e288                	.2byte	0xe288
20006d78:	8896                	.2byte	0x8896
20006d7a:	96e2                	.2byte	0x96e2
20006d7c:	e288                	.2byte	0xe288
20006d7e:	8896                	.2byte	0x8896
20006d80:	2020                	.2byte	0x2020
20006d82:	e220                	.2byte	0xe220
20006d84:	9296                	.2byte	0x9296
20006d86:	2020                	.2byte	0x2020
20006d88:	e220                	.2byte	0xe220
20006d8a:	8896                	.2byte	0x8896
20006d8c:	96e2                	.2byte	0x96e2
20006d8e:	e288                	.2byte	0xe288
20006d90:	8896                	.2byte	0x8896
20006d92:	96e2                	.2byte	0x96e2
20006d94:	e288                	.2byte	0xe288
20006d96:	8896                	.2byte	0x8896
20006d98:	96e2                	.2byte	0x96e2
20006d9a:	e288                	.2byte	0xe288
20006d9c:	8896                	.2byte	0x8896
20006d9e:	96e2                	.2byte	0x96e2
20006da0:	2088                	.2byte	0x2088
20006da2:	94e2                	.2byte	0x94e2
20006da4:	0a82                	.2byte	0xa82
20006da6:	0000                	.2byte	0x0
20006da8:	94e2                	.2byte	0x94e2
20006daa:	2082                	.2byte	0x2082
20006dac:	96e2                	.2byte	0x96e2
20006dae:	e288                	.2byte	0xe288
20006db0:	8896                	.2byte	0x8896
20006db2:	96e2                	.2byte	0x96e2
20006db4:	e288                	.2byte	0xe288
20006db6:	8896                	.2byte	0x8896
20006db8:	96e2                	.2byte	0x96e2
20006dba:	e288                	.2byte	0xe288
20006dbc:	8896                	.2byte	0x8896
20006dbe:	96e2                	.2byte	0x96e2
20006dc0:	e288                	.2byte	0xe288
20006dc2:	8896                	.2byte	0x8896
20006dc4:	96e2                	.2byte	0x96e2
20006dc6:	e288                	.2byte	0xe288
20006dc8:	8896                	.2byte	0x8896
20006dca:	2020                	.2byte	0x2020
20006dcc:	e220                	.2byte	0xe220
20006dce:	8896                	.2byte	0x8896
20006dd0:	96e2                	.2byte	0x96e2
20006dd2:	e288                	.2byte	0xe288
20006dd4:	8896                	.2byte	0x8896
20006dd6:	96e2                	.2byte	0x96e2
20006dd8:	e288                	.2byte	0xe288
20006dda:	8896                	.2byte	0x8896
20006ddc:	96e2                	.2byte	0x96e2
20006dde:	e288                	.2byte	0xe288
20006de0:	8896                	.2byte	0x8896
20006de2:	96e2                	.2byte	0x96e2
20006de4:	e288                	.2byte	0xe288
20006de6:	8896                	.2byte	0x8896
20006de8:	96e2                	.2byte	0x96e2
20006dea:	2088                	.2byte	0x2088
20006dec:	94e2                	.2byte	0x94e2
20006dee:	0a82                	.2byte	0xa82
20006df0:	0000                	.2byte	0x0
20006df2:	0000                	.2byte	0x0
20006df4:	94e2                	.2byte	0x94e2
20006df6:	2082                	.2byte	0x2082
20006df8:	2020                	.2byte	0x2020
20006dfa:	2020                	.2byte	0x2020
20006dfc:	2020                	.2byte	0x2020
20006dfe:	2020                	.2byte	0x2020
20006e00:	2020                	.2byte	0x2020
20006e02:	2020                	.2byte	0x2020
20006e04:	2020                	.2byte	0x2020
20006e06:	2020                	.2byte	0x2020
20006e08:	2020                	.2byte	0x2020
20006e0a:	2020                	.2byte	0x2020
20006e0c:	2020                	.2byte	0x2020
20006e0e:	2020                	.2byte	0x2020
20006e10:	94e2                	.2byte	0x94e2
20006e12:	0a82                	.2byte	0xa82
20006e14:	0000                	.2byte	0x0
20006e16:	0000                	.2byte	0x0
20006e18:	94e2                	.2byte	0x94e2
20006e1a:	2082                	.2byte	0x2082
20006e1c:	3345                	.2byte	0x3345
20006e1e:	4f32                	.2byte	0x4f32
20006e20:	30762053          	.4byte	0x30762053
20006e24:	312e                	.2byte	0x312e
20006e26:	3636                	.2byte	0x3636
20006e28:	2020                	.2byte	0x2020
20006e2a:	2020                	.2byte	0x2020
20006e2c:	2020                	.2byte	0x2020
20006e2e:	2020                	.2byte	0x2020
20006e30:	2020                	.2byte	0x2020
20006e32:	2020                	.2byte	0x2020
20006e34:	94e2                	.2byte	0x94e2
20006e36:	0a82                	.2byte	0xa82
20006e38:	0000                	.2byte	0x0
20006e3a:	0000                	.2byte	0x0
20006e3c:	94e2                	.2byte	0x94e2
20006e3e:	2082                	.2byte	0x2082
20006e40:	6328                	.2byte	0x6328
20006e42:	3229                	.2byte	0x3229
20006e44:	3230                	.2byte	0x3230
20006e46:	2032                	.2byte	0x2032
20006e48:	6e45                	.2byte	0x6e45
20006e4a:	206e6967          	.4byte	0x206e6967
20006e4e:	616c6943          	.4byte	0x616c6943
20006e52:	206e7573          	csrrci	a0,0x206,28
20006e56:	2020                	.2byte	0x2020
20006e58:	94e2                	.2byte	0x94e2
20006e5a:	0a82                	.2byte	0xa82
20006e5c:	0000                	.2byte	0x0
20006e5e:	0000                	.2byte	0x0
20006e60:	94e2                	.2byte	0x94e2
20006e62:	2082                	.2byte	0x2082
20006e64:	4148                	.2byte	0x4148
20006e66:	5452                	.2byte	0x5452
20006e68:	00203a53          	.4byte	0x203a53
20006e6c:	94e2                	.2byte	0x94e2
20006e6e:	e294                	.2byte	0xe294
20006e70:	8094                	.2byte	0x8094
20006e72:	94e2                	.2byte	0x94e2
20006e74:	e280                	.2byte	0xe280
20006e76:	8094                	.2byte	0x8094
20006e78:	94e2                	.2byte	0x94e2
20006e7a:	e280                	.2byte	0xe280
20006e7c:	8094                	.2byte	0x8094
20006e7e:	94e2                	.2byte	0x94e2
20006e80:	e280                	.2byte	0xe280
20006e82:	8094                	.2byte	0x8094
20006e84:	94e2                	.2byte	0x94e2
20006e86:	e280                	.2byte	0xe280
20006e88:	8094                	.2byte	0x8094
20006e8a:	94e2                	.2byte	0x94e2
20006e8c:	e280                	.2byte	0xe280
20006e8e:	8094                	.2byte	0x8094
20006e90:	94e2                	.2byte	0x94e2
20006e92:	e280                	.2byte	0xe280
20006e94:	8094                	.2byte	0x8094
20006e96:	94e2                	.2byte	0x94e2
20006e98:	e280                	.2byte	0xe280
20006e9a:	8094                	.2byte	0x8094
20006e9c:	94e2                	.2byte	0x94e2
20006e9e:	e280                	.2byte	0xe280
20006ea0:	8094                	.2byte	0x8094
20006ea2:	94e2                	.2byte	0x94e2
20006ea4:	e280                	.2byte	0xe280
20006ea6:	8094                	.2byte	0x8094
20006ea8:	94e2                	.2byte	0x94e2
20006eaa:	e280                	.2byte	0xe280
20006eac:	8094                	.2byte	0x8094
20006eae:	94e2                	.2byte	0x94e2
20006eb0:	e280                	.2byte	0xe280
20006eb2:	8094                	.2byte	0x8094
20006eb4:	94e2                	.2byte	0x94e2
20006eb6:	e280                	.2byte	0xe280
20006eb8:	8094                	.2byte	0x8094
20006eba:	94e2                	.2byte	0x94e2
20006ebc:	0a98                	.2byte	0xa98
20006ebe:	000a                	.2byte	0xa
20006ec0:	31335b1b          	.4byte	0x31335b1b
20006ec4:	1b6d                	.2byte	0x1b6d
20006ec6:	6d30345b          	.4byte	0x6d30345b
20006eca:	0000                	.2byte	0x0
20006ecc:	94e2                	.2byte	0x94e2
20006ece:	e28c                	.2byte	0xe28c
20006ed0:	8094                	.2byte	0x8094
20006ed2:	94e2                	.2byte	0x94e2
20006ed4:	e280                	.2byte	0xe280
20006ed6:	8094                	.2byte	0x8094
20006ed8:	94e2                	.2byte	0x94e2
20006eda:	e280                	.2byte	0xe280
20006edc:	8094                	.2byte	0x8094
20006ede:	94e2                	.2byte	0x94e2
20006ee0:	e280                	.2byte	0xe280
20006ee2:	8094                	.2byte	0x8094
20006ee4:	94e2                	.2byte	0x94e2
20006ee6:	e280                	.2byte	0xe280
20006ee8:	8094                	.2byte	0x8094
20006eea:	94e2                	.2byte	0x94e2
20006eec:	e280                	.2byte	0xe280
20006eee:	8094                	.2byte	0x8094
20006ef0:	94e2                	.2byte	0x94e2
20006ef2:	e280                	.2byte	0xe280
20006ef4:	8094                	.2byte	0x8094
20006ef6:	94e2                	.2byte	0x94e2
20006ef8:	e280                	.2byte	0xe280
20006efa:	8094                	.2byte	0x8094
20006efc:	94e2                	.2byte	0x94e2
20006efe:	e280                	.2byte	0xe280
20006f00:	8094                	.2byte	0x8094
20006f02:	94e2                	.2byte	0x94e2
20006f04:	e280                	.2byte	0xe280
20006f06:	8094                	.2byte	0x8094
20006f08:	94e2                	.2byte	0x94e2
20006f0a:	e280                	.2byte	0xe280
20006f0c:	8094                	.2byte	0x8094
20006f0e:	94e2                	.2byte	0x94e2
20006f10:	e280                	.2byte	0xe280
20006f12:	8094                	.2byte	0x8094
20006f14:	94e2                	.2byte	0x94e2
20006f16:	e280                	.2byte	0xe280
20006f18:	8094                	.2byte	0x8094
20006f1a:	94e2                	.2byte	0x94e2
20006f1c:	e280                	.2byte	0xe280
20006f1e:	8094                	.2byte	0x8094
20006f20:	94e2                	.2byte	0x94e2
20006f22:	e280                	.2byte	0xe280
20006f24:	8094                	.2byte	0x8094
20006f26:	94e2                	.2byte	0x94e2
20006f28:	e280                	.2byte	0xe280
20006f2a:	8094                	.2byte	0x8094
20006f2c:	94e2                	.2byte	0x94e2
20006f2e:	e280                	.2byte	0xe280
20006f30:	8094                	.2byte	0x8094
20006f32:	94e2                	.2byte	0x94e2
20006f34:	e280                	.2byte	0xe280
20006f36:	8094                	.2byte	0x8094
20006f38:	94e2                	.2byte	0x94e2
20006f3a:	e280                	.2byte	0xe280
20006f3c:	8094                	.2byte	0x8094
20006f3e:	94e2                	.2byte	0x94e2
20006f40:	e280                	.2byte	0xe280
20006f42:	8094                	.2byte	0x8094
20006f44:	94e2                	.2byte	0x94e2
20006f46:	e280                	.2byte	0xe280
20006f48:	8094                	.2byte	0x8094
20006f4a:	94e2                	.2byte	0x94e2
20006f4c:	e280                	.2byte	0xe280
20006f4e:	8094                	.2byte	0x8094
20006f50:	94e2                	.2byte	0x94e2
20006f52:	e280                	.2byte	0xe280
20006f54:	8094                	.2byte	0x8094
20006f56:	94e2                	.2byte	0x94e2
20006f58:	e280                	.2byte	0xe280
20006f5a:	8094                	.2byte	0x8094
20006f5c:	94e2                	.2byte	0x94e2
20006f5e:	e280                	.2byte	0xe280
20006f60:	8094                	.2byte	0x8094
20006f62:	94e2                	.2byte	0x94e2
20006f64:	e280                	.2byte	0xe280
20006f66:	8094                	.2byte	0x8094
20006f68:	94e2                	.2byte	0x94e2
20006f6a:	0a90                	.2byte	0xa90
20006f6c:	0000                	.2byte	0x0
20006f6e:	0000                	.2byte	0x0
20006f70:	94e2                	.2byte	0x94e2
20006f72:	2082                	.2byte	0x2082
20006f74:	6e55                	.2byte	0x6e55
20006f76:	6d69                	.2byte	0x6d69
20006f78:	6c70                	.2byte	0x6c70
20006f7a:	6d65                	.2byte	0x6d65
20006f7c:	6e65                	.2byte	0x6e65
20006f7e:	6574                	.2byte	0x6574
20006f80:	2064                	.2byte	0x2064
20006f82:	616d                	.2byte	0x616d
20006f84:	6e696863          	bltu	s2,t1,20007674 <strnlen+0xbdc>
20006f88:	2065                	.2byte	0x2065
20006f8a:	4345                	.2byte	0x4345
20006f8c:	4c41                	.2byte	0x4c41
20006f8e:	2e4c                	.2byte	0x2e4c
20006f90:	5020                	.2byte	0x5020
20006f92:	6f72                	.2byte	0x6f72
20006f94:	6d617267          	.4byte	0x6d617267
20006f98:	7720                	.2byte	0x7720
20006f9a:	6c69                	.2byte	0x6c69
20006f9c:	206c                	.2byte	0x206c
20006f9e:	6572                	.2byte	0x6572
20006fa0:	656d7573          	csrrci	a0,0x656,26
20006fa4:	2020                	.2byte	0x2020
20006fa6:	94e2                	.2byte	0x94e2
20006fa8:	0a82                	.2byte	0xa82
20006faa:	0000                	.2byte	0x0
20006fac:	94e2                	.2byte	0x94e2
20006fae:	2082                	.2byte	0x2082
20006fb0:	7865                	.2byte	0x7865
20006fb2:	6365                	.2byte	0x6365
20006fb4:	7475                	.2byte	0x7475
20006fb6:	6f69                	.2byte	0x6f69
20006fb8:	2c6e                	.2byte	0x2c6e
20006fba:	7420                	.2byte	0x7420
20006fbc:	6f68                	.2byte	0x6f68
20006fbe:	6775                	.2byte	0x6775
20006fc0:	2068                	.2byte	0x2068
20006fc2:	7469                	.2byte	0x7469
20006fc4:	6d20                	.2byte	0x6d20
20006fc6:	6769                	.2byte	0x6769
20006fc8:	7468                	.2byte	0x7468
20006fca:	6320                	.2byte	0x6320
20006fcc:	6172                	.2byte	0x6172
20006fce:	202e6873          	csrrsi	a6,0x202,28
20006fd2:	2020                	.2byte	0x2020
20006fd4:	2020                	.2byte	0x2020
20006fd6:	2020                	.2byte	0x2020
20006fd8:	2020                	.2byte	0x2020
20006fda:	2020                	.2byte	0x2020
20006fdc:	2020                	.2byte	0x2020
20006fde:	2020                	.2byte	0x2020
20006fe0:	2020                	.2byte	0x2020
20006fe2:	94e2                	.2byte	0x94e2
20006fe4:	0a82                	.2byte	0xa82
20006fe6:	0000                	.2byte	0x0
20006fe8:	94e2                	.2byte	0x94e2
20006fea:	2082                	.2byte	0x2082
20006fec:	00000023          	sb	zero,0(zero) # 0 <_start-0x20000000>
20006ff0:	4020                	.2byte	0x4020
20006ff2:	0000                	.2byte	0x0
20006ff4:	2020                	.2byte	0x2020
20006ff6:	2020                	.2byte	0x2020
20006ff8:	2020                	.2byte	0x2020
20006ffa:	2020                	.2byte	0x2020
20006ffc:	2020                	.2byte	0x2020
20006ffe:	2020                	.2byte	0x2020
20007000:	2020                	.2byte	0x2020
20007002:	2020                	.2byte	0x2020
20007004:	2020                	.2byte	0x2020
20007006:	2020                	.2byte	0x2020
20007008:	2020                	.2byte	0x2020
2000700a:	2020                	.2byte	0x2020
2000700c:	2020                	.2byte	0x2020
2000700e:	2020                	.2byte	0x2020
20007010:	2020                	.2byte	0x2020
20007012:	e220                	.2byte	0xe220
20007014:	8294                	.2byte	0x8294
20007016:	000a                	.2byte	0xa
20007018:	94e2                	.2byte	0x94e2
2000701a:	e294                	.2byte	0xe294
2000701c:	8094                	.2byte	0x8094
2000701e:	94e2                	.2byte	0x94e2
20007020:	e280                	.2byte	0xe280
20007022:	8094                	.2byte	0x8094
20007024:	94e2                	.2byte	0x94e2
20007026:	e280                	.2byte	0xe280
20007028:	8094                	.2byte	0x8094
2000702a:	94e2                	.2byte	0x94e2
2000702c:	e280                	.2byte	0xe280
2000702e:	8094                	.2byte	0x8094
20007030:	94e2                	.2byte	0x94e2
20007032:	e280                	.2byte	0xe280
20007034:	8094                	.2byte	0x8094
20007036:	94e2                	.2byte	0x94e2
20007038:	e280                	.2byte	0xe280
2000703a:	8094                	.2byte	0x8094
2000703c:	94e2                	.2byte	0x94e2
2000703e:	e280                	.2byte	0xe280
20007040:	8094                	.2byte	0x8094
20007042:	94e2                	.2byte	0x94e2
20007044:	e280                	.2byte	0xe280
20007046:	8094                	.2byte	0x8094
20007048:	94e2                	.2byte	0x94e2
2000704a:	e280                	.2byte	0xe280
2000704c:	8094                	.2byte	0x8094
2000704e:	94e2                	.2byte	0x94e2
20007050:	e280                	.2byte	0xe280
20007052:	8094                	.2byte	0x8094
20007054:	94e2                	.2byte	0x94e2
20007056:	e280                	.2byte	0xe280
20007058:	8094                	.2byte	0x8094
2000705a:	94e2                	.2byte	0x94e2
2000705c:	e280                	.2byte	0xe280
2000705e:	8094                	.2byte	0x8094
20007060:	94e2                	.2byte	0x94e2
20007062:	e280                	.2byte	0xe280
20007064:	8094                	.2byte	0x8094
20007066:	94e2                	.2byte	0x94e2
20007068:	e280                	.2byte	0xe280
2000706a:	8094                	.2byte	0x8094
2000706c:	94e2                	.2byte	0x94e2
2000706e:	e280                	.2byte	0xe280
20007070:	8094                	.2byte	0x8094
20007072:	94e2                	.2byte	0x94e2
20007074:	e280                	.2byte	0xe280
20007076:	8094                	.2byte	0x8094
20007078:	94e2                	.2byte	0x94e2
2000707a:	e280                	.2byte	0xe280
2000707c:	8094                	.2byte	0x8094
2000707e:	94e2                	.2byte	0x94e2
20007080:	e280                	.2byte	0xe280
20007082:	8094                	.2byte	0x8094
20007084:	94e2                	.2byte	0x94e2
20007086:	e280                	.2byte	0xe280
20007088:	8094                	.2byte	0x8094
2000708a:	94e2                	.2byte	0x94e2
2000708c:	e280                	.2byte	0xe280
2000708e:	8094                	.2byte	0x8094
20007090:	94e2                	.2byte	0x94e2
20007092:	e280                	.2byte	0xe280
20007094:	8094                	.2byte	0x8094
20007096:	94e2                	.2byte	0x94e2
20007098:	e280                	.2byte	0xe280
2000709a:	8094                	.2byte	0x8094
2000709c:	94e2                	.2byte	0x94e2
2000709e:	e280                	.2byte	0xe280
200070a0:	8094                	.2byte	0x8094
200070a2:	94e2                	.2byte	0x94e2
200070a4:	e280                	.2byte	0xe280
200070a6:	8094                	.2byte	0x8094
200070a8:	94e2                	.2byte	0x94e2
200070aa:	e280                	.2byte	0xe280
200070ac:	8094                	.2byte	0x8094
200070ae:	94e2                	.2byte	0x94e2
200070b0:	e280                	.2byte	0xe280
200070b2:	8094                	.2byte	0x8094
200070b4:	94e2                	.2byte	0x94e2
200070b6:	0a98                	.2byte	0xa98
200070b8:	0000                	.2byte	0x0
200070ba:	0000                	.2byte	0x0
200070bc:	6d305b1b          	.4byte	0x6d305b1b
200070c0:	000a                	.2byte	0xa
200070c2:	0000                	.2byte	0x0
200070c4:	6d305b1b          	.4byte	0x6d305b1b
200070c8:	0a0a                	.2byte	0xa0a
200070ca:	0000                	.2byte	0x0
200070cc:	94e2                	.2byte	0x94e2
200070ce:	2082                	.2byte	0x2082
200070d0:	74666f53          	.4byte	0x74666f53
200070d4:	65726177          	.4byte	0x65726177
200070d8:	4620                	.2byte	0x4620
200070da:	6961                	.2byte	0x6961
200070dc:	756c                	.2byte	0x756c
200070de:	6572                	.2byte	0x6572
200070e0:	202e                	.2byte	0x202e
200070e2:	7250                	.2byte	0x7250
200070e4:	7365                	.2byte	0x7365
200070e6:	65722073          	csrs	0x657,tp
200070ea:	20746573          	csrrsi	a0,0x207,8
200070ee:	7562                	.2byte	0x7562
200070f0:	7474                	.2byte	0x7474
200070f2:	74206e6f          	jal	t3,2000d834 <_end+0x35dc>
200070f6:	6f63206f          	j	200397ec <_end+0x2f594>
200070fa:	746e                	.2byte	0x746e
200070fc:	6e69                	.2byte	0x6e69
200070fe:	6575                	.2byte	0x6575
20007100:	202e                	.2byte	0x202e
20007102:	94e2                	.2byte	0x94e2
20007104:	0a82                	.2byte	0xa82
20007106:	0000                	.2byte	0x0
20007108:	94e2                	.2byte	0x94e2
2000710a:	2082                	.2byte	0x2082
2000710c:	2020                	.2byte	0x2020
2000710e:	75727547          	.4byte	0x75727547
20007112:	4d20                	.2byte	0x4d20
20007114:	6465                	.2byte	0x6465
20007116:	7469                	.2byte	0x7469
20007118:	7461                	.2byte	0x7461
2000711a:	6f69                	.2byte	0x6f69
2000711c:	206e                	.2byte	0x206e
2000711e:	002e0023          	sb	sp,0(t3)
20007122:	0000                	.2byte	0x0
20007124:	33335b1b          	.4byte	0x33335b1b
20007128:	006d                	.2byte	0x6d
2000712a:	0000                	.2byte	0x0
2000712c:	32335b1b          	.4byte	0x32335b1b
20007130:	006d                	.2byte	0x6d
20007132:	0000                	.2byte	0x0
20007134:	3c20                	.2byte	0x3c20
20007136:	6964                	.2byte	0x6964
20007138:	3e72                	.2byte	0x3e72
2000713a:	0000                	.2byte	0x0
2000713c:	0062                	.2byte	0x62
2000713e:	0000                	.2byte	0x0
20007140:	1b485b1b          	.4byte	0x1b485b1b
20007144:	1b6d305b          	.4byte	0x1b6d305b
20007148:	004a325b          	.4byte	0x4a325b
2000714c:	6620                	.2byte	0x6620
2000714e:	6961                	.2byte	0x6961
20007150:	656c                	.2byte	0x656c
20007152:	3a64                	.2byte	0x3a64
20007154:	6520                	.2byte	0x6520
20007156:	7078                	.2byte	0x7078
20007158:	6365                	.2byte	0x6365
2000715a:	6974                	.2byte	0x6974
2000715c:	676e                	.2byte	0x676e
2000715e:	3020                	.2byte	0x3020
20007160:	3778                	.2byte	0x3778
20007162:	2b46                	.2byte	0x2b46
20007164:	464c4527          	.4byte	0x464c4527
20007168:	00000027          	.4byte	0x27
2000716c:	003a6473          	csrrsi	s0,fcsr,20
20007170:	7845                	.2byte	0x7845
20007172:	6365                	.2byte	0x6365
20007174:	7475                	.2byte	0x7475
20007176:	6261                	.2byte	0x6261
20007178:	656c                	.2byte	0x656c
2000717a:	2720                	.2byte	0x2720
2000717c:	0000                	.2byte	0x0
2000717e:	0000                	.2byte	0x0
20007180:	6f6e2027          	.4byte	0x6f6e2027
20007184:	2074                	.2byte	0x2074
20007186:	6f66                	.2byte	0x6f66
20007188:	6e75                	.2byte	0x6e75
2000718a:	2e64                	.2byte	0x2e64
2000718c:	000a                	.2byte	0xa
2000718e:	0000                	.2byte	0x0
20007190:	6568                	.2byte	0x6568
20007192:	706c                	.2byte	0x706c
20007194:	0000                	.2byte	0x0
20007196:	0000                	.2byte	0x0
20007198:	34335b1b          	.4byte	0x34335b1b
2000719c:	1b6d                	.2byte	0x1b6d
2000719e:	6d37345b          	.4byte	0x6d37345b
200071a2:	6d375b1b          	.4byte	0x6d375b1b
200071a6:	6964                	.2byte	0x6964
200071a8:	1b72                	.2byte	0x1b72
200071aa:	3a6d305b          	.4byte	0x3a6d305b
200071ae:	7320                	.2byte	0x7320
200071b0:	6f68                	.2byte	0x6f68
200071b2:	696c2077          	.4byte	0x696c2077
200071b6:	6f207473          	csrrci	s0,0x6f2,0
200071ba:	2066                	.2byte	0x2066
200071bc:	6966                	.2byte	0x6966
200071be:	656c                	.2byte	0x656c
200071c0:	6e692073          	csrs	0x6e6,s2
200071c4:	7720                	.2byte	0x7720
200071c6:	696b726f          	jal	tp,200be85c <_end+0xb4604>
200071ca:	676e                	.2byte	0x676e
200071cc:	6420                	.2byte	0x6420
200071ce:	7269                	.2byte	0x7269
200071d0:	6365                	.2byte	0x6365
200071d2:	6f74                	.2byte	0x6f74
200071d4:	7972                	.2byte	0x7972
200071d6:	000a                	.2byte	0xa
200071d8:	34335b1b          	.4byte	0x34335b1b
200071dc:	1b6d                	.2byte	0x1b6d
200071de:	6d37345b          	.4byte	0x6d37345b
200071e2:	6d375b1b          	.4byte	0x6d375b1b
200071e6:	1b647763          	bgeu	s0,s6,20007394 <strnlen+0x8fc>
200071ea:	3a6d305b          	.4byte	0x3a6d305b
200071ee:	6320                	.2byte	0x6320
200071f0:	6168                	.2byte	0x6168
200071f2:	676e                	.2byte	0x676e
200071f4:	2065                	.2byte	0x2065
200071f6:	6b726f77          	.4byte	0x6b726f77
200071fa:	6e69                	.2byte	0x6e69
200071fc:	69642067          	.4byte	0x69642067
20007200:	6572                	.2byte	0x6572
20007202:	726f7463          	bgeu	t5,t1,2000792a <_ZZ11ff_wtoupperE4cvt2+0x72>
20007206:	0a79                	.2byte	0xa79
20007208:	0000                	.2byte	0x0
2000720a:	0000                	.2byte	0x0
2000720c:	34335b1b          	.4byte	0x34335b1b
20007210:	1b6d                	.2byte	0x1b6d
20007212:	6d37345b          	.4byte	0x6d37345b
20007216:	6d375b1b          	.4byte	0x6d375b1b
2000721a:	7770                	.2byte	0x7770
2000721c:	1b64                	.2byte	0x1b64
2000721e:	3a6d305b          	.4byte	0x3a6d305b
20007222:	7320                	.2byte	0x7320
20007224:	6f68                	.2byte	0x6f68
20007226:	6f772077          	.4byte	0x6f772077
2000722a:	6b72                	.2byte	0x6b72
2000722c:	6e69                	.2byte	0x6e69
2000722e:	69642067          	.4byte	0x69642067
20007232:	6572                	.2byte	0x6572
20007234:	726f7463          	bgeu	t5,t1,2000795c <_ZZ11ff_wtoupperE4cvt2+0xa4>
20007238:	0a79                	.2byte	0xa79
2000723a:	0000                	.2byte	0x0
2000723c:	34335b1b          	.4byte	0x34335b1b
20007240:	1b6d                	.2byte	0x1b6d
20007242:	6d37345b          	.4byte	0x6d37345b
20007246:	6d375b1b          	.4byte	0x6d375b1b
2000724a:	1b736c63          	bltu	t1,s7,20007402 <strnlen+0x96a>
2000724e:	3a6d305b          	.4byte	0x3a6d305b
20007252:	6320                	.2byte	0x6320
20007254:	656c                	.2byte	0x656c
20007256:	7261                	.2byte	0x7261
20007258:	7620                	.2byte	0x7620
2000725a:	7369                	.2byte	0x7369
2000725c:	6269                	.2byte	0x6269
2000725e:	656c                	.2byte	0x656c
20007260:	7020                	.2byte	0x7020
20007262:	6974726f          	jal	tp,2004f0f8 <_end+0x44ea0>
20007266:	6f206e6f          	jal	t3,2000d958 <_end+0x3700>
2000726a:	2066                	.2byte	0x2066
2000726c:	6574                	.2byte	0x6574
2000726e:	6d72                	.2byte	0x6d72
20007270:	6e69                	.2byte	0x6e69
20007272:	6c61                	.2byte	0x6c61
20007274:	000a                	.2byte	0xa
20007276:	0000                	.2byte	0x0
20007278:	34335b1b          	.4byte	0x34335b1b
2000727c:	1b6d                	.2byte	0x1b6d
2000727e:	6d37345b          	.4byte	0x6d37345b
20007282:	6d375b1b          	.4byte	0x6d375b1b
20007286:	706f7473          	csrrci	s0,0x706,30
2000728a:	6d305b1b          	.4byte	0x6d305b1b
2000728e:	203a                	.2byte	0x203a
20007290:	7865                	.2byte	0x7865
20007292:	7469                	.2byte	0x7469
20007294:	6d20                	.2byte	0x6d20
20007296:	6961                	.2byte	0x6961
20007298:	206e                	.2byte	0x206e
2000729a:	6c20534f          	.4byte	0x6c20534f
2000729e:	0a706f6f          	jal	t5,2000db44 <_end+0x38ec>
200072a2:	0000                	.2byte	0x0
200072a4:	00647763          	bgeu	s0,t1,200072b2 <strnlen+0x81a>
200072a8:	7770                	.2byte	0x7770
200072aa:	0064                	.2byte	0x64
200072ac:	6964                	.2byte	0x6964
200072ae:	0072                	.2byte	0x72
200072b0:	00736c63          	bltu	t1,t2,200072c8 <strnlen+0x830>
200072b4:	706f7473          	csrrci	s0,0x706,30
200072b8:	0000                	.2byte	0x0
200072ba:	0000                	.2byte	0x0
200072bc:	7561                	.2byte	0x7561
200072be:	6f74                	.2byte	0x6f74
200072c0:	7865                	.2byte	0x7865
200072c2:	6365                	.2byte	0x6365
200072c4:	652e                	.2byte	0x652e
200072c6:	666c                	.2byte	0x666c
200072c8:	0000                	.2byte	0x0
200072ca:	0000                	.2byte	0x0
200072cc:	63637553          	.4byte	0x63637553
200072d0:	6565                	.2byte	0x6565
200072d2:	6564                	.2byte	0x6564
200072d4:	0a64                	.2byte	0xa64
200072d6:	0000                	.2byte	0x0
200072d8:	2041                	.2byte	0x2041
200072da:	6168                	.2byte	0x6168
200072dc:	6472                	.2byte	0x6472
200072de:	6520                	.2byte	0x6520
200072e0:	7272                	.2byte	0x7272
200072e2:	6f20726f          	jal	tp,2000e9d4 <_end+0x477c>
200072e6:	72756363          	bltu	a0,t2,20007a0c <_ZZ11ff_wtoupperE4cvt1+0x98>
200072ea:	6572                	.2byte	0x6572
200072ec:	2064                	.2byte	0x2064
200072ee:	6e69                	.2byte	0x6e69
200072f0:	7420                	.2byte	0x7420
200072f2:	6568                	.2byte	0x6568
200072f4:	6c20                	.2byte	0x6c20
200072f6:	6c20776f          	jal	a4,2000e9b8 <_end+0x4760>
200072fa:	7665                	.2byte	0x7665
200072fc:	6c65                	.2byte	0x6c65
200072fe:	6420                	.2byte	0x6420
20007300:	7369                	.2byte	0x7369
20007302:	2f49206b          	.4byte	0x2f49206b
20007306:	616c204f          	.4byte	0x616c204f
2000730a:	6579                	.2byte	0x6579
2000730c:	0a72                	.2byte	0xa72
2000730e:	0000                	.2byte	0x0
20007310:	7341                	.2byte	0x7341
20007312:	74726573          	csrrsi	a0,0x747,4
20007316:	6f69                	.2byte	0x6f69
20007318:	206e                	.2byte	0x206e
2000731a:	6166                	.2byte	0x6166
2000731c:	6c69                	.2byte	0x6c69
2000731e:	6465                	.2byte	0x6465
20007320:	000a                	.2byte	0xa
20007322:	0000                	.2byte	0x0
20007324:	6854                	.2byte	0x6854
20007326:	2065                	.2byte	0x2065
20007328:	6870                	.2byte	0x6870
2000732a:	7379                	.2byte	0x7379
2000732c:	6369                	.2byte	0x6369
2000732e:	6c61                	.2byte	0x6c61
20007330:	6420                	.2byte	0x6420
20007332:	6972                	.2byte	0x6972
20007334:	6576                	.2byte	0x6576
20007336:	6320                	.2byte	0x6320
20007338:	6e61                	.2byte	0x6e61
2000733a:	6f6e                	.2byte	0x6f6e
2000733c:	2074                	.2byte	0x2074
2000733e:	6b726f77          	.4byte	0x6b726f77
20007342:	000a                	.2byte	0xa
20007344:	6c756f43          	.4byte	0x6c756f43
20007348:	2064                	.2byte	0x2064
2000734a:	6f6e                	.2byte	0x6f6e
2000734c:	2074                	.2byte	0x2074
2000734e:	6966                	.2byte	0x6966
20007350:	646e                	.2byte	0x646e
20007352:	7420                	.2byte	0x7420
20007354:	6568                	.2byte	0x6568
20007356:	6620                	.2byte	0x6620
20007358:	6c69                	.2byte	0x6c69
2000735a:	0a65                	.2byte	0xa65
2000735c:	0000                	.2byte	0x0
2000735e:	0000                	.2byte	0x0
20007360:	6c756f43          	.4byte	0x6c756f43
20007364:	2064                	.2byte	0x2064
20007366:	6f6e                	.2byte	0x6f6e
20007368:	2074                	.2byte	0x2074
2000736a:	6966                	.2byte	0x6966
2000736c:	646e                	.2byte	0x646e
2000736e:	7420                	.2byte	0x7420
20007370:	6568                	.2byte	0x6568
20007372:	7020                	.2byte	0x7020
20007374:	7461                	.2byte	0x7461
20007376:	0a68                	.2byte	0xa68
20007378:	0000                	.2byte	0x0
2000737a:	0000                	.2byte	0x0
2000737c:	6854                	.2byte	0x6854
2000737e:	2065                	.2byte	0x2065
20007380:	6170                	.2byte	0x6170
20007382:	6874                	.2byte	0x6874
20007384:	6e20                	.2byte	0x6e20
20007386:	6d61                	.2byte	0x6d61
20007388:	2065                	.2byte	0x2065
2000738a:	6f66                	.2byte	0x6f66
2000738c:	6d72                	.2byte	0x6d72
2000738e:	7461                	.2byte	0x7461
20007390:	6920                	.2byte	0x6920
20007392:	6e692073          	csrs	0x6e6,s2
20007396:	6176                	.2byte	0x6176
20007398:	696c                	.2byte	0x696c
2000739a:	0a64                	.2byte	0xa64
2000739c:	0000                	.2byte	0x0
2000739e:	0000                	.2byte	0x0
200073a0:	6341                	.2byte	0x6341
200073a2:	73736563          	bltu	t1,s7,20007acc <_ZZ11ff_wtoupperE4cvt1+0x158>
200073a6:	6420                	.2byte	0x6420
200073a8:	6e65                	.2byte	0x6e65
200073aa:	6569                	.2byte	0x6569
200073ac:	2064                	.2byte	0x2064
200073ae:	7564                	.2byte	0x7564
200073b0:	2065                	.2byte	0x2065
200073b2:	6f74                	.2byte	0x6f74
200073b4:	7020                	.2byte	0x7020
200073b6:	6f72                	.2byte	0x6f72
200073b8:	6968                	.2byte	0x6968
200073ba:	6962                	.2byte	0x6962
200073bc:	6574                	.2byte	0x6574
200073be:	2064                	.2byte	0x2064
200073c0:	6361                	.2byte	0x6361
200073c2:	73736563          	bltu	t1,s7,20007aec <_ZZ11ff_wtoupperE4cvt1+0x178>
200073c6:	6f20                	.2byte	0x6f20
200073c8:	2072                	.2byte	0x2072
200073ca:	6964                	.2byte	0x6964
200073cc:	6572                	.2byte	0x6572
200073ce:	726f7463          	bgeu	t5,t1,20007af6 <_ZZ11ff_wtoupperE4cvt1+0x182>
200073d2:	2079                	.2byte	0x2079
200073d4:	7566                	.2byte	0x7566
200073d6:	6c6c                	.2byte	0x6c6c
200073d8:	000a                	.2byte	0xa
200073da:	0000                	.2byte	0x0
200073dc:	6341                	.2byte	0x6341
200073de:	73736563          	bltu	t1,s7,20007b08 <_ZZ11ff_wtoupperE4cvt1+0x194>
200073e2:	6420                	.2byte	0x6420
200073e4:	6e65                	.2byte	0x6e65
200073e6:	6569                	.2byte	0x6569
200073e8:	2064                	.2byte	0x2064
200073ea:	7564                	.2byte	0x7564
200073ec:	2065                	.2byte	0x2065
200073ee:	6f74                	.2byte	0x6f74
200073f0:	7020                	.2byte	0x7020
200073f2:	6f72                	.2byte	0x6f72
200073f4:	6968                	.2byte	0x6968
200073f6:	6962                	.2byte	0x6962
200073f8:	6574                	.2byte	0x6574
200073fa:	2064                	.2byte	0x2064
200073fc:	6361                	.2byte	0x6361
200073fe:	73736563          	bltu	t1,s7,20007b28 <_ZZ11ff_wtoupperE4cvt1+0x1b4>
20007402:	000a                	.2byte	0xa
20007404:	6854                	.2byte	0x6854
20007406:	2065                	.2byte	0x2065
20007408:	6966                	.2byte	0x6966
2000740a:	656c                	.2byte	0x656c
2000740c:	7269642f          	.4byte	0x7269642f
20007410:	6365                	.2byte	0x6365
20007412:	6f74                	.2byte	0x6f74
20007414:	7972                	.2byte	0x7972
20007416:	6f20                	.2byte	0x6f20
20007418:	6a62                	.2byte	0x6a62
2000741a:	6365                	.2byte	0x6365
2000741c:	2074                	.2byte	0x2074
2000741e:	7369                	.2byte	0x7369
20007420:	6920                	.2byte	0x6920
20007422:	766e                	.2byte	0x766e
20007424:	6c61                	.2byte	0x6c61
20007426:	6469                	.2byte	0x6469
20007428:	000a                	.2byte	0xa
2000742a:	0000                	.2byte	0x0
2000742c:	6854                	.2byte	0x6854
2000742e:	2065                	.2byte	0x2065
20007430:	6870                	.2byte	0x6870
20007432:	7379                	.2byte	0x7379
20007434:	6369                	.2byte	0x6369
20007436:	6c61                	.2byte	0x6c61
20007438:	6420                	.2byte	0x6420
2000743a:	6972                	.2byte	0x6972
2000743c:	6576                	.2byte	0x6576
2000743e:	6920                	.2byte	0x6920
20007440:	72772073          	csrs	mhpmevent7h,a4
20007444:	7469                	.2byte	0x7469
20007446:	2065                	.2byte	0x2065
20007448:	7270                	.2byte	0x7270
2000744a:	6365746f          	jal	s0,2005ea80 <_end+0x54828>
2000744e:	6574                	.2byte	0x6574
20007450:	0a64                	.2byte	0xa64
20007452:	0000                	.2byte	0x0
20007454:	6854                	.2byte	0x6854
20007456:	2065                	.2byte	0x2065
20007458:	6f6c                	.2byte	0x6f6c
2000745a:	61636967          	.4byte	0x61636967
2000745e:	206c                	.2byte	0x206c
20007460:	7264                	.2byte	0x7264
20007462:	7669                	.2byte	0x7669
20007464:	2065                	.2byte	0x2065
20007466:	756e                	.2byte	0x756e
20007468:	626d                	.2byte	0x626d
2000746a:	7265                	.2byte	0x7265
2000746c:	6920                	.2byte	0x6920
2000746e:	6e692073          	csrs	0x6e6,s2
20007472:	6176                	.2byte	0x6176
20007474:	696c                	.2byte	0x696c
20007476:	0a64                	.2byte	0xa64
20007478:	0000                	.2byte	0x0
2000747a:	0000                	.2byte	0x0
2000747c:	6854                	.2byte	0x6854
2000747e:	2065                	.2byte	0x2065
20007480:	6f76                	.2byte	0x6f76
20007482:	756c                	.2byte	0x756c
20007484:	656d                	.2byte	0x656d
20007486:	6820                	.2byte	0x6820
20007488:	7361                	.2byte	0x7361
2000748a:	6e20                	.2byte	0x6e20
2000748c:	6f77206f          	j	2007a382 <_end+0x7012a>
20007490:	6b72                	.2byte	0x6b72
20007492:	6120                	.2byte	0x6120
20007494:	6572                	.2byte	0x6572
20007496:	0a61                	.2byte	0xa61
20007498:	0000                	.2byte	0x0
2000749a:	0000                	.2byte	0x0
2000749c:	6854                	.2byte	0x6854
2000749e:	7265                	.2byte	0x7265
200074a0:	2065                	.2byte	0x2065
200074a2:	7369                	.2byte	0x7369
200074a4:	6e20                	.2byte	0x6e20
200074a6:	6176206f          	j	2006a2bc <_end+0x60064>
200074aa:	696c                	.2byte	0x696c
200074ac:	2064                	.2byte	0x2064
200074ae:	4146                	.2byte	0x4146
200074b0:	2054                	.2byte	0x2054
200074b2:	6f76                	.2byte	0x6f76
200074b4:	756c                	.2byte	0x756c
200074b6:	656d                	.2byte	0x656d
200074b8:	000a                	.2byte	0xa
200074ba:	0000                	.2byte	0x0
200074bc:	6854                	.2byte	0x6854
200074be:	2065                	.2byte	0x2065
200074c0:	5f66                	.2byte	0x5f66
200074c2:	6b6d                	.2byte	0x6b6d
200074c4:	7366                	.2byte	0x7366
200074c6:	2928                	.2byte	0x2928
200074c8:	6120                	.2byte	0x6120
200074ca:	6f62                	.2byte	0x6f62
200074cc:	7472                	.2byte	0x7472
200074ce:	6465                	.2byte	0x6465
200074d0:	6420                	.2byte	0x6420
200074d2:	6575                	.2byte	0x6575
200074d4:	7420                	.2byte	0x7420
200074d6:	6e61206f          	j	20019bbc <_end+0xf964>
200074da:	2079                	.2byte	0x2079
200074dc:	7270                	.2byte	0x7270
200074de:	656c626f          	jal	tp,200cdb34 <_end+0xc38dc>
200074e2:	0a6d                	.2byte	0xa6d
200074e4:	0000                	.2byte	0x0
200074e6:	0000                	.2byte	0x0
200074e8:	6c756f43          	.4byte	0x6c756f43
200074ec:	2064                	.2byte	0x2064
200074ee:	6f6e                	.2byte	0x6f6e
200074f0:	2074                	.2byte	0x2074
200074f2:	20746567          	.4byte	0x20746567
200074f6:	2061                	.2byte	0x2061
200074f8:	6e617267          	.4byte	0x6e617267
200074fc:	2074                	.2byte	0x2074
200074fe:	6f74                	.2byte	0x6f74
20007500:	6120                	.2byte	0x6120
20007502:	73656363          	bltu	a0,s6,20007c28 <_ZL5uc437+0xc0>
20007506:	68742073          	csrs	0x687,s0
2000750a:	2065                	.2byte	0x2065
2000750c:	6f76                	.2byte	0x6f76
2000750e:	756c                	.2byte	0x756c
20007510:	656d                	.2byte	0x656d
20007512:	7720                	.2byte	0x7720
20007514:	7469                	.2byte	0x7469
20007516:	6968                	.2byte	0x6968
20007518:	206e                	.2byte	0x206e
2000751a:	6564                	.2byte	0x6564
2000751c:	6966                	.2byte	0x6966
2000751e:	656e                	.2byte	0x656e
20007520:	2064                	.2byte	0x2064
20007522:	6570                	.2byte	0x6570
20007524:	6972                	.2byte	0x6972
20007526:	000a646f          	jal	s0,200ad526 <_end+0xa32ce>
2000752a:	0000                	.2byte	0x0
2000752c:	6854                	.2byte	0x6854
2000752e:	2065                	.2byte	0x2065
20007530:	7265706f          	j	2005ec56 <_end+0x549fe>
20007534:	7461                	.2byte	0x7461
20007536:	6f69                	.2byte	0x6f69
20007538:	206e                	.2byte	0x206e
2000753a:	7369                	.2byte	0x7369
2000753c:	7220                	.2byte	0x7220
2000753e:	6a65                	.2byte	0x6a65
20007540:	6365                	.2byte	0x6365
20007542:	6574                	.2byte	0x6574
20007544:	2064                	.2byte	0x2064
20007546:	6361                	.2byte	0x6361
20007548:	64726f63          	bltu	tp,t2,20007ba6 <_ZL5uc437+0x3e>
2000754c:	6e69                	.2byte	0x6e69
2000754e:	6f742067          	.4byte	0x6f742067
20007552:	7420                	.2byte	0x7420
20007554:	6568                	.2byte	0x6568
20007556:	6620                	.2byte	0x6620
20007558:	6c69                	.2byte	0x6c69
2000755a:	2065                	.2byte	0x2065
2000755c:	72616873          	csrrsi	a6,mhpmevent6h,2
20007560:	6e69                	.2byte	0x6e69
20007562:	6f702067          	.4byte	0x6f702067
20007566:	696c                	.2byte	0x696c
20007568:	000a7963          	bgeu	s4,zero,2000757a <strnlen+0xae2>
2000756c:	464c                	.2byte	0x464c
2000756e:	204e                	.2byte	0x204e
20007570:	6b726f77          	.4byte	0x6b726f77
20007574:	6e69                	.2byte	0x6e69
20007576:	75622067          	.4byte	0x75622067
2000757a:	6666                	.2byte	0x6666
2000757c:	7265                	.2byte	0x7265
2000757e:	6320                	.2byte	0x6320
20007580:	646c756f          	jal	a0,200cebc6 <_end+0xc496e>
20007584:	6e20                	.2byte	0x6e20
20007586:	6220746f          	jal	s0,2000eba8 <_end+0x4950>
2000758a:	2065                	.2byte	0x2065
2000758c:	6c61                	.2byte	0x6c61
2000758e:	6f6c                	.2byte	0x6f6c
20007590:	65746163          	bltu	s0,s7,20007bd2 <_ZL5uc437+0x6a>
20007594:	0a64                	.2byte	0xa64
20007596:	0000                	.2byte	0x0
20007598:	754e                	.2byte	0x754e
2000759a:	626d                	.2byte	0x626d
2000759c:	7265                	.2byte	0x7265
2000759e:	6f20                	.2byte	0x6f20
200075a0:	2066                	.2byte	0x2066
200075a2:	6e65706f          	j	2005ec88 <_end+0x54a30>
200075a6:	6620                	.2byte	0x6620
200075a8:	6c69                	.2byte	0x6c69
200075aa:	7365                	.2byte	0x7365
200075ac:	3e20                	.2byte	0x3e20
200075ae:	4620                	.2byte	0x4620
200075b0:	5f46                	.2byte	0x5f46
200075b2:	5346                	.2byte	0x5346
200075b4:	4c5f 434f 0a4b      	.byte	0x5f, 0x4c, 0x4f, 0x43, 0x4b, 0x0a
200075ba:	0000                	.2byte	0x0
200075bc:	65766947          	.4byte	0x65766947
200075c0:	206e                	.2byte	0x206e
200075c2:	6170                	.2byte	0x6170
200075c4:	6172                	.2byte	0x6172
200075c6:	656d                	.2byte	0x656d
200075c8:	6574                	.2byte	0x6574
200075ca:	2072                	.2byte	0x2072
200075cc:	7369                	.2byte	0x7369
200075ce:	6920                	.2byte	0x6920
200075d0:	766e                	.2byte	0x766e
200075d2:	6c61                	.2byte	0x6c61
200075d4:	6469                	.2byte	0x6469
200075d6:	000a                	.2byte	0xa
200075d8:	3130                	.2byte	0x3130
200075da:	3332                	.2byte	0x3332
200075dc:	3534                	.2byte	0x3534
200075de:	3736                	.2byte	0x3736
200075e0:	3938                	.2byte	0x3938
200075e2:	4241                	.2byte	0x4241
200075e4:	46454443          	.4byte	0x46454443
200075e8:	0000                	.2byte	0x0
200075ea:	0000                	.2byte	0x0
200075ec:	2020                	.2byte	0x2020
200075ee:	2020                	.2byte	0x2020
200075f0:	2020                	.2byte	0x2020
200075f2:	2020                	.2byte	0x2020
200075f4:	0000                	.2byte	0x0
200075f6:	0000                	.2byte	0x0
200075f8:	3130                	.2byte	0x3130
200075fa:	3332                	.2byte	0x3332
200075fc:	3534                	.2byte	0x3534
200075fe:	3736                	.2byte	0x3736
20007600:	3938                	.2byte	0x3938
20007602:	0000                	.2byte	0x0
20007604:	2020                	.2byte	0x2020
20007606:	2020                	.2byte	0x2020
20007608:	2020                	.2byte	0x2020
2000760a:	2020                	.2byte	0x2020
2000760c:	2020                	.2byte	0x2020
2000760e:	2020                	.2byte	0x2020
20007610:	2020                	.2byte	0x2020
20007612:	2020                	.2byte	0x2020
20007614:	2020                	.2byte	0x2020
20007616:	0020                	.2byte	0x20
20007618:	64494453          	.4byte	0x64494453
2000761c:	656c                	.2byte	0x656c
2000761e:	6520                	.2byte	0x6520
20007620:	7078                	.2byte	0x7078
20007622:	6365                	.2byte	0x6365
20007624:	6574                	.2byte	0x6574
20007626:	2064                	.2byte	0x2064
20007628:	7830                	.2byte	0x7830
2000762a:	3130                	.2byte	0x3130
2000762c:	202c                	.2byte	0x202c
2000762e:	20746f67          	.4byte	0x20746f67
20007632:	7830                	.2byte	0x7830
20007634:	0000                	.2byte	0x0
20007636:	0000                	.2byte	0x0
20007638:	68434453          	.4byte	0x68434453
2000763c:	6365                	.2byte	0x6365
2000763e:	6c6f566b          	.4byte	0x6c6f566b
20007642:	6174                	.2byte	0x6174
20007644:	61526567          	.4byte	0x61526567
20007648:	676e                	.2byte	0x676e
2000764a:	2065                	.2byte	0x2065
2000764c:	7865                	.2byte	0x7865
2000764e:	6570                	.2byte	0x6570
20007650:	64657463          	bgeu	a0,t1,20007c98 <_etext+0x30>
20007654:	3020                	.2byte	0x3020
20007656:	3078                	.2byte	0x3078
20007658:	2c31                	.2byte	0x2c31
2000765a:	6720                	.2byte	0x6720
2000765c:	3020746f          	jal	s0,2000e95e <_end+0x4706>
20007660:	0078                	.2byte	0x78
20007662:	0000                	.2byte	0x0
20007664:	68434453          	.4byte	0x68434453
20007668:	6365                	.2byte	0x6365
2000766a:	6c6f566b          	.4byte	0x6c6f566b
2000766e:	6174                	.2byte	0x6174
20007670:	61526567          	.4byte	0x61526567
20007674:	676e                	.2byte	0x676e
20007676:	2065                	.2byte	0x2065
20007678:	7865                	.2byte	0x7865
2000767a:	6570                	.2byte	0x6570
2000767c:	64657463          	bgeu	a0,t1,20007cc4 <_etext+0x5c>
20007680:	3020                	.2byte	0x3020
20007682:	3078                	.2byte	0x3078
20007684:	3030                	.2byte	0x3030
20007686:	3030                	.2byte	0x3030
20007688:	4131                	.2byte	0x4131
2000768a:	2c41                	.2byte	0x2c41
2000768c:	6720                	.2byte	0x6720
2000768e:	3020746f          	jal	s0,2000e990 <_end+0x4738>
20007692:	0078                	.2byte	0x78
20007694:	61434453          	.4byte	0x61434453
20007698:	6472                	.2byte	0x6472
2000769a:	6e49                	.2byte	0x6e49
2000769c:	7469                	.2byte	0x7469
2000769e:	6520                	.2byte	0x6520
200076a0:	7078                	.2byte	0x7078
200076a2:	6365                	.2byte	0x6365
200076a4:	6574                	.2byte	0x6574
200076a6:	2064                	.2byte	0x2064
200076a8:	7830                	.2byte	0x7830
200076aa:	3130                	.2byte	0x3130
200076ac:	202c                	.2byte	0x202c
200076ae:	20746f67          	.4byte	0x20746f67
200076b2:	7830                	.2byte	0x7830
200076b4:	0000                	.2byte	0x0
200076b6:	0000                	.2byte	0x0
200076b8:	61434453          	.4byte	0x61434453
200076bc:	6472                	.2byte	0x6472
200076be:	6e49                	.2byte	0x6e49
200076c0:	7469                	.2byte	0x7469
200076c2:	6520                	.2byte	0x6520
200076c4:	7078                	.2byte	0x7078
200076c6:	6365                	.2byte	0x6365
200076c8:	6574                	.2byte	0x6574
200076ca:	2064                	.2byte	0x2064
200076cc:	7830                	.2byte	0x7830
200076ce:	3030                	.2byte	0x3030
200076d0:	202c                	.2byte	0x202c
200076d2:	20746f67          	.4byte	0x20746f67
200076d6:	7830                	.2byte	0x7830
200076d8:	0000                	.2byte	0x0
200076da:	0000                	.2byte	0x0
200076dc:	65524453          	.4byte	0x65524453
200076e0:	6461                	.2byte	0x6461
200076e2:	676e6953          	.4byte	0x676e6953
200076e6:	656c                	.2byte	0x656c
200076e8:	6c42                	.2byte	0x6c42
200076ea:	3a6b636f          	jal	t1,200bda90 <_end+0xb3838>
200076ee:	6520                	.2byte	0x6520
200076f0:	7272                	.2byte	0x7272
200076f2:	7220726f          	jal	tp,2000ee14 <_end+0x4bbc>
200076f6:	7365                	.2byte	0x7365
200076f8:	6f70                	.2byte	0x6f70
200076fa:	736e                	.2byte	0x736e
200076fc:	2065                	.2byte	0x2065
200076fe:	203d                	.2byte	0x203d
20007700:	72726527          	.4byte	0x72726527
20007704:	0a27726f          	jal	tp,2007e7a6 <_end+0x7454e>
20007708:	0000                	.2byte	0x0
2000770a:	0000                	.2byte	0x0
2000770c:	65524453          	.4byte	0x65524453
20007710:	6461                	.2byte	0x6461
20007712:	676e6953          	.4byte	0x676e6953
20007716:	656c                	.2byte	0x656c
20007718:	6c42                	.2byte	0x6c42
2000771a:	3a6b636f          	jal	t1,200bdac0 <_end+0xb3868>
2000771e:	6520                	.2byte	0x6520
20007720:	7272                	.2byte	0x7272
20007722:	7220726f          	jal	tp,2000ee44 <_end+0x4bec>
20007726:	7365                	.2byte	0x7365
20007728:	6f70                	.2byte	0x6f70
2000772a:	736e                	.2byte	0x736e
2000772c:	2065                	.2byte	0x2065
2000772e:	203d                	.2byte	0x203d
20007730:	20434327          	.4byte	0x20434327
20007734:	7265                	.2byte	0x7265
20007736:	6f72                	.2byte	0x6f72
20007738:	2772                	.2byte	0x2772
2000773a:	000a                	.2byte	0xa
2000773c:	65524453          	.4byte	0x65524453
20007740:	6461                	.2byte	0x6461
20007742:	676e6953          	.4byte	0x676e6953
20007746:	656c                	.2byte	0x656c
20007748:	6c42                	.2byte	0x6c42
2000774a:	3a6b636f          	jal	t1,200bdaf0 <_end+0xb3898>
2000774e:	6520                	.2byte	0x6520
20007750:	7272                	.2byte	0x7272
20007752:	7220726f          	jal	tp,2000ee74 <_end+0x4c1c>
20007756:	7365                	.2byte	0x7365
20007758:	6f70                	.2byte	0x6f70
2000775a:	736e                	.2byte	0x736e
2000775c:	2065                	.2byte	0x2065
2000775e:	203d                	.2byte	0x203d
20007760:	72614327          	.4byte	0x72614327
20007764:	2064                	.2byte	0x2064
20007766:	4345                	.2byte	0x4345
20007768:	61662043          	.4byte	0x61662043
2000776c:	6c69                	.2byte	0x6c69
2000776e:	6465                	.2byte	0x6465
20007770:	00000a27          	.4byte	0xa27
20007774:	65524453          	.4byte	0x65524453
20007778:	6461                	.2byte	0x6461
2000777a:	676e6953          	.4byte	0x676e6953
2000777e:	656c                	.2byte	0x656c
20007780:	6c42                	.2byte	0x6c42
20007782:	3a6b636f          	jal	t1,200bdb28 <_end+0xb38d0>
20007786:	6520                	.2byte	0x6520
20007788:	7272                	.2byte	0x7272
2000778a:	7220726f          	jal	tp,2000eeac <_end+0x4c54>
2000778e:	7365                	.2byte	0x7365
20007790:	6f70                	.2byte	0x6f70
20007792:	736e                	.2byte	0x736e
20007794:	2065                	.2byte	0x2065
20007796:	203d                	.2byte	0x203d
20007798:	74754f27          	.4byte	0x74754f27
2000779c:	6f20                	.2byte	0x6f20
2000779e:	2066                	.2byte	0x2066
200077a0:	6172                	.2byte	0x6172
200077a2:	676e                	.2byte	0x676e
200077a4:	2765                	.2byte	0x2765
200077a6:	7320                	.2byte	0x7320
200077a8:	6365                	.2byte	0x6365
200077aa:	6f74                	.2byte	0x6f74
200077ac:	3a72                	.2byte	0x3a72
200077ae:	3020                	.2byte	0x3020
200077b0:	0078                	.2byte	0x78
200077b2:	0000                	.2byte	0x0
200077b4:	72574453          	.4byte	0x72574453
200077b8:	7469                	.2byte	0x7469
200077ba:	5365                	.2byte	0x5365
200077bc:	6e69                	.2byte	0x6e69
200077be:	42656c67          	.4byte	0x42656c67
200077c2:	6f6c                	.2byte	0x6f6c
200077c4:	203a6b63          	bltu	s4,gp,200079da <_ZZ11ff_wtoupperE4cvt1+0x66>
200077c8:	74697277          	.4byte	0x74697277
200077cc:	2065                	.2byte	0x2065
200077ce:	7265                	.2byte	0x7265
200077d0:	6f72                	.2byte	0x6f72
200077d2:	0a72                	.2byte	0xa72
200077d4:	0000                	.2byte	0x0
200077d6:	0000                	.2byte	0x0
200077d8:	4146                	.2byte	0x4146
200077da:	3354                	.2byte	0x3354
200077dc:	2032                	.2byte	0x2032
200077de:	2020                	.2byte	0x2020
200077e0:	0000                	.2byte	0x0
200077e2:	0000                	.2byte	0x0
200077e4:	3a2a                	.2byte	0x3a2a
200077e6:	3e3c                	.2byte	0x3e3c
200077e8:	227c                	.2byte	0x227c
200077ea:	00007f3f 2c2b0000 	.8byte	0x2c2b000000007f3f
200077f2:	5d5b3d3b          	.4byte	0x5d5b3d3b
	...

200077f8 <_ZL5ExCvt>:
200077f8:	9a80                	.2byte	0x9a80
200077fa:	4145                	.2byte	0x4145
200077fc:	418e                	.2byte	0x418e
200077fe:	4545808f          	.4byte	0x4545808f
20007802:	4945                	.2byte	0x4945
20007804:	4949                	.2byte	0x4949
20007806:	8f8e                	.2byte	0x8f8e
20007808:	9290                	.2byte	0x9290
2000780a:	4f92                	.2byte	0x4f92
2000780c:	4f99                	.2byte	0x4f99
2000780e:	5555                	.2byte	0x5555
20007810:	9959                	.2byte	0x9959
20007812:	9b9a                	.2byte	0x9b9a
20007814:	9d9c                	.2byte	0x9d9c
20007816:	9f9e                	.2byte	0x9f9e
20007818:	4941                	.2byte	0x4941
2000781a:	a5a5554f          	.4byte	0xa5a5554f
2000781e:	a7a6                	.2byte	0xa7a6
20007820:	a9a8                	.2byte	0xa9a8
20007822:	abaa                	.2byte	0xabaa
20007824:	adac                	.2byte	0xadac
20007826:	afae                	.2byte	0xafae
20007828:	b1b0                	.2byte	0xb1b0
2000782a:	b3b2                	.2byte	0xb3b2
2000782c:	b5b4                	.2byte	0xb5b4
2000782e:	b7b6                	.2byte	0xb7b6
20007830:	b9b8                	.2byte	0xb9b8
20007832:	bbba                	.2byte	0xbbba
20007834:	bdbc                	.2byte	0xbdbc
20007836:	bfbe                	.2byte	0xbfbe
20007838:	c1c0                	.2byte	0xc1c0
2000783a:	c3c2                	.2byte	0xc3c2
2000783c:	c5c4                	.2byte	0xc5c4
2000783e:	c7c6                	.2byte	0xc7c6
20007840:	c9c8                	.2byte	0xc9c8
20007842:	cbca                	.2byte	0xcbca
20007844:	cdcc                	.2byte	0xcdcc
20007846:	cfce                	.2byte	0xcfce
20007848:	d1d0                	.2byte	0xd1d0
2000784a:	d3d2                	.2byte	0xd3d2
2000784c:	d5d4                	.2byte	0xd5d4
2000784e:	d7d6                	.2byte	0xd7d6
20007850:	d9d8                	.2byte	0xd9d8
20007852:	dbda                	.2byte	0xdbda
20007854:	dddc                	.2byte	0xdddc
20007856:	dfde                	.2byte	0xdfde
20007858:	e1e0                	.2byte	0xe1e0
2000785a:	e3e2                	.2byte	0xe3e2
2000785c:	e5e4                	.2byte	0xe5e4
2000785e:	e7e6                	.2byte	0xe7e6
20007860:	e9e8                	.2byte	0xe9e8
20007862:	ebea                	.2byte	0xebea
20007864:	edec                	.2byte	0xedec
20007866:	efee                	.2byte	0xefee
20007868:	f1f0                	.2byte	0xf1f0
2000786a:	f3f2                	.2byte	0xf3f2
2000786c:	f5f4                	.2byte	0xf5f4
2000786e:	f7f6                	.2byte	0xf7f6
20007870:	f9f8                	.2byte	0xf9f8
20007872:	fbfa                	.2byte	0xfbfa
20007874:	fdfc                	.2byte	0xfdfc
20007876:	fffe                	.2byte	0xfffe

20007878 <_ZL6LfnOfs>:
20007878:	0301                	.2byte	0x301
2000787a:	0705                	.2byte	0x705
2000787c:	0e09                	.2byte	0xe09
2000787e:	1210                	.2byte	0x1210
20007880:	1614                	.2byte	0x1614
20007882:	1c18                	.2byte	0x1c18
20007884:	001e                	.2byte	0x1e
20007886:	0000                	.2byte	0x0
20007888:	4152                	.2byte	0x4152
2000788a:	004d                	.2byte	0x4d
2000788c:	00004453          	.4byte	0x4453
20007890:	5355                	.2byte	0x5355
20007892:	0042                	.2byte	0x42
20007894:	d654                	.2byte	0xd654
20007896:	ffff                	.2byte	0xffff
20007898:	d66c                	.2byte	0xd66c
2000789a:	ffff                	.2byte	0xffff
2000789c:	d684                	.2byte	0xd684
2000789e:	ffff                	.2byte	0xffff
200078a0:	d68c                	.2byte	0xd68c
200078a2:	ffff                	.2byte	0xffff
200078a4:	d694                	.2byte	0xd694
200078a6:	ffff                	.2byte	0xffff
200078a8:	d69c                	.2byte	0xd69c
200078aa:	ffff                	.2byte	0xffff
200078ac:	d6a4                	.2byte	0xd6a4
200078ae:	ffff                	.2byte	0xffff
200078b0:	d6ac                	.2byte	0xd6ac
200078b2:	ffff                	.2byte	0xffff
200078b4:	d6b4                	.2byte	0xd6b4
200078b6:	ffff                	.2byte	0xffff

200078b8 <_ZZ11ff_wtoupperE4cvt2>:
200078b8:	1d7d                	.2byte	0x1d7d
200078ba:	0001                	.2byte	0x1
200078bc:	1e002c63          	.4byte	0x1e002c63
200078c0:	0196                	.2byte	0x196
200078c2:	1ea0                	.2byte	0x1ea0
200078c4:	015a                	.2byte	0x15a
200078c6:	1f00                	.2byte	0x1f00
200078c8:	0608                	.2byte	0x608
200078ca:	1f10                	.2byte	0x1f10
200078cc:	0606                	.2byte	0x606
200078ce:	1f20                	.2byte	0x1f20
200078d0:	0608                	.2byte	0x608
200078d2:	1f30                	.2byte	0x1f30
200078d4:	0608                	.2byte	0x608
200078d6:	1f40                	.2byte	0x1f40
200078d8:	0606                	.2byte	0x606
200078da:	1f51                	.2byte	0x1f51
200078dc:	1f590007          	.4byte	0x1f590007
200078e0:	1f52                	.2byte	0x1f52
200078e2:	1f541f5b          	.4byte	0x1f541f5b
200078e6:	1f5d                	.2byte	0x1f5d
200078e8:	1f56                	.2byte	0x1f56
200078ea:	1f5f 1f60 0608      	.byte	0x5f, 0x1f, 0x60, 0x1f, 0x08, 0x06
200078f0:	1f70                	.2byte	0x1f70
200078f2:	000e                	.2byte	0xe
200078f4:	1fba                	.2byte	0x1fba
200078f6:	1fc81fbb          	.4byte	0x1fc81fbb
200078fa:	1fc9                	.2byte	0x1fc9
200078fc:	1fca                	.2byte	0x1fca
200078fe:	1fda1fcb          	.4byte	0x1fda1fcb
20007902:	1ff81fdb          	.4byte	0x1ff81fdb
20007906:	1ff9                	.2byte	0x1ff9
20007908:	1fea                	.2byte	0x1fea
2000790a:	1ffa1feb          	.4byte	0x1ffa1feb
2000790e:	1f801ffb          	.4byte	0x1f801ffb
20007912:	0608                	.2byte	0x608
20007914:	1f90                	.2byte	0x1f90
20007916:	0608                	.2byte	0x608
20007918:	1fa0                	.2byte	0x1fa0
2000791a:	0608                	.2byte	0x608
2000791c:	1fb0                	.2byte	0x1fb0
2000791e:	0004                	.2byte	0x4
20007920:	1fb8                	.2byte	0x1fb8
20007922:	1fb9                	.2byte	0x1fb9
20007924:	1fb2                	.2byte	0x1fb2
20007926:	1fbc                	.2byte	0x1fbc
20007928:	1fcc                	.2byte	0x1fcc
2000792a:	0001                	.2byte	0x1
2000792c:	1fd01fc3          	.4byte	0x1fd01fc3
20007930:	0602                	.2byte	0x602
20007932:	1fe0                	.2byte	0x1fe0
20007934:	0602                	.2byte	0x602
20007936:	1fe5                	.2byte	0x1fe5
20007938:	0001                	.2byte	0x1
2000793a:	1fec                	.2byte	0x1fec
2000793c:	00011ff3          	csrrw	t6,ustatus,sp
20007940:	1ffc                	.2byte	0x1ffc
20007942:	214e                	.2byte	0x214e
20007944:	0001                	.2byte	0x1
20007946:	2132                	.2byte	0x2132
20007948:	2170                	.2byte	0x2170
2000794a:	0210                	.2byte	0x210
2000794c:	2184                	.2byte	0x2184
2000794e:	0001                	.2byte	0x1
20007950:	24d02183          	lw	gp,589(zero) # 24d <_start-0x1ffffdb3>
20007954:	051a                	.2byte	0x51a
20007956:	2c30                	.2byte	0x2c30
20007958:	2c60042f          	.4byte	0x2c60042f
2000795c:	0102                	.2byte	0x102
2000795e:	01062c67          	.4byte	0x1062c67
20007962:	2c75                	.2byte	0x2c75
20007964:	0102                	.2byte	0x102
20007966:	2c80                	.2byte	0x2c80
20007968:	0164                	.2byte	0x164
2000796a:	2d00                	.2byte	0x2d00
2000796c:	0826                	.2byte	0x826
2000796e:	ff41                	.2byte	0xff41
20007970:	031a                	.2byte	0x31a
	...

20007974 <_ZZ11ff_wtoupperE4cvt1>:
20007974:	0061                	.2byte	0x61
20007976:	031a                	.2byte	0x31a
20007978:	00e0                	.2byte	0xe0
2000797a:	00f80317          	auipc	t1,0xf80
2000797e:	00ff0307          	.4byte	0xff0307
20007982:	0001                	.2byte	0x1
20007984:	0178                	.2byte	0x178
20007986:	0100                	.2byte	0x100
20007988:	0130                	.2byte	0x130
2000798a:	0132                	.2byte	0x132
2000798c:	0106                	.2byte	0x106
2000798e:	0139                	.2byte	0x139
20007990:	0110                	.2byte	0x110
20007992:	014a                	.2byte	0x14a
20007994:	012e                	.2byte	0x12e
20007996:	0179                	.2byte	0x179
20007998:	0106                	.2byte	0x106
2000799a:	0180                	.2byte	0x180
2000799c:	004d                	.2byte	0x4d
2000799e:	01810243          	.4byte	0x1810243
200079a2:	0182                	.2byte	0x182
200079a4:	0182                	.2byte	0x182
200079a6:	0184                	.2byte	0x184
200079a8:	0184                	.2byte	0x184
200079aa:	0186                	.2byte	0x186
200079ac:	01870187          	.4byte	0x1870187
200079b0:	0189                	.2byte	0x189
200079b2:	018a                	.2byte	0x18a
200079b4:	018b018b          	.4byte	0x18b018b
200079b8:	018d                	.2byte	0x18d
200079ba:	018e                	.2byte	0x18e
200079bc:	0190018f          	.4byte	0x190018f
200079c0:	0191                	.2byte	0x191
200079c2:	0191                	.2byte	0x191
200079c4:	01940193          	addi	gp,s0,25
200079c8:	01f6                	.2byte	0x1f6
200079ca:	0196                	.2byte	0x196
200079cc:	01980197          	auipc	gp,0x1980
200079d0:	0198                	.2byte	0x198
200079d2:	023d                	.2byte	0x23d
200079d4:	019c019b          	.4byte	0x19c019b
200079d8:	019d                	.2byte	0x19d
200079da:	0220                	.2byte	0x220
200079dc:	019f 01a0 01a0      	.byte	0x9f, 0x01, 0xa0, 0x01, 0xa0, 0x01
200079e2:	01a2                	.2byte	0x1a2
200079e4:	01a2                	.2byte	0x1a2
200079e6:	01a4                	.2byte	0x1a4
200079e8:	01a4                	.2byte	0x1a4
200079ea:	01a6                	.2byte	0x1a6
200079ec:	01a701a7          	.4byte	0x1a701a7
200079f0:	01a9                	.2byte	0x1a9
200079f2:	01aa                	.2byte	0x1aa
200079f4:	01ac01ab          	.4byte	0x1ac01ab
200079f8:	01ac                	.2byte	0x1ac
200079fa:	01ae                	.2byte	0x1ae
200079fc:	01af01af          	.4byte	0x1af01af
20007a00:	01b1                	.2byte	0x1b1
20007a02:	01b2                	.2byte	0x1b2
20007a04:	01b301b3          	add	gp,t1,s11
20007a08:	01b5                	.2byte	0x1b5
20007a0a:	01b5                	.2byte	0x1b5
20007a0c:	01b801b7          	lui	gp,0x1b80
20007a10:	01b8                	.2byte	0x1b8
20007a12:	01ba                	.2byte	0x1ba
20007a14:	01bc01bb          	.4byte	0x1bc01bb
20007a18:	01bc                	.2byte	0x1bc
20007a1a:	01be                	.2byte	0x1be
20007a1c:	01c001f7          	.4byte	0x1c001f7
20007a20:	01c1                	.2byte	0x1c1
20007a22:	01c2                	.2byte	0x1c2
20007a24:	01c401c3          	.4byte	0x1c401c3
20007a28:	01c5                	.2byte	0x1c5
20007a2a:	01c4                	.2byte	0x1c4
20007a2c:	01c801c7          	.4byte	0x1c801c7
20007a30:	01ca01c7          	.4byte	0x1ca01c7
20007a34:	01ca01cb          	.4byte	0x1ca01cb
20007a38:	01cd                	.2byte	0x1cd
20007a3a:	0110                	.2byte	0x110
20007a3c:	01dd                	.2byte	0x1dd
20007a3e:	0001                	.2byte	0x1
20007a40:	018e                	.2byte	0x18e
20007a42:	01de                	.2byte	0x1de
20007a44:	0112                	.2byte	0x112
20007a46:	000301f3          	.4byte	0x301f3
20007a4a:	01f1                	.2byte	0x1f1
20007a4c:	01f4                	.2byte	0x1f4
20007a4e:	01f4                	.2byte	0x1f4
20007a50:	01f8                	.2byte	0x1f8
20007a52:	0128                	.2byte	0x128
20007a54:	0222                	.2byte	0x222
20007a56:	0112                	.2byte	0x112
20007a58:	023a                	.2byte	0x23a
20007a5a:	0009                	.2byte	0x9
20007a5c:	2c65                	.2byte	0x2c65
20007a5e:	023b023b          	.4byte	0x23b023b
20007a62:	023d                	.2byte	0x23d
20007a64:	2c66                	.2byte	0x2c66
20007a66:	0240023f 02410241 	.8byte	0x24102410240023f
20007a6e:	0246                	.2byte	0x246
20007a70:	010a                	.2byte	0x10a
20007a72:	00400253          	.4byte	0x400253
20007a76:	0181                	.2byte	0x181
20007a78:	0186                	.2byte	0x186
20007a7a:	0255                	.2byte	0x255
20007a7c:	0189                	.2byte	0x189
20007a7e:	018a                	.2byte	0x18a
20007a80:	0258                	.2byte	0x258
20007a82:	025a018f          	.4byte	0x25a018f
20007a86:	0190                	.2byte	0x190
20007a88:	025c                	.2byte	0x25c
20007a8a:	025d                	.2byte	0x25d
20007a8c:	025e                	.2byte	0x25e
20007a8e:	025f 0193 0261      	.byte	0x5f, 0x02, 0x93, 0x01, 0x61, 0x02
20007a94:	0262                	.2byte	0x262
20007a96:	0194                	.2byte	0x194
20007a98:	0264                	.2byte	0x264
20007a9a:	0265                	.2byte	0x265
20007a9c:	0266                	.2byte	0x266
20007a9e:	01970267          	jalr	tp,25(a4)
20007aa2:	0196                	.2byte	0x196
20007aa4:	026a                	.2byte	0x26a
20007aa6:	2c62                	.2byte	0x2c62
20007aa8:	026c                	.2byte	0x26c
20007aaa:	026d                	.2byte	0x26d
20007aac:	026e                	.2byte	0x26e
20007aae:	019c                	.2byte	0x19c
20007ab0:	0270                	.2byte	0x270
20007ab2:	0271                	.2byte	0x271
20007ab4:	019d                	.2byte	0x19d
20007ab6:	02740273          	.4byte	0x2740273
20007aba:	019f 0276 0277      	.byte	0x9f, 0x01, 0x76, 0x02, 0x77, 0x02
20007ac0:	0278                	.2byte	0x278
20007ac2:	0279                	.2byte	0x279
20007ac4:	027a                	.2byte	0x27a
20007ac6:	027c027b          	.4byte	0x27c027b
20007aca:	2c64                	.2byte	0x2c64
20007acc:	027e                	.2byte	0x27e
20007ace:	027f                	.2byte	0x27f
20007ad0:	01a6                	.2byte	0x1a6
20007ad2:	0281                	.2byte	0x281
20007ad4:	0282                	.2byte	0x282
20007ad6:	01a9                	.2byte	0x1a9
20007ad8:	0284                	.2byte	0x284
20007ada:	0285                	.2byte	0x285
20007adc:	0286                	.2byte	0x286
20007ade:	01ae0287          	.4byte	0x1ae0287
20007ae2:	0244                	.2byte	0x244
20007ae4:	01b1                	.2byte	0x1b1
20007ae6:	01b2                	.2byte	0x1b2
20007ae8:	0245                	.2byte	0x245
20007aea:	028d                	.2byte	0x28d
20007aec:	028e                	.2byte	0x28e
20007aee:	0290028f          	.4byte	0x290028f
20007af2:	0291                	.2byte	0x291
20007af4:	037b01b7          	lui	gp,0x37b0
20007af8:	03fd0003          	lb	zero,63(s10)
20007afc:	03fe                	.2byte	0x3fe
20007afe:	03ff                	.2byte	0x3ff
20007b00:	03ac                	.2byte	0x3ac
20007b02:	0004                	.2byte	0x4
20007b04:	0386                	.2byte	0x386
20007b06:	0388                	.2byte	0x388
20007b08:	0389                	.2byte	0x389
20007b0a:	038a                	.2byte	0x38a
20007b0c:	03b1                	.2byte	0x3b1
20007b0e:	0311                	.2byte	0x311
20007b10:	03c2                	.2byte	0x3c2
20007b12:	0002                	.2byte	0x2
20007b14:	03a303a3          	sb	s10,39(t1) # 20f879a1 <_end+0xf7d749>
20007b18:	03c4                	.2byte	0x3c4
20007b1a:	0308                	.2byte	0x308
20007b1c:	03cc                	.2byte	0x3cc
20007b1e:	038c0003          	lb	zero,56(s8)
20007b22:	038e                	.2byte	0x38e
20007b24:	03d8038f          	.4byte	0x3d8038f
20007b28:	0118                	.2byte	0x118
20007b2a:	03f2                	.2byte	0x3f2
20007b2c:	000a                	.2byte	0xa
20007b2e:	03f9                	.2byte	0x3f9
20007b30:	03f403f3          	.4byte	0x3f403f3
20007b34:	03f5                	.2byte	0x3f5
20007b36:	03f6                	.2byte	0x3f6
20007b38:	03f703f7          	.4byte	0x3f703f7
20007b3c:	03f9                	.2byte	0x3f9
20007b3e:	03fa                	.2byte	0x3fa
20007b40:	03fa                	.2byte	0x3fa
20007b42:	0430                	.2byte	0x430
20007b44:	0320                	.2byte	0x320
20007b46:	0450                	.2byte	0x450
20007b48:	0710                	.2byte	0x710
20007b4a:	0460                	.2byte	0x460
20007b4c:	0122                	.2byte	0x122
20007b4e:	048a                	.2byte	0x48a
20007b50:	0136                	.2byte	0x136
20007b52:	04c1                	.2byte	0x4c1
20007b54:	010e                	.2byte	0x10e
20007b56:	000104cf          	.4byte	0x104cf
20007b5a:	04c0                	.2byte	0x4c0
20007b5c:	04d0                	.2byte	0x4d0
20007b5e:	0144                	.2byte	0x144
20007b60:	0561                	.2byte	0x561
20007b62:	0426                	.2byte	0x426
20007b64:	0000                	.2byte	0x0
	...

20007b68 <_ZL5uc437>:
20007b68:	00fc00c7          	.4byte	0xfc00c7
20007b6c:	00e9                	.2byte	0xe9
20007b6e:	00e2                	.2byte	0xe2
20007b70:	00e4                	.2byte	0xe4
20007b72:	00e0                	.2byte	0xe0
20007b74:	00e5                	.2byte	0xe5
20007b76:	00ea00e7          	jalr	14(s4)
20007b7a:	00e800eb          	.4byte	0xe800eb
20007b7e:	00ee00ef          	jal	ra,200e7b8c <_end+0xdd934>
20007b82:	00ec                	.2byte	0xec
20007b84:	00c4                	.2byte	0xc4
20007b86:	00c5                	.2byte	0xc5
20007b88:	00c9                	.2byte	0xc9
20007b8a:	00e6                	.2byte	0xe6
20007b8c:	00c6                	.2byte	0xc6
20007b8e:	00f4                	.2byte	0xf4
20007b90:	00f6                	.2byte	0xf6
20007b92:	00f2                	.2byte	0xf2
20007b94:	00f900fb          	.4byte	0xf900fb
20007b98:	00ff                	.2byte	0xff
20007b9a:	00d6                	.2byte	0xd6
20007b9c:	00dc                	.2byte	0xdc
20007b9e:	00a2                	.2byte	0xa2
20007ba0:	00a500a3          	sb	a0,1(a0)
20007ba4:	019220a7          	.4byte	0x19220a7
20007ba8:	00e1                	.2byte	0xe1
20007baa:	00ed                	.2byte	0xed
20007bac:	00fa00f3          	.4byte	0xfa00f3
20007bb0:	00f1                	.2byte	0xf1
20007bb2:	00d1                	.2byte	0xd1
20007bb4:	00aa                	.2byte	0xaa
20007bb6:	00ba                	.2byte	0xba
20007bb8:	231000bf 00bd00ac 	.8byte	0xbd00ac231000bf
20007bc0:	00bc                	.2byte	0xbc
20007bc2:	00a1                	.2byte	0xa1
20007bc4:	00bb00ab          	.4byte	0xbb00ab
20007bc8:	2591                	.2byte	0x2591
20007bca:	2592                	.2byte	0x2592
20007bcc:	25022593          	slti	a1,tp,592
20007bd0:	2524                	.2byte	0x2524
20007bd2:	2561                	.2byte	0x2561
20007bd4:	2562                	.2byte	0x2562
20007bd6:	2556                	.2byte	0x2556
20007bd8:	2555                	.2byte	0x2555
20007bda:	25512563          	.4byte	0x25512563
20007bde:	255d2557          	.4byte	0x255d2557
20007be2:	255c                	.2byte	0x255c
20007be4:	2510255b          	.4byte	0x2510255b
20007be8:	2514                	.2byte	0x2514
20007bea:	2534                	.2byte	0x2534
20007bec:	252c                	.2byte	0x252c
20007bee:	251c                	.2byte	0x251c
20007bf0:	2500                	.2byte	0x2500
20007bf2:	253c                	.2byte	0x253c
20007bf4:	255e                	.2byte	0x255e
20007bf6:	255f 255a 2554      	.byte	0x5f, 0x25, 0x5a, 0x25, 0x54, 0x25
20007bfc:	2569                	.2byte	0x2569
20007bfe:	2566                	.2byte	0x2566
20007c00:	2560                	.2byte	0x2560
20007c02:	2550                	.2byte	0x2550
20007c04:	256c                	.2byte	0x256c
20007c06:	25682567          	.4byte	0x25682567
20007c0a:	2564                	.2byte	0x2564
20007c0c:	2565                	.2byte	0x2565
20007c0e:	2559                	.2byte	0x2559
20007c10:	2558                	.2byte	0x2558
20007c12:	2552                	.2byte	0x2552
20007c14:	256b2553          	.4byte	0x256b2553
20007c18:	256a                	.2byte	0x256a
20007c1a:	2518                	.2byte	0x2518
20007c1c:	250c                	.2byte	0x250c
20007c1e:	2588                	.2byte	0x2588
20007c20:	2584                	.2byte	0x2584
20007c22:	258c                	.2byte	0x258c
20007c24:	2590                	.2byte	0x2590
20007c26:	2580                	.2byte	0x2580
20007c28:	03b1                	.2byte	0x3b1
20007c2a:	00df 0393 03c0      	.byte	0xdf, 0x00, 0x93, 0x03, 0xc0, 0x03
20007c30:	03c303a3          	sb	t3,39(t1)
20007c34:	00b5                	.2byte	0xb5
20007c36:	03c4                	.2byte	0x3c4
20007c38:	03a6                	.2byte	0x3a6
20007c3a:	0398                	.2byte	0x398
20007c3c:	03a9                	.2byte	0x3a9
20007c3e:	03b4                	.2byte	0x3b4
20007c40:	221e                	.2byte	0x221e
20007c42:	03c6                	.2byte	0x3c6
20007c44:	03b5                	.2byte	0x3b5
20007c46:	2229                	.2byte	0x2229
20007c48:	2261                	.2byte	0x2261
20007c4a:	00b1                	.2byte	0xb1
20007c4c:	2265                	.2byte	0x2265
20007c4e:	2264                	.2byte	0x2264
20007c50:	2320                	.2byte	0x2320
20007c52:	2321                	.2byte	0x2321
20007c54:	224800f7          	.4byte	0x224800f7
20007c58:	00b0                	.2byte	0xb0
20007c5a:	2219                	.2byte	0x2219
20007c5c:	221a00b7          	lui	ra,0x221a0
20007c60:	207f                	.2byte	0x207f
20007c62:	00b2                	.2byte	0xb2
20007c64:	25a0                	.2byte	0x25a0
20007c66:	00a0                	.2byte	0xa0

Disassembly of section .eh_frame:

20007c68 <__fini_array_end>:
20007c68:	0010                	.2byte	0x10
20007c6a:	0000                	.2byte	0x0
20007c6c:	0000                	.2byte	0x0
20007c6e:	0000                	.2byte	0x0
20007c70:	00527a03          	.4byte	0x527a03
20007c74:	7c01                	.2byte	0x7c01
20007c76:	0101                	.2byte	0x101
20007c78:	00020d1b          	.4byte	0x20d1b
20007c7c:	0010                	.2byte	0x10
20007c7e:	0000                	.2byte	0x0
20007c80:	0018                	.2byte	0x18
20007c82:	0000                	.2byte	0x0
20007c84:	837c                	.2byte	0x837c
20007c86:	ffff                	.2byte	0xffff
20007c88:	0088                	.2byte	0x88
20007c8a:	0000                	.2byte	0x0
20007c8c:	0000                	.2byte	0x0
20007c8e:	0000                	.2byte	0x0
20007c90:	0010                	.2byte	0x10
20007c92:	0000                	.2byte	0x0
20007c94:	002c                	.2byte	0x2c
20007c96:	0000                	.2byte	0x0
20007c98:	83f0                	.2byte	0x83f0
20007c9a:	ffff                	.2byte	0xffff
	...
20007ca4:	0010                	.2byte	0x10
20007ca6:	0000                	.2byte	0x0
20007ca8:	0040                	.2byte	0x40
20007caa:	0000                	.2byte	0x0
20007cac:	863c                	.2byte	0x863c
20007cae:	ffff                	.2byte	0xffff
20007cb0:	0044                	.2byte	0x44
20007cb2:	0000                	.2byte	0x0
20007cb4:	0000                	.2byte	0x0
20007cb6:	0000                	.2byte	0x0
20007cb8:	0030                	.2byte	0x30
20007cba:	0000                	.2byte	0x0
20007cbc:	0054                	.2byte	0x54
20007cbe:	0000                	.2byte	0x0
20007cc0:	866c                	.2byte	0x866c
20007cc2:	ffff                	.2byte	0xffff
20007cc4:	008c                	.2byte	0x8c
20007cc6:	0000                	.2byte	0x0
20007cc8:	4400                	.2byte	0x4400
20007cca:	200e                	.2byte	0x200e
20007ccc:	8858                	.2byte	0x8858
20007cce:	8902                	.2byte	0x8902
20007cd0:	93049203          	lh	tp,-1744(s1)
20007cd4:	8105                	.2byte	0x8105
20007cd6:	9401                	.2byte	0x9401
20007cd8:	7006                	.2byte	0x7006
20007cda:	c10a                	.2byte	0xc10a
20007cdc:	c844                	.2byte	0xc844
20007cde:	c944                	.2byte	0xc944
20007ce0:	d244                	.2byte	0xd244
20007ce2:	d344                	.2byte	0xd344
20007ce4:	d444                	.2byte	0xd444
20007ce6:	0e44                	.2byte	0xe44
20007ce8:	4400                	.2byte	0x4400
20007cea:	0020000b          	.4byte	0x20000b
20007cee:	0000                	.2byte	0x0
20007cf0:	0088                	.2byte	0x88
20007cf2:	0000                	.2byte	0x0
20007cf4:	86c4                	.2byte	0x86c4
20007cf6:	ffff                	.2byte	0xffff
20007cf8:	0150                	.2byte	0x150
20007cfa:	0000                	.2byte	0x0
20007cfc:	4400                	.2byte	0x4400
20007cfe:	100e                	.2byte	0x100e
20007d00:	8850                	.2byte	0x8850
20007d02:	5402                	.2byte	0x5402
20007d04:	0181                	.2byte	0x181
20007d06:	c1011c03          	lh	s8,-1008(sp)
20007d0a:	c844                	.2byte	0xc844
20007d0c:	0e44                	.2byte	0xe44
20007d0e:	0000                	.2byte	0x0
20007d10:	0038                	.2byte	0x38
20007d12:	0000                	.2byte	0x0
20007d14:	00ac                	.2byte	0xac
20007d16:	0000                	.2byte	0x0
20007d18:	87f0                	.2byte	0x87f0
20007d1a:	ffff                	.2byte	0xffff
20007d1c:	00dc                	.2byte	0xdc
20007d1e:	0000                	.2byte	0x0
20007d20:	4400                	.2byte	0x4400
20007d22:	300e                	.2byte	0x300e
20007d24:	8860                	.2byte	0x8860
20007d26:	9202                	.2byte	0x9202
20007d28:	8104                	.2byte	0x8104
20007d2a:	8901                	.2byte	0x8901
20007d2c:	94059303          	lh	t1,-1728(a1)
20007d30:	9506                	.2byte	0x9506
20007d32:	02089607          	.4byte	0x2089607
20007d36:	0a88                	.2byte	0xa88
20007d38:	44c1                	.2byte	0x44c1
20007d3a:	44c8                	.2byte	0x44c8
20007d3c:	44c9                	.2byte	0x44c9
20007d3e:	44d2                	.2byte	0x44d2
20007d40:	44d444d3          	.4byte	0x44d444d3
20007d44:	44d5                	.2byte	0x44d5
20007d46:	44d6                	.2byte	0x44d6
20007d48:	000e                	.2byte	0xe
20007d4a:	0b44                	.2byte	0xb44
20007d4c:	0038                	.2byte	0x38
20007d4e:	0000                	.2byte	0x0
20007d50:	00e8                	.2byte	0xe8
20007d52:	0000                	.2byte	0x0
20007d54:	8890                	.2byte	0x8890
20007d56:	ffff                	.2byte	0xffff
20007d58:	0168                	.2byte	0x168
20007d5a:	0000                	.2byte	0x0
20007d5c:	4c00                	.2byte	0x4c00
20007d5e:	200e                	.2byte	0x200e
20007d60:	8854                	.2byte	0x8854
20007d62:	8902                	.2byte	0x8902
20007d64:	92018103          	lb	sp,-1760(gp) # 37af920 <_start-0x1c8506e0>
20007d68:	9304                	.2byte	0x9304
20007d6a:	0205                	.2byte	0x205
20007d6c:	0a88                	.2byte	0xa88
20007d6e:	44c8                	.2byte	0x44c8
20007d70:	44c1                	.2byte	0x44c1
20007d72:	44c9                	.2byte	0x44c9
20007d74:	44d2                	.2byte	0x44d2
20007d76:	000e4cd3          	.4byte	0xe4cd3
20007d7a:	0b44                	.2byte	0xb44
20007d7c:	9c02                	.2byte	0x9c02
20007d7e:	000e                	.2byte	0xe
20007d80:	c8c1                	.2byte	0xc8c1
20007d82:	d2c9                	.2byte	0xd2c9
20007d84:	000000d3          	.4byte	0xd3
20007d88:	0060                	.2byte	0x60
20007d8a:	0000                	.2byte	0x0
20007d8c:	0124                	.2byte	0x124
20007d8e:	0000                	.2byte	0x0
20007d90:	89c0                	.2byte	0x89c0
20007d92:	ffff                	.2byte	0xffff
20007d94:	0100                	.2byte	0x100
20007d96:	0000                	.2byte	0x0
20007d98:	4400                	.2byte	0x4400
20007d9a:	600e                	.2byte	0x600e
20007d9c:	4402                	.2byte	0x4402
20007d9e:	0181                	.2byte	0x181
20007da0:	0285                	.2byte	0x285
20007da2:	0386                	.2byte	0x386
20007da4:	05880487          	.4byte	0x5880487
20007da8:	068a                	.2byte	0x68a
20007daa:	088c078b          	.4byte	0x88c078b
20007dae:	098d                	.2byte	0x98d
20007db0:	0a8e                	.2byte	0xa8e
20007db2:	0c900b8f          	.4byte	0xc900b8f
20007db6:	0d91                	.2byte	0xd91
20007db8:	0e9c                	.2byte	0xe9c
20007dba:	0f9d                	.2byte	0xf9d
20007dbc:	109e                	.2byte	0x109e
20007dbe:	119f 4c02 c80a      	.byte	0x9f, 0x11, 0x02, 0x4c, 0x0a, 0xc8
20007dc4:	c144                	.2byte	0xc144
20007dc6:	c544                	.2byte	0xc544
20007dc8:	c644                	.2byte	0xc644
20007dca:	c744                	.2byte	0xc744
20007dcc:	ca44                	.2byte	0xca44
20007dce:	cb44                	.2byte	0xcb44
20007dd0:	cc44                	.2byte	0xcc44
20007dd2:	cd44                	.2byte	0xcd44
20007dd4:	ce44                	.2byte	0xce44
20007dd6:	cf44                	.2byte	0xcf44
20007dd8:	d044                	.2byte	0xd044
20007dda:	d144                	.2byte	0xd144
20007ddc:	dc44                	.2byte	0xdc44
20007dde:	dd44                	.2byte	0xdd44
20007de0:	de44                	.2byte	0xde44
20007de2:	df44                	.2byte	0xdf44
20007de4:	0e44                	.2byte	0xe44
20007de6:	4400                	.2byte	0x4400
20007de8:	0000000b          	.4byte	0xb
20007dec:	001c                	.2byte	0x1c
20007dee:	0000                	.2byte	0x0
20007df0:	0188                	.2byte	0x188
20007df2:	0000                	.2byte	0x0
20007df4:	8a5c                	.2byte	0x8a5c
20007df6:	ffff                	.2byte	0xffff
20007df8:	0050                	.2byte	0x50
20007dfa:	0000                	.2byte	0x0
20007dfc:	4400                	.2byte	0x4400
20007dfe:	100e                	.2byte	0x100e
20007e00:	8144                	.2byte	0x8144
20007e02:	0201                	.2byte	0x201
20007e04:	c140                	.2byte	0xc140
20007e06:	0e44                	.2byte	0xe44
20007e08:	0000                	.2byte	0x0
20007e0a:	0000                	.2byte	0x0
20007e0c:	0030                	.2byte	0x30
20007e0e:	0000                	.2byte	0x0
20007e10:	01a8                	.2byte	0x1a8
20007e12:	0000                	.2byte	0x0
20007e14:	8a8c                	.2byte	0x8a8c
20007e16:	ffff                	.2byte	0xffff
20007e18:	00d8                	.2byte	0xd8
20007e1a:	0000                	.2byte	0x0
20007e1c:	4400                	.2byte	0x4400
20007e1e:	200e                	.2byte	0x200e
20007e20:	9344                	.2byte	0x9344
20007e22:	5005                	.2byte	0x5005
20007e24:	0492                	.2byte	0x492
20007e26:	8858                	.2byte	0x8858
20007e28:	8102                	.2byte	0x8102
20007e2a:	8901                	.2byte	0x8901
20007e2c:	c10a7c03          	.4byte	0xc10a7c03
20007e30:	c844                	.2byte	0xc844
20007e32:	c944                	.2byte	0xc944
20007e34:	d244                	.2byte	0xd244
20007e36:	d344                	.2byte	0xd344
20007e38:	0e44                	.2byte	0xe44
20007e3a:	4400                	.2byte	0x4400
20007e3c:	0000000b          	.4byte	0xb
20007e40:	0060                	.2byte	0x60
20007e42:	0000                	.2byte	0x0
20007e44:	01dc                	.2byte	0x1dc
20007e46:	0000                	.2byte	0x0
20007e48:	8b38                	.2byte	0x8b38
20007e4a:	ffff                	.2byte	0xffff
20007e4c:	0150                	.2byte	0x150
20007e4e:	0000                	.2byte	0x0
20007e50:	4400                	.2byte	0x4400
20007e52:	700e                	.2byte	0x700e
20007e54:	4802                	.2byte	0x4802
20007e56:	0181                	.2byte	0x181
20007e58:	0285                	.2byte	0x285
20007e5a:	0386                	.2byte	0x386
20007e5c:	05880487          	.4byte	0x5880487
20007e60:	0689                	.2byte	0x689
20007e62:	078a                	.2byte	0x78a
20007e64:	098c088b          	.4byte	0x98c088b
20007e68:	0a8d                	.2byte	0xa8d
20007e6a:	0b8e                	.2byte	0xb8e
20007e6c:	0d900c8f          	.4byte	0xd900c8f
20007e70:	0e91                	.2byte	0xe91
20007e72:	0f9c                	.2byte	0xf9c
20007e74:	109d                	.2byte	0x109d
20007e76:	119e                	.2byte	0x119e
20007e78:	129f 0a74 44c8      	.byte	0x9f, 0x12, 0x74, 0x0a, 0xc8, 0x44
20007e7e:	44c1                	.2byte	0x44c1
20007e80:	44c5                	.2byte	0x44c5
20007e82:	44c6                	.2byte	0x44c6
20007e84:	44c944c7          	.4byte	0x44c944c7
20007e88:	44ca                	.2byte	0x44ca
20007e8a:	44cc44cb          	.4byte	0x44cc44cb
20007e8e:	44cd                	.2byte	0x44cd
20007e90:	44ce                	.2byte	0x44ce
20007e92:	44d044cf          	.4byte	0x44d044cf
20007e96:	44d1                	.2byte	0x44d1
20007e98:	44dc                	.2byte	0x44dc
20007e9a:	44dd                	.2byte	0x44dd
20007e9c:	44de                	.2byte	0x44de
20007e9e:	44df 000e 0b44      	.byte	0xdf, 0x44, 0x0e, 0x00, 0x44, 0x0b
20007ea4:	0010                	.2byte	0x10
20007ea6:	0000                	.2byte	0x0
20007ea8:	0240                	.2byte	0x240
20007eaa:	0000                	.2byte	0x0
20007eac:	8c2c                	.2byte	0x8c2c
20007eae:	ffff                	.2byte	0xffff
20007eb0:	0020                	.2byte	0x20
20007eb2:	0000                	.2byte	0x0
20007eb4:	0000                	.2byte	0x0
20007eb6:	0000                	.2byte	0x0
20007eb8:	0048                	.2byte	0x48
20007eba:	0000                	.2byte	0x0
20007ebc:	0254                	.2byte	0x254
20007ebe:	0000                	.2byte	0x0
20007ec0:	8c38                	.2byte	0x8c38
20007ec2:	ffff                	.2byte	0xffff
20007ec4:	016c                	.2byte	0x16c
20007ec6:	0000                	.2byte	0x0
20007ec8:	4400                	.2byte	0x4400
20007eca:	800e                	.2byte	0x800e
20007ecc:	04924403          	lbu	s0,73(tp) # 49 <_start-0x1fffffb7>
20007ed0:	8174                	.2byte	0x8174
20007ed2:	8801                	.2byte	0x8801
20007ed4:	8902                	.2byte	0x8902
20007ed6:	94059303          	lh	t1,-1728(a1)
20007eda:	9506                	.2byte	0x9506
20007edc:	97089607          	.4byte	0x97089607
20007ee0:	9809                	.2byte	0x9809
20007ee2:	990a                	.2byte	0x990a
20007ee4:	00e4030b          	.4byte	0xe4030b
20007ee8:	c10a                	.2byte	0xc10a
20007eea:	c844                	.2byte	0xc844
20007eec:	c944                	.2byte	0xc944
20007eee:	d244                	.2byte	0xd244
20007ef0:	d344                	.2byte	0xd344
20007ef2:	d444                	.2byte	0xd444
20007ef4:	d544                	.2byte	0xd544
20007ef6:	d644                	.2byte	0xd644
20007ef8:	d744                	.2byte	0xd744
20007efa:	d844                	.2byte	0xd844
20007efc:	d944                	.2byte	0xd944
20007efe:	0e44                	.2byte	0xe44
20007f00:	4400                	.2byte	0x4400
20007f02:	0010000b          	.4byte	0x10000b
20007f06:	0000                	.2byte	0x0
20007f08:	02a0                	.2byte	0x2a0
20007f0a:	0000                	.2byte	0x0
20007f0c:	8d58                	.2byte	0x8d58
20007f0e:	ffff                	.2byte	0xffff
20007f10:	000c                	.2byte	0xc
20007f12:	0000                	.2byte	0x0
20007f14:	0000                	.2byte	0x0
20007f16:	0000                	.2byte	0x0
20007f18:	003c                	.2byte	0x3c
20007f1a:	0000                	.2byte	0x0
20007f1c:	02b4                	.2byte	0x2b4
20007f1e:	0000                	.2byte	0x0
20007f20:	8d50                	.2byte	0x8d50
20007f22:	ffff                	.2byte	0xffff
20007f24:	0264                	.2byte	0x264
20007f26:	0000                	.2byte	0x0
20007f28:	0200                	.2byte	0x200
20007f2a:	0e44                	.2byte	0xe44
20007f2c:	01a0                	.2byte	0x1a0
20007f2e:	8160                	.2byte	0x8160
20007f30:	8801                	.2byte	0x8801
20007f32:	8902                	.2byte	0x8902
20007f34:	93049203          	lh	tp,-1744(s1)
20007f38:	9405                	.2byte	0x9405
20007f3a:	9506                	.2byte	0x9506
20007f3c:	03089607          	.4byte	0x3089607
20007f40:	0138                	.2byte	0x138
20007f42:	c10a                	.2byte	0xc10a
20007f44:	c844                	.2byte	0xc844
20007f46:	c944                	.2byte	0xc944
20007f48:	d244                	.2byte	0xd244
20007f4a:	d344                	.2byte	0xd344
20007f4c:	d444                	.2byte	0xd444
20007f4e:	d544                	.2byte	0xd544
20007f50:	d644                	.2byte	0xd644
20007f52:	0e44                	.2byte	0xe44
20007f54:	4400                	.2byte	0x4400
20007f56:	002c000b          	.4byte	0x2c000b
20007f5a:	0000                	.2byte	0x0
20007f5c:	02f4                	.2byte	0x2f4
20007f5e:	0000                	.2byte	0x0
20007f60:	8f74                	.2byte	0x8f74
20007f62:	ffff                	.2byte	0xffff
20007f64:	00fc                	.2byte	0xfc
20007f66:	0000                	.2byte	0x0
20007f68:	4400                	.2byte	0x4400
20007f6a:	900e                	.2byte	0x900e
20007f6c:	4405                	.2byte	0x4405
20007f6e:	0288                	.2byte	0x288
20007f70:	924c                	.2byte	0x924c
20007f72:	5004                	.2byte	0x5004
20007f74:	0389                	.2byte	0x389
20007f76:	0181                	.2byte	0x181
20007f78:	9c02                	.2byte	0x9c02
20007f7a:	c10a                	.2byte	0xc10a
20007f7c:	c844                	.2byte	0xc844
20007f7e:	c944                	.2byte	0xc944
20007f80:	d244                	.2byte	0xd244
20007f82:	0e44                	.2byte	0xe44
20007f84:	4400                	.2byte	0x4400
20007f86:	0020000b          	.4byte	0x20000b
20007f8a:	0000                	.2byte	0x0
20007f8c:	0324                	.2byte	0x324
20007f8e:	0000                	.2byte	0x0
20007f90:	9040                	.2byte	0x9040
20007f92:	ffff                	.2byte	0xffff
20007f94:	01bc                	.2byte	0x1bc
20007f96:	0000                	.2byte	0x0
20007f98:	4400                	.2byte	0x4400
20007f9a:	100e                	.2byte	0x100e
20007f9c:	8854                	.2byte	0x8854
20007f9e:	8102                	.2byte	0x8102
20007fa0:	0201                	.2byte	0x201
20007fa2:	0a90                	.2byte	0xa90
20007fa4:	44c1                	.2byte	0x44c1
20007fa6:	4cc8                	.2byte	0x4cc8
20007fa8:	000e                	.2byte	0xe
20007faa:	0b44                	.2byte	0xb44
20007fac:	0024                	.2byte	0x24
20007fae:	0000                	.2byte	0x0
20007fb0:	0348                	.2byte	0x348
20007fb2:	0000                	.2byte	0x0
20007fb4:	91d8                	.2byte	0x91d8
20007fb6:	ffff                	.2byte	0xffff
20007fb8:	0150                	.2byte	0x150
20007fba:	0000                	.2byte	0x0
20007fbc:	4400                	.2byte	0x4400
20007fbe:	200e                	.2byte	0x200e
20007fc0:	814c                	.2byte	0x814c
20007fc2:	8801                	.2byte	0x8801
20007fc4:	8902                	.2byte	0x8902
20007fc6:	0ac00203          	lb	tp,172(zero) # ac <_start-0x1fffff54>
20007fca:	48c1                	.2byte	0x48c1
20007fcc:	44c8                	.2byte	0x44c8
20007fce:	44c9                	.2byte	0x44c9
20007fd0:	000e                	.2byte	0xe
20007fd2:	0b44                	.2byte	0xb44
20007fd4:	0014                	.2byte	0x14
20007fd6:	0000                	.2byte	0x0
20007fd8:	0370                	.2byte	0x370
20007fda:	0000                	.2byte	0x0
20007fdc:	9300                	.2byte	0x9300
20007fde:	ffff                	.2byte	0xffff
20007fe0:	0014                	.2byte	0x14
20007fe2:	0000                	.2byte	0x0
20007fe4:	4400                	.2byte	0x4400
20007fe6:	100e                	.2byte	0x100e
20007fe8:	8144                	.2byte	0x8144
20007fea:	0001                	.2byte	0x1
20007fec:	0020                	.2byte	0x20
20007fee:	0000                	.2byte	0x0
20007ff0:	0388                	.2byte	0x388
20007ff2:	0000                	.2byte	0x0
20007ff4:	92fc                	.2byte	0x92fc
20007ff6:	ffff                	.2byte	0xffff
20007ff8:	010c                	.2byte	0x10c
20007ffa:	0000                	.2byte	0x0
20007ffc:	4400                	.2byte	0x4400
20007ffe:	100e                	.2byte	0x100e
20008000:	814c                	.2byte	0x814c
20008002:	8801                	.2byte	0x8801
20008004:	0202                	.2byte	0x202
20008006:	0acc                	.2byte	0xacc
20008008:	44c1                	.2byte	0x44c1
2000800a:	48c8                	.2byte	0x48c8
2000800c:	000e                	.2byte	0xe
2000800e:	0b44                	.2byte	0xb44
20008010:	0010                	.2byte	0x10
20008012:	0000                	.2byte	0x0
20008014:	03ac                	.2byte	0x3ac
20008016:	0000                	.2byte	0x0
20008018:	93e4                	.2byte	0x93e4
2000801a:	ffff                	.2byte	0xffff
2000801c:	0018                	.2byte	0x18
2000801e:	0000                	.2byte	0x0
20008020:	0000                	.2byte	0x0
20008022:	0000                	.2byte	0x0
20008024:	001c                	.2byte	0x1c
20008026:	0000                	.2byte	0x0
20008028:	03c0                	.2byte	0x3c0
2000802a:	0000                	.2byte	0x0
2000802c:	93e8                	.2byte	0x93e8
2000802e:	ffff                	.2byte	0xffff
20008030:	0024                	.2byte	0x24
20008032:	0000                	.2byte	0x0
20008034:	4400                	.2byte	0x4400
20008036:	100e                	.2byte	0x100e
20008038:	8144                	.2byte	0x8144
2000803a:	4c01                	.2byte	0x4c01
2000803c:	c10a                	.2byte	0xc10a
2000803e:	0e44                	.2byte	0xe44
20008040:	4400                	.2byte	0x4400
20008042:	0010000b          	.4byte	0x10000b
20008046:	0000                	.2byte	0x0
20008048:	03e0                	.2byte	0x3e0
2000804a:	0000                	.2byte	0x0
2000804c:	93ec                	.2byte	0x93ec
2000804e:	ffff                	.2byte	0xffff
20008050:	0014                	.2byte	0x14
20008052:	0000                	.2byte	0x0
20008054:	0000                	.2byte	0x0
20008056:	0000                	.2byte	0x0
20008058:	002c                	.2byte	0x2c
2000805a:	0000                	.2byte	0x0
2000805c:	03f4                	.2byte	0x3f4
2000805e:	0000                	.2byte	0x0
20008060:	93ec                	.2byte	0x93ec
20008062:	ffff                	.2byte	0xffff
20008064:	006c                	.2byte	0x6c
20008066:	0000                	.2byte	0x0
20008068:	4400                	.2byte	0x4400
2000806a:	200e                	.2byte	0x200e
2000806c:	8854                	.2byte	0x8854
2000806e:	8902                	.2byte	0x8902
20008070:	81049203          	lh	tp,-2032(s1)
20008074:	9301                	.2byte	0x9301
20008076:	5c05                	.2byte	0x5c05
20008078:	c10a                	.2byte	0xc10a
2000807a:	c844                	.2byte	0xc844
2000807c:	c944                	.2byte	0xc944
2000807e:	d244                	.2byte	0xd244
20008080:	d344                	.2byte	0xd344
20008082:	0e44                	.2byte	0xe44
20008084:	4400                	.2byte	0x4400
20008086:	0020000b          	.4byte	0x20000b
2000808a:	0000                	.2byte	0x0
2000808c:	0424                	.2byte	0x424
2000808e:	0000                	.2byte	0x0
20008090:	9428                	.2byte	0x9428
20008092:	ffff                	.2byte	0xffff
20008094:	0108                	.2byte	0x108
20008096:	0000                	.2byte	0x0
20008098:	4400                	.2byte	0x4400
2000809a:	300e                	.2byte	0x300e
2000809c:	8848                	.2byte	0x8848
2000809e:	5402                	.2byte	0x5402
200080a0:	0181                	.2byte	0x181
200080a2:	dc02                	.2byte	0xdc02
200080a4:	44c1                	.2byte	0x44c1
200080a6:	44c8                	.2byte	0x44c8
200080a8:	000e                	.2byte	0xe
200080aa:	0000                	.2byte	0x0
200080ac:	0020                	.2byte	0x20
200080ae:	0000                	.2byte	0x0
200080b0:	0448                	.2byte	0x448
200080b2:	0000                	.2byte	0x0
200080b4:	950c                	.2byte	0x950c
200080b6:	ffff                	.2byte	0xffff
200080b8:	00dc                	.2byte	0xdc
200080ba:	0000                	.2byte	0x0
200080bc:	4400                	.2byte	0x4400
200080be:	300e                	.2byte	0x300e
200080c0:	8850                	.2byte	0x8850
200080c2:	4c02                	.2byte	0x4c02
200080c4:	0181                	.2byte	0x181
200080c6:	b002                	.2byte	0xb002
200080c8:	44c1                	.2byte	0x44c1
200080ca:	44c8                	.2byte	0x44c8
200080cc:	000e                	.2byte	0xe
200080ce:	0000                	.2byte	0x0
200080d0:	0010                	.2byte	0x10
200080d2:	0000                	.2byte	0x0
200080d4:	046c                	.2byte	0x46c
200080d6:	0000                	.2byte	0x0
200080d8:	95c4                	.2byte	0x95c4
200080da:	ffff                	.2byte	0xffff
200080dc:	0014                	.2byte	0x14
200080de:	0000                	.2byte	0x0
200080e0:	0000                	.2byte	0x0
200080e2:	0000                	.2byte	0x0
200080e4:	0010                	.2byte	0x10
200080e6:	0000                	.2byte	0x0
200080e8:	0480                	.2byte	0x480
200080ea:	0000                	.2byte	0x0
200080ec:	95c4                	.2byte	0x95c4
200080ee:	ffff                	.2byte	0xffff
200080f0:	0014                	.2byte	0x14
200080f2:	0000                	.2byte	0x0
200080f4:	0000                	.2byte	0x0
200080f6:	0000                	.2byte	0x0
200080f8:	0010                	.2byte	0x10
200080fa:	0000                	.2byte	0x0
200080fc:	0494                	.2byte	0x494
200080fe:	0000                	.2byte	0x0
20008100:	95c4                	.2byte	0x95c4
20008102:	ffff                	.2byte	0xffff
20008104:	0034                	.2byte	0x34
20008106:	0000                	.2byte	0x0
20008108:	0000                	.2byte	0x0
2000810a:	0000                	.2byte	0x0
2000810c:	0010                	.2byte	0x10
2000810e:	0000                	.2byte	0x0
20008110:	04a8                	.2byte	0x4a8
20008112:	0000                	.2byte	0x0
20008114:	95e4                	.2byte	0x95e4
20008116:	ffff                	.2byte	0xffff
20008118:	0014                	.2byte	0x14
2000811a:	0000                	.2byte	0x0
2000811c:	0000                	.2byte	0x0
2000811e:	0000                	.2byte	0x0
20008120:	002c                	.2byte	0x2c
20008122:	0000                	.2byte	0x0
20008124:	04bc                	.2byte	0x4bc
20008126:	0000                	.2byte	0x0
20008128:	95e4                	.2byte	0x95e4
2000812a:	ffff                	.2byte	0xffff
2000812c:	0098                	.2byte	0x98
2000812e:	0000                	.2byte	0x0
20008130:	4400                	.2byte	0x4400
20008132:	100e                	.2byte	0x100e
20008134:	9244                	.2byte	0x9244
20008136:	5404                	.2byte	0x5404
20008138:	0389                	.2byte	0x389
2000813a:	0181                	.2byte	0x181
2000813c:	8854                	.2byte	0x8854
2000813e:	0202                	.2byte	0x202
20008140:	0a4c                	.2byte	0xa4c
20008142:	44c1                	.2byte	0x44c1
20008144:	44c8                	.2byte	0x44c8
20008146:	44c9                	.2byte	0x44c9
20008148:	44d2                	.2byte	0x44d2
2000814a:	000e                	.2byte	0xe
2000814c:	0b44                	.2byte	0xb44
2000814e:	0000                	.2byte	0x0
20008150:	002c                	.2byte	0x2c
20008152:	0000                	.2byte	0x0
20008154:	04ec                	.2byte	0x4ec
20008156:	0000                	.2byte	0x0
20008158:	964c                	.2byte	0x964c
2000815a:	ffff                	.2byte	0xffff
2000815c:	0094                	.2byte	0x94
2000815e:	0000                	.2byte	0x0
20008160:	4400                	.2byte	0x4400
20008162:	100e                	.2byte	0x100e
20008164:	9250                	.2byte	0x9250
20008166:	5404                	.2byte	0x5404
20008168:	0389                	.2byte	0x389
2000816a:	8150                	.2byte	0x8150
2000816c:	8801                	.2byte	0x8801
2000816e:	0202                	.2byte	0x202
20008170:	0a40                	.2byte	0xa40
20008172:	44c1                	.2byte	0x44c1
20008174:	44c8                	.2byte	0x44c8
20008176:	44c9                	.2byte	0x44c9
20008178:	44d2                	.2byte	0x44d2
2000817a:	000e                	.2byte	0xe
2000817c:	0b44                	.2byte	0xb44
2000817e:	0000                	.2byte	0x0
20008180:	0010                	.2byte	0x10
20008182:	0000                	.2byte	0x0
20008184:	051c                	.2byte	0x51c
20008186:	0000                	.2byte	0x0
20008188:	96b0                	.2byte	0x96b0
2000818a:	ffff                	.2byte	0xffff
2000818c:	0094                	.2byte	0x94
2000818e:	0000                	.2byte	0x0
20008190:	0000                	.2byte	0x0
20008192:	0000                	.2byte	0x0
20008194:	0010                	.2byte	0x10
20008196:	0000                	.2byte	0x0
20008198:	0530                	.2byte	0x530
2000819a:	0000                	.2byte	0x0
2000819c:	9730                	.2byte	0x9730
2000819e:	ffff                	.2byte	0xffff
200081a0:	0020                	.2byte	0x20
200081a2:	0000                	.2byte	0x0
200081a4:	0000                	.2byte	0x0
200081a6:	0000                	.2byte	0x0
200081a8:	0010                	.2byte	0x10
200081aa:	0000                	.2byte	0x0
200081ac:	0544                	.2byte	0x544
200081ae:	0000                	.2byte	0x0
200081b0:	973c                	.2byte	0x973c
200081b2:	ffff                	.2byte	0xffff
200081b4:	001c                	.2byte	0x1c
200081b6:	0000                	.2byte	0x0
200081b8:	0000                	.2byte	0x0
200081ba:	0000                	.2byte	0x0
200081bc:	002c                	.2byte	0x2c
200081be:	0000                	.2byte	0x0
200081c0:	0558                	.2byte	0x558
200081c2:	0000                	.2byte	0x0
200081c4:	9744                	.2byte	0x9744
200081c6:	ffff                	.2byte	0xffff
200081c8:	00f0                	.2byte	0xf0
200081ca:	0000                	.2byte	0x0
200081cc:	4400                	.2byte	0x4400
200081ce:	300e                	.2byte	0x300e
200081d0:	9278                	.2byte	0x9278
200081d2:	8104                	.2byte	0x8104
200081d4:	8801                	.2byte	0x8801
200081d6:	8902                	.2byte	0x8902
200081d8:	02059303          	lh	t1,32(a1)
200081dc:	c198                	.2byte	0xc198
200081de:	c844                	.2byte	0xc844
200081e0:	d244                	.2byte	0xd244
200081e2:	d344                	.2byte	0xd344
200081e4:	c948                	.2byte	0xc948
200081e6:	0e44                	.2byte	0xe44
200081e8:	0000                	.2byte	0x0
200081ea:	0000                	.2byte	0x0
200081ec:	0020                	.2byte	0x20
200081ee:	0000                	.2byte	0x0
200081f0:	0588                	.2byte	0x588
200081f2:	0000                	.2byte	0x0
200081f4:	9804                	.2byte	0x9804
200081f6:	ffff                	.2byte	0xffff
200081f8:	003c                	.2byte	0x3c
200081fa:	0000                	.2byte	0x0
200081fc:	4400                	.2byte	0x4400
200081fe:	100e                	.2byte	0x100e
20008200:	8844                	.2byte	0x8844
20008202:	4802                	.2byte	0x4802
20008204:	0181                	.2byte	0x181
20008206:	c160                	.2byte	0xc160
20008208:	c844                	.2byte	0xc844
2000820a:	0e44                	.2byte	0xe44
2000820c:	0000                	.2byte	0x0
2000820e:	0000                	.2byte	0x0
20008210:	0030                	.2byte	0x30
20008212:	0000                	.2byte	0x0
20008214:	05ac                	.2byte	0x5ac
20008216:	0000                	.2byte	0x0
20008218:	981c                	.2byte	0x981c
2000821a:	ffff                	.2byte	0xffff
2000821c:	00a4                	.2byte	0xa4
2000821e:	0000                	.2byte	0x0
20008220:	4400                	.2byte	0x4400
20008222:	200e                	.2byte	0x200e
20008224:	8958                	.2byte	0x8958
20008226:	81059303          	lh	t1,-2032(a1)
2000822a:	8801                	.2byte	0x8801
2000822c:	9202                	.2byte	0x9202
2000822e:	9404                	.2byte	0x9404
20008230:	0206                	.2byte	0x206
20008232:	c168                	.2byte	0xc168
20008234:	c844                	.2byte	0xc844
20008236:	d244                	.2byte	0xd244
20008238:	d344                	.2byte	0xd344
2000823a:	d444                	.2byte	0xd444
2000823c:	c948                	.2byte	0xc948
2000823e:	0e44                	.2byte	0xe44
20008240:	0000                	.2byte	0x0
20008242:	0000                	.2byte	0x0
20008244:	0020                	.2byte	0x20
20008246:	0000                	.2byte	0x0
20008248:	05e0                	.2byte	0x5e0
2000824a:	0000                	.2byte	0x0
2000824c:	988c                	.2byte	0x988c
2000824e:	ffff                	.2byte	0xffff
20008250:	005c                	.2byte	0x5c
20008252:	0000                	.2byte	0x0
20008254:	4400                	.2byte	0x4400
20008256:	100e                	.2byte	0x100e
20008258:	8150                	.2byte	0x8150
2000825a:	8801                	.2byte	0x8801
2000825c:	0202                	.2byte	0x202
2000825e:	c138                	.2byte	0xc138
20008260:	c848                	.2byte	0xc848
20008262:	0e44                	.2byte	0xe44
20008264:	0000                	.2byte	0x0
20008266:	0000                	.2byte	0x0
20008268:	0020                	.2byte	0x20
2000826a:	0000                	.2byte	0x0
2000826c:	0604                	.2byte	0x604
2000826e:	0000                	.2byte	0x0
20008270:	98c4                	.2byte	0x98c4
20008272:	ffff                	.2byte	0xffff
20008274:	008c                	.2byte	0x8c
20008276:	0000                	.2byte	0x0
20008278:	4400                	.2byte	0x4400
2000827a:	200e                	.2byte	0x200e
2000827c:	8150                	.2byte	0x8150
2000827e:	8801                	.2byte	0x8801
20008280:	0202                	.2byte	0x202
20008282:	c168                	.2byte	0xc168
20008284:	c848                	.2byte	0xc848
20008286:	0e44                	.2byte	0xe44
20008288:	0000                	.2byte	0x0
2000828a:	0000                	.2byte	0x0
2000828c:	0028                	.2byte	0x28
2000828e:	0000                	.2byte	0x0
20008290:	0628                	.2byte	0x628
20008292:	0000                	.2byte	0x0
20008294:	992c                	.2byte	0x992c
20008296:	ffff                	.2byte	0xffff
20008298:	00cc                	.2byte	0xcc
2000829a:	0000                	.2byte	0x0
2000829c:	4400                	.2byte	0x4400
2000829e:	100e                	.2byte	0x100e
200082a0:	9250                	.2byte	0x9250
200082a2:	8104                	.2byte	0x8104
200082a4:	8801                	.2byte	0x8801
200082a6:	8902                	.2byte	0x8902
200082a8:	c1a00203          	lb	tp,-998(zero) # fffffc1a <_end+0xdfff59c2>
200082ac:	c844                	.2byte	0xc844
200082ae:	d244                	.2byte	0xd244
200082b0:	c948                	.2byte	0xc948
200082b2:	0e44                	.2byte	0xe44
200082b4:	0000                	.2byte	0x0
200082b6:	0000                	.2byte	0x0
200082b8:	0034                	.2byte	0x34
200082ba:	0000                	.2byte	0x0
200082bc:	0654                	.2byte	0x654
200082be:	0000                	.2byte	0x0
200082c0:	99cc                	.2byte	0x99cc
200082c2:	ffff                	.2byte	0xffff
200082c4:	0120                	.2byte	0x120
200082c6:	0000                	.2byte	0x0
200082c8:	4400                	.2byte	0x4400
200082ca:	200e                	.2byte	0x200e
200082cc:	8948                	.2byte	0x8948
200082ce:	60059303          	lh	t1,1536(a1)
200082d2:	0181                	.2byte	0x181
200082d4:	0288                	.2byte	0x288
200082d6:	0492                	.2byte	0x492
200082d8:	0694                	.2byte	0x694
200082da:	6402                	.2byte	0x6402
200082dc:	c10a                	.2byte	0xc10a
200082de:	c848                	.2byte	0xc848
200082e0:	c944                	.2byte	0xc944
200082e2:	d244                	.2byte	0xd244
200082e4:	d344                	.2byte	0xd344
200082e6:	d444                	.2byte	0xd444
200082e8:	0e44                	.2byte	0xe44
200082ea:	4400                	.2byte	0x4400
200082ec:	0000000b          	.4byte	0xb
200082f0:	0034                	.2byte	0x34
200082f2:	0000                	.2byte	0x0
200082f4:	068c                	.2byte	0x68c
200082f6:	0000                	.2byte	0x0
200082f8:	9ab4                	.2byte	0x9ab4
200082fa:	ffff                	.2byte	0xffff
200082fc:	00a0                	.2byte	0xa0
200082fe:	0000                	.2byte	0x0
20008300:	4400                	.2byte	0x4400
20008302:	100e                	.2byte	0x100e
20008304:	8944                	.2byte	0x8944
20008306:	01815803          	lhu	a6,24(sp)
2000830a:	0288                	.2byte	0x288
2000830c:	0492                	.2byte	0x492
2000830e:	4402                	.2byte	0x4402
20008310:	c80a                	.2byte	0xc80a
20008312:	c144                	.2byte	0xc144
20008314:	c944                	.2byte	0xc944
20008316:	d244                	.2byte	0xd244
20008318:	0e44                	.2byte	0xe44
2000831a:	4400                	.2byte	0x4400
2000831c:	44c1540b          	.4byte	0x44c1540b
20008320:	44c8                	.2byte	0x44c8
20008322:	44c9                	.2byte	0x44c9
20008324:	44d2                	.2byte	0x44d2
20008326:	000e                	.2byte	0xe
20008328:	0038                	.2byte	0x38
2000832a:	0000                	.2byte	0x0
2000832c:	06c4                	.2byte	0x6c4
2000832e:	0000                	.2byte	0x0
20008330:	9b1c                	.2byte	0x9b1c
20008332:	ffff                	.2byte	0xffff
20008334:	00a8                	.2byte	0xa8
20008336:	0000                	.2byte	0x0
20008338:	4400                	.2byte	0x4400
2000833a:	b00e                	.2byte	0xb00e
2000833c:	6004                	.2byte	0x6004
2000833e:	0694                	.2byte	0x694
20008340:	0181                	.2byte	0x181
20008342:	0288                	.2byte	0x288
20008344:	0389                	.2byte	0x389
20008346:	0492                	.2byte	0x492
20008348:	07950593          	addi	a1,a0,121
2000834c:	0896                	.2byte	0x896
2000834e:	6002                	.2byte	0x6002
20008350:	44c1                	.2byte	0x44c1
20008352:	44c8                	.2byte	0x44c8
20008354:	44c9                	.2byte	0x44c9
20008356:	44d2                	.2byte	0x44d2
20008358:	44d444d3          	.4byte	0x44d444d3
2000835c:	44d5                	.2byte	0x44d5
2000835e:	44d6                	.2byte	0x44d6
20008360:	000e                	.2byte	0xe
20008362:	0000                	.2byte	0x0
20008364:	0038                	.2byte	0x38
20008366:	0000                	.2byte	0x0
20008368:	0700                	.2byte	0x700
2000836a:	0000                	.2byte	0x0
2000836c:	9b88                	.2byte	0x9b88
2000836e:	ffff                	.2byte	0xffff
20008370:	00a8                	.2byte	0xa8
20008372:	0000                	.2byte	0x0
20008374:	4400                	.2byte	0x4400
20008376:	b00e                	.2byte	0xb00e
20008378:	6004                	.2byte	0x6004
2000837a:	0694                	.2byte	0x694
2000837c:	0181                	.2byte	0x181
2000837e:	0288                	.2byte	0x288
20008380:	0389                	.2byte	0x389
20008382:	0492                	.2byte	0x492
20008384:	07950593          	addi	a1,a0,121
20008388:	0896                	.2byte	0x896
2000838a:	6002                	.2byte	0x6002
2000838c:	44c1                	.2byte	0x44c1
2000838e:	44c8                	.2byte	0x44c8
20008390:	44c9                	.2byte	0x44c9
20008392:	44d2                	.2byte	0x44d2
20008394:	44d444d3          	.4byte	0x44d444d3
20008398:	44d5                	.2byte	0x44d5
2000839a:	44d6                	.2byte	0x44d6
2000839c:	000e                	.2byte	0xe
2000839e:	0000                	.2byte	0x0
200083a0:	0020                	.2byte	0x20
200083a2:	0000                	.2byte	0x0
200083a4:	073c                	.2byte	0x73c
200083a6:	0000                	.2byte	0x0
200083a8:	9bf4                	.2byte	0x9bf4
200083aa:	ffff                	.2byte	0xffff
200083ac:	005c                	.2byte	0x5c
200083ae:	0000                	.2byte	0x0
200083b0:	4400                	.2byte	0x4400
200083b2:	100e                	.2byte	0x100e
200083b4:	8848                	.2byte	0x8848
200083b6:	8102                	.2byte	0x8102
200083b8:	6c01                	.2byte	0x6c01
200083ba:	c10a                	.2byte	0xc10a
200083bc:	c844                	.2byte	0xc844
200083be:	0e44                	.2byte	0xe44
200083c0:	4400                	.2byte	0x4400
200083c2:	0010000b          	.4byte	0x10000b
200083c6:	0000                	.2byte	0x0
200083c8:	0760                	.2byte	0x760
200083ca:	0000                	.2byte	0x0
200083cc:	9c2c                	.2byte	0x9c2c
200083ce:	ffff                	.2byte	0xffff
200083d0:	002c                	.2byte	0x2c
200083d2:	0000                	.2byte	0x0
200083d4:	0000                	.2byte	0x0
200083d6:	0000                	.2byte	0x0
200083d8:	0010                	.2byte	0x10
200083da:	0000                	.2byte	0x0
200083dc:	0774                	.2byte	0x774
200083de:	0000                	.2byte	0x0
200083e0:	9c44                	.2byte	0x9c44
200083e2:	ffff                	.2byte	0xffff
200083e4:	002c                	.2byte	0x2c
200083e6:	0000                	.2byte	0x0
200083e8:	0000                	.2byte	0x0
200083ea:	0000                	.2byte	0x0
200083ec:	0010                	.2byte	0x10
200083ee:	0000                	.2byte	0x0
200083f0:	0788                	.2byte	0x788
200083f2:	0000                	.2byte	0x0
200083f4:	9c5c                	.2byte	0x9c5c
200083f6:	ffff                	.2byte	0xffff
200083f8:	003c                	.2byte	0x3c
200083fa:	0000                	.2byte	0x0
200083fc:	0000                	.2byte	0x0
200083fe:	0000                	.2byte	0x0
20008400:	0010                	.2byte	0x10
20008402:	0000                	.2byte	0x0
20008404:	079c                	.2byte	0x79c
20008406:	0000                	.2byte	0x0
20008408:	9c84                	.2byte	0x9c84
2000840a:	ffff                	.2byte	0xffff
2000840c:	0030                	.2byte	0x30
2000840e:	0000                	.2byte	0x0
20008410:	0000                	.2byte	0x0
20008412:	0000                	.2byte	0x0
20008414:	0010                	.2byte	0x10
20008416:	0000                	.2byte	0x0
20008418:	07b0                	.2byte	0x7b0
2000841a:	0000                	.2byte	0x0
2000841c:	9ca0                	.2byte	0x9ca0
2000841e:	ffff                	.2byte	0xffff
20008420:	00e0                	.2byte	0xe0
20008422:	0000                	.2byte	0x0
20008424:	0000                	.2byte	0x0
20008426:	0000                	.2byte	0x0
20008428:	0024                	.2byte	0x24
2000842a:	0000                	.2byte	0x0
2000842c:	07c4                	.2byte	0x7c4
2000842e:	0000                	.2byte	0x0
20008430:	9d6c                	.2byte	0x9d6c
20008432:	ffff                	.2byte	0xffff
20008434:	0070                	.2byte	0x70
20008436:	0000                	.2byte	0x0
20008438:	4400                	.2byte	0x4400
2000843a:	100e                	.2byte	0x100e
2000843c:	894c                	.2byte	0x894c
2000843e:	88018103          	lb	sp,-1920(gp) # 200097b0 <keymapprev+0x5c>
20008442:	5402                	.2byte	0x5402
20008444:	c10a                	.2byte	0xc10a
20008446:	c844                	.2byte	0xc844
20008448:	c948                	.2byte	0xc948
2000844a:	0e44                	.2byte	0xe44
2000844c:	4400                	.2byte	0x4400
2000844e:	0020000b          	.4byte	0x20000b
20008452:	0000                	.2byte	0x0
20008454:	07ec                	.2byte	0x7ec
20008456:	0000                	.2byte	0x0
20008458:	9db4                	.2byte	0x9db4
2000845a:	ffff                	.2byte	0xffff
2000845c:	0094                	.2byte	0x94
2000845e:	0000                	.2byte	0x0
20008460:	4c00                	.2byte	0x4c00
20008462:	200e                	.2byte	0x200e
20008464:	8848                	.2byte	0x8848
20008466:	8102                	.2byte	0x8102
20008468:	0201                	.2byte	0x201
2000846a:	c164                	.2byte	0xc164
2000846c:	c844                	.2byte	0xc844
2000846e:	0e48                	.2byte	0xe48
20008470:	0000                	.2byte	0x0
20008472:	0000                	.2byte	0x0
20008474:	0024                	.2byte	0x24
20008476:	0000                	.2byte	0x0
20008478:	0810                	.2byte	0x810
2000847a:	0000                	.2byte	0x0
2000847c:	9e24                	.2byte	0x9e24
2000847e:	ffff                	.2byte	0xffff
20008480:	0068                	.2byte	0x68
20008482:	0000                	.2byte	0x0
20008484:	4c00                	.2byte	0x4c00
20008486:	100e                	.2byte	0x100e
20008488:	884c                	.2byte	0x884c
2000848a:	8902                	.2byte	0x8902
2000848c:	02018103          	lb	sp,32(gp) # 20009f50 <__global_pointer$+0x20>
20008490:	c138                	.2byte	0xc138
20008492:	c844                	.2byte	0xc844
20008494:	c944                	.2byte	0xc944
20008496:	0e44                	.2byte	0xe44
20008498:	0000                	.2byte	0x0
2000849a:	0000                	.2byte	0x0
2000849c:	0028                	.2byte	0x28
2000849e:	0000                	.2byte	0x0
200084a0:	0838                	.2byte	0x838
200084a2:	0000                	.2byte	0x0
200084a4:	9e64                	.2byte	0x9e64
200084a6:	ffff                	.2byte	0xffff
200084a8:	018c                	.2byte	0x18c
200084aa:	0000                	.2byte	0x0
200084ac:	4400                	.2byte	0x4400
200084ae:	100e                	.2byte	0x100e
200084b0:	8850                	.2byte	0x8850
200084b2:	8902                	.2byte	0x8902
200084b4:	92018103          	lb	sp,-1760(gp) # 20009850 <keymapprev+0xfc>
200084b8:	0204                	.2byte	0x204
200084ba:	0a60                	.2byte	0xa60
200084bc:	44c1                	.2byte	0x44c1
200084be:	44c8                	.2byte	0x44c8
200084c0:	48d2                	.2byte	0x48d2
200084c2:	44c9                	.2byte	0x44c9
200084c4:	000e                	.2byte	0xe
200084c6:	0b44                	.2byte	0xb44
200084c8:	0040                	.2byte	0x40
200084ca:	0000                	.2byte	0x0
200084cc:	0864                	.2byte	0x864
200084ce:	0000                	.2byte	0x0
200084d0:	9fc4                	.2byte	0x9fc4
200084d2:	ffff                	.2byte	0xffff
200084d4:	01f0                	.2byte	0x1f0
200084d6:	0000                	.2byte	0x0
200084d8:	5000                	.2byte	0x5000
200084da:	200e                	.2byte	0x200e
200084dc:	895c                	.2byte	0x895c
200084de:	81049203          	lh	tp,-2032(s1)
200084e2:	8801                	.2byte	0x8801
200084e4:	9302                	.2byte	0x9302
200084e6:	9405                	.2byte	0x9405
200084e8:	9506                	.2byte	0x9506
200084ea:	0ad80207          	.4byte	0xad80207
200084ee:	44c1                	.2byte	0x44c1
200084f0:	44c8                	.2byte	0x44c8
200084f2:	44c9                	.2byte	0x44c9
200084f4:	44d2                	.2byte	0x44d2
200084f6:	44d444d3          	.4byte	0x44d444d3
200084fa:	48d5                	.2byte	0x48d5
200084fc:	000e                	.2byte	0xe
200084fe:	0b44                	.2byte	0xb44
20008500:	bc02                	.2byte	0xbc02
20008502:	000e                	.2byte	0xe
20008504:	c8c1                	.2byte	0xc8c1
20008506:	d2c9                	.2byte	0xd2c9
20008508:	00d5d4d3          	.4byte	0xd5d4d3
2000850c:	0034                	.2byte	0x34
2000850e:	0000                	.2byte	0x0
20008510:	08a8                	.2byte	0x8a8
20008512:	0000                	.2byte	0x0
20008514:	a170                	.2byte	0xa170
20008516:	ffff                	.2byte	0xffff
20008518:	03dc                	.2byte	0x3dc
2000851a:	0000                	.2byte	0x0
2000851c:	4400                	.2byte	0x4400
2000851e:	300e                	.2byte	0x300e
20008520:	925c                	.2byte	0x925c
20008522:	9304                	.2byte	0x9304
20008524:	8105                	.2byte	0x8105
20008526:	8801                	.2byte	0x8801
20008528:	8902                	.2byte	0x8902
2000852a:	95069403          	lh	s0,-1712(a3)
2000852e:	0a640207          	.4byte	0xa640207
20008532:	44c1                	.2byte	0x44c1
20008534:	44c8                	.2byte	0x44c8
20008536:	44c9                	.2byte	0x44c9
20008538:	44d2                	.2byte	0x44d2
2000853a:	44d444d3          	.4byte	0x44d444d3
2000853e:	44d5                	.2byte	0x44d5
20008540:	000e                	.2byte	0xe
20008542:	0b44                	.2byte	0xb44
20008544:	0010                	.2byte	0x10
20008546:	0000                	.2byte	0x0
20008548:	08e0                	.2byte	0x8e0
2000854a:	0000                	.2byte	0x0
2000854c:	a514                	.2byte	0xa514
2000854e:	ffff                	.2byte	0xffff
20008550:	0038                	.2byte	0x38
20008552:	0000                	.2byte	0x0
20008554:	0000                	.2byte	0x0
20008556:	0000                	.2byte	0x0
20008558:	0038                	.2byte	0x38
2000855a:	0000                	.2byte	0x0
2000855c:	08f4                	.2byte	0x8f4
2000855e:	0000                	.2byte	0x0
20008560:	a538                	.2byte	0xa538
20008562:	ffff                	.2byte	0xffff
20008564:	0150                	.2byte	0x150
20008566:	0000                	.2byte	0x0
20008568:	5000                	.2byte	0x5000
2000856a:	200e                	.2byte	0x200e
2000856c:	8854                	.2byte	0x8854
2000856e:	8902                	.2byte	0x8902
20008570:	92018103          	lb	sp,-1760(gp) # 20009850 <keymapprev+0xfc>
20008574:	9304                	.2byte	0x9304
20008576:	0205                	.2byte	0x205
20008578:	0a48                	.2byte	0xa48
2000857a:	44c1                	.2byte	0x44c1
2000857c:	44c8                	.2byte	0x44c8
2000857e:	44c9                	.2byte	0x44c9
20008580:	44d2                	.2byte	0x44d2
20008582:	000e48d3          	.4byte	0xe48d3
20008586:	0b44                	.2byte	0xb44
20008588:	bc02                	.2byte	0xbc02
2000858a:	000e                	.2byte	0xe
2000858c:	c8c1                	.2byte	0xc8c1
2000858e:	d2c9                	.2byte	0xd2c9
20008590:	000000d3          	.4byte	0xd3
20008594:	0038                	.2byte	0x38
20008596:	0000                	.2byte	0x0
20008598:	0930                	.2byte	0x930
2000859a:	0000                	.2byte	0x0
2000859c:	a64c                	.2byte	0xa64c
2000859e:	ffff                	.2byte	0xffff
200085a0:	01ac                	.2byte	0x1ac
200085a2:	0000                	.2byte	0x0
200085a4:	4400                	.2byte	0x4400
200085a6:	200e                	.2byte	0x200e
200085a8:	8960                	.2byte	0x8960
200085aa:	94059303          	lh	t1,-1728(a1)
200085ae:	8106                	.2byte	0x8106
200085b0:	8801                	.2byte	0x8801
200085b2:	9202                	.2byte	0x9202
200085b4:	9504                	.2byte	0x9504
200085b6:	70089607          	.4byte	0x70089607
200085ba:	c10a                	.2byte	0xc10a
200085bc:	c848                	.2byte	0xc848
200085be:	c944                	.2byte	0xc944
200085c0:	d244                	.2byte	0xd244
200085c2:	d344                	.2byte	0xd344
200085c4:	d444                	.2byte	0xd444
200085c6:	d544                	.2byte	0xd544
200085c8:	d644                	.2byte	0xd644
200085ca:	0e44                	.2byte	0xe44
200085cc:	4400                	.2byte	0x4400
200085ce:	0040000b          	.4byte	0x40000b
200085d2:	0000                	.2byte	0x0
200085d4:	096c                	.2byte	0x96c
200085d6:	0000                	.2byte	0x0
200085d8:	a7bc                	.2byte	0xa7bc
200085da:	ffff                	.2byte	0xffff
200085dc:	01ac                	.2byte	0x1ac
200085de:	0000                	.2byte	0x0
200085e0:	4400                	.2byte	0x4400
200085e2:	300e                	.2byte	0x300e
200085e4:	9444                	.2byte	0x9444
200085e6:	6406                	.2byte	0x6406
200085e8:	0288                	.2byte	0x288
200085ea:	0389                	.2byte	0x389
200085ec:	01810593          	addi	a1,sp,24
200085f0:	0492                	.2byte	0x492
200085f2:	0795                	.2byte	0x795
200085f4:	0896                	.2byte	0x896
200085f6:	54020997          	auipc	s3,0x54020
200085fa:	c10a                	.2byte	0xc10a
200085fc:	c844                	.2byte	0xc844
200085fe:	c944                	.2byte	0xc944
20008600:	d244                	.2byte	0xd244
20008602:	d344                	.2byte	0xd344
20008604:	d444                	.2byte	0xd444
20008606:	d544                	.2byte	0xd544
20008608:	d644                	.2byte	0xd644
2000860a:	d744                	.2byte	0xd744
2000860c:	0e44                	.2byte	0xe44
2000860e:	4400                	.2byte	0x4400
20008610:	0000000b          	.4byte	0xb
20008614:	0038                	.2byte	0x38
20008616:	0000                	.2byte	0x0
20008618:	09b0                	.2byte	0x9b0
2000861a:	0000                	.2byte	0x0
2000861c:	a924                	.2byte	0xa924
2000861e:	ffff                	.2byte	0xffff
20008620:	0128                	.2byte	0x128
20008622:	0000                	.2byte	0x0
20008624:	4400                	.2byte	0x4400
20008626:	300e                	.2byte	0x300e
20008628:	8960                	.2byte	0x8960
2000862a:	88018103          	lb	sp,-1920(gp) # 200097b0 <keymapprev+0x5c>
2000862e:	9202                	.2byte	0x9202
20008630:	9304                	.2byte	0x9304
20008632:	9405                	.2byte	0x9405
20008634:	9506                	.2byte	0x9506
20008636:	54089607          	.4byte	0x54089607
2000863a:	c10a                	.2byte	0xc10a
2000863c:	c844                	.2byte	0xc844
2000863e:	c944                	.2byte	0xc944
20008640:	d244                	.2byte	0xd244
20008642:	d444                	.2byte	0xd444
20008644:	d544                	.2byte	0xd544
20008646:	d644                	.2byte	0xd644
20008648:	d348                	.2byte	0xd348
2000864a:	0e44                	.2byte	0xe44
2000864c:	4400                	.2byte	0x4400
2000864e:	0050000b          	.4byte	0x50000b
20008652:	0000                	.2byte	0x0
20008654:	09ec                	.2byte	0x9ec
20008656:	0000                	.2byte	0x0
20008658:	aa10                	.2byte	0xaa10
2000865a:	ffff                	.2byte	0xffff
2000865c:	0274                	.2byte	0x274
2000865e:	0000                	.2byte	0x0
20008660:	4400                	.2byte	0x4400
20008662:	500e                	.2byte	0x500e
20008664:	8850                	.2byte	0x8850
20008666:	9402                	.2byte	0x9402
20008668:	9906                	.2byte	0x9906
2000866a:	01816c0b          	.4byte	0x1816c0b
2000866e:	0389                	.2byte	0x389
20008670:	0492                	.2byte	0x492
20008672:	07950593          	addi	a1,a0,121
20008676:	0896                	.2byte	0x896
20008678:	0a980997          	auipc	s3,0xa980
2000867c:	0c9a                	.2byte	0xc9a
2000867e:	f0030d9b          	.4byte	0xf0030d9b
20008682:	0a01                	.2byte	0xa01
20008684:	48c1                	.2byte	0x48c1
20008686:	44c8                	.2byte	0x44c8
20008688:	44c9                	.2byte	0x44c9
2000868a:	44d2                	.2byte	0x44d2
2000868c:	44d444d3          	.4byte	0x44d444d3
20008690:	44d5                	.2byte	0x44d5
20008692:	44d6                	.2byte	0x44d6
20008694:	44d844d7          	.4byte	0x44d844d7
20008698:	44d9                	.2byte	0x44d9
2000869a:	44da                	.2byte	0x44da
2000869c:	000e44db          	.4byte	0xe44db
200086a0:	0b44                	.2byte	0xb44
200086a2:	0000                	.2byte	0x0
200086a4:	0070                	.2byte	0x70
200086a6:	0000                	.2byte	0x0
200086a8:	0a40                	.2byte	0xa40
200086aa:	0000                	.2byte	0x0
200086ac:	ac30                	.2byte	0xac30
200086ae:	ffff                	.2byte	0xffff
200086b0:	0544                	.2byte	0x544
200086b2:	0000                	.2byte	0x0
200086b4:	4400                	.2byte	0x4400
200086b6:	500e                	.2byte	0x500e
200086b8:	9274                	.2byte	0x9274
200086ba:	9304                	.2byte	0x9304
200086bc:	9405                	.2byte	0x9405
200086be:	8106                	.2byte	0x8106
200086c0:	8801                	.2byte	0x8801
200086c2:	8902                	.2byte	0x8902
200086c4:	96079503          	lh	a0,-1696(a5)
200086c8:	9708                	.2byte	0x9708
200086ca:	9809                	.2byte	0x9809
200086cc:	990a                	.2byte	0x990a
200086ce:	9b0c9a0b          	.4byte	0x9b0c9a0b
200086d2:	020d                	.2byte	0x20d
200086d4:	0ac4                	.2byte	0xac4
200086d6:	44c8                	.2byte	0x44c8
200086d8:	44c1                	.2byte	0x44c1
200086da:	44c9                	.2byte	0x44c9
200086dc:	44d444d3          	.4byte	0x44d444d3
200086e0:	44d5                	.2byte	0x44d5
200086e2:	44d6                	.2byte	0x44d6
200086e4:	44d844d7          	.4byte	0x44d844d7
200086e8:	44d9                	.2byte	0x44d9
200086ea:	44da                	.2byte	0x44da
200086ec:	48d248db          	.4byte	0x48d248db
200086f0:	000e                	.2byte	0xe
200086f2:	0b44                	.2byte	0xb44
200086f4:	cc02                	.2byte	0xcc02
200086f6:	c10a                	.2byte	0xc10a
200086f8:	c844                	.2byte	0xc844
200086fa:	c944                	.2byte	0xc944
200086fc:	d244                	.2byte	0xd244
200086fe:	d344                	.2byte	0xd344
20008700:	d444                	.2byte	0xd444
20008702:	d544                	.2byte	0xd544
20008704:	d644                	.2byte	0xd644
20008706:	d744                	.2byte	0xd744
20008708:	d844                	.2byte	0xd844
2000870a:	d944                	.2byte	0xd944
2000870c:	da44                	.2byte	0xda44
2000870e:	db44                	.2byte	0xdb44
20008710:	0e44                	.2byte	0xe44
20008712:	4400                	.2byte	0x4400
20008714:	0000000b          	.4byte	0xb
20008718:	0020                	.2byte	0x20
2000871a:	0000                	.2byte	0x0
2000871c:	0ab4                	.2byte	0xab4
2000871e:	0000                	.2byte	0x0
20008720:	b100                	.2byte	0xb100
20008722:	ffff                	.2byte	0xffff
20008724:	0084                	.2byte	0x84
20008726:	0000                	.2byte	0x0
20008728:	4400                	.2byte	0x4400
2000872a:	300e                	.2byte	0x300e
2000872c:	8850                	.2byte	0x8850
2000872e:	8102                	.2byte	0x8102
20008730:	0201                	.2byte	0x201
20008732:	0a5c                	.2byte	0xa5c
20008734:	44c1                	.2byte	0x44c1
20008736:	44c8                	.2byte	0x44c8
20008738:	000e                	.2byte	0xe
2000873a:	0b44                	.2byte	0xb44
2000873c:	0050                	.2byte	0x50
2000873e:	0000                	.2byte	0x0
20008740:	0ad8                	.2byte	0xad8
20008742:	0000                	.2byte	0x0
20008744:	b160                	.2byte	0xb160
20008746:	ffff                	.2byte	0xffff
20008748:	0748                	.2byte	0x748
2000874a:	0000                	.2byte	0x0
2000874c:	4400                	.2byte	0x4400
2000874e:	a00e                	.2byte	0xa00e
20008750:	7401                	.2byte	0x7401
20008752:	0795                	.2byte	0x795
20008754:	0181                	.2byte	0x181
20008756:	0288                	.2byte	0x288
20008758:	0389                	.2byte	0x389
2000875a:	0492                	.2byte	0x492
2000875c:	06940593          	addi	a1,s0,105
20008760:	0896                	.2byte	0x896
20008762:	0a980997          	auipc	s3,0xa980
20008766:	0b99                	.2byte	0xb99
20008768:	0c9a                	.2byte	0xc9a
2000876a:	68020d9b          	.4byte	0x68020d9b
2000876e:	c10a                	.2byte	0xc10a
20008770:	c844                	.2byte	0xc844
20008772:	c944                	.2byte	0xc944
20008774:	d244                	.2byte	0xd244
20008776:	d344                	.2byte	0xd344
20008778:	d444                	.2byte	0xd444
2000877a:	d644                	.2byte	0xd644
2000877c:	d744                	.2byte	0xd744
2000877e:	d844                	.2byte	0xd844
20008780:	d944                	.2byte	0xd944
20008782:	da44                	.2byte	0xda44
20008784:	db44                	.2byte	0xdb44
20008786:	d548                	.2byte	0xd548
20008788:	0e44                	.2byte	0xe44
2000878a:	4400                	.2byte	0x4400
2000878c:	0000000b          	.4byte	0xb
20008790:	004c                	.2byte	0x4c
20008792:	0000                	.2byte	0x0
20008794:	0b2c                	.2byte	0xb2c
20008796:	0000                	.2byte	0x0
20008798:	b854                	.2byte	0xb854
2000879a:	ffff                	.2byte	0xffff
2000879c:	0264                	.2byte	0x264
2000879e:	0000                	.2byte	0x0
200087a0:	4400                	.2byte	0x4400
200087a2:	600e                	.2byte	0x600e
200087a4:	8874                	.2byte	0x8874
200087a6:	8902                	.2byte	0x8902
200087a8:	95049203          	lh	tp,-1712(s1)
200087ac:	81089607          	.4byte	0x81089607
200087b0:	9301                	.2byte	0x9301
200087b2:	9405                	.2byte	0x9405
200087b4:	9706                	.2byte	0x9706
200087b6:	9809                	.2byte	0x9809
200087b8:	990a                	.2byte	0x990a
200087ba:	9b0c9a0b          	.4byte	0x9b0c9a0b
200087be:	020d                	.2byte	0x20d
200087c0:	0aa4                	.2byte	0xaa4
200087c2:	44c1                	.2byte	0x44c1
200087c4:	44c8                	.2byte	0x44c8
200087c6:	44d2                	.2byte	0x44d2
200087c8:	44d444d3          	.4byte	0x44d444d3
200087cc:	44d5                	.2byte	0x44d5
200087ce:	44d6                	.2byte	0x44d6
200087d0:	44d844d7          	.4byte	0x44d844d7
200087d4:	44d9                	.2byte	0x44d9
200087d6:	44da                	.2byte	0x44da
200087d8:	44c948db          	.4byte	0x44c948db
200087dc:	000e                	.2byte	0xe
200087de:	0b44                	.2byte	0xb44
200087e0:	002c                	.2byte	0x2c
200087e2:	0000                	.2byte	0x0
200087e4:	0b7c                	.2byte	0xb7c
200087e6:	0000                	.2byte	0x0
200087e8:	ba68                	.2byte	0xba68
200087ea:	ffff                	.2byte	0xffff
200087ec:	021c                	.2byte	0x21c
200087ee:	0000                	.2byte	0x0
200087f0:	4400                	.2byte	0x4400
200087f2:	300e                	.2byte	0x300e
200087f4:	8958                	.2byte	0x8958
200087f6:	88018103          	lb	sp,-1920(gp) # 200097b0 <keymapprev+0x5c>
200087fa:	9202                	.2byte	0x9202
200087fc:	9304                	.2byte	0x9304
200087fe:	0305                	.2byte	0x305
20008800:	01e8                	.2byte	0x1e8
20008802:	44c1                	.2byte	0x44c1
20008804:	44c8                	.2byte	0x44c8
20008806:	44c9                	.2byte	0x44c9
20008808:	44d2                	.2byte	0x44d2
2000880a:	000e44d3          	.4byte	0xe44d3
2000880e:	0000                	.2byte	0x0
20008810:	001c                	.2byte	0x1c
20008812:	0000                	.2byte	0x0
20008814:	0bac                	.2byte	0xbac
20008816:	0000                	.2byte	0x0
20008818:	bc54                	.2byte	0xbc54
2000881a:	ffff                	.2byte	0xffff
2000881c:	003c                	.2byte	0x3c
2000881e:	0000                	.2byte	0x0
20008820:	4400                	.2byte	0x4400
20008822:	200e                	.2byte	0x200e
20008824:	8848                	.2byte	0x8848
20008826:	8102                	.2byte	0x8102
20008828:	6401                	.2byte	0x6401
2000882a:	44c1                	.2byte	0x44c1
2000882c:	44c8                	.2byte	0x44c8
2000882e:	000e                	.2byte	0xe
20008830:	0048                	.2byte	0x48
20008832:	0000                	.2byte	0x0
20008834:	0bcc                	.2byte	0xbcc
20008836:	0000                	.2byte	0x0
20008838:	bc70                	.2byte	0xbc70
2000883a:	ffff                	.2byte	0xffff
2000883c:	0398                	.2byte	0x398
2000883e:	0000                	.2byte	0x0
20008840:	4400                	.2byte	0x4400
20008842:	500e                	.2byte	0x500e
20008844:	8944                	.2byte	0x8944
20008846:	02887003          	.4byte	0x2887003
2000884a:	0492                	.2byte	0x492
2000884c:	0181                	.2byte	0x181
2000884e:	06940593          	addi	a1,s0,105
20008852:	0795                	.2byte	0x795
20008854:	0896                	.2byte	0x896
20008856:	0a980997          	auipc	s3,0xa980
2000885a:	0b99                	.2byte	0xb99
2000885c:	7402                	.2byte	0x7402
2000885e:	c10a                	.2byte	0xc10a
20008860:	c844                	.2byte	0xc844
20008862:	c944                	.2byte	0xc944
20008864:	d344                	.2byte	0xd344
20008866:	d444                	.2byte	0xd444
20008868:	d544                	.2byte	0xd544
2000886a:	d644                	.2byte	0xd644
2000886c:	d744                	.2byte	0xd744
2000886e:	d844                	.2byte	0xd844
20008870:	d944                	.2byte	0xd944
20008872:	d248                	.2byte	0xd248
20008874:	0e44                	.2byte	0xe44
20008876:	4400                	.2byte	0x4400
20008878:	0000000b          	.4byte	0xb
2000887c:	0024                	.2byte	0x24
2000887e:	0000                	.2byte	0x0
20008880:	0c18                	.2byte	0xc18
20008882:	0000                	.2byte	0x0
20008884:	bfbc                	.2byte	0xbfbc
20008886:	ffff                	.2byte	0xffff
20008888:	00bc                	.2byte	0xbc
2000888a:	0000                	.2byte	0x0
2000888c:	4400                	.2byte	0x4400
2000888e:	300e                	.2byte	0x300e
20008890:	814c                	.2byte	0x814c
20008892:	8801                	.2byte	0x8801
20008894:	8902                	.2byte	0x8902
20008896:	0a940203          	lb	tp,169(s0)
2000889a:	44c1                	.2byte	0x44c1
2000889c:	44c8                	.2byte	0x44c8
2000889e:	44c9                	.2byte	0x44c9
200088a0:	000e                	.2byte	0xe
200088a2:	0b44                	.2byte	0xb44
200088a4:	001c                	.2byte	0x1c
200088a6:	0000                	.2byte	0x0
200088a8:	0c40                	.2byte	0xc40
200088aa:	0000                	.2byte	0x0
200088ac:	c050                	.2byte	0xc050
200088ae:	ffff                	.2byte	0xffff
200088b0:	0030                	.2byte	0x30
200088b2:	0000                	.2byte	0x0
200088b4:	4400                	.2byte	0x4400
200088b6:	200e                	.2byte	0x200e
200088b8:	884c                	.2byte	0x884c
200088ba:	8102                	.2byte	0x8102
200088bc:	5401                	.2byte	0x5401
200088be:	44c1                	.2byte	0x44c1
200088c0:	44c8                	.2byte	0x44c8
200088c2:	000e                	.2byte	0xe
200088c4:	0070                	.2byte	0x70
200088c6:	0000                	.2byte	0x0
200088c8:	0c60                	.2byte	0xc60
200088ca:	0000                	.2byte	0x0
200088cc:	c060                	.2byte	0xc060
200088ce:	ffff                	.2byte	0xffff
200088d0:	04b0                	.2byte	0x4b0
200088d2:	0000                	.2byte	0x0
200088d4:	4400                	.2byte	0x4400
200088d6:	500e                	.2byte	0x500e
200088d8:	8944                	.2byte	0x8944
200088da:	02887803          	.4byte	0x2887803
200088de:	0492                	.2byte	0x492
200088e0:	0181                	.2byte	0x181
200088e2:	06940593          	addi	a1,s0,105
200088e6:	0795                	.2byte	0x795
200088e8:	0896                	.2byte	0x896
200088ea:	0a980997          	auipc	s3,0xa980
200088ee:	0b99                	.2byte	0xb99
200088f0:	0c9a                	.2byte	0xc9a
200088f2:	0a5c0d9b          	.4byte	0xa5c0d9b
200088f6:	44c8                	.2byte	0x44c8
200088f8:	44c1                	.2byte	0x44c1
200088fa:	44c9                	.2byte	0x44c9
200088fc:	44d2                	.2byte	0x44d2
200088fe:	44d444d3          	.4byte	0x44d444d3
20008902:	44d5                	.2byte	0x44d5
20008904:	44d6                	.2byte	0x44d6
20008906:	44d844d7          	.4byte	0x44d844d7
2000890a:	44d9                	.2byte	0x44d9
2000890c:	44da                	.2byte	0x44da
2000890e:	000e48db          	.4byte	0xe48db
20008912:	0b44                	.2byte	0xb44
20008914:	0a039403          	lh	s0,160(t2)
20008918:	44c1                	.2byte	0x44c1
2000891a:	44c8                	.2byte	0x44c8
2000891c:	44c9                	.2byte	0x44c9
2000891e:	44d444d3          	.4byte	0x44d444d3
20008922:	44d5                	.2byte	0x44d5
20008924:	44d6                	.2byte	0x44d6
20008926:	44d844d7          	.4byte	0x44d844d7
2000892a:	44d9                	.2byte	0x44d9
2000892c:	44da                	.2byte	0x44da
2000892e:	44d248db          	.4byte	0x44d248db
20008932:	000e                	.2byte	0xe
20008934:	0b44                	.2byte	0xb44
20008936:	0000                	.2byte	0x0
20008938:	0010                	.2byte	0x10
2000893a:	0000                	.2byte	0x0
2000893c:	0cd4                	.2byte	0xcd4
2000893e:	0000                	.2byte	0x0
20008940:	c49c                	.2byte	0xc49c
20008942:	ffff                	.2byte	0xffff
20008944:	0064                	.2byte	0x64
20008946:	0000                	.2byte	0x0
20008948:	0000                	.2byte	0x0
2000894a:	0000                	.2byte	0x0
2000894c:	0010                	.2byte	0x10
2000894e:	0000                	.2byte	0x0
20008950:	0ce8                	.2byte	0xce8
20008952:	0000                	.2byte	0x0
20008954:	c4ec                	.2byte	0xc4ec
20008956:	ffff                	.2byte	0xffff
20008958:	0038                	.2byte	0x38
2000895a:	0000                	.2byte	0x0
2000895c:	0000                	.2byte	0x0
2000895e:	0000                	.2byte	0x0
20008960:	0010                	.2byte	0x10
20008962:	0000                	.2byte	0x0
20008964:	0cfc                	.2byte	0xcfc
20008966:	0000                	.2byte	0x0
20008968:	c510                	.2byte	0xc510
2000896a:	ffff                	.2byte	0xffff
2000896c:	00f0                	.2byte	0xf0
2000896e:	0000                	.2byte	0x0
20008970:	0000                	.2byte	0x0
20008972:	0000                	.2byte	0x0
20008974:	0010                	.2byte	0x10
20008976:	0000                	.2byte	0x0
20008978:	0d10                	.2byte	0xd10
2000897a:	0000                	.2byte	0x0
2000897c:	c5ec                	.2byte	0xc5ec
2000897e:	ffff                	.2byte	0xffff
20008980:	000c                	.2byte	0xc
20008982:	0000                	.2byte	0x0
20008984:	0000                	.2byte	0x0
20008986:	0000                	.2byte	0x0
20008988:	0018                	.2byte	0x18
2000898a:	0000                	.2byte	0x0
2000898c:	0d24                	.2byte	0xd24
2000898e:	0000                	.2byte	0x0
20008990:	c5e4                	.2byte	0xc5e4
20008992:	ffff                	.2byte	0xffff
20008994:	0030                	.2byte	0x30
20008996:	0000                	.2byte	0x0
20008998:	4c00                	.2byte	0x4c00
2000899a:	100e                	.2byte	0x100e
2000899c:	8144                	.2byte	0x8144
2000899e:	4801                	.2byte	0x4801
200089a0:	4cc1                	.2byte	0x4cc1
200089a2:	000e                	.2byte	0xe
200089a4:	0018                	.2byte	0x18
200089a6:	0000                	.2byte	0x0
200089a8:	0d40                	.2byte	0xd40
200089aa:	0000                	.2byte	0x0
200089ac:	c5f8                	.2byte	0xc5f8
200089ae:	ffff                	.2byte	0xffff
200089b0:	0040                	.2byte	0x40
200089b2:	0000                	.2byte	0x0
200089b4:	5c00                	.2byte	0x5c00
200089b6:	100e                	.2byte	0x100e
200089b8:	814c                	.2byte	0x814c
200089ba:	4801                	.2byte	0x4801
200089bc:	4cc1                	.2byte	0x4cc1
200089be:	000e                	.2byte	0xe
200089c0:	0018                	.2byte	0x18
200089c2:	0000                	.2byte	0x0
200089c4:	0d5c                	.2byte	0xd5c
200089c6:	0000                	.2byte	0x0
200089c8:	c61c                	.2byte	0xc61c
200089ca:	ffff                	.2byte	0xffff
200089cc:	0040                	.2byte	0x40
200089ce:	0000                	.2byte	0x0
200089d0:	5c00                	.2byte	0x5c00
200089d2:	100e                	.2byte	0x100e
200089d4:	814c                	.2byte	0x814c
200089d6:	4801                	.2byte	0x4801
200089d8:	4cc1                	.2byte	0x4cc1
200089da:	000e                	.2byte	0xe
200089dc:	0010                	.2byte	0x10
200089de:	0000                	.2byte	0x0
200089e0:	0d78                	.2byte	0xd78
200089e2:	0000                	.2byte	0x0
200089e4:	c640                	.2byte	0xc640
200089e6:	ffff                	.2byte	0xffff
200089e8:	0010                	.2byte	0x10
200089ea:	0000                	.2byte	0x0
200089ec:	0000                	.2byte	0x0
	...

Disassembly of section .data:

200089f0 <keyboardringbuffer>:
200089f0:	0200                	.2byte	0x200
200089f2:	8000                	.2byte	0x8000

200089f4 <_ZL10currentdir>:
200089f4:	003a6473          	csrrsi	s0,fcsr,20
	...

20008bf4 <FRtoString>:
20008bf4:	72cc                	.2byte	0x72cc
20008bf6:	2000                	.2byte	0x2000
20008bf8:	72d8                	.2byte	0x72d8
20008bfa:	2000                	.2byte	0x2000
20008bfc:	7310                	.2byte	0x7310
20008bfe:	2000                	.2byte	0x2000
20008c00:	7324                	.2byte	0x7324
20008c02:	2000                	.2byte	0x2000
20008c04:	7344                	.2byte	0x7344
20008c06:	2000                	.2byte	0x2000
20008c08:	7360                	.2byte	0x7360
20008c0a:	2000                	.2byte	0x2000
20008c0c:	737c                	.2byte	0x737c
20008c0e:	2000                	.2byte	0x2000
20008c10:	73a0                	.2byte	0x73a0
20008c12:	2000                	.2byte	0x2000
20008c14:	73dc                	.2byte	0x73dc
20008c16:	2000                	.2byte	0x2000
20008c18:	7404                	.2byte	0x7404
20008c1a:	2000                	.2byte	0x2000
20008c1c:	742c                	.2byte	0x742c
20008c1e:	2000                	.2byte	0x2000
20008c20:	7454                	.2byte	0x7454
20008c22:	2000                	.2byte	0x2000
20008c24:	747c                	.2byte	0x747c
20008c26:	2000                	.2byte	0x2000
20008c28:	749c                	.2byte	0x749c
20008c2a:	2000                	.2byte	0x2000
20008c2c:	74bc                	.2byte	0x74bc
20008c2e:	2000                	.2byte	0x2000
20008c30:	74e8                	.2byte	0x74e8
20008c32:	2000                	.2byte	0x2000
20008c34:	752c                	.2byte	0x752c
20008c36:	2000                	.2byte	0x2000
20008c38:	756c                	.2byte	0x756c
20008c3a:	2000                	.2byte	0x2000
20008c3c:	7598                	.2byte	0x7598
20008c3e:	2000                	.2byte	0x2000
20008c40:	75bc                	.2byte	0x75bc
20008c42:	2000                	.2byte	0x2000

20008c44 <IO_UARTStatus>:
20008c44:	1008                	.2byte	0x1008
20008c46:	8000                	.2byte	0x8000

20008c48 <IO_UARTTX>:
20008c48:	1004                	.2byte	0x1004
20008c4a:	8000                	.2byte	0x8000

20008c4c <IO_UARTRX>:
20008c4c:	1000                	.2byte	0x1000
20008c4e:	8000                	.2byte	0x8000

20008c50 <_ZL10heap_start>:
20008c50:	0000                	.2byte	0x0
20008c52:	0400                	.2byte	0x400

20008c54 <HARTIRQ>:
20008c54:	1040                	.2byte	0x1040
20008c56:	8000                	.2byte	0x8000

20008c58 <HARTMAILBOX>:
20008c58:	0000                	.2byte	0x0
20008c5a:	8000                	.2byte	0x8000

20008c5c <LEDSTATE>:
20008c5c:	1030                	.2byte	0x1030
20008c5e:	8000                	.2byte	0x8000

20008c60 <IO_SPIRXTX>:
20008c60:	1010                	.2byte	0x1010
20008c62:	8000                	.2byte	0x8000

20008c64 <m_writeOffset>:
20008c64:	0604                	.2byte	0x604
20008c66:	8000                	.2byte	0x8000

20008c68 <m_readOffset>:
20008c68:	0600                	.2byte	0x600
20008c6a:	8000                	.2byte	0x8000

20008c6c <scantoasciitable_uppercase>:
20008c6c:	2020                	.2byte	0x2020
20008c6e:	2020                	.2byte	0x2020
20008c70:	2020                	.2byte	0x2020
20008c72:	2020                	.2byte	0x2020
20008c74:	2020                	.2byte	0x2020
20008c76:	2020                	.2byte	0x2020
20008c78:	0b20                	.2byte	0xb20
20008c7a:	2060                	.2byte	0x2060
20008c7c:	2020                	.2byte	0x2020
20008c7e:	2020                	.2byte	0x2020
20008c80:	5120                	.2byte	0x5120
20008c82:	2021                	.2byte	0x2021
20008c84:	2020                	.2byte	0x2020
20008c86:	535a                	.2byte	0x535a
20008c88:	5741                	.2byte	0x5741
20008c8a:	2040                	.2byte	0x2040
20008c8c:	4320                	.2byte	0x4320
20008c8e:	4458                	.2byte	0x4458
20008c90:	2445                	.2byte	0x2445
20008c92:	20202023          	sw	sp,512(zero) # 200 <_start-0x1ffffe00>
20008c96:	4656                	.2byte	0x4656
20008c98:	5254                	.2byte	0x5254
20008c9a:	2025                	.2byte	0x2025
20008c9c:	4e20                	.2byte	0x4e20
20008c9e:	4842                	.2byte	0x4842
20008ca0:	205e5947          	.4byte	0x205e5947
20008ca4:	2020                	.2byte	0x2020
20008ca6:	4a4d                	.2byte	0x4a4d
20008ca8:	3755                	.2byte	0x3755
20008caa:	202a                	.2byte	0x202a
20008cac:	3c20                	.2byte	0x3c20
20008cae:	294f494b          	.4byte	0x294f494b
20008cb2:	2028                	.2byte	0x2028
20008cb4:	3e20                	.2byte	0x3e20
20008cb6:	503a6c3f 2020205f 	.8byte	0x2020205f503a6c3f
20008cbe:	2022                	.2byte	0x2022
20008cc0:	20202b7b          	.4byte	0x20202b7b
20008cc4:	2020                	.2byte	0x2020
20008cc6:	7d0d                	.2byte	0x7d0d
20008cc8:	7c20                	.2byte	0x7c20
20008cca:	2020                	.2byte	0x2020
20008ccc:	2020                	.2byte	0x2020
20008cce:	2020                	.2byte	0x2020
20008cd0:	2020                	.2byte	0x2020
20008cd2:	2008                	.2byte	0x2008
20008cd4:	2020                	.2byte	0x2020
20008cd6:	2020                	.2byte	0x2020
20008cd8:	2020                	.2byte	0x2020
20008cda:	2020                	.2byte	0x2020
20008cdc:	2020                	.2byte	0x2020
20008cde:	2020                	.2byte	0x2020
20008ce0:	2020                	.2byte	0x2020
20008ce2:	2020201b          	.4byte	0x2020201b
20008ce6:	2020                	.2byte	0x2020
20008ce8:	2020                	.2byte	0x2020
20008cea:	2020                	.2byte	0x2020
20008cec:	2020                	.2byte	0x2020
20008cee:	2020                	.2byte	0x2020
20008cf0:	2020                	.2byte	0x2020
20008cf2:	2020                	.2byte	0x2020
20008cf4:	2020                	.2byte	0x2020
20008cf6:	2020                	.2byte	0x2020
20008cf8:	2020                	.2byte	0x2020
20008cfa:	2020                	.2byte	0x2020
20008cfc:	2020                	.2byte	0x2020
20008cfe:	2020                	.2byte	0x2020
20008d00:	2020                	.2byte	0x2020
20008d02:	2020                	.2byte	0x2020
20008d04:	2020                	.2byte	0x2020
20008d06:	2020                	.2byte	0x2020
20008d08:	2020                	.2byte	0x2020
20008d0a:	2020                	.2byte	0x2020
20008d0c:	2020                	.2byte	0x2020
20008d0e:	2020                	.2byte	0x2020
20008d10:	2020                	.2byte	0x2020
20008d12:	2020                	.2byte	0x2020
20008d14:	2020                	.2byte	0x2020
20008d16:	2020                	.2byte	0x2020
20008d18:	2020                	.2byte	0x2020
20008d1a:	2020                	.2byte	0x2020
20008d1c:	2020                	.2byte	0x2020
20008d1e:	2020                	.2byte	0x2020
20008d20:	2020                	.2byte	0x2020
20008d22:	2020                	.2byte	0x2020
20008d24:	2020                	.2byte	0x2020
20008d26:	2020                	.2byte	0x2020
20008d28:	2020                	.2byte	0x2020
20008d2a:	2020                	.2byte	0x2020
20008d2c:	2020                	.2byte	0x2020
20008d2e:	2020                	.2byte	0x2020
20008d30:	2020                	.2byte	0x2020
20008d32:	2020                	.2byte	0x2020
20008d34:	2020                	.2byte	0x2020
20008d36:	2020                	.2byte	0x2020
20008d38:	2020                	.2byte	0x2020
20008d3a:	2020                	.2byte	0x2020
20008d3c:	2020                	.2byte	0x2020
20008d3e:	2020                	.2byte	0x2020
20008d40:	2020                	.2byte	0x2020
20008d42:	2020                	.2byte	0x2020
20008d44:	2020                	.2byte	0x2020
20008d46:	2020                	.2byte	0x2020
20008d48:	2020                	.2byte	0x2020
20008d4a:	2020                	.2byte	0x2020
20008d4c:	2020                	.2byte	0x2020
20008d4e:	2020                	.2byte	0x2020
20008d50:	2020                	.2byte	0x2020
20008d52:	2020                	.2byte	0x2020
20008d54:	2020                	.2byte	0x2020
20008d56:	2020                	.2byte	0x2020
20008d58:	2020                	.2byte	0x2020
20008d5a:	2020                	.2byte	0x2020
20008d5c:	2020                	.2byte	0x2020
20008d5e:	2020                	.2byte	0x2020
20008d60:	2020                	.2byte	0x2020
20008d62:	2020                	.2byte	0x2020
20008d64:	2020                	.2byte	0x2020
20008d66:	2020                	.2byte	0x2020
20008d68:	2020                	.2byte	0x2020
20008d6a:	2020                	.2byte	0x2020

20008d6c <scantoasciitable_lowercase>:
20008d6c:	2020                	.2byte	0x2020
20008d6e:	2020                	.2byte	0x2020
20008d70:	2020                	.2byte	0x2020
20008d72:	2020                	.2byte	0x2020
20008d74:	2020                	.2byte	0x2020
20008d76:	2020                	.2byte	0x2020
20008d78:	0b20                	.2byte	0xb20
20008d7a:	2060                	.2byte	0x2060
20008d7c:	2020                	.2byte	0x2020
20008d7e:	2020                	.2byte	0x2020
20008d80:	7120                	.2byte	0x7120
20008d82:	2031                	.2byte	0x2031
20008d84:	2020                	.2byte	0x2020
20008d86:	737a                	.2byte	0x737a
20008d88:	7761                	.2byte	0x7761
20008d8a:	2032                	.2byte	0x2032
20008d8c:	6320                	.2byte	0x6320
20008d8e:	6478                	.2byte	0x6478
20008d90:	3465                	.2byte	0x3465
20008d92:	20202033          	.4byte	0x20202033
20008d96:	6676                	.2byte	0x6676
20008d98:	7274                	.2byte	0x7274
20008d9a:	2035                	.2byte	0x2035
20008d9c:	6e20                	.2byte	0x6e20
20008d9e:	6862                	.2byte	0x6862
20008da0:	20367967          	.4byte	0x20367967
20008da4:	2020                	.2byte	0x2020
20008da6:	6a6d                	.2byte	0x6a6d
20008da8:	3775                	.2byte	0x3775
20008daa:	2038                	.2byte	0x2038
20008dac:	2c20                	.2byte	0x2c20
20008dae:	306f696b          	.4byte	0x306f696b
20008db2:	2039                	.2byte	0x2039
20008db4:	2e20                	.2byte	0x2e20
20008db6:	703b6c2f          	.4byte	0x703b6c2f
20008dba:	202d                	.2byte	0x202d
20008dbc:	2020                	.2byte	0x2020
20008dbe:	3d5b2027          	.4byte	0x3d5b2027
20008dc2:	2020                	.2byte	0x2020
20008dc4:	2020                	.2byte	0x2020
20008dc6:	5d0d                	.2byte	0x5d0d
20008dc8:	5c20                	.2byte	0x5c20
20008dca:	2020                	.2byte	0x2020
20008dcc:	2020                	.2byte	0x2020
20008dce:	2020                	.2byte	0x2020
20008dd0:	2020                	.2byte	0x2020
20008dd2:	2008                	.2byte	0x2008
20008dd4:	2020                	.2byte	0x2020
20008dd6:	2020                	.2byte	0x2020
20008dd8:	2020                	.2byte	0x2020
20008dda:	2020                	.2byte	0x2020
20008ddc:	2020                	.2byte	0x2020
20008dde:	2020                	.2byte	0x2020
20008de0:	2020                	.2byte	0x2020
20008de2:	2020201b          	.4byte	0x2020201b
20008de6:	2020                	.2byte	0x2020
20008de8:	2020                	.2byte	0x2020
20008dea:	2020                	.2byte	0x2020
20008dec:	2020                	.2byte	0x2020
20008dee:	2020                	.2byte	0x2020
20008df0:	2020                	.2byte	0x2020
20008df2:	2020                	.2byte	0x2020
20008df4:	2020                	.2byte	0x2020
20008df6:	2020                	.2byte	0x2020
20008df8:	2020                	.2byte	0x2020
20008dfa:	2020                	.2byte	0x2020
20008dfc:	2020                	.2byte	0x2020
20008dfe:	2020                	.2byte	0x2020
20008e00:	2020                	.2byte	0x2020
20008e02:	2020                	.2byte	0x2020
20008e04:	2020                	.2byte	0x2020
20008e06:	2020                	.2byte	0x2020
20008e08:	2020                	.2byte	0x2020
20008e0a:	2020                	.2byte	0x2020
20008e0c:	2020                	.2byte	0x2020
20008e0e:	2020                	.2byte	0x2020
20008e10:	2020                	.2byte	0x2020
20008e12:	2020                	.2byte	0x2020
20008e14:	2020                	.2byte	0x2020
20008e16:	2020                	.2byte	0x2020
20008e18:	2020                	.2byte	0x2020
20008e1a:	2020                	.2byte	0x2020
20008e1c:	2020                	.2byte	0x2020
20008e1e:	2020                	.2byte	0x2020
20008e20:	2020                	.2byte	0x2020
20008e22:	2020                	.2byte	0x2020
20008e24:	2020                	.2byte	0x2020
20008e26:	2020                	.2byte	0x2020
20008e28:	2020                	.2byte	0x2020
20008e2a:	2020                	.2byte	0x2020
20008e2c:	2020                	.2byte	0x2020
20008e2e:	2020                	.2byte	0x2020
20008e30:	2020                	.2byte	0x2020
20008e32:	2020                	.2byte	0x2020
20008e34:	2020                	.2byte	0x2020
20008e36:	2020                	.2byte	0x2020
20008e38:	2020                	.2byte	0x2020
20008e3a:	2020                	.2byte	0x2020
20008e3c:	2020                	.2byte	0x2020
20008e3e:	2020                	.2byte	0x2020
20008e40:	2020                	.2byte	0x2020
20008e42:	2020                	.2byte	0x2020
20008e44:	2020                	.2byte	0x2020
20008e46:	2020                	.2byte	0x2020
20008e48:	2020                	.2byte	0x2020
20008e4a:	2020                	.2byte	0x2020
20008e4c:	2020                	.2byte	0x2020
20008e4e:	2020                	.2byte	0x2020
20008e50:	2020                	.2byte	0x2020
20008e52:	2020                	.2byte	0x2020
20008e54:	2020                	.2byte	0x2020
20008e56:	2020                	.2byte	0x2020
20008e58:	2020                	.2byte	0x2020
20008e5a:	2020                	.2byte	0x2020
20008e5c:	2020                	.2byte	0x2020
20008e5e:	2020                	.2byte	0x2020
20008e60:	2020                	.2byte	0x2020
20008e62:	2020                	.2byte	0x2020
20008e64:	2020                	.2byte	0x2020
20008e66:	2020                	.2byte	0x2020
20008e68:	2020                	.2byte	0x2020
20008e6a:	2020                	.2byte	0x2020

20008e6c <PS2KEYBOARDDATAAVAIL>:
20008e6c:	1028                	.2byte	0x1028
20008e6e:	8000                	.2byte	0x8000

20008e70 <PS2KEYBOARDDATA>:
20008e70:	1020                	.2byte	0x1020
20008e72:	8000                	.2byte	0x8000

20008e74 <BUTTONCHANGEAVAIL>:
20008e74:	1054                	.2byte	0x1054
20008e76:	8000                	.2byte	0x8000

20008e78 <BUTTONCHANGE>:
20008e78:	1050                	.2byte	0x1050
20008e7a:	8000                	.2byte	0x8000

20008e7c <_ZL9VolumeStr>:
20008e7c:	7888                	.2byte	0x7888
20008e7e:	2000                	.2byte	0x2000
20008e80:	788c                	.2byte	0x788c
20008e82:	2000                	.2byte	0x2000
20008e84:	7890                	.2byte	0x7890
20008e86:	2000                	.2byte	0x2000

20008e88 <impure_data>:
20008e88:	0000                	.2byte	0x0
20008e8a:	0000                	.2byte	0x0
20008e8c:	9174                	.2byte	0x9174
20008e8e:	2000                	.2byte	0x2000
20008e90:	91dc                	.2byte	0x91dc
20008e92:	2000                	.2byte	0x2000
20008e94:	9244                	.2byte	0x9244
20008e96:	2000                	.2byte	0x2000
	...
20008f30:	0001                	.2byte	0x1
20008f32:	0000                	.2byte	0x0
20008f34:	0000                	.2byte	0x0
20008f36:	0000                	.2byte	0x0
20008f38:	330e                	.2byte	0x330e
20008f3a:	abcd                	.2byte	0xabcd
20008f3c:	1234                	.2byte	0x1234
20008f3e:	e66d                	.2byte	0xe66d
20008f40:	deec                	.2byte	0xdeec
20008f42:	0005                	.2byte	0x5
20008f44:	0000000b          	.4byte	0xb
	...

200092b0 <__malloc_av_>:
	...
200092b8:	92b0                	.2byte	0x92b0
200092ba:	2000                	.2byte	0x2000
200092bc:	92b0                	.2byte	0x92b0
200092be:	2000                	.2byte	0x2000
200092c0:	92b8                	.2byte	0x92b8
200092c2:	2000                	.2byte	0x2000
200092c4:	92b8                	.2byte	0x92b8
200092c6:	2000                	.2byte	0x2000
200092c8:	92c0                	.2byte	0x92c0
200092ca:	2000                	.2byte	0x2000
200092cc:	92c0                	.2byte	0x92c0
200092ce:	2000                	.2byte	0x2000
200092d0:	92c8                	.2byte	0x92c8
200092d2:	2000                	.2byte	0x2000
200092d4:	92c8                	.2byte	0x92c8
200092d6:	2000                	.2byte	0x2000
200092d8:	92d0                	.2byte	0x92d0
200092da:	2000                	.2byte	0x2000
200092dc:	92d0                	.2byte	0x92d0
200092de:	2000                	.2byte	0x2000
200092e0:	92d8                	.2byte	0x92d8
200092e2:	2000                	.2byte	0x2000
200092e4:	92d8                	.2byte	0x92d8
200092e6:	2000                	.2byte	0x2000
200092e8:	92e0                	.2byte	0x92e0
200092ea:	2000                	.2byte	0x2000
200092ec:	92e0                	.2byte	0x92e0
200092ee:	2000                	.2byte	0x2000
200092f0:	92e8                	.2byte	0x92e8
200092f2:	2000                	.2byte	0x2000
200092f4:	92e8                	.2byte	0x92e8
200092f6:	2000                	.2byte	0x2000
200092f8:	92f0                	.2byte	0x92f0
200092fa:	2000                	.2byte	0x2000
200092fc:	92f0                	.2byte	0x92f0
200092fe:	2000                	.2byte	0x2000
20009300:	92f8                	.2byte	0x92f8
20009302:	2000                	.2byte	0x2000
20009304:	92f8                	.2byte	0x92f8
20009306:	2000                	.2byte	0x2000
20009308:	9300                	.2byte	0x9300
2000930a:	2000                	.2byte	0x2000
2000930c:	9300                	.2byte	0x9300
2000930e:	2000                	.2byte	0x2000
20009310:	9308                	.2byte	0x9308
20009312:	2000                	.2byte	0x2000
20009314:	9308                	.2byte	0x9308
20009316:	2000                	.2byte	0x2000
20009318:	9310                	.2byte	0x9310
2000931a:	2000                	.2byte	0x2000
2000931c:	9310                	.2byte	0x9310
2000931e:	2000                	.2byte	0x2000
20009320:	9318                	.2byte	0x9318
20009322:	2000                	.2byte	0x2000
20009324:	9318                	.2byte	0x9318
20009326:	2000                	.2byte	0x2000
20009328:	9320                	.2byte	0x9320
2000932a:	2000                	.2byte	0x2000
2000932c:	9320                	.2byte	0x9320
2000932e:	2000                	.2byte	0x2000
20009330:	9328                	.2byte	0x9328
20009332:	2000                	.2byte	0x2000
20009334:	9328                	.2byte	0x9328
20009336:	2000                	.2byte	0x2000
20009338:	9330                	.2byte	0x9330
2000933a:	2000                	.2byte	0x2000
2000933c:	9330                	.2byte	0x9330
2000933e:	2000                	.2byte	0x2000
20009340:	9338                	.2byte	0x9338
20009342:	2000                	.2byte	0x2000
20009344:	9338                	.2byte	0x9338
20009346:	2000                	.2byte	0x2000
20009348:	9340                	.2byte	0x9340
2000934a:	2000                	.2byte	0x2000
2000934c:	9340                	.2byte	0x9340
2000934e:	2000                	.2byte	0x2000
20009350:	9348                	.2byte	0x9348
20009352:	2000                	.2byte	0x2000
20009354:	9348                	.2byte	0x9348
20009356:	2000                	.2byte	0x2000
20009358:	9350                	.2byte	0x9350
2000935a:	2000                	.2byte	0x2000
2000935c:	9350                	.2byte	0x9350
2000935e:	2000                	.2byte	0x2000
20009360:	9358                	.2byte	0x9358
20009362:	2000                	.2byte	0x2000
20009364:	9358                	.2byte	0x9358
20009366:	2000                	.2byte	0x2000
20009368:	9360                	.2byte	0x9360
2000936a:	2000                	.2byte	0x2000
2000936c:	9360                	.2byte	0x9360
2000936e:	2000                	.2byte	0x2000
20009370:	9368                	.2byte	0x9368
20009372:	2000                	.2byte	0x2000
20009374:	9368                	.2byte	0x9368
20009376:	2000                	.2byte	0x2000
20009378:	9370                	.2byte	0x9370
2000937a:	2000                	.2byte	0x2000
2000937c:	9370                	.2byte	0x9370
2000937e:	2000                	.2byte	0x2000
20009380:	9378                	.2byte	0x9378
20009382:	2000                	.2byte	0x2000
20009384:	9378                	.2byte	0x9378
20009386:	2000                	.2byte	0x2000
20009388:	9380                	.2byte	0x9380
2000938a:	2000                	.2byte	0x2000
2000938c:	9380                	.2byte	0x9380
2000938e:	2000                	.2byte	0x2000
20009390:	9388                	.2byte	0x9388
20009392:	2000                	.2byte	0x2000
20009394:	9388                	.2byte	0x9388
20009396:	2000                	.2byte	0x2000
20009398:	9390                	.2byte	0x9390
2000939a:	2000                	.2byte	0x2000
2000939c:	9390                	.2byte	0x9390
2000939e:	2000                	.2byte	0x2000
200093a0:	9398                	.2byte	0x9398
200093a2:	2000                	.2byte	0x2000
200093a4:	9398                	.2byte	0x9398
200093a6:	2000                	.2byte	0x2000
200093a8:	93a0                	.2byte	0x93a0
200093aa:	2000                	.2byte	0x2000
200093ac:	93a0                	.2byte	0x93a0
200093ae:	2000                	.2byte	0x2000
200093b0:	93a8                	.2byte	0x93a8
200093b2:	2000                	.2byte	0x2000
200093b4:	93a8                	.2byte	0x93a8
200093b6:	2000                	.2byte	0x2000
200093b8:	93b0                	.2byte	0x93b0
200093ba:	2000                	.2byte	0x2000
200093bc:	93b0                	.2byte	0x93b0
200093be:	2000                	.2byte	0x2000
200093c0:	93b8                	.2byte	0x93b8
200093c2:	2000                	.2byte	0x2000
200093c4:	93b8                	.2byte	0x93b8
200093c6:	2000                	.2byte	0x2000
200093c8:	93c0                	.2byte	0x93c0
200093ca:	2000                	.2byte	0x2000
200093cc:	93c0                	.2byte	0x93c0
200093ce:	2000                	.2byte	0x2000
200093d0:	93c8                	.2byte	0x93c8
200093d2:	2000                	.2byte	0x2000
200093d4:	93c8                	.2byte	0x93c8
200093d6:	2000                	.2byte	0x2000
200093d8:	93d0                	.2byte	0x93d0
200093da:	2000                	.2byte	0x2000
200093dc:	93d0                	.2byte	0x93d0
200093de:	2000                	.2byte	0x2000
200093e0:	93d8                	.2byte	0x93d8
200093e2:	2000                	.2byte	0x2000
200093e4:	93d8                	.2byte	0x93d8
200093e6:	2000                	.2byte	0x2000
200093e8:	93e0                	.2byte	0x93e0
200093ea:	2000                	.2byte	0x2000
200093ec:	93e0                	.2byte	0x93e0
200093ee:	2000                	.2byte	0x2000
200093f0:	93e8                	.2byte	0x93e8
200093f2:	2000                	.2byte	0x2000
200093f4:	93e8                	.2byte	0x93e8
200093f6:	2000                	.2byte	0x2000
200093f8:	93f0                	.2byte	0x93f0
200093fa:	2000                	.2byte	0x2000
200093fc:	93f0                	.2byte	0x93f0
200093fe:	2000                	.2byte	0x2000
20009400:	93f8                	.2byte	0x93f8
20009402:	2000                	.2byte	0x2000
20009404:	93f8                	.2byte	0x93f8
20009406:	2000                	.2byte	0x2000
20009408:	9400                	.2byte	0x9400
2000940a:	2000                	.2byte	0x2000
2000940c:	9400                	.2byte	0x9400
2000940e:	2000                	.2byte	0x2000
20009410:	9408                	.2byte	0x9408
20009412:	2000                	.2byte	0x2000
20009414:	9408                	.2byte	0x9408
20009416:	2000                	.2byte	0x2000
20009418:	9410                	.2byte	0x9410
2000941a:	2000                	.2byte	0x2000
2000941c:	9410                	.2byte	0x9410
2000941e:	2000                	.2byte	0x2000
20009420:	9418                	.2byte	0x9418
20009422:	2000                	.2byte	0x2000
20009424:	9418                	.2byte	0x9418
20009426:	2000                	.2byte	0x2000
20009428:	9420                	.2byte	0x9420
2000942a:	2000                	.2byte	0x2000
2000942c:	9420                	.2byte	0x9420
2000942e:	2000                	.2byte	0x2000
20009430:	9428                	.2byte	0x9428
20009432:	2000                	.2byte	0x2000
20009434:	9428                	.2byte	0x9428
20009436:	2000                	.2byte	0x2000
20009438:	9430                	.2byte	0x9430
2000943a:	2000                	.2byte	0x2000
2000943c:	9430                	.2byte	0x9430
2000943e:	2000                	.2byte	0x2000
20009440:	9438                	.2byte	0x9438
20009442:	2000                	.2byte	0x2000
20009444:	9438                	.2byte	0x9438
20009446:	2000                	.2byte	0x2000
20009448:	9440                	.2byte	0x9440
2000944a:	2000                	.2byte	0x2000
2000944c:	9440                	.2byte	0x9440
2000944e:	2000                	.2byte	0x2000
20009450:	9448                	.2byte	0x9448
20009452:	2000                	.2byte	0x2000
20009454:	9448                	.2byte	0x9448
20009456:	2000                	.2byte	0x2000
20009458:	9450                	.2byte	0x9450
2000945a:	2000                	.2byte	0x2000
2000945c:	9450                	.2byte	0x9450
2000945e:	2000                	.2byte	0x2000
20009460:	9458                	.2byte	0x9458
20009462:	2000                	.2byte	0x2000
20009464:	9458                	.2byte	0x9458
20009466:	2000                	.2byte	0x2000
20009468:	9460                	.2byte	0x9460
2000946a:	2000                	.2byte	0x2000
2000946c:	9460                	.2byte	0x9460
2000946e:	2000                	.2byte	0x2000
20009470:	9468                	.2byte	0x9468
20009472:	2000                	.2byte	0x2000
20009474:	9468                	.2byte	0x9468
20009476:	2000                	.2byte	0x2000
20009478:	9470                	.2byte	0x9470
2000947a:	2000                	.2byte	0x2000
2000947c:	9470                	.2byte	0x9470
2000947e:	2000                	.2byte	0x2000
20009480:	9478                	.2byte	0x9478
20009482:	2000                	.2byte	0x2000
20009484:	9478                	.2byte	0x9478
20009486:	2000                	.2byte	0x2000
20009488:	9480                	.2byte	0x9480
2000948a:	2000                	.2byte	0x2000
2000948c:	9480                	.2byte	0x9480
2000948e:	2000                	.2byte	0x2000
20009490:	9488                	.2byte	0x9488
20009492:	2000                	.2byte	0x2000
20009494:	9488                	.2byte	0x9488
20009496:	2000                	.2byte	0x2000
20009498:	9490                	.2byte	0x9490
2000949a:	2000                	.2byte	0x2000
2000949c:	9490                	.2byte	0x9490
2000949e:	2000                	.2byte	0x2000
200094a0:	9498                	.2byte	0x9498
200094a2:	2000                	.2byte	0x2000
200094a4:	9498                	.2byte	0x9498
200094a6:	2000                	.2byte	0x2000
200094a8:	94a0                	.2byte	0x94a0
200094aa:	2000                	.2byte	0x2000
200094ac:	94a0                	.2byte	0x94a0
200094ae:	2000                	.2byte	0x2000
200094b0:	94a8                	.2byte	0x94a8
200094b2:	2000                	.2byte	0x2000
200094b4:	94a8                	.2byte	0x94a8
200094b6:	2000                	.2byte	0x2000
200094b8:	94b0                	.2byte	0x94b0
200094ba:	2000                	.2byte	0x2000
200094bc:	94b0                	.2byte	0x94b0
200094be:	2000                	.2byte	0x2000
200094c0:	94b8                	.2byte	0x94b8
200094c2:	2000                	.2byte	0x2000
200094c4:	94b8                	.2byte	0x94b8
200094c6:	2000                	.2byte	0x2000
200094c8:	94c0                	.2byte	0x94c0
200094ca:	2000                	.2byte	0x2000
200094cc:	94c0                	.2byte	0x94c0
200094ce:	2000                	.2byte	0x2000
200094d0:	94c8                	.2byte	0x94c8
200094d2:	2000                	.2byte	0x2000
200094d4:	94c8                	.2byte	0x94c8
200094d6:	2000                	.2byte	0x2000
200094d8:	94d0                	.2byte	0x94d0
200094da:	2000                	.2byte	0x2000
200094dc:	94d0                	.2byte	0x94d0
200094de:	2000                	.2byte	0x2000
200094e0:	94d8                	.2byte	0x94d8
200094e2:	2000                	.2byte	0x2000
200094e4:	94d8                	.2byte	0x94d8
200094e6:	2000                	.2byte	0x2000
200094e8:	94e0                	.2byte	0x94e0
200094ea:	2000                	.2byte	0x2000
200094ec:	94e0                	.2byte	0x94e0
200094ee:	2000                	.2byte	0x2000
200094f0:	94e8                	.2byte	0x94e8
200094f2:	2000                	.2byte	0x2000
200094f4:	94e8                	.2byte	0x94e8
200094f6:	2000                	.2byte	0x2000
200094f8:	94f0                	.2byte	0x94f0
200094fa:	2000                	.2byte	0x2000
200094fc:	94f0                	.2byte	0x94f0
200094fe:	2000                	.2byte	0x2000
20009500:	94f8                	.2byte	0x94f8
20009502:	2000                	.2byte	0x2000
20009504:	94f8                	.2byte	0x94f8
20009506:	2000                	.2byte	0x2000
20009508:	9500                	.2byte	0x9500
2000950a:	2000                	.2byte	0x2000
2000950c:	9500                	.2byte	0x9500
2000950e:	2000                	.2byte	0x2000
20009510:	9508                	.2byte	0x9508
20009512:	2000                	.2byte	0x2000
20009514:	9508                	.2byte	0x9508
20009516:	2000                	.2byte	0x2000
20009518:	9510                	.2byte	0x9510
2000951a:	2000                	.2byte	0x2000
2000951c:	9510                	.2byte	0x9510
2000951e:	2000                	.2byte	0x2000
20009520:	9518                	.2byte	0x9518
20009522:	2000                	.2byte	0x2000
20009524:	9518                	.2byte	0x9518
20009526:	2000                	.2byte	0x2000
20009528:	9520                	.2byte	0x9520
2000952a:	2000                	.2byte	0x2000
2000952c:	9520                	.2byte	0x9520
2000952e:	2000                	.2byte	0x2000
20009530:	9528                	.2byte	0x9528
20009532:	2000                	.2byte	0x2000
20009534:	9528                	.2byte	0x9528
20009536:	2000                	.2byte	0x2000
20009538:	9530                	.2byte	0x9530
2000953a:	2000                	.2byte	0x2000
2000953c:	9530                	.2byte	0x9530
2000953e:	2000                	.2byte	0x2000
20009540:	9538                	.2byte	0x9538
20009542:	2000                	.2byte	0x2000
20009544:	9538                	.2byte	0x9538
20009546:	2000                	.2byte	0x2000
20009548:	9540                	.2byte	0x9540
2000954a:	2000                	.2byte	0x2000
2000954c:	9540                	.2byte	0x9540
2000954e:	2000                	.2byte	0x2000
20009550:	9548                	.2byte	0x9548
20009552:	2000                	.2byte	0x2000
20009554:	9548                	.2byte	0x9548
20009556:	2000                	.2byte	0x2000
20009558:	9550                	.2byte	0x9550
2000955a:	2000                	.2byte	0x2000
2000955c:	9550                	.2byte	0x9550
2000955e:	2000                	.2byte	0x2000
20009560:	9558                	.2byte	0x9558
20009562:	2000                	.2byte	0x2000
20009564:	9558                	.2byte	0x9558
20009566:	2000                	.2byte	0x2000
20009568:	9560                	.2byte	0x9560
2000956a:	2000                	.2byte	0x2000
2000956c:	9560                	.2byte	0x9560
2000956e:	2000                	.2byte	0x2000
20009570:	9568                	.2byte	0x9568
20009572:	2000                	.2byte	0x2000
20009574:	9568                	.2byte	0x9568
20009576:	2000                	.2byte	0x2000
20009578:	9570                	.2byte	0x9570
2000957a:	2000                	.2byte	0x2000
2000957c:	9570                	.2byte	0x9570
2000957e:	2000                	.2byte	0x2000
20009580:	9578                	.2byte	0x9578
20009582:	2000                	.2byte	0x2000
20009584:	9578                	.2byte	0x9578
20009586:	2000                	.2byte	0x2000
20009588:	9580                	.2byte	0x9580
2000958a:	2000                	.2byte	0x2000
2000958c:	9580                	.2byte	0x9580
2000958e:	2000                	.2byte	0x2000
20009590:	9588                	.2byte	0x9588
20009592:	2000                	.2byte	0x2000
20009594:	9588                	.2byte	0x9588
20009596:	2000                	.2byte	0x2000
20009598:	9590                	.2byte	0x9590
2000959a:	2000                	.2byte	0x2000
2000959c:	9590                	.2byte	0x9590
2000959e:	2000                	.2byte	0x2000
200095a0:	9598                	.2byte	0x9598
200095a2:	2000                	.2byte	0x2000
200095a4:	9598                	.2byte	0x9598
200095a6:	2000                	.2byte	0x2000
200095a8:	95a0                	.2byte	0x95a0
200095aa:	2000                	.2byte	0x2000
200095ac:	95a0                	.2byte	0x95a0
200095ae:	2000                	.2byte	0x2000
200095b0:	95a8                	.2byte	0x95a8
200095b2:	2000                	.2byte	0x2000
200095b4:	95a8                	.2byte	0x95a8
200095b6:	2000                	.2byte	0x2000
200095b8:	95b0                	.2byte	0x95b0
200095ba:	2000                	.2byte	0x2000
200095bc:	95b0                	.2byte	0x95b0
200095be:	2000                	.2byte	0x2000
200095c0:	95b8                	.2byte	0x95b8
200095c2:	2000                	.2byte	0x2000
200095c4:	95b8                	.2byte	0x95b8
200095c6:	2000                	.2byte	0x2000
200095c8:	95c0                	.2byte	0x95c0
200095ca:	2000                	.2byte	0x2000
200095cc:	95c0                	.2byte	0x95c0
200095ce:	2000                	.2byte	0x2000
200095d0:	95c8                	.2byte	0x95c8
200095d2:	2000                	.2byte	0x2000
200095d4:	95c8                	.2byte	0x95c8
200095d6:	2000                	.2byte	0x2000
200095d8:	95d0                	.2byte	0x95d0
200095da:	2000                	.2byte	0x2000
200095dc:	95d0                	.2byte	0x95d0
200095de:	2000                	.2byte	0x2000
200095e0:	95d8                	.2byte	0x95d8
200095e2:	2000                	.2byte	0x2000
200095e4:	95d8                	.2byte	0x95d8
200095e6:	2000                	.2byte	0x2000
200095e8:	95e0                	.2byte	0x95e0
200095ea:	2000                	.2byte	0x2000
200095ec:	95e0                	.2byte	0x95e0
200095ee:	2000                	.2byte	0x2000
200095f0:	95e8                	.2byte	0x95e8
200095f2:	2000                	.2byte	0x2000
200095f4:	95e8                	.2byte	0x95e8
200095f6:	2000                	.2byte	0x2000
200095f8:	95f0                	.2byte	0x95f0
200095fa:	2000                	.2byte	0x2000
200095fc:	95f0                	.2byte	0x95f0
200095fe:	2000                	.2byte	0x2000
20009600:	95f8                	.2byte	0x95f8
20009602:	2000                	.2byte	0x2000
20009604:	95f8                	.2byte	0x95f8
20009606:	2000                	.2byte	0x2000
20009608:	9600                	.2byte	0x9600
2000960a:	2000                	.2byte	0x2000
2000960c:	9600                	.2byte	0x9600
2000960e:	2000                	.2byte	0x2000
20009610:	9608                	.2byte	0x9608
20009612:	2000                	.2byte	0x2000
20009614:	9608                	.2byte	0x9608
20009616:	2000                	.2byte	0x2000
20009618:	9610                	.2byte	0x9610
2000961a:	2000                	.2byte	0x2000
2000961c:	9610                	.2byte	0x9610
2000961e:	2000                	.2byte	0x2000
20009620:	9618                	.2byte	0x9618
20009622:	2000                	.2byte	0x2000
20009624:	9618                	.2byte	0x9618
20009626:	2000                	.2byte	0x2000
20009628:	9620                	.2byte	0x9620
2000962a:	2000                	.2byte	0x2000
2000962c:	9620                	.2byte	0x9620
2000962e:	2000                	.2byte	0x2000
20009630:	9628                	.2byte	0x9628
20009632:	2000                	.2byte	0x2000
20009634:	9628                	.2byte	0x9628
20009636:	2000                	.2byte	0x2000
20009638:	9630                	.2byte	0x9630
2000963a:	2000                	.2byte	0x2000
2000963c:	9630                	.2byte	0x9630
2000963e:	2000                	.2byte	0x2000
20009640:	9638                	.2byte	0x9638
20009642:	2000                	.2byte	0x2000
20009644:	9638                	.2byte	0x9638
20009646:	2000                	.2byte	0x2000
20009648:	9640                	.2byte	0x9640
2000964a:	2000                	.2byte	0x2000
2000964c:	9640                	.2byte	0x9640
2000964e:	2000                	.2byte	0x2000
20009650:	9648                	.2byte	0x9648
20009652:	2000                	.2byte	0x2000
20009654:	9648                	.2byte	0x9648
20009656:	2000                	.2byte	0x2000
20009658:	9650                	.2byte	0x9650
2000965a:	2000                	.2byte	0x2000
2000965c:	9650                	.2byte	0x9650
2000965e:	2000                	.2byte	0x2000
20009660:	9658                	.2byte	0x9658
20009662:	2000                	.2byte	0x2000
20009664:	9658                	.2byte	0x9658
20009666:	2000                	.2byte	0x2000
20009668:	9660                	.2byte	0x9660
2000966a:	2000                	.2byte	0x2000
2000966c:	9660                	.2byte	0x9660
2000966e:	2000                	.2byte	0x2000
20009670:	9668                	.2byte	0x9668
20009672:	2000                	.2byte	0x2000
20009674:	9668                	.2byte	0x9668
20009676:	2000                	.2byte	0x2000
20009678:	9670                	.2byte	0x9670
2000967a:	2000                	.2byte	0x2000
2000967c:	9670                	.2byte	0x9670
2000967e:	2000                	.2byte	0x2000
20009680:	9678                	.2byte	0x9678
20009682:	2000                	.2byte	0x2000
20009684:	9678                	.2byte	0x9678
20009686:	2000                	.2byte	0x2000
20009688:	9680                	.2byte	0x9680
2000968a:	2000                	.2byte	0x2000
2000968c:	9680                	.2byte	0x9680
2000968e:	2000                	.2byte	0x2000
20009690:	9688                	.2byte	0x9688
20009692:	2000                	.2byte	0x2000
20009694:	9688                	.2byte	0x9688
20009696:	2000                	.2byte	0x2000
20009698:	9690                	.2byte	0x9690
2000969a:	2000                	.2byte	0x2000
2000969c:	9690                	.2byte	0x9690
2000969e:	2000                	.2byte	0x2000
200096a0:	9698                	.2byte	0x9698
200096a2:	2000                	.2byte	0x2000
200096a4:	9698                	.2byte	0x9698
200096a6:	2000                	.2byte	0x2000
200096a8:	96a0                	.2byte	0x96a0
200096aa:	2000                	.2byte	0x2000
200096ac:	96a0                	.2byte	0x96a0
200096ae:	2000                	.2byte	0x2000
200096b0:	96a8                	.2byte	0x96a8
200096b2:	2000                	.2byte	0x2000
200096b4:	96a8                	.2byte	0x96a8
200096b6:	2000                	.2byte	0x2000

Disassembly of section .got:

200096b8 <_GLOBAL_OFFSET_TABLE_>:
200096b8:	0000                	.2byte	0x0
200096ba:	0000                	.2byte	0x0
200096bc:	9f30                	.2byte	0x9f30
200096be:	2000                	.2byte	0x2000
200096c0:	0980                	.2byte	0x980
200096c2:	2000                	.2byte	0x2000
200096c4:	9754                	.2byte	0x9754
200096c6:	2000                	.2byte	0x2000
200096c8:	8c6c                	.2byte	0x8c6c
200096ca:	2000                	.2byte	0x2000
200096cc:	8c4c                	.2byte	0x8c4c
200096ce:	2000                	.2byte	0x2000
200096d0:	8e6c                	.2byte	0x8e6c
200096d2:	2000                	.2byte	0x2000
200096d4:	8c5c                	.2byte	0x8c5c
200096d6:	2000                	.2byte	0x2000
200096d8:	8c64                	.2byte	0x8c64
200096da:	2000                	.2byte	0x2000
200096dc:	8d6c                	.2byte	0x8d6c
200096de:	2000                	.2byte	0x2000
200096e0:	5048                	.2byte	0x5048
200096e2:	2000                	.2byte	0x2000
200096e4:	8c60                	.2byte	0x8c60
200096e6:	2000                	.2byte	0x2000
200096e8:	8e78                	.2byte	0x8e78
200096ea:	2000                	.2byte	0x2000
200096ec:	8e70                	.2byte	0x8e70
200096ee:	2000                	.2byte	0x2000
200096f0:	9740                	.2byte	0x9740
200096f2:	2000                	.2byte	0x2000
200096f4:	8c54                	.2byte	0x8c54
200096f6:	2000                	.2byte	0x2000
200096f8:	8c58                	.2byte	0x8c58
200096fa:	2000                	.2byte	0x2000
200096fc:	5034                	.2byte	0x5034
200096fe:	2000                	.2byte	0x2000
20009700:	8c48                	.2byte	0x8c48
20009702:	2000                	.2byte	0x2000
20009704:	a254                	.2byte	0xa254
20009706:	2000                	.2byte	0x2000
20009708:	8c68                	.2byte	0x8c68
2000970a:	2000                	.2byte	0x2000
2000970c:	8c44                	.2byte	0x8c44
2000970e:	2000                	.2byte	0x2000
20009710:	9954                	.2byte	0x9954
20009712:	2000                	.2byte	0x2000
20009714:	89f0                	.2byte	0x89f0
20009716:	2000                	.2byte	0x2000
20009718:	0750                	.2byte	0x750
2000971a:	2000                	.2byte	0x2000
2000971c:	8bf4                	.2byte	0x8bf4
2000971e:	2000                	.2byte	0x2000
20009720:	9b54                	.2byte	0x9b54
20009722:	2000                	.2byte	0x2000
20009724:	8e74                	.2byte	0x8e74
20009726:	2000                	.2byte	0x2000

Disassembly of section .got.plt:

20009728 <.got.plt>:
20009728:	ffff                	.2byte	0xffff
2000972a:	ffff                	.2byte	0xffff
2000972c:	0000                	.2byte	0x0
	...

Disassembly of section .sdata:

20009730 <_impure_ptr>:
20009730:	8e88                	.2byte	0x8e88
20009732:	2000                	.2byte	0x2000

20009734 <__malloc_sbrk_base>:
20009734:	ffff                	.2byte	0xffff
20009736:	ffff                	.2byte	0xffff

20009738 <__malloc_trim_threshold>:
20009738:	0000                	.2byte	0x0
2000973a:	0002                	.2byte	0x2

2000973c <_global_impure_ptr>:
2000973c:	8e88                	.2byte	0x8e88
2000973e:	2000                	.2byte	0x2000

Disassembly of section .sbss:

20009740 <__malloc_max_total_mem>:
20009740:	0000                	.2byte	0x0
	...

20009744 <__malloc_max_sbrked_mem>:
20009744:	0000                	.2byte	0x0
	...

20009748 <__malloc_top_pad>:
20009748:	0000                	.2byte	0x0
	...

2000974c <errno>:
2000974c:	0000                	.2byte	0x0
	...

Disassembly of section .bss:

20009750 <_ZZ16ProcessKeyEventsvE9uppercase>:
20009750:	0000                	.2byte	0x0
	...

20009754 <keymapprev>:
	...

20009954 <keymap>:
	...

20009b54 <Fs>:
	...

20009d8c <_ZL12mainloopdone>:
20009d8c:	0000                	.2byte	0x0
	...

20009d90 <_ZL16numdetectedharts>:
20009d90:	0000                	.2byte	0x0
	...

20009d94 <_ZL9havedrive>:
20009d94:	0000                	.2byte	0x0
	...

20009d98 <_ZL6cmdlen>:
20009d98:	0000                	.2byte	0x0
	...

20009d9c <_ZL8filename>:
	...

20009e1c <_ZL11commandline>:
	...

2000a01c <_ZL6LfnBuf>:
	...

2000a21c <_ZL7CurrVol>:
	...

2000a21e <_ZL4Fsid>:
	...

2000a220 <_ZL5FatFs>:
	...

2000a22c <__malloc_current_mallinfo>:
	...

Disassembly of section .comment:

00000000 <.comment>:
   0:	3a434347          	.4byte	0x3a434347
   4:	2820                	.2byte	0x2820
   6:	61653167          	.4byte	0x61653167
   a:	3739                	.2byte	0x3739
   c:	6538                	.2byte	0x6538
   e:	36363033          	.4byte	0x36363033
  12:	2029                	.2byte	0x2029
  14:	3231                	.2byte	0x3231
  16:	312e                	.2byte	0x312e
  18:	302e                	.2byte	0x302e
  1a:	4700                	.2byte	0x4700
  1c:	203a4343          	.4byte	0x203a4343
  20:	4728                	.2byte	0x4728
  22:	554e                	.2byte	0x554e
  24:	2029                	.2byte	0x2029
  26:	3231                	.2byte	0x3231
  28:	312e                	.2byte	0x312e
  2a:	302e                	.2byte	0x302e
	...

Disassembly of section .riscv.attributes:

00000000 <.riscv.attributes>:
   0:	2441                	.2byte	0x2441
   2:	0000                	.2byte	0x0
   4:	7200                	.2byte	0x7200
   6:	7369                	.2byte	0x7369
   8:	01007663          	bgeu	zero,a6,14 <_start-0x1fffffec>
   c:	001a                	.2byte	0x1a
   e:	0000                	.2byte	0x0
  10:	1004                	.2byte	0x1004
  12:	7205                	.2byte	0x7205
  14:	3376                	.2byte	0x3376
  16:	6932                	.2byte	0x6932
  18:	7032                	.2byte	0x7032
  1a:	5f30                	.2byte	0x5f30
  1c:	326d                	.2byte	0x326d
  1e:	3070                	.2byte	0x3070
  20:	0800                	.2byte	0x800
  22:	0a01                	.2byte	0xa01
  24:	0b              	Address 0x0000000000000024 is out of bounds.

