
./BOOT.elf:     file format elf32-littleriscv
./BOOT.elf
architecture: riscv:rv32, flags 0x00000112:
EXEC_P, HAS_SYMS, D_PAGED
start address 0x20000000

Program Header:
    LOAD off    0x00001000 vaddr 0x20000000 paddr 0x20000000 align 2**12
         filesz 0x0000a59c memsz 0x0000f635 flags rwx

Sections:
Idx Name          Size      VMA       LMA       File off  Algn
  0 .boot         00000088  20000000  20000000  00001000  2**2
                  CONTENTS, ALLOC, LOAD, READONLY, CODE
  1 .text         000074e0  20000090  20000090  00001090  2**4
                  CONTENTS, ALLOC, LOAD, READONLY, CODE
  2 .rodata       00001298  20007570  20007570  00008570  2**2
                  CONTENTS, ALLOC, LOAD, READONLY, DATA
  3 .srodata      00000004  20008808  20008808  00009808  2**2
                  CONTENTS, ALLOC, LOAD, READONLY, DATA
  4 .eh_frame     00001038  2000880c  2000880c  0000980c  2**2
                  CONTENTS, ALLOC, LOAD, READONLY, DATA
  5 .data         00000cc8  20009848  20009848  0000a848  2**3
                  CONTENTS, ALLOC, LOAD, DATA
  6 .got          00000078  2000a510  2000a510  0000b510  2**2
                  CONTENTS, ALLOC, LOAD, DATA
  7 .got.plt      00000008  2000a588  2000a588  0000b588  2**2
                  CONTENTS, ALLOC, LOAD, DATA
  8 .sdata        0000000c  2000a590  2000a590  0000b590  2**2
                  CONTENTS, ALLOC, LOAD, DATA
  9 .sbss         00000010  2000a59c  2000a59c  0000b59c  2**2
                  ALLOC
 10 .bss          00005089  2000a5ac  2000a5ac  0000b59c  2**2
                  ALLOC
 11 .comment      00000012  00000000  00000000  0000b59c  2**0
                  CONTENTS, READONLY
 12 .riscv.attributes 00000025  00000000  00000000  0000b5ae  2**0
                  CONTENTS, READONLY
SYMBOL TABLE:
20000000 l    d  .boot	00000000 .boot
20000090 l    d  .text	00000000 .text
20007570 l    d  .rodata	00000000 .rodata
20008808 l    d  .srodata	00000000 .srodata
2000880c l    d  .eh_frame	00000000 .eh_frame
20009848 l    d  .data	00000000 .data
2000a510 l    d  .got	00000000 .got
2000a588 l    d  .got.plt	00000000 .got.plt
2000a590 l    d  .sdata	00000000 .sdata
2000a59c l    d  .sbss	00000000 .sbss
2000a5ac l    d  .bss	00000000 .bss
00000000 l    d  .comment	00000000 .comment
00000000 l    d  .riscv.attributes	00000000 .riscv.attributes
00000000 l    df *ABS*	00000000 rom.cpp
20000074 l       .boot	00000000 workerhartstart
2000005c l       .boot	00000000 noatexitfound
2000a80c l     O .bss	00000200 _ZL11commandline
2000aa0c l     O .bss	00000004 _ZL12mainloopdone
2000aa10 l     O .bss	00000004 _ZL16numdetectedharts
2000aa14 l     O .bss	00000004 _ZL6cmdlen
2000aa18 l     O .bss	00000080 _ZL8filename
2000aa98 l     O .bss	00000004 _ZL9havedrive
2000aa9c l     O .bss	00000004 _ZZ16ProcessKeyEventsvE9uppercase
2000a078 l     O .data	00000200 _ZL10currentdir
00000000 l    df *ABS*	00000000 atexit.c
00000000 l    df *ABS*	00000000 errno.c
00000000 l    df *ABS*	00000000 fini.c
00000000 l    df *ABS*	00000000 init.c
00000000 l    df *ABS*	00000000 malloc.c
00000000 l    df *ABS*	00000000 mallocr.c
00000000 l    df *ABS*	00000000 memcmp.c
00000000 l    df *ABS*	00000000 memcpy.c
00000000 l    df *ABS*	00000000 mlock.c
00000000 l    df *ABS*	00000000 sbrkr.c
00000000 l    df *ABS*	00000000 strcat.c
00000000 l    df *ABS*	00000000 strchr.c
00000000 l    df *ABS*	00000000 strcpy.c
00000000 l    df *ABS*	00000000 strstr.c
20001050 l     F .text	0000040c two_way_long_needle
00000000 l    df *ABS*	00000000 strtok.c
00000000 l    df *ABS*	00000000 strtok_r.c
00000000 l    df *ABS*	00000000 __atexit.c
00000000 l    df *ABS*	00000000 mallocr.c
00000000 l    df *ABS*	00000000 strlen.c
00000000 l    df *ABS*	00000000 strnlen.c
00000000 l    df *ABS*	00000000 libgcc2.c
00000000 l    df *ABS*	00000000 uart.c
00000000 l    df *ABS*	00000000 core.c
2000a2e0 l     O .data	00000004 _ZL10heap_start
00000000 l    df *ABS*	00000000 leds.c
00000000 l    df *ABS*	00000000 ringbuffer.c
00000000 l    df *ABS*	00000000 ps2.c
00000000 l    df *ABS*	00000000 sdcard.c
00000000 l    df *ABS*	00000000 ff.c
20004230 l     F .text	0000002c _ZL8ld_dwordPKh
2000425c l     F .text	0000002c _ZL9clst2sectP5FATFSm
20004288 l     F .text	0000003c _ZL10clmt_clustP3FILm
200042c4 l     F .text	00000030 _ZL7sum_sfnPKh
200042f4 l     F .text	000000d8 _ZL12get_ldnumberPPKc
200043cc l     F .text	00000070 _ZL8validateP7FFOBJIDPP5FATFS
2000443c l     F .text	0000009c _ZL11sync_windowP5FATFS
200044d8 l     F .text	00000068 _ZL11move_windowP5FATFSm
20004540 l     F .text	0000015c _ZL8check_fsP5FATFSm
2000469c l     F .text	000001f0 _ZL7put_fatP5FATFSmm
2000488c l     F .text	000003dc _ZL12mount_volumePPKcPP5FATFSh
20004c68 l     F .text	00000038 _ZL8ld_clustP5FATFSPKh.isra.0
20004ca0 l     F .text	00000150 _ZL7get_fatP7FFOBJIDm.isra.0
20004df0 l     F .text	0000019c _ZL12create_chainP7FFOBJIDm.isra.0
20004f8c l     F .text	000001b0 _ZL8dir_nextP3DIRi
2000513c l     F .text	00000128 _ZL7dir_sdiP3DIRm
20005264 l     F .text	00000268 _ZL8dir_findP3DIR
200054cc l     F .text	0000053c _ZL11follow_pathP3DIRPKc
2000f424 l     O .bss	00000002 _ZL4Fsid
2000f428 l     O .bss	0000000c _ZL5FatFs
2000f434 l     O .bss	00000200 _ZL6LfnBuf
2000f634 l     O .bss	00000001 _ZL7CurrVol
2000a504 l     O .data	0000000c _ZL9VolumeStr
200083a4 l     O .rodata	00000080 _ZL5ExCvt
20008424 l     O .rodata	0000000d _ZL6LfnOfs
00000000 l    df *ABS*	00000000 ffunicode.c
20008458 l     O .rodata	00000100 _ZL5uc437
20008558 l     O .rodata	000001f2 _ZZ11ff_wtoupperE4cvt1
2000874c l     O .rodata	000000bc _ZZ11ff_wtoupperE4cvt2
00000000 l    df *ABS*	00000000 diskio.c
00000000 l    df *ABS*	00000000 libgcc2.c
00000000 l    df *ABS*	00000000 impure.c
20009848 l     O .data	00000428 impure_data
00000000 l    df *ABS*	00000000 task.c
00000000 l    df *ABS*	00000000 console.c
00000000 l    df *ABS*	00000000 gpu.c
00000000 l    df *ABS*	00000000 debugger.c
00000000 l    df *ABS*	00000000 buttons.c
00000000 l    df *ABS*	00000000 memtest.c
00000000 l    df *ABS*	00000000 nanojpeg.c
00000000 l    df *ABS*	00000000 micromod.c
00000000 l    df *ABS*	00000000 spi.c
20008808 l       .srodata	00000000 __fini_array_end
20008808 l       .srodata	00000000 __fini_array_start
20008808 l       .srodata	00000000 __init_array_end
20008808 l       .srodata	00000000 __preinit_array_end
2000a510 l     O .got	00000000 _GLOBAL_OFFSET_TABLE_
20008808 l       .srodata	00000000 __init_array_start
20008808 l       .srodata	00000000 __preinit_array_start
20003924 g     F .text	00000098 _Z14RingBufferReadPhPvm
20002ad4 g     F .text	0000000c _Z13ClearTerminalv
20000fa0 g     F .text	000000b0 strcpy
200017a4 g     F .text	00000008 strtok_r
2000aea0 g     O .bss	00004580 s_filehandles
2000ad90 g       *ABS*	00000000 __global_pointer$
20009850 g       .data	00000000 _fdata
20002820 g     F .text	0000012c _Z32worker_interrupt_service_routinev
20002260 g     F .text	00000150 _Z11HandleTimerv
20002740 g     F .text	000000d8 _Z13HandleHARTIRQm
20003294 g     F .text	00000024 _Z9UARTFlushv
20003910 g     F .text	00000014 _Z11SetLEDStatem
20000bf8 g     F .text	00000004 __malloc_unlock
20003ec0 g     F .text	00000124 _Z17SDReadSingleBlockmPhS_
20002ffc g     F .text	00000160 _Z16ProcessKeyEventsv
2000aca0 g     O .bss	00000200 keymapprev
2000170c g     F .text	00000098 __strtok_r
2000a3fc g     O .data	00000100 scantoasciitable_uppercase
200000a4 g     F .text	0000000c __errno
20003a50 g     F .text	00000094 _Z12ScanKeyboardPt
20003614 g     F .text	00000014 _Z17E32SetTimeComparey
2000a5a8 g     O .sbss	00000004 errno
20008808 g       .rodata	00000000 _etext
2000ad90 g       .sdata	00000000 _gp
2000a2cc g     O .data	00000004 IO_UARTRX
200073b4 g     F .text	000000f0 ff_wtoupper
2000a2f8 g     O .data	00000004 PS2KEYBOARDDATAAVAIL
200032f0 g     F .text	00000014 _Z11UARTPutCharc
20000088 g       .boot	00000000 _boot
200021d4 g     F .text	0000008c _Z13HandleButtonsv
200009f0 g     F .text	00000128 memcpy
20003370 g     F .text	00000068 _Z16UARTWriteHexByteh
200074b0 g     F .text	00000030 disk_initialize
2000a2e4 g     O .data	00000004 LEDSTATE
20002190 g     F .text	00000044 _Z10HandleUARTv
20003b04 g     F .text	0000001c _Z7SPITxRxh
200001a8 g     F .text	00000010 malloc
20003670 g     F .text	00000024 _fstat
20006960 g     F .text	000000a0 f_chdir
2000a5ac g       .bss	00000000 _bss_start
2000a5a4 g     O .sbss	00000004 __malloc_top_pad
200074a4 g     F .text	0000000c disk_status
2000f420 g     O .bss	00000004 s_numhandles
20000bfc g     F .text	00000060 _sbrk_r
20004084 g     F .text	000000a8 _Z20SDReadMultipleBlocksPhmm
20006e48 g     F .text	00000030 f_closedir
20007560 g     F .text	00000010 disk_ioctl
2000a5a0 g     O .sbss	00000004 __malloc_max_sbrked_mem
20008808 g     O .srodata	00000004 _global_impure_ptr
2000010c g     F .text	0000009c __libc_init_array
200035d0 g     F .text	00000024 _Z9ClockToMsy
20001d60 g     F .text	00000430 .hidden __udivdi3
2000a2f0 g     O .data	00000004 m_writeOffset
20003754 g     F .text	00000078 _open
200038d4 g     F .text	0000003c _sbrk
2000327c g     F .text	00000018 _Z11UARTHasDatav
2000a2fc g     O .data	00000100 scantoasciitable_lowercase
20001d28 g     F .text	00000038 strnlen
2000f635 g       .bss	00000000 _bss_end
20007318 g     F .text	00000064 ff_uni2oem
200000b0 g     F .text	0000005c __libc_fini_array
20003c10 g     F .text	0000003c _Z11SDResponse1v
2000a2e8 g     O .data	00000004 IO_SPIRXTX
20000c5c g     F .text	00000088 strcat
20006928 g     F .text	00000038 f_chdrive
20003628 g     F .text	00000024 _chdir
2000a4fc g     O .data	00000004 BUTTONCHANGE
20002d44 g     F .text	000000fc _Z13RunExecutableiPKcb
20001988 g     F .text	00000314 _free_r
20003cf0 g     F .text	0000005c _Z6SDIdlev
200068ec g     F .text	0000003c f_close
20000088 g       .boot	00000000 _ftext
2000a594 g     O .sdata	00000004 __malloc_sbrk_base
20000000 g     F .boot	00000088 _start
200038b0 g     F .text	00000024 _wait
2000145c g     F .text	0000029c strstr
200036c4 g     F .text	0000006c _lseek
200034e0 g     F .text	000000dc _Z16UARTWriteDecimall
200017ac g     F .text	0000009c __register_exitproc
200061b0 g     F .text	00000260 f_read
200026f0 g     F .text	00000050 _Z10InstallISRv
20006e78 g     F .text	000004a0 f_readdir
2000a5ac g     O .bss	00000028 __malloc_current_mallinfo
20003ea0 g     F .text	00000020 _Z17SDSetBlockSize512v
200016f8 g     F .text	00000014 strtok
2000a2f4 g     O .data	00000004 PS2KEYBOARDDATA
20000978 g     F .text	00000078 memcmp
20009c70 g     O .data	00000408 __malloc_av_
20000bf4 g     F .text	00000004 __malloc_lock
20002978 g     F .text	0000015c _Z9ListFilesPKc
20000b18 g     F .text	000000dc memset
20003170 g     F .text	0000010c main
2000a59c g     O .sbss	00000004 __malloc_max_total_mem
20003304 g     F .text	0000006c _Z9UARTWritePKc
20002e40 g     F .text	000001bc _Z13ParseCommandsv
2000a2d8 g     O .data	00000004 HARTIRQ
200066d0 g     F .text	0000021c f_sync
20003ae4 g     F .text	00000020 _Z11ScanToASCIIhh
20003dd8 g     F .text	000000c8 _Z10SDCardInitv
200001c8 g     F .text	000007b0 _malloc_r
20005a08 g     F .text	00000088 f_mount
20003fe4 g     F .text	000000a0 _Z18SDWriteSingleBlockmPhS_
20002958 g     F .text	00000020 _Z16InstallWorkerISRv
20006d88 g     F .text	000000c0 f_opendir
20001848 g     F .text	00000140 _malloc_trim_r
200023b0 g     F .text	000000d4 _Z14HandleKeyboardv
2000737c g     F .text	00000038 ff_oem2uni
2000a2dc g     O .data	00000004 HARTMAILBOX
20000e24 g     F .text	0000017c strcmp
200037cc g     F .text	00000024 _openat
20006a00 g     F .text	00000388 f_lseek
20007570 g     O .rodata	00000100 .hidden __clz_tab
200041d4 g     F .text	0000005c _Z13SDCardStartupv
20003b20 g     F .text	000000f0 _Z5SDCmd13SDCardCommandm
20000090 g     F .text	00000014 atexit
2000a2d4 g     O .data	00000004 IO_UARTTX
20003d4c g     F .text	0000008c _Z19SDCheckVoltageRangev
2000a590 g     O .sdata	00000004 _impure_ptr
20003730 g     F .text	00000024 _lstat
20003c4c g     F .text	000000a4 _Z11SDResponse7Pm
2000f635 g       .bss	00000000 __BSS_END__$
2000364c g     F .text	00000024 _getcwd
20003830 g     F .text	00000080 _write
2000a510 g       .data	00000000 _edata
2000f638 g       .bss	00000000 _end
2000a2ec g     O .data	00000004 m_readOffset
20006410 g     F .text	000002c0 f_write
2000a598 g     O .sdata	00000004 __malloc_trim_threshold
20005a90 g     F .text	00000720 f_open
20007520 g     F .text	00000040 disk_write
20002ae0 g     F .text	00000264 _Z29ParseELFHeaderAndLoadSectionsP3FILP16SElfFileHeader32Rm
200032b8 g     F .text	00000038 _Z8UARTReadv
200037f0 g     F .text	00000040 _read
2000a2d0 g     O .data	00000004 IO_UARTStatus
20000088 g     F .boot	00000000 _exit
200039bc g     F .text	00000094 _Z15RingBufferWritePhPKvm
200035bc g     F .text	00000014 _Z11E32ReadTimev
2000aaa0 g     O .bss	00000200 keymap
20001c9c g     F .text	0000008c strlen
200074e0 g     F .text	00000040 disk_read
2000a278 g     O .data	00000004 keyboardringbuffer
200025f0 g     F .text	00000100 _Z25interrupt_service_routinev
20000ce4 g     F .text	00000140 strchr
2000a27c g     O .data	00000050 FRtoString
2000412c g     F .text	000000a8 _Z21SDWriteMultipleBlocksPKhmm
2000a5d4 g     O .bss	00000238 Fs
20002484 g     F .text	00000168 _Z10HandleTrapmmmm
200035f4 g     F .text	00000020 _Z9ClockToUsy
200033d8 g     F .text	00000108 _Z12UARTWriteHexm
2000a5a0 g       .sbss	00000000 _fbss
2000a500 g     O .data	00000004 BUTTONCHANGEAVAIL
2000315c g     F .text	00000014 _Z10workermainv
20003694 g     F .text	00000030 _close
200001b8 g     F .text	00000010 free



Disassembly of section .boot:

20000000 <_start>:
20000000:	0000a197          	auipc	gp,0xa
20000004:	5181a183          	lw	gp,1304(gp) # 2000a518 <_GLOBAL_OFFSET_TABLE_+0x8>
20000008:	f14024f3          	csrr	s1,mhartid
2000000c:	00c49493          	slli	s1,s1,0xc
20000010:	1fff0937          	lui	s2,0x1fff0
20000014:	40990933          	sub	s2,s2,s1
20000018:	00090113          	mv	sp,s2
2000001c:	00010413          	mv	s0,sp
20000020:	04049a63          	bnez	s1,20000074 <workerhartstart>
20000024:	0000a517          	auipc	a0,0xa
20000028:	52c52503          	lw	a0,1324(a0) # 2000a550 <_GLOBAL_OFFSET_TABLE_+0x40>
2000002c:	0000a617          	auipc	a2,0xa
20000030:	53862603          	lw	a2,1336(a2) # 2000a564 <_GLOBAL_OFFSET_TABLE_+0x54>
20000034:	40a60633          	sub	a2,a2,a0
20000038:	00000593          	li	a1,0
2000003c:	2dd000ef          	jal	ra,20000b18 <memset>
20000040:	0000a517          	auipc	a0,0xa
20000044:	51c52503          	lw	a0,1308(a0) # 2000a55c <_GLOBAL_OFFSET_TABLE_+0x4c>
20000048:	00050a63          	beqz	a0,2000005c <noatexitfound>
2000004c:	00001517          	auipc	a0,0x1
20000050:	0000a517          	auipc	a0,0xa
20000054:	4f052503          	lw	a0,1264(a0) # 2000a540 <_GLOBAL_OFFSET_TABLE_+0x30>
20000058:	038000ef          	jal	ra,20000090 <atexit>

2000005c <noatexitfound>:
2000005c:	0b0000ef          	jal	ra,2000010c <__libc_init_array>
20000060:	00012503          	lw	a0,0(sp)
20000064:	00410593          	addi	a1,sp,4
20000068:	00000613          	li	a2,0
2000006c:	1040306f          	j	20003170 <main>
20000070:	00100073          	ebreak

20000074 <workerhartstart>:
20000074:	00012503          	lw	a0,0(sp)
20000078:	00410593          	addi	a1,sp,4
2000007c:	00000613          	li	a2,0
20000080:	0dc0306f          	j	2000315c <_Z10workermainv>
20000084:	00100073          	ebreak

Disassembly of section .text:

20000090 <atexit>:
20000090:	00050593          	mv	a1,a0
20000094:	00000693          	li	a3,0
20000098:	00000613          	li	a2,0
2000009c:	00000513          	li	a0,0
200000a0:	70c0106f          	j	200017ac <__register_exitproc>

200000a4 <__errno>:
200000a4:	2000a7b7          	lui	a5,0x2000a
200000a8:	5907a503          	lw	a0,1424(a5) # 2000a590 <_impure_ptr>
200000ac:	00008067          	ret

200000b0 <__libc_fini_array>:
200000b0:	ff010113          	addi	sp,sp,-16
200000b4:	00812423          	sw	s0,8(sp)
200000b8:	200097b7          	lui	a5,0x20009
200000bc:	20009437          	lui	s0,0x20009
200000c0:	80878793          	addi	a5,a5,-2040 # 20008808 <_global_impure_ptr>
200000c4:	80840413          	addi	s0,s0,-2040 # 20008808 <_global_impure_ptr>
200000c8:	40f40433          	sub	s0,s0,a5
200000cc:	00912223          	sw	s1,4(sp)
200000d0:	00112623          	sw	ra,12(sp)
200000d4:	40245493          	srai	s1,s0,0x2
200000d8:	02048063          	beqz	s1,200000f8 <__libc_fini_array+0x48>
200000dc:	ffc40413          	addi	s0,s0,-4
200000e0:	00f40433          	add	s0,s0,a5
200000e4:	00042783          	lw	a5,0(s0)
200000e8:	fff48493          	addi	s1,s1,-1
200000ec:	ffc40413          	addi	s0,s0,-4
200000f0:	000780e7          	jalr	a5
200000f4:	fe0498e3          	bnez	s1,200000e4 <__libc_fini_array+0x34>
200000f8:	00c12083          	lw	ra,12(sp)
200000fc:	00812403          	lw	s0,8(sp)
20000100:	00412483          	lw	s1,4(sp)
20000104:	01010113          	addi	sp,sp,16
20000108:	00008067          	ret

2000010c <__libc_init_array>:
2000010c:	ff010113          	addi	sp,sp,-16
20000110:	00812423          	sw	s0,8(sp)
20000114:	01212023          	sw	s2,0(sp)
20000118:	20009437          	lui	s0,0x20009
2000011c:	20009937          	lui	s2,0x20009
20000120:	80840793          	addi	a5,s0,-2040 # 20008808 <_global_impure_ptr>
20000124:	80890913          	addi	s2,s2,-2040 # 20008808 <_global_impure_ptr>
20000128:	40f90933          	sub	s2,s2,a5
2000012c:	00112623          	sw	ra,12(sp)
20000130:	00912223          	sw	s1,4(sp)
20000134:	40295913          	srai	s2,s2,0x2
20000138:	02090063          	beqz	s2,20000158 <__libc_init_array+0x4c>
2000013c:	80840413          	addi	s0,s0,-2040
20000140:	00000493          	li	s1,0
20000144:	00042783          	lw	a5,0(s0)
20000148:	00148493          	addi	s1,s1,1
2000014c:	00440413          	addi	s0,s0,4
20000150:	000780e7          	jalr	a5
20000154:	fe9918e3          	bne	s2,s1,20000144 <__libc_init_array+0x38>
20000158:	20009437          	lui	s0,0x20009
2000015c:	20009937          	lui	s2,0x20009
20000160:	80840793          	addi	a5,s0,-2040 # 20008808 <_global_impure_ptr>
20000164:	80890913          	addi	s2,s2,-2040 # 20008808 <_global_impure_ptr>
20000168:	40f90933          	sub	s2,s2,a5
2000016c:	40295913          	srai	s2,s2,0x2
20000170:	02090063          	beqz	s2,20000190 <__libc_init_array+0x84>
20000174:	80840413          	addi	s0,s0,-2040
20000178:	00000493          	li	s1,0
2000017c:	00042783          	lw	a5,0(s0)
20000180:	00148493          	addi	s1,s1,1
20000184:	00440413          	addi	s0,s0,4
20000188:	000780e7          	jalr	a5
2000018c:	fe9918e3          	bne	s2,s1,2000017c <__libc_init_array+0x70>
20000190:	00c12083          	lw	ra,12(sp)
20000194:	00812403          	lw	s0,8(sp)
20000198:	00412483          	lw	s1,4(sp)
2000019c:	00012903          	lw	s2,0(sp)
200001a0:	01010113          	addi	sp,sp,16
200001a4:	00008067          	ret

200001a8 <malloc>:
200001a8:	2000a7b7          	lui	a5,0x2000a
200001ac:	00050593          	mv	a1,a0
200001b0:	5907a503          	lw	a0,1424(a5) # 2000a590 <_impure_ptr>
200001b4:	0140006f          	j	200001c8 <_malloc_r>

200001b8 <free>:
200001b8:	2000a7b7          	lui	a5,0x2000a
200001bc:	00050593          	mv	a1,a0
200001c0:	5907a503          	lw	a0,1424(a5) # 2000a590 <_impure_ptr>
200001c4:	7c40106f          	j	20001988 <_free_r>

200001c8 <_malloc_r>:
200001c8:	fd010113          	addi	sp,sp,-48
200001cc:	01312e23          	sw	s3,28(sp)
200001d0:	02112623          	sw	ra,44(sp)
200001d4:	02812423          	sw	s0,40(sp)
200001d8:	02912223          	sw	s1,36(sp)
200001dc:	03212023          	sw	s2,32(sp)
200001e0:	01412c23          	sw	s4,24(sp)
200001e4:	01512a23          	sw	s5,20(sp)
200001e8:	01612823          	sw	s6,16(sp)
200001ec:	01712623          	sw	s7,12(sp)
200001f0:	01812423          	sw	s8,8(sp)
200001f4:	01912223          	sw	s9,4(sp)
200001f8:	00b58793          	addi	a5,a1,11
200001fc:	01600713          	li	a4,22
20000200:	00050993          	mv	s3,a0
20000204:	06f76663          	bltu	a4,a5,20000270 <_malloc_r+0xa8>
20000208:	01000793          	li	a5,16
2000020c:	1eb7e663          	bltu	a5,a1,200003f8 <_malloc_r+0x230>
20000210:	1e5000ef          	jal	ra,20000bf4 <__malloc_lock>
20000214:	01000493          	li	s1,16
20000218:	01800793          	li	a5,24
2000021c:	00200613          	li	a2,2
20000220:	2000a937          	lui	s2,0x2000a
20000224:	c7090913          	addi	s2,s2,-912 # 20009c70 <__malloc_av_>
20000228:	00f907b3          	add	a5,s2,a5
2000022c:	0047a403          	lw	s0,4(a5)
20000230:	ff878713          	addi	a4,a5,-8
20000234:	20e40a63          	beq	s0,a4,20000448 <_malloc_r+0x280>
20000238:	00442783          	lw	a5,4(s0)
2000023c:	00c42683          	lw	a3,12(s0)
20000240:	00842603          	lw	a2,8(s0)
20000244:	ffc7f793          	andi	a5,a5,-4
20000248:	00f407b3          	add	a5,s0,a5
2000024c:	0047a703          	lw	a4,4(a5)
20000250:	00d62623          	sw	a3,12(a2)
20000254:	00c6a423          	sw	a2,8(a3)
20000258:	00176713          	ori	a4,a4,1
2000025c:	00098513          	mv	a0,s3
20000260:	00e7a223          	sw	a4,4(a5)
20000264:	195000ef          	jal	ra,20000bf8 <__malloc_unlock>
20000268:	00840513          	addi	a0,s0,8
2000026c:	1980006f          	j	20000404 <_malloc_r+0x23c>
20000270:	ff87f493          	andi	s1,a5,-8
20000274:	1807c263          	bltz	a5,200003f8 <_malloc_r+0x230>
20000278:	18b4e063          	bltu	s1,a1,200003f8 <_malloc_r+0x230>
2000027c:	179000ef          	jal	ra,20000bf4 <__malloc_lock>
20000280:	1f700793          	li	a5,503
20000284:	4697f463          	bgeu	a5,s1,200006ec <_malloc_r+0x524>
20000288:	0094d793          	srli	a5,s1,0x9
2000028c:	1a078663          	beqz	a5,20000438 <_malloc_r+0x270>
20000290:	00400713          	li	a4,4
20000294:	3cf76a63          	bltu	a4,a5,20000668 <_malloc_r+0x4a0>
20000298:	0064d793          	srli	a5,s1,0x6
2000029c:	03978613          	addi	a2,a5,57
200002a0:	03878513          	addi	a0,a5,56
200002a4:	00361693          	slli	a3,a2,0x3
200002a8:	2000a937          	lui	s2,0x2000a
200002ac:	c7090913          	addi	s2,s2,-912 # 20009c70 <__malloc_av_>
200002b0:	00d906b3          	add	a3,s2,a3
200002b4:	0046a403          	lw	s0,4(a3)
200002b8:	ff868693          	addi	a3,a3,-8
200002bc:	02868663          	beq	a3,s0,200002e8 <_malloc_r+0x120>
200002c0:	00f00593          	li	a1,15
200002c4:	0100006f          	j	200002d4 <_malloc_r+0x10c>
200002c8:	32075a63          	bgez	a4,200005fc <_malloc_r+0x434>
200002cc:	00c42403          	lw	s0,12(s0)
200002d0:	00868c63          	beq	a3,s0,200002e8 <_malloc_r+0x120>
200002d4:	00442783          	lw	a5,4(s0)
200002d8:	ffc7f793          	andi	a5,a5,-4
200002dc:	40978733          	sub	a4,a5,s1
200002e0:	fee5d4e3          	bge	a1,a4,200002c8 <_malloc_r+0x100>
200002e4:	00050613          	mv	a2,a0
200002e8:	01092403          	lw	s0,16(s2)
200002ec:	00890893          	addi	a7,s2,8
200002f0:	17140863          	beq	s0,a7,20000460 <_malloc_r+0x298>
200002f4:	00442583          	lw	a1,4(s0)
200002f8:	00f00713          	li	a4,15
200002fc:	ffc5f593          	andi	a1,a1,-4
20000300:	409587b3          	sub	a5,a1,s1
20000304:	40f74a63          	blt	a4,a5,20000718 <_malloc_r+0x550>
20000308:	01192a23          	sw	a7,20(s2)
2000030c:	01192823          	sw	a7,16(s2)
20000310:	3e07d463          	bgez	a5,200006f8 <_malloc_r+0x530>
20000314:	1ff00793          	li	a5,511
20000318:	2eb7e863          	bltu	a5,a1,20000608 <_malloc_r+0x440>
2000031c:	ff85f793          	andi	a5,a1,-8
20000320:	00878793          	addi	a5,a5,8
20000324:	00492503          	lw	a0,4(s2)
20000328:	00f907b3          	add	a5,s2,a5
2000032c:	0007a683          	lw	a3,0(a5)
20000330:	0055d593          	srli	a1,a1,0x5
20000334:	00100713          	li	a4,1
20000338:	00b71733          	sll	a4,a4,a1
2000033c:	00a76733          	or	a4,a4,a0
20000340:	ff878593          	addi	a1,a5,-8
20000344:	00b42623          	sw	a1,12(s0)
20000348:	00d42423          	sw	a3,8(s0)
2000034c:	00e92223          	sw	a4,4(s2)
20000350:	0087a023          	sw	s0,0(a5)
20000354:	0086a623          	sw	s0,12(a3)
20000358:	40265793          	srai	a5,a2,0x2
2000035c:	00100593          	li	a1,1
20000360:	00f595b3          	sll	a1,a1,a5
20000364:	10b76863          	bltu	a4,a1,20000474 <_malloc_r+0x2ac>
20000368:	00e5f7b3          	and	a5,a1,a4
2000036c:	02079463          	bnez	a5,20000394 <_malloc_r+0x1cc>
20000370:	00159593          	slli	a1,a1,0x1
20000374:	ffc67613          	andi	a2,a2,-4
20000378:	00e5f7b3          	and	a5,a1,a4
2000037c:	00460613          	addi	a2,a2,4
20000380:	00079a63          	bnez	a5,20000394 <_malloc_r+0x1cc>
20000384:	00159593          	slli	a1,a1,0x1
20000388:	00e5f7b3          	and	a5,a1,a4
2000038c:	00460613          	addi	a2,a2,4
20000390:	fe078ae3          	beqz	a5,20000384 <_malloc_r+0x1bc>
20000394:	00f00813          	li	a6,15
20000398:	00361313          	slli	t1,a2,0x3
2000039c:	00690333          	add	t1,s2,t1
200003a0:	00030513          	mv	a0,t1
200003a4:	00c52783          	lw	a5,12(a0)
200003a8:	00060e13          	mv	t3,a2
200003ac:	2ef50063          	beq	a0,a5,2000068c <_malloc_r+0x4c4>
200003b0:	0047a703          	lw	a4,4(a5)
200003b4:	00078413          	mv	s0,a5
200003b8:	00c7a783          	lw	a5,12(a5)
200003bc:	ffc77713          	andi	a4,a4,-4
200003c0:	409706b3          	sub	a3,a4,s1
200003c4:	2ed84063          	blt	a6,a3,200006a4 <_malloc_r+0x4dc>
200003c8:	fe06c2e3          	bltz	a3,200003ac <_malloc_r+0x1e4>
200003cc:	00e40733          	add	a4,s0,a4
200003d0:	00472683          	lw	a3,4(a4)
200003d4:	00842603          	lw	a2,8(s0)
200003d8:	00098513          	mv	a0,s3
200003dc:	0016e693          	ori	a3,a3,1
200003e0:	00d72223          	sw	a3,4(a4)
200003e4:	00f62623          	sw	a5,12(a2)
200003e8:	00c7a423          	sw	a2,8(a5)
200003ec:	00d000ef          	jal	ra,20000bf8 <__malloc_unlock>
200003f0:	00840513          	addi	a0,s0,8
200003f4:	0100006f          	j	20000404 <_malloc_r+0x23c>
200003f8:	00c00793          	li	a5,12
200003fc:	00f9a023          	sw	a5,0(s3)
20000400:	00000513          	li	a0,0
20000404:	02c12083          	lw	ra,44(sp)
20000408:	02812403          	lw	s0,40(sp)
2000040c:	02412483          	lw	s1,36(sp)
20000410:	02012903          	lw	s2,32(sp)
20000414:	01c12983          	lw	s3,28(sp)
20000418:	01812a03          	lw	s4,24(sp)
2000041c:	01412a83          	lw	s5,20(sp)
20000420:	01012b03          	lw	s6,16(sp)
20000424:	00c12b83          	lw	s7,12(sp)
20000428:	00812c03          	lw	s8,8(sp)
2000042c:	00412c83          	lw	s9,4(sp)
20000430:	03010113          	addi	sp,sp,48
20000434:	00008067          	ret
20000438:	20000693          	li	a3,512
2000043c:	04000613          	li	a2,64
20000440:	03f00513          	li	a0,63
20000444:	e65ff06f          	j	200002a8 <_malloc_r+0xe0>
20000448:	00c7a403          	lw	s0,12(a5)
2000044c:	00260613          	addi	a2,a2,2
20000450:	de8794e3          	bne	a5,s0,20000238 <_malloc_r+0x70>
20000454:	01092403          	lw	s0,16(s2)
20000458:	00890893          	addi	a7,s2,8
2000045c:	e9141ce3          	bne	s0,a7,200002f4 <_malloc_r+0x12c>
20000460:	00492703          	lw	a4,4(s2)
20000464:	40265793          	srai	a5,a2,0x2
20000468:	00100593          	li	a1,1
2000046c:	00f595b3          	sll	a1,a1,a5
20000470:	eeb77ce3          	bgeu	a4,a1,20000368 <_malloc_r+0x1a0>
20000474:	00892403          	lw	s0,8(s2)
20000478:	00442b03          	lw	s6,4(s0)
2000047c:	ffcb7b13          	andi	s6,s6,-4
20000480:	009b6863          	bltu	s6,s1,20000490 <_malloc_r+0x2c8>
20000484:	409b07b3          	sub	a5,s6,s1
20000488:	00f00713          	li	a4,15
2000048c:	14f74463          	blt	a4,a5,200005d4 <_malloc_r+0x40c>
20000490:	2000a7b7          	lui	a5,0x2000a
20000494:	2000acb7          	lui	s9,0x2000a
20000498:	5a47aa83          	lw	s5,1444(a5) # 2000a5a4 <__malloc_top_pad>
2000049c:	594ca703          	lw	a4,1428(s9) # 2000a594 <__malloc_sbrk_base>
200004a0:	fff00793          	li	a5,-1
200004a4:	01640a33          	add	s4,s0,s6
200004a8:	01548ab3          	add	s5,s1,s5
200004ac:	34f70863          	beq	a4,a5,200007fc <_malloc_r+0x634>
200004b0:	000017b7          	lui	a5,0x1
200004b4:	00f78793          	addi	a5,a5,15 # 100f <_start-0x1fffeff1>
200004b8:	00fa8ab3          	add	s5,s5,a5
200004bc:	fffff7b7          	lui	a5,0xfffff
200004c0:	00fafab3          	and	s5,s5,a5
200004c4:	000a8593          	mv	a1,s5
200004c8:	00098513          	mv	a0,s3
200004cc:	730000ef          	jal	ra,20000bfc <_sbrk_r>
200004d0:	fff00793          	li	a5,-1
200004d4:	00050b93          	mv	s7,a0
200004d8:	28f50a63          	beq	a0,a5,2000076c <_malloc_r+0x5a4>
200004dc:	29456663          	bltu	a0,s4,20000768 <_malloc_r+0x5a0>
200004e0:	81c18c13          	addi	s8,gp,-2020 # 2000a5ac <__malloc_current_mallinfo>
200004e4:	000c2583          	lw	a1,0(s8)
200004e8:	00ba85b3          	add	a1,s5,a1
200004ec:	00bc2023          	sw	a1,0(s8)
200004f0:	00058793          	mv	a5,a1
200004f4:	3aaa0263          	beq	s4,a0,20000898 <_malloc_r+0x6d0>
200004f8:	594ca683          	lw	a3,1428(s9)
200004fc:	fff00713          	li	a4,-1
20000500:	3ae68a63          	beq	a3,a4,200008b4 <_malloc_r+0x6ec>
20000504:	414b8a33          	sub	s4,s7,s4
20000508:	00fa07b3          	add	a5,s4,a5
2000050c:	00fc2023          	sw	a5,0(s8)
20000510:	007bfc93          	andi	s9,s7,7
20000514:	300c8663          	beqz	s9,20000820 <_malloc_r+0x658>
20000518:	000017b7          	lui	a5,0x1
2000051c:	419b8bb3          	sub	s7,s7,s9
20000520:	00878593          	addi	a1,a5,8 # 1008 <_start-0x1fffeff8>
20000524:	008b8b93          	addi	s7,s7,8
20000528:	419585b3          	sub	a1,a1,s9
2000052c:	015b8ab3          	add	s5,s7,s5
20000530:	fff78793          	addi	a5,a5,-1
20000534:	415585b3          	sub	a1,a1,s5
20000538:	00f5fa33          	and	s4,a1,a5
2000053c:	000a0593          	mv	a1,s4
20000540:	00098513          	mv	a0,s3
20000544:	6b8000ef          	jal	ra,20000bfc <_sbrk_r>
20000548:	fff00793          	li	a5,-1
2000054c:	3af50e63          	beq	a0,a5,20000908 <_malloc_r+0x740>
20000550:	41750533          	sub	a0,a0,s7
20000554:	01450ab3          	add	s5,a0,s4
20000558:	000c2783          	lw	a5,0(s8)
2000055c:	01792423          	sw	s7,8(s2)
20000560:	001aea93          	ori	s5,s5,1
20000564:	00fa05b3          	add	a1,s4,a5
20000568:	00bc2023          	sw	a1,0(s8)
2000056c:	015ba223          	sw	s5,4(s7)
20000570:	35240663          	beq	s0,s2,200008bc <_malloc_r+0x6f4>
20000574:	00f00693          	li	a3,15
20000578:	3566f663          	bgeu	a3,s6,200008c4 <_malloc_r+0x6fc>
2000057c:	00442703          	lw	a4,4(s0)
20000580:	ff4b0793          	addi	a5,s6,-12
20000584:	ff87f793          	andi	a5,a5,-8
20000588:	00177713          	andi	a4,a4,1
2000058c:	00f76733          	or	a4,a4,a5
20000590:	00e42223          	sw	a4,4(s0)
20000594:	00500613          	li	a2,5
20000598:	00f40733          	add	a4,s0,a5
2000059c:	00c72223          	sw	a2,4(a4)
200005a0:	00c72423          	sw	a2,8(a4)
200005a4:	36f6ec63          	bltu	a3,a5,2000091c <_malloc_r+0x754>
200005a8:	004baa83          	lw	s5,4(s7)
200005ac:	000b8413          	mv	s0,s7
200005b0:	2000a7b7          	lui	a5,0x2000a
200005b4:	5a07a703          	lw	a4,1440(a5) # 2000a5a0 <__malloc_max_sbrked_mem>
200005b8:	00b77463          	bgeu	a4,a1,200005c0 <_malloc_r+0x3f8>
200005bc:	5ab7a023          	sw	a1,1440(a5)
200005c0:	2000a7b7          	lui	a5,0x2000a
200005c4:	59c7a703          	lw	a4,1436(a5) # 2000a59c <__malloc_max_total_mem>
200005c8:	1ab77663          	bgeu	a4,a1,20000774 <_malloc_r+0x5ac>
200005cc:	58b7ae23          	sw	a1,1436(a5)
200005d0:	1a40006f          	j	20000774 <_malloc_r+0x5ac>
200005d4:	0014e713          	ori	a4,s1,1
200005d8:	00e42223          	sw	a4,4(s0)
200005dc:	009404b3          	add	s1,s0,s1
200005e0:	00992423          	sw	s1,8(s2)
200005e4:	0017e793          	ori	a5,a5,1
200005e8:	00098513          	mv	a0,s3
200005ec:	00f4a223          	sw	a5,4(s1)
200005f0:	608000ef          	jal	ra,20000bf8 <__malloc_unlock>
200005f4:	00840513          	addi	a0,s0,8
200005f8:	e0dff06f          	j	20000404 <_malloc_r+0x23c>
200005fc:	00c42683          	lw	a3,12(s0)
20000600:	00842603          	lw	a2,8(s0)
20000604:	c45ff06f          	j	20000248 <_malloc_r+0x80>
20000608:	0095d793          	srli	a5,a1,0x9
2000060c:	00400713          	li	a4,4
20000610:	14f77263          	bgeu	a4,a5,20000754 <_malloc_r+0x58c>
20000614:	01400713          	li	a4,20
20000618:	22f76a63          	bltu	a4,a5,2000084c <_malloc_r+0x684>
2000061c:	05c78693          	addi	a3,a5,92
20000620:	05b78713          	addi	a4,a5,91
20000624:	00369693          	slli	a3,a3,0x3
20000628:	00d906b3          	add	a3,s2,a3
2000062c:	0006a783          	lw	a5,0(a3)
20000630:	ff868693          	addi	a3,a3,-8
20000634:	1cf68863          	beq	a3,a5,20000804 <_malloc_r+0x63c>
20000638:	0047a703          	lw	a4,4(a5)
2000063c:	ffc77713          	andi	a4,a4,-4
20000640:	00e5f663          	bgeu	a1,a4,2000064c <_malloc_r+0x484>
20000644:	0087a783          	lw	a5,8(a5)
20000648:	fef698e3          	bne	a3,a5,20000638 <_malloc_r+0x470>
2000064c:	00c7a683          	lw	a3,12(a5)
20000650:	00492703          	lw	a4,4(s2)
20000654:	00d42623          	sw	a3,12(s0)
20000658:	00f42423          	sw	a5,8(s0)
2000065c:	0086a423          	sw	s0,8(a3)
20000660:	0087a623          	sw	s0,12(a5)
20000664:	cf5ff06f          	j	20000358 <_malloc_r+0x190>
20000668:	01400713          	li	a4,20
2000066c:	12f77663          	bgeu	a4,a5,20000798 <_malloc_r+0x5d0>
20000670:	05400713          	li	a4,84
20000674:	1ef76a63          	bltu	a4,a5,20000868 <_malloc_r+0x6a0>
20000678:	00c4d793          	srli	a5,s1,0xc
2000067c:	06f78613          	addi	a2,a5,111
20000680:	06e78513          	addi	a0,a5,110
20000684:	00361693          	slli	a3,a2,0x3
20000688:	c21ff06f          	j	200002a8 <_malloc_r+0xe0>
2000068c:	001e0e13          	addi	t3,t3,1
20000690:	003e7793          	andi	a5,t3,3
20000694:	00850513          	addi	a0,a0,8
20000698:	10078e63          	beqz	a5,200007b4 <_malloc_r+0x5ec>
2000069c:	00c52783          	lw	a5,12(a0)
200006a0:	d0dff06f          	j	200003ac <_malloc_r+0x1e4>
200006a4:	00842603          	lw	a2,8(s0)
200006a8:	0014e593          	ori	a1,s1,1
200006ac:	00b42223          	sw	a1,4(s0)
200006b0:	00f62623          	sw	a5,12(a2)
200006b4:	00c7a423          	sw	a2,8(a5)
200006b8:	009404b3          	add	s1,s0,s1
200006bc:	00992a23          	sw	s1,20(s2)
200006c0:	00992823          	sw	s1,16(s2)
200006c4:	0016e793          	ori	a5,a3,1
200006c8:	0114a623          	sw	a7,12(s1)
200006cc:	0114a423          	sw	a7,8(s1)
200006d0:	00f4a223          	sw	a5,4(s1)
200006d4:	00e40733          	add	a4,s0,a4
200006d8:	00098513          	mv	a0,s3
200006dc:	00d72023          	sw	a3,0(a4)
200006e0:	518000ef          	jal	ra,20000bf8 <__malloc_unlock>
200006e4:	00840513          	addi	a0,s0,8
200006e8:	d1dff06f          	j	20000404 <_malloc_r+0x23c>
200006ec:	0034d613          	srli	a2,s1,0x3
200006f0:	00848793          	addi	a5,s1,8
200006f4:	b2dff06f          	j	20000220 <_malloc_r+0x58>
200006f8:	00b405b3          	add	a1,s0,a1
200006fc:	0045a783          	lw	a5,4(a1)
20000700:	00098513          	mv	a0,s3
20000704:	0017e793          	ori	a5,a5,1
20000708:	00f5a223          	sw	a5,4(a1)
2000070c:	4ec000ef          	jal	ra,20000bf8 <__malloc_unlock>
20000710:	00840513          	addi	a0,s0,8
20000714:	cf1ff06f          	j	20000404 <_malloc_r+0x23c>
20000718:	0014e713          	ori	a4,s1,1
2000071c:	00e42223          	sw	a4,4(s0)
20000720:	009404b3          	add	s1,s0,s1
20000724:	00992a23          	sw	s1,20(s2)
20000728:	00992823          	sw	s1,16(s2)
2000072c:	0017e713          	ori	a4,a5,1
20000730:	0114a623          	sw	a7,12(s1)
20000734:	0114a423          	sw	a7,8(s1)
20000738:	00e4a223          	sw	a4,4(s1)
2000073c:	00b405b3          	add	a1,s0,a1
20000740:	00098513          	mv	a0,s3
20000744:	00f5a023          	sw	a5,0(a1)
20000748:	4b0000ef          	jal	ra,20000bf8 <__malloc_unlock>
2000074c:	00840513          	addi	a0,s0,8
20000750:	cb5ff06f          	j	20000404 <_malloc_r+0x23c>
20000754:	0065d793          	srli	a5,a1,0x6
20000758:	03978693          	addi	a3,a5,57
2000075c:	03878713          	addi	a4,a5,56
20000760:	00369693          	slli	a3,a3,0x3
20000764:	ec5ff06f          	j	20000628 <_malloc_r+0x460>
20000768:	11240e63          	beq	s0,s2,20000884 <_malloc_r+0x6bc>
2000076c:	00892403          	lw	s0,8(s2)
20000770:	00442a83          	lw	s5,4(s0)
20000774:	ffcafa93          	andi	s5,s5,-4
20000778:	409a87b3          	sub	a5,s5,s1
2000077c:	009ae663          	bltu	s5,s1,20000788 <_malloc_r+0x5c0>
20000780:	00f00713          	li	a4,15
20000784:	e4f748e3          	blt	a4,a5,200005d4 <_malloc_r+0x40c>
20000788:	00098513          	mv	a0,s3
2000078c:	46c000ef          	jal	ra,20000bf8 <__malloc_unlock>
20000790:	00000513          	li	a0,0
20000794:	c71ff06f          	j	20000404 <_malloc_r+0x23c>
20000798:	05c78613          	addi	a2,a5,92
2000079c:	05b78513          	addi	a0,a5,91
200007a0:	00361693          	slli	a3,a2,0x3
200007a4:	b05ff06f          	j	200002a8 <_malloc_r+0xe0>
200007a8:	00832783          	lw	a5,8(t1)
200007ac:	fff60613          	addi	a2,a2,-1
200007b0:	1c679063          	bne	a5,t1,20000970 <_malloc_r+0x7a8>
200007b4:	00367793          	andi	a5,a2,3
200007b8:	ff830313          	addi	t1,t1,-8
200007bc:	fe0796e3          	bnez	a5,200007a8 <_malloc_r+0x5e0>
200007c0:	00492703          	lw	a4,4(s2)
200007c4:	fff5c793          	not	a5,a1
200007c8:	00e7f7b3          	and	a5,a5,a4
200007cc:	00f92223          	sw	a5,4(s2)
200007d0:	00159593          	slli	a1,a1,0x1
200007d4:	cab7e0e3          	bltu	a5,a1,20000474 <_malloc_r+0x2ac>
200007d8:	c8058ee3          	beqz	a1,20000474 <_malloc_r+0x2ac>
200007dc:	00f5f733          	and	a4,a1,a5
200007e0:	00071a63          	bnez	a4,200007f4 <_malloc_r+0x62c>
200007e4:	00159593          	slli	a1,a1,0x1
200007e8:	00f5f733          	and	a4,a1,a5
200007ec:	004e0e13          	addi	t3,t3,4
200007f0:	fe070ae3          	beqz	a4,200007e4 <_malloc_r+0x61c>
200007f4:	000e0613          	mv	a2,t3
200007f8:	ba1ff06f          	j	20000398 <_malloc_r+0x1d0>
200007fc:	010a8a93          	addi	s5,s5,16
20000800:	cc5ff06f          	j	200004c4 <_malloc_r+0x2fc>
20000804:	00492503          	lw	a0,4(s2)
20000808:	40275593          	srai	a1,a4,0x2
2000080c:	00100713          	li	a4,1
20000810:	00b71733          	sll	a4,a4,a1
20000814:	00a76733          	or	a4,a4,a0
20000818:	00e92223          	sw	a4,4(s2)
2000081c:	e39ff06f          	j	20000654 <_malloc_r+0x48c>
20000820:	015b85b3          	add	a1,s7,s5
20000824:	40b005b3          	neg	a1,a1
20000828:	01459593          	slli	a1,a1,0x14
2000082c:	0145da13          	srli	s4,a1,0x14
20000830:	000a0593          	mv	a1,s4
20000834:	00098513          	mv	a0,s3
20000838:	3c4000ef          	jal	ra,20000bfc <_sbrk_r>
2000083c:	fff00793          	li	a5,-1
20000840:	d0f518e3          	bne	a0,a5,20000550 <_malloc_r+0x388>
20000844:	00000a13          	li	s4,0
20000848:	d11ff06f          	j	20000558 <_malloc_r+0x390>
2000084c:	05400713          	li	a4,84
20000850:	08f76063          	bltu	a4,a5,200008d0 <_malloc_r+0x708>
20000854:	00c5d793          	srli	a5,a1,0xc
20000858:	06f78693          	addi	a3,a5,111
2000085c:	06e78713          	addi	a4,a5,110
20000860:	00369693          	slli	a3,a3,0x3
20000864:	dc5ff06f          	j	20000628 <_malloc_r+0x460>
20000868:	15400713          	li	a4,340
2000086c:	08f76063          	bltu	a4,a5,200008ec <_malloc_r+0x724>
20000870:	00f4d793          	srli	a5,s1,0xf
20000874:	07878613          	addi	a2,a5,120
20000878:	07778513          	addi	a0,a5,119
2000087c:	00361693          	slli	a3,a2,0x3
20000880:	a29ff06f          	j	200002a8 <_malloc_r+0xe0>
20000884:	81c18c13          	addi	s8,gp,-2020 # 2000a5ac <__malloc_current_mallinfo>
20000888:	000c2783          	lw	a5,0(s8)
2000088c:	00fa87b3          	add	a5,s5,a5
20000890:	00fc2023          	sw	a5,0(s8)
20000894:	c65ff06f          	j	200004f8 <_malloc_r+0x330>
20000898:	014a1713          	slli	a4,s4,0x14
2000089c:	c4071ee3          	bnez	a4,200004f8 <_malloc_r+0x330>
200008a0:	00892403          	lw	s0,8(s2)
200008a4:	015b0ab3          	add	s5,s6,s5
200008a8:	001aea93          	ori	s5,s5,1
200008ac:	01542223          	sw	s5,4(s0)
200008b0:	d01ff06f          	j	200005b0 <_malloc_r+0x3e8>
200008b4:	597caa23          	sw	s7,1428(s9)
200008b8:	c59ff06f          	j	20000510 <_malloc_r+0x348>
200008bc:	000b8413          	mv	s0,s7
200008c0:	cf1ff06f          	j	200005b0 <_malloc_r+0x3e8>
200008c4:	00100793          	li	a5,1
200008c8:	00fba223          	sw	a5,4(s7)
200008cc:	ebdff06f          	j	20000788 <_malloc_r+0x5c0>
200008d0:	15400713          	li	a4,340
200008d4:	06f76263          	bltu	a4,a5,20000938 <_malloc_r+0x770>
200008d8:	00f5d793          	srli	a5,a1,0xf
200008dc:	07878693          	addi	a3,a5,120
200008e0:	07778713          	addi	a4,a5,119
200008e4:	00369693          	slli	a3,a3,0x3
200008e8:	d41ff06f          	j	20000628 <_malloc_r+0x460>
200008ec:	55400713          	li	a4,1364
200008f0:	06f76263          	bltu	a4,a5,20000954 <_malloc_r+0x78c>
200008f4:	0124d793          	srli	a5,s1,0x12
200008f8:	07d78613          	addi	a2,a5,125
200008fc:	07c78513          	addi	a0,a5,124
20000900:	00361693          	slli	a3,a2,0x3
20000904:	9a5ff06f          	j	200002a8 <_malloc_r+0xe0>
20000908:	ff8c8c93          	addi	s9,s9,-8
2000090c:	019a8ab3          	add	s5,s5,s9
20000910:	417a8ab3          	sub	s5,s5,s7
20000914:	00000a13          	li	s4,0
20000918:	c41ff06f          	j	20000558 <_malloc_r+0x390>
2000091c:	00840593          	addi	a1,s0,8
20000920:	00098513          	mv	a0,s3
20000924:	064010ef          	jal	ra,20001988 <_free_r>
20000928:	00892403          	lw	s0,8(s2)
2000092c:	000c2583          	lw	a1,0(s8)
20000930:	00442a83          	lw	s5,4(s0)
20000934:	c7dff06f          	j	200005b0 <_malloc_r+0x3e8>
20000938:	55400713          	li	a4,1364
2000093c:	02f76463          	bltu	a4,a5,20000964 <_malloc_r+0x79c>
20000940:	0125d793          	srli	a5,a1,0x12
20000944:	07d78693          	addi	a3,a5,125
20000948:	07c78713          	addi	a4,a5,124
2000094c:	00369693          	slli	a3,a3,0x3
20000950:	cd9ff06f          	j	20000628 <_malloc_r+0x460>
20000954:	3f800693          	li	a3,1016
20000958:	07f00613          	li	a2,127
2000095c:	07e00513          	li	a0,126
20000960:	949ff06f          	j	200002a8 <_malloc_r+0xe0>
20000964:	3f800693          	li	a3,1016
20000968:	07e00713          	li	a4,126
2000096c:	cbdff06f          	j	20000628 <_malloc_r+0x460>
20000970:	00492783          	lw	a5,4(s2)
20000974:	e5dff06f          	j	200007d0 <_malloc_r+0x608>

20000978 <memcmp>:
20000978:	00300793          	li	a5,3
2000097c:	02c7f863          	bgeu	a5,a2,200009ac <memcmp+0x34>
20000980:	00b567b3          	or	a5,a0,a1
20000984:	0037f793          	andi	a5,a5,3
20000988:	00300693          	li	a3,3
2000098c:	04079e63          	bnez	a5,200009e8 <memcmp+0x70>
20000990:	00052703          	lw	a4,0(a0)
20000994:	0005a783          	lw	a5,0(a1)
20000998:	04f71863          	bne	a4,a5,200009e8 <memcmp+0x70>
2000099c:	ffc60613          	addi	a2,a2,-4
200009a0:	00450513          	addi	a0,a0,4
200009a4:	00458593          	addi	a1,a1,4
200009a8:	fec6e4e3          	bltu	a3,a2,20000990 <memcmp+0x18>
200009ac:	fff60693          	addi	a3,a2,-1
200009b0:	02060863          	beqz	a2,200009e0 <memcmp+0x68>
200009b4:	00168693          	addi	a3,a3,1
200009b8:	00d506b3          	add	a3,a0,a3
200009bc:	0080006f          	j	200009c4 <memcmp+0x4c>
200009c0:	02d50063          	beq	a0,a3,200009e0 <memcmp+0x68>
200009c4:	00054783          	lbu	a5,0(a0)
200009c8:	0005c703          	lbu	a4,0(a1)
200009cc:	00150513          	addi	a0,a0,1
200009d0:	00158593          	addi	a1,a1,1
200009d4:	fee786e3          	beq	a5,a4,200009c0 <memcmp+0x48>
200009d8:	40e78533          	sub	a0,a5,a4
200009dc:	00008067          	ret
200009e0:	00000513          	li	a0,0
200009e4:	00008067          	ret
200009e8:	fff60693          	addi	a3,a2,-1
200009ec:	fc9ff06f          	j	200009b4 <memcmp+0x3c>

200009f0 <memcpy>:
200009f0:	00b547b3          	xor	a5,a0,a1
200009f4:	0037f793          	andi	a5,a5,3
200009f8:	00c508b3          	add	a7,a0,a2
200009fc:	06079663          	bnez	a5,20000a68 <memcpy+0x78>
20000a00:	00300793          	li	a5,3
20000a04:	06c7f263          	bgeu	a5,a2,20000a68 <memcpy+0x78>
20000a08:	00357793          	andi	a5,a0,3
20000a0c:	00050713          	mv	a4,a0
20000a10:	0c079a63          	bnez	a5,20000ae4 <memcpy+0xf4>
20000a14:	ffc8f613          	andi	a2,a7,-4
20000a18:	40e606b3          	sub	a3,a2,a4
20000a1c:	02000793          	li	a5,32
20000a20:	02000293          	li	t0,32
20000a24:	06d7c263          	blt	a5,a3,20000a88 <memcpy+0x98>
20000a28:	00058693          	mv	a3,a1
20000a2c:	00070793          	mv	a5,a4
20000a30:	02c77863          	bgeu	a4,a2,20000a60 <memcpy+0x70>
20000a34:	0006a803          	lw	a6,0(a3)
20000a38:	00478793          	addi	a5,a5,4
20000a3c:	00468693          	addi	a3,a3,4
20000a40:	ff07ae23          	sw	a6,-4(a5)
20000a44:	fec7e8e3          	bltu	a5,a2,20000a34 <memcpy+0x44>
20000a48:	fff60793          	addi	a5,a2,-1
20000a4c:	40e787b3          	sub	a5,a5,a4
20000a50:	ffc7f793          	andi	a5,a5,-4
20000a54:	00478793          	addi	a5,a5,4
20000a58:	00f70733          	add	a4,a4,a5
20000a5c:	00f585b3          	add	a1,a1,a5
20000a60:	01176863          	bltu	a4,a7,20000a70 <memcpy+0x80>
20000a64:	00008067          	ret
20000a68:	00050713          	mv	a4,a0
20000a6c:	ff157ce3          	bgeu	a0,a7,20000a64 <memcpy+0x74>
20000a70:	0005c783          	lbu	a5,0(a1)
20000a74:	00170713          	addi	a4,a4,1
20000a78:	00158593          	addi	a1,a1,1
20000a7c:	fef70fa3          	sb	a5,-1(a4)
20000a80:	ff1768e3          	bltu	a4,a7,20000a70 <memcpy+0x80>
20000a84:	00008067          	ret
20000a88:	0045a683          	lw	a3,4(a1)
20000a8c:	01c5a783          	lw	a5,28(a1)
20000a90:	0005af83          	lw	t6,0(a1)
20000a94:	0085af03          	lw	t5,8(a1)
20000a98:	00c5ae83          	lw	t4,12(a1)
20000a9c:	0105ae03          	lw	t3,16(a1)
20000aa0:	0145a303          	lw	t1,20(a1)
20000aa4:	0185a803          	lw	a6,24(a1)
20000aa8:	00d72223          	sw	a3,4(a4)
20000aac:	0205a683          	lw	a3,32(a1)
20000ab0:	01f72023          	sw	t6,0(a4)
20000ab4:	01e72423          	sw	t5,8(a4)
20000ab8:	01d72623          	sw	t4,12(a4)
20000abc:	01c72823          	sw	t3,16(a4)
20000ac0:	00672a23          	sw	t1,20(a4)
20000ac4:	01072c23          	sw	a6,24(a4)
20000ac8:	00f72e23          	sw	a5,28(a4)
20000acc:	02470713          	addi	a4,a4,36
20000ad0:	40e607b3          	sub	a5,a2,a4
20000ad4:	fed72e23          	sw	a3,-4(a4)
20000ad8:	02458593          	addi	a1,a1,36
20000adc:	faf2c6e3          	blt	t0,a5,20000a88 <memcpy+0x98>
20000ae0:	f49ff06f          	j	20000a28 <memcpy+0x38>
20000ae4:	0005c683          	lbu	a3,0(a1)
20000ae8:	00170713          	addi	a4,a4,1
20000aec:	00377793          	andi	a5,a4,3
20000af0:	fed70fa3          	sb	a3,-1(a4)
20000af4:	00158593          	addi	a1,a1,1
20000af8:	f0078ee3          	beqz	a5,20000a14 <memcpy+0x24>
20000afc:	0005c683          	lbu	a3,0(a1)
20000b00:	00170713          	addi	a4,a4,1
20000b04:	00377793          	andi	a5,a4,3
20000b08:	fed70fa3          	sb	a3,-1(a4)
20000b0c:	00158593          	addi	a1,a1,1
20000b10:	fc079ae3          	bnez	a5,20000ae4 <memcpy+0xf4>
20000b14:	f01ff06f          	j	20000a14 <memcpy+0x24>

20000b18 <memset>:
20000b18:	00f00313          	li	t1,15
20000b1c:	00050713          	mv	a4,a0
20000b20:	02c37e63          	bgeu	t1,a2,20000b5c <memset+0x44>
20000b24:	00f77793          	andi	a5,a4,15
20000b28:	0a079063          	bnez	a5,20000bc8 <memset+0xb0>
20000b2c:	08059263          	bnez	a1,20000bb0 <memset+0x98>
20000b30:	ff067693          	andi	a3,a2,-16
20000b34:	00f67613          	andi	a2,a2,15
20000b38:	00e686b3          	add	a3,a3,a4
20000b3c:	00b72023          	sw	a1,0(a4)
20000b40:	00b72223          	sw	a1,4(a4)
20000b44:	00b72423          	sw	a1,8(a4)
20000b48:	00b72623          	sw	a1,12(a4)
20000b4c:	01070713          	addi	a4,a4,16
20000b50:	fed766e3          	bltu	a4,a3,20000b3c <memset+0x24>
20000b54:	00061463          	bnez	a2,20000b5c <memset+0x44>
20000b58:	00008067          	ret
20000b5c:	40c306b3          	sub	a3,t1,a2
20000b60:	00269693          	slli	a3,a3,0x2
20000b64:	00000297          	auipc	t0,0x0
20000b68:	005686b3          	add	a3,a3,t0
20000b6c:	00c68067          	jr	12(a3)
20000b70:	00b70723          	sb	a1,14(a4)
20000b74:	00b706a3          	sb	a1,13(a4)
20000b78:	00b70623          	sb	a1,12(a4)
20000b7c:	00b705a3          	sb	a1,11(a4)
20000b80:	00b70523          	sb	a1,10(a4)
20000b84:	00b704a3          	sb	a1,9(a4)
20000b88:	00b70423          	sb	a1,8(a4)
20000b8c:	00b703a3          	sb	a1,7(a4)
20000b90:	00b70323          	sb	a1,6(a4)
20000b94:	00b702a3          	sb	a1,5(a4)
20000b98:	00b70223          	sb	a1,4(a4)
20000b9c:	00b701a3          	sb	a1,3(a4)
20000ba0:	00b70123          	sb	a1,2(a4)
20000ba4:	00b700a3          	sb	a1,1(a4)
20000ba8:	00b70023          	sb	a1,0(a4)
20000bac:	00008067          	ret
20000bb0:	0ff5f593          	zext.b	a1,a1
20000bb4:	00859693          	slli	a3,a1,0x8
20000bb8:	00d5e5b3          	or	a1,a1,a3
20000bbc:	01059693          	slli	a3,a1,0x10
20000bc0:	00d5e5b3          	or	a1,a1,a3
20000bc4:	f6dff06f          	j	20000b30 <memset+0x18>
20000bc8:	00279693          	slli	a3,a5,0x2
20000bcc:	00000297          	auipc	t0,0x0
20000bd0:	005686b3          	add	a3,a3,t0
20000bd4:	00008293          	mv	t0,ra
20000bd8:	fa0680e7          	jalr	-96(a3)
20000bdc:	00028093          	mv	ra,t0
20000be0:	ff078793          	addi	a5,a5,-16
20000be4:	40f70733          	sub	a4,a4,a5
20000be8:	00f60633          	add	a2,a2,a5
20000bec:	f6c378e3          	bgeu	t1,a2,20000b5c <memset+0x44>
20000bf0:	f3dff06f          	j	20000b2c <memset+0x14>

20000bf4 <__malloc_lock>:
20000bf4:	00008067          	ret

20000bf8 <__malloc_unlock>:
20000bf8:	00008067          	ret

20000bfc <_sbrk_r>:
20000bfc:	ff010113          	addi	sp,sp,-16
20000c00:	00812423          	sw	s0,8(sp)
20000c04:	00912223          	sw	s1,4(sp)
20000c08:	00050413          	mv	s0,a0
20000c0c:	2000a4b7          	lui	s1,0x2000a
20000c10:	00058513          	mv	a0,a1
20000c14:	00112623          	sw	ra,12(sp)
20000c18:	5a04a423          	sw	zero,1448(s1) # 2000a5a8 <errno>
20000c1c:	4b9020ef          	jal	ra,200038d4 <_sbrk>
20000c20:	fff00793          	li	a5,-1
20000c24:	00f50c63          	beq	a0,a5,20000c3c <_sbrk_r+0x40>
20000c28:	00c12083          	lw	ra,12(sp)
20000c2c:	00812403          	lw	s0,8(sp)
20000c30:	00412483          	lw	s1,4(sp)
20000c34:	01010113          	addi	sp,sp,16
20000c38:	00008067          	ret
20000c3c:	5a84a783          	lw	a5,1448(s1)
20000c40:	fe0784e3          	beqz	a5,20000c28 <_sbrk_r+0x2c>
20000c44:	00c12083          	lw	ra,12(sp)
20000c48:	00f42023          	sw	a5,0(s0)
20000c4c:	00812403          	lw	s0,8(sp)
20000c50:	00412483          	lw	s1,4(sp)
20000c54:	01010113          	addi	sp,sp,16
20000c58:	00008067          	ret

20000c5c <strcat>:
20000c5c:	ff010113          	addi	sp,sp,-16
20000c60:	00812423          	sw	s0,8(sp)
20000c64:	00112623          	sw	ra,12(sp)
20000c68:	00357793          	andi	a5,a0,3
20000c6c:	00050413          	mv	s0,a0
20000c70:	04079463          	bnez	a5,20000cb8 <strcat+0x5c>
20000c74:	00052703          	lw	a4,0(a0)
20000c78:	feff0637          	lui	a2,0xfeff0
20000c7c:	eff60613          	addi	a2,a2,-257 # fefefeff <_end+0xdefe08c7>
20000c80:	00c707b3          	add	a5,a4,a2
20000c84:	808086b7          	lui	a3,0x80808
20000c88:	fff74713          	not	a4,a4
20000c8c:	00e7f7b3          	and	a5,a5,a4
20000c90:	08068693          	addi	a3,a3,128 # 80808080 <_end+0x607f8a48>
20000c94:	00d7f7b3          	and	a5,a5,a3
20000c98:	02079063          	bnez	a5,20000cb8 <strcat+0x5c>
20000c9c:	00452703          	lw	a4,4(a0)
20000ca0:	00450513          	addi	a0,a0,4
20000ca4:	00c707b3          	add	a5,a4,a2
20000ca8:	fff74713          	not	a4,a4
20000cac:	00e7f7b3          	and	a5,a5,a4
20000cb0:	00d7f7b3          	and	a5,a5,a3
20000cb4:	fe0784e3          	beqz	a5,20000c9c <strcat+0x40>
20000cb8:	00054783          	lbu	a5,0(a0)
20000cbc:	00078863          	beqz	a5,20000ccc <strcat+0x70>
20000cc0:	00154783          	lbu	a5,1(a0)
20000cc4:	00150513          	addi	a0,a0,1
20000cc8:	fe079ce3          	bnez	a5,20000cc0 <strcat+0x64>
20000ccc:	2d4000ef          	jal	ra,20000fa0 <strcpy>
20000cd0:	00c12083          	lw	ra,12(sp)
20000cd4:	00040513          	mv	a0,s0
20000cd8:	00812403          	lw	s0,8(sp)
20000cdc:	01010113          	addi	sp,sp,16
20000ce0:	00008067          	ret

20000ce4 <strchr>:
20000ce4:	0ff5f693          	zext.b	a3,a1
20000ce8:	00357793          	andi	a5,a0,3
20000cec:	0c068063          	beqz	a3,20000dac <strchr+0xc8>
20000cf0:	00078e63          	beqz	a5,20000d0c <strchr+0x28>
20000cf4:	00054783          	lbu	a5,0(a0)
20000cf8:	0a078663          	beqz	a5,20000da4 <strchr+0xc0>
20000cfc:	0ad78663          	beq	a5,a3,20000da8 <strchr+0xc4>
20000d00:	00150513          	addi	a0,a0,1
20000d04:	00357793          	andi	a5,a0,3
20000d08:	fe0796e3          	bnez	a5,20000cf4 <strchr+0x10>
20000d0c:	0ff5f593          	zext.b	a1,a1
20000d10:	00859793          	slli	a5,a1,0x8
20000d14:	00f5e5b3          	or	a1,a1,a5
20000d18:	00052703          	lw	a4,0(a0)
20000d1c:	01059313          	slli	t1,a1,0x10
20000d20:	00b36333          	or	t1,t1,a1
20000d24:	feff0837          	lui	a6,0xfeff0
20000d28:	00e34633          	xor	a2,t1,a4
20000d2c:	eff80813          	addi	a6,a6,-257 # fefefeff <_end+0xdefe08c7>
20000d30:	010607b3          	add	a5,a2,a6
20000d34:	010705b3          	add	a1,a4,a6
20000d38:	fff64613          	not	a2,a2
20000d3c:	fff74713          	not	a4,a4
20000d40:	00c7f7b3          	and	a5,a5,a2
20000d44:	00e5f733          	and	a4,a1,a4
20000d48:	808088b7          	lui	a7,0x80808
20000d4c:	00e7e7b3          	or	a5,a5,a4
20000d50:	08088893          	addi	a7,a7,128 # 80808080 <_end+0x607f8a48>
20000d54:	0117f7b3          	and	a5,a5,a7
20000d58:	02079a63          	bnez	a5,20000d8c <strchr+0xa8>
20000d5c:	00452703          	lw	a4,4(a0)
20000d60:	00450513          	addi	a0,a0,4
20000d64:	00674633          	xor	a2,a4,t1
20000d68:	010707b3          	add	a5,a4,a6
20000d6c:	010605b3          	add	a1,a2,a6
20000d70:	fff74713          	not	a4,a4
20000d74:	fff64613          	not	a2,a2
20000d78:	00e7f7b3          	and	a5,a5,a4
20000d7c:	00c5f733          	and	a4,a1,a2
20000d80:	00e7e7b3          	or	a5,a5,a4
20000d84:	0117f7b3          	and	a5,a5,a7
20000d88:	fc078ae3          	beqz	a5,20000d5c <strchr+0x78>
20000d8c:	00054783          	lbu	a5,0(a0)
20000d90:	00078a63          	beqz	a5,20000da4 <strchr+0xc0>
20000d94:	08f68663          	beq	a3,a5,20000e20 <strchr+0x13c>
20000d98:	00154783          	lbu	a5,1(a0)
20000d9c:	00150513          	addi	a0,a0,1
20000da0:	fe079ae3          	bnez	a5,20000d94 <strchr+0xb0>
20000da4:	00000513          	li	a0,0
20000da8:	00008067          	ret
20000dac:	00078c63          	beqz	a5,20000dc4 <strchr+0xe0>
20000db0:	00054783          	lbu	a5,0(a0)
20000db4:	fe078ae3          	beqz	a5,20000da8 <strchr+0xc4>
20000db8:	00150513          	addi	a0,a0,1
20000dbc:	00357793          	andi	a5,a0,3
20000dc0:	fe0798e3          	bnez	a5,20000db0 <strchr+0xcc>
20000dc4:	00052703          	lw	a4,0(a0)
20000dc8:	feff0637          	lui	a2,0xfeff0
20000dcc:	eff60613          	addi	a2,a2,-257 # fefefeff <_end+0xdefe08c7>
20000dd0:	00c707b3          	add	a5,a4,a2
20000dd4:	808086b7          	lui	a3,0x80808
20000dd8:	fff74713          	not	a4,a4
20000ddc:	00e7f7b3          	and	a5,a5,a4
20000de0:	08068693          	addi	a3,a3,128 # 80808080 <_end+0x607f8a48>
20000de4:	00d7f7b3          	and	a5,a5,a3
20000de8:	02079063          	bnez	a5,20000e08 <strchr+0x124>
20000dec:	00452703          	lw	a4,4(a0)
20000df0:	00450513          	addi	a0,a0,4
20000df4:	00c707b3          	add	a5,a4,a2
20000df8:	fff74713          	not	a4,a4
20000dfc:	00e7f7b3          	and	a5,a5,a4
20000e00:	00d7f7b3          	and	a5,a5,a3
20000e04:	fe0784e3          	beqz	a5,20000dec <strchr+0x108>
20000e08:	00054783          	lbu	a5,0(a0)
20000e0c:	f8078ee3          	beqz	a5,20000da8 <strchr+0xc4>
20000e10:	00154783          	lbu	a5,1(a0)
20000e14:	00150513          	addi	a0,a0,1
20000e18:	fe079ce3          	bnez	a5,20000e10 <strchr+0x12c>
20000e1c:	00008067          	ret
20000e20:	00008067          	ret

20000e24 <strcmp>:
20000e24:	00b56733          	or	a4,a0,a1
20000e28:	fff00393          	li	t2,-1
20000e2c:	00377713          	andi	a4,a4,3
20000e30:	10071063          	bnez	a4,20000f30 <strcmp+0x10c>
20000e34:	7f7f87b7          	lui	a5,0x7f7f8
20000e38:	f7f78793          	addi	a5,a5,-129 # 7f7f7f7f <_end+0x5f7e8947>
20000e3c:	00052603          	lw	a2,0(a0)
20000e40:	0005a683          	lw	a3,0(a1)
20000e44:	00f672b3          	and	t0,a2,a5
20000e48:	00f66333          	or	t1,a2,a5
20000e4c:	00f282b3          	add	t0,t0,a5
20000e50:	0062e2b3          	or	t0,t0,t1
20000e54:	10729263          	bne	t0,t2,20000f58 <strcmp+0x134>
20000e58:	08d61663          	bne	a2,a3,20000ee4 <strcmp+0xc0>
20000e5c:	00452603          	lw	a2,4(a0)
20000e60:	0045a683          	lw	a3,4(a1)
20000e64:	00f672b3          	and	t0,a2,a5
20000e68:	00f66333          	or	t1,a2,a5
20000e6c:	00f282b3          	add	t0,t0,a5
20000e70:	0062e2b3          	or	t0,t0,t1
20000e74:	0c729e63          	bne	t0,t2,20000f50 <strcmp+0x12c>
20000e78:	06d61663          	bne	a2,a3,20000ee4 <strcmp+0xc0>
20000e7c:	00852603          	lw	a2,8(a0)
20000e80:	0085a683          	lw	a3,8(a1)
20000e84:	00f672b3          	and	t0,a2,a5
20000e88:	00f66333          	or	t1,a2,a5
20000e8c:	00f282b3          	add	t0,t0,a5
20000e90:	0062e2b3          	or	t0,t0,t1
20000e94:	0c729863          	bne	t0,t2,20000f64 <strcmp+0x140>
20000e98:	04d61663          	bne	a2,a3,20000ee4 <strcmp+0xc0>
20000e9c:	00c52603          	lw	a2,12(a0)
20000ea0:	00c5a683          	lw	a3,12(a1)
20000ea4:	00f672b3          	and	t0,a2,a5
20000ea8:	00f66333          	or	t1,a2,a5
20000eac:	00f282b3          	add	t0,t0,a5
20000eb0:	0062e2b3          	or	t0,t0,t1
20000eb4:	0c729263          	bne	t0,t2,20000f78 <strcmp+0x154>
20000eb8:	02d61663          	bne	a2,a3,20000ee4 <strcmp+0xc0>
20000ebc:	01052603          	lw	a2,16(a0)
20000ec0:	0105a683          	lw	a3,16(a1)
20000ec4:	00f672b3          	and	t0,a2,a5
20000ec8:	00f66333          	or	t1,a2,a5
20000ecc:	00f282b3          	add	t0,t0,a5
20000ed0:	0062e2b3          	or	t0,t0,t1
20000ed4:	0a729c63          	bne	t0,t2,20000f8c <strcmp+0x168>
20000ed8:	01450513          	addi	a0,a0,20
20000edc:	01458593          	addi	a1,a1,20
20000ee0:	f4d60ee3          	beq	a2,a3,20000e3c <strcmp+0x18>
20000ee4:	01061713          	slli	a4,a2,0x10
20000ee8:	01069793          	slli	a5,a3,0x10
20000eec:	00f71e63          	bne	a4,a5,20000f08 <strcmp+0xe4>
20000ef0:	01065713          	srli	a4,a2,0x10
20000ef4:	0106d793          	srli	a5,a3,0x10
20000ef8:	40f70533          	sub	a0,a4,a5
20000efc:	0ff57593          	zext.b	a1,a0
20000f00:	02059063          	bnez	a1,20000f20 <strcmp+0xfc>
20000f04:	00008067          	ret
20000f08:	01075713          	srli	a4,a4,0x10
20000f0c:	0107d793          	srli	a5,a5,0x10
20000f10:	40f70533          	sub	a0,a4,a5
20000f14:	0ff57593          	zext.b	a1,a0
20000f18:	00059463          	bnez	a1,20000f20 <strcmp+0xfc>
20000f1c:	00008067          	ret
20000f20:	0ff77713          	zext.b	a4,a4
20000f24:	0ff7f793          	zext.b	a5,a5
20000f28:	40f70533          	sub	a0,a4,a5
20000f2c:	00008067          	ret
20000f30:	00054603          	lbu	a2,0(a0)
20000f34:	0005c683          	lbu	a3,0(a1)
20000f38:	00150513          	addi	a0,a0,1
20000f3c:	00158593          	addi	a1,a1,1
20000f40:	00d61463          	bne	a2,a3,20000f48 <strcmp+0x124>
20000f44:	fe0616e3          	bnez	a2,20000f30 <strcmp+0x10c>
20000f48:	40d60533          	sub	a0,a2,a3
20000f4c:	00008067          	ret
20000f50:	00450513          	addi	a0,a0,4
20000f54:	00458593          	addi	a1,a1,4
20000f58:	fcd61ce3          	bne	a2,a3,20000f30 <strcmp+0x10c>
20000f5c:	00000513          	li	a0,0
20000f60:	00008067          	ret
20000f64:	00850513          	addi	a0,a0,8
20000f68:	00858593          	addi	a1,a1,8
20000f6c:	fcd612e3          	bne	a2,a3,20000f30 <strcmp+0x10c>
20000f70:	00000513          	li	a0,0
20000f74:	00008067          	ret
20000f78:	00c50513          	addi	a0,a0,12
20000f7c:	00c58593          	addi	a1,a1,12
20000f80:	fad618e3          	bne	a2,a3,20000f30 <strcmp+0x10c>
20000f84:	00000513          	li	a0,0
20000f88:	00008067          	ret
20000f8c:	01050513          	addi	a0,a0,16
20000f90:	01058593          	addi	a1,a1,16
20000f94:	f8d61ee3          	bne	a2,a3,20000f30 <strcmp+0x10c>
20000f98:	00000513          	li	a0,0
20000f9c:	00008067          	ret

20000fa0 <strcpy>:
20000fa0:	00b567b3          	or	a5,a0,a1
20000fa4:	0037f793          	andi	a5,a5,3
20000fa8:	08079263          	bnez	a5,2000102c <strcpy+0x8c>
20000fac:	0005a703          	lw	a4,0(a1)
20000fb0:	7f7f86b7          	lui	a3,0x7f7f8
20000fb4:	f7f68693          	addi	a3,a3,-129 # 7f7f7f7f <_end+0x5f7e8947>
20000fb8:	00d777b3          	and	a5,a4,a3
20000fbc:	00d787b3          	add	a5,a5,a3
20000fc0:	00e7e7b3          	or	a5,a5,a4
20000fc4:	00d7e7b3          	or	a5,a5,a3
20000fc8:	fff00613          	li	a2,-1
20000fcc:	06c79e63          	bne	a5,a2,20001048 <strcpy+0xa8>
20000fd0:	00050613          	mv	a2,a0
20000fd4:	fff00813          	li	a6,-1
20000fd8:	00e62023          	sw	a4,0(a2)
20000fdc:	0045a703          	lw	a4,4(a1)
20000fe0:	00458593          	addi	a1,a1,4
20000fe4:	00460613          	addi	a2,a2,4
20000fe8:	00d777b3          	and	a5,a4,a3
20000fec:	00d787b3          	add	a5,a5,a3
20000ff0:	00e7e7b3          	or	a5,a5,a4
20000ff4:	00d7e7b3          	or	a5,a5,a3
20000ff8:	ff0780e3          	beq	a5,a6,20000fd8 <strcpy+0x38>
20000ffc:	0005c783          	lbu	a5,0(a1)
20001000:	0015c703          	lbu	a4,1(a1)
20001004:	0025c683          	lbu	a3,2(a1)
20001008:	00f60023          	sb	a5,0(a2)
2000100c:	00078a63          	beqz	a5,20001020 <strcpy+0x80>
20001010:	00e600a3          	sb	a4,1(a2)
20001014:	00070663          	beqz	a4,20001020 <strcpy+0x80>
20001018:	00d60123          	sb	a3,2(a2)
2000101c:	00069463          	bnez	a3,20001024 <strcpy+0x84>
20001020:	00008067          	ret
20001024:	000601a3          	sb	zero,3(a2)
20001028:	00008067          	ret
2000102c:	00050793          	mv	a5,a0
20001030:	0005c703          	lbu	a4,0(a1)
20001034:	00178793          	addi	a5,a5,1
20001038:	00158593          	addi	a1,a1,1
2000103c:	fee78fa3          	sb	a4,-1(a5)
20001040:	fe0718e3          	bnez	a4,20001030 <strcpy+0x90>
20001044:	00008067          	ret
20001048:	00050613          	mv	a2,a0
2000104c:	fb1ff06f          	j	20000ffc <strcpy+0x5c>

20001050 <two_way_long_needle>:
20001050:	bb010113          	addi	sp,sp,-1104
20001054:	44812423          	sw	s0,1096(sp)
20001058:	44912223          	sw	s1,1092(sp)
2000105c:	43312e23          	sw	s3,1084(sp)
20001060:	43812423          	sw	s8,1064(sp)
20001064:	44112623          	sw	ra,1100(sp)
20001068:	45212023          	sw	s2,1088(sp)
2000106c:	43412c23          	sw	s4,1080(sp)
20001070:	43512a23          	sw	s5,1076(sp)
20001074:	43612823          	sw	s6,1072(sp)
20001078:	43712623          	sw	s7,1068(sp)
2000107c:	43912223          	sw	s9,1060(sp)
20001080:	43a12023          	sw	s10,1056(sp)
20001084:	41b12e23          	sw	s11,1052(sp)
20001088:	00100793          	li	a5,1
2000108c:	00068993          	mv	s3,a3
20001090:	00050413          	mv	s0,a0
20001094:	00058c13          	mv	s8,a1
20001098:	00060493          	mv	s1,a2
2000109c:	3ad7fa63          	bgeu	a5,a3,20001450 <two_way_long_needle+0x400>
200010a0:	00000613          	li	a2,0
200010a4:	00100d93          	li	s11,1
200010a8:	00100693          	li	a3,1
200010ac:	fff00c93          	li	s9,-1
200010b0:	0180006f          	j	200010c8 <two_way_long_needle+0x78>
200010b4:	41978db3          	sub	s11,a5,s9
200010b8:	00078613          	mv	a2,a5
200010bc:	00100693          	li	a3,1
200010c0:	00d607b3          	add	a5,a2,a3
200010c4:	0337fc63          	bgeu	a5,s3,200010fc <two_way_long_needle+0xac>
200010c8:	01948733          	add	a4,s1,s9
200010cc:	00d70733          	add	a4,a4,a3
200010d0:	00f485b3          	add	a1,s1,a5
200010d4:	0005c583          	lbu	a1,0(a1)
200010d8:	00074703          	lbu	a4,0(a4)
200010dc:	fce5ece3          	bltu	a1,a4,200010b4 <two_way_long_needle+0x64>
200010e0:	1ae58863          	beq	a1,a4,20001290 <two_way_long_needle+0x240>
200010e4:	00060c93          	mv	s9,a2
200010e8:	00100693          	li	a3,1
200010ec:	00160613          	addi	a2,a2,1
200010f0:	00d607b3          	add	a5,a2,a3
200010f4:	00100d93          	li	s11,1
200010f8:	fd37e8e3          	bltu	a5,s3,200010c8 <two_way_long_needle+0x78>
200010fc:	00000593          	li	a1,0
20001100:	00100813          	li	a6,1
20001104:	00100613          	li	a2,1
20001108:	fff00513          	li	a0,-1
2000110c:	00100713          	li	a4,1
20001110:	0180006f          	j	20001128 <two_way_long_needle+0xd8>
20001114:	40a70833          	sub	a6,a4,a0
20001118:	00070593          	mv	a1,a4
2000111c:	00100613          	li	a2,1
20001120:	00c58733          	add	a4,a1,a2
20001124:	03377c63          	bgeu	a4,s3,2000115c <two_way_long_needle+0x10c>
20001128:	00c487b3          	add	a5,s1,a2
2000112c:	00e486b3          	add	a3,s1,a4
20001130:	00a787b3          	add	a5,a5,a0
20001134:	0006c683          	lbu	a3,0(a3)
20001138:	0007c783          	lbu	a5,0(a5)
2000113c:	fcd7ece3          	bltu	a5,a3,20001114 <two_way_long_needle+0xc4>
20001140:	14f68e63          	beq	a3,a5,2000129c <two_way_long_needle+0x24c>
20001144:	00058513          	mv	a0,a1
20001148:	00100613          	li	a2,1
2000114c:	00158593          	addi	a1,a1,1
20001150:	00c58733          	add	a4,a1,a2
20001154:	00100813          	li	a6,1
20001158:	fd3768e3          	bltu	a4,s3,20001128 <two_way_long_needle+0xd8>
2000115c:	00150513          	addi	a0,a0,1
20001160:	001c8c93          	addi	s9,s9,1
20001164:	01956663          	bltu	a0,s9,20001170 <two_way_long_needle+0x120>
20001168:	00080d93          	mv	s11,a6
2000116c:	00050c93          	mv	s9,a0
20001170:	01010793          	addi	a5,sp,16
20001174:	41010713          	addi	a4,sp,1040
20001178:	0137a023          	sw	s3,0(a5)
2000117c:	00478793          	addi	a5,a5,4
20001180:	fef71ce3          	bne	a4,a5,20001178 <two_way_long_needle+0x128>
20001184:	fff98913          	addi	s2,s3,-1
20001188:	009985b3          	add	a1,s3,s1
2000118c:	00048713          	mv	a4,s1
20001190:	01248633          	add	a2,s1,s2
20001194:	02098463          	beqz	s3,200011bc <two_way_long_needle+0x16c>
20001198:	00074783          	lbu	a5,0(a4)
2000119c:	01010513          	addi	a0,sp,16
200011a0:	40e606b3          	sub	a3,a2,a4
200011a4:	00279793          	slli	a5,a5,0x2
200011a8:	40078793          	addi	a5,a5,1024
200011ac:	00a787b3          	add	a5,a5,a0
200011b0:	00170713          	addi	a4,a4,1
200011b4:	c0d7a023          	sw	a3,-1024(a5)
200011b8:	fee590e3          	bne	a1,a4,20001198 <two_way_long_needle+0x148>
200011bc:	000c8613          	mv	a2,s9
200011c0:	01b485b3          	add	a1,s1,s11
200011c4:	00048513          	mv	a0,s1
200011c8:	fb0ff0ef          	jal	ra,20000978 <memcmp>
200011cc:	16051e63          	bnez	a0,20001348 <two_way_long_needle+0x2f8>
200011d0:	00001bb7          	lui	s7,0x1
200011d4:	00100a13          	li	s4,1
200011d8:	fffc8793          	addi	a5,s9,-1
200011dc:	800b8b93          	addi	s7,s7,-2048 # 800 <_start-0x1ffff800>
200011e0:	00000b13          	li	s6,0
200011e4:	00000d13          	li	s10,0
200011e8:	419a0a33          	sub	s4,s4,s9
200011ec:	00f12623          	sw	a5,12(sp)
200011f0:	41b98ab3          	sub	s5,s3,s11
200011f4:	0179ebb3          	or	s7,s3,s7
200011f8:	01a405b3          	add	a1,s0,s10
200011fc:	012587b3          	add	a5,a1,s2
20001200:	0007c783          	lbu	a5,0(a5)
20001204:	01010713          	addi	a4,sp,16
20001208:	00279793          	slli	a5,a5,0x2
2000120c:	40078793          	addi	a5,a5,1024
20001210:	00e787b3          	add	a5,a5,a4
20001214:	c007a783          	lw	a5,-1024(a5)
20001218:	08078863          	beqz	a5,200012a8 <two_way_long_needle+0x258>
2000121c:	000b0663          	beqz	s6,20001228 <two_way_long_needle+0x1d8>
20001220:	01b7f463          	bgeu	a5,s11,20001228 <two_way_long_needle+0x1d8>
20001224:	000a8793          	mv	a5,s5
20001228:	00fd0d33          	add	s10,s10,a5
2000122c:	00000b13          	li	s6,0
20001230:	413c07b3          	sub	a5,s8,s3
20001234:	fda7f2e3          	bgeu	a5,s10,200011f8 <two_way_long_needle+0x1a8>
20001238:	01840533          	add	a0,s0,s8
2000123c:	000b8593          	mv	a1,s7
20001240:	2e9000ef          	jal	ra,20001d28 <strnlen>
20001244:	00ac0c33          	add	s8,s8,a0
20001248:	413c07b3          	sub	a5,s8,s3
2000124c:	fba7f6e3          	bgeu	a5,s10,200011f8 <two_way_long_needle+0x1a8>
20001250:	00000513          	li	a0,0
20001254:	44c12083          	lw	ra,1100(sp)
20001258:	44812403          	lw	s0,1096(sp)
2000125c:	44412483          	lw	s1,1092(sp)
20001260:	44012903          	lw	s2,1088(sp)
20001264:	43c12983          	lw	s3,1084(sp)
20001268:	43812a03          	lw	s4,1080(sp)
2000126c:	43412a83          	lw	s5,1076(sp)
20001270:	43012b03          	lw	s6,1072(sp)
20001274:	42c12b83          	lw	s7,1068(sp)
20001278:	42812c03          	lw	s8,1064(sp)
2000127c:	42412c83          	lw	s9,1060(sp)
20001280:	42012d03          	lw	s10,1056(sp)
20001284:	41c12d83          	lw	s11,1052(sp)
20001288:	45010113          	addi	sp,sp,1104
2000128c:	00008067          	ret
20001290:	1add8663          	beq	s11,a3,2000143c <two_way_long_needle+0x3ec>
20001294:	00168693          	addi	a3,a3,1
20001298:	e29ff06f          	j	200010c0 <two_way_long_needle+0x70>
2000129c:	19060a63          	beq	a2,a6,20001430 <two_way_long_needle+0x3e0>
200012a0:	00160613          	addi	a2,a2,1
200012a4:	e7dff06f          	j	20001120 <two_way_long_needle+0xd0>
200012a8:	000c8713          	mv	a4,s9
200012ac:	016cf463          	bgeu	s9,s6,200012b4 <two_way_long_needle+0x264>
200012b0:	000b0713          	mv	a4,s6
200012b4:	03277263          	bgeu	a4,s2,200012d8 <two_way_long_needle+0x288>
200012b8:	01a707b3          	add	a5,a4,s10
200012bc:	00e48833          	add	a6,s1,a4
200012c0:	00f407b3          	add	a5,s0,a5
200012c4:	00084683          	lbu	a3,0(a6)
200012c8:	0007c783          	lbu	a5,0(a5)
200012cc:	04f69c63          	bne	a3,a5,20001324 <two_way_long_needle+0x2d4>
200012d0:	00170713          	addi	a4,a4,1
200012d4:	ff2762e3          	bltu	a4,s2,200012b8 <two_way_long_needle+0x268>
200012d8:	00c12703          	lw	a4,12(sp)
200012dc:	000c8813          	mv	a6,s9
200012e0:	019b6863          	bltu	s6,s9,200012f0 <two_way_long_needle+0x2a0>
200012e4:	02c0006f          	j	20001310 <two_way_long_needle+0x2c0>
200012e8:	05670663          	beq	a4,s6,20001334 <two_way_long_needle+0x2e4>
200012ec:	00050713          	mv	a4,a0
200012f0:	01a707b3          	add	a5,a4,s10
200012f4:	00e486b3          	add	a3,s1,a4
200012f8:	00f407b3          	add	a5,s0,a5
200012fc:	0006c683          	lbu	a3,0(a3)
20001300:	0007c783          	lbu	a5,0(a5)
20001304:	00170813          	addi	a6,a4,1
20001308:	fff70513          	addi	a0,a4,-1
2000130c:	fcf68ee3          	beq	a3,a5,200012e8 <two_way_long_needle+0x298>
20001310:	001b0613          	addi	a2,s6,1
20001314:	02c86663          	bltu	a6,a2,20001340 <two_way_long_needle+0x2f0>
20001318:	01bd0d33          	add	s10,s10,s11
2000131c:	000a8b13          	mv	s6,s5
20001320:	f11ff06f          	j	20001230 <two_way_long_needle+0x1e0>
20001324:	01aa0d33          	add	s10,s4,s10
20001328:	00ed0d33          	add	s10,s10,a4
2000132c:	00000b13          	li	s6,0
20001330:	f01ff06f          	j	20001230 <two_way_long_needle+0x1e0>
20001334:	000b0813          	mv	a6,s6
20001338:	001b0613          	addi	a2,s6,1
2000133c:	fcc87ee3          	bgeu	a6,a2,20001318 <two_way_long_needle+0x2c8>
20001340:	00058513          	mv	a0,a1
20001344:	f11ff06f          	j	20001254 <two_way_long_needle+0x204>
20001348:	41998ab3          	sub	s5,s3,s9
2000134c:	0d9aee63          	bltu	s5,s9,20001428 <two_way_long_needle+0x3d8>
20001350:	00001b37          	lui	s6,0x1
20001354:	00100a13          	li	s4,1
20001358:	800b0b13          	addi	s6,s6,-2048 # 800 <_start-0x1ffff800>
2000135c:	001a8a93          	addi	s5,s5,1
20001360:	00000b93          	li	s7,0
20001364:	419a0a33          	sub	s4,s4,s9
20001368:	fff00d13          	li	s10,-1
2000136c:	0169eb33          	or	s6,s3,s6
20001370:	01740633          	add	a2,s0,s7
20001374:	012607b3          	add	a5,a2,s2
20001378:	0007c783          	lbu	a5,0(a5)
2000137c:	01010713          	addi	a4,sp,16
20001380:	00279793          	slli	a5,a5,0x2
20001384:	40078793          	addi	a5,a5,1024
20001388:	00e787b3          	add	a5,a5,a4
2000138c:	c007a783          	lw	a5,-1024(a5)
20001390:	02078663          	beqz	a5,200013bc <two_way_long_needle+0x36c>
20001394:	00fb8bb3          	add	s7,s7,a5
20001398:	413c07b3          	sub	a5,s8,s3
2000139c:	fd77fae3          	bgeu	a5,s7,20001370 <two_way_long_needle+0x320>
200013a0:	01840533          	add	a0,s0,s8
200013a4:	000b0593          	mv	a1,s6
200013a8:	181000ef          	jal	ra,20001d28 <strnlen>
200013ac:	00ac0c33          	add	s8,s8,a0
200013b0:	413c07b3          	sub	a5,s8,s3
200013b4:	fb77fee3          	bgeu	a5,s7,20001370 <two_way_long_needle+0x320>
200013b8:	e99ff06f          	j	20001250 <two_way_long_needle+0x200>
200013bc:	000c8713          	mv	a4,s9
200013c0:	012ce863          	bltu	s9,s2,200013d0 <two_way_long_needle+0x380>
200013c4:	0300006f          	j	200013f4 <two_way_long_needle+0x3a4>
200013c8:	00170713          	addi	a4,a4,1
200013cc:	03277463          	bgeu	a4,s2,200013f4 <two_way_long_needle+0x3a4>
200013d0:	017707b3          	add	a5,a4,s7
200013d4:	00e48833          	add	a6,s1,a4
200013d8:	00f407b3          	add	a5,s0,a5
200013dc:	00084683          	lbu	a3,0(a6)
200013e0:	0007c783          	lbu	a5,0(a5)
200013e4:	fef682e3          	beq	a3,a5,200013c8 <two_way_long_needle+0x378>
200013e8:	017a0bb3          	add	s7,s4,s7
200013ec:	01770bb3          	add	s7,a4,s7
200013f0:	fa9ff06f          	j	20001398 <two_way_long_needle+0x348>
200013f4:	fffc8793          	addi	a5,s9,-1
200013f8:	01a79663          	bne	a5,s10,20001404 <two_way_long_needle+0x3b4>
200013fc:	04c0006f          	j	20001448 <two_way_long_needle+0x3f8>
20001400:	05a78463          	beq	a5,s10,20001448 <two_way_long_needle+0x3f8>
20001404:	01778733          	add	a4,a5,s7
20001408:	00f486b3          	add	a3,s1,a5
2000140c:	00e40733          	add	a4,s0,a4
20001410:	0006c683          	lbu	a3,0(a3)
20001414:	00074703          	lbu	a4,0(a4)
20001418:	fff78793          	addi	a5,a5,-1
2000141c:	fee682e3          	beq	a3,a4,20001400 <two_way_long_needle+0x3b0>
20001420:	015b8bb3          	add	s7,s7,s5
20001424:	f75ff06f          	j	20001398 <two_way_long_needle+0x348>
20001428:	000c8a93          	mv	s5,s9
2000142c:	f25ff06f          	j	20001350 <two_way_long_needle+0x300>
20001430:	00c585b3          	add	a1,a1,a2
20001434:	00100613          	li	a2,1
20001438:	ce9ff06f          	j	20001120 <two_way_long_needle+0xd0>
2000143c:	01b60633          	add	a2,a2,s11
20001440:	00100693          	li	a3,1
20001444:	c7dff06f          	j	200010c0 <two_way_long_needle+0x70>
20001448:	00060513          	mv	a0,a2
2000144c:	e09ff06f          	j	20001254 <two_way_long_needle+0x204>
20001450:	00100d93          	li	s11,1
20001454:	00000c93          	li	s9,0
20001458:	d19ff06f          	j	20001170 <two_way_long_needle+0x120>

2000145c <strstr>:
2000145c:	fa010113          	addi	sp,sp,-96
20001460:	04812c23          	sw	s0,88(sp)
20001464:	04912a23          	sw	s1,84(sp)
20001468:	04112e23          	sw	ra,92(sp)
2000146c:	05212823          	sw	s2,80(sp)
20001470:	05312623          	sw	s3,76(sp)
20001474:	05412423          	sw	s4,72(sp)
20001478:	05512223          	sw	s5,68(sp)
2000147c:	00058493          	mv	s1,a1
20001480:	0005c583          	lbu	a1,0(a1)
20001484:	00050413          	mv	s0,a0
20001488:	0e058c63          	beqz	a1,20001580 <strstr+0x124>
2000148c:	0014c683          	lbu	a3,1(s1)
20001490:	1c068263          	beqz	a3,20001654 <strstr+0x1f8>
20001494:	0024c603          	lbu	a2,2(s1)
20001498:	10060863          	beqz	a2,200015a8 <strstr+0x14c>
2000149c:	0034c503          	lbu	a0,3(s1)
200014a0:	1e050063          	beqz	a0,20001680 <strstr+0x224>
200014a4:	0044c783          	lbu	a5,4(s1)
200014a8:	12078c63          	beqz	a5,200015e0 <strstr+0x184>
200014ac:	00048513          	mv	a0,s1
200014b0:	7ec000ef          	jal	ra,20001c9c <strlen>
200014b4:	00050913          	mv	s2,a0
200014b8:	20056593          	ori	a1,a0,512
200014bc:	00040513          	mv	a0,s0
200014c0:	069000ef          	jal	ra,20001d28 <strnlen>
200014c4:	17256263          	bltu	a0,s2,20001628 <strstr+0x1cc>
200014c8:	0fe00793          	li	a5,254
200014cc:	1f27ec63          	bltu	a5,s2,200016c4 <strstr+0x268>
200014d0:	412509b3          	sub	s3,a0,s2
200014d4:	04000613          	li	a2,64
200014d8:	00190593          	addi	a1,s2,1
200014dc:	00010513          	mv	a0,sp
200014e0:	013409b3          	add	s3,s0,s3
200014e4:	e34ff0ef          	jal	ra,20000b18 <memset>
200014e8:	02090a63          	beqz	s2,2000151c <strstr+0xc0>
200014ec:	0ff97613          	zext.b	a2,s2
200014f0:	00048713          	mv	a4,s1
200014f4:	009905b3          	add	a1,s2,s1
200014f8:	00c48633          	add	a2,s1,a2
200014fc:	00074783          	lbu	a5,0(a4)
20001500:	40e606b3          	sub	a3,a2,a4
20001504:	00170713          	addi	a4,a4,1
20001508:	03f7f793          	andi	a5,a5,63
2000150c:	04078793          	addi	a5,a5,64
20001510:	002787b3          	add	a5,a5,sp
20001514:	fcd78023          	sb	a3,-64(a5)
20001518:	fee592e3          	bne	a1,a4,200014fc <strstr+0xa0>
2000151c:	00001ab7          	lui	s5,0x1
20001520:	800a8a93          	addi	s5,s5,-2048 # 800 <_start-0x1ffff800>
20001524:	fff40413          	addi	s0,s0,-1
20001528:	012407b3          	add	a5,s0,s2
2000152c:	0007c783          	lbu	a5,0(a5)
20001530:	03f7f793          	andi	a5,a5,63
20001534:	04078793          	addi	a5,a5,64
20001538:	002787b3          	add	a5,a5,sp
2000153c:	fc07c783          	lbu	a5,-64(a5)
20001540:	00f40433          	add	s0,s0,a5
20001544:	0089f863          	bgeu	s3,s0,20001554 <strstr+0xf8>
20001548:	0e80006f          	j	20001630 <strstr+0x1d4>
2000154c:	01440433          	add	s0,s0,s4
20001550:	0e89e063          	bltu	s3,s0,20001630 <strstr+0x1d4>
20001554:	012407b3          	add	a5,s0,s2
20001558:	0007c783          	lbu	a5,0(a5)
2000155c:	00040513          	mv	a0,s0
20001560:	00090613          	mv	a2,s2
20001564:	03f7f793          	andi	a5,a5,63
20001568:	04078793          	addi	a5,a5,64
2000156c:	002787b3          	add	a5,a5,sp
20001570:	00048593          	mv	a1,s1
20001574:	fc07ca03          	lbu	s4,-64(a5)
20001578:	c00ff0ef          	jal	ra,20000978 <memcmp>
2000157c:	fc0518e3          	bnez	a0,2000154c <strstr+0xf0>
20001580:	05c12083          	lw	ra,92(sp)
20001584:	00040513          	mv	a0,s0
20001588:	05812403          	lw	s0,88(sp)
2000158c:	05412483          	lw	s1,84(sp)
20001590:	05012903          	lw	s2,80(sp)
20001594:	04c12983          	lw	s3,76(sp)
20001598:	04812a03          	lw	s4,72(sp)
2000159c:	04412a83          	lw	s5,68(sp)
200015a0:	06010113          	addi	sp,sp,96
200015a4:	00008067          	ret
200015a8:	01059593          	slli	a1,a1,0x10
200015ac:	00054703          	lbu	a4,0(a0)
200015b0:	00d5e5b3          	or	a1,a1,a3
200015b4:	00000793          	li	a5,0
200015b8:	0080006f          	j	200015c0 <strstr+0x164>
200015bc:	00068413          	mv	s0,a3
200015c0:	01079793          	slli	a5,a5,0x10
200015c4:	00f767b3          	or	a5,a4,a5
200015c8:	06070063          	beqz	a4,20001628 <strstr+0x1cc>
200015cc:	00144703          	lbu	a4,1(s0)
200015d0:	00140693          	addi	a3,s0,1
200015d4:	fef594e3          	bne	a1,a5,200015bc <strstr+0x160>
200015d8:	fff40413          	addi	s0,s0,-1
200015dc:	fa5ff06f          	j	20001580 <strstr+0x124>
200015e0:	01069713          	slli	a4,a3,0x10
200015e4:	01859793          	slli	a5,a1,0x18
200015e8:	00044683          	lbu	a3,0(s0)
200015ec:	00e7e7b3          	or	a5,a5,a4
200015f0:	00a7e7b3          	or	a5,a5,a0
200015f4:	00861613          	slli	a2,a2,0x8
200015f8:	00c7e7b3          	or	a5,a5,a2
200015fc:	02068663          	beqz	a3,20001628 <strstr+0x1cc>
20001600:	00000713          	li	a4,0
20001604:	0080006f          	j	2000160c <strstr+0x1b0>
20001608:	06e78863          	beq	a5,a4,20001678 <strstr+0x21c>
2000160c:	00040613          	mv	a2,s0
20001610:	00871713          	slli	a4,a4,0x8
20001614:	00140413          	addi	s0,s0,1
20001618:	00e6e733          	or	a4,a3,a4
2000161c:	00044683          	lbu	a3,0(s0)
20001620:	fe0694e3          	bnez	a3,20001608 <strstr+0x1ac>
20001624:	04e78a63          	beq	a5,a4,20001678 <strstr+0x21c>
20001628:	00000413          	li	s0,0
2000162c:	f55ff06f          	j	20001580 <strstr+0x124>
20001630:	01298533          	add	a0,s3,s2
20001634:	00054783          	lbu	a5,0(a0)
20001638:	fe0788e3          	beqz	a5,20001628 <strstr+0x1cc>
2000163c:	000a8593          	mv	a1,s5
20001640:	6e8000ef          	jal	ra,20001d28 <strnlen>
20001644:	00a989b3          	add	s3,s3,a0
20001648:	ec89fee3          	bgeu	s3,s0,20001524 <strstr+0xc8>
2000164c:	00000413          	li	s0,0
20001650:	f31ff06f          	j	20001580 <strstr+0x124>
20001654:	05812403          	lw	s0,88(sp)
20001658:	05c12083          	lw	ra,92(sp)
2000165c:	05412483          	lw	s1,84(sp)
20001660:	05012903          	lw	s2,80(sp)
20001664:	04c12983          	lw	s3,76(sp)
20001668:	04812a03          	lw	s4,72(sp)
2000166c:	04412a83          	lw	s5,68(sp)
20001670:	06010113          	addi	sp,sp,96
20001674:	e70ff06f          	j	20000ce4 <strchr>
20001678:	ffd60413          	addi	s0,a2,-3
2000167c:	f05ff06f          	j	20001580 <strstr+0x124>
20001680:	01069693          	slli	a3,a3,0x10
20001684:	01859793          	slli	a5,a1,0x18
20001688:	00d7e7b3          	or	a5,a5,a3
2000168c:	00861613          	slli	a2,a2,0x8
20001690:	00044683          	lbu	a3,0(s0)
20001694:	00c7e7b3          	or	a5,a5,a2
20001698:	00000713          	li	a4,0
2000169c:	0080006f          	j	200016a4 <strstr+0x248>
200016a0:	00060413          	mv	s0,a2
200016a4:	00e6e733          	or	a4,a3,a4
200016a8:	00871713          	slli	a4,a4,0x8
200016ac:	f6068ee3          	beqz	a3,20001628 <strstr+0x1cc>
200016b0:	00144683          	lbu	a3,1(s0)
200016b4:	00140613          	addi	a2,s0,1
200016b8:	fee794e3          	bne	a5,a4,200016a0 <strstr+0x244>
200016bc:	ffe40413          	addi	s0,s0,-2
200016c0:	ec1ff06f          	j	20001580 <strstr+0x124>
200016c4:	00050593          	mv	a1,a0
200016c8:	00040513          	mv	a0,s0
200016cc:	05812403          	lw	s0,88(sp)
200016d0:	05c12083          	lw	ra,92(sp)
200016d4:	04c12983          	lw	s3,76(sp)
200016d8:	04812a03          	lw	s4,72(sp)
200016dc:	04412a83          	lw	s5,68(sp)
200016e0:	00090693          	mv	a3,s2
200016e4:	00048613          	mv	a2,s1
200016e8:	05012903          	lw	s2,80(sp)
200016ec:	05412483          	lw	s1,84(sp)
200016f0:	06010113          	addi	sp,sp,96
200016f4:	95dff06f          	j	20001050 <two_way_long_needle>

200016f8 <strtok>:
200016f8:	2000a7b7          	lui	a5,0x2000a
200016fc:	5907a603          	lw	a2,1424(a5) # 2000a590 <_impure_ptr>
20001700:	00100693          	li	a3,1
20001704:	05c60613          	addi	a2,a2,92
20001708:	0040006f          	j	2000170c <__strtok_r>

2000170c <__strtok_r>:
2000170c:	06050863          	beqz	a0,2000177c <__strtok_r+0x70>
20001710:	00054803          	lbu	a6,0(a0)
20001714:	00150893          	addi	a7,a0,1
20001718:	00058793          	mv	a5,a1
2000171c:	0080006f          	j	20001724 <__strtok_r+0x18>
20001720:	04e80263          	beq	a6,a4,20001764 <__strtok_r+0x58>
20001724:	0007c703          	lbu	a4,0(a5)
20001728:	00178793          	addi	a5,a5,1
2000172c:	fe071ae3          	bnez	a4,20001720 <__strtok_r+0x14>
20001730:	04080e63          	beqz	a6,2000178c <__strtok_r+0x80>
20001734:	0008c683          	lbu	a3,0(a7)
20001738:	00058793          	mv	a5,a1
2000173c:	00188893          	addi	a7,a7,1
20001740:	0080006f          	j	20001748 <__strtok_r+0x3c>
20001744:	fe0708e3          	beqz	a4,20001734 <__strtok_r+0x28>
20001748:	0007c703          	lbu	a4,0(a5)
2000174c:	00178793          	addi	a5,a5,1
20001750:	fee69ae3          	bne	a3,a4,20001744 <__strtok_r+0x38>
20001754:	00068e63          	beqz	a3,20001770 <__strtok_r+0x64>
20001758:	fe088fa3          	sb	zero,-1(a7)
2000175c:	01162023          	sw	a7,0(a2)
20001760:	00008067          	ret
20001764:	02068a63          	beqz	a3,20001798 <__strtok_r+0x8c>
20001768:	00088513          	mv	a0,a7
2000176c:	fa5ff06f          	j	20001710 <__strtok_r+0x4>
20001770:	00000893          	li	a7,0
20001774:	01162023          	sw	a7,0(a2)
20001778:	00008067          	ret
2000177c:	00062503          	lw	a0,0(a2)
20001780:	f80518e3          	bnez	a0,20001710 <__strtok_r+0x4>
20001784:	00000513          	li	a0,0
20001788:	00008067          	ret
2000178c:	00062023          	sw	zero,0(a2)
20001790:	00000513          	li	a0,0
20001794:	00008067          	ret
20001798:	01162023          	sw	a7,0(a2)
2000179c:	00050023          	sb	zero,0(a0)
200017a0:	00008067          	ret

200017a4 <strtok_r>:
200017a4:	00100693          	li	a3,1
200017a8:	f65ff06f          	j	2000170c <__strtok_r>

200017ac <__register_exitproc>:
200017ac:	200097b7          	lui	a5,0x20009
200017b0:	8087a703          	lw	a4,-2040(a5) # 20008808 <_global_impure_ptr>
200017b4:	14872783          	lw	a5,328(a4)
200017b8:	04078c63          	beqz	a5,20001810 <__register_exitproc+0x64>
200017bc:	0047a703          	lw	a4,4(a5)
200017c0:	01f00813          	li	a6,31
200017c4:	06e84e63          	blt	a6,a4,20001840 <__register_exitproc+0x94>
200017c8:	00271813          	slli	a6,a4,0x2
200017cc:	02050663          	beqz	a0,200017f8 <__register_exitproc+0x4c>
200017d0:	01078333          	add	t1,a5,a6
200017d4:	08c32423          	sw	a2,136(t1)
200017d8:	1887a883          	lw	a7,392(a5)
200017dc:	00100613          	li	a2,1
200017e0:	00e61633          	sll	a2,a2,a4
200017e4:	00c8e8b3          	or	a7,a7,a2
200017e8:	1917a423          	sw	a7,392(a5)
200017ec:	10d32423          	sw	a3,264(t1)
200017f0:	00200693          	li	a3,2
200017f4:	02d50463          	beq	a0,a3,2000181c <__register_exitproc+0x70>
200017f8:	00170713          	addi	a4,a4,1
200017fc:	00e7a223          	sw	a4,4(a5)
20001800:	010787b3          	add	a5,a5,a6
20001804:	00b7a423          	sw	a1,8(a5)
20001808:	00000513          	li	a0,0
2000180c:	00008067          	ret
20001810:	14c70793          	addi	a5,a4,332
20001814:	14f72423          	sw	a5,328(a4)
20001818:	fa5ff06f          	j	200017bc <__register_exitproc+0x10>
2000181c:	18c7a683          	lw	a3,396(a5)
20001820:	00170713          	addi	a4,a4,1
20001824:	00e7a223          	sw	a4,4(a5)
20001828:	00c6e6b3          	or	a3,a3,a2
2000182c:	18d7a623          	sw	a3,396(a5)
20001830:	010787b3          	add	a5,a5,a6
20001834:	00b7a423          	sw	a1,8(a5)
20001838:	00000513          	li	a0,0
2000183c:	00008067          	ret
20001840:	fff00513          	li	a0,-1
20001844:	00008067          	ret

20001848 <_malloc_trim_r>:
20001848:	fe010113          	addi	sp,sp,-32
2000184c:	01312623          	sw	s3,12(sp)
20001850:	2000a9b7          	lui	s3,0x2000a
20001854:	00812c23          	sw	s0,24(sp)
20001858:	00912a23          	sw	s1,20(sp)
2000185c:	01212823          	sw	s2,16(sp)
20001860:	01412423          	sw	s4,8(sp)
20001864:	00112e23          	sw	ra,28(sp)
20001868:	00058a13          	mv	s4,a1
2000186c:	00050913          	mv	s2,a0
20001870:	c7098993          	addi	s3,s3,-912 # 20009c70 <__malloc_av_>
20001874:	b80ff0ef          	jal	ra,20000bf4 <__malloc_lock>
20001878:	0089a703          	lw	a4,8(s3)
2000187c:	000017b7          	lui	a5,0x1
20001880:	fef78413          	addi	s0,a5,-17 # fef <_start-0x1ffff011>
20001884:	00472483          	lw	s1,4(a4)
20001888:	41440433          	sub	s0,s0,s4
2000188c:	ffc4f493          	andi	s1,s1,-4
20001890:	00940433          	add	s0,s0,s1
20001894:	00c45413          	srli	s0,s0,0xc
20001898:	fff40413          	addi	s0,s0,-1
2000189c:	00c41413          	slli	s0,s0,0xc
200018a0:	00f44e63          	blt	s0,a5,200018bc <_malloc_trim_r+0x74>
200018a4:	00000593          	li	a1,0
200018a8:	00090513          	mv	a0,s2
200018ac:	b50ff0ef          	jal	ra,20000bfc <_sbrk_r>
200018b0:	0089a783          	lw	a5,8(s3)
200018b4:	009787b3          	add	a5,a5,s1
200018b8:	02f50863          	beq	a0,a5,200018e8 <_malloc_trim_r+0xa0>
200018bc:	00090513          	mv	a0,s2
200018c0:	b38ff0ef          	jal	ra,20000bf8 <__malloc_unlock>
200018c4:	01c12083          	lw	ra,28(sp)
200018c8:	01812403          	lw	s0,24(sp)
200018cc:	01412483          	lw	s1,20(sp)
200018d0:	01012903          	lw	s2,16(sp)
200018d4:	00c12983          	lw	s3,12(sp)
200018d8:	00812a03          	lw	s4,8(sp)
200018dc:	00000513          	li	a0,0
200018e0:	02010113          	addi	sp,sp,32
200018e4:	00008067          	ret
200018e8:	408005b3          	neg	a1,s0
200018ec:	00090513          	mv	a0,s2
200018f0:	b0cff0ef          	jal	ra,20000bfc <_sbrk_r>
200018f4:	fff00793          	li	a5,-1
200018f8:	04f50a63          	beq	a0,a5,2000194c <_malloc_trim_r+0x104>
200018fc:	2000a7b7          	lui	a5,0x2000a
20001900:	5ac78793          	addi	a5,a5,1452 # 2000a5ac <__malloc_current_mallinfo>
20001904:	0007a703          	lw	a4,0(a5)
20001908:	0089a683          	lw	a3,8(s3)
2000190c:	408484b3          	sub	s1,s1,s0
20001910:	0014e493          	ori	s1,s1,1
20001914:	40870733          	sub	a4,a4,s0
20001918:	00090513          	mv	a0,s2
2000191c:	0096a223          	sw	s1,4(a3)
20001920:	00e7a023          	sw	a4,0(a5)
20001924:	ad4ff0ef          	jal	ra,20000bf8 <__malloc_unlock>
20001928:	01c12083          	lw	ra,28(sp)
2000192c:	01812403          	lw	s0,24(sp)
20001930:	01412483          	lw	s1,20(sp)
20001934:	01012903          	lw	s2,16(sp)
20001938:	00c12983          	lw	s3,12(sp)
2000193c:	00812a03          	lw	s4,8(sp)
20001940:	00100513          	li	a0,1
20001944:	02010113          	addi	sp,sp,32
20001948:	00008067          	ret
2000194c:	00000593          	li	a1,0
20001950:	00090513          	mv	a0,s2
20001954:	aa8ff0ef          	jal	ra,20000bfc <_sbrk_r>
20001958:	0089a703          	lw	a4,8(s3)
2000195c:	00f00693          	li	a3,15
20001960:	40e507b3          	sub	a5,a0,a4
20001964:	f4f6dce3          	bge	a3,a5,200018bc <_malloc_trim_r+0x74>
20001968:	2000a6b7          	lui	a3,0x2000a
2000196c:	5946a683          	lw	a3,1428(a3) # 2000a594 <__malloc_sbrk_base>
20001970:	0017e793          	ori	a5,a5,1
20001974:	00f72223          	sw	a5,4(a4)
20001978:	40d50533          	sub	a0,a0,a3
2000197c:	2000a6b7          	lui	a3,0x2000a
20001980:	5aa6a623          	sw	a0,1452(a3) # 2000a5ac <__malloc_current_mallinfo>
20001984:	f39ff06f          	j	200018bc <_malloc_trim_r+0x74>

20001988 <_free_r>:
20001988:	12058a63          	beqz	a1,20001abc <_free_r+0x134>
2000198c:	ff010113          	addi	sp,sp,-16
20001990:	00812423          	sw	s0,8(sp)
20001994:	00912223          	sw	s1,4(sp)
20001998:	00058413          	mv	s0,a1
2000199c:	00050493          	mv	s1,a0
200019a0:	00112623          	sw	ra,12(sp)
200019a4:	a50ff0ef          	jal	ra,20000bf4 <__malloc_lock>
200019a8:	ffc42803          	lw	a6,-4(s0)
200019ac:	ff840713          	addi	a4,s0,-8
200019b0:	2000a5b7          	lui	a1,0x2000a
200019b4:	ffe87793          	andi	a5,a6,-2
200019b8:	00f70633          	add	a2,a4,a5
200019bc:	c7058593          	addi	a1,a1,-912 # 20009c70 <__malloc_av_>
200019c0:	00462683          	lw	a3,4(a2)
200019c4:	0085a503          	lw	a0,8(a1)
200019c8:	ffc6f693          	andi	a3,a3,-4
200019cc:	1ac50a63          	beq	a0,a2,20001b80 <_free_r+0x1f8>
200019d0:	00d62223          	sw	a3,4(a2)
200019d4:	00187813          	andi	a6,a6,1
200019d8:	00d60533          	add	a0,a2,a3
200019dc:	0a081063          	bnez	a6,20001a7c <_free_r+0xf4>
200019e0:	ff842303          	lw	t1,-8(s0)
200019e4:	00452803          	lw	a6,4(a0)
200019e8:	2000a537          	lui	a0,0x2000a
200019ec:	40670733          	sub	a4,a4,t1
200019f0:	00872883          	lw	a7,8(a4)
200019f4:	c7850513          	addi	a0,a0,-904 # 20009c78 <__malloc_av_+0x8>
200019f8:	006787b3          	add	a5,a5,t1
200019fc:	00187813          	andi	a6,a6,1
20001a00:	14a88063          	beq	a7,a0,20001b40 <_free_r+0x1b8>
20001a04:	00c72303          	lw	t1,12(a4)
20001a08:	0068a623          	sw	t1,12(a7)
20001a0c:	01132423          	sw	a7,8(t1)
20001a10:	1e080463          	beqz	a6,20001bf8 <_free_r+0x270>
20001a14:	0017e693          	ori	a3,a5,1
20001a18:	00d72223          	sw	a3,4(a4)
20001a1c:	00f62023          	sw	a5,0(a2)
20001a20:	1ff00693          	li	a3,511
20001a24:	0af6e863          	bltu	a3,a5,20001ad4 <_free_r+0x14c>
20001a28:	ff87f693          	andi	a3,a5,-8
20001a2c:	00868693          	addi	a3,a3,8
20001a30:	0045a503          	lw	a0,4(a1)
20001a34:	00d586b3          	add	a3,a1,a3
20001a38:	0006a603          	lw	a2,0(a3)
20001a3c:	0057d813          	srli	a6,a5,0x5
20001a40:	00100793          	li	a5,1
20001a44:	010797b3          	sll	a5,a5,a6
20001a48:	00a7e7b3          	or	a5,a5,a0
20001a4c:	ff868513          	addi	a0,a3,-8
20001a50:	00a72623          	sw	a0,12(a4)
20001a54:	00c72423          	sw	a2,8(a4)
20001a58:	00f5a223          	sw	a5,4(a1)
20001a5c:	00e6a023          	sw	a4,0(a3)
20001a60:	00e62623          	sw	a4,12(a2)
20001a64:	00812403          	lw	s0,8(sp)
20001a68:	00c12083          	lw	ra,12(sp)
20001a6c:	00048513          	mv	a0,s1
20001a70:	00412483          	lw	s1,4(sp)
20001a74:	01010113          	addi	sp,sp,16
20001a78:	980ff06f          	j	20000bf8 <__malloc_unlock>
20001a7c:	00452503          	lw	a0,4(a0)
20001a80:	00157513          	andi	a0,a0,1
20001a84:	02051e63          	bnez	a0,20001ac0 <_free_r+0x138>
20001a88:	2000a537          	lui	a0,0x2000a
20001a8c:	00d787b3          	add	a5,a5,a3
20001a90:	c7850513          	addi	a0,a0,-904 # 20009c78 <__malloc_av_+0x8>
20001a94:	00862683          	lw	a3,8(a2)
20001a98:	0017e893          	ori	a7,a5,1
20001a9c:	00f70833          	add	a6,a4,a5
20001aa0:	16a68863          	beq	a3,a0,20001c10 <_free_r+0x288>
20001aa4:	00c62603          	lw	a2,12(a2)
20001aa8:	00c6a623          	sw	a2,12(a3)
20001aac:	00d62423          	sw	a3,8(a2)
20001ab0:	01172223          	sw	a7,4(a4)
20001ab4:	00f82023          	sw	a5,0(a6)
20001ab8:	f69ff06f          	j	20001a20 <_free_r+0x98>
20001abc:	00008067          	ret
20001ac0:	0017e693          	ori	a3,a5,1
20001ac4:	fed42e23          	sw	a3,-4(s0)
20001ac8:	00f62023          	sw	a5,0(a2)
20001acc:	1ff00693          	li	a3,511
20001ad0:	f4f6fce3          	bgeu	a3,a5,20001a28 <_free_r+0xa0>
20001ad4:	0097d693          	srli	a3,a5,0x9
20001ad8:	00400613          	li	a2,4
20001adc:	0ed66c63          	bltu	a2,a3,20001bd4 <_free_r+0x24c>
20001ae0:	0067d693          	srli	a3,a5,0x6
20001ae4:	03968813          	addi	a6,a3,57
20001ae8:	03868613          	addi	a2,a3,56
20001aec:	00381813          	slli	a6,a6,0x3
20001af0:	01058833          	add	a6,a1,a6
20001af4:	00082683          	lw	a3,0(a6)
20001af8:	ff880813          	addi	a6,a6,-8
20001afc:	12d80863          	beq	a6,a3,20001c2c <_free_r+0x2a4>
20001b00:	0046a603          	lw	a2,4(a3)
20001b04:	ffc67613          	andi	a2,a2,-4
20001b08:	00c7f663          	bgeu	a5,a2,20001b14 <_free_r+0x18c>
20001b0c:	0086a683          	lw	a3,8(a3)
20001b10:	fed818e3          	bne	a6,a3,20001b00 <_free_r+0x178>
20001b14:	00c6a803          	lw	a6,12(a3)
20001b18:	01072623          	sw	a6,12(a4)
20001b1c:	00d72423          	sw	a3,8(a4)
20001b20:	00812403          	lw	s0,8(sp)
20001b24:	00c12083          	lw	ra,12(sp)
20001b28:	00e82423          	sw	a4,8(a6)
20001b2c:	00048513          	mv	a0,s1
20001b30:	00412483          	lw	s1,4(sp)
20001b34:	00e6a623          	sw	a4,12(a3)
20001b38:	01010113          	addi	sp,sp,16
20001b3c:	8bcff06f          	j	20000bf8 <__malloc_unlock>
20001b40:	14081663          	bnez	a6,20001c8c <_free_r+0x304>
20001b44:	00c62583          	lw	a1,12(a2)
20001b48:	00862603          	lw	a2,8(a2)
20001b4c:	00f686b3          	add	a3,a3,a5
20001b50:	00812403          	lw	s0,8(sp)
20001b54:	00b62623          	sw	a1,12(a2)
20001b58:	00c5a423          	sw	a2,8(a1)
20001b5c:	0016e793          	ori	a5,a3,1
20001b60:	00c12083          	lw	ra,12(sp)
20001b64:	00f72223          	sw	a5,4(a4)
20001b68:	00048513          	mv	a0,s1
20001b6c:	00d70733          	add	a4,a4,a3
20001b70:	00412483          	lw	s1,4(sp)
20001b74:	00d72023          	sw	a3,0(a4)
20001b78:	01010113          	addi	sp,sp,16
20001b7c:	87cff06f          	j	20000bf8 <__malloc_unlock>
20001b80:	00187813          	andi	a6,a6,1
20001b84:	00d786b3          	add	a3,a5,a3
20001b88:	02081063          	bnez	a6,20001ba8 <_free_r+0x220>
20001b8c:	ff842503          	lw	a0,-8(s0)
20001b90:	40a70733          	sub	a4,a4,a0
20001b94:	00c72783          	lw	a5,12(a4)
20001b98:	00872603          	lw	a2,8(a4)
20001b9c:	00a686b3          	add	a3,a3,a0
20001ba0:	00f62623          	sw	a5,12(a2)
20001ba4:	00c7a423          	sw	a2,8(a5)
20001ba8:	2000a7b7          	lui	a5,0x2000a
20001bac:	0016e613          	ori	a2,a3,1
20001bb0:	5987a783          	lw	a5,1432(a5) # 2000a598 <__malloc_trim_threshold>
20001bb4:	00c72223          	sw	a2,4(a4)
20001bb8:	00e5a423          	sw	a4,8(a1)
20001bbc:	eaf6e4e3          	bltu	a3,a5,20001a64 <_free_r+0xdc>
20001bc0:	2000a7b7          	lui	a5,0x2000a
20001bc4:	5a47a583          	lw	a1,1444(a5) # 2000a5a4 <__malloc_top_pad>
20001bc8:	00048513          	mv	a0,s1
20001bcc:	c7dff0ef          	jal	ra,20001848 <_malloc_trim_r>
20001bd0:	e95ff06f          	j	20001a64 <_free_r+0xdc>
20001bd4:	01400613          	li	a2,20
20001bd8:	02d67463          	bgeu	a2,a3,20001c00 <_free_r+0x278>
20001bdc:	05400613          	li	a2,84
20001be0:	06d66463          	bltu	a2,a3,20001c48 <_free_r+0x2c0>
20001be4:	00c7d693          	srli	a3,a5,0xc
20001be8:	06f68813          	addi	a6,a3,111
20001bec:	06e68613          	addi	a2,a3,110
20001bf0:	00381813          	slli	a6,a6,0x3
20001bf4:	efdff06f          	j	20001af0 <_free_r+0x168>
20001bf8:	00d787b3          	add	a5,a5,a3
20001bfc:	e99ff06f          	j	20001a94 <_free_r+0x10c>
20001c00:	05c68813          	addi	a6,a3,92
20001c04:	05b68613          	addi	a2,a3,91
20001c08:	00381813          	slli	a6,a6,0x3
20001c0c:	ee5ff06f          	j	20001af0 <_free_r+0x168>
20001c10:	00e5aa23          	sw	a4,20(a1)
20001c14:	00e5a823          	sw	a4,16(a1)
20001c18:	00a72623          	sw	a0,12(a4)
20001c1c:	00a72423          	sw	a0,8(a4)
20001c20:	01172223          	sw	a7,4(a4)
20001c24:	00f82023          	sw	a5,0(a6)
20001c28:	e3dff06f          	j	20001a64 <_free_r+0xdc>
20001c2c:	0045a503          	lw	a0,4(a1)
20001c30:	40265613          	srai	a2,a2,0x2
20001c34:	00100793          	li	a5,1
20001c38:	00c797b3          	sll	a5,a5,a2
20001c3c:	00a7e7b3          	or	a5,a5,a0
20001c40:	00f5a223          	sw	a5,4(a1)
20001c44:	ed5ff06f          	j	20001b18 <_free_r+0x190>
20001c48:	15400613          	li	a2,340
20001c4c:	00d66c63          	bltu	a2,a3,20001c64 <_free_r+0x2dc>
20001c50:	00f7d693          	srli	a3,a5,0xf
20001c54:	07868813          	addi	a6,a3,120
20001c58:	07768613          	addi	a2,a3,119
20001c5c:	00381813          	slli	a6,a6,0x3
20001c60:	e91ff06f          	j	20001af0 <_free_r+0x168>
20001c64:	55400613          	li	a2,1364
20001c68:	00d66c63          	bltu	a2,a3,20001c80 <_free_r+0x2f8>
20001c6c:	0127d693          	srli	a3,a5,0x12
20001c70:	07d68813          	addi	a6,a3,125
20001c74:	07c68613          	addi	a2,a3,124
20001c78:	00381813          	slli	a6,a6,0x3
20001c7c:	e75ff06f          	j	20001af0 <_free_r+0x168>
20001c80:	3f800813          	li	a6,1016
20001c84:	07e00613          	li	a2,126
20001c88:	e69ff06f          	j	20001af0 <_free_r+0x168>
20001c8c:	0017e693          	ori	a3,a5,1
20001c90:	00d72223          	sw	a3,4(a4)
20001c94:	00f62023          	sw	a5,0(a2)
20001c98:	dcdff06f          	j	20001a64 <_free_r+0xdc>

20001c9c <strlen>:
20001c9c:	00357793          	andi	a5,a0,3
20001ca0:	00050713          	mv	a4,a0
20001ca4:	04079c63          	bnez	a5,20001cfc <strlen+0x60>
20001ca8:	7f7f86b7          	lui	a3,0x7f7f8
20001cac:	f7f68693          	addi	a3,a3,-129 # 7f7f7f7f <_end+0x5f7e8947>
20001cb0:	fff00593          	li	a1,-1
20001cb4:	00072603          	lw	a2,0(a4)
20001cb8:	00470713          	addi	a4,a4,4
20001cbc:	00d677b3          	and	a5,a2,a3
20001cc0:	00d787b3          	add	a5,a5,a3
20001cc4:	00c7e7b3          	or	a5,a5,a2
20001cc8:	00d7e7b3          	or	a5,a5,a3
20001ccc:	feb784e3          	beq	a5,a1,20001cb4 <strlen+0x18>
20001cd0:	ffc74683          	lbu	a3,-4(a4)
20001cd4:	40a707b3          	sub	a5,a4,a0
20001cd8:	04068463          	beqz	a3,20001d20 <strlen+0x84>
20001cdc:	ffd74683          	lbu	a3,-3(a4)
20001ce0:	02068c63          	beqz	a3,20001d18 <strlen+0x7c>
20001ce4:	ffe74503          	lbu	a0,-2(a4)
20001ce8:	00a03533          	snez	a0,a0
20001cec:	00f50533          	add	a0,a0,a5
20001cf0:	ffe50513          	addi	a0,a0,-2
20001cf4:	00008067          	ret
20001cf8:	fa0688e3          	beqz	a3,20001ca8 <strlen+0xc>
20001cfc:	00074783          	lbu	a5,0(a4)
20001d00:	00170713          	addi	a4,a4,1
20001d04:	00377693          	andi	a3,a4,3
20001d08:	fe0798e3          	bnez	a5,20001cf8 <strlen+0x5c>
20001d0c:	40a70733          	sub	a4,a4,a0
20001d10:	fff70513          	addi	a0,a4,-1
20001d14:	00008067          	ret
20001d18:	ffd78513          	addi	a0,a5,-3
20001d1c:	00008067          	ret
20001d20:	ffc78513          	addi	a0,a5,-4
20001d24:	00008067          	ret

20001d28 <strnlen>:
20001d28:	00b506b3          	add	a3,a0,a1
20001d2c:	00050793          	mv	a5,a0
20001d30:	00059863          	bnez	a1,20001d40 <strnlen+0x18>
20001d34:	0240006f          	j	20001d58 <strnlen+0x30>
20001d38:	00178793          	addi	a5,a5,1
20001d3c:	00f68a63          	beq	a3,a5,20001d50 <strnlen+0x28>
20001d40:	0007c703          	lbu	a4,0(a5)
20001d44:	fe071ae3          	bnez	a4,20001d38 <strnlen+0x10>
20001d48:	40a78533          	sub	a0,a5,a0
20001d4c:	00008067          	ret
20001d50:	40a68533          	sub	a0,a3,a0
20001d54:	00008067          	ret
20001d58:	00000513          	li	a0,0
20001d5c:	00008067          	ret

20001d60 <__udivdi3>:
20001d60:	00050313          	mv	t1,a0
20001d64:	00058893          	mv	a7,a1
20001d68:	00060713          	mv	a4,a2
20001d6c:	00050813          	mv	a6,a0
20001d70:	00058793          	mv	a5,a1
20001d74:	28069263          	bnez	a3,20001ff8 <__udivdi3+0x298>
20001d78:	200075b7          	lui	a1,0x20007
20001d7c:	57058593          	addi	a1,a1,1392 # 20007570 <__clz_tab>
20001d80:	0ec8f663          	bgeu	a7,a2,20001e6c <__udivdi3+0x10c>
20001d84:	000106b7          	lui	a3,0x10
20001d88:	0cd67863          	bgeu	a2,a3,20001e58 <__udivdi3+0xf8>
20001d8c:	10063693          	sltiu	a3,a2,256
20001d90:	0016c693          	xori	a3,a3,1
20001d94:	00369693          	slli	a3,a3,0x3
20001d98:	00d65533          	srl	a0,a2,a3
20001d9c:	00a585b3          	add	a1,a1,a0
20001da0:	0005c583          	lbu	a1,0(a1)
20001da4:	02000513          	li	a0,32
20001da8:	00d586b3          	add	a3,a1,a3
20001dac:	40d505b3          	sub	a1,a0,a3
20001db0:	00d50c63          	beq	a0,a3,20001dc8 <__udivdi3+0x68>
20001db4:	00b897b3          	sll	a5,a7,a1
20001db8:	00d356b3          	srl	a3,t1,a3
20001dbc:	00b61733          	sll	a4,a2,a1
20001dc0:	00f6e7b3          	or	a5,a3,a5
20001dc4:	00b31833          	sll	a6,t1,a1
20001dc8:	01075593          	srli	a1,a4,0x10
20001dcc:	02b7d333          	divu	t1,a5,a1
20001dd0:	01071613          	slli	a2,a4,0x10
20001dd4:	01065613          	srli	a2,a2,0x10
20001dd8:	02b7f7b3          	remu	a5,a5,a1
20001ddc:	00030513          	mv	a0,t1
20001de0:	026608b3          	mul	a7,a2,t1
20001de4:	01079693          	slli	a3,a5,0x10
20001de8:	01085793          	srli	a5,a6,0x10
20001dec:	00d7e7b3          	or	a5,a5,a3
20001df0:	0117fe63          	bgeu	a5,a7,20001e0c <__udivdi3+0xac>
20001df4:	00e787b3          	add	a5,a5,a4
20001df8:	fff30513          	addi	a0,t1,-1
20001dfc:	00e7e863          	bltu	a5,a4,20001e0c <__udivdi3+0xac>
20001e00:	0117f663          	bgeu	a5,a7,20001e0c <__udivdi3+0xac>
20001e04:	ffe30513          	addi	a0,t1,-2
20001e08:	00e787b3          	add	a5,a5,a4
20001e0c:	411787b3          	sub	a5,a5,a7
20001e10:	02b7d8b3          	divu	a7,a5,a1
20001e14:	01081813          	slli	a6,a6,0x10
20001e18:	01085813          	srli	a6,a6,0x10
20001e1c:	02b7f7b3          	remu	a5,a5,a1
20001e20:	031606b3          	mul	a3,a2,a7
20001e24:	01079793          	slli	a5,a5,0x10
20001e28:	00f86833          	or	a6,a6,a5
20001e2c:	00088793          	mv	a5,a7
20001e30:	00d87c63          	bgeu	a6,a3,20001e48 <__udivdi3+0xe8>
20001e34:	01070833          	add	a6,a4,a6
20001e38:	fff88793          	addi	a5,a7,-1
20001e3c:	00e86663          	bltu	a6,a4,20001e48 <__udivdi3+0xe8>
20001e40:	00d87463          	bgeu	a6,a3,20001e48 <__udivdi3+0xe8>
20001e44:	ffe88793          	addi	a5,a7,-2
20001e48:	01051513          	slli	a0,a0,0x10
20001e4c:	00f56533          	or	a0,a0,a5
20001e50:	00000593          	li	a1,0
20001e54:	00008067          	ret
20001e58:	01000537          	lui	a0,0x1000
20001e5c:	01000693          	li	a3,16
20001e60:	f2a66ce3          	bltu	a2,a0,20001d98 <__udivdi3+0x38>
20001e64:	01800693          	li	a3,24
20001e68:	f31ff06f          	j	20001d98 <__udivdi3+0x38>
20001e6c:	00061463          	bnez	a2,20001e74 <__udivdi3+0x114>
20001e70:	00100073          	ebreak
20001e74:	000107b7          	lui	a5,0x10
20001e78:	0cf67063          	bgeu	a2,a5,20001f38 <__udivdi3+0x1d8>
20001e7c:	10063693          	sltiu	a3,a2,256
20001e80:	0016c693          	xori	a3,a3,1
20001e84:	00369693          	slli	a3,a3,0x3
20001e88:	00d657b3          	srl	a5,a2,a3
20001e8c:	00f585b3          	add	a1,a1,a5
20001e90:	0005c783          	lbu	a5,0(a1)
20001e94:	00d787b3          	add	a5,a5,a3
20001e98:	02000693          	li	a3,32
20001e9c:	40f685b3          	sub	a1,a3,a5
20001ea0:	0af69663          	bne	a3,a5,20001f4c <__udivdi3+0x1ec>
20001ea4:	40c887b3          	sub	a5,a7,a2
20001ea8:	00100593          	li	a1,1
20001eac:	01075893          	srli	a7,a4,0x10
20001eb0:	0317de33          	divu	t3,a5,a7
20001eb4:	01071613          	slli	a2,a4,0x10
20001eb8:	01065613          	srli	a2,a2,0x10
20001ebc:	01085693          	srli	a3,a6,0x10
20001ec0:	0317f7b3          	remu	a5,a5,a7
20001ec4:	000e0513          	mv	a0,t3
20001ec8:	03c60333          	mul	t1,a2,t3
20001ecc:	01079793          	slli	a5,a5,0x10
20001ed0:	00f6e7b3          	or	a5,a3,a5
20001ed4:	0067fe63          	bgeu	a5,t1,20001ef0 <__udivdi3+0x190>
20001ed8:	00e787b3          	add	a5,a5,a4
20001edc:	fffe0513          	addi	a0,t3,-1
20001ee0:	00e7e863          	bltu	a5,a4,20001ef0 <__udivdi3+0x190>
20001ee4:	0067f663          	bgeu	a5,t1,20001ef0 <__udivdi3+0x190>
20001ee8:	ffee0513          	addi	a0,t3,-2
20001eec:	00e787b3          	add	a5,a5,a4
20001ef0:	406787b3          	sub	a5,a5,t1
20001ef4:	0317d333          	divu	t1,a5,a7
20001ef8:	01081813          	slli	a6,a6,0x10
20001efc:	01085813          	srli	a6,a6,0x10
20001f00:	0317f7b3          	remu	a5,a5,a7
20001f04:	026606b3          	mul	a3,a2,t1
20001f08:	01079793          	slli	a5,a5,0x10
20001f0c:	00f86833          	or	a6,a6,a5
20001f10:	00030793          	mv	a5,t1
20001f14:	00d87c63          	bgeu	a6,a3,20001f2c <__udivdi3+0x1cc>
20001f18:	01070833          	add	a6,a4,a6
20001f1c:	fff30793          	addi	a5,t1,-1
20001f20:	00e86663          	bltu	a6,a4,20001f2c <__udivdi3+0x1cc>
20001f24:	00d87463          	bgeu	a6,a3,20001f2c <__udivdi3+0x1cc>
20001f28:	ffe30793          	addi	a5,t1,-2
20001f2c:	01051513          	slli	a0,a0,0x10
20001f30:	00f56533          	or	a0,a0,a5
20001f34:	00008067          	ret
20001f38:	010007b7          	lui	a5,0x1000
20001f3c:	01000693          	li	a3,16
20001f40:	f4f664e3          	bltu	a2,a5,20001e88 <__udivdi3+0x128>
20001f44:	01800693          	li	a3,24
20001f48:	f41ff06f          	j	20001e88 <__udivdi3+0x128>
20001f4c:	00b61733          	sll	a4,a2,a1
20001f50:	00f8d6b3          	srl	a3,a7,a5
20001f54:	01075513          	srli	a0,a4,0x10
20001f58:	00f357b3          	srl	a5,t1,a5
20001f5c:	00b31833          	sll	a6,t1,a1
20001f60:	02a6d333          	divu	t1,a3,a0
20001f64:	01071613          	slli	a2,a4,0x10
20001f68:	00b898b3          	sll	a7,a7,a1
20001f6c:	01065613          	srli	a2,a2,0x10
20001f70:	0117e7b3          	or	a5,a5,a7
20001f74:	02a6f6b3          	remu	a3,a3,a0
20001f78:	026608b3          	mul	a7,a2,t1
20001f7c:	01069593          	slli	a1,a3,0x10
20001f80:	0107d693          	srli	a3,a5,0x10
20001f84:	00b6e6b3          	or	a3,a3,a1
20001f88:	00030593          	mv	a1,t1
20001f8c:	0116fe63          	bgeu	a3,a7,20001fa8 <__udivdi3+0x248>
20001f90:	00e686b3          	add	a3,a3,a4
20001f94:	fff30593          	addi	a1,t1,-1
20001f98:	00e6e863          	bltu	a3,a4,20001fa8 <__udivdi3+0x248>
20001f9c:	0116f663          	bgeu	a3,a7,20001fa8 <__udivdi3+0x248>
20001fa0:	ffe30593          	addi	a1,t1,-2
20001fa4:	00e686b3          	add	a3,a3,a4
20001fa8:	411686b3          	sub	a3,a3,a7
20001fac:	02a6d8b3          	divu	a7,a3,a0
20001fb0:	01079793          	slli	a5,a5,0x10
20001fb4:	0107d793          	srli	a5,a5,0x10
20001fb8:	02a6f6b3          	remu	a3,a3,a0
20001fbc:	03160633          	mul	a2,a2,a7
20001fc0:	01069693          	slli	a3,a3,0x10
20001fc4:	00d7e7b3          	or	a5,a5,a3
20001fc8:	00088693          	mv	a3,a7
20001fcc:	00c7fe63          	bgeu	a5,a2,20001fe8 <__udivdi3+0x288>
20001fd0:	00e787b3          	add	a5,a5,a4
20001fd4:	fff88693          	addi	a3,a7,-1
20001fd8:	00e7e863          	bltu	a5,a4,20001fe8 <__udivdi3+0x288>
20001fdc:	00c7f663          	bgeu	a5,a2,20001fe8 <__udivdi3+0x288>
20001fe0:	ffe88693          	addi	a3,a7,-2
20001fe4:	00e787b3          	add	a5,a5,a4
20001fe8:	01059593          	slli	a1,a1,0x10
20001fec:	40c787b3          	sub	a5,a5,a2
20001ff0:	00d5e5b3          	or	a1,a1,a3
20001ff4:	eb9ff06f          	j	20001eac <__udivdi3+0x14c>
20001ff8:	18d5e663          	bltu	a1,a3,20002184 <__udivdi3+0x424>
20001ffc:	000107b7          	lui	a5,0x10
20002000:	04f6f463          	bgeu	a3,a5,20002048 <__udivdi3+0x2e8>
20002004:	1006b713          	sltiu	a4,a3,256
20002008:	00174713          	xori	a4,a4,1
2000200c:	00371713          	slli	a4,a4,0x3
20002010:	200077b7          	lui	a5,0x20007
20002014:	00e6d5b3          	srl	a1,a3,a4
20002018:	57078793          	addi	a5,a5,1392 # 20007570 <__clz_tab>
2000201c:	00b787b3          	add	a5,a5,a1
20002020:	0007c783          	lbu	a5,0(a5)
20002024:	00e787b3          	add	a5,a5,a4
20002028:	02000713          	li	a4,32
2000202c:	40f705b3          	sub	a1,a4,a5
20002030:	02f71663          	bne	a4,a5,2000205c <__udivdi3+0x2fc>
20002034:	00100513          	li	a0,1
20002038:	e116eee3          	bltu	a3,a7,20001e54 <__udivdi3+0xf4>
2000203c:	00c33533          	sltu	a0,t1,a2
20002040:	00154513          	xori	a0,a0,1
20002044:	00008067          	ret
20002048:	010007b7          	lui	a5,0x1000
2000204c:	01000713          	li	a4,16
20002050:	fcf6e0e3          	bltu	a3,a5,20002010 <__udivdi3+0x2b0>
20002054:	01800713          	li	a4,24
20002058:	fb9ff06f          	j	20002010 <__udivdi3+0x2b0>
2000205c:	00f65733          	srl	a4,a2,a5
20002060:	00b696b3          	sll	a3,a3,a1
20002064:	00d766b3          	or	a3,a4,a3
20002068:	00f8d733          	srl	a4,a7,a5
2000206c:	00b898b3          	sll	a7,a7,a1
20002070:	00f357b3          	srl	a5,t1,a5
20002074:	0117e7b3          	or	a5,a5,a7
20002078:	0106d893          	srli	a7,a3,0x10
2000207c:	03175eb3          	divu	t4,a4,a7
20002080:	01069813          	slli	a6,a3,0x10
20002084:	01085813          	srli	a6,a6,0x10
20002088:	00b61633          	sll	a2,a2,a1
2000208c:	03177733          	remu	a4,a4,a7
20002090:	03d80e33          	mul	t3,a6,t4
20002094:	01071513          	slli	a0,a4,0x10
20002098:	0107d713          	srli	a4,a5,0x10
2000209c:	00a76733          	or	a4,a4,a0
200020a0:	000e8513          	mv	a0,t4
200020a4:	01c77e63          	bgeu	a4,t3,200020c0 <__udivdi3+0x360>
200020a8:	00d70733          	add	a4,a4,a3
200020ac:	fffe8513          	addi	a0,t4,-1
200020b0:	00d76863          	bltu	a4,a3,200020c0 <__udivdi3+0x360>
200020b4:	01c77663          	bgeu	a4,t3,200020c0 <__udivdi3+0x360>
200020b8:	ffee8513          	addi	a0,t4,-2
200020bc:	00d70733          	add	a4,a4,a3
200020c0:	41c70733          	sub	a4,a4,t3
200020c4:	03175e33          	divu	t3,a4,a7
200020c8:	01079793          	slli	a5,a5,0x10
200020cc:	0107d793          	srli	a5,a5,0x10
200020d0:	03177733          	remu	a4,a4,a7
200020d4:	03c80833          	mul	a6,a6,t3
200020d8:	01071713          	slli	a4,a4,0x10
200020dc:	00e7e7b3          	or	a5,a5,a4
200020e0:	000e0713          	mv	a4,t3
200020e4:	0107fe63          	bgeu	a5,a6,20002100 <__udivdi3+0x3a0>
200020e8:	00d787b3          	add	a5,a5,a3
200020ec:	fffe0713          	addi	a4,t3,-1
200020f0:	00d7e863          	bltu	a5,a3,20002100 <__udivdi3+0x3a0>
200020f4:	0107f663          	bgeu	a5,a6,20002100 <__udivdi3+0x3a0>
200020f8:	ffee0713          	addi	a4,t3,-2
200020fc:	00d787b3          	add	a5,a5,a3
20002100:	01051513          	slli	a0,a0,0x10
20002104:	00010e37          	lui	t3,0x10
20002108:	00e56533          	or	a0,a0,a4
2000210c:	fffe0693          	addi	a3,t3,-1 # ffff <_start-0x1fff0001>
20002110:	00d57733          	and	a4,a0,a3
20002114:	410787b3          	sub	a5,a5,a6
20002118:	00d676b3          	and	a3,a2,a3
2000211c:	01055813          	srli	a6,a0,0x10
20002120:	01065613          	srli	a2,a2,0x10
20002124:	02d708b3          	mul	a7,a4,a3
20002128:	02d806b3          	mul	a3,a6,a3
2000212c:	02c70733          	mul	a4,a4,a2
20002130:	02c80833          	mul	a6,a6,a2
20002134:	00d70633          	add	a2,a4,a3
20002138:	0108d713          	srli	a4,a7,0x10
2000213c:	00c70733          	add	a4,a4,a2
20002140:	00d77463          	bgeu	a4,a3,20002148 <__udivdi3+0x3e8>
20002144:	01c80833          	add	a6,a6,t3
20002148:	01075693          	srli	a3,a4,0x10
2000214c:	010686b3          	add	a3,a3,a6
20002150:	02d7e663          	bltu	a5,a3,2000217c <__udivdi3+0x41c>
20002154:	ced79ee3          	bne	a5,a3,20001e50 <__udivdi3+0xf0>
20002158:	000107b7          	lui	a5,0x10
2000215c:	fff78793          	addi	a5,a5,-1 # ffff <_start-0x1fff0001>
20002160:	00f77733          	and	a4,a4,a5
20002164:	01071713          	slli	a4,a4,0x10
20002168:	00f8f8b3          	and	a7,a7,a5
2000216c:	00b31333          	sll	t1,t1,a1
20002170:	01170733          	add	a4,a4,a7
20002174:	00000593          	li	a1,0
20002178:	cce37ee3          	bgeu	t1,a4,20001e54 <__udivdi3+0xf4>
2000217c:	fff50513          	addi	a0,a0,-1 # ffffff <_start-0x1f000001>
20002180:	cd1ff06f          	j	20001e50 <__udivdi3+0xf0>
20002184:	00000593          	li	a1,0
20002188:	00000513          	li	a0,0
2000218c:	00008067          	ret

20002190 <_Z10HandleUARTv>:
20002190:	00008797          	auipc	a5,0x8
20002194:	3dc7a783          	lw	a5,988(a5) # 2000a56c <_GLOBAL_OFFSET_TABLE_+0x5c>
20002198:	0007a703          	lw	a4,0(a5)
2000219c:	00008797          	auipc	a5,0x8
200021a0:	38c7a783          	lw	a5,908(a5) # 2000a528 <_GLOBAL_OFFSET_TABLE_+0x18>
200021a4:	0007a683          	lw	a3,0(a5)
200021a8:	00008797          	auipc	a5,0x8
200021ac:	3b87a783          	lw	a5,952(a5) # 2000a560 <_GLOBAL_OFFSET_TABLE_+0x50>
200021b0:	0007a603          	lw	a2,0(a5)
200021b4:	00072783          	lw	a5,0(a4)
200021b8:	0017f793          	andi	a5,a5,1
200021bc:	00079463          	bnez	a5,200021c4 <_Z10HandleUARTv+0x34>
200021c0:	0d40106f          	j	20003294 <_Z9UARTFlushv>
200021c4:	0006a783          	lw	a5,0(a3) # 10000 <_start-0x1fff0000>
200021c8:	0ff7f793          	zext.b	a5,a5
200021cc:	00f62023          	sw	a5,0(a2)
200021d0:	fe5ff06f          	j	200021b4 <_Z10HandleUARTv+0x24>

200021d4 <_Z13HandleButtonsv>:
200021d4:	fe010113          	addi	sp,sp,-32
200021d8:	00812c23          	sw	s0,24(sp)
200021dc:	00912a23          	sw	s1,20(sp)
200021e0:	01212823          	sw	s2,16(sp)
200021e4:	01312623          	sw	s3,12(sp)
200021e8:	00112e23          	sw	ra,28(sp)
200021ec:	01412423          	sw	s4,8(sp)
200021f0:	00008417          	auipc	s0,0x8
200021f4:	39442403          	lw	s0,916(s0) # 2000a584 <_GLOBAL_OFFSET_TABLE_+0x74>
200021f8:	00008497          	auipc	s1,0x8
200021fc:	3504a483          	lw	s1,848(s1) # 2000a548 <_GLOBAL_OFFSET_TABLE_+0x38>
20002200:	00005917          	auipc	s2,0x5
20002204:	47090913          	addi	s2,s2,1136 # 20007670 <__clz_tab+0x100>
20002208:	00006997          	auipc	s3,0x6
2000220c:	b2498993          	addi	s3,s3,-1244 # 20007d2c <__clz_tab+0x7bc>
20002210:	00042783          	lw	a5,0(s0)
20002214:	0007a783          	lw	a5,0(a5)
20002218:	02079263          	bnez	a5,2000223c <_Z13HandleButtonsv+0x68>
2000221c:	01c12083          	lw	ra,28(sp)
20002220:	01812403          	lw	s0,24(sp)
20002224:	01412483          	lw	s1,20(sp)
20002228:	01012903          	lw	s2,16(sp)
2000222c:	00c12983          	lw	s3,12(sp)
20002230:	00812a03          	lw	s4,8(sp)
20002234:	02010113          	addi	sp,sp,32
20002238:	00008067          	ret
2000223c:	0004a783          	lw	a5,0(s1)
20002240:	00090513          	mv	a0,s2
20002244:	0007aa03          	lw	s4,0(a5)
20002248:	0bc010ef          	jal	ra,20003304 <_Z9UARTWritePKc>
2000224c:	000a0513          	mv	a0,s4
20002250:	188010ef          	jal	ra,200033d8 <_Z12UARTWriteHexm>
20002254:	00098513          	mv	a0,s3
20002258:	0ac010ef          	jal	ra,20003304 <_Z9UARTWritePKc>
2000225c:	fb5ff06f          	j	20002210 <_Z13HandleButtonsv+0x3c>

20002260 <_Z11HandleTimerv>:
20002260:	ff010113          	addi	sp,sp,-16
20002264:	00008797          	auipc	a5,0x8
20002268:	2f47a783          	lw	a5,756(a5) # 2000a558 <_GLOBAL_OFFSET_TABLE_+0x48>
2000226c:	0007a783          	lw	a5,0(a5)
20002270:	00812423          	sw	s0,8(sp)
20002274:	c8018413          	addi	s0,gp,-896 # 2000aa10 <_ZL16numdetectedharts>
20002278:	00042683          	lw	a3,0(s0)
2000227c:	e32ec637          	lui	a2,0xe32ec
20002280:	00478713          	addi	a4,a5,4
20002284:	00112623          	sw	ra,12(sp)
20002288:	02078793          	addi	a5,a5,32
2000228c:	00000593          	li	a1,0
20002290:	abe60613          	addi	a2,a2,-1346 # e32ebabe <_end+0xc32dc486>
20002294:	00072503          	lw	a0,0(a4)
20002298:	00c51663          	bne	a0,a2,200022a4 <_Z11HandleTimerv+0x44>
2000229c:	00168693          	addi	a3,a3,1
200022a0:	00100593          	li	a1,1
200022a4:	00470713          	addi	a4,a4,4
200022a8:	fef716e3          	bne	a4,a5,20002294 <_Z11HandleTimerv+0x34>
200022ac:	00058463          	beqz	a1,200022b4 <_Z11HandleTimerv+0x54>
200022b0:	00d42023          	sw	a3,0(s0)
200022b4:	00005517          	auipc	a0,0x5
200022b8:	3d450513          	addi	a0,a0,980 # 20007688 <__clz_tab+0x118>
200022bc:	048010ef          	jal	ra,20003304 <_Z9UARTWritePKc>
200022c0:	00005517          	auipc	a0,0x5
200022c4:	41c50513          	addi	a0,a0,1052 # 200076dc <__clz_tab+0x16c>
200022c8:	03c010ef          	jal	ra,20003304 <_Z9UARTWritePKc>
200022cc:	00005517          	auipc	a0,0x5
200022d0:	45050513          	addi	a0,a0,1104 # 2000771c <__clz_tab+0x1ac>
200022d4:	030010ef          	jal	ra,20003304 <_Z9UARTWritePKc>
200022d8:	00005517          	auipc	a0,0x5
200022dc:	49050513          	addi	a0,a0,1168 # 20007768 <__clz_tab+0x1f8>
200022e0:	024010ef          	jal	ra,20003304 <_Z9UARTWritePKc>
200022e4:	00005517          	auipc	a0,0x5
200022e8:	4d050513          	addi	a0,a0,1232 # 200077b4 <__clz_tab+0x244>
200022ec:	018010ef          	jal	ra,20003304 <_Z9UARTWritePKc>
200022f0:	00005517          	auipc	a0,0x5
200022f4:	50c50513          	addi	a0,a0,1292 # 200077fc <__clz_tab+0x28c>
200022f8:	00c010ef          	jal	ra,20003304 <_Z9UARTWritePKc>
200022fc:	00005517          	auipc	a0,0x5
20002300:	53c50513          	addi	a0,a0,1340 # 20007838 <__clz_tab+0x2c8>
20002304:	000010ef          	jal	ra,20003304 <_Z9UARTWritePKc>
20002308:	00005517          	auipc	a0,0x5
2000230c:	57450513          	addi	a0,a0,1396 # 2000787c <__clz_tab+0x30c>
20002310:	7f5000ef          	jal	ra,20003304 <_Z9UARTWritePKc>
20002314:	00005517          	auipc	a0,0x5
20002318:	5ac50513          	addi	a0,a0,1452 # 200078c0 <__clz_tab+0x350>
2000231c:	7e9000ef          	jal	ra,20003304 <_Z9UARTWritePKc>
20002320:	00005517          	auipc	a0,0x5
20002324:	5e450513          	addi	a0,a0,1508 # 20007904 <__clz_tab+0x394>
20002328:	7dd000ef          	jal	ra,20003304 <_Z9UARTWritePKc>
2000232c:	00005517          	auipc	a0,0x5
20002330:	61c50513          	addi	a0,a0,1564 # 20007948 <__clz_tab+0x3d8>
20002334:	7d1000ef          	jal	ra,20003304 <_Z9UARTWritePKc>
20002338:	00005517          	auipc	a0,0x5
2000233c:	65c50513          	addi	a0,a0,1628 # 20007994 <__clz_tab+0x424>
20002340:	7c5000ef          	jal	ra,20003304 <_Z9UARTWritePKc>
20002344:	00005517          	auipc	a0,0x5
20002348:	67450513          	addi	a0,a0,1652 # 200079b8 <__clz_tab+0x448>
2000234c:	7b9000ef          	jal	ra,20003304 <_Z9UARTWritePKc>
20002350:	00005517          	auipc	a0,0x5
20002354:	68c50513          	addi	a0,a0,1676 # 200079dc <__clz_tab+0x46c>
20002358:	7ad000ef          	jal	ra,20003304 <_Z9UARTWritePKc>
2000235c:	00005517          	auipc	a0,0x5
20002360:	63850513          	addi	a0,a0,1592 # 20007994 <__clz_tab+0x424>
20002364:	7a1000ef          	jal	ra,20003304 <_Z9UARTWritePKc>
20002368:	00005517          	auipc	a0,0x5
2000236c:	69850513          	addi	a0,a0,1688 # 20007a00 <__clz_tab+0x490>
20002370:	795000ef          	jal	ra,20003304 <_Z9UARTWritePKc>
20002374:	00042503          	lw	a0,0(s0)
20002378:	168010ef          	jal	ra,200034e0 <_Z16UARTWriteDecimall>
2000237c:	00005517          	auipc	a0,0x5
20002380:	62450513          	addi	a0,a0,1572 # 200079a0 <__clz_tab+0x430>
20002384:	781000ef          	jal	ra,20003304 <_Z9UARTWritePKc>
20002388:	00005517          	auipc	a0,0x5
2000238c:	68450513          	addi	a0,a0,1668 # 20007a0c <__clz_tab+0x49c>
20002390:	775000ef          	jal	ra,20003304 <_Z9UARTWritePKc>
20002394:	fff00793          	li	a5,-1
20002398:	80179773          	csrrw	a4,0x801,a5
2000239c:	800797f3          	csrrw	a5,0x800,a5
200023a0:	00c12083          	lw	ra,12(sp)
200023a4:	00812403          	lw	s0,8(sp)
200023a8:	01010113          	addi	sp,sp,16
200023ac:	00008067          	ret

200023b0 <_Z14HandleKeyboardv>:
200023b0:	fd010113          	addi	sp,sp,-48
200023b4:	02912223          	sw	s1,36(sp)
200023b8:	03212023          	sw	s2,32(sp)
200023bc:	02112623          	sw	ra,44(sp)
200023c0:	02812423          	sw	s0,40(sp)
200023c4:	01312e23          	sw	s3,28(sp)
200023c8:	01412c23          	sw	s4,24(sp)
200023cc:	01512a23          	sw	s5,20(sp)
200023d0:	01612823          	sw	s6,16(sp)
200023d4:	00008497          	auipc	s1,0x8
200023d8:	1584a483          	lw	s1,344(s1) # 2000a52c <_GLOBAL_OFFSET_TABLE_+0x1c>
200023dc:	00008917          	auipc	s2,0x8
200023e0:	19492903          	lw	s2,404(s2) # 2000a570 <_GLOBAL_OFFSET_TABLE_+0x60>
200023e4:	0004a783          	lw	a5,0(s1)
200023e8:	0007a403          	lw	s0,0(a5)
200023ec:	06041263          	bnez	s0,20002450 <_Z14HandleKeyboardv+0xa0>
200023f0:	00008497          	auipc	s1,0x8
200023f4:	1304a483          	lw	s1,304(s1) # 2000a520 <_GLOBAL_OFFSET_TABLE_+0x10>
200023f8:	00008917          	auipc	s2,0x8
200023fc:	17892903          	lw	s2,376(s2) # 2000a570 <_GLOBAL_OFFSET_TABLE_+0x60>
20002400:	0aa00a93          	li	s5,170
20002404:	00c10a13          	addi	s4,sp,12
20002408:	00008997          	auipc	s3,0x8
2000240c:	16c9a983          	lw	s3,364(s3) # 2000a574 <_GLOBAL_OFFSET_TABLE_+0x64>
20002410:	10000b13          	li	s6,256
20002414:	05541463          	bne	s0,s5,2000245c <_Z14HandleKeyboardv+0xac>
20002418:	00140413          	addi	s0,s0,1
2000241c:	00248493          	addi	s1,s1,2
20002420:	00290913          	addi	s2,s2,2
20002424:	ff6418e3          	bne	s0,s6,20002414 <_Z14HandleKeyboardv+0x64>
20002428:	02c12083          	lw	ra,44(sp)
2000242c:	02812403          	lw	s0,40(sp)
20002430:	02412483          	lw	s1,36(sp)
20002434:	02012903          	lw	s2,32(sp)
20002438:	01c12983          	lw	s3,28(sp)
2000243c:	01812a03          	lw	s4,24(sp)
20002440:	01412a83          	lw	s5,20(sp)
20002444:	01012b03          	lw	s6,16(sp)
20002448:	03010113          	addi	sp,sp,48
2000244c:	00008067          	ret
20002450:	00090513          	mv	a0,s2
20002454:	5fc010ef          	jal	ra,20003a50 <_Z12ScanKeyboardPt>
20002458:	f8dff06f          	j	200023e4 <_Z14HandleKeyboardv+0x34>
2000245c:	00095783          	lhu	a5,0(s2)
20002460:	0004d703          	lhu	a4,0(s1)
20002464:	00f12623          	sw	a5,12(sp)
20002468:	fae788e3          	beq	a5,a4,20002418 <_Z14HandleKeyboardv+0x68>
2000246c:	0009a503          	lw	a0,0(s3)
20002470:	00f49023          	sh	a5,0(s1)
20002474:	00400613          	li	a2,4
20002478:	000a0593          	mv	a1,s4
2000247c:	540010ef          	jal	ra,200039bc <_Z15RingBufferWritePhPKvm>
20002480:	f99ff06f          	j	20002418 <_Z14HandleKeyboardv+0x68>

20002484 <_Z10HandleTrapmmmm>:
20002484:	00300793          	li	a5,3
20002488:	16f50063          	beq	a0,a5,200025e8 <_Z10HandleTrapmmmm+0x164>
2000248c:	fe010113          	addi	sp,sp,-32
20002490:	00812c23          	sw	s0,24(sp)
20002494:	00912a23          	sw	s1,20(sp)
20002498:	00112e23          	sw	ra,28(sp)
2000249c:	01212823          	sw	s2,16(sp)
200024a0:	01312623          	sw	s3,12(sp)
200024a4:	00b00793          	li	a5,11
200024a8:	00050413          	mv	s0,a0
200024ac:	00068493          	mv	s1,a3
200024b0:	08f51e63          	bne	a0,a5,2000254c <_Z10HandleTrapmmmm+0xc8>
200024b4:	00005517          	auipc	a0,0x5
200024b8:	5ac50513          	addi	a0,a0,1452 # 20007a60 <__clz_tab+0x4f0>
200024bc:	00058993          	mv	s3,a1
200024c0:	645000ef          	jal	ra,20003304 <_Z9UARTWritePKc>
200024c4:	00005517          	auipc	a0,0x5
200024c8:	5a850513          	addi	a0,a0,1448 # 20007a6c <__clz_tab+0x4fc>
200024cc:	639000ef          	jal	ra,20003304 <_Z9UARTWritePKc>
200024d0:	00005517          	auipc	a0,0x5
200024d4:	64050513          	addi	a0,a0,1600 # 20007b10 <__clz_tab+0x5a0>
200024d8:	62d000ef          	jal	ra,20003304 <_Z9UARTWritePKc>
200024dc:	00005517          	auipc	a0,0x5
200024e0:	67050513          	addi	a0,a0,1648 # 20007b4c <__clz_tab+0x5dc>
200024e4:	621000ef          	jal	ra,20003304 <_Z9UARTWritePKc>
200024e8:	00005517          	auipc	a0,0x5
200024ec:	6a050513          	addi	a0,a0,1696 # 20007b88 <__clz_tab+0x618>
200024f0:	615000ef          	jal	ra,20003304 <_Z9UARTWritePKc>
200024f4:	00098513          	mv	a0,s3
200024f8:	6e1000ef          	jal	ra,200033d8 <_Z12UARTWriteHexm>
200024fc:	00005517          	auipc	a0,0x5
20002500:	69450513          	addi	a0,a0,1684 # 20007b90 <__clz_tab+0x620>
20002504:	601000ef          	jal	ra,20003304 <_Z9UARTWritePKc>
20002508:	00048513          	mv	a0,s1
2000250c:	6cd000ef          	jal	ra,200033d8 <_Z12UARTWriteHexm>
20002510:	00005517          	auipc	a0,0x5
20002514:	68450513          	addi	a0,a0,1668 # 20007b94 <__clz_tab+0x624>
20002518:	5ed000ef          	jal	ra,20003304 <_Z9UARTWritePKc>
2000251c:	00005517          	auipc	a0,0x5
20002520:	69c50513          	addi	a0,a0,1692 # 20007bb8 <__clz_tab+0x648>
20002524:	5e1000ef          	jal	ra,20003304 <_Z9UARTWritePKc>
20002528:	01812403          	lw	s0,24(sp)
2000252c:	01c12083          	lw	ra,28(sp)
20002530:	01412483          	lw	s1,20(sp)
20002534:	01012903          	lw	s2,16(sp)
20002538:	00c12983          	lw	s3,12(sp)
2000253c:	00005517          	auipc	a0,0x5
20002540:	72050513          	addi	a0,a0,1824 # 20007c5c <__clz_tab+0x6ec>
20002544:	02010113          	addi	sp,sp,32
20002548:	5bd0006f          	j	20003304 <_Z9UARTWritePKc>
2000254c:	00005517          	auipc	a0,0x5
20002550:	71850513          	addi	a0,a0,1816 # 20007c64 <__clz_tab+0x6f4>
20002554:	00060913          	mv	s2,a2
20002558:	5ad000ef          	jal	ra,20003304 <_Z9UARTWritePKc>
2000255c:	00005517          	auipc	a0,0x5
20002560:	50450513          	addi	a0,a0,1284 # 20007a60 <__clz_tab+0x4f0>
20002564:	5a1000ef          	jal	ra,20003304 <_Z9UARTWritePKc>
20002568:	00005517          	auipc	a0,0x5
2000256c:	50450513          	addi	a0,a0,1284 # 20007a6c <__clz_tab+0x4fc>
20002570:	595000ef          	jal	ra,20003304 <_Z9UARTWritePKc>
20002574:	00005517          	auipc	a0,0x5
20002578:	6f850513          	addi	a0,a0,1784 # 20007c6c <__clz_tab+0x6fc>
2000257c:	589000ef          	jal	ra,20003304 <_Z9UARTWritePKc>
20002580:	00005517          	auipc	a0,0x5
20002584:	72850513          	addi	a0,a0,1832 # 20007ca8 <__clz_tab+0x738>
20002588:	57d000ef          	jal	ra,20003304 <_Z9UARTWritePKc>
2000258c:	00040513          	mv	a0,s0
20002590:	649000ef          	jal	ra,200033d8 <_Z12UARTWriteHexm>
20002594:	00005517          	auipc	a0,0x5
20002598:	72c50513          	addi	a0,a0,1836 # 20007cc0 <__clz_tab+0x750>
2000259c:	569000ef          	jal	ra,20003304 <_Z9UARTWritePKc>
200025a0:	00090513          	mv	a0,s2
200025a4:	635000ef          	jal	ra,200033d8 <_Z12UARTWriteHexm>
200025a8:	00005517          	auipc	a0,0x5
200025ac:	5e850513          	addi	a0,a0,1512 # 20007b90 <__clz_tab+0x620>
200025b0:	555000ef          	jal	ra,20003304 <_Z9UARTWritePKc>
200025b4:	00048513          	mv	a0,s1
200025b8:	621000ef          	jal	ra,200033d8 <_Z12UARTWriteHexm>
200025bc:	00005517          	auipc	a0,0x5
200025c0:	3f050513          	addi	a0,a0,1008 # 200079ac <__clz_tab+0x43c>
200025c4:	541000ef          	jal	ra,20003304 <_Z9UARTWritePKc>
200025c8:	00005517          	auipc	a0,0x5
200025cc:	5f050513          	addi	a0,a0,1520 # 20007bb8 <__clz_tab+0x648>
200025d0:	535000ef          	jal	ra,20003304 <_Z9UARTWritePKc>
200025d4:	00005517          	auipc	a0,0x5
200025d8:	68850513          	addi	a0,a0,1672 # 20007c5c <__clz_tab+0x6ec>
200025dc:	529000ef          	jal	ra,20003304 <_Z9UARTWritePKc>
200025e0:	10500073          	wfi
200025e4:	ffdff06f          	j	200025e0 <_Z10HandleTrapmmmm+0x15c>
200025e8:	00008067          	ret
200025ec:	0000                	unimp
	...

200025f0 <_Z25interrupt_service_routinev>:
200025f0:	fa010113          	addi	sp,sp,-96
200025f4:	04112e23          	sw	ra,92(sp)
200025f8:	04512c23          	sw	t0,88(sp)
200025fc:	04612a23          	sw	t1,84(sp)
20002600:	04712823          	sw	t2,80(sp)
20002604:	04812623          	sw	s0,76(sp)
20002608:	04a12423          	sw	a0,72(sp)
2000260c:	04b12223          	sw	a1,68(sp)
20002610:	04c12023          	sw	a2,64(sp)
20002614:	02d12e23          	sw	a3,60(sp)
20002618:	02e12c23          	sw	a4,56(sp)
2000261c:	02f12a23          	sw	a5,52(sp)
20002620:	03012823          	sw	a6,48(sp)
20002624:	03112623          	sw	a7,44(sp)
20002628:	03c12423          	sw	t3,40(sp)
2000262c:	03d12223          	sw	t4,36(sp)
20002630:	03e12023          	sw	t5,32(sp)
20002634:	01f12e23          	sw	t6,28(sp)
20002638:	01112623          	sw	a7,12(sp)
2000263c:	34302473          	csrr	s0,mtval
20002640:	34202573          	csrr	a0,mcause
20002644:	341026f3          	csrr	a3,mepc
20002648:	08055a63          	bgez	a0,200026dc <_Z25interrupt_service_routinev+0xec>
2000264c:	00151513          	slli	a0,a0,0x1
20002650:	00155513          	srli	a0,a0,0x1
20002654:	00b00793          	li	a5,11
20002658:	06f51a63          	bne	a0,a5,200026cc <_Z25interrupt_service_routinev+0xdc>
2000265c:	00147793          	andi	a5,s0,1
20002660:	00078463          	beqz	a5,20002668 <_Z25interrupt_service_routinev+0x78>
20002664:	b2dff0ef          	jal	ra,20002190 <_Z10HandleUARTv>
20002668:	00247793          	andi	a5,s0,2
2000266c:	00078463          	beqz	a5,20002674 <_Z25interrupt_service_routinev+0x84>
20002670:	b65ff0ef          	jal	ra,200021d4 <_Z13HandleButtonsv>
20002674:	00447413          	andi	s0,s0,4
20002678:	00040463          	beqz	s0,20002680 <_Z25interrupt_service_routinev+0x90>
2000267c:	d35ff0ef          	jal	ra,200023b0 <_Z14HandleKeyboardv>
20002680:	04c12403          	lw	s0,76(sp)
20002684:	05c12083          	lw	ra,92(sp)
20002688:	05812283          	lw	t0,88(sp)
2000268c:	05412303          	lw	t1,84(sp)
20002690:	05012383          	lw	t2,80(sp)
20002694:	04812503          	lw	a0,72(sp)
20002698:	04412583          	lw	a1,68(sp)
2000269c:	04012603          	lw	a2,64(sp)
200026a0:	03c12683          	lw	a3,60(sp)
200026a4:	03812703          	lw	a4,56(sp)
200026a8:	03412783          	lw	a5,52(sp)
200026ac:	03012803          	lw	a6,48(sp)
200026b0:	02c12883          	lw	a7,44(sp)
200026b4:	02812e03          	lw	t3,40(sp)
200026b8:	02412e83          	lw	t4,36(sp)
200026bc:	02012f03          	lw	t5,32(sp)
200026c0:	01c12f83          	lw	t6,28(sp)
200026c4:	06010113          	addi	sp,sp,96
200026c8:	30200073          	mret
200026cc:	00700793          	li	a5,7
200026d0:	faf518e3          	bne	a0,a5,20002680 <_Z25interrupt_service_routinev+0x90>
200026d4:	b8dff0ef          	jal	ra,20002260 <_Z11HandleTimerv>
200026d8:	fa9ff06f          	j	20002680 <_Z25interrupt_service_routinev+0x90>
200026dc:	00c12583          	lw	a1,12(sp)
200026e0:	ffc68693          	addi	a3,a3,-4
200026e4:	00040613          	mv	a2,s0
200026e8:	d9dff0ef          	jal	ra,20002484 <_Z10HandleTrapmmmm>
200026ec:	f95ff06f          	j	20002680 <_Z25interrupt_service_routinev+0x90>

200026f0 <_Z10InstallISRv>:
200026f0:	ff010113          	addi	sp,sp,-16
200026f4:	00112623          	sw	ra,12(sp)
200026f8:	00008797          	auipc	a5,0x8
200026fc:	e807a783          	lw	a5,-384(a5) # 2000a578 <_GLOBAL_OFFSET_TABLE_+0x68>
20002700:	305797f3          	csrrw	a5,mtvec,a5
20002704:	6b9000ef          	jal	ra,200035bc <_Z11E32ReadTimev>
20002708:	00050793          	mv	a5,a0
2000270c:	00989537          	lui	a0,0x989
20002710:	68050513          	addi	a0,a0,1664 # 989680 <_start-0x1f676980>
20002714:	00a78533          	add	a0,a5,a0
20002718:	00f537b3          	sltu	a5,a0,a5
2000271c:	00b785b3          	add	a1,a5,a1
20002720:	6f5000ef          	jal	ra,20003614 <_Z17E32SetTimeComparey>
20002724:	000017b7          	lui	a5,0x1
20002728:	88878793          	addi	a5,a5,-1912 # 888 <_start-0x1ffff778>
2000272c:	304797f3          	csrrw	a5,mie,a5
20002730:	300457f3          	csrrwi	a5,mstatus,8
20002734:	00c12083          	lw	ra,12(sp)
20002738:	01010113          	addi	sp,sp,16
2000273c:	00008067          	ret

20002740 <_Z13HandleHARTIRQm>:
20002740:	fe010113          	addi	sp,sp,-32
20002744:	01312623          	sw	s3,12(sp)
20002748:	00008997          	auipc	s3,0x8
2000274c:	e109a983          	lw	s3,-496(s3) # 2000a558 <_GLOBAL_OFFSET_TABLE_+0x48>
20002750:	0009a703          	lw	a4,0(s3)
20002754:	01212823          	sw	s2,16(sp)
20002758:	00251913          	slli	s2,a0,0x2
2000275c:	012707b3          	add	a5,a4,s2
20002760:	0007a683          	lw	a3,0(a5)
20002764:	00812c23          	sw	s0,24(sp)
20002768:	00112e23          	sw	ra,28(sp)
2000276c:	00912a23          	sw	s1,20(sp)
20002770:	00100613          	li	a2,1
20002774:	00050413          	mv	s0,a0
20002778:	04c68663          	beq	a3,a2,200027c4 <_Z13HandleHARTIRQm+0x84>
2000277c:	00200713          	li	a4,2
20002780:	00e68a63          	beq	a3,a4,20002794 <_Z13HandleHARTIRQm+0x54>
20002784:	08069663          	bnez	a3,20002810 <_Z13HandleHARTIRQm+0xd0>
20002788:	e32ec737          	lui	a4,0xe32ec
2000278c:	abe70713          	addi	a4,a4,-1346 # e32ebabe <_end+0xc32dc486>
20002790:	00e7a023          	sw	a4,0(a5)
20002794:	00008797          	auipc	a5,0x8
20002798:	dc07a783          	lw	a5,-576(a5) # 2000a554 <_GLOBAL_OFFSET_TABLE_+0x44>
2000279c:	0007a783          	lw	a5,0(a5)
200027a0:	008787b3          	add	a5,a5,s0
200027a4:	00078023          	sb	zero,0(a5)
200027a8:	01c12083          	lw	ra,28(sp)
200027ac:	01812403          	lw	s0,24(sp)
200027b0:	01412483          	lw	s1,20(sp)
200027b4:	01012903          	lw	s2,16(sp)
200027b8:	00c12983          	lw	s3,12(sp)
200027bc:	02010113          	addi	sp,sp,32
200027c0:	00008067          	ret
200027c4:	00250793          	addi	a5,a0,2
200027c8:	00479793          	slli	a5,a5,0x4
200027cc:	00f706b3          	add	a3,a4,a5
200027d0:	00478793          	addi	a5,a5,4
200027d4:	00f70733          	add	a4,a4,a5
200027d8:	0006a683          	lw	a3,0(a3)
200027dc:	00072483          	lw	s1,0(a4)
200027e0:	1fff07b7          	lui	a5,0x1fff0
200027e4:	00b51713          	slli	a4,a0,0xb
200027e8:	00e787b3          	add	a5,a5,a4
200027ec:	0097a223          	sw	s1,4(a5) # 1fff0004 <_start-0xfffc>
200027f0:	00d7a023          	sw	a3,0(a5)
200027f4:	5c9000ef          	jal	ra,200035bc <_Z11E32ReadTimev>
200027f8:	00a48533          	add	a0,s1,a0
200027fc:	009534b3          	sltu	s1,a0,s1
20002800:	00b485b3          	add	a1,s1,a1
20002804:	611000ef          	jal	ra,20003614 <_Z17E32SetTimeComparey>
20002808:	0009a783          	lw	a5,0(s3)
2000280c:	012787b3          	add	a5,a5,s2
20002810:	0007a023          	sw	zero,0(a5)
20002814:	f81ff06f          	j	20002794 <_Z13HandleHARTIRQm+0x54>
	...

20002820 <_Z32worker_interrupt_service_routinev>:
20002820:	fa010113          	addi	sp,sp,-96
20002824:	04112e23          	sw	ra,92(sp)
20002828:	04512c23          	sw	t0,88(sp)
2000282c:	04612a23          	sw	t1,84(sp)
20002830:	04712823          	sw	t2,80(sp)
20002834:	04812623          	sw	s0,76(sp)
20002838:	04912423          	sw	s1,72(sp)
2000283c:	04a12223          	sw	a0,68(sp)
20002840:	04b12023          	sw	a1,64(sp)
20002844:	02c12e23          	sw	a2,60(sp)
20002848:	02d12c23          	sw	a3,56(sp)
2000284c:	02e12a23          	sw	a4,52(sp)
20002850:	02f12823          	sw	a5,48(sp)
20002854:	03012623          	sw	a6,44(sp)
20002858:	03112423          	sw	a7,40(sp)
2000285c:	03c12223          	sw	t3,36(sp)
20002860:	03d12023          	sw	t4,32(sp)
20002864:	01e12e23          	sw	t5,28(sp)
20002868:	01f12c23          	sw	t6,24(sp)
2000286c:	01112623          	sw	a7,12(sp)
20002870:	34302773          	csrr	a4,mtval
20002874:	342027f3          	csrr	a5,mcause
20002878:	f1402573          	csrr	a0,mhartid
2000287c:	0207d063          	bgez	a5,2000289c <_Z32worker_interrupt_service_routinev+0x7c>
20002880:	00179793          	slli	a5,a5,0x1
20002884:	0017d793          	srli	a5,a5,0x1
20002888:	00b00693          	li	a3,11
2000288c:	06d79063          	bne	a5,a3,200028ec <_Z32worker_interrupt_service_routinev+0xcc>
20002890:	01077793          	andi	a5,a4,16
20002894:	00078463          	beqz	a5,2000289c <_Z32worker_interrupt_service_routinev+0x7c>
20002898:	ea9ff0ef          	jal	ra,20002740 <_Z13HandleHARTIRQm>
2000289c:	04c12403          	lw	s0,76(sp)
200028a0:	05c12083          	lw	ra,92(sp)
200028a4:	05812283          	lw	t0,88(sp)
200028a8:	05412303          	lw	t1,84(sp)
200028ac:	05012383          	lw	t2,80(sp)
200028b0:	04812483          	lw	s1,72(sp)
200028b4:	04412503          	lw	a0,68(sp)
200028b8:	04012583          	lw	a1,64(sp)
200028bc:	03c12603          	lw	a2,60(sp)
200028c0:	03812683          	lw	a3,56(sp)
200028c4:	03412703          	lw	a4,52(sp)
200028c8:	03012783          	lw	a5,48(sp)
200028cc:	02c12803          	lw	a6,44(sp)
200028d0:	02812883          	lw	a7,40(sp)
200028d4:	02412e03          	lw	t3,36(sp)
200028d8:	02012e83          	lw	t4,32(sp)
200028dc:	01c12f03          	lw	t5,28(sp)
200028e0:	01812f83          	lw	t6,24(sp)
200028e4:	06010113          	addi	sp,sp,96
200028e8:	30200073          	mret
200028ec:	00700713          	li	a4,7
200028f0:	fae796e3          	bne	a5,a4,2000289c <_Z32worker_interrupt_service_routinev+0x7c>
200028f4:	00b51793          	slli	a5,a0,0xb
200028f8:	1fff0437          	lui	s0,0x1fff0
200028fc:	00f404b3          	add	s1,s0,a5
20002900:	0004a703          	lw	a4,0(s1)
20002904:	00478793          	addi	a5,a5,4
20002908:	00f40433          	add	s0,s0,a5
2000290c:	02070463          	beqz	a4,20002934 <_Z32worker_interrupt_service_routinev+0x114>
20002910:	000700e7          	jalr	a4
20002914:	02050063          	beqz	a0,20002934 <_Z32worker_interrupt_service_routinev+0x114>
20002918:	00042403          	lw	s0,0(s0) # 1fff0000 <_start-0x10000>
2000291c:	4a1000ef          	jal	ra,200035bc <_Z11E32ReadTimev>
20002920:	00a40533          	add	a0,s0,a0
20002924:	00853433          	sltu	s0,a0,s0
20002928:	00b405b3          	add	a1,s0,a1
2000292c:	4e9000ef          	jal	ra,20003614 <_Z17E32SetTimeComparey>
20002930:	f6dff06f          	j	2000289c <_Z32worker_interrupt_service_routinev+0x7c>
20002934:	0004a023          	sw	zero,0(s1)
20002938:	00042023          	sw	zero,0(s0)
2000293c:	fff00793          	li	a5,-1
20002940:	80179773          	csrrw	a4,0x801,a5
20002944:	800797f3          	csrrw	a5,0x800,a5
20002948:	f55ff06f          	j	2000289c <_Z32worker_interrupt_service_routinev+0x7c>
	...

20002958 <_Z16InstallWorkerISRv>:
20002958:	00008797          	auipc	a5,0x8
2000295c:	bc47a783          	lw	a5,-1084(a5) # 2000a51c <_GLOBAL_OFFSET_TABLE_+0xc>
20002960:	305797f3          	csrrw	a5,mtvec,a5
20002964:	000017b7          	lui	a5,0x1
20002968:	88878793          	addi	a5,a5,-1912 # 888 <_start-0x1ffff778>
2000296c:	304797f3          	csrrw	a5,mie,a5
20002970:	300457f3          	csrrwi	a5,mstatus,8
20002974:	00008067          	ret

20002978 <_Z9ListFilesPKc>:
20002978:	e8010113          	addi	sp,sp,-384
2000297c:	16912a23          	sw	s1,372(sp)
20002980:	00810493          	addi	s1,sp,8
20002984:	00050593          	mv	a1,a0
20002988:	00048513          	mv	a0,s1
2000298c:	16112e23          	sw	ra,380(sp)
20002990:	16812c23          	sw	s0,376(sp)
20002994:	17212823          	sw	s2,368(sp)
20002998:	17312623          	sw	s3,364(sp)
2000299c:	17412423          	sw	s4,360(sp)
200029a0:	17512223          	sw	s5,356(sp)
200029a4:	17612023          	sw	s6,352(sp)
200029a8:	15712e23          	sw	s7,348(sp)
200029ac:	15812c23          	sw	s8,344(sp)
200029b0:	15912a23          	sw	s9,340(sp)
200029b4:	15a12823          	sw	s10,336(sp)
200029b8:	3d0040ef          	jal	ra,20006d88 <f_opendir>
200029bc:	0e051e63          	bnez	a0,20002ab8 <_Z9ListFilesPKc+0x140>
200029c0:	03810a13          	addi	s4,sp,56
200029c4:	04e10993          	addi	s3,sp,78
200029c8:	00005a97          	auipc	s5,0x5
200029cc:	49ca8a93          	addi	s5,s5,1180 # 20007e64 <__clz_tab+0x8f4>
200029d0:	00005b17          	auipc	s6,0x5
200029d4:	2f4b0b13          	addi	s6,s6,756 # 20007cc4 <__clz_tab+0x754>
200029d8:	00005b97          	auipc	s7,0x5
200029dc:	2f4b8b93          	addi	s7,s7,756 # 20007ccc <__clz_tab+0x75c>
200029e0:	00005c17          	auipc	s8,0x5
200029e4:	ca4c0c13          	addi	s8,s8,-860 # 20007684 <__clz_tab+0x114>
200029e8:	00005c97          	auipc	s9,0x5
200029ec:	2f4c8c93          	addi	s9,s9,756 # 20007cdc <__clz_tab+0x76c>
200029f0:	00005d17          	auipc	s10,0x5
200029f4:	2e4d0d13          	addi	s10,s10,740 # 20007cd4 <__clz_tab+0x764>
200029f8:	000a0593          	mv	a1,s4
200029fc:	00048513          	mv	a0,s1
20002a00:	478040ef          	jal	ra,20006e78 <f_readdir>
20002a04:	06051a63          	bnez	a0,20002a78 <_Z9ListFilesPKc+0x100>
20002a08:	04e14783          	lbu	a5,78(sp)
20002a0c:	06078663          	beqz	a5,20002a78 <_Z9ListFilesPKc+0x100>
20002a10:	000a8593          	mv	a1,s5
20002a14:	00098513          	mv	a0,s3
20002a18:	a45fe0ef          	jal	ra,2000145c <strstr>
20002a1c:	04014403          	lbu	s0,64(sp)
20002a20:	00050913          	mv	s2,a0
20002a24:	01047413          	andi	s0,s0,16
20002a28:	00040663          	beqz	s0,20002a34 <_Z9ListFilesPKc+0xbc>
20002a2c:	000b0513          	mv	a0,s6
20002a30:	0d5000ef          	jal	ra,20003304 <_Z9UARTWritePKc>
20002a34:	00090663          	beqz	s2,20002a40 <_Z9ListFilesPKc+0xc8>
20002a38:	000b8513          	mv	a0,s7
20002a3c:	0c9000ef          	jal	ra,20003304 <_Z9UARTWritePKc>
20002a40:	00098513          	mv	a0,s3
20002a44:	0c1000ef          	jal	ra,20003304 <_Z9UARTWritePKc>
20002a48:	000d0513          	mv	a0,s10
20002a4c:	00041c63          	bnez	s0,20002a64 <_Z9ListFilesPKc+0xec>
20002a50:	000c0513          	mv	a0,s8
20002a54:	0b1000ef          	jal	ra,20003304 <_Z9UARTWritePKc>
20002a58:	03812503          	lw	a0,56(sp)
20002a5c:	285000ef          	jal	ra,200034e0 <_Z16UARTWriteDecimall>
20002a60:	000c8513          	mv	a0,s9
20002a64:	0a1000ef          	jal	ra,20003304 <_Z9UARTWritePKc>
20002a68:	00005517          	auipc	a0,0x5
20002a6c:	1f450513          	addi	a0,a0,500 # 20007c5c <__clz_tab+0x6ec>
20002a70:	095000ef          	jal	ra,20003304 <_Z9UARTWritePKc>
20002a74:	f85ff06f          	j	200029f8 <_Z9ListFilesPKc+0x80>
20002a78:	00048513          	mv	a0,s1
20002a7c:	3cc040ef          	jal	ra,20006e48 <f_closedir>
20002a80:	17c12083          	lw	ra,380(sp)
20002a84:	17812403          	lw	s0,376(sp)
20002a88:	17412483          	lw	s1,372(sp)
20002a8c:	17012903          	lw	s2,368(sp)
20002a90:	16c12983          	lw	s3,364(sp)
20002a94:	16812a03          	lw	s4,360(sp)
20002a98:	16412a83          	lw	s5,356(sp)
20002a9c:	16012b03          	lw	s6,352(sp)
20002aa0:	15c12b83          	lw	s7,348(sp)
20002aa4:	15812c03          	lw	s8,344(sp)
20002aa8:	15412c83          	lw	s9,340(sp)
20002aac:	15012d03          	lw	s10,336(sp)
20002ab0:	18010113          	addi	sp,sp,384
20002ab4:	00008067          	ret
20002ab8:	00251513          	slli	a0,a0,0x2
20002abc:	00008797          	auipc	a5,0x8
20002ac0:	ac07a783          	lw	a5,-1344(a5) # 2000a57c <_GLOBAL_OFFSET_TABLE_+0x6c>
20002ac4:	00a787b3          	add	a5,a5,a0
20002ac8:	0007a503          	lw	a0,0(a5)
20002acc:	039000ef          	jal	ra,20003304 <_Z9UARTWritePKc>
20002ad0:	fb1ff06f          	j	20002a80 <_Z9ListFilesPKc+0x108>

20002ad4 <_Z13ClearTerminalv>:
20002ad4:	00005517          	auipc	a0,0x5
20002ad8:	20c50513          	addi	a0,a0,524 # 20007ce0 <__clz_tab+0x770>
20002adc:	0290006f          	j	20003304 <_Z9UARTWritePKc>

20002ae0 <_Z29ParseELFHeaderAndLoadSectionsP3FILP16SElfFileHeader32Rm>:
20002ae0:	0015c783          	lbu	a5,1(a1)
20002ae4:	0005c703          	lbu	a4,0(a1)
20002ae8:	00879793          	slli	a5,a5,0x8
20002aec:	00e7e7b3          	or	a5,a5,a4
20002af0:	0025c703          	lbu	a4,2(a1)
20002af4:	01071713          	slli	a4,a4,0x10
20002af8:	00f76733          	or	a4,a4,a5
20002afc:	0035c783          	lbu	a5,3(a1)
20002b00:	01879793          	slli	a5,a5,0x18
20002b04:	00e7e7b3          	or	a5,a5,a4
20002b08:	464c4737          	lui	a4,0x464c4
20002b0c:	57f70713          	addi	a4,a4,1407 # 464c457f <_end+0x264b4f47>
20002b10:	00e78863          	beq	a5,a4,20002b20 <_Z29ParseELFHeaderAndLoadSectionsP3FILP16SElfFileHeader32Rm+0x40>
20002b14:	00005517          	auipc	a0,0x5
20002b18:	1d850513          	addi	a0,a0,472 # 20007cec <__clz_tab+0x77c>
20002b1c:	7e80006f          	j	20003304 <_Z9UARTWritePKc>
20002b20:	f6010113          	addi	sp,sp,-160
20002b24:	08112e23          	sw	ra,156(sp)
20002b28:	08812c23          	sw	s0,152(sp)
20002b2c:	08912a23          	sw	s1,148(sp)
20002b30:	09212823          	sw	s2,144(sp)
20002b34:	09312623          	sw	s3,140(sp)
20002b38:	09412423          	sw	s4,136(sp)
20002b3c:	09512223          	sw	s5,132(sp)
20002b40:	09612023          	sw	s6,128(sp)
20002b44:	0195c783          	lbu	a5,25(a1)
20002b48:	0185c703          	lbu	a4,24(a1)
20002b4c:	00058413          	mv	s0,a1
20002b50:	00879793          	slli	a5,a5,0x8
20002b54:	00e7e7b3          	or	a5,a5,a4
20002b58:	01a5c703          	lbu	a4,26(a1)
20002b5c:	00050493          	mv	s1,a0
20002b60:	00c10993          	addi	s3,sp,12
20002b64:	01071713          	slli	a4,a4,0x10
20002b68:	00f76733          	or	a4,a4,a5
20002b6c:	01b5c783          	lbu	a5,27(a1)
20002b70:	00000913          	li	s2,0
20002b74:	05810a93          	addi	s5,sp,88
20002b78:	01879793          	slli	a5,a5,0x18
20002b7c:	00e7e7b3          	or	a5,a5,a4
20002b80:	00f62023          	sw	a5,0(a2)
20002b84:	01d5c703          	lbu	a4,29(a1)
20002b88:	01c5c783          	lbu	a5,28(a1)
20002b8c:	00871713          	slli	a4,a4,0x8
20002b90:	00f76733          	or	a4,a4,a5
20002b94:	01e5c783          	lbu	a5,30(a1)
20002b98:	01f5c583          	lbu	a1,31(a1)
20002b9c:	01079793          	slli	a5,a5,0x10
20002ba0:	00e7e7b3          	or	a5,a5,a4
20002ba4:	01859593          	slli	a1,a1,0x18
20002ba8:	00f5e5b3          	or	a1,a1,a5
20002bac:	655030ef          	jal	ra,20006a00 <f_lseek>
20002bb0:	02000613          	li	a2,32
20002bb4:	00098693          	mv	a3,s3
20002bb8:	01010593          	addi	a1,sp,16
20002bbc:	00048513          	mv	a0,s1
20002bc0:	5f0030ef          	jal	ra,200061b0 <f_read>
20002bc4:	03344783          	lbu	a5,51(s0)
20002bc8:	03244703          	lbu	a4,50(s0)
20002bcc:	02e44683          	lbu	a3,46(s0)
20002bd0:	00879793          	slli	a5,a5,0x8
20002bd4:	00e7e7b3          	or	a5,a5,a4
20002bd8:	02f44703          	lbu	a4,47(s0)
20002bdc:	02344583          	lbu	a1,35(s0)
20002be0:	00048513          	mv	a0,s1
20002be4:	00871713          	slli	a4,a4,0x8
20002be8:	00d76733          	or	a4,a4,a3
20002bec:	02e787b3          	mul	a5,a5,a4
20002bf0:	02144683          	lbu	a3,33(s0)
20002bf4:	02044703          	lbu	a4,32(s0)
20002bf8:	01859593          	slli	a1,a1,0x18
20002bfc:	00869693          	slli	a3,a3,0x8
20002c00:	00e6e6b3          	or	a3,a3,a4
20002c04:	02244703          	lbu	a4,34(s0)
20002c08:	01071713          	slli	a4,a4,0x10
20002c0c:	00d76733          	or	a4,a4,a3
20002c10:	00e5e5b3          	or	a1,a1,a4
20002c14:	00b785b3          	add	a1,a5,a1
20002c18:	5e9030ef          	jal	ra,20006a00 <f_lseek>
20002c1c:	00098693          	mv	a3,s3
20002c20:	02800613          	li	a2,40
20002c24:	03010593          	addi	a1,sp,48
20002c28:	00048513          	mv	a0,s1
20002c2c:	584030ef          	jal	ra,200061b0 <f_read>
20002c30:	04412503          	lw	a0,68(sp)
20002c34:	d74fd0ef          	jal	ra,200001a8 <malloc>
20002c38:	04012583          	lw	a1,64(sp)
20002c3c:	00050a13          	mv	s4,a0
20002c40:	00048513          	mv	a0,s1
20002c44:	5bd030ef          	jal	ra,20006a00 <f_lseek>
20002c48:	04412603          	lw	a2,68(sp)
20002c4c:	00098693          	mv	a3,s3
20002c50:	000a0593          	mv	a1,s4
20002c54:	00048513          	mv	a0,s1
20002c58:	558030ef          	jal	ra,200061b0 <f_read>
20002c5c:	03144783          	lbu	a5,49(s0)
20002c60:	03044703          	lbu	a4,48(s0)
20002c64:	00879793          	slli	a5,a5,0x8
20002c68:	00e7e7b3          	or	a5,a5,a4
20002c6c:	02f96a63          	bltu	s2,a5,20002ca0 <_Z29ParseELFHeaderAndLoadSectionsP3FILP16SElfFileHeader32Rm+0x1c0>
20002c70:	000a0513          	mv	a0,s4
20002c74:	d44fd0ef          	jal	ra,200001b8 <free>
20002c78:	09c12083          	lw	ra,156(sp)
20002c7c:	09812403          	lw	s0,152(sp)
20002c80:	09412483          	lw	s1,148(sp)
20002c84:	09012903          	lw	s2,144(sp)
20002c88:	08c12983          	lw	s3,140(sp)
20002c8c:	08812a03          	lw	s4,136(sp)
20002c90:	08412a83          	lw	s5,132(sp)
20002c94:	08012b03          	lw	s6,128(sp)
20002c98:	0a010113          	addi	sp,sp,160
20002c9c:	00008067          	ret
20002ca0:	02f44783          	lbu	a5,47(s0)
20002ca4:	02e44703          	lbu	a4,46(s0)
20002ca8:	02144683          	lbu	a3,33(s0)
20002cac:	00879793          	slli	a5,a5,0x8
20002cb0:	00e7e7b3          	or	a5,a5,a4
20002cb4:	032787b3          	mul	a5,a5,s2
20002cb8:	02044703          	lbu	a4,32(s0)
20002cbc:	00869693          	slli	a3,a3,0x8
20002cc0:	02344583          	lbu	a1,35(s0)
20002cc4:	00e6e6b3          	or	a3,a3,a4
20002cc8:	02244703          	lbu	a4,34(s0)
20002ccc:	01859593          	slli	a1,a1,0x18
20002cd0:	00048513          	mv	a0,s1
20002cd4:	01071713          	slli	a4,a4,0x10
20002cd8:	00d76733          	or	a4,a4,a3
20002cdc:	00e5e5b3          	or	a1,a1,a4
20002ce0:	00b785b3          	add	a1,a5,a1
20002ce4:	51d030ef          	jal	ra,20006a00 <f_lseek>
20002ce8:	00098693          	mv	a3,s3
20002cec:	02800613          	li	a2,40
20002cf0:	000a8593          	mv	a1,s5
20002cf4:	00048513          	mv	a0,s1
20002cf8:	4b8030ef          	jal	ra,200061b0 <f_read>
20002cfc:	06012783          	lw	a5,96(sp)
20002d00:	0077f793          	andi	a5,a5,7
20002d04:	02078863          	beqz	a5,20002d34 <_Z29ParseELFHeaderAndLoadSectionsP3FILP16SElfFileHeader32Rm+0x254>
20002d08:	06c12783          	lw	a5,108(sp)
20002d0c:	02078463          	beqz	a5,20002d34 <_Z29ParseELFHeaderAndLoadSectionsP3FILP16SElfFileHeader32Rm+0x254>
20002d10:	06812583          	lw	a1,104(sp)
20002d14:	00048513          	mv	a0,s1
20002d18:	06412b03          	lw	s6,100(sp)
20002d1c:	4e5030ef          	jal	ra,20006a00 <f_lseek>
20002d20:	06c12603          	lw	a2,108(sp)
20002d24:	00098693          	mv	a3,s3
20002d28:	000b0593          	mv	a1,s6
20002d2c:	00048513          	mv	a0,s1
20002d30:	480030ef          	jal	ra,200061b0 <f_read>
20002d34:	00190913          	addi	s2,s2,1
20002d38:	01091913          	slli	s2,s2,0x10
20002d3c:	01095913          	srli	s2,s2,0x10
20002d40:	f1dff06f          	j	20002c5c <_Z29ParseELFHeaderAndLoadSectionsP3FILP16SElfFileHeader32Rm+0x17c>

20002d44 <_Z13RunExecutableiPKcb>:
20002d44:	d7010113          	addi	sp,sp,-656
20002d48:	28812423          	sw	s0,648(sp)
20002d4c:	05410413          	addi	s0,sp,84
20002d50:	29212023          	sw	s2,640(sp)
20002d54:	00040513          	mv	a0,s0
20002d58:	00060913          	mv	s2,a2
20002d5c:	00100613          	li	a2,1
20002d60:	28912223          	sw	s1,644(sp)
20002d64:	28112623          	sw	ra,652(sp)
20002d68:	00058493          	mv	s1,a1
20002d6c:	525020ef          	jal	ra,20005a90 <f_open>
20002d70:	0a051463          	bnez	a0,20002e18 <_Z13RunExecutableiPKcb+0xd4>
20002d74:	01810693          	addi	a3,sp,24
20002d78:	02010593          	addi	a1,sp,32
20002d7c:	03400613          	li	a2,52
20002d80:	00040513          	mv	a0,s0
20002d84:	00b12623          	sw	a1,12(sp)
20002d88:	428030ef          	jal	ra,200061b0 <f_read>
20002d8c:	00c12583          	lw	a1,12(sp)
20002d90:	01c10613          	addi	a2,sp,28
20002d94:	00040513          	mv	a0,s0
20002d98:	d49ff0ef          	jal	ra,20002ae0 <_Z29ParseELFHeaderAndLoadSectionsP3FILP16SElfFileHeader32Rm>
20002d9c:	00040513          	mv	a0,s0
20002da0:	34d030ef          	jal	ra,200068ec <f_close>
20002da4:	00100613          	li	a2,1
20002da8:	00005597          	auipc	a1,0x5
20002dac:	f6458593          	addi	a1,a1,-156 # 20007d0c <__clz_tab+0x79c>
20002db0:	00000513          	li	a0,0
20002db4:	455020ef          	jal	ra,20005a08 <f_mount>
20002db8:	00005597          	auipc	a1,0x5
20002dbc:	f5458593          	addi	a1,a1,-172 # 20007d0c <__clz_tab+0x79c>
20002dc0:	00007517          	auipc	a0,0x7
20002dc4:	2b850513          	addi	a0,a0,696 # 2000a078 <_ZL10currentdir>
20002dc8:	9d8fe0ef          	jal	ra,20000fa0 <strcpy>
20002dcc:	d001a423          	sw	zero,-760(gp) # 2000aa98 <_ZL9havedrive>
20002dd0:	fc000073          	0xfc000073
20002dd4:	0000100f          	fence.i
20002dd8:	01c12403          	lw	s0,28(sp)
20002ddc:	000400e7          	jalr	s0
20002de0:	00100613          	li	a2,1
20002de4:	00005597          	auipc	a1,0x5
20002de8:	f2858593          	addi	a1,a1,-216 # 20007d0c <__clz_tab+0x79c>
20002dec:	00007517          	auipc	a0,0x7
20002df0:	79452503          	lw	a0,1940(a0) # 2000a580 <_GLOBAL_OFFSET_TABLE_+0x70>
20002df4:	415020ef          	jal	ra,20005a08 <f_mount>
20002df8:	00100793          	li	a5,1
20002dfc:	d0f1a423          	sw	a5,-760(gp) # 2000aa98 <_ZL9havedrive>
20002e00:	28c12083          	lw	ra,652(sp)
20002e04:	28812403          	lw	s0,648(sp)
20002e08:	28412483          	lw	s1,644(sp)
20002e0c:	28012903          	lw	s2,640(sp)
20002e10:	29010113          	addi	sp,sp,656
20002e14:	00008067          	ret
20002e18:	fe0904e3          	beqz	s2,20002e00 <_Z13RunExecutableiPKcb+0xbc>
20002e1c:	00005517          	auipc	a0,0x5
20002e20:	ef450513          	addi	a0,a0,-268 # 20007d10 <__clz_tab+0x7a0>
20002e24:	4e0000ef          	jal	ra,20003304 <_Z9UARTWritePKc>
20002e28:	00048513          	mv	a0,s1
20002e2c:	4d8000ef          	jal	ra,20003304 <_Z9UARTWritePKc>
20002e30:	00005517          	auipc	a0,0x5
20002e34:	ef050513          	addi	a0,a0,-272 # 20007d20 <__clz_tab+0x7b0>
20002e38:	4cc000ef          	jal	ra,20003304 <_Z9UARTWritePKc>
20002e3c:	fc5ff06f          	j	20002e00 <_Z13RunExecutableiPKcb+0xbc>

20002e40 <_Z13ParseCommandsv>:
20002e40:	ff010113          	addi	sp,sp,-16
20002e44:	00005597          	auipc	a1,0x5
20002e48:	84058593          	addi	a1,a1,-1984 # 20007684 <__clz_tab+0x114>
20002e4c:	a7c18513          	addi	a0,gp,-1412 # 2000a80c <_ZL11commandline>
20002e50:	00812423          	sw	s0,8(sp)
20002e54:	00112623          	sw	ra,12(sp)
20002e58:	8a1fe0ef          	jal	ra,200016f8 <strtok>
20002e5c:	00005597          	auipc	a1,0x5
20002e60:	ed458593          	addi	a1,a1,-300 # 20007d30 <__clz_tab+0x7c0>
20002e64:	00050413          	mv	s0,a0
20002e68:	fbdfd0ef          	jal	ra,20000e24 <strcmp>
20002e6c:	04051263          	bnez	a0,20002eb0 <_Z13ParseCommandsv+0x70>
20002e70:	00005517          	auipc	a0,0x5
20002e74:	ec850513          	addi	a0,a0,-312 # 20007d38 <__clz_tab+0x7c8>
20002e78:	48c000ef          	jal	ra,20003304 <_Z9UARTWritePKc>
20002e7c:	00005517          	auipc	a0,0x5
20002e80:	efc50513          	addi	a0,a0,-260 # 20007d78 <__clz_tab+0x808>
20002e84:	480000ef          	jal	ra,20003304 <_Z9UARTWritePKc>
20002e88:	00005517          	auipc	a0,0x5
20002e8c:	f2450513          	addi	a0,a0,-220 # 20007dac <__clz_tab+0x83c>
20002e90:	474000ef          	jal	ra,20003304 <_Z9UARTWritePKc>
20002e94:	00005517          	auipc	a0,0x5
20002e98:	f4850513          	addi	a0,a0,-184 # 20007ddc <__clz_tab+0x86c>
20002e9c:	468000ef          	jal	ra,20003304 <_Z9UARTWritePKc>
20002ea0:	00005517          	auipc	a0,0x5
20002ea4:	f7850513          	addi	a0,a0,-136 # 20007e18 <__clz_tab+0x8a8>
20002ea8:	45c000ef          	jal	ra,20003304 <_Z9UARTWritePKc>
20002eac:	0380006f          	j	20002ee4 <_Z13ParseCommandsv+0xa4>
20002eb0:	00005597          	auipc	a1,0x5
20002eb4:	f9458593          	addi	a1,a1,-108 # 20007e44 <__clz_tab+0x8d4>
20002eb8:	00040513          	mv	a0,s0
20002ebc:	f69fd0ef          	jal	ra,20000e24 <strcmp>
20002ec0:	04051463          	bnez	a0,20002f08 <_Z13ParseCommandsv+0xc8>
20002ec4:	00004597          	auipc	a1,0x4
20002ec8:	7c058593          	addi	a1,a1,1984 # 20007684 <__clz_tab+0x114>
20002ecc:	82dfe0ef          	jal	ra,200016f8 <strtok>
20002ed0:	00050593          	mv	a1,a0
20002ed4:	02050463          	beqz	a0,20002efc <_Z13ParseCommandsv+0xbc>
20002ed8:	00007517          	auipc	a0,0x7
20002edc:	1a050513          	addi	a0,a0,416 # 2000a078 <_ZL10currentdir>
20002ee0:	8c0fe0ef          	jal	ra,20000fa0 <strcpy>
20002ee4:	00c12083          	lw	ra,12(sp)
20002ee8:	00812403          	lw	s0,8(sp)
20002eec:	c801a223          	sw	zero,-892(gp) # 2000aa14 <_ZL6cmdlen>
20002ef0:	a6018e23          	sb	zero,-1412(gp) # 2000a80c <_ZL11commandline>
20002ef4:	01010113          	addi	sp,sp,16
20002ef8:	00008067          	ret
20002efc:	00005597          	auipc	a1,0x5
20002f00:	e1058593          	addi	a1,a1,-496 # 20007d0c <__clz_tab+0x79c>
20002f04:	fd5ff06f          	j	20002ed8 <_Z13ParseCommandsv+0x98>
20002f08:	00005597          	auipc	a1,0x5
20002f0c:	f4058593          	addi	a1,a1,-192 # 20007e48 <__clz_tab+0x8d8>
20002f10:	00040513          	mv	a0,s0
20002f14:	f11fd0ef          	jal	ra,20000e24 <strcmp>
20002f18:	00051e63          	bnez	a0,20002f34 <_Z13ParseCommandsv+0xf4>
20002f1c:	00007517          	auipc	a0,0x7
20002f20:	15c50513          	addi	a0,a0,348 # 2000a078 <_ZL10currentdir>
20002f24:	3e0000ef          	jal	ra,20003304 <_Z9UARTWritePKc>
20002f28:	00005517          	auipc	a0,0x5
20002f2c:	e0450513          	addi	a0,a0,-508 # 20007d2c <__clz_tab+0x7bc>
20002f30:	f79ff06f          	j	20002ea8 <_Z13ParseCommandsv+0x68>
20002f34:	00005597          	auipc	a1,0x5
20002f38:	f1858593          	addi	a1,a1,-232 # 20007e4c <__clz_tab+0x8dc>
20002f3c:	00040513          	mv	a0,s0
20002f40:	ee5fd0ef          	jal	ra,20000e24 <strcmp>
20002f44:	02051c63          	bnez	a0,20002f7c <_Z13ParseCommandsv+0x13c>
20002f48:	00005517          	auipc	a0,0x5
20002f4c:	de450513          	addi	a0,a0,-540 # 20007d2c <__clz_tab+0x7bc>
20002f50:	3b4000ef          	jal	ra,20003304 <_Z9UARTWritePKc>
20002f54:	00007517          	auipc	a0,0x7
20002f58:	12450513          	addi	a0,a0,292 # 2000a078 <_ZL10currentdir>
20002f5c:	3a8000ef          	jal	ra,20003304 <_Z9UARTWritePKc>
20002f60:	00005517          	auipc	a0,0x5
20002f64:	dcc50513          	addi	a0,a0,-564 # 20007d2c <__clz_tab+0x7bc>
20002f68:	39c000ef          	jal	ra,20003304 <_Z9UARTWritePKc>
20002f6c:	00007517          	auipc	a0,0x7
20002f70:	10c50513          	addi	a0,a0,268 # 2000a078 <_ZL10currentdir>
20002f74:	a05ff0ef          	jal	ra,20002978 <_Z9ListFilesPKc>
20002f78:	f6dff06f          	j	20002ee4 <_Z13ParseCommandsv+0xa4>
20002f7c:	00005597          	auipc	a1,0x5
20002f80:	ed458593          	addi	a1,a1,-300 # 20007e50 <__clz_tab+0x8e0>
20002f84:	00040513          	mv	a0,s0
20002f88:	e9dfd0ef          	jal	ra,20000e24 <strcmp>
20002f8c:	00051663          	bnez	a0,20002f98 <_Z13ParseCommandsv+0x158>
20002f90:	b45ff0ef          	jal	ra,20002ad4 <_Z13ClearTerminalv>
20002f94:	f51ff06f          	j	20002ee4 <_Z13ParseCommandsv+0xa4>
20002f98:	00005597          	auipc	a1,0x5
20002f9c:	ebc58593          	addi	a1,a1,-324 # 20007e54 <__clz_tab+0x8e4>
20002fa0:	00040513          	mv	a0,s0
20002fa4:	e81fd0ef          	jal	ra,20000e24 <strcmp>
20002fa8:	00051863          	bnez	a0,20002fb8 <_Z13ParseCommandsv+0x178>
20002fac:	00100793          	li	a5,1
20002fb0:	c6f1ae23          	sw	a5,-900(gp) # 2000aa0c <_ZL12mainloopdone>
20002fb4:	f31ff06f          	j	20002ee4 <_Z13ParseCommandsv+0xa4>
20002fb8:	f20406e3          	beqz	s0,20002ee4 <_Z13ParseCommandsv+0xa4>
20002fbc:	00007597          	auipc	a1,0x7
20002fc0:	0bc58593          	addi	a1,a1,188 # 2000a078 <_ZL10currentdir>
20002fc4:	c8818513          	addi	a0,gp,-888 # 2000aa18 <_ZL8filename>
20002fc8:	fd9fd0ef          	jal	ra,20000fa0 <strcpy>
20002fcc:	00040593          	mv	a1,s0
20002fd0:	c8818513          	addi	a0,gp,-888 # 2000aa18 <_ZL8filename>
20002fd4:	c89fd0ef          	jal	ra,20000c5c <strcat>
20002fd8:	00005597          	auipc	a1,0x5
20002fdc:	e8c58593          	addi	a1,a1,-372 # 20007e64 <__clz_tab+0x8f4>
20002fe0:	c8818513          	addi	a0,gp,-888 # 2000aa18 <_ZL8filename>
20002fe4:	c79fd0ef          	jal	ra,20000c5c <strcat>
20002fe8:	00100613          	li	a2,1
20002fec:	c8818593          	addi	a1,gp,-888 # 2000aa18 <_ZL8filename>
20002ff0:	00000513          	li	a0,0
20002ff4:	d51ff0ef          	jal	ra,20002d44 <_Z13RunExecutableiPKcb>
20002ff8:	eedff06f          	j	20002ee4 <_Z13ParseCommandsv+0xa4>

20002ffc <_Z16ProcessKeyEventsv>:
20002ffc:	fd010113          	addi	sp,sp,-48
20003000:	02112623          	sw	ra,44(sp)
20003004:	02812423          	sw	s0,40(sp)
20003008:	02912223          	sw	s1,36(sp)
2000300c:	03212023          	sw	s2,32(sp)
20003010:	01312e23          	sw	s3,28(sp)
20003014:	00012623          	sw	zero,12(sp)
20003018:	08800793          	li	a5,136
2000301c:	304797f3          	csrrw	a5,mie,a5
20003020:	00007797          	auipc	a5,0x7
20003024:	5547a783          	lw	a5,1364(a5) # 2000a574 <_GLOBAL_OFFSET_TABLE_+0x64>
20003028:	0007a503          	lw	a0,0(a5)
2000302c:	00400613          	li	a2,4
20003030:	00c10593          	addi	a1,sp,12
20003034:	0f1000ef          	jal	ra,20003924 <_Z14RingBufferReadPhPvm>
20003038:	000017b7          	lui	a5,0x1
2000303c:	88878793          	addi	a5,a5,-1912 # 888 <_start-0x1ffff778>
20003040:	304797f3          	csrrw	a5,mie,a5
20003044:	02051463          	bnez	a0,2000306c <_Z16ProcessKeyEventsv+0x70>
20003048:	00000413          	li	s0,0
2000304c:	02c12083          	lw	ra,44(sp)
20003050:	00040513          	mv	a0,s0
20003054:	02812403          	lw	s0,40(sp)
20003058:	02412483          	lw	s1,36(sp)
2000305c:	02012903          	lw	s2,32(sp)
20003060:	01c12983          	lw	s3,28(sp)
20003064:	03010113          	addi	sp,sp,48
20003068:	00008067          	ret
2000306c:	00c12503          	lw	a0,12(sp)
20003070:	05800713          	li	a4,88
20003074:	0ff57793          	zext.b	a5,a0
20003078:	00e79a63          	bne	a5,a4,2000308c <_Z16ProcessKeyEventsv+0x90>
2000307c:	d0c18693          	addi	a3,gp,-756 # 2000aa9c <_ZZ16ProcessKeyEventsvE9uppercase>
20003080:	0006a703          	lw	a4,0(a3)
20003084:	00173713          	seqz	a4,a4
20003088:	00e6a023          	sw	a4,0(a3)
2000308c:	10057713          	andi	a4,a0,256
20003090:	00070e63          	beqz	a4,200030ac <_Z16ProcessKeyEventsv+0xb0>
20003094:	01200713          	li	a4,18
20003098:	00e78663          	beq	a5,a4,200030a4 <_Z16ProcessKeyEventsv+0xa8>
2000309c:	05900713          	li	a4,89
200030a0:	fae794e3          	bne	a5,a4,20003048 <_Z16ProcessKeyEventsv+0x4c>
200030a4:	d001a623          	sw	zero,-756(gp) # 2000aa9c <_ZZ16ProcessKeyEventsvE9uppercase>
200030a8:	fa1ff06f          	j	20003048 <_Z16ProcessKeyEventsv+0x4c>
200030ac:	01200713          	li	a4,18
200030b0:	d0c18993          	addi	s3,gp,-756 # 2000aa9c <_ZZ16ProcessKeyEventsvE9uppercase>
200030b4:	00e78663          	beq	a5,a4,200030c0 <_Z16ProcessKeyEventsv+0xc4>
200030b8:	05900713          	li	a4,89
200030bc:	00e79863          	bne	a5,a4,200030cc <_Z16ProcessKeyEventsv+0xd0>
200030c0:	00100793          	li	a5,1
200030c4:	00f9a023          	sw	a5,0(s3)
200030c8:	f81ff06f          	j	20003048 <_Z16ProcessKeyEventsv+0x4c>
200030cc:	05a00713          	li	a4,90
200030d0:	00100413          	li	s0,1
200030d4:	02e78c63          	beq	a5,a4,2000310c <_Z16ProcessKeyEventsv+0x110>
200030d8:	c8418913          	addi	s2,gp,-892 # 2000aa14 <_ZL6cmdlen>
200030dc:	06600713          	li	a4,102
200030e0:	0009a583          	lw	a1,0(s3)
200030e4:	00092403          	lw	s0,0(s2)
200030e8:	a7c18493          	addi	s1,gp,-1412 # 2000a80c <_ZL11commandline>
200030ec:	02e79e63          	bne	a5,a4,20003128 <_Z16ProcessKeyEventsv+0x12c>
200030f0:	fff40413          	addi	s0,s0,-1
200030f4:	02044663          	bltz	s0,20003120 <_Z16ProcessKeyEventsv+0x124>
200030f8:	00892023          	sw	s0,0(s2)
200030fc:	00092783          	lw	a5,0(s2)
20003100:	00000413          	li	s0,0
20003104:	00f484b3          	add	s1,s1,a5
20003108:	00048023          	sb	zero,0(s1)
2000310c:	0009c583          	lbu	a1,0(s3)
20003110:	00c14503          	lbu	a0,12(sp)
20003114:	1d1000ef          	jal	ra,20003ae4 <_Z11ScanToASCIIhh>
20003118:	1d8000ef          	jal	ra,200032f0 <_Z11UARTPutCharc>
2000311c:	f31ff06f          	j	2000304c <_Z16ProcessKeyEventsv+0x50>
20003120:	c801a223          	sw	zero,-892(gp) # 2000aa14 <_ZL6cmdlen>
20003124:	fd9ff06f          	j	200030fc <_Z16ProcessKeyEventsv+0x100>
20003128:	00140793          	addi	a5,s0,1
2000312c:	0ff5f593          	zext.b	a1,a1
20003130:	0ff57513          	zext.b	a0,a0
20003134:	00f92023          	sw	a5,0(s2)
20003138:	1ad000ef          	jal	ra,20003ae4 <_Z11ScanToASCIIhh>
2000313c:	00092703          	lw	a4,0(s2)
20003140:	00848433          	add	s0,s1,s0
20003144:	00a40023          	sb	a0,0(s0)
20003148:	1fe00793          	li	a5,510
2000314c:	fae7d8e3          	bge	a5,a4,200030fc <_Z16ProcessKeyEventsv+0x100>
20003150:	1ff00793          	li	a5,511
20003154:	00f92023          	sw	a5,0(s2)
20003158:	fa5ff06f          	j	200030fc <_Z16ProcessKeyEventsv+0x100>

2000315c <_Z10workermainv>:
2000315c:	ff010113          	addi	sp,sp,-16
20003160:	00112623          	sw	ra,12(sp)
20003164:	ff4ff0ef          	jal	ra,20002958 <_Z16InstallWorkerISRv>
20003168:	10500073          	wfi
2000316c:	ffdff06f          	j	20003168 <_Z10workermainv+0xc>

20003170 <main>:
20003170:	ff010113          	addi	sp,sp,-16
20003174:	00000513          	li	a0,0
20003178:	00112623          	sw	ra,12(sp)
2000317c:	00812423          	sw	s0,8(sp)
20003180:	790000ef          	jal	ra,20003910 <_Z11SetLEDStatem>
20003184:	00100613          	li	a2,1
20003188:	00005597          	auipc	a1,0x5
2000318c:	b8458593          	addi	a1,a1,-1148 # 20007d0c <__clz_tab+0x79c>
20003190:	00007517          	auipc	a0,0x7
20003194:	3f052503          	lw	a0,1008(a0) # 2000a580 <_GLOBAL_OFFSET_TABLE_+0x70>
20003198:	071020ef          	jal	ra,20005a08 <f_mount>
2000319c:	d0818413          	addi	s0,gp,-760 # 2000aa98 <_ZL9havedrive>
200031a0:	0a050e63          	beqz	a0,2000325c <main+0xec>
200031a4:	d001a423          	sw	zero,-760(gp) # 2000aa98 <_ZL9havedrive>
200031a8:	00251513          	slli	a0,a0,0x2
200031ac:	00007797          	auipc	a5,0x7
200031b0:	3d07a783          	lw	a5,976(a5) # 2000a57c <_GLOBAL_OFFSET_TABLE_+0x6c>
200031b4:	00a787b3          	add	a5,a5,a0
200031b8:	0007a503          	lw	a0,0(a5)
200031bc:	148000ef          	jal	ra,20003304 <_Z9UARTWritePKc>
200031c0:	915ff0ef          	jal	ra,20002ad4 <_Z13ClearTerminalv>
200031c4:	00042783          	lw	a5,0(s0)
200031c8:	00078c63          	beqz	a5,200031e0 <main+0x70>
200031cc:	00000613          	li	a2,0
200031d0:	00005597          	auipc	a1,0x5
200031d4:	c8c58593          	addi	a1,a1,-884 # 20007e5c <__clz_tab+0x8ec>
200031d8:	00000513          	li	a0,0
200031dc:	b69ff0ef          	jal	ra,20002d44 <_Z13RunExecutableiPKcb>
200031e0:	1fff07b7          	lui	a5,0x1fff0
200031e4:	1fff4737          	lui	a4,0x1fff4
200031e8:	0007a023          	sw	zero,0(a5) # 1fff0000 <_start-0x10000>
200031ec:	00478793          	addi	a5,a5,4
200031f0:	fee79ce3          	bne	a5,a4,200031e8 <main+0x78>
200031f4:	cfcff0ef          	jal	ra,200026f0 <_Z10InstallISRv>
200031f8:	00100793          	li	a5,1
200031fc:	c8f1a023          	sw	a5,-896(gp) # 2000aa10 <_ZL16numdetectedharts>
20003200:	00007817          	auipc	a6,0x7
20003204:	35882803          	lw	a6,856(a6) # 2000a558 <_GLOBAL_OFFSET_TABLE_+0x48>
20003208:	00007597          	auipc	a1,0x7
2000320c:	34c5a583          	lw	a1,844(a1) # 2000a554 <_GLOBAL_OFFSET_TABLE_+0x44>
20003210:	00100613          	li	a2,1
20003214:	00800693          	li	a3,8
20003218:	00082703          	lw	a4,0(a6)
2000321c:	00279513          	slli	a0,a5,0x2
20003220:	00a70733          	add	a4,a4,a0
20003224:	00072023          	sw	zero,0(a4) # 1fff4000 <_start-0xc000>
20003228:	0005a703          	lw	a4,0(a1)
2000322c:	00f70733          	add	a4,a4,a5
20003230:	00c70023          	sb	a2,0(a4)
20003234:	00178793          	addi	a5,a5,1
20003238:	fed790e3          	bne	a5,a3,20003218 <main+0xa8>
2000323c:	c7c18413          	addi	s0,gp,-900 # 2000aa0c <_ZL12mainloopdone>
20003240:	00042783          	lw	a5,0(s0)
20003244:	02078263          	beqz	a5,20003268 <main+0xf8>
20003248:	00c12083          	lw	ra,12(sp)
2000324c:	00812403          	lw	s0,8(sp)
20003250:	00000513          	li	a0,0
20003254:	01010113          	addi	sp,sp,16
20003258:	00008067          	ret
2000325c:	00100793          	li	a5,1
20003260:	00f42023          	sw	a5,0(s0)
20003264:	f5dff06f          	j	200031c0 <main+0x50>
20003268:	10500073          	wfi
2000326c:	d91ff0ef          	jal	ra,20002ffc <_Z16ProcessKeyEventsv>
20003270:	fc0508e3          	beqz	a0,20003240 <main+0xd0>
20003274:	bcdff0ef          	jal	ra,20002e40 <_Z13ParseCommandsv>
20003278:	fc9ff06f          	j	20003240 <main+0xd0>

2000327c <_Z11UARTHasDatav>:
2000327c:	00007797          	auipc	a5,0x7
20003280:	2f07a783          	lw	a5,752(a5) # 2000a56c <_GLOBAL_OFFSET_TABLE_+0x5c>
20003284:	0007a783          	lw	a5,0(a5)
20003288:	0007a503          	lw	a0,0(a5)
2000328c:	00157513          	andi	a0,a0,1
20003290:	00008067          	ret

20003294 <_Z9UARTFlushv>:
20003294:	ff010113          	addi	sp,sp,-16
20003298:	00112623          	sw	ra,12(sp)
2000329c:	fe1ff0ef          	jal	ra,2000327c <_Z11UARTHasDatav>
200032a0:	00051863          	bnez	a0,200032b0 <_Z9UARTFlushv+0x1c>
200032a4:	00c12083          	lw	ra,12(sp)
200032a8:	01010113          	addi	sp,sp,16
200032ac:	00008067          	ret
200032b0:	00000013          	nop
200032b4:	fe9ff06f          	j	2000329c <_Z9UARTFlushv+0x8>

200032b8 <_Z8UARTReadv>:
200032b8:	ff010113          	addi	sp,sp,-16
200032bc:	00112623          	sw	ra,12(sp)
200032c0:	fbdff0ef          	jal	ra,2000327c <_Z11UARTHasDatav>
200032c4:	00000793          	li	a5,0
200032c8:	00050c63          	beqz	a0,200032e0 <_Z8UARTReadv+0x28>
200032cc:	00007797          	auipc	a5,0x7
200032d0:	25c7a783          	lw	a5,604(a5) # 2000a528 <_GLOBAL_OFFSET_TABLE_+0x18>
200032d4:	0007a783          	lw	a5,0(a5)
200032d8:	0007a783          	lw	a5,0(a5)
200032dc:	0ff7f793          	zext.b	a5,a5
200032e0:	00c12083          	lw	ra,12(sp)
200032e4:	00078513          	mv	a0,a5
200032e8:	01010113          	addi	sp,sp,16
200032ec:	00008067          	ret

200032f0 <_Z11UARTPutCharc>:
200032f0:	00007797          	auipc	a5,0x7
200032f4:	2707a783          	lw	a5,624(a5) # 2000a560 <_GLOBAL_OFFSET_TABLE_+0x50>
200032f8:	0007a783          	lw	a5,0(a5)
200032fc:	00a7a023          	sw	a0,0(a5)
20003300:	00008067          	ret

20003304 <_Z9UARTWritePKc>:
20003304:	fe010113          	addi	sp,sp,-32
20003308:	00812c23          	sw	s0,24(sp)
2000330c:	00912a23          	sw	s1,20(sp)
20003310:	01212823          	sw	s2,16(sp)
20003314:	00112e23          	sw	ra,28(sp)
20003318:	01312623          	sw	s3,12(sp)
2000331c:	00050493          	mv	s1,a0
20003320:	00000413          	li	s0,0
20003324:	30000913          	li	s2,768
20003328:	008487b3          	add	a5,s1,s0
2000332c:	0007c503          	lbu	a0,0(a5)
20003330:	02051063          	bnez	a0,20003350 <_Z9UARTWritePKc+0x4c>
20003334:	01c12083          	lw	ra,28(sp)
20003338:	01812403          	lw	s0,24(sp)
2000333c:	01412483          	lw	s1,20(sp)
20003340:	01012903          	lw	s2,16(sp)
20003344:	00c12983          	lw	s3,12(sp)
20003348:	02010113          	addi	sp,sp,32
2000334c:	00008067          	ret
20003350:	00140993          	addi	s3,s0,1
20003354:	00240413          	addi	s0,s0,2
20003358:	f99ff0ef          	jal	ra,200032f0 <_Z11UARTPutCharc>
2000335c:	03246433          	rem	s0,s0,s2
20003360:	00041463          	bnez	s0,20003368 <_Z9UARTWritePKc+0x64>
20003364:	f31ff0ef          	jal	ra,20003294 <_Z9UARTFlushv>
20003368:	00098413          	mv	s0,s3
2000336c:	fbdff06f          	j	20003328 <_Z9UARTWritePKc+0x24>

20003370 <_Z16UARTWriteHexByteh>:
20003370:	fd010113          	addi	sp,sp,-48
20003374:	02812423          	sw	s0,40(sp)
20003378:	01100613          	li	a2,17
2000337c:	00050413          	mv	s0,a0
20003380:	00005597          	auipc	a1,0x5
20003384:	df858593          	addi	a1,a1,-520 # 20008178 <__clz_tab+0xc08>
20003388:	00c10513          	addi	a0,sp,12
2000338c:	02112623          	sw	ra,44(sp)
20003390:	e60fd0ef          	jal	ra,200009f0 <memcpy>
20003394:	00445793          	srli	a5,s0,0x4
20003398:	02078793          	addi	a5,a5,32
2000339c:	002787b3          	add	a5,a5,sp
200033a0:	fec7c783          	lbu	a5,-20(a5)
200033a4:	00f47413          	andi	s0,s0,15
200033a8:	00810513          	addi	a0,sp,8
200033ac:	00f10423          	sb	a5,8(sp)
200033b0:	02040793          	addi	a5,s0,32
200033b4:	00278433          	add	s0,a5,sp
200033b8:	fec44783          	lbu	a5,-20(s0)
200033bc:	00010523          	sb	zero,10(sp)
200033c0:	00f104a3          	sb	a5,9(sp)
200033c4:	f41ff0ef          	jal	ra,20003304 <_Z9UARTWritePKc>
200033c8:	02c12083          	lw	ra,44(sp)
200033cc:	02812403          	lw	s0,40(sp)
200033d0:	03010113          	addi	sp,sp,48
200033d4:	00008067          	ret

200033d8 <_Z12UARTWriteHexm>:
200033d8:	fd010113          	addi	sp,sp,-48
200033dc:	02812423          	sw	s0,40(sp)
200033e0:	01100613          	li	a2,17
200033e4:	00050413          	mv	s0,a0
200033e8:	00005597          	auipc	a1,0x5
200033ec:	d9058593          	addi	a1,a1,-624 # 20008178 <__clz_tab+0xc08>
200033f0:	00c10513          	addi	a0,sp,12
200033f4:	02112623          	sw	ra,44(sp)
200033f8:	df8fd0ef          	jal	ra,200009f0 <memcpy>
200033fc:	00010713          	mv	a4,sp
20003400:	00900613          	li	a2,9
20003404:	00005597          	auipc	a1,0x5
20003408:	d8858593          	addi	a1,a1,-632 # 2000818c <__clz_tab+0xc1c>
2000340c:	00070513          	mv	a0,a4
20003410:	de0fd0ef          	jal	ra,200009f0 <memcpy>
20003414:	01c45793          	srli	a5,s0,0x1c
20003418:	02078793          	addi	a5,a5,32
2000341c:	002787b3          	add	a5,a5,sp
20003420:	fec7c783          	lbu	a5,-20(a5)
20003424:	00f10023          	sb	a5,0(sp)
20003428:	01845793          	srli	a5,s0,0x18
2000342c:	00f7f793          	andi	a5,a5,15
20003430:	02078793          	addi	a5,a5,32
20003434:	002787b3          	add	a5,a5,sp
20003438:	fec7c783          	lbu	a5,-20(a5)
2000343c:	00f100a3          	sb	a5,1(sp)
20003440:	01445793          	srli	a5,s0,0x14
20003444:	00f7f793          	andi	a5,a5,15
20003448:	02078793          	addi	a5,a5,32
2000344c:	002787b3          	add	a5,a5,sp
20003450:	fec7c783          	lbu	a5,-20(a5)
20003454:	00f10123          	sb	a5,2(sp)
20003458:	01045793          	srli	a5,s0,0x10
2000345c:	00f7f793          	andi	a5,a5,15
20003460:	02078793          	addi	a5,a5,32
20003464:	002787b3          	add	a5,a5,sp
20003468:	fec7c783          	lbu	a5,-20(a5)
2000346c:	00f101a3          	sb	a5,3(sp)
20003470:	00c45793          	srli	a5,s0,0xc
20003474:	00f7f793          	andi	a5,a5,15
20003478:	02078793          	addi	a5,a5,32
2000347c:	002787b3          	add	a5,a5,sp
20003480:	fec7c783          	lbu	a5,-20(a5)
20003484:	00f10223          	sb	a5,4(sp)
20003488:	00845793          	srli	a5,s0,0x8
2000348c:	00f7f793          	andi	a5,a5,15
20003490:	02078793          	addi	a5,a5,32
20003494:	002787b3          	add	a5,a5,sp
20003498:	fec7c783          	lbu	a5,-20(a5)
2000349c:	00f102a3          	sb	a5,5(sp)
200034a0:	00445793          	srli	a5,s0,0x4
200034a4:	00f7f793          	andi	a5,a5,15
200034a8:	02078793          	addi	a5,a5,32
200034ac:	002787b3          	add	a5,a5,sp
200034b0:	fec7c783          	lbu	a5,-20(a5)
200034b4:	00f47413          	andi	s0,s0,15
200034b8:	00f10323          	sb	a5,6(sp)
200034bc:	02040793          	addi	a5,s0,32
200034c0:	00278433          	add	s0,a5,sp
200034c4:	fec44783          	lbu	a5,-20(s0)
200034c8:	00f103a3          	sb	a5,7(sp)
200034cc:	e39ff0ef          	jal	ra,20003304 <_Z9UARTWritePKc>
200034d0:	02c12083          	lw	ra,44(sp)
200034d4:	02812403          	lw	s0,40(sp)
200034d8:	03010113          	addi	sp,sp,48
200034dc:	00008067          	ret

200034e0 <_Z16UARTWriteDecimall>:
200034e0:	fd010113          	addi	sp,sp,-48
200034e4:	02812423          	sw	s0,40(sp)
200034e8:	00b00613          	li	a2,11
200034ec:	00005597          	auipc	a1,0x5
200034f0:	cac58593          	addi	a1,a1,-852 # 20008198 <__clz_tab+0xc28>
200034f4:	00050413          	mv	s0,a0
200034f8:	00010513          	mv	a0,sp
200034fc:	02112623          	sw	ra,44(sp)
20003500:	cf0fd0ef          	jal	ra,200009f0 <memcpy>
20003504:	00c10813          	addi	a6,sp,12
20003508:	00080513          	mv	a0,a6
2000350c:	01400613          	li	a2,20
20003510:	00005597          	auipc	a1,0x5
20003514:	c9458593          	addi	a1,a1,-876 # 200081a4 <__clz_tab+0xc34>
20003518:	cd8fd0ef          	jal	ra,200009f0 <memcpy>
2000351c:	00050813          	mv	a6,a0
20003520:	00000713          	li	a4,0
20003524:	00045863          	bgez	s0,20003534 <_Z16UARTWriteDecimall+0x54>
20003528:	02d00793          	li	a5,45
2000352c:	00f10623          	sb	a5,12(sp)
20003530:	00100713          	li	a4,1
20003534:	3b9ad6b7          	lui	a3,0x3b9ad
20003538:	80000537          	lui	a0,0x80000
2000353c:	00a00593          	li	a1,10
20003540:	00000613          	li	a2,0
20003544:	a0068693          	addi	a3,a3,-1536 # 3b9aca00 <_end+0x1b99d3c8>
20003548:	00a00893          	li	a7,10
2000354c:	fff54513          	not	a0,a0
20003550:	00100313          	li	t1,1
20003554:	02d447b3          	div	a5,s0,a3
20003558:	0317e7b3          	rem	a5,a5,a7
2000355c:	00a7f7b3          	and	a5,a5,a0
20003560:	00f66633          	or	a2,a2,a5
20003564:	00061463          	bnez	a2,2000356c <_Z16UARTWriteDecimall+0x8c>
20003568:	02669263          	bne	a3,t1,2000358c <_Z16UARTWriteDecimall+0xac>
2000356c:	02078793          	addi	a5,a5,32
20003570:	002787b3          	add	a5,a5,sp
20003574:	fe07c783          	lbu	a5,-32(a5)
20003578:	02070613          	addi	a2,a4,32
2000357c:	00260633          	add	a2,a2,sp
20003580:	fef60623          	sb	a5,-20(a2)
20003584:	00170713          	addi	a4,a4,1
20003588:	00100613          	li	a2,1
2000358c:	fff58593          	addi	a1,a1,-1
20003590:	0316c6b3          	div	a3,a3,a7
20003594:	fc0590e3          	bnez	a1,20003554 <_Z16UARTWriteDecimall+0x74>
20003598:	02070793          	addi	a5,a4,32
2000359c:	00278733          	add	a4,a5,sp
200035a0:	fe070623          	sb	zero,-20(a4)
200035a4:	00080513          	mv	a0,a6
200035a8:	d5dff0ef          	jal	ra,20003304 <_Z9UARTWritePKc>
200035ac:	02c12083          	lw	ra,44(sp)
200035b0:	02812403          	lw	s0,40(sp)
200035b4:	03010113          	addi	sp,sp,48
200035b8:	00008067          	ret

200035bc <_Z11E32ReadTimev>:
200035bc:	c81025f3          	rdtimeh	a1
200035c0:	c0102573          	rdtime	a0
200035c4:	c81027f3          	rdtimeh	a5
200035c8:	fef59ae3          	bne	a1,a5,200035bc <_Z11E32ReadTimev>
200035cc:	00008067          	ret

200035d0 <_Z9ClockToMsy>:
200035d0:	00002637          	lui	a2,0x2
200035d4:	ff010113          	addi	sp,sp,-16
200035d8:	71060613          	addi	a2,a2,1808 # 2710 <_start-0x1fffd8f0>
200035dc:	00000693          	li	a3,0
200035e0:	00112623          	sw	ra,12(sp)
200035e4:	f7cfe0ef          	jal	ra,20001d60 <__udivdi3>
200035e8:	00c12083          	lw	ra,12(sp)
200035ec:	01010113          	addi	sp,sp,16
200035f0:	00008067          	ret

200035f4 <_Z9ClockToUsy>:
200035f4:	ff010113          	addi	sp,sp,-16
200035f8:	00a00613          	li	a2,10
200035fc:	00000693          	li	a3,0
20003600:	00112623          	sw	ra,12(sp)
20003604:	f5cfe0ef          	jal	ra,20001d60 <__udivdi3>
20003608:	00c12083          	lw	ra,12(sp)
2000360c:	01010113          	addi	sp,sp,16
20003610:	00008067          	ret

20003614 <_Z17E32SetTimeComparey>:
20003614:	00058713          	mv	a4,a1
20003618:	00000793          	li	a5,0
2000361c:	80171773          	csrrw	a4,0x801,a4
20003620:	80051573          	csrrw	a0,0x800,a0
20003624:	00008067          	ret

20003628 <_chdir>:
20003628:	ff010113          	addi	sp,sp,-16
2000362c:	00112623          	sw	ra,12(sp)
20003630:	a75fc0ef          	jal	ra,200000a4 <__errno>
20003634:	00c12083          	lw	ra,12(sp)
20003638:	05800793          	li	a5,88
2000363c:	00f52023          	sw	a5,0(a0) # 80000000 <_end+0x5fff09c8>
20003640:	fff00513          	li	a0,-1
20003644:	01010113          	addi	sp,sp,16
20003648:	00008067          	ret

2000364c <_getcwd>:
2000364c:	ff010113          	addi	sp,sp,-16
20003650:	00112623          	sw	ra,12(sp)
20003654:	a51fc0ef          	jal	ra,200000a4 <__errno>
20003658:	00c12083          	lw	ra,12(sp)
2000365c:	fa800793          	li	a5,-88
20003660:	00f52023          	sw	a5,0(a0)
20003664:	00000513          	li	a0,0
20003668:	01010113          	addi	sp,sp,16
2000366c:	00008067          	ret

20003670 <_fstat>:
20003670:	ff010113          	addi	sp,sp,-16
20003674:	00112623          	sw	ra,12(sp)
20003678:	a2dfc0ef          	jal	ra,200000a4 <__errno>
2000367c:	00c12083          	lw	ra,12(sp)
20003680:	05800793          	li	a5,88
20003684:	00f52023          	sw	a5,0(a0)
20003688:	fff00513          	li	a0,-1
2000368c:	01010113          	addi	sp,sp,16
20003690:	00008067          	ret

20003694 <_close>:
20003694:	22c00793          	li	a5,556
20003698:	02f50533          	mul	a0,a0,a5
2000369c:	00007797          	auipc	a5,0x7
200036a0:	e787a783          	lw	a5,-392(a5) # 2000a514 <_GLOBAL_OFFSET_TABLE_+0x4>
200036a4:	ff010113          	addi	sp,sp,-16
200036a8:	00112623          	sw	ra,12(sp)
200036ac:	00a78533          	add	a0,a5,a0
200036b0:	23c030ef          	jal	ra,200068ec <f_close>
200036b4:	00c12083          	lw	ra,12(sp)
200036b8:	00000513          	li	a0,0
200036bc:	01010113          	addi	sp,sp,16
200036c0:	00008067          	ret

200036c4 <_lseek>:
200036c4:	22c00793          	li	a5,556
200036c8:	02f507b3          	mul	a5,a0,a5
200036cc:	ff010113          	addi	sp,sp,-16
200036d0:	00007717          	auipc	a4,0x7
200036d4:	e4472703          	lw	a4,-444(a4) # 2000a514 <_GLOBAL_OFFSET_TABLE_+0x4>
200036d8:	00812423          	sw	s0,8(sp)
200036dc:	00112623          	sw	ra,12(sp)
200036e0:	00058413          	mv	s0,a1
200036e4:	00200593          	li	a1,2
200036e8:	00f707b3          	add	a5,a4,a5
200036ec:	0147a683          	lw	a3,20(a5)
200036f0:	02b61863          	bne	a2,a1,20003720 <_lseek+0x5c>
200036f4:	00c7a403          	lw	s0,12(a5)
200036f8:	22c00793          	li	a5,556
200036fc:	02f50533          	mul	a0,a0,a5
20003700:	00040593          	mv	a1,s0
20003704:	00a70533          	add	a0,a4,a0
20003708:	2f8030ef          	jal	ra,20006a00 <f_lseek>
2000370c:	00c12083          	lw	ra,12(sp)
20003710:	00040513          	mv	a0,s0
20003714:	00812403          	lw	s0,8(sp)
20003718:	01010113          	addi	sp,sp,16
2000371c:	00008067          	ret
20003720:	00100793          	li	a5,1
20003724:	fcf61ae3          	bne	a2,a5,200036f8 <_lseek+0x34>
20003728:	00d40433          	add	s0,s0,a3
2000372c:	fcdff06f          	j	200036f8 <_lseek+0x34>

20003730 <_lstat>:
20003730:	ff010113          	addi	sp,sp,-16
20003734:	00112623          	sw	ra,12(sp)
20003738:	96dfc0ef          	jal	ra,200000a4 <__errno>
2000373c:	00c12083          	lw	ra,12(sp)
20003740:	05800793          	li	a5,88
20003744:	00f52023          	sw	a5,0(a0)
20003748:	fff00513          	li	a0,-1
2000374c:	01010113          	addi	sp,sp,16
20003750:	00008067          	ret

20003754 <_open>:
20003754:	ff010113          	addi	sp,sp,-16
20003758:	00912223          	sw	s1,4(sp)
2000375c:	00007497          	auipc	s1,0x7
20003760:	dd84a483          	lw	s1,-552(s1) # 2000a534 <_GLOBAL_OFFSET_TABLE_+0x24>
20003764:	00812423          	sw	s0,8(sp)
20003768:	0004a403          	lw	s0,0(s1)
2000376c:	22c00793          	li	a5,556
20003770:	00050593          	mv	a1,a0
20003774:	02f407b3          	mul	a5,s0,a5
20003778:	00007517          	auipc	a0,0x7
2000377c:	d9c52503          	lw	a0,-612(a0) # 2000a514 <_GLOBAL_OFFSET_TABLE_+0x4>
20003780:	00100613          	li	a2,1
20003784:	00112623          	sw	ra,12(sp)
20003788:	00f50533          	add	a0,a0,a5
2000378c:	304020ef          	jal	ra,20005a90 <f_open>
20003790:	02051463          	bnez	a0,200037b8 <_open+0x64>
20003794:	0004a783          	lw	a5,0(s1)
20003798:	00178793          	addi	a5,a5,1
2000379c:	00f4a023          	sw	a5,0(s1)
200037a0:	00c12083          	lw	ra,12(sp)
200037a4:	00040513          	mv	a0,s0
200037a8:	00812403          	lw	s0,8(sp)
200037ac:	00412483          	lw	s1,4(sp)
200037b0:	01010113          	addi	sp,sp,16
200037b4:	00008067          	ret
200037b8:	8edfc0ef          	jal	ra,200000a4 <__errno>
200037bc:	00200793          	li	a5,2
200037c0:	00f52023          	sw	a5,0(a0)
200037c4:	fff00413          	li	s0,-1
200037c8:	fd9ff06f          	j	200037a0 <_open+0x4c>

200037cc <_openat>:
200037cc:	ff010113          	addi	sp,sp,-16
200037d0:	00112623          	sw	ra,12(sp)
200037d4:	8d1fc0ef          	jal	ra,200000a4 <__errno>
200037d8:	00c12083          	lw	ra,12(sp)
200037dc:	05800793          	li	a5,88
200037e0:	00f52023          	sw	a5,0(a0)
200037e4:	fff00513          	li	a0,-1
200037e8:	01010113          	addi	sp,sp,16
200037ec:	00008067          	ret

200037f0 <_read>:
200037f0:	22c00793          	li	a5,556
200037f4:	02f50533          	mul	a0,a0,a5
200037f8:	fe010113          	addi	sp,sp,-32
200037fc:	00007797          	auipc	a5,0x7
20003800:	d187a783          	lw	a5,-744(a5) # 2000a514 <_GLOBAL_OFFSET_TABLE_+0x4>
20003804:	00c10693          	addi	a3,sp,12
20003808:	00112e23          	sw	ra,28(sp)
2000380c:	00a78533          	add	a0,a5,a0
20003810:	1a1020ef          	jal	ra,200061b0 <f_read>
20003814:	00051a63          	bnez	a0,20003828 <_read+0x38>
20003818:	00c12503          	lw	a0,12(sp)
2000381c:	01c12083          	lw	ra,28(sp)
20003820:	02010113          	addi	sp,sp,32
20003824:	00008067          	ret
20003828:	00000513          	li	a0,0
2000382c:	ff1ff06f          	j	2000381c <_read+0x2c>

20003830 <_write>:
20003830:	00100793          	li	a5,1
20003834:	06f51a63          	bne	a0,a5,200038a8 <_write+0x78>
20003838:	fe010113          	addi	sp,sp,-32
2000383c:	00812c23          	sw	s0,24(sp)
20003840:	00912a23          	sw	s1,20(sp)
20003844:	01212823          	sw	s2,16(sp)
20003848:	01312623          	sw	s3,12(sp)
2000384c:	00112e23          	sw	ra,28(sp)
20003850:	00058913          	mv	s2,a1
20003854:	00060413          	mv	s0,a2
20003858:	00c589b3          	add	s3,a1,a2
2000385c:	00058493          	mv	s1,a1
20003860:	03349463          	bne	s1,s3,20003888 <_write+0x58>
20003864:	a31ff0ef          	jal	ra,20003294 <_Z9UARTFlushv>
20003868:	01c12083          	lw	ra,28(sp)
2000386c:	00040513          	mv	a0,s0
20003870:	01812403          	lw	s0,24(sp)
20003874:	01412483          	lw	s1,20(sp)
20003878:	01012903          	lw	s2,16(sp)
2000387c:	00c12983          	lw	s3,12(sp)
20003880:	02010113          	addi	sp,sp,32
20003884:	00008067          	ret
20003888:	0004c503          	lbu	a0,0(s1)
2000388c:	a65ff0ef          	jal	ra,200032f0 <_Z11UARTPutCharc>
20003890:	412487b3          	sub	a5,s1,s2
20003894:	07f7f793          	andi	a5,a5,127
20003898:	00079463          	bnez	a5,200038a0 <_write+0x70>
2000389c:	9f9ff0ef          	jal	ra,20003294 <_Z9UARTFlushv>
200038a0:	00148493          	addi	s1,s1,1
200038a4:	fbdff06f          	j	20003860 <_write+0x30>
200038a8:	00000513          	li	a0,0
200038ac:	00008067          	ret

200038b0 <_wait>:
200038b0:	ff010113          	addi	sp,sp,-16
200038b4:	00112623          	sw	ra,12(sp)
200038b8:	fecfc0ef          	jal	ra,200000a4 <__errno>
200038bc:	00c12083          	lw	ra,12(sp)
200038c0:	00a00793          	li	a5,10
200038c4:	00f52023          	sw	a5,0(a0)
200038c8:	fff00513          	li	a0,-1
200038cc:	01010113          	addi	sp,sp,16
200038d0:	00008067          	ret

200038d4 <_sbrk>:
200038d4:	00007697          	auipc	a3,0x7
200038d8:	a0c68693          	addi	a3,a3,-1524 # 2000a2e0 <_ZL10heap_start>
200038dc:	00050713          	mv	a4,a0
200038e0:	0006a503          	lw	a0,0(a3)
200038e4:	1ffe0637          	lui	a2,0x1ffe0
200038e8:	02c50063          	beq	a0,a2,20003908 <_sbrk+0x34>
200038ec:	00e507b3          	add	a5,a0,a4
200038f0:	00c7f863          	bgeu	a5,a2,20003900 <_sbrk+0x2c>
200038f4:	00e787b3          	add	a5,a5,a4
200038f8:	00f6a023          	sw	a5,0(a3)
200038fc:	00008067          	ret
20003900:	00c6a023          	sw	a2,0(a3)
20003904:	00008067          	ret
20003908:	00000513          	li	a0,0
2000390c:	00008067          	ret

20003910 <_Z11SetLEDStatem>:
20003910:	00007797          	auipc	a5,0x7
20003914:	c207a783          	lw	a5,-992(a5) # 2000a530 <_GLOBAL_OFFSET_TABLE_+0x20>
20003918:	0007a783          	lw	a5,0(a5)
2000391c:	00a7a023          	sw	a0,0(a5)
20003920:	00008067          	ret

20003924 <_Z14RingBufferReadPhPvm>:
20003924:	ff010113          	addi	sp,sp,-16
20003928:	01212023          	sw	s2,0(sp)
2000392c:	00007917          	auipc	s2,0x7
20003930:	c3c92903          	lw	s2,-964(s2) # 2000a568 <_GLOBAL_OFFSET_TABLE_+0x58>
20003934:	00092703          	lw	a4,0(s2)
20003938:	00912223          	sw	s1,4(sp)
2000393c:	00112623          	sw	ra,12(sp)
20003940:	00072483          	lw	s1,0(a4)
20003944:	00007717          	auipc	a4,0x7
20003948:	bf472703          	lw	a4,-1036(a4) # 2000a538 <_GLOBAL_OFFSET_TABLE_+0x28>
2000394c:	00072703          	lw	a4,0(a4)
20003950:	00812423          	sw	s0,8(sp)
20003954:	00072703          	lw	a4,0(a4)
20003958:	40970733          	sub	a4,a4,s1
2000395c:	04c76c63          	bltu	a4,a2,200039b4 <_Z14RingBufferReadPhPvm+0x90>
20003960:	00050793          	mv	a5,a0
20003964:	00060413          	mv	s0,a2
20003968:	00058513          	mv	a0,a1
2000396c:	00000013          	nop
20003970:	40000613          	li	a2,1024
20003974:	3ff4f593          	andi	a1,s1,1023
20003978:	40b60633          	sub	a2,a2,a1
2000397c:	00c47463          	bgeu	s0,a2,20003984 <_Z14RingBufferReadPhPvm+0x60>
20003980:	00040613          	mv	a2,s0
20003984:	00b785b3          	add	a1,a5,a1
20003988:	868fd0ef          	jal	ra,200009f0 <memcpy>
2000398c:	00092783          	lw	a5,0(s2)
20003990:	008484b3          	add	s1,s1,s0
20003994:	00100513          	li	a0,1
20003998:	0097a023          	sw	s1,0(a5)
2000399c:	00c12083          	lw	ra,12(sp)
200039a0:	00812403          	lw	s0,8(sp)
200039a4:	00412483          	lw	s1,4(sp)
200039a8:	00012903          	lw	s2,0(sp)
200039ac:	01010113          	addi	sp,sp,16
200039b0:	00008067          	ret
200039b4:	00000513          	li	a0,0
200039b8:	fe5ff06f          	j	2000399c <_Z14RingBufferReadPhPvm+0x78>

200039bc <_Z15RingBufferWritePhPKvm>:
200039bc:	ff010113          	addi	sp,sp,-16
200039c0:	00007797          	auipc	a5,0x7
200039c4:	ba87a783          	lw	a5,-1112(a5) # 2000a568 <_GLOBAL_OFFSET_TABLE_+0x58>
200039c8:	0007a783          	lw	a5,0(a5)
200039cc:	01212023          	sw	s2,0(sp)
200039d0:	00007917          	auipc	s2,0x7
200039d4:	b6892903          	lw	s2,-1176(s2) # 2000a538 <_GLOBAL_OFFSET_TABLE_+0x28>
200039d8:	00092703          	lw	a4,0(s2)
200039dc:	0007a783          	lw	a5,0(a5)
200039e0:	00912223          	sw	s1,4(sp)
200039e4:	00072483          	lw	s1,0(a4)
200039e8:	40078793          	addi	a5,a5,1024
200039ec:	00112623          	sw	ra,12(sp)
200039f0:	00812423          	sw	s0,8(sp)
200039f4:	409787b3          	sub	a5,a5,s1
200039f8:	04c7e863          	bltu	a5,a2,20003a48 <_Z15RingBufferWritePhPKvm+0x8c>
200039fc:	00060413          	mv	s0,a2
20003a00:	3ff4f793          	andi	a5,s1,1023
20003a04:	40000613          	li	a2,1024
20003a08:	40f60633          	sub	a2,a2,a5
20003a0c:	00c47463          	bgeu	s0,a2,20003a14 <_Z15RingBufferWritePhPKvm+0x58>
20003a10:	00040613          	mv	a2,s0
20003a14:	00f50533          	add	a0,a0,a5
20003a18:	fd9fc0ef          	jal	ra,200009f0 <memcpy>
20003a1c:	00000013          	nop
20003a20:	00092783          	lw	a5,0(s2)
20003a24:	008484b3          	add	s1,s1,s0
20003a28:	00100513          	li	a0,1
20003a2c:	0097a023          	sw	s1,0(a5)
20003a30:	00c12083          	lw	ra,12(sp)
20003a34:	00812403          	lw	s0,8(sp)
20003a38:	00412483          	lw	s1,4(sp)
20003a3c:	00012903          	lw	s2,0(sp)
20003a40:	01010113          	addi	sp,sp,16
20003a44:	00008067          	ret
20003a48:	00000513          	li	a0,0
20003a4c:	fe5ff06f          	j	20003a30 <_Z15RingBufferWritePhPKvm+0x74>

20003a50 <_Z12ScanKeyboardPt>:
20003a50:	00007797          	auipc	a5,0x7
20003a54:	adc7a783          	lw	a5,-1316(a5) # 2000a52c <_GLOBAL_OFFSET_TABLE_+0x1c>
20003a58:	0007a583          	lw	a1,0(a5)
20003a5c:	0005a683          	lw	a3,0(a1)
20003a60:	06068c63          	beqz	a3,20003ad8 <_Z12ScanKeyboardPt+0x88>
20003a64:	00007797          	auipc	a5,0x7
20003a68:	ae87a783          	lw	a5,-1304(a5) # 2000a54c <_GLOBAL_OFFSET_TABLE_+0x3c>
20003a6c:	0007a603          	lw	a2,0(a5)
20003a70:	0e000693          	li	a3,224
20003a74:	00000713          	li	a4,0
20003a78:	00062783          	lw	a5,0(a2) # 1ffe0000 <_start-0x20000>
20003a7c:	0ff7f793          	zext.b	a5,a5
20003a80:	00d79c63          	bne	a5,a3,20003a98 <_Z12ScanKeyboardPt+0x48>
20003a84:	0005a783          	lw	a5,0(a1)
20003a88:	fe078ee3          	beqz	a5,20003a84 <_Z12ScanKeyboardPt+0x34>
20003a8c:	00062783          	lw	a5,0(a2)
20003a90:	00200713          	li	a4,2
20003a94:	0ff7f793          	zext.b	a5,a5
20003a98:	0f000813          	li	a6,240
20003a9c:	00000693          	li	a3,0
20003aa0:	01079c63          	bne	a5,a6,20003ab8 <_Z12ScanKeyboardPt+0x68>
20003aa4:	0005a783          	lw	a5,0(a1)
20003aa8:	fe078ee3          	beqz	a5,20003aa4 <_Z12ScanKeyboardPt+0x54>
20003aac:	00062783          	lw	a5,0(a2)
20003ab0:	00100693          	li	a3,1
20003ab4:	0ff7f793          	zext.b	a5,a5
20003ab8:	00971713          	slli	a4,a4,0x9
20003abc:	00869693          	slli	a3,a3,0x8
20003ac0:	00179613          	slli	a2,a5,0x1
20003ac4:	00d76733          	or	a4,a4,a3
20003ac8:	00c50533          	add	a0,a0,a2
20003acc:	00f76733          	or	a4,a4,a5
20003ad0:	00e51023          	sh	a4,0(a0)
20003ad4:	00008067          	ret
20003ad8:	00000713          	li	a4,0
20003adc:	00000793          	li	a5,0
20003ae0:	fd9ff06f          	j	20003ab8 <_Z12ScanKeyboardPt+0x68>

20003ae4 <_Z11ScanToASCIIhh>:
20003ae4:	00007797          	auipc	a5,0x7
20003ae8:	a407a783          	lw	a5,-1472(a5) # 2000a524 <_GLOBAL_OFFSET_TABLE_+0x14>
20003aec:	00059663          	bnez	a1,20003af8 <_Z11ScanToASCIIhh+0x14>
20003af0:	00007797          	auipc	a5,0x7
20003af4:	a4c7a783          	lw	a5,-1460(a5) # 2000a53c <_GLOBAL_OFFSET_TABLE_+0x2c>
20003af8:	00a787b3          	add	a5,a5,a0
20003afc:	0007c503          	lbu	a0,0(a5)
20003b00:	00008067          	ret

20003b04 <_Z7SPITxRxh>:
20003b04:	00007797          	auipc	a5,0x7
20003b08:	a407a783          	lw	a5,-1472(a5) # 2000a544 <_GLOBAL_OFFSET_TABLE_+0x34>
20003b0c:	0007a703          	lw	a4,0(a5)
20003b10:	00a70023          	sb	a0,0(a4)
20003b14:	0007a783          	lw	a5,0(a5)
20003b18:	0007c503          	lbu	a0,0(a5)
20003b1c:	00008067          	ret

20003b20 <_Z5SDCmd13SDCardCommandm>:
20003b20:	fd010113          	addi	sp,sp,-48
20003b24:	0185d793          	srli	a5,a1,0x18
20003b28:	03f57513          	andi	a0,a0,63
20003b2c:	00f104a3          	sb	a5,9(sp)
20003b30:	0105d793          	srli	a5,a1,0x10
20003b34:	04056513          	ori	a0,a0,64
20003b38:	00f10523          	sb	a5,10(sp)
20003b3c:	0085d793          	srli	a5,a1,0x8
20003b40:	03212023          	sw	s2,32(sp)
20003b44:	00a10423          	sb	a0,8(sp)
20003b48:	00f105a3          	sb	a5,11(sp)
20003b4c:	02112623          	sw	ra,44(sp)
20003b50:	02812423          	sw	s0,40(sp)
20003b54:	02912223          	sw	s1,36(sp)
20003b58:	01312e23          	sw	s3,28(sp)
20003b5c:	00b10623          	sb	a1,12(sp)
20003b60:	00000613          	li	a2,0
20003b64:	00000793          	li	a5,0
20003b68:	00810913          	addi	s2,sp,8
20003b6c:	00500513          	li	a0,5
20003b70:	00c90733          	add	a4,s2,a2
20003b74:	00074683          	lbu	a3,0(a4)
20003b78:	00800713          	li	a4,8
20003b7c:	00179793          	slli	a5,a5,0x1
20003b80:	0ff7f793          	zext.b	a5,a5
20003b84:	00d7c5b3          	xor	a1,a5,a3
20003b88:	01859593          	slli	a1,a1,0x18
20003b8c:	4185d593          	srai	a1,a1,0x18
20003b90:	0005d463          	bgez	a1,20003b98 <_Z5SDCmd13SDCardCommandm+0x78>
20003b94:	0097c793          	xori	a5,a5,9
20003b98:	fff70713          	addi	a4,a4,-1
20003b9c:	00169693          	slli	a3,a3,0x1
20003ba0:	0ff77713          	zext.b	a4,a4
20003ba4:	0ff6f693          	zext.b	a3,a3
20003ba8:	fc071ae3          	bnez	a4,20003b7c <_Z5SDCmd13SDCardCommandm+0x5c>
20003bac:	00160613          	addi	a2,a2,1
20003bb0:	fca610e3          	bne	a2,a0,20003b70 <_Z5SDCmd13SDCardCommandm+0x50>
20003bb4:	00179793          	slli	a5,a5,0x1
20003bb8:	0017e793          	ori	a5,a5,1
20003bbc:	0ff00513          	li	a0,255
20003bc0:	00f106a3          	sb	a5,13(sp)
20003bc4:	00000413          	li	s0,0
20003bc8:	f3dff0ef          	jal	ra,20003b04 <_Z7SPITxRxh>
20003bcc:	00600993          	li	s3,6
20003bd0:	008907b3          	add	a5,s2,s0
20003bd4:	0007c503          	lbu	a0,0(a5)
20003bd8:	00140413          	addi	s0,s0,1
20003bdc:	f29ff0ef          	jal	ra,20003b04 <_Z7SPITxRxh>
20003be0:	00050493          	mv	s1,a0
20003be4:	ff3416e3          	bne	s0,s3,20003bd0 <_Z5SDCmd13SDCardCommandm+0xb0>
20003be8:	0ff00513          	li	a0,255
20003bec:	f19ff0ef          	jal	ra,20003b04 <_Z7SPITxRxh>
20003bf0:	02c12083          	lw	ra,44(sp)
20003bf4:	02812403          	lw	s0,40(sp)
20003bf8:	02012903          	lw	s2,32(sp)
20003bfc:	01c12983          	lw	s3,28(sp)
20003c00:	00048513          	mv	a0,s1
20003c04:	02412483          	lw	s1,36(sp)
20003c08:	03010113          	addi	sp,sp,48
20003c0c:	00008067          	ret

20003c10 <_Z11SDResponse1v>:
20003c10:	ff010113          	addi	sp,sp,-16
20003c14:	00812423          	sw	s0,8(sp)
20003c18:	00010437          	lui	s0,0x10
20003c1c:	00112623          	sw	ra,12(sp)
20003c20:	00140413          	addi	s0,s0,1 # 10001 <_start-0x1ffeffff>
20003c24:	0ff00513          	li	a0,255
20003c28:	eddff0ef          	jal	ra,20003b04 <_Z7SPITxRxh>
20003c2c:	0ff00793          	li	a5,255
20003c30:	00f51663          	bne	a0,a5,20003c3c <_Z11SDResponse1v+0x2c>
20003c34:	fff40413          	addi	s0,s0,-1
20003c38:	fe0416e3          	bnez	s0,20003c24 <_Z11SDResponse1v+0x14>
20003c3c:	00c12083          	lw	ra,12(sp)
20003c40:	00812403          	lw	s0,8(sp)
20003c44:	01010113          	addi	sp,sp,16
20003c48:	00008067          	ret

20003c4c <_Z11SDResponse7Pm>:
20003c4c:	fe010113          	addi	sp,sp,-32
20003c50:	00912a23          	sw	s1,20(sp)
20003c54:	01312623          	sw	s3,12(sp)
20003c58:	00112e23          	sw	ra,28(sp)
20003c5c:	00812c23          	sw	s0,24(sp)
20003c60:	01212823          	sw	s2,16(sp)
20003c64:	01412423          	sw	s4,8(sp)
20003c68:	00052023          	sw	zero,0(a0)
20003c6c:	00050993          	mv	s3,a0
20003c70:	fa1ff0ef          	jal	ra,20003c10 <_Z11SDResponse1v>
20003c74:	00100793          	li	a5,1
20003c78:	0ff00493          	li	s1,255
20003c7c:	04a7e863          	bltu	a5,a0,20003ccc <_Z11SDResponse7Pm+0x80>
20003c80:	00050493          	mv	s1,a0
20003c84:	0ff00513          	li	a0,255
20003c88:	e7dff0ef          	jal	ra,20003b04 <_Z7SPITxRxh>
20003c8c:	00050413          	mv	s0,a0
20003c90:	0ff00513          	li	a0,255
20003c94:	e71ff0ef          	jal	ra,20003b04 <_Z7SPITxRxh>
20003c98:	00050a13          	mv	s4,a0
20003c9c:	0ff00513          	li	a0,255
20003ca0:	e65ff0ef          	jal	ra,20003b04 <_Z7SPITxRxh>
20003ca4:	00050913          	mv	s2,a0
20003ca8:	01841413          	slli	s0,s0,0x18
20003cac:	0ff00513          	li	a0,255
20003cb0:	010a1a13          	slli	s4,s4,0x10
20003cb4:	e51ff0ef          	jal	ra,20003b04 <_Z7SPITxRxh>
20003cb8:	01446433          	or	s0,s0,s4
20003cbc:	00a46433          	or	s0,s0,a0
20003cc0:	00891913          	slli	s2,s2,0x8
20003cc4:	01246433          	or	s0,s0,s2
20003cc8:	0089a023          	sw	s0,0(s3)
20003ccc:	01c12083          	lw	ra,28(sp)
20003cd0:	01812403          	lw	s0,24(sp)
20003cd4:	01012903          	lw	s2,16(sp)
20003cd8:	00c12983          	lw	s3,12(sp)
20003cdc:	00812a03          	lw	s4,8(sp)
20003ce0:	00048513          	mv	a0,s1
20003ce4:	01412483          	lw	s1,20(sp)
20003ce8:	02010113          	addi	sp,sp,32
20003cec:	00008067          	ret

20003cf0 <_Z6SDIdlev>:
20003cf0:	ff010113          	addi	sp,sp,-16
20003cf4:	00000593          	li	a1,0
20003cf8:	00000513          	li	a0,0
20003cfc:	00112623          	sw	ra,12(sp)
20003d00:	00812423          	sw	s0,8(sp)
20003d04:	e1dff0ef          	jal	ra,20003b20 <_Z5SDCmd13SDCardCommandm>
20003d08:	f09ff0ef          	jal	ra,20003c10 <_Z11SDResponse1v>
20003d0c:	00100793          	li	a5,1
20003d10:	00050413          	mv	s0,a0
20003d14:	02f50263          	beq	a0,a5,20003d38 <_Z6SDIdlev+0x48>
20003d18:	00004517          	auipc	a0,0x4
20003d1c:	4a050513          	addi	a0,a0,1184 # 200081b8 <__clz_tab+0xc48>
20003d20:	de4ff0ef          	jal	ra,20003304 <_Z9UARTWritePKc>
20003d24:	00040513          	mv	a0,s0
20003d28:	eb0ff0ef          	jal	ra,200033d8 <_Z12UARTWriteHexm>
20003d2c:	00004517          	auipc	a0,0x4
20003d30:	00050513          	mv	a0,a0
20003d34:	dd0ff0ef          	jal	ra,20003304 <_Z9UARTWritePKc>
20003d38:	00c12083          	lw	ra,12(sp)
20003d3c:	00040513          	mv	a0,s0
20003d40:	00812403          	lw	s0,8(sp)
20003d44:	01010113          	addi	sp,sp,16
20003d48:	00008067          	ret

20003d4c <_Z19SDCheckVoltageRangev>:
20003d4c:	fe010113          	addi	sp,sp,-32
20003d50:	1aa00593          	li	a1,426
20003d54:	00800513          	li	a0,8
20003d58:	00112e23          	sw	ra,28(sp)
20003d5c:	00812c23          	sw	s0,24(sp)
20003d60:	dc1ff0ef          	jal	ra,20003b20 <_Z5SDCmd13SDCardCommandm>
20003d64:	00c10513          	addi	a0,sp,12
20003d68:	ee5ff0ef          	jal	ra,20003c4c <_Z11SDResponse7Pm>
20003d6c:	00100793          	li	a5,1
20003d70:	00050413          	mv	s0,a0
20003d74:	02f50263          	beq	a0,a5,20003d98 <_Z19SDCheckVoltageRangev+0x4c>
20003d78:	00004517          	auipc	a0,0x4
20003d7c:	46050513          	addi	a0,a0,1120 # 200081d8 <__clz_tab+0xc68>
20003d80:	d84ff0ef          	jal	ra,20003304 <_Z9UARTWritePKc>
20003d84:	00040513          	mv	a0,s0
20003d88:	e50ff0ef          	jal	ra,200033d8 <_Z12UARTWriteHexm>
20003d8c:	00004517          	auipc	a0,0x4
20003d90:	fa050513          	addi	a0,a0,-96 # 20007d2c <__clz_tab+0x7bc>
20003d94:	d70ff0ef          	jal	ra,20003304 <_Z9UARTWritePKc>
20003d98:	00c12703          	lw	a4,12(sp)
20003d9c:	1aa00793          	li	a5,426
20003da0:	02f70263          	beq	a4,a5,20003dc4 <_Z19SDCheckVoltageRangev+0x78>
20003da4:	00004517          	auipc	a0,0x4
20003da8:	46050513          	addi	a0,a0,1120 # 20008204 <__clz_tab+0xc94>
20003dac:	d58ff0ef          	jal	ra,20003304 <_Z9UARTWritePKc>
20003db0:	00c12503          	lw	a0,12(sp)
20003db4:	e24ff0ef          	jal	ra,200033d8 <_Z12UARTWriteHexm>
20003db8:	00004517          	auipc	a0,0x4
20003dbc:	f7450513          	addi	a0,a0,-140 # 20007d2c <__clz_tab+0x7bc>
20003dc0:	d44ff0ef          	jal	ra,20003304 <_Z9UARTWritePKc>
20003dc4:	01c12083          	lw	ra,28(sp)
20003dc8:	00040513          	mv	a0,s0
20003dcc:	01812403          	lw	s0,24(sp)
20003dd0:	02010113          	addi	sp,sp,32
20003dd4:	00008067          	ret

20003dd8 <_Z10SDCardInitv>:
20003dd8:	ff010113          	addi	sp,sp,-16
20003ddc:	01212023          	sw	s2,0(sp)
20003de0:	00112623          	sw	ra,12(sp)
20003de4:	00812423          	sw	s0,8(sp)
20003de8:	00912223          	sw	s1,4(sp)
20003dec:	00010937          	lui	s2,0x10
20003df0:	00000593          	li	a1,0
20003df4:	03700513          	li	a0,55
20003df8:	d29ff0ef          	jal	ra,20003b20 <_Z5SDCmd13SDCardCommandm>
20003dfc:	e15ff0ef          	jal	ra,20003c10 <_Z11SDResponse1v>
20003e00:	400005b7          	lui	a1,0x40000
20003e04:	00050493          	mv	s1,a0
20003e08:	02900513          	li	a0,41
20003e0c:	d15ff0ef          	jal	ra,20003b20 <_Z5SDCmd13SDCardCommandm>
20003e10:	e01ff0ef          	jal	ra,20003c10 <_Z11SDResponse1v>
20003e14:	00050413          	mv	s0,a0
20003e18:	06050e63          	beqz	a0,20003e94 <_Z10SDCardInitv+0xbc>
20003e1c:	fff90913          	addi	s2,s2,-1 # ffff <_start-0x1fff0001>
20003e20:	fc0918e3          	bnez	s2,20003df0 <_Z10SDCardInitv+0x18>
20003e24:	00100793          	li	a5,1
20003e28:	04f48463          	beq	s1,a5,20003e70 <_Z10SDCardInitv+0x98>
20003e2c:	00004517          	auipc	a0,0x4
20003e30:	40850513          	addi	a0,a0,1032 # 20008234 <__clz_tab+0xcc4>
20003e34:	cd0ff0ef          	jal	ra,20003304 <_Z9UARTWritePKc>
20003e38:	00048513          	mv	a0,s1
20003e3c:	d9cff0ef          	jal	ra,200033d8 <_Z12UARTWriteHexm>
20003e40:	00004517          	auipc	a0,0x4
20003e44:	eec50513          	addi	a0,a0,-276 # 20007d2c <__clz_tab+0x7bc>
20003e48:	cbcff0ef          	jal	ra,20003304 <_Z9UARTWritePKc>
20003e4c:	02041263          	bnez	s0,20003e70 <_Z10SDCardInitv+0x98>
20003e50:	00000413          	li	s0,0
20003e54:	00c12083          	lw	ra,12(sp)
20003e58:	00040513          	mv	a0,s0
20003e5c:	00812403          	lw	s0,8(sp)
20003e60:	00412483          	lw	s1,4(sp)
20003e64:	00012903          	lw	s2,0(sp)
20003e68:	01010113          	addi	sp,sp,16
20003e6c:	00008067          	ret
20003e70:	00004517          	auipc	a0,0x4
20003e74:	3e850513          	addi	a0,a0,1000 # 20008258 <__clz_tab+0xce8>
20003e78:	c8cff0ef          	jal	ra,20003304 <_Z9UARTWritePKc>
20003e7c:	00040513          	mv	a0,s0
20003e80:	d58ff0ef          	jal	ra,200033d8 <_Z12UARTWriteHexm>
20003e84:	00004517          	auipc	a0,0x4
20003e88:	ea850513          	addi	a0,a0,-344 # 20007d2c <__clz_tab+0x7bc>
20003e8c:	c78ff0ef          	jal	ra,20003304 <_Z9UARTWritePKc>
20003e90:	fc5ff06f          	j	20003e54 <_Z10SDCardInitv+0x7c>
20003e94:	00100793          	li	a5,1
20003e98:	faf48ce3          	beq	s1,a5,20003e50 <_Z10SDCardInitv+0x78>
20003e9c:	f91ff06f          	j	20003e2c <_Z10SDCardInitv+0x54>

20003ea0 <_Z17SDSetBlockSize512v>:
20003ea0:	ff010113          	addi	sp,sp,-16
20003ea4:	20000593          	li	a1,512
20003ea8:	01000513          	li	a0,16
20003eac:	00112623          	sw	ra,12(sp)
20003eb0:	c71ff0ef          	jal	ra,20003b20 <_Z5SDCmd13SDCardCommandm>
20003eb4:	00c12083          	lw	ra,12(sp)
20003eb8:	01010113          	addi	sp,sp,16
20003ebc:	d55ff06f          	j	20003c10 <_Z11SDResponse1v>

20003ec0 <_Z17SDReadSingleBlockmPhS_>:
20003ec0:	fe010113          	addi	sp,sp,-32
20003ec4:	00912a23          	sw	s1,20(sp)
20003ec8:	01412423          	sw	s4,8(sp)
20003ecc:	00050493          	mv	s1,a0
20003ed0:	00058a13          	mv	s4,a1
20003ed4:	00050593          	mv	a1,a0
20003ed8:	01100513          	li	a0,17
20003edc:	00112e23          	sw	ra,28(sp)
20003ee0:	00812c23          	sw	s0,24(sp)
20003ee4:	01212823          	sw	s2,16(sp)
20003ee8:	01312623          	sw	s3,12(sp)
20003eec:	00060913          	mv	s2,a2
20003ef0:	01512223          	sw	s5,4(sp)
20003ef4:	c2dff0ef          	jal	ra,20003b20 <_Z5SDCmd13SDCardCommandm>
20003ef8:	d19ff0ef          	jal	ra,20003c10 <_Z11SDResponse1v>
20003efc:	0ff00793          	li	a5,255
20003f00:	00050413          	mv	s0,a0
20003f04:	04f50663          	beq	a0,a5,20003f50 <_Z17SDReadSingleBlockmPhS_+0x90>
20003f08:	d09ff0ef          	jal	ra,20003c10 <_Z11SDResponse1v>
20003f0c:	0fe00793          	li	a5,254
20003f10:	00050413          	mv	s0,a0
20003f14:	02f51e63          	bne	a0,a5,20003f50 <_Z17SDReadSingleBlockmPhS_+0x90>
20003f18:	00000993          	li	s3,0
20003f1c:	20000a93          	li	s5,512
20003f20:	0ff00513          	li	a0,255
20003f24:	be1ff0ef          	jal	ra,20003b04 <_Z7SPITxRxh>
20003f28:	013a07b3          	add	a5,s4,s3
20003f2c:	00a78023          	sb	a0,0(a5)
20003f30:	00198993          	addi	s3,s3,1
20003f34:	ff5996e3          	bne	s3,s5,20003f20 <_Z17SDReadSingleBlockmPhS_+0x60>
20003f38:	0ff00513          	li	a0,255
20003f3c:	bc9ff0ef          	jal	ra,20003b04 <_Z7SPITxRxh>
20003f40:	00a90023          	sb	a0,0(s2)
20003f44:	0ff00513          	li	a0,255
20003f48:	bbdff0ef          	jal	ra,20003b04 <_Z7SPITxRxh>
20003f4c:	00a900a3          	sb	a0,1(s2)
20003f50:	0f047793          	andi	a5,s0,240
20003f54:	06079463          	bnez	a5,20003fbc <_Z17SDReadSingleBlockmPhS_+0xfc>
20003f58:	00147793          	andi	a5,s0,1
20003f5c:	00078863          	beqz	a5,20003f6c <_Z17SDReadSingleBlockmPhS_+0xac>
20003f60:	00004517          	auipc	a0,0x4
20003f64:	31c50513          	addi	a0,a0,796 # 2000827c <__clz_tab+0xd0c>
20003f68:	b9cff0ef          	jal	ra,20003304 <_Z9UARTWritePKc>
20003f6c:	00247793          	andi	a5,s0,2
20003f70:	00078863          	beqz	a5,20003f80 <_Z17SDReadSingleBlockmPhS_+0xc0>
20003f74:	00004517          	auipc	a0,0x4
20003f78:	33850513          	addi	a0,a0,824 # 200082ac <__clz_tab+0xd3c>
20003f7c:	b88ff0ef          	jal	ra,20003304 <_Z9UARTWritePKc>
20003f80:	00447793          	andi	a5,s0,4
20003f84:	00078863          	beqz	a5,20003f94 <_Z17SDReadSingleBlockmPhS_+0xd4>
20003f88:	00004517          	auipc	a0,0x4
20003f8c:	35450513          	addi	a0,a0,852 # 200082dc <__clz_tab+0xd6c>
20003f90:	b74ff0ef          	jal	ra,20003304 <_Z9UARTWritePKc>
20003f94:	00847793          	andi	a5,s0,8
20003f98:	02078263          	beqz	a5,20003fbc <_Z17SDReadSingleBlockmPhS_+0xfc>
20003f9c:	00004517          	auipc	a0,0x4
20003fa0:	37850513          	addi	a0,a0,888 # 20008314 <__clz_tab+0xda4>
20003fa4:	b60ff0ef          	jal	ra,20003304 <_Z9UARTWritePKc>
20003fa8:	00048513          	mv	a0,s1
20003fac:	c2cff0ef          	jal	ra,200033d8 <_Z12UARTWriteHexm>
20003fb0:	00004517          	auipc	a0,0x4
20003fb4:	d7c50513          	addi	a0,a0,-644 # 20007d2c <__clz_tab+0x7bc>
20003fb8:	b4cff0ef          	jal	ra,20003304 <_Z9UARTWritePKc>
20003fbc:	01c12083          	lw	ra,28(sp)
20003fc0:	00040513          	mv	a0,s0
20003fc4:	01812403          	lw	s0,24(sp)
20003fc8:	01412483          	lw	s1,20(sp)
20003fcc:	01012903          	lw	s2,16(sp)
20003fd0:	00c12983          	lw	s3,12(sp)
20003fd4:	00812a03          	lw	s4,8(sp)
20003fd8:	00412a83          	lw	s5,4(sp)
20003fdc:	02010113          	addi	sp,sp,32
20003fe0:	00008067          	ret

20003fe4 <_Z18SDWriteSingleBlockmPhS_>:
20003fe4:	ff010113          	addi	sp,sp,-16
20003fe8:	00912223          	sw	s1,4(sp)
20003fec:	00058493          	mv	s1,a1
20003ff0:	00050593          	mv	a1,a0
20003ff4:	01100513          	li	a0,17
20003ff8:	00112623          	sw	ra,12(sp)
20003ffc:	00812423          	sw	s0,8(sp)
20004000:	01212023          	sw	s2,0(sp)
20004004:	b1dff0ef          	jal	ra,20003b20 <_Z5SDCmd13SDCardCommandm>
20004008:	c09ff0ef          	jal	ra,20003c10 <_Z11SDResponse1v>
2000400c:	06051063          	bnez	a0,2000406c <_Z18SDWriteSingleBlockmPhS_+0x88>
20004010:	0fe00513          	li	a0,254
20004014:	af1ff0ef          	jal	ra,20003b04 <_Z7SPITxRxh>
20004018:	00000413          	li	s0,0
2000401c:	20000913          	li	s2,512
20004020:	008487b3          	add	a5,s1,s0
20004024:	0007c503          	lbu	a0,0(a5)
20004028:	00140413          	addi	s0,s0,1
2000402c:	ad9ff0ef          	jal	ra,20003b04 <_Z7SPITxRxh>
20004030:	ff2418e3          	bne	s0,s2,20004020 <_Z18SDWriteSingleBlockmPhS_+0x3c>
20004034:	bddff0ef          	jal	ra,20003c10 <_Z11SDResponse1v>
20004038:	01f57513          	andi	a0,a0,31
2000403c:	00500793          	li	a5,5
20004040:	00f51e63          	bne	a0,a5,2000405c <_Z18SDWriteSingleBlockmPhS_+0x78>
20004044:	00812403          	lw	s0,8(sp)
20004048:	00c12083          	lw	ra,12(sp)
2000404c:	00412483          	lw	s1,4(sp)
20004050:	00012903          	lw	s2,0(sp)
20004054:	01010113          	addi	sp,sp,16
20004058:	bb9ff06f          	j	20003c10 <_Z11SDResponse1v>
2000405c:	00004517          	auipc	a0,0x4
20004060:	2f850513          	addi	a0,a0,760 # 20008354 <__clz_tab+0xde4>
20004064:	aa0ff0ef          	jal	ra,20003304 <_Z9UARTWritePKc>
20004068:	0ff00513          	li	a0,255
2000406c:	00c12083          	lw	ra,12(sp)
20004070:	00812403          	lw	s0,8(sp)
20004074:	00412483          	lw	s1,4(sp)
20004078:	00012903          	lw	s2,0(sp)
2000407c:	01010113          	addi	sp,sp,16
20004080:	00008067          	ret

20004084 <_Z20SDReadMultipleBlocksPhmm>:
20004084:	dd010113          	addi	sp,sp,-560
20004088:	21412c23          	sw	s4,536(sp)
2000408c:	22112623          	sw	ra,556(sp)
20004090:	22812423          	sw	s0,552(sp)
20004094:	22912223          	sw	s1,548(sp)
20004098:	23212023          	sw	s2,544(sp)
2000409c:	21312e23          	sw	s3,540(sp)
200040a0:	21512a23          	sw	s5,532(sp)
200040a4:	21612823          	sw	s6,528(sp)
200040a8:	00c58a33          	add	s4,a1,a2
200040ac:	04058a63          	beqz	a1,20004100 <_Z20SDReadMultipleBlocksPhmm+0x7c>
200040b0:	00050913          	mv	s2,a0
200040b4:	00060493          	mv	s1,a2
200040b8:	00000413          	li	s0,0
200040bc:	00c10a93          	addi	s5,sp,12
200040c0:	01010993          	addi	s3,sp,16
200040c4:	0fe00b13          	li	s6,254
200040c8:	000a8613          	mv	a2,s5
200040cc:	00098593          	mv	a1,s3
200040d0:	00048513          	mv	a0,s1
200040d4:	dedff0ef          	jal	ra,20003ec0 <_Z17SDReadSingleBlockmPhS_>
200040d8:	03651463          	bne	a0,s6,20004100 <_Z20SDReadMultipleBlocksPhmm+0x7c>
200040dc:	00890533          	add	a0,s2,s0
200040e0:	20000613          	li	a2,512
200040e4:	00098593          	mv	a1,s3
200040e8:	00148493          	addi	s1,s1,1
200040ec:	905fc0ef          	jal	ra,200009f0 <memcpy>
200040f0:	20040413          	addi	s0,s0,512
200040f4:	fc9a1ae3          	bne	s4,s1,200040c8 <_Z20SDReadMultipleBlocksPhmm+0x44>
200040f8:	00040513          	mv	a0,s0
200040fc:	0080006f          	j	20004104 <_Z20SDReadMultipleBlocksPhmm+0x80>
20004100:	fff00513          	li	a0,-1
20004104:	22c12083          	lw	ra,556(sp)
20004108:	22812403          	lw	s0,552(sp)
2000410c:	22412483          	lw	s1,548(sp)
20004110:	22012903          	lw	s2,544(sp)
20004114:	21c12983          	lw	s3,540(sp)
20004118:	21812a03          	lw	s4,536(sp)
2000411c:	21412a83          	lw	s5,532(sp)
20004120:	21012b03          	lw	s6,528(sp)
20004124:	23010113          	addi	sp,sp,560
20004128:	00008067          	ret

2000412c <_Z21SDWriteMultipleBlocksPKhmm>:
2000412c:	dd010113          	addi	sp,sp,-560
20004130:	21412c23          	sw	s4,536(sp)
20004134:	22112623          	sw	ra,556(sp)
20004138:	22812423          	sw	s0,552(sp)
2000413c:	22912223          	sw	s1,548(sp)
20004140:	23212023          	sw	s2,544(sp)
20004144:	21312e23          	sw	s3,540(sp)
20004148:	21512a23          	sw	s5,532(sp)
2000414c:	21612823          	sw	s6,528(sp)
20004150:	00c58a33          	add	s4,a1,a2
20004154:	04058a63          	beqz	a1,200041a8 <_Z21SDWriteMultipleBlocksPKhmm+0x7c>
20004158:	00050913          	mv	s2,a0
2000415c:	00060493          	mv	s1,a2
20004160:	00000413          	li	s0,0
20004164:	01010993          	addi	s3,sp,16
20004168:	00c10a93          	addi	s5,sp,12
2000416c:	0fe00b13          	li	s6,254
20004170:	20000613          	li	a2,512
20004174:	008905b3          	add	a1,s2,s0
20004178:	00098513          	mv	a0,s3
2000417c:	875fc0ef          	jal	ra,200009f0 <memcpy>
20004180:	000a8613          	mv	a2,s5
20004184:	00098593          	mv	a1,s3
20004188:	00048513          	mv	a0,s1
2000418c:	e59ff0ef          	jal	ra,20003fe4 <_Z18SDWriteSingleBlockmPhS_>
20004190:	01651c63          	bne	a0,s6,200041a8 <_Z21SDWriteMultipleBlocksPKhmm+0x7c>
20004194:	00148493          	addi	s1,s1,1
20004198:	20040413          	addi	s0,s0,512
2000419c:	fc9a1ae3          	bne	s4,s1,20004170 <_Z21SDWriteMultipleBlocksPKhmm+0x44>
200041a0:	00040513          	mv	a0,s0
200041a4:	0080006f          	j	200041ac <_Z21SDWriteMultipleBlocksPKhmm+0x80>
200041a8:	fff00513          	li	a0,-1
200041ac:	22c12083          	lw	ra,556(sp)
200041b0:	22812403          	lw	s0,552(sp)
200041b4:	22412483          	lw	s1,548(sp)
200041b8:	22012903          	lw	s2,544(sp)
200041bc:	21c12983          	lw	s3,540(sp)
200041c0:	21812a03          	lw	s4,536(sp)
200041c4:	21412a83          	lw	s5,532(sp)
200041c8:	21012b03          	lw	s6,528(sp)
200041cc:	23010113          	addi	sp,sp,560
200041d0:	00008067          	ret

200041d4 <_Z13SDCardStartupv>:
200041d4:	ff010113          	addi	sp,sp,-16
200041d8:	00812423          	sw	s0,8(sp)
200041dc:	00112623          	sw	ra,12(sp)
200041e0:	00a00413          	li	s0,10
200041e4:	0ff00513          	li	a0,255
200041e8:	fff40413          	addi	s0,s0,-1
200041ec:	919ff0ef          	jal	ra,20003b04 <_Z7SPITxRxh>
200041f0:	fe041ae3          	bnez	s0,200041e4 <_Z13SDCardStartupv+0x10>
200041f4:	afdff0ef          	jal	ra,20003cf0 <_Z6SDIdlev>
200041f8:	00100793          	li	a5,1
200041fc:	00050413          	mv	s0,a0
20004200:	00f50c63          	beq	a0,a5,20004218 <_Z13SDCardStartupv+0x44>
20004204:	fff00513          	li	a0,-1
20004208:	00c12083          	lw	ra,12(sp)
2000420c:	00812403          	lw	s0,8(sp)
20004210:	01010113          	addi	sp,sp,16
20004214:	00008067          	ret
20004218:	b35ff0ef          	jal	ra,20003d4c <_Z19SDCheckVoltageRangev>
2000421c:	fe8514e3          	bne	a0,s0,20004204 <_Z13SDCardStartupv+0x30>
20004220:	bb9ff0ef          	jal	ra,20003dd8 <_Z10SDCardInitv>
20004224:	00a03533          	snez	a0,a0
20004228:	40a00533          	neg	a0,a0
2000422c:	fddff06f          	j	20004208 <_Z13SDCardStartupv+0x34>

20004230 <_ZL8ld_dwordPKh>:
20004230:	00154703          	lbu	a4,1(a0)
20004234:	00054783          	lbu	a5,0(a0)
20004238:	00871713          	slli	a4,a4,0x8
2000423c:	00f76733          	or	a4,a4,a5
20004240:	00254783          	lbu	a5,2(a0)
20004244:	00354503          	lbu	a0,3(a0)
20004248:	01079793          	slli	a5,a5,0x10
2000424c:	00e7e7b3          	or	a5,a5,a4
20004250:	01851513          	slli	a0,a0,0x18
20004254:	00f56533          	or	a0,a0,a5
20004258:	00008067          	ret

2000425c <_ZL9clst2sectP5FATFSm>:
2000425c:	01c52783          	lw	a5,28(a0)
20004260:	ffe58593          	addi	a1,a1,-2 # 3ffffffe <_end+0x1fff09c6>
20004264:	ffe78793          	addi	a5,a5,-2
20004268:	00f5fc63          	bgeu	a1,a5,20004280 <_ZL9clst2sectP5FATFSm+0x24>
2000426c:	00a55783          	lhu	a5,10(a0)
20004270:	03052703          	lw	a4,48(a0)
20004274:	02b787b3          	mul	a5,a5,a1
20004278:	00e78533          	add	a0,a5,a4
2000427c:	00008067          	ret
20004280:	00000513          	li	a0,0
20004284:	00008067          	ret

20004288 <_ZL10clmt_clustP3FILm>:
20004288:	00052703          	lw	a4,0(a0)
2000428c:	0095d593          	srli	a1,a1,0x9
20004290:	02852783          	lw	a5,40(a0)
20004294:	00a75703          	lhu	a4,10(a4)
20004298:	00478793          	addi	a5,a5,4
2000429c:	02e5d5b3          	divu	a1,a1,a4
200042a0:	0007a503          	lw	a0,0(a5)
200042a4:	00050e63          	beqz	a0,200042c0 <_ZL10clmt_clustP3FILm+0x38>
200042a8:	00a5e863          	bltu	a1,a0,200042b8 <_ZL10clmt_clustP3FILm+0x30>
200042ac:	40a585b3          	sub	a1,a1,a0
200042b0:	00878793          	addi	a5,a5,8
200042b4:	fedff06f          	j	200042a0 <_ZL10clmt_clustP3FILm+0x18>
200042b8:	0047a503          	lw	a0,4(a5)
200042bc:	00a58533          	add	a0,a1,a0
200042c0:	00008067          	ret

200042c4 <_ZL7sum_sfnPKh>:
200042c4:	00050793          	mv	a5,a0
200042c8:	00b50693          	addi	a3,a0,11
200042cc:	00000513          	li	a0,0
200042d0:	0007c603          	lbu	a2,0(a5)
200042d4:	00155713          	srli	a4,a0,0x1
200042d8:	00751513          	slli	a0,a0,0x7
200042dc:	00a76733          	or	a4,a4,a0
200042e0:	00178793          	addi	a5,a5,1
200042e4:	00c70733          	add	a4,a4,a2
200042e8:	0ff77513          	zext.b	a0,a4
200042ec:	fed792e3          	bne	a5,a3,200042d0 <_ZL7sum_sfnPKh+0xc>
200042f0:	00008067          	ret

200042f4 <_ZL12get_ldnumberPPKc>:
200042f4:	00052603          	lw	a2,0(a0)
200042f8:	00050593          	mv	a1,a0
200042fc:	0a060863          	beqz	a2,200043ac <_ZL12get_ldnumberPPKc+0xb8>
20004300:	00060713          	mv	a4,a2
20004304:	01f00513          	li	a0,31
20004308:	03a00693          	li	a3,58
2000430c:	00074783          	lbu	a5,0(a4)
20004310:	00170713          	addi	a4,a4,1
20004314:	0af57663          	bgeu	a0,a5,200043c0 <_ZL12get_ldnumberPPKc+0xcc>
20004318:	fed79ae3          	bne	a5,a3,2000430c <_ZL12get_ldnumberPPKc+0x18>
2000431c:	00064783          	lbu	a5,0(a2)
20004320:	fd078513          	addi	a0,a5,-48
20004324:	0ff57693          	zext.b	a3,a0
20004328:	00900793          	li	a5,9
2000432c:	06d7f863          	bgeu	a5,a3,2000439c <_ZL12get_ldnumberPPKc+0xa8>
20004330:	00006897          	auipc	a7,0x6
20004334:	1d488893          	addi	a7,a7,468 # 2000a504 <_ZL9VolumeStr>
20004338:	00000513          	li	a0,0
2000433c:	01900e93          	li	t4,25
20004340:	00300f13          	li	t5,3
20004344:	0008a303          	lw	t1,0(a7)
20004348:	00060813          	mv	a6,a2
2000434c:	00034783          	lbu	a5,0(t1)
20004350:	00130313          	addi	t1,t1,1
20004354:	00180813          	addi	a6,a6,1
20004358:	f9f78e13          	addi	t3,a5,-97
2000435c:	0ffe7e13          	zext.b	t3,t3
20004360:	fff84683          	lbu	a3,-1(a6)
20004364:	01cee663          	bltu	t4,t3,20004370 <_ZL12get_ldnumberPPKc+0x7c>
20004368:	fe078793          	addi	a5,a5,-32
2000436c:	0ff7f793          	zext.b	a5,a5
20004370:	f9f68e13          	addi	t3,a3,-97
20004374:	0ffe7e13          	zext.b	t3,t3
20004378:	01cee663          	bltu	t4,t3,20004384 <_ZL12get_ldnumberPPKc+0x90>
2000437c:	fe068693          	addi	a3,a3,-32
20004380:	0ff6f693          	zext.b	a3,a3
20004384:	02078863          	beqz	a5,200043b4 <_ZL12get_ldnumberPPKc+0xc0>
20004388:	fcf682e3          	beq	a3,a5,2000434c <_ZL12get_ldnumberPPKc+0x58>
2000438c:	00150513          	addi	a0,a0,1
20004390:	00488893          	addi	a7,a7,4
20004394:	fbe518e3          	bne	a0,t5,20004344 <_ZL12get_ldnumberPPKc+0x50>
20004398:	0140006f          	j	200043ac <_ZL12get_ldnumberPPKc+0xb8>
2000439c:	00260793          	addi	a5,a2,2
200043a0:	f8f718e3          	bne	a4,a5,20004330 <_ZL12get_ldnumberPPKc+0x3c>
200043a4:	00200793          	li	a5,2
200043a8:	00a7d863          	bge	a5,a0,200043b8 <_ZL12get_ldnumberPPKc+0xc4>
200043ac:	fff00513          	li	a0,-1
200043b0:	00008067          	ret
200043b4:	fd071ce3          	bne	a4,a6,2000438c <_ZL12get_ldnumberPPKc+0x98>
200043b8:	00e5a023          	sw	a4,0(a1)
200043bc:	00008067          	ret
200043c0:	0000b517          	auipc	a0,0xb
200043c4:	27454503          	lbu	a0,628(a0) # 2000f634 <_ZL7CurrVol>
200043c8:	00008067          	ret

200043cc <_ZL8validateP7FFOBJIDPP5FATFS>:
200043cc:	ff010113          	addi	sp,sp,-16
200043d0:	00912223          	sw	s1,4(sp)
200043d4:	00112623          	sw	ra,12(sp)
200043d8:	00812423          	sw	s0,8(sp)
200043dc:	00058493          	mv	s1,a1
200043e0:	02051263          	bnez	a0,20004404 <_ZL8validateP7FFOBJIDPP5FATFS+0x38>
200043e4:	00900513          	li	a0,9
200043e8:	00000793          	li	a5,0
200043ec:	00c12083          	lw	ra,12(sp)
200043f0:	00812403          	lw	s0,8(sp)
200043f4:	00f4a023          	sw	a5,0(s1)
200043f8:	00412483          	lw	s1,4(sp)
200043fc:	01010113          	addi	sp,sp,16
20004400:	00008067          	ret
20004404:	00052783          	lw	a5,0(a0)
20004408:	00050413          	mv	s0,a0
2000440c:	fc078ce3          	beqz	a5,200043e4 <_ZL8validateP7FFOBJIDPP5FATFS+0x18>
20004410:	0007c703          	lbu	a4,0(a5)
20004414:	fc0708e3          	beqz	a4,200043e4 <_ZL8validateP7FFOBJIDPP5FATFS+0x18>
20004418:	00455683          	lhu	a3,4(a0)
2000441c:	0067d703          	lhu	a4,6(a5)
20004420:	fce692e3          	bne	a3,a4,200043e4 <_ZL8validateP7FFOBJIDPP5FATFS+0x18>
20004424:	0017c503          	lbu	a0,1(a5)
20004428:	07c030ef          	jal	ra,200074a4 <disk_status>
2000442c:	00157513          	andi	a0,a0,1
20004430:	fa051ae3          	bnez	a0,200043e4 <_ZL8validateP7FFOBJIDPP5FATFS+0x18>
20004434:	00042783          	lw	a5,0(s0)
20004438:	fb5ff06f          	j	200043ec <_ZL8validateP7FFOBJIDPP5FATFS+0x20>

2000443c <_ZL11sync_windowP5FATFS>:
2000443c:	fe010113          	addi	sp,sp,-32
20004440:	00112e23          	sw	ra,28(sp)
20004444:	00812c23          	sw	s0,24(sp)
20004448:	00912a23          	sw	s1,20(sp)
2000444c:	00354783          	lbu	a5,3(a0)
20004450:	02079063          	bnez	a5,20004470 <_ZL11sync_windowP5FATFS+0x34>
20004454:	00000493          	li	s1,0
20004458:	01c12083          	lw	ra,28(sp)
2000445c:	01812403          	lw	s0,24(sp)
20004460:	00048513          	mv	a0,s1
20004464:	01412483          	lw	s1,20(sp)
20004468:	02010113          	addi	sp,sp,32
2000446c:	00008067          	ret
20004470:	03850593          	addi	a1,a0,56
20004474:	03452603          	lw	a2,52(a0)
20004478:	00050413          	mv	s0,a0
2000447c:	00154503          	lbu	a0,1(a0)
20004480:	00100693          	li	a3,1
20004484:	00b12623          	sw	a1,12(sp)
20004488:	098030ef          	jal	ra,20007520 <disk_write>
2000448c:	00050493          	mv	s1,a0
20004490:	04051063          	bnez	a0,200044d0 <_ZL11sync_windowP5FATFS+0x94>
20004494:	03442603          	lw	a2,52(s0)
20004498:	02842783          	lw	a5,40(s0)
2000449c:	02042703          	lw	a4,32(s0)
200044a0:	000401a3          	sb	zero,3(s0)
200044a4:	40f607b3          	sub	a5,a2,a5
200044a8:	fae7f6e3          	bgeu	a5,a4,20004454 <_ZL11sync_windowP5FATFS+0x18>
200044ac:	00244683          	lbu	a3,2(s0)
200044b0:	00200793          	li	a5,2
200044b4:	00c12583          	lw	a1,12(sp)
200044b8:	f8f69ee3          	bne	a3,a5,20004454 <_ZL11sync_windowP5FATFS+0x18>
200044bc:	00144503          	lbu	a0,1(s0)
200044c0:	00100693          	li	a3,1
200044c4:	00e60633          	add	a2,a2,a4
200044c8:	058030ef          	jal	ra,20007520 <disk_write>
200044cc:	f8dff06f          	j	20004458 <_ZL11sync_windowP5FATFS+0x1c>
200044d0:	00100493          	li	s1,1
200044d4:	f85ff06f          	j	20004458 <_ZL11sync_windowP5FATFS+0x1c>

200044d8 <_ZL11move_windowP5FATFSm>:
200044d8:	03452783          	lw	a5,52(a0)
200044dc:	04b78e63          	beq	a5,a1,20004538 <_ZL11move_windowP5FATFSm+0x60>
200044e0:	ff010113          	addi	sp,sp,-16
200044e4:	00812423          	sw	s0,8(sp)
200044e8:	00912223          	sw	s1,4(sp)
200044ec:	00112623          	sw	ra,12(sp)
200044f0:	00050413          	mv	s0,a0
200044f4:	00058493          	mv	s1,a1
200044f8:	f45ff0ef          	jal	ra,2000443c <_ZL11sync_windowP5FATFS>
200044fc:	02051463          	bnez	a0,20004524 <_ZL11move_windowP5FATFSm+0x4c>
20004500:	00144503          	lbu	a0,1(s0)
20004504:	00100693          	li	a3,1
20004508:	00048613          	mv	a2,s1
2000450c:	03840593          	addi	a1,s0,56
20004510:	7d1020ef          	jal	ra,200074e0 <disk_read>
20004514:	00050663          	beqz	a0,20004520 <_ZL11move_windowP5FATFSm+0x48>
20004518:	00100513          	li	a0,1
2000451c:	fff00493          	li	s1,-1
20004520:	02942a23          	sw	s1,52(s0)
20004524:	00c12083          	lw	ra,12(sp)
20004528:	00812403          	lw	s0,8(sp)
2000452c:	00412483          	lw	s1,4(sp)
20004530:	01010113          	addi	sp,sp,16
20004534:	00008067          	ret
20004538:	00000513          	li	a0,0
2000453c:	00008067          	ret

20004540 <_ZL8check_fsP5FATFSm>:
20004540:	ff010113          	addi	sp,sp,-16
20004544:	00812423          	sw	s0,8(sp)
20004548:	00912223          	sw	s1,4(sp)
2000454c:	00112623          	sw	ra,12(sp)
20004550:	01212023          	sw	s2,0(sp)
20004554:	fff00793          	li	a5,-1
20004558:	000501a3          	sb	zero,3(a0)
2000455c:	02f52a23          	sw	a5,52(a0)
20004560:	00050413          	mv	s0,a0
20004564:	f75ff0ef          	jal	ra,200044d8 <_ZL11move_windowP5FATFSm>
20004568:	00400493          	li	s1,4
2000456c:	04051463          	bnez	a0,200045b4 <_ZL8check_fsP5FATFSm+0x74>
20004570:	23744903          	lbu	s2,567(s0)
20004574:	23644783          	lbu	a5,566(s0)
20004578:	0eb00713          	li	a4,235
2000457c:	00891913          	slli	s2,s2,0x8
20004580:	00f96933          	or	s2,s2,a5
20004584:	03844783          	lbu	a5,56(s0)
20004588:	00050493          	mv	s1,a0
2000458c:	04e78263          	beq	a5,a4,200045d0 <_ZL8check_fsP5FATFSm+0x90>
20004590:	01878793          	addi	a5,a5,24
20004594:	0ff7f793          	zext.b	a5,a5
20004598:	00100713          	li	a4,1
2000459c:	02f77a63          	bgeu	a4,a5,200045d0 <_ZL8check_fsP5FATFSm+0x90>
200045a0:	0000b7b7          	lui	a5,0xb
200045a4:	a5578793          	addi	a5,a5,-1451 # aa55 <_start-0x1fff55ab>
200045a8:	00200493          	li	s1,2
200045ac:	00f90463          	beq	s2,a5,200045b4 <_ZL8check_fsP5FATFSm+0x74>
200045b0:	00300493          	li	s1,3
200045b4:	00c12083          	lw	ra,12(sp)
200045b8:	00812403          	lw	s0,8(sp)
200045bc:	00012903          	lw	s2,0(sp)
200045c0:	00048513          	mv	a0,s1
200045c4:	00412483          	lw	s1,4(sp)
200045c8:	01010113          	addi	sp,sp,16
200045cc:	00008067          	ret
200045d0:	0000b7b7          	lui	a5,0xb
200045d4:	a5578793          	addi	a5,a5,-1451 # aa55 <_start-0x1fff55ab>
200045d8:	0af90463          	beq	s2,a5,20004680 <_ZL8check_fsP5FATFSm+0x140>
200045dc:	04444783          	lbu	a5,68(s0)
200045e0:	04344683          	lbu	a3,67(s0)
200045e4:	04544703          	lbu	a4,69(s0)
200045e8:	00879793          	slli	a5,a5,0x8
200045ec:	00d7e7b3          	or	a5,a5,a3
200045f0:	20000693          	li	a3,512
200045f4:	fad796e3          	bne	a5,a3,200045a0 <_ZL8check_fsP5FATFSm+0x60>
200045f8:	fa0704e3          	beqz	a4,200045a0 <_ZL8check_fsP5FATFSm+0x60>
200045fc:	fff70793          	addi	a5,a4,-1
20004600:	00e7f7b3          	and	a5,a5,a4
20004604:	f8079ee3          	bnez	a5,200045a0 <_ZL8check_fsP5FATFSm+0x60>
20004608:	04744783          	lbu	a5,71(s0)
2000460c:	04644703          	lbu	a4,70(s0)
20004610:	00879793          	slli	a5,a5,0x8
20004614:	00e7e7b3          	or	a5,a5,a4
20004618:	f80784e3          	beqz	a5,200045a0 <_ZL8check_fsP5FATFSm+0x60>
2000461c:	04844783          	lbu	a5,72(s0)
20004620:	00100713          	li	a4,1
20004624:	fff78793          	addi	a5,a5,-1
20004628:	f6f76ce3          	bltu	a4,a5,200045a0 <_ZL8check_fsP5FATFSm+0x60>
2000462c:	04a44783          	lbu	a5,74(s0)
20004630:	04944703          	lbu	a4,73(s0)
20004634:	00879793          	slli	a5,a5,0x8
20004638:	00e7e7b3          	or	a5,a5,a4
2000463c:	f60782e3          	beqz	a5,200045a0 <_ZL8check_fsP5FATFSm+0x60>
20004640:	04c44783          	lbu	a5,76(s0)
20004644:	04b44703          	lbu	a4,75(s0)
20004648:	00879793          	slli	a5,a5,0x8
2000464c:	00e7e7b3          	or	a5,a5,a4
20004650:	07f00713          	li	a4,127
20004654:	00f76a63          	bltu	a4,a5,20004668 <_ZL8check_fsP5FATFSm+0x128>
20004658:	05840513          	addi	a0,s0,88
2000465c:	bd5ff0ef          	jal	ra,20004230 <_ZL8ld_dwordPKh>
20004660:	000107b7          	lui	a5,0x10
20004664:	f2f56ee3          	bltu	a0,a5,200045a0 <_ZL8check_fsP5FATFSm+0x60>
20004668:	04f44783          	lbu	a5,79(s0)
2000466c:	04e44703          	lbu	a4,78(s0)
20004670:	00879793          	slli	a5,a5,0x8
20004674:	00e7e7b3          	or	a5,a5,a4
20004678:	f20784e3          	beqz	a5,200045a0 <_ZL8check_fsP5FATFSm+0x60>
2000467c:	f39ff06f          	j	200045b4 <_ZL8check_fsP5FATFSm+0x74>
20004680:	00800613          	li	a2,8
20004684:	00004597          	auipc	a1,0x4
20004688:	cf458593          	addi	a1,a1,-780 # 20008378 <__clz_tab+0xe08>
2000468c:	08a40513          	addi	a0,s0,138
20004690:	ae8fc0ef          	jal	ra,20000978 <memcmp>
20004694:	f40514e3          	bnez	a0,200045dc <_ZL8check_fsP5FATFSm+0x9c>
20004698:	f1dff06f          	j	200045b4 <_ZL8check_fsP5FATFSm+0x74>

2000469c <_ZL7put_fatP5FATFSmm>:
2000469c:	fe010113          	addi	sp,sp,-32
200046a0:	01212823          	sw	s2,16(sp)
200046a4:	01412423          	sw	s4,8(sp)
200046a8:	00112e23          	sw	ra,28(sp)
200046ac:	00812c23          	sw	s0,24(sp)
200046b0:	00912a23          	sw	s1,20(sp)
200046b4:	01312623          	sw	s3,12(sp)
200046b8:	01512223          	sw	s5,4(sp)
200046bc:	01612023          	sw	s6,0(sp)
200046c0:	00100a13          	li	s4,1
200046c4:	00200913          	li	s2,2
200046c8:	0cba7c63          	bgeu	s4,a1,200047a0 <_ZL7put_fatP5FATFSmm+0x104>
200046cc:	01c52783          	lw	a5,28(a0)
200046d0:	00050993          	mv	s3,a0
200046d4:	00058493          	mv	s1,a1
200046d8:	00200913          	li	s2,2
200046dc:	0cf5f263          	bgeu	a1,a5,200047a0 <_ZL7put_fatP5FATFSmm+0x104>
200046e0:	00054783          	lbu	a5,0(a0)
200046e4:	00200713          	li	a4,2
200046e8:	00060413          	mv	s0,a2
200046ec:	0ee78c63          	beq	a5,a4,200047e4 <_ZL7put_fatP5FATFSmm+0x148>
200046f0:	00300713          	li	a4,3
200046f4:	12e78a63          	beq	a5,a4,20004828 <_ZL7put_fatP5FATFSmm+0x18c>
200046f8:	0b479463          	bne	a5,s4,200047a0 <_ZL7put_fatP5FATFSmm+0x104>
200046fc:	02852783          	lw	a5,40(a0)
20004700:	0015da13          	srli	s4,a1,0x1
20004704:	00ba0a33          	add	s4,s4,a1
20004708:	009a5593          	srli	a1,s4,0x9
2000470c:	00f585b3          	add	a1,a1,a5
20004710:	dc9ff0ef          	jal	ra,200044d8 <_ZL11move_windowP5FATFSm>
20004714:	00050913          	mv	s2,a0
20004718:	08051463          	bnez	a0,200047a0 <_ZL7put_fatP5FATFSmm+0x104>
2000471c:	03898a93          	addi	s5,s3,56
20004720:	001a0b13          	addi	s6,s4,1
20004724:	0014f493          	andi	s1,s1,1
20004728:	1ffa7a13          	andi	s4,s4,511
2000472c:	014a8a33          	add	s4,s5,s4
20004730:	0ff47793          	zext.b	a5,s0
20004734:	02048263          	beqz	s1,20004758 <_ZL7put_fatP5FATFSmm+0xbc>
20004738:	000a4783          	lbu	a5,0(s4)
2000473c:	000016b7          	lui	a3,0x1
20004740:	00441713          	slli	a4,s0,0x4
20004744:	ff068693          	addi	a3,a3,-16 # ff0 <_start-0x1ffff010>
20004748:	00f7f793          	andi	a5,a5,15
2000474c:	00d77733          	and	a4,a4,a3
20004750:	00e7e7b3          	or	a5,a5,a4
20004754:	0ff7f793          	zext.b	a5,a5
20004758:	00fa0023          	sb	a5,0(s4)
2000475c:	00100793          	li	a5,1
20004760:	00f981a3          	sb	a5,3(s3)
20004764:	0289a783          	lw	a5,40(s3)
20004768:	009b5593          	srli	a1,s6,0x9
2000476c:	00098513          	mv	a0,s3
20004770:	00f585b3          	add	a1,a1,a5
20004774:	d65ff0ef          	jal	ra,200044d8 <_ZL11move_windowP5FATFSm>
20004778:	00050913          	mv	s2,a0
2000477c:	02051263          	bnez	a0,200047a0 <_ZL7put_fatP5FATFSmm+0x104>
20004780:	1ffb7b13          	andi	s6,s6,511
20004784:	016a8ab3          	add	s5,s5,s6
20004788:	04048263          	beqz	s1,200047cc <_ZL7put_fatP5FATFSmm+0x130>
2000478c:	00445793          	srli	a5,s0,0x4
20004790:	0ff7f793          	zext.b	a5,a5
20004794:	00fa8023          	sb	a5,0(s5)
20004798:	00100793          	li	a5,1
2000479c:	00f981a3          	sb	a5,3(s3)
200047a0:	01c12083          	lw	ra,28(sp)
200047a4:	01812403          	lw	s0,24(sp)
200047a8:	01412483          	lw	s1,20(sp)
200047ac:	00c12983          	lw	s3,12(sp)
200047b0:	00812a03          	lw	s4,8(sp)
200047b4:	00412a83          	lw	s5,4(sp)
200047b8:	00012b03          	lw	s6,0(sp)
200047bc:	00090513          	mv	a0,s2
200047c0:	01012903          	lw	s2,16(sp)
200047c4:	02010113          	addi	sp,sp,32
200047c8:	00008067          	ret
200047cc:	000ac783          	lbu	a5,0(s5)
200047d0:	00845413          	srli	s0,s0,0x8
200047d4:	00f47413          	andi	s0,s0,15
200047d8:	ff07f793          	andi	a5,a5,-16
200047dc:	0087e7b3          	or	a5,a5,s0
200047e0:	fb5ff06f          	j	20004794 <_ZL7put_fatP5FATFSmm+0xf8>
200047e4:	02852783          	lw	a5,40(a0)
200047e8:	0085d593          	srli	a1,a1,0x8
200047ec:	00f585b3          	add	a1,a1,a5
200047f0:	ce9ff0ef          	jal	ra,200044d8 <_ZL11move_windowP5FATFSm>
200047f4:	00050913          	mv	s2,a0
200047f8:	fa0514e3          	bnez	a0,200047a0 <_ZL7put_fatP5FATFSmm+0x104>
200047fc:	00149493          	slli	s1,s1,0x1
20004800:	03898793          	addi	a5,s3,56
20004804:	1fe4f493          	andi	s1,s1,510
20004808:	009787b3          	add	a5,a5,s1
2000480c:	00878023          	sb	s0,0(a5) # 10000 <_start-0x1fff0000>
20004810:	01041413          	slli	s0,s0,0x10
20004814:	01045413          	srli	s0,s0,0x10
20004818:	00845413          	srli	s0,s0,0x8
2000481c:	008780a3          	sb	s0,1(a5)
20004820:	014981a3          	sb	s4,3(s3)
20004824:	f7dff06f          	j	200047a0 <_ZL7put_fatP5FATFSmm+0x104>
20004828:	02852783          	lw	a5,40(a0)
2000482c:	0075d593          	srli	a1,a1,0x7
20004830:	00f585b3          	add	a1,a1,a5
20004834:	ca5ff0ef          	jal	ra,200044d8 <_ZL11move_windowP5FATFSm>
20004838:	00050913          	mv	s2,a0
2000483c:	f60512e3          	bnez	a0,200047a0 <_ZL7put_fatP5FATFSmm+0x104>
20004840:	00249493          	slli	s1,s1,0x2
20004844:	03898793          	addi	a5,s3,56
20004848:	1fc4f493          	andi	s1,s1,508
2000484c:	009784b3          	add	s1,a5,s1
20004850:	00048513          	mv	a0,s1
20004854:	9ddff0ef          	jal	ra,20004230 <_ZL8ld_dwordPKh>
20004858:	f00007b7          	lui	a5,0xf0000
2000485c:	00441413          	slli	s0,s0,0x4
20004860:	00f57533          	and	a0,a0,a5
20004864:	00445413          	srli	s0,s0,0x4
20004868:	00a46433          	or	s0,s0,a0
2000486c:	00845793          	srli	a5,s0,0x8
20004870:	00848023          	sb	s0,0(s1)
20004874:	00f480a3          	sb	a5,1(s1)
20004878:	01045793          	srli	a5,s0,0x10
2000487c:	01845413          	srli	s0,s0,0x18
20004880:	00f48123          	sb	a5,2(s1)
20004884:	008481a3          	sb	s0,3(s1)
20004888:	f99ff06f          	j	20004820 <_ZL7put_fatP5FATFSmm+0x184>

2000488c <_ZL12mount_volumePPKcPP5FATFSh>:
2000488c:	fd010113          	addi	sp,sp,-48
20004890:	03212023          	sw	s2,32(sp)
20004894:	01312e23          	sw	s3,28(sp)
20004898:	02112623          	sw	ra,44(sp)
2000489c:	02812423          	sw	s0,40(sp)
200048a0:	02912223          	sw	s1,36(sp)
200048a4:	01412c23          	sw	s4,24(sp)
200048a8:	01512a23          	sw	s5,20(sp)
200048ac:	0005a023          	sw	zero,0(a1)
200048b0:	00058993          	mv	s3,a1
200048b4:	00060913          	mv	s2,a2
200048b8:	a3dff0ef          	jal	ra,200042f4 <_ZL12get_ldnumberPPKc>
200048bc:	00b00793          	li	a5,11
200048c0:	04054a63          	bltz	a0,20004914 <_ZL12mount_volumePPKcPP5FATFSh+0x88>
200048c4:	00251713          	slli	a4,a0,0x2
200048c8:	0000b797          	auipc	a5,0xb
200048cc:	b6078793          	addi	a5,a5,-1184 # 2000f428 <_ZL5FatFs>
200048d0:	00e787b3          	add	a5,a5,a4
200048d4:	0007a403          	lw	s0,0(a5)
200048d8:	00050493          	mv	s1,a0
200048dc:	00c00793          	li	a5,12
200048e0:	02040a63          	beqz	s0,20004914 <_ZL12mount_volumePPKcPP5FATFSh+0x88>
200048e4:	0089a023          	sw	s0,0(s3)
200048e8:	00044783          	lbu	a5,0(s0)
200048ec:	0fe97913          	andi	s2,s2,254
200048f0:	04078663          	beqz	a5,2000493c <_ZL12mount_volumePPKcPP5FATFSh+0xb0>
200048f4:	00144503          	lbu	a0,1(s0)
200048f8:	3ad020ef          	jal	ra,200074a4 <disk_status>
200048fc:	00157793          	andi	a5,a0,1
20004900:	02079e63          	bnez	a5,2000493c <_ZL12mount_volumePPKcPP5FATFSh+0xb0>
20004904:	00090863          	beqz	s2,20004914 <_ZL12mount_volumePPKcPP5FATFSh+0x88>
20004908:	00457513          	andi	a0,a0,4
2000490c:	00050463          	beqz	a0,20004914 <_ZL12mount_volumePPKcPP5FATFSh+0x88>
20004910:	00a00793          	li	a5,10
20004914:	02c12083          	lw	ra,44(sp)
20004918:	02812403          	lw	s0,40(sp)
2000491c:	02412483          	lw	s1,36(sp)
20004920:	02012903          	lw	s2,32(sp)
20004924:	01c12983          	lw	s3,28(sp)
20004928:	01812a03          	lw	s4,24(sp)
2000492c:	01412a83          	lw	s5,20(sp)
20004930:	00078513          	mv	a0,a5
20004934:	03010113          	addi	sp,sp,48
20004938:	00008067          	ret
2000493c:	0ff4f513          	zext.b	a0,s1
20004940:	00040023          	sb	zero,0(s0)
20004944:	00a400a3          	sb	a0,1(s0)
20004948:	369020ef          	jal	ra,200074b0 <disk_initialize>
2000494c:	00157713          	andi	a4,a0,1
20004950:	00300793          	li	a5,3
20004954:	fc0710e3          	bnez	a4,20004914 <_ZL12mount_volumePPKcPP5FATFSh+0x88>
20004958:	00090663          	beqz	s2,20004964 <_ZL12mount_volumePPKcPP5FATFSh+0xd8>
2000495c:	00457513          	andi	a0,a0,4
20004960:	fa0518e3          	bnez	a0,20004910 <_ZL12mount_volumePPKcPP5FATFSh+0x84>
20004964:	00000593          	li	a1,0
20004968:	00040513          	mv	a0,s0
2000496c:	bd5ff0ef          	jal	ra,20004540 <_ZL8check_fsP5FATFSm>
20004970:	00200793          	li	a5,2
20004974:	06f51263          	bne	a0,a5,200049d8 <_ZL12mount_volumePPKcPP5FATFSh+0x14c>
20004978:	00010493          	mv	s1,sp
2000497c:	1fe40913          	addi	s2,s0,510
20004980:	23e40a13          	addi	s4,s0,574
20004984:	00048993          	mv	s3,s1
20004988:	00090513          	mv	a0,s2
2000498c:	8a5ff0ef          	jal	ra,20004230 <_ZL8ld_dwordPKh>
20004990:	00a9a023          	sw	a0,0(s3)
20004994:	01090913          	addi	s2,s2,16
20004998:	00498993          	addi	s3,s3,4
2000499c:	ff4916e3          	bne	s2,s4,20004988 <_ZL12mount_volumePPKcPP5FATFSh+0xfc>
200049a0:	01048913          	addi	s2,s1,16
200049a4:	00100993          	li	s3,1
200049a8:	0004a583          	lw	a1,0(s1)
200049ac:	00300513          	li	a0,3
200049b0:	00058863          	beqz	a1,200049c0 <_ZL12mount_volumePPKcPP5FATFSh+0x134>
200049b4:	00040513          	mv	a0,s0
200049b8:	b89ff0ef          	jal	ra,20004540 <_ZL8check_fsP5FATFSm>
200049bc:	02a9fa63          	bgeu	s3,a0,200049f0 <_ZL12mount_volumePPKcPP5FATFSh+0x164>
200049c0:	00448493          	addi	s1,s1,4
200049c4:	fe9912e3          	bne	s2,s1,200049a8 <_ZL12mount_volumePPKcPP5FATFSh+0x11c>
200049c8:	00400713          	li	a4,4
200049cc:	00100793          	li	a5,1
200049d0:	00e51c63          	bne	a0,a4,200049e8 <_ZL12mount_volumePPKcPP5FATFSh+0x15c>
200049d4:	f41ff06f          	j	20004914 <_ZL12mount_volumePPKcPP5FATFSh+0x88>
200049d8:	00400713          	li	a4,4
200049dc:	00100793          	li	a5,1
200049e0:	f2e50ae3          	beq	a0,a4,20004914 <_ZL12mount_volumePPKcPP5FATFSh+0x88>
200049e4:	00a7f663          	bgeu	a5,a0,200049f0 <_ZL12mount_volumePPKcPP5FATFSh+0x164>
200049e8:	00d00793          	li	a5,13
200049ec:	f29ff06f          	j	20004914 <_ZL12mount_volumePPKcPP5FATFSh+0x88>
200049f0:	04444783          	lbu	a5,68(s0)
200049f4:	04344703          	lbu	a4,67(s0)
200049f8:	03442983          	lw	s3,52(s0)
200049fc:	00879793          	slli	a5,a5,0x8
20004a00:	00e7e7b3          	or	a5,a5,a4
20004a04:	20000713          	li	a4,512
20004a08:	fee790e3          	bne	a5,a4,200049e8 <_ZL12mount_volumePPKcPP5FATFSh+0x15c>
20004a0c:	04f44a03          	lbu	s4,79(s0)
20004a10:	04e44783          	lbu	a5,78(s0)
20004a14:	008a1a13          	slli	s4,s4,0x8
20004a18:	00fa6a33          	or	s4,s4,a5
20004a1c:	000a1863          	bnez	s4,20004a2c <_ZL12mount_volumePPKcPP5FATFSh+0x1a0>
20004a20:	05c40513          	addi	a0,s0,92
20004a24:	80dff0ef          	jal	ra,20004230 <_ZL8ld_dwordPKh>
20004a28:	00050a13          	mv	s4,a0
20004a2c:	04844483          	lbu	s1,72(s0)
20004a30:	03442023          	sw	s4,32(s0)
20004a34:	00100713          	li	a4,1
20004a38:	fff48793          	addi	a5,s1,-1
20004a3c:	00940123          	sb	s1,2(s0)
20004a40:	0ff7f793          	zext.b	a5,a5
20004a44:	faf762e3          	bltu	a4,a5,200049e8 <_ZL12mount_volumePPKcPP5FATFSh+0x15c>
20004a48:	04544903          	lbu	s2,69(s0)
20004a4c:	01091793          	slli	a5,s2,0x10
20004a50:	0107d793          	srli	a5,a5,0x10
20004a54:	00f41523          	sh	a5,10(s0)
20004a58:	f80788e3          	beqz	a5,200049e8 <_ZL12mount_volumePPKcPP5FATFSh+0x15c>
20004a5c:	fff90793          	addi	a5,s2,-1
20004a60:	0127f7b3          	and	a5,a5,s2
20004a64:	f80792e3          	bnez	a5,200049e8 <_ZL12mount_volumePPKcPP5FATFSh+0x15c>
20004a68:	04a44a83          	lbu	s5,74(s0)
20004a6c:	04944783          	lbu	a5,73(s0)
20004a70:	008a9a93          	slli	s5,s5,0x8
20004a74:	00faeab3          	or	s5,s5,a5
20004a78:	01541423          	sh	s5,8(s0)
20004a7c:	00faf793          	andi	a5,s5,15
20004a80:	f60794e3          	bnez	a5,200049e8 <_ZL12mount_volumePPKcPP5FATFSh+0x15c>
20004a84:	04c44783          	lbu	a5,76(s0)
20004a88:	04b44703          	lbu	a4,75(s0)
20004a8c:	00879793          	slli	a5,a5,0x8
20004a90:	00e7e533          	or	a0,a5,a4
20004a94:	00051663          	bnez	a0,20004aa0 <_ZL12mount_volumePPKcPP5FATFSh+0x214>
20004a98:	05840513          	addi	a0,s0,88
20004a9c:	f94ff0ef          	jal	ra,20004230 <_ZL8ld_dwordPKh>
20004aa0:	04744783          	lbu	a5,71(s0)
20004aa4:	04644703          	lbu	a4,70(s0)
20004aa8:	00879793          	slli	a5,a5,0x8
20004aac:	00e7e7b3          	or	a5,a5,a4
20004ab0:	f2078ce3          	beqz	a5,200049e8 <_ZL12mount_volumePPKcPP5FATFSh+0x15c>
20004ab4:	03448633          	mul	a2,s1,s4
20004ab8:	004ad693          	srli	a3,s5,0x4
20004abc:	00f686b3          	add	a3,a3,a5
20004ac0:	00c686b3          	add	a3,a3,a2
20004ac4:	f2d562e3          	bltu	a0,a3,200049e8 <_ZL12mount_volumePPKcPP5FATFSh+0x15c>
20004ac8:	40d50733          	sub	a4,a0,a3
20004acc:	032754b3          	divu	s1,a4,s2
20004ad0:	f1276ce3          	bltu	a4,s2,200049e8 <_ZL12mount_volumePPKcPP5FATFSh+0x15c>
20004ad4:	10000737          	lui	a4,0x10000
20004ad8:	ff570713          	addi	a4,a4,-11 # ffffff5 <_start-0x1000000b>
20004adc:	f09766e3          	bltu	a4,s1,200049e8 <_ZL12mount_volumePPKcPP5FATFSh+0x15c>
20004ae0:	00010737          	lui	a4,0x10
20004ae4:	ff570713          	addi	a4,a4,-11 # fff5 <_start-0x1fff000b>
20004ae8:	16977663          	bgeu	a4,s1,20004c54 <_ZL12mount_volumePPKcPP5FATFSh+0x3c8>
20004aec:	00300913          	li	s2,3
20004af0:	00248493          	addi	s1,s1,2
20004af4:	013787b3          	add	a5,a5,s3
20004af8:	00d986b3          	add	a3,s3,a3
20004afc:	00942e23          	sw	s1,28(s0)
20004b00:	03342223          	sw	s3,36(s0)
20004b04:	02f42423          	sw	a5,40(s0)
20004b08:	02d42823          	sw	a3,48(s0)
20004b0c:	00300713          	li	a4,3
20004b10:	10e91c63          	bne	s2,a4,20004c28 <_ZL12mount_volumePPKcPP5FATFSh+0x39c>
20004b14:	06344783          	lbu	a5,99(s0)
20004b18:	06244703          	lbu	a4,98(s0)
20004b1c:	00879793          	slli	a5,a5,0x8
20004b20:	00e7e7b3          	or	a5,a5,a4
20004b24:	00fae7b3          	or	a5,s5,a5
20004b28:	ec0790e3          	bnez	a5,200049e8 <_ZL12mount_volumePPKcPP5FATFSh+0x15c>
20004b2c:	06440513          	addi	a0,s0,100
20004b30:	f00ff0ef          	jal	ra,20004230 <_ZL8ld_dwordPKh>
20004b34:	00249493          	slli	s1,s1,0x2
20004b38:	1ff48493          	addi	s1,s1,511
20004b3c:	02a42623          	sw	a0,44(s0)
20004b40:	0094d493          	srli	s1,s1,0x9
20004b44:	ea9a62e3          	bltu	s4,s1,200049e8 <_ZL12mount_volumePPKcPP5FATFSh+0x15c>
20004b48:	fff00793          	li	a5,-1
20004b4c:	00f42a23          	sw	a5,20(s0)
20004b50:	00f42823          	sw	a5,16(s0)
20004b54:	f8000793          	li	a5,-128
20004b58:	00f40223          	sb	a5,4(s0)
20004b5c:	00300793          	li	a5,3
20004b60:	08f91663          	bne	s2,a5,20004bec <_ZL12mount_volumePPKcPP5FATFSh+0x360>
20004b64:	06944783          	lbu	a5,105(s0)
20004b68:	06844703          	lbu	a4,104(s0)
20004b6c:	00879793          	slli	a5,a5,0x8
20004b70:	00e7e7b3          	or	a5,a5,a4
20004b74:	00100713          	li	a4,1
20004b78:	06e79a63          	bne	a5,a4,20004bec <_ZL12mount_volumePPKcPP5FATFSh+0x360>
20004b7c:	00198593          	addi	a1,s3,1
20004b80:	00040513          	mv	a0,s0
20004b84:	955ff0ef          	jal	ra,200044d8 <_ZL11move_windowP5FATFSm>
20004b88:	06051263          	bnez	a0,20004bec <_ZL12mount_volumePPKcPP5FATFSh+0x360>
20004b8c:	23744783          	lbu	a5,567(s0)
20004b90:	23644703          	lbu	a4,566(s0)
20004b94:	00040223          	sb	zero,4(s0)
20004b98:	00879793          	slli	a5,a5,0x8
20004b9c:	00e7e7b3          	or	a5,a5,a4
20004ba0:	0000b737          	lui	a4,0xb
20004ba4:	a5570713          	addi	a4,a4,-1451 # aa55 <_start-0x1fff55ab>
20004ba8:	04e79263          	bne	a5,a4,20004bec <_ZL12mount_volumePPKcPP5FATFSh+0x360>
20004bac:	03840513          	addi	a0,s0,56
20004bb0:	e80ff0ef          	jal	ra,20004230 <_ZL8ld_dwordPKh>
20004bb4:	416157b7          	lui	a5,0x41615
20004bb8:	25278793          	addi	a5,a5,594 # 41615252 <_end+0x21605c1a>
20004bbc:	02f51863          	bne	a0,a5,20004bec <_ZL12mount_volumePPKcPP5FATFSh+0x360>
20004bc0:	21c40513          	addi	a0,s0,540
20004bc4:	e6cff0ef          	jal	ra,20004230 <_ZL8ld_dwordPKh>
20004bc8:	614177b7          	lui	a5,0x61417
20004bcc:	27278793          	addi	a5,a5,626 # 61417272 <_end+0x41407c3a>
20004bd0:	00f51e63          	bne	a0,a5,20004bec <_ZL12mount_volumePPKcPP5FATFSh+0x360>
20004bd4:	22040513          	addi	a0,s0,544
20004bd8:	e58ff0ef          	jal	ra,20004230 <_ZL8ld_dwordPKh>
20004bdc:	00a42a23          	sw	a0,20(s0)
20004be0:	22440513          	addi	a0,s0,548
20004be4:	e4cff0ef          	jal	ra,20004230 <_ZL8ld_dwordPKh>
20004be8:	00a42823          	sw	a0,16(s0)
20004bec:	0000b717          	auipc	a4,0xb
20004bf0:	83870713          	addi	a4,a4,-1992 # 2000f424 <_ZL4Fsid>
20004bf4:	00075783          	lhu	a5,0(a4)
20004bf8:	01240023          	sb	s2,0(s0)
20004bfc:	00042c23          	sw	zero,24(s0)
20004c00:	00178793          	addi	a5,a5,1
20004c04:	01079793          	slli	a5,a5,0x10
20004c08:	0107d793          	srli	a5,a5,0x10
20004c0c:	00f71023          	sh	a5,0(a4)
20004c10:	00f41323          	sh	a5,6(s0)
20004c14:	0000b797          	auipc	a5,0xb
20004c18:	82078793          	addi	a5,a5,-2016 # 2000f434 <_ZL6LfnBuf>
20004c1c:	00f42623          	sw	a5,12(s0)
20004c20:	00000793          	li	a5,0
20004c24:	cf1ff06f          	j	20004914 <_ZL12mount_volumePPKcPP5FATFSh+0x88>
20004c28:	dc0a80e3          	beqz	s5,200049e8 <_ZL12mount_volumePPKcPP5FATFSh+0x15c>
20004c2c:	00c78533          	add	a0,a5,a2
20004c30:	00200793          	li	a5,2
20004c34:	00f91663          	bne	s2,a5,20004c40 <_ZL12mount_volumePPKcPP5FATFSh+0x3b4>
20004c38:	00149493          	slli	s1,s1,0x1
20004c3c:	efdff06f          	j	20004b38 <_ZL12mount_volumePPKcPP5FATFSh+0x2ac>
20004c40:	02e48733          	mul	a4,s1,a4
20004c44:	0014f493          	andi	s1,s1,1
20004c48:	00175713          	srli	a4,a4,0x1
20004c4c:	009704b3          	add	s1,a4,s1
20004c50:	ee9ff06f          	j	20004b38 <_ZL12mount_volumePPKcPP5FATFSh+0x2ac>
20004c54:	00001937          	lui	s2,0x1
20004c58:	ff590913          	addi	s2,s2,-11 # ff5 <_start-0x1ffff00b>
20004c5c:	00993933          	sltu	s2,s2,s1
20004c60:	00190913          	addi	s2,s2,1
20004c64:	e8dff06f          	j	20004af0 <_ZL12mount_volumePPKcPP5FATFSh+0x264>

20004c68 <_ZL8ld_clustP5FATFSPKh.isra.0>:
20004c68:	01b5c783          	lbu	a5,27(a1)
20004c6c:	01a5c683          	lbu	a3,26(a1)
20004c70:	00050713          	mv	a4,a0
20004c74:	00879793          	slli	a5,a5,0x8
20004c78:	00d7e533          	or	a0,a5,a3
20004c7c:	00300793          	li	a5,3
20004c80:	00f71e63          	bne	a4,a5,20004c9c <_ZL8ld_clustP5FATFSPKh.isra.0+0x34>
20004c84:	0155c783          	lbu	a5,21(a1)
20004c88:	0145c703          	lbu	a4,20(a1)
20004c8c:	00879793          	slli	a5,a5,0x8
20004c90:	00e7e7b3          	or	a5,a5,a4
20004c94:	01079793          	slli	a5,a5,0x10
20004c98:	00f56533          	or	a0,a0,a5
20004c9c:	00008067          	ret

20004ca0 <_ZL7get_fatP7FFOBJIDm.isra.0>:
20004ca0:	00100793          	li	a5,1
20004ca4:	14b7f063          	bgeu	a5,a1,20004de4 <_ZL7get_fatP7FFOBJIDm.isra.0+0x144>
20004ca8:	01c52703          	lw	a4,28(a0)
20004cac:	fe010113          	addi	sp,sp,-32
20004cb0:	00812c23          	sw	s0,24(sp)
20004cb4:	00912a23          	sw	s1,20(sp)
20004cb8:	00112e23          	sw	ra,28(sp)
20004cbc:	01212823          	sw	s2,16(sp)
20004cc0:	01312623          	sw	s3,12(sp)
20004cc4:	00050493          	mv	s1,a0
20004cc8:	00058413          	mv	s0,a1
20004ccc:	02e5fe63          	bgeu	a1,a4,20004d08 <_ZL7get_fatP7FFOBJIDm.isra.0+0x68>
20004cd0:	00054703          	lbu	a4,0(a0)
20004cd4:	00200693          	li	a3,2
20004cd8:	0ad70463          	beq	a4,a3,20004d80 <_ZL7get_fatP7FFOBJIDm.isra.0+0xe0>
20004cdc:	00300693          	li	a3,3
20004ce0:	0cd70a63          	beq	a4,a3,20004db4 <_ZL7get_fatP7FFOBJIDm.isra.0+0x114>
20004ce4:	02f71263          	bne	a4,a5,20004d08 <_ZL7get_fatP7FFOBJIDm.isra.0+0x68>
20004ce8:	0015d913          	srli	s2,a1,0x1
20004cec:	02852783          	lw	a5,40(a0)
20004cf0:	00b90933          	add	s2,s2,a1
20004cf4:	00995593          	srli	a1,s2,0x9
20004cf8:	00f585b3          	add	a1,a1,a5
20004cfc:	fdcff0ef          	jal	ra,200044d8 <_ZL11move_windowP5FATFSm>
20004d00:	02050463          	beqz	a0,20004d28 <_ZL7get_fatP7FFOBJIDm.isra.0+0x88>
20004d04:	fff00793          	li	a5,-1
20004d08:	01c12083          	lw	ra,28(sp)
20004d0c:	01812403          	lw	s0,24(sp)
20004d10:	01412483          	lw	s1,20(sp)
20004d14:	01012903          	lw	s2,16(sp)
20004d18:	00c12983          	lw	s3,12(sp)
20004d1c:	00078513          	mv	a0,a5
20004d20:	02010113          	addi	sp,sp,32
20004d24:	00008067          	ret
20004d28:	0284a783          	lw	a5,40(s1)
20004d2c:	00190993          	addi	s3,s2,1
20004d30:	0099d593          	srli	a1,s3,0x9
20004d34:	1ff97913          	andi	s2,s2,511
20004d38:	01248933          	add	s2,s1,s2
20004d3c:	00f585b3          	add	a1,a1,a5
20004d40:	00048513          	mv	a0,s1
20004d44:	03894903          	lbu	s2,56(s2)
20004d48:	f90ff0ef          	jal	ra,200044d8 <_ZL11move_windowP5FATFSm>
20004d4c:	fa051ce3          	bnez	a0,20004d04 <_ZL7get_fatP7FFOBJIDm.isra.0+0x64>
20004d50:	1ff9f993          	andi	s3,s3,511
20004d54:	013489b3          	add	s3,s1,s3
20004d58:	0389c783          	lbu	a5,56(s3)
20004d5c:	00147413          	andi	s0,s0,1
20004d60:	00879793          	slli	a5,a5,0x8
20004d64:	0127e7b3          	or	a5,a5,s2
20004d68:	00040663          	beqz	s0,20004d74 <_ZL7get_fatP7FFOBJIDm.isra.0+0xd4>
20004d6c:	0047d793          	srli	a5,a5,0x4
20004d70:	f99ff06f          	j	20004d08 <_ZL7get_fatP7FFOBJIDm.isra.0+0x68>
20004d74:	01479793          	slli	a5,a5,0x14
20004d78:	0147d793          	srli	a5,a5,0x14
20004d7c:	f8dff06f          	j	20004d08 <_ZL7get_fatP7FFOBJIDm.isra.0+0x68>
20004d80:	02852783          	lw	a5,40(a0)
20004d84:	0085d593          	srli	a1,a1,0x8
20004d88:	00f585b3          	add	a1,a1,a5
20004d8c:	f4cff0ef          	jal	ra,200044d8 <_ZL11move_windowP5FATFSm>
20004d90:	f6051ae3          	bnez	a0,20004d04 <_ZL7get_fatP7FFOBJIDm.isra.0+0x64>
20004d94:	00141413          	slli	s0,s0,0x1
20004d98:	1fe47413          	andi	s0,s0,510
20004d9c:	00848433          	add	s0,s1,s0
20004da0:	03944783          	lbu	a5,57(s0)
20004da4:	03844703          	lbu	a4,56(s0)
20004da8:	00879793          	slli	a5,a5,0x8
20004dac:	00e7e7b3          	or	a5,a5,a4
20004db0:	f59ff06f          	j	20004d08 <_ZL7get_fatP7FFOBJIDm.isra.0+0x68>
20004db4:	02852783          	lw	a5,40(a0)
20004db8:	0075d593          	srli	a1,a1,0x7
20004dbc:	00f585b3          	add	a1,a1,a5
20004dc0:	f18ff0ef          	jal	ra,200044d8 <_ZL11move_windowP5FATFSm>
20004dc4:	f40510e3          	bnez	a0,20004d04 <_ZL7get_fatP7FFOBJIDm.isra.0+0x64>
20004dc8:	00241413          	slli	s0,s0,0x2
20004dcc:	03848513          	addi	a0,s1,56
20004dd0:	1fc47413          	andi	s0,s0,508
20004dd4:	00850533          	add	a0,a0,s0
20004dd8:	c58ff0ef          	jal	ra,20004230 <_ZL8ld_dwordPKh>
20004ddc:	00451793          	slli	a5,a0,0x4
20004de0:	f8dff06f          	j	20004d6c <_ZL7get_fatP7FFOBJIDm.isra.0+0xcc>
20004de4:	00100793          	li	a5,1
20004de8:	00078513          	mv	a0,a5
20004dec:	00008067          	ret

20004df0 <_ZL12create_chainP7FFOBJIDm.isra.0>:
20004df0:	fe010113          	addi	sp,sp,-32
20004df4:	00912a23          	sw	s1,20(sp)
20004df8:	01312623          	sw	s3,12(sp)
20004dfc:	00112e23          	sw	ra,28(sp)
20004e00:	00812c23          	sw	s0,24(sp)
20004e04:	01212823          	sw	s2,16(sp)
20004e08:	01412423          	sw	s4,8(sp)
20004e0c:	01512223          	sw	s5,4(sp)
20004e10:	00050493          	mv	s1,a0
20004e14:	00058993          	mv	s3,a1
20004e18:	00059e63          	bnez	a1,20004e34 <_ZL12create_chainP7FFOBJIDm.isra.0+0x44>
20004e1c:	01052903          	lw	s2,16(a0)
20004e20:	00090663          	beqz	s2,20004e2c <_ZL12create_chainP7FFOBJIDm.isra.0+0x3c>
20004e24:	01c52783          	lw	a5,28(a0)
20004e28:	04f96e63          	bltu	s2,a5,20004e84 <_ZL12create_chainP7FFOBJIDm.isra.0+0x94>
20004e2c:	00100913          	li	s2,1
20004e30:	0540006f          	j	20004e84 <_ZL12create_chainP7FFOBJIDm.isra.0+0x94>
20004e34:	e6dff0ef          	jal	ra,20004ca0 <_ZL7get_fatP7FFOBJIDm.isra.0>
20004e38:	00100793          	li	a5,1
20004e3c:	00050413          	mv	s0,a0
20004e40:	02a7e863          	bltu	a5,a0,20004e70 <_ZL12create_chainP7FFOBJIDm.isra.0+0x80>
20004e44:	00100413          	li	s0,1
20004e48:	01c12083          	lw	ra,28(sp)
20004e4c:	00040513          	mv	a0,s0
20004e50:	01812403          	lw	s0,24(sp)
20004e54:	01412483          	lw	s1,20(sp)
20004e58:	01012903          	lw	s2,16(sp)
20004e5c:	00c12983          	lw	s3,12(sp)
20004e60:	00812a03          	lw	s4,8(sp)
20004e64:	00412a83          	lw	s5,4(sp)
20004e68:	02010113          	addi	sp,sp,32
20004e6c:	00008067          	ret
20004e70:	fff00793          	li	a5,-1
20004e74:	10f50263          	beq	a0,a5,20004f78 <_ZL12create_chainP7FFOBJIDm.isra.0+0x188>
20004e78:	01c4a783          	lw	a5,28(s1)
20004e7c:	00098913          	mv	s2,s3
20004e80:	fcf564e3          	bltu	a0,a5,20004e48 <_ZL12create_chainP7FFOBJIDm.isra.0+0x58>
20004e84:	0144a783          	lw	a5,20(s1)
20004e88:	00079663          	bnez	a5,20004e94 <_ZL12create_chainP7FFOBJIDm.isra.0+0xa4>
20004e8c:	00000413          	li	s0,0
20004e90:	fb9ff06f          	j	20004e48 <_ZL12create_chainP7FFOBJIDm.isra.0+0x58>
20004e94:	01c4a783          	lw	a5,28(s1)
20004e98:	05299263          	bne	s3,s2,20004edc <_ZL12create_chainP7FFOBJIDm.isra.0+0xec>
20004e9c:	00198413          	addi	s0,s3,1
20004ea0:	00f46463          	bltu	s0,a5,20004ea8 <_ZL12create_chainP7FFOBJIDm.isra.0+0xb8>
20004ea4:	00200413          	li	s0,2
20004ea8:	00040593          	mv	a1,s0
20004eac:	00048513          	mv	a0,s1
20004eb0:	df1ff0ef          	jal	ra,20004ca0 <_ZL7get_fatP7FFOBJIDm.isra.0>
20004eb4:	00100713          	li	a4,1
20004eb8:	f8e506e3          	beq	a0,a4,20004e44 <_ZL12create_chainP7FFOBJIDm.isra.0+0x54>
20004ebc:	fff00793          	li	a5,-1
20004ec0:	0af50c63          	beq	a0,a5,20004f78 <_ZL12create_chainP7FFOBJIDm.isra.0+0x188>
20004ec4:	04050c63          	beqz	a0,20004f1c <_ZL12create_chainP7FFOBJIDm.isra.0+0x12c>
20004ec8:	0104a783          	lw	a5,16(s1)
20004ecc:	00f77863          	bgeu	a4,a5,20004edc <_ZL12create_chainP7FFOBJIDm.isra.0+0xec>
20004ed0:	01c4a703          	lw	a4,28(s1)
20004ed4:	00e7f463          	bgeu	a5,a4,20004edc <_ZL12create_chainP7FFOBJIDm.isra.0+0xec>
20004ed8:	00078913          	mv	s2,a5
20004edc:	00090413          	mv	s0,s2
20004ee0:	00100a13          	li	s4,1
20004ee4:	fff00a93          	li	s5,-1
20004ee8:	01c4a783          	lw	a5,28(s1)
20004eec:	00140413          	addi	s0,s0,1
20004ef0:	00f46663          	bltu	s0,a5,20004efc <_ZL12create_chainP7FFOBJIDm.isra.0+0x10c>
20004ef4:	f9490ce3          	beq	s2,s4,20004e8c <_ZL12create_chainP7FFOBJIDm.isra.0+0x9c>
20004ef8:	00200413          	li	s0,2
20004efc:	00040593          	mv	a1,s0
20004f00:	00048513          	mv	a0,s1
20004f04:	d9dff0ef          	jal	ra,20004ca0 <_ZL7get_fatP7FFOBJIDm.isra.0>
20004f08:	00050c63          	beqz	a0,20004f20 <_ZL12create_chainP7FFOBJIDm.isra.0+0x130>
20004f0c:	f3450ce3          	beq	a0,s4,20004e44 <_ZL12create_chainP7FFOBJIDm.isra.0+0x54>
20004f10:	07550463          	beq	a0,s5,20004f78 <_ZL12create_chainP7FFOBJIDm.isra.0+0x188>
20004f14:	fc891ae3          	bne	s2,s0,20004ee8 <_ZL12create_chainP7FFOBJIDm.isra.0+0xf8>
20004f18:	f75ff06f          	j	20004e8c <_ZL12create_chainP7FFOBJIDm.isra.0+0x9c>
20004f1c:	fc0400e3          	beqz	s0,20004edc <_ZL12create_chainP7FFOBJIDm.isra.0+0xec>
20004f20:	fff00613          	li	a2,-1
20004f24:	00040593          	mv	a1,s0
20004f28:	00048513          	mv	a0,s1
20004f2c:	f70ff0ef          	jal	ra,2000469c <_ZL7put_fatP5FATFSmm>
20004f30:	04051063          	bnez	a0,20004f70 <_ZL12create_chainP7FFOBJIDm.isra.0+0x180>
20004f34:	02099463          	bnez	s3,20004f5c <_ZL12create_chainP7FFOBJIDm.isra.0+0x16c>
20004f38:	01c4a703          	lw	a4,28(s1)
20004f3c:	0144a783          	lw	a5,20(s1)
20004f40:	0084a823          	sw	s0,16(s1)
20004f44:	ffe70713          	addi	a4,a4,-2
20004f48:	02f77c63          	bgeu	a4,a5,20004f80 <_ZL12create_chainP7FFOBJIDm.isra.0+0x190>
20004f4c:	0044c783          	lbu	a5,4(s1)
20004f50:	0017e793          	ori	a5,a5,1
20004f54:	00f48223          	sb	a5,4(s1)
20004f58:	ef1ff06f          	j	20004e48 <_ZL12create_chainP7FFOBJIDm.isra.0+0x58>
20004f5c:	00040613          	mv	a2,s0
20004f60:	00098593          	mv	a1,s3
20004f64:	00048513          	mv	a0,s1
20004f68:	f34ff0ef          	jal	ra,2000469c <_ZL7put_fatP5FATFSmm>
20004f6c:	fc0506e3          	beqz	a0,20004f38 <_ZL12create_chainP7FFOBJIDm.isra.0+0x148>
20004f70:	00100793          	li	a5,1
20004f74:	ecf518e3          	bne	a0,a5,20004e44 <_ZL12create_chainP7FFOBJIDm.isra.0+0x54>
20004f78:	fff00413          	li	s0,-1
20004f7c:	ecdff06f          	j	20004e48 <_ZL12create_chainP7FFOBJIDm.isra.0+0x58>
20004f80:	fff78793          	addi	a5,a5,-1
20004f84:	00f4aa23          	sw	a5,20(s1)
20004f88:	fc5ff06f          	j	20004f4c <_ZL12create_chainP7FFOBJIDm.isra.0+0x15c>

20004f8c <_ZL8dir_nextP3DIRi>:
20004f8c:	fd010113          	addi	sp,sp,-48
20004f90:	01412c23          	sw	s4,24(sp)
20004f94:	01052a03          	lw	s4,16(a0)
20004f98:	02812423          	sw	s0,40(sp)
20004f9c:	02912223          	sw	s1,36(sp)
20004fa0:	01312e23          	sw	s3,28(sp)
20004fa4:	02112623          	sw	ra,44(sp)
20004fa8:	03212023          	sw	s2,32(sp)
20004fac:	01512a23          	sw	s5,20(sp)
20004fb0:	01612823          	sw	s6,16(sp)
20004fb4:	01712623          	sw	s7,12(sp)
20004fb8:	020a0a13          	addi	s4,s4,32
20004fbc:	002007b7          	lui	a5,0x200
20004fc0:	00052403          	lw	s0,0(a0)
20004fc4:	00050493          	mv	s1,a0
20004fc8:	00058993          	mv	s3,a1
20004fcc:	00fa6463          	bltu	s4,a5,20004fd4 <_ZL8dir_nextP3DIRi+0x48>
20004fd0:	00052c23          	sw	zero,24(a0)
20004fd4:	0184a783          	lw	a5,24(s1)
20004fd8:	00400513          	li	a0,4
20004fdc:	02078863          	beqz	a5,2000500c <_ZL8dir_nextP3DIRi+0x80>
20004fe0:	1ffa7a93          	andi	s5,s4,511
20004fe4:	140a9063          	bnez	s5,20005124 <_ZL8dir_nextP3DIRi+0x198>
20004fe8:	0144a583          	lw	a1,20(s1)
20004fec:	00178793          	addi	a5,a5,1 # 200001 <_start-0x1fdfffff>
20004ff0:	00f4ac23          	sw	a5,24(s1)
20004ff4:	04059263          	bnez	a1,20005038 <_ZL8dir_nextP3DIRi+0xac>
20004ff8:	00845703          	lhu	a4,8(s0)
20004ffc:	005a5793          	srli	a5,s4,0x5
20005000:	12e7e263          	bltu	a5,a4,20005124 <_ZL8dir_nextP3DIRi+0x198>
20005004:	0004ac23          	sw	zero,24(s1)
20005008:	00400513          	li	a0,4
2000500c:	02c12083          	lw	ra,44(sp)
20005010:	02812403          	lw	s0,40(sp)
20005014:	02412483          	lw	s1,36(sp)
20005018:	02012903          	lw	s2,32(sp)
2000501c:	01c12983          	lw	s3,28(sp)
20005020:	01812a03          	lw	s4,24(sp)
20005024:	01412a83          	lw	s5,20(sp)
20005028:	01012b03          	lw	s6,16(sp)
2000502c:	00c12b83          	lw	s7,12(sp)
20005030:	03010113          	addi	sp,sp,48
20005034:	00008067          	ret
20005038:	00a45783          	lhu	a5,10(s0)
2000503c:	009a5713          	srli	a4,s4,0x9
20005040:	fff78793          	addi	a5,a5,-1
20005044:	00e7f7b3          	and	a5,a5,a4
20005048:	0c079e63          	bnez	a5,20005124 <_ZL8dir_nextP3DIRi+0x198>
2000504c:	00040513          	mv	a0,s0
20005050:	c51ff0ef          	jal	ra,20004ca0 <_ZL7get_fatP7FFOBJIDm.isra.0>
20005054:	00100b13          	li	s6,1
20005058:	00050913          	mv	s2,a0
2000505c:	00ab6663          	bltu	s6,a0,20005068 <_ZL8dir_nextP3DIRi+0xdc>
20005060:	00200513          	li	a0,2
20005064:	fa9ff06f          	j	2000500c <_ZL8dir_nextP3DIRi+0x80>
20005068:	fff00793          	li	a5,-1
2000506c:	00f51663          	bne	a0,a5,20005078 <_ZL8dir_nextP3DIRi+0xec>
20005070:	00100513          	li	a0,1
20005074:	f99ff06f          	j	2000500c <_ZL8dir_nextP3DIRi+0x80>
20005078:	01c42783          	lw	a5,28(s0)
2000507c:	08f56a63          	bltu	a0,a5,20005110 <_ZL8dir_nextP3DIRi+0x184>
20005080:	f80982e3          	beqz	s3,20005004 <_ZL8dir_nextP3DIRi+0x78>
20005084:	0144a583          	lw	a1,20(s1)
20005088:	0004a503          	lw	a0,0(s1)
2000508c:	d65ff0ef          	jal	ra,20004df0 <_ZL12create_chainP7FFOBJIDm.isra.0>
20005090:	00050913          	mv	s2,a0
20005094:	00700513          	li	a0,7
20005098:	f6090ae3          	beqz	s2,2000500c <_ZL8dir_nextP3DIRi+0x80>
2000509c:	fd6902e3          	beq	s2,s6,20005060 <_ZL8dir_nextP3DIRi+0xd4>
200050a0:	fff00793          	li	a5,-1
200050a4:	fcf906e3          	beq	s2,a5,20005070 <_ZL8dir_nextP3DIRi+0xe4>
200050a8:	00040513          	mv	a0,s0
200050ac:	b90ff0ef          	jal	ra,2000443c <_ZL11sync_windowP5FATFS>
200050b0:	00050993          	mv	s3,a0
200050b4:	fa051ee3          	bnez	a0,20005070 <_ZL8dir_nextP3DIRi+0xe4>
200050b8:	00090593          	mv	a1,s2
200050bc:	00040513          	mv	a0,s0
200050c0:	99cff0ef          	jal	ra,2000425c <_ZL9clst2sectP5FATFSm>
200050c4:	03840b93          	addi	s7,s0,56
200050c8:	00050b13          	mv	s6,a0
200050cc:	02a42a23          	sw	a0,52(s0)
200050d0:	20000613          	li	a2,512
200050d4:	00000593          	li	a1,0
200050d8:	000b8513          	mv	a0,s7
200050dc:	a3dfb0ef          	jal	ra,20000b18 <memset>
200050e0:	00a45783          	lhu	a5,10(s0)
200050e4:	02f9f263          	bgeu	s3,a5,20005108 <_ZL8dir_nextP3DIRi+0x17c>
200050e8:	00144503          	lbu	a0,1(s0)
200050ec:	00100693          	li	a3,1
200050f0:	013b0633          	add	a2,s6,s3
200050f4:	000b8593          	mv	a1,s7
200050f8:	428020ef          	jal	ra,20007520 <disk_write>
200050fc:	00051663          	bnez	a0,20005108 <_ZL8dir_nextP3DIRi+0x17c>
20005100:	00198993          	addi	s3,s3,1
20005104:	fddff06f          	j	200050e0 <_ZL8dir_nextP3DIRi+0x154>
20005108:	00a45783          	lhu	a5,10(s0)
2000510c:	f6f992e3          	bne	s3,a5,20005070 <_ZL8dir_nextP3DIRi+0xe4>
20005110:	0124aa23          	sw	s2,20(s1)
20005114:	00090593          	mv	a1,s2
20005118:	00040513          	mv	a0,s0
2000511c:	940ff0ef          	jal	ra,2000425c <_ZL9clst2sectP5FATFSm>
20005120:	00a4ac23          	sw	a0,24(s1)
20005124:	03840413          	addi	s0,s0,56
20005128:	01540433          	add	s0,s0,s5
2000512c:	0144a823          	sw	s4,16(s1)
20005130:	0084ae23          	sw	s0,28(s1)
20005134:	00000513          	li	a0,0
20005138:	ed5ff06f          	j	2000500c <_ZL8dir_nextP3DIRi+0x80>

2000513c <_ZL7dir_sdiP3DIRm>:
2000513c:	fd010113          	addi	sp,sp,-48
20005140:	02912223          	sw	s1,36(sp)
20005144:	02112623          	sw	ra,44(sp)
20005148:	02812423          	sw	s0,40(sp)
2000514c:	03212023          	sw	s2,32(sp)
20005150:	01312e23          	sw	s3,28(sp)
20005154:	01412c23          	sw	s4,24(sp)
20005158:	01512a23          	sw	s5,20(sp)
2000515c:	01612823          	sw	s6,16(sp)
20005160:	002007b7          	lui	a5,0x200
20005164:	00052483          	lw	s1,0(a0)
20005168:	02f5ea63          	bltu	a1,a5,2000519c <_ZL7dir_sdiP3DIRm+0x60>
2000516c:	00200993          	li	s3,2
20005170:	02c12083          	lw	ra,44(sp)
20005174:	02812403          	lw	s0,40(sp)
20005178:	02412483          	lw	s1,36(sp)
2000517c:	02012903          	lw	s2,32(sp)
20005180:	01812a03          	lw	s4,24(sp)
20005184:	01412a83          	lw	s5,20(sp)
20005188:	01012b03          	lw	s6,16(sp)
2000518c:	00098513          	mv	a0,s3
20005190:	01c12983          	lw	s3,28(sp)
20005194:	03010113          	addi	sp,sp,48
20005198:	00008067          	ret
2000519c:	01f5f993          	andi	s3,a1,31
200051a0:	00058413          	mv	s0,a1
200051a4:	fc0994e3          	bnez	s3,2000516c <_ZL7dir_sdiP3DIRm+0x30>
200051a8:	00b52823          	sw	a1,16(a0)
200051ac:	00852583          	lw	a1,8(a0)
200051b0:	00050913          	mv	s2,a0
200051b4:	04059a63          	bnez	a1,20005208 <_ZL7dir_sdiP3DIRm+0xcc>
200051b8:	0004c703          	lbu	a4,0(s1)
200051bc:	00200793          	li	a5,2
200051c0:	00e7f663          	bgeu	a5,a4,200051cc <_ZL7dir_sdiP3DIRm+0x90>
200051c4:	02c4a783          	lw	a5,44(s1)
200051c8:	04079263          	bnez	a5,2000520c <_ZL7dir_sdiP3DIRm+0xd0>
200051cc:	0084d703          	lhu	a4,8(s1)
200051d0:	00545793          	srli	a5,s0,0x5
200051d4:	f8e7fce3          	bgeu	a5,a4,2000516c <_ZL7dir_sdiP3DIRm+0x30>
200051d8:	02c4a503          	lw	a0,44(s1)
200051dc:	00a92c23          	sw	a0,24(s2)
200051e0:	00b92a23          	sw	a1,20(s2)
200051e4:	f80504e3          	beqz	a0,2000516c <_ZL7dir_sdiP3DIRm+0x30>
200051e8:	00945793          	srli	a5,s0,0x9
200051ec:	03848493          	addi	s1,s1,56
200051f0:	1ff47413          	andi	s0,s0,511
200051f4:	00a787b3          	add	a5,a5,a0
200051f8:	008484b3          	add	s1,s1,s0
200051fc:	00f92c23          	sw	a5,24(s2)
20005200:	00992e23          	sw	s1,28(s2)
20005204:	f6dff06f          	j	20005170 <_ZL7dir_sdiP3DIRm+0x34>
20005208:	00058793          	mv	a5,a1
2000520c:	00a4da03          	lhu	s4,10(s1)
20005210:	00078593          	mv	a1,a5
20005214:	fff00a93          	li	s5,-1
20005218:	009a1a13          	slli	s4,s4,0x9
2000521c:	00100b13          	li	s6,1
20005220:	01447c63          	bgeu	s0,s4,20005238 <_ZL7dir_sdiP3DIRm+0xfc>
20005224:	00048513          	mv	a0,s1
20005228:	00b12623          	sw	a1,12(sp)
2000522c:	830ff0ef          	jal	ra,2000425c <_ZL9clst2sectP5FATFSm>
20005230:	00c12583          	lw	a1,12(sp)
20005234:	fa9ff06f          	j	200051dc <_ZL7dir_sdiP3DIRm+0xa0>
20005238:	00092503          	lw	a0,0(s2)
2000523c:	a65ff0ef          	jal	ra,20004ca0 <_ZL7get_fatP7FFOBJIDm.isra.0>
20005240:	00050593          	mv	a1,a0
20005244:	01550c63          	beq	a0,s5,2000525c <_ZL7dir_sdiP3DIRm+0x120>
20005248:	f2ab72e3          	bgeu	s6,a0,2000516c <_ZL7dir_sdiP3DIRm+0x30>
2000524c:	01c4a783          	lw	a5,28(s1)
20005250:	f0f57ee3          	bgeu	a0,a5,2000516c <_ZL7dir_sdiP3DIRm+0x30>
20005254:	41440433          	sub	s0,s0,s4
20005258:	fc9ff06f          	j	20005220 <_ZL7dir_sdiP3DIRm+0xe4>
2000525c:	00100993          	li	s3,1
20005260:	f11ff06f          	j	20005170 <_ZL7dir_sdiP3DIRm+0x34>

20005264 <_ZL8dir_findP3DIR>:
20005264:	fb010113          	addi	sp,sp,-80
20005268:	00000593          	li	a1,0
2000526c:	04812423          	sw	s0,72(sp)
20005270:	03512a23          	sw	s5,52(sp)
20005274:	03912223          	sw	s9,36(sp)
20005278:	00052a83          	lw	s5,0(a0)
2000527c:	04112623          	sw	ra,76(sp)
20005280:	04912223          	sw	s1,68(sp)
20005284:	05212023          	sw	s2,64(sp)
20005288:	03312e23          	sw	s3,60(sp)
2000528c:	03412c23          	sw	s4,56(sp)
20005290:	03612823          	sw	s6,48(sp)
20005294:	03712623          	sw	s7,44(sp)
20005298:	03812423          	sw	s8,40(sp)
2000529c:	03a12023          	sw	s10,32(sp)
200052a0:	01b12e23          	sw	s11,28(sp)
200052a4:	00050c93          	mv	s9,a0
200052a8:	e95ff0ef          	jal	ra,2000513c <_ZL7dir_sdiP3DIRm>
200052ac:	00050413          	mv	s0,a0
200052b0:	1c051a63          	bnez	a0,20005484 <_ZL8dir_findP3DIR+0x220>
200052b4:	fff00793          	li	a5,-1
200052b8:	00010a37          	lui	s4,0x10
200052bc:	02fca623          	sw	a5,44(s9)
200052c0:	0ff00993          	li	s3,255
200052c4:	0ff00493          	li	s1,255
200052c8:	0ff00b93          	li	s7,255
200052cc:	00d00b13          	li	s6,13
200052d0:	00003c17          	auipc	s8,0x3
200052d4:	154c0c13          	addi	s8,s8,340 # 20008424 <_ZL6LfnOfs>
200052d8:	fffa0a13          	addi	s4,s4,-1 # ffff <_start-0x1fff0001>
200052dc:	018ca583          	lw	a1,24(s9)
200052e0:	000a8513          	mv	a0,s5
200052e4:	9f4ff0ef          	jal	ra,200044d8 <_ZL11move_windowP5FATFSm>
200052e8:	00050413          	mv	s0,a0
200052ec:	18051c63          	bnez	a0,20005484 <_ZL8dir_findP3DIR+0x220>
200052f0:	01ccad03          	lw	s10,28(s9)
200052f4:	000d4d83          	lbu	s11,0(s10)
200052f8:	1c0d8663          	beqz	s11,200054c4 <_ZL8dir_findP3DIR+0x260>
200052fc:	00bd4783          	lbu	a5,11(s10)
20005300:	0e500693          	li	a3,229
20005304:	03f7f713          	andi	a4,a5,63
20005308:	00ec8323          	sb	a4,6(s9)
2000530c:	00dd8a63          	beq	s11,a3,20005320 <_ZL8dir_findP3DIR+0xbc>
20005310:	0087f793          	andi	a5,a5,8
20005314:	00078c63          	beqz	a5,2000532c <_ZL8dir_findP3DIR+0xc8>
20005318:	00f00793          	li	a5,15
2000531c:	00f70c63          	beq	a4,a5,20005334 <_ZL8dir_findP3DIR+0xd0>
20005320:	fff00793          	li	a5,-1
20005324:	02fca623          	sw	a5,44(s9)
20005328:	11c0006f          	j	20005444 <_ZL8dir_findP3DIR+0x1e0>
2000532c:	00f00793          	li	a5,15
20005330:	12f71263          	bne	a4,a5,20005454 <_ZL8dir_findP3DIR+0x1f0>
20005334:	02bcc783          	lbu	a5,43(s9)
20005338:	0407f793          	andi	a5,a5,64
2000533c:	0e079663          	bnez	a5,20005428 <_ZL8dir_findP3DIR+0x1c4>
20005340:	040df793          	andi	a5,s11,64
20005344:	0e078e63          	beqz	a5,20005440 <_ZL8dir_findP3DIR+0x1dc>
20005348:	010ca783          	lw	a5,16(s9)
2000534c:	00dd4983          	lbu	s3,13(s10)
20005350:	0bfdfd93          	andi	s11,s11,191
20005354:	02fca623          	sw	a5,44(s9)
20005358:	00dd4783          	lbu	a5,13(s10)
2000535c:	0ff00493          	li	s1,255
20005360:	0d379463          	bne	a5,s3,20005428 <_ZL8dir_findP3DIR+0x1c4>
20005364:	01bd4783          	lbu	a5,27(s10)
20005368:	01ad4703          	lbu	a4,26(s10)
2000536c:	00879793          	slli	a5,a5,0x8
20005370:	00e7e7b3          	or	a5,a5,a4
20005374:	0a079a63          	bnez	a5,20005428 <_ZL8dir_findP3DIR+0x1c4>
20005378:	000d4483          	lbu	s1,0(s10)
2000537c:	00caa903          	lw	s2,12(s5)
20005380:	00100713          	li	a4,1
20005384:	03f4f493          	andi	s1,s1,63
20005388:	fff48493          	addi	s1,s1,-1
2000538c:	036484b3          	mul	s1,s1,s6
20005390:	008c07b3          	add	a5,s8,s0
20005394:	0007c783          	lbu	a5,0(a5) # 200000 <_start-0x1fe00000>
20005398:	00fd07b3          	add	a5,s10,a5
2000539c:	0007c683          	lbu	a3,0(a5)
200053a0:	0017c783          	lbu	a5,1(a5)
200053a4:	00879793          	slli	a5,a5,0x8
200053a8:	00d7e7b3          	or	a5,a5,a3
200053ac:	0a070063          	beqz	a4,2000544c <_ZL8dir_findP3DIR+0x1e8>
200053b0:	089bea63          	bltu	s7,s1,20005444 <_ZL8dir_findP3DIR+0x1e0>
200053b4:	00078513          	mv	a0,a5
200053b8:	00f12623          	sw	a5,12(sp)
200053bc:	7f9010ef          	jal	ra,200073b4 <ff_wtoupper>
200053c0:	00148693          	addi	a3,s1,1
200053c4:	00149493          	slli	s1,s1,0x1
200053c8:	009904b3          	add	s1,s2,s1
200053cc:	00a12423          	sw	a0,8(sp)
200053d0:	0004d503          	lhu	a0,0(s1)
200053d4:	00d12223          	sw	a3,4(sp)
200053d8:	7dd010ef          	jal	ra,200073b4 <ff_wtoupper>
200053dc:	00812703          	lw	a4,8(sp)
200053e0:	06a71263          	bne	a4,a0,20005444 <_ZL8dir_findP3DIR+0x1e0>
200053e4:	00c12783          	lw	a5,12(sp)
200053e8:	00412683          	lw	a3,4(sp)
200053ec:	00078713          	mv	a4,a5
200053f0:	00068493          	mv	s1,a3
200053f4:	00140413          	addi	s0,s0,1
200053f8:	f9641ce3          	bne	s0,s6,20005390 <_ZL8dir_findP3DIR+0x12c>
200053fc:	000d4783          	lbu	a5,0(s10)
20005400:	0407f793          	andi	a5,a5,64
20005404:	00078e63          	beqz	a5,20005420 <_ZL8dir_findP3DIR+0x1bc>
20005408:	00070c63          	beqz	a4,20005420 <_ZL8dir_findP3DIR+0x1bc>
2000540c:	00149493          	slli	s1,s1,0x1
20005410:	00990933          	add	s2,s2,s1
20005414:	00095783          	lhu	a5,0(s2)
20005418:	0ff00493          	li	s1,255
2000541c:	00079663          	bnez	a5,20005428 <_ZL8dir_findP3DIR+0x1c4>
20005420:	fffd8d93          	addi	s11,s11,-1
20005424:	0ffdf493          	zext.b	s1,s11
20005428:	00000593          	li	a1,0
2000542c:	000c8513          	mv	a0,s9
20005430:	b5dff0ef          	jal	ra,20004f8c <_ZL8dir_nextP3DIRi>
20005434:	00050413          	mv	s0,a0
20005438:	ea0502e3          	beqz	a0,200052dc <_ZL8dir_findP3DIR+0x78>
2000543c:	0480006f          	j	20005484 <_ZL8dir_findP3DIR+0x220>
20005440:	f1b48ce3          	beq	s1,s11,20005358 <_ZL8dir_findP3DIR+0xf4>
20005444:	0ff00493          	li	s1,255
20005448:	fe1ff06f          	j	20005428 <_ZL8dir_findP3DIR+0x1c4>
2000544c:	fb4784e3          	beq	a5,s4,200053f4 <_ZL8dir_findP3DIR+0x190>
20005450:	ff5ff06f          	j	20005444 <_ZL8dir_findP3DIR+0x1e0>
20005454:	00049863          	bnez	s1,20005464 <_ZL8dir_findP3DIR+0x200>
20005458:	000d0513          	mv	a0,s10
2000545c:	e69fe0ef          	jal	ra,200042c4 <_ZL7sum_sfnPKh>
20005460:	03350263          	beq	a0,s3,20005484 <_ZL8dir_findP3DIR+0x220>
20005464:	02bcc783          	lbu	a5,43(s9)
20005468:	0017f793          	andi	a5,a5,1
2000546c:	ea079ae3          	bnez	a5,20005320 <_ZL8dir_findP3DIR+0xbc>
20005470:	00b00613          	li	a2,11
20005474:	020c8593          	addi	a1,s9,32
20005478:	000d0513          	mv	a0,s10
2000547c:	cfcfb0ef          	jal	ra,20000978 <memcmp>
20005480:	ea0510e3          	bnez	a0,20005320 <_ZL8dir_findP3DIR+0xbc>
20005484:	04c12083          	lw	ra,76(sp)
20005488:	00040513          	mv	a0,s0
2000548c:	04812403          	lw	s0,72(sp)
20005490:	04412483          	lw	s1,68(sp)
20005494:	04012903          	lw	s2,64(sp)
20005498:	03c12983          	lw	s3,60(sp)
2000549c:	03812a03          	lw	s4,56(sp)
200054a0:	03412a83          	lw	s5,52(sp)
200054a4:	03012b03          	lw	s6,48(sp)
200054a8:	02c12b83          	lw	s7,44(sp)
200054ac:	02812c03          	lw	s8,40(sp)
200054b0:	02412c83          	lw	s9,36(sp)
200054b4:	02012d03          	lw	s10,32(sp)
200054b8:	01c12d83          	lw	s11,28(sp)
200054bc:	05010113          	addi	sp,sp,80
200054c0:	00008067          	ret
200054c4:	00400413          	li	s0,4
200054c8:	fbdff06f          	j	20005484 <_ZL8dir_findP3DIR+0x220>

200054cc <_ZL11follow_pathP3DIRPKc>:
200054cc:	fb010113          	addi	sp,sp,-80
200054d0:	05212023          	sw	s2,64(sp)
200054d4:	03312e23          	sw	s3,60(sp)
200054d8:	03612823          	sw	s6,48(sp)
200054dc:	04112623          	sw	ra,76(sp)
200054e0:	04812423          	sw	s0,72(sp)
200054e4:	04912223          	sw	s1,68(sp)
200054e8:	03412c23          	sw	s4,56(sp)
200054ec:	03512a23          	sw	s5,52(sp)
200054f0:	03712623          	sw	s7,44(sp)
200054f4:	03812423          	sw	s8,40(sp)
200054f8:	03912223          	sw	s9,36(sp)
200054fc:	03a12023          	sw	s10,32(sp)
20005500:	01b12e23          	sw	s11,28(sp)
20005504:	0005c783          	lbu	a5,0(a1)
20005508:	02f00693          	li	a3,47
2000550c:	00052983          	lw	s3,0(a0)
20005510:	00050b13          	mv	s6,a0
20005514:	00058913          	mv	s2,a1
20005518:	08d78c63          	beq	a5,a3,200055b0 <_ZL11follow_pathP3DIRPKc+0xe4>
2000551c:	05c00693          	li	a3,92
20005520:	08d78863          	beq	a5,a3,200055b0 <_ZL11follow_pathP3DIRPKc+0xe4>
20005524:	0189a783          	lw	a5,24(s3)
20005528:	00fb2423          	sw	a5,8(s6)
2000552c:	00094683          	lbu	a3,0(s2)
20005530:	01f00793          	li	a5,31
20005534:	08d7f463          	bgeu	a5,a3,200055bc <_ZL11follow_pathP3DIRPKc+0xf0>
20005538:	020b0793          	addi	a5,s6,32
2000553c:	00f12423          	sw	a5,8(sp)
20005540:	000b2783          	lw	a5,0(s6)
20005544:	00000a13          	li	s4,0
20005548:	05c00413          	li	s0,92
2000554c:	00c7ad83          	lw	s11,12(a5)
20005550:	07f00493          	li	s1,127
20005554:	0ff00c93          	li	s9,255
20005558:	00094503          	lbu	a0,0(s2)
2000555c:	00190913          	addi	s2,s2,1
20005560:	1a050c63          	beqz	a0,20005718 <_ZL11follow_pathP3DIRPKc+0x24c>
20005564:	1b500593          	li	a1,437
20005568:	615010ef          	jal	ra,2000737c <ff_oem2uni>
2000556c:	00050d13          	mv	s10,a0
20005570:	02050063          	beqz	a0,20005590 <_ZL11follow_pathP3DIRPKc+0xc4>
20005574:	01f00793          	li	a5,31
20005578:	1aa7f063          	bgeu	a5,a0,20005718 <_ZL11follow_pathP3DIRPKc+0x24c>
2000557c:	02f00793          	li	a5,47
20005580:	18f50863          	beq	a0,a5,20005710 <_ZL11follow_pathP3DIRPKc+0x244>
20005584:	18850663          	beq	a0,s0,20005710 <_ZL11follow_pathP3DIRPKc+0x244>
20005588:	08a4f063          	bgeu	s1,a0,20005608 <_ZL11follow_pathP3DIRPKc+0x13c>
2000558c:	099a1a63          	bne	s4,s9,20005620 <_ZL11follow_pathP3DIRPKc+0x154>
20005590:	00600513          	li	a0,6
20005594:	1400006f          	j	200056d4 <_ZL11follow_pathP3DIRPKc+0x208>
20005598:	00190913          	addi	s2,s2,1
2000559c:	00094783          	lbu	a5,0(s2)
200055a0:	fec78ce3          	beq	a5,a2,20005598 <_ZL11follow_pathP3DIRPKc+0xcc>
200055a4:	fed78ae3          	beq	a5,a3,20005598 <_ZL11follow_pathP3DIRPKc+0xcc>
200055a8:	00000793          	li	a5,0
200055ac:	f7dff06f          	j	20005528 <_ZL11follow_pathP3DIRPKc+0x5c>
200055b0:	02f00613          	li	a2,47
200055b4:	05c00693          	li	a3,92
200055b8:	fe5ff06f          	j	2000559c <_ZL11follow_pathP3DIRPKc+0xd0>
200055bc:	04812403          	lw	s0,72(sp)
200055c0:	f8000793          	li	a5,-128
200055c4:	04c12083          	lw	ra,76(sp)
200055c8:	04412483          	lw	s1,68(sp)
200055cc:	04012903          	lw	s2,64(sp)
200055d0:	03c12983          	lw	s3,60(sp)
200055d4:	03812a03          	lw	s4,56(sp)
200055d8:	03412a83          	lw	s5,52(sp)
200055dc:	02c12b83          	lw	s7,44(sp)
200055e0:	02812c03          	lw	s8,40(sp)
200055e4:	02412c83          	lw	s9,36(sp)
200055e8:	02012d03          	lw	s10,32(sp)
200055ec:	01c12d83          	lw	s11,28(sp)
200055f0:	02fb05a3          	sb	a5,43(s6)
200055f4:	000b0513          	mv	a0,s6
200055f8:	03012b03          	lw	s6,48(sp)
200055fc:	00000593          	li	a1,0
20005600:	05010113          	addi	sp,sp,80
20005604:	b39ff06f          	j	2000513c <_ZL7dir_sdiP3DIRm>
20005608:	00050593          	mv	a1,a0
2000560c:	00003517          	auipc	a0,0x3
20005610:	d7850513          	addi	a0,a0,-648 # 20008384 <__clz_tab+0xe14>
20005614:	ed0fb0ef          	jal	ra,20000ce4 <strchr>
20005618:	f6050ae3          	beqz	a0,2000558c <_ZL11follow_pathP3DIRPKc+0xc0>
2000561c:	f75ff06f          	j	20005590 <_ZL11follow_pathP3DIRPKc+0xc4>
20005620:	001a1693          	slli	a3,s4,0x1
20005624:	00dd86b3          	add	a3,s11,a3
20005628:	01a69023          	sh	s10,0(a3)
2000562c:	001a0a13          	addi	s4,s4,1
20005630:	f29ff06f          	j	20005558 <_ZL11follow_pathP3DIRPKc+0x8c>
20005634:	00190913          	addi	s2,s2,1
20005638:	00094403          	lbu	s0,0(s2)
2000563c:	02f00793          	li	a5,47
20005640:	fef40ae3          	beq	s0,a5,20005634 <_ZL11follow_pathP3DIRPKc+0x168>
20005644:	fed408e3          	beq	s0,a3,20005634 <_ZL11follow_pathP3DIRPKc+0x168>
20005648:	02043413          	sltiu	s0,s0,32
2000564c:	00241413          	slli	s0,s0,0x2
20005650:	00100693          	li	a3,1
20005654:	0cda1663          	bne	s4,a3,20005720 <_ZL11follow_pathP3DIRPKc+0x254>
20005658:	000dd603          	lhu	a2,0(s11)
2000565c:	02e00693          	li	a3,46
20005660:	1ad61663          	bne	a2,a3,2000580c <_ZL11follow_pathP3DIRPKc+0x340>
20005664:	001a1693          	slli	a3,s4,0x1
20005668:	00dd86b3          	add	a3,s11,a3
2000566c:	00069023          	sh	zero,0(a3)
20005670:	00b00593          	li	a1,11
20005674:	00000693          	li	a3,0
20005678:	02e00613          	li	a2,46
2000567c:	0146e463          	bltu	a3,s4,20005684 <_ZL11follow_pathP3DIRPKc+0x1b8>
20005680:	02000613          	li	a2,32
20005684:	00db0533          	add	a0,s6,a3
20005688:	02c50023          	sb	a2,32(a0)
2000568c:	00168693          	addi	a3,a3,1
20005690:	feb694e3          	bne	a3,a1,20005678 <_ZL11follow_pathP3DIRPKc+0x1ac>
20005694:	02046413          	ori	s0,s0,32
20005698:	0ff47413          	zext.b	s0,s0
2000569c:	028b05a3          	sb	s0,43(s6)
200056a0:	000b0513          	mv	a0,s6
200056a4:	bc1ff0ef          	jal	ra,20005264 <_ZL8dir_findP3DIR>
200056a8:	02bb4783          	lbu	a5,43(s6)
200056ac:	32050463          	beqz	a0,200059d4 <_ZL11follow_pathP3DIRPKc+0x508>
200056b0:	00400693          	li	a3,4
200056b4:	02d51063          	bne	a0,a3,200056d4 <_ZL11follow_pathP3DIRPKc+0x208>
200056b8:	0047f693          	andi	a3,a5,4
200056bc:	0207f793          	andi	a5,a5,32
200056c0:	30078463          	beqz	a5,200059c8 <_ZL11follow_pathP3DIRPKc+0x4fc>
200056c4:	e6068ee3          	beqz	a3,20005540 <_ZL11follow_pathP3DIRPKc+0x74>
200056c8:	f8000793          	li	a5,-128
200056cc:	02fb05a3          	sb	a5,43(s6)
200056d0:	00000513          	li	a0,0
200056d4:	04c12083          	lw	ra,76(sp)
200056d8:	04812403          	lw	s0,72(sp)
200056dc:	04412483          	lw	s1,68(sp)
200056e0:	04012903          	lw	s2,64(sp)
200056e4:	03c12983          	lw	s3,60(sp)
200056e8:	03812a03          	lw	s4,56(sp)
200056ec:	03412a83          	lw	s5,52(sp)
200056f0:	03012b03          	lw	s6,48(sp)
200056f4:	02c12b83          	lw	s7,44(sp)
200056f8:	02812c03          	lw	s8,40(sp)
200056fc:	02412c83          	lw	s9,36(sp)
20005700:	02012d03          	lw	s10,32(sp)
20005704:	01c12d83          	lw	s11,28(sp)
20005708:	05010113          	addi	sp,sp,80
2000570c:	00008067          	ret
20005710:	05c00693          	li	a3,92
20005714:	f25ff06f          	j	20005638 <_ZL11follow_pathP3DIRPKc+0x16c>
20005718:	00400413          	li	s0,4
2000571c:	f35ff06f          	j	20005650 <_ZL11follow_pathP3DIRPKc+0x184>
20005720:	00200693          	li	a3,2
20005724:	0eda1463          	bne	s4,a3,2000580c <_ZL11follow_pathP3DIRPKc+0x340>
20005728:	002dd683          	lhu	a3,2(s11)
2000572c:	02e00613          	li	a2,46
20005730:	0cc69e63          	bne	a3,a2,2000580c <_ZL11follow_pathP3DIRPKc+0x340>
20005734:	000dd603          	lhu	a2,0(s11)
20005738:	f29ff06f          	j	20005660 <_ZL11follow_pathP3DIRPKc+0x194>
2000573c:	00dd8633          	add	a2,s11,a3
20005740:	ffe65603          	lhu	a2,-2(a2)
20005744:	00b60463          	beq	a2,a1,2000574c <_ZL11follow_pathP3DIRPKc+0x280>
20005748:	00a61863          	bne	a2,a0,20005758 <_ZL11follow_pathP3DIRPKc+0x28c>
2000574c:	fffa0a13          	addi	s4,s4,-1
20005750:	001a1693          	slli	a3,s4,0x1
20005754:	fe0a14e3          	bnez	s4,2000573c <_ZL11follow_pathP3DIRPKc+0x270>
20005758:	00dd86b3          	add	a3,s11,a3
2000575c:	00069023          	sh	zero,0(a3)
20005760:	e20a08e3          	beqz	s4,20005590 <_ZL11follow_pathP3DIRPKc+0xc4>
20005764:	00000693          	li	a3,0
20005768:	02000593          	li	a1,32
2000576c:	00169613          	slli	a2,a3,0x1
20005770:	00cd8633          	add	a2,s11,a2
20005774:	00065603          	lhu	a2,0(a2)
20005778:	00068493          	mv	s1,a3
2000577c:	00168693          	addi	a3,a3,1
20005780:	feb606e3          	beq	a2,a1,2000576c <_ZL11follow_pathP3DIRPKc+0x2a0>
20005784:	00049663          	bnez	s1,20005790 <_ZL11follow_pathP3DIRPKc+0x2c4>
20005788:	02e00693          	li	a3,46
2000578c:	00d61663          	bne	a2,a3,20005798 <_ZL11follow_pathP3DIRPKc+0x2cc>
20005790:	00346413          	ori	s0,s0,3
20005794:	0ff47413          	zext.b	s0,s0
20005798:	02e00613          	li	a2,46
2000579c:	001a1693          	slli	a3,s4,0x1
200057a0:	00dd86b3          	add	a3,s11,a3
200057a4:	ffe6d683          	lhu	a3,-2(a3)
200057a8:	00c68663          	beq	a3,a2,200057b4 <_ZL11follow_pathP3DIRPKc+0x2e8>
200057ac:	fffa0a13          	addi	s4,s4,-1
200057b0:	fe0a16e3          	bnez	s4,2000579c <_ZL11follow_pathP3DIRPKc+0x2d0>
200057b4:	00812503          	lw	a0,8(sp)
200057b8:	00b00613          	li	a2,11
200057bc:	02000593          	li	a1,32
200057c0:	b58fb0ef          	jal	ra,20000b18 <memset>
200057c4:	00800c13          	li	s8,8
200057c8:	00000c93          	li	s9,0
200057cc:	00000a93          	li	s5,0
200057d0:	00b00b93          	li	s7,11
200057d4:	00148e13          	addi	t3,s1,1
200057d8:	00149493          	slli	s1,s1,0x1
200057dc:	009d84b3          	add	s1,s11,s1
200057e0:	0004d483          	lhu	s1,0(s1)
200057e4:	04048a63          	beqz	s1,20005838 <_ZL11follow_pathP3DIRPKc+0x36c>
200057e8:	02000793          	li	a5,32
200057ec:	00f48863          	beq	s1,a5,200057fc <_ZL11follow_pathP3DIRPKc+0x330>
200057f0:	02e00793          	li	a5,46
200057f4:	02f49263          	bne	s1,a5,20005818 <_ZL11follow_pathP3DIRPKc+0x34c>
200057f8:	034e0463          	beq	t3,s4,20005820 <_ZL11follow_pathP3DIRPKc+0x354>
200057fc:	00346413          	ori	s0,s0,3
20005800:	0ff47413          	zext.b	s0,s0
20005804:	000e0493          	mv	s1,t3
20005808:	fcdff06f          	j	200057d4 <_ZL11follow_pathP3DIRPKc+0x308>
2000580c:	02000593          	li	a1,32
20005810:	02e00513          	li	a0,46
20005814:	f3dff06f          	j	20005750 <_ZL11follow_pathP3DIRPKc+0x284>
20005818:	018cf863          	bgeu	s9,s8,20005828 <_ZL11follow_pathP3DIRPKc+0x35c>
2000581c:	0b4e1863          	bne	t3,s4,200058cc <_ZL11follow_pathP3DIRPKc+0x400>
20005820:	097c1a63          	bne	s8,s7,200058b4 <_ZL11follow_pathP3DIRPKc+0x3e8>
20005824:	0080006f          	j	2000582c <_ZL11follow_pathP3DIRPKc+0x360>
20005828:	077c1e63          	bne	s8,s7,200058a4 <_ZL11follow_pathP3DIRPKc+0x3d8>
2000582c:	00346413          	ori	s0,s0,3
20005830:	0ff47413          	zext.b	s0,s0
20005834:	00b00c13          	li	s8,11
20005838:	020b4603          	lbu	a2,32(s6)
2000583c:	0e500793          	li	a5,229
20005840:	00f61663          	bne	a2,a5,2000584c <_ZL11follow_pathP3DIRPKc+0x380>
20005844:	00500793          	li	a5,5
20005848:	02fb0023          	sb	a5,32(s6)
2000584c:	00800793          	li	a5,8
20005850:	00fc1663          	bne	s8,a5,2000585c <_ZL11follow_pathP3DIRPKc+0x390>
20005854:	002a9693          	slli	a3,s5,0x2
20005858:	0ff6fa93          	zext.b	s5,a3
2000585c:	00caf793          	andi	a5,s5,12
20005860:	00c00613          	li	a2,12
20005864:	00c78863          	beq	a5,a2,20005874 <_ZL11follow_pathP3DIRPKc+0x3a8>
20005868:	003af793          	andi	a5,s5,3
2000586c:	00300613          	li	a2,3
20005870:	00c79663          	bne	a5,a2,2000587c <_ZL11follow_pathP3DIRPKc+0x3b0>
20005874:	00246413          	ori	s0,s0,2
20005878:	0ff47413          	zext.b	s0,s0
2000587c:	00247793          	andi	a5,s0,2
20005880:	e0079ee3          	bnez	a5,2000569c <_ZL11follow_pathP3DIRPKc+0x1d0>
20005884:	001af793          	andi	a5,s5,1
20005888:	00078663          	beqz	a5,20005894 <_ZL11follow_pathP3DIRPKc+0x3c8>
2000588c:	01046413          	ori	s0,s0,16
20005890:	0ff47413          	zext.b	s0,s0
20005894:	004af693          	andi	a3,s5,4
20005898:	e00682e3          	beqz	a3,2000569c <_ZL11follow_pathP3DIRPKc+0x1d0>
2000589c:	00846413          	ori	s0,s0,8
200058a0:	df9ff06f          	j	20005698 <_ZL11follow_pathP3DIRPKc+0x1cc>
200058a4:	014e0863          	beq	t3,s4,200058b4 <_ZL11follow_pathP3DIRPKc+0x3e8>
200058a8:	00346413          	ori	s0,s0,3
200058ac:	0ff47413          	zext.b	s0,s0
200058b0:	f9ca64e3          	bltu	s4,t3,20005838 <_ZL11follow_pathP3DIRPKc+0x36c>
200058b4:	002a9693          	slli	a3,s5,0x2
200058b8:	0ff6fa93          	zext.b	s5,a3
200058bc:	000a0e13          	mv	t3,s4
200058c0:	00b00c13          	li	s8,11
200058c4:	00800c93          	li	s9,8
200058c8:	f3dff06f          	j	20005804 <_ZL11follow_pathP3DIRPKc+0x338>
200058cc:	07f00793          	li	a5,127
200058d0:	00040d13          	mv	s10,s0
200058d4:	0497f263          	bgeu	a5,s1,20005918 <_ZL11follow_pathP3DIRPKc+0x44c>
200058d8:	00246313          	ori	t1,s0,2
200058dc:	1b500593          	li	a1,437
200058e0:	00048513          	mv	a0,s1
200058e4:	01c12623          	sw	t3,12(sp)
200058e8:	0ff37d13          	zext.b	s10,t1
200058ec:	22d010ef          	jal	ra,20007318 <ff_uni2oem>
200058f0:	08057593          	andi	a1,a0,128
200058f4:	00c12e03          	lw	t3,12(sp)
200058f8:	00050493          	mv	s1,a0
200058fc:	06058863          	beqz	a1,2000596c <_ZL11follow_pathP3DIRPKc+0x4a0>
20005900:	07f57493          	andi	s1,a0,127
20005904:	00003797          	auipc	a5,0x3
20005908:	aa078793          	addi	a5,a5,-1376 # 200083a4 <_ZL5ExCvt>
2000590c:	009784b3          	add	s1,a5,s1
20005910:	0004c483          	lbu	s1,0(s1)
20005914:	08048e63          	beqz	s1,200059b0 <_ZL11follow_pathP3DIRPKc+0x4e4>
20005918:	00048593          	mv	a1,s1
2000591c:	00003517          	auipc	a0,0x3
20005920:	a7450513          	addi	a0,a0,-1420 # 20008390 <__clz_tab+0xe20>
20005924:	01c12623          	sw	t3,12(sp)
20005928:	bbcfb0ef          	jal	ra,20000ce4 <strchr>
2000592c:	00c12e03          	lw	t3,12(sp)
20005930:	08051063          	bnez	a0,200059b0 <_ZL11follow_pathP3DIRPKc+0x4e4>
20005934:	fbf48593          	addi	a1,s1,-65
20005938:	01059593          	slli	a1,a1,0x10
2000593c:	0105d593          	srli	a1,a1,0x10
20005940:	01900513          	li	a0,25
20005944:	06b57e63          	bgeu	a0,a1,200059c0 <_ZL11follow_pathP3DIRPKc+0x4f4>
20005948:	f9f48593          	addi	a1,s1,-97
2000594c:	01059593          	slli	a1,a1,0x10
20005950:	0105d593          	srli	a1,a1,0x10
20005954:	04b56463          	bltu	a0,a1,2000599c <_ZL11follow_pathP3DIRPKc+0x4d0>
20005958:	fe048493          	addi	s1,s1,-32
2000595c:	01049493          	slli	s1,s1,0x10
20005960:	001aea93          	ori	s5,s5,1
20005964:	0104d493          	srli	s1,s1,0x10
20005968:	0340006f          	j	2000599c <_ZL11follow_pathP3DIRPKc+0x4d0>
2000596c:	0ff00593          	li	a1,255
20005970:	faa5f2e3          	bgeu	a1,a0,20005914 <_ZL11follow_pathP3DIRPKc+0x448>
20005974:	fffc0593          	addi	a1,s8,-1
20005978:	00bcea63          	bltu	s9,a1,2000598c <_ZL11follow_pathP3DIRPKc+0x4c0>
2000597c:	00346413          	ori	s0,s0,3
20005980:	0ff47413          	zext.b	s0,s0
20005984:	000c0c93          	mv	s9,s8
20005988:	e7dff06f          	j	20005804 <_ZL11follow_pathP3DIRPKc+0x338>
2000598c:	019b05b3          	add	a1,s6,s9
20005990:	00855513          	srli	a0,a0,0x8
20005994:	02a58023          	sb	a0,32(a1)
20005998:	001c8c93          	addi	s9,s9,1
2000599c:	019b05b3          	add	a1,s6,s9
200059a0:	02958023          	sb	s1,32(a1)
200059a4:	001c8c93          	addi	s9,s9,1
200059a8:	000d0413          	mv	s0,s10
200059ac:	e59ff06f          	j	20005804 <_ZL11follow_pathP3DIRPKc+0x338>
200059b0:	003d6313          	ori	t1,s10,3
200059b4:	0ff37d13          	zext.b	s10,t1
200059b8:	05f00493          	li	s1,95
200059bc:	fe1ff06f          	j	2000599c <_ZL11follow_pathP3DIRPKc+0x4d0>
200059c0:	002aea93          	ori	s5,s5,2
200059c4:	fd9ff06f          	j	2000599c <_ZL11follow_pathP3DIRPKc+0x4d0>
200059c8:	d00696e3          	bnez	a3,200056d4 <_ZL11follow_pathP3DIRPKc+0x208>
200059cc:	00500513          	li	a0,5
200059d0:	d05ff06f          	j	200056d4 <_ZL11follow_pathP3DIRPKc+0x208>
200059d4:	0047f793          	andi	a5,a5,4
200059d8:	ce079ee3          	bnez	a5,200056d4 <_ZL11follow_pathP3DIRPKc+0x208>
200059dc:	006b4783          	lbu	a5,6(s6)
200059e0:	0107f793          	andi	a5,a5,16
200059e4:	fe0784e3          	beqz	a5,200059cc <_ZL11follow_pathP3DIRPKc+0x500>
200059e8:	010b2783          	lw	a5,16(s6)
200059ec:	0009c503          	lbu	a0,0(s3)
200059f0:	03898593          	addi	a1,s3,56
200059f4:	1ff7f793          	andi	a5,a5,511
200059f8:	00f585b3          	add	a1,a1,a5
200059fc:	a6cff0ef          	jal	ra,20004c68 <_ZL8ld_clustP5FATFSPKh.isra.0>
20005a00:	00ab2423          	sw	a0,8(s6)
20005a04:	b3dff06f          	j	20005540 <_ZL11follow_pathP3DIRPKc+0x74>

20005a08 <f_mount>:
20005a08:	fd010113          	addi	sp,sp,-48
20005a0c:	00a12623          	sw	a0,12(sp)
20005a10:	01c10513          	addi	a0,sp,28
20005a14:	02812423          	sw	s0,40(sp)
20005a18:	02112623          	sw	ra,44(sp)
20005a1c:	00b12423          	sw	a1,8(sp)
20005a20:	00060413          	mv	s0,a2
20005a24:	00b12e23          	sw	a1,28(sp)
20005a28:	8cdfe0ef          	jal	ra,200042f4 <_ZL12get_ldnumberPPKc>
20005a2c:	04054e63          	bltz	a0,20005a88 <f_mount+0x80>
20005a30:	0000a797          	auipc	a5,0xa
20005a34:	9f878793          	addi	a5,a5,-1544 # 2000f428 <_ZL5FatFs>
20005a38:	00251513          	slli	a0,a0,0x2
20005a3c:	00a78733          	add	a4,a5,a0
20005a40:	00072703          	lw	a4,0(a4)
20005a44:	00070463          	beqz	a4,20005a4c <f_mount+0x44>
20005a48:	00070023          	sb	zero,0(a4)
20005a4c:	00c12703          	lw	a4,12(sp)
20005a50:	00070463          	beqz	a4,20005a58 <f_mount+0x50>
20005a54:	00070023          	sb	zero,0(a4)
20005a58:	00a787b3          	add	a5,a5,a0
20005a5c:	00e7a023          	sw	a4,0(a5)
20005a60:	00000513          	li	a0,0
20005a64:	00040a63          	beqz	s0,20005a78 <f_mount+0x70>
20005a68:	00000613          	li	a2,0
20005a6c:	00c10593          	addi	a1,sp,12
20005a70:	00810513          	addi	a0,sp,8
20005a74:	e19fe0ef          	jal	ra,2000488c <_ZL12mount_volumePPKcPP5FATFSh>
20005a78:	02c12083          	lw	ra,44(sp)
20005a7c:	02812403          	lw	s0,40(sp)
20005a80:	03010113          	addi	sp,sp,48
20005a84:	00008067          	ret
20005a88:	00b00513          	li	a0,11
20005a8c:	fedff06f          	j	20005a78 <f_mount+0x70>

20005a90 <f_open>:
20005a90:	f6010113          	addi	sp,sp,-160
20005a94:	09512223          	sw	s5,132(sp)
20005a98:	08112e23          	sw	ra,156(sp)
20005a9c:	08812c23          	sw	s0,152(sp)
20005aa0:	08912a23          	sw	s1,148(sp)
20005aa4:	09212823          	sw	s2,144(sp)
20005aa8:	09312623          	sw	s3,140(sp)
20005aac:	09412423          	sw	s4,136(sp)
20005ab0:	09612023          	sw	s6,128(sp)
20005ab4:	07712e23          	sw	s7,124(sp)
20005ab8:	07812c23          	sw	s8,120(sp)
20005abc:	07912a23          	sw	s9,116(sp)
20005ac0:	07a12823          	sw	s10,112(sp)
20005ac4:	07b12623          	sw	s11,108(sp)
20005ac8:	00b12623          	sw	a1,12(sp)
20005acc:	00900a93          	li	s5,9
20005ad0:	54050463          	beqz	a0,20006018 <f_open+0x588>
20005ad4:	03f67993          	andi	s3,a2,63
20005ad8:	00050493          	mv	s1,a0
20005adc:	00060b13          	mv	s6,a2
20005ae0:	01810593          	addi	a1,sp,24
20005ae4:	00098613          	mv	a2,s3
20005ae8:	00c10513          	addi	a0,sp,12
20005aec:	da1fe0ef          	jal	ra,2000488c <_ZL12mount_volumePPKcPP5FATFSh>
20005af0:	00050a93          	mv	s5,a0
20005af4:	00050413          	mv	s0,a0
20005af8:	42051063          	bnez	a0,20005f18 <f_open+0x488>
20005afc:	01812903          	lw	s2,24(sp)
20005b00:	00c12583          	lw	a1,12(sp)
20005b04:	03010a13          	addi	s4,sp,48
20005b08:	000a0513          	mv	a0,s4
20005b0c:	03212823          	sw	s2,48(sp)
20005b10:	9bdff0ef          	jal	ra,200054cc <_ZL11follow_pathP3DIRPKc>
20005b14:	00050413          	mv	s0,a0
20005b18:	00051863          	bnez	a0,20005b28 <f_open+0x98>
20005b1c:	05b10783          	lb	a5,91(sp)
20005b20:	0007d463          	bgez	a5,20005b28 <f_open+0x98>
20005b24:	00600413          	li	s0,6
20005b28:	01cb7793          	andi	a5,s6,28
20005b2c:	5c078463          	beqz	a5,200060f4 <f_open+0x664>
20005b30:	3e040a63          	beqz	s0,20005f24 <f_open+0x494>
20005b34:	00400793          	li	a5,4
20005b38:	3ef41063          	bne	s0,a5,20005f18 <f_open+0x488>
20005b3c:	05b14783          	lbu	a5,91(sp)
20005b40:	00600413          	li	s0,6
20005b44:	0a07f793          	andi	a5,a5,160
20005b48:	3c079863          	bnez	a5,20005f18 <f_open+0x488>
20005b4c:	03012b03          	lw	s6,48(sp)
20005b50:	00000b93          	li	s7,0
20005b54:	00cb2703          	lw	a4,12(s6)
20005b58:	001b9793          	slli	a5,s7,0x1
20005b5c:	00f707b3          	add	a5,a4,a5
20005b60:	0007d783          	lhu	a5,0(a5)
20005b64:	10079e63          	bnez	a5,20005c80 <f_open+0x1f0>
20005b68:	05010c13          	addi	s8,sp,80
20005b6c:	02410d13          	addi	s10,sp,36
20005b70:	00c00613          	li	a2,12
20005b74:	000c0593          	mv	a1,s8
20005b78:	000d0513          	mv	a0,s10
20005b7c:	e75fa0ef          	jal	ra,200009f0 <memcpy>
20005b80:	02f14783          	lbu	a5,47(sp)
20005b84:	0017f793          	andi	a5,a5,1
20005b88:	5c078c63          	beqz	a5,20006160 <f_open+0x6d0>
20005b8c:	04000793          	li	a5,64
20005b90:	00011cb7          	lui	s9,0x11
20005b94:	04f10da3          	sb	a5,91(sp)
20005b98:	00100d93          	li	s11,1
20005b9c:	021c8c93          	addi	s9,s9,33 # 11021 <_start-0x1ffeefdf>
20005ba0:	00b00613          	li	a2,11
20005ba4:	000d0593          	mv	a1,s10
20005ba8:	000c0513          	mv	a0,s8
20005bac:	00cb2403          	lw	s0,12(s6)
20005bb0:	e41fa0ef          	jal	ra,200009f0 <memcpy>
20005bb4:	00500793          	li	a5,5
20005bb8:	11b7e663          	bltu	a5,s11,20005cc4 <f_open+0x234>
20005bbc:	000d8793          	mv	a5,s11
20005bc0:	00700613          	li	a2,7
20005bc4:	03900893          	li	a7,57
20005bc8:	01c10313          	addi	t1,sp,28
20005bcc:	00f00513          	li	a0,15
20005bd0:	00f7f713          	andi	a4,a5,15
20005bd4:	03070593          	addi	a1,a4,48
20005bd8:	00078813          	mv	a6,a5
20005bdc:	0047d793          	srli	a5,a5,0x4
20005be0:	00b8f463          	bgeu	a7,a1,20005be8 <f_open+0x158>
20005be4:	03770593          	addi	a1,a4,55
20005be8:	fff60713          	addi	a4,a2,-1
20005bec:	00c30633          	add	a2,t1,a2
20005bf0:	00b60023          	sb	a1,0(a2)
20005bf4:	00070463          	beqz	a4,20005bfc <f_open+0x16c>
20005bf8:	0d056a63          	bltu	a0,a6,20005ccc <f_open+0x23c>
20005bfc:	06070793          	addi	a5,a4,96
20005c00:	07e00613          	li	a2,126
20005c04:	002787b3          	add	a5,a5,sp
20005c08:	fac78e23          	sb	a2,-68(a5)
20005c0c:	02000593          	li	a1,32
20005c10:	000a0613          	mv	a2,s4
20005c14:	00000793          	li	a5,0
20005c18:	00f70a63          	beq	a4,a5,20005c2c <f_open+0x19c>
20005c1c:	02064503          	lbu	a0,32(a2)
20005c20:	00178813          	addi	a6,a5,1
20005c24:	00160613          	addi	a2,a2,1
20005c28:	0ab51663          	bne	a0,a1,20005cd4 <f_open+0x244>
20005c2c:	00700813          	li	a6,7
20005c30:	00800593          	li	a1,8
20005c34:	02000613          	li	a2,32
20005c38:	00e86a63          	bltu	a6,a4,20005c4c <f_open+0x1bc>
20005c3c:	06070693          	addi	a3,a4,96
20005c40:	00268633          	add	a2,a3,sp
20005c44:	fbc64603          	lbu	a2,-68(a2)
20005c48:	00170713          	addi	a4,a4,1
20005c4c:	00178793          	addi	a5,a5,1
20005c50:	00fa0533          	add	a0,s4,a5
20005c54:	00c50fa3          	sb	a2,31(a0)
20005c58:	fcb79ee3          	bne	a5,a1,20005c34 <f_open+0x1a4>
20005c5c:	000a0513          	mv	a0,s4
20005c60:	e04ff0ef          	jal	ra,20005264 <_ZL8dir_findP3DIR>
20005c64:	00050413          	mv	s0,a0
20005c68:	4e051463          	bnez	a0,20006150 <f_open+0x6c0>
20005c6c:	001d8d93          	addi	s11,s11,1
20005c70:	06400793          	li	a5,100
20005c74:	f2fd96e3          	bne	s11,a5,20005ba0 <f_open+0x110>
20005c78:	00700413          	li	s0,7
20005c7c:	29c0006f          	j	20005f18 <f_open+0x488>
20005c80:	001b8b93          	addi	s7,s7,1
20005c84:	ed5ff06f          	j	20005b58 <f_open+0xc8>
20005c88:	00240413          	addi	s0,s0,2
20005c8c:	01000613          	li	a2,16
20005c90:	00177593          	andi	a1,a4,1
20005c94:	00179793          	slli	a5,a5,0x1
20005c98:	00f587b3          	add	a5,a1,a5
20005c9c:	000106b7          	lui	a3,0x10
20005ca0:	00d7f5b3          	and	a1,a5,a3
20005ca4:	00175713          	srli	a4,a4,0x1
20005ca8:	00058463          	beqz	a1,20005cb0 <f_open+0x220>
20005cac:	0197c7b3          	xor	a5,a5,s9
20005cb0:	fff60613          	addi	a2,a2,-1
20005cb4:	fc061ee3          	bnez	a2,20005c90 <f_open+0x200>
20005cb8:	00045703          	lhu	a4,0(s0)
20005cbc:	fc0716e3          	bnez	a4,20005c88 <f_open+0x1f8>
20005cc0:	f01ff06f          	j	20005bc0 <f_open+0x130>
20005cc4:	000d8793          	mv	a5,s11
20005cc8:	ff1ff06f          	j	20005cb8 <f_open+0x228>
20005ccc:	00070613          	mv	a2,a4
20005cd0:	f01ff06f          	j	20005bd0 <f_open+0x140>
20005cd4:	00080793          	mv	a5,a6
20005cd8:	f41ff06f          	j	20005c18 <f_open+0x188>
20005cdc:	00100593          	li	a1,1
20005ce0:	000a0513          	mv	a0,s4
20005ce4:	aa8ff0ef          	jal	ra,20004f8c <_ZL8dir_nextP3DIRi>
20005ce8:	00050413          	mv	s0,a0
20005cec:	4a051863          	bnez	a0,2000619c <f_open+0x70c>
20005cf0:	000b8413          	mv	s0,s7
20005cf4:	04812583          	lw	a1,72(sp)
20005cf8:	000d0513          	mv	a0,s10
20005cfc:	fdcfe0ef          	jal	ra,200044d8 <_ZL11move_windowP5FATFSm>
20005d00:	00050b93          	mv	s7,a0
20005d04:	4a051263          	bnez	a0,200061a8 <f_open+0x718>
20005d08:	04c12783          	lw	a5,76(sp)
20005d0c:	0007c783          	lbu	a5,0(a5)
20005d10:	01b78463          	beq	a5,s11,20005d18 <f_open+0x288>
20005d14:	fc0794e3          	bnez	a5,20005cdc <f_open+0x24c>
20005d18:	00140b93          	addi	s7,s0,1
20005d1c:	fd7c90e3          	bne	s9,s7,20005cdc <f_open+0x24c>
20005d20:	00040b93          	mv	s7,s0
20005d24:	10040463          	beqz	s0,20005e2c <f_open+0x39c>
20005d28:	04012783          	lw	a5,64(sp)
20005d2c:	00541593          	slli	a1,s0,0x5
20005d30:	000a0513          	mv	a0,s4
20005d34:	40b785b3          	sub	a1,a5,a1
20005d38:	c04ff0ef          	jal	ra,2000513c <_ZL7dir_sdiP3DIRm>
20005d3c:	00050413          	mv	s0,a0
20005d40:	1c051c63          	bnez	a0,20005f18 <f_open+0x488>
20005d44:	000c0513          	mv	a0,s8
20005d48:	d7cfe0ef          	jal	ra,200042c4 <_ZL7sum_sfnPKh>
20005d4c:	00010837          	lui	a6,0x10
20005d50:	00a12423          	sw	a0,8(sp)
20005d54:	00d00c93          	li	s9,13
20005d58:	fff80d13          	addi	s10,a6,-1 # ffff <_start-0x1fff0001>
20005d5c:	00002d97          	auipc	s11,0x2
20005d60:	6c8d8d93          	addi	s11,s11,1736 # 20008424 <_ZL6LfnOfs>
20005d64:	04812583          	lw	a1,72(sp)
20005d68:	000b0513          	mv	a0,s6
20005d6c:	f6cfe0ef          	jal	ra,200044d8 <_ZL11move_windowP5FATFSm>
20005d70:	00050413          	mv	s0,a0
20005d74:	1a051263          	bnez	a0,20005f18 <f_open+0x488>
20005d78:	04c12683          	lw	a3,76(sp)
20005d7c:	00812783          	lw	a5,8(sp)
20005d80:	00cb2583          	lw	a1,12(s6)
20005d84:	0ffbf893          	zext.b	a7,s7
20005d88:	00f686a3          	sb	a5,13(a3) # 1000d <_start-0x1ffefff3>
20005d8c:	00f00793          	li	a5,15
20005d90:	00f685a3          	sb	a5,11(a3)
20005d94:	0ffbf793          	zext.b	a5,s7
20005d98:	fff78793          	addi	a5,a5,-1
20005d9c:	039787b3          	mul	a5,a5,s9
20005da0:	00068623          	sb	zero,12(a3)
20005da4:	00068d23          	sb	zero,26(a3)
20005da8:	00068da3          	sb	zero,27(a3)
20005dac:	00000613          	li	a2,0
20005db0:	01a60a63          	beq	a2,s10,20005dc4 <f_open+0x334>
20005db4:	00179613          	slli	a2,a5,0x1
20005db8:	00c58633          	add	a2,a1,a2
20005dbc:	00065603          	lhu	a2,0(a2)
20005dc0:	00178793          	addi	a5,a5,1
20005dc4:	008d8533          	add	a0,s11,s0
20005dc8:	00054503          	lbu	a0,0(a0)
20005dcc:	00865313          	srli	t1,a2,0x8
20005dd0:	00a68533          	add	a0,a3,a0
20005dd4:	00c50023          	sb	a2,0(a0)
20005dd8:	006500a3          	sb	t1,1(a0)
20005ddc:	00061463          	bnez	a2,20005de4 <f_open+0x354>
20005de0:	000d0613          	mv	a2,s10
20005de4:	00140413          	addi	s0,s0,1
20005de8:	fd9414e3          	bne	s0,s9,20005db0 <f_open+0x320>
20005dec:	01a60a63          	beq	a2,s10,20005e00 <f_open+0x370>
20005df0:	00179793          	slli	a5,a5,0x1
20005df4:	00f585b3          	add	a1,a1,a5
20005df8:	0005d783          	lhu	a5,0(a1)
20005dfc:	00079463          	bnez	a5,20005e04 <f_open+0x374>
20005e00:	0408e893          	ori	a7,a7,64
20005e04:	01168023          	sb	a7,0(a3)
20005e08:	00100793          	li	a5,1
20005e0c:	00fb01a3          	sb	a5,3(s6)
20005e10:	00000593          	li	a1,0
20005e14:	000a0513          	mv	a0,s4
20005e18:	974ff0ef          	jal	ra,20004f8c <_ZL8dir_nextP3DIRi>
20005e1c:	00050413          	mv	s0,a0
20005e20:	0e051c63          	bnez	a0,20005f18 <f_open+0x488>
20005e24:	fffb8b93          	addi	s7,s7,-1
20005e28:	f20b9ee3          	bnez	s7,20005d64 <f_open+0x2d4>
20005e2c:	04812583          	lw	a1,72(sp)
20005e30:	000b0513          	mv	a0,s6
20005e34:	ea4fe0ef          	jal	ra,200044d8 <_ZL11move_windowP5FATFSm>
20005e38:	00050413          	mv	s0,a0
20005e3c:	0c051e63          	bnez	a0,20005f18 <f_open+0x488>
20005e40:	04c12503          	lw	a0,76(sp)
20005e44:	02000613          	li	a2,32
20005e48:	00000593          	li	a1,0
20005e4c:	ccdfa0ef          	jal	ra,20000b18 <memset>
20005e50:	04c12503          	lw	a0,76(sp)
20005e54:	00b00613          	li	a2,11
20005e58:	000c0593          	mv	a1,s8
20005e5c:	b95fa0ef          	jal	ra,200009f0 <memcpy>
20005e60:	05b14783          	lbu	a5,91(sp)
20005e64:	04c12703          	lw	a4,76(sp)
20005e68:	0089e993          	ori	s3,s3,8
20005e6c:	0187f793          	andi	a5,a5,24
20005e70:	00f70623          	sb	a5,12(a4)
20005e74:	00100793          	li	a5,1
20005e78:	00fb01a3          	sb	a5,3(s6)
20005e7c:	04c12783          	lw	a5,76(sp)
20005e80:	02100693          	li	a3,33
20005e84:	05200713          	li	a4,82
20005e88:	00d78823          	sb	a3,16(a5)
20005e8c:	00e788a3          	sb	a4,17(a5)
20005e90:	00078723          	sb	zero,14(a5)
20005e94:	000787a3          	sb	zero,15(a5)
20005e98:	04c12783          	lw	a5,76(sp)
20005e9c:	00d78c23          	sb	a3,24(a5)
20005ea0:	00e78ca3          	sb	a4,25(a5)
20005ea4:	00078b23          	sb	zero,22(a5)
20005ea8:	00078ba3          	sb	zero,23(a5)
20005eac:	04c12403          	lw	s0,76(sp)
20005eb0:	00094503          	lbu	a0,0(s2)
20005eb4:	00040593          	mv	a1,s0
20005eb8:	db1fe0ef          	jal	ra,20004c68 <_ZL8ld_clustP5FATFSPKh.isra.0>
20005ebc:	02000793          	li	a5,32
20005ec0:	00f405a3          	sb	a5,11(s0)
20005ec4:	04c12783          	lw	a5,76(sp)
20005ec8:	00300713          	li	a4,3
20005ecc:	00050a13          	mv	s4,a0
20005ed0:	00078d23          	sb	zero,26(a5)
20005ed4:	00078da3          	sb	zero,27(a5)
20005ed8:	00094683          	lbu	a3,0(s2)
20005edc:	00e69663          	bne	a3,a4,20005ee8 <f_open+0x458>
20005ee0:	00078a23          	sb	zero,20(a5)
20005ee4:	00078aa3          	sb	zero,21(a5)
20005ee8:	04c12783          	lw	a5,76(sp)
20005eec:	00078e23          	sb	zero,28(a5)
20005ef0:	00078ea3          	sb	zero,29(a5)
20005ef4:	00078f23          	sb	zero,30(a5)
20005ef8:	00078fa3          	sb	zero,31(a5)
20005efc:	00100793          	li	a5,1
20005f00:	00f901a3          	sb	a5,3(s2)
20005f04:	020a0e63          	beqz	s4,20005f40 <f_open+0x4b0>
20005f08:	03492c03          	lw	s8,52(s2)
20005f0c:	03012b83          	lw	s7,48(sp)
20005f10:	14fa1463          	bne	s4,a5,20006058 <f_open+0x5c8>
20005f14:	00200413          	li	s0,2
20005f18:	0004a023          	sw	zero,0(s1)
20005f1c:	00040a93          	mv	s5,s0
20005f20:	0f80006f          	j	20006018 <f_open+0x588>
20005f24:	03614783          	lbu	a5,54(sp)
20005f28:	0117f793          	andi	a5,a5,17
20005f2c:	d40796e3          	bnez	a5,20005c78 <f_open+0x1e8>
20005f30:	004b7793          	andi	a5,s6,4
20005f34:	20079663          	bnez	a5,20006140 <f_open+0x6b0>
20005f38:	008b7b13          	andi	s6,s6,8
20005f3c:	f40b10e3          	bnez	s6,20005e7c <f_open+0x3ec>
20005f40:	0089f793          	andi	a5,s3,8
20005f44:	00078463          	beqz	a5,20005f4c <f_open+0x4bc>
20005f48:	0409e993          	ori	s3,s3,64
20005f4c:	03492783          	lw	a5,52(s2)
20005f50:	04c12403          	lw	s0,76(sp)
20005f54:	02c48a13          	addi	s4,s1,44
20005f58:	02f4a023          	sw	a5,32(s1)
20005f5c:	0284a223          	sw	s0,36(s1)
20005f60:	00094503          	lbu	a0,0(s2)
20005f64:	00040593          	mv	a1,s0
20005f68:	d01fe0ef          	jal	ra,20004c68 <_ZL8ld_clustP5FATFSPKh.isra.0>
20005f6c:	00a4a423          	sw	a0,8(s1)
20005f70:	01c40513          	addi	a0,s0,28
20005f74:	abcfe0ef          	jal	ra,20004230 <_ZL8ld_dwordPKh>
20005f78:	00695783          	lhu	a5,6(s2)
20005f7c:	00a4a623          	sw	a0,12(s1)
20005f80:	01348823          	sb	s3,16(s1)
20005f84:	0204a423          	sw	zero,40(s1)
20005f88:	0124a023          	sw	s2,0(s1)
20005f8c:	00f49223          	sh	a5,4(s1)
20005f90:	000488a3          	sb	zero,17(s1)
20005f94:	0004ae23          	sw	zero,28(s1)
20005f98:	0004aa23          	sw	zero,20(s1)
20005f9c:	20000613          	li	a2,512
20005fa0:	00000593          	li	a1,0
20005fa4:	000a0513          	mv	a0,s4
20005fa8:	0209f993          	andi	s3,s3,32
20005fac:	b6dfa0ef          	jal	ra,20000b18 <memset>
20005fb0:	06098463          	beqz	s3,20006018 <f_open+0x588>
20005fb4:	00c4a983          	lw	s3,12(s1)
20005fb8:	06098063          	beqz	s3,20006018 <f_open+0x588>
20005fbc:	00a95403          	lhu	s0,10(s2)
20005fc0:	0084a583          	lw	a1,8(s1)
20005fc4:	0134aa23          	sw	s3,20(s1)
20005fc8:	00941413          	slli	s0,s0,0x9
20005fcc:	00100b13          	li	s6,1
20005fd0:	fff00b93          	li	s7,-1
20005fd4:	15346263          	bltu	s0,s3,20006118 <f_open+0x688>
20005fd8:	00000413          	li	s0,0
20005fdc:	00b4ac23          	sw	a1,24(s1)
20005fe0:	f2041ce3          	bnez	s0,20005f18 <f_open+0x488>
20005fe4:	1ff9f793          	andi	a5,s3,511
20005fe8:	02078863          	beqz	a5,20006018 <f_open+0x588>
20005fec:	00090513          	mv	a0,s2
20005ff0:	a6cfe0ef          	jal	ra,2000425c <_ZL9clst2sectP5FATFSm>
20005ff4:	f20500e3          	beqz	a0,20005f14 <f_open+0x484>
20005ff8:	0099d613          	srli	a2,s3,0x9
20005ffc:	00a60633          	add	a2,a2,a0
20006000:	00c4ae23          	sw	a2,28(s1)
20006004:	00194503          	lbu	a0,1(s2)
20006008:	00100693          	li	a3,1
2000600c:	000a0593          	mv	a1,s4
20006010:	4d0010ef          	jal	ra,200074e0 <disk_read>
20006014:	06051e63          	bnez	a0,20006090 <f_open+0x600>
20006018:	09c12083          	lw	ra,156(sp)
2000601c:	09812403          	lw	s0,152(sp)
20006020:	09412483          	lw	s1,148(sp)
20006024:	09012903          	lw	s2,144(sp)
20006028:	08c12983          	lw	s3,140(sp)
2000602c:	08812a03          	lw	s4,136(sp)
20006030:	08012b03          	lw	s6,128(sp)
20006034:	07c12b83          	lw	s7,124(sp)
20006038:	07812c03          	lw	s8,120(sp)
2000603c:	07412c83          	lw	s9,116(sp)
20006040:	07012d03          	lw	s10,112(sp)
20006044:	06c12d83          	lw	s11,108(sp)
20006048:	000a8513          	mv	a0,s5
2000604c:	08412a83          	lw	s5,132(sp)
20006050:	0a010113          	addi	sp,sp,160
20006054:	00008067          	ret
20006058:	01cba783          	lw	a5,28(s7)
2000605c:	eafa7ce3          	bgeu	s4,a5,20005f14 <f_open+0x484>
20006060:	000a0b13          	mv	s6,s4
20006064:	00100c93          	li	s9,1
20006068:	fff00d13          	li	s10,-1
2000606c:	000b0593          	mv	a1,s6
20006070:	000b8513          	mv	a0,s7
20006074:	01612423          	sw	s6,8(sp)
20006078:	c29fe0ef          	jal	ra,20004ca0 <_ZL7get_fatP7FFOBJIDm.isra.0>
2000607c:	00050b13          	mv	s6,a0
20006080:	04050a63          	beqz	a0,200060d4 <f_open+0x644>
20006084:	e99508e3          	beq	a0,s9,20005f14 <f_open+0x484>
20006088:	00812583          	lw	a1,8(sp)
2000608c:	01a51663          	bne	a0,s10,20006098 <f_open+0x608>
20006090:	00100413          	li	s0,1
20006094:	e85ff06f          	j	20005f18 <f_open+0x488>
20006098:	00000613          	li	a2,0
2000609c:	000b8513          	mv	a0,s7
200060a0:	dfcfe0ef          	jal	ra,2000469c <_ZL7put_fatP5FATFSmm>
200060a4:	00050413          	mv	s0,a0
200060a8:	e60518e3          	bnez	a0,20005f18 <f_open+0x488>
200060ac:	01cba703          	lw	a4,28(s7)
200060b0:	014ba783          	lw	a5,20(s7)
200060b4:	ffe70693          	addi	a3,a4,-2
200060b8:	00d7fc63          	bgeu	a5,a3,200060d0 <f_open+0x640>
200060bc:	00178793          	addi	a5,a5,1
200060c0:	00fbaa23          	sw	a5,20(s7)
200060c4:	004bc783          	lbu	a5,4(s7)
200060c8:	0017e793          	ori	a5,a5,1
200060cc:	00fb8223          	sb	a5,4(s7)
200060d0:	f8eb6ee3          	bltu	s6,a4,2000606c <f_open+0x5dc>
200060d4:	000c0593          	mv	a1,s8
200060d8:	00090513          	mv	a0,s2
200060dc:	fffa0a13          	addi	s4,s4,-1
200060e0:	bf8fe0ef          	jal	ra,200044d8 <_ZL11move_windowP5FATFSm>
200060e4:	01492823          	sw	s4,16(s2)
200060e8:	00050413          	mv	s0,a0
200060ec:	e4050ae3          	beqz	a0,20005f40 <f_open+0x4b0>
200060f0:	e29ff06f          	j	20005f18 <f_open+0x488>
200060f4:	e20412e3          	bnez	s0,20005f18 <f_open+0x488>
200060f8:	03614783          	lbu	a5,54(sp)
200060fc:	0107f713          	andi	a4,a5,16
20006100:	04071463          	bnez	a4,20006148 <f_open+0x6b8>
20006104:	002b7b13          	andi	s6,s6,2
20006108:	e20b0ce3          	beqz	s6,20005f40 <f_open+0x4b0>
2000610c:	0017f793          	andi	a5,a5,1
20006110:	b60794e3          	bnez	a5,20005c78 <f_open+0x1e8>
20006114:	e2dff06f          	j	20005f40 <f_open+0x4b0>
20006118:	0004a503          	lw	a0,0(s1)
2000611c:	408989b3          	sub	s3,s3,s0
20006120:	b81fe0ef          	jal	ra,20004ca0 <_ZL7get_fatP7FFOBJIDm.isra.0>
20006124:	00050593          	mv	a1,a0
20006128:	00ab7863          	bgeu	s6,a0,20006138 <f_open+0x6a8>
2000612c:	eb7514e3          	bne	a0,s7,20005fd4 <f_open+0x544>
20006130:	00100413          	li	s0,1
20006134:	ea9ff06f          	j	20005fdc <f_open+0x54c>
20006138:	00200413          	li	s0,2
2000613c:	ea1ff06f          	j	20005fdc <f_open+0x54c>
20006140:	00800413          	li	s0,8
20006144:	dd5ff06f          	j	20005f18 <f_open+0x488>
20006148:	00400413          	li	s0,4
2000614c:	dcdff06f          	j	20005f18 <f_open+0x488>
20006150:	00400793          	li	a5,4
20006154:	dcf512e3          	bne	a0,a5,20005f18 <f_open+0x488>
20006158:	02f14783          	lbu	a5,47(sp)
2000615c:	04f10da3          	sb	a5,91(sp)
20006160:	02f14783          	lbu	a5,47(sp)
20006164:	00100c93          	li	s9,1
20006168:	0027f793          	andi	a5,a5,2
2000616c:	00078a63          	beqz	a5,20006180 <f_open+0x6f0>
20006170:	00cb8c93          	addi	s9,s7,12
20006174:	00d00793          	li	a5,13
20006178:	02fcdcb3          	divu	s9,s9,a5
2000617c:	001c8c93          	addi	s9,s9,1
20006180:	00000593          	li	a1,0
20006184:	000a0513          	mv	a0,s4
20006188:	03012d03          	lw	s10,48(sp)
2000618c:	fb1fe0ef          	jal	ra,2000513c <_ZL7dir_sdiP3DIRm>
20006190:	00050413          	mv	s0,a0
20006194:	0e500d93          	li	s11,229
20006198:	b4050ee3          	beqz	a0,20005cf4 <f_open+0x264>
2000619c:	00400793          	li	a5,4
200061a0:	acf40ce3          	beq	s0,a5,20005c78 <f_open+0x1e8>
200061a4:	d75ff06f          	j	20005f18 <f_open+0x488>
200061a8:	00050413          	mv	s0,a0
200061ac:	ff1ff06f          	j	2000619c <f_open+0x70c>

200061b0 <f_read>:
200061b0:	fb010113          	addi	sp,sp,-80
200061b4:	04812423          	sw	s0,72(sp)
200061b8:	04912223          	sw	s1,68(sp)
200061bc:	05212023          	sw	s2,64(sp)
200061c0:	03512a23          	sw	s5,52(sp)
200061c4:	03612823          	sw	s6,48(sp)
200061c8:	04112623          	sw	ra,76(sp)
200061cc:	03312e23          	sw	s3,60(sp)
200061d0:	03412c23          	sw	s4,56(sp)
200061d4:	03712623          	sw	s7,44(sp)
200061d8:	03812423          	sw	s8,40(sp)
200061dc:	03912223          	sw	s9,36(sp)
200061e0:	03a12023          	sw	s10,32(sp)
200061e4:	01b12e23          	sw	s11,28(sp)
200061e8:	00058a93          	mv	s5,a1
200061ec:	0006a023          	sw	zero,0(a3)
200061f0:	00c10593          	addi	a1,sp,12
200061f4:	00050413          	mv	s0,a0
200061f8:	00060913          	mv	s2,a2
200061fc:	00068b13          	mv	s6,a3
20006200:	9ccfe0ef          	jal	ra,200043cc <_ZL8validateP7FFOBJIDPP5FATFS>
20006204:	00050493          	mv	s1,a0
20006208:	08051263          	bnez	a0,2000628c <f_read+0xdc>
2000620c:	01144483          	lbu	s1,17(s0)
20006210:	06049e63          	bnez	s1,2000628c <f_read+0xdc>
20006214:	01044783          	lbu	a5,16(s0)
20006218:	00700493          	li	s1,7
2000621c:	0017f793          	andi	a5,a5,1
20006220:	06078663          	beqz	a5,2000628c <f_read+0xdc>
20006224:	00c42483          	lw	s1,12(s0)
20006228:	01442783          	lw	a5,20(s0)
2000622c:	40f484b3          	sub	s1,s1,a5
20006230:	00997463          	bgeu	s2,s1,20006238 <f_read+0x88>
20006234:	00090493          	mv	s1,s2
20006238:	20000c13          	li	s8,512
2000623c:	02c40b93          	addi	s7,s0,44
20006240:	1ff00c93          	li	s9,511
20006244:	fff00d13          	li	s10,-1
20006248:	04048263          	beqz	s1,2000628c <f_read+0xdc>
2000624c:	01442583          	lw	a1,20(s0)
20006250:	1ff5f793          	andi	a5,a1,511
20006254:	18079a63          	bnez	a5,200063e8 <f_read+0x238>
20006258:	00c12d83          	lw	s11,12(sp)
2000625c:	0095d793          	srli	a5,a1,0x9
20006260:	00adda03          	lhu	s4,10(s11)
20006264:	fffa0a13          	addi	s4,s4,-1
20006268:	00fa7a33          	and	s4,s4,a5
2000626c:	080a1e63          	bnez	s4,20006308 <f_read+0x158>
20006270:	04059e63          	bnez	a1,200062cc <f_read+0x11c>
20006274:	00842503          	lw	a0,8(s0)
20006278:	00100793          	li	a5,1
2000627c:	06a7ea63          	bltu	a5,a0,200062f0 <f_read+0x140>
20006280:	00200793          	li	a5,2
20006284:	00f408a3          	sb	a5,17(s0)
20006288:	00200493          	li	s1,2
2000628c:	04c12083          	lw	ra,76(sp)
20006290:	04812403          	lw	s0,72(sp)
20006294:	04012903          	lw	s2,64(sp)
20006298:	03c12983          	lw	s3,60(sp)
2000629c:	03812a03          	lw	s4,56(sp)
200062a0:	03412a83          	lw	s5,52(sp)
200062a4:	03012b03          	lw	s6,48(sp)
200062a8:	02c12b83          	lw	s7,44(sp)
200062ac:	02812c03          	lw	s8,40(sp)
200062b0:	02412c83          	lw	s9,36(sp)
200062b4:	02012d03          	lw	s10,32(sp)
200062b8:	01c12d83          	lw	s11,28(sp)
200062bc:	00048513          	mv	a0,s1
200062c0:	04412483          	lw	s1,68(sp)
200062c4:	05010113          	addi	sp,sp,80
200062c8:	00008067          	ret
200062cc:	02842783          	lw	a5,40(s0)
200062d0:	00078863          	beqz	a5,200062e0 <f_read+0x130>
200062d4:	00040513          	mv	a0,s0
200062d8:	fb1fd0ef          	jal	ra,20004288 <_ZL10clmt_clustP3FILm>
200062dc:	f9dff06f          	j	20006278 <f_read+0xc8>
200062e0:	01842583          	lw	a1,24(s0)
200062e4:	00042503          	lw	a0,0(s0)
200062e8:	9b9fe0ef          	jal	ra,20004ca0 <_ZL7get_fatP7FFOBJIDm.isra.0>
200062ec:	f8dff06f          	j	20006278 <f_read+0xc8>
200062f0:	01a51a63          	bne	a0,s10,20006304 <f_read+0x154>
200062f4:	00100793          	li	a5,1
200062f8:	00f408a3          	sb	a5,17(s0)
200062fc:	00100493          	li	s1,1
20006300:	f8dff06f          	j	2000628c <f_read+0xdc>
20006304:	00a42c23          	sw	a0,24(s0)
20006308:	01842583          	lw	a1,24(s0)
2000630c:	000d8513          	mv	a0,s11
20006310:	f4dfd0ef          	jal	ra,2000425c <_ZL9clst2sectP5FATFSm>
20006314:	f60506e3          	beqz	a0,20006280 <f_read+0xd0>
20006318:	00aa09b3          	add	s3,s4,a0
2000631c:	089cf063          	bgeu	s9,s1,2000639c <f_read+0x1ec>
20006320:	00add783          	lhu	a5,10(s11)
20006324:	0094d913          	srli	s2,s1,0x9
20006328:	012a0733          	add	a4,s4,s2
2000632c:	00e7f463          	bgeu	a5,a4,20006334 <f_read+0x184>
20006330:	41478933          	sub	s2,a5,s4
20006334:	001dc503          	lbu	a0,1(s11)
20006338:	00090693          	mv	a3,s2
2000633c:	00098613          	mv	a2,s3
20006340:	000a8593          	mv	a1,s5
20006344:	19c010ef          	jal	ra,200074e0 <disk_read>
20006348:	fa0516e3          	bnez	a0,200062f4 <f_read+0x144>
2000634c:	01040783          	lb	a5,16(s0)
20006350:	0207d263          	bgez	a5,20006374 <f_read+0x1c4>
20006354:	01c42503          	lw	a0,28(s0)
20006358:	41350533          	sub	a0,a0,s3
2000635c:	01257c63          	bgeu	a0,s2,20006374 <f_read+0x1c4>
20006360:	00951513          	slli	a0,a0,0x9
20006364:	20000613          	li	a2,512
20006368:	000b8593          	mv	a1,s7
2000636c:	00aa8533          	add	a0,s5,a0
20006370:	e80fa0ef          	jal	ra,200009f0 <memcpy>
20006374:	00991913          	slli	s2,s2,0x9
20006378:	000b2783          	lw	a5,0(s6)
2000637c:	412484b3          	sub	s1,s1,s2
20006380:	012a8ab3          	add	s5,s5,s2
20006384:	012787b3          	add	a5,a5,s2
20006388:	00fb2023          	sw	a5,0(s6)
2000638c:	01442783          	lw	a5,20(s0)
20006390:	012787b3          	add	a5,a5,s2
20006394:	00f42a23          	sw	a5,20(s0)
20006398:	eb1ff06f          	j	20006248 <f_read+0x98>
2000639c:	01c42603          	lw	a2,28(s0)
200063a0:	05360263          	beq	a2,s3,200063e4 <f_read+0x234>
200063a4:	01040783          	lb	a5,16(s0)
200063a8:	001dc503          	lbu	a0,1(s11)
200063ac:	0207d063          	bgez	a5,200063cc <f_read+0x21c>
200063b0:	00100693          	li	a3,1
200063b4:	000b8593          	mv	a1,s7
200063b8:	168010ef          	jal	ra,20007520 <disk_write>
200063bc:	f2051ce3          	bnez	a0,200062f4 <f_read+0x144>
200063c0:	01044783          	lbu	a5,16(s0)
200063c4:	07f7f793          	andi	a5,a5,127
200063c8:	00f40823          	sb	a5,16(s0)
200063cc:	001dc503          	lbu	a0,1(s11)
200063d0:	00100693          	li	a3,1
200063d4:	00098613          	mv	a2,s3
200063d8:	000b8593          	mv	a1,s7
200063dc:	104010ef          	jal	ra,200074e0 <disk_read>
200063e0:	f0051ae3          	bnez	a0,200062f4 <f_read+0x144>
200063e4:	01342e23          	sw	s3,28(s0)
200063e8:	01442583          	lw	a1,20(s0)
200063ec:	1ff5f593          	andi	a1,a1,511
200063f0:	40bc0933          	sub	s2,s8,a1
200063f4:	0124f463          	bgeu	s1,s2,200063fc <f_read+0x24c>
200063f8:	00048913          	mv	s2,s1
200063fc:	00090613          	mv	a2,s2
20006400:	00bb85b3          	add	a1,s7,a1
20006404:	000a8513          	mv	a0,s5
20006408:	de8fa0ef          	jal	ra,200009f0 <memcpy>
2000640c:	f6dff06f          	j	20006378 <f_read+0x1c8>

20006410 <f_write>:
20006410:	fa010113          	addi	sp,sp,-96
20006414:	04812c23          	sw	s0,88(sp)
20006418:	05212823          	sw	s2,80(sp)
2000641c:	05312623          	sw	s3,76(sp)
20006420:	05412423          	sw	s4,72(sp)
20006424:	05512223          	sw	s5,68(sp)
20006428:	04112e23          	sw	ra,92(sp)
2000642c:	04912a23          	sw	s1,84(sp)
20006430:	05612023          	sw	s6,64(sp)
20006434:	03712e23          	sw	s7,60(sp)
20006438:	03812c23          	sw	s8,56(sp)
2000643c:	03912a23          	sw	s9,52(sp)
20006440:	03a12823          	sw	s10,48(sp)
20006444:	03b12623          	sw	s11,44(sp)
20006448:	00058a13          	mv	s4,a1
2000644c:	0006a023          	sw	zero,0(a3)
20006450:	01c10593          	addi	a1,sp,28
20006454:	00050413          	mv	s0,a0
20006458:	00060913          	mv	s2,a2
2000645c:	00068a93          	mv	s5,a3
20006460:	f6dfd0ef          	jal	ra,200043cc <_ZL8validateP7FFOBJIDPP5FATFS>
20006464:	00050993          	mv	s3,a0
20006468:	08051c63          	bnez	a0,20006500 <f_write+0xf0>
2000646c:	01144983          	lbu	s3,17(s0)
20006470:	08099863          	bnez	s3,20006500 <f_write+0xf0>
20006474:	01044783          	lbu	a5,16(s0)
20006478:	0027f793          	andi	a5,a5,2
2000647c:	24078663          	beqz	a5,200066c8 <f_write+0x2b8>
20006480:	01442783          	lw	a5,20(s0)
20006484:	01278733          	add	a4,a5,s2
20006488:	00f77463          	bgeu	a4,a5,20006490 <f_write+0x80>
2000648c:	fff7c913          	not	s2,a5
20006490:	20000b93          	li	s7,512
20006494:	02c40b13          	addi	s6,s0,44
20006498:	1ff00c13          	li	s8,511
2000649c:	fff00c93          	li	s9,-1
200064a0:	04090a63          	beqz	s2,200064f4 <f_write+0xe4>
200064a4:	01442583          	lw	a1,20(s0)
200064a8:	1ff5f793          	andi	a5,a1,511
200064ac:	1c079063          	bnez	a5,2000666c <f_write+0x25c>
200064b0:	01c12d83          	lw	s11,28(sp)
200064b4:	0095d793          	srli	a5,a1,0x9
200064b8:	00addd03          	lhu	s10,10(s11)
200064bc:	fffd0d13          	addi	s10,s10,-1
200064c0:	00fd7d33          	and	s10,s10,a5
200064c4:	0c0d1063          	bnez	s10,20006584 <f_write+0x174>
200064c8:	00059c63          	bnez	a1,200064e0 <f_write+0xd0>
200064cc:	00842503          	lw	a0,8(s0)
200064d0:	06051c63          	bnez	a0,20006548 <f_write+0x138>
200064d4:	00042503          	lw	a0,0(s0)
200064d8:	919fe0ef          	jal	ra,20004df0 <_ZL12create_chainP7FFOBJIDm.isra.0>
200064dc:	0140006f          	j	200064f0 <f_write+0xe0>
200064e0:	02842783          	lw	a5,40(s0)
200064e4:	04078e63          	beqz	a5,20006540 <f_write+0x130>
200064e8:	00040513          	mv	a0,s0
200064ec:	d9dfd0ef          	jal	ra,20004288 <_ZL10clmt_clustP3FILm>
200064f0:	04051c63          	bnez	a0,20006548 <f_write+0x138>
200064f4:	01044783          	lbu	a5,16(s0)
200064f8:	0407e793          	ori	a5,a5,64
200064fc:	00f40823          	sb	a5,16(s0)
20006500:	05c12083          	lw	ra,92(sp)
20006504:	05812403          	lw	s0,88(sp)
20006508:	05412483          	lw	s1,84(sp)
2000650c:	05012903          	lw	s2,80(sp)
20006510:	04812a03          	lw	s4,72(sp)
20006514:	04412a83          	lw	s5,68(sp)
20006518:	04012b03          	lw	s6,64(sp)
2000651c:	03c12b83          	lw	s7,60(sp)
20006520:	03812c03          	lw	s8,56(sp)
20006524:	03412c83          	lw	s9,52(sp)
20006528:	03012d03          	lw	s10,48(sp)
2000652c:	02c12d83          	lw	s11,44(sp)
20006530:	00098513          	mv	a0,s3
20006534:	04c12983          	lw	s3,76(sp)
20006538:	06010113          	addi	sp,sp,96
2000653c:	00008067          	ret
20006540:	01842583          	lw	a1,24(s0)
20006544:	f91ff06f          	j	200064d4 <f_write+0xc4>
20006548:	00100793          	li	a5,1
2000654c:	00f51a63          	bne	a0,a5,20006560 <f_write+0x150>
20006550:	00200793          	li	a5,2
20006554:	00f408a3          	sb	a5,17(s0)
20006558:	00200993          	li	s3,2
2000655c:	fa5ff06f          	j	20006500 <f_write+0xf0>
20006560:	01951a63          	bne	a0,s9,20006574 <f_write+0x164>
20006564:	00100793          	li	a5,1
20006568:	00f408a3          	sb	a5,17(s0)
2000656c:	00100993          	li	s3,1
20006570:	f91ff06f          	j	20006500 <f_write+0xf0>
20006574:	00842783          	lw	a5,8(s0)
20006578:	00a42c23          	sw	a0,24(s0)
2000657c:	00079463          	bnez	a5,20006584 <f_write+0x174>
20006580:	00a42423          	sw	a0,8(s0)
20006584:	01040783          	lb	a5,16(s0)
20006588:	0207d463          	bgez	a5,200065b0 <f_write+0x1a0>
2000658c:	01c42603          	lw	a2,28(s0)
20006590:	001dc503          	lbu	a0,1(s11)
20006594:	00100693          	li	a3,1
20006598:	000b0593          	mv	a1,s6
2000659c:	785000ef          	jal	ra,20007520 <disk_write>
200065a0:	fc0512e3          	bnez	a0,20006564 <f_write+0x154>
200065a4:	01044783          	lbu	a5,16(s0)
200065a8:	07f7f793          	andi	a5,a5,127
200065ac:	00f40823          	sb	a5,16(s0)
200065b0:	01842583          	lw	a1,24(s0)
200065b4:	000d8513          	mv	a0,s11
200065b8:	ca5fd0ef          	jal	ra,2000425c <_ZL9clst2sectP5FATFSm>
200065bc:	f8050ae3          	beqz	a0,20006550 <f_write+0x140>
200065c0:	00ad0633          	add	a2,s10,a0
200065c4:	092c7c63          	bgeu	s8,s2,2000665c <f_write+0x24c>
200065c8:	00add783          	lhu	a5,10(s11)
200065cc:	00995493          	srli	s1,s2,0x9
200065d0:	009d0733          	add	a4,s10,s1
200065d4:	00e7f463          	bgeu	a5,a4,200065dc <f_write+0x1cc>
200065d8:	41a784b3          	sub	s1,a5,s10
200065dc:	001dc503          	lbu	a0,1(s11)
200065e0:	00048693          	mv	a3,s1
200065e4:	000a0593          	mv	a1,s4
200065e8:	00c12623          	sw	a2,12(sp)
200065ec:	735000ef          	jal	ra,20007520 <disk_write>
200065f0:	f6051ae3          	bnez	a0,20006564 <f_write+0x154>
200065f4:	01c42583          	lw	a1,28(s0)
200065f8:	00c12603          	lw	a2,12(sp)
200065fc:	40c585b3          	sub	a1,a1,a2
20006600:	0295f263          	bgeu	a1,s1,20006624 <f_write+0x214>
20006604:	00959593          	slli	a1,a1,0x9
20006608:	20000613          	li	a2,512
2000660c:	00ba05b3          	add	a1,s4,a1
20006610:	000b0513          	mv	a0,s6
20006614:	bdcfa0ef          	jal	ra,200009f0 <memcpy>
20006618:	01044783          	lbu	a5,16(s0)
2000661c:	07f7f793          	andi	a5,a5,127
20006620:	00f40823          	sb	a5,16(s0)
20006624:	00949493          	slli	s1,s1,0x9
20006628:	000aa783          	lw	a5,0(s5)
2000662c:	40990933          	sub	s2,s2,s1
20006630:	009a0a33          	add	s4,s4,s1
20006634:	009787b3          	add	a5,a5,s1
20006638:	00faa023          	sw	a5,0(s5)
2000663c:	01442783          	lw	a5,20(s0)
20006640:	00f484b3          	add	s1,s1,a5
20006644:	00c42783          	lw	a5,12(s0)
20006648:	00942a23          	sw	s1,20(s0)
2000664c:	0097f463          	bgeu	a5,s1,20006654 <f_write+0x244>
20006650:	00048793          	mv	a5,s1
20006654:	00f42623          	sw	a5,12(s0)
20006658:	e49ff06f          	j	200064a0 <f_write+0x90>
2000665c:	01c42703          	lw	a4,28(s0)
20006660:	01442783          	lw	a5,20(s0)
20006664:	02c71e63          	bne	a4,a2,200066a0 <f_write+0x290>
20006668:	00c42e23          	sw	a2,28(s0)
2000666c:	01442503          	lw	a0,20(s0)
20006670:	1ff57513          	andi	a0,a0,511
20006674:	40ab84b3          	sub	s1,s7,a0
20006678:	00997463          	bgeu	s2,s1,20006680 <f_write+0x270>
2000667c:	00090493          	mv	s1,s2
20006680:	00048613          	mv	a2,s1
20006684:	000a0593          	mv	a1,s4
20006688:	00ab0533          	add	a0,s6,a0
2000668c:	b64fa0ef          	jal	ra,200009f0 <memcpy>
20006690:	01044783          	lbu	a5,16(s0)
20006694:	f807e793          	ori	a5,a5,-128
20006698:	00f40823          	sb	a5,16(s0)
2000669c:	f8dff06f          	j	20006628 <f_write+0x218>
200066a0:	00c42703          	lw	a4,12(s0)
200066a4:	fce7f2e3          	bgeu	a5,a4,20006668 <f_write+0x258>
200066a8:	001dc503          	lbu	a0,1(s11)
200066ac:	00100693          	li	a3,1
200066b0:	000b0593          	mv	a1,s6
200066b4:	00c12623          	sw	a2,12(sp)
200066b8:	629000ef          	jal	ra,200074e0 <disk_read>
200066bc:	00c12603          	lw	a2,12(sp)
200066c0:	fa0504e3          	beqz	a0,20006668 <f_write+0x258>
200066c4:	ea1ff06f          	j	20006564 <f_write+0x154>
200066c8:	00700993          	li	s3,7
200066cc:	e35ff06f          	j	20006500 <f_write+0xf0>

200066d0 <f_sync>:
200066d0:	fd010113          	addi	sp,sp,-48
200066d4:	00c10593          	addi	a1,sp,12
200066d8:	02912223          	sw	s1,36(sp)
200066dc:	02112623          	sw	ra,44(sp)
200066e0:	02812423          	sw	s0,40(sp)
200066e4:	03212023          	sw	s2,32(sp)
200066e8:	01312e23          	sw	s3,28(sp)
200066ec:	00050493          	mv	s1,a0
200066f0:	cddfd0ef          	jal	ra,200043cc <_ZL8validateP7FFOBJIDPP5FATFS>
200066f4:	1c051e63          	bnez	a0,200068d0 <f_sync+0x200>
200066f8:	0104c783          	lbu	a5,16(s1)
200066fc:	0407f713          	andi	a4,a5,64
20006700:	1c070863          	beqz	a4,200068d0 <f_sync+0x200>
20006704:	01879793          	slli	a5,a5,0x18
20006708:	4187d793          	srai	a5,a5,0x18
2000670c:	00c12403          	lw	s0,12(sp)
20006710:	0207d863          	bgez	a5,20006740 <f_sync+0x70>
20006714:	01c4a603          	lw	a2,28(s1)
20006718:	00144503          	lbu	a0,1(s0)
2000671c:	00100693          	li	a3,1
20006720:	02c48593          	addi	a1,s1,44
20006724:	5fd000ef          	jal	ra,20007520 <disk_write>
20006728:	00050793          	mv	a5,a0
2000672c:	00100513          	li	a0,1
20006730:	1a079063          	bnez	a5,200068d0 <f_sync+0x200>
20006734:	0104c783          	lbu	a5,16(s1)
20006738:	07f7f793          	andi	a5,a5,127
2000673c:	00f48823          	sb	a5,16(s1)
20006740:	0204a583          	lw	a1,32(s1)
20006744:	00040513          	mv	a0,s0
20006748:	d91fd0ef          	jal	ra,200044d8 <_ZL11move_windowP5FATFSm>
2000674c:	18051263          	bnez	a0,200068d0 <f_sync+0x200>
20006750:	0244a783          	lw	a5,36(s1)
20006754:	00b7c703          	lbu	a4,11(a5)
20006758:	02076713          	ori	a4,a4,32
2000675c:	00e785a3          	sb	a4,11(a5)
20006760:	0084a703          	lw	a4,8(s1)
20006764:	0004a603          	lw	a2,0(s1)
20006768:	01071693          	slli	a3,a4,0x10
2000676c:	0106d693          	srli	a3,a3,0x10
20006770:	0086d693          	srli	a3,a3,0x8
20006774:	00d78da3          	sb	a3,27(a5)
20006778:	00e78d23          	sb	a4,26(a5)
2000677c:	00064603          	lbu	a2,0(a2)
20006780:	00300693          	li	a3,3
20006784:	00d61a63          	bne	a2,a3,20006798 <f_sync+0xc8>
20006788:	01075713          	srli	a4,a4,0x10
2000678c:	00e78a23          	sb	a4,20(a5)
20006790:	00875713          	srli	a4,a4,0x8
20006794:	00e78aa3          	sb	a4,21(a5)
20006798:	00c4a703          	lw	a4,12(s1)
2000679c:	05200993          	li	s3,82
200067a0:	00078b23          	sb	zero,22(a5)
200067a4:	00875693          	srli	a3,a4,0x8
200067a8:	00e78e23          	sb	a4,28(a5)
200067ac:	00d78ea3          	sb	a3,29(a5)
200067b0:	01075693          	srli	a3,a4,0x10
200067b4:	01875713          	srli	a4,a4,0x18
200067b8:	00e78fa3          	sb	a4,31(a5)
200067bc:	02100713          	li	a4,33
200067c0:	00d78f23          	sb	a3,30(a5)
200067c4:	00078ba3          	sb	zero,23(a5)
200067c8:	00e78c23          	sb	a4,24(a5)
200067cc:	01378ca3          	sb	s3,25(a5)
200067d0:	00078923          	sb	zero,18(a5)
200067d4:	000789a3          	sb	zero,19(a5)
200067d8:	00100913          	li	s2,1
200067dc:	012401a3          	sb	s2,3(s0)
200067e0:	00040513          	mv	a0,s0
200067e4:	c59fd0ef          	jal	ra,2000443c <_ZL11sync_windowP5FATFS>
200067e8:	0c051e63          	bnez	a0,200068c4 <f_sync+0x1f4>
200067ec:	00044703          	lbu	a4,0(s0)
200067f0:	00300793          	li	a5,3
200067f4:	0af71e63          	bne	a4,a5,200068b0 <f_sync+0x1e0>
200067f8:	00444783          	lbu	a5,4(s0)
200067fc:	0b279a63          	bne	a5,s2,200068b0 <f_sync+0x1e0>
20006800:	03840913          	addi	s2,s0,56
20006804:	20000613          	li	a2,512
20006808:	00000593          	li	a1,0
2000680c:	00090513          	mv	a0,s2
20006810:	b08fa0ef          	jal	ra,20000b18 <memset>
20006814:	05500793          	li	a5,85
20006818:	22f40b23          	sb	a5,566(s0)
2000681c:	faa00793          	li	a5,-86
20006820:	22f40ba3          	sb	a5,567(s0)
20006824:	06100793          	li	a5,97
20006828:	02f40d23          	sb	a5,58(s0)
2000682c:	20f40fa3          	sb	a5,543(s0)
20006830:	01442783          	lw	a5,20(s0)
20006834:	04100713          	li	a4,65
20006838:	02e40da3          	sb	a4,59(s0)
2000683c:	20e40f23          	sb	a4,542(s0)
20006840:	0087d713          	srli	a4,a5,0x8
20006844:	22f40023          	sb	a5,544(s0)
20006848:	22e400a3          	sb	a4,545(s0)
2000684c:	0107d713          	srli	a4,a5,0x10
20006850:	0187d793          	srli	a5,a5,0x18
20006854:	22f401a3          	sb	a5,547(s0)
20006858:	01042783          	lw	a5,16(s0)
2000685c:	02442603          	lw	a2,36(s0)
20006860:	22e40123          	sb	a4,546(s0)
20006864:	00144503          	lbu	a0,1(s0)
20006868:	0087d713          	srli	a4,a5,0x8
2000686c:	07200693          	li	a3,114
20006870:	22f40223          	sb	a5,548(s0)
20006874:	22e402a3          	sb	a4,549(s0)
20006878:	00160613          	addi	a2,a2,1
2000687c:	0107d713          	srli	a4,a5,0x10
20006880:	0187d793          	srli	a5,a5,0x18
20006884:	20d40e23          	sb	a3,540(s0)
20006888:	20d40ea3          	sb	a3,541(s0)
2000688c:	03340c23          	sb	s3,56(s0)
20006890:	03340ca3          	sb	s3,57(s0)
20006894:	22e40323          	sb	a4,550(s0)
20006898:	22f403a3          	sb	a5,551(s0)
2000689c:	02c42a23          	sw	a2,52(s0)
200068a0:	00100693          	li	a3,1
200068a4:	00090593          	mv	a1,s2
200068a8:	479000ef          	jal	ra,20007520 <disk_write>
200068ac:	00040223          	sb	zero,4(s0)
200068b0:	00144503          	lbu	a0,1(s0)
200068b4:	00000613          	li	a2,0
200068b8:	00000593          	li	a1,0
200068bc:	4a5000ef          	jal	ra,20007560 <disk_ioctl>
200068c0:	00a03533          	snez	a0,a0
200068c4:	0104c783          	lbu	a5,16(s1)
200068c8:	fbf7f793          	andi	a5,a5,-65
200068cc:	00f48823          	sb	a5,16(s1)
200068d0:	02c12083          	lw	ra,44(sp)
200068d4:	02812403          	lw	s0,40(sp)
200068d8:	02412483          	lw	s1,36(sp)
200068dc:	02012903          	lw	s2,32(sp)
200068e0:	01c12983          	lw	s3,28(sp)
200068e4:	03010113          	addi	sp,sp,48
200068e8:	00008067          	ret

200068ec <f_close>:
200068ec:	fe010113          	addi	sp,sp,-32
200068f0:	00812c23          	sw	s0,24(sp)
200068f4:	00112e23          	sw	ra,28(sp)
200068f8:	00050413          	mv	s0,a0
200068fc:	dd5ff0ef          	jal	ra,200066d0 <f_sync>
20006900:	00051c63          	bnez	a0,20006918 <f_close+0x2c>
20006904:	00c10593          	addi	a1,sp,12
20006908:	00040513          	mv	a0,s0
2000690c:	ac1fd0ef          	jal	ra,200043cc <_ZL8validateP7FFOBJIDPP5FATFS>
20006910:	00051463          	bnez	a0,20006918 <f_close+0x2c>
20006914:	00042023          	sw	zero,0(s0)
20006918:	01c12083          	lw	ra,28(sp)
2000691c:	01812403          	lw	s0,24(sp)
20006920:	02010113          	addi	sp,sp,32
20006924:	00008067          	ret

20006928 <f_chdrive>:
20006928:	fe010113          	addi	sp,sp,-32
2000692c:	00a12623          	sw	a0,12(sp)
20006930:	00c10513          	addi	a0,sp,12
20006934:	00112e23          	sw	ra,28(sp)
20006938:	9bdfd0ef          	jal	ra,200042f4 <_ZL12get_ldnumberPPKc>
2000693c:	00054e63          	bltz	a0,20006958 <f_chdrive+0x30>
20006940:	00009797          	auipc	a5,0x9
20006944:	cea78a23          	sb	a0,-780(a5) # 2000f634 <_ZL7CurrVol>
20006948:	00000513          	li	a0,0
2000694c:	01c12083          	lw	ra,28(sp)
20006950:	02010113          	addi	sp,sp,32
20006954:	00008067          	ret
20006958:	00b00513          	li	a0,11
2000695c:	ff1ff06f          	j	2000694c <f_chdrive+0x24>

20006960 <f_chdir>:
20006960:	fa010113          	addi	sp,sp,-96
20006964:	00a12623          	sw	a0,12(sp)
20006968:	00000613          	li	a2,0
2000696c:	01c10593          	addi	a1,sp,28
20006970:	00c10513          	addi	a0,sp,12
20006974:	04812c23          	sw	s0,88(sp)
20006978:	04112e23          	sw	ra,92(sp)
2000697c:	04912a23          	sw	s1,84(sp)
20006980:	f0dfd0ef          	jal	ra,2000488c <_ZL12mount_volumePPKcPP5FATFSh>
20006984:	00050413          	mv	s0,a0
20006988:	02051863          	bnez	a0,200069b8 <f_chdir+0x58>
2000698c:	01c12483          	lw	s1,28(sp)
20006990:	00c12583          	lw	a1,12(sp)
20006994:	02010513          	addi	a0,sp,32
20006998:	02912023          	sw	s1,32(sp)
2000699c:	b31fe0ef          	jal	ra,200054cc <_ZL11follow_pathP3DIRPKc>
200069a0:	00050413          	mv	s0,a0
200069a4:	04051663          	bnez	a0,200069f0 <f_chdir+0x90>
200069a8:	04b10783          	lb	a5,75(sp)
200069ac:	0207d263          	bgez	a5,200069d0 <f_chdir+0x70>
200069b0:	02812783          	lw	a5,40(sp)
200069b4:	00f4ac23          	sw	a5,24(s1)
200069b8:	05c12083          	lw	ra,92(sp)
200069bc:	00040513          	mv	a0,s0
200069c0:	05812403          	lw	s0,88(sp)
200069c4:	05412483          	lw	s1,84(sp)
200069c8:	06010113          	addi	sp,sp,96
200069cc:	00008067          	ret
200069d0:	02614783          	lbu	a5,38(sp)
200069d4:	0107f793          	andi	a5,a5,16
200069d8:	02078063          	beqz	a5,200069f8 <f_chdir+0x98>
200069dc:	03c12583          	lw	a1,60(sp)
200069e0:	0004c503          	lbu	a0,0(s1)
200069e4:	a84fe0ef          	jal	ra,20004c68 <_ZL8ld_clustP5FATFSPKh.isra.0>
200069e8:	00a4ac23          	sw	a0,24(s1)
200069ec:	fcdff06f          	j	200069b8 <f_chdir+0x58>
200069f0:	00400793          	li	a5,4
200069f4:	fcf512e3          	bne	a0,a5,200069b8 <f_chdir+0x58>
200069f8:	00500413          	li	s0,5
200069fc:	fbdff06f          	j	200069b8 <f_chdir+0x58>

20006a00 <f_lseek>:
20006a00:	fb010113          	addi	sp,sp,-80
20006a04:	04912223          	sw	s1,68(sp)
20006a08:	00058493          	mv	s1,a1
20006a0c:	01c10593          	addi	a1,sp,28
20006a10:	04812423          	sw	s0,72(sp)
20006a14:	05212023          	sw	s2,64(sp)
20006a18:	04112623          	sw	ra,76(sp)
20006a1c:	03312e23          	sw	s3,60(sp)
20006a20:	03412c23          	sw	s4,56(sp)
20006a24:	03512a23          	sw	s5,52(sp)
20006a28:	03612823          	sw	s6,48(sp)
20006a2c:	03712623          	sw	s7,44(sp)
20006a30:	03812423          	sw	s8,40(sp)
20006a34:	03912223          	sw	s9,36(sp)
20006a38:	00050413          	mv	s0,a0
20006a3c:	991fd0ef          	jal	ra,200043cc <_ZL8validateP7FFOBJIDPP5FATFS>
20006a40:	00050913          	mv	s2,a0
20006a44:	06051263          	bnez	a0,20006aa8 <f_lseek+0xa8>
20006a48:	01144903          	lbu	s2,17(s0)
20006a4c:	04091e63          	bnez	s2,20006aa8 <f_lseek+0xa8>
20006a50:	02842783          	lw	a5,40(s0)
20006a54:	18078a63          	beqz	a5,20006be8 <f_lseek+0x1e8>
20006a58:	fff00713          	li	a4,-1
20006a5c:	0ce49e63          	bne	s1,a4,20006b38 <f_lseek+0x138>
20006a60:	00842a03          	lw	s4,8(s0)
20006a64:	0007ab83          	lw	s7,0(a5)
20006a68:	00478993          	addi	s3,a5,4
20006a6c:	00200493          	li	s1,2
20006a70:	0a0a0a63          	beqz	s4,20006b24 <f_lseek+0x124>
20006a74:	00100c13          	li	s8,1
20006a78:	fff00c93          	li	s9,-1
20006a7c:	00000b13          	li	s6,0
20006a80:	000a0513          	mv	a0,s4
20006a84:	00050a93          	mv	s5,a0
20006a88:	00050593          	mv	a1,a0
20006a8c:	00042503          	lw	a0,0(s0)
20006a90:	001b0b13          	addi	s6,s6,1
20006a94:	a0cfe0ef          	jal	ra,20004ca0 <_ZL7get_fatP7FFOBJIDm.isra.0>
20006a98:	04ac6863          	bltu	s8,a0,20006ae8 <f_lseek+0xe8>
20006a9c:	00200793          	li	a5,2
20006aa0:	00f408a3          	sb	a5,17(s0)
20006aa4:	00200913          	li	s2,2
20006aa8:	04c12083          	lw	ra,76(sp)
20006aac:	04812403          	lw	s0,72(sp)
20006ab0:	04412483          	lw	s1,68(sp)
20006ab4:	03c12983          	lw	s3,60(sp)
20006ab8:	03812a03          	lw	s4,56(sp)
20006abc:	03412a83          	lw	s5,52(sp)
20006ac0:	03012b03          	lw	s6,48(sp)
20006ac4:	02c12b83          	lw	s7,44(sp)
20006ac8:	02812c03          	lw	s8,40(sp)
20006acc:	02412c83          	lw	s9,36(sp)
20006ad0:	00090513          	mv	a0,s2
20006ad4:	04012903          	lw	s2,64(sp)
20006ad8:	05010113          	addi	sp,sp,80
20006adc:	00008067          	ret
20006ae0:	00050a13          	mv	s4,a0
20006ae4:	f99ff06f          	j	20006a7c <f_lseek+0x7c>
20006ae8:	01951a63          	bne	a0,s9,20006afc <f_lseek+0xfc>
20006aec:	00100793          	li	a5,1
20006af0:	00f408a3          	sb	a5,17(s0)
20006af4:	00100913          	li	s2,1
20006af8:	fb1ff06f          	j	20006aa8 <f_lseek+0xa8>
20006afc:	001a8a93          	addi	s5,s5,1
20006b00:	f8aa82e3          	beq	s5,a0,20006a84 <f_lseek+0x84>
20006b04:	00248493          	addi	s1,s1,2
20006b08:	009be863          	bltu	s7,s1,20006b18 <f_lseek+0x118>
20006b0c:	0169a023          	sw	s6,0(s3)
20006b10:	0149a223          	sw	s4,4(s3)
20006b14:	00898993          	addi	s3,s3,8
20006b18:	01c12783          	lw	a5,28(sp)
20006b1c:	01c7a783          	lw	a5,28(a5)
20006b20:	fcf560e3          	bltu	a0,a5,20006ae0 <f_lseek+0xe0>
20006b24:	02842783          	lw	a5,40(s0)
20006b28:	0097a023          	sw	s1,0(a5)
20006b2c:	249bea63          	bltu	s7,s1,20006d80 <f_lseek+0x380>
20006b30:	0009a023          	sw	zero,0(s3)
20006b34:	f75ff06f          	j	20006aa8 <f_lseek+0xa8>
20006b38:	00c42983          	lw	s3,12(s0)
20006b3c:	0134f463          	bgeu	s1,s3,20006b44 <f_lseek+0x144>
20006b40:	00048993          	mv	s3,s1
20006b44:	01342a23          	sw	s3,20(s0)
20006b48:	f60980e3          	beqz	s3,20006aa8 <f_lseek+0xa8>
20006b4c:	fff98493          	addi	s1,s3,-1
20006b50:	00048593          	mv	a1,s1
20006b54:	00040513          	mv	a0,s0
20006b58:	f30fd0ef          	jal	ra,20004288 <_ZL10clmt_clustP3FILm>
20006b5c:	01c12a03          	lw	s4,28(sp)
20006b60:	00050593          	mv	a1,a0
20006b64:	00a42c23          	sw	a0,24(s0)
20006b68:	000a0513          	mv	a0,s4
20006b6c:	ef0fd0ef          	jal	ra,2000425c <_ZL9clst2sectP5FATFSm>
20006b70:	f20506e3          	beqz	a0,20006a9c <f_lseek+0x9c>
20006b74:	1ff9f993          	andi	s3,s3,511
20006b78:	00aa5783          	lhu	a5,10(s4)
20006b7c:	f20986e3          	beqz	s3,20006aa8 <f_lseek+0xa8>
20006b80:	0094d493          	srli	s1,s1,0x9
20006b84:	fff78793          	addi	a5,a5,-1
20006b88:	01c42603          	lw	a2,28(s0)
20006b8c:	00f4f4b3          	and	s1,s1,a5
20006b90:	00a484b3          	add	s1,s1,a0
20006b94:	f0960ae3          	beq	a2,s1,20006aa8 <f_lseek+0xa8>
20006b98:	01040783          	lb	a5,16(s0)
20006b9c:	001a4503          	lbu	a0,1(s4)
20006ba0:	02c40593          	addi	a1,s0,44
20006ba4:	0207d263          	bgez	a5,20006bc8 <f_lseek+0x1c8>
20006ba8:	00100693          	li	a3,1
20006bac:	00b12623          	sw	a1,12(sp)
20006bb0:	171000ef          	jal	ra,20007520 <disk_write>
20006bb4:	f2051ce3          	bnez	a0,20006aec <f_lseek+0xec>
20006bb8:	01044783          	lbu	a5,16(s0)
20006bbc:	00c12583          	lw	a1,12(sp)
20006bc0:	07f7f793          	andi	a5,a5,127
20006bc4:	00f40823          	sb	a5,16(s0)
20006bc8:	001a4503          	lbu	a0,1(s4)
20006bcc:	00100693          	li	a3,1
20006bd0:	00048613          	mv	a2,s1
20006bd4:	10d000ef          	jal	ra,200074e0 <disk_read>
20006bd8:	00050913          	mv	s2,a0
20006bdc:	f00518e3          	bnez	a0,20006aec <f_lseek+0xec>
20006be0:	00942e23          	sw	s1,28(s0)
20006be4:	ec5ff06f          	j	20006aa8 <f_lseek+0xa8>
20006be8:	00c42703          	lw	a4,12(s0)
20006bec:	00977a63          	bgeu	a4,s1,20006c00 <f_lseek+0x200>
20006bf0:	01044783          	lbu	a5,16(s0)
20006bf4:	0027f793          	andi	a5,a5,2
20006bf8:	00079463          	bnez	a5,20006c00 <f_lseek+0x200>
20006bfc:	00070493          	mv	s1,a4
20006c00:	01442783          	lw	a5,20(s0)
20006c04:	00042a23          	sw	zero,20(s0)
20006c08:	06049c63          	bnez	s1,20006c80 <f_lseek+0x280>
20006c0c:	00000493          	li	s1,0
20006c10:	01442783          	lw	a5,20(s0)
20006c14:	00c42703          	lw	a4,12(s0)
20006c18:	00f77a63          	bgeu	a4,a5,20006c2c <f_lseek+0x22c>
20006c1c:	01044703          	lbu	a4,16(s0)
20006c20:	00f42623          	sw	a5,12(s0)
20006c24:	04076713          	ori	a4,a4,64
20006c28:	00e40823          	sb	a4,16(s0)
20006c2c:	1ff7f793          	andi	a5,a5,511
20006c30:	e6078ce3          	beqz	a5,20006aa8 <f_lseek+0xa8>
20006c34:	01c42603          	lw	a2,28(s0)
20006c38:	e69608e3          	beq	a2,s1,20006aa8 <f_lseek+0xa8>
20006c3c:	01c12903          	lw	s2,28(sp)
20006c40:	01040783          	lb	a5,16(s0)
20006c44:	02c40593          	addi	a1,s0,44
20006c48:	00194503          	lbu	a0,1(s2)
20006c4c:	0207d263          	bgez	a5,20006c70 <f_lseek+0x270>
20006c50:	00100693          	li	a3,1
20006c54:	00b12623          	sw	a1,12(sp)
20006c58:	0c9000ef          	jal	ra,20007520 <disk_write>
20006c5c:	e80518e3          	bnez	a0,20006aec <f_lseek+0xec>
20006c60:	01044783          	lbu	a5,16(s0)
20006c64:	00c12583          	lw	a1,12(sp)
20006c68:	07f7f793          	andi	a5,a5,127
20006c6c:	00f40823          	sb	a5,16(s0)
20006c70:	00194503          	lbu	a0,1(s2)
20006c74:	00100693          	li	a3,1
20006c78:	00048613          	mv	a2,s1
20006c7c:	f59ff06f          	j	20006bd4 <f_lseek+0x1d4>
20006c80:	01c12a03          	lw	s4,28(sp)
20006c84:	00aa5983          	lhu	s3,10(s4)
20006c88:	00999993          	slli	s3,s3,0x9
20006c8c:	06078663          	beqz	a5,20006cf8 <f_lseek+0x2f8>
20006c90:	fff78793          	addi	a5,a5,-1
20006c94:	fff48713          	addi	a4,s1,-1
20006c98:	03375733          	divu	a4,a4,s3
20006c9c:	0337d6b3          	divu	a3,a5,s3
20006ca0:	04d76c63          	bltu	a4,a3,20006cf8 <f_lseek+0x2f8>
20006ca4:	41300733          	neg	a4,s3
20006ca8:	01842583          	lw	a1,24(s0)
20006cac:	00f777b3          	and	a5,a4,a5
20006cb0:	00f42a23          	sw	a5,20(s0)
20006cb4:	40f484b3          	sub	s1,s1,a5
20006cb8:	f4058ae3          	beqz	a1,20006c0c <f_lseek+0x20c>
20006cbc:	fff00a93          	li	s5,-1
20006cc0:	00100b13          	li	s6,1
20006cc4:	01442783          	lw	a5,20(s0)
20006cc8:	0699e063          	bltu	s3,s1,20006d28 <f_lseek+0x328>
20006ccc:	01442783          	lw	a5,20(s0)
20006cd0:	009787b3          	add	a5,a5,s1
20006cd4:	00f42a23          	sw	a5,20(s0)
20006cd8:	1ff4f793          	andi	a5,s1,511
20006cdc:	f20788e3          	beqz	a5,20006c0c <f_lseek+0x20c>
20006ce0:	000a0513          	mv	a0,s4
20006ce4:	d78fd0ef          	jal	ra,2000425c <_ZL9clst2sectP5FATFSm>
20006ce8:	da050ae3          	beqz	a0,20006a9c <f_lseek+0x9c>
20006cec:	0094d493          	srli	s1,s1,0x9
20006cf0:	00a484b3          	add	s1,s1,a0
20006cf4:	f1dff06f          	j	20006c10 <f_lseek+0x210>
20006cf8:	00842583          	lw	a1,8(s0)
20006cfc:	02059263          	bnez	a1,20006d20 <f_lseek+0x320>
20006d00:	00042503          	lw	a0,0(s0)
20006d04:	8ecfe0ef          	jal	ra,20004df0 <_ZL12create_chainP7FFOBJIDm.isra.0>
20006d08:	00100793          	li	a5,1
20006d0c:	00050593          	mv	a1,a0
20006d10:	d8f506e3          	beq	a0,a5,20006a9c <f_lseek+0x9c>
20006d14:	fff00793          	li	a5,-1
20006d18:	dcf50ae3          	beq	a0,a5,20006aec <f_lseek+0xec>
20006d1c:	00a42423          	sw	a0,8(s0)
20006d20:	00b42c23          	sw	a1,24(s0)
20006d24:	f95ff06f          	j	20006cb8 <f_lseek+0x2b8>
20006d28:	00f987b3          	add	a5,s3,a5
20006d2c:	00f42a23          	sw	a5,20(s0)
20006d30:	01044783          	lbu	a5,16(s0)
20006d34:	00042503          	lw	a0,0(s0)
20006d38:	41348bb3          	sub	s7,s1,s3
20006d3c:	0027f793          	andi	a5,a5,2
20006d40:	00078c63          	beqz	a5,20006d58 <f_lseek+0x358>
20006d44:	8acfe0ef          	jal	ra,20004df0 <_ZL12create_chainP7FFOBJIDm.isra.0>
20006d48:	00050493          	mv	s1,a0
20006d4c:	00051a63          	bnez	a0,20006d60 <f_lseek+0x360>
20006d50:	00000593          	li	a1,0
20006d54:	f79ff06f          	j	20006ccc <f_lseek+0x2cc>
20006d58:	f49fd0ef          	jal	ra,20004ca0 <_ZL7get_fatP7FFOBJIDm.isra.0>
20006d5c:	00050493          	mv	s1,a0
20006d60:	d95486e3          	beq	s1,s5,20006aec <f_lseek+0xec>
20006d64:	d29b7ce3          	bgeu	s6,s1,20006a9c <f_lseek+0x9c>
20006d68:	01ca2783          	lw	a5,28(s4)
20006d6c:	d2f4f8e3          	bgeu	s1,a5,20006a9c <f_lseek+0x9c>
20006d70:	00942c23          	sw	s1,24(s0)
20006d74:	00048593          	mv	a1,s1
20006d78:	000b8493          	mv	s1,s7
20006d7c:	f49ff06f          	j	20006cc4 <f_lseek+0x2c4>
20006d80:	01100913          	li	s2,17
20006d84:	d25ff06f          	j	20006aa8 <f_lseek+0xa8>

20006d88 <f_opendir>:
20006d88:	fd010113          	addi	sp,sp,-48
20006d8c:	02112623          	sw	ra,44(sp)
20006d90:	02812423          	sw	s0,40(sp)
20006d94:	02912223          	sw	s1,36(sp)
20006d98:	00b12623          	sw	a1,12(sp)
20006d9c:	08050c63          	beqz	a0,20006e34 <f_opendir+0xac>
20006da0:	00050413          	mv	s0,a0
20006da4:	00000613          	li	a2,0
20006da8:	01c10593          	addi	a1,sp,28
20006dac:	00c10513          	addi	a0,sp,12
20006db0:	addfd0ef          	jal	ra,2000488c <_ZL12mount_volumePPKcPP5FATFSh>
20006db4:	02051a63          	bnez	a0,20006de8 <f_opendir+0x60>
20006db8:	01c12483          	lw	s1,28(sp)
20006dbc:	00c12583          	lw	a1,12(sp)
20006dc0:	00040513          	mv	a0,s0
20006dc4:	00942023          	sw	s1,0(s0)
20006dc8:	f04fe0ef          	jal	ra,200054cc <_ZL11follow_pathP3DIRPKc>
20006dcc:	06051863          	bnez	a0,20006e3c <f_opendir+0xb4>
20006dd0:	02b40783          	lb	a5,43(s0)
20006dd4:	0207c663          	bltz	a5,20006e00 <f_opendir+0x78>
20006dd8:	00644783          	lbu	a5,6(s0)
20006ddc:	0107f793          	andi	a5,a5,16
20006de0:	00079863          	bnez	a5,20006df0 <f_opendir+0x68>
20006de4:	00500513          	li	a0,5
20006de8:	00042023          	sw	zero,0(s0)
20006dec:	0340006f          	j	20006e20 <f_opendir+0x98>
20006df0:	0004c503          	lbu	a0,0(s1)
20006df4:	01c42583          	lw	a1,28(s0)
20006df8:	e71fd0ef          	jal	ra,20004c68 <_ZL8ld_clustP5FATFSPKh.isra.0>
20006dfc:	00a42423          	sw	a0,8(s0)
20006e00:	0064d783          	lhu	a5,6(s1)
20006e04:	00000593          	li	a1,0
20006e08:	00040513          	mv	a0,s0
20006e0c:	00f41223          	sh	a5,4(s0)
20006e10:	b2cfe0ef          	jal	ra,2000513c <_ZL7dir_sdiP3DIRm>
20006e14:	00400793          	li	a5,4
20006e18:	fcf506e3          	beq	a0,a5,20006de4 <f_opendir+0x5c>
20006e1c:	fc0516e3          	bnez	a0,20006de8 <f_opendir+0x60>
20006e20:	02c12083          	lw	ra,44(sp)
20006e24:	02812403          	lw	s0,40(sp)
20006e28:	02412483          	lw	s1,36(sp)
20006e2c:	03010113          	addi	sp,sp,48
20006e30:	00008067          	ret
20006e34:	00900513          	li	a0,9
20006e38:	fe9ff06f          	j	20006e20 <f_opendir+0x98>
20006e3c:	00400793          	li	a5,4
20006e40:	faf502e3          	beq	a0,a5,20006de4 <f_opendir+0x5c>
20006e44:	fa5ff06f          	j	20006de8 <f_opendir+0x60>

20006e48 <f_closedir>:
20006e48:	fe010113          	addi	sp,sp,-32
20006e4c:	00c10593          	addi	a1,sp,12
20006e50:	00812c23          	sw	s0,24(sp)
20006e54:	00112e23          	sw	ra,28(sp)
20006e58:	00050413          	mv	s0,a0
20006e5c:	d70fd0ef          	jal	ra,200043cc <_ZL8validateP7FFOBJIDPP5FATFS>
20006e60:	00051463          	bnez	a0,20006e68 <f_closedir+0x20>
20006e64:	00042023          	sw	zero,0(s0)
20006e68:	01c12083          	lw	ra,28(sp)
20006e6c:	01812403          	lw	s0,24(sp)
20006e70:	02010113          	addi	sp,sp,32
20006e74:	00008067          	ret

20006e78 <f_readdir>:
20006e78:	fb010113          	addi	sp,sp,-80
20006e7c:	04912223          	sw	s1,68(sp)
20006e80:	00058493          	mv	s1,a1
20006e84:	00c10593          	addi	a1,sp,12
20006e88:	04812423          	sw	s0,72(sp)
20006e8c:	03312e23          	sw	s3,60(sp)
20006e90:	04112623          	sw	ra,76(sp)
20006e94:	05212023          	sw	s2,64(sp)
20006e98:	03412c23          	sw	s4,56(sp)
20006e9c:	03512a23          	sw	s5,52(sp)
20006ea0:	03612823          	sw	s6,48(sp)
20006ea4:	03712623          	sw	s7,44(sp)
20006ea8:	03812423          	sw	s8,40(sp)
20006eac:	03912223          	sw	s9,36(sp)
20006eb0:	03a12023          	sw	s10,32(sp)
20006eb4:	01b12e23          	sw	s11,28(sp)
20006eb8:	00050413          	mv	s0,a0
20006ebc:	d10fd0ef          	jal	ra,200043cc <_ZL8validateP7FFOBJIDPP5FATFS>
20006ec0:	00050993          	mv	s3,a0
20006ec4:	1a051463          	bnez	a0,2000706c <f_readdir+0x1f4>
20006ec8:	04049463          	bnez	s1,20006f10 <f_readdir+0x98>
20006ecc:	00040513          	mv	a0,s0
20006ed0:	04812403          	lw	s0,72(sp)
20006ed4:	04c12083          	lw	ra,76(sp)
20006ed8:	04412483          	lw	s1,68(sp)
20006edc:	04012903          	lw	s2,64(sp)
20006ee0:	03c12983          	lw	s3,60(sp)
20006ee4:	03812a03          	lw	s4,56(sp)
20006ee8:	03412a83          	lw	s5,52(sp)
20006eec:	03012b03          	lw	s6,48(sp)
20006ef0:	02c12b83          	lw	s7,44(sp)
20006ef4:	02812c03          	lw	s8,40(sp)
20006ef8:	02412c83          	lw	s9,36(sp)
20006efc:	02012d03          	lw	s10,32(sp)
20006f00:	01c12d83          	lw	s11,28(sp)
20006f04:	00000593          	li	a1,0
20006f08:	05010113          	addi	sp,sp,80
20006f0c:	a30fe06f          	j	2000513c <_ZL7dir_sdiP3DIRm>
20006f10:	00042b03          	lw	s6,0(s0)
20006f14:	00010ab7          	lui	s5,0x10
20006f18:	0ff00a13          	li	s4,255
20006f1c:	0ff00913          	li	s2,255
20006f20:	00400793          	li	a5,4
20006f24:	0ff00b93          	li	s7,255
20006f28:	00d00c13          	li	s8,13
20006f2c:	00001c97          	auipc	s9,0x1
20006f30:	4f8c8c93          	addi	s9,s9,1272 # 20008424 <_ZL6LfnOfs>
20006f34:	fffa8a93          	addi	s5,s5,-1 # ffff <_start-0x1fff0001>
20006f38:	01842583          	lw	a1,24(s0)
20006f3c:	00059663          	bnez	a1,20006f48 <f_readdir+0xd0>
20006f40:	18078a63          	beqz	a5,200070d4 <f_readdir+0x25c>
20006f44:	1180006f          	j	2000705c <f_readdir+0x1e4>
20006f48:	000b0513          	mv	a0,s6
20006f4c:	d8cfd0ef          	jal	ra,200044d8 <_ZL11move_windowP5FATFSm>
20006f50:	00050793          	mv	a5,a0
20006f54:	10051463          	bnez	a0,2000705c <f_readdir+0x1e4>
20006f58:	01c42503          	lw	a0,28(s0)
20006f5c:	00054703          	lbu	a4,0(a0)
20006f60:	26070063          	beqz	a4,200071c0 <f_readdir+0x348>
20006f64:	00b54683          	lbu	a3,11(a0)
20006f68:	0e500613          	li	a2,229
20006f6c:	03f6f693          	andi	a3,a3,63
20006f70:	00d40323          	sb	a3,6(s0)
20006f74:	12c70e63          	beq	a4,a2,200070b0 <f_readdir+0x238>
20006f78:	02e00613          	li	a2,46
20006f7c:	12c70a63          	beq	a4,a2,200070b0 <f_readdir+0x238>
20006f80:	fdf6f613          	andi	a2,a3,-33
20006f84:	00800593          	li	a1,8
20006f88:	12b60463          	beq	a2,a1,200070b0 <f_readdir+0x238>
20006f8c:	00f00613          	li	a2,15
20006f90:	12c69863          	bne	a3,a2,200070c0 <f_readdir+0x248>
20006f94:	04077693          	andi	a3,a4,64
20006f98:	10068a63          	beqz	a3,200070ac <f_readdir+0x234>
20006f9c:	0bf77913          	andi	s2,a4,191
20006fa0:	01042703          	lw	a4,16(s0)
20006fa4:	00d54a03          	lbu	s4,13(a0)
20006fa8:	02e42623          	sw	a4,44(s0)
20006fac:	00d54703          	lbu	a4,13(a0)
20006fb0:	11471063          	bne	a4,s4,200070b0 <f_readdir+0x238>
20006fb4:	01b54703          	lbu	a4,27(a0)
20006fb8:	01a54683          	lbu	a3,26(a0)
20006fbc:	00871713          	slli	a4,a4,0x8
20006fc0:	00d76733          	or	a4,a4,a3
20006fc4:	0e071663          	bnez	a4,200070b0 <f_readdir+0x238>
20006fc8:	00054703          	lbu	a4,0(a0)
20006fcc:	00cb2603          	lw	a2,12(s6)
20006fd0:	00100593          	li	a1,1
20006fd4:	fbf77713          	andi	a4,a4,-65
20006fd8:	fff70713          	addi	a4,a4,-1
20006fdc:	03870733          	mul	a4,a4,s8
20006fe0:	00fc86b3          	add	a3,s9,a5
20006fe4:	0006c683          	lbu	a3,0(a3)
20006fe8:	00d506b3          	add	a3,a0,a3
20006fec:	0006c803          	lbu	a6,0(a3)
20006ff0:	0016c683          	lbu	a3,1(a3)
20006ff4:	00869693          	slli	a3,a3,0x8
20006ff8:	0106e6b3          	or	a3,a3,a6
20006ffc:	0a058e63          	beqz	a1,200070b8 <f_readdir+0x240>
20007000:	0aebe863          	bltu	s7,a4,200070b0 <f_readdir+0x238>
20007004:	00171593          	slli	a1,a4,0x1
20007008:	00b605b3          	add	a1,a2,a1
2000700c:	00d59023          	sh	a3,0(a1)
20007010:	00170713          	addi	a4,a4,1
20007014:	00068593          	mv	a1,a3
20007018:	00178793          	addi	a5,a5,1
2000701c:	fd8792e3          	bne	a5,s8,20006fe0 <f_readdir+0x168>
20007020:	00054783          	lbu	a5,0(a0)
20007024:	0407f793          	andi	a5,a5,64
20007028:	00078c63          	beqz	a5,20007040 <f_readdir+0x1c8>
2000702c:	00058a63          	beqz	a1,20007040 <f_readdir+0x1c8>
20007030:	08ebe063          	bltu	s7,a4,200070b0 <f_readdir+0x238>
20007034:	00171713          	slli	a4,a4,0x1
20007038:	00e60633          	add	a2,a2,a4
2000703c:	00061023          	sh	zero,0(a2)
20007040:	fff90913          	addi	s2,s2,-1
20007044:	0ff97913          	zext.b	s2,s2
20007048:	00000593          	li	a1,0
2000704c:	00040513          	mv	a0,s0
20007050:	f3dfd0ef          	jal	ra,20004f8c <_ZL8dir_nextP3DIRi>
20007054:	00050793          	mv	a5,a0
20007058:	ee0500e3          	beqz	a0,20006f38 <f_readdir+0xc0>
2000705c:	00042c23          	sw	zero,24(s0)
20007060:	00400713          	li	a4,4
20007064:	06e78863          	beq	a5,a4,200070d4 <f_readdir+0x25c>
20007068:	00078993          	mv	s3,a5
2000706c:	04c12083          	lw	ra,76(sp)
20007070:	04812403          	lw	s0,72(sp)
20007074:	04412483          	lw	s1,68(sp)
20007078:	04012903          	lw	s2,64(sp)
2000707c:	03812a03          	lw	s4,56(sp)
20007080:	03412a83          	lw	s5,52(sp)
20007084:	03012b03          	lw	s6,48(sp)
20007088:	02c12b83          	lw	s7,44(sp)
2000708c:	02812c03          	lw	s8,40(sp)
20007090:	02412c83          	lw	s9,36(sp)
20007094:	02012d03          	lw	s10,32(sp)
20007098:	01c12d83          	lw	s11,28(sp)
2000709c:	00098513          	mv	a0,s3
200070a0:	03c12983          	lw	s3,60(sp)
200070a4:	05010113          	addi	sp,sp,80
200070a8:	00008067          	ret
200070ac:	f12700e3          	beq	a4,s2,20006fac <f_readdir+0x134>
200070b0:	0ff00913          	li	s2,255
200070b4:	f95ff06f          	j	20007048 <f_readdir+0x1d0>
200070b8:	f75680e3          	beq	a3,s5,20007018 <f_readdir+0x1a0>
200070bc:	ff5ff06f          	j	200070b0 <f_readdir+0x238>
200070c0:	00091663          	bnez	s2,200070cc <f_readdir+0x254>
200070c4:	a00fd0ef          	jal	ra,200042c4 <_ZL7sum_sfnPKh>
200070c8:	01450663          	beq	a0,s4,200070d4 <f_readdir+0x25c>
200070cc:	fff00793          	li	a5,-1
200070d0:	02f42623          	sw	a5,44(s0)
200070d4:	00042c83          	lw	s9,0(s0)
200070d8:	00048b23          	sb	zero,22(s1)
200070dc:	01842783          	lw	a5,24(s0)
200070e0:	20078863          	beqz	a5,200072f0 <f_readdir+0x478>
200070e4:	02c42703          	lw	a4,44(s0)
200070e8:	fff00793          	li	a5,-1
200070ec:	16f71663          	bne	a4,a5,20007258 <f_readdir+0x3e0>
200070f0:	00000793          	li	a5,0
200070f4:	00000713          	li	a4,0
200070f8:	02000513          	li	a0,32
200070fc:	00500813          	li	a6,5
20007100:	00900893          	li	a7,9
20007104:	00b00593          	li	a1,11
20007108:	02e00313          	li	t1,46
2000710c:	01c42683          	lw	a3,28(s0)
20007110:	00e686b3          	add	a3,a3,a4
20007114:	0006c683          	lbu	a3,0(a3)
20007118:	00170713          	addi	a4,a4,1
2000711c:	02a68663          	beq	a3,a0,20007148 <f_readdir+0x2d0>
20007120:	01069463          	bne	a3,a6,20007128 <f_readdir+0x2b0>
20007124:	0e500693          	li	a3,229
20007128:	01171a63          	bne	a4,a7,2000713c <f_readdir+0x2c4>
2000712c:	00f5e863          	bltu	a1,a5,2000713c <f_readdir+0x2c4>
20007130:	00f48633          	add	a2,s1,a5
20007134:	006604a3          	sb	t1,9(a2)
20007138:	00178793          	addi	a5,a5,1
2000713c:	00f48633          	add	a2,s1,a5
20007140:	00d604a3          	sb	a3,9(a2)
20007144:	00178793          	addi	a5,a5,1
20007148:	fcb712e3          	bne	a4,a1,2000710c <f_readdir+0x294>
2000714c:	00f48733          	add	a4,s1,a5
20007150:	000704a3          	sb	zero,9(a4)
20007154:	0164c703          	lbu	a4,22(s1)
20007158:	14071863          	bnez	a4,200072a8 <f_readdir+0x430>
2000715c:	12078463          	beqz	a5,20007284 <f_readdir+0x40c>
20007160:	ff700613          	li	a2,-9
20007164:	00948793          	addi	a5,s1,9
20007168:	00800593          	li	a1,8
2000716c:	40960633          	sub	a2,a2,s1
20007170:	02e00513          	li	a0,46
20007174:	01900813          	li	a6,25
20007178:	0007c683          	lbu	a3,0(a5)
2000717c:	00f60733          	add	a4,a2,a5
20007180:	10068863          	beqz	a3,20007290 <f_readdir+0x418>
20007184:	01069713          	slli	a4,a3,0x10
20007188:	01075713          	srli	a4,a4,0x10
2000718c:	18a68063          	beq	a3,a0,2000730c <f_readdir+0x494>
20007190:	fbf70693          	addi	a3,a4,-65
20007194:	01069693          	slli	a3,a3,0x10
20007198:	0106d693          	srli	a3,a3,0x10
2000719c:	00d86c63          	bltu	a6,a3,200071b4 <f_readdir+0x33c>
200071a0:	01c42683          	lw	a3,28(s0)
200071a4:	00c6c683          	lbu	a3,12(a3)
200071a8:	00d5f6b3          	and	a3,a1,a3
200071ac:	00068463          	beqz	a3,200071b4 <f_readdir+0x33c>
200071b0:	02070713          	addi	a4,a4,32
200071b4:	00e786a3          	sb	a4,13(a5)
200071b8:	00178793          	addi	a5,a5,1
200071bc:	fbdff06f          	j	20007178 <f_readdir+0x300>
200071c0:	00400793          	li	a5,4
200071c4:	e99ff06f          	j	2000705c <f_readdir+0x1e4>
200071c8:	000a1a63          	bnez	s4,200071dc <f_readdir+0x364>
200071cc:	01678733          	add	a4,a5,s6
200071d0:	01071713          	slli	a4,a4,0x10
200071d4:	01075713          	srli	a4,a4,0x10
200071d8:	02edfe63          	bgeu	s11,a4,20007214 <f_readdir+0x39c>
200071dc:	010a1513          	slli	a0,s4,0x10
200071e0:	1b500593          	li	a1,437
200071e4:	00f56533          	or	a0,a0,a5
200071e8:	412c0bb3          	sub	s7,s8,s2
200071ec:	12c000ef          	jal	ra,20007318 <ff_uni2oem>
200071f0:	04ac7863          	bgeu	s8,a0,20007240 <f_readdir+0x3c8>
200071f4:	097d7463          	bgeu	s10,s7,2000727c <f_readdir+0x404>
200071f8:	012487b3          	add	a5,s1,s2
200071fc:	00855713          	srli	a4,a0,0x8
20007200:	00e78b23          	sb	a4,22(a5)
20007204:	00a78ba3          	sb	a0,23(a5)
20007208:	00200793          	li	a5,2
2000720c:	00f90933          	add	s2,s2,a5
20007210:	00000793          	li	a5,0
20007214:	002a8a93          	addi	s5,s5,2
20007218:	00078a13          	mv	s4,a5
2000721c:	00cca783          	lw	a5,12(s9)
20007220:	015787b3          	add	a5,a5,s5
20007224:	0007d783          	lhu	a5,0(a5)
20007228:	fa0790e3          	bnez	a5,200071c8 <f_readdir+0x350>
2000722c:	000a0463          	beqz	s4,20007234 <f_readdir+0x3bc>
20007230:	00000913          	li	s2,0
20007234:	01248933          	add	s2,s1,s2
20007238:	00090b23          	sb	zero,22(s2)
2000723c:	eb5ff06f          	j	200070f0 <f_readdir+0x278>
20007240:	02050e63          	beqz	a0,2000727c <f_readdir+0x404>
20007244:	020b8c63          	beqz	s7,2000727c <f_readdir+0x404>
20007248:	012487b3          	add	a5,s1,s2
2000724c:	00a78b23          	sb	a0,22(a5)
20007250:	00100793          	li	a5,1
20007254:	fb9ff06f          	j	2000720c <f_readdir+0x394>
20007258:	00003b37          	lui	s6,0x3
2000725c:	00000a93          	li	s5,0
20007260:	00000913          	li	s2,0
20007264:	00000a13          	li	s4,0
20007268:	0ff00c13          	li	s8,255
2000726c:	00100d13          	li	s10,1
20007270:	800b0b13          	addi	s6,s6,-2048 # 2800 <_start-0x1fffd800>
20007274:	7ff00d93          	li	s11,2047
20007278:	fa5ff06f          	j	2000721c <f_readdir+0x3a4>
2000727c:	00000913          	li	s2,0
20007280:	fadff06f          	j	2000722c <f_readdir+0x3b4>
20007284:	03f00793          	li	a5,63
20007288:	00f48b23          	sb	a5,22(s1)
2000728c:	00100713          	li	a4,1
20007290:	00e48733          	add	a4,s1,a4
20007294:	00070b23          	sb	zero,22(a4)
20007298:	01c42783          	lw	a5,28(s0)
2000729c:	00c7c783          	lbu	a5,12(a5)
200072a0:	00079463          	bnez	a5,200072a8 <f_readdir+0x430>
200072a4:	000484a3          	sb	zero,9(s1)
200072a8:	01c42783          	lw	a5,28(s0)
200072ac:	00b7c783          	lbu	a5,11(a5)
200072b0:	03f7f793          	andi	a5,a5,63
200072b4:	00f48423          	sb	a5,8(s1)
200072b8:	01c42903          	lw	s2,28(s0)
200072bc:	01c90513          	addi	a0,s2,28
200072c0:	f71fc0ef          	jal	ra,20004230 <_ZL8ld_dwordPKh>
200072c4:	00a4a023          	sw	a0,0(s1)
200072c8:	01794783          	lbu	a5,23(s2)
200072cc:	01694703          	lbu	a4,22(s2)
200072d0:	00879793          	slli	a5,a5,0x8
200072d4:	00e7e7b3          	or	a5,a5,a4
200072d8:	00f49323          	sh	a5,6(s1)
200072dc:	01994783          	lbu	a5,25(s2)
200072e0:	01894703          	lbu	a4,24(s2)
200072e4:	00879793          	slli	a5,a5,0x8
200072e8:	00e7e7b3          	or	a5,a5,a4
200072ec:	00f49223          	sh	a5,4(s1)
200072f0:	00000593          	li	a1,0
200072f4:	00040513          	mv	a0,s0
200072f8:	c95fd0ef          	jal	ra,20004f8c <_ZL8dir_nextP3DIRi>
200072fc:	00400793          	li	a5,4
20007300:	d6f506e3          	beq	a0,a5,2000706c <f_readdir+0x1f4>
20007304:	00050993          	mv	s3,a0
20007308:	d65ff06f          	j	2000706c <f_readdir+0x1f4>
2000730c:	01000593          	li	a1,16
20007310:	02e00713          	li	a4,46
20007314:	ea1ff06f          	j	200071b4 <f_readdir+0x33c>

20007318 <ff_uni2oem>:
20007318:	07f00793          	li	a5,127
2000731c:	00050713          	mv	a4,a0
20007320:	00a7e863          	bltu	a5,a0,20007330 <ff_uni2oem+0x18>
20007324:	01051513          	slli	a0,a0,0x10
20007328:	01055513          	srli	a0,a0,0x10
2000732c:	00008067          	ret
20007330:	000107b7          	lui	a5,0x10
20007334:	00000513          	li	a0,0
20007338:	04f77063          	bgeu	a4,a5,20007378 <ff_uni2oem+0x60>
2000733c:	1b500793          	li	a5,437
20007340:	02f59c63          	bne	a1,a5,20007378 <ff_uni2oem+0x60>
20007344:	00001697          	auipc	a3,0x1
20007348:	11468693          	addi	a3,a3,276 # 20008458 <_ZL5uc437>
2000734c:	00000793          	li	a5,0
20007350:	08000593          	li	a1,128
20007354:	0006d603          	lhu	a2,0(a3)
20007358:	00e60c63          	beq	a2,a4,20007370 <ff_uni2oem+0x58>
2000735c:	00178793          	addi	a5,a5,1 # 10001 <_start-0x1ffeffff>
20007360:	01079793          	slli	a5,a5,0x10
20007364:	0107d793          	srli	a5,a5,0x10
20007368:	00268693          	addi	a3,a3,2
2000736c:	feb794e3          	bne	a5,a1,20007354 <ff_uni2oem+0x3c>
20007370:	08078513          	addi	a0,a5,128
20007374:	0ff57513          	zext.b	a0,a0
20007378:	00008067          	ret

2000737c <ff_oem2uni>:
2000737c:	07f00793          	li	a5,127
20007380:	02a7f863          	bgeu	a5,a0,200073b0 <ff_oem2uni+0x34>
20007384:	1b500793          	li	a5,437
20007388:	02f59263          	bne	a1,a5,200073ac <ff_oem2uni+0x30>
2000738c:	0ff00793          	li	a5,255
20007390:	00a7ee63          	bltu	a5,a0,200073ac <ff_oem2uni+0x30>
20007394:	00001797          	auipc	a5,0x1
20007398:	fc478793          	addi	a5,a5,-60 # 20008358 <__clz_tab+0xde8>
2000739c:	00151513          	slli	a0,a0,0x1
200073a0:	00f50533          	add	a0,a0,a5
200073a4:	00055503          	lhu	a0,0(a0)
200073a8:	00008067          	ret
200073ac:	00000513          	li	a0,0
200073b0:	00008067          	ret

200073b4 <ff_wtoupper>:
200073b4:	000107b7          	lui	a5,0x10
200073b8:	08f57063          	bgeu	a0,a5,20007438 <ff_wtoupper+0x84>
200073bc:	01051793          	slli	a5,a0,0x10
200073c0:	000016b7          	lui	a3,0x1
200073c4:	0107d793          	srli	a5,a5,0x10
200073c8:	00001717          	auipc	a4,0x1
200073cc:	19070713          	addi	a4,a4,400 # 20008558 <_ZZ11ff_wtoupperE4cvt1>
200073d0:	00d56663          	bltu	a0,a3,200073dc <ff_wtoupper+0x28>
200073d4:	00001717          	auipc	a4,0x1
200073d8:	37870713          	addi	a4,a4,888 # 2000874c <_ZZ11ff_wtoupperE4cvt2>
200073dc:	00075683          	lhu	a3,0(a4)
200073e0:	04068a63          	beqz	a3,20007434 <ff_wtoupper+0x80>
200073e4:	04d7e863          	bltu	a5,a3,20007434 <ff_wtoupper+0x80>
200073e8:	00275603          	lhu	a2,2(a4)
200073ec:	00470713          	addi	a4,a4,4
200073f0:	00865593          	srli	a1,a2,0x8
200073f4:	0ff67613          	zext.b	a2,a2
200073f8:	00d60833          	add	a6,a2,a3
200073fc:	09055c63          	bge	a0,a6,20007494 <ff_wtoupper+0xe0>
20007400:	00800613          	li	a2,8
20007404:	02b66863          	bltu	a2,a1,20007434 <ff_wtoupper+0x80>
20007408:	00001817          	auipc	a6,0x1
2000740c:	02c80813          	addi	a6,a6,44 # 20008434 <_ZL6LfnOfs+0x10>
20007410:	00259593          	slli	a1,a1,0x2
20007414:	010585b3          	add	a1,a1,a6
20007418:	0005a603          	lw	a2,0(a1)
2000741c:	01060633          	add	a2,a2,a6
20007420:	00060067          	jr	a2
20007424:	40d50533          	sub	a0,a0,a3
20007428:	00151513          	slli	a0,a0,0x1
2000742c:	00a70733          	add	a4,a4,a0
20007430:	00075783          	lhu	a5,0(a4)
20007434:	00078513          	mv	a0,a5
20007438:	00008067          	ret
2000743c:	40d786b3          	sub	a3,a5,a3
20007440:	0016f693          	andi	a3,a3,1
20007444:	40d787b3          	sub	a5,a5,a3
20007448:	01079793          	slli	a5,a5,0x10
2000744c:	0107d793          	srli	a5,a5,0x10
20007450:	fe5ff06f          	j	20007434 <ff_wtoupper+0x80>
20007454:	ff078793          	addi	a5,a5,-16 # fff0 <_start-0x1fff0010>
20007458:	ff1ff06f          	j	20007448 <ff_wtoupper+0x94>
2000745c:	fe078793          	addi	a5,a5,-32
20007460:	fe9ff06f          	j	20007448 <ff_wtoupper+0x94>
20007464:	fd078793          	addi	a5,a5,-48
20007468:	fe1ff06f          	j	20007448 <ff_wtoupper+0x94>
2000746c:	fe678793          	addi	a5,a5,-26
20007470:	fd9ff06f          	j	20007448 <ff_wtoupper+0x94>
20007474:	00878793          	addi	a5,a5,8
20007478:	fd1ff06f          	j	20007448 <ff_wtoupper+0x94>
2000747c:	fb078793          	addi	a5,a5,-80
20007480:	fc9ff06f          	j	20007448 <ff_wtoupper+0x94>
20007484:	ffffe737          	lui	a4,0xffffe
20007488:	3a070713          	addi	a4,a4,928 # ffffe3a0 <_end+0xdffeed68>
2000748c:	00e787b3          	add	a5,a5,a4
20007490:	fb9ff06f          	j	20007448 <ff_wtoupper+0x94>
20007494:	f40594e3          	bnez	a1,200073dc <ff_wtoupper+0x28>
20007498:	00161613          	slli	a2,a2,0x1
2000749c:	00c70733          	add	a4,a4,a2
200074a0:	f3dff06f          	j	200073dc <ff_wtoupper+0x28>

200074a4 <disk_status>:
200074a4:	fff50513          	addi	a0,a0,-1
200074a8:	00a03533          	snez	a0,a0
200074ac:	00008067          	ret

200074b0 <disk_initialize>:
200074b0:	00100793          	li	a5,1
200074b4:	02f51263          	bne	a0,a5,200074d8 <disk_initialize+0x28>
200074b8:	ff010113          	addi	sp,sp,-16
200074bc:	00112623          	sw	ra,12(sp)
200074c0:	d15fc0ef          	jal	ra,200041d4 <_Z13SDCardStartupv>
200074c4:	00c12083          	lw	ra,12(sp)
200074c8:	00150513          	addi	a0,a0,1
200074cc:	00153513          	seqz	a0,a0
200074d0:	01010113          	addi	sp,sp,16
200074d4:	00008067          	ret
200074d8:	00100513          	li	a0,1
200074dc:	00008067          	ret

200074e0 <disk_read>:
200074e0:	00100713          	li	a4,1
200074e4:	00e50a63          	beq	a0,a4,200074f8 <disk_read+0x18>
200074e8:	0fd57513          	andi	a0,a0,253
200074ec:	00a03533          	snez	a0,a0
200074f0:	00350513          	addi	a0,a0,3
200074f4:	00008067          	ret
200074f8:	ff010113          	addi	sp,sp,-16
200074fc:	00058513          	mv	a0,a1
20007500:	00068593          	mv	a1,a3
20007504:	00112623          	sw	ra,12(sp)
20007508:	b7dfc0ef          	jal	ra,20004084 <_Z20SDReadMultipleBlocksPhmm>
2000750c:	00c12083          	lw	ra,12(sp)
20007510:	00150513          	addi	a0,a0,1
20007514:	00153513          	seqz	a0,a0
20007518:	01010113          	addi	sp,sp,16
2000751c:	00008067          	ret

20007520 <disk_write>:
20007520:	00100713          	li	a4,1
20007524:	00e50a63          	beq	a0,a4,20007538 <disk_write+0x18>
20007528:	0fd57513          	andi	a0,a0,253
2000752c:	00a03533          	snez	a0,a0
20007530:	00350513          	addi	a0,a0,3
20007534:	00008067          	ret
20007538:	ff010113          	addi	sp,sp,-16
2000753c:	00058513          	mv	a0,a1
20007540:	00068593          	mv	a1,a3
20007544:	00112623          	sw	ra,12(sp)
20007548:	be5fc0ef          	jal	ra,2000412c <_Z21SDWriteMultipleBlocksPKhmm>
2000754c:	00c12083          	lw	ra,12(sp)
20007550:	00150513          	addi	a0,a0,1
20007554:	00153513          	seqz	a0,a0
20007558:	01010113          	addi	sp,sp,16
2000755c:	00008067          	ret

20007560 <disk_ioctl>:
20007560:	00353513          	sltiu	a0,a0,3
20007564:	00154513          	xori	a0,a0,1
20007568:	00251513          	slli	a0,a0,0x2
2000756c:	00008067          	ret

Disassembly of section .rodata:

20007570 <__clz_tab>:
20007570:	0100                	addi	s0,sp,128
20007572:	0202                	c.slli64	tp
20007574:	03030303          	lb	t1,48(t1)
20007578:	0404                	addi	s1,sp,512
2000757a:	0404                	addi	s1,sp,512
2000757c:	0404                	addi	s1,sp,512
2000757e:	0404                	addi	s1,sp,512
20007580:	0505                	addi	a0,a0,1
20007582:	0505                	addi	a0,a0,1
20007584:	0505                	addi	a0,a0,1
20007586:	0505                	addi	a0,a0,1
20007588:	0505                	addi	a0,a0,1
2000758a:	0505                	addi	a0,a0,1
2000758c:	0505                	addi	a0,a0,1
2000758e:	0505                	addi	a0,a0,1
20007590:	0606                	slli	a2,a2,0x1
20007592:	0606                	slli	a2,a2,0x1
20007594:	0606                	slli	a2,a2,0x1
20007596:	0606                	slli	a2,a2,0x1
20007598:	0606                	slli	a2,a2,0x1
2000759a:	0606                	slli	a2,a2,0x1
2000759c:	0606                	slli	a2,a2,0x1
2000759e:	0606                	slli	a2,a2,0x1
200075a0:	0606                	slli	a2,a2,0x1
200075a2:	0606                	slli	a2,a2,0x1
200075a4:	0606                	slli	a2,a2,0x1
200075a6:	0606                	slli	a2,a2,0x1
200075a8:	0606                	slli	a2,a2,0x1
200075aa:	0606                	slli	a2,a2,0x1
200075ac:	0606                	slli	a2,a2,0x1
200075ae:	0606                	slli	a2,a2,0x1
200075b0:	07070707          	0x7070707
200075b4:	07070707          	0x7070707
200075b8:	07070707          	0x7070707
200075bc:	07070707          	0x7070707
200075c0:	07070707          	0x7070707
200075c4:	07070707          	0x7070707
200075c8:	07070707          	0x7070707
200075cc:	07070707          	0x7070707
200075d0:	07070707          	0x7070707
200075d4:	07070707          	0x7070707
200075d8:	07070707          	0x7070707
200075dc:	07070707          	0x7070707
200075e0:	07070707          	0x7070707
200075e4:	07070707          	0x7070707
200075e8:	07070707          	0x7070707
200075ec:	07070707          	0x7070707
200075f0:	0808                	addi	a0,sp,16
200075f2:	0808                	addi	a0,sp,16
200075f4:	0808                	addi	a0,sp,16
200075f6:	0808                	addi	a0,sp,16
200075f8:	0808                	addi	a0,sp,16
200075fa:	0808                	addi	a0,sp,16
200075fc:	0808                	addi	a0,sp,16
200075fe:	0808                	addi	a0,sp,16
20007600:	0808                	addi	a0,sp,16
20007602:	0808                	addi	a0,sp,16
20007604:	0808                	addi	a0,sp,16
20007606:	0808                	addi	a0,sp,16
20007608:	0808                	addi	a0,sp,16
2000760a:	0808                	addi	a0,sp,16
2000760c:	0808                	addi	a0,sp,16
2000760e:	0808                	addi	a0,sp,16
20007610:	0808                	addi	a0,sp,16
20007612:	0808                	addi	a0,sp,16
20007614:	0808                	addi	a0,sp,16
20007616:	0808                	addi	a0,sp,16
20007618:	0808                	addi	a0,sp,16
2000761a:	0808                	addi	a0,sp,16
2000761c:	0808                	addi	a0,sp,16
2000761e:	0808                	addi	a0,sp,16
20007620:	0808                	addi	a0,sp,16
20007622:	0808                	addi	a0,sp,16
20007624:	0808                	addi	a0,sp,16
20007626:	0808                	addi	a0,sp,16
20007628:	0808                	addi	a0,sp,16
2000762a:	0808                	addi	a0,sp,16
2000762c:	0808                	addi	a0,sp,16
2000762e:	0808                	addi	a0,sp,16
20007630:	0808                	addi	a0,sp,16
20007632:	0808                	addi	a0,sp,16
20007634:	0808                	addi	a0,sp,16
20007636:	0808                	addi	a0,sp,16
20007638:	0808                	addi	a0,sp,16
2000763a:	0808                	addi	a0,sp,16
2000763c:	0808                	addi	a0,sp,16
2000763e:	0808                	addi	a0,sp,16
20007640:	0808                	addi	a0,sp,16
20007642:	0808                	addi	a0,sp,16
20007644:	0808                	addi	a0,sp,16
20007646:	0808                	addi	a0,sp,16
20007648:	0808                	addi	a0,sp,16
2000764a:	0808                	addi	a0,sp,16
2000764c:	0808                	addi	a0,sp,16
2000764e:	0808                	addi	a0,sp,16
20007650:	0808                	addi	a0,sp,16
20007652:	0808                	addi	a0,sp,16
20007654:	0808                	addi	a0,sp,16
20007656:	0808                	addi	a0,sp,16
20007658:	0808                	addi	a0,sp,16
2000765a:	0808                	addi	a0,sp,16
2000765c:	0808                	addi	a0,sp,16
2000765e:	0808                	addi	a0,sp,16
20007660:	0808                	addi	a0,sp,16
20007662:	0808                	addi	a0,sp,16
20007664:	0808                	addi	a0,sp,16
20007666:	0808                	addi	a0,sp,16
20007668:	0808                	addi	a0,sp,16
2000766a:	0808                	addi	a0,sp,16
2000766c:	0808                	addi	a0,sp,16
2000766e:	0808                	addi	a0,sp,16
20007670:	7542                	flw	fa0,48(sp)
20007672:	7474                	flw	fa3,108(s0)
20007674:	73206e6f          	jal	t3,2000dda6 <s_filehandles+0x2f06>
20007678:	6174                	flw	fa3,68(a0)
2000767a:	6574                	flw	fa3,76(a0)
2000767c:	6320                	flw	fs0,64(a4)
2000767e:	6168                	flw	fa0,68(a0)
20007680:	676e                	flw	fa4,216(sp)
20007682:	3a65                	jal	2000703a <f_readdir+0x1c2>
20007684:	0020                	addi	s0,sp,8
20007686:	0000                	unimp
20007688:	94e2                	add	s1,s1,s8
2000768a:	e28c                	fsw	fa1,0(a3)
2000768c:	8094                	0x8094
2000768e:	94e2                	add	s1,s1,s8
20007690:	e280                	fsw	fs0,0(a3)
20007692:	8094                	0x8094
20007694:	94e2                	add	s1,s1,s8
20007696:	e280                	fsw	fs0,0(a3)
20007698:	8094                	0x8094
2000769a:	94e2                	add	s1,s1,s8
2000769c:	e280                	fsw	fs0,0(a3)
2000769e:	8094                	0x8094
200076a0:	94e2                	add	s1,s1,s8
200076a2:	e280                	fsw	fs0,0(a3)
200076a4:	8094                	0x8094
200076a6:	94e2                	add	s1,s1,s8
200076a8:	e280                	fsw	fs0,0(a3)
200076aa:	8094                	0x8094
200076ac:	94e2                	add	s1,s1,s8
200076ae:	e280                	fsw	fs0,0(a3)
200076b0:	8094                	0x8094
200076b2:	94e2                	add	s1,s1,s8
200076b4:	e280                	fsw	fs0,0(a3)
200076b6:	8094                	0x8094
200076b8:	94e2                	add	s1,s1,s8
200076ba:	e280                	fsw	fs0,0(a3)
200076bc:	8094                	0x8094
200076be:	94e2                	add	s1,s1,s8
200076c0:	e280                	fsw	fs0,0(a3)
200076c2:	8094                	0x8094
200076c4:	94e2                	add	s1,s1,s8
200076c6:	e280                	fsw	fs0,0(a3)
200076c8:	8094                	0x8094
200076ca:	94e2                	add	s1,s1,s8
200076cc:	e280                	fsw	fs0,0(a3)
200076ce:	8094                	0x8094
200076d0:	94e2                	add	s1,s1,s8
200076d2:	e280                	fsw	fs0,0(a3)
200076d4:	8094                	0x8094
200076d6:	94e2                	add	s1,s1,s8
200076d8:	0a90                	addi	a2,sp,336
200076da:	0000                	unimp
200076dc:	94e2                	add	s1,s1,s8
200076de:	2082                	fld	ft1,0(sp)
200076e0:	2020                	fld	fs0,64(s0)
200076e2:	2020                	fld	fs0,64(s0)
200076e4:	2020                	fld	fs0,64(s0)
200076e6:	2020                	fld	fs0,64(s0)
200076e8:	e220                	fsw	fs0,64(a2)
200076ea:	9296                	add	t0,t0,t0
200076ec:	96e2                	add	a3,a3,s8
200076ee:	e292                	fsw	ft4,68(sp)
200076f0:	9296                	add	t0,t0,t0
200076f2:	96e2                	add	a3,a3,s8
200076f4:	e292                	fsw	ft4,68(sp)
200076f6:	9296                	add	t0,t0,t0
200076f8:	96e2                	add	a3,a3,s8
200076fa:	e292                	fsw	ft4,68(sp)
200076fc:	9296                	add	t0,t0,t0
200076fe:	96e2                	add	a3,a3,s8
20007700:	e292                	fsw	ft4,68(sp)
20007702:	9296                	add	t0,t0,t0
20007704:	96e2                	add	a3,a3,s8
20007706:	e292                	fsw	ft4,68(sp)
20007708:	9296                	add	t0,t0,t0
2000770a:	96e2                	add	a3,a3,s8
2000770c:	e292                	fsw	ft4,68(sp)
2000770e:	9296                	add	t0,t0,t0
20007710:	96e2                	add	a3,a3,s8
20007712:	2092                	fld	ft1,256(sp)
20007714:	94e2                	add	s1,s1,s8
20007716:	0a82                	c.slli64	s5
20007718:	0000                	unimp
2000771a:	0000                	unimp
2000771c:	94e2                	add	s1,s1,s8
2000771e:	2082                	fld	ft1,0(sp)
20007720:	96e2                	add	a3,a3,s8
20007722:	e288                	fsw	fa0,0(a3)
20007724:	8896                	mv	a7,t0
20007726:	96e2                	add	a3,a3,s8
20007728:	e288                	fsw	fa0,0(a3)
2000772a:	8896                	mv	a7,t0
2000772c:	96e2                	add	a3,a3,s8
2000772e:	e288                	fsw	fa0,0(a3)
20007730:	8896                	mv	a7,t0
20007732:	96e2                	add	a3,a3,s8
20007734:	e288                	fsw	fa0,0(a3)
20007736:	8896                	mv	a7,t0
20007738:	2020                	fld	fs0,64(s0)
2000773a:	e220                	fsw	fs0,64(a2)
2000773c:	9296                	add	t0,t0,t0
2000773e:	96e2                	add	a3,a3,s8
20007740:	e292                	fsw	ft4,68(sp)
20007742:	9296                	add	t0,t0,t0
20007744:	96e2                	add	a3,a3,s8
20007746:	e292                	fsw	ft4,68(sp)
20007748:	9296                	add	t0,t0,t0
2000774a:	96e2                	add	a3,a3,s8
2000774c:	e292                	fsw	ft4,68(sp)
2000774e:	9296                	add	t0,t0,t0
20007750:	96e2                	add	a3,a3,s8
20007752:	e292                	fsw	ft4,68(sp)
20007754:	9296                	add	t0,t0,t0
20007756:	96e2                	add	a3,a3,s8
20007758:	e292                	fsw	ft4,68(sp)
2000775a:	9296                	add	t0,t0,t0
2000775c:	96e2                	add	a3,a3,s8
2000775e:	2092                	fld	ft1,256(sp)
20007760:	94e2                	add	s1,s1,s8
20007762:	0a82                	c.slli64	s5
20007764:	0000                	unimp
20007766:	0000                	unimp
20007768:	94e2                	add	s1,s1,s8
2000776a:	2082                	fld	ft1,0(sp)
2000776c:	96e2                	add	a3,a3,s8
2000776e:	e288                	fsw	fa0,0(a3)
20007770:	8896                	mv	a7,t0
20007772:	96e2                	add	a3,a3,s8
20007774:	e288                	fsw	fa0,0(a3)
20007776:	8896                	mv	a7,t0
20007778:	96e2                	add	a3,a3,s8
2000777a:	e288                	fsw	fa0,0(a3)
2000777c:	8896                	mv	a7,t0
2000777e:	96e2                	add	a3,a3,s8
20007780:	e288                	fsw	fa0,0(a3)
20007782:	8896                	mv	a7,t0
20007784:	96e2                	add	a3,a3,s8
20007786:	2088                	fld	fa0,0(s1)
20007788:	e220                	fsw	fs0,64(a2)
2000778a:	9296                	add	t0,t0,t0
2000778c:	96e2                	add	a3,a3,s8
2000778e:	e292                	fsw	ft4,68(sp)
20007790:	9296                	add	t0,t0,t0
20007792:	96e2                	add	a3,a3,s8
20007794:	e292                	fsw	ft4,68(sp)
20007796:	9296                	add	t0,t0,t0
20007798:	96e2                	add	a3,a3,s8
2000779a:	e292                	fsw	ft4,68(sp)
2000779c:	9296                	add	t0,t0,t0
2000779e:	96e2                	add	a3,a3,s8
200077a0:	e292                	fsw	ft4,68(sp)
200077a2:	9296                	add	t0,t0,t0
200077a4:	96e2                	add	a3,a3,s8
200077a6:	e292                	fsw	ft4,68(sp)
200077a8:	9296                	add	t0,t0,t0
200077aa:	96e2                	add	a3,a3,s8
200077ac:	2092                	fld	ft1,256(sp)
200077ae:	94e2                	add	s1,s1,s8
200077b0:	0a82                	c.slli64	s5
200077b2:	0000                	unimp
200077b4:	94e2                	add	s1,s1,s8
200077b6:	2082                	fld	ft1,0(sp)
200077b8:	96e2                	add	a3,a3,s8
200077ba:	e288                	fsw	fa0,0(a3)
200077bc:	8896                	mv	a7,t0
200077be:	96e2                	add	a3,a3,s8
200077c0:	e288                	fsw	fa0,0(a3)
200077c2:	8896                	mv	a7,t0
200077c4:	96e2                	add	a3,a3,s8
200077c6:	e288                	fsw	fa0,0(a3)
200077c8:	8896                	mv	a7,t0
200077ca:	96e2                	add	a3,a3,s8
200077cc:	e288                	fsw	fa0,0(a3)
200077ce:	8896                	mv	a7,t0
200077d0:	2020                	fld	fs0,64(s0)
200077d2:	e220                	fsw	fs0,64(a2)
200077d4:	9296                	add	t0,t0,t0
200077d6:	96e2                	add	a3,a3,s8
200077d8:	e292                	fsw	ft4,68(sp)
200077da:	9296                	add	t0,t0,t0
200077dc:	96e2                	add	a3,a3,s8
200077de:	e292                	fsw	ft4,68(sp)
200077e0:	9296                	add	t0,t0,t0
200077e2:	96e2                	add	a3,a3,s8
200077e4:	e292                	fsw	ft4,68(sp)
200077e6:	9296                	add	t0,t0,t0
200077e8:	96e2                	add	a3,a3,s8
200077ea:	e292                	fsw	ft4,68(sp)
200077ec:	9296                	add	t0,t0,t0
200077ee:	96e2                	add	a3,a3,s8
200077f0:	e292                	fsw	ft4,68(sp)
200077f2:	9296                	add	t0,t0,t0
200077f4:	2020                	fld	fs0,64(s0)
200077f6:	94e2                	add	s1,s1,s8
200077f8:	0a82                	c.slli64	s5
200077fa:	0000                	unimp
200077fc:	94e2                	add	s1,s1,s8
200077fe:	2082                	fld	ft1,0(sp)
20007800:	96e2                	add	a3,a3,s8
20007802:	2088                	fld	fa0,0(s1)
20007804:	2020                	fld	fs0,64(s0)
20007806:	2020                	fld	fs0,64(s0)
20007808:	2020                	fld	fs0,64(s0)
2000780a:	e220                	fsw	fs0,64(a2)
2000780c:	9296                	add	t0,t0,t0
2000780e:	96e2                	add	a3,a3,s8
20007810:	e292                	fsw	ft4,68(sp)
20007812:	9296                	add	t0,t0,t0
20007814:	96e2                	add	a3,a3,s8
20007816:	e292                	fsw	ft4,68(sp)
20007818:	9296                	add	t0,t0,t0
2000781a:	96e2                	add	a3,a3,s8
2000781c:	e292                	fsw	ft4,68(sp)
2000781e:	9296                	add	t0,t0,t0
20007820:	96e2                	add	a3,a3,s8
20007822:	e292                	fsw	ft4,68(sp)
20007824:	9296                	add	t0,t0,t0
20007826:	96e2                	add	a3,a3,s8
20007828:	e292                	fsw	ft4,68(sp)
2000782a:	9296                	add	t0,t0,t0
2000782c:	2020                	fld	fs0,64(s0)
2000782e:	2020                	fld	fs0,64(s0)
20007830:	94e2                	add	s1,s1,s8
20007832:	0a82                	c.slli64	s5
20007834:	0000                	unimp
20007836:	0000                	unimp
20007838:	94e2                	add	s1,s1,s8
2000783a:	2082                	fld	ft1,0(sp)
2000783c:	96e2                	add	a3,a3,s8
2000783e:	e288                	fsw	fa0,0(a3)
20007840:	8896                	mv	a7,t0
20007842:	2020                	fld	fs0,64(s0)
20007844:	e220                	fsw	fs0,64(a2)
20007846:	9296                	add	t0,t0,t0
20007848:	96e2                	add	a3,a3,s8
2000784a:	e292                	fsw	ft4,68(sp)
2000784c:	9296                	add	t0,t0,t0
2000784e:	96e2                	add	a3,a3,s8
20007850:	e292                	fsw	ft4,68(sp)
20007852:	9296                	add	t0,t0,t0
20007854:	96e2                	add	a3,a3,s8
20007856:	e292                	fsw	ft4,68(sp)
20007858:	9296                	add	t0,t0,t0
2000785a:	96e2                	add	a3,a3,s8
2000785c:	e292                	fsw	ft4,68(sp)
2000785e:	9296                	add	t0,t0,t0
20007860:	96e2                	add	a3,a3,s8
20007862:	e292                	fsw	ft4,68(sp)
20007864:	9296                	add	t0,t0,t0
20007866:	96e2                	add	a3,a3,s8
20007868:	e292                	fsw	ft4,68(sp)
2000786a:	9296                	add	t0,t0,t0
2000786c:	2020                	fld	fs0,64(s0)
2000786e:	e220                	fsw	fs0,64(a2)
20007870:	8896                	mv	a7,t0
20007872:	96e2                	add	a3,a3,s8
20007874:	2088                	fld	fa0,0(s1)
20007876:	94e2                	add	s1,s1,s8
20007878:	0a82                	c.slli64	s5
2000787a:	0000                	unimp
2000787c:	94e2                	add	s1,s1,s8
2000787e:	2082                	fld	ft1,0(sp)
20007880:	96e2                	add	a3,a3,s8
20007882:	e288                	fsw	fa0,0(a3)
20007884:	8896                	mv	a7,t0
20007886:	96e2                	add	a3,a3,s8
20007888:	e288                	fsw	fa0,0(a3)
2000788a:	8896                	mv	a7,t0
2000788c:	2020                	fld	fs0,64(s0)
2000788e:	e220                	fsw	fs0,64(a2)
20007890:	9296                	add	t0,t0,t0
20007892:	96e2                	add	a3,a3,s8
20007894:	e292                	fsw	ft4,68(sp)
20007896:	9296                	add	t0,t0,t0
20007898:	96e2                	add	a3,a3,s8
2000789a:	e292                	fsw	ft4,68(sp)
2000789c:	9296                	add	t0,t0,t0
2000789e:	96e2                	add	a3,a3,s8
200078a0:	e292                	fsw	ft4,68(sp)
200078a2:	9296                	add	t0,t0,t0
200078a4:	96e2                	add	a3,a3,s8
200078a6:	e292                	fsw	ft4,68(sp)
200078a8:	9296                	add	t0,t0,t0
200078aa:	2020                	fld	fs0,64(s0)
200078ac:	e220                	fsw	fs0,64(a2)
200078ae:	8896                	mv	a7,t0
200078b0:	96e2                	add	a3,a3,s8
200078b2:	e288                	fsw	fa0,0(a3)
200078b4:	8896                	mv	a7,t0
200078b6:	96e2                	add	a3,a3,s8
200078b8:	2088                	fld	fa0,0(s1)
200078ba:	94e2                	add	s1,s1,s8
200078bc:	0a82                	c.slli64	s5
200078be:	0000                	unimp
200078c0:	94e2                	add	s1,s1,s8
200078c2:	2082                	fld	ft1,0(sp)
200078c4:	96e2                	add	a3,a3,s8
200078c6:	e288                	fsw	fa0,0(a3)
200078c8:	8896                	mv	a7,t0
200078ca:	96e2                	add	a3,a3,s8
200078cc:	e288                	fsw	fa0,0(a3)
200078ce:	8896                	mv	a7,t0
200078d0:	96e2                	add	a3,a3,s8
200078d2:	e288                	fsw	fa0,0(a3)
200078d4:	8896                	mv	a7,t0
200078d6:	2020                	fld	fs0,64(s0)
200078d8:	e220                	fsw	fs0,64(a2)
200078da:	9296                	add	t0,t0,t0
200078dc:	96e2                	add	a3,a3,s8
200078de:	e292                	fsw	ft4,68(sp)
200078e0:	9296                	add	t0,t0,t0
200078e2:	96e2                	add	a3,a3,s8
200078e4:	e292                	fsw	ft4,68(sp)
200078e6:	9296                	add	t0,t0,t0
200078e8:	2020                	fld	fs0,64(s0)
200078ea:	e220                	fsw	fs0,64(a2)
200078ec:	8896                	mv	a7,t0
200078ee:	96e2                	add	a3,a3,s8
200078f0:	e288                	fsw	fa0,0(a3)
200078f2:	8896                	mv	a7,t0
200078f4:	96e2                	add	a3,a3,s8
200078f6:	e288                	fsw	fa0,0(a3)
200078f8:	8896                	mv	a7,t0
200078fa:	96e2                	add	a3,a3,s8
200078fc:	2088                	fld	fa0,0(s1)
200078fe:	94e2                	add	s1,s1,s8
20007900:	0a82                	c.slli64	s5
20007902:	0000                	unimp
20007904:	94e2                	add	s1,s1,s8
20007906:	2082                	fld	ft1,0(sp)
20007908:	96e2                	add	a3,a3,s8
2000790a:	e288                	fsw	fa0,0(a3)
2000790c:	8896                	mv	a7,t0
2000790e:	96e2                	add	a3,a3,s8
20007910:	e288                	fsw	fa0,0(a3)
20007912:	8896                	mv	a7,t0
20007914:	96e2                	add	a3,a3,s8
20007916:	e288                	fsw	fa0,0(a3)
20007918:	8896                	mv	a7,t0
2000791a:	96e2                	add	a3,a3,s8
2000791c:	e288                	fsw	fa0,0(a3)
2000791e:	8896                	mv	a7,t0
20007920:	2020                	fld	fs0,64(s0)
20007922:	e220                	fsw	fs0,64(a2)
20007924:	9296                	add	t0,t0,t0
20007926:	2020                	fld	fs0,64(s0)
20007928:	e220                	fsw	fs0,64(a2)
2000792a:	8896                	mv	a7,t0
2000792c:	96e2                	add	a3,a3,s8
2000792e:	e288                	fsw	fa0,0(a3)
20007930:	8896                	mv	a7,t0
20007932:	96e2                	add	a3,a3,s8
20007934:	e288                	fsw	fa0,0(a3)
20007936:	8896                	mv	a7,t0
20007938:	96e2                	add	a3,a3,s8
2000793a:	e288                	fsw	fa0,0(a3)
2000793c:	8896                	mv	a7,t0
2000793e:	96e2                	add	a3,a3,s8
20007940:	2088                	fld	fa0,0(s1)
20007942:	94e2                	add	s1,s1,s8
20007944:	0a82                	c.slli64	s5
20007946:	0000                	unimp
20007948:	94e2                	add	s1,s1,s8
2000794a:	2082                	fld	ft1,0(sp)
2000794c:	96e2                	add	a3,a3,s8
2000794e:	e288                	fsw	fa0,0(a3)
20007950:	8896                	mv	a7,t0
20007952:	96e2                	add	a3,a3,s8
20007954:	e288                	fsw	fa0,0(a3)
20007956:	8896                	mv	a7,t0
20007958:	96e2                	add	a3,a3,s8
2000795a:	e288                	fsw	fa0,0(a3)
2000795c:	8896                	mv	a7,t0
2000795e:	96e2                	add	a3,a3,s8
20007960:	e288                	fsw	fa0,0(a3)
20007962:	8896                	mv	a7,t0
20007964:	96e2                	add	a3,a3,s8
20007966:	e288                	fsw	fa0,0(a3)
20007968:	8896                	mv	a7,t0
2000796a:	2020                	fld	fs0,64(s0)
2000796c:	e220                	fsw	fs0,64(a2)
2000796e:	8896                	mv	a7,t0
20007970:	96e2                	add	a3,a3,s8
20007972:	e288                	fsw	fa0,0(a3)
20007974:	8896                	mv	a7,t0
20007976:	96e2                	add	a3,a3,s8
20007978:	e288                	fsw	fa0,0(a3)
2000797a:	8896                	mv	a7,t0
2000797c:	96e2                	add	a3,a3,s8
2000797e:	e288                	fsw	fa0,0(a3)
20007980:	8896                	mv	a7,t0
20007982:	96e2                	add	a3,a3,s8
20007984:	e288                	fsw	fa0,0(a3)
20007986:	8896                	mv	a7,t0
20007988:	96e2                	add	a3,a3,s8
2000798a:	2088                	fld	fa0,0(s1)
2000798c:	94e2                	add	s1,s1,s8
2000798e:	0a82                	c.slli64	s5
20007990:	0000                	unimp
20007992:	0000                	unimp
20007994:	94e2                	add	s1,s1,s8
20007996:	2082                	fld	ft1,0(sp)
20007998:	2020                	fld	fs0,64(s0)
2000799a:	2020                	fld	fs0,64(s0)
2000799c:	2020                	fld	fs0,64(s0)
2000799e:	2020                	fld	fs0,64(s0)
200079a0:	2020                	fld	fs0,64(s0)
200079a2:	2020                	fld	fs0,64(s0)
200079a4:	2020                	fld	fs0,64(s0)
200079a6:	2020                	fld	fs0,64(s0)
200079a8:	2020                	fld	fs0,64(s0)
200079aa:	2020                	fld	fs0,64(s0)
200079ac:	2020                	fld	fs0,64(s0)
200079ae:	2020                	fld	fs0,64(s0)
200079b0:	94e2                	add	s1,s1,s8
200079b2:	0a82                	c.slli64	s5
200079b4:	0000                	unimp
200079b6:	0000                	unimp
200079b8:	94e2                	add	s1,s1,s8
200079ba:	2082                	fld	ft1,0(sp)
200079bc:	3345                	jal	2000775c <__clz_tab+0x1ec>
200079be:	4f32                	lw	t5,12(sp)
200079c0:	30762053          	0x30762053
200079c4:	312e                	fld	ft2,232(sp)
200079c6:	3636                	fld	fa2,360(sp)
200079c8:	2020                	fld	fs0,64(s0)
200079ca:	2020                	fld	fs0,64(s0)
200079cc:	2020                	fld	fs0,64(s0)
200079ce:	2020                	fld	fs0,64(s0)
200079d0:	2020                	fld	fs0,64(s0)
200079d2:	2020                	fld	fs0,64(s0)
200079d4:	94e2                	add	s1,s1,s8
200079d6:	0a82                	c.slli64	s5
200079d8:	0000                	unimp
200079da:	0000                	unimp
200079dc:	94e2                	add	s1,s1,s8
200079de:	2082                	fld	ft1,0(sp)
200079e0:	6328                	flw	fa0,64(a4)
200079e2:	3229                	jal	200072ec <f_readdir+0x474>
200079e4:	3230                	fld	fa2,96(a2)
200079e6:	2032                	fld	ft0,264(sp)
200079e8:	6e45                	lui	t3,0x11
200079ea:	206e6967          	0x206e6967
200079ee:	616c6943          	fmadd.s	fs2,fs8,fs6,fa2,unknown
200079f2:	206e7573          	csrrci	a0,0x206,28
200079f6:	2020                	fld	fs0,64(s0)
200079f8:	94e2                	add	s1,s1,s8
200079fa:	0a82                	c.slli64	s5
200079fc:	0000                	unimp
200079fe:	0000                	unimp
20007a00:	94e2                	add	s1,s1,s8
20007a02:	2082                	fld	ft1,0(sp)
20007a04:	4148                	lw	a0,4(a0)
20007a06:	5452                	lw	s0,52(sp)
20007a08:	00203a53          	fadd.s	fs4,ft0,ft2,rup
20007a0c:	94e2                	add	s1,s1,s8
20007a0e:	e294                	fsw	fa3,0(a3)
20007a10:	8094                	0x8094
20007a12:	94e2                	add	s1,s1,s8
20007a14:	e280                	fsw	fs0,0(a3)
20007a16:	8094                	0x8094
20007a18:	94e2                	add	s1,s1,s8
20007a1a:	e280                	fsw	fs0,0(a3)
20007a1c:	8094                	0x8094
20007a1e:	94e2                	add	s1,s1,s8
20007a20:	e280                	fsw	fs0,0(a3)
20007a22:	8094                	0x8094
20007a24:	94e2                	add	s1,s1,s8
20007a26:	e280                	fsw	fs0,0(a3)
20007a28:	8094                	0x8094
20007a2a:	94e2                	add	s1,s1,s8
20007a2c:	e280                	fsw	fs0,0(a3)
20007a2e:	8094                	0x8094
20007a30:	94e2                	add	s1,s1,s8
20007a32:	e280                	fsw	fs0,0(a3)
20007a34:	8094                	0x8094
20007a36:	94e2                	add	s1,s1,s8
20007a38:	e280                	fsw	fs0,0(a3)
20007a3a:	8094                	0x8094
20007a3c:	94e2                	add	s1,s1,s8
20007a3e:	e280                	fsw	fs0,0(a3)
20007a40:	8094                	0x8094
20007a42:	94e2                	add	s1,s1,s8
20007a44:	e280                	fsw	fs0,0(a3)
20007a46:	8094                	0x8094
20007a48:	94e2                	add	s1,s1,s8
20007a4a:	e280                	fsw	fs0,0(a3)
20007a4c:	8094                	0x8094
20007a4e:	94e2                	add	s1,s1,s8
20007a50:	e280                	fsw	fs0,0(a3)
20007a52:	8094                	0x8094
20007a54:	94e2                	add	s1,s1,s8
20007a56:	e280                	fsw	fs0,0(a3)
20007a58:	8094                	0x8094
20007a5a:	94e2                	add	s1,s1,s8
20007a5c:	0a98                	addi	a4,sp,336
20007a5e:	000a                	c.slli	zero,0x2
20007a60:	31335b1b          	0x31335b1b
20007a64:	1b6d                	addi	s6,s6,-5
20007a66:	6d30345b          	0x6d30345b
20007a6a:	0000                	unimp
20007a6c:	94e2                	add	s1,s1,s8
20007a6e:	e28c                	fsw	fa1,0(a3)
20007a70:	8094                	0x8094
20007a72:	94e2                	add	s1,s1,s8
20007a74:	e280                	fsw	fs0,0(a3)
20007a76:	8094                	0x8094
20007a78:	94e2                	add	s1,s1,s8
20007a7a:	e280                	fsw	fs0,0(a3)
20007a7c:	8094                	0x8094
20007a7e:	94e2                	add	s1,s1,s8
20007a80:	e280                	fsw	fs0,0(a3)
20007a82:	8094                	0x8094
20007a84:	94e2                	add	s1,s1,s8
20007a86:	e280                	fsw	fs0,0(a3)
20007a88:	8094                	0x8094
20007a8a:	94e2                	add	s1,s1,s8
20007a8c:	e280                	fsw	fs0,0(a3)
20007a8e:	8094                	0x8094
20007a90:	94e2                	add	s1,s1,s8
20007a92:	e280                	fsw	fs0,0(a3)
20007a94:	8094                	0x8094
20007a96:	94e2                	add	s1,s1,s8
20007a98:	e280                	fsw	fs0,0(a3)
20007a9a:	8094                	0x8094
20007a9c:	94e2                	add	s1,s1,s8
20007a9e:	e280                	fsw	fs0,0(a3)
20007aa0:	8094                	0x8094
20007aa2:	94e2                	add	s1,s1,s8
20007aa4:	e280                	fsw	fs0,0(a3)
20007aa6:	8094                	0x8094
20007aa8:	94e2                	add	s1,s1,s8
20007aaa:	e280                	fsw	fs0,0(a3)
20007aac:	8094                	0x8094
20007aae:	94e2                	add	s1,s1,s8
20007ab0:	e280                	fsw	fs0,0(a3)
20007ab2:	8094                	0x8094
20007ab4:	94e2                	add	s1,s1,s8
20007ab6:	e280                	fsw	fs0,0(a3)
20007ab8:	8094                	0x8094
20007aba:	94e2                	add	s1,s1,s8
20007abc:	e280                	fsw	fs0,0(a3)
20007abe:	8094                	0x8094
20007ac0:	94e2                	add	s1,s1,s8
20007ac2:	e280                	fsw	fs0,0(a3)
20007ac4:	8094                	0x8094
20007ac6:	94e2                	add	s1,s1,s8
20007ac8:	e280                	fsw	fs0,0(a3)
20007aca:	8094                	0x8094
20007acc:	94e2                	add	s1,s1,s8
20007ace:	e280                	fsw	fs0,0(a3)
20007ad0:	8094                	0x8094
20007ad2:	94e2                	add	s1,s1,s8
20007ad4:	e280                	fsw	fs0,0(a3)
20007ad6:	8094                	0x8094
20007ad8:	94e2                	add	s1,s1,s8
20007ada:	e280                	fsw	fs0,0(a3)
20007adc:	8094                	0x8094
20007ade:	94e2                	add	s1,s1,s8
20007ae0:	e280                	fsw	fs0,0(a3)
20007ae2:	8094                	0x8094
20007ae4:	94e2                	add	s1,s1,s8
20007ae6:	e280                	fsw	fs0,0(a3)
20007ae8:	8094                	0x8094
20007aea:	94e2                	add	s1,s1,s8
20007aec:	e280                	fsw	fs0,0(a3)
20007aee:	8094                	0x8094
20007af0:	94e2                	add	s1,s1,s8
20007af2:	e280                	fsw	fs0,0(a3)
20007af4:	8094                	0x8094
20007af6:	94e2                	add	s1,s1,s8
20007af8:	e280                	fsw	fs0,0(a3)
20007afa:	8094                	0x8094
20007afc:	94e2                	add	s1,s1,s8
20007afe:	e280                	fsw	fs0,0(a3)
20007b00:	8094                	0x8094
20007b02:	94e2                	add	s1,s1,s8
20007b04:	e280                	fsw	fs0,0(a3)
20007b06:	8094                	0x8094
20007b08:	94e2                	add	s1,s1,s8
20007b0a:	0a90                	addi	a2,sp,336
20007b0c:	0000                	unimp
20007b0e:	0000                	unimp
20007b10:	94e2                	add	s1,s1,s8
20007b12:	2082                	fld	ft1,0(sp)
20007b14:	6e55                	lui	t3,0x15
20007b16:	6d69                	lui	s10,0x1a
20007b18:	6c70                	flw	fa2,92(s0)
20007b1a:	6d65                	lui	s10,0x19
20007b1c:	6e65                	lui	t3,0x19
20007b1e:	6574                	flw	fa3,76(a0)
20007b20:	2064                	fld	fs1,192(s0)
20007b22:	616d                	addi	sp,sp,240
20007b24:	6e696863          	bltu	s2,t1,20008214 <__clz_tab+0xca4>
20007b28:	2065                	jal	20007bd0 <__clz_tab+0x660>
20007b2a:	4345                	li	t1,17
20007b2c:	4c41                	li	s8,16
20007b2e:	2e4c                	fld	fa1,152(a2)
20007b30:	5020                	lw	s0,96(s0)
20007b32:	6f72                	flw	ft10,28(sp)
20007b34:	6d617267          	0x6d617267
20007b38:	7720                	flw	fs0,104(a4)
20007b3a:	6c69                	lui	s8,0x1a
20007b3c:	206c                	fld	fa1,192(s0)
20007b3e:	6572                	flw	fa0,28(sp)
20007b40:	656d7573          	csrrci	a0,0x656,26
20007b44:	2020                	fld	fs0,64(s0)
20007b46:	94e2                	add	s1,s1,s8
20007b48:	0a82                	c.slli64	s5
20007b4a:	0000                	unimp
20007b4c:	94e2                	add	s1,s1,s8
20007b4e:	2082                	fld	ft1,0(sp)
20007b50:	7865                	lui	a6,0xffff9
20007b52:	6365                	lui	t1,0x19
20007b54:	7475                	lui	s0,0xffffd
20007b56:	6f69                	lui	t5,0x1a
20007b58:	2c6e                	fld	fs8,216(sp)
20007b5a:	7420                	flw	fs0,104(s0)
20007b5c:	6f68                	flw	fa0,92(a4)
20007b5e:	6775                	lui	a4,0x1d
20007b60:	2068                	fld	fa0,192(s0)
20007b62:	7469                	lui	s0,0xffffa
20007b64:	6d20                	flw	fs0,88(a0)
20007b66:	6769                	lui	a4,0x1a
20007b68:	7468                	flw	fa0,108(s0)
20007b6a:	6320                	flw	fs0,64(a4)
20007b6c:	6172                	flw	ft2,28(sp)
20007b6e:	202e6873          	csrrsi	a6,0x202,28
20007b72:	2020                	fld	fs0,64(s0)
20007b74:	2020                	fld	fs0,64(s0)
20007b76:	2020                	fld	fs0,64(s0)
20007b78:	2020                	fld	fs0,64(s0)
20007b7a:	2020                	fld	fs0,64(s0)
20007b7c:	2020                	fld	fs0,64(s0)
20007b7e:	2020                	fld	fs0,64(s0)
20007b80:	2020                	fld	fs0,64(s0)
20007b82:	94e2                	add	s1,s1,s8
20007b84:	0a82                	c.slli64	s5
20007b86:	0000                	unimp
20007b88:	94e2                	add	s1,s1,s8
20007b8a:	2082                	fld	ft1,0(sp)
20007b8c:	00000023          	sb	zero,0(zero) # 0 <_start-0x20000000>
20007b90:	4020                	lw	s0,64(s0)
20007b92:	0000                	unimp
20007b94:	2020                	fld	fs0,64(s0)
20007b96:	2020                	fld	fs0,64(s0)
20007b98:	2020                	fld	fs0,64(s0)
20007b9a:	2020                	fld	fs0,64(s0)
20007b9c:	2020                	fld	fs0,64(s0)
20007b9e:	2020                	fld	fs0,64(s0)
20007ba0:	2020                	fld	fs0,64(s0)
20007ba2:	2020                	fld	fs0,64(s0)
20007ba4:	2020                	fld	fs0,64(s0)
20007ba6:	2020                	fld	fs0,64(s0)
20007ba8:	2020                	fld	fs0,64(s0)
20007baa:	2020                	fld	fs0,64(s0)
20007bac:	2020                	fld	fs0,64(s0)
20007bae:	2020                	fld	fs0,64(s0)
20007bb0:	2020                	fld	fs0,64(s0)
20007bb2:	e220                	fsw	fs0,64(a2)
20007bb4:	8294                	0x8294
20007bb6:	000a                	c.slli	zero,0x2
20007bb8:	94e2                	add	s1,s1,s8
20007bba:	e294                	fsw	fa3,0(a3)
20007bbc:	8094                	0x8094
20007bbe:	94e2                	add	s1,s1,s8
20007bc0:	e280                	fsw	fs0,0(a3)
20007bc2:	8094                	0x8094
20007bc4:	94e2                	add	s1,s1,s8
20007bc6:	e280                	fsw	fs0,0(a3)
20007bc8:	8094                	0x8094
20007bca:	94e2                	add	s1,s1,s8
20007bcc:	e280                	fsw	fs0,0(a3)
20007bce:	8094                	0x8094
20007bd0:	94e2                	add	s1,s1,s8
20007bd2:	e280                	fsw	fs0,0(a3)
20007bd4:	8094                	0x8094
20007bd6:	94e2                	add	s1,s1,s8
20007bd8:	e280                	fsw	fs0,0(a3)
20007bda:	8094                	0x8094
20007bdc:	94e2                	add	s1,s1,s8
20007bde:	e280                	fsw	fs0,0(a3)
20007be0:	8094                	0x8094
20007be2:	94e2                	add	s1,s1,s8
20007be4:	e280                	fsw	fs0,0(a3)
20007be6:	8094                	0x8094
20007be8:	94e2                	add	s1,s1,s8
20007bea:	e280                	fsw	fs0,0(a3)
20007bec:	8094                	0x8094
20007bee:	94e2                	add	s1,s1,s8
20007bf0:	e280                	fsw	fs0,0(a3)
20007bf2:	8094                	0x8094
20007bf4:	94e2                	add	s1,s1,s8
20007bf6:	e280                	fsw	fs0,0(a3)
20007bf8:	8094                	0x8094
20007bfa:	94e2                	add	s1,s1,s8
20007bfc:	e280                	fsw	fs0,0(a3)
20007bfe:	8094                	0x8094
20007c00:	94e2                	add	s1,s1,s8
20007c02:	e280                	fsw	fs0,0(a3)
20007c04:	8094                	0x8094
20007c06:	94e2                	add	s1,s1,s8
20007c08:	e280                	fsw	fs0,0(a3)
20007c0a:	8094                	0x8094
20007c0c:	94e2                	add	s1,s1,s8
20007c0e:	e280                	fsw	fs0,0(a3)
20007c10:	8094                	0x8094
20007c12:	94e2                	add	s1,s1,s8
20007c14:	e280                	fsw	fs0,0(a3)
20007c16:	8094                	0x8094
20007c18:	94e2                	add	s1,s1,s8
20007c1a:	e280                	fsw	fs0,0(a3)
20007c1c:	8094                	0x8094
20007c1e:	94e2                	add	s1,s1,s8
20007c20:	e280                	fsw	fs0,0(a3)
20007c22:	8094                	0x8094
20007c24:	94e2                	add	s1,s1,s8
20007c26:	e280                	fsw	fs0,0(a3)
20007c28:	8094                	0x8094
20007c2a:	94e2                	add	s1,s1,s8
20007c2c:	e280                	fsw	fs0,0(a3)
20007c2e:	8094                	0x8094
20007c30:	94e2                	add	s1,s1,s8
20007c32:	e280                	fsw	fs0,0(a3)
20007c34:	8094                	0x8094
20007c36:	94e2                	add	s1,s1,s8
20007c38:	e280                	fsw	fs0,0(a3)
20007c3a:	8094                	0x8094
20007c3c:	94e2                	add	s1,s1,s8
20007c3e:	e280                	fsw	fs0,0(a3)
20007c40:	8094                	0x8094
20007c42:	94e2                	add	s1,s1,s8
20007c44:	e280                	fsw	fs0,0(a3)
20007c46:	8094                	0x8094
20007c48:	94e2                	add	s1,s1,s8
20007c4a:	e280                	fsw	fs0,0(a3)
20007c4c:	8094                	0x8094
20007c4e:	94e2                	add	s1,s1,s8
20007c50:	e280                	fsw	fs0,0(a3)
20007c52:	8094                	0x8094
20007c54:	94e2                	add	s1,s1,s8
20007c56:	0a98                	addi	a4,sp,336
20007c58:	0000                	unimp
20007c5a:	0000                	unimp
20007c5c:	6d305b1b          	0x6d305b1b
20007c60:	000a                	c.slli	zero,0x2
20007c62:	0000                	unimp
20007c64:	6d305b1b          	0x6d305b1b
20007c68:	0a0a                	slli	s4,s4,0x2
20007c6a:	0000                	unimp
20007c6c:	94e2                	add	s1,s1,s8
20007c6e:	2082                	fld	ft1,0(sp)
20007c70:	74666f53          	0x74666f53
20007c74:	65726177          	0x65726177
20007c78:	4620                	lw	s0,72(a2)
20007c7a:	6961                	lui	s2,0x18
20007c7c:	756c                	flw	fa1,108(a0)
20007c7e:	6572                	flw	fa0,28(sp)
20007c80:	202e                	fld	ft0,200(sp)
20007c82:	7250                	flw	fa2,36(a2)
20007c84:	7365                	lui	t1,0xffff9
20007c86:	65722073          	csrs	0x657,tp
20007c8a:	20746573          	csrrsi	a0,0x207,8
20007c8e:	7562                	flw	fa0,56(sp)
20007c90:	7474                	flw	fa3,108(s0)
20007c92:	74206e6f          	jal	t3,2000e3d4 <s_filehandles+0x3534>
20007c96:	6f63206f          	j	2003a38c <_end+0x2ad54>
20007c9a:	746e                	flw	fs0,248(sp)
20007c9c:	6e69                	lui	t3,0x1a
20007c9e:	6575                	lui	a0,0x1d
20007ca0:	202e                	fld	ft0,200(sp)
20007ca2:	94e2                	add	s1,s1,s8
20007ca4:	0a82                	c.slli64	s5
20007ca6:	0000                	unimp
20007ca8:	94e2                	add	s1,s1,s8
20007caa:	2082                	fld	ft1,0(sp)
20007cac:	2020                	fld	fs0,64(s0)
20007cae:	75727547          	0x75727547
20007cb2:	4d20                	lw	s0,88(a0)
20007cb4:	6465                	lui	s0,0x19
20007cb6:	7469                	lui	s0,0xffffa
20007cb8:	7461                	lui	s0,0xffff8
20007cba:	6f69                	lui	t5,0x1a
20007cbc:	206e                	fld	ft0,216(sp)
20007cbe:	002e0023          	sb	sp,0(t3) # 1a000 <_start-0x1ffe6000>
20007cc2:	0000                	unimp
20007cc4:	32335b1b          	0x32335b1b
20007cc8:	006d                	c.nop	27
20007cca:	0000                	unimp
20007ccc:	33335b1b          	0x33335b1b
20007cd0:	006d                	c.nop	27
20007cd2:	0000                	unimp
20007cd4:	3c20                	fld	fs0,120(s0)
20007cd6:	6964                	flw	fs1,84(a0)
20007cd8:	3e72                	fld	ft8,312(sp)
20007cda:	0000                	unimp
20007cdc:	0062                	c.slli	zero,0x18
20007cde:	0000                	unimp
20007ce0:	1b485b1b          	0x1b485b1b
20007ce4:	1b6d305b          	0x1b6d305b
20007ce8:	004a325b          	0x4a325b
20007cec:	6620                	flw	fs0,72(a2)
20007cee:	6961                	lui	s2,0x18
20007cf0:	656c                	flw	fa1,76(a0)
20007cf2:	3a64                	fld	fs1,240(a2)
20007cf4:	6520                	flw	fs0,72(a0)
20007cf6:	7078                	flw	fa4,100(s0)
20007cf8:	6365                	lui	t1,0x19
20007cfa:	6974                	flw	fa3,84(a0)
20007cfc:	676e                	flw	fa4,216(sp)
20007cfe:	3020                	fld	fs0,96(s0)
20007d00:	3778                	fld	fa4,232(a4)
20007d02:	2b46                	fld	fs6,80(sp)
20007d04:	464c4527          	fsq	ft4,1130(s8) # 1a46a <_start-0x1ffe5b96>
20007d08:	00000027          	0x27
20007d0c:	003a6473          	csrrsi	s0,fcsr,20
20007d10:	7845                	lui	a6,0xffff1
20007d12:	6365                	lui	t1,0x19
20007d14:	7475                	lui	s0,0xffffd
20007d16:	6261                	lui	tp,0x18
20007d18:	656c                	flw	fa1,76(a0)
20007d1a:	2720                	fld	fs0,72(a4)
20007d1c:	0000                	unimp
20007d1e:	0000                	unimp
20007d20:	6f6e2027          	fsw	fs6,1760(t3)
20007d24:	2074                	fld	fa3,192(s0)
20007d26:	6f66                	flw	ft10,88(sp)
20007d28:	6e75                	lui	t3,0x1d
20007d2a:	2e64                	fld	fs1,216(a2)
20007d2c:	000a                	c.slli	zero,0x2
20007d2e:	0000                	unimp
20007d30:	6568                	flw	fa0,76(a0)
20007d32:	706c                	flw	fa1,100(s0)
20007d34:	0000                	unimp
20007d36:	0000                	unimp
20007d38:	34335b1b          	0x34335b1b
20007d3c:	1b6d                	addi	s6,s6,-5
20007d3e:	6d37345b          	0x6d37345b
20007d42:	6d375b1b          	0x6d375b1b
20007d46:	6964                	flw	fs1,84(a0)
20007d48:	1b72                	slli	s6,s6,0x3c
20007d4a:	3a6d305b          	0x3a6d305b
20007d4e:	7320                	flw	fs0,96(a4)
20007d50:	6f68                	flw	fa0,92(a4)
20007d52:	696c2077          	0x696c2077
20007d56:	6f207473          	csrrci	s0,0x6f2,0
20007d5a:	2066                	fld	ft0,88(sp)
20007d5c:	6966                	flw	fs2,88(sp)
20007d5e:	656c                	flw	fa1,76(a0)
20007d60:	6e692073          	csrs	0x6e6,s2
20007d64:	7720                	flw	fs0,104(a4)
20007d66:	696b726f          	jal	tp,200bf3fc <_end+0xafdc4>
20007d6a:	676e                	flw	fa4,216(sp)
20007d6c:	6420                	flw	fs0,72(s0)
20007d6e:	7269                	lui	tp,0xffffa
20007d70:	6365                	lui	t1,0x19
20007d72:	6f74                	flw	fa3,92(a4)
20007d74:	7972                	flw	fs2,60(sp)
20007d76:	000a                	c.slli	zero,0x2
20007d78:	34335b1b          	0x34335b1b
20007d7c:	1b6d                	addi	s6,s6,-5
20007d7e:	6d37345b          	0x6d37345b
20007d82:	6d375b1b          	0x6d375b1b
20007d86:	1b647763          	bgeu	s0,s6,20007f34 <__clz_tab+0x9c4>
20007d8a:	3a6d305b          	0x3a6d305b
20007d8e:	6320                	flw	fs0,64(a4)
20007d90:	6168                	flw	fa0,68(a0)
20007d92:	676e                	flw	fa4,216(sp)
20007d94:	2065                	jal	20007e3c <__clz_tab+0x8cc>
20007d96:	6b726f77          	0x6b726f77
20007d9a:	6e69                	lui	t3,0x1a
20007d9c:	69642067          	0x69642067
20007da0:	6572                	flw	fa0,28(sp)
20007da2:	726f7463          	bgeu	t5,t1,200084ca <_ZL5uc437+0x72>
20007da6:	0a79                	addi	s4,s4,30
20007da8:	0000                	unimp
20007daa:	0000                	unimp
20007dac:	34335b1b          	0x34335b1b
20007db0:	1b6d                	addi	s6,s6,-5
20007db2:	6d37345b          	0x6d37345b
20007db6:	6d375b1b          	0x6d375b1b
20007dba:	7770                	flw	fa2,108(a4)
20007dbc:	1b64                	addi	s1,sp,444
20007dbe:	3a6d305b          	0x3a6d305b
20007dc2:	7320                	flw	fs0,96(a4)
20007dc4:	6f68                	flw	fa0,92(a4)
20007dc6:	6f772077          	0x6f772077
20007dca:	6b72                	flw	fs6,28(sp)
20007dcc:	6e69                	lui	t3,0x1a
20007dce:	69642067          	0x69642067
20007dd2:	6572                	flw	fa0,28(sp)
20007dd4:	726f7463          	bgeu	t5,t1,200084fc <_ZL5uc437+0xa4>
20007dd8:	0a79                	addi	s4,s4,30
20007dda:	0000                	unimp
20007ddc:	34335b1b          	0x34335b1b
20007de0:	1b6d                	addi	s6,s6,-5
20007de2:	6d37345b          	0x6d37345b
20007de6:	6d375b1b          	0x6d375b1b
20007dea:	1b736c63          	bltu	t1,s7,20007fa2 <__clz_tab+0xa32>
20007dee:	3a6d305b          	0x3a6d305b
20007df2:	6320                	flw	fs0,64(a4)
20007df4:	656c                	flw	fa1,76(a0)
20007df6:	7261                	lui	tp,0xffff8
20007df8:	7620                	flw	fs0,104(a2)
20007dfa:	7369                	lui	t1,0xffffa
20007dfc:	6269                	lui	tp,0x1a
20007dfe:	656c                	flw	fa1,76(a0)
20007e00:	7020                	flw	fs0,96(s0)
20007e02:	6974726f          	jal	tp,2004fc98 <_end+0x40660>
20007e06:	6f206e6f          	jal	t3,2000e4f8 <s_filehandles+0x3658>
20007e0a:	2066                	fld	ft0,88(sp)
20007e0c:	6574                	flw	fa3,76(a0)
20007e0e:	6d72                	flw	fs10,28(sp)
20007e10:	6e69                	lui	t3,0x1a
20007e12:	6c61                	lui	s8,0x18
20007e14:	000a                	c.slli	zero,0x2
20007e16:	0000                	unimp
20007e18:	34335b1b          	0x34335b1b
20007e1c:	1b6d                	addi	s6,s6,-5
20007e1e:	6d37345b          	0x6d37345b
20007e22:	6d375b1b          	0x6d375b1b
20007e26:	706f7473          	csrrci	s0,0x706,30
20007e2a:	6d305b1b          	0x6d305b1b
20007e2e:	203a                	fld	ft0,392(sp)
20007e30:	7865                	lui	a6,0xffff9
20007e32:	7469                	lui	s0,0xffffa
20007e34:	6d20                	flw	fs0,88(a0)
20007e36:	6961                	lui	s2,0x18
20007e38:	206e                	fld	ft0,216(sp)
20007e3a:	6c20534f          	0x6c20534f
20007e3e:	0a706f6f          	jal	t5,2000e6e4 <s_filehandles+0x3844>
20007e42:	0000                	unimp
20007e44:	00647763          	bgeu	s0,t1,20007e52 <__clz_tab+0x8e2>
20007e48:	7770                	flw	fa2,108(a4)
20007e4a:	0064                	addi	s1,sp,12
20007e4c:	6964                	flw	fs1,84(a0)
20007e4e:	0072                	c.slli	zero,0x1c
20007e50:	00736c63          	bltu	t1,t2,20007e68 <__clz_tab+0x8f8>
20007e54:	706f7473          	csrrci	s0,0x706,30
20007e58:	0000                	unimp
20007e5a:	0000                	unimp
20007e5c:	7561                	lui	a0,0xffff8
20007e5e:	6f74                	flw	fa3,92(a4)
20007e60:	7865                	lui	a6,0xffff9
20007e62:	6365                	lui	t1,0x19
20007e64:	652e                	flw	fa0,200(sp)
20007e66:	666c                	flw	fa1,76(a2)
20007e68:	0000                	unimp
20007e6a:	0000                	unimp
20007e6c:	63637553          	0x63637553
20007e70:	6565                	lui	a0,0x19
20007e72:	6564                	flw	fs1,76(a0)
20007e74:	0a64                	addi	s1,sp,284
20007e76:	0000                	unimp
20007e78:	2041                	jal	20007ef8 <__clz_tab+0x988>
20007e7a:	6168                	flw	fa0,68(a0)
20007e7c:	6472                	flw	fs0,28(sp)
20007e7e:	6520                	flw	fs0,72(a0)
20007e80:	7272                	flw	ft4,60(sp)
20007e82:	6f20726f          	jal	tp,2000f574 <_ZL6LfnBuf+0x140>
20007e86:	72756363          	bltu	a0,t2,200085ac <_ZZ11ff_wtoupperE4cvt1+0x54>
20007e8a:	6572                	flw	fa0,28(sp)
20007e8c:	2064                	fld	fs1,192(s0)
20007e8e:	6e69                	lui	t3,0x1a
20007e90:	7420                	flw	fs0,104(s0)
20007e92:	6568                	flw	fa0,76(a0)
20007e94:	6c20                	flw	fs0,88(s0)
20007e96:	6c20776f          	jal	a4,2000f558 <_ZL6LfnBuf+0x124>
20007e9a:	7665                	lui	a2,0xffff9
20007e9c:	6c65                	lui	s8,0x19
20007e9e:	6420                	flw	fs0,72(s0)
20007ea0:	7369                	lui	t1,0xffffa
20007ea2:	2f49206b          	0x2f49206b
20007ea6:	616c204f          	fnmadd.s	ft0,fs8,fs6,fa2,rdn
20007eaa:	6579                	lui	a0,0x1e
20007eac:	0a72                	slli	s4,s4,0x1c
20007eae:	0000                	unimp
20007eb0:	7341                	lui	t1,0xffff0
20007eb2:	74726573          	csrrsi	a0,0x747,4
20007eb6:	6f69                	lui	t5,0x1a
20007eb8:	206e                	fld	ft0,216(sp)
20007eba:	6166                	flw	ft2,88(sp)
20007ebc:	6c69                	lui	s8,0x1a
20007ebe:	6465                	lui	s0,0x19
20007ec0:	000a                	c.slli	zero,0x2
20007ec2:	0000                	unimp
20007ec4:	6854                	flw	fa3,20(s0)
20007ec6:	2065                	jal	20007f6e <__clz_tab+0x9fe>
20007ec8:	6870                	flw	fa2,84(s0)
20007eca:	7379                	lui	t1,0xffffe
20007ecc:	6369                	lui	t1,0x1a
20007ece:	6c61                	lui	s8,0x18
20007ed0:	6420                	flw	fs0,72(s0)
20007ed2:	6972                	flw	fs2,28(sp)
20007ed4:	6576                	flw	fa0,92(sp)
20007ed6:	6320                	flw	fs0,64(a4)
20007ed8:	6e61                	lui	t3,0x18
20007eda:	6f6e                	flw	ft10,216(sp)
20007edc:	2074                	fld	fa3,192(s0)
20007ede:	6b726f77          	0x6b726f77
20007ee2:	000a                	c.slli	zero,0x2
20007ee4:	6c756f43          	0x6c756f43
20007ee8:	2064                	fld	fs1,192(s0)
20007eea:	6f6e                	flw	ft10,216(sp)
20007eec:	2074                	fld	fa3,192(s0)
20007eee:	6966                	flw	fs2,88(sp)
20007ef0:	646e                	flw	fs0,216(sp)
20007ef2:	7420                	flw	fs0,104(s0)
20007ef4:	6568                	flw	fa0,76(a0)
20007ef6:	6620                	flw	fs0,72(a2)
20007ef8:	6c69                	lui	s8,0x1a
20007efa:	0a65                	addi	s4,s4,25
20007efc:	0000                	unimp
20007efe:	0000                	unimp
20007f00:	6c756f43          	0x6c756f43
20007f04:	2064                	fld	fs1,192(s0)
20007f06:	6f6e                	flw	ft10,216(sp)
20007f08:	2074                	fld	fa3,192(s0)
20007f0a:	6966                	flw	fs2,88(sp)
20007f0c:	646e                	flw	fs0,216(sp)
20007f0e:	7420                	flw	fs0,104(s0)
20007f10:	6568                	flw	fa0,76(a0)
20007f12:	7020                	flw	fs0,96(s0)
20007f14:	7461                	lui	s0,0xffff8
20007f16:	0a68                	addi	a0,sp,284
20007f18:	0000                	unimp
20007f1a:	0000                	unimp
20007f1c:	6854                	flw	fa3,20(s0)
20007f1e:	2065                	jal	20007fc6 <__clz_tab+0xa56>
20007f20:	6170                	flw	fa2,68(a0)
20007f22:	6874                	flw	fa3,84(s0)
20007f24:	6e20                	flw	fs0,88(a2)
20007f26:	6d61                	lui	s10,0x18
20007f28:	2065                	jal	20007fd0 <__clz_tab+0xa60>
20007f2a:	6f66                	flw	ft10,88(sp)
20007f2c:	6d72                	flw	fs10,28(sp)
20007f2e:	7461                	lui	s0,0xffff8
20007f30:	6920                	flw	fs0,80(a0)
20007f32:	6e692073          	csrs	0x6e6,s2
20007f36:	6176                	flw	ft2,92(sp)
20007f38:	696c                	flw	fa1,84(a0)
20007f3a:	0a64                	addi	s1,sp,284
20007f3c:	0000                	unimp
20007f3e:	0000                	unimp
20007f40:	6341                	lui	t1,0x10
20007f42:	73736563          	bltu	t1,s7,2000866c <_ZZ11ff_wtoupperE4cvt1+0x114>
20007f46:	6420                	flw	fs0,72(s0)
20007f48:	6e65                	lui	t3,0x19
20007f4a:	6569                	lui	a0,0x1a
20007f4c:	2064                	fld	fs1,192(s0)
20007f4e:	7564                	flw	fs1,108(a0)
20007f50:	2065                	jal	20007ff8 <__clz_tab+0xa88>
20007f52:	6f74                	flw	fa3,92(a4)
20007f54:	7020                	flw	fs0,96(s0)
20007f56:	6f72                	flw	ft10,28(sp)
20007f58:	6968                	flw	fa0,84(a0)
20007f5a:	6962                	flw	fs2,24(sp)
20007f5c:	6574                	flw	fa3,76(a0)
20007f5e:	2064                	fld	fs1,192(s0)
20007f60:	6361                	lui	t1,0x18
20007f62:	73736563          	bltu	t1,s7,2000868c <_ZZ11ff_wtoupperE4cvt1+0x134>
20007f66:	6f20                	flw	fs0,88(a4)
20007f68:	2072                	fld	ft0,280(sp)
20007f6a:	6964                	flw	fs1,84(a0)
20007f6c:	6572                	flw	fa0,28(sp)
20007f6e:	726f7463          	bgeu	t5,t1,20008696 <_ZZ11ff_wtoupperE4cvt1+0x13e>
20007f72:	2079                	jal	20008000 <__clz_tab+0xa90>
20007f74:	7566                	flw	fa0,120(sp)
20007f76:	6c6c                	flw	fa1,92(s0)
20007f78:	000a                	c.slli	zero,0x2
20007f7a:	0000                	unimp
20007f7c:	6341                	lui	t1,0x10
20007f7e:	73736563          	bltu	t1,s7,200086a8 <_ZZ11ff_wtoupperE4cvt1+0x150>
20007f82:	6420                	flw	fs0,72(s0)
20007f84:	6e65                	lui	t3,0x19
20007f86:	6569                	lui	a0,0x1a
20007f88:	2064                	fld	fs1,192(s0)
20007f8a:	7564                	flw	fs1,108(a0)
20007f8c:	2065                	jal	20008034 <__clz_tab+0xac4>
20007f8e:	6f74                	flw	fa3,92(a4)
20007f90:	7020                	flw	fs0,96(s0)
20007f92:	6f72                	flw	ft10,28(sp)
20007f94:	6968                	flw	fa0,84(a0)
20007f96:	6962                	flw	fs2,24(sp)
20007f98:	6574                	flw	fa3,76(a0)
20007f9a:	2064                	fld	fs1,192(s0)
20007f9c:	6361                	lui	t1,0x18
20007f9e:	73736563          	bltu	t1,s7,200086c8 <_ZZ11ff_wtoupperE4cvt1+0x170>
20007fa2:	000a                	c.slli	zero,0x2
20007fa4:	6854                	flw	fa3,20(s0)
20007fa6:	2065                	jal	2000804e <__clz_tab+0xade>
20007fa8:	6966                	flw	fs2,88(sp)
20007faa:	656c                	flw	fa1,76(a0)
20007fac:	7269642f          	0x7269642f
20007fb0:	6365                	lui	t1,0x19
20007fb2:	6f74                	flw	fa3,92(a4)
20007fb4:	7972                	flw	fs2,60(sp)
20007fb6:	6f20                	flw	fs0,88(a4)
20007fb8:	6a62                	flw	fs4,24(sp)
20007fba:	6365                	lui	t1,0x19
20007fbc:	2074                	fld	fa3,192(s0)
20007fbe:	7369                	lui	t1,0xffffa
20007fc0:	6920                	flw	fs0,80(a0)
20007fc2:	766e                	flw	fa2,248(sp)
20007fc4:	6c61                	lui	s8,0x18
20007fc6:	6469                	lui	s0,0x1a
20007fc8:	000a                	c.slli	zero,0x2
20007fca:	0000                	unimp
20007fcc:	6854                	flw	fa3,20(s0)
20007fce:	2065                	jal	20008076 <__clz_tab+0xb06>
20007fd0:	6870                	flw	fa2,84(s0)
20007fd2:	7379                	lui	t1,0xffffe
20007fd4:	6369                	lui	t1,0x1a
20007fd6:	6c61                	lui	s8,0x18
20007fd8:	6420                	flw	fs0,72(s0)
20007fda:	6972                	flw	fs2,28(sp)
20007fdc:	6576                	flw	fa0,92(sp)
20007fde:	6920                	flw	fs0,80(a0)
20007fe0:	72772073          	csrs	0x727,a4
20007fe4:	7469                	lui	s0,0xffffa
20007fe6:	2065                	jal	2000808e <__clz_tab+0xb1e>
20007fe8:	7270                	flw	fa2,100(a2)
20007fea:	6365746f          	jal	s0,2005f620 <_end+0x4ffe8>
20007fee:	6574                	flw	fa3,76(a0)
20007ff0:	0a64                	addi	s1,sp,284
20007ff2:	0000                	unimp
20007ff4:	6854                	flw	fa3,20(s0)
20007ff6:	2065                	jal	2000809e <__clz_tab+0xb2e>
20007ff8:	6f6c                	flw	fa1,92(a4)
20007ffa:	61636967          	0x61636967
20007ffe:	206c                	fld	fa1,192(s0)
20008000:	7264                	flw	fs1,100(a2)
20008002:	7669                	lui	a2,0xffffa
20008004:	2065                	jal	200080ac <__clz_tab+0xb3c>
20008006:	756e                	flw	fa0,248(sp)
20008008:	626d                	lui	tp,0x1b
2000800a:	7265                	lui	tp,0xffff9
2000800c:	6920                	flw	fs0,80(a0)
2000800e:	6e692073          	csrs	0x6e6,s2
20008012:	6176                	flw	ft2,92(sp)
20008014:	696c                	flw	fa1,84(a0)
20008016:	0a64                	addi	s1,sp,284
20008018:	0000                	unimp
2000801a:	0000                	unimp
2000801c:	6854                	flw	fa3,20(s0)
2000801e:	2065                	jal	200080c6 <__clz_tab+0xb56>
20008020:	6f76                	flw	ft10,92(sp)
20008022:	756c                	flw	fa1,108(a0)
20008024:	656d                	lui	a0,0x1b
20008026:	6820                	flw	fs0,80(s0)
20008028:	7361                	lui	t1,0xffff8
2000802a:	6e20                	flw	fs0,88(a2)
2000802c:	6f77206f          	j	2007af22 <_end+0x6b8ea>
20008030:	6b72                	flw	fs6,28(sp)
20008032:	6120                	flw	fs0,64(a0)
20008034:	6572                	flw	fa0,28(sp)
20008036:	0a61                	addi	s4,s4,24
20008038:	0000                	unimp
2000803a:	0000                	unimp
2000803c:	6854                	flw	fa3,20(s0)
2000803e:	7265                	lui	tp,0xffff9
20008040:	2065                	jal	200080e8 <__clz_tab+0xb78>
20008042:	7369                	lui	t1,0xffffa
20008044:	6e20                	flw	fs0,88(a2)
20008046:	6176206f          	j	2006ae5c <_end+0x5b824>
2000804a:	696c                	flw	fa1,84(a0)
2000804c:	2064                	fld	fs1,192(s0)
2000804e:	4146                	lw	sp,80(sp)
20008050:	2054                	fld	fa3,128(s0)
20008052:	6f76                	flw	ft10,92(sp)
20008054:	756c                	flw	fa1,108(a0)
20008056:	656d                	lui	a0,0x1b
20008058:	000a                	c.slli	zero,0x2
2000805a:	0000                	unimp
2000805c:	6854                	flw	fa3,20(s0)
2000805e:	2065                	jal	20008106 <__clz_tab+0xb96>
20008060:	5f66                	lw	t5,120(sp)
20008062:	6b6d                	lui	s6,0x1b
20008064:	7366                	flw	ft6,120(sp)
20008066:	2928                	fld	fa0,80(a0)
20008068:	6120                	flw	fs0,64(a0)
2000806a:	6f62                	flw	ft10,24(sp)
2000806c:	7472                	flw	fs0,60(sp)
2000806e:	6465                	lui	s0,0x19
20008070:	6420                	flw	fs0,72(s0)
20008072:	6575                	lui	a0,0x1d
20008074:	7420                	flw	fs0,104(s0)
20008076:	6e61206f          	j	2001a75c <_end+0xb124>
2000807a:	2079                	jal	20008108 <__clz_tab+0xb98>
2000807c:	7270                	flw	fa2,100(a2)
2000807e:	656c626f          	jal	tp,200ce6d4 <_end+0xbf09c>
20008082:	0a6d                	addi	s4,s4,27
20008084:	0000                	unimp
20008086:	0000                	unimp
20008088:	6c756f43          	0x6c756f43
2000808c:	2064                	fld	fs1,192(s0)
2000808e:	6f6e                	flw	ft10,216(sp)
20008090:	2074                	fld	fa3,192(s0)
20008092:	20746567          	0x20746567
20008096:	2061                	jal	2000811e <__clz_tab+0xbae>
20008098:	6e617267          	0x6e617267
2000809c:	2074                	fld	fa3,192(s0)
2000809e:	6f74                	flw	fa3,92(a4)
200080a0:	6120                	flw	fs0,64(a0)
200080a2:	73656363          	bltu	a0,s6,200087c8 <_ZZ11ff_wtoupperE4cvt2+0x7c>
200080a6:	68742073          	csrs	0x687,s0
200080aa:	2065                	jal	20008152 <__clz_tab+0xbe2>
200080ac:	6f76                	flw	ft10,92(sp)
200080ae:	756c                	flw	fa1,108(a0)
200080b0:	656d                	lui	a0,0x1b
200080b2:	7720                	flw	fs0,104(a4)
200080b4:	7469                	lui	s0,0xffffa
200080b6:	6968                	flw	fa0,84(a0)
200080b8:	206e                	fld	ft0,216(sp)
200080ba:	6564                	flw	fs1,76(a0)
200080bc:	6966                	flw	fs2,88(sp)
200080be:	656e                	flw	fa0,216(sp)
200080c0:	2064                	fld	fs1,192(s0)
200080c2:	6570                	flw	fa2,76(a0)
200080c4:	6972                	flw	fs2,28(sp)
200080c6:	000a646f          	jal	s0,200ae0c6 <_end+0x9ea8e>
200080ca:	0000                	unimp
200080cc:	6854                	flw	fa3,20(s0)
200080ce:	2065                	jal	20008176 <__clz_tab+0xc06>
200080d0:	7265706f          	j	2005f7f6 <_end+0x501be>
200080d4:	7461                	lui	s0,0xffff8
200080d6:	6f69                	lui	t5,0x1a
200080d8:	206e                	fld	ft0,216(sp)
200080da:	7369                	lui	t1,0xffffa
200080dc:	7220                	flw	fs0,96(a2)
200080de:	6a65                	lui	s4,0x19
200080e0:	6365                	lui	t1,0x19
200080e2:	6574                	flw	fa3,76(a0)
200080e4:	2064                	fld	fs1,192(s0)
200080e6:	6361                	lui	t1,0x18
200080e8:	64726f63          	bltu	tp,t2,20008746 <_ZZ11ff_wtoupperE4cvt1+0x1ee>
200080ec:	6e69                	lui	t3,0x1a
200080ee:	6f742067          	0x6f742067
200080f2:	7420                	flw	fs0,104(s0)
200080f4:	6568                	flw	fa0,76(a0)
200080f6:	6620                	flw	fs0,72(a2)
200080f8:	6c69                	lui	s8,0x1a
200080fa:	2065                	jal	200081a2 <__clz_tab+0xc32>
200080fc:	72616873          	csrrsi	a6,0x726,2
20008100:	6e69                	lui	t3,0x1a
20008102:	6f702067          	0x6f702067
20008106:	696c                	flw	fa1,84(a0)
20008108:	000a7963          	bgeu	s4,zero,2000811a <__clz_tab+0xbaa>
2000810c:	464c                	lw	a1,12(a2)
2000810e:	204e                	fld	ft0,208(sp)
20008110:	6b726f77          	0x6b726f77
20008114:	6e69                	lui	t3,0x1a
20008116:	75622067          	0x75622067
2000811a:	6666                	flw	fa2,88(sp)
2000811c:	7265                	lui	tp,0xffff9
2000811e:	6320                	flw	fs0,64(a4)
20008120:	646c756f          	jal	a0,200cf766 <_end+0xc012e>
20008124:	6e20                	flw	fs0,88(a2)
20008126:	6220746f          	jal	s0,2000f748 <_end+0x110>
2000812a:	2065                	jal	200081d2 <__clz_tab+0xc62>
2000812c:	6c61                	lui	s8,0x18
2000812e:	6f6c                	flw	fa1,92(a4)
20008130:	65746163          	bltu	s0,s7,20008772 <_ZZ11ff_wtoupperE4cvt2+0x26>
20008134:	0a64                	addi	s1,sp,284
20008136:	0000                	unimp
20008138:	754e                	flw	fa0,240(sp)
2000813a:	626d                	lui	tp,0x1b
2000813c:	7265                	lui	tp,0xffff9
2000813e:	6f20                	flw	fs0,88(a4)
20008140:	2066                	fld	ft0,88(sp)
20008142:	6e65706f          	j	2005f828 <_end+0x501f0>
20008146:	6620                	flw	fs0,72(a2)
20008148:	6c69                	lui	s8,0x1a
2000814a:	7365                	lui	t1,0xffff9
2000814c:	3e20                	fld	fs0,120(a2)
2000814e:	4620                	lw	s0,72(a2)
20008150:	5f46                	lw	t5,112(sp)
20008152:	5346                	lw	t1,112(sp)
20008154:	4c5f 434f 0a4b      	0xa4b434f4c5f
2000815a:	0000                	unimp
2000815c:	65766947          	0x65766947
20008160:	206e                	fld	ft0,216(sp)
20008162:	6170                	flw	fa2,68(a0)
20008164:	6172                	flw	ft2,28(sp)
20008166:	656d                	lui	a0,0x1b
20008168:	6574                	flw	fa3,76(a0)
2000816a:	2072                	fld	ft0,280(sp)
2000816c:	7369                	lui	t1,0xffffa
2000816e:	6920                	flw	fs0,80(a0)
20008170:	766e                	flw	fa2,248(sp)
20008172:	6c61                	lui	s8,0x18
20008174:	6469                	lui	s0,0x1a
20008176:	000a                	c.slli	zero,0x2
20008178:	3130                	fld	fa2,96(a0)
2000817a:	3332                	fld	ft6,296(sp)
2000817c:	3534                	fld	fa3,104(a0)
2000817e:	3736                	fld	fa4,360(sp)
20008180:	3938                	fld	fa4,112(a0)
20008182:	4241                	li	tp,16
20008184:	46454443          	fmadd.q	fs0,fa0,ft4,fs0,rmm
20008188:	0000                	unimp
2000818a:	0000                	unimp
2000818c:	2020                	fld	fs0,64(s0)
2000818e:	2020                	fld	fs0,64(s0)
20008190:	2020                	fld	fs0,64(s0)
20008192:	2020                	fld	fs0,64(s0)
20008194:	0000                	unimp
20008196:	0000                	unimp
20008198:	3130                	fld	fa2,96(a0)
2000819a:	3332                	fld	ft6,296(sp)
2000819c:	3534                	fld	fa3,104(a0)
2000819e:	3736                	fld	fa4,360(sp)
200081a0:	3938                	fld	fa4,112(a0)
200081a2:	0000                	unimp
200081a4:	2020                	fld	fs0,64(s0)
200081a6:	2020                	fld	fs0,64(s0)
200081a8:	2020                	fld	fs0,64(s0)
200081aa:	2020                	fld	fs0,64(s0)
200081ac:	2020                	fld	fs0,64(s0)
200081ae:	2020                	fld	fs0,64(s0)
200081b0:	2020                	fld	fs0,64(s0)
200081b2:	2020                	fld	fs0,64(s0)
200081b4:	2020                	fld	fs0,64(s0)
200081b6:	0020                	addi	s0,sp,8
200081b8:	64494453          	0x64494453
200081bc:	656c                	flw	fa1,76(a0)
200081be:	6520                	flw	fs0,72(a0)
200081c0:	7078                	flw	fa4,100(s0)
200081c2:	6365                	lui	t1,0x19
200081c4:	6574                	flw	fa3,76(a0)
200081c6:	2064                	fld	fs1,192(s0)
200081c8:	7830                	flw	fa2,112(s0)
200081ca:	3130                	fld	fa2,96(a0)
200081cc:	202c                	fld	fa1,64(s0)
200081ce:	20746f67          	0x20746f67
200081d2:	7830                	flw	fa2,112(s0)
200081d4:	0000                	unimp
200081d6:	0000                	unimp
200081d8:	68434453          	0x68434453
200081dc:	6365                	lui	t1,0x19
200081de:	6c6f566b          	0x6c6f566b
200081e2:	6174                	flw	fa3,68(a0)
200081e4:	61526567          	0x61526567
200081e8:	676e                	flw	fa4,216(sp)
200081ea:	2065                	jal	20008292 <__clz_tab+0xd22>
200081ec:	7865                	lui	a6,0xffff9
200081ee:	6570                	flw	fa2,76(a0)
200081f0:	64657463          	bgeu	a0,t1,20008838 <_etext+0x30>
200081f4:	3020                	fld	fs0,96(s0)
200081f6:	3078                	fld	fa4,224(s0)
200081f8:	2c31                	jal	20008414 <_ZL5ExCvt+0x70>
200081fa:	6720                	flw	fs0,72(a4)
200081fc:	3020746f          	jal	s0,2000f4fe <_ZL6LfnBuf+0xca>
20008200:	0078                	addi	a4,sp,12
20008202:	0000                	unimp
20008204:	68434453          	0x68434453
20008208:	6365                	lui	t1,0x19
2000820a:	6c6f566b          	0x6c6f566b
2000820e:	6174                	flw	fa3,68(a0)
20008210:	61526567          	0x61526567
20008214:	676e                	flw	fa4,216(sp)
20008216:	2065                	jal	200082be <__clz_tab+0xd4e>
20008218:	7865                	lui	a6,0xffff9
2000821a:	6570                	flw	fa2,76(a0)
2000821c:	64657463          	bgeu	a0,t1,20008864 <_etext+0x5c>
20008220:	3020                	fld	fs0,96(s0)
20008222:	3078                	fld	fa4,224(s0)
20008224:	3030                	fld	fa2,96(s0)
20008226:	3030                	fld	fa2,96(s0)
20008228:	4131                	li	sp,12
2000822a:	2c41                	jal	200084ba <_ZL5uc437+0x62>
2000822c:	6720                	flw	fs0,72(a4)
2000822e:	3020746f          	jal	s0,2000f530 <_ZL6LfnBuf+0xfc>
20008232:	0078                	addi	a4,sp,12
20008234:	61434453          	0x61434453
20008238:	6472                	flw	fs0,28(sp)
2000823a:	6e49                	lui	t3,0x12
2000823c:	7469                	lui	s0,0xffffa
2000823e:	6520                	flw	fs0,72(a0)
20008240:	7078                	flw	fa4,100(s0)
20008242:	6365                	lui	t1,0x19
20008244:	6574                	flw	fa3,76(a0)
20008246:	2064                	fld	fs1,192(s0)
20008248:	7830                	flw	fa2,112(s0)
2000824a:	3130                	fld	fa2,96(a0)
2000824c:	202c                	fld	fa1,64(s0)
2000824e:	20746f67          	0x20746f67
20008252:	7830                	flw	fa2,112(s0)
20008254:	0000                	unimp
20008256:	0000                	unimp
20008258:	61434453          	0x61434453
2000825c:	6472                	flw	fs0,28(sp)
2000825e:	6e49                	lui	t3,0x12
20008260:	7469                	lui	s0,0xffffa
20008262:	6520                	flw	fs0,72(a0)
20008264:	7078                	flw	fa4,100(s0)
20008266:	6365                	lui	t1,0x19
20008268:	6574                	flw	fa3,76(a0)
2000826a:	2064                	fld	fs1,192(s0)
2000826c:	7830                	flw	fa2,112(s0)
2000826e:	3030                	fld	fa2,96(s0)
20008270:	202c                	fld	fa1,64(s0)
20008272:	20746f67          	0x20746f67
20008276:	7830                	flw	fa2,112(s0)
20008278:	0000                	unimp
2000827a:	0000                	unimp
2000827c:	65524453          	0x65524453
20008280:	6461                	lui	s0,0x18
20008282:	676e6953          	0x676e6953
20008286:	656c                	flw	fa1,76(a0)
20008288:	6c42                	flw	fs8,16(sp)
2000828a:	3a6b636f          	jal	t1,200be630 <_end+0xaeff8>
2000828e:	6520                	flw	fs0,72(a0)
20008290:	7272                	flw	ft4,60(sp)
20008292:	7220726f          	jal	tp,2000f9b4 <_end+0x37c>
20008296:	7365                	lui	t1,0xffff9
20008298:	6f70                	flw	fa2,92(a4)
2000829a:	736e                	flw	ft6,248(sp)
2000829c:	2065                	jal	20008344 <__clz_tab+0xdd4>
2000829e:	203d                	jal	200082cc <__clz_tab+0xd5c>
200082a0:	72726527          	0x72726527
200082a4:	0a27726f          	jal	tp,2007f346 <_end+0x6fd0e>
200082a8:	0000                	unimp
200082aa:	0000                	unimp
200082ac:	65524453          	0x65524453
200082b0:	6461                	lui	s0,0x18
200082b2:	676e6953          	0x676e6953
200082b6:	656c                	flw	fa1,76(a0)
200082b8:	6c42                	flw	fs8,16(sp)
200082ba:	3a6b636f          	jal	t1,200be660 <_end+0xaf028>
200082be:	6520                	flw	fs0,72(a0)
200082c0:	7272                	flw	ft4,60(sp)
200082c2:	7220726f          	jal	tp,2000f9e4 <_end+0x3ac>
200082c6:	7365                	lui	t1,0xffff9
200082c8:	6f70                	flw	fa2,92(a4)
200082ca:	736e                	flw	ft6,248(sp)
200082cc:	2065                	jal	20008374 <__clz_tab+0xe04>
200082ce:	203d                	jal	200082fc <__clz_tab+0xd8c>
200082d0:	20434327          	fsq	ft4,518(t1) # ffff9206 <_end+0xdffe9bce>
200082d4:	7265                	lui	tp,0xffff9
200082d6:	6f72                	flw	ft10,28(sp)
200082d8:	2772                	fld	fa4,280(sp)
200082da:	000a                	c.slli	zero,0x2
200082dc:	65524453          	0x65524453
200082e0:	6461                	lui	s0,0x18
200082e2:	676e6953          	0x676e6953
200082e6:	656c                	flw	fa1,76(a0)
200082e8:	6c42                	flw	fs8,16(sp)
200082ea:	3a6b636f          	jal	t1,200be690 <_end+0xaf058>
200082ee:	6520                	flw	fs0,72(a0)
200082f0:	7272                	flw	ft4,60(sp)
200082f2:	7220726f          	jal	tp,2000fa14 <_end+0x3dc>
200082f6:	7365                	lui	t1,0xffff9
200082f8:	6f70                	flw	fa2,92(a4)
200082fa:	736e                	flw	ft6,248(sp)
200082fc:	2065                	jal	200083a4 <_ZL5ExCvt>
200082fe:	203d                	jal	2000832c <__clz_tab+0xdbc>
20008300:	72614327          	fsq	ft6,1830(sp)
20008304:	2064                	fld	fs1,192(s0)
20008306:	4345                	li	t1,17
20008308:	61662043          	fmadd.s	ft0,fa2,fs6,fa2,rdn
2000830c:	6c69                	lui	s8,0x1a
2000830e:	6465                	lui	s0,0x19
20008310:	00000a27          	0xa27
20008314:	65524453          	0x65524453
20008318:	6461                	lui	s0,0x18
2000831a:	676e6953          	0x676e6953
2000831e:	656c                	flw	fa1,76(a0)
20008320:	6c42                	flw	fs8,16(sp)
20008322:	3a6b636f          	jal	t1,200be6c8 <_end+0xaf090>
20008326:	6520                	flw	fs0,72(a0)
20008328:	7272                	flw	ft4,60(sp)
2000832a:	7220726f          	jal	tp,2000fa4c <_end+0x414>
2000832e:	7365                	lui	t1,0xffff9
20008330:	6f70                	flw	fa2,92(a4)
20008332:	736e                	flw	ft6,248(sp)
20008334:	2065                	jal	200083dc <_ZL5ExCvt+0x38>
20008336:	203d                	jal	20008364 <__clz_tab+0xdf4>
20008338:	74754f27          	fsq	ft7,1886(a0) # 1b75e <_start-0x1ffe48a2>
2000833c:	6f20                	flw	fs0,88(a4)
2000833e:	2066                	fld	ft0,88(sp)
20008340:	6172                	flw	ft2,28(sp)
20008342:	676e                	flw	fa4,216(sp)
20008344:	2765                	jal	20008aec <_etext+0x2e4>
20008346:	7320                	flw	fs0,96(a4)
20008348:	6365                	lui	t1,0x19
2000834a:	6f74                	flw	fa3,92(a4)
2000834c:	3a72                	fld	fs4,312(sp)
2000834e:	3020                	fld	fs0,96(s0)
20008350:	0078                	addi	a4,sp,12
20008352:	0000                	unimp
20008354:	72574453          	0x72574453
20008358:	7469                	lui	s0,0xffffa
2000835a:	5365                	li	t1,-7
2000835c:	6e69                	lui	t3,0x1a
2000835e:	42656c67          	0x42656c67
20008362:	6f6c                	flw	fa1,92(a4)
20008364:	203a6b63          	bltu	s4,gp,2000857a <_ZZ11ff_wtoupperE4cvt1+0x22>
20008368:	74697277          	0x74697277
2000836c:	2065                	jal	20008414 <_ZL5ExCvt+0x70>
2000836e:	7265                	lui	tp,0xffff9
20008370:	6f72                	flw	ft10,28(sp)
20008372:	0a72                	slli	s4,s4,0x1c
20008374:	0000                	unimp
20008376:	0000                	unimp
20008378:	4146                	lw	sp,80(sp)
2000837a:	3354                	fld	fa3,160(a4)
2000837c:	2032                	fld	ft0,264(sp)
2000837e:	2020                	fld	fs0,64(s0)
20008380:	0000                	unimp
20008382:	0000                	unimp
20008384:	3a2a                	fld	fs4,168(sp)
20008386:	3e3c                	fld	fa5,120(a2)
20008388:	227c                	fld	fa5,192(a2)
2000838a:	00007f3f 2c2b0000 	0x2c2b000000007f3f
20008392:	5d5b3d3b          	0x5d5b3d3b
20008396:	0000                	unimp
20008398:	4152                	lw	sp,20(sp)
2000839a:	004d                	c.nop	19
2000839c:	00004453          	fadd.s	fs0,ft0,ft0,rmm
200083a0:	5355                	li	t1,-11
200083a2:	0042                	c.slli	zero,0x10

200083a4 <_ZL5ExCvt>:
200083a4:	9a80                	0x9a80
200083a6:	4145                	li	sp,17
200083a8:	418e                	lw	gp,192(sp)
200083aa:	4545808f          	0x4545808f
200083ae:	4945                	li	s2,17
200083b0:	4949                	li	s2,18
200083b2:	8f8e                	mv	t6,gp
200083b4:	9290                	0x9290
200083b6:	4f92                	lw	t6,4(sp)
200083b8:	4f99                	li	t6,6
200083ba:	5555                	li	a0,-11
200083bc:	9959                	andi	a0,a0,-10
200083be:	9b9a                	add	s7,s7,t1
200083c0:	9d9c                	0x9d9c
200083c2:	9f9e                	add	t6,t6,t2
200083c4:	4941                	li	s2,16
200083c6:	a5a5554f          	0xa5a5554f
200083ca:	a7a6                	fsd	fs1,456(sp)
200083cc:	a9a8                	fsd	fa0,80(a1)
200083ce:	abaa                	fsd	fa0,464(sp)
200083d0:	adac                	fsd	fa1,88(a1)
200083d2:	afae                	fsd	fa1,472(sp)
200083d4:	b1b0                	fsd	fa2,96(a1)
200083d6:	b3b2                	fsd	fa2,480(sp)
200083d8:	b5b4                	fsd	fa3,104(a1)
200083da:	b7b6                	fsd	fa3,488(sp)
200083dc:	b9b8                	fsd	fa4,112(a1)
200083de:	bbba                	fsd	fa4,496(sp)
200083e0:	bdbc                	fsd	fa5,120(a1)
200083e2:	bfbe                	fsd	fa5,504(sp)
200083e4:	c1c0                	sw	s0,4(a1)
200083e6:	c3c2                	sw	a6,196(sp)
200083e8:	c5c4                	sw	s1,12(a1)
200083ea:	c7c6                	sw	a7,204(sp)
200083ec:	c9c8                	sw	a0,20(a1)
200083ee:	cbca                	sw	s2,212(sp)
200083f0:	cdcc                	sw	a1,28(a1)
200083f2:	cfce                	sw	s3,220(sp)
200083f4:	d1d0                	sw	a2,36(a1)
200083f6:	d3d2                	sw	s4,228(sp)
200083f8:	d5d4                	sw	a3,44(a1)
200083fa:	d7d6                	sw	s5,236(sp)
200083fc:	d9d8                	sw	a4,52(a1)
200083fe:	dbda                	sw	s6,244(sp)
20008400:	dddc                	sw	a5,60(a1)
20008402:	dfde                	sw	s7,252(sp)
20008404:	e1e0                	fsw	fs0,68(a1)
20008406:	e3e2                	fsw	fs8,196(sp)
20008408:	e5e4                	fsw	fs1,76(a1)
2000840a:	e7e6                	fsw	fs9,204(sp)
2000840c:	e9e8                	fsw	fa0,84(a1)
2000840e:	ebea                	fsw	fs10,212(sp)
20008410:	edec                	fsw	fa1,92(a1)
20008412:	efee                	fsw	fs11,220(sp)
20008414:	f1f0                	fsw	fa2,100(a1)
20008416:	f3f2                	fsw	ft8,228(sp)
20008418:	f5f4                	fsw	fa3,108(a1)
2000841a:	f7f6                	fsw	ft9,236(sp)
2000841c:	f9f8                	fsw	fa4,116(a1)
2000841e:	fbfa                	fsw	ft10,244(sp)
20008420:	fdfc                	fsw	fa5,124(a1)
20008422:	fffe                	fsw	ft11,252(sp)

20008424 <_ZL6LfnOfs>:
20008424:	0301                	addi	t1,t1,0
20008426:	0705                	addi	a4,a4,1
20008428:	0e09                	addi	t3,t3,2
2000842a:	1210                	addi	a2,sp,288
2000842c:	1614                	addi	a3,sp,800
2000842e:	1c18                	addi	a4,sp,560
20008430:	001e                	c.slli	zero,0x7
20008432:	0000                	unimp
20008434:	eff0                	fsw	fa2,92(a5)
20008436:	ffff                	0xffff
20008438:	f008                	fsw	fa0,32(s0)
2000843a:	ffff                	0xffff
2000843c:	f020                	fsw	fs0,96(s0)
2000843e:	ffff                	0xffff
20008440:	f028                	fsw	fa0,96(s0)
20008442:	ffff                	0xffff
20008444:	f030                	fsw	fa2,96(s0)
20008446:	ffff                	0xffff
20008448:	f038                	fsw	fa4,96(s0)
2000844a:	ffff                	0xffff
2000844c:	f040                	fsw	fs0,36(s0)
2000844e:	ffff                	0xffff
20008450:	f048                	fsw	fa0,36(s0)
20008452:	ffff                	0xffff
20008454:	f050                	fsw	fa2,36(s0)
20008456:	ffff                	0xffff

20008458 <_ZL5uc437>:
20008458:	00fc00c7          	fmsub.s	ft1,fs8,fa5,ft0,rne
2000845c:	00e9                	addi	ra,ra,26
2000845e:	00e2                	slli	ra,ra,0x18
20008460:	00e4                	addi	s1,sp,76
20008462:	00e0                	addi	s0,sp,76
20008464:	00e5                	addi	ra,ra,25
20008466:	00ea00e7          	jalr	14(s4) # 1900e <_start-0x1ffe6ff2>
2000846a:	00e800eb          	0xe800eb
2000846e:	00ee00ef          	jal	ra,200e847c <_end+0xd8e44>
20008472:	00ec                	addi	a1,sp,76
20008474:	00c4                	addi	s1,sp,68
20008476:	00c5                	addi	ra,ra,17
20008478:	00c9                	addi	ra,ra,18
2000847a:	00e6                	slli	ra,ra,0x19
2000847c:	00c6                	slli	ra,ra,0x11
2000847e:	00f4                	addi	a3,sp,76
20008480:	00f6                	slli	ra,ra,0x1d
20008482:	00f2                	slli	ra,ra,0x1c
20008484:	00f900fb          	0xf900fb
20008488:	00ff                	0xff
2000848a:	00d6                	slli	ra,ra,0x15
2000848c:	00dc                	addi	a5,sp,68
2000848e:	00a2                	slli	ra,ra,0x8
20008490:	00a500a3          	sb	a0,1(a0)
20008494:	019220a7          	fsw	fs9,1(tp) # ffff9001 <_end+0xdffe99c9>
20008498:	00e1                	addi	ra,ra,24
2000849a:	00ed                	addi	ra,ra,27
2000849c:	00fa00f3          	0xfa00f3
200084a0:	00f1                	addi	ra,ra,28
200084a2:	00d1                	addi	ra,ra,20
200084a4:	00aa                	slli	ra,ra,0xa
200084a6:	00ba                	slli	ra,ra,0xe
200084a8:	231000bf 00bd00ac 	0xbd00ac231000bf
200084b0:	00bc                	addi	a5,sp,72
200084b2:	00a1                	addi	ra,ra,8
200084b4:	00bb00ab          	0xbb00ab
200084b8:	2591                	jal	20008afc <_etext+0x2f4>
200084ba:	2592                	fld	fa1,256(sp)
200084bc:	25022593          	slti	a1,tp,592
200084c0:	2524                	fld	fs1,72(a0)
200084c2:	2561                	jal	20008b4a <_etext+0x342>
200084c4:	2562                	fld	fa0,24(sp)
200084c6:	2556                	fld	fa0,336(sp)
200084c8:	2555                	jal	20008b6c <_etext+0x364>
200084ca:	25512563          	0x25512563
200084ce:	255d2557          	0x255d2557
200084d2:	255c                	fld	fa5,136(a0)
200084d4:	2510255b          	0x2510255b
200084d8:	2514                	fld	fa3,8(a0)
200084da:	2534                	fld	fa3,72(a0)
200084dc:	252c                	fld	fa1,72(a0)
200084de:	251c                	fld	fa5,8(a0)
200084e0:	2500                	fld	fs0,8(a0)
200084e2:	253c                	fld	fa5,72(a0)
200084e4:	255e                	fld	fa0,464(sp)
200084e6:	255f 255a 2554      	0x2554255a255f
200084ec:	2569                	jal	20008b76 <_etext+0x36e>
200084ee:	2566                	fld	fa0,88(sp)
200084f0:	2560                	fld	fs0,200(a0)
200084f2:	2550                	fld	fa2,136(a0)
200084f4:	256c                	fld	fa1,200(a0)
200084f6:	25682567          	0x25682567
200084fa:	2564                	fld	fs1,200(a0)
200084fc:	2565                	jal	20008ba4 <_etext+0x39c>
200084fe:	2559                	jal	20008b84 <_etext+0x37c>
20008500:	2558                	fld	fa4,136(a0)
20008502:	2552                	fld	fa0,272(sp)
20008504:	256b2553          	0x256b2553
20008508:	256a                	fld	fa0,152(sp)
2000850a:	2518                	fld	fa4,8(a0)
2000850c:	250c                	fld	fa1,8(a0)
2000850e:	2588                	fld	fa0,8(a1)
20008510:	2584                	fld	fs1,8(a1)
20008512:	258c                	fld	fa1,8(a1)
20008514:	2590                	fld	fa2,8(a1)
20008516:	2580                	fld	fs0,8(a1)
20008518:	03b1                	addi	t2,t2,12
2000851a:	00df 0393 03c0      	0x3c0039300df
20008520:	03c303a3          	sb	t3,39(t1) # 19027 <_start-0x1ffe6fd9>
20008524:	00b5                	addi	ra,ra,13
20008526:	03c4                	addi	s1,sp,452
20008528:	03a6                	slli	t2,t2,0x9
2000852a:	0398                	addi	a4,sp,448
2000852c:	03a9                	addi	t2,t2,10
2000852e:	03b4                	addi	a3,sp,456
20008530:	221e                	fld	ft4,448(sp)
20008532:	03c6                	slli	t2,t2,0x11
20008534:	03b5                	addi	t2,t2,13
20008536:	2229                	jal	20008640 <_ZZ11ff_wtoupperE4cvt1+0xe8>
20008538:	2261                	jal	200086c0 <_ZZ11ff_wtoupperE4cvt1+0x168>
2000853a:	00b1                	addi	ra,ra,12
2000853c:	2265                	jal	200086e4 <_ZZ11ff_wtoupperE4cvt1+0x18c>
2000853e:	2264                	fld	fs1,192(a2)
20008540:	2320                	fld	fs0,64(a4)
20008542:	2321                	jal	20008a4a <_etext+0x242>
20008544:	224800f7          	0x224800f7
20008548:	00b0                	addi	a2,sp,72
2000854a:	2219                	jal	20008650 <_ZZ11ff_wtoupperE4cvt1+0xf8>
2000854c:	221a00b7          	lui	ra,0x221a0
20008550:	207f                	0x207f
20008552:	00b2                	slli	ra,ra,0xc
20008554:	25a0                	fld	fs0,72(a1)
20008556:	00a0                	addi	s0,sp,72

20008558 <_ZZ11ff_wtoupperE4cvt1>:
20008558:	0061                	c.nop	24
2000855a:	031a                	slli	t1,t1,0x6
2000855c:	00e0                	addi	s0,sp,76
2000855e:	00f80317          	auipc	t1,0xf80
20008562:	00ff0307          	0xff0307
20008566:	0001                	nop
20008568:	0178                	addi	a4,sp,140
2000856a:	0100                	addi	s0,sp,128
2000856c:	0130                	addi	a2,sp,136
2000856e:	0132                	slli	sp,sp,0xc
20008570:	0106                	slli	sp,sp,0x1
20008572:	0139                	addi	sp,sp,14
20008574:	0110                	addi	a2,sp,128
20008576:	014a                	slli	sp,sp,0x12
20008578:	012e                	slli	sp,sp,0xb
2000857a:	0179                	addi	sp,sp,30
2000857c:	0106                	slli	sp,sp,0x1
2000857e:	0180                	addi	s0,sp,192
20008580:	004d                	c.nop	19
20008582:	01810243          	fmadd.s	ft4,ft2,fs8,ft0,rne
20008586:	0182                	c.slli64	gp
20008588:	0182                	c.slli64	gp
2000858a:	0184                	addi	s1,sp,192
2000858c:	0184                	addi	s1,sp,192
2000858e:	0186                	slli	gp,gp,0x1
20008590:	01870187          	0x1870187
20008594:	0189                	addi	gp,gp,2
20008596:	018a                	slli	gp,gp,0x2
20008598:	018b018b          	0x18b018b
2000859c:	018d                	addi	gp,gp,3
2000859e:	018e                	slli	gp,gp,0x3
200085a0:	0190018f          	0x190018f
200085a4:	0191                	addi	gp,gp,4
200085a6:	0191                	addi	gp,gp,4
200085a8:	01940193          	addi	gp,s0,25 # ffffa019 <_end+0xdffea9e1>
200085ac:	01f6                	slli	gp,gp,0x1d
200085ae:	0196                	slli	gp,gp,0x5
200085b0:	01980197          	auipc	gp,0x1980
200085b4:	0198                	addi	a4,sp,192
200085b6:	023d                	addi	tp,tp,15
200085b8:	019c019b          	0x19c019b
200085bc:	019d                	addi	gp,gp,7
200085be:	0220                	addi	s0,sp,264
200085c0:	019f 01a0 01a0      	0x1a001a0019f
200085c6:	01a2                	slli	gp,gp,0x8
200085c8:	01a2                	slli	gp,gp,0x8
200085ca:	01a4                	addi	s1,sp,200
200085cc:	01a4                	addi	s1,sp,200
200085ce:	01a6                	slli	gp,gp,0x9
200085d0:	01a701a7          	0x1a701a7
200085d4:	01a9                	addi	gp,gp,10
200085d6:	01aa                	slli	gp,gp,0xa
200085d8:	01ac01ab          	0x1ac01ab
200085dc:	01ac                	addi	a1,sp,200
200085de:	01ae                	slli	gp,gp,0xb
200085e0:	01af01af          	0x1af01af
200085e4:	01b1                	addi	gp,gp,12
200085e6:	01b2                	slli	gp,gp,0xc
200085e8:	01b301b3          	add	gp,t1,s11
200085ec:	01b5                	addi	gp,gp,13
200085ee:	01b5                	addi	gp,gp,13
200085f0:	01b801b7          	lui	gp,0x1b80
200085f4:	01b8                	addi	a4,sp,200
200085f6:	01ba                	slli	gp,gp,0xe
200085f8:	01bc01bb          	0x1bc01bb
200085fc:	01bc                	addi	a5,sp,200
200085fe:	01be                	slli	gp,gp,0xf
20008600:	01c001f7          	0x1c001f7
20008604:	01c1                	addi	gp,gp,16
20008606:	01c2                	slli	gp,gp,0x10
20008608:	01c401c3          	fmadd.s	ft3,fs0,ft8,ft0,rne
2000860c:	01c5                	addi	gp,gp,17
2000860e:	01c4                	addi	s1,sp,196
20008610:	01c801c7          	fmsub.s	ft3,fa6,ft8,ft0,rne
20008614:	01ca01c7          	fmsub.s	ft3,fs4,ft8,ft0,rne
20008618:	01ca01cb          	fnmsub.s	ft3,fs4,ft8,ft0,rne
2000861c:	01cd                	addi	gp,gp,19
2000861e:	0110                	addi	a2,sp,128
20008620:	01dd                	addi	gp,gp,23
20008622:	0001                	nop
20008624:	018e                	slli	gp,gp,0x3
20008626:	01de                	slli	gp,gp,0x17
20008628:	0112                	slli	sp,sp,0x4
2000862a:	000301f3          	0x301f3
2000862e:	01f1                	addi	gp,gp,28
20008630:	01f4                	addi	a3,sp,204
20008632:	01f4                	addi	a3,sp,204
20008634:	01f8                	addi	a4,sp,204
20008636:	0128                	addi	a0,sp,136
20008638:	0222                	slli	tp,tp,0x8
2000863a:	0112                	slli	sp,sp,0x4
2000863c:	023a                	slli	tp,tp,0xe
2000863e:	0009                	c.nop	2
20008640:	2c65                	jal	200088f8 <_etext+0xf0>
20008642:	023b023b          	0x23b023b
20008646:	023d                	addi	tp,tp,15
20008648:	2c66                	fld	fs8,88(sp)
2000864a:	0240023f 02410241 	0x24102410240023f
20008652:	0246                	slli	tp,tp,0x11
20008654:	010a                	slli	sp,sp,0x2
20008656:	00400253          	fadd.s	ft4,ft0,ft4,rne
2000865a:	0181                	addi	gp,gp,0
2000865c:	0186                	slli	gp,gp,0x1
2000865e:	0255                	addi	tp,tp,21
20008660:	0189                	addi	gp,gp,2
20008662:	018a                	slli	gp,gp,0x2
20008664:	0258                	addi	a4,sp,260
20008666:	025a018f          	0x25a018f
2000866a:	0190                	addi	a2,sp,192
2000866c:	025c                	addi	a5,sp,260
2000866e:	025d                	addi	tp,tp,23
20008670:	025e                	slli	tp,tp,0x17
20008672:	025f 0193 0261      	0x2610193025f
20008678:	0262                	slli	tp,tp,0x18
2000867a:	0194                	addi	a3,sp,192
2000867c:	0264                	addi	s1,sp,268
2000867e:	0265                	addi	tp,tp,25
20008680:	0266                	slli	tp,tp,0x19
20008682:	01970267          	jalr	tp,25(a4) # 1a019 <_start-0x1ffe5fe7>
20008686:	0196                	slli	gp,gp,0x5
20008688:	026a                	slli	tp,tp,0x1a
2000868a:	2c62                	fld	fs8,24(sp)
2000868c:	026c                	addi	a1,sp,268
2000868e:	026d                	addi	tp,tp,27
20008690:	026e                	slli	tp,tp,0x1b
20008692:	019c                	addi	a5,sp,192
20008694:	0270                	addi	a2,sp,268
20008696:	0271                	addi	tp,tp,28
20008698:	019d                	addi	gp,gp,7
2000869a:	02740273          	0x2740273
2000869e:	019f 0276 0277      	0x2770276019f
200086a4:	0278                	addi	a4,sp,268
200086a6:	0279                	addi	tp,tp,30
200086a8:	027a                	slli	tp,tp,0x1e
200086aa:	027c027b          	0x27c027b
200086ae:	2c64                	fld	fs1,216(s0)
200086b0:	027e                	slli	tp,tp,0x1f
200086b2:	027f                	0x27f
200086b4:	01a6                	slli	gp,gp,0x9
200086b6:	0281                	addi	t0,t0,0
200086b8:	0282                	c.slli64	t0
200086ba:	01a9                	addi	gp,gp,10
200086bc:	0284                	addi	s1,sp,320
200086be:	0285                	addi	t0,t0,1
200086c0:	0286                	slli	t0,t0,0x1
200086c2:	01ae0287          	0x1ae0287
200086c6:	0244                	addi	s1,sp,260
200086c8:	01b1                	addi	gp,gp,12
200086ca:	01b2                	slli	gp,gp,0xc
200086cc:	0245                	addi	tp,tp,17
200086ce:	028d                	addi	t0,t0,3
200086d0:	028e                	slli	t0,t0,0x3
200086d2:	0290028f          	0x290028f
200086d6:	0291                	addi	t0,t0,4
200086d8:	037b01b7          	lui	gp,0x37b0
200086dc:	03fd0003          	lb	zero,63(s10) # 1803f <_start-0x1ffe7fc1>
200086e0:	03fe                	slli	t2,t2,0x1f
200086e2:	03ff                	0x3ff
200086e4:	03ac                	addi	a1,sp,456
200086e6:	0004                	0x4
200086e8:	0386                	slli	t2,t2,0x1
200086ea:	0388                	addi	a0,sp,448
200086ec:	0389                	addi	t2,t2,2
200086ee:	038a                	slli	t2,t2,0x2
200086f0:	03b1                	addi	t2,t2,12
200086f2:	0311                	addi	t1,t1,4
200086f4:	03c2                	slli	t2,t2,0x10
200086f6:	0002                	c.slli64	zero
200086f8:	03a303a3          	sb	s10,39(t1) # 20f88585 <_end+0xf78f4d>
200086fc:	03c4                	addi	s1,sp,452
200086fe:	0308                	addi	a0,sp,384
20008700:	03cc                	addi	a1,sp,452
20008702:	038c0003          	lb	zero,56(s8) # 1a038 <_start-0x1ffe5fc8>
20008706:	038e                	slli	t2,t2,0x3
20008708:	03d8038f          	0x3d8038f
2000870c:	0118                	addi	a4,sp,128
2000870e:	03f2                	slli	t2,t2,0x1c
20008710:	000a                	c.slli	zero,0x2
20008712:	03f9                	addi	t2,t2,30
20008714:	03f403f3          	0x3f403f3
20008718:	03f5                	addi	t2,t2,29
2000871a:	03f6                	slli	t2,t2,0x1d
2000871c:	03f703f7          	0x3f703f7
20008720:	03f9                	addi	t2,t2,30
20008722:	03fa                	slli	t2,t2,0x1e
20008724:	03fa                	slli	t2,t2,0x1e
20008726:	0430                	addi	a2,sp,520
20008728:	0320                	addi	s0,sp,392
2000872a:	0450                	addi	a2,sp,516
2000872c:	0710                	addi	a2,sp,896
2000872e:	0460                	addi	s0,sp,524
20008730:	0122                	slli	sp,sp,0x8
20008732:	048a                	slli	s1,s1,0x2
20008734:	0136                	slli	sp,sp,0xd
20008736:	04c1                	addi	s1,s1,16
20008738:	010e                	slli	sp,sp,0x3
2000873a:	000104cf          	fnmadd.s	fs1,ft2,ft0,ft0,rne
2000873e:	04c0                	addi	s0,sp,580
20008740:	04d0                	addi	a2,sp,580
20008742:	0144                	addi	s1,sp,132
20008744:	0561                	addi	a0,a0,24
20008746:	0426                	slli	s0,s0,0x9
20008748:	0000                	unimp
	...

2000874c <_ZZ11ff_wtoupperE4cvt2>:
2000874c:	1d7d                	addi	s10,s10,-1
2000874e:	0001                	nop
20008750:	1e002c63          	0x1e002c63
20008754:	0196                	slli	gp,gp,0x5
20008756:	1ea0                	addi	s0,sp,888
20008758:	015a                	slli	sp,sp,0x16
2000875a:	1f00                	addi	s0,sp,944
2000875c:	0608                	addi	a0,sp,768
2000875e:	1f10                	addi	a2,sp,944
20008760:	0606                	slli	a2,a2,0x1
20008762:	1f20                	addi	s0,sp,952
20008764:	0608                	addi	a0,sp,768
20008766:	1f30                	addi	a2,sp,952
20008768:	0608                	addi	a0,sp,768
2000876a:	1f40                	addi	s0,sp,948
2000876c:	0606                	slli	a2,a2,0x1
2000876e:	1f51                	addi	t5,t5,-12
20008770:	1f590007          	0x1f590007
20008774:	1f52                	slli	t5,t5,0x34
20008776:	1f541f5b          	0x1f541f5b
2000877a:	1f5d                	addi	t5,t5,-9
2000877c:	1f56                	slli	t5,t5,0x35
2000877e:	1f5f 1f60 0608      	0x6081f601f5f
20008784:	1f70                	addi	a2,sp,956
20008786:	000e                	c.slli	zero,0x3
20008788:	1fba                	slli	t6,t6,0x2e
2000878a:	1fc81fbb          	0x1fc81fbb
2000878e:	1fc9                	addi	t6,t6,-14
20008790:	1fca                	slli	t6,t6,0x32
20008792:	1fda1fcb          	fnmsub.q	ft11,fs4,ft9,ft3,rtz
20008796:	1ff81fdb          	0x1ff81fdb
2000879a:	1ff9                	addi	t6,t6,-2
2000879c:	1fea                	slli	t6,t6,0x3a
2000879e:	1ffa1feb          	0x1ffa1feb
200087a2:	1f801ffb          	0x1f801ffb
200087a6:	0608                	addi	a0,sp,768
200087a8:	1f90                	addi	a2,sp,1008
200087aa:	0608                	addi	a0,sp,768
200087ac:	1fa0                	addi	s0,sp,1016
200087ae:	0608                	addi	a0,sp,768
200087b0:	1fb0                	addi	a2,sp,1016
200087b2:	0004                	0x4
200087b4:	1fb8                	addi	a4,sp,1016
200087b6:	1fb9                	addi	t6,t6,-18
200087b8:	1fb2                	slli	t6,t6,0x2c
200087ba:	1fbc                	addi	a5,sp,1016
200087bc:	1fcc                	addi	a1,sp,1012
200087be:	0001                	nop
200087c0:	1fd01fc3          	fmadd.q	ft11,ft0,ft9,ft3,rtz
200087c4:	0602                	c.slli64	a2
200087c6:	1fe0                	addi	s0,sp,1020
200087c8:	0602                	c.slli64	a2
200087ca:	1fe5                	addi	t6,t6,-7
200087cc:	0001                	nop
200087ce:	1fec                	addi	a1,sp,1020
200087d0:	00011ff3          	csrrw	t6,ustatus,sp
200087d4:	1ffc                	addi	a5,sp,1020
200087d6:	214e                	fld	ft2,208(sp)
200087d8:	0001                	nop
200087da:	2132                	fld	ft2,264(sp)
200087dc:	2170                	fld	fa2,192(a0)
200087de:	0210                	addi	a2,sp,256
200087e0:	2184                	fld	fs1,0(a1)
200087e2:	0001                	nop
200087e4:	24d02183          	lw	gp,589(zero) # 24d <_start-0x1ffffdb3>
200087e8:	051a                	slli	a0,a0,0x6
200087ea:	2c30                	fld	fa2,88(s0)
200087ec:	2c60042f          	0x2c60042f
200087f0:	0102                	c.slli64	sp
200087f2:	01062c67          	0x1062c67
200087f6:	2c75                	jal	20008ab2 <_etext+0x2aa>
200087f8:	0102                	c.slli64	sp
200087fa:	2c80                	fld	fs0,24(s1)
200087fc:	0164                	addi	s1,sp,140
200087fe:	2d00                	fld	fs0,24(a0)
20008800:	0826                	slli	a6,a6,0x9
20008802:	ff41                	bnez	a4,2000879a <_ZZ11ff_wtoupperE4cvt2+0x4e>
20008804:	031a                	slli	t1,t1,0x6
	...

Disassembly of section .srodata:

20008808 <_global_impure_ptr>:
20008808:	9848                	0x9848
2000880a:	2000                	fld	fs0,0(s0)

Disassembly of section .eh_frame:

2000880c <.eh_frame>:
2000880c:	0010                	0x10
2000880e:	0000                	unimp
20008810:	0000                	unimp
20008812:	0000                	unimp
20008814:	00527a03          	0x527a03
20008818:	7c01                	lui	s8,0xfffe0
2000881a:	0101                	addi	sp,sp,0
2000881c:	00020d1b          	0x20d1b
20008820:	0010                	0x10
20008822:	0000                	unimp
20008824:	0018                	0x18
20008826:	0000                	unimp
20008828:	77d8                	flw	fa4,44(a5)
2000882a:	ffff                	0xffff
2000882c:	0088                	addi	a0,sp,64
2000882e:	0000                	unimp
20008830:	0000                	unimp
20008832:	0000                	unimp
20008834:	0010                	0x10
20008836:	0000                	unimp
20008838:	002c                	addi	a1,sp,8
2000883a:	0000                	unimp
2000883c:	784c                	flw	fa1,52(s0)
2000883e:	ffff                	0xffff
	...
20008848:	0010                	0x10
2000884a:	0000                	unimp
2000884c:	0040                	addi	s0,sp,4
2000884e:	0000                	unimp
20008850:	9940                	0x9940
20008852:	ffff                	0xffff
20008854:	0044                	addi	s1,sp,4
20008856:	0000                	unimp
20008858:	0000                	unimp
2000885a:	0000                	unimp
2000885c:	0030                	addi	a2,sp,8
2000885e:	0000                	unimp
20008860:	0054                	addi	a3,sp,4
20008862:	0000                	unimp
20008864:	9970                	0x9970
20008866:	ffff                	0xffff
20008868:	008c                	addi	a1,sp,64
2000886a:	0000                	unimp
2000886c:	4400                	lw	s0,8(s0)
2000886e:	200e                	fld	ft0,192(sp)
20008870:	8858                	0x8858
20008872:	8902                	jr	s2
20008874:	93049203          	lh	tp,-1744(s1)
20008878:	8105                	srli	a0,a0,0x1
2000887a:	9401                	srai	s0,s0,0x20
2000887c:	7006                	flw	ft0,96(sp)
2000887e:	c10a                	sw	sp,128(sp)
20008880:	c844                	sw	s1,20(s0)
20008882:	c944                	sw	s1,20(a0)
20008884:	d244                	sw	s1,36(a2)
20008886:	d344                	sw	s1,36(a4)
20008888:	d444                	sw	s1,44(s0)
2000888a:	0e44                	addi	s1,sp,788
2000888c:	4400                	lw	s0,8(s0)
2000888e:	0020000b          	0x20000b
20008892:	0000                	unimp
20008894:	0088                	addi	a0,sp,64
20008896:	0000                	unimp
20008898:	99c8                	0x99c8
2000889a:	ffff                	0xffff
2000889c:	0150                	addi	a2,sp,132
2000889e:	0000                	unimp
200088a0:	4400                	lw	s0,8(s0)
200088a2:	100e                	c.slli	zero,0x23
200088a4:	8850                	0x8850
200088a6:	5402                	lw	s0,32(sp)
200088a8:	0181                	addi	gp,gp,0
200088aa:	c1011c03          	lh	s8,-1008(sp)
200088ae:	c844                	sw	s1,20(s0)
200088b0:	0e44                	addi	s1,sp,788
200088b2:	0000                	unimp
200088b4:	0038                	addi	a4,sp,8
200088b6:	0000                	unimp
200088b8:	00ac                	addi	a1,sp,72
200088ba:	0000                	unimp
200088bc:	9af4                	0x9af4
200088be:	ffff                	0xffff
200088c0:	00d4                	addi	a3,sp,68
200088c2:	0000                	unimp
200088c4:	4400                	lw	s0,8(s0)
200088c6:	300e                	fld	ft0,224(sp)
200088c8:	8960                	0x8960
200088ca:	81049203          	lh	tp,-2032(s1)
200088ce:	8801                	andi	s0,s0,0
200088d0:	9302                	jalr	t1
200088d2:	9405                	srai	s0,s0,0x21
200088d4:	9506                	add	a0,a0,ra
200088d6:	02089607          	0x2089607
200088da:	0a58                	addi	a4,sp,276
200088dc:	44c1                	li	s1,16
200088de:	44c8                	lw	a0,12(s1)
200088e0:	44c9                	li	s1,18
200088e2:	44d2                	lw	s1,20(sp)
200088e4:	44d444d3          	0x44d444d3
200088e8:	44d5                	li	s1,21
200088ea:	44d6                	lw	s1,84(sp)
200088ec:	000e                	c.slli	zero,0x3
200088ee:	0b44                	addi	s1,sp,404
200088f0:	0038                	addi	a4,sp,8
200088f2:	0000                	unimp
200088f4:	00e8                	addi	a0,sp,76
200088f6:	0000                	unimp
200088f8:	9b8c                	0x9b8c
200088fa:	ffff                	0xffff
200088fc:	0168                	addi	a0,sp,140
200088fe:	0000                	unimp
20008900:	4c00                	lw	s0,24(s0)
20008902:	200e                	fld	ft0,192(sp)
20008904:	8854                	0x8854
20008906:	8902                	jr	s2
20008908:	92018103          	lb	sp,-1760(gp) # 37af920 <_start-0x1c8506e0>
2000890c:	9304                	0x9304
2000890e:	0205                	addi	tp,tp,1
20008910:	0a88                	addi	a0,sp,336
20008912:	44c8                	lw	a0,12(s1)
20008914:	44c1                	li	s1,16
20008916:	44c9                	li	s1,18
20008918:	44d2                	lw	s1,20(sp)
2000891a:	000e4cd3          	fadd.s	fs9,ft8,ft0,rmm
2000891e:	0b44                	addi	s1,sp,404
20008920:	9c02                	jalr	s8
20008922:	000e                	c.slli	zero,0x3
20008924:	c8c1                	beqz	s1,200089b4 <_global_impure_ptr+0x1ac>
20008926:	d2c9                	beqz	a3,200088a8 <_global_impure_ptr+0xa0>
20008928:	000000d3          	fadd.s	ft1,ft0,ft0,rne
2000892c:	0060                	addi	s0,sp,12
2000892e:	0000                	unimp
20008930:	0124                	addi	s1,sp,136
20008932:	0000                	unimp
20008934:	9cbc                	0x9cbc
20008936:	ffff                	0xffff
20008938:	0100                	addi	s0,sp,128
2000893a:	0000                	unimp
2000893c:	4400                	lw	s0,8(s0)
2000893e:	600e                	flw	ft0,192(sp)
20008940:	4402                	lw	s0,0(sp)
20008942:	0181                	addi	gp,gp,0
20008944:	0285                	addi	t0,t0,1
20008946:	0386                	slli	t2,t2,0x1
20008948:	05880487          	0x5880487
2000894c:	068a                	slli	a3,a3,0x2
2000894e:	088c078b          	0x88c078b
20008952:	098d                	addi	s3,s3,3
20008954:	0a8e                	slli	s5,s5,0x3
20008956:	0c900b8f          	0xc900b8f
2000895a:	0d91                	addi	s11,s11,4
2000895c:	0e9c                	addi	a5,sp,848
2000895e:	0f9d                	addi	t6,t6,7
20008960:	109e                	slli	ra,ra,0x27
20008962:	119f 4c02 c80a      	0xc80a4c02119f
20008968:	c144                	sw	s1,4(a0)
2000896a:	c544                	sw	s1,12(a0)
2000896c:	c644                	sw	s1,12(a2)
2000896e:	c744                	sw	s1,12(a4)
20008970:	ca44                	sw	s1,20(a2)
20008972:	cb44                	sw	s1,20(a4)
20008974:	cc44                	sw	s1,28(s0)
20008976:	cd44                	sw	s1,28(a0)
20008978:	ce44                	sw	s1,28(a2)
2000897a:	cf44                	sw	s1,28(a4)
2000897c:	d044                	sw	s1,36(s0)
2000897e:	d144                	sw	s1,36(a0)
20008980:	dc44                	sw	s1,60(s0)
20008982:	dd44                	sw	s1,60(a0)
20008984:	de44                	sw	s1,60(a2)
20008986:	df44                	sw	s1,60(a4)
20008988:	0e44                	addi	s1,sp,788
2000898a:	4400                	lw	s0,8(s0)
2000898c:	0000000b          	0xb
20008990:	001c                	0x1c
20008992:	0000                	unimp
20008994:	0188                	addi	a0,sp,192
20008996:	0000                	unimp
20008998:	9d58                	0x9d58
2000899a:	ffff                	0xffff
2000899c:	0050                	addi	a2,sp,4
2000899e:	0000                	unimp
200089a0:	4400                	lw	s0,8(s0)
200089a2:	100e                	c.slli	zero,0x23
200089a4:	8144                	0x8144
200089a6:	0201                	addi	tp,tp,0
200089a8:	c140                	sw	s0,4(a0)
200089aa:	0e44                	addi	s1,sp,788
200089ac:	0000                	unimp
200089ae:	0000                	unimp
200089b0:	0030                	addi	a2,sp,8
200089b2:	0000                	unimp
200089b4:	01a8                	addi	a0,sp,200
200089b6:	0000                	unimp
200089b8:	9d88                	0x9d88
200089ba:	ffff                	0xffff
200089bc:	00d8                	addi	a4,sp,68
200089be:	0000                	unimp
200089c0:	4400                	lw	s0,8(s0)
200089c2:	200e                	fld	ft0,192(sp)
200089c4:	9344                	0x9344
200089c6:	5005                	c.li	zero,-31
200089c8:	0492                	slli	s1,s1,0x4
200089ca:	8858                	0x8858
200089cc:	8102                	jr	sp
200089ce:	8901                	andi	a0,a0,0
200089d0:	c10a7c03          	0xc10a7c03
200089d4:	c844                	sw	s1,20(s0)
200089d6:	c944                	sw	s1,20(a0)
200089d8:	d244                	sw	s1,36(a2)
200089da:	d344                	sw	s1,36(a4)
200089dc:	0e44                	addi	s1,sp,788
200089de:	4400                	lw	s0,8(s0)
200089e0:	0000000b          	0xb
200089e4:	0060                	addi	s0,sp,12
200089e6:	0000                	unimp
200089e8:	01dc                	addi	a5,sp,196
200089ea:	0000                	unimp
200089ec:	9e34                	0x9e34
200089ee:	ffff                	0xffff
200089f0:	012c                	addi	a1,sp,136
200089f2:	0000                	unimp
200089f4:	4400                	lw	s0,8(s0)
200089f6:	600e                	flw	ft0,192(sp)
200089f8:	4802                	lw	a6,0(sp)
200089fa:	0181                	addi	gp,gp,0
200089fc:	0285                	addi	t0,t0,1
200089fe:	0386                	slli	t2,t2,0x1
20008a00:	05880487          	0x5880487
20008a04:	0689                	addi	a3,a3,2
20008a06:	078a                	slli	a5,a5,0x2
20008a08:	098c088b          	0x98c088b
20008a0c:	0a8d                	addi	s5,s5,3
20008a0e:	0b8e                	slli	s7,s7,0x3
20008a10:	0d900c8f          	0xd900c8f
20008a14:	0e91                	addi	t4,t4,4
20008a16:	0f9c                	addi	a5,sp,976
20008a18:	109d                	addi	ra,ra,-25
20008a1a:	119e                	slli	gp,gp,0x27
20008a1c:	129f 0a74 44c8      	0x44c80a74129f
20008a22:	44c1                	li	s1,16
20008a24:	44c5                	li	s1,17
20008a26:	44c6                	lw	s1,80(sp)
20008a28:	44c944c7          	0x44c944c7
20008a2c:	44ca                	lw	s1,144(sp)
20008a2e:	44cc44cb          	0x44cc44cb
20008a32:	44cd                	li	s1,19
20008a34:	44ce                	lw	s1,208(sp)
20008a36:	44d044cf          	0x44d044cf
20008a3a:	44d1                	li	s1,20
20008a3c:	44dc                	lw	a5,12(s1)
20008a3e:	44dd                	li	s1,23
20008a40:	44de                	lw	s1,212(sp)
20008a42:	44df 000e 0b44      	0xb44000e44df
20008a48:	0010                	0x10
20008a4a:	0000                	unimp
20008a4c:	0240                	addi	s0,sp,260
20008a4e:	0000                	unimp
20008a50:	9f08                	0x9f08
20008a52:	ffff                	0xffff
20008a54:	0020                	addi	s0,sp,8
20008a56:	0000                	unimp
20008a58:	0000                	unimp
20008a5a:	0000                	unimp
20008a5c:	004c                	addi	a1,sp,4
20008a5e:	0000                	unimp
20008a60:	0254                	addi	a3,sp,260
20008a62:	0000                	unimp
20008a64:	9f14                	0x9f14
20008a66:	ffff                	0xffff
20008a68:	015c                	addi	a5,sp,132
20008a6a:	0000                	unimp
20008a6c:	4400                	lw	s0,8(s0)
20008a6e:	800e                	c.mv	zero,gp
20008a70:	03894403          	lbu	s0,56(s2) # 18038 <_start-0x1ffe7fc8>
20008a74:	8178                	0x8178
20008a76:	8801                	andi	s0,s0,0
20008a78:	9202                	jalr	tp
20008a7a:	9304                	0x9304
20008a7c:	9405                	srai	s0,s0,0x21
20008a7e:	9506                	add	a0,a0,ra
20008a80:	97089607          	0x97089607
20008a84:	9809                	andi	s0,s0,-30
20008a86:	990a                	add	s2,s2,sp
20008a88:	020c9a0b          	0x20c9a0b
20008a8c:	0acc                	addi	a1,sp,340
20008a8e:	44c1                	li	s1,16
20008a90:	44c8                	lw	a0,12(s1)
20008a92:	44c9                	li	s1,18
20008a94:	44d2                	lw	s1,20(sp)
20008a96:	44d444d3          	0x44d444d3
20008a9a:	44d5                	li	s1,21
20008a9c:	44d6                	lw	s1,84(sp)
20008a9e:	44d844d7          	0x44d844d7
20008aa2:	44d9                	li	s1,22
20008aa4:	44da                	lw	s1,148(sp)
20008aa6:	000e                	c.slli	zero,0x3
20008aa8:	0b44                	addi	s1,sp,404
20008aaa:	0000                	unimp
20008aac:	0010                	0x10
20008aae:	0000                	unimp
20008ab0:	02a4                	addi	s1,sp,328
20008ab2:	0000                	unimp
20008ab4:	a020                	fsd	fs0,64(s0)
20008ab6:	ffff                	0xffff
20008ab8:	000c                	0xc
20008aba:	0000                	unimp
20008abc:	0000                	unimp
20008abe:	0000                	unimp
20008ac0:	003c                	addi	a5,sp,8
20008ac2:	0000                	unimp
20008ac4:	02b8                	addi	a4,sp,328
20008ac6:	0000                	unimp
20008ac8:	a018                	fsd	fa4,0(s0)
20008aca:	ffff                	0xffff
20008acc:	0264                	addi	s1,sp,268
20008ace:	0000                	unimp
20008ad0:	0200                	addi	s0,sp,256
20008ad2:	0e44                	addi	s1,sp,788
20008ad4:	01a0                	addi	s0,sp,200
20008ad6:	8160                	0x8160
20008ad8:	8801                	andi	s0,s0,0
20008ada:	8902                	jr	s2
20008adc:	93049203          	lh	tp,-1744(s1)
20008ae0:	9405                	srai	s0,s0,0x21
20008ae2:	9506                	add	a0,a0,ra
20008ae4:	03089607          	0x3089607
20008ae8:	0138                	addi	a4,sp,136
20008aea:	c10a                	sw	sp,128(sp)
20008aec:	c844                	sw	s1,20(s0)
20008aee:	c944                	sw	s1,20(a0)
20008af0:	d244                	sw	s1,36(a2)
20008af2:	d344                	sw	s1,36(a4)
20008af4:	d444                	sw	s1,44(s0)
20008af6:	d544                	sw	s1,44(a0)
20008af8:	d644                	sw	s1,44(a2)
20008afa:	0e44                	addi	s1,sp,788
20008afc:	4400                	lw	s0,8(s0)
20008afe:	002c000b          	0x2c000b
20008b02:	0000                	unimp
20008b04:	02f8                	addi	a4,sp,332
20008b06:	0000                	unimp
20008b08:	a23c                	fsd	fa5,64(a2)
20008b0a:	ffff                	0xffff
20008b0c:	00fc                	addi	a5,sp,76
20008b0e:	0000                	unimp
20008b10:	4400                	lw	s0,8(s0)
20008b12:	900e                	c.add	zero,gp
20008b14:	4405                	li	s0,1
20008b16:	0288                	addi	a0,sp,320
20008b18:	924c                	0x924c
20008b1a:	5004                	lw	s1,32(s0)
20008b1c:	0389                	addi	t2,t2,2
20008b1e:	0181                	addi	gp,gp,0
20008b20:	9c02                	jalr	s8
20008b22:	c10a                	sw	sp,128(sp)
20008b24:	c844                	sw	s1,20(s0)
20008b26:	c944                	sw	s1,20(a0)
20008b28:	d244                	sw	s1,36(a2)
20008b2a:	0e44                	addi	s1,sp,788
20008b2c:	4400                	lw	s0,8(s0)
20008b2e:	0020000b          	0x20000b
20008b32:	0000                	unimp
20008b34:	0328                	addi	a0,sp,392
20008b36:	0000                	unimp
20008b38:	a308                	fsd	fa0,0(a4)
20008b3a:	ffff                	0xffff
20008b3c:	01bc                	addi	a5,sp,200
20008b3e:	0000                	unimp
20008b40:	4400                	lw	s0,8(s0)
20008b42:	100e                	c.slli	zero,0x23
20008b44:	8854                	0x8854
20008b46:	8102                	jr	sp
20008b48:	0201                	addi	tp,tp,0
20008b4a:	0a90                	addi	a2,sp,336
20008b4c:	44c1                	li	s1,16
20008b4e:	4cc8                	lw	a0,28(s1)
20008b50:	000e                	c.slli	zero,0x3
20008b52:	0b44                	addi	s1,sp,404
20008b54:	002c                	addi	a1,sp,8
20008b56:	0000                	unimp
20008b58:	034c                	addi	a1,sp,388
20008b5a:	0000                	unimp
20008b5c:	a4a0                	fsd	fs0,72(s1)
20008b5e:	ffff                	0xffff
20008b60:	0160                	addi	s0,sp,140
20008b62:	0000                	unimp
20008b64:	4400                	lw	s0,8(s0)
20008b66:	300e                	fld	ft0,224(sp)
20008b68:	8154                	0x8154
20008b6a:	8801                	andi	s0,s0,0
20008b6c:	8902                	jr	s2
20008b6e:	93049203          	lh	tp,-1744(s1)
20008b72:	0205                	addi	tp,tp,1
20008b74:	0a3c                	addi	a5,sp,280
20008b76:	48c1                	li	a7,16
20008b78:	44c8                	lw	a0,12(s1)
20008b7a:	44c9                	li	s1,18
20008b7c:	44d2                	lw	s1,20(sp)
20008b7e:	000e44d3          	fadd.s	fs1,ft8,ft0,rmm
20008b82:	0b44                	addi	s1,sp,404
20008b84:	0014                	0x14
20008b86:	0000                	unimp
20008b88:	037c                	addi	a5,sp,396
20008b8a:	0000                	unimp
20008b8c:	a5d0                	fsd	fa2,136(a1)
20008b8e:	ffff                	0xffff
20008b90:	0014                	0x14
20008b92:	0000                	unimp
20008b94:	4400                	lw	s0,8(s0)
20008b96:	100e                	c.slli	zero,0x23
20008b98:	8144                	0x8144
20008b9a:	0001                	nop
20008b9c:	0020                	addi	s0,sp,8
20008b9e:	0000                	unimp
20008ba0:	0394                	addi	a3,sp,448
20008ba2:	0000                	unimp
20008ba4:	a5cc                	fsd	fa1,136(a1)
20008ba6:	ffff                	0xffff
20008ba8:	010c                	addi	a1,sp,128
20008baa:	0000                	unimp
20008bac:	4400                	lw	s0,8(s0)
20008bae:	100e                	c.slli	zero,0x23
20008bb0:	814c                	0x814c
20008bb2:	8801                	andi	s0,s0,0
20008bb4:	0202                	c.slli64	tp
20008bb6:	0acc                	addi	a1,sp,340
20008bb8:	44c1                	li	s1,16
20008bba:	48c8                	lw	a0,20(s1)
20008bbc:	000e                	c.slli	zero,0x3
20008bbe:	0b44                	addi	s1,sp,404
20008bc0:	0010                	0x10
20008bc2:	0000                	unimp
20008bc4:	03b8                	addi	a4,sp,456
20008bc6:	0000                	unimp
20008bc8:	a6b4                	fsd	fa3,72(a3)
20008bca:	ffff                	0xffff
20008bcc:	0018                	0x18
20008bce:	0000                	unimp
20008bd0:	0000                	unimp
20008bd2:	0000                	unimp
20008bd4:	001c                	0x1c
20008bd6:	0000                	unimp
20008bd8:	03cc                	addi	a1,sp,452
20008bda:	0000                	unimp
20008bdc:	a6b8                	fsd	fa4,72(a3)
20008bde:	ffff                	0xffff
20008be0:	0024                	addi	s1,sp,8
20008be2:	0000                	unimp
20008be4:	4400                	lw	s0,8(s0)
20008be6:	100e                	c.slli	zero,0x23
20008be8:	8144                	0x8144
20008bea:	4c01                	li	s8,0
20008bec:	c10a                	sw	sp,128(sp)
20008bee:	0e44                	addi	s1,sp,788
20008bf0:	4400                	lw	s0,8(s0)
20008bf2:	0018000b          	0x18000b
20008bf6:	0000                	unimp
20008bf8:	03ec                	addi	a1,sp,460
20008bfa:	0000                	unimp
20008bfc:	a6bc                	fsd	fa5,72(a3)
20008bfe:	ffff                	0xffff
20008c00:	0038                	addi	a4,sp,8
20008c02:	0000                	unimp
20008c04:	4400                	lw	s0,8(s0)
20008c06:	100e                	c.slli	zero,0x23
20008c08:	8144                	0x8144
20008c0a:	6401                	0x6401
20008c0c:	48c1                	li	a7,16
20008c0e:	000e                	c.slli	zero,0x3
20008c10:	0010                	0x10
20008c12:	0000                	unimp
20008c14:	0408                	addi	a0,sp,512
20008c16:	0000                	unimp
20008c18:	a6d8                	fsd	fa4,136(a3)
20008c1a:	ffff                	0xffff
20008c1c:	0014                	0x14
20008c1e:	0000                	unimp
20008c20:	0000                	unimp
20008c22:	0000                	unimp
20008c24:	002c                	addi	a1,sp,8
20008c26:	0000                	unimp
20008c28:	041c                	addi	a5,sp,512
20008c2a:	0000                	unimp
20008c2c:	a6d8                	fsd	fa4,136(a3)
20008c2e:	ffff                	0xffff
20008c30:	006c                	addi	a1,sp,12
20008c32:	0000                	unimp
20008c34:	4400                	lw	s0,8(s0)
20008c36:	200e                	fld	ft0,192(sp)
20008c38:	8854                	0x8854
20008c3a:	8902                	jr	s2
20008c3c:	81049203          	lh	tp,-2032(s1)
20008c40:	9301                	srli	a4,a4,0x20
20008c42:	5c05                	li	s8,-31
20008c44:	c10a                	sw	sp,128(sp)
20008c46:	c844                	sw	s1,20(s0)
20008c48:	c944                	sw	s1,20(a0)
20008c4a:	d244                	sw	s1,36(a2)
20008c4c:	d344                	sw	s1,36(a4)
20008c4e:	0e44                	addi	s1,sp,788
20008c50:	4400                	lw	s0,8(s0)
20008c52:	0020000b          	0x20000b
20008c56:	0000                	unimp
20008c58:	044c                	addi	a1,sp,516
20008c5a:	0000                	unimp
20008c5c:	a714                	fsd	fa3,8(a4)
20008c5e:	ffff                	0xffff
20008c60:	0068                	addi	a0,sp,12
20008c62:	0000                	unimp
20008c64:	4400                	lw	s0,8(s0)
20008c66:	300e                	fld	ft0,224(sp)
20008c68:	8848                	0x8848
20008c6a:	5402                	lw	s0,32(sp)
20008c6c:	0181                	addi	gp,gp,0
20008c6e:	3c02                	fld	fs8,32(sp)
20008c70:	44c1                	li	s1,16
20008c72:	44c8                	lw	a0,12(s1)
20008c74:	000e                	c.slli	zero,0x3
20008c76:	0000                	unimp
20008c78:	0020                	addi	s0,sp,8
20008c7a:	0000                	unimp
20008c7c:	0470                	addi	a2,sp,524
20008c7e:	0000                	unimp
20008c80:	a758                	fsd	fa4,136(a4)
20008c82:	ffff                	0xffff
20008c84:	0108                	addi	a0,sp,128
20008c86:	0000                	unimp
20008c88:	4400                	lw	s0,8(s0)
20008c8a:	300e                	fld	ft0,224(sp)
20008c8c:	8848                	0x8848
20008c8e:	5402                	lw	s0,32(sp)
20008c90:	0181                	addi	gp,gp,0
20008c92:	dc02                	sw	zero,56(sp)
20008c94:	44c1                	li	s1,16
20008c96:	44c8                	lw	a0,12(s1)
20008c98:	000e                	c.slli	zero,0x3
20008c9a:	0000                	unimp
20008c9c:	0020                	addi	s0,sp,8
20008c9e:	0000                	unimp
20008ca0:	0494                	addi	a3,sp,576
20008ca2:	0000                	unimp
20008ca4:	a83c                	fsd	fa5,80(s0)
20008ca6:	ffff                	0xffff
20008ca8:	00dc                	addi	a5,sp,68
20008caa:	0000                	unimp
20008cac:	4400                	lw	s0,8(s0)
20008cae:	300e                	fld	ft0,224(sp)
20008cb0:	8850                	0x8850
20008cb2:	4c02                	lw	s8,0(sp)
20008cb4:	0181                	addi	gp,gp,0
20008cb6:	b002                	fsd	ft0,32(sp)
20008cb8:	44c1                	li	s1,16
20008cba:	44c8                	lw	a0,12(s1)
20008cbc:	000e                	c.slli	zero,0x3
20008cbe:	0000                	unimp
20008cc0:	0010                	0x10
20008cc2:	0000                	unimp
20008cc4:	04b8                	addi	a4,sp,584
20008cc6:	0000                	unimp
20008cc8:	a8f4                	fsd	fa3,208(s1)
20008cca:	ffff                	0xffff
20008ccc:	0014                	0x14
20008cce:	0000                	unimp
20008cd0:	0000                	unimp
20008cd2:	0000                	unimp
20008cd4:	0018                	0x18
20008cd6:	0000                	unimp
20008cd8:	04cc                	addi	a1,sp,580
20008cda:	0000                	unimp
20008cdc:	a8f4                	fsd	fa3,208(s1)
20008cde:	ffff                	0xffff
20008ce0:	0024                	addi	s1,sp,8
20008ce2:	0000                	unimp
20008ce4:	4800                	lw	s0,16(s0)
20008ce6:	100e                	c.slli	zero,0x23
20008ce8:	814c                	0x814c
20008cea:	4801                	li	a6,0
20008cec:	44c1                	li	s1,16
20008cee:	000e                	c.slli	zero,0x3
20008cf0:	0018                	0x18
20008cf2:	0000                	unimp
20008cf4:	04e8                	addi	a0,sp,588
20008cf6:	0000                	unimp
20008cf8:	a8fc                	fsd	fa5,208(s1)
20008cfa:	ffff                	0xffff
20008cfc:	0020                	addi	s0,sp,8
20008cfe:	0000                	unimp
20008d00:	4400                	lw	s0,8(s0)
20008d02:	100e                	c.slli	zero,0x23
20008d04:	814c                	0x814c
20008d06:	4801                	li	a6,0
20008d08:	44c1                	li	s1,16
20008d0a:	000e                	c.slli	zero,0x3
20008d0c:	0010                	0x10
20008d0e:	0000                	unimp
20008d10:	0504                	addi	s1,sp,640
20008d12:	0000                	unimp
20008d14:	a900                	fsd	fs0,16(a0)
20008d16:	ffff                	0xffff
20008d18:	0014                	0x14
20008d1a:	0000                	unimp
20008d1c:	0000                	unimp
20008d1e:	0000                	unimp
20008d20:	0018                	0x18
20008d22:	0000                	unimp
20008d24:	0518                	addi	a4,sp,640
20008d26:	0000                	unimp
20008d28:	a900                	fsd	fs0,16(a0)
20008d2a:	ffff                	0xffff
20008d2c:	0024                	addi	s1,sp,8
20008d2e:	0000                	unimp
20008d30:	4400                	lw	s0,8(s0)
20008d32:	100e                	c.slli	zero,0x23
20008d34:	8144                	0x8144
20008d36:	4801                	li	a6,0
20008d38:	50c1                	li	ra,-16
20008d3a:	000e                	c.slli	zero,0x3
20008d3c:	0018                	0x18
20008d3e:	0000                	unimp
20008d40:	0534                	addi	a3,sp,648
20008d42:	0000                	unimp
20008d44:	a908                	fsd	fa0,16(a0)
20008d46:	ffff                	0xffff
20008d48:	0024                	addi	s1,sp,8
20008d4a:	0000                	unimp
20008d4c:	4400                	lw	s0,8(s0)
20008d4e:	100e                	c.slli	zero,0x23
20008d50:	8144                	0x8144
20008d52:	4801                	li	a6,0
20008d54:	50c1                	li	ra,-16
20008d56:	000e                	c.slli	zero,0x3
20008d58:	0018                	0x18
20008d5a:	0000                	unimp
20008d5c:	0550                	addi	a2,sp,644
20008d5e:	0000                	unimp
20008d60:	a910                	fsd	fa2,16(a0)
20008d62:	ffff                	0xffff
20008d64:	0024                	addi	s1,sp,8
20008d66:	0000                	unimp
20008d68:	4400                	lw	s0,8(s0)
20008d6a:	100e                	c.slli	zero,0x23
20008d6c:	8144                	0x8144
20008d6e:	4801                	li	a6,0
20008d70:	50c1                	li	ra,-16
20008d72:	000e                	c.slli	zero,0x3
20008d74:	0018                	0x18
20008d76:	0000                	unimp
20008d78:	056c                	addi	a1,sp,652
20008d7a:	0000                	unimp
20008d7c:	a918                	fsd	fa4,16(a0)
20008d7e:	ffff                	0xffff
20008d80:	0030                	addi	a2,sp,8
20008d82:	0000                	unimp
20008d84:	5400                	lw	s0,40(s0)
20008d86:	100e                	c.slli	zero,0x23
20008d88:	8144                	0x8144
20008d8a:	4c01                	li	s8,0
20008d8c:	48c1                	li	a7,16
20008d8e:	000e                	c.slli	zero,0x3
20008d90:	0020                	addi	s0,sp,8
20008d92:	0000                	unimp
20008d94:	0588                	addi	a0,sp,704
20008d96:	0000                	unimp
20008d98:	a92c                	fsd	fa1,80(a0)
20008d9a:	ffff                	0xffff
20008d9c:	006c                	addi	a1,sp,12
20008d9e:	0000                	unimp
20008da0:	4c00                	lw	s0,24(s0)
20008da2:	100e                	c.slli	zero,0x23
20008da4:	8850                	0x8850
20008da6:	8102                	jr	sp
20008da8:	7001                	c.lui	zero,0xfffe0
20008daa:	c10a                	sw	sp,128(sp)
20008dac:	c848                	sw	a0,20(s0)
20008dae:	0e44                	addi	s1,sp,788
20008db0:	4400                	lw	s0,8(s0)
20008db2:	0018000b          	0x18000b
20008db6:	0000                	unimp
20008db8:	05ac                	addi	a1,sp,712
20008dba:	0000                	unimp
20008dbc:	a974                	fsd	fa3,208(a0)
20008dbe:	ffff                	0xffff
20008dc0:	0024                	addi	s1,sp,8
20008dc2:	0000                	unimp
20008dc4:	4400                	lw	s0,8(s0)
20008dc6:	100e                	c.slli	zero,0x23
20008dc8:	8144                	0x8144
20008dca:	4801                	li	a6,0
20008dcc:	50c1                	li	ra,-16
20008dce:	000e                	c.slli	zero,0x3
20008dd0:	0028                	addi	a0,sp,8
20008dd2:	0000                	unimp
20008dd4:	05c8                	addi	a0,sp,708
20008dd6:	0000                	unimp
20008dd8:	a97c                	fsd	fa5,208(a0)
20008dda:	ffff                	0xffff
20008ddc:	0078                	addi	a4,sp,12
20008dde:	0000                	unimp
20008de0:	4400                	lw	s0,8(s0)
20008de2:	100e                	c.slli	zero,0x23
20008de4:	8944                	0x8944
20008de6:	02884c03          	lbu	s8,40(a6) # ffff9028 <_end+0xdffe99f0>
20008dea:	8160                	0x8160
20008dec:	5c01                	li	s8,-32
20008dee:	c10a                	sw	sp,128(sp)
20008df0:	c848                	sw	a0,20(s0)
20008df2:	c944                	sw	s1,20(a0)
20008df4:	0e44                	addi	s1,sp,788
20008df6:	4400                	lw	s0,8(s0)
20008df8:	0000000b          	0xb
20008dfc:	0018                	0x18
20008dfe:	0000                	unimp
20008e00:	05f4                	addi	a3,sp,716
20008e02:	0000                	unimp
20008e04:	a9c8                	fsd	fa0,144(a1)
20008e06:	ffff                	0xffff
20008e08:	0024                	addi	s1,sp,8
20008e0a:	0000                	unimp
20008e0c:	4400                	lw	s0,8(s0)
20008e0e:	100e                	c.slli	zero,0x23
20008e10:	8144                	0x8144
20008e12:	4801                	li	a6,0
20008e14:	50c1                	li	ra,-16
20008e16:	000e                	c.slli	zero,0x3
20008e18:	001c                	0x1c
20008e1a:	0000                	unimp
20008e1c:	0610                	addi	a2,sp,768
20008e1e:	0000                	unimp
20008e20:	a9d0                	fsd	fa2,144(a1)
20008e22:	ffff                	0xffff
20008e24:	0040                	addi	s0,sp,4
20008e26:	0000                	unimp
20008e28:	4c00                	lw	s0,24(s0)
20008e2a:	200e                	fld	ft0,192(sp)
20008e2c:	8150                	0x8150
20008e2e:	5401                	li	s0,-32
20008e30:	c10a                	sw	sp,128(sp)
20008e32:	0e44                	addi	s1,sp,788
20008e34:	4400                	lw	s0,8(s0)
20008e36:	0034000b          	0x34000b
20008e3a:	0000                	unimp
20008e3c:	0630                	addi	a2,sp,776
20008e3e:	0000                	unimp
20008e40:	a9f0                	fsd	fa2,208(a1)
20008e42:	ffff                	0xffff
20008e44:	0080                	addi	s0,sp,64
20008e46:	0000                	unimp
20008e48:	4c00                	lw	s0,24(s0)
20008e4a:	200e                	fld	ft0,192(sp)
20008e4c:	8854                	0x8854
20008e4e:	8902                	jr	s2
20008e50:	93049203          	lh	tp,-1744(s1)
20008e54:	8105                	srli	a0,a0,0x1
20008e56:	5c01                	li	s8,-32
20008e58:	c10a                	sw	sp,128(sp)
20008e5a:	c848                	sw	a0,20(s0)
20008e5c:	c944                	sw	s1,20(a0)
20008e5e:	d244                	sw	s1,36(a2)
20008e60:	d344                	sw	s1,36(a4)
20008e62:	0e44                	addi	s1,sp,788
20008e64:	4400                	lw	s0,8(s0)
20008e66:	000e600b          	0xe600b
20008e6a:	c8c1                	beqz	s1,20008efa <_global_impure_ptr+0x6f2>
20008e6c:	d2c9                	beqz	a3,20008dee <_global_impure_ptr+0x5e6>
20008e6e:	001800d3          	fadd.s	ft1,fa6,ft1,rne
20008e72:	0000                	unimp
20008e74:	0668                	addi	a0,sp,780
20008e76:	0000                	unimp
20008e78:	aa38                	fsd	fa4,80(a2)
20008e7a:	ffff                	0xffff
20008e7c:	0024                	addi	s1,sp,8
20008e7e:	0000                	unimp
20008e80:	4400                	lw	s0,8(s0)
20008e82:	100e                	c.slli	zero,0x23
20008e84:	8144                	0x8144
20008e86:	4801                	li	a6,0
20008e88:	50c1                	li	ra,-16
20008e8a:	000e                	c.slli	zero,0x3
20008e8c:	0010                	0x10
20008e8e:	0000                	unimp
20008e90:	0684                	addi	s1,sp,832
20008e92:	0000                	unimp
20008e94:	aa40                	fsd	fs0,144(a2)
20008e96:	ffff                	0xffff
20008e98:	003c                	addi	a5,sp,8
20008e9a:	0000                	unimp
20008e9c:	0000                	unimp
20008e9e:	0000                	unimp
20008ea0:	0010                	0x10
20008ea2:	0000                	unimp
20008ea4:	0698                	addi	a4,sp,832
20008ea6:	0000                	unimp
20008ea8:	aa68                	fsd	fa0,208(a2)
20008eaa:	ffff                	0xffff
20008eac:	0014                	0x14
20008eae:	0000                	unimp
20008eb0:	0000                	unimp
20008eb2:	0000                	unimp
20008eb4:	002c                	addi	a1,sp,8
20008eb6:	0000                	unimp
20008eb8:	06ac                	addi	a1,sp,840
20008eba:	0000                	unimp
20008ebc:	aa68                	fsd	fa0,208(a2)
20008ebe:	ffff                	0xffff
20008ec0:	0098                	addi	a4,sp,64
20008ec2:	0000                	unimp
20008ec4:	4400                	lw	s0,8(s0)
20008ec6:	100e                	c.slli	zero,0x23
20008ec8:	9244                	0x9244
20008eca:	5404                	lw	s1,40(s0)
20008ecc:	0389                	addi	t2,t2,2
20008ece:	0181                	addi	gp,gp,0
20008ed0:	8854                	0x8854
20008ed2:	0202                	c.slli64	tp
20008ed4:	0a4c                	addi	a1,sp,276
20008ed6:	44c1                	li	s1,16
20008ed8:	44c8                	lw	a0,12(s1)
20008eda:	44c9                	li	s1,18
20008edc:	44d2                	lw	s1,20(sp)
20008ede:	000e                	c.slli	zero,0x3
20008ee0:	0b44                	addi	s1,sp,404
20008ee2:	0000                	unimp
20008ee4:	002c                	addi	a1,sp,8
20008ee6:	0000                	unimp
20008ee8:	06dc                	addi	a5,sp,836
20008eea:	0000                	unimp
20008eec:	aad0                	fsd	fa2,144(a3)
20008eee:	ffff                	0xffff
20008ef0:	0094                	addi	a3,sp,64
20008ef2:	0000                	unimp
20008ef4:	4400                	lw	s0,8(s0)
20008ef6:	100e                	c.slli	zero,0x23
20008ef8:	9250                	0x9250
20008efa:	5404                	lw	s1,40(s0)
20008efc:	0389                	addi	t2,t2,2
20008efe:	8150                	0x8150
20008f00:	8801                	andi	s0,s0,0
20008f02:	0202                	c.slli64	tp
20008f04:	0a40                	addi	s0,sp,276
20008f06:	44c1                	li	s1,16
20008f08:	44c8                	lw	a0,12(s1)
20008f0a:	44c9                	li	s1,18
20008f0c:	44d2                	lw	s1,20(sp)
20008f0e:	000e                	c.slli	zero,0x3
20008f10:	0b44                	addi	s1,sp,404
20008f12:	0000                	unimp
20008f14:	0010                	0x10
20008f16:	0000                	unimp
20008f18:	070c                	addi	a1,sp,896
20008f1a:	0000                	unimp
20008f1c:	ab34                	fsd	fa3,80(a4)
20008f1e:	ffff                	0xffff
20008f20:	0094                	addi	a3,sp,64
20008f22:	0000                	unimp
20008f24:	0000                	unimp
20008f26:	0000                	unimp
20008f28:	0010                	0x10
20008f2a:	0000                	unimp
20008f2c:	0720                	addi	s0,sp,904
20008f2e:	0000                	unimp
20008f30:	abb4                	fsd	fa3,80(a5)
20008f32:	ffff                	0xffff
20008f34:	0020                	addi	s0,sp,8
20008f36:	0000                	unimp
20008f38:	0000                	unimp
20008f3a:	0000                	unimp
20008f3c:	0010                	0x10
20008f3e:	0000                	unimp
20008f40:	0734                	addi	a3,sp,904
20008f42:	0000                	unimp
20008f44:	abc0                	fsd	fs0,144(a5)
20008f46:	ffff                	0xffff
20008f48:	001c                	0x1c
20008f4a:	0000                	unimp
20008f4c:	0000                	unimp
20008f4e:	0000                	unimp
20008f50:	002c                	addi	a1,sp,8
20008f52:	0000                	unimp
20008f54:	0748                	addi	a0,sp,900
20008f56:	0000                	unimp
20008f58:	abc8                	fsd	fa0,144(a5)
20008f5a:	ffff                	0xffff
20008f5c:	00f0                	addi	a2,sp,76
20008f5e:	0000                	unimp
20008f60:	4400                	lw	s0,8(s0)
20008f62:	300e                	fld	ft0,224(sp)
20008f64:	9278                	0x9278
20008f66:	8104                	0x8104
20008f68:	8801                	andi	s0,s0,0
20008f6a:	8902                	jr	s2
20008f6c:	02059303          	lh	t1,32(a1)
20008f70:	c198                	sw	a4,0(a1)
20008f72:	c844                	sw	s1,20(s0)
20008f74:	d244                	sw	s1,36(a2)
20008f76:	d344                	sw	s1,36(a4)
20008f78:	c948                	sw	a0,20(a0)
20008f7a:	0e44                	addi	s1,sp,788
20008f7c:	0000                	unimp
20008f7e:	0000                	unimp
20008f80:	0020                	addi	s0,sp,8
20008f82:	0000                	unimp
20008f84:	0778                	addi	a4,sp,908
20008f86:	0000                	unimp
20008f88:	ac88                	fsd	fa0,24(s1)
20008f8a:	ffff                	0xffff
20008f8c:	003c                	addi	a5,sp,8
20008f8e:	0000                	unimp
20008f90:	4400                	lw	s0,8(s0)
20008f92:	100e                	c.slli	zero,0x23
20008f94:	8844                	0x8844
20008f96:	4802                	lw	a6,0(sp)
20008f98:	0181                	addi	gp,gp,0
20008f9a:	c160                	sw	s0,68(a0)
20008f9c:	c844                	sw	s1,20(s0)
20008f9e:	0e44                	addi	s1,sp,788
20008fa0:	0000                	unimp
20008fa2:	0000                	unimp
20008fa4:	0030                	addi	a2,sp,8
20008fa6:	0000                	unimp
20008fa8:	079c                	addi	a5,sp,960
20008faa:	0000                	unimp
20008fac:	aca0                	fsd	fs0,88(s1)
20008fae:	ffff                	0xffff
20008fb0:	00a4                	addi	s1,sp,72
20008fb2:	0000                	unimp
20008fb4:	4400                	lw	s0,8(s0)
20008fb6:	200e                	fld	ft0,192(sp)
20008fb8:	8958                	0x8958
20008fba:	81059303          	lh	t1,-2032(a1)
20008fbe:	8801                	andi	s0,s0,0
20008fc0:	9202                	jalr	tp
20008fc2:	9404                	0x9404
20008fc4:	0206                	slli	tp,tp,0x1
20008fc6:	c168                	sw	a0,68(a0)
20008fc8:	c844                	sw	s1,20(s0)
20008fca:	d244                	sw	s1,36(a2)
20008fcc:	d344                	sw	s1,36(a4)
20008fce:	d444                	sw	s1,44(s0)
20008fd0:	c948                	sw	a0,20(a0)
20008fd2:	0e44                	addi	s1,sp,788
20008fd4:	0000                	unimp
20008fd6:	0000                	unimp
20008fd8:	0020                	addi	s0,sp,8
20008fda:	0000                	unimp
20008fdc:	07d0                	addi	a2,sp,964
20008fde:	0000                	unimp
20008fe0:	ad10                	fsd	fa2,24(a0)
20008fe2:	ffff                	0xffff
20008fe4:	005c                	addi	a5,sp,4
20008fe6:	0000                	unimp
20008fe8:	4400                	lw	s0,8(s0)
20008fea:	100e                	c.slli	zero,0x23
20008fec:	8150                	0x8150
20008fee:	8801                	andi	s0,s0,0
20008ff0:	0202                	c.slli64	tp
20008ff2:	c138                	sw	a4,64(a0)
20008ff4:	c848                	sw	a0,20(s0)
20008ff6:	0e44                	addi	s1,sp,788
20008ff8:	0000                	unimp
20008ffa:	0000                	unimp
20008ffc:	0020                	addi	s0,sp,8
20008ffe:	0000                	unimp
20009000:	07f4                	addi	a3,sp,972
20009002:	0000                	unimp
20009004:	ad48                	fsd	fa0,152(a0)
20009006:	ffff                	0xffff
20009008:	008c                	addi	a1,sp,64
2000900a:	0000                	unimp
2000900c:	4400                	lw	s0,8(s0)
2000900e:	200e                	fld	ft0,192(sp)
20009010:	8150                	0x8150
20009012:	8801                	andi	s0,s0,0
20009014:	0202                	c.slli64	tp
20009016:	c168                	sw	a0,68(a0)
20009018:	c848                	sw	a0,20(s0)
2000901a:	0e44                	addi	s1,sp,788
2000901c:	0000                	unimp
2000901e:	0000                	unimp
20009020:	0028                	addi	a0,sp,8
20009022:	0000                	unimp
20009024:	0818                	addi	a4,sp,16
20009026:	0000                	unimp
20009028:	adb0                	fsd	fa2,88(a1)
2000902a:	ffff                	0xffff
2000902c:	00c8                	addi	a0,sp,68
2000902e:	0000                	unimp
20009030:	4400                	lw	s0,8(s0)
20009032:	100e                	c.slli	zero,0x23
20009034:	9250                	0x9250
20009036:	8104                	0x8104
20009038:	8801                	andi	s0,s0,0
2000903a:	8902                	jr	s2
2000903c:	0a6c0203          	lb	tp,166(s8) # fffe00a6 <_end+0xdffd0a6e>
20009040:	48c1                	li	a7,16
20009042:	44c8                	lw	a0,12(s1)
20009044:	44c9                	li	s1,18
20009046:	44d2                	lw	s1,20(sp)
20009048:	000e                	c.slli	zero,0x3
2000904a:	0b44                	addi	s1,sp,404
2000904c:	0018                	0x18
2000904e:	0000                	unimp
20009050:	0844                	addi	s1,sp,20
20009052:	0000                	unimp
20009054:	ae4c                	fsd	fa1,152(a2)
20009056:	ffff                	0xffff
20009058:	0020                	addi	s0,sp,8
2000905a:	0000                	unimp
2000905c:	4400                	lw	s0,8(s0)
2000905e:	100e                	c.slli	zero,0x23
20009060:	814c                	0x814c
20009062:	4801                	li	a6,0
20009064:	44c1                	li	s1,16
20009066:	000e                	c.slli	zero,0x3
20009068:	0034                	addi	a3,sp,8
2000906a:	0000                	unimp
2000906c:	0860                	addi	s0,sp,28
2000906e:	0000                	unimp
20009070:	ae50                	fsd	fa2,152(a2)
20009072:	ffff                	0xffff
20009074:	0124                	addi	s1,sp,136
20009076:	0000                	unimp
20009078:	4400                	lw	s0,8(s0)
2000907a:	200e                	fld	ft0,192(sp)
2000907c:	8948                	0x8948
2000907e:	60069403          	lh	s0,1536(a3) # 1600 <_start-0x1fffea00>
20009082:	0181                	addi	gp,gp,0
20009084:	0288                	addi	a0,sp,320
20009086:	0492                	slli	s1,s1,0x4
20009088:	95480593          	addi	a1,a6,-1708
2000908c:	c1cc0207          	0xc1cc0207
20009090:	c848                	sw	a0,20(s0)
20009092:	c944                	sw	s1,20(a0)
20009094:	d244                	sw	s1,36(a2)
20009096:	d344                	sw	s1,36(a4)
20009098:	d444                	sw	s1,44(s0)
2000909a:	d544                	sw	s1,44(a0)
2000909c:	0e44                	addi	s1,sp,788
2000909e:	0000                	unimp
200090a0:	0034                	addi	a3,sp,8
200090a2:	0000                	unimp
200090a4:	0898                	addi	a4,sp,80
200090a6:	0000                	unimp
200090a8:	af3c                	fsd	fa5,88(a4)
200090aa:	ffff                	0xffff
200090ac:	00a0                	addi	s0,sp,72
200090ae:	0000                	unimp
200090b0:	4400                	lw	s0,8(s0)
200090b2:	100e                	c.slli	zero,0x23
200090b4:	8944                	0x8944
200090b6:	01815803          	lhu	a6,24(sp)
200090ba:	0288                	addi	a0,sp,320
200090bc:	0492                	slli	s1,s1,0x4
200090be:	4402                	lw	s0,0(sp)
200090c0:	c80a                	sw	sp,16(sp)
200090c2:	c144                	sw	s1,4(a0)
200090c4:	c944                	sw	s1,20(a0)
200090c6:	d244                	sw	s1,36(a2)
200090c8:	0e44                	addi	s1,sp,788
200090ca:	4400                	lw	s0,8(s0)
200090cc:	44c1540b          	0x44c1540b
200090d0:	44c8                	lw	a0,12(s1)
200090d2:	44c9                	li	s1,18
200090d4:	44d2                	lw	s1,20(sp)
200090d6:	000e                	c.slli	zero,0x3
200090d8:	0038                	addi	a4,sp,8
200090da:	0000                	unimp
200090dc:	08d0                	addi	a2,sp,84
200090de:	0000                	unimp
200090e0:	afa4                	fsd	fs1,88(a5)
200090e2:	ffff                	0xffff
200090e4:	00a8                	addi	a0,sp,72
200090e6:	0000                	unimp
200090e8:	4400                	lw	s0,8(s0)
200090ea:	b00e                	fsd	ft3,32(sp)
200090ec:	6004                	flw	fs1,0(s0)
200090ee:	0694                	addi	a3,sp,832
200090f0:	0181                	addi	gp,gp,0
200090f2:	0288                	addi	a0,sp,320
200090f4:	0389                	addi	t2,t2,2
200090f6:	0492                	slli	s1,s1,0x4
200090f8:	07950593          	addi	a1,a0,121
200090fc:	0896                	slli	a7,a7,0x5
200090fe:	6002                	flw	ft0,0(sp)
20009100:	44c1                	li	s1,16
20009102:	44c8                	lw	a0,12(s1)
20009104:	44c9                	li	s1,18
20009106:	44d2                	lw	s1,20(sp)
20009108:	44d444d3          	0x44d444d3
2000910c:	44d5                	li	s1,21
2000910e:	44d6                	lw	s1,84(sp)
20009110:	000e                	c.slli	zero,0x3
20009112:	0000                	unimp
20009114:	0038                	addi	a4,sp,8
20009116:	0000                	unimp
20009118:	090c                	addi	a1,sp,144
2000911a:	0000                	unimp
2000911c:	b010                	fsd	fa2,32(s0)
2000911e:	ffff                	0xffff
20009120:	00a8                	addi	a0,sp,72
20009122:	0000                	unimp
20009124:	4400                	lw	s0,8(s0)
20009126:	b00e                	fsd	ft3,32(sp)
20009128:	6004                	flw	fs1,0(s0)
2000912a:	0694                	addi	a3,sp,832
2000912c:	0181                	addi	gp,gp,0
2000912e:	0288                	addi	a0,sp,320
20009130:	0389                	addi	t2,t2,2
20009132:	0492                	slli	s1,s1,0x4
20009134:	07950593          	addi	a1,a0,121
20009138:	0896                	slli	a7,a7,0x5
2000913a:	6002                	flw	ft0,0(sp)
2000913c:	44c1                	li	s1,16
2000913e:	44c8                	lw	a0,12(s1)
20009140:	44c9                	li	s1,18
20009142:	44d2                	lw	s1,20(sp)
20009144:	44d444d3          	0x44d444d3
20009148:	44d5                	li	s1,21
2000914a:	44d6                	lw	s1,84(sp)
2000914c:	000e                	c.slli	zero,0x3
2000914e:	0000                	unimp
20009150:	0020                	addi	s0,sp,8
20009152:	0000                	unimp
20009154:	0948                	addi	a0,sp,148
20009156:	0000                	unimp
20009158:	b07c                	fsd	fa5,224(s0)
2000915a:	ffff                	0xffff
2000915c:	005c                	addi	a5,sp,4
2000915e:	0000                	unimp
20009160:	4400                	lw	s0,8(s0)
20009162:	100e                	c.slli	zero,0x23
20009164:	8848                	0x8848
20009166:	8102                	jr	sp
20009168:	6c01                	0x6c01
2000916a:	c10a                	sw	sp,128(sp)
2000916c:	c844                	sw	s1,20(s0)
2000916e:	0e44                	addi	s1,sp,788
20009170:	4400                	lw	s0,8(s0)
20009172:	0010000b          	0x10000b
20009176:	0000                	unimp
20009178:	096c                	addi	a1,sp,156
2000917a:	0000                	unimp
2000917c:	b0b4                	fsd	fa3,96(s1)
2000917e:	ffff                	0xffff
20009180:	002c                	addi	a1,sp,8
20009182:	0000                	unimp
20009184:	0000                	unimp
20009186:	0000                	unimp
20009188:	0010                	0x10
2000918a:	0000                	unimp
2000918c:	0980                	addi	s0,sp,208
2000918e:	0000                	unimp
20009190:	b0cc                	fsd	fa1,160(s1)
20009192:	ffff                	0xffff
20009194:	002c                	addi	a1,sp,8
20009196:	0000                	unimp
20009198:	0000                	unimp
2000919a:	0000                	unimp
2000919c:	0010                	0x10
2000919e:	0000                	unimp
200091a0:	0994                	addi	a3,sp,208
200091a2:	0000                	unimp
200091a4:	b0e4                	fsd	fs1,224(s1)
200091a6:	ffff                	0xffff
200091a8:	003c                	addi	a5,sp,8
200091aa:	0000                	unimp
200091ac:	0000                	unimp
200091ae:	0000                	unimp
200091b0:	0010                	0x10
200091b2:	0000                	unimp
200091b4:	09a8                	addi	a0,sp,216
200091b6:	0000                	unimp
200091b8:	b10c                	fsd	fa1,32(a0)
200091ba:	ffff                	0xffff
200091bc:	0030                	addi	a2,sp,8
200091be:	0000                	unimp
200091c0:	0000                	unimp
200091c2:	0000                	unimp
200091c4:	0010                	0x10
200091c6:	0000                	unimp
200091c8:	09bc                	addi	a5,sp,216
200091ca:	0000                	unimp
200091cc:	b128                	fsd	fa0,96(a0)
200091ce:	ffff                	0xffff
200091d0:	00d8                	addi	a4,sp,68
200091d2:	0000                	unimp
200091d4:	0000                	unimp
200091d6:	0000                	unimp
200091d8:	0024                	addi	s1,sp,8
200091da:	0000                	unimp
200091dc:	09d0                	addi	a2,sp,212
200091de:	0000                	unimp
200091e0:	b1ec                	fsd	fa1,224(a1)
200091e2:	ffff                	0xffff
200091e4:	0070                	addi	a2,sp,12
200091e6:	0000                	unimp
200091e8:	4400                	lw	s0,8(s0)
200091ea:	100e                	c.slli	zero,0x23
200091ec:	894c                	0x894c
200091ee:	88018103          	lb	sp,-1920(gp) # 2000a610 <Fs+0x3c>
200091f2:	5402                	lw	s0,32(sp)
200091f4:	c10a                	sw	sp,128(sp)
200091f6:	c844                	sw	s1,20(s0)
200091f8:	c948                	sw	a0,20(a0)
200091fa:	0e44                	addi	s1,sp,788
200091fc:	4400                	lw	s0,8(s0)
200091fe:	0024000b          	0x24000b
20009202:	0000                	unimp
20009204:	09f8                	addi	a4,sp,220
20009206:	0000                	unimp
20009208:	b234                	fsd	fa3,96(a2)
2000920a:	ffff                	0xffff
2000920c:	009c                	addi	a5,sp,64
2000920e:	0000                	unimp
20009210:	4400                	lw	s0,8(s0)
20009212:	200e                	fld	ft0,192(sp)
20009214:	814c                	0x814c
20009216:	8801                	andi	s0,s0,0
20009218:	8902                	jr	s2
2000921a:	c10a5003          	lhu	zero,-1008(s4)
2000921e:	c844                	sw	s1,20(s0)
20009220:	c948                	sw	a0,20(a0)
20009222:	0e44                	addi	s1,sp,788
20009224:	4400                	lw	s0,8(s0)
20009226:	0024000b          	0x24000b
2000922a:	0000                	unimp
2000922c:	0a20                	addi	s0,sp,280
2000922e:	0000                	unimp
20009230:	b2a8                	fsd	fa0,96(a3)
20009232:	ffff                	0xffff
20009234:	0068                	addi	a0,sp,12
20009236:	0000                	unimp
20009238:	4c00                	lw	s0,24(s0)
2000923a:	100e                	c.slli	zero,0x23
2000923c:	884c                	0x884c
2000923e:	8902                	jr	s2
20009240:	02018103          	lb	sp,32(gp) # 2000adb0 <__global_pointer$+0x20>
20009244:	c138                	sw	a4,64(a0)
20009246:	c844                	sw	s1,20(s0)
20009248:	c944                	sw	s1,20(a0)
2000924a:	0e44                	addi	s1,sp,788
2000924c:	0000                	unimp
2000924e:	0000                	unimp
20009250:	0028                	addi	a0,sp,8
20009252:	0000                	unimp
20009254:	0a48                	addi	a0,sp,276
20009256:	0000                	unimp
20009258:	b2e8                	fsd	fa0,224(a3)
2000925a:	ffff                	0xffff
2000925c:	015c                	addi	a5,sp,132
2000925e:	0000                	unimp
20009260:	4400                	lw	s0,8(s0)
20009262:	100e                	c.slli	zero,0x23
20009264:	8850                	0x8850
20009266:	8902                	jr	s2
20009268:	92018103          	lb	sp,-1760(gp) # 2000a6b0 <Fs+0xdc>
2000926c:	0204                	addi	s1,sp,256
2000926e:	0a64                	addi	s1,sp,284
20009270:	44c1                	li	s1,16
20009272:	44c8                	lw	a0,12(s1)
20009274:	48d2                	lw	a7,20(sp)
20009276:	44c9                	li	s1,18
20009278:	000e                	c.slli	zero,0x3
2000927a:	0b44                	addi	s1,sp,404
2000927c:	0038                	addi	a4,sp,8
2000927e:	0000                	unimp
20009280:	0a74                	addi	a3,sp,284
20009282:	0000                	unimp
20009284:	b418                	fsd	fa4,40(s0)
20009286:	ffff                	0xffff
20009288:	01f0                	addi	a2,sp,204
2000928a:	0000                	unimp
2000928c:	4400                	lw	s0,8(s0)
2000928e:	200e                	fld	ft0,192(sp)
20009290:	9260                	0x9260
20009292:	9404                	0x9404
20009294:	8106                	mv	sp,ra
20009296:	8801                	andi	s0,s0,0
20009298:	8902                	jr	s2
2000929a:	95059303          	lh	t1,-1712(a1)
2000929e:	02089607          	0x2089607
200092a2:	0ae4                	addi	s1,sp,348
200092a4:	44c1                	li	s1,16
200092a6:	44c8                	lw	a0,12(s1)
200092a8:	44c9                	li	s1,18
200092aa:	44d444d3          	0x44d444d3
200092ae:	44d5                	li	s1,21
200092b0:	48d6                	lw	a7,84(sp)
200092b2:	44d2                	lw	s1,20(sp)
200092b4:	000e                	c.slli	zero,0x3
200092b6:	0b44                	addi	s1,sp,404
200092b8:	0034                	addi	a3,sp,8
200092ba:	0000                	unimp
200092bc:	0ab0                	addi	a2,sp,344
200092be:	0000                	unimp
200092c0:	b5cc                	fsd	fa1,168(a1)
200092c2:	ffff                	0xffff
200092c4:	03dc                	addi	a5,sp,452
200092c6:	0000                	unimp
200092c8:	4400                	lw	s0,8(s0)
200092ca:	300e                	fld	ft0,224(sp)
200092cc:	925c                	0x925c
200092ce:	9304                	0x9304
200092d0:	8105                	srli	a0,a0,0x1
200092d2:	8801                	andi	s0,s0,0
200092d4:	8902                	jr	s2
200092d6:	95069403          	lh	s0,-1712(a3)
200092da:	0a6c0207          	0xa6c0207
200092de:	44c1                	li	s1,16
200092e0:	44c8                	lw	a0,12(s1)
200092e2:	44c9                	li	s1,18
200092e4:	44d2                	lw	s1,20(sp)
200092e6:	44d444d3          	0x44d444d3
200092ea:	48d5                	li	a7,21
200092ec:	000e                	c.slli	zero,0x3
200092ee:	0b44                	addi	s1,sp,404
200092f0:	0010                	0x10
200092f2:	0000                	unimp
200092f4:	0ae8                	addi	a0,sp,348
200092f6:	0000                	unimp
200092f8:	b970                	fsd	fa2,240(a0)
200092fa:	ffff                	0xffff
200092fc:	0038                	addi	a4,sp,8
200092fe:	0000                	unimp
20009300:	0000                	unimp
20009302:	0000                	unimp
20009304:	0038                	addi	a4,sp,8
20009306:	0000                	unimp
20009308:	0afc                	addi	a5,sp,348
2000930a:	0000                	unimp
2000930c:	b994                	fsd	fa3,48(a1)
2000930e:	ffff                	0xffff
20009310:	0150                	addi	a2,sp,132
20009312:	0000                	unimp
20009314:	5000                	lw	s0,32(s0)
20009316:	200e                	fld	ft0,192(sp)
20009318:	8854                	0x8854
2000931a:	8902                	jr	s2
2000931c:	92018103          	lb	sp,-1760(gp) # 2000a6b0 <Fs+0xdc>
20009320:	9304                	0x9304
20009322:	0205                	addi	tp,tp,1
20009324:	0a48                	addi	a0,sp,276
20009326:	44c1                	li	s1,16
20009328:	44c8                	lw	a0,12(s1)
2000932a:	44c9                	li	s1,18
2000932c:	44d2                	lw	s1,20(sp)
2000932e:	000e48d3          	fadd.s	fa7,ft8,ft0,rmm
20009332:	0b44                	addi	s1,sp,404
20009334:	bc02                	fsd	ft0,56(sp)
20009336:	000e                	c.slli	zero,0x3
20009338:	c8c1                	beqz	s1,200093c8 <_global_impure_ptr+0xbc0>
2000933a:	d2c9                	beqz	a3,200092bc <_global_impure_ptr+0xab4>
2000933c:	000000d3          	fadd.s	ft1,ft0,ft0,rne
20009340:	0034                	addi	a3,sp,8
20009342:	0000                	unimp
20009344:	0b38                	addi	a4,sp,408
20009346:	0000                	unimp
20009348:	baa8                	fsd	fa0,112(a3)
2000934a:	ffff                	0xffff
2000934c:	019c                	addi	a5,sp,192
2000934e:	0000                	unimp
20009350:	4400                	lw	s0,8(s0)
20009352:	200e                	fld	ft0,192(sp)
20009354:	895c                	0x895c
20009356:	81059303          	lh	t1,-2032(a1)
2000935a:	8801                	andi	s0,s0,0
2000935c:	9202                	jalr	tp
2000935e:	9404                	0x9404
20009360:	9506                	add	a0,a0,ra
20009362:	0a3c0207          	0xa3c0207
20009366:	48c1                	li	a7,16
20009368:	44c8                	lw	a0,12(s1)
2000936a:	44c9                	li	s1,18
2000936c:	44d2                	lw	s1,20(sp)
2000936e:	44d444d3          	0x44d444d3
20009372:	44d5                	li	s1,21
20009374:	000e                	c.slli	zero,0x3
20009376:	0b44                	addi	s1,sp,404
20009378:	0040                	addi	s0,sp,4
2000937a:	0000                	unimp
2000937c:	0b70                	addi	a2,sp,412
2000937e:	0000                	unimp
20009380:	bc0c                	fsd	fa1,56(s0)
20009382:	ffff                	0xffff
20009384:	01b0                	addi	a2,sp,200
20009386:	0000                	unimp
20009388:	4400                	lw	s0,8(s0)
2000938a:	300e                	fld	ft0,224(sp)
2000938c:	9444                	0x9444
2000938e:	6406                	flw	fs0,64(sp)
20009390:	0288                	addi	a0,sp,320
20009392:	0389                	addi	t2,t2,2
20009394:	01810593          	addi	a1,sp,24
20009398:	0492                	slli	s1,s1,0x4
2000939a:	0795                	addi	a5,a5,5
2000939c:	0896                	slli	a7,a7,0x5
2000939e:	58020997          	auipc	s3,0x58020
200093a2:	c10a                	sw	sp,128(sp)
200093a4:	c844                	sw	s1,20(s0)
200093a6:	c944                	sw	s1,20(a0)
200093a8:	d244                	sw	s1,36(a2)
200093aa:	d344                	sw	s1,36(a4)
200093ac:	d444                	sw	s1,44(s0)
200093ae:	d544                	sw	s1,44(a0)
200093b0:	d644                	sw	s1,44(a2)
200093b2:	d744                	sw	s1,44(a4)
200093b4:	0e44                	addi	s1,sp,788
200093b6:	4400                	lw	s0,8(s0)
200093b8:	0000000b          	0xb
200093bc:	0038                	addi	a4,sp,8
200093be:	0000                	unimp
200093c0:	0bb4                	addi	a3,sp,472
200093c2:	0000                	unimp
200093c4:	bd78                	fsd	fa4,248(a0)
200093c6:	ffff                	0xffff
200093c8:	0128                	addi	a0,sp,136
200093ca:	0000                	unimp
200093cc:	4400                	lw	s0,8(s0)
200093ce:	300e                	fld	ft0,224(sp)
200093d0:	8960                	0x8960
200093d2:	88018103          	lb	sp,-1920(gp) # 2000a610 <Fs+0x3c>
200093d6:	9202                	jalr	tp
200093d8:	9304                	0x9304
200093da:	9405                	srai	s0,s0,0x21
200093dc:	9506                	add	a0,a0,ra
200093de:	54089607          	0x54089607
200093e2:	c10a                	sw	sp,128(sp)
200093e4:	c844                	sw	s1,20(s0)
200093e6:	c944                	sw	s1,20(a0)
200093e8:	d244                	sw	s1,36(a2)
200093ea:	d444                	sw	s1,44(s0)
200093ec:	d544                	sw	s1,44(a0)
200093ee:	d644                	sw	s1,44(a2)
200093f0:	d348                	sw	a0,36(a4)
200093f2:	0e44                	addi	s1,sp,788
200093f4:	4400                	lw	s0,8(s0)
200093f6:	0050000b          	0x50000b
200093fa:	0000                	unimp
200093fc:	0bf0                	addi	a2,sp,476
200093fe:	0000                	unimp
20009400:	be64                	fsd	fs1,248(a2)
20009402:	ffff                	0xffff
20009404:	0268                	addi	a0,sp,268
20009406:	0000                	unimp
20009408:	4400                	lw	s0,8(s0)
2000940a:	500e                	0x500e
2000940c:	8850                	0x8850
2000940e:	9502                	jalr	a0
20009410:	6c0b9907          	0x6c0b9907
20009414:	0181                	addi	gp,gp,0
20009416:	0389                	addi	t2,t2,2
20009418:	0492                	slli	s1,s1,0x4
2000941a:	06940593          	addi	a1,s0,105
2000941e:	0896                	slli	a7,a7,0x5
20009420:	0a980997          	auipc	s3,0xa980
20009424:	0c9a                	slli	s9,s9,0x6
20009426:	e4030d9b          	0xe4030d9b
2000942a:	0a01                	addi	s4,s4,0
2000942c:	48c1                	li	a7,16
2000942e:	44c8                	lw	a0,12(s1)
20009430:	44c9                	li	s1,18
20009432:	44d2                	lw	s1,20(sp)
20009434:	44d444d3          	0x44d444d3
20009438:	44d5                	li	s1,21
2000943a:	44d6                	lw	s1,84(sp)
2000943c:	44d844d7          	0x44d844d7
20009440:	44d9                	li	s1,22
20009442:	44da                	lw	s1,148(sp)
20009444:	000e44db          	0xe44db
20009448:	0b44                	addi	s1,sp,404
2000944a:	0000                	unimp
2000944c:	0070                	addi	a2,sp,12
2000944e:	0000                	unimp
20009450:	0c44                	addi	s1,sp,532
20009452:	0000                	unimp
20009454:	c078                	sw	a4,68(s0)
20009456:	ffff                	0xffff
20009458:	053c                	addi	a5,sp,648
2000945a:	0000                	unimp
2000945c:	4400                	lw	s0,8(s0)
2000945e:	500e                	0x500e
20009460:	9274                	0x9274
20009462:	9304                	0x9304
20009464:	9605                	srai	a2,a2,0x21
20009466:	8108                	0x8108
20009468:	8801                	andi	s0,s0,0
2000946a:	8902                	jr	s2
2000946c:	95069403          	lh	s0,-1712(a3)
20009470:	98099707          	0x98099707
20009474:	990a                	add	s2,s2,sp
20009476:	9b0c9a0b          	0x9b0c9a0b
2000947a:	020d                	addi	tp,tp,3
2000947c:	0abc                	addi	a5,sp,344
2000947e:	48c8                	lw	a0,20(s1)
20009480:	44c1                	li	s1,16
20009482:	44c9                	li	s1,18
20009484:	44d2                	lw	s1,20(sp)
20009486:	44d444d3          	0x44d444d3
2000948a:	44d5                	li	s1,21
2000948c:	44d844d7          	0x44d844d7
20009490:	44d9                	li	s1,22
20009492:	44da                	lw	s1,148(sp)
20009494:	48d64cdb          	0x48d64cdb
20009498:	000e                	c.slli	zero,0x3
2000949a:	0b44                	addi	s1,sp,404
2000949c:	d002                	sw	zero,32(sp)
2000949e:	c10a                	sw	sp,128(sp)
200094a0:	c844                	sw	s1,20(s0)
200094a2:	c944                	sw	s1,20(a0)
200094a4:	d244                	sw	s1,36(a2)
200094a6:	d344                	sw	s1,36(a4)
200094a8:	d444                	sw	s1,44(s0)
200094aa:	d544                	sw	s1,44(a0)
200094ac:	d644                	sw	s1,44(a2)
200094ae:	d744                	sw	s1,44(a4)
200094b0:	d844                	sw	s1,52(s0)
200094b2:	d944                	sw	s1,52(a0)
200094b4:	da44                	sw	s1,52(a2)
200094b6:	db44                	sw	s1,52(a4)
200094b8:	0e44                	addi	s1,sp,788
200094ba:	4400                	lw	s0,8(s0)
200094bc:	0000000b          	0xb
200094c0:	0020                	addi	s0,sp,8
200094c2:	0000                	unimp
200094c4:	0cb8                	addi	a4,sp,600
200094c6:	0000                	unimp
200094c8:	c540                	sw	s0,12(a0)
200094ca:	ffff                	0xffff
200094cc:	0088                	addi	a0,sp,64
200094ce:	0000                	unimp
200094d0:	4400                	lw	s0,8(s0)
200094d2:	300e                	fld	ft0,224(sp)
200094d4:	8850                	0x8850
200094d6:	8102                	jr	sp
200094d8:	0201                	addi	tp,tp,0
200094da:	0a60                	addi	s0,sp,284
200094dc:	44c1                	li	s1,16
200094de:	44c8                	lw	a0,12(s1)
200094e0:	000e                	c.slli	zero,0x3
200094e2:	0b44                	addi	s1,sp,404
200094e4:	0050                	addi	a2,sp,4
200094e6:	0000                	unimp
200094e8:	0cdc                	addi	a5,sp,596
200094ea:	0000                	unimp
200094ec:	c5a4                	sw	s1,72(a1)
200094ee:	ffff                	0xffff
200094f0:	0720                	addi	s0,sp,904
200094f2:	0000                	unimp
200094f4:	4400                	lw	s0,8(s0)
200094f6:	a00e                	fsd	ft3,0(sp)
200094f8:	7401                	lui	s0,0xfffe0
200094fa:	0795                	addi	a5,a5,5
200094fc:	0181                	addi	gp,gp,0
200094fe:	0288                	addi	a0,sp,320
20009500:	0389                	addi	t2,t2,2
20009502:	0492                	slli	s1,s1,0x4
20009504:	06940593          	addi	a1,s0,105 # fffe0069 <_end+0xdffd0a31>
20009508:	0896                	slli	a7,a7,0x5
2000950a:	0a980997          	auipc	s3,0xa980
2000950e:	0b99                	addi	s7,s7,6
20009510:	0c9a                	slli	s9,s9,0x6
20009512:	54030d9b          	0x54030d9b
20009516:	0a05                	addi	s4,s4,1
20009518:	44c1                	li	s1,16
2000951a:	44c8                	lw	a0,12(s1)
2000951c:	44c9                	li	s1,18
2000951e:	44d2                	lw	s1,20(sp)
20009520:	44d444d3          	0x44d444d3
20009524:	44d6                	lw	s1,84(sp)
20009526:	44d844d7          	0x44d844d7
2000952a:	44d9                	li	s1,22
2000952c:	44da                	lw	s1,148(sp)
2000952e:	44d548db          	0x44d548db
20009532:	000e                	c.slli	zero,0x3
20009534:	0b44                	addi	s1,sp,404
20009536:	0000                	unimp
20009538:	004c                	addi	a1,sp,4
2000953a:	0000                	unimp
2000953c:	0d30                	addi	a2,sp,664
2000953e:	0000                	unimp
20009540:	cc70                	sw	a2,92(s0)
20009542:	ffff                	0xffff
20009544:	0260                	addi	s0,sp,268
20009546:	0000                	unimp
20009548:	4400                	lw	s0,8(s0)
2000954a:	500e                	0x500e
2000954c:	8874                	0x8874
2000954e:	8902                	jr	s2
20009550:	95049203          	lh	tp,-1712(s1)
20009554:	81089607          	0x81089607
20009558:	9301                	srli	a4,a4,0x20
2000955a:	9405                	srai	s0,s0,0x21
2000955c:	9706                	add	a4,a4,ra
2000955e:	9809                	andi	s0,s0,-30
20009560:	990a                	add	s2,s2,sp
20009562:	9b0c9a0b          	0x9b0c9a0b
20009566:	020d                	addi	tp,tp,3
20009568:	0aa8                	addi	a0,sp,344
2000956a:	44c1                	li	s1,16
2000956c:	44c8                	lw	a0,12(s1)
2000956e:	44d2                	lw	s1,20(sp)
20009570:	44d444d3          	0x44d444d3
20009574:	44d5                	li	s1,21
20009576:	44d6                	lw	s1,84(sp)
20009578:	44d844d7          	0x44d844d7
2000957c:	44d9                	li	s1,22
2000957e:	44da                	lw	s1,148(sp)
20009580:	44c948db          	0x44c948db
20009584:	000e                	c.slli	zero,0x3
20009586:	0b44                	addi	s1,sp,404
20009588:	004c                	addi	a1,sp,4
2000958a:	0000                	unimp
2000958c:	0d80                	addi	s0,sp,720
2000958e:	0000                	unimp
20009590:	ce80                	sw	s0,24(a3)
20009592:	ffff                	0xffff
20009594:	02c0                	addi	s0,sp,324
20009596:	0000                	unimp
20009598:	4400                	lw	s0,8(s0)
2000959a:	600e                	flw	ft0,192(sp)
2000959c:	8874                	0x8874
2000959e:	9202                	jalr	tp
200095a0:	9304                	0x9304
200095a2:	9405                	srai	s0,s0,0x21
200095a4:	9506                	add	a0,a0,ra
200095a6:	89018107          	0x89018107
200095aa:	97089603          	lh	a2,-1680(a7)
200095ae:	9809                	andi	s0,s0,-30
200095b0:	990a                	add	s2,s2,sp
200095b2:	9b0c9a0b          	0x9b0c9a0b
200095b6:	020d                	addi	tp,tp,3
200095b8:	0abc                	addi	a5,sp,344
200095ba:	44c1                	li	s1,16
200095bc:	44c8                	lw	a0,12(s1)
200095be:	44c9                	li	s1,18
200095c0:	44d2                	lw	s1,20(sp)
200095c2:	44d4                	lw	a3,12(s1)
200095c4:	44d5                	li	s1,21
200095c6:	44d6                	lw	s1,84(sp)
200095c8:	44d844d7          	0x44d844d7
200095cc:	44d9                	li	s1,22
200095ce:	44da                	lw	s1,148(sp)
200095d0:	44d348db          	0x44d348db
200095d4:	000e                	c.slli	zero,0x3
200095d6:	0b44                	addi	s1,sp,404
200095d8:	002c                	addi	a1,sp,8
200095da:	0000                	unimp
200095dc:	0dd0                	addi	a2,sp,724
200095de:	0000                	unimp
200095e0:	d0f0                	sw	a2,100(s1)
200095e2:	ffff                	0xffff
200095e4:	021c                	addi	a5,sp,256
200095e6:	0000                	unimp
200095e8:	4400                	lw	s0,8(s0)
200095ea:	300e                	fld	ft0,224(sp)
200095ec:	8958                	0x8958
200095ee:	88018103          	lb	sp,-1920(gp) # 2000a610 <Fs+0x3c>
200095f2:	9202                	jalr	tp
200095f4:	9304                	0x9304
200095f6:	0305                	addi	t1,t1,1
200095f8:	01e8                	addi	a0,sp,204
200095fa:	44c1                	li	s1,16
200095fc:	44c8                	lw	a0,12(s1)
200095fe:	44c9                	li	s1,18
20009600:	44d2                	lw	s1,20(sp)
20009602:	000e44d3          	fadd.s	fs1,ft8,ft0,rmm
20009606:	0000                	unimp
20009608:	001c                	0x1c
2000960a:	0000                	unimp
2000960c:	0e00                	addi	s0,sp,784
2000960e:	0000                	unimp
20009610:	d2dc                	sw	a5,36(a3)
20009612:	ffff                	0xffff
20009614:	003c                	addi	a5,sp,8
20009616:	0000                	unimp
20009618:	4400                	lw	s0,8(s0)
2000961a:	200e                	fld	ft0,192(sp)
2000961c:	8848                	0x8848
2000961e:	8102                	jr	sp
20009620:	6401                	0x6401
20009622:	44c1                	li	s1,16
20009624:	44c8                	lw	a0,12(s1)
20009626:	000e                	c.slli	zero,0x3
20009628:	001c                	0x1c
2000962a:	0000                	unimp
2000962c:	0e20                	addi	s0,sp,792
2000962e:	0000                	unimp
20009630:	d2f8                	sw	a4,100(a3)
20009632:	ffff                	0xffff
20009634:	0038                	addi	a4,sp,8
20009636:	0000                	unimp
20009638:	4400                	lw	s0,8(s0)
2000963a:	200e                	fld	ft0,192(sp)
2000963c:	814c                	0x814c
2000963e:	5801                	li	a6,-32
20009640:	c10a                	sw	sp,128(sp)
20009642:	0e44                	addi	s1,sp,788
20009644:	4400                	lw	s0,8(s0)
20009646:	0024000b          	0x24000b
2000964a:	0000                	unimp
2000964c:	0e40                	addi	s0,sp,788
2000964e:	0000                	unimp
20009650:	d310                	sw	a2,32(a4)
20009652:	ffff                	0xffff
20009654:	00a0                	addi	s0,sp,72
20009656:	0000                	unimp
20009658:	4400                	lw	s0,8(s0)
2000965a:	600e                	flw	ft0,192(sp)
2000965c:	885c                	0x885c
2000965e:	8102                	jr	sp
20009660:	8901                	andi	a0,a0,0
20009662:	0a3c0203          	lb	tp,163(s8)
20009666:	48c1                	li	a7,16
20009668:	44c8                	lw	a0,12(s1)
2000966a:	44c9                	li	s1,18
2000966c:	000e                	c.slli	zero,0x3
2000966e:	0b44                	addi	s1,sp,404
20009670:	0048                	addi	a0,sp,4
20009672:	0000                	unimp
20009674:	0e68                	addi	a0,sp,796
20009676:	0000                	unimp
20009678:	d388                	sw	a0,32(a5)
2000967a:	ffff                	0xffff
2000967c:	0388                	addi	a0,sp,448
2000967e:	0000                	unimp
20009680:	4400                	lw	s0,8(s0)
20009682:	500e                	0x500e
20009684:	8944                	0x8944
20009686:	02887003          	0x2887003
2000968a:	0492                	slli	s1,s1,0x4
2000968c:	0181                	addi	gp,gp,0
2000968e:	06940593          	addi	a1,s0,105
20009692:	0795                	addi	a5,a5,5
20009694:	0896                	slli	a7,a7,0x5
20009696:	0a980997          	auipc	s3,0xa980
2000969a:	0b99                	addi	s7,s7,6
2000969c:	7402                	flw	fs0,32(sp)
2000969e:	c10a                	sw	sp,128(sp)
200096a0:	c844                	sw	s1,20(s0)
200096a2:	c944                	sw	s1,20(a0)
200096a4:	d344                	sw	s1,36(a4)
200096a6:	d444                	sw	s1,44(s0)
200096a8:	d544                	sw	s1,44(a0)
200096aa:	d644                	sw	s1,44(a2)
200096ac:	d744                	sw	s1,44(a4)
200096ae:	d844                	sw	s1,52(s0)
200096b0:	d944                	sw	s1,52(a0)
200096b2:	d248                	sw	a0,36(a2)
200096b4:	0e44                	addi	s1,sp,788
200096b6:	4400                	lw	s0,8(s0)
200096b8:	0000000b          	0xb
200096bc:	0024                	addi	s1,sp,8
200096be:	0000                	unimp
200096c0:	0eb4                	addi	a3,sp,856
200096c2:	0000                	unimp
200096c4:	d6c4                	sw	s1,44(a3)
200096c6:	ffff                	0xffff
200096c8:	00c0                	addi	s0,sp,68
200096ca:	0000                	unimp
200096cc:	4400                	lw	s0,8(s0)
200096ce:	300e                	fld	ft0,224(sp)
200096d0:	814c                	0x814c
200096d2:	8801                	andi	s0,s0,0
200096d4:	8902                	jr	s2
200096d6:	0a8c0203          	lb	tp,168(s8)
200096da:	44c1                	li	s1,16
200096dc:	44c8                	lw	a0,12(s1)
200096de:	44c9                	li	s1,18
200096e0:	000e                	c.slli	zero,0x3
200096e2:	0b44                	addi	s1,sp,404
200096e4:	001c                	0x1c
200096e6:	0000                	unimp
200096e8:	0edc                	addi	a5,sp,852
200096ea:	0000                	unimp
200096ec:	d75c                	sw	a5,44(a4)
200096ee:	ffff                	0xffff
200096f0:	0030                	addi	a2,sp,8
200096f2:	0000                	unimp
200096f4:	4400                	lw	s0,8(s0)
200096f6:	200e                	fld	ft0,192(sp)
200096f8:	884c                	0x884c
200096fa:	8102                	jr	sp
200096fc:	5401                	li	s0,-32
200096fe:	44c1                	li	s1,16
20009700:	44c8                	lw	a0,12(s1)
20009702:	000e                	c.slli	zero,0x3
20009704:	0070                	addi	a2,sp,12
20009706:	0000                	unimp
20009708:	0efc                	addi	a5,sp,860
2000970a:	0000                	unimp
2000970c:	d76c                	sw	a1,108(a4)
2000970e:	ffff                	0xffff
20009710:	04a0                	addi	s0,sp,584
20009712:	0000                	unimp
20009714:	4400                	lw	s0,8(s0)
20009716:	500e                	0x500e
20009718:	8944                	0x8944
2000971a:	02887803          	0x2887803
2000971e:	01810593          	addi	a1,sp,24
20009722:	0492                	slli	s1,s1,0x4
20009724:	0694                	addi	a3,sp,832
20009726:	0795                	addi	a5,a5,5
20009728:	0896                	slli	a7,a7,0x5
2000972a:	0a980997          	auipc	s3,0xa980
2000972e:	0b99                	addi	s7,s7,6
20009730:	0c9a                	slli	s9,s9,0x6
20009732:	0a5c0d9b          	0xa5c0d9b
20009736:	44c8                	lw	a0,12(s1)
20009738:	44c1                	li	s1,16
2000973a:	44c9                	li	s1,18
2000973c:	44d2                	lw	s1,20(sp)
2000973e:	44d444d3          	0x44d444d3
20009742:	44d5                	li	s1,21
20009744:	44d6                	lw	s1,84(sp)
20009746:	44d844d7          	0x44d844d7
2000974a:	44d9                	li	s1,22
2000974c:	44da                	lw	s1,148(sp)
2000974e:	000e48db          	0xe48db
20009752:	0b44                	addi	s1,sp,404
20009754:	0a016003          	0xa016003
20009758:	44c1                	li	s1,16
2000975a:	44c8                	lw	a0,12(s1)
2000975c:	44c9                	li	s1,18
2000975e:	44d2                	lw	s1,20(sp)
20009760:	44d4                	lw	a3,12(s1)
20009762:	44d5                	li	s1,21
20009764:	44d6                	lw	s1,84(sp)
20009766:	44d844d7          	0x44d844d7
2000976a:	44d9                	li	s1,22
2000976c:	44da                	lw	s1,148(sp)
2000976e:	44d348db          	0x44d348db
20009772:	000e                	c.slli	zero,0x3
20009774:	0b44                	addi	s1,sp,404
20009776:	0000                	unimp
20009778:	0010                	0x10
2000977a:	0000                	unimp
2000977c:	0f70                	addi	a2,sp,924
2000977e:	0000                	unimp
20009780:	db98                	sw	a4,48(a5)
20009782:	ffff                	0xffff
20009784:	0064                	addi	s1,sp,12
20009786:	0000                	unimp
20009788:	0000                	unimp
2000978a:	0000                	unimp
2000978c:	0010                	0x10
2000978e:	0000                	unimp
20009790:	0f84                	addi	s1,sp,976
20009792:	0000                	unimp
20009794:	dbe8                	sw	a0,116(a5)
20009796:	ffff                	0xffff
20009798:	0038                	addi	a4,sp,8
2000979a:	0000                	unimp
2000979c:	0000                	unimp
2000979e:	0000                	unimp
200097a0:	0010                	0x10
200097a2:	0000                	unimp
200097a4:	0f98                	addi	a4,sp,976
200097a6:	0000                	unimp
200097a8:	dc0c                	sw	a1,56(s0)
200097aa:	ffff                	0xffff
200097ac:	00f0                	addi	a2,sp,76
200097ae:	0000                	unimp
200097b0:	0000                	unimp
200097b2:	0000                	unimp
200097b4:	0010                	0x10
200097b6:	0000                	unimp
200097b8:	0fac                	addi	a1,sp,984
200097ba:	0000                	unimp
200097bc:	dce8                	sw	a0,124(s1)
200097be:	ffff                	0xffff
200097c0:	000c                	0xc
200097c2:	0000                	unimp
200097c4:	0000                	unimp
200097c6:	0000                	unimp
200097c8:	0018                	0x18
200097ca:	0000                	unimp
200097cc:	0fc0                	addi	s0,sp,980
200097ce:	0000                	unimp
200097d0:	dce0                	sw	s0,124(s1)
200097d2:	ffff                	0xffff
200097d4:	0030                	addi	a2,sp,8
200097d6:	0000                	unimp
200097d8:	4c00                	lw	s0,24(s0)
200097da:	100e                	c.slli	zero,0x23
200097dc:	8144                	0x8144
200097de:	4801                	li	a6,0
200097e0:	4cc1                	li	s9,16
200097e2:	000e                	c.slli	zero,0x3
200097e4:	0018                	0x18
200097e6:	0000                	unimp
200097e8:	0fdc                	addi	a5,sp,980
200097ea:	0000                	unimp
200097ec:	dcf4                	sw	a3,124(s1)
200097ee:	ffff                	0xffff
200097f0:	0040                	addi	s0,sp,4
200097f2:	0000                	unimp
200097f4:	5c00                	lw	s0,56(s0)
200097f6:	100e                	c.slli	zero,0x23
200097f8:	814c                	0x814c
200097fa:	4801                	li	a6,0
200097fc:	4cc1                	li	s9,16
200097fe:	000e                	c.slli	zero,0x3
20009800:	0018                	0x18
20009802:	0000                	unimp
20009804:	0ff8                	addi	a4,sp,988
20009806:	0000                	unimp
20009808:	dd18                	sw	a4,56(a0)
2000980a:	ffff                	0xffff
2000980c:	0040                	addi	s0,sp,4
2000980e:	0000                	unimp
20009810:	5c00                	lw	s0,56(s0)
20009812:	100e                	c.slli	zero,0x23
20009814:	814c                	0x814c
20009816:	4801                	li	a6,0
20009818:	4cc1                	li	s9,16
2000981a:	000e                	c.slli	zero,0x3
2000981c:	0010                	0x10
2000981e:	0000                	unimp
20009820:	1014                	addi	a3,sp,32
20009822:	0000                	unimp
20009824:	dd3c                	sw	a5,120(a0)
20009826:	ffff                	0xffff
20009828:	0010                	0x10
2000982a:	0000                	unimp
2000982c:	0000                	unimp
2000982e:	0000                	unimp
20009830:	0010                	0x10
20009832:	0000                	unimp
20009834:	1028                	addi	a0,sp,40
20009836:	0000                	unimp
20009838:	8528                	0x8528
2000983a:	ffff                	0xffff
2000983c:	0430                	addi	a2,sp,520
2000983e:	0000                	unimp
20009840:	0000                	unimp
	...

Disassembly of section .data:

20009848 <impure_data>:
20009848:	0000                	unimp
2000984a:	0000                	unimp
2000984c:	9b34                	0x9b34
2000984e:	2000                	fld	fs0,0(s0)

20009850 <_fdata>:
20009850:	9b9c                	0x9b9c
20009852:	2000                	fld	fs0,0(s0)
20009854:	9c04                	0x9c04
20009856:	2000                	fld	fs0,0(s0)
	...
200098f0:	0001                	nop
200098f2:	0000                	unimp
200098f4:	0000                	unimp
200098f6:	0000                	unimp
200098f8:	330e                	fld	ft6,224(sp)
200098fa:	abcd                	j	20009eec <__malloc_av_+0x27c>
200098fc:	1234                	addi	a3,sp,296
200098fe:	e66d                	bnez	a2,200099e8 <_fdata+0x198>
20009900:	deec                	sw	a1,124(a3)
20009902:	0005                	c.nop	1
20009904:	0000000b          	0xb
	...

20009c70 <__malloc_av_>:
	...
20009c78:	9c70                	0x9c70
20009c7a:	2000                	fld	fs0,0(s0)
20009c7c:	9c70                	0x9c70
20009c7e:	2000                	fld	fs0,0(s0)
20009c80:	9c78                	0x9c78
20009c82:	2000                	fld	fs0,0(s0)
20009c84:	9c78                	0x9c78
20009c86:	2000                	fld	fs0,0(s0)
20009c88:	9c80                	0x9c80
20009c8a:	2000                	fld	fs0,0(s0)
20009c8c:	9c80                	0x9c80
20009c8e:	2000                	fld	fs0,0(s0)
20009c90:	9c88                	0x9c88
20009c92:	2000                	fld	fs0,0(s0)
20009c94:	9c88                	0x9c88
20009c96:	2000                	fld	fs0,0(s0)
20009c98:	9c90                	0x9c90
20009c9a:	2000                	fld	fs0,0(s0)
20009c9c:	9c90                	0x9c90
20009c9e:	2000                	fld	fs0,0(s0)
20009ca0:	9c98                	0x9c98
20009ca2:	2000                	fld	fs0,0(s0)
20009ca4:	9c98                	0x9c98
20009ca6:	2000                	fld	fs0,0(s0)
20009ca8:	9ca0                	0x9ca0
20009caa:	2000                	fld	fs0,0(s0)
20009cac:	9ca0                	0x9ca0
20009cae:	2000                	fld	fs0,0(s0)
20009cb0:	9ca8                	0x9ca8
20009cb2:	2000                	fld	fs0,0(s0)
20009cb4:	9ca8                	0x9ca8
20009cb6:	2000                	fld	fs0,0(s0)
20009cb8:	9cb0                	0x9cb0
20009cba:	2000                	fld	fs0,0(s0)
20009cbc:	9cb0                	0x9cb0
20009cbe:	2000                	fld	fs0,0(s0)
20009cc0:	9cb8                	0x9cb8
20009cc2:	2000                	fld	fs0,0(s0)
20009cc4:	9cb8                	0x9cb8
20009cc6:	2000                	fld	fs0,0(s0)
20009cc8:	9cc0                	0x9cc0
20009cca:	2000                	fld	fs0,0(s0)
20009ccc:	9cc0                	0x9cc0
20009cce:	2000                	fld	fs0,0(s0)
20009cd0:	9cc8                	0x9cc8
20009cd2:	2000                	fld	fs0,0(s0)
20009cd4:	9cc8                	0x9cc8
20009cd6:	2000                	fld	fs0,0(s0)
20009cd8:	9cd0                	0x9cd0
20009cda:	2000                	fld	fs0,0(s0)
20009cdc:	9cd0                	0x9cd0
20009cde:	2000                	fld	fs0,0(s0)
20009ce0:	9cd8                	0x9cd8
20009ce2:	2000                	fld	fs0,0(s0)
20009ce4:	9cd8                	0x9cd8
20009ce6:	2000                	fld	fs0,0(s0)
20009ce8:	9ce0                	0x9ce0
20009cea:	2000                	fld	fs0,0(s0)
20009cec:	9ce0                	0x9ce0
20009cee:	2000                	fld	fs0,0(s0)
20009cf0:	9ce8                	0x9ce8
20009cf2:	2000                	fld	fs0,0(s0)
20009cf4:	9ce8                	0x9ce8
20009cf6:	2000                	fld	fs0,0(s0)
20009cf8:	9cf0                	0x9cf0
20009cfa:	2000                	fld	fs0,0(s0)
20009cfc:	9cf0                	0x9cf0
20009cfe:	2000                	fld	fs0,0(s0)
20009d00:	9cf8                	0x9cf8
20009d02:	2000                	fld	fs0,0(s0)
20009d04:	9cf8                	0x9cf8
20009d06:	2000                	fld	fs0,0(s0)
20009d08:	9d00                	0x9d00
20009d0a:	2000                	fld	fs0,0(s0)
20009d0c:	9d00                	0x9d00
20009d0e:	2000                	fld	fs0,0(s0)
20009d10:	9d08                	0x9d08
20009d12:	2000                	fld	fs0,0(s0)
20009d14:	9d08                	0x9d08
20009d16:	2000                	fld	fs0,0(s0)
20009d18:	9d10                	0x9d10
20009d1a:	2000                	fld	fs0,0(s0)
20009d1c:	9d10                	0x9d10
20009d1e:	2000                	fld	fs0,0(s0)
20009d20:	9d18                	0x9d18
20009d22:	2000                	fld	fs0,0(s0)
20009d24:	9d18                	0x9d18
20009d26:	2000                	fld	fs0,0(s0)
20009d28:	9d20                	0x9d20
20009d2a:	2000                	fld	fs0,0(s0)
20009d2c:	9d20                	0x9d20
20009d2e:	2000                	fld	fs0,0(s0)
20009d30:	9d28                	0x9d28
20009d32:	2000                	fld	fs0,0(s0)
20009d34:	9d28                	0x9d28
20009d36:	2000                	fld	fs0,0(s0)
20009d38:	9d30                	0x9d30
20009d3a:	2000                	fld	fs0,0(s0)
20009d3c:	9d30                	0x9d30
20009d3e:	2000                	fld	fs0,0(s0)
20009d40:	9d38                	0x9d38
20009d42:	2000                	fld	fs0,0(s0)
20009d44:	9d38                	0x9d38
20009d46:	2000                	fld	fs0,0(s0)
20009d48:	9d40                	0x9d40
20009d4a:	2000                	fld	fs0,0(s0)
20009d4c:	9d40                	0x9d40
20009d4e:	2000                	fld	fs0,0(s0)
20009d50:	9d48                	0x9d48
20009d52:	2000                	fld	fs0,0(s0)
20009d54:	9d48                	0x9d48
20009d56:	2000                	fld	fs0,0(s0)
20009d58:	9d50                	0x9d50
20009d5a:	2000                	fld	fs0,0(s0)
20009d5c:	9d50                	0x9d50
20009d5e:	2000                	fld	fs0,0(s0)
20009d60:	9d58                	0x9d58
20009d62:	2000                	fld	fs0,0(s0)
20009d64:	9d58                	0x9d58
20009d66:	2000                	fld	fs0,0(s0)
20009d68:	9d60                	0x9d60
20009d6a:	2000                	fld	fs0,0(s0)
20009d6c:	9d60                	0x9d60
20009d6e:	2000                	fld	fs0,0(s0)
20009d70:	9d68                	0x9d68
20009d72:	2000                	fld	fs0,0(s0)
20009d74:	9d68                	0x9d68
20009d76:	2000                	fld	fs0,0(s0)
20009d78:	9d70                	0x9d70
20009d7a:	2000                	fld	fs0,0(s0)
20009d7c:	9d70                	0x9d70
20009d7e:	2000                	fld	fs0,0(s0)
20009d80:	9d78                	0x9d78
20009d82:	2000                	fld	fs0,0(s0)
20009d84:	9d78                	0x9d78
20009d86:	2000                	fld	fs0,0(s0)
20009d88:	9d80                	0x9d80
20009d8a:	2000                	fld	fs0,0(s0)
20009d8c:	9d80                	0x9d80
20009d8e:	2000                	fld	fs0,0(s0)
20009d90:	9d88                	0x9d88
20009d92:	2000                	fld	fs0,0(s0)
20009d94:	9d88                	0x9d88
20009d96:	2000                	fld	fs0,0(s0)
20009d98:	9d90                	0x9d90
20009d9a:	2000                	fld	fs0,0(s0)
20009d9c:	9d90                	0x9d90
20009d9e:	2000                	fld	fs0,0(s0)
20009da0:	9d98                	0x9d98
20009da2:	2000                	fld	fs0,0(s0)
20009da4:	9d98                	0x9d98
20009da6:	2000                	fld	fs0,0(s0)
20009da8:	9da0                	0x9da0
20009daa:	2000                	fld	fs0,0(s0)
20009dac:	9da0                	0x9da0
20009dae:	2000                	fld	fs0,0(s0)
20009db0:	9da8                	0x9da8
20009db2:	2000                	fld	fs0,0(s0)
20009db4:	9da8                	0x9da8
20009db6:	2000                	fld	fs0,0(s0)
20009db8:	9db0                	0x9db0
20009dba:	2000                	fld	fs0,0(s0)
20009dbc:	9db0                	0x9db0
20009dbe:	2000                	fld	fs0,0(s0)
20009dc0:	9db8                	0x9db8
20009dc2:	2000                	fld	fs0,0(s0)
20009dc4:	9db8                	0x9db8
20009dc6:	2000                	fld	fs0,0(s0)
20009dc8:	9dc0                	0x9dc0
20009dca:	2000                	fld	fs0,0(s0)
20009dcc:	9dc0                	0x9dc0
20009dce:	2000                	fld	fs0,0(s0)
20009dd0:	9dc8                	0x9dc8
20009dd2:	2000                	fld	fs0,0(s0)
20009dd4:	9dc8                	0x9dc8
20009dd6:	2000                	fld	fs0,0(s0)
20009dd8:	9dd0                	0x9dd0
20009dda:	2000                	fld	fs0,0(s0)
20009ddc:	9dd0                	0x9dd0
20009dde:	2000                	fld	fs0,0(s0)
20009de0:	9dd8                	0x9dd8
20009de2:	2000                	fld	fs0,0(s0)
20009de4:	9dd8                	0x9dd8
20009de6:	2000                	fld	fs0,0(s0)
20009de8:	9de0                	0x9de0
20009dea:	2000                	fld	fs0,0(s0)
20009dec:	9de0                	0x9de0
20009dee:	2000                	fld	fs0,0(s0)
20009df0:	9de8                	0x9de8
20009df2:	2000                	fld	fs0,0(s0)
20009df4:	9de8                	0x9de8
20009df6:	2000                	fld	fs0,0(s0)
20009df8:	9df0                	0x9df0
20009dfa:	2000                	fld	fs0,0(s0)
20009dfc:	9df0                	0x9df0
20009dfe:	2000                	fld	fs0,0(s0)
20009e00:	9df8                	0x9df8
20009e02:	2000                	fld	fs0,0(s0)
20009e04:	9df8                	0x9df8
20009e06:	2000                	fld	fs0,0(s0)
20009e08:	9e00                	0x9e00
20009e0a:	2000                	fld	fs0,0(s0)
20009e0c:	9e00                	0x9e00
20009e0e:	2000                	fld	fs0,0(s0)
20009e10:	9e08                	0x9e08
20009e12:	2000                	fld	fs0,0(s0)
20009e14:	9e08                	0x9e08
20009e16:	2000                	fld	fs0,0(s0)
20009e18:	9e10                	0x9e10
20009e1a:	2000                	fld	fs0,0(s0)
20009e1c:	9e10                	0x9e10
20009e1e:	2000                	fld	fs0,0(s0)
20009e20:	9e18                	0x9e18
20009e22:	2000                	fld	fs0,0(s0)
20009e24:	9e18                	0x9e18
20009e26:	2000                	fld	fs0,0(s0)
20009e28:	9e20                	0x9e20
20009e2a:	2000                	fld	fs0,0(s0)
20009e2c:	9e20                	0x9e20
20009e2e:	2000                	fld	fs0,0(s0)
20009e30:	9e28                	0x9e28
20009e32:	2000                	fld	fs0,0(s0)
20009e34:	9e28                	0x9e28
20009e36:	2000                	fld	fs0,0(s0)
20009e38:	9e30                	0x9e30
20009e3a:	2000                	fld	fs0,0(s0)
20009e3c:	9e30                	0x9e30
20009e3e:	2000                	fld	fs0,0(s0)
20009e40:	9e38                	0x9e38
20009e42:	2000                	fld	fs0,0(s0)
20009e44:	9e38                	0x9e38
20009e46:	2000                	fld	fs0,0(s0)
20009e48:	9e40                	0x9e40
20009e4a:	2000                	fld	fs0,0(s0)
20009e4c:	9e40                	0x9e40
20009e4e:	2000                	fld	fs0,0(s0)
20009e50:	9e48                	0x9e48
20009e52:	2000                	fld	fs0,0(s0)
20009e54:	9e48                	0x9e48
20009e56:	2000                	fld	fs0,0(s0)
20009e58:	9e50                	0x9e50
20009e5a:	2000                	fld	fs0,0(s0)
20009e5c:	9e50                	0x9e50
20009e5e:	2000                	fld	fs0,0(s0)
20009e60:	9e58                	0x9e58
20009e62:	2000                	fld	fs0,0(s0)
20009e64:	9e58                	0x9e58
20009e66:	2000                	fld	fs0,0(s0)
20009e68:	9e60                	0x9e60
20009e6a:	2000                	fld	fs0,0(s0)
20009e6c:	9e60                	0x9e60
20009e6e:	2000                	fld	fs0,0(s0)
20009e70:	9e68                	0x9e68
20009e72:	2000                	fld	fs0,0(s0)
20009e74:	9e68                	0x9e68
20009e76:	2000                	fld	fs0,0(s0)
20009e78:	9e70                	0x9e70
20009e7a:	2000                	fld	fs0,0(s0)
20009e7c:	9e70                	0x9e70
20009e7e:	2000                	fld	fs0,0(s0)
20009e80:	9e78                	0x9e78
20009e82:	2000                	fld	fs0,0(s0)
20009e84:	9e78                	0x9e78
20009e86:	2000                	fld	fs0,0(s0)
20009e88:	9e80                	0x9e80
20009e8a:	2000                	fld	fs0,0(s0)
20009e8c:	9e80                	0x9e80
20009e8e:	2000                	fld	fs0,0(s0)
20009e90:	9e88                	0x9e88
20009e92:	2000                	fld	fs0,0(s0)
20009e94:	9e88                	0x9e88
20009e96:	2000                	fld	fs0,0(s0)
20009e98:	9e90                	0x9e90
20009e9a:	2000                	fld	fs0,0(s0)
20009e9c:	9e90                	0x9e90
20009e9e:	2000                	fld	fs0,0(s0)
20009ea0:	9e98                	0x9e98
20009ea2:	2000                	fld	fs0,0(s0)
20009ea4:	9e98                	0x9e98
20009ea6:	2000                	fld	fs0,0(s0)
20009ea8:	9ea0                	0x9ea0
20009eaa:	2000                	fld	fs0,0(s0)
20009eac:	9ea0                	0x9ea0
20009eae:	2000                	fld	fs0,0(s0)
20009eb0:	9ea8                	0x9ea8
20009eb2:	2000                	fld	fs0,0(s0)
20009eb4:	9ea8                	0x9ea8
20009eb6:	2000                	fld	fs0,0(s0)
20009eb8:	9eb0                	0x9eb0
20009eba:	2000                	fld	fs0,0(s0)
20009ebc:	9eb0                	0x9eb0
20009ebe:	2000                	fld	fs0,0(s0)
20009ec0:	9eb8                	0x9eb8
20009ec2:	2000                	fld	fs0,0(s0)
20009ec4:	9eb8                	0x9eb8
20009ec6:	2000                	fld	fs0,0(s0)
20009ec8:	9ec0                	0x9ec0
20009eca:	2000                	fld	fs0,0(s0)
20009ecc:	9ec0                	0x9ec0
20009ece:	2000                	fld	fs0,0(s0)
20009ed0:	9ec8                	0x9ec8
20009ed2:	2000                	fld	fs0,0(s0)
20009ed4:	9ec8                	0x9ec8
20009ed6:	2000                	fld	fs0,0(s0)
20009ed8:	9ed0                	0x9ed0
20009eda:	2000                	fld	fs0,0(s0)
20009edc:	9ed0                	0x9ed0
20009ede:	2000                	fld	fs0,0(s0)
20009ee0:	9ed8                	0x9ed8
20009ee2:	2000                	fld	fs0,0(s0)
20009ee4:	9ed8                	0x9ed8
20009ee6:	2000                	fld	fs0,0(s0)
20009ee8:	9ee0                	0x9ee0
20009eea:	2000                	fld	fs0,0(s0)
20009eec:	9ee0                	0x9ee0
20009eee:	2000                	fld	fs0,0(s0)
20009ef0:	9ee8                	0x9ee8
20009ef2:	2000                	fld	fs0,0(s0)
20009ef4:	9ee8                	0x9ee8
20009ef6:	2000                	fld	fs0,0(s0)
20009ef8:	9ef0                	0x9ef0
20009efa:	2000                	fld	fs0,0(s0)
20009efc:	9ef0                	0x9ef0
20009efe:	2000                	fld	fs0,0(s0)
20009f00:	9ef8                	0x9ef8
20009f02:	2000                	fld	fs0,0(s0)
20009f04:	9ef8                	0x9ef8
20009f06:	2000                	fld	fs0,0(s0)
20009f08:	9f00                	0x9f00
20009f0a:	2000                	fld	fs0,0(s0)
20009f0c:	9f00                	0x9f00
20009f0e:	2000                	fld	fs0,0(s0)
20009f10:	9f08                	0x9f08
20009f12:	2000                	fld	fs0,0(s0)
20009f14:	9f08                	0x9f08
20009f16:	2000                	fld	fs0,0(s0)
20009f18:	9f10                	0x9f10
20009f1a:	2000                	fld	fs0,0(s0)
20009f1c:	9f10                	0x9f10
20009f1e:	2000                	fld	fs0,0(s0)
20009f20:	9f18                	0x9f18
20009f22:	2000                	fld	fs0,0(s0)
20009f24:	9f18                	0x9f18
20009f26:	2000                	fld	fs0,0(s0)
20009f28:	9f20                	0x9f20
20009f2a:	2000                	fld	fs0,0(s0)
20009f2c:	9f20                	0x9f20
20009f2e:	2000                	fld	fs0,0(s0)
20009f30:	9f28                	0x9f28
20009f32:	2000                	fld	fs0,0(s0)
20009f34:	9f28                	0x9f28
20009f36:	2000                	fld	fs0,0(s0)
20009f38:	9f30                	0x9f30
20009f3a:	2000                	fld	fs0,0(s0)
20009f3c:	9f30                	0x9f30
20009f3e:	2000                	fld	fs0,0(s0)
20009f40:	9f38                	0x9f38
20009f42:	2000                	fld	fs0,0(s0)
20009f44:	9f38                	0x9f38
20009f46:	2000                	fld	fs0,0(s0)
20009f48:	9f40                	0x9f40
20009f4a:	2000                	fld	fs0,0(s0)
20009f4c:	9f40                	0x9f40
20009f4e:	2000                	fld	fs0,0(s0)
20009f50:	9f48                	0x9f48
20009f52:	2000                	fld	fs0,0(s0)
20009f54:	9f48                	0x9f48
20009f56:	2000                	fld	fs0,0(s0)
20009f58:	9f50                	0x9f50
20009f5a:	2000                	fld	fs0,0(s0)
20009f5c:	9f50                	0x9f50
20009f5e:	2000                	fld	fs0,0(s0)
20009f60:	9f58                	0x9f58
20009f62:	2000                	fld	fs0,0(s0)
20009f64:	9f58                	0x9f58
20009f66:	2000                	fld	fs0,0(s0)
20009f68:	9f60                	0x9f60
20009f6a:	2000                	fld	fs0,0(s0)
20009f6c:	9f60                	0x9f60
20009f6e:	2000                	fld	fs0,0(s0)
20009f70:	9f68                	0x9f68
20009f72:	2000                	fld	fs0,0(s0)
20009f74:	9f68                	0x9f68
20009f76:	2000                	fld	fs0,0(s0)
20009f78:	9f70                	0x9f70
20009f7a:	2000                	fld	fs0,0(s0)
20009f7c:	9f70                	0x9f70
20009f7e:	2000                	fld	fs0,0(s0)
20009f80:	9f78                	0x9f78
20009f82:	2000                	fld	fs0,0(s0)
20009f84:	9f78                	0x9f78
20009f86:	2000                	fld	fs0,0(s0)
20009f88:	9f80                	0x9f80
20009f8a:	2000                	fld	fs0,0(s0)
20009f8c:	9f80                	0x9f80
20009f8e:	2000                	fld	fs0,0(s0)
20009f90:	9f88                	0x9f88
20009f92:	2000                	fld	fs0,0(s0)
20009f94:	9f88                	0x9f88
20009f96:	2000                	fld	fs0,0(s0)
20009f98:	9f90                	0x9f90
20009f9a:	2000                	fld	fs0,0(s0)
20009f9c:	9f90                	0x9f90
20009f9e:	2000                	fld	fs0,0(s0)
20009fa0:	9f98                	0x9f98
20009fa2:	2000                	fld	fs0,0(s0)
20009fa4:	9f98                	0x9f98
20009fa6:	2000                	fld	fs0,0(s0)
20009fa8:	9fa0                	0x9fa0
20009faa:	2000                	fld	fs0,0(s0)
20009fac:	9fa0                	0x9fa0
20009fae:	2000                	fld	fs0,0(s0)
20009fb0:	9fa8                	0x9fa8
20009fb2:	2000                	fld	fs0,0(s0)
20009fb4:	9fa8                	0x9fa8
20009fb6:	2000                	fld	fs0,0(s0)
20009fb8:	9fb0                	0x9fb0
20009fba:	2000                	fld	fs0,0(s0)
20009fbc:	9fb0                	0x9fb0
20009fbe:	2000                	fld	fs0,0(s0)
20009fc0:	9fb8                	0x9fb8
20009fc2:	2000                	fld	fs0,0(s0)
20009fc4:	9fb8                	0x9fb8
20009fc6:	2000                	fld	fs0,0(s0)
20009fc8:	9fc0                	0x9fc0
20009fca:	2000                	fld	fs0,0(s0)
20009fcc:	9fc0                	0x9fc0
20009fce:	2000                	fld	fs0,0(s0)
20009fd0:	9fc8                	0x9fc8
20009fd2:	2000                	fld	fs0,0(s0)
20009fd4:	9fc8                	0x9fc8
20009fd6:	2000                	fld	fs0,0(s0)
20009fd8:	9fd0                	0x9fd0
20009fda:	2000                	fld	fs0,0(s0)
20009fdc:	9fd0                	0x9fd0
20009fde:	2000                	fld	fs0,0(s0)
20009fe0:	9fd8                	0x9fd8
20009fe2:	2000                	fld	fs0,0(s0)
20009fe4:	9fd8                	0x9fd8
20009fe6:	2000                	fld	fs0,0(s0)
20009fe8:	9fe0                	0x9fe0
20009fea:	2000                	fld	fs0,0(s0)
20009fec:	9fe0                	0x9fe0
20009fee:	2000                	fld	fs0,0(s0)
20009ff0:	9fe8                	0x9fe8
20009ff2:	2000                	fld	fs0,0(s0)
20009ff4:	9fe8                	0x9fe8
20009ff6:	2000                	fld	fs0,0(s0)
20009ff8:	9ff0                	0x9ff0
20009ffa:	2000                	fld	fs0,0(s0)
20009ffc:	9ff0                	0x9ff0
20009ffe:	2000                	fld	fs0,0(s0)
2000a000:	9ff8                	0x9ff8
2000a002:	2000                	fld	fs0,0(s0)
2000a004:	9ff8                	0x9ff8
2000a006:	2000                	fld	fs0,0(s0)
2000a008:	a000                	fsd	fs0,0(s0)
2000a00a:	2000                	fld	fs0,0(s0)
2000a00c:	a000                	fsd	fs0,0(s0)
2000a00e:	2000                	fld	fs0,0(s0)
2000a010:	a008                	fsd	fa0,0(s0)
2000a012:	2000                	fld	fs0,0(s0)
2000a014:	a008                	fsd	fa0,0(s0)
2000a016:	2000                	fld	fs0,0(s0)
2000a018:	a010                	fsd	fa2,0(s0)
2000a01a:	2000                	fld	fs0,0(s0)
2000a01c:	a010                	fsd	fa2,0(s0)
2000a01e:	2000                	fld	fs0,0(s0)
2000a020:	a018                	fsd	fa4,0(s0)
2000a022:	2000                	fld	fs0,0(s0)
2000a024:	a018                	fsd	fa4,0(s0)
2000a026:	2000                	fld	fs0,0(s0)
2000a028:	a020                	fsd	fs0,64(s0)
2000a02a:	2000                	fld	fs0,0(s0)
2000a02c:	a020                	fsd	fs0,64(s0)
2000a02e:	2000                	fld	fs0,0(s0)
2000a030:	a028                	fsd	fa0,64(s0)
2000a032:	2000                	fld	fs0,0(s0)
2000a034:	a028                	fsd	fa0,64(s0)
2000a036:	2000                	fld	fs0,0(s0)
2000a038:	a030                	fsd	fa2,64(s0)
2000a03a:	2000                	fld	fs0,0(s0)
2000a03c:	a030                	fsd	fa2,64(s0)
2000a03e:	2000                	fld	fs0,0(s0)
2000a040:	a038                	fsd	fa4,64(s0)
2000a042:	2000                	fld	fs0,0(s0)
2000a044:	a038                	fsd	fa4,64(s0)
2000a046:	2000                	fld	fs0,0(s0)
2000a048:	a040                	fsd	fs0,128(s0)
2000a04a:	2000                	fld	fs0,0(s0)
2000a04c:	a040                	fsd	fs0,128(s0)
2000a04e:	2000                	fld	fs0,0(s0)
2000a050:	a048                	fsd	fa0,128(s0)
2000a052:	2000                	fld	fs0,0(s0)
2000a054:	a048                	fsd	fa0,128(s0)
2000a056:	2000                	fld	fs0,0(s0)
2000a058:	a050                	fsd	fa2,128(s0)
2000a05a:	2000                	fld	fs0,0(s0)
2000a05c:	a050                	fsd	fa2,128(s0)
2000a05e:	2000                	fld	fs0,0(s0)
2000a060:	a058                	fsd	fa4,128(s0)
2000a062:	2000                	fld	fs0,0(s0)
2000a064:	a058                	fsd	fa4,128(s0)
2000a066:	2000                	fld	fs0,0(s0)
2000a068:	a060                	fsd	fs0,192(s0)
2000a06a:	2000                	fld	fs0,0(s0)
2000a06c:	a060                	fsd	fs0,192(s0)
2000a06e:	2000                	fld	fs0,0(s0)
2000a070:	a068                	fsd	fa0,192(s0)
2000a072:	2000                	fld	fs0,0(s0)
2000a074:	a068                	fsd	fa0,192(s0)
2000a076:	2000                	fld	fs0,0(s0)

2000a078 <_ZL10currentdir>:
2000a078:	003a6473          	csrrsi	s0,fcsr,20
	...

2000a278 <keyboardringbuffer>:
2000a278:	0200                	addi	s0,sp,256
2000a27a:	8000                	0x8000

2000a27c <FRtoString>:
2000a27c:	7e6c                	flw	fa1,124(a2)
2000a27e:	2000                	fld	fs0,0(s0)
2000a280:	7e78                	flw	fa4,124(a2)
2000a282:	2000                	fld	fs0,0(s0)
2000a284:	7eb0                	flw	fa2,120(a3)
2000a286:	2000                	fld	fs0,0(s0)
2000a288:	7ec4                	flw	fs1,60(a3)
2000a28a:	2000                	fld	fs0,0(s0)
2000a28c:	7ee4                	flw	fs1,124(a3)
2000a28e:	2000                	fld	fs0,0(s0)
2000a290:	7f00                	flw	fs0,56(a4)
2000a292:	2000                	fld	fs0,0(s0)
2000a294:	7f1c                	flw	fa5,56(a4)
2000a296:	2000                	fld	fs0,0(s0)
2000a298:	7f40                	flw	fs0,60(a4)
2000a29a:	2000                	fld	fs0,0(s0)
2000a29c:	7f7c                	flw	fa5,124(a4)
2000a29e:	2000                	fld	fs0,0(s0)
2000a2a0:	7fa4                	flw	fs1,120(a5)
2000a2a2:	2000                	fld	fs0,0(s0)
2000a2a4:	7fcc                	flw	fa1,60(a5)
2000a2a6:	2000                	fld	fs0,0(s0)
2000a2a8:	7ff4                	flw	fa3,124(a5)
2000a2aa:	2000                	fld	fs0,0(s0)
2000a2ac:	801c                	0x801c
2000a2ae:	2000                	fld	fs0,0(s0)
2000a2b0:	803c                	0x803c
2000a2b2:	2000                	fld	fs0,0(s0)
2000a2b4:	805c                	0x805c
2000a2b6:	2000                	fld	fs0,0(s0)
2000a2b8:	8088                	0x8088
2000a2ba:	2000                	fld	fs0,0(s0)
2000a2bc:	80cc                	0x80cc
2000a2be:	2000                	fld	fs0,0(s0)
2000a2c0:	810c                	0x810c
2000a2c2:	2000                	fld	fs0,0(s0)
2000a2c4:	8138                	0x8138
2000a2c6:	2000                	fld	fs0,0(s0)
2000a2c8:	815c                	0x815c
2000a2ca:	2000                	fld	fs0,0(s0)

2000a2cc <IO_UARTRX>:
2000a2cc:	1000                	addi	s0,sp,32
2000a2ce:	8000                	0x8000

2000a2d0 <IO_UARTStatus>:
2000a2d0:	1008                	addi	a0,sp,32
2000a2d2:	8000                	0x8000

2000a2d4 <IO_UARTTX>:
2000a2d4:	1004                	addi	s1,sp,32
2000a2d6:	8000                	0x8000

2000a2d8 <HARTIRQ>:
2000a2d8:	1040                	addi	s0,sp,36
2000a2da:	8000                	0x8000

2000a2dc <HARTMAILBOX>:
2000a2dc:	0000                	unimp
2000a2de:	8000                	0x8000

2000a2e0 <_ZL10heap_start>:
2000a2e0:	0000                	unimp
2000a2e2:	0400                	addi	s0,sp,512

2000a2e4 <LEDSTATE>:
2000a2e4:	1030                	addi	a2,sp,40
2000a2e6:	8000                	0x8000

2000a2e8 <IO_SPIRXTX>:
2000a2e8:	1010                	addi	a2,sp,32
2000a2ea:	8000                	0x8000

2000a2ec <m_readOffset>:
2000a2ec:	0600                	addi	s0,sp,768
2000a2ee:	8000                	0x8000

2000a2f0 <m_writeOffset>:
2000a2f0:	0604                	addi	s1,sp,768
2000a2f2:	8000                	0x8000

2000a2f4 <PS2KEYBOARDDATA>:
2000a2f4:	1020                	addi	s0,sp,40
2000a2f6:	8000                	0x8000

2000a2f8 <PS2KEYBOARDDATAAVAIL>:
2000a2f8:	1028                	addi	a0,sp,40
2000a2fa:	8000                	0x8000

2000a2fc <scantoasciitable_lowercase>:
2000a2fc:	2020                	fld	fs0,64(s0)
2000a2fe:	2020                	fld	fs0,64(s0)
2000a300:	2020                	fld	fs0,64(s0)
2000a302:	2020                	fld	fs0,64(s0)
2000a304:	2020                	fld	fs0,64(s0)
2000a306:	2020                	fld	fs0,64(s0)
2000a308:	0b20                	addi	s0,sp,408
2000a30a:	2060                	fld	fs0,192(s0)
2000a30c:	2020                	fld	fs0,64(s0)
2000a30e:	2020                	fld	fs0,64(s0)
2000a310:	7120                	flw	fs0,96(a0)
2000a312:	2031                	jal	2000a31e <scantoasciitable_lowercase+0x22>
2000a314:	2020                	fld	fs0,64(s0)
2000a316:	737a                	flw	ft6,188(sp)
2000a318:	7761                	lui	a4,0xffff8
2000a31a:	2032                	fld	ft0,264(sp)
2000a31c:	6320                	flw	fs0,64(a4)
2000a31e:	6478                	flw	fa4,76(s0)
2000a320:	3465                	jal	20009dc8 <__malloc_av_+0x158>
2000a322:	20202033          	sh1add	zero,zero,sp
2000a326:	6676                	flw	fa2,92(sp)
2000a328:	7274                	flw	fa3,100(a2)
2000a32a:	2035                	jal	2000a356 <scantoasciitable_lowercase+0x5a>
2000a32c:	6e20                	flw	fs0,88(a2)
2000a32e:	6862                	flw	fa6,24(sp)
2000a330:	20367967          	0x20367967
2000a334:	2020                	fld	fs0,64(s0)
2000a336:	6a6d                	lui	s4,0x1b
2000a338:	3775                	jal	2000a2e4 <LEDSTATE>
2000a33a:	2038                	fld	fa4,64(s0)
2000a33c:	2c20                	fld	fs0,88(s0)
2000a33e:	306f696b          	0x306f696b
2000a342:	2039                	jal	2000a350 <scantoasciitable_lowercase+0x54>
2000a344:	2e20                	fld	fs0,88(a2)
2000a346:	703b6c2f          	0x703b6c2f
2000a34a:	202d                	jal	2000a374 <scantoasciitable_lowercase+0x78>
2000a34c:	2020                	fld	fs0,64(s0)
2000a34e:	3d5b2027          	fsw	fs5,960(s6) # 1b3c0 <_start-0x1ffe4c40>
2000a352:	2020                	fld	fs0,64(s0)
2000a354:	2020                	fld	fs0,64(s0)
2000a356:	5d0d                	li	s10,-29
2000a358:	5c20                	lw	s0,120(s0)
2000a35a:	2020                	fld	fs0,64(s0)
2000a35c:	2020                	fld	fs0,64(s0)
2000a35e:	2020                	fld	fs0,64(s0)
2000a360:	2020                	fld	fs0,64(s0)
2000a362:	2008                	fld	fa0,0(s0)
2000a364:	2020                	fld	fs0,64(s0)
2000a366:	2020                	fld	fs0,64(s0)
2000a368:	2020                	fld	fs0,64(s0)
2000a36a:	2020                	fld	fs0,64(s0)
2000a36c:	2020                	fld	fs0,64(s0)
2000a36e:	2020                	fld	fs0,64(s0)
2000a370:	2020                	fld	fs0,64(s0)
2000a372:	2020201b          	0x2020201b
2000a376:	2020                	fld	fs0,64(s0)
2000a378:	2020                	fld	fs0,64(s0)
2000a37a:	2020                	fld	fs0,64(s0)
2000a37c:	2020                	fld	fs0,64(s0)
2000a37e:	2020                	fld	fs0,64(s0)
2000a380:	2020                	fld	fs0,64(s0)
2000a382:	2020                	fld	fs0,64(s0)
2000a384:	2020                	fld	fs0,64(s0)
2000a386:	2020                	fld	fs0,64(s0)
2000a388:	2020                	fld	fs0,64(s0)
2000a38a:	2020                	fld	fs0,64(s0)
2000a38c:	2020                	fld	fs0,64(s0)
2000a38e:	2020                	fld	fs0,64(s0)
2000a390:	2020                	fld	fs0,64(s0)
2000a392:	2020                	fld	fs0,64(s0)
2000a394:	2020                	fld	fs0,64(s0)
2000a396:	2020                	fld	fs0,64(s0)
2000a398:	2020                	fld	fs0,64(s0)
2000a39a:	2020                	fld	fs0,64(s0)
2000a39c:	2020                	fld	fs0,64(s0)
2000a39e:	2020                	fld	fs0,64(s0)
2000a3a0:	2020                	fld	fs0,64(s0)
2000a3a2:	2020                	fld	fs0,64(s0)
2000a3a4:	2020                	fld	fs0,64(s0)
2000a3a6:	2020                	fld	fs0,64(s0)
2000a3a8:	2020                	fld	fs0,64(s0)
2000a3aa:	2020                	fld	fs0,64(s0)
2000a3ac:	2020                	fld	fs0,64(s0)
2000a3ae:	2020                	fld	fs0,64(s0)
2000a3b0:	2020                	fld	fs0,64(s0)
2000a3b2:	2020                	fld	fs0,64(s0)
2000a3b4:	2020                	fld	fs0,64(s0)
2000a3b6:	2020                	fld	fs0,64(s0)
2000a3b8:	2020                	fld	fs0,64(s0)
2000a3ba:	2020                	fld	fs0,64(s0)
2000a3bc:	2020                	fld	fs0,64(s0)
2000a3be:	2020                	fld	fs0,64(s0)
2000a3c0:	2020                	fld	fs0,64(s0)
2000a3c2:	2020                	fld	fs0,64(s0)
2000a3c4:	2020                	fld	fs0,64(s0)
2000a3c6:	2020                	fld	fs0,64(s0)
2000a3c8:	2020                	fld	fs0,64(s0)
2000a3ca:	2020                	fld	fs0,64(s0)
2000a3cc:	2020                	fld	fs0,64(s0)
2000a3ce:	2020                	fld	fs0,64(s0)
2000a3d0:	2020                	fld	fs0,64(s0)
2000a3d2:	2020                	fld	fs0,64(s0)
2000a3d4:	2020                	fld	fs0,64(s0)
2000a3d6:	2020                	fld	fs0,64(s0)
2000a3d8:	2020                	fld	fs0,64(s0)
2000a3da:	2020                	fld	fs0,64(s0)
2000a3dc:	2020                	fld	fs0,64(s0)
2000a3de:	2020                	fld	fs0,64(s0)
2000a3e0:	2020                	fld	fs0,64(s0)
2000a3e2:	2020                	fld	fs0,64(s0)
2000a3e4:	2020                	fld	fs0,64(s0)
2000a3e6:	2020                	fld	fs0,64(s0)
2000a3e8:	2020                	fld	fs0,64(s0)
2000a3ea:	2020                	fld	fs0,64(s0)
2000a3ec:	2020                	fld	fs0,64(s0)
2000a3ee:	2020                	fld	fs0,64(s0)
2000a3f0:	2020                	fld	fs0,64(s0)
2000a3f2:	2020                	fld	fs0,64(s0)
2000a3f4:	2020                	fld	fs0,64(s0)
2000a3f6:	2020                	fld	fs0,64(s0)
2000a3f8:	2020                	fld	fs0,64(s0)
2000a3fa:	2020                	fld	fs0,64(s0)

2000a3fc <scantoasciitable_uppercase>:
2000a3fc:	2020                	fld	fs0,64(s0)
2000a3fe:	2020                	fld	fs0,64(s0)
2000a400:	2020                	fld	fs0,64(s0)
2000a402:	2020                	fld	fs0,64(s0)
2000a404:	2020                	fld	fs0,64(s0)
2000a406:	2020                	fld	fs0,64(s0)
2000a408:	0b20                	addi	s0,sp,408
2000a40a:	2060                	fld	fs0,192(s0)
2000a40c:	2020                	fld	fs0,64(s0)
2000a40e:	2020                	fld	fs0,64(s0)
2000a410:	5120                	lw	s0,96(a0)
2000a412:	2021                	jal	2000a41a <scantoasciitable_uppercase+0x1e>
2000a414:	2020                	fld	fs0,64(s0)
2000a416:	535a                	lw	t1,180(sp)
2000a418:	5741                	li	a4,-16
2000a41a:	2040                	fld	fs0,128(s0)
2000a41c:	4320                	lw	s0,64(a4)
2000a41e:	4458                	lw	a4,12(s0)
2000a420:	2445                	jal	2000a6c0 <Fs+0xec>
2000a422:	20202023          	sw	sp,512(zero) # 200 <_start-0x1ffffe00>
2000a426:	4656                	lw	a2,84(sp)
2000a428:	5254                	lw	a3,36(a2)
2000a42a:	2025                	jal	2000a452 <scantoasciitable_uppercase+0x56>
2000a42c:	4e20                	lw	s0,88(a2)
2000a42e:	4842                	lw	a6,16(sp)
2000a430:	205e5947          	fmsub.s	fs2,ft8,ft5,ft4,unknown
2000a434:	2020                	fld	fs0,64(s0)
2000a436:	4a4d                	li	s4,19
2000a438:	3755                	jal	2000a3dc <scantoasciitable_lowercase+0xe0>
2000a43a:	202a                	fld	ft0,136(sp)
2000a43c:	3c20                	fld	fs0,120(s0)
2000a43e:	294f494b          	fnmsub.s	fs2,ft10,fs4,ft5,rmm
2000a442:	2028                	fld	fa0,64(s0)
2000a444:	3e20                	fld	fs0,120(a2)
2000a446:	503a6c3f 2020205f 	0x2020205f503a6c3f
2000a44e:	2022                	fld	ft0,8(sp)
2000a450:	20202b7b          	0x20202b7b
2000a454:	2020                	fld	fs0,64(s0)
2000a456:	7d0d                	lui	s10,0xfffe3
2000a458:	7c20                	flw	fs0,120(s0)
2000a45a:	2020                	fld	fs0,64(s0)
2000a45c:	2020                	fld	fs0,64(s0)
2000a45e:	2020                	fld	fs0,64(s0)
2000a460:	2020                	fld	fs0,64(s0)
2000a462:	2008                	fld	fa0,0(s0)
2000a464:	2020                	fld	fs0,64(s0)
2000a466:	2020                	fld	fs0,64(s0)
2000a468:	2020                	fld	fs0,64(s0)
2000a46a:	2020                	fld	fs0,64(s0)
2000a46c:	2020                	fld	fs0,64(s0)
2000a46e:	2020                	fld	fs0,64(s0)
2000a470:	2020                	fld	fs0,64(s0)
2000a472:	2020201b          	0x2020201b
2000a476:	2020                	fld	fs0,64(s0)
2000a478:	2020                	fld	fs0,64(s0)
2000a47a:	2020                	fld	fs0,64(s0)
2000a47c:	2020                	fld	fs0,64(s0)
2000a47e:	2020                	fld	fs0,64(s0)
2000a480:	2020                	fld	fs0,64(s0)
2000a482:	2020                	fld	fs0,64(s0)
2000a484:	2020                	fld	fs0,64(s0)
2000a486:	2020                	fld	fs0,64(s0)
2000a488:	2020                	fld	fs0,64(s0)
2000a48a:	2020                	fld	fs0,64(s0)
2000a48c:	2020                	fld	fs0,64(s0)
2000a48e:	2020                	fld	fs0,64(s0)
2000a490:	2020                	fld	fs0,64(s0)
2000a492:	2020                	fld	fs0,64(s0)
2000a494:	2020                	fld	fs0,64(s0)
2000a496:	2020                	fld	fs0,64(s0)
2000a498:	2020                	fld	fs0,64(s0)
2000a49a:	2020                	fld	fs0,64(s0)
2000a49c:	2020                	fld	fs0,64(s0)
2000a49e:	2020                	fld	fs0,64(s0)
2000a4a0:	2020                	fld	fs0,64(s0)
2000a4a2:	2020                	fld	fs0,64(s0)
2000a4a4:	2020                	fld	fs0,64(s0)
2000a4a6:	2020                	fld	fs0,64(s0)
2000a4a8:	2020                	fld	fs0,64(s0)
2000a4aa:	2020                	fld	fs0,64(s0)
2000a4ac:	2020                	fld	fs0,64(s0)
2000a4ae:	2020                	fld	fs0,64(s0)
2000a4b0:	2020                	fld	fs0,64(s0)
2000a4b2:	2020                	fld	fs0,64(s0)
2000a4b4:	2020                	fld	fs0,64(s0)
2000a4b6:	2020                	fld	fs0,64(s0)
2000a4b8:	2020                	fld	fs0,64(s0)
2000a4ba:	2020                	fld	fs0,64(s0)
2000a4bc:	2020                	fld	fs0,64(s0)
2000a4be:	2020                	fld	fs0,64(s0)
2000a4c0:	2020                	fld	fs0,64(s0)
2000a4c2:	2020                	fld	fs0,64(s0)
2000a4c4:	2020                	fld	fs0,64(s0)
2000a4c6:	2020                	fld	fs0,64(s0)
2000a4c8:	2020                	fld	fs0,64(s0)
2000a4ca:	2020                	fld	fs0,64(s0)
2000a4cc:	2020                	fld	fs0,64(s0)
2000a4ce:	2020                	fld	fs0,64(s0)
2000a4d0:	2020                	fld	fs0,64(s0)
2000a4d2:	2020                	fld	fs0,64(s0)
2000a4d4:	2020                	fld	fs0,64(s0)
2000a4d6:	2020                	fld	fs0,64(s0)
2000a4d8:	2020                	fld	fs0,64(s0)
2000a4da:	2020                	fld	fs0,64(s0)
2000a4dc:	2020                	fld	fs0,64(s0)
2000a4de:	2020                	fld	fs0,64(s0)
2000a4e0:	2020                	fld	fs0,64(s0)
2000a4e2:	2020                	fld	fs0,64(s0)
2000a4e4:	2020                	fld	fs0,64(s0)
2000a4e6:	2020                	fld	fs0,64(s0)
2000a4e8:	2020                	fld	fs0,64(s0)
2000a4ea:	2020                	fld	fs0,64(s0)
2000a4ec:	2020                	fld	fs0,64(s0)
2000a4ee:	2020                	fld	fs0,64(s0)
2000a4f0:	2020                	fld	fs0,64(s0)
2000a4f2:	2020                	fld	fs0,64(s0)
2000a4f4:	2020                	fld	fs0,64(s0)
2000a4f6:	2020                	fld	fs0,64(s0)
2000a4f8:	2020                	fld	fs0,64(s0)
2000a4fa:	2020                	fld	fs0,64(s0)

2000a4fc <BUTTONCHANGE>:
2000a4fc:	1050                	addi	a2,sp,36
2000a4fe:	8000                	0x8000

2000a500 <BUTTONCHANGEAVAIL>:
2000a500:	1054                	addi	a3,sp,36
2000a502:	8000                	0x8000

2000a504 <_ZL9VolumeStr>:
2000a504:	8398                	0x8398
2000a506:	2000                	fld	fs0,0(s0)
2000a508:	839c                	0x839c
2000a50a:	2000                	fld	fs0,0(s0)
2000a50c:	83a0                	0x83a0
2000a50e:	2000                	fld	fs0,0(s0)

Disassembly of section .got:

2000a510 <_GLOBAL_OFFSET_TABLE_>:
2000a510:	0000                	unimp
2000a512:	0000                	unimp
2000a514:	aea0                	fsd	fs0,88(a3)
2000a516:	2000                	fld	fs0,0(s0)
2000a518:	ad90                	fsd	fa2,24(a1)
2000a51a:	2000                	fld	fs0,0(s0)
2000a51c:	2820                	fld	fs0,80(s0)
2000a51e:	2000                	fld	fs0,0(s0)
2000a520:	aca0                	fsd	fs0,88(s1)
2000a522:	2000                	fld	fs0,0(s0)
2000a524:	a3fc                	fsd	fa5,192(a5)
2000a526:	2000                	fld	fs0,0(s0)
2000a528:	a2cc                	fsd	fa1,128(a3)
2000a52a:	2000                	fld	fs0,0(s0)
2000a52c:	a2f8                	fsd	fa4,192(a3)
2000a52e:	2000                	fld	fs0,0(s0)
2000a530:	a2e4                	fsd	fs1,192(a3)
2000a532:	2000                	fld	fs0,0(s0)
2000a534:	f420                	fsw	fs0,104(s0)
2000a536:	2000                	fld	fs0,0(s0)
2000a538:	a2f0                	fsd	fa2,192(a3)
2000a53a:	2000                	fld	fs0,0(s0)
2000a53c:	a2fc                	fsd	fa5,192(a3)
2000a53e:	2000                	fld	fs0,0(s0)
2000a540:	00b0                	addi	a2,sp,72
2000a542:	2000                	fld	fs0,0(s0)
2000a544:	a2e8                	fsd	fa0,192(a3)
2000a546:	2000                	fld	fs0,0(s0)
2000a548:	a4fc                	fsd	fa5,200(s1)
2000a54a:	2000                	fld	fs0,0(s0)
2000a54c:	a2f4                	fsd	fa3,192(a3)
2000a54e:	2000                	fld	fs0,0(s0)
2000a550:	a59c                	fsd	fa5,8(a1)
2000a552:	2000                	fld	fs0,0(s0)
2000a554:	a2d8                	fsd	fa4,128(a3)
2000a556:	2000                	fld	fs0,0(s0)
2000a558:	a2dc                	fsd	fa5,128(a3)
2000a55a:	2000                	fld	fs0,0(s0)
2000a55c:	0090                	addi	a2,sp,64
2000a55e:	2000                	fld	fs0,0(s0)
2000a560:	a2d4                	fsd	fa3,128(a3)
2000a562:	2000                	fld	fs0,0(s0)
2000a564:	f635                	bnez	a2,2000a4d0 <scantoasciitable_uppercase+0xd4>
2000a566:	2000                	fld	fs0,0(s0)
2000a568:	a2ec                	fsd	fa1,192(a3)
2000a56a:	2000                	fld	fs0,0(s0)
2000a56c:	a2d0                	fsd	fa2,128(a3)
2000a56e:	2000                	fld	fs0,0(s0)
2000a570:	aaa0                	fsd	fs0,80(a3)
2000a572:	2000                	fld	fs0,0(s0)
2000a574:	a278                	fsd	fa4,192(a2)
2000a576:	2000                	fld	fs0,0(s0)
2000a578:	25f0                	fld	fa2,200(a1)
2000a57a:	2000                	fld	fs0,0(s0)
2000a57c:	a27c                	fsd	fa5,192(a2)
2000a57e:	2000                	fld	fs0,0(s0)
2000a580:	a5d4                	fsd	fa3,136(a1)
2000a582:	2000                	fld	fs0,0(s0)
2000a584:	a500                	fsd	fs0,8(a0)
2000a586:	2000                	fld	fs0,0(s0)

Disassembly of section .got.plt:

2000a588 <.got.plt>:
2000a588:	ffff                	0xffff
2000a58a:	ffff                	0xffff
2000a58c:	0000                	unimp
	...

Disassembly of section .sdata:

2000a590 <_impure_ptr>:
2000a590:	9848                	0x9848
2000a592:	2000                	fld	fs0,0(s0)

2000a594 <__malloc_sbrk_base>:
2000a594:	ffff                	0xffff
2000a596:	ffff                	0xffff

2000a598 <__malloc_trim_threshold>:
2000a598:	0000                	unimp
2000a59a:	0002                	c.slli64	zero

Disassembly of section .sbss:

2000a59c <__malloc_max_total_mem>:
2000a59c:	0000                	unimp
	...

2000a5a0 <__malloc_max_sbrked_mem>:
2000a5a0:	0000                	unimp
	...

2000a5a4 <__malloc_top_pad>:
2000a5a4:	0000                	unimp
	...

2000a5a8 <errno>:
2000a5a8:	0000                	unimp
	...

Disassembly of section .bss:

2000a5ac <__malloc_current_mallinfo>:
	...

2000a5d4 <Fs>:
	...

2000a80c <_ZL11commandline>:
	...

2000aa0c <_ZL12mainloopdone>:
2000aa0c:	0000                	unimp
	...

2000aa10 <_ZL16numdetectedharts>:
2000aa10:	0000                	unimp
	...

2000aa14 <_ZL6cmdlen>:
2000aa14:	0000                	unimp
	...

2000aa18 <_ZL8filename>:
	...

2000aa98 <_ZL9havedrive>:
2000aa98:	0000                	unimp
	...

2000aa9c <_ZZ16ProcessKeyEventsvE9uppercase>:
2000aa9c:	0000                	unimp
	...

2000aaa0 <keymap>:
	...

2000aca0 <keymapprev>:
	...

2000aea0 <s_filehandles>:
	...

2000f420 <s_numhandles>:
2000f420:	0000                	unimp
	...

2000f424 <_ZL4Fsid>:
2000f424:	0000                	unimp
	...

2000f428 <_ZL5FatFs>:
	...

2000f434 <_ZL6LfnBuf>:
	...

2000f634 <_ZL7CurrVol>:
	...

Disassembly of section .comment:

00000000 <.comment>:
   0:	3a434347          	fmsub.d	ft6,ft6,ft4,ft7,rmm
   4:	2820                	fld	fs0,80(s0)
   6:	29554e47          	fmsub.s	ft8,fa0,fs5,ft5,rmm
   a:	3120                	fld	fs0,96(a0)
   c:	2e31                	jal	328 <_start-0x1ffffcd8>
   e:	2e31                	jal	32a <_start-0x1ffffcd6>
  10:	0030                	addi	a2,sp,8

Disassembly of section .riscv.attributes:

00000000 <.riscv.attributes>:
   0:	2441                	jal	280 <_start-0x1ffffd80>
   2:	0000                	unimp
   4:	7200                	flw	fs0,32(a2)
   6:	7369                	lui	t1,0xffffa
   8:	01007663          	bgeu	zero,a6,14 <_start-0x1fffffec>
   c:	001a                	c.slli	zero,0x6
   e:	0000                	unimp
  10:	1004                	addi	s1,sp,32
  12:	7205                	lui	tp,0xfffe1
  14:	3376                	fld	ft6,376(sp)
  16:	6932                	flw	fs2,12(sp)
  18:	7032                	flw	ft0,44(sp)
  1a:	5f30                	lw	a2,120(a4)
  1c:	326d                	jal	fffff9c6 <_end+0xdfff038e>
  1e:	3070                	fld	fa2,224(s0)
  20:	0800                	addi	s0,sp,16
  22:	0a01                	addi	s4,s4,0
  24:	0b              	Address 0x0000000000000024 is out of bounds.

