
./BOOT.elf:     file format elf32-littleriscv
./BOOT.elf
architecture: riscv:rv32, flags 0x00000112:
EXEC_P, HAS_SYMS, D_PAGED
start address 0x80000000

Program Header:
    LOAD off    0x00001000 vaddr 0x80000000 paddr 0x80000000 align 2**12
         filesz 0x0000a4e4 memsz 0x0000a5f0 flags rwx

Sections:
Idx Name          Size      VMA       LMA       File off  Algn
  0 .boot         0000007c  80000000  80000000  00001000  2**2
                  CONTENTS, ALLOC, LOAD, READONLY, CODE
  1 .text         00009684  8000007c  8000007c  0000107c  2**2
                  CONTENTS, ALLOC, LOAD, READONLY, CODE
  2 .rodata       000003a8  80009700  80009700  0000a700  2**3
                  CONTENTS, ALLOC, LOAD, READONLY, DATA
  3 .srodata      00000004  80009aa8  80009aa8  0000aaa8  2**2
                  CONTENTS, ALLOC, LOAD, READONLY, DATA
  4 .eh_frame     00000378  80009aac  80009aac  0000aaac  2**2
                  CONTENTS, ALLOC, LOAD, READONLY, DATA
  5 .data         00000428  80009e28  80009e28  0000ae28  2**3
                  CONTENTS, ALLOC, LOAD, DATA
  6 .sdata        00000294  8000a250  8000a250  0000b250  2**3
                  CONTENTS, ALLOC, LOAD, DATA
  7 .sbss         0000000c  8000a4e4  8000a4e4  0000b4e4  2**2
                  ALLOC
  8 .bss          00000100  8000a4f0  8000a4f0  0000b4e4  2**2
                  ALLOC
  9 .comment      00000012  00000000  00000000  0000b4e4  2**0
                  CONTENTS, READONLY
 10 .riscv.attributes 00000020  00000000  00000000  0000b4f6  2**0
                  CONTENTS, READONLY
SYMBOL TABLE:
80000000 l    d  .boot	00000000 .boot
8000007c l    d  .text	00000000 .text
80009700 l    d  .rodata	00000000 .rodata
80009aa8 l    d  .srodata	00000000 .srodata
80009aac l    d  .eh_frame	00000000 .eh_frame
80009e28 l    d  .data	00000000 .data
8000a250 l    d  .sdata	00000000 .sdata
8000a4e4 l    d  .sbss	00000000 .sbss
8000a4f0 l    d  .bss	00000000 .bss
00000000 l    d  .comment	00000000 .comment
00000000 l    d  .riscv.attributes	00000000 .riscv.attributes
00000000 l    df *ABS*	00000000 rom.cpp
80000074 l       .boot	00000000 workerhartstart
8000005c l       .boot	00000000 noatexitfound
00000000 l    df *ABS*	00000000 atexit.c
00000000 l    df *ABS*	00000000 errno.c
00000000 l    df *ABS*	00000000 fini.c
00000000 l    df *ABS*	00000000 init.c
00000000 l    df *ABS*	00000000 __atexit.c
00000000 l    df *ABS*	00000000 adddf3.c
00000000 l    df *ABS*	00000000 divdf3.c
00000000 l    df *ABS*	00000000 gedf2.c
00000000 l    df *ABS*	00000000 muldf3.c
00000000 l    df *ABS*	00000000 subdf3.c
00000000 l    df *ABS*	00000000 fixdfsi.c
00000000 l    df *ABS*	00000000 floatsidf.c
00000000 l    df *ABS*	00000000 addsf3.c
00000000 l    df *ABS*	00000000 divsf3.c
00000000 l    df *ABS*	00000000 gesf2.c
00000000 l    df *ABS*	00000000 lesf2.c
00000000 l    df *ABS*	00000000 mulsf3.c
00000000 l    df *ABS*	00000000 subsf3.c
00000000 l    df *ABS*	00000000 fixunssfsi.c
00000000 l    df *ABS*	00000000 extendsfdf2.c
00000000 l    df *ABS*	00000000 truncdfsf2.c
00000000 l    df *ABS*	00000000 libgcc2.c
00000000 l    df *ABS*	00000000 eqdf2.c
00000000 l    df *ABS*	00000000 eqsf2.c
00000000 l    df *ABS*	00000000 unordsf2.c
00000000 l    df *ABS*	00000000 floatsisf.c
00000000 l    df *ABS*	00000000 uart.c
8000a268 l     O .sdata	00000004 _ZL15forceduartflush
00000000 l    df *ABS*	00000000 s_tan.c
00000000 l    df *ABS*	00000000 wf_pow.c
00000000 l    df *ABS*	00000000 wf_sqrt.c
00000000 l    df *ABS*	00000000 e_rem_pio2.c
800098cc l     O .rodata	00000080 npio2_hw
8000994c l     O .rodata	00000108 two_over_pi
00000000 l    df *ABS*	00000000 ef_pow.c
8000a3e4 l     O .sdata	00000008 bp
8000a3ec l     O .sdata	00000008 dp_h
8000a3f4 l     O .sdata	00000008 dp_l
00000000 l    df *ABS*	00000000 ef_sqrt.c
00000000 l    df *ABS*	00000000 k_rem_pio2.c
80009a58 l     O .rodata	00000040 PIo2
80009a98 l     O .rodata	00000010 init_jk
00000000 l    df *ABS*	00000000 k_tan.c
00000000 l    df *ABS*	00000000 math_errf.c
8000927c l     F .text	00000038 with_errnof
800092b4 l     F .text	00000030 xflowf
00000000 l    df *ABS*	00000000 s_fabs.c
00000000 l    df *ABS*	00000000 s_floor.c
00000000 l    df *ABS*	00000000 s_scalbn.c
00000000 l    df *ABS*	00000000 sf_fabs.c
00000000 l    df *ABS*	00000000 sf_finite.c
00000000 l    df *ABS*	00000000 sf_scalbn.c
00000000 l    df *ABS*	00000000 libgcc2.c
00000000 l    df *ABS*	00000000 impure.c
80009e28 l     O .data	00000428 impure_data
80009aa8 l       .srodata	00000000 __fini_array_end
80009aa8 l       .srodata	00000000 __fini_array_start
80009aa8 l       .srodata	00000000 __init_array_end
80009aa8 l       .srodata	00000000 __preinit_array_end
80009aa8 l       .srodata	00000000 __init_array_start
80009aa8 l       .srodata	00000000 __preinit_array_start
800092f4 g     F .text	00000018 fabs
800038ac g     F .text	0000008c .hidden __eqdf2
8000aa50 g       *ABS*	00000000 __global_pointer$
80009e30 g       .data	00000000 _fdata
80006790 g     F .text	0000002c _Z9UARTFlushv
800027e4 g     F .text	0000038c .hidden __divsf3
80007000 g     F .text	0000010c powf
8000a25c g     O .sdata	00000004 nb_spheres
800012c8 g     F .text	000000e4 .hidden __gtdf2
80000090 g     F .text	0000000c __errno
8000930c g     F .text	000001a8 floor
80009aa8 g       .rodata	00000000 _etext
80003f5c g     F .text	000003ec _Z7refract4vec3S_ff
8000aa50 g       .sdata	00000000 _gp
80003058 g     F .text	0000046c .hidden __subsf3
8000007c g       .boot	00000000 _boot
8000710c g     F .text	00000070 sqrtf
8000717c g     F .text	000005d4 __ieee754_rem_pio2
8000a254 g     O .sdata	00000004 mailbox
800022e8 g     F .text	000000a8 .hidden __floatsidf
80006864 g     F .text	00000100 _Z16UARTWriteHexByteh
800037b4 g     F .text	00000048 .hidden __udivsi3
80002c28 g     F .text	000000b8 .hidden __lesf2
8000a4f0 g       .bss	00000000 _bss_start
8000a4ec g     O .sbss	00000004 __malloc_top_pad
80006408 g     F .text	000002f0 _Z10init_scenev
800095e8 g     F .text	00000014 finitef
800095dc g     F .text	0000000c fabsf
8000a4e8 g     O .sbss	00000004 __malloc_max_sbrked_mem
80003528 g     F .text	000000dc .hidden __extendsfdf2
8000030c g     F .text	000007dc .hidden __adddf3
80003938 g     F .text	00000068 .hidden __nesf2
80009aa8 g     O .srodata	00000004 _global_impure_ptr
800000f8 g     F .text	0000009c __libc_init_array
8000a5f0 g       .bss	00000000 _bss_end
80008238 g     F .text	00000a8c __kernel_rem_pio2
8000009c g     F .text	0000005c __libc_fini_array
80002268 g     F .text	00000080 .hidden __fixdfsi
8000491c g     F .text	00000c68 _Z8cast_ray4vec3S_P6SphereiP5Lightii
80002b70 g     F .text	000000b8 .hidden __gtsf2
800037fc g     F .text	00000010 .hidden __umodsi3
8000a258 g     O .sdata	00000004 nb_lights
80004348 g     F .text	000005d4 _Z15scene_intersect4vec3S_P6SphereiPS_S2_P8Material
800092e4 g     F .text	00000008 .hidden __math_uflowf
80003860 g     F .text	0000004c .hidden __clzsi2
8000007c g       .boot	00000000 _ftext
80000000 g     F .boot	0000007c _start
80006b38 g     F .text	0000044c _Z16UARTWriteDecimall
800039e4 g     F .text	00000114 .hidden __floatsisf
80000270 g     F .text	0000009c __register_exitproc
80003788 g     F .text	00000024 .hidden __mulsi3
80003938 g     F .text	00000068 .hidden __eqsf2
80003af8 g     F .text	00000190 _Z18graphics_set_pixeliifff
80000ae8 g     F .text	000007e0 .hidden __divdf3
80003e44 g     F .text	00000118 _Z7reflect4vec3S_
80003c88 g     F .text	000001bc _Z20Sphere_ray_intersectP6Sphere4vec3S1_Pf
800013ac g     F .text	000006cc .hidden __muldf3
80007750 g     F .text	000009c4 __ieee754_powf
8000a520 g     O .bss	000000d0 spheres
800095fc g     F .text	00000104 scalbnf
80000194 g     F .text	000000dc memset
80008114 g     F .text	00000124 __ieee754_sqrtf
8000674c g     F .text	00000044 main
8000a4e4 g     O .sbss	00000004 __malloc_max_total_mem
800067bc g     F .text	000000a8 _Z9UARTWritePKc
80002c28 g     F .text	000000b8 .hidden __ltsf2
80003604 g     F .text	00000184 .hidden __truncdfsf2
800037ac g     F .text	00000084 .hidden __divsi3
80002ce0 g     F .text	00000378 .hidden __mulsf3
80006f84 g     F .text	0000007c tan
800038ac g     F .text	0000008c .hidden __nedf2
80009778 g     O .rodata	00000100 .hidden __clz_tab
8000a4f0 g     O .bss	00000030 lights
8000007c g     F .text	00000014 atexit
80002b70 g     F .text	000000b8 .hidden __gesf2
8000a264 g     O .sdata	00000004 IO_UARTTX
8000a250 g     O .sdata	00000004 _impure_ptr
800094b4 g     F .text	00000128 scalbn
8000a5f0 g       .bss	00000000 __BSS_END__$
8000a250 g       .data	00000000 _edata
8000a5f0 g       .bss	00000000 _end
800039a0 g     F .text	00000044 .hidden __unordsf2
80003830 g     F .text	00000030 .hidden __modsi3
800034c4 g     F .text	00000064 .hidden __fixunssfsi
8000a260 g     O .sdata	00000004 IO_UARTStatus
8000007c g     F .boot	00000000 _exit
80005584 g     F .text	00000e84 _Z6renderiP6SphereiP5Lighti
800092ec g     F .text	00000008 .hidden __math_oflowf
800012c8 g     F .text	000000e4 .hidden __gedf2
80001a78 g     F .text	000007f0 .hidden __subdf3
80006964 g     F .text	000001d4 _Z12UARTWriteHexm
8000a4e8 g       .sbss	00000000 _fbss
80008cc4 g     F .text	000005b8 __kernel_tan
80002390 g     F .text	00000454 .hidden __addsf3
800066f8 g     F .text	00000054 _Z10workermainv



Disassembly of section .boot:

80000000 <_start>:
80000000:	0000b197          	auipc	gp,0xb
80000004:	a5018193          	addi	gp,gp,-1456 # 8000aa50 <__global_pointer$>
80000008:	f14024f3          	csrr	s1,mhartid
8000000c:	00d49493          	slli	s1,s1,0xd
80000010:	0000d937          	lui	s2,0xd
80000014:	00990933          	add	s2,s2,s1
80000018:	800009b7          	lui	s3,0x80000
8000001c:	01396933          	or	s2,s2,s3
80000020:	00090113          	mv	sp,s2
80000024:	00010413          	mv	s0,sp
80000028:	04049663          	bnez	s1,80000074 <workerhartstart>
8000002c:	a9418513          	addi	a0,gp,-1388 # 8000a4e4 <__malloc_max_total_mem>
80000030:	ba018613          	addi	a2,gp,-1120 # 8000a5f0 <__BSS_END__$>
80000034:	40a60633          	sub	a2,a2,a0
80000038:	00000593          	li	a1,0
8000003c:	158000ef          	jal	ra,80000194 <memset>
80000040:	00000517          	auipc	a0,0x0
80000044:	03c50513          	addi	a0,a0,60 # 8000007c <_exit>
80000048:	00050a63          	beqz	a0,8000005c <noatexitfound>
8000004c:	00001517          	auipc	a0,0x1
80000050:	00000517          	auipc	a0,0x0
80000054:	04c50513          	addi	a0,a0,76 # 8000009c <__libc_fini_array>
80000058:	024000ef          	jal	ra,8000007c <_exit>

8000005c <noatexitfound>:
8000005c:	09c000ef          	jal	ra,800000f8 <__libc_init_array>
80000060:	00012503          	lw	a0,0(sp)
80000064:	00410593          	addi	a1,sp,4
80000068:	00000613          	li	a2,0
8000006c:	6e00606f          	j	8000674c <main>
80000070:	00100073          	ebreak

80000074 <workerhartstart>:
80000074:	6840606f          	j	800066f8 <_Z10workermainv>
80000078:	00100073          	ebreak

Disassembly of section .text:

8000007c <atexit>:
8000007c:	00050593          	mv	a1,a0
80000080:	00000693          	li	a3,0
80000084:	00000613          	li	a2,0
80000088:	00000513          	li	a0,0
8000008c:	1e40006f          	j	80000270 <__register_exitproc>

80000090 <__errno>:
80000090:	8000a7b7          	lui	a5,0x8000a
80000094:	2507a503          	lw	a0,592(a5) # 8000a250 <__global_pointer$+0xfffff800>
80000098:	00008067          	ret

8000009c <__libc_fini_array>:
8000009c:	ff010113          	addi	sp,sp,-16
800000a0:	00812423          	sw	s0,8(sp)
800000a4:	8000a7b7          	lui	a5,0x8000a
800000a8:	8000a437          	lui	s0,0x8000a
800000ac:	aa878793          	addi	a5,a5,-1368 # 80009aa8 <__global_pointer$+0xfffff058>
800000b0:	aa840413          	addi	s0,s0,-1368 # 80009aa8 <__global_pointer$+0xfffff058>
800000b4:	40f40433          	sub	s0,s0,a5
800000b8:	00912223          	sw	s1,4(sp)
800000bc:	00112623          	sw	ra,12(sp)
800000c0:	40245493          	srai	s1,s0,0x2
800000c4:	02048063          	beqz	s1,800000e4 <__libc_fini_array+0x48>
800000c8:	ffc40413          	addi	s0,s0,-4
800000cc:	00f40433          	add	s0,s0,a5
800000d0:	00042783          	lw	a5,0(s0)
800000d4:	fff48493          	addi	s1,s1,-1
800000d8:	ffc40413          	addi	s0,s0,-4
800000dc:	000780e7          	jalr	a5
800000e0:	fe0498e3          	bnez	s1,800000d0 <__libc_fini_array+0x34>
800000e4:	00c12083          	lw	ra,12(sp)
800000e8:	00812403          	lw	s0,8(sp)
800000ec:	00412483          	lw	s1,4(sp)
800000f0:	01010113          	addi	sp,sp,16
800000f4:	00008067          	ret

800000f8 <__libc_init_array>:
800000f8:	ff010113          	addi	sp,sp,-16
800000fc:	00812423          	sw	s0,8(sp)
80000100:	01212023          	sw	s2,0(sp)
80000104:	8000a437          	lui	s0,0x8000a
80000108:	8000a937          	lui	s2,0x8000a
8000010c:	aa840793          	addi	a5,s0,-1368 # 80009aa8 <__global_pointer$+0xfffff058>
80000110:	aa890913          	addi	s2,s2,-1368 # 80009aa8 <__global_pointer$+0xfffff058>
80000114:	40f90933          	sub	s2,s2,a5
80000118:	00112623          	sw	ra,12(sp)
8000011c:	00912223          	sw	s1,4(sp)
80000120:	40295913          	srai	s2,s2,0x2
80000124:	02090063          	beqz	s2,80000144 <__libc_init_array+0x4c>
80000128:	aa840413          	addi	s0,s0,-1368
8000012c:	00000493          	li	s1,0
80000130:	00042783          	lw	a5,0(s0)
80000134:	00148493          	addi	s1,s1,1
80000138:	00440413          	addi	s0,s0,4
8000013c:	000780e7          	jalr	a5
80000140:	fe9918e3          	bne	s2,s1,80000130 <__libc_init_array+0x38>
80000144:	8000a437          	lui	s0,0x8000a
80000148:	8000a937          	lui	s2,0x8000a
8000014c:	aa840793          	addi	a5,s0,-1368 # 80009aa8 <__global_pointer$+0xfffff058>
80000150:	aa890913          	addi	s2,s2,-1368 # 80009aa8 <__global_pointer$+0xfffff058>
80000154:	40f90933          	sub	s2,s2,a5
80000158:	40295913          	srai	s2,s2,0x2
8000015c:	02090063          	beqz	s2,8000017c <__libc_init_array+0x84>
80000160:	aa840413          	addi	s0,s0,-1368
80000164:	00000493          	li	s1,0
80000168:	00042783          	lw	a5,0(s0)
8000016c:	00148493          	addi	s1,s1,1
80000170:	00440413          	addi	s0,s0,4
80000174:	000780e7          	jalr	a5
80000178:	fe9918e3          	bne	s2,s1,80000168 <__libc_init_array+0x70>
8000017c:	00c12083          	lw	ra,12(sp)
80000180:	00812403          	lw	s0,8(sp)
80000184:	00412483          	lw	s1,4(sp)
80000188:	00012903          	lw	s2,0(sp)
8000018c:	01010113          	addi	sp,sp,16
80000190:	00008067          	ret

80000194 <memset>:
80000194:	00f00313          	li	t1,15
80000198:	00050713          	mv	a4,a0
8000019c:	02c37e63          	bgeu	t1,a2,800001d8 <memset+0x44>
800001a0:	00f77793          	andi	a5,a4,15
800001a4:	0a079063          	bnez	a5,80000244 <memset+0xb0>
800001a8:	08059263          	bnez	a1,8000022c <memset+0x98>
800001ac:	ff067693          	andi	a3,a2,-16
800001b0:	00f67613          	andi	a2,a2,15
800001b4:	00e686b3          	add	a3,a3,a4
800001b8:	00b72023          	sw	a1,0(a4)
800001bc:	00b72223          	sw	a1,4(a4)
800001c0:	00b72423          	sw	a1,8(a4)
800001c4:	00b72623          	sw	a1,12(a4)
800001c8:	01070713          	addi	a4,a4,16
800001cc:	fed766e3          	bltu	a4,a3,800001b8 <memset+0x24>
800001d0:	00061463          	bnez	a2,800001d8 <memset+0x44>
800001d4:	00008067          	ret
800001d8:	40c306b3          	sub	a3,t1,a2
800001dc:	00269693          	slli	a3,a3,0x2
800001e0:	00000297          	auipc	t0,0x0
800001e4:	005686b3          	add	a3,a3,t0
800001e8:	00c68067          	jr	12(a3)
800001ec:	00b70723          	sb	a1,14(a4)
800001f0:	00b706a3          	sb	a1,13(a4)
800001f4:	00b70623          	sb	a1,12(a4)
800001f8:	00b705a3          	sb	a1,11(a4)
800001fc:	00b70523          	sb	a1,10(a4)
80000200:	00b704a3          	sb	a1,9(a4)
80000204:	00b70423          	sb	a1,8(a4)
80000208:	00b703a3          	sb	a1,7(a4)
8000020c:	00b70323          	sb	a1,6(a4)
80000210:	00b702a3          	sb	a1,5(a4)
80000214:	00b70223          	sb	a1,4(a4)
80000218:	00b701a3          	sb	a1,3(a4)
8000021c:	00b70123          	sb	a1,2(a4)
80000220:	00b700a3          	sb	a1,1(a4)
80000224:	00b70023          	sb	a1,0(a4)
80000228:	00008067          	ret
8000022c:	0ff5f593          	zext.b	a1,a1
80000230:	00859693          	slli	a3,a1,0x8
80000234:	00d5e5b3          	or	a1,a1,a3
80000238:	01059693          	slli	a3,a1,0x10
8000023c:	00d5e5b3          	or	a1,a1,a3
80000240:	f6dff06f          	j	800001ac <memset+0x18>
80000244:	00279693          	slli	a3,a5,0x2
80000248:	00000297          	auipc	t0,0x0
8000024c:	005686b3          	add	a3,a3,t0
80000250:	00008293          	mv	t0,ra
80000254:	fa0680e7          	jalr	-96(a3)
80000258:	00028093          	mv	ra,t0
8000025c:	ff078793          	addi	a5,a5,-16
80000260:	40f70733          	sub	a4,a4,a5
80000264:	00f60633          	add	a2,a2,a5
80000268:	f6c378e3          	bgeu	t1,a2,800001d8 <memset+0x44>
8000026c:	f3dff06f          	j	800001a8 <memset+0x14>

80000270 <__register_exitproc>:
80000270:	8000a7b7          	lui	a5,0x8000a
80000274:	aa87a703          	lw	a4,-1368(a5) # 80009aa8 <__global_pointer$+0xfffff058>
80000278:	14872783          	lw	a5,328(a4)
8000027c:	04078c63          	beqz	a5,800002d4 <__register_exitproc+0x64>
80000280:	0047a703          	lw	a4,4(a5)
80000284:	01f00813          	li	a6,31
80000288:	06e84e63          	blt	a6,a4,80000304 <__register_exitproc+0x94>
8000028c:	00271813          	slli	a6,a4,0x2
80000290:	02050663          	beqz	a0,800002bc <__register_exitproc+0x4c>
80000294:	01078333          	add	t1,a5,a6
80000298:	08c32423          	sw	a2,136(t1)
8000029c:	1887a883          	lw	a7,392(a5)
800002a0:	00100613          	li	a2,1
800002a4:	00e61633          	sll	a2,a2,a4
800002a8:	00c8e8b3          	or	a7,a7,a2
800002ac:	1917a423          	sw	a7,392(a5)
800002b0:	10d32423          	sw	a3,264(t1)
800002b4:	00200693          	li	a3,2
800002b8:	02d50463          	beq	a0,a3,800002e0 <__register_exitproc+0x70>
800002bc:	00170713          	addi	a4,a4,1
800002c0:	00e7a223          	sw	a4,4(a5)
800002c4:	010787b3          	add	a5,a5,a6
800002c8:	00b7a423          	sw	a1,8(a5)
800002cc:	00000513          	li	a0,0
800002d0:	00008067          	ret
800002d4:	14c70793          	addi	a5,a4,332
800002d8:	14f72423          	sw	a5,328(a4)
800002dc:	fa5ff06f          	j	80000280 <__register_exitproc+0x10>
800002e0:	18c7a683          	lw	a3,396(a5)
800002e4:	00170713          	addi	a4,a4,1
800002e8:	00e7a223          	sw	a4,4(a5)
800002ec:	00c6e6b3          	or	a3,a3,a2
800002f0:	18d7a623          	sw	a3,396(a5)
800002f4:	010787b3          	add	a5,a5,a6
800002f8:	00b7a423          	sw	a1,8(a5)
800002fc:	00000513          	li	a0,0
80000300:	00008067          	ret
80000304:	fff00513          	li	a0,-1
80000308:	00008067          	ret

8000030c <__adddf3>:
8000030c:	00100837          	lui	a6,0x100
80000310:	fff80813          	addi	a6,a6,-1 # fffff <_start-0x7ff00001>
80000314:	fe010113          	addi	sp,sp,-32
80000318:	00b878b3          	and	a7,a6,a1
8000031c:	0145d713          	srli	a4,a1,0x14
80000320:	01d55793          	srli	a5,a0,0x1d
80000324:	00d87833          	and	a6,a6,a3
80000328:	00812c23          	sw	s0,24(sp)
8000032c:	7ff77413          	andi	s0,a4,2047
80000330:	00389713          	slli	a4,a7,0x3
80000334:	0146d893          	srli	a7,a3,0x14
80000338:	00381813          	slli	a6,a6,0x3
8000033c:	00912a23          	sw	s1,20(sp)
80000340:	00e7e7b3          	or	a5,a5,a4
80000344:	7ff8f893          	andi	a7,a7,2047
80000348:	01d65713          	srli	a4,a2,0x1d
8000034c:	00112e23          	sw	ra,28(sp)
80000350:	01212823          	sw	s2,16(sp)
80000354:	01312623          	sw	s3,12(sp)
80000358:	01f5d493          	srli	s1,a1,0x1f
8000035c:	01f6d693          	srli	a3,a3,0x1f
80000360:	01076733          	or	a4,a4,a6
80000364:	00351513          	slli	a0,a0,0x3
80000368:	00361613          	slli	a2,a2,0x3
8000036c:	41140833          	sub	a6,s0,a7
80000370:	2cd49863          	bne	s1,a3,80000640 <__adddf3+0x334>
80000374:	13005063          	blez	a6,80000494 <__adddf3+0x188>
80000378:	04089063          	bnez	a7,800003b8 <__adddf3+0xac>
8000037c:	00c766b3          	or	a3,a4,a2
80000380:	70068e63          	beqz	a3,80000a9c <__adddf3+0x790>
80000384:	fff80593          	addi	a1,a6,-1
80000388:	02059063          	bnez	a1,800003a8 <__adddf3+0x9c>
8000038c:	00c50633          	add	a2,a0,a2
80000390:	00e78733          	add	a4,a5,a4
80000394:	00a637b3          	sltu	a5,a2,a0
80000398:	00f707b3          	add	a5,a4,a5
8000039c:	00060513          	mv	a0,a2
800003a0:	00100413          	li	s0,1
800003a4:	0700006f          	j	80000414 <__adddf3+0x108>
800003a8:	7ff00693          	li	a3,2047
800003ac:	02d81063          	bne	a6,a3,800003cc <__adddf3+0xc0>
800003b0:	7ff00413          	li	s0,2047
800003b4:	2140006f          	j	800005c8 <__adddf3+0x2bc>
800003b8:	7ff00693          	li	a3,2047
800003bc:	20d40663          	beq	s0,a3,800005c8 <__adddf3+0x2bc>
800003c0:	008006b7          	lui	a3,0x800
800003c4:	00d76733          	or	a4,a4,a3
800003c8:	00080593          	mv	a1,a6
800003cc:	03800693          	li	a3,56
800003d0:	0ab6cc63          	blt	a3,a1,80000488 <__adddf3+0x17c>
800003d4:	01f00693          	li	a3,31
800003d8:	06b6ce63          	blt	a3,a1,80000454 <__adddf3+0x148>
800003dc:	02000813          	li	a6,32
800003e0:	40b80833          	sub	a6,a6,a1
800003e4:	010716b3          	sll	a3,a4,a6
800003e8:	00b658b3          	srl	a7,a2,a1
800003ec:	01061833          	sll	a6,a2,a6
800003f0:	0116e6b3          	or	a3,a3,a7
800003f4:	01003833          	snez	a6,a6
800003f8:	0106e6b3          	or	a3,a3,a6
800003fc:	00b755b3          	srl	a1,a4,a1
80000400:	00a686b3          	add	a3,a3,a0
80000404:	00f585b3          	add	a1,a1,a5
80000408:	00a6b7b3          	sltu	a5,a3,a0
8000040c:	00f587b3          	add	a5,a1,a5
80000410:	00068513          	mv	a0,a3
80000414:	00800737          	lui	a4,0x800
80000418:	00e7f733          	and	a4,a5,a4
8000041c:	1a070663          	beqz	a4,800005c8 <__adddf3+0x2bc>
80000420:	00140413          	addi	s0,s0,1
80000424:	7ff00713          	li	a4,2047
80000428:	5ce40a63          	beq	s0,a4,800009fc <__adddf3+0x6f0>
8000042c:	ff800737          	lui	a4,0xff800
80000430:	fff70713          	addi	a4,a4,-1 # ff7fffff <__global_pointer$+0x7f7f55af>
80000434:	00e7f7b3          	and	a5,a5,a4
80000438:	00155713          	srli	a4,a0,0x1
8000043c:	00157513          	andi	a0,a0,1
80000440:	00a76733          	or	a4,a4,a0
80000444:	01f79513          	slli	a0,a5,0x1f
80000448:	00e56533          	or	a0,a0,a4
8000044c:	0017d793          	srli	a5,a5,0x1
80000450:	1780006f          	j	800005c8 <__adddf3+0x2bc>
80000454:	fe058693          	addi	a3,a1,-32
80000458:	02000893          	li	a7,32
8000045c:	00d756b3          	srl	a3,a4,a3
80000460:	00000813          	li	a6,0
80000464:	01158863          	beq	a1,a7,80000474 <__adddf3+0x168>
80000468:	04000813          	li	a6,64
8000046c:	40b80833          	sub	a6,a6,a1
80000470:	01071833          	sll	a6,a4,a6
80000474:	00c86833          	or	a6,a6,a2
80000478:	01003833          	snez	a6,a6
8000047c:	0106e6b3          	or	a3,a3,a6
80000480:	00000593          	li	a1,0
80000484:	f7dff06f          	j	80000400 <__adddf3+0xf4>
80000488:	00c766b3          	or	a3,a4,a2
8000048c:	00d036b3          	snez	a3,a3
80000490:	ff1ff06f          	j	80000480 <__adddf3+0x174>
80000494:	0e080263          	beqz	a6,80000578 <__adddf3+0x26c>
80000498:	408885b3          	sub	a1,a7,s0
8000049c:	02041e63          	bnez	s0,800004d8 <__adddf3+0x1cc>
800004a0:	00a7e6b3          	or	a3,a5,a0
800004a4:	52068c63          	beqz	a3,800009dc <__adddf3+0x6d0>
800004a8:	fff58693          	addi	a3,a1,-1
800004ac:	00069c63          	bnez	a3,800004c4 <__adddf3+0x1b8>
800004b0:	00c50533          	add	a0,a0,a2
800004b4:	00e78733          	add	a4,a5,a4
800004b8:	00c53633          	sltu	a2,a0,a2
800004bc:	00c707b3          	add	a5,a4,a2
800004c0:	ee1ff06f          	j	800003a0 <__adddf3+0x94>
800004c4:	7ff00813          	li	a6,2047
800004c8:	03059263          	bne	a1,a6,800004ec <__adddf3+0x1e0>
800004cc:	00070793          	mv	a5,a4
800004d0:	00060513          	mv	a0,a2
800004d4:	eddff06f          	j	800003b0 <__adddf3+0xa4>
800004d8:	7ff00693          	li	a3,2047
800004dc:	fed888e3          	beq	a7,a3,800004cc <__adddf3+0x1c0>
800004e0:	008006b7          	lui	a3,0x800
800004e4:	00d7e7b3          	or	a5,a5,a3
800004e8:	00058693          	mv	a3,a1
800004ec:	03800593          	li	a1,56
800004f0:	06d5ce63          	blt	a1,a3,8000056c <__adddf3+0x260>
800004f4:	01f00593          	li	a1,31
800004f8:	04d5c063          	blt	a1,a3,80000538 <__adddf3+0x22c>
800004fc:	02000813          	li	a6,32
80000500:	40d80833          	sub	a6,a6,a3
80000504:	010795b3          	sll	a1,a5,a6
80000508:	00d55333          	srl	t1,a0,a3
8000050c:	01051833          	sll	a6,a0,a6
80000510:	0065e5b3          	or	a1,a1,t1
80000514:	01003833          	snez	a6,a6
80000518:	0105e5b3          	or	a1,a1,a6
8000051c:	00d7d6b3          	srl	a3,a5,a3
80000520:	00c58533          	add	a0,a1,a2
80000524:	00e686b3          	add	a3,a3,a4
80000528:	00c53633          	sltu	a2,a0,a2
8000052c:	00c687b3          	add	a5,a3,a2
80000530:	00088413          	mv	s0,a7
80000534:	ee1ff06f          	j	80000414 <__adddf3+0x108>
80000538:	fe068593          	addi	a1,a3,-32 # 7fffe0 <_start-0x7f800020>
8000053c:	02000313          	li	t1,32
80000540:	00b7d5b3          	srl	a1,a5,a1
80000544:	00000813          	li	a6,0
80000548:	00668863          	beq	a3,t1,80000558 <__adddf3+0x24c>
8000054c:	04000813          	li	a6,64
80000550:	40d80833          	sub	a6,a6,a3
80000554:	01079833          	sll	a6,a5,a6
80000558:	00a86833          	or	a6,a6,a0
8000055c:	01003833          	snez	a6,a6
80000560:	0105e5b3          	or	a1,a1,a6
80000564:	00000693          	li	a3,0
80000568:	fb9ff06f          	j	80000520 <__adddf3+0x214>
8000056c:	00a7e5b3          	or	a1,a5,a0
80000570:	00b035b3          	snez	a1,a1
80000574:	ff1ff06f          	j	80000564 <__adddf3+0x258>
80000578:	00140693          	addi	a3,s0,1
8000057c:	7fe6f593          	andi	a1,a3,2046
80000580:	08059863          	bnez	a1,80000610 <__adddf3+0x304>
80000584:	00a7e6b3          	or	a3,a5,a0
80000588:	06041463          	bnez	s0,800005f0 <__adddf3+0x2e4>
8000058c:	46068063          	beqz	a3,800009ec <__adddf3+0x6e0>
80000590:	00c766b3          	or	a3,a4,a2
80000594:	02068a63          	beqz	a3,800005c8 <__adddf3+0x2bc>
80000598:	00c50633          	add	a2,a0,a2
8000059c:	00e78733          	add	a4,a5,a4
800005a0:	00a637b3          	sltu	a5,a2,a0
800005a4:	00f707b3          	add	a5,a4,a5
800005a8:	00800737          	lui	a4,0x800
800005ac:	00e7f733          	and	a4,a5,a4
800005b0:	00060513          	mv	a0,a2
800005b4:	00070a63          	beqz	a4,800005c8 <__adddf3+0x2bc>
800005b8:	ff800737          	lui	a4,0xff800
800005bc:	fff70713          	addi	a4,a4,-1 # ff7fffff <__global_pointer$+0x7f7f55af>
800005c0:	00e7f7b3          	and	a5,a5,a4
800005c4:	00100413          	li	s0,1
800005c8:	00757713          	andi	a4,a0,7
800005cc:	42070c63          	beqz	a4,80000a04 <__adddf3+0x6f8>
800005d0:	00f57713          	andi	a4,a0,15
800005d4:	00400693          	li	a3,4
800005d8:	42d70663          	beq	a4,a3,80000a04 <__adddf3+0x6f8>
800005dc:	00450713          	addi	a4,a0,4
800005e0:	00a73533          	sltu	a0,a4,a0
800005e4:	00a787b3          	add	a5,a5,a0
800005e8:	00070513          	mv	a0,a4
800005ec:	4180006f          	j	80000a04 <__adddf3+0x6f8>
800005f0:	ec068ee3          	beqz	a3,800004cc <__adddf3+0x1c0>
800005f4:	00c76733          	or	a4,a4,a2
800005f8:	da070ce3          	beqz	a4,800003b0 <__adddf3+0xa4>
800005fc:	00000493          	li	s1,0
80000600:	004007b7          	lui	a5,0x400
80000604:	00000513          	li	a0,0
80000608:	7ff00413          	li	s0,2047
8000060c:	3f80006f          	j	80000a04 <__adddf3+0x6f8>
80000610:	7ff00593          	li	a1,2047
80000614:	3eb68263          	beq	a3,a1,800009f8 <__adddf3+0x6ec>
80000618:	00c50633          	add	a2,a0,a2
8000061c:	00a63533          	sltu	a0,a2,a0
80000620:	00e78733          	add	a4,a5,a4
80000624:	00a70733          	add	a4,a4,a0
80000628:	01f71513          	slli	a0,a4,0x1f
8000062c:	00165613          	srli	a2,a2,0x1
80000630:	00c56533          	or	a0,a0,a2
80000634:	00175793          	srli	a5,a4,0x1
80000638:	00068413          	mv	s0,a3
8000063c:	f8dff06f          	j	800005c8 <__adddf3+0x2bc>
80000640:	0f005c63          	blez	a6,80000738 <__adddf3+0x42c>
80000644:	08089e63          	bnez	a7,800006e0 <__adddf3+0x3d4>
80000648:	00c766b3          	or	a3,a4,a2
8000064c:	44068863          	beqz	a3,80000a9c <__adddf3+0x790>
80000650:	fff80593          	addi	a1,a6,-1
80000654:	02059063          	bnez	a1,80000674 <__adddf3+0x368>
80000658:	40c50633          	sub	a2,a0,a2
8000065c:	40e78733          	sub	a4,a5,a4
80000660:	00c537b3          	sltu	a5,a0,a2
80000664:	40f707b3          	sub	a5,a4,a5
80000668:	00060513          	mv	a0,a2
8000066c:	00100413          	li	s0,1
80000670:	0540006f          	j	800006c4 <__adddf3+0x3b8>
80000674:	7ff00693          	li	a3,2047
80000678:	d2d80ce3          	beq	a6,a3,800003b0 <__adddf3+0xa4>
8000067c:	03800693          	li	a3,56
80000680:	0ab6c663          	blt	a3,a1,8000072c <__adddf3+0x420>
80000684:	01f00693          	li	a3,31
80000688:	06b6c863          	blt	a3,a1,800006f8 <__adddf3+0x3ec>
8000068c:	02000813          	li	a6,32
80000690:	40b80833          	sub	a6,a6,a1
80000694:	010716b3          	sll	a3,a4,a6
80000698:	00b658b3          	srl	a7,a2,a1
8000069c:	01061833          	sll	a6,a2,a6
800006a0:	0116e6b3          	or	a3,a3,a7
800006a4:	01003833          	snez	a6,a6
800006a8:	0106e6b3          	or	a3,a3,a6
800006ac:	00b755b3          	srl	a1,a4,a1
800006b0:	40d506b3          	sub	a3,a0,a3
800006b4:	40b785b3          	sub	a1,a5,a1
800006b8:	00d537b3          	sltu	a5,a0,a3
800006bc:	40f587b3          	sub	a5,a1,a5
800006c0:	00068513          	mv	a0,a3
800006c4:	00800937          	lui	s2,0x800
800006c8:	0127f733          	and	a4,a5,s2
800006cc:	ee070ee3          	beqz	a4,800005c8 <__adddf3+0x2bc>
800006d0:	fff90913          	addi	s2,s2,-1 # 7fffff <_start-0x7f800001>
800006d4:	0127f933          	and	s2,a5,s2
800006d8:	00050993          	mv	s3,a0
800006dc:	2140006f          	j	800008f0 <__adddf3+0x5e4>
800006e0:	7ff00693          	li	a3,2047
800006e4:	eed402e3          	beq	s0,a3,800005c8 <__adddf3+0x2bc>
800006e8:	008006b7          	lui	a3,0x800
800006ec:	00d76733          	or	a4,a4,a3
800006f0:	00080593          	mv	a1,a6
800006f4:	f89ff06f          	j	8000067c <__adddf3+0x370>
800006f8:	fe058693          	addi	a3,a1,-32
800006fc:	02000893          	li	a7,32
80000700:	00d756b3          	srl	a3,a4,a3
80000704:	00000813          	li	a6,0
80000708:	01158863          	beq	a1,a7,80000718 <__adddf3+0x40c>
8000070c:	04000813          	li	a6,64
80000710:	40b80833          	sub	a6,a6,a1
80000714:	01071833          	sll	a6,a4,a6
80000718:	00c86833          	or	a6,a6,a2
8000071c:	01003833          	snez	a6,a6
80000720:	0106e6b3          	or	a3,a3,a6
80000724:	00000593          	li	a1,0
80000728:	f89ff06f          	j	800006b0 <__adddf3+0x3a4>
8000072c:	00c766b3          	or	a3,a4,a2
80000730:	00d036b3          	snez	a3,a3
80000734:	ff1ff06f          	j	80000724 <__adddf3+0x418>
80000738:	0e080863          	beqz	a6,80000828 <__adddf3+0x51c>
8000073c:	40888833          	sub	a6,a7,s0
80000740:	04041263          	bnez	s0,80000784 <__adddf3+0x478>
80000744:	00a7e5b3          	or	a1,a5,a0
80000748:	34058e63          	beqz	a1,80000aa4 <__adddf3+0x798>
8000074c:	fff80593          	addi	a1,a6,-1
80000750:	00059e63          	bnez	a1,8000076c <__adddf3+0x460>
80000754:	40a60533          	sub	a0,a2,a0
80000758:	40f70733          	sub	a4,a4,a5
8000075c:	00a63633          	sltu	a2,a2,a0
80000760:	40c707b3          	sub	a5,a4,a2
80000764:	00068493          	mv	s1,a3
80000768:	f05ff06f          	j	8000066c <__adddf3+0x360>
8000076c:	7ff00313          	li	t1,2047
80000770:	02681463          	bne	a6,t1,80000798 <__adddf3+0x48c>
80000774:	00070793          	mv	a5,a4
80000778:	00060513          	mv	a0,a2
8000077c:	7ff00413          	li	s0,2047
80000780:	0d00006f          	j	80000850 <__adddf3+0x544>
80000784:	7ff00593          	li	a1,2047
80000788:	feb886e3          	beq	a7,a1,80000774 <__adddf3+0x468>
8000078c:	008005b7          	lui	a1,0x800
80000790:	00b7e7b3          	or	a5,a5,a1
80000794:	00080593          	mv	a1,a6
80000798:	03800813          	li	a6,56
8000079c:	08b84063          	blt	a6,a1,8000081c <__adddf3+0x510>
800007a0:	01f00813          	li	a6,31
800007a4:	04b84263          	blt	a6,a1,800007e8 <__adddf3+0x4dc>
800007a8:	02000313          	li	t1,32
800007ac:	40b30333          	sub	t1,t1,a1
800007b0:	00b55e33          	srl	t3,a0,a1
800007b4:	00679833          	sll	a6,a5,t1
800007b8:	00651333          	sll	t1,a0,t1
800007bc:	01c86833          	or	a6,a6,t3
800007c0:	00603333          	snez	t1,t1
800007c4:	00686533          	or	a0,a6,t1
800007c8:	00b7d5b3          	srl	a1,a5,a1
800007cc:	40a60533          	sub	a0,a2,a0
800007d0:	40b705b3          	sub	a1,a4,a1
800007d4:	00a63633          	sltu	a2,a2,a0
800007d8:	40c587b3          	sub	a5,a1,a2
800007dc:	00088413          	mv	s0,a7
800007e0:	00068493          	mv	s1,a3
800007e4:	ee1ff06f          	j	800006c4 <__adddf3+0x3b8>
800007e8:	fe058813          	addi	a6,a1,-32 # 7fffe0 <_start-0x7f800020>
800007ec:	02000e13          	li	t3,32
800007f0:	0107d833          	srl	a6,a5,a6
800007f4:	00000313          	li	t1,0
800007f8:	01c58863          	beq	a1,t3,80000808 <__adddf3+0x4fc>
800007fc:	04000313          	li	t1,64
80000800:	40b30333          	sub	t1,t1,a1
80000804:	00679333          	sll	t1,a5,t1
80000808:	00a36333          	or	t1,t1,a0
8000080c:	00603333          	snez	t1,t1
80000810:	00686533          	or	a0,a6,t1
80000814:	00000593          	li	a1,0
80000818:	fb5ff06f          	j	800007cc <__adddf3+0x4c0>
8000081c:	00a7e533          	or	a0,a5,a0
80000820:	00a03533          	snez	a0,a0
80000824:	ff1ff06f          	j	80000814 <__adddf3+0x508>
80000828:	00140593          	addi	a1,s0,1
8000082c:	7fe5f593          	andi	a1,a1,2046
80000830:	08059863          	bnez	a1,800008c0 <__adddf3+0x5b4>
80000834:	00a7e833          	or	a6,a5,a0
80000838:	00c765b3          	or	a1,a4,a2
8000083c:	06041263          	bnez	s0,800008a0 <__adddf3+0x594>
80000840:	00081c63          	bnez	a6,80000858 <__adddf3+0x54c>
80000844:	26058863          	beqz	a1,80000ab4 <__adddf3+0x7a8>
80000848:	00070793          	mv	a5,a4
8000084c:	00060513          	mv	a0,a2
80000850:	00068493          	mv	s1,a3
80000854:	d75ff06f          	j	800005c8 <__adddf3+0x2bc>
80000858:	d60588e3          	beqz	a1,800005c8 <__adddf3+0x2bc>
8000085c:	40c50833          	sub	a6,a0,a2
80000860:	010538b3          	sltu	a7,a0,a6
80000864:	40e785b3          	sub	a1,a5,a4
80000868:	411585b3          	sub	a1,a1,a7
8000086c:	008008b7          	lui	a7,0x800
80000870:	0115f8b3          	and	a7,a1,a7
80000874:	00088c63          	beqz	a7,8000088c <__adddf3+0x580>
80000878:	40a60533          	sub	a0,a2,a0
8000087c:	40f70733          	sub	a4,a4,a5
80000880:	00a63633          	sltu	a2,a2,a0
80000884:	40c707b3          	sub	a5,a4,a2
80000888:	fc9ff06f          	j	80000850 <__adddf3+0x544>
8000088c:	00b86533          	or	a0,a6,a1
80000890:	22050a63          	beqz	a0,80000ac4 <__adddf3+0x7b8>
80000894:	00058793          	mv	a5,a1
80000898:	00080513          	mv	a0,a6
8000089c:	d2dff06f          	j	800005c8 <__adddf3+0x2bc>
800008a0:	00081c63          	bnez	a6,800008b8 <__adddf3+0x5ac>
800008a4:	22058463          	beqz	a1,80000acc <__adddf3+0x7c0>
800008a8:	00070793          	mv	a5,a4
800008ac:	00060513          	mv	a0,a2
800008b0:	00068493          	mv	s1,a3
800008b4:	afdff06f          	j	800003b0 <__adddf3+0xa4>
800008b8:	ae058ce3          	beqz	a1,800003b0 <__adddf3+0xa4>
800008bc:	d41ff06f          	j	800005fc <__adddf3+0x2f0>
800008c0:	40c509b3          	sub	s3,a0,a2
800008c4:	013535b3          	sltu	a1,a0,s3
800008c8:	40e78933          	sub	s2,a5,a4
800008cc:	40b90933          	sub	s2,s2,a1
800008d0:	008005b7          	lui	a1,0x800
800008d4:	00b975b3          	and	a1,s2,a1
800008d8:	08058463          	beqz	a1,80000960 <__adddf3+0x654>
800008dc:	40a609b3          	sub	s3,a2,a0
800008e0:	40f70933          	sub	s2,a4,a5
800008e4:	01363633          	sltu	a2,a2,s3
800008e8:	40c90933          	sub	s2,s2,a2
800008ec:	00068493          	mv	s1,a3
800008f0:	08090263          	beqz	s2,80000974 <__adddf3+0x668>
800008f4:	00090513          	mv	a0,s2
800008f8:	769020ef          	jal	ra,80003860 <__clzsi2>
800008fc:	ff850713          	addi	a4,a0,-8
80000900:	01f00793          	li	a5,31
80000904:	08e7c063          	blt	a5,a4,80000984 <__adddf3+0x678>
80000908:	02000793          	li	a5,32
8000090c:	40e787b3          	sub	a5,a5,a4
80000910:	00e91933          	sll	s2,s2,a4
80000914:	00f9d7b3          	srl	a5,s3,a5
80000918:	0127e7b3          	or	a5,a5,s2
8000091c:	00e99533          	sll	a0,s3,a4
80000920:	0a874463          	blt	a4,s0,800009c8 <__adddf3+0x6bc>
80000924:	40870733          	sub	a4,a4,s0
80000928:	00170613          	addi	a2,a4,1
8000092c:	01f00693          	li	a3,31
80000930:	06c6c263          	blt	a3,a2,80000994 <__adddf3+0x688>
80000934:	02000713          	li	a4,32
80000938:	40c70733          	sub	a4,a4,a2
8000093c:	00e796b3          	sll	a3,a5,a4
80000940:	00c555b3          	srl	a1,a0,a2
80000944:	00e51733          	sll	a4,a0,a4
80000948:	00b6e6b3          	or	a3,a3,a1
8000094c:	00e03733          	snez	a4,a4
80000950:	00e6e533          	or	a0,a3,a4
80000954:	00c7d7b3          	srl	a5,a5,a2
80000958:	00000413          	li	s0,0
8000095c:	c6dff06f          	j	800005c8 <__adddf3+0x2bc>
80000960:	0129e533          	or	a0,s3,s2
80000964:	f80516e3          	bnez	a0,800008f0 <__adddf3+0x5e4>
80000968:	00000793          	li	a5,0
8000096c:	00000413          	li	s0,0
80000970:	14c0006f          	j	80000abc <__adddf3+0x7b0>
80000974:	00098513          	mv	a0,s3
80000978:	6e9020ef          	jal	ra,80003860 <__clzsi2>
8000097c:	02050513          	addi	a0,a0,32
80000980:	f7dff06f          	j	800008fc <__adddf3+0x5f0>
80000984:	fd850793          	addi	a5,a0,-40
80000988:	00f997b3          	sll	a5,s3,a5
8000098c:	00000513          	li	a0,0
80000990:	f91ff06f          	j	80000920 <__adddf3+0x614>
80000994:	fe170713          	addi	a4,a4,-31
80000998:	02000593          	li	a1,32
8000099c:	00e7d733          	srl	a4,a5,a4
800009a0:	00000693          	li	a3,0
800009a4:	00b60863          	beq	a2,a1,800009b4 <__adddf3+0x6a8>
800009a8:	04000693          	li	a3,64
800009ac:	40c686b3          	sub	a3,a3,a2
800009b0:	00d796b3          	sll	a3,a5,a3
800009b4:	00d566b3          	or	a3,a0,a3
800009b8:	00d036b3          	snez	a3,a3
800009bc:	00d76533          	or	a0,a4,a3
800009c0:	00000793          	li	a5,0
800009c4:	f95ff06f          	j	80000958 <__adddf3+0x64c>
800009c8:	40e40433          	sub	s0,s0,a4
800009cc:	ff800737          	lui	a4,0xff800
800009d0:	fff70713          	addi	a4,a4,-1 # ff7fffff <__global_pointer$+0x7f7f55af>
800009d4:	00e7f7b3          	and	a5,a5,a4
800009d8:	bf1ff06f          	j	800005c8 <__adddf3+0x2bc>
800009dc:	00070793          	mv	a5,a4
800009e0:	00060513          	mv	a0,a2
800009e4:	00058413          	mv	s0,a1
800009e8:	be1ff06f          	j	800005c8 <__adddf3+0x2bc>
800009ec:	00070793          	mv	a5,a4
800009f0:	00060513          	mv	a0,a2
800009f4:	bd5ff06f          	j	800005c8 <__adddf3+0x2bc>
800009f8:	7ff00413          	li	s0,2047
800009fc:	00000793          	li	a5,0
80000a00:	00000513          	li	a0,0
80000a04:	00800737          	lui	a4,0x800
80000a08:	00e7f733          	and	a4,a5,a4
80000a0c:	00070e63          	beqz	a4,80000a28 <__adddf3+0x71c>
80000a10:	00140413          	addi	s0,s0,1
80000a14:	7ff00713          	li	a4,2047
80000a18:	0ce40263          	beq	s0,a4,80000adc <__adddf3+0x7d0>
80000a1c:	ff800737          	lui	a4,0xff800
80000a20:	fff70713          	addi	a4,a4,-1 # ff7fffff <__global_pointer$+0x7f7f55af>
80000a24:	00e7f7b3          	and	a5,a5,a4
80000a28:	01d79693          	slli	a3,a5,0x1d
80000a2c:	00355513          	srli	a0,a0,0x3
80000a30:	7ff00713          	li	a4,2047
80000a34:	00a6e6b3          	or	a3,a3,a0
80000a38:	0037d793          	srli	a5,a5,0x3
80000a3c:	00e41e63          	bne	s0,a4,80000a58 <__adddf3+0x74c>
80000a40:	00f6e6b3          	or	a3,a3,a5
80000a44:	00000793          	li	a5,0
80000a48:	00068863          	beqz	a3,80000a58 <__adddf3+0x74c>
80000a4c:	000807b7          	lui	a5,0x80
80000a50:	00000693          	li	a3,0
80000a54:	00000493          	li	s1,0
80000a58:	01441713          	slli	a4,s0,0x14
80000a5c:	7ff00637          	lui	a2,0x7ff00
80000a60:	00c79793          	slli	a5,a5,0xc
80000a64:	01c12083          	lw	ra,28(sp)
80000a68:	01812403          	lw	s0,24(sp)
80000a6c:	00c77733          	and	a4,a4,a2
80000a70:	00c7d793          	srli	a5,a5,0xc
80000a74:	01f49493          	slli	s1,s1,0x1f
80000a78:	00f767b3          	or	a5,a4,a5
80000a7c:	0097e733          	or	a4,a5,s1
80000a80:	01012903          	lw	s2,16(sp)
80000a84:	01412483          	lw	s1,20(sp)
80000a88:	00c12983          	lw	s3,12(sp)
80000a8c:	00068513          	mv	a0,a3
80000a90:	00070593          	mv	a1,a4
80000a94:	02010113          	addi	sp,sp,32
80000a98:	00008067          	ret
80000a9c:	00080413          	mv	s0,a6
80000aa0:	b29ff06f          	j	800005c8 <__adddf3+0x2bc>
80000aa4:	00070793          	mv	a5,a4
80000aa8:	00060513          	mv	a0,a2
80000aac:	00080413          	mv	s0,a6
80000ab0:	da1ff06f          	j	80000850 <__adddf3+0x544>
80000ab4:	00000793          	li	a5,0
80000ab8:	00000513          	li	a0,0
80000abc:	00000493          	li	s1,0
80000ac0:	f45ff06f          	j	80000a04 <__adddf3+0x6f8>
80000ac4:	00000793          	li	a5,0
80000ac8:	ff5ff06f          	j	80000abc <__adddf3+0x7b0>
80000acc:	00000513          	li	a0,0
80000ad0:	00000493          	li	s1,0
80000ad4:	004007b7          	lui	a5,0x400
80000ad8:	b31ff06f          	j	80000608 <__adddf3+0x2fc>
80000adc:	00000793          	li	a5,0
80000ae0:	00000513          	li	a0,0
80000ae4:	f45ff06f          	j	80000a28 <__adddf3+0x71c>

80000ae8 <__divdf3>:
80000ae8:	fb010113          	addi	sp,sp,-80
80000aec:	05212023          	sw	s2,64(sp)
80000af0:	0145d913          	srli	s2,a1,0x14
80000af4:	04912223          	sw	s1,68(sp)
80000af8:	03312e23          	sw	s3,60(sp)
80000afc:	03412c23          	sw	s4,56(sp)
80000b00:	03512a23          	sw	s5,52(sp)
80000b04:	03612823          	sw	s6,48(sp)
80000b08:	00c59493          	slli	s1,a1,0xc
80000b0c:	04112623          	sw	ra,76(sp)
80000b10:	04812423          	sw	s0,72(sp)
80000b14:	03712623          	sw	s7,44(sp)
80000b18:	03812423          	sw	s8,40(sp)
80000b1c:	03912223          	sw	s9,36(sp)
80000b20:	03a12023          	sw	s10,32(sp)
80000b24:	01b12e23          	sw	s11,28(sp)
80000b28:	7ff97913          	andi	s2,s2,2047
80000b2c:	00050993          	mv	s3,a0
80000b30:	00060b13          	mv	s6,a2
80000b34:	00068a93          	mv	s5,a3
80000b38:	00c4d493          	srli	s1,s1,0xc
80000b3c:	01f5da13          	srli	s4,a1,0x1f
80000b40:	0a090063          	beqz	s2,80000be0 <__divdf3+0xf8>
80000b44:	7ff00793          	li	a5,2047
80000b48:	0ef90e63          	beq	s2,a5,80000c44 <__divdf3+0x15c>
80000b4c:	01d55c93          	srli	s9,a0,0x1d
80000b50:	00349493          	slli	s1,s1,0x3
80000b54:	009cecb3          	or	s9,s9,s1
80000b58:	008007b7          	lui	a5,0x800
80000b5c:	00fcecb3          	or	s9,s9,a5
80000b60:	00351413          	slli	s0,a0,0x3
80000b64:	c0190913          	addi	s2,s2,-1023
80000b68:	00000b93          	li	s7,0
80000b6c:	014ad793          	srli	a5,s5,0x14
80000b70:	00ca9993          	slli	s3,s5,0xc
80000b74:	7ff7f793          	andi	a5,a5,2047
80000b78:	00c9d993          	srli	s3,s3,0xc
80000b7c:	01fada93          	srli	s5,s5,0x1f
80000b80:	10078063          	beqz	a5,80000c80 <__divdf3+0x198>
80000b84:	7ff00713          	li	a4,2047
80000b88:	16e78063          	beq	a5,a4,80000ce8 <__divdf3+0x200>
80000b8c:	00399993          	slli	s3,s3,0x3
80000b90:	01db5713          	srli	a4,s6,0x1d
80000b94:	01376733          	or	a4,a4,s3
80000b98:	008009b7          	lui	s3,0x800
80000b9c:	013769b3          	or	s3,a4,s3
80000ba0:	003b1813          	slli	a6,s6,0x3
80000ba4:	c0178793          	addi	a5,a5,-1023 # 7ffc01 <_start-0x7f8003ff>
80000ba8:	00000713          	li	a4,0
80000bac:	40f90933          	sub	s2,s2,a5
80000bb0:	002b9793          	slli	a5,s7,0x2
80000bb4:	00e7e7b3          	or	a5,a5,a4
80000bb8:	fff78793          	addi	a5,a5,-1
80000bbc:	00e00693          	li	a3,14
80000bc0:	015a44b3          	xor	s1,s4,s5
80000bc4:	14f6ee63          	bltu	a3,a5,80000d20 <__divdf3+0x238>
80000bc8:	800096b7          	lui	a3,0x80009
80000bcc:	00279793          	slli	a5,a5,0x2
80000bd0:	70068693          	addi	a3,a3,1792 # 80009700 <__global_pointer$+0xffffecb0>
80000bd4:	00d787b3          	add	a5,a5,a3
80000bd8:	0007a783          	lw	a5,0(a5)
80000bdc:	00078067          	jr	a5
80000be0:	00a4ecb3          	or	s9,s1,a0
80000be4:	060c8e63          	beqz	s9,80000c60 <__divdf3+0x178>
80000be8:	04048063          	beqz	s1,80000c28 <__divdf3+0x140>
80000bec:	00048513          	mv	a0,s1
80000bf0:	471020ef          	jal	ra,80003860 <__clzsi2>
80000bf4:	ff550793          	addi	a5,a0,-11
80000bf8:	01c00713          	li	a4,28
80000bfc:	02f74c63          	blt	a4,a5,80000c34 <__divdf3+0x14c>
80000c00:	01d00c93          	li	s9,29
80000c04:	ff850413          	addi	s0,a0,-8
80000c08:	40fc8cb3          	sub	s9,s9,a5
80000c0c:	008494b3          	sll	s1,s1,s0
80000c10:	0199dcb3          	srl	s9,s3,s9
80000c14:	009cecb3          	or	s9,s9,s1
80000c18:	00899433          	sll	s0,s3,s0
80000c1c:	c0d00913          	li	s2,-1011
80000c20:	40a90933          	sub	s2,s2,a0
80000c24:	f45ff06f          	j	80000b68 <__divdf3+0x80>
80000c28:	439020ef          	jal	ra,80003860 <__clzsi2>
80000c2c:	02050513          	addi	a0,a0,32
80000c30:	fc5ff06f          	j	80000bf4 <__divdf3+0x10c>
80000c34:	fd850c93          	addi	s9,a0,-40
80000c38:	01999cb3          	sll	s9,s3,s9
80000c3c:	00000413          	li	s0,0
80000c40:	fddff06f          	j	80000c1c <__divdf3+0x134>
80000c44:	00a4ecb3          	or	s9,s1,a0
80000c48:	020c8463          	beqz	s9,80000c70 <__divdf3+0x188>
80000c4c:	00050413          	mv	s0,a0
80000c50:	00048c93          	mv	s9,s1
80000c54:	7ff00913          	li	s2,2047
80000c58:	00300b93          	li	s7,3
80000c5c:	f11ff06f          	j	80000b6c <__divdf3+0x84>
80000c60:	00000413          	li	s0,0
80000c64:	00000913          	li	s2,0
80000c68:	00100b93          	li	s7,1
80000c6c:	f01ff06f          	j	80000b6c <__divdf3+0x84>
80000c70:	00000413          	li	s0,0
80000c74:	7ff00913          	li	s2,2047
80000c78:	00200b93          	li	s7,2
80000c7c:	ef1ff06f          	j	80000b6c <__divdf3+0x84>
80000c80:	0169e833          	or	a6,s3,s6
80000c84:	06080e63          	beqz	a6,80000d00 <__divdf3+0x218>
80000c88:	04098063          	beqz	s3,80000cc8 <__divdf3+0x1e0>
80000c8c:	00098513          	mv	a0,s3
80000c90:	3d1020ef          	jal	ra,80003860 <__clzsi2>
80000c94:	ff550713          	addi	a4,a0,-11
80000c98:	01c00793          	li	a5,28
80000c9c:	02e7ce63          	blt	a5,a4,80000cd8 <__divdf3+0x1f0>
80000ca0:	01d00793          	li	a5,29
80000ca4:	ff850813          	addi	a6,a0,-8
80000ca8:	40e787b3          	sub	a5,a5,a4
80000cac:	010999b3          	sll	s3,s3,a6
80000cb0:	00fb57b3          	srl	a5,s6,a5
80000cb4:	0137e9b3          	or	s3,a5,s3
80000cb8:	010b1833          	sll	a6,s6,a6
80000cbc:	c0d00793          	li	a5,-1011
80000cc0:	40a787b3          	sub	a5,a5,a0
80000cc4:	ee5ff06f          	j	80000ba8 <__divdf3+0xc0>
80000cc8:	000b0513          	mv	a0,s6
80000ccc:	395020ef          	jal	ra,80003860 <__clzsi2>
80000cd0:	02050513          	addi	a0,a0,32
80000cd4:	fc1ff06f          	j	80000c94 <__divdf3+0x1ac>
80000cd8:	fd850993          	addi	s3,a0,-40
80000cdc:	013b19b3          	sll	s3,s6,s3
80000ce0:	00000813          	li	a6,0
80000ce4:	fd9ff06f          	j	80000cbc <__divdf3+0x1d4>
80000ce8:	0169e833          	or	a6,s3,s6
80000cec:	02080263          	beqz	a6,80000d10 <__divdf3+0x228>
80000cf0:	000b0813          	mv	a6,s6
80000cf4:	7ff00793          	li	a5,2047
80000cf8:	00300713          	li	a4,3
80000cfc:	eb1ff06f          	j	80000bac <__divdf3+0xc4>
80000d00:	00000993          	li	s3,0
80000d04:	00000793          	li	a5,0
80000d08:	00100713          	li	a4,1
80000d0c:	ea1ff06f          	j	80000bac <__divdf3+0xc4>
80000d10:	00000993          	li	s3,0
80000d14:	7ff00793          	li	a5,2047
80000d18:	00200713          	li	a4,2
80000d1c:	e91ff06f          	j	80000bac <__divdf3+0xc4>
80000d20:	0199e663          	bltu	s3,s9,80000d2c <__divdf3+0x244>
80000d24:	453c9a63          	bne	s9,s3,80001178 <__divdf3+0x690>
80000d28:	45046863          	bltu	s0,a6,80001178 <__divdf3+0x690>
80000d2c:	01fc9713          	slli	a4,s9,0x1f
80000d30:	00145793          	srli	a5,s0,0x1
80000d34:	01f41d93          	slli	s11,s0,0x1f
80000d38:	001cdc93          	srli	s9,s9,0x1
80000d3c:	00f76433          	or	s0,a4,a5
80000d40:	01885a93          	srli	s5,a6,0x18
80000d44:	00899b93          	slli	s7,s3,0x8
80000d48:	017aeab3          	or	s5,s5,s7
80000d4c:	010bdb93          	srli	s7,s7,0x10
80000d50:	000b8593          	mv	a1,s7
80000d54:	010a9c13          	slli	s8,s5,0x10
80000d58:	000c8513          	mv	a0,s9
80000d5c:	00881b13          	slli	s6,a6,0x8
80000d60:	010c5c13          	srli	s8,s8,0x10
80000d64:	251020ef          	jal	ra,800037b4 <__udivsi3>
80000d68:	00050593          	mv	a1,a0
80000d6c:	00050d13          	mv	s10,a0
80000d70:	000c0513          	mv	a0,s8
80000d74:	215020ef          	jal	ra,80003788 <__mulsi3>
80000d78:	00050993          	mv	s3,a0
80000d7c:	000b8593          	mv	a1,s7
80000d80:	000c8513          	mv	a0,s9
80000d84:	279020ef          	jal	ra,800037fc <__umodsi3>
80000d88:	01051513          	slli	a0,a0,0x10
80000d8c:	01045713          	srli	a4,s0,0x10
80000d90:	00a76733          	or	a4,a4,a0
80000d94:	000d0a13          	mv	s4,s10
80000d98:	01377e63          	bgeu	a4,s3,80000db4 <__divdf3+0x2cc>
80000d9c:	01570733          	add	a4,a4,s5
80000da0:	fffd0a13          	addi	s4,s10,-1
80000da4:	01576863          	bltu	a4,s5,80000db4 <__divdf3+0x2cc>
80000da8:	01377663          	bgeu	a4,s3,80000db4 <__divdf3+0x2cc>
80000dac:	ffed0a13          	addi	s4,s10,-2
80000db0:	01570733          	add	a4,a4,s5
80000db4:	413709b3          	sub	s3,a4,s3
80000db8:	000b8593          	mv	a1,s7
80000dbc:	00098513          	mv	a0,s3
80000dc0:	1f5020ef          	jal	ra,800037b4 <__udivsi3>
80000dc4:	00050593          	mv	a1,a0
80000dc8:	00050d13          	mv	s10,a0
80000dcc:	000c0513          	mv	a0,s8
80000dd0:	1b9020ef          	jal	ra,80003788 <__mulsi3>
80000dd4:	00050c93          	mv	s9,a0
80000dd8:	000b8593          	mv	a1,s7
80000ddc:	00098513          	mv	a0,s3
80000de0:	21d020ef          	jal	ra,800037fc <__umodsi3>
80000de4:	01041413          	slli	s0,s0,0x10
80000de8:	01051513          	slli	a0,a0,0x10
80000dec:	01045413          	srli	s0,s0,0x10
80000df0:	00a46433          	or	s0,s0,a0
80000df4:	000d0793          	mv	a5,s10
80000df8:	01947e63          	bgeu	s0,s9,80000e14 <__divdf3+0x32c>
80000dfc:	01540433          	add	s0,s0,s5
80000e00:	fffd0793          	addi	a5,s10,-1
80000e04:	01546863          	bltu	s0,s5,80000e14 <__divdf3+0x32c>
80000e08:	01947663          	bgeu	s0,s9,80000e14 <__divdf3+0x32c>
80000e0c:	ffed0793          	addi	a5,s10,-2
80000e10:	01540433          	add	s0,s0,s5
80000e14:	010a1713          	slli	a4,s4,0x10
80000e18:	00010337          	lui	t1,0x10
80000e1c:	00f76733          	or	a4,a4,a5
80000e20:	41940433          	sub	s0,s0,s9
80000e24:	fff30c93          	addi	s9,t1,-1 # ffff <_start-0x7fff0001>
80000e28:	019777b3          	and	a5,a4,s9
80000e2c:	019b7cb3          	and	s9,s6,s9
80000e30:	01075e13          	srli	t3,a4,0x10
80000e34:	010b5d13          	srli	s10,s6,0x10
80000e38:	00078513          	mv	a0,a5
80000e3c:	000c8593          	mv	a1,s9
80000e40:	149020ef          	jal	ra,80003788 <__mulsi3>
80000e44:	00050813          	mv	a6,a0
80000e48:	000d0593          	mv	a1,s10
80000e4c:	00078513          	mv	a0,a5
80000e50:	139020ef          	jal	ra,80003788 <__mulsi3>
80000e54:	00050793          	mv	a5,a0
80000e58:	000c8593          	mv	a1,s9
80000e5c:	000e0513          	mv	a0,t3
80000e60:	129020ef          	jal	ra,80003788 <__mulsi3>
80000e64:	00050893          	mv	a7,a0
80000e68:	000d0593          	mv	a1,s10
80000e6c:	000e0513          	mv	a0,t3
80000e70:	119020ef          	jal	ra,80003788 <__mulsi3>
80000e74:	01085a13          	srli	s4,a6,0x10
80000e78:	011787b3          	add	a5,a5,a7
80000e7c:	00fa0a33          	add	s4,s4,a5
80000e80:	00050693          	mv	a3,a0
80000e84:	011a7463          	bgeu	s4,a7,80000e8c <__divdf3+0x3a4>
80000e88:	006506b3          	add	a3,a0,t1
80000e8c:	010a5793          	srli	a5,s4,0x10
80000e90:	00d787b3          	add	a5,a5,a3
80000e94:	000106b7          	lui	a3,0x10
80000e98:	fff68693          	addi	a3,a3,-1 # ffff <_start-0x7fff0001>
80000e9c:	00da7a33          	and	s4,s4,a3
80000ea0:	010a1a13          	slli	s4,s4,0x10
80000ea4:	00d87833          	and	a6,a6,a3
80000ea8:	010a0a33          	add	s4,s4,a6
80000eac:	00f46863          	bltu	s0,a5,80000ebc <__divdf3+0x3d4>
80000eb0:	00070993          	mv	s3,a4
80000eb4:	04f41463          	bne	s0,a5,80000efc <__divdf3+0x414>
80000eb8:	054df263          	bgeu	s11,s4,80000efc <__divdf3+0x414>
80000ebc:	016d8db3          	add	s11,s11,s6
80000ec0:	016db6b3          	sltu	a3,s11,s6
80000ec4:	015686b3          	add	a3,a3,s5
80000ec8:	00d40433          	add	s0,s0,a3
80000ecc:	fff70993          	addi	s3,a4,-1
80000ed0:	008ae663          	bltu	s5,s0,80000edc <__divdf3+0x3f4>
80000ed4:	028a9463          	bne	s5,s0,80000efc <__divdf3+0x414>
80000ed8:	036de263          	bltu	s11,s6,80000efc <__divdf3+0x414>
80000edc:	00f46663          	bltu	s0,a5,80000ee8 <__divdf3+0x400>
80000ee0:	00879e63          	bne	a5,s0,80000efc <__divdf3+0x414>
80000ee4:	014dfc63          	bgeu	s11,s4,80000efc <__divdf3+0x414>
80000ee8:	016d8db3          	add	s11,s11,s6
80000eec:	ffe70993          	addi	s3,a4,-2
80000ef0:	016db733          	sltu	a4,s11,s6
80000ef4:	01570733          	add	a4,a4,s5
80000ef8:	00e40433          	add	s0,s0,a4
80000efc:	414d8a33          	sub	s4,s11,s4
80000f00:	40f40433          	sub	s0,s0,a5
80000f04:	014db7b3          	sltu	a5,s11,s4
80000f08:	40f40433          	sub	s0,s0,a5
80000f0c:	fff00813          	li	a6,-1
80000f10:	1a8a8263          	beq	s5,s0,800010b4 <__divdf3+0x5cc>
80000f14:	000b8593          	mv	a1,s7
80000f18:	00040513          	mv	a0,s0
80000f1c:	099020ef          	jal	ra,800037b4 <__udivsi3>
80000f20:	00050593          	mv	a1,a0
80000f24:	00a12623          	sw	a0,12(sp)
80000f28:	000c0513          	mv	a0,s8
80000f2c:	05d020ef          	jal	ra,80003788 <__mulsi3>
80000f30:	00a12423          	sw	a0,8(sp)
80000f34:	000b8593          	mv	a1,s7
80000f38:	00040513          	mv	a0,s0
80000f3c:	0c1020ef          	jal	ra,800037fc <__umodsi3>
80000f40:	00c12683          	lw	a3,12(sp)
80000f44:	00812783          	lw	a5,8(sp)
80000f48:	01051513          	slli	a0,a0,0x10
80000f4c:	010a5713          	srli	a4,s4,0x10
80000f50:	00a76733          	or	a4,a4,a0
80000f54:	00068d93          	mv	s11,a3
80000f58:	00f77e63          	bgeu	a4,a5,80000f74 <__divdf3+0x48c>
80000f5c:	01570733          	add	a4,a4,s5
80000f60:	fff68d93          	addi	s11,a3,-1
80000f64:	01576863          	bltu	a4,s5,80000f74 <__divdf3+0x48c>
80000f68:	00f77663          	bgeu	a4,a5,80000f74 <__divdf3+0x48c>
80000f6c:	ffe68d93          	addi	s11,a3,-2
80000f70:	01570733          	add	a4,a4,s5
80000f74:	40f70433          	sub	s0,a4,a5
80000f78:	000b8593          	mv	a1,s7
80000f7c:	00040513          	mv	a0,s0
80000f80:	035020ef          	jal	ra,800037b4 <__udivsi3>
80000f84:	00050593          	mv	a1,a0
80000f88:	00a12423          	sw	a0,8(sp)
80000f8c:	000c0513          	mv	a0,s8
80000f90:	7f8020ef          	jal	ra,80003788 <__mulsi3>
80000f94:	00050c13          	mv	s8,a0
80000f98:	000b8593          	mv	a1,s7
80000f9c:	00040513          	mv	a0,s0
80000fa0:	05d020ef          	jal	ra,800037fc <__umodsi3>
80000fa4:	00812783          	lw	a5,8(sp)
80000fa8:	010a1713          	slli	a4,s4,0x10
80000fac:	01051513          	slli	a0,a0,0x10
80000fb0:	01075713          	srli	a4,a4,0x10
80000fb4:	00a76733          	or	a4,a4,a0
80000fb8:	00078693          	mv	a3,a5
80000fbc:	01877e63          	bgeu	a4,s8,80000fd8 <__divdf3+0x4f0>
80000fc0:	01570733          	add	a4,a4,s5
80000fc4:	fff78693          	addi	a3,a5,-1
80000fc8:	01576863          	bltu	a4,s5,80000fd8 <__divdf3+0x4f0>
80000fcc:	01877663          	bgeu	a4,s8,80000fd8 <__divdf3+0x4f0>
80000fd0:	ffe78693          	addi	a3,a5,-2
80000fd4:	01570733          	add	a4,a4,s5
80000fd8:	010d9793          	slli	a5,s11,0x10
80000fdc:	00d7e7b3          	or	a5,a5,a3
80000fe0:	01079813          	slli	a6,a5,0x10
80000fe4:	01085813          	srli	a6,a6,0x10
80000fe8:	41870733          	sub	a4,a4,s8
80000fec:	0107de13          	srli	t3,a5,0x10
80000ff0:	00080513          	mv	a0,a6
80000ff4:	000c8593          	mv	a1,s9
80000ff8:	790020ef          	jal	ra,80003788 <__mulsi3>
80000ffc:	00050893          	mv	a7,a0
80001000:	000d0593          	mv	a1,s10
80001004:	00080513          	mv	a0,a6
80001008:	780020ef          	jal	ra,80003788 <__mulsi3>
8000100c:	00050813          	mv	a6,a0
80001010:	000c8593          	mv	a1,s9
80001014:	000e0513          	mv	a0,t3
80001018:	770020ef          	jal	ra,80003788 <__mulsi3>
8000101c:	00050313          	mv	t1,a0
80001020:	000d0593          	mv	a1,s10
80001024:	000e0513          	mv	a0,t3
80001028:	760020ef          	jal	ra,80003788 <__mulsi3>
8000102c:	0108d693          	srli	a3,a7,0x10
80001030:	00680833          	add	a6,a6,t1
80001034:	010686b3          	add	a3,a3,a6
80001038:	00050593          	mv	a1,a0
8000103c:	0066f663          	bgeu	a3,t1,80001048 <__divdf3+0x560>
80001040:	00010637          	lui	a2,0x10
80001044:	00c505b3          	add	a1,a0,a2
80001048:	0106d613          	srli	a2,a3,0x10
8000104c:	00b60633          	add	a2,a2,a1
80001050:	000105b7          	lui	a1,0x10
80001054:	fff58593          	addi	a1,a1,-1 # ffff <_start-0x7fff0001>
80001058:	00b6f6b3          	and	a3,a3,a1
8000105c:	01069693          	slli	a3,a3,0x10
80001060:	00b8f8b3          	and	a7,a7,a1
80001064:	011686b3          	add	a3,a3,a7
80001068:	00c76863          	bltu	a4,a2,80001078 <__divdf3+0x590>
8000106c:	24c71a63          	bne	a4,a2,800012c0 <__divdf3+0x7d8>
80001070:	00078813          	mv	a6,a5
80001074:	04068063          	beqz	a3,800010b4 <__divdf3+0x5cc>
80001078:	00ea8733          	add	a4,s5,a4
8000107c:	fff78813          	addi	a6,a5,-1
80001080:	03576463          	bltu	a4,s5,800010a8 <__divdf3+0x5c0>
80001084:	00c76663          	bltu	a4,a2,80001090 <__divdf3+0x5a8>
80001088:	22c71a63          	bne	a4,a2,800012bc <__divdf3+0x7d4>
8000108c:	02db7063          	bgeu	s6,a3,800010ac <__divdf3+0x5c4>
80001090:	ffe78813          	addi	a6,a5,-2
80001094:	001b1793          	slli	a5,s6,0x1
80001098:	0167bb33          	sltu	s6,a5,s6
8000109c:	015b0b33          	add	s6,s6,s5
800010a0:	01670733          	add	a4,a4,s6
800010a4:	00078b13          	mv	s6,a5
800010a8:	00c71463          	bne	a4,a2,800010b0 <__divdf3+0x5c8>
800010ac:	00db0463          	beq	s6,a3,800010b4 <__divdf3+0x5cc>
800010b0:	00186813          	ori	a6,a6,1
800010b4:	3ff90793          	addi	a5,s2,1023
800010b8:	12f05063          	blez	a5,800011d8 <__divdf3+0x6f0>
800010bc:	00787713          	andi	a4,a6,7
800010c0:	02070063          	beqz	a4,800010e0 <__divdf3+0x5f8>
800010c4:	00f87713          	andi	a4,a6,15
800010c8:	00400693          	li	a3,4
800010cc:	00d70a63          	beq	a4,a3,800010e0 <__divdf3+0x5f8>
800010d0:	00480713          	addi	a4,a6,4
800010d4:	01073833          	sltu	a6,a4,a6
800010d8:	010989b3          	add	s3,s3,a6
800010dc:	00070813          	mv	a6,a4
800010e0:	01000737          	lui	a4,0x1000
800010e4:	00e9f733          	and	a4,s3,a4
800010e8:	00070a63          	beqz	a4,800010fc <__divdf3+0x614>
800010ec:	ff0007b7          	lui	a5,0xff000
800010f0:	fff78793          	addi	a5,a5,-1 # feffffff <__global_pointer$+0x7eff55af>
800010f4:	00f9f9b3          	and	s3,s3,a5
800010f8:	40090793          	addi	a5,s2,1024
800010fc:	7fe00713          	li	a4,2046
80001100:	0af74663          	blt	a4,a5,800011ac <__divdf3+0x6c4>
80001104:	00385813          	srli	a6,a6,0x3
80001108:	01d99713          	slli	a4,s3,0x1d
8000110c:	01076733          	or	a4,a4,a6
80001110:	0039d593          	srli	a1,s3,0x3
80001114:	7ff006b7          	lui	a3,0x7ff00
80001118:	01479793          	slli	a5,a5,0x14
8000111c:	00c59593          	slli	a1,a1,0xc
80001120:	04c12083          	lw	ra,76(sp)
80001124:	04812403          	lw	s0,72(sp)
80001128:	00d7f7b3          	and	a5,a5,a3
8000112c:	00c5d593          	srli	a1,a1,0xc
80001130:	00b7e7b3          	or	a5,a5,a1
80001134:	01f49493          	slli	s1,s1,0x1f
80001138:	0097e6b3          	or	a3,a5,s1
8000113c:	04012903          	lw	s2,64(sp)
80001140:	04412483          	lw	s1,68(sp)
80001144:	03c12983          	lw	s3,60(sp)
80001148:	03812a03          	lw	s4,56(sp)
8000114c:	03412a83          	lw	s5,52(sp)
80001150:	03012b03          	lw	s6,48(sp)
80001154:	02c12b83          	lw	s7,44(sp)
80001158:	02812c03          	lw	s8,40(sp)
8000115c:	02412c83          	lw	s9,36(sp)
80001160:	02012d03          	lw	s10,32(sp)
80001164:	01c12d83          	lw	s11,28(sp)
80001168:	00070513          	mv	a0,a4
8000116c:	00068593          	mv	a1,a3
80001170:	05010113          	addi	sp,sp,80
80001174:	00008067          	ret
80001178:	fff90913          	addi	s2,s2,-1
8000117c:	00000d93          	li	s11,0
80001180:	bc1ff06f          	j	80000d40 <__divdf3+0x258>
80001184:	000a0493          	mv	s1,s4
80001188:	000c8993          	mv	s3,s9
8000118c:	00040813          	mv	a6,s0
80001190:	000b8713          	mv	a4,s7
80001194:	00300793          	li	a5,3
80001198:	10f70063          	beq	a4,a5,80001298 <__divdf3+0x7b0>
8000119c:	00100793          	li	a5,1
800011a0:	0ef70663          	beq	a4,a5,8000128c <__divdf3+0x7a4>
800011a4:	00200793          	li	a5,2
800011a8:	f0f716e3          	bne	a4,a5,800010b4 <__divdf3+0x5cc>
800011ac:	00000593          	li	a1,0
800011b0:	00000713          	li	a4,0
800011b4:	7ff00793          	li	a5,2047
800011b8:	f5dff06f          	j	80001114 <__divdf3+0x62c>
800011bc:	000a8493          	mv	s1,s5
800011c0:	fd5ff06f          	j	80001194 <__divdf3+0x6ac>
800011c4:	000809b7          	lui	s3,0x80
800011c8:	00000813          	li	a6,0
800011cc:	00000493          	li	s1,0
800011d0:	00300713          	li	a4,3
800011d4:	fc1ff06f          	j	80001194 <__divdf3+0x6ac>
800011d8:	00100593          	li	a1,1
800011dc:	40f585b3          	sub	a1,a1,a5
800011e0:	03800713          	li	a4,56
800011e4:	0ab74463          	blt	a4,a1,8000128c <__divdf3+0x7a4>
800011e8:	01f00713          	li	a4,31
800011ec:	06b74663          	blt	a4,a1,80001258 <__divdf3+0x770>
800011f0:	41e90913          	addi	s2,s2,1054
800011f4:	012997b3          	sll	a5,s3,s2
800011f8:	00b85733          	srl	a4,a6,a1
800011fc:	01281933          	sll	s2,a6,s2
80001200:	00e7e7b3          	or	a5,a5,a4
80001204:	01203933          	snez	s2,s2
80001208:	0127e7b3          	or	a5,a5,s2
8000120c:	00b9d5b3          	srl	a1,s3,a1
80001210:	0077f713          	andi	a4,a5,7
80001214:	02070063          	beqz	a4,80001234 <__divdf3+0x74c>
80001218:	00f7f713          	andi	a4,a5,15
8000121c:	00400693          	li	a3,4
80001220:	00d70a63          	beq	a4,a3,80001234 <__divdf3+0x74c>
80001224:	00478713          	addi	a4,a5,4
80001228:	00f737b3          	sltu	a5,a4,a5
8000122c:	00f585b3          	add	a1,a1,a5
80001230:	00070793          	mv	a5,a4
80001234:	00800737          	lui	a4,0x800
80001238:	00e5f733          	and	a4,a1,a4
8000123c:	06071863          	bnez	a4,800012ac <__divdf3+0x7c4>
80001240:	01d59713          	slli	a4,a1,0x1d
80001244:	0037d793          	srli	a5,a5,0x3
80001248:	00f76733          	or	a4,a4,a5
8000124c:	0035d593          	srli	a1,a1,0x3
80001250:	00000793          	li	a5,0
80001254:	ec1ff06f          	j	80001114 <__divdf3+0x62c>
80001258:	fe100713          	li	a4,-31
8000125c:	40f707b3          	sub	a5,a4,a5
80001260:	02000693          	li	a3,32
80001264:	00f9d7b3          	srl	a5,s3,a5
80001268:	00000713          	li	a4,0
8000126c:	00d58663          	beq	a1,a3,80001278 <__divdf3+0x790>
80001270:	43e90713          	addi	a4,s2,1086
80001274:	00e99733          	sll	a4,s3,a4
80001278:	01076733          	or	a4,a4,a6
8000127c:	00e03733          	snez	a4,a4
80001280:	00e7e7b3          	or	a5,a5,a4
80001284:	00000593          	li	a1,0
80001288:	f89ff06f          	j	80001210 <__divdf3+0x728>
8000128c:	00000593          	li	a1,0
80001290:	00000713          	li	a4,0
80001294:	fbdff06f          	j	80001250 <__divdf3+0x768>
80001298:	000805b7          	lui	a1,0x80
8000129c:	00000713          	li	a4,0
800012a0:	7ff00793          	li	a5,2047
800012a4:	00000493          	li	s1,0
800012a8:	e6dff06f          	j	80001114 <__divdf3+0x62c>
800012ac:	00000593          	li	a1,0
800012b0:	00000713          	li	a4,0
800012b4:	00100793          	li	a5,1
800012b8:	e5dff06f          	j	80001114 <__divdf3+0x62c>
800012bc:	00080793          	mv	a5,a6
800012c0:	00078813          	mv	a6,a5
800012c4:	dedff06f          	j	800010b0 <__divdf3+0x5c8>

800012c8 <__gedf2>:
800012c8:	00100737          	lui	a4,0x100
800012cc:	fff70713          	addi	a4,a4,-1 # fffff <_start-0x7ff00001>
800012d0:	0145d813          	srli	a6,a1,0x14
800012d4:	00b778b3          	and	a7,a4,a1
800012d8:	00050793          	mv	a5,a0
800012dc:	00050313          	mv	t1,a0
800012e0:	7ff87813          	andi	a6,a6,2047
800012e4:	01f5d513          	srli	a0,a1,0x1f
800012e8:	7ff00e93          	li	t4,2047
800012ec:	0146d593          	srli	a1,a3,0x14
800012f0:	00d77733          	and	a4,a4,a3
800012f4:	00060e13          	mv	t3,a2
800012f8:	7ff5f593          	andi	a1,a1,2047
800012fc:	01f6d693          	srli	a3,a3,0x1f
80001300:	01d81a63          	bne	a6,t4,80001314 <__gedf2+0x4c>
80001304:	00f8eeb3          	or	t4,a7,a5
80001308:	080e8a63          	beqz	t4,8000139c <__gedf2+0xd4>
8000130c:	ffe00513          	li	a0,-2
80001310:	00008067          	ret
80001314:	01d59663          	bne	a1,t4,80001320 <__gedf2+0x58>
80001318:	00c76eb3          	or	t4,a4,a2
8000131c:	fe0e98e3          	bnez	t4,8000130c <__gedf2+0x44>
80001320:	08081063          	bnez	a6,800013a0 <__gedf2+0xd8>
80001324:	00f8e7b3          	or	a5,a7,a5
80001328:	0017b793          	seqz	a5,a5
8000132c:	00059663          	bnez	a1,80001338 <__gedf2+0x70>
80001330:	00c76633          	or	a2,a4,a2
80001334:	04060c63          	beqz	a2,8000138c <__gedf2+0xc4>
80001338:	00079c63          	bnez	a5,80001350 <__gedf2+0x88>
8000133c:	00d51463          	bne	a0,a3,80001344 <__gedf2+0x7c>
80001340:	0305d063          	bge	a1,a6,80001360 <__gedf2+0x98>
80001344:	04050063          	beqz	a0,80001384 <__gedf2+0xbc>
80001348:	fff00513          	li	a0,-1
8000134c:	00008067          	ret
80001350:	fff00513          	li	a0,-1
80001354:	00068a63          	beqz	a3,80001368 <__gedf2+0xa0>
80001358:	00068513          	mv	a0,a3
8000135c:	00008067          	ret
80001360:	00b85663          	bge	a6,a1,8000136c <__gedf2+0xa4>
80001364:	fe0502e3          	beqz	a0,80001348 <__gedf2+0x80>
80001368:	00008067          	ret
8000136c:	fd176ce3          	bltu	a4,a7,80001344 <__gedf2+0x7c>
80001370:	02e89263          	bne	a7,a4,80001394 <__gedf2+0xcc>
80001374:	fc6e68e3          	bltu	t3,t1,80001344 <__gedf2+0x7c>
80001378:	ffc366e3          	bltu	t1,t3,80001364 <__gedf2+0x9c>
8000137c:	00000513          	li	a0,0
80001380:	00008067          	ret
80001384:	00100513          	li	a0,1
80001388:	00008067          	ret
8000138c:	fe0798e3          	bnez	a5,8000137c <__gedf2+0xb4>
80001390:	fb5ff06f          	j	80001344 <__gedf2+0x7c>
80001394:	fce8e8e3          	bltu	a7,a4,80001364 <__gedf2+0x9c>
80001398:	fe5ff06f          	j	8000137c <__gedf2+0xb4>
8000139c:	f7058ee3          	beq	a1,a6,80001318 <__gedf2+0x50>
800013a0:	f8059ee3          	bnez	a1,8000133c <__gedf2+0x74>
800013a4:	00000793          	li	a5,0
800013a8:	f89ff06f          	j	80001330 <__gedf2+0x68>

800013ac <__muldf3>:
800013ac:	fd010113          	addi	sp,sp,-48
800013b0:	01312e23          	sw	s3,28(sp)
800013b4:	0145d993          	srli	s3,a1,0x14
800013b8:	02812423          	sw	s0,40(sp)
800013bc:	02912223          	sw	s1,36(sp)
800013c0:	01412c23          	sw	s4,24(sp)
800013c4:	01512a23          	sw	s5,20(sp)
800013c8:	01712623          	sw	s7,12(sp)
800013cc:	00c59493          	slli	s1,a1,0xc
800013d0:	02112623          	sw	ra,44(sp)
800013d4:	03212023          	sw	s2,32(sp)
800013d8:	01612823          	sw	s6,16(sp)
800013dc:	7ff9f993          	andi	s3,s3,2047
800013e0:	00050413          	mv	s0,a0
800013e4:	00060b93          	mv	s7,a2
800013e8:	00068a13          	mv	s4,a3
800013ec:	00c4d493          	srli	s1,s1,0xc
800013f0:	01f5da93          	srli	s5,a1,0x1f
800013f4:	3c098863          	beqz	s3,800017c4 <__muldf3+0x418>
800013f8:	7ff00793          	li	a5,2047
800013fc:	42f98663          	beq	s3,a5,80001828 <__muldf3+0x47c>
80001400:	00349493          	slli	s1,s1,0x3
80001404:	01d55793          	srli	a5,a0,0x1d
80001408:	0097e7b3          	or	a5,a5,s1
8000140c:	008004b7          	lui	s1,0x800
80001410:	0097e4b3          	or	s1,a5,s1
80001414:	00351913          	slli	s2,a0,0x3
80001418:	c0198993          	addi	s3,s3,-1023 # 7fc01 <_start-0x7ff803ff>
8000141c:	00000b13          	li	s6,0
80001420:	014a5713          	srli	a4,s4,0x14
80001424:	00ca1413          	slli	s0,s4,0xc
80001428:	7ff77713          	andi	a4,a4,2047
8000142c:	00c45413          	srli	s0,s0,0xc
80001430:	01fa5a13          	srli	s4,s4,0x1f
80001434:	42070663          	beqz	a4,80001860 <__muldf3+0x4b4>
80001438:	7ff00793          	li	a5,2047
8000143c:	48f70663          	beq	a4,a5,800018c8 <__muldf3+0x51c>
80001440:	00341413          	slli	s0,s0,0x3
80001444:	01dbd793          	srli	a5,s7,0x1d
80001448:	0087e7b3          	or	a5,a5,s0
8000144c:	00800437          	lui	s0,0x800
80001450:	0087e433          	or	s0,a5,s0
80001454:	c0170713          	addi	a4,a4,-1023
80001458:	003b9793          	slli	a5,s7,0x3
8000145c:	00000613          	li	a2,0
80001460:	00e989b3          	add	s3,s3,a4
80001464:	002b1713          	slli	a4,s6,0x2
80001468:	00c76733          	or	a4,a4,a2
8000146c:	00a00693          	li	a3,10
80001470:	014ac833          	xor	a6,s5,s4
80001474:	00198893          	addi	a7,s3,1
80001478:	4ce6c863          	blt	a3,a4,80001948 <__muldf3+0x59c>
8000147c:	00200693          	li	a3,2
80001480:	48e6c063          	blt	a3,a4,80001900 <__muldf3+0x554>
80001484:	fff70713          	addi	a4,a4,-1
80001488:	00100693          	li	a3,1
8000148c:	48e6fc63          	bgeu	a3,a4,80001924 <__muldf3+0x578>
80001490:	00010a37          	lui	s4,0x10
80001494:	fffa0393          	addi	t2,s4,-1 # ffff <_start-0x7fff0001>
80001498:	0107d293          	srli	t0,a5,0x10
8000149c:	00797e33          	and	t3,s2,t2
800014a0:	0077f7b3          	and	a5,a5,t2
800014a4:	01095f93          	srli	t6,s2,0x10
800014a8:	000e0513          	mv	a0,t3
800014ac:	00078593          	mv	a1,a5
800014b0:	2d8020ef          	jal	ra,80003788 <__mulsi3>
800014b4:	00050e93          	mv	t4,a0
800014b8:	00028593          	mv	a1,t0
800014bc:	000e0513          	mv	a0,t3
800014c0:	2c8020ef          	jal	ra,80003788 <__mulsi3>
800014c4:	00050713          	mv	a4,a0
800014c8:	00078593          	mv	a1,a5
800014cc:	000f8513          	mv	a0,t6
800014d0:	2b8020ef          	jal	ra,80003788 <__mulsi3>
800014d4:	00050913          	mv	s2,a0
800014d8:	00028593          	mv	a1,t0
800014dc:	000f8513          	mv	a0,t6
800014e0:	2a8020ef          	jal	ra,80003788 <__mulsi3>
800014e4:	010ed313          	srli	t1,t4,0x10
800014e8:	01270733          	add	a4,a4,s2
800014ec:	00e30333          	add	t1,t1,a4
800014f0:	00050f13          	mv	t5,a0
800014f4:	01237463          	bgeu	t1,s2,800014fc <__muldf3+0x150>
800014f8:	01450f33          	add	t5,a0,s4
800014fc:	01035913          	srli	s2,t1,0x10
80001500:	00737333          	and	t1,t1,t2
80001504:	007efeb3          	and	t4,t4,t2
80001508:	01031313          	slli	t1,t1,0x10
8000150c:	007473b3          	and	t2,s0,t2
80001510:	01d30333          	add	t1,t1,t4
80001514:	01045a13          	srli	s4,s0,0x10
80001518:	000e0513          	mv	a0,t3
8000151c:	00038593          	mv	a1,t2
80001520:	268020ef          	jal	ra,80003788 <__mulsi3>
80001524:	00050e93          	mv	t4,a0
80001528:	000a0593          	mv	a1,s4
8000152c:	000e0513          	mv	a0,t3
80001530:	258020ef          	jal	ra,80003788 <__mulsi3>
80001534:	00050e13          	mv	t3,a0
80001538:	00038593          	mv	a1,t2
8000153c:	000f8513          	mv	a0,t6
80001540:	248020ef          	jal	ra,80003788 <__mulsi3>
80001544:	00050413          	mv	s0,a0
80001548:	000a0593          	mv	a1,s4
8000154c:	000f8513          	mv	a0,t6
80001550:	238020ef          	jal	ra,80003788 <__mulsi3>
80001554:	010ed713          	srli	a4,t4,0x10
80001558:	008e0e33          	add	t3,t3,s0
8000155c:	01c70733          	add	a4,a4,t3
80001560:	00050693          	mv	a3,a0
80001564:	00877663          	bgeu	a4,s0,80001570 <__muldf3+0x1c4>
80001568:	00010637          	lui	a2,0x10
8000156c:	00c506b3          	add	a3,a0,a2
80001570:	00010b37          	lui	s6,0x10
80001574:	fffb0e13          	addi	t3,s6,-1 # ffff <_start-0x7fff0001>
80001578:	01075f93          	srli	t6,a4,0x10
8000157c:	01c77733          	and	a4,a4,t3
80001580:	01071713          	slli	a4,a4,0x10
80001584:	01cefeb3          	and	t4,t4,t3
80001588:	01d70eb3          	add	t4,a4,t4
8000158c:	01c4fe33          	and	t3,s1,t3
80001590:	00df8fb3          	add	t6,t6,a3
80001594:	01d90933          	add	s2,s2,t4
80001598:	0104da93          	srli	s5,s1,0x10
8000159c:	000e0513          	mv	a0,t3
800015a0:	00078593          	mv	a1,a5
800015a4:	1e4020ef          	jal	ra,80003788 <__mulsi3>
800015a8:	00050413          	mv	s0,a0
800015ac:	00028593          	mv	a1,t0
800015b0:	000e0513          	mv	a0,t3
800015b4:	1d4020ef          	jal	ra,80003788 <__mulsi3>
800015b8:	00050493          	mv	s1,a0
800015bc:	00078593          	mv	a1,a5
800015c0:	000a8513          	mv	a0,s5
800015c4:	1c4020ef          	jal	ra,80003788 <__mulsi3>
800015c8:	00050b93          	mv	s7,a0
800015cc:	00028593          	mv	a1,t0
800015d0:	000a8513          	mv	a0,s5
800015d4:	1b4020ef          	jal	ra,80003788 <__mulsi3>
800015d8:	01045793          	srli	a5,s0,0x10
800015dc:	017484b3          	add	s1,s1,s7
800015e0:	009787b3          	add	a5,a5,s1
800015e4:	00050713          	mv	a4,a0
800015e8:	0177f463          	bgeu	a5,s7,800015f0 <__muldf3+0x244>
800015ec:	01650733          	add	a4,a0,s6
800015f0:	000104b7          	lui	s1,0x10
800015f4:	fff48693          	addi	a3,s1,-1 # ffff <_start-0x7fff0001>
800015f8:	0107d293          	srli	t0,a5,0x10
800015fc:	00e282b3          	add	t0,t0,a4
80001600:	00d7f733          	and	a4,a5,a3
80001604:	00d47433          	and	s0,s0,a3
80001608:	01071713          	slli	a4,a4,0x10
8000160c:	00870733          	add	a4,a4,s0
80001610:	000e0513          	mv	a0,t3
80001614:	00038593          	mv	a1,t2
80001618:	170020ef          	jal	ra,80003788 <__mulsi3>
8000161c:	00050413          	mv	s0,a0
80001620:	000a0593          	mv	a1,s4
80001624:	000e0513          	mv	a0,t3
80001628:	160020ef          	jal	ra,80003788 <__mulsi3>
8000162c:	00050e13          	mv	t3,a0
80001630:	00038593          	mv	a1,t2
80001634:	000a8513          	mv	a0,s5
80001638:	150020ef          	jal	ra,80003788 <__mulsi3>
8000163c:	00050393          	mv	t2,a0
80001640:	000a0593          	mv	a1,s4
80001644:	000a8513          	mv	a0,s5
80001648:	140020ef          	jal	ra,80003788 <__mulsi3>
8000164c:	01045793          	srli	a5,s0,0x10
80001650:	007e0e33          	add	t3,t3,t2
80001654:	01c78e33          	add	t3,a5,t3
80001658:	00050593          	mv	a1,a0
8000165c:	007e7463          	bgeu	t3,t2,80001664 <__muldf3+0x2b8>
80001660:	009505b3          	add	a1,a0,s1
80001664:	000106b7          	lui	a3,0x10
80001668:	fff68693          	addi	a3,a3,-1 # ffff <_start-0x7fff0001>
8000166c:	00de77b3          	and	a5,t3,a3
80001670:	00d47433          	and	s0,s0,a3
80001674:	01079793          	slli	a5,a5,0x10
80001678:	012f0f33          	add	t5,t5,s2
8000167c:	008787b3          	add	a5,a5,s0
80001680:	01df3eb3          	sltu	t4,t5,t4
80001684:	01f787b3          	add	a5,a5,t6
80001688:	01d78533          	add	a0,a5,t4
8000168c:	00ef0f33          	add	t5,t5,a4
80001690:	00ef3733          	sltu	a4,t5,a4
80001694:	005506b3          	add	a3,a0,t0
80001698:	00e68633          	add	a2,a3,a4
8000169c:	01f7b433          	sltu	s0,a5,t6
800016a0:	01d53533          	sltu	a0,a0,t4
800016a4:	010e5793          	srli	a5,t3,0x10
800016a8:	00e63733          	sltu	a4,a2,a4
800016ac:	00a46433          	or	s0,s0,a0
800016b0:	0056b6b3          	sltu	a3,a3,t0
800016b4:	00f40433          	add	s0,s0,a5
800016b8:	00e6e6b3          	or	a3,a3,a4
800016bc:	00d40433          	add	s0,s0,a3
800016c0:	00b40433          	add	s0,s0,a1
800016c4:	01765793          	srli	a5,a2,0x17
800016c8:	00941413          	slli	s0,s0,0x9
800016cc:	00f46433          	or	s0,s0,a5
800016d0:	009f1793          	slli	a5,t5,0x9
800016d4:	0067e7b3          	or	a5,a5,t1
800016d8:	00f037b3          	snez	a5,a5
800016dc:	017f5f13          	srli	t5,t5,0x17
800016e0:	00961713          	slli	a4,a2,0x9
800016e4:	01e7e7b3          	or	a5,a5,t5
800016e8:	00e7e7b3          	or	a5,a5,a4
800016ec:	01000737          	lui	a4,0x1000
800016f0:	00e47733          	and	a4,s0,a4
800016f4:	28070663          	beqz	a4,80001980 <__muldf3+0x5d4>
800016f8:	0017d713          	srli	a4,a5,0x1
800016fc:	0017f793          	andi	a5,a5,1
80001700:	00f76733          	or	a4,a4,a5
80001704:	01f41793          	slli	a5,s0,0x1f
80001708:	00f767b3          	or	a5,a4,a5
8000170c:	00145413          	srli	s0,s0,0x1
80001710:	3ff88693          	addi	a3,a7,1023 # 8003ff <_start-0x7f7ffc01>
80001714:	26d05a63          	blez	a3,80001988 <__muldf3+0x5dc>
80001718:	0077f713          	andi	a4,a5,7
8000171c:	02070063          	beqz	a4,8000173c <__muldf3+0x390>
80001720:	00f7f713          	andi	a4,a5,15
80001724:	00400613          	li	a2,4
80001728:	00c70a63          	beq	a4,a2,8000173c <__muldf3+0x390>
8000172c:	00478713          	addi	a4,a5,4
80001730:	00f737b3          	sltu	a5,a4,a5
80001734:	00f40433          	add	s0,s0,a5
80001738:	00070793          	mv	a5,a4
8000173c:	01000737          	lui	a4,0x1000
80001740:	00e47733          	and	a4,s0,a4
80001744:	00070a63          	beqz	a4,80001758 <__muldf3+0x3ac>
80001748:	ff000737          	lui	a4,0xff000
8000174c:	fff70713          	addi	a4,a4,-1 # feffffff <__global_pointer$+0x7eff55af>
80001750:	00e47433          	and	s0,s0,a4
80001754:	40088693          	addi	a3,a7,1024
80001758:	7fe00713          	li	a4,2046
8000175c:	2ed74e63          	blt	a4,a3,80001a58 <__muldf3+0x6ac>
80001760:	01d41713          	slli	a4,s0,0x1d
80001764:	0037d793          	srli	a5,a5,0x3
80001768:	00f76733          	or	a4,a4,a5
8000176c:	00345413          	srli	s0,s0,0x3
80001770:	7ff007b7          	lui	a5,0x7ff00
80001774:	01469693          	slli	a3,a3,0x14
80001778:	00c41413          	slli	s0,s0,0xc
8000177c:	00f6f6b3          	and	a3,a3,a5
80001780:	00c45413          	srli	s0,s0,0xc
80001784:	02c12083          	lw	ra,44(sp)
80001788:	0086e6b3          	or	a3,a3,s0
8000178c:	02812403          	lw	s0,40(sp)
80001790:	01f81813          	slli	a6,a6,0x1f
80001794:	0106e7b3          	or	a5,a3,a6
80001798:	02412483          	lw	s1,36(sp)
8000179c:	02012903          	lw	s2,32(sp)
800017a0:	01c12983          	lw	s3,28(sp)
800017a4:	01812a03          	lw	s4,24(sp)
800017a8:	01412a83          	lw	s5,20(sp)
800017ac:	01012b03          	lw	s6,16(sp)
800017b0:	00c12b83          	lw	s7,12(sp)
800017b4:	00070513          	mv	a0,a4
800017b8:	00078593          	mv	a1,a5
800017bc:	03010113          	addi	sp,sp,48
800017c0:	00008067          	ret
800017c4:	00a4e933          	or	s2,s1,a0
800017c8:	06090c63          	beqz	s2,80001840 <__muldf3+0x494>
800017cc:	04048063          	beqz	s1,8000180c <__muldf3+0x460>
800017d0:	00048513          	mv	a0,s1
800017d4:	08c020ef          	jal	ra,80003860 <__clzsi2>
800017d8:	ff550713          	addi	a4,a0,-11
800017dc:	01c00793          	li	a5,28
800017e0:	02e7cc63          	blt	a5,a4,80001818 <__muldf3+0x46c>
800017e4:	01d00793          	li	a5,29
800017e8:	ff850913          	addi	s2,a0,-8
800017ec:	40e787b3          	sub	a5,a5,a4
800017f0:	012494b3          	sll	s1,s1,s2
800017f4:	00f457b3          	srl	a5,s0,a5
800017f8:	0097e4b3          	or	s1,a5,s1
800017fc:	01241933          	sll	s2,s0,s2
80001800:	c0d00993          	li	s3,-1011
80001804:	40a989b3          	sub	s3,s3,a0
80001808:	c15ff06f          	j	8000141c <__muldf3+0x70>
8000180c:	054020ef          	jal	ra,80003860 <__clzsi2>
80001810:	02050513          	addi	a0,a0,32
80001814:	fc5ff06f          	j	800017d8 <__muldf3+0x42c>
80001818:	fd850493          	addi	s1,a0,-40
8000181c:	009414b3          	sll	s1,s0,s1
80001820:	00000913          	li	s2,0
80001824:	fddff06f          	j	80001800 <__muldf3+0x454>
80001828:	00a4e933          	or	s2,s1,a0
8000182c:	02090263          	beqz	s2,80001850 <__muldf3+0x4a4>
80001830:	00050913          	mv	s2,a0
80001834:	7ff00993          	li	s3,2047
80001838:	00300b13          	li	s6,3
8000183c:	be5ff06f          	j	80001420 <__muldf3+0x74>
80001840:	00000493          	li	s1,0
80001844:	00000993          	li	s3,0
80001848:	00100b13          	li	s6,1
8000184c:	bd5ff06f          	j	80001420 <__muldf3+0x74>
80001850:	00000493          	li	s1,0
80001854:	7ff00993          	li	s3,2047
80001858:	00200b13          	li	s6,2
8000185c:	bc5ff06f          	j	80001420 <__muldf3+0x74>
80001860:	017467b3          	or	a5,s0,s7
80001864:	06078e63          	beqz	a5,800018e0 <__muldf3+0x534>
80001868:	04040063          	beqz	s0,800018a8 <__muldf3+0x4fc>
8000186c:	00040513          	mv	a0,s0
80001870:	7f1010ef          	jal	ra,80003860 <__clzsi2>
80001874:	ff550693          	addi	a3,a0,-11
80001878:	01c00793          	li	a5,28
8000187c:	02d7ce63          	blt	a5,a3,800018b8 <__muldf3+0x50c>
80001880:	01d00713          	li	a4,29
80001884:	ff850793          	addi	a5,a0,-8
80001888:	40d70733          	sub	a4,a4,a3
8000188c:	00f41433          	sll	s0,s0,a5
80001890:	00ebd733          	srl	a4,s7,a4
80001894:	00876433          	or	s0,a4,s0
80001898:	00fb97b3          	sll	a5,s7,a5
8000189c:	c0d00713          	li	a4,-1011
800018a0:	40a70733          	sub	a4,a4,a0
800018a4:	bb9ff06f          	j	8000145c <__muldf3+0xb0>
800018a8:	000b8513          	mv	a0,s7
800018ac:	7b5010ef          	jal	ra,80003860 <__clzsi2>
800018b0:	02050513          	addi	a0,a0,32
800018b4:	fc1ff06f          	j	80001874 <__muldf3+0x4c8>
800018b8:	fd850413          	addi	s0,a0,-40
800018bc:	008b9433          	sll	s0,s7,s0
800018c0:	00000793          	li	a5,0
800018c4:	fd9ff06f          	j	8000189c <__muldf3+0x4f0>
800018c8:	017467b3          	or	a5,s0,s7
800018cc:	02078263          	beqz	a5,800018f0 <__muldf3+0x544>
800018d0:	000b8793          	mv	a5,s7
800018d4:	7ff00713          	li	a4,2047
800018d8:	00300613          	li	a2,3
800018dc:	b85ff06f          	j	80001460 <__muldf3+0xb4>
800018e0:	00000413          	li	s0,0
800018e4:	00000713          	li	a4,0
800018e8:	00100613          	li	a2,1
800018ec:	b75ff06f          	j	80001460 <__muldf3+0xb4>
800018f0:	00000413          	li	s0,0
800018f4:	7ff00713          	li	a4,2047
800018f8:	00200613          	li	a2,2
800018fc:	b65ff06f          	j	80001460 <__muldf3+0xb4>
80001900:	00100693          	li	a3,1
80001904:	00e696b3          	sll	a3,a3,a4
80001908:	5306f713          	andi	a4,a3,1328
8000190c:	04071863          	bnez	a4,8000195c <__muldf3+0x5b0>
80001910:	2406f593          	andi	a1,a3,576
80001914:	12059463          	bnez	a1,80001a3c <__muldf3+0x690>
80001918:	0886f693          	andi	a3,a3,136
8000191c:	b6068ae3          	beqz	a3,80001490 <__muldf3+0xe4>
80001920:	000a0813          	mv	a6,s4
80001924:	00200713          	li	a4,2
80001928:	12e60863          	beq	a2,a4,80001a58 <__muldf3+0x6ac>
8000192c:	00300713          	li	a4,3
80001930:	10e60e63          	beq	a2,a4,80001a4c <__muldf3+0x6a0>
80001934:	00100713          	li	a4,1
80001938:	dce61ce3          	bne	a2,a4,80001710 <__muldf3+0x364>
8000193c:	00000413          	li	s0,0
80001940:	00000713          	li	a4,0
80001944:	0bc0006f          	j	80001a00 <__muldf3+0x654>
80001948:	00f00693          	li	a3,15
8000194c:	02d70063          	beq	a4,a3,8000196c <__muldf3+0x5c0>
80001950:	00b00693          	li	a3,11
80001954:	fcd706e3          	beq	a4,a3,80001920 <__muldf3+0x574>
80001958:	000a8813          	mv	a6,s5
8000195c:	00048413          	mv	s0,s1
80001960:	00090793          	mv	a5,s2
80001964:	000b0613          	mv	a2,s6
80001968:	fbdff06f          	j	80001924 <__muldf3+0x578>
8000196c:	00080437          	lui	s0,0x80
80001970:	00000793          	li	a5,0
80001974:	00000813          	li	a6,0
80001978:	00300613          	li	a2,3
8000197c:	fb1ff06f          	j	8000192c <__muldf3+0x580>
80001980:	00098893          	mv	a7,s3
80001984:	d8dff06f          	j	80001710 <__muldf3+0x364>
80001988:	00100613          	li	a2,1
8000198c:	40d60633          	sub	a2,a2,a3
80001990:	03800713          	li	a4,56
80001994:	fac744e3          	blt	a4,a2,8000193c <__muldf3+0x590>
80001998:	01f00713          	li	a4,31
8000199c:	06c74663          	blt	a4,a2,80001a08 <__muldf3+0x65c>
800019a0:	41e88893          	addi	a7,a7,1054
800019a4:	01141733          	sll	a4,s0,a7
800019a8:	00c7d6b3          	srl	a3,a5,a2
800019ac:	011798b3          	sll	a7,a5,a7
800019b0:	00d76733          	or	a4,a4,a3
800019b4:	011038b3          	snez	a7,a7
800019b8:	011767b3          	or	a5,a4,a7
800019bc:	00c45433          	srl	s0,s0,a2
800019c0:	0077f713          	andi	a4,a5,7
800019c4:	02070063          	beqz	a4,800019e4 <__muldf3+0x638>
800019c8:	00f7f713          	andi	a4,a5,15
800019cc:	00400693          	li	a3,4
800019d0:	00d70a63          	beq	a4,a3,800019e4 <__muldf3+0x638>
800019d4:	00478713          	addi	a4,a5,4 # 7ff00004 <_start-0xffffc>
800019d8:	00f737b3          	sltu	a5,a4,a5
800019dc:	00f40433          	add	s0,s0,a5
800019e0:	00070793          	mv	a5,a4
800019e4:	00800737          	lui	a4,0x800
800019e8:	00e47733          	and	a4,s0,a4
800019ec:	06071e63          	bnez	a4,80001a68 <__muldf3+0x6bc>
800019f0:	01d41713          	slli	a4,s0,0x1d
800019f4:	0037d793          	srli	a5,a5,0x3
800019f8:	00f76733          	or	a4,a4,a5
800019fc:	00345413          	srli	s0,s0,0x3
80001a00:	00000693          	li	a3,0
80001a04:	d6dff06f          	j	80001770 <__muldf3+0x3c4>
80001a08:	fe100713          	li	a4,-31
80001a0c:	40d70733          	sub	a4,a4,a3
80001a10:	02000593          	li	a1,32
80001a14:	00e45733          	srl	a4,s0,a4
80001a18:	00000693          	li	a3,0
80001a1c:	00b60663          	beq	a2,a1,80001a28 <__muldf3+0x67c>
80001a20:	43e88893          	addi	a7,a7,1086
80001a24:	011416b3          	sll	a3,s0,a7
80001a28:	00f6e6b3          	or	a3,a3,a5
80001a2c:	00d036b3          	snez	a3,a3
80001a30:	00d767b3          	or	a5,a4,a3
80001a34:	00000413          	li	s0,0
80001a38:	f89ff06f          	j	800019c0 <__muldf3+0x614>
80001a3c:	00080437          	lui	s0,0x80
80001a40:	7ff00693          	li	a3,2047
80001a44:	00000813          	li	a6,0
80001a48:	d29ff06f          	j	80001770 <__muldf3+0x3c4>
80001a4c:	00080437          	lui	s0,0x80
80001a50:	00000713          	li	a4,0
80001a54:	fedff06f          	j	80001a40 <__muldf3+0x694>
80001a58:	00000413          	li	s0,0
80001a5c:	00000713          	li	a4,0
80001a60:	7ff00693          	li	a3,2047
80001a64:	d0dff06f          	j	80001770 <__muldf3+0x3c4>
80001a68:	00000413          	li	s0,0
80001a6c:	00000713          	li	a4,0
80001a70:	00100693          	li	a3,1
80001a74:	cfdff06f          	j	80001770 <__muldf3+0x3c4>

80001a78 <__subdf3>:
80001a78:	00100837          	lui	a6,0x100
80001a7c:	fff80813          	addi	a6,a6,-1 # fffff <_start-0x7ff00001>
80001a80:	fe010113          	addi	sp,sp,-32
80001a84:	00b878b3          	and	a7,a6,a1
80001a88:	0145d713          	srli	a4,a1,0x14
80001a8c:	01d55793          	srli	a5,a0,0x1d
80001a90:	00d87833          	and	a6,a6,a3
80001a94:	00812c23          	sw	s0,24(sp)
80001a98:	7ff77413          	andi	s0,a4,2047
80001a9c:	00389713          	slli	a4,a7,0x3
80001aa0:	0146d893          	srli	a7,a3,0x14
80001aa4:	00912a23          	sw	s1,20(sp)
80001aa8:	00e7e7b3          	or	a5,a5,a4
80001aac:	01f5d493          	srli	s1,a1,0x1f
80001ab0:	01d65713          	srli	a4,a2,0x1d
80001ab4:	00381813          	slli	a6,a6,0x3
80001ab8:	00112e23          	sw	ra,28(sp)
80001abc:	01212823          	sw	s2,16(sp)
80001ac0:	01312623          	sw	s3,12(sp)
80001ac4:	7ff8f893          	andi	a7,a7,2047
80001ac8:	7ff00593          	li	a1,2047
80001acc:	00351513          	slli	a0,a0,0x3
80001ad0:	01f6d693          	srli	a3,a3,0x1f
80001ad4:	01076733          	or	a4,a4,a6
80001ad8:	00361613          	slli	a2,a2,0x3
80001adc:	00b89663          	bne	a7,a1,80001ae8 <__subdf3+0x70>
80001ae0:	00c765b3          	or	a1,a4,a2
80001ae4:	00059463          	bnez	a1,80001aec <__subdf3+0x74>
80001ae8:	0016c693          	xori	a3,a3,1
80001aec:	41140833          	sub	a6,s0,a7
80001af0:	2c969863          	bne	a3,s1,80001dc0 <__subdf3+0x348>
80001af4:	13005063          	blez	a6,80001c14 <__subdf3+0x19c>
80001af8:	04089063          	bnez	a7,80001b38 <__subdf3+0xc0>
80001afc:	00c766b3          	or	a3,a4,a2
80001b00:	70068e63          	beqz	a3,8000221c <__subdf3+0x7a4>
80001b04:	fff80593          	addi	a1,a6,-1
80001b08:	02059063          	bnez	a1,80001b28 <__subdf3+0xb0>
80001b0c:	00c50633          	add	a2,a0,a2
80001b10:	00e78733          	add	a4,a5,a4
80001b14:	00a637b3          	sltu	a5,a2,a0
80001b18:	00f707b3          	add	a5,a4,a5
80001b1c:	00060513          	mv	a0,a2
80001b20:	00100413          	li	s0,1
80001b24:	0700006f          	j	80001b94 <__subdf3+0x11c>
80001b28:	7ff00693          	li	a3,2047
80001b2c:	02d81063          	bne	a6,a3,80001b4c <__subdf3+0xd4>
80001b30:	7ff00413          	li	s0,2047
80001b34:	2140006f          	j	80001d48 <__subdf3+0x2d0>
80001b38:	7ff00693          	li	a3,2047
80001b3c:	20d40663          	beq	s0,a3,80001d48 <__subdf3+0x2d0>
80001b40:	008006b7          	lui	a3,0x800
80001b44:	00d76733          	or	a4,a4,a3
80001b48:	00080593          	mv	a1,a6
80001b4c:	03800693          	li	a3,56
80001b50:	0ab6cc63          	blt	a3,a1,80001c08 <__subdf3+0x190>
80001b54:	01f00693          	li	a3,31
80001b58:	06b6ce63          	blt	a3,a1,80001bd4 <__subdf3+0x15c>
80001b5c:	02000813          	li	a6,32
80001b60:	40b80833          	sub	a6,a6,a1
80001b64:	010716b3          	sll	a3,a4,a6
80001b68:	00b658b3          	srl	a7,a2,a1
80001b6c:	01061833          	sll	a6,a2,a6
80001b70:	0116e6b3          	or	a3,a3,a7
80001b74:	01003833          	snez	a6,a6
80001b78:	0106e6b3          	or	a3,a3,a6
80001b7c:	00b755b3          	srl	a1,a4,a1
80001b80:	00a686b3          	add	a3,a3,a0
80001b84:	00f585b3          	add	a1,a1,a5
80001b88:	00a6b7b3          	sltu	a5,a3,a0
80001b8c:	00f587b3          	add	a5,a1,a5
80001b90:	00068513          	mv	a0,a3
80001b94:	00800737          	lui	a4,0x800
80001b98:	00e7f733          	and	a4,a5,a4
80001b9c:	1a070663          	beqz	a4,80001d48 <__subdf3+0x2d0>
80001ba0:	00140413          	addi	s0,s0,1 # 80001 <_start-0x7ff7ffff>
80001ba4:	7ff00713          	li	a4,2047
80001ba8:	5ce40a63          	beq	s0,a4,8000217c <__subdf3+0x704>
80001bac:	ff800737          	lui	a4,0xff800
80001bb0:	fff70713          	addi	a4,a4,-1 # ff7fffff <__global_pointer$+0x7f7f55af>
80001bb4:	00e7f7b3          	and	a5,a5,a4
80001bb8:	00155713          	srli	a4,a0,0x1
80001bbc:	00157513          	andi	a0,a0,1
80001bc0:	00a76733          	or	a4,a4,a0
80001bc4:	01f79513          	slli	a0,a5,0x1f
80001bc8:	00e56533          	or	a0,a0,a4
80001bcc:	0017d793          	srli	a5,a5,0x1
80001bd0:	1780006f          	j	80001d48 <__subdf3+0x2d0>
80001bd4:	fe058693          	addi	a3,a1,-32 # 7ffe0 <_start-0x7ff80020>
80001bd8:	02000893          	li	a7,32
80001bdc:	00d756b3          	srl	a3,a4,a3
80001be0:	00000813          	li	a6,0
80001be4:	01158863          	beq	a1,a7,80001bf4 <__subdf3+0x17c>
80001be8:	04000813          	li	a6,64
80001bec:	40b80833          	sub	a6,a6,a1
80001bf0:	01071833          	sll	a6,a4,a6
80001bf4:	00c86833          	or	a6,a6,a2
80001bf8:	01003833          	snez	a6,a6
80001bfc:	0106e6b3          	or	a3,a3,a6
80001c00:	00000593          	li	a1,0
80001c04:	f7dff06f          	j	80001b80 <__subdf3+0x108>
80001c08:	00c766b3          	or	a3,a4,a2
80001c0c:	00d036b3          	snez	a3,a3
80001c10:	ff1ff06f          	j	80001c00 <__subdf3+0x188>
80001c14:	0e080263          	beqz	a6,80001cf8 <__subdf3+0x280>
80001c18:	408885b3          	sub	a1,a7,s0
80001c1c:	02041e63          	bnez	s0,80001c58 <__subdf3+0x1e0>
80001c20:	00a7e6b3          	or	a3,a5,a0
80001c24:	52068c63          	beqz	a3,8000215c <__subdf3+0x6e4>
80001c28:	fff58693          	addi	a3,a1,-1
80001c2c:	00069c63          	bnez	a3,80001c44 <__subdf3+0x1cc>
80001c30:	00c50533          	add	a0,a0,a2
80001c34:	00e78733          	add	a4,a5,a4
80001c38:	00c53633          	sltu	a2,a0,a2
80001c3c:	00c707b3          	add	a5,a4,a2
80001c40:	ee1ff06f          	j	80001b20 <__subdf3+0xa8>
80001c44:	7ff00813          	li	a6,2047
80001c48:	03059263          	bne	a1,a6,80001c6c <__subdf3+0x1f4>
80001c4c:	00070793          	mv	a5,a4
80001c50:	00060513          	mv	a0,a2
80001c54:	eddff06f          	j	80001b30 <__subdf3+0xb8>
80001c58:	7ff00693          	li	a3,2047
80001c5c:	fed888e3          	beq	a7,a3,80001c4c <__subdf3+0x1d4>
80001c60:	008006b7          	lui	a3,0x800
80001c64:	00d7e7b3          	or	a5,a5,a3
80001c68:	00058693          	mv	a3,a1
80001c6c:	03800593          	li	a1,56
80001c70:	06d5ce63          	blt	a1,a3,80001cec <__subdf3+0x274>
80001c74:	01f00593          	li	a1,31
80001c78:	04d5c063          	blt	a1,a3,80001cb8 <__subdf3+0x240>
80001c7c:	02000813          	li	a6,32
80001c80:	40d80833          	sub	a6,a6,a3
80001c84:	010795b3          	sll	a1,a5,a6
80001c88:	00d55333          	srl	t1,a0,a3
80001c8c:	01051833          	sll	a6,a0,a6
80001c90:	0065e5b3          	or	a1,a1,t1
80001c94:	01003833          	snez	a6,a6
80001c98:	0105e5b3          	or	a1,a1,a6
80001c9c:	00d7d6b3          	srl	a3,a5,a3
80001ca0:	00c58533          	add	a0,a1,a2
80001ca4:	00e686b3          	add	a3,a3,a4
80001ca8:	00c53633          	sltu	a2,a0,a2
80001cac:	00c687b3          	add	a5,a3,a2
80001cb0:	00088413          	mv	s0,a7
80001cb4:	ee1ff06f          	j	80001b94 <__subdf3+0x11c>
80001cb8:	fe068593          	addi	a1,a3,-32 # 7fffe0 <_start-0x7f800020>
80001cbc:	02000313          	li	t1,32
80001cc0:	00b7d5b3          	srl	a1,a5,a1
80001cc4:	00000813          	li	a6,0
80001cc8:	00668863          	beq	a3,t1,80001cd8 <__subdf3+0x260>
80001ccc:	04000813          	li	a6,64
80001cd0:	40d80833          	sub	a6,a6,a3
80001cd4:	01079833          	sll	a6,a5,a6
80001cd8:	00a86833          	or	a6,a6,a0
80001cdc:	01003833          	snez	a6,a6
80001ce0:	0105e5b3          	or	a1,a1,a6
80001ce4:	00000693          	li	a3,0
80001ce8:	fb9ff06f          	j	80001ca0 <__subdf3+0x228>
80001cec:	00a7e5b3          	or	a1,a5,a0
80001cf0:	00b035b3          	snez	a1,a1
80001cf4:	ff1ff06f          	j	80001ce4 <__subdf3+0x26c>
80001cf8:	00140693          	addi	a3,s0,1
80001cfc:	7fe6f593          	andi	a1,a3,2046
80001d00:	08059863          	bnez	a1,80001d90 <__subdf3+0x318>
80001d04:	00a7e6b3          	or	a3,a5,a0
80001d08:	06041463          	bnez	s0,80001d70 <__subdf3+0x2f8>
80001d0c:	46068063          	beqz	a3,8000216c <__subdf3+0x6f4>
80001d10:	00c766b3          	or	a3,a4,a2
80001d14:	02068a63          	beqz	a3,80001d48 <__subdf3+0x2d0>
80001d18:	00c50633          	add	a2,a0,a2
80001d1c:	00e78733          	add	a4,a5,a4
80001d20:	00a637b3          	sltu	a5,a2,a0
80001d24:	00f707b3          	add	a5,a4,a5
80001d28:	00800737          	lui	a4,0x800
80001d2c:	00e7f733          	and	a4,a5,a4
80001d30:	00060513          	mv	a0,a2
80001d34:	00070a63          	beqz	a4,80001d48 <__subdf3+0x2d0>
80001d38:	ff800737          	lui	a4,0xff800
80001d3c:	fff70713          	addi	a4,a4,-1 # ff7fffff <__global_pointer$+0x7f7f55af>
80001d40:	00e7f7b3          	and	a5,a5,a4
80001d44:	00100413          	li	s0,1
80001d48:	00757713          	andi	a4,a0,7
80001d4c:	42070c63          	beqz	a4,80002184 <__subdf3+0x70c>
80001d50:	00f57713          	andi	a4,a0,15
80001d54:	00400693          	li	a3,4
80001d58:	42d70663          	beq	a4,a3,80002184 <__subdf3+0x70c>
80001d5c:	00450713          	addi	a4,a0,4
80001d60:	00a73533          	sltu	a0,a4,a0
80001d64:	00a787b3          	add	a5,a5,a0
80001d68:	00070513          	mv	a0,a4
80001d6c:	4180006f          	j	80002184 <__subdf3+0x70c>
80001d70:	ec068ee3          	beqz	a3,80001c4c <__subdf3+0x1d4>
80001d74:	00c76733          	or	a4,a4,a2
80001d78:	da070ce3          	beqz	a4,80001b30 <__subdf3+0xb8>
80001d7c:	00000493          	li	s1,0
80001d80:	004007b7          	lui	a5,0x400
80001d84:	00000513          	li	a0,0
80001d88:	7ff00413          	li	s0,2047
80001d8c:	3f80006f          	j	80002184 <__subdf3+0x70c>
80001d90:	7ff00593          	li	a1,2047
80001d94:	3eb68263          	beq	a3,a1,80002178 <__subdf3+0x700>
80001d98:	00c50633          	add	a2,a0,a2
80001d9c:	00a63533          	sltu	a0,a2,a0
80001da0:	00e78733          	add	a4,a5,a4
80001da4:	00a70733          	add	a4,a4,a0
80001da8:	01f71513          	slli	a0,a4,0x1f
80001dac:	00165613          	srli	a2,a2,0x1
80001db0:	00c56533          	or	a0,a0,a2
80001db4:	00175793          	srli	a5,a4,0x1
80001db8:	00068413          	mv	s0,a3
80001dbc:	f8dff06f          	j	80001d48 <__subdf3+0x2d0>
80001dc0:	0f005c63          	blez	a6,80001eb8 <__subdf3+0x440>
80001dc4:	08089e63          	bnez	a7,80001e60 <__subdf3+0x3e8>
80001dc8:	00c766b3          	or	a3,a4,a2
80001dcc:	44068863          	beqz	a3,8000221c <__subdf3+0x7a4>
80001dd0:	fff80593          	addi	a1,a6,-1
80001dd4:	02059063          	bnez	a1,80001df4 <__subdf3+0x37c>
80001dd8:	40c50633          	sub	a2,a0,a2
80001ddc:	40e78733          	sub	a4,a5,a4
80001de0:	00c537b3          	sltu	a5,a0,a2
80001de4:	40f707b3          	sub	a5,a4,a5
80001de8:	00060513          	mv	a0,a2
80001dec:	00100413          	li	s0,1
80001df0:	0540006f          	j	80001e44 <__subdf3+0x3cc>
80001df4:	7ff00693          	li	a3,2047
80001df8:	d2d80ce3          	beq	a6,a3,80001b30 <__subdf3+0xb8>
80001dfc:	03800693          	li	a3,56
80001e00:	0ab6c663          	blt	a3,a1,80001eac <__subdf3+0x434>
80001e04:	01f00693          	li	a3,31
80001e08:	06b6c863          	blt	a3,a1,80001e78 <__subdf3+0x400>
80001e0c:	02000813          	li	a6,32
80001e10:	40b80833          	sub	a6,a6,a1
80001e14:	010716b3          	sll	a3,a4,a6
80001e18:	00b658b3          	srl	a7,a2,a1
80001e1c:	01061833          	sll	a6,a2,a6
80001e20:	0116e6b3          	or	a3,a3,a7
80001e24:	01003833          	snez	a6,a6
80001e28:	0106e6b3          	or	a3,a3,a6
80001e2c:	00b755b3          	srl	a1,a4,a1
80001e30:	40d506b3          	sub	a3,a0,a3
80001e34:	40b785b3          	sub	a1,a5,a1
80001e38:	00d537b3          	sltu	a5,a0,a3
80001e3c:	40f587b3          	sub	a5,a1,a5
80001e40:	00068513          	mv	a0,a3
80001e44:	00800937          	lui	s2,0x800
80001e48:	0127f733          	and	a4,a5,s2
80001e4c:	ee070ee3          	beqz	a4,80001d48 <__subdf3+0x2d0>
80001e50:	fff90913          	addi	s2,s2,-1 # 7fffff <_start-0x7f800001>
80001e54:	0127f933          	and	s2,a5,s2
80001e58:	00050993          	mv	s3,a0
80001e5c:	2140006f          	j	80002070 <__subdf3+0x5f8>
80001e60:	7ff00693          	li	a3,2047
80001e64:	eed402e3          	beq	s0,a3,80001d48 <__subdf3+0x2d0>
80001e68:	008006b7          	lui	a3,0x800
80001e6c:	00d76733          	or	a4,a4,a3
80001e70:	00080593          	mv	a1,a6
80001e74:	f89ff06f          	j	80001dfc <__subdf3+0x384>
80001e78:	fe058693          	addi	a3,a1,-32
80001e7c:	02000893          	li	a7,32
80001e80:	00d756b3          	srl	a3,a4,a3
80001e84:	00000813          	li	a6,0
80001e88:	01158863          	beq	a1,a7,80001e98 <__subdf3+0x420>
80001e8c:	04000813          	li	a6,64
80001e90:	40b80833          	sub	a6,a6,a1
80001e94:	01071833          	sll	a6,a4,a6
80001e98:	00c86833          	or	a6,a6,a2
80001e9c:	01003833          	snez	a6,a6
80001ea0:	0106e6b3          	or	a3,a3,a6
80001ea4:	00000593          	li	a1,0
80001ea8:	f89ff06f          	j	80001e30 <__subdf3+0x3b8>
80001eac:	00c766b3          	or	a3,a4,a2
80001eb0:	00d036b3          	snez	a3,a3
80001eb4:	ff1ff06f          	j	80001ea4 <__subdf3+0x42c>
80001eb8:	0e080863          	beqz	a6,80001fa8 <__subdf3+0x530>
80001ebc:	40888833          	sub	a6,a7,s0
80001ec0:	04041263          	bnez	s0,80001f04 <__subdf3+0x48c>
80001ec4:	00a7e5b3          	or	a1,a5,a0
80001ec8:	34058e63          	beqz	a1,80002224 <__subdf3+0x7ac>
80001ecc:	fff80593          	addi	a1,a6,-1
80001ed0:	00059e63          	bnez	a1,80001eec <__subdf3+0x474>
80001ed4:	40a60533          	sub	a0,a2,a0
80001ed8:	40f70733          	sub	a4,a4,a5
80001edc:	00a63633          	sltu	a2,a2,a0
80001ee0:	40c707b3          	sub	a5,a4,a2
80001ee4:	00068493          	mv	s1,a3
80001ee8:	f05ff06f          	j	80001dec <__subdf3+0x374>
80001eec:	7ff00313          	li	t1,2047
80001ef0:	02681463          	bne	a6,t1,80001f18 <__subdf3+0x4a0>
80001ef4:	00070793          	mv	a5,a4
80001ef8:	00060513          	mv	a0,a2
80001efc:	7ff00413          	li	s0,2047
80001f00:	0d00006f          	j	80001fd0 <__subdf3+0x558>
80001f04:	7ff00593          	li	a1,2047
80001f08:	feb886e3          	beq	a7,a1,80001ef4 <__subdf3+0x47c>
80001f0c:	008005b7          	lui	a1,0x800
80001f10:	00b7e7b3          	or	a5,a5,a1
80001f14:	00080593          	mv	a1,a6
80001f18:	03800813          	li	a6,56
80001f1c:	08b84063          	blt	a6,a1,80001f9c <__subdf3+0x524>
80001f20:	01f00813          	li	a6,31
80001f24:	04b84263          	blt	a6,a1,80001f68 <__subdf3+0x4f0>
80001f28:	02000313          	li	t1,32
80001f2c:	40b30333          	sub	t1,t1,a1
80001f30:	00b55e33          	srl	t3,a0,a1
80001f34:	00679833          	sll	a6,a5,t1
80001f38:	00651333          	sll	t1,a0,t1
80001f3c:	01c86833          	or	a6,a6,t3
80001f40:	00603333          	snez	t1,t1
80001f44:	00686533          	or	a0,a6,t1
80001f48:	00b7d5b3          	srl	a1,a5,a1
80001f4c:	40a60533          	sub	a0,a2,a0
80001f50:	40b705b3          	sub	a1,a4,a1
80001f54:	00a63633          	sltu	a2,a2,a0
80001f58:	40c587b3          	sub	a5,a1,a2
80001f5c:	00088413          	mv	s0,a7
80001f60:	00068493          	mv	s1,a3
80001f64:	ee1ff06f          	j	80001e44 <__subdf3+0x3cc>
80001f68:	fe058813          	addi	a6,a1,-32 # 7fffe0 <_start-0x7f800020>
80001f6c:	02000e13          	li	t3,32
80001f70:	0107d833          	srl	a6,a5,a6
80001f74:	00000313          	li	t1,0
80001f78:	01c58863          	beq	a1,t3,80001f88 <__subdf3+0x510>
80001f7c:	04000313          	li	t1,64
80001f80:	40b30333          	sub	t1,t1,a1
80001f84:	00679333          	sll	t1,a5,t1
80001f88:	00a36333          	or	t1,t1,a0
80001f8c:	00603333          	snez	t1,t1
80001f90:	00686533          	or	a0,a6,t1
80001f94:	00000593          	li	a1,0
80001f98:	fb5ff06f          	j	80001f4c <__subdf3+0x4d4>
80001f9c:	00a7e533          	or	a0,a5,a0
80001fa0:	00a03533          	snez	a0,a0
80001fa4:	ff1ff06f          	j	80001f94 <__subdf3+0x51c>
80001fa8:	00140593          	addi	a1,s0,1
80001fac:	7fe5f593          	andi	a1,a1,2046
80001fb0:	08059863          	bnez	a1,80002040 <__subdf3+0x5c8>
80001fb4:	00c765b3          	or	a1,a4,a2
80001fb8:	00a7e833          	or	a6,a5,a0
80001fbc:	06041263          	bnez	s0,80002020 <__subdf3+0x5a8>
80001fc0:	00081c63          	bnez	a6,80001fd8 <__subdf3+0x560>
80001fc4:	26058863          	beqz	a1,80002234 <__subdf3+0x7bc>
80001fc8:	00070793          	mv	a5,a4
80001fcc:	00060513          	mv	a0,a2
80001fd0:	00068493          	mv	s1,a3
80001fd4:	d75ff06f          	j	80001d48 <__subdf3+0x2d0>
80001fd8:	d60588e3          	beqz	a1,80001d48 <__subdf3+0x2d0>
80001fdc:	40c50833          	sub	a6,a0,a2
80001fe0:	010538b3          	sltu	a7,a0,a6
80001fe4:	40e785b3          	sub	a1,a5,a4
80001fe8:	411585b3          	sub	a1,a1,a7
80001fec:	008008b7          	lui	a7,0x800
80001ff0:	0115f8b3          	and	a7,a1,a7
80001ff4:	00088c63          	beqz	a7,8000200c <__subdf3+0x594>
80001ff8:	40a60533          	sub	a0,a2,a0
80001ffc:	40f70733          	sub	a4,a4,a5
80002000:	00a63633          	sltu	a2,a2,a0
80002004:	40c707b3          	sub	a5,a4,a2
80002008:	fc9ff06f          	j	80001fd0 <__subdf3+0x558>
8000200c:	00b86533          	or	a0,a6,a1
80002010:	22050a63          	beqz	a0,80002244 <__subdf3+0x7cc>
80002014:	00058793          	mv	a5,a1
80002018:	00080513          	mv	a0,a6
8000201c:	d2dff06f          	j	80001d48 <__subdf3+0x2d0>
80002020:	00081c63          	bnez	a6,80002038 <__subdf3+0x5c0>
80002024:	22058463          	beqz	a1,8000224c <__subdf3+0x7d4>
80002028:	00070793          	mv	a5,a4
8000202c:	00060513          	mv	a0,a2
80002030:	00068493          	mv	s1,a3
80002034:	afdff06f          	j	80001b30 <__subdf3+0xb8>
80002038:	ae058ce3          	beqz	a1,80001b30 <__subdf3+0xb8>
8000203c:	d41ff06f          	j	80001d7c <__subdf3+0x304>
80002040:	40c509b3          	sub	s3,a0,a2
80002044:	013535b3          	sltu	a1,a0,s3
80002048:	40e78933          	sub	s2,a5,a4
8000204c:	40b90933          	sub	s2,s2,a1
80002050:	008005b7          	lui	a1,0x800
80002054:	00b975b3          	and	a1,s2,a1
80002058:	08058463          	beqz	a1,800020e0 <__subdf3+0x668>
8000205c:	40a609b3          	sub	s3,a2,a0
80002060:	40f70933          	sub	s2,a4,a5
80002064:	01363633          	sltu	a2,a2,s3
80002068:	40c90933          	sub	s2,s2,a2
8000206c:	00068493          	mv	s1,a3
80002070:	08090263          	beqz	s2,800020f4 <__subdf3+0x67c>
80002074:	00090513          	mv	a0,s2
80002078:	7e8010ef          	jal	ra,80003860 <__clzsi2>
8000207c:	ff850713          	addi	a4,a0,-8
80002080:	01f00793          	li	a5,31
80002084:	08e7c063          	blt	a5,a4,80002104 <__subdf3+0x68c>
80002088:	02000793          	li	a5,32
8000208c:	40e787b3          	sub	a5,a5,a4
80002090:	00e91933          	sll	s2,s2,a4
80002094:	00f9d7b3          	srl	a5,s3,a5
80002098:	0127e7b3          	or	a5,a5,s2
8000209c:	00e99533          	sll	a0,s3,a4
800020a0:	0a874463          	blt	a4,s0,80002148 <__subdf3+0x6d0>
800020a4:	40870733          	sub	a4,a4,s0
800020a8:	00170613          	addi	a2,a4,1
800020ac:	01f00693          	li	a3,31
800020b0:	06c6c263          	blt	a3,a2,80002114 <__subdf3+0x69c>
800020b4:	02000713          	li	a4,32
800020b8:	40c70733          	sub	a4,a4,a2
800020bc:	00e796b3          	sll	a3,a5,a4
800020c0:	00c555b3          	srl	a1,a0,a2
800020c4:	00e51733          	sll	a4,a0,a4
800020c8:	00b6e6b3          	or	a3,a3,a1
800020cc:	00e03733          	snez	a4,a4
800020d0:	00e6e533          	or	a0,a3,a4
800020d4:	00c7d7b3          	srl	a5,a5,a2
800020d8:	00000413          	li	s0,0
800020dc:	c6dff06f          	j	80001d48 <__subdf3+0x2d0>
800020e0:	0129e533          	or	a0,s3,s2
800020e4:	f80516e3          	bnez	a0,80002070 <__subdf3+0x5f8>
800020e8:	00000793          	li	a5,0
800020ec:	00000413          	li	s0,0
800020f0:	14c0006f          	j	8000223c <__subdf3+0x7c4>
800020f4:	00098513          	mv	a0,s3
800020f8:	768010ef          	jal	ra,80003860 <__clzsi2>
800020fc:	02050513          	addi	a0,a0,32
80002100:	f7dff06f          	j	8000207c <__subdf3+0x604>
80002104:	fd850793          	addi	a5,a0,-40
80002108:	00f997b3          	sll	a5,s3,a5
8000210c:	00000513          	li	a0,0
80002110:	f91ff06f          	j	800020a0 <__subdf3+0x628>
80002114:	fe170713          	addi	a4,a4,-31
80002118:	02000593          	li	a1,32
8000211c:	00e7d733          	srl	a4,a5,a4
80002120:	00000693          	li	a3,0
80002124:	00b60863          	beq	a2,a1,80002134 <__subdf3+0x6bc>
80002128:	04000693          	li	a3,64
8000212c:	40c686b3          	sub	a3,a3,a2
80002130:	00d796b3          	sll	a3,a5,a3
80002134:	00d566b3          	or	a3,a0,a3
80002138:	00d036b3          	snez	a3,a3
8000213c:	00d76533          	or	a0,a4,a3
80002140:	00000793          	li	a5,0
80002144:	f95ff06f          	j	800020d8 <__subdf3+0x660>
80002148:	40e40433          	sub	s0,s0,a4
8000214c:	ff800737          	lui	a4,0xff800
80002150:	fff70713          	addi	a4,a4,-1 # ff7fffff <__global_pointer$+0x7f7f55af>
80002154:	00e7f7b3          	and	a5,a5,a4
80002158:	bf1ff06f          	j	80001d48 <__subdf3+0x2d0>
8000215c:	00070793          	mv	a5,a4
80002160:	00060513          	mv	a0,a2
80002164:	00058413          	mv	s0,a1
80002168:	be1ff06f          	j	80001d48 <__subdf3+0x2d0>
8000216c:	00070793          	mv	a5,a4
80002170:	00060513          	mv	a0,a2
80002174:	bd5ff06f          	j	80001d48 <__subdf3+0x2d0>
80002178:	7ff00413          	li	s0,2047
8000217c:	00000793          	li	a5,0
80002180:	00000513          	li	a0,0
80002184:	00800737          	lui	a4,0x800
80002188:	00e7f733          	and	a4,a5,a4
8000218c:	00070e63          	beqz	a4,800021a8 <__subdf3+0x730>
80002190:	00140413          	addi	s0,s0,1
80002194:	7ff00713          	li	a4,2047
80002198:	0ce40263          	beq	s0,a4,8000225c <__subdf3+0x7e4>
8000219c:	ff800737          	lui	a4,0xff800
800021a0:	fff70713          	addi	a4,a4,-1 # ff7fffff <__global_pointer$+0x7f7f55af>
800021a4:	00e7f7b3          	and	a5,a5,a4
800021a8:	01d79693          	slli	a3,a5,0x1d
800021ac:	00355513          	srli	a0,a0,0x3
800021b0:	7ff00713          	li	a4,2047
800021b4:	00a6e6b3          	or	a3,a3,a0
800021b8:	0037d793          	srli	a5,a5,0x3
800021bc:	00e41e63          	bne	s0,a4,800021d8 <__subdf3+0x760>
800021c0:	00f6e6b3          	or	a3,a3,a5
800021c4:	00000793          	li	a5,0
800021c8:	00068863          	beqz	a3,800021d8 <__subdf3+0x760>
800021cc:	000807b7          	lui	a5,0x80
800021d0:	00000693          	li	a3,0
800021d4:	00000493          	li	s1,0
800021d8:	01441713          	slli	a4,s0,0x14
800021dc:	7ff00637          	lui	a2,0x7ff00
800021e0:	00c79793          	slli	a5,a5,0xc
800021e4:	01c12083          	lw	ra,28(sp)
800021e8:	01812403          	lw	s0,24(sp)
800021ec:	00c77733          	and	a4,a4,a2
800021f0:	00c7d793          	srli	a5,a5,0xc
800021f4:	01f49493          	slli	s1,s1,0x1f
800021f8:	00f767b3          	or	a5,a4,a5
800021fc:	0097e733          	or	a4,a5,s1
80002200:	01012903          	lw	s2,16(sp)
80002204:	01412483          	lw	s1,20(sp)
80002208:	00c12983          	lw	s3,12(sp)
8000220c:	00068513          	mv	a0,a3
80002210:	00070593          	mv	a1,a4
80002214:	02010113          	addi	sp,sp,32
80002218:	00008067          	ret
8000221c:	00080413          	mv	s0,a6
80002220:	b29ff06f          	j	80001d48 <__subdf3+0x2d0>
80002224:	00070793          	mv	a5,a4
80002228:	00060513          	mv	a0,a2
8000222c:	00080413          	mv	s0,a6
80002230:	da1ff06f          	j	80001fd0 <__subdf3+0x558>
80002234:	00000793          	li	a5,0
80002238:	00000513          	li	a0,0
8000223c:	00000493          	li	s1,0
80002240:	f45ff06f          	j	80002184 <__subdf3+0x70c>
80002244:	00000793          	li	a5,0
80002248:	ff5ff06f          	j	8000223c <__subdf3+0x7c4>
8000224c:	00000513          	li	a0,0
80002250:	00000493          	li	s1,0
80002254:	004007b7          	lui	a5,0x400
80002258:	b31ff06f          	j	80001d88 <__subdf3+0x310>
8000225c:	00000793          	li	a5,0
80002260:	00000513          	li	a0,0
80002264:	f45ff06f          	j	800021a8 <__subdf3+0x730>

80002268 <__fixdfsi>:
80002268:	0145d713          	srli	a4,a1,0x14
8000226c:	001006b7          	lui	a3,0x100
80002270:	fff68793          	addi	a5,a3,-1 # fffff <_start-0x7ff00001>
80002274:	7ff77713          	andi	a4,a4,2047
80002278:	3fe00613          	li	a2,1022
8000227c:	00b7f7b3          	and	a5,a5,a1
80002280:	01f5d593          	srli	a1,a1,0x1f
80002284:	04e65e63          	bge	a2,a4,800022e0 <__fixdfsi+0x78>
80002288:	41d00613          	li	a2,1053
8000228c:	00e65a63          	bge	a2,a4,800022a0 <__fixdfsi+0x38>
80002290:	80000537          	lui	a0,0x80000
80002294:	fff54513          	not	a0,a0
80002298:	00a58533          	add	a0,a1,a0
8000229c:	00008067          	ret
800022a0:	00d7e7b3          	or	a5,a5,a3
800022a4:	43300693          	li	a3,1075
800022a8:	40e686b3          	sub	a3,a3,a4
800022ac:	01f00613          	li	a2,31
800022b0:	02d64063          	blt	a2,a3,800022d0 <__fixdfsi+0x68>
800022b4:	bed70713          	addi	a4,a4,-1043
800022b8:	00e797b3          	sll	a5,a5,a4
800022bc:	00d55533          	srl	a0,a0,a3
800022c0:	00a7e533          	or	a0,a5,a0
800022c4:	02058063          	beqz	a1,800022e4 <__fixdfsi+0x7c>
800022c8:	40a00533          	neg	a0,a0
800022cc:	00008067          	ret
800022d0:	41300693          	li	a3,1043
800022d4:	40e68733          	sub	a4,a3,a4
800022d8:	00e7d533          	srl	a0,a5,a4
800022dc:	fe9ff06f          	j	800022c4 <__fixdfsi+0x5c>
800022e0:	00000513          	li	a0,0
800022e4:	00008067          	ret

800022e8 <__floatsidf>:
800022e8:	ff010113          	addi	sp,sp,-16
800022ec:	00112623          	sw	ra,12(sp)
800022f0:	00812423          	sw	s0,8(sp)
800022f4:	00912223          	sw	s1,4(sp)
800022f8:	08050663          	beqz	a0,80002384 <__floatsidf+0x9c>
800022fc:	41f55793          	srai	a5,a0,0x1f
80002300:	00a7c433          	xor	s0,a5,a0
80002304:	40f40433          	sub	s0,s0,a5
80002308:	01f55493          	srli	s1,a0,0x1f
8000230c:	00040513          	mv	a0,s0
80002310:	550010ef          	jal	ra,80003860 <__clzsi2>
80002314:	41e00713          	li	a4,1054
80002318:	00a00793          	li	a5,10
8000231c:	40a70733          	sub	a4,a4,a0
80002320:	04a7c863          	blt	a5,a0,80002370 <__floatsidf+0x88>
80002324:	00b00793          	li	a5,11
80002328:	40a787b3          	sub	a5,a5,a0
8000232c:	01550513          	addi	a0,a0,21 # 80000015 <__global_pointer$+0xffff55c5>
80002330:	00f457b3          	srl	a5,s0,a5
80002334:	00a41433          	sll	s0,s0,a0
80002338:	00048513          	mv	a0,s1
8000233c:	00c79793          	slli	a5,a5,0xc
80002340:	00c7d793          	srli	a5,a5,0xc
80002344:	01471713          	slli	a4,a4,0x14
80002348:	01f51513          	slli	a0,a0,0x1f
8000234c:	00f76733          	or	a4,a4,a5
80002350:	00c12083          	lw	ra,12(sp)
80002354:	00a767b3          	or	a5,a4,a0
80002358:	00040513          	mv	a0,s0
8000235c:	00812403          	lw	s0,8(sp)
80002360:	00412483          	lw	s1,4(sp)
80002364:	00078593          	mv	a1,a5
80002368:	01010113          	addi	sp,sp,16
8000236c:	00008067          	ret
80002370:	ff550513          	addi	a0,a0,-11
80002374:	00a417b3          	sll	a5,s0,a0
80002378:	00048513          	mv	a0,s1
8000237c:	00000413          	li	s0,0
80002380:	fbdff06f          	j	8000233c <__floatsidf+0x54>
80002384:	00000713          	li	a4,0
80002388:	00000793          	li	a5,0
8000238c:	ff1ff06f          	j	8000237c <__floatsidf+0x94>

80002390 <__addsf3>:
80002390:	00800737          	lui	a4,0x800
80002394:	ff010113          	addi	sp,sp,-16
80002398:	fff70713          	addi	a4,a4,-1 # 7fffff <_start-0x7f800001>
8000239c:	00a777b3          	and	a5,a4,a0
800023a0:	00812423          	sw	s0,8(sp)
800023a4:	00912223          	sw	s1,4(sp)
800023a8:	01755413          	srli	s0,a0,0x17
800023ac:	01f55493          	srli	s1,a0,0x1f
800023b0:	0175d513          	srli	a0,a1,0x17
800023b4:	00b77733          	and	a4,a4,a1
800023b8:	0ff47413          	zext.b	s0,s0
800023bc:	0ff57513          	zext.b	a0,a0
800023c0:	00112623          	sw	ra,12(sp)
800023c4:	01212023          	sw	s2,0(sp)
800023c8:	01f5d593          	srli	a1,a1,0x1f
800023cc:	00379793          	slli	a5,a5,0x3
800023d0:	00371713          	slli	a4,a4,0x3
800023d4:	40a406b3          	sub	a3,s0,a0
800023d8:	18b49663          	bne	s1,a1,80002564 <__addsf3+0x1d4>
800023dc:	0ad05863          	blez	a3,8000248c <__addsf3+0xfc>
800023e0:	04051063          	bnez	a0,80002420 <__addsf3+0x90>
800023e4:	02070063          	beqz	a4,80002404 <__addsf3+0x74>
800023e8:	fff40693          	addi	a3,s0,-1
800023ec:	00069863          	bnez	a3,800023fc <__addsf3+0x6c>
800023f0:	00e787b3          	add	a5,a5,a4
800023f4:	00100413          	li	s0,1
800023f8:	0600006f          	j	80002458 <__addsf3+0xc8>
800023fc:	0ff00613          	li	a2,255
80002400:	02c41863          	bne	s0,a2,80002430 <__addsf3+0xa0>
80002404:	0077f713          	andi	a4,a5,7
80002408:	34070a63          	beqz	a4,8000275c <__addsf3+0x3cc>
8000240c:	00f7f713          	andi	a4,a5,15
80002410:	00400693          	li	a3,4
80002414:	34d70463          	beq	a4,a3,8000275c <__addsf3+0x3cc>
80002418:	00478793          	addi	a5,a5,4 # 400004 <_start-0x7fbffffc>
8000241c:	3400006f          	j	8000275c <__addsf3+0x3cc>
80002420:	0ff00613          	li	a2,255
80002424:	fec400e3          	beq	s0,a2,80002404 <__addsf3+0x74>
80002428:	04000637          	lui	a2,0x4000
8000242c:	00c76733          	or	a4,a4,a2
80002430:	01b00593          	li	a1,27
80002434:	00100613          	li	a2,1
80002438:	00d5ce63          	blt	a1,a3,80002454 <__addsf3+0xc4>
8000243c:	02000613          	li	a2,32
80002440:	00d755b3          	srl	a1,a4,a3
80002444:	40d606b3          	sub	a3,a2,a3
80002448:	00d71733          	sll	a4,a4,a3
8000244c:	00e03733          	snez	a4,a4
80002450:	00e5e633          	or	a2,a1,a4
80002454:	00c787b3          	add	a5,a5,a2
80002458:	04000737          	lui	a4,0x4000
8000245c:	00e7f733          	and	a4,a5,a4
80002460:	fa0702e3          	beqz	a4,80002404 <__addsf3+0x74>
80002464:	00140413          	addi	s0,s0,1
80002468:	0ff00713          	li	a4,255
8000246c:	2ee40663          	beq	s0,a4,80002758 <__addsf3+0x3c8>
80002470:	7e000737          	lui	a4,0x7e000
80002474:	0017f693          	andi	a3,a5,1
80002478:	fff70713          	addi	a4,a4,-1 # 7dffffff <_start-0x2000001>
8000247c:	0017d793          	srli	a5,a5,0x1
80002480:	00e7f7b3          	and	a5,a5,a4
80002484:	00d7e7b3          	or	a5,a5,a3
80002488:	f7dff06f          	j	80002404 <__addsf3+0x74>
8000248c:	06068663          	beqz	a3,800024f8 <__addsf3+0x168>
80002490:	408506b3          	sub	a3,a0,s0
80002494:	02041063          	bnez	s0,800024b4 <__addsf3+0x124>
80002498:	2a078663          	beqz	a5,80002744 <__addsf3+0x3b4>
8000249c:	fff68613          	addi	a2,a3,-1
800024a0:	f40608e3          	beqz	a2,800023f0 <__addsf3+0x60>
800024a4:	0ff00593          	li	a1,255
800024a8:	02b69063          	bne	a3,a1,800024c8 <__addsf3+0x138>
800024ac:	00070793          	mv	a5,a4
800024b0:	2100006f          	j	800026c0 <__addsf3+0x330>
800024b4:	0ff00613          	li	a2,255
800024b8:	fec50ae3          	beq	a0,a2,800024ac <__addsf3+0x11c>
800024bc:	04000637          	lui	a2,0x4000
800024c0:	00c7e7b3          	or	a5,a5,a2
800024c4:	00068613          	mv	a2,a3
800024c8:	01b00593          	li	a1,27
800024cc:	00100693          	li	a3,1
800024d0:	00c5ce63          	blt	a1,a2,800024ec <__addsf3+0x15c>
800024d4:	02000693          	li	a3,32
800024d8:	40c686b3          	sub	a3,a3,a2
800024dc:	00c7d5b3          	srl	a1,a5,a2
800024e0:	00d797b3          	sll	a5,a5,a3
800024e4:	00f037b3          	snez	a5,a5
800024e8:	00f5e6b3          	or	a3,a1,a5
800024ec:	00e687b3          	add	a5,a3,a4
800024f0:	00050413          	mv	s0,a0
800024f4:	f65ff06f          	j	80002458 <__addsf3+0xc8>
800024f8:	00140693          	addi	a3,s0,1
800024fc:	0fe6f613          	andi	a2,a3,254
80002500:	04061663          	bnez	a2,8000254c <__addsf3+0x1bc>
80002504:	02041863          	bnez	s0,80002534 <__addsf3+0x1a4>
80002508:	24078263          	beqz	a5,8000274c <__addsf3+0x3bc>
8000250c:	ee070ce3          	beqz	a4,80002404 <__addsf3+0x74>
80002510:	00e787b3          	add	a5,a5,a4
80002514:	04000737          	lui	a4,0x4000
80002518:	00e7f733          	and	a4,a5,a4
8000251c:	ee0704e3          	beqz	a4,80002404 <__addsf3+0x74>
80002520:	fc000737          	lui	a4,0xfc000
80002524:	fff70713          	addi	a4,a4,-1 # fbffffff <__global_pointer$+0x7bff55af>
80002528:	00e7f7b3          	and	a5,a5,a4
8000252c:	00100413          	li	s0,1
80002530:	ed5ff06f          	j	80002404 <__addsf3+0x74>
80002534:	f6078ce3          	beqz	a5,800024ac <__addsf3+0x11c>
80002538:	18070463          	beqz	a4,800026c0 <__addsf3+0x330>
8000253c:	00000493          	li	s1,0
80002540:	020007b7          	lui	a5,0x2000
80002544:	0ff00413          	li	s0,255
80002548:	2140006f          	j	8000275c <__addsf3+0x3cc>
8000254c:	0ff00613          	li	a2,255
80002550:	20c68263          	beq	a3,a2,80002754 <__addsf3+0x3c4>
80002554:	00e78733          	add	a4,a5,a4
80002558:	00175793          	srli	a5,a4,0x1
8000255c:	00068413          	mv	s0,a3
80002560:	ea5ff06f          	j	80002404 <__addsf3+0x74>
80002564:	06d05e63          	blez	a3,800025e0 <__addsf3+0x250>
80002568:	06051263          	bnez	a0,800025cc <__addsf3+0x23c>
8000256c:	e8070ce3          	beqz	a4,80002404 <__addsf3+0x74>
80002570:	fff40693          	addi	a3,s0,-1
80002574:	00069863          	bnez	a3,80002584 <__addsf3+0x1f4>
80002578:	40e787b3          	sub	a5,a5,a4
8000257c:	00100413          	li	s0,1
80002580:	0340006f          	j	800025b4 <__addsf3+0x224>
80002584:	0ff00613          	li	a2,255
80002588:	e6c40ee3          	beq	s0,a2,80002404 <__addsf3+0x74>
8000258c:	01b00593          	li	a1,27
80002590:	00100613          	li	a2,1
80002594:	00d5ce63          	blt	a1,a3,800025b0 <__addsf3+0x220>
80002598:	02000613          	li	a2,32
8000259c:	00d755b3          	srl	a1,a4,a3
800025a0:	40d606b3          	sub	a3,a2,a3
800025a4:	00d71733          	sll	a4,a4,a3
800025a8:	00e03733          	snez	a4,a4
800025ac:	00e5e633          	or	a2,a1,a4
800025b0:	40c787b3          	sub	a5,a5,a2
800025b4:	04000937          	lui	s2,0x4000
800025b8:	0127f733          	and	a4,a5,s2
800025bc:	e40704e3          	beqz	a4,80002404 <__addsf3+0x74>
800025c0:	fff90913          	addi	s2,s2,-1 # 3ffffff <_start-0x7c000001>
800025c4:	0127f933          	and	s2,a5,s2
800025c8:	1180006f          	j	800026e0 <__addsf3+0x350>
800025cc:	0ff00613          	li	a2,255
800025d0:	e2c40ae3          	beq	s0,a2,80002404 <__addsf3+0x74>
800025d4:	04000637          	lui	a2,0x4000
800025d8:	00c76733          	or	a4,a4,a2
800025dc:	fb1ff06f          	j	8000258c <__addsf3+0x1fc>
800025e0:	08068063          	beqz	a3,80002660 <__addsf3+0x2d0>
800025e4:	408506b3          	sub	a3,a0,s0
800025e8:	02041863          	bnez	s0,80002618 <__addsf3+0x288>
800025ec:	1e078263          	beqz	a5,800027d0 <__addsf3+0x440>
800025f0:	fff68613          	addi	a2,a3,-1
800025f4:	00061863          	bnez	a2,80002604 <__addsf3+0x274>
800025f8:	40f707b3          	sub	a5,a4,a5
800025fc:	00058493          	mv	s1,a1
80002600:	f7dff06f          	j	8000257c <__addsf3+0x1ec>
80002604:	0ff00813          	li	a6,255
80002608:	03069263          	bne	a3,a6,8000262c <__addsf3+0x29c>
8000260c:	00070793          	mv	a5,a4
80002610:	0ff00413          	li	s0,255
80002614:	06c0006f          	j	80002680 <__addsf3+0x2f0>
80002618:	0ff00613          	li	a2,255
8000261c:	fec508e3          	beq	a0,a2,8000260c <__addsf3+0x27c>
80002620:	04000637          	lui	a2,0x4000
80002624:	00c7e7b3          	or	a5,a5,a2
80002628:	00068613          	mv	a2,a3
8000262c:	01b00813          	li	a6,27
80002630:	00100693          	li	a3,1
80002634:	00c84e63          	blt	a6,a2,80002650 <__addsf3+0x2c0>
80002638:	02000693          	li	a3,32
8000263c:	40c686b3          	sub	a3,a3,a2
80002640:	00c7d833          	srl	a6,a5,a2
80002644:	00d797b3          	sll	a5,a5,a3
80002648:	00f037b3          	snez	a5,a5
8000264c:	00f866b3          	or	a3,a6,a5
80002650:	40d707b3          	sub	a5,a4,a3
80002654:	00050413          	mv	s0,a0
80002658:	00058493          	mv	s1,a1
8000265c:	f59ff06f          	j	800025b4 <__addsf3+0x224>
80002660:	00140693          	addi	a3,s0,1
80002664:	0fe6f693          	andi	a3,a3,254
80002668:	06069063          	bnez	a3,800026c8 <__addsf3+0x338>
8000266c:	04041263          	bnez	s0,800026b0 <__addsf3+0x320>
80002670:	00079c63          	bnez	a5,80002688 <__addsf3+0x2f8>
80002674:	00000493          	li	s1,0
80002678:	0e070263          	beqz	a4,8000275c <__addsf3+0x3cc>
8000267c:	00070793          	mv	a5,a4
80002680:	00058493          	mv	s1,a1
80002684:	d81ff06f          	j	80002404 <__addsf3+0x74>
80002688:	d6070ee3          	beqz	a4,80002404 <__addsf3+0x74>
8000268c:	40e786b3          	sub	a3,a5,a4
80002690:	04000637          	lui	a2,0x4000
80002694:	00c6f633          	and	a2,a3,a2
80002698:	40f707b3          	sub	a5,a4,a5
8000269c:	fe0612e3          	bnez	a2,80002680 <__addsf3+0x2f0>
800026a0:	00000793          	li	a5,0
800026a4:	08068263          	beqz	a3,80002728 <__addsf3+0x398>
800026a8:	00068793          	mv	a5,a3
800026ac:	d59ff06f          	j	80002404 <__addsf3+0x74>
800026b0:	e80794e3          	bnez	a5,80002538 <__addsf3+0x1a8>
800026b4:	e80704e3          	beqz	a4,8000253c <__addsf3+0x1ac>
800026b8:	00070793          	mv	a5,a4
800026bc:	00058493          	mv	s1,a1
800026c0:	0ff00413          	li	s0,255
800026c4:	d41ff06f          	j	80002404 <__addsf3+0x74>
800026c8:	40e78933          	sub	s2,a5,a4
800026cc:	040006b7          	lui	a3,0x4000
800026d0:	00d976b3          	and	a3,s2,a3
800026d4:	04068463          	beqz	a3,8000271c <__addsf3+0x38c>
800026d8:	40f70933          	sub	s2,a4,a5
800026dc:	00058493          	mv	s1,a1
800026e0:	00090513          	mv	a0,s2
800026e4:	17c010ef          	jal	ra,80003860 <__clzsi2>
800026e8:	ffb50513          	addi	a0,a0,-5
800026ec:	00a91933          	sll	s2,s2,a0
800026f0:	04854063          	blt	a0,s0,80002730 <__addsf3+0x3a0>
800026f4:	40850533          	sub	a0,a0,s0
800026f8:	00150513          	addi	a0,a0,1
800026fc:	02000713          	li	a4,32
80002700:	40a70733          	sub	a4,a4,a0
80002704:	00a957b3          	srl	a5,s2,a0
80002708:	00e91933          	sll	s2,s2,a4
8000270c:	01203933          	snez	s2,s2
80002710:	0127e7b3          	or	a5,a5,s2
80002714:	00000413          	li	s0,0
80002718:	cedff06f          	j	80002404 <__addsf3+0x74>
8000271c:	fc0912e3          	bnez	s2,800026e0 <__addsf3+0x350>
80002720:	00000793          	li	a5,0
80002724:	00000413          	li	s0,0
80002728:	00000493          	li	s1,0
8000272c:	0300006f          	j	8000275c <__addsf3+0x3cc>
80002730:	fc0007b7          	lui	a5,0xfc000
80002734:	fff78793          	addi	a5,a5,-1 # fbffffff <__global_pointer$+0x7bff55af>
80002738:	40a40433          	sub	s0,s0,a0
8000273c:	00f977b3          	and	a5,s2,a5
80002740:	cc5ff06f          	j	80002404 <__addsf3+0x74>
80002744:	00070793          	mv	a5,a4
80002748:	e15ff06f          	j	8000255c <__addsf3+0x1cc>
8000274c:	00070793          	mv	a5,a4
80002750:	cb5ff06f          	j	80002404 <__addsf3+0x74>
80002754:	0ff00413          	li	s0,255
80002758:	00000793          	li	a5,0
8000275c:	04000737          	lui	a4,0x4000
80002760:	00e7f733          	and	a4,a5,a4
80002764:	00070e63          	beqz	a4,80002780 <__addsf3+0x3f0>
80002768:	00140413          	addi	s0,s0,1
8000276c:	0ff00713          	li	a4,255
80002770:	06e40663          	beq	s0,a4,800027dc <__addsf3+0x44c>
80002774:	fc000737          	lui	a4,0xfc000
80002778:	fff70713          	addi	a4,a4,-1 # fbffffff <__global_pointer$+0x7bff55af>
8000277c:	00e7f7b3          	and	a5,a5,a4
80002780:	0ff00713          	li	a4,255
80002784:	0037d793          	srli	a5,a5,0x3
80002788:	00e41863          	bne	s0,a4,80002798 <__addsf3+0x408>
8000278c:	00078663          	beqz	a5,80002798 <__addsf3+0x408>
80002790:	004007b7          	lui	a5,0x400
80002794:	00000493          	li	s1,0
80002798:	01741413          	slli	s0,s0,0x17
8000279c:	7f800737          	lui	a4,0x7f800
800027a0:	00979793          	slli	a5,a5,0x9
800027a4:	00e47433          	and	s0,s0,a4
800027a8:	0097d793          	srli	a5,a5,0x9
800027ac:	00f46433          	or	s0,s0,a5
800027b0:	01f49513          	slli	a0,s1,0x1f
800027b4:	00c12083          	lw	ra,12(sp)
800027b8:	00a46533          	or	a0,s0,a0
800027bc:	00812403          	lw	s0,8(sp)
800027c0:	00412483          	lw	s1,4(sp)
800027c4:	00012903          	lw	s2,0(sp)
800027c8:	01010113          	addi	sp,sp,16
800027cc:	00008067          	ret
800027d0:	00070793          	mv	a5,a4
800027d4:	00068413          	mv	s0,a3
800027d8:	ea9ff06f          	j	80002680 <__addsf3+0x2f0>
800027dc:	00000793          	li	a5,0
800027e0:	fa1ff06f          	j	80002780 <__addsf3+0x3f0>

800027e4 <__divsf3>:
800027e4:	fd010113          	addi	sp,sp,-48
800027e8:	02912223          	sw	s1,36(sp)
800027ec:	01755493          	srli	s1,a0,0x17
800027f0:	01312e23          	sw	s3,28(sp)
800027f4:	01512a23          	sw	s5,20(sp)
800027f8:	01612823          	sw	s6,16(sp)
800027fc:	00951a93          	slli	s5,a0,0x9
80002800:	02112623          	sw	ra,44(sp)
80002804:	02812423          	sw	s0,40(sp)
80002808:	03212023          	sw	s2,32(sp)
8000280c:	01412c23          	sw	s4,24(sp)
80002810:	01712623          	sw	s7,12(sp)
80002814:	01812423          	sw	s8,8(sp)
80002818:	0ff4f493          	zext.b	s1,s1
8000281c:	00058b13          	mv	s6,a1
80002820:	009ada93          	srli	s5,s5,0x9
80002824:	01f55993          	srli	s3,a0,0x1f
80002828:	08048463          	beqz	s1,800028b0 <__divsf3+0xcc>
8000282c:	0ff00793          	li	a5,255
80002830:	0af48063          	beq	s1,a5,800028d0 <__divsf3+0xec>
80002834:	003a9a93          	slli	s5,s5,0x3
80002838:	040007b7          	lui	a5,0x4000
8000283c:	00faeab3          	or	s5,s5,a5
80002840:	f8148493          	addi	s1,s1,-127
80002844:	00000b93          	li	s7,0
80002848:	017b5793          	srli	a5,s6,0x17
8000284c:	009b1413          	slli	s0,s6,0x9
80002850:	0ff7f793          	zext.b	a5,a5
80002854:	00945413          	srli	s0,s0,0x9
80002858:	01fb5b13          	srli	s6,s6,0x1f
8000285c:	08078a63          	beqz	a5,800028f0 <__divsf3+0x10c>
80002860:	0ff00713          	li	a4,255
80002864:	0ae78663          	beq	a5,a4,80002910 <__divsf3+0x12c>
80002868:	00341413          	slli	s0,s0,0x3
8000286c:	04000737          	lui	a4,0x4000
80002870:	00e46433          	or	s0,s0,a4
80002874:	f8178793          	addi	a5,a5,-127 # 3ffff81 <_start-0x7c00007f>
80002878:	00000713          	li	a4,0
8000287c:	40f48a33          	sub	s4,s1,a5
80002880:	002b9793          	slli	a5,s7,0x2
80002884:	00e7e7b3          	or	a5,a5,a4
80002888:	fff78793          	addi	a5,a5,-1
8000288c:	00e00693          	li	a3,14
80002890:	0169c933          	xor	s2,s3,s6
80002894:	08f6ee63          	bltu	a3,a5,80002930 <__divsf3+0x14c>
80002898:	800096b7          	lui	a3,0x80009
8000289c:	00279793          	slli	a5,a5,0x2
800028a0:	73c68693          	addi	a3,a3,1852 # 8000973c <__global_pointer$+0xffffecec>
800028a4:	00d787b3          	add	a5,a5,a3
800028a8:	0007a783          	lw	a5,0(a5)
800028ac:	00078067          	jr	a5
800028b0:	020a8a63          	beqz	s5,800028e4 <__divsf3+0x100>
800028b4:	000a8513          	mv	a0,s5
800028b8:	7a9000ef          	jal	ra,80003860 <__clzsi2>
800028bc:	ffb50793          	addi	a5,a0,-5
800028c0:	f8a00493          	li	s1,-118
800028c4:	00fa9ab3          	sll	s5,s5,a5
800028c8:	40a484b3          	sub	s1,s1,a0
800028cc:	f79ff06f          	j	80002844 <__divsf3+0x60>
800028d0:	0ff00493          	li	s1,255
800028d4:	00200b93          	li	s7,2
800028d8:	f60a88e3          	beqz	s5,80002848 <__divsf3+0x64>
800028dc:	00300b93          	li	s7,3
800028e0:	f69ff06f          	j	80002848 <__divsf3+0x64>
800028e4:	00000493          	li	s1,0
800028e8:	00100b93          	li	s7,1
800028ec:	f5dff06f          	j	80002848 <__divsf3+0x64>
800028f0:	02040a63          	beqz	s0,80002924 <__divsf3+0x140>
800028f4:	00040513          	mv	a0,s0
800028f8:	769000ef          	jal	ra,80003860 <__clzsi2>
800028fc:	ffb50793          	addi	a5,a0,-5
80002900:	00f41433          	sll	s0,s0,a5
80002904:	f8a00793          	li	a5,-118
80002908:	40a787b3          	sub	a5,a5,a0
8000290c:	f6dff06f          	j	80002878 <__divsf3+0x94>
80002910:	0ff00793          	li	a5,255
80002914:	00200713          	li	a4,2
80002918:	f60402e3          	beqz	s0,8000287c <__divsf3+0x98>
8000291c:	00300713          	li	a4,3
80002920:	f5dff06f          	j	8000287c <__divsf3+0x98>
80002924:	00000793          	li	a5,0
80002928:	00100713          	li	a4,1
8000292c:	f51ff06f          	j	8000287c <__divsf3+0x98>
80002930:	00541c13          	slli	s8,s0,0x5
80002934:	168afa63          	bgeu	s5,s0,80002aa8 <__divsf3+0x2c4>
80002938:	fffa0a13          	addi	s4,s4,-1
8000293c:	00000413          	li	s0,0
80002940:	010c5b13          	srli	s6,s8,0x10
80002944:	000109b7          	lui	s3,0x10
80002948:	000b0593          	mv	a1,s6
8000294c:	fff98993          	addi	s3,s3,-1 # ffff <_start-0x7fff0001>
80002950:	000a8513          	mv	a0,s5
80002954:	661000ef          	jal	ra,800037b4 <__udivsi3>
80002958:	013c79b3          	and	s3,s8,s3
8000295c:	00050593          	mv	a1,a0
80002960:	00050b93          	mv	s7,a0
80002964:	00098513          	mv	a0,s3
80002968:	621000ef          	jal	ra,80003788 <__mulsi3>
8000296c:	00050493          	mv	s1,a0
80002970:	000b0593          	mv	a1,s6
80002974:	000a8513          	mv	a0,s5
80002978:	685000ef          	jal	ra,800037fc <__umodsi3>
8000297c:	01045793          	srli	a5,s0,0x10
80002980:	01051513          	slli	a0,a0,0x10
80002984:	00a7e7b3          	or	a5,a5,a0
80002988:	000b8413          	mv	s0,s7
8000298c:	0097fe63          	bgeu	a5,s1,800029a8 <__divsf3+0x1c4>
80002990:	018787b3          	add	a5,a5,s8
80002994:	fffb8413          	addi	s0,s7,-1
80002998:	0187e863          	bltu	a5,s8,800029a8 <__divsf3+0x1c4>
8000299c:	0097f663          	bgeu	a5,s1,800029a8 <__divsf3+0x1c4>
800029a0:	ffeb8413          	addi	s0,s7,-2
800029a4:	018787b3          	add	a5,a5,s8
800029a8:	409784b3          	sub	s1,a5,s1
800029ac:	000b0593          	mv	a1,s6
800029b0:	00048513          	mv	a0,s1
800029b4:	601000ef          	jal	ra,800037b4 <__udivsi3>
800029b8:	00050593          	mv	a1,a0
800029bc:	00050a93          	mv	s5,a0
800029c0:	00098513          	mv	a0,s3
800029c4:	5c5000ef          	jal	ra,80003788 <__mulsi3>
800029c8:	00050993          	mv	s3,a0
800029cc:	000b0593          	mv	a1,s6
800029d0:	00048513          	mv	a0,s1
800029d4:	629000ef          	jal	ra,800037fc <__umodsi3>
800029d8:	01051793          	slli	a5,a0,0x10
800029dc:	000a8713          	mv	a4,s5
800029e0:	0137fe63          	bgeu	a5,s3,800029fc <__divsf3+0x218>
800029e4:	018787b3          	add	a5,a5,s8
800029e8:	fffa8713          	addi	a4,s5,-1
800029ec:	0187e863          	bltu	a5,s8,800029fc <__divsf3+0x218>
800029f0:	0137f663          	bgeu	a5,s3,800029fc <__divsf3+0x218>
800029f4:	ffea8713          	addi	a4,s5,-2
800029f8:	018787b3          	add	a5,a5,s8
800029fc:	01041413          	slli	s0,s0,0x10
80002a00:	413787b3          	sub	a5,a5,s3
80002a04:	00e46433          	or	s0,s0,a4
80002a08:	00f037b3          	snez	a5,a5
80002a0c:	00f46433          	or	s0,s0,a5
80002a10:	07fa0713          	addi	a4,s4,127
80002a14:	0ee05463          	blez	a4,80002afc <__divsf3+0x318>
80002a18:	00747793          	andi	a5,s0,7
80002a1c:	00078a63          	beqz	a5,80002a30 <__divsf3+0x24c>
80002a20:	00f47793          	andi	a5,s0,15
80002a24:	00400693          	li	a3,4
80002a28:	00d78463          	beq	a5,a3,80002a30 <__divsf3+0x24c>
80002a2c:	00440413          	addi	s0,s0,4
80002a30:	080007b7          	lui	a5,0x8000
80002a34:	00f477b3          	and	a5,s0,a5
80002a38:	00078a63          	beqz	a5,80002a4c <__divsf3+0x268>
80002a3c:	f80007b7          	lui	a5,0xf8000
80002a40:	fff78793          	addi	a5,a5,-1 # f7ffffff <__global_pointer$+0x77ff55af>
80002a44:	00f47433          	and	s0,s0,a5
80002a48:	080a0713          	addi	a4,s4,128
80002a4c:	0fe00793          	li	a5,254
80002a50:	08e7c463          	blt	a5,a4,80002ad8 <__divsf3+0x2f4>
80002a54:	00345793          	srli	a5,s0,0x3
80002a58:	02c12083          	lw	ra,44(sp)
80002a5c:	02812403          	lw	s0,40(sp)
80002a60:	01771713          	slli	a4,a4,0x17
80002a64:	7f8006b7          	lui	a3,0x7f800
80002a68:	00979793          	slli	a5,a5,0x9
80002a6c:	00d77733          	and	a4,a4,a3
80002a70:	0097d793          	srli	a5,a5,0x9
80002a74:	01f91513          	slli	a0,s2,0x1f
80002a78:	00f76733          	or	a4,a4,a5
80002a7c:	02412483          	lw	s1,36(sp)
80002a80:	02012903          	lw	s2,32(sp)
80002a84:	01c12983          	lw	s3,28(sp)
80002a88:	01812a03          	lw	s4,24(sp)
80002a8c:	01412a83          	lw	s5,20(sp)
80002a90:	01012b03          	lw	s6,16(sp)
80002a94:	00c12b83          	lw	s7,12(sp)
80002a98:	00812c03          	lw	s8,8(sp)
80002a9c:	00a76533          	or	a0,a4,a0
80002aa0:	03010113          	addi	sp,sp,48
80002aa4:	00008067          	ret
80002aa8:	01fa9413          	slli	s0,s5,0x1f
80002aac:	001ada93          	srli	s5,s5,0x1
80002ab0:	e91ff06f          	j	80002940 <__divsf3+0x15c>
80002ab4:	00098913          	mv	s2,s3
80002ab8:	000a8413          	mv	s0,s5
80002abc:	000b8713          	mv	a4,s7
80002ac0:	00300793          	li	a5,3
80002ac4:	08f70863          	beq	a4,a5,80002b54 <__divsf3+0x370>
80002ac8:	00100793          	li	a5,1
80002acc:	08f70c63          	beq	a4,a5,80002b64 <__divsf3+0x380>
80002ad0:	00200793          	li	a5,2
80002ad4:	f2f71ee3          	bne	a4,a5,80002a10 <__divsf3+0x22c>
80002ad8:	00000793          	li	a5,0
80002adc:	0ff00713          	li	a4,255
80002ae0:	f79ff06f          	j	80002a58 <__divsf3+0x274>
80002ae4:	000b0913          	mv	s2,s6
80002ae8:	fd9ff06f          	j	80002ac0 <__divsf3+0x2dc>
80002aec:	00400437          	lui	s0,0x400
80002af0:	00000913          	li	s2,0
80002af4:	00300713          	li	a4,3
80002af8:	fc9ff06f          	j	80002ac0 <__divsf3+0x2dc>
80002afc:	00100793          	li	a5,1
80002b00:	40e787b3          	sub	a5,a5,a4
80002b04:	01b00713          	li	a4,27
80002b08:	04f74e63          	blt	a4,a5,80002b64 <__divsf3+0x380>
80002b0c:	09ea0493          	addi	s1,s4,158
80002b10:	00f457b3          	srl	a5,s0,a5
80002b14:	00941433          	sll	s0,s0,s1
80002b18:	00803433          	snez	s0,s0
80002b1c:	0087e7b3          	or	a5,a5,s0
80002b20:	0077f713          	andi	a4,a5,7
80002b24:	00070a63          	beqz	a4,80002b38 <__divsf3+0x354>
80002b28:	00f7f713          	andi	a4,a5,15
80002b2c:	00400693          	li	a3,4
80002b30:	00d70463          	beq	a4,a3,80002b38 <__divsf3+0x354>
80002b34:	00478793          	addi	a5,a5,4
80002b38:	04000737          	lui	a4,0x4000
80002b3c:	00e7f733          	and	a4,a5,a4
80002b40:	0037d793          	srli	a5,a5,0x3
80002b44:	f0070ae3          	beqz	a4,80002a58 <__divsf3+0x274>
80002b48:	00000793          	li	a5,0
80002b4c:	00100713          	li	a4,1
80002b50:	f09ff06f          	j	80002a58 <__divsf3+0x274>
80002b54:	004007b7          	lui	a5,0x400
80002b58:	0ff00713          	li	a4,255
80002b5c:	00000913          	li	s2,0
80002b60:	ef9ff06f          	j	80002a58 <__divsf3+0x274>
80002b64:	00000793          	li	a5,0
80002b68:	00000713          	li	a4,0
80002b6c:	eedff06f          	j	80002a58 <__divsf3+0x274>

80002b70 <__gesf2>:
80002b70:	00800737          	lui	a4,0x800
80002b74:	fff70713          	addi	a4,a4,-1 # 7fffff <_start-0x7f800001>
80002b78:	01755693          	srli	a3,a0,0x17
80002b7c:	00a77633          	and	a2,a4,a0
80002b80:	01f55793          	srli	a5,a0,0x1f
80002b84:	0ff6f693          	zext.b	a3,a3
80002b88:	0175d513          	srli	a0,a1,0x17
80002b8c:	0ff00813          	li	a6,255
80002b90:	00b77733          	and	a4,a4,a1
80002b94:	0ff57513          	zext.b	a0,a0
80002b98:	01f5d593          	srli	a1,a1,0x1f
80002b9c:	01069863          	bne	a3,a6,80002bac <__gesf2+0x3c>
80002ba0:	06060c63          	beqz	a2,80002c18 <__gesf2+0xa8>
80002ba4:	ffe00513          	li	a0,-2
80002ba8:	00008067          	ret
80002bac:	01051463          	bne	a0,a6,80002bb4 <__gesf2+0x44>
80002bb0:	fe071ae3          	bnez	a4,80002ba4 <__gesf2+0x34>
80002bb4:	06069463          	bnez	a3,80002c1c <__gesf2+0xac>
80002bb8:	00051463          	bnez	a0,80002bc0 <__gesf2+0x50>
80002bbc:	04070a63          	beqz	a4,80002c10 <__gesf2+0xa0>
80002bc0:	00060e63          	beqz	a2,80002bdc <__gesf2+0x6c>
80002bc4:	00b79463          	bne	a5,a1,80002bcc <__gesf2+0x5c>
80002bc8:	02d55263          	bge	a0,a3,80002bec <__gesf2+0x7c>
80002bcc:	00100513          	li	a0,1
80002bd0:	02078e63          	beqz	a5,80002c0c <__gesf2+0x9c>
80002bd4:	fff00513          	li	a0,-1
80002bd8:	00008067          	ret
80002bdc:	fff00513          	li	a0,-1
80002be0:	02058663          	beqz	a1,80002c0c <__gesf2+0x9c>
80002be4:	00058513          	mv	a0,a1
80002be8:	00008067          	ret
80002bec:	00a6da63          	bge	a3,a0,80002c00 <__gesf2+0x90>
80002bf0:	fff00513          	li	a0,-1
80002bf4:	00078c63          	beqz	a5,80002c0c <__gesf2+0x9c>
80002bf8:	00078513          	mv	a0,a5
80002bfc:	00008067          	ret
80002c00:	fcc766e3          	bltu	a4,a2,80002bcc <__gesf2+0x5c>
80002c04:	00000513          	li	a0,0
80002c08:	fee664e3          	bltu	a2,a4,80002bf0 <__gesf2+0x80>
80002c0c:	00008067          	ret
80002c10:	fe060ee3          	beqz	a2,80002c0c <__gesf2+0x9c>
80002c14:	fb9ff06f          	j	80002bcc <__gesf2+0x5c>
80002c18:	f8d50ce3          	beq	a0,a3,80002bb0 <__gesf2+0x40>
80002c1c:	fa0514e3          	bnez	a0,80002bc4 <__gesf2+0x54>
80002c20:	fa0706e3          	beqz	a4,80002bcc <__gesf2+0x5c>
80002c24:	fa1ff06f          	j	80002bc4 <__gesf2+0x54>

80002c28 <__lesf2>:
80002c28:	00800737          	lui	a4,0x800
80002c2c:	fff70713          	addi	a4,a4,-1 # 7fffff <_start-0x7f800001>
80002c30:	01755693          	srli	a3,a0,0x17
80002c34:	00a77633          	and	a2,a4,a0
80002c38:	01f55793          	srli	a5,a0,0x1f
80002c3c:	0ff6f693          	zext.b	a3,a3
80002c40:	0175d513          	srli	a0,a1,0x17
80002c44:	0ff00813          	li	a6,255
80002c48:	00b77733          	and	a4,a4,a1
80002c4c:	0ff57513          	zext.b	a0,a0
80002c50:	01f5d593          	srli	a1,a1,0x1f
80002c54:	01069863          	bne	a3,a6,80002c64 <__lesf2+0x3c>
80002c58:	06060c63          	beqz	a2,80002cd0 <__lesf2+0xa8>
80002c5c:	00200513          	li	a0,2
80002c60:	00008067          	ret
80002c64:	01051463          	bne	a0,a6,80002c6c <__lesf2+0x44>
80002c68:	fe071ae3          	bnez	a4,80002c5c <__lesf2+0x34>
80002c6c:	06069463          	bnez	a3,80002cd4 <__lesf2+0xac>
80002c70:	00051463          	bnez	a0,80002c78 <__lesf2+0x50>
80002c74:	04070a63          	beqz	a4,80002cc8 <__lesf2+0xa0>
80002c78:	00060e63          	beqz	a2,80002c94 <__lesf2+0x6c>
80002c7c:	00b79463          	bne	a5,a1,80002c84 <__lesf2+0x5c>
80002c80:	02d55263          	bge	a0,a3,80002ca4 <__lesf2+0x7c>
80002c84:	00100513          	li	a0,1
80002c88:	02078e63          	beqz	a5,80002cc4 <__lesf2+0x9c>
80002c8c:	fff00513          	li	a0,-1
80002c90:	00008067          	ret
80002c94:	fff00513          	li	a0,-1
80002c98:	02058663          	beqz	a1,80002cc4 <__lesf2+0x9c>
80002c9c:	00058513          	mv	a0,a1
80002ca0:	00008067          	ret
80002ca4:	00a6da63          	bge	a3,a0,80002cb8 <__lesf2+0x90>
80002ca8:	fff00513          	li	a0,-1
80002cac:	00078c63          	beqz	a5,80002cc4 <__lesf2+0x9c>
80002cb0:	00078513          	mv	a0,a5
80002cb4:	00008067          	ret
80002cb8:	fcc766e3          	bltu	a4,a2,80002c84 <__lesf2+0x5c>
80002cbc:	00000513          	li	a0,0
80002cc0:	fee664e3          	bltu	a2,a4,80002ca8 <__lesf2+0x80>
80002cc4:	00008067          	ret
80002cc8:	fe060ee3          	beqz	a2,80002cc4 <__lesf2+0x9c>
80002ccc:	fb9ff06f          	j	80002c84 <__lesf2+0x5c>
80002cd0:	f8d50ce3          	beq	a0,a3,80002c68 <__lesf2+0x40>
80002cd4:	fa0514e3          	bnez	a0,80002c7c <__lesf2+0x54>
80002cd8:	fa0706e3          	beqz	a4,80002c84 <__lesf2+0x5c>
80002cdc:	fa1ff06f          	j	80002c7c <__lesf2+0x54>

80002ce0 <__mulsf3>:
80002ce0:	fe010113          	addi	sp,sp,-32
80002ce4:	01212823          	sw	s2,16(sp)
80002ce8:	01755913          	srli	s2,a0,0x17
80002cec:	00912a23          	sw	s1,20(sp)
80002cf0:	01312623          	sw	s3,12(sp)
80002cf4:	01512223          	sw	s5,4(sp)
80002cf8:	00951493          	slli	s1,a0,0x9
80002cfc:	00112e23          	sw	ra,28(sp)
80002d00:	00812c23          	sw	s0,24(sp)
80002d04:	01412423          	sw	s4,8(sp)
80002d08:	0ff97913          	zext.b	s2,s2
80002d0c:	00058a93          	mv	s5,a1
80002d10:	0094d493          	srli	s1,s1,0x9
80002d14:	01f55993          	srli	s3,a0,0x1f
80002d18:	1c090263          	beqz	s2,80002edc <__mulsf3+0x1fc>
80002d1c:	0ff00793          	li	a5,255
80002d20:	1cf90e63          	beq	s2,a5,80002efc <__mulsf3+0x21c>
80002d24:	00349493          	slli	s1,s1,0x3
80002d28:	040007b7          	lui	a5,0x4000
80002d2c:	00f4e4b3          	or	s1,s1,a5
80002d30:	f8190913          	addi	s2,s2,-127
80002d34:	00000a13          	li	s4,0
80002d38:	017ad793          	srli	a5,s5,0x17
80002d3c:	009a9413          	slli	s0,s5,0x9
80002d40:	0ff7f793          	zext.b	a5,a5
80002d44:	00945413          	srli	s0,s0,0x9
80002d48:	01fada93          	srli	s5,s5,0x1f
80002d4c:	1c078863          	beqz	a5,80002f1c <__mulsf3+0x23c>
80002d50:	0ff00713          	li	a4,255
80002d54:	1ee78463          	beq	a5,a4,80002f3c <__mulsf3+0x25c>
80002d58:	00341413          	slli	s0,s0,0x3
80002d5c:	04000737          	lui	a4,0x4000
80002d60:	00e46433          	or	s0,s0,a4
80002d64:	f8178793          	addi	a5,a5,-127 # 3ffff81 <_start-0x7c00007f>
80002d68:	00000693          	li	a3,0
80002d6c:	00f90933          	add	s2,s2,a5
80002d70:	002a1793          	slli	a5,s4,0x2
80002d74:	00d7e7b3          	or	a5,a5,a3
80002d78:	00a00713          	li	a4,10
80002d7c:	0159c833          	xor	a6,s3,s5
80002d80:	00190893          	addi	a7,s2,1
80002d84:	22f74463          	blt	a4,a5,80002fac <__mulsf3+0x2cc>
80002d88:	00200713          	li	a4,2
80002d8c:	1cf74863          	blt	a4,a5,80002f5c <__mulsf3+0x27c>
80002d90:	fff78793          	addi	a5,a5,-1
80002d94:	00100713          	li	a4,1
80002d98:	1ef77463          	bgeu	a4,a5,80002f80 <__mulsf3+0x2a0>
80002d9c:	00010eb7          	lui	t4,0x10
80002da0:	fffe8313          	addi	t1,t4,-1 # ffff <_start-0x7fff0001>
80002da4:	0104df93          	srli	t6,s1,0x10
80002da8:	01045f13          	srli	t5,s0,0x10
80002dac:	0064f4b3          	and	s1,s1,t1
80002db0:	00647433          	and	s0,s0,t1
80002db4:	00048513          	mv	a0,s1
80002db8:	00040593          	mv	a1,s0
80002dbc:	1cd000ef          	jal	ra,80003788 <__mulsi3>
80002dc0:	00050713          	mv	a4,a0
80002dc4:	000f0593          	mv	a1,t5
80002dc8:	00048513          	mv	a0,s1
80002dcc:	1bd000ef          	jal	ra,80003788 <__mulsi3>
80002dd0:	00050793          	mv	a5,a0
80002dd4:	00040593          	mv	a1,s0
80002dd8:	000f8513          	mv	a0,t6
80002ddc:	1ad000ef          	jal	ra,80003788 <__mulsi3>
80002de0:	00050e13          	mv	t3,a0
80002de4:	000f0593          	mv	a1,t5
80002de8:	000f8513          	mv	a0,t6
80002dec:	19d000ef          	jal	ra,80003788 <__mulsi3>
80002df0:	01075413          	srli	s0,a4,0x10
80002df4:	01c787b3          	add	a5,a5,t3
80002df8:	00f40433          	add	s0,s0,a5
80002dfc:	00050693          	mv	a3,a0
80002e00:	01c47463          	bgeu	s0,t3,80002e08 <__mulsf3+0x128>
80002e04:	01d506b3          	add	a3,a0,t4
80002e08:	006477b3          	and	a5,s0,t1
80002e0c:	00677733          	and	a4,a4,t1
80002e10:	01079793          	slli	a5,a5,0x10
80002e14:	00e787b3          	add	a5,a5,a4
80002e18:	00679713          	slli	a4,a5,0x6
80002e1c:	01045413          	srli	s0,s0,0x10
80002e20:	00e03733          	snez	a4,a4
80002e24:	01a7d793          	srli	a5,a5,0x1a
80002e28:	00d40433          	add	s0,s0,a3
80002e2c:	00f767b3          	or	a5,a4,a5
80002e30:	00641413          	slli	s0,s0,0x6
80002e34:	00f46433          	or	s0,s0,a5
80002e38:	080007b7          	lui	a5,0x8000
80002e3c:	00f477b3          	and	a5,s0,a5
80002e40:	18078e63          	beqz	a5,80002fdc <__mulsf3+0x2fc>
80002e44:	00145793          	srli	a5,s0,0x1
80002e48:	00147413          	andi	s0,s0,1
80002e4c:	0087e433          	or	s0,a5,s0
80002e50:	07f88713          	addi	a4,a7,127 # 80007f <_start-0x7f7fff81>
80002e54:	18e05863          	blez	a4,80002fe4 <__mulsf3+0x304>
80002e58:	00747793          	andi	a5,s0,7
80002e5c:	00078a63          	beqz	a5,80002e70 <__mulsf3+0x190>
80002e60:	00f47793          	andi	a5,s0,15
80002e64:	00400693          	li	a3,4
80002e68:	00d78463          	beq	a5,a3,80002e70 <__mulsf3+0x190>
80002e6c:	00440413          	addi	s0,s0,4 # 400004 <_start-0x7fbffffc>
80002e70:	080007b7          	lui	a5,0x8000
80002e74:	00f477b3          	and	a5,s0,a5
80002e78:	00078a63          	beqz	a5,80002e8c <__mulsf3+0x1ac>
80002e7c:	f80007b7          	lui	a5,0xf8000
80002e80:	fff78793          	addi	a5,a5,-1 # f7ffffff <__global_pointer$+0x77ff55af>
80002e84:	00f47433          	and	s0,s0,a5
80002e88:	08088713          	addi	a4,a7,128
80002e8c:	0fe00793          	li	a5,254
80002e90:	1ae7ce63          	blt	a5,a4,8000304c <__mulsf3+0x36c>
80002e94:	00345793          	srli	a5,s0,0x3
80002e98:	01c12083          	lw	ra,28(sp)
80002e9c:	01812403          	lw	s0,24(sp)
80002ea0:	01771713          	slli	a4,a4,0x17
80002ea4:	7f8006b7          	lui	a3,0x7f800
80002ea8:	00979793          	slli	a5,a5,0x9
80002eac:	00d77733          	and	a4,a4,a3
80002eb0:	0097d793          	srli	a5,a5,0x9
80002eb4:	00f76733          	or	a4,a4,a5
80002eb8:	01f81513          	slli	a0,a6,0x1f
80002ebc:	01412483          	lw	s1,20(sp)
80002ec0:	01012903          	lw	s2,16(sp)
80002ec4:	00c12983          	lw	s3,12(sp)
80002ec8:	00812a03          	lw	s4,8(sp)
80002ecc:	00412a83          	lw	s5,4(sp)
80002ed0:	00a76533          	or	a0,a4,a0
80002ed4:	02010113          	addi	sp,sp,32
80002ed8:	00008067          	ret
80002edc:	02048a63          	beqz	s1,80002f10 <__mulsf3+0x230>
80002ee0:	00048513          	mv	a0,s1
80002ee4:	17d000ef          	jal	ra,80003860 <__clzsi2>
80002ee8:	ffb50793          	addi	a5,a0,-5
80002eec:	f8a00913          	li	s2,-118
80002ef0:	00f494b3          	sll	s1,s1,a5
80002ef4:	40a90933          	sub	s2,s2,a0
80002ef8:	e3dff06f          	j	80002d34 <__mulsf3+0x54>
80002efc:	0ff00913          	li	s2,255
80002f00:	00200a13          	li	s4,2
80002f04:	e2048ae3          	beqz	s1,80002d38 <__mulsf3+0x58>
80002f08:	00300a13          	li	s4,3
80002f0c:	e2dff06f          	j	80002d38 <__mulsf3+0x58>
80002f10:	00000913          	li	s2,0
80002f14:	00100a13          	li	s4,1
80002f18:	e21ff06f          	j	80002d38 <__mulsf3+0x58>
80002f1c:	02040a63          	beqz	s0,80002f50 <__mulsf3+0x270>
80002f20:	00040513          	mv	a0,s0
80002f24:	13d000ef          	jal	ra,80003860 <__clzsi2>
80002f28:	ffb50793          	addi	a5,a0,-5
80002f2c:	00f41433          	sll	s0,s0,a5
80002f30:	f8a00793          	li	a5,-118
80002f34:	40a787b3          	sub	a5,a5,a0
80002f38:	e31ff06f          	j	80002d68 <__mulsf3+0x88>
80002f3c:	0ff00793          	li	a5,255
80002f40:	00200693          	li	a3,2
80002f44:	e20404e3          	beqz	s0,80002d6c <__mulsf3+0x8c>
80002f48:	00300693          	li	a3,3
80002f4c:	e21ff06f          	j	80002d6c <__mulsf3+0x8c>
80002f50:	00000793          	li	a5,0
80002f54:	00100693          	li	a3,1
80002f58:	e15ff06f          	j	80002d6c <__mulsf3+0x8c>
80002f5c:	00100713          	li	a4,1
80002f60:	00f717b3          	sll	a5,a4,a5
80002f64:	5307f713          	andi	a4,a5,1328
80002f68:	04071c63          	bnez	a4,80002fc0 <__mulsf3+0x2e0>
80002f6c:	2407f713          	andi	a4,a5,576
80002f70:	0c071663          	bnez	a4,8000303c <__mulsf3+0x35c>
80002f74:	0887f793          	andi	a5,a5,136
80002f78:	e20782e3          	beqz	a5,80002d9c <__mulsf3+0xbc>
80002f7c:	000a8813          	mv	a6,s5
80002f80:	00200613          	li	a2,2
80002f84:	00000793          	li	a5,0
80002f88:	0ff00713          	li	a4,255
80002f8c:	f0c686e3          	beq	a3,a2,80002e98 <__mulsf3+0x1b8>
80002f90:	00300793          	li	a5,3
80002f94:	0af68463          	beq	a3,a5,8000303c <__mulsf3+0x35c>
80002f98:	00100793          	li	a5,1
80002f9c:	eaf69ae3          	bne	a3,a5,80002e50 <__mulsf3+0x170>
80002fa0:	00000793          	li	a5,0
80002fa4:	00000713          	li	a4,0
80002fa8:	ef1ff06f          	j	80002e98 <__mulsf3+0x1b8>
80002fac:	00f00713          	li	a4,15
80002fb0:	00e78e63          	beq	a5,a4,80002fcc <__mulsf3+0x2ec>
80002fb4:	00b00713          	li	a4,11
80002fb8:	fce782e3          	beq	a5,a4,80002f7c <__mulsf3+0x29c>
80002fbc:	00098813          	mv	a6,s3
80002fc0:	00048413          	mv	s0,s1
80002fc4:	000a0693          	mv	a3,s4
80002fc8:	fb9ff06f          	j	80002f80 <__mulsf3+0x2a0>
80002fcc:	00400437          	lui	s0,0x400
80002fd0:	00000813          	li	a6,0
80002fd4:	00300693          	li	a3,3
80002fd8:	fb9ff06f          	j	80002f90 <__mulsf3+0x2b0>
80002fdc:	00090893          	mv	a7,s2
80002fe0:	e71ff06f          	j	80002e50 <__mulsf3+0x170>
80002fe4:	00100793          	li	a5,1
80002fe8:	40e787b3          	sub	a5,a5,a4
80002fec:	01b00713          	li	a4,27
80002ff0:	faf748e3          	blt	a4,a5,80002fa0 <__mulsf3+0x2c0>
80002ff4:	09e88893          	addi	a7,a7,158
80002ff8:	00f457b3          	srl	a5,s0,a5
80002ffc:	01141433          	sll	s0,s0,a7
80003000:	00803433          	snez	s0,s0
80003004:	0087e7b3          	or	a5,a5,s0
80003008:	0077f713          	andi	a4,a5,7
8000300c:	00070a63          	beqz	a4,80003020 <__mulsf3+0x340>
80003010:	00f7f713          	andi	a4,a5,15
80003014:	00400693          	li	a3,4
80003018:	00d70463          	beq	a4,a3,80003020 <__mulsf3+0x340>
8000301c:	00478793          	addi	a5,a5,4
80003020:	04000737          	lui	a4,0x4000
80003024:	00e7f733          	and	a4,a5,a4
80003028:	0037d793          	srli	a5,a5,0x3
8000302c:	e60706e3          	beqz	a4,80002e98 <__mulsf3+0x1b8>
80003030:	00000793          	li	a5,0
80003034:	00100713          	li	a4,1
80003038:	e61ff06f          	j	80002e98 <__mulsf3+0x1b8>
8000303c:	004007b7          	lui	a5,0x400
80003040:	0ff00713          	li	a4,255
80003044:	00000813          	li	a6,0
80003048:	e51ff06f          	j	80002e98 <__mulsf3+0x1b8>
8000304c:	00000793          	li	a5,0
80003050:	0ff00713          	li	a4,255
80003054:	e45ff06f          	j	80002e98 <__mulsf3+0x1b8>

80003058 <__subsf3>:
80003058:	00800737          	lui	a4,0x800
8000305c:	ff010113          	addi	sp,sp,-16
80003060:	fff70713          	addi	a4,a4,-1 # 7fffff <_start-0x7f800001>
80003064:	0175d613          	srli	a2,a1,0x17
80003068:	00a777b3          	and	a5,a4,a0
8000306c:	00812423          	sw	s0,8(sp)
80003070:	00b77733          	and	a4,a4,a1
80003074:	00912223          	sw	s1,4(sp)
80003078:	01755413          	srli	s0,a0,0x17
8000307c:	00112623          	sw	ra,12(sp)
80003080:	01212023          	sw	s2,0(sp)
80003084:	0ff67613          	zext.b	a2,a2
80003088:	0ff00693          	li	a3,255
8000308c:	0ff47413          	zext.b	s0,s0
80003090:	01f55493          	srli	s1,a0,0x1f
80003094:	00379793          	slli	a5,a5,0x3
80003098:	01f5d593          	srli	a1,a1,0x1f
8000309c:	00371713          	slli	a4,a4,0x3
800030a0:	00d61463          	bne	a2,a3,800030a8 <__subsf3+0x50>
800030a4:	00071463          	bnez	a4,800030ac <__subsf3+0x54>
800030a8:	0015c593          	xori	a1,a1,1
800030ac:	40c406b3          	sub	a3,s0,a2
800030b0:	18959a63          	bne	a1,s1,80003244 <__subsf3+0x1ec>
800030b4:	0ad05063          	blez	a3,80003154 <__subsf3+0xfc>
800030b8:	02061663          	bnez	a2,800030e4 <__subsf3+0x8c>
800030bc:	18070063          	beqz	a4,8000323c <__subsf3+0x1e4>
800030c0:	fff68613          	addi	a2,a3,-1 # 7f7fffff <_start-0x800001>
800030c4:	00061863          	bnez	a2,800030d4 <__subsf3+0x7c>
800030c8:	00e787b3          	add	a5,a5,a4
800030cc:	00100413          	li	s0,1
800030d0:	0500006f          	j	80003120 <__subsf3+0xc8>
800030d4:	0ff00593          	li	a1,255
800030d8:	02b69063          	bne	a3,a1,800030f8 <__subsf3+0xa0>
800030dc:	0ff00413          	li	s0,255
800030e0:	1180006f          	j	800031f8 <__subsf3+0x1a0>
800030e4:	0ff00613          	li	a2,255
800030e8:	10c40863          	beq	s0,a2,800031f8 <__subsf3+0x1a0>
800030ec:	04000637          	lui	a2,0x4000
800030f0:	00c76733          	or	a4,a4,a2
800030f4:	00068613          	mv	a2,a3
800030f8:	01b00593          	li	a1,27
800030fc:	00100693          	li	a3,1
80003100:	00c5ce63          	blt	a1,a2,8000311c <__subsf3+0xc4>
80003104:	02000693          	li	a3,32
80003108:	40c686b3          	sub	a3,a3,a2
8000310c:	00c755b3          	srl	a1,a4,a2
80003110:	00d71733          	sll	a4,a4,a3
80003114:	00e03733          	snez	a4,a4
80003118:	00e5e6b3          	or	a3,a1,a4
8000311c:	00d787b3          	add	a5,a5,a3
80003120:	04000737          	lui	a4,0x4000
80003124:	00e7f733          	and	a4,a5,a4
80003128:	0c070863          	beqz	a4,800031f8 <__subsf3+0x1a0>
8000312c:	00140413          	addi	s0,s0,1 # 400001 <_start-0x7fbfffff>
80003130:	0ff00713          	li	a4,255
80003134:	30e40263          	beq	s0,a4,80003438 <__subsf3+0x3e0>
80003138:	7e000737          	lui	a4,0x7e000
8000313c:	0017f693          	andi	a3,a5,1
80003140:	fff70713          	addi	a4,a4,-1 # 7dffffff <_start-0x2000001>
80003144:	0017d793          	srli	a5,a5,0x1
80003148:	00e7f7b3          	and	a5,a5,a4
8000314c:	00d7e7b3          	or	a5,a5,a3
80003150:	0a80006f          	j	800031f8 <__subsf3+0x1a0>
80003154:	06068663          	beqz	a3,800031c0 <__subsf3+0x168>
80003158:	408606b3          	sub	a3,a2,s0
8000315c:	02041063          	bnez	s0,8000317c <__subsf3+0x124>
80003160:	2c078263          	beqz	a5,80003424 <__subsf3+0x3cc>
80003164:	fff68593          	addi	a1,a3,-1
80003168:	f60580e3          	beqz	a1,800030c8 <__subsf3+0x70>
8000316c:	0ff00513          	li	a0,255
80003170:	02a69063          	bne	a3,a0,80003190 <__subsf3+0x138>
80003174:	00070793          	mv	a5,a4
80003178:	f65ff06f          	j	800030dc <__subsf3+0x84>
8000317c:	0ff00593          	li	a1,255
80003180:	feb60ae3          	beq	a2,a1,80003174 <__subsf3+0x11c>
80003184:	040005b7          	lui	a1,0x4000
80003188:	00b7e7b3          	or	a5,a5,a1
8000318c:	00068593          	mv	a1,a3
80003190:	01b00513          	li	a0,27
80003194:	00100693          	li	a3,1
80003198:	00b54e63          	blt	a0,a1,800031b4 <__subsf3+0x15c>
8000319c:	02000693          	li	a3,32
800031a0:	40b686b3          	sub	a3,a3,a1
800031a4:	00b7d533          	srl	a0,a5,a1
800031a8:	00d797b3          	sll	a5,a5,a3
800031ac:	00f037b3          	snez	a5,a5
800031b0:	00f566b3          	or	a3,a0,a5
800031b4:	00e687b3          	add	a5,a3,a4
800031b8:	00060413          	mv	s0,a2
800031bc:	f65ff06f          	j	80003120 <__subsf3+0xc8>
800031c0:	00140693          	addi	a3,s0,1
800031c4:	0fe6f613          	andi	a2,a3,254
800031c8:	06061263          	bnez	a2,8000322c <__subsf3+0x1d4>
800031cc:	04041463          	bnez	s0,80003214 <__subsf3+0x1bc>
800031d0:	24078e63          	beqz	a5,8000342c <__subsf3+0x3d4>
800031d4:	02070263          	beqz	a4,800031f8 <__subsf3+0x1a0>
800031d8:	00e787b3          	add	a5,a5,a4
800031dc:	04000737          	lui	a4,0x4000
800031e0:	00e7f733          	and	a4,a5,a4
800031e4:	00070a63          	beqz	a4,800031f8 <__subsf3+0x1a0>
800031e8:	fc000737          	lui	a4,0xfc000
800031ec:	fff70713          	addi	a4,a4,-1 # fbffffff <__global_pointer$+0x7bff55af>
800031f0:	00e7f7b3          	and	a5,a5,a4
800031f4:	00100413          	li	s0,1
800031f8:	0077f713          	andi	a4,a5,7
800031fc:	24070063          	beqz	a4,8000343c <__subsf3+0x3e4>
80003200:	00f7f713          	andi	a4,a5,15
80003204:	00400693          	li	a3,4
80003208:	22d70a63          	beq	a4,a3,8000343c <__subsf3+0x3e4>
8000320c:	00478793          	addi	a5,a5,4 # 400004 <_start-0x7fbffffc>
80003210:	22c0006f          	j	8000343c <__subsf3+0x3e4>
80003214:	f60780e3          	beqz	a5,80003174 <__subsf3+0x11c>
80003218:	ec0702e3          	beqz	a4,800030dc <__subsf3+0x84>
8000321c:	00000493          	li	s1,0
80003220:	020007b7          	lui	a5,0x2000
80003224:	0ff00413          	li	s0,255
80003228:	2140006f          	j	8000343c <__subsf3+0x3e4>
8000322c:	0ff00613          	li	a2,255
80003230:	20c68263          	beq	a3,a2,80003434 <__subsf3+0x3dc>
80003234:	00e78733          	add	a4,a5,a4
80003238:	00175793          	srli	a5,a4,0x1
8000323c:	00068413          	mv	s0,a3
80003240:	fb9ff06f          	j	800031f8 <__subsf3+0x1a0>
80003244:	08d05063          	blez	a3,800032c4 <__subsf3+0x26c>
80003248:	06061263          	bnez	a2,800032ac <__subsf3+0x254>
8000324c:	fe0708e3          	beqz	a4,8000323c <__subsf3+0x1e4>
80003250:	fff68613          	addi	a2,a3,-1
80003254:	00061863          	bnez	a2,80003264 <__subsf3+0x20c>
80003258:	40e787b3          	sub	a5,a5,a4
8000325c:	00100413          	li	s0,1
80003260:	0340006f          	j	80003294 <__subsf3+0x23c>
80003264:	0ff00593          	li	a1,255
80003268:	e6b68ae3          	beq	a3,a1,800030dc <__subsf3+0x84>
8000326c:	01b00593          	li	a1,27
80003270:	00100693          	li	a3,1
80003274:	00c5ce63          	blt	a1,a2,80003290 <__subsf3+0x238>
80003278:	02000693          	li	a3,32
8000327c:	40c686b3          	sub	a3,a3,a2
80003280:	00c755b3          	srl	a1,a4,a2
80003284:	00d71733          	sll	a4,a4,a3
80003288:	00e03733          	snez	a4,a4
8000328c:	00e5e6b3          	or	a3,a1,a4
80003290:	40d787b3          	sub	a5,a5,a3
80003294:	04000937          	lui	s2,0x4000
80003298:	0127f733          	and	a4,a5,s2
8000329c:	f4070ee3          	beqz	a4,800031f8 <__subsf3+0x1a0>
800032a0:	fff90913          	addi	s2,s2,-1 # 3ffffff <_start-0x7c000001>
800032a4:	0127f933          	and	s2,a5,s2
800032a8:	1180006f          	j	800033c0 <__subsf3+0x368>
800032ac:	0ff00613          	li	a2,255
800032b0:	f4c404e3          	beq	s0,a2,800031f8 <__subsf3+0x1a0>
800032b4:	04000637          	lui	a2,0x4000
800032b8:	00c76733          	or	a4,a4,a2
800032bc:	00068613          	mv	a2,a3
800032c0:	fadff06f          	j	8000326c <__subsf3+0x214>
800032c4:	08068063          	beqz	a3,80003344 <__subsf3+0x2ec>
800032c8:	408606b3          	sub	a3,a2,s0
800032cc:	02041863          	bnez	s0,800032fc <__subsf3+0x2a4>
800032d0:	1e078063          	beqz	a5,800034b0 <__subsf3+0x458>
800032d4:	fff68513          	addi	a0,a3,-1
800032d8:	00051863          	bnez	a0,800032e8 <__subsf3+0x290>
800032dc:	40f707b3          	sub	a5,a4,a5
800032e0:	00058493          	mv	s1,a1
800032e4:	f79ff06f          	j	8000325c <__subsf3+0x204>
800032e8:	0ff00813          	li	a6,255
800032ec:	03069263          	bne	a3,a6,80003310 <__subsf3+0x2b8>
800032f0:	00070793          	mv	a5,a4
800032f4:	0ff00413          	li	s0,255
800032f8:	06c0006f          	j	80003364 <__subsf3+0x30c>
800032fc:	0ff00513          	li	a0,255
80003300:	fea608e3          	beq	a2,a0,800032f0 <__subsf3+0x298>
80003304:	04000537          	lui	a0,0x4000
80003308:	00a7e7b3          	or	a5,a5,a0
8000330c:	00068513          	mv	a0,a3
80003310:	01b00813          	li	a6,27
80003314:	00100693          	li	a3,1
80003318:	00a84e63          	blt	a6,a0,80003334 <__subsf3+0x2dc>
8000331c:	02000693          	li	a3,32
80003320:	40a686b3          	sub	a3,a3,a0
80003324:	00a7d833          	srl	a6,a5,a0
80003328:	00d797b3          	sll	a5,a5,a3
8000332c:	00f037b3          	snez	a5,a5
80003330:	00f866b3          	or	a3,a6,a5
80003334:	40d707b3          	sub	a5,a4,a3
80003338:	00060413          	mv	s0,a2
8000333c:	00058493          	mv	s1,a1
80003340:	f55ff06f          	j	80003294 <__subsf3+0x23c>
80003344:	00140693          	addi	a3,s0,1
80003348:	0fe6f693          	andi	a3,a3,254
8000334c:	04069e63          	bnez	a3,800033a8 <__subsf3+0x350>
80003350:	04041263          	bnez	s0,80003394 <__subsf3+0x33c>
80003354:	00079c63          	bnez	a5,8000336c <__subsf3+0x314>
80003358:	00000493          	li	s1,0
8000335c:	0e070063          	beqz	a4,8000343c <__subsf3+0x3e4>
80003360:	00070793          	mv	a5,a4
80003364:	00058493          	mv	s1,a1
80003368:	e91ff06f          	j	800031f8 <__subsf3+0x1a0>
8000336c:	e80706e3          	beqz	a4,800031f8 <__subsf3+0x1a0>
80003370:	40e786b3          	sub	a3,a5,a4
80003374:	04000637          	lui	a2,0x4000
80003378:	00c6f633          	and	a2,a3,a2
8000337c:	40f707b3          	sub	a5,a4,a5
80003380:	fe0612e3          	bnez	a2,80003364 <__subsf3+0x30c>
80003384:	00000793          	li	a5,0
80003388:	08068063          	beqz	a3,80003408 <__subsf3+0x3b0>
8000338c:	00068793          	mv	a5,a3
80003390:	e69ff06f          	j	800031f8 <__subsf3+0x1a0>
80003394:	e80792e3          	bnez	a5,80003218 <__subsf3+0x1c0>
80003398:	e80702e3          	beqz	a4,8000321c <__subsf3+0x1c4>
8000339c:	00070793          	mv	a5,a4
800033a0:	00058493          	mv	s1,a1
800033a4:	d39ff06f          	j	800030dc <__subsf3+0x84>
800033a8:	40e78933          	sub	s2,a5,a4
800033ac:	040006b7          	lui	a3,0x4000
800033b0:	00d976b3          	and	a3,s2,a3
800033b4:	04068463          	beqz	a3,800033fc <__subsf3+0x3a4>
800033b8:	40f70933          	sub	s2,a4,a5
800033bc:	00058493          	mv	s1,a1
800033c0:	00090513          	mv	a0,s2
800033c4:	49c000ef          	jal	ra,80003860 <__clzsi2>
800033c8:	ffb50513          	addi	a0,a0,-5 # 3fffffb <_start-0x7c000005>
800033cc:	00a91933          	sll	s2,s2,a0
800033d0:	04854063          	blt	a0,s0,80003410 <__subsf3+0x3b8>
800033d4:	40850533          	sub	a0,a0,s0
800033d8:	00150513          	addi	a0,a0,1
800033dc:	02000713          	li	a4,32
800033e0:	40a70733          	sub	a4,a4,a0
800033e4:	00a957b3          	srl	a5,s2,a0
800033e8:	00e91933          	sll	s2,s2,a4
800033ec:	01203933          	snez	s2,s2
800033f0:	0127e7b3          	or	a5,a5,s2
800033f4:	00000413          	li	s0,0
800033f8:	e01ff06f          	j	800031f8 <__subsf3+0x1a0>
800033fc:	fc0912e3          	bnez	s2,800033c0 <__subsf3+0x368>
80003400:	00000793          	li	a5,0
80003404:	00000413          	li	s0,0
80003408:	00000493          	li	s1,0
8000340c:	0300006f          	j	8000343c <__subsf3+0x3e4>
80003410:	fc0007b7          	lui	a5,0xfc000
80003414:	fff78793          	addi	a5,a5,-1 # fbffffff <__global_pointer$+0x7bff55af>
80003418:	40a40433          	sub	s0,s0,a0
8000341c:	00f977b3          	and	a5,s2,a5
80003420:	dd9ff06f          	j	800031f8 <__subsf3+0x1a0>
80003424:	00070793          	mv	a5,a4
80003428:	e15ff06f          	j	8000323c <__subsf3+0x1e4>
8000342c:	00070793          	mv	a5,a4
80003430:	dc9ff06f          	j	800031f8 <__subsf3+0x1a0>
80003434:	0ff00413          	li	s0,255
80003438:	00000793          	li	a5,0
8000343c:	04000737          	lui	a4,0x4000
80003440:	00e7f733          	and	a4,a5,a4
80003444:	00070e63          	beqz	a4,80003460 <__subsf3+0x408>
80003448:	00140413          	addi	s0,s0,1
8000344c:	0ff00713          	li	a4,255
80003450:	06e40663          	beq	s0,a4,800034bc <__subsf3+0x464>
80003454:	fc000737          	lui	a4,0xfc000
80003458:	fff70713          	addi	a4,a4,-1 # fbffffff <__global_pointer$+0x7bff55af>
8000345c:	00e7f7b3          	and	a5,a5,a4
80003460:	0ff00713          	li	a4,255
80003464:	0037d793          	srli	a5,a5,0x3
80003468:	00e41863          	bne	s0,a4,80003478 <__subsf3+0x420>
8000346c:	00078663          	beqz	a5,80003478 <__subsf3+0x420>
80003470:	004007b7          	lui	a5,0x400
80003474:	00000493          	li	s1,0
80003478:	01741413          	slli	s0,s0,0x17
8000347c:	7f800737          	lui	a4,0x7f800
80003480:	00979793          	slli	a5,a5,0x9
80003484:	00e47433          	and	s0,s0,a4
80003488:	0097d793          	srli	a5,a5,0x9
8000348c:	00f46433          	or	s0,s0,a5
80003490:	01f49513          	slli	a0,s1,0x1f
80003494:	00c12083          	lw	ra,12(sp)
80003498:	00a46533          	or	a0,s0,a0
8000349c:	00812403          	lw	s0,8(sp)
800034a0:	00412483          	lw	s1,4(sp)
800034a4:	00012903          	lw	s2,0(sp)
800034a8:	01010113          	addi	sp,sp,16
800034ac:	00008067          	ret
800034b0:	00070793          	mv	a5,a4
800034b4:	00068413          	mv	s0,a3
800034b8:	eadff06f          	j	80003364 <__subsf3+0x30c>
800034bc:	00000793          	li	a5,0
800034c0:	fa1ff06f          	j	80003460 <__subsf3+0x408>

800034c4 <__fixunssfsi>:
800034c4:	01755793          	srli	a5,a0,0x17
800034c8:	00800637          	lui	a2,0x800
800034cc:	fff60693          	addi	a3,a2,-1 # 7fffff <_start-0x7f800001>
800034d0:	0ff7f793          	zext.b	a5,a5
800034d4:	07e00593          	li	a1,126
800034d8:	00a6f6b3          	and	a3,a3,a0
800034dc:	01f55713          	srli	a4,a0,0x1f
800034e0:	00000513          	li	a0,0
800034e4:	04f5d063          	bge	a1,a5,80003524 <__fixunssfsi+0x60>
800034e8:	00071863          	bnez	a4,800034f8 <__fixunssfsi+0x34>
800034ec:	09e00713          	li	a4,158
800034f0:	fff00513          	li	a0,-1
800034f4:	00f75463          	bge	a4,a5,800034fc <__fixunssfsi+0x38>
800034f8:	00008067          	ret
800034fc:	09500713          	li	a4,149
80003500:	00c6e533          	or	a0,a3,a2
80003504:	00f75863          	bge	a4,a5,80003514 <__fixunssfsi+0x50>
80003508:	f6a78793          	addi	a5,a5,-150 # 3fff6a <_start-0x7fc00096>
8000350c:	00f51533          	sll	a0,a0,a5
80003510:	00008067          	ret
80003514:	09600713          	li	a4,150
80003518:	40f707b3          	sub	a5,a4,a5
8000351c:	00f55533          	srl	a0,a0,a5
80003520:	00008067          	ret
80003524:	00008067          	ret

80003528 <__extendsfdf2>:
80003528:	01755713          	srli	a4,a0,0x17
8000352c:	0ff77713          	zext.b	a4,a4
80003530:	ff010113          	addi	sp,sp,-16
80003534:	00170793          	addi	a5,a4,1 # 7f800001 <_start-0x7fffff>
80003538:	00812423          	sw	s0,8(sp)
8000353c:	00912223          	sw	s1,4(sp)
80003540:	00951413          	slli	s0,a0,0x9
80003544:	00112623          	sw	ra,12(sp)
80003548:	0fe7f793          	andi	a5,a5,254
8000354c:	00945413          	srli	s0,s0,0x9
80003550:	01f55493          	srli	s1,a0,0x1f
80003554:	04078263          	beqz	a5,80003598 <__extendsfdf2+0x70>
80003558:	00345793          	srli	a5,s0,0x3
8000355c:	38070713          	addi	a4,a4,896
80003560:	01d41413          	slli	s0,s0,0x1d
80003564:	00c79793          	slli	a5,a5,0xc
80003568:	00c7d793          	srli	a5,a5,0xc
8000356c:	01471713          	slli	a4,a4,0x14
80003570:	01f49513          	slli	a0,s1,0x1f
80003574:	00f76733          	or	a4,a4,a5
80003578:	00c12083          	lw	ra,12(sp)
8000357c:	00a767b3          	or	a5,a4,a0
80003580:	00040513          	mv	a0,s0
80003584:	00812403          	lw	s0,8(sp)
80003588:	00412483          	lw	s1,4(sp)
8000358c:	00078593          	mv	a1,a5
80003590:	01010113          	addi	sp,sp,16
80003594:	00008067          	ret
80003598:	04071663          	bnez	a4,800035e4 <__extendsfdf2+0xbc>
8000359c:	00000793          	li	a5,0
800035a0:	fc0402e3          	beqz	s0,80003564 <__extendsfdf2+0x3c>
800035a4:	00040513          	mv	a0,s0
800035a8:	2b8000ef          	jal	ra,80003860 <__clzsi2>
800035ac:	00a00793          	li	a5,10
800035b0:	02a7c263          	blt	a5,a0,800035d4 <__extendsfdf2+0xac>
800035b4:	00b00793          	li	a5,11
800035b8:	40a787b3          	sub	a5,a5,a0
800035bc:	01550713          	addi	a4,a0,21
800035c0:	00f457b3          	srl	a5,s0,a5
800035c4:	00e41433          	sll	s0,s0,a4
800035c8:	38900713          	li	a4,905
800035cc:	40a70733          	sub	a4,a4,a0
800035d0:	f95ff06f          	j	80003564 <__extendsfdf2+0x3c>
800035d4:	ff550793          	addi	a5,a0,-11
800035d8:	00f417b3          	sll	a5,s0,a5
800035dc:	00000413          	li	s0,0
800035e0:	fe9ff06f          	j	800035c8 <__extendsfdf2+0xa0>
800035e4:	00000793          	li	a5,0
800035e8:	00040a63          	beqz	s0,800035fc <__extendsfdf2+0xd4>
800035ec:	00345793          	srli	a5,s0,0x3
800035f0:	00080737          	lui	a4,0x80
800035f4:	01d41413          	slli	s0,s0,0x1d
800035f8:	00e7e7b3          	or	a5,a5,a4
800035fc:	7ff00713          	li	a4,2047
80003600:	f65ff06f          	j	80003564 <__extendsfdf2+0x3c>

80003604 <__truncdfsf2>:
80003604:	0145d613          	srli	a2,a1,0x14
80003608:	7ff67613          	andi	a2,a2,2047
8000360c:	00c59793          	slli	a5,a1,0xc
80003610:	00160713          	addi	a4,a2,1
80003614:	0097d793          	srli	a5,a5,0x9
80003618:	01d55693          	srli	a3,a0,0x1d
8000361c:	7fe77713          	andi	a4,a4,2046
80003620:	00f6e6b3          	or	a3,a3,a5
80003624:	01f5d593          	srli	a1,a1,0x1f
80003628:	00351793          	slli	a5,a0,0x3
8000362c:	0a070663          	beqz	a4,800036d8 <__truncdfsf2+0xd4>
80003630:	c8060713          	addi	a4,a2,-896
80003634:	0fe00813          	li	a6,254
80003638:	0ce84263          	blt	a6,a4,800036fc <__truncdfsf2+0xf8>
8000363c:	08e04063          	bgtz	a4,800036bc <__truncdfsf2+0xb8>
80003640:	fe900513          	li	a0,-23
80003644:	12a74063          	blt	a4,a0,80003764 <__truncdfsf2+0x160>
80003648:	00800537          	lui	a0,0x800
8000364c:	00a6e6b3          	or	a3,a3,a0
80003650:	01e00513          	li	a0,30
80003654:	40e50533          	sub	a0,a0,a4
80003658:	01f00813          	li	a6,31
8000365c:	02a84863          	blt	a6,a0,8000368c <__truncdfsf2+0x88>
80003660:	c8260613          	addi	a2,a2,-894
80003664:	00a7d533          	srl	a0,a5,a0
80003668:	00c797b3          	sll	a5,a5,a2
8000366c:	00f037b3          	snez	a5,a5
80003670:	00c696b3          	sll	a3,a3,a2
80003674:	00d7e7b3          	or	a5,a5,a3
80003678:	00f567b3          	or	a5,a0,a5
8000367c:	00000713          	li	a4,0
80003680:	0077f693          	andi	a3,a5,7
80003684:	08068063          	beqz	a3,80003704 <__truncdfsf2+0x100>
80003688:	0e40006f          	j	8000376c <__truncdfsf2+0x168>
8000368c:	ffe00813          	li	a6,-2
80003690:	40e80833          	sub	a6,a6,a4
80003694:	02000893          	li	a7,32
80003698:	0106d833          	srl	a6,a3,a6
8000369c:	00000713          	li	a4,0
800036a0:	01150663          	beq	a0,a7,800036ac <__truncdfsf2+0xa8>
800036a4:	ca260613          	addi	a2,a2,-862
800036a8:	00c69733          	sll	a4,a3,a2
800036ac:	00f76733          	or	a4,a4,a5
800036b0:	00e03733          	snez	a4,a4
800036b4:	00e867b3          	or	a5,a6,a4
800036b8:	fc5ff06f          	j	8000367c <__truncdfsf2+0x78>
800036bc:	00651513          	slli	a0,a0,0x6
800036c0:	00a03533          	snez	a0,a0
800036c4:	00369693          	slli	a3,a3,0x3
800036c8:	01d7d793          	srli	a5,a5,0x1d
800036cc:	00d566b3          	or	a3,a0,a3
800036d0:	00f6e7b3          	or	a5,a3,a5
800036d4:	fadff06f          	j	80003680 <__truncdfsf2+0x7c>
800036d8:	00f6e7b3          	or	a5,a3,a5
800036dc:	00061663          	bnez	a2,800036e8 <__truncdfsf2+0xe4>
800036e0:	00f037b3          	snez	a5,a5
800036e4:	f99ff06f          	j	8000367c <__truncdfsf2+0x78>
800036e8:	0ff00713          	li	a4,255
800036ec:	00078c63          	beqz	a5,80003704 <__truncdfsf2+0x100>
800036f0:	00369693          	slli	a3,a3,0x3
800036f4:	020007b7          	lui	a5,0x2000
800036f8:	fd9ff06f          	j	800036d0 <__truncdfsf2+0xcc>
800036fc:	00000793          	li	a5,0
80003700:	0ff00713          	li	a4,255
80003704:	040006b7          	lui	a3,0x4000
80003708:	00d7f6b3          	and	a3,a5,a3
8000370c:	00068e63          	beqz	a3,80003728 <__truncdfsf2+0x124>
80003710:	00170713          	addi	a4,a4,1 # 80001 <_start-0x7ff7ffff>
80003714:	0ff00693          	li	a3,255
80003718:	06d70463          	beq	a4,a3,80003780 <__truncdfsf2+0x17c>
8000371c:	fc0006b7          	lui	a3,0xfc000
80003720:	fff68693          	addi	a3,a3,-1 # fbffffff <__global_pointer$+0x7bff55af>
80003724:	00d7f7b3          	and	a5,a5,a3
80003728:	0ff00693          	li	a3,255
8000372c:	0037d793          	srli	a5,a5,0x3
80003730:	00d71863          	bne	a4,a3,80003740 <__truncdfsf2+0x13c>
80003734:	00078663          	beqz	a5,80003740 <__truncdfsf2+0x13c>
80003738:	004007b7          	lui	a5,0x400
8000373c:	00000593          	li	a1,0
80003740:	7f8006b7          	lui	a3,0x7f800
80003744:	01771713          	slli	a4,a4,0x17
80003748:	00979793          	slli	a5,a5,0x9
8000374c:	00d77733          	and	a4,a4,a3
80003750:	0097d793          	srli	a5,a5,0x9
80003754:	00f76733          	or	a4,a4,a5
80003758:	01f59513          	slli	a0,a1,0x1f
8000375c:	00a76533          	or	a0,a4,a0
80003760:	00008067          	ret
80003764:	00100793          	li	a5,1
80003768:	00000713          	li	a4,0
8000376c:	00f7f693          	andi	a3,a5,15
80003770:	00400613          	li	a2,4
80003774:	f8c688e3          	beq	a3,a2,80003704 <__truncdfsf2+0x100>
80003778:	00478793          	addi	a5,a5,4 # 400004 <_start-0x7fbffffc>
8000377c:	f89ff06f          	j	80003704 <__truncdfsf2+0x100>
80003780:	00000793          	li	a5,0
80003784:	fa5ff06f          	j	80003728 <__truncdfsf2+0x124>

80003788 <__mulsi3>:
80003788:	00050613          	mv	a2,a0
8000378c:	00000513          	li	a0,0
80003790:	0015f693          	andi	a3,a1,1
80003794:	00068463          	beqz	a3,8000379c <__mulsi3+0x14>
80003798:	00c50533          	add	a0,a0,a2
8000379c:	0015d593          	srli	a1,a1,0x1
800037a0:	00161613          	slli	a2,a2,0x1
800037a4:	fe0596e3          	bnez	a1,80003790 <__mulsi3+0x8>
800037a8:	00008067          	ret

800037ac <__divsi3>:
800037ac:	06054063          	bltz	a0,8000380c <__umodsi3+0x10>
800037b0:	0605c663          	bltz	a1,8000381c <__umodsi3+0x20>

800037b4 <__udivsi3>:
800037b4:	00058613          	mv	a2,a1
800037b8:	00050593          	mv	a1,a0
800037bc:	fff00513          	li	a0,-1
800037c0:	02060c63          	beqz	a2,800037f8 <__udivsi3+0x44>
800037c4:	00100693          	li	a3,1
800037c8:	00b67a63          	bgeu	a2,a1,800037dc <__udivsi3+0x28>
800037cc:	00c05863          	blez	a2,800037dc <__udivsi3+0x28>
800037d0:	00161613          	slli	a2,a2,0x1
800037d4:	00169693          	slli	a3,a3,0x1
800037d8:	feb66ae3          	bltu	a2,a1,800037cc <__udivsi3+0x18>
800037dc:	00000513          	li	a0,0
800037e0:	00c5e663          	bltu	a1,a2,800037ec <__udivsi3+0x38>
800037e4:	40c585b3          	sub	a1,a1,a2
800037e8:	00d56533          	or	a0,a0,a3
800037ec:	0016d693          	srli	a3,a3,0x1
800037f0:	00165613          	srli	a2,a2,0x1
800037f4:	fe0696e3          	bnez	a3,800037e0 <__udivsi3+0x2c>
800037f8:	00008067          	ret

800037fc <__umodsi3>:
800037fc:	00008293          	mv	t0,ra
80003800:	fb5ff0ef          	jal	ra,800037b4 <__udivsi3>
80003804:	00058513          	mv	a0,a1
80003808:	00028067          	jr	t0 # 80000248 <memset+0xb4>
8000380c:	40a00533          	neg	a0,a0
80003810:	00b04863          	bgtz	a1,80003820 <__umodsi3+0x24>
80003814:	40b005b3          	neg	a1,a1
80003818:	f9dff06f          	j	800037b4 <__udivsi3>
8000381c:	40b005b3          	neg	a1,a1
80003820:	00008293          	mv	t0,ra
80003824:	f91ff0ef          	jal	ra,800037b4 <__udivsi3>
80003828:	40a00533          	neg	a0,a0
8000382c:	00028067          	jr	t0

80003830 <__modsi3>:
80003830:	00008293          	mv	t0,ra
80003834:	0005ca63          	bltz	a1,80003848 <__modsi3+0x18>
80003838:	00054c63          	bltz	a0,80003850 <__modsi3+0x20>
8000383c:	f79ff0ef          	jal	ra,800037b4 <__udivsi3>
80003840:	00058513          	mv	a0,a1
80003844:	00028067          	jr	t0
80003848:	40b005b3          	neg	a1,a1
8000384c:	fe0558e3          	bgez	a0,8000383c <__modsi3+0xc>
80003850:	40a00533          	neg	a0,a0
80003854:	f61ff0ef          	jal	ra,800037b4 <__udivsi3>
80003858:	40b00533          	neg	a0,a1
8000385c:	00028067          	jr	t0

80003860 <__clzsi2>:
80003860:	000107b7          	lui	a5,0x10
80003864:	02f57a63          	bgeu	a0,a5,80003898 <__clzsi2+0x38>
80003868:	10053793          	sltiu	a5,a0,256
8000386c:	0017c793          	xori	a5,a5,1
80003870:	00379793          	slli	a5,a5,0x3
80003874:	80009737          	lui	a4,0x80009
80003878:	02000693          	li	a3,32
8000387c:	40f686b3          	sub	a3,a3,a5
80003880:	00f55533          	srl	a0,a0,a5
80003884:	77870793          	addi	a5,a4,1912 # 80009778 <__global_pointer$+0xffffed28>
80003888:	00a787b3          	add	a5,a5,a0
8000388c:	0007c503          	lbu	a0,0(a5) # 10000 <_start-0x7fff0000>
80003890:	40a68533          	sub	a0,a3,a0
80003894:	00008067          	ret
80003898:	01000737          	lui	a4,0x1000
8000389c:	01000793          	li	a5,16
800038a0:	fce56ae3          	bltu	a0,a4,80003874 <__clzsi2+0x14>
800038a4:	01800793          	li	a5,24
800038a8:	fcdff06f          	j	80003874 <__clzsi2+0x14>

800038ac <__eqdf2>:
800038ac:	0145d713          	srli	a4,a1,0x14
800038b0:	001007b7          	lui	a5,0x100
800038b4:	fff78793          	addi	a5,a5,-1 # fffff <_start-0x7ff00001>
800038b8:	0146d813          	srli	a6,a3,0x14
800038bc:	00050313          	mv	t1,a0
800038c0:	00050e93          	mv	t4,a0
800038c4:	7ff77713          	andi	a4,a4,2047
800038c8:	7ff00513          	li	a0,2047
800038cc:	00b7f8b3          	and	a7,a5,a1
800038d0:	00060f13          	mv	t5,a2
800038d4:	00d7f7b3          	and	a5,a5,a3
800038d8:	01f5d593          	srli	a1,a1,0x1f
800038dc:	7ff87813          	andi	a6,a6,2047
800038e0:	01f6d693          	srli	a3,a3,0x1f
800038e4:	00a71c63          	bne	a4,a0,800038fc <__eqdf2+0x50>
800038e8:	0068ee33          	or	t3,a7,t1
800038ec:	00100513          	li	a0,1
800038f0:	000e1463          	bnez	t3,800038f8 <__eqdf2+0x4c>
800038f4:	00e80663          	beq	a6,a4,80003900 <__eqdf2+0x54>
800038f8:	00008067          	ret
800038fc:	00a81863          	bne	a6,a0,8000390c <__eqdf2+0x60>
80003900:	00c7e633          	or	a2,a5,a2
80003904:	00100513          	li	a0,1
80003908:	fe0618e3          	bnez	a2,800038f8 <__eqdf2+0x4c>
8000390c:	00100513          	li	a0,1
80003910:	ff0714e3          	bne	a4,a6,800038f8 <__eqdf2+0x4c>
80003914:	fef892e3          	bne	a7,a5,800038f8 <__eqdf2+0x4c>
80003918:	ffee90e3          	bne	t4,t5,800038f8 <__eqdf2+0x4c>
8000391c:	00d58a63          	beq	a1,a3,80003930 <__eqdf2+0x84>
80003920:	fc071ce3          	bnez	a4,800038f8 <__eqdf2+0x4c>
80003924:	0068e8b3          	or	a7,a7,t1
80003928:	01103533          	snez	a0,a7
8000392c:	00008067          	ret
80003930:	00000513          	li	a0,0
80003934:	00008067          	ret

80003938 <__eqsf2>:
80003938:	01755693          	srli	a3,a0,0x17
8000393c:	008007b7          	lui	a5,0x800
80003940:	fff78793          	addi	a5,a5,-1 # 7fffff <_start-0x7f800001>
80003944:	0175d613          	srli	a2,a1,0x17
80003948:	0ff6f693          	zext.b	a3,a3
8000394c:	0ff00893          	li	a7,255
80003950:	00a7f833          	and	a6,a5,a0
80003954:	01f55713          	srli	a4,a0,0x1f
80003958:	00b7f7b3          	and	a5,a5,a1
8000395c:	0ff67613          	zext.b	a2,a2
80003960:	01f5d593          	srli	a1,a1,0x1f
80003964:	00100513          	li	a0,1
80003968:	01169a63          	bne	a3,a7,8000397c <__eqsf2+0x44>
8000396c:	00081663          	bnez	a6,80003978 <__eqsf2+0x40>
80003970:	00d61463          	bne	a2,a3,80003978 <__eqsf2+0x40>
80003974:	00078a63          	beqz	a5,80003988 <__eqsf2+0x50>
80003978:	00008067          	ret
8000397c:	ff160ee3          	beq	a2,a7,80003978 <__eqsf2+0x40>
80003980:	fec69ce3          	bne	a3,a2,80003978 <__eqsf2+0x40>
80003984:	fef81ae3          	bne	a6,a5,80003978 <__eqsf2+0x40>
80003988:	00000513          	li	a0,0
8000398c:	feb706e3          	beq	a4,a1,80003978 <__eqsf2+0x40>
80003990:	00100513          	li	a0,1
80003994:	fe0692e3          	bnez	a3,80003978 <__eqsf2+0x40>
80003998:	01003533          	snez	a0,a6
8000399c:	00008067          	ret

800039a0 <__unordsf2>:
800039a0:	008007b7          	lui	a5,0x800
800039a4:	fff78793          	addi	a5,a5,-1 # 7fffff <_start-0x7f800001>
800039a8:	00a7f733          	and	a4,a5,a0
800039ac:	01755513          	srli	a0,a0,0x17
800039b0:	00b7f7b3          	and	a5,a5,a1
800039b4:	0ff57513          	zext.b	a0,a0
800039b8:	0175d593          	srli	a1,a1,0x17
800039bc:	0ff00693          	li	a3,255
800039c0:	0ff5f593          	zext.b	a1,a1
800039c4:	00d51663          	bne	a0,a3,800039d0 <__unordsf2+0x30>
800039c8:	00100513          	li	a0,1
800039cc:	00071a63          	bnez	a4,800039e0 <__unordsf2+0x40>
800039d0:	0ff00713          	li	a4,255
800039d4:	00000513          	li	a0,0
800039d8:	00e59463          	bne	a1,a4,800039e0 <__unordsf2+0x40>
800039dc:	00f03533          	snez	a0,a5
800039e0:	00008067          	ret

800039e4 <__floatsisf>:
800039e4:	0e050863          	beqz	a0,80003ad4 <__floatsisf+0xf0>
800039e8:	41f55793          	srai	a5,a0,0x1f
800039ec:	ff010113          	addi	sp,sp,-16
800039f0:	00812423          	sw	s0,8(sp)
800039f4:	00a7c433          	xor	s0,a5,a0
800039f8:	40f40433          	sub	s0,s0,a5
800039fc:	00912223          	sw	s1,4(sp)
80003a00:	01f55493          	srli	s1,a0,0x1f
80003a04:	00040513          	mv	a0,s0
80003a08:	00112623          	sw	ra,12(sp)
80003a0c:	e55ff0ef          	jal	ra,80003860 <__clzsi2>
80003a10:	09e00713          	li	a4,158
80003a14:	40a70733          	sub	a4,a4,a0
80003a18:	09600793          	li	a5,150
80003a1c:	02e7cc63          	blt	a5,a4,80003a54 <__floatsisf+0x70>
80003a20:	ff850513          	addi	a0,a0,-8 # 7ffff8 <_start-0x7f800008>
80003a24:	00a417b3          	sll	a5,s0,a0
80003a28:	00c12083          	lw	ra,12(sp)
80003a2c:	00812403          	lw	s0,8(sp)
80003a30:	00979793          	slli	a5,a5,0x9
80003a34:	01771713          	slli	a4,a4,0x17
80003a38:	0097d793          	srli	a5,a5,0x9
80003a3c:	01f49513          	slli	a0,s1,0x1f
80003a40:	00f76733          	or	a4,a4,a5
80003a44:	00412483          	lw	s1,4(sp)
80003a48:	00a76533          	or	a0,a4,a0
80003a4c:	01010113          	addi	sp,sp,16
80003a50:	00008067          	ret
80003a54:	09900793          	li	a5,153
80003a58:	02e7d063          	bge	a5,a4,80003a78 <__floatsisf+0x94>
80003a5c:	00500793          	li	a5,5
80003a60:	40a787b3          	sub	a5,a5,a0
80003a64:	01b50693          	addi	a3,a0,27
80003a68:	00f457b3          	srl	a5,s0,a5
80003a6c:	00d41433          	sll	s0,s0,a3
80003a70:	00803433          	snez	s0,s0
80003a74:	0087e433          	or	s0,a5,s0
80003a78:	00500793          	li	a5,5
80003a7c:	00a7d663          	bge	a5,a0,80003a88 <__floatsisf+0xa4>
80003a80:	ffb50793          	addi	a5,a0,-5
80003a84:	00f41433          	sll	s0,s0,a5
80003a88:	fc0007b7          	lui	a5,0xfc000
80003a8c:	fff78793          	addi	a5,a5,-1 # fbffffff <__global_pointer$+0x7bff55af>
80003a90:	00747693          	andi	a3,s0,7
80003a94:	00f477b3          	and	a5,s0,a5
80003a98:	00068a63          	beqz	a3,80003aac <__floatsisf+0xc8>
80003a9c:	00f47413          	andi	s0,s0,15
80003aa0:	00400693          	li	a3,4
80003aa4:	00d40463          	beq	s0,a3,80003aac <__floatsisf+0xc8>
80003aa8:	00478793          	addi	a5,a5,4
80003aac:	040006b7          	lui	a3,0x4000
80003ab0:	00d7f6b3          	and	a3,a5,a3
80003ab4:	00068c63          	beqz	a3,80003acc <__floatsisf+0xe8>
80003ab8:	fc000737          	lui	a4,0xfc000
80003abc:	fff70713          	addi	a4,a4,-1 # fbffffff <__global_pointer$+0x7bff55af>
80003ac0:	00e7f7b3          	and	a5,a5,a4
80003ac4:	09f00713          	li	a4,159
80003ac8:	40a70733          	sub	a4,a4,a0
80003acc:	0037d793          	srli	a5,a5,0x3
80003ad0:	f59ff06f          	j	80003a28 <__floatsisf+0x44>
80003ad4:	00000793          	li	a5,0
80003ad8:	00000713          	li	a4,0
80003adc:	00979793          	slli	a5,a5,0x9
80003ae0:	0097d793          	srli	a5,a5,0x9
80003ae4:	01771713          	slli	a4,a4,0x17
80003ae8:	00f76733          	or	a4,a4,a5
80003aec:	01f51513          	slli	a0,a0,0x1f
80003af0:	00a76533          	or	a0,a4,a0
80003af4:	00008067          	ret

80003af8 <_Z18graphics_set_pixeliifff>:
80003af8:	fe010113          	addi	sp,sp,-32
80003afc:	01312623          	sw	s3,12(sp)
80003b00:	00050993          	mv	s3,a0
80003b04:	00006517          	auipc	a0,0x6
80003b08:	d7450513          	addi	a0,a0,-652 # 80009878 <__clz_tab+0x100>
80003b0c:	00812c23          	sw	s0,24(sp)
80003b10:	00912a23          	sw	s1,20(sp)
80003b14:	01212823          	sw	s2,16(sp)
80003b18:	01412423          	sw	s4,8(sp)
80003b1c:	00112e23          	sw	ra,28(sp)
80003b20:	00060493          	mv	s1,a2
80003b24:	00068413          	mv	s0,a3
80003b28:	00070913          	mv	s2,a4
80003b2c:	491020ef          	jal	ra,800067bc <_Z9UARTWritePKc>
80003b30:	00006797          	auipc	a5,0x6
80003b34:	73c7aa03          	lw	s4,1852(a5) # 8000a26c <_ZL15forceduartflush+0x4>
80003b38:	00048513          	mv	a0,s1
80003b3c:	000a0593          	mv	a1,s4
80003b40:	8e8ff0ef          	jal	ra,80002c28 <__lesf2>
80003b44:	00a05463          	blez	a0,80003b4c <_Z18graphics_set_pixeliifff+0x54>
80003b48:	000a0493          	mv	s1,s4
80003b4c:	00000593          	li	a1,0
80003b50:	00048513          	mv	a0,s1
80003b54:	81cff0ef          	jal	ra,80002b70 <__gesf2>
80003b58:	00055463          	bgez	a0,80003b60 <_Z18graphics_set_pixeliifff+0x68>
80003b5c:	00000493          	li	s1,0
80003b60:	00006797          	auipc	a5,0x6
80003b64:	7107a583          	lw	a1,1808(a5) # 8000a270 <_ZL15forceduartflush+0x8>
80003b68:	00048513          	mv	a0,s1
80003b6c:	974ff0ef          	jal	ra,80002ce0 <__mulsf3>
80003b70:	955ff0ef          	jal	ra,800034c4 <__fixunssfsi>
80003b74:	0ff57513          	zext.b	a0,a0
80003b78:	7c1020ef          	jal	ra,80006b38 <_Z16UARTWriteDecimall>
80003b7c:	00006517          	auipc	a0,0x6
80003b80:	d0450513          	addi	a0,a0,-764 # 80009880 <__clz_tab+0x108>
80003b84:	439020ef          	jal	ra,800067bc <_Z9UARTWritePKc>
80003b88:	00006797          	auipc	a5,0x6
80003b8c:	6e47a483          	lw	s1,1764(a5) # 8000a26c <_ZL15forceduartflush+0x4>
80003b90:	00040513          	mv	a0,s0
80003b94:	00048593          	mv	a1,s1
80003b98:	890ff0ef          	jal	ra,80002c28 <__lesf2>
80003b9c:	00a05463          	blez	a0,80003ba4 <_Z18graphics_set_pixeliifff+0xac>
80003ba0:	00048413          	mv	s0,s1
80003ba4:	00000593          	li	a1,0
80003ba8:	00040513          	mv	a0,s0
80003bac:	fc5fe0ef          	jal	ra,80002b70 <__gesf2>
80003bb0:	00055463          	bgez	a0,80003bb8 <_Z18graphics_set_pixeliifff+0xc0>
80003bb4:	00000413          	li	s0,0
80003bb8:	00006797          	auipc	a5,0x6
80003bbc:	6b87a583          	lw	a1,1720(a5) # 8000a270 <_ZL15forceduartflush+0x8>
80003bc0:	00040513          	mv	a0,s0
80003bc4:	91cff0ef          	jal	ra,80002ce0 <__mulsf3>
80003bc8:	8fdff0ef          	jal	ra,800034c4 <__fixunssfsi>
80003bcc:	0ff57513          	zext.b	a0,a0
80003bd0:	769020ef          	jal	ra,80006b38 <_Z16UARTWriteDecimall>
80003bd4:	00006517          	auipc	a0,0x6
80003bd8:	cac50513          	addi	a0,a0,-852 # 80009880 <__clz_tab+0x108>
80003bdc:	3e1020ef          	jal	ra,800067bc <_Z9UARTWritePKc>
80003be0:	00006797          	auipc	a5,0x6
80003be4:	68c7a483          	lw	s1,1676(a5) # 8000a26c <_ZL15forceduartflush+0x4>
80003be8:	00090513          	mv	a0,s2
80003bec:	00048593          	mv	a1,s1
80003bf0:	838ff0ef          	jal	ra,80002c28 <__lesf2>
80003bf4:	00a05463          	blez	a0,80003bfc <_Z18graphics_set_pixeliifff+0x104>
80003bf8:	00048913          	mv	s2,s1
80003bfc:	00000593          	li	a1,0
80003c00:	00090513          	mv	a0,s2
80003c04:	f6dfe0ef          	jal	ra,80002b70 <__gesf2>
80003c08:	00055463          	bgez	a0,80003c10 <_Z18graphics_set_pixeliifff+0x118>
80003c0c:	00000913          	li	s2,0
80003c10:	00006797          	auipc	a5,0x6
80003c14:	6607a583          	lw	a1,1632(a5) # 8000a270 <_ZL15forceduartflush+0x8>
80003c18:	00090513          	mv	a0,s2
80003c1c:	8c4ff0ef          	jal	ra,80002ce0 <__mulsf3>
80003c20:	8a5ff0ef          	jal	ra,800034c4 <__fixunssfsi>
80003c24:	0ff57513          	zext.b	a0,a0
80003c28:	711020ef          	jal	ra,80006b38 <_Z16UARTWriteDecimall>
80003c2c:	00006517          	auipc	a0,0x6
80003c30:	c5850513          	addi	a0,a0,-936 # 80009884 <__clz_tab+0x10c>
80003c34:	389020ef          	jal	ra,800067bc <_Z9UARTWritePKc>
80003c38:	04f00793          	li	a5,79
80003c3c:	02f98263          	beq	s3,a5,80003c60 <_Z18graphics_set_pixeliifff+0x168>
80003c40:	01c12083          	lw	ra,28(sp)
80003c44:	01812403          	lw	s0,24(sp)
80003c48:	01412483          	lw	s1,20(sp)
80003c4c:	01012903          	lw	s2,16(sp)
80003c50:	00c12983          	lw	s3,12(sp)
80003c54:	00812a03          	lw	s4,8(sp)
80003c58:	02010113          	addi	sp,sp,32
80003c5c:	00008067          	ret
80003c60:	01812403          	lw	s0,24(sp)
80003c64:	01c12083          	lw	ra,28(sp)
80003c68:	01412483          	lw	s1,20(sp)
80003c6c:	01012903          	lw	s2,16(sp)
80003c70:	00c12983          	lw	s3,12(sp)
80003c74:	00812a03          	lw	s4,8(sp)
80003c78:	00006517          	auipc	a0,0x6
80003c7c:	c1050513          	addi	a0,a0,-1008 # 80009888 <__clz_tab+0x110>
80003c80:	02010113          	addi	sp,sp,32
80003c84:	3390206f          	j	800067bc <_Z9UARTWritePKc>

80003c88 <_Z20Sphere_ray_intersectP6Sphere4vec3S1_Pf>:
80003c88:	fe010113          	addi	sp,sp,-32
80003c8c:	00812c23          	sw	s0,24(sp)
80003c90:	01212823          	sw	s2,16(sp)
80003c94:	00050413          	mv	s0,a0
80003c98:	00058913          	mv	s2,a1
80003c9c:	00052503          	lw	a0,0(a0)
80003ca0:	0005a583          	lw	a1,0(a1) # 4000000 <_start-0x7c000000>
80003ca4:	00112e23          	sw	ra,28(sp)
80003ca8:	00912a23          	sw	s1,20(sp)
80003cac:	01312623          	sw	s3,12(sp)
80003cb0:	00060493          	mv	s1,a2
80003cb4:	01412423          	sw	s4,8(sp)
80003cb8:	01512223          	sw	s5,4(sp)
80003cbc:	01612023          	sw	s6,0(sp)
80003cc0:	00068a93          	mv	s5,a3
80003cc4:	b94ff0ef          	jal	ra,80003058 <__subsf3>
80003cc8:	00050a13          	mv	s4,a0
80003ccc:	00492583          	lw	a1,4(s2)
80003cd0:	00442503          	lw	a0,4(s0)
80003cd4:	b84ff0ef          	jal	ra,80003058 <__subsf3>
80003cd8:	00050993          	mv	s3,a0
80003cdc:	00892583          	lw	a1,8(s2)
80003ce0:	00842503          	lw	a0,8(s0)
80003ce4:	b74ff0ef          	jal	ra,80003058 <__subsf3>
80003ce8:	0004a583          	lw	a1,0(s1)
80003cec:	00050913          	mv	s2,a0
80003cf0:	000a0513          	mv	a0,s4
80003cf4:	fedfe0ef          	jal	ra,80002ce0 <__mulsf3>
80003cf8:	0044a583          	lw	a1,4(s1)
80003cfc:	00050b13          	mv	s6,a0
80003d00:	00098513          	mv	a0,s3
80003d04:	fddfe0ef          	jal	ra,80002ce0 <__mulsf3>
80003d08:	00050593          	mv	a1,a0
80003d0c:	000b0513          	mv	a0,s6
80003d10:	e80fe0ef          	jal	ra,80002390 <__addsf3>
80003d14:	0084a583          	lw	a1,8(s1)
80003d18:	00050493          	mv	s1,a0
80003d1c:	00090513          	mv	a0,s2
80003d20:	fc1fe0ef          	jal	ra,80002ce0 <__mulsf3>
80003d24:	00050593          	mv	a1,a0
80003d28:	00048513          	mv	a0,s1
80003d2c:	e64fe0ef          	jal	ra,80002390 <__addsf3>
80003d30:	00050493          	mv	s1,a0
80003d34:	000a0593          	mv	a1,s4
80003d38:	000a0513          	mv	a0,s4
80003d3c:	fa5fe0ef          	jal	ra,80002ce0 <__mulsf3>
80003d40:	00098593          	mv	a1,s3
80003d44:	00050a13          	mv	s4,a0
80003d48:	00098513          	mv	a0,s3
80003d4c:	f95fe0ef          	jal	ra,80002ce0 <__mulsf3>
80003d50:	00050593          	mv	a1,a0
80003d54:	000a0513          	mv	a0,s4
80003d58:	e38fe0ef          	jal	ra,80002390 <__addsf3>
80003d5c:	00050993          	mv	s3,a0
80003d60:	00090593          	mv	a1,s2
80003d64:	00090513          	mv	a0,s2
80003d68:	f79fe0ef          	jal	ra,80002ce0 <__mulsf3>
80003d6c:	00050593          	mv	a1,a0
80003d70:	00098513          	mv	a0,s3
80003d74:	e1cfe0ef          	jal	ra,80002390 <__addsf3>
80003d78:	00050993          	mv	s3,a0
80003d7c:	00048593          	mv	a1,s1
80003d80:	00048513          	mv	a0,s1
80003d84:	f5dfe0ef          	jal	ra,80002ce0 <__mulsf3>
80003d88:	00c42583          	lw	a1,12(s0)
80003d8c:	00050913          	mv	s2,a0
80003d90:	00058513          	mv	a0,a1
80003d94:	f4dfe0ef          	jal	ra,80002ce0 <__mulsf3>
80003d98:	00050413          	mv	s0,a0
80003d9c:	00090593          	mv	a1,s2
80003da0:	00098513          	mv	a0,s3
80003da4:	ab4ff0ef          	jal	ra,80003058 <__subsf3>
80003da8:	00040593          	mv	a1,s0
80003dac:	dc5fe0ef          	jal	ra,80002b70 <__gesf2>
80003db0:	02a05863          	blez	a0,80003de0 <_Z20Sphere_ray_intersectP6Sphere4vec3S1_Pf+0x158>
80003db4:	00000513          	li	a0,0
80003db8:	01c12083          	lw	ra,28(sp)
80003dbc:	01812403          	lw	s0,24(sp)
80003dc0:	01412483          	lw	s1,20(sp)
80003dc4:	01012903          	lw	s2,16(sp)
80003dc8:	00c12983          	lw	s3,12(sp)
80003dcc:	00812a03          	lw	s4,8(sp)
80003dd0:	00412a83          	lw	s5,4(sp)
80003dd4:	00012b03          	lw	s6,0(sp)
80003dd8:	02010113          	addi	sp,sp,32
80003ddc:	00008067          	ret
80003de0:	00098593          	mv	a1,s3
80003de4:	00090513          	mv	a0,s2
80003de8:	a70ff0ef          	jal	ra,80003058 <__subsf3>
80003dec:	00040593          	mv	a1,s0
80003df0:	da0fe0ef          	jal	ra,80002390 <__addsf3>
80003df4:	318030ef          	jal	ra,8000710c <sqrtf>
80003df8:	00050593          	mv	a1,a0
80003dfc:	00050913          	mv	s2,a0
80003e00:	00048513          	mv	a0,s1
80003e04:	a54ff0ef          	jal	ra,80003058 <__subsf3>
80003e08:	00000593          	li	a1,0
80003e0c:	00050413          	mv	s0,a0
80003e10:	e19fe0ef          	jal	ra,80002c28 <__lesf2>
80003e14:	00055a63          	bgez	a0,80003e28 <_Z20Sphere_ray_intersectP6Sphere4vec3S1_Pf+0x1a0>
80003e18:	00048593          	mv	a1,s1
80003e1c:	00090513          	mv	a0,s2
80003e20:	d70fe0ef          	jal	ra,80002390 <__addsf3>
80003e24:	00050413          	mv	s0,a0
80003e28:	008aa023          	sw	s0,0(s5)
80003e2c:	00000593          	li	a1,0
80003e30:	00040513          	mv	a0,s0
80003e34:	d3dfe0ef          	jal	ra,80002b70 <__gesf2>
80003e38:	fff54513          	not	a0,a0
80003e3c:	01f55513          	srli	a0,a0,0x1f
80003e40:	f79ff06f          	j	80003db8 <_Z20Sphere_ray_intersectP6Sphere4vec3S1_Pf+0x130>

80003e44 <_Z7reflect4vec3S_>:
80003e44:	fd010113          	addi	sp,sp,-48
80003e48:	01612823          	sw	s6,16(sp)
80003e4c:	01712623          	sw	s7,12(sp)
80003e50:	0005ab03          	lw	s6,0(a1)
80003e54:	00062b83          	lw	s7,0(a2)
80003e58:	01412c23          	sw	s4,24(sp)
80003e5c:	01512a23          	sw	s5,20(sp)
80003e60:	0045aa03          	lw	s4,4(a1)
80003e64:	00462a83          	lw	s5,4(a2)
80003e68:	00058793          	mv	a5,a1
80003e6c:	02812423          	sw	s0,40(sp)
80003e70:	000b0593          	mv	a1,s6
80003e74:	00050413          	mv	s0,a0
80003e78:	000b8513          	mv	a0,s7
80003e7c:	02112623          	sw	ra,44(sp)
80003e80:	02912223          	sw	s1,36(sp)
80003e84:	03212023          	sw	s2,32(sp)
80003e88:	01312e23          	sw	s3,28(sp)
80003e8c:	0087a903          	lw	s2,8(a5)
80003e90:	00862983          	lw	s3,8(a2)
80003e94:	e4dfe0ef          	jal	ra,80002ce0 <__mulsf3>
80003e98:	00050493          	mv	s1,a0
80003e9c:	000a8593          	mv	a1,s5
80003ea0:	000a0513          	mv	a0,s4
80003ea4:	e3dfe0ef          	jal	ra,80002ce0 <__mulsf3>
80003ea8:	00050593          	mv	a1,a0
80003eac:	00048513          	mv	a0,s1
80003eb0:	ce0fe0ef          	jal	ra,80002390 <__addsf3>
80003eb4:	00050493          	mv	s1,a0
80003eb8:	00098593          	mv	a1,s3
80003ebc:	00090513          	mv	a0,s2
80003ec0:	e21fe0ef          	jal	ra,80002ce0 <__mulsf3>
80003ec4:	00050593          	mv	a1,a0
80003ec8:	00048513          	mv	a0,s1
80003ecc:	cc4fe0ef          	jal	ra,80002390 <__addsf3>
80003ed0:	00050593          	mv	a1,a0
80003ed4:	cbcfe0ef          	jal	ra,80002390 <__addsf3>
80003ed8:	000b8593          	mv	a1,s7
80003edc:	00050493          	mv	s1,a0
80003ee0:	e01fe0ef          	jal	ra,80002ce0 <__mulsf3>
80003ee4:	00050593          	mv	a1,a0
80003ee8:	000b0513          	mv	a0,s6
80003eec:	96cff0ef          	jal	ra,80003058 <__subsf3>
80003ef0:	00a42023          	sw	a0,0(s0)
80003ef4:	000a8593          	mv	a1,s5
80003ef8:	00048513          	mv	a0,s1
80003efc:	de5fe0ef          	jal	ra,80002ce0 <__mulsf3>
80003f00:	00050593          	mv	a1,a0
80003f04:	000a0513          	mv	a0,s4
80003f08:	950ff0ef          	jal	ra,80003058 <__subsf3>
80003f0c:	00a42223          	sw	a0,4(s0)
80003f10:	00098593          	mv	a1,s3
80003f14:	00048513          	mv	a0,s1
80003f18:	dc9fe0ef          	jal	ra,80002ce0 <__mulsf3>
80003f1c:	00050593          	mv	a1,a0
80003f20:	00090513          	mv	a0,s2
80003f24:	934ff0ef          	jal	ra,80003058 <__subsf3>
80003f28:	00a42423          	sw	a0,8(s0)
80003f2c:	02c12083          	lw	ra,44(sp)
80003f30:	00040513          	mv	a0,s0
80003f34:	02812403          	lw	s0,40(sp)
80003f38:	02412483          	lw	s1,36(sp)
80003f3c:	02012903          	lw	s2,32(sp)
80003f40:	01c12983          	lw	s3,28(sp)
80003f44:	01812a03          	lw	s4,24(sp)
80003f48:	01412a83          	lw	s5,20(sp)
80003f4c:	01012b03          	lw	s6,16(sp)
80003f50:	00c12b83          	lw	s7,12(sp)
80003f54:	03010113          	addi	sp,sp,48
80003f58:	00008067          	ret

80003f5c <_Z7refract4vec3S_ff>:
80003f5c:	f8010113          	addi	sp,sp,-128
80003f60:	07612023          	sw	s6,96(sp)
80003f64:	05812c23          	sw	s8,88(sp)
80003f68:	00062b03          	lw	s6,0(a2)
80003f6c:	0005ac03          	lw	s8,0(a1)
80003f70:	07512223          	sw	s5,100(sp)
80003f74:	05712e23          	sw	s7,92(sp)
80003f78:	00462a83          	lw	s5,4(a2)
80003f7c:	0045ab83          	lw	s7,4(a1)
80003f80:	00058793          	mv	a5,a1
80003f84:	06812c23          	sw	s0,120(sp)
80003f88:	000c0593          	mv	a1,s8
80003f8c:	00050413          	mv	s0,a0
80003f90:	000b0513          	mv	a0,s6
80003f94:	06112e23          	sw	ra,124(sp)
80003f98:	06912a23          	sw	s1,116(sp)
80003f9c:	07212823          	sw	s2,112(sp)
80003fa0:	07312623          	sw	s3,108(sp)
80003fa4:	07412423          	sw	s4,104(sp)
80003fa8:	00070993          	mv	s3,a4
80003fac:	00068a13          	mv	s4,a3
80003fb0:	05912a23          	sw	s9,84(sp)
80003fb4:	05a12823          	sw	s10,80(sp)
80003fb8:	0087ac83          	lw	s9,8(a5)
80003fbc:	00862d03          	lw	s10,8(a2)
80003fc0:	05b12623          	sw	s11,76(sp)
80003fc4:	d1dfe0ef          	jal	ra,80002ce0 <__mulsf3>
80003fc8:	00050493          	mv	s1,a0
80003fcc:	000b8593          	mv	a1,s7
80003fd0:	000a8513          	mv	a0,s5
80003fd4:	d0dfe0ef          	jal	ra,80002ce0 <__mulsf3>
80003fd8:	00050593          	mv	a1,a0
80003fdc:	00048513          	mv	a0,s1
80003fe0:	bb0fe0ef          	jal	ra,80002390 <__addsf3>
80003fe4:	00050493          	mv	s1,a0
80003fe8:	000c8593          	mv	a1,s9
80003fec:	000d0513          	mv	a0,s10
80003ff0:	cf1fe0ef          	jal	ra,80002ce0 <__mulsf3>
80003ff4:	00050593          	mv	a1,a0
80003ff8:	00048513          	mv	a0,s1
80003ffc:	b94fe0ef          	jal	ra,80002390 <__addsf3>
80004000:	00006797          	auipc	a5,0x6
80004004:	26c7ad83          	lw	s11,620(a5) # 8000a26c <_ZL15forceduartflush+0x4>
80004008:	00050913          	mv	s2,a0
8000400c:	00050493          	mv	s1,a0
80004010:	000d8593          	mv	a1,s11
80004014:	c15fe0ef          	jal	ra,80002c28 <__lesf2>
80004018:	00a05463          	blez	a0,80004020 <_Z7refract4vec3S_ff+0xc4>
8000401c:	000d8493          	mv	s1,s11
80004020:	00006797          	auipc	a5,0x6
80004024:	2547ad83          	lw	s11,596(a5) # 8000a274 <_ZL15forceduartflush+0xc>
80004028:	00048513          	mv	a0,s1
8000402c:	000d8593          	mv	a1,s11
80004030:	b41fe0ef          	jal	ra,80002b70 <__gesf2>
80004034:	00055463          	bgez	a0,8000403c <_Z7refract4vec3S_ff+0xe0>
80004038:	000d8493          	mv	s1,s11
8000403c:	00000593          	li	a1,0
80004040:	00048513          	mv	a0,s1
80004044:	b2dfe0ef          	jal	ra,80002b70 <__gesf2>
80004048:	16a04663          	bgtz	a0,800041b4 <_Z7refract4vec3S_ff+0x258>
8000404c:	000a0593          	mv	a1,s4
80004050:	00098513          	mv	a0,s3
80004054:	f90fe0ef          	jal	ra,800027e4 <__divsf3>
80004058:	00050913          	mv	s2,a0
8000405c:	00048593          	mv	a1,s1
80004060:	00048513          	mv	a0,s1
80004064:	c7dfe0ef          	jal	ra,80002ce0 <__mulsf3>
80004068:	00006797          	auipc	a5,0x6
8000406c:	2047a583          	lw	a1,516(a5) # 8000a26c <_ZL15forceduartflush+0x4>
80004070:	fe9fe0ef          	jal	ra,80003058 <__subsf3>
80004074:	00050993          	mv	s3,a0
80004078:	00090593          	mv	a1,s2
8000407c:	00090513          	mv	a0,s2
80004080:	c61fe0ef          	jal	ra,80002ce0 <__mulsf3>
80004084:	00050593          	mv	a1,a0
80004088:	00098513          	mv	a0,s3
8000408c:	c55fe0ef          	jal	ra,80002ce0 <__mulsf3>
80004090:	00006797          	auipc	a5,0x6
80004094:	1e47a583          	lw	a1,484(a5) # 8000a274 <_ZL15forceduartflush+0xc>
80004098:	00050993          	mv	s3,a0
8000409c:	b8dfe0ef          	jal	ra,80002c28 <__lesf2>
800040a0:	04055e63          	bgez	a0,800040fc <_Z7refract4vec3S_ff+0x1a0>
800040a4:	00006797          	auipc	a5,0x6
800040a8:	1c87a783          	lw	a5,456(a5) # 8000a26c <_ZL15forceduartflush+0x4>
800040ac:	00000713          	li	a4,0
800040b0:	00e42223          	sw	a4,4(s0)
800040b4:	00e42423          	sw	a4,8(s0)
800040b8:	00f42023          	sw	a5,0(s0)
800040bc:	07c12083          	lw	ra,124(sp)
800040c0:	00040513          	mv	a0,s0
800040c4:	07812403          	lw	s0,120(sp)
800040c8:	07412483          	lw	s1,116(sp)
800040cc:	07012903          	lw	s2,112(sp)
800040d0:	06c12983          	lw	s3,108(sp)
800040d4:	06812a03          	lw	s4,104(sp)
800040d8:	06412a83          	lw	s5,100(sp)
800040dc:	06012b03          	lw	s6,96(sp)
800040e0:	05c12b83          	lw	s7,92(sp)
800040e4:	05812c03          	lw	s8,88(sp)
800040e8:	05412c83          	lw	s9,84(sp)
800040ec:	05012d03          	lw	s10,80(sp)
800040f0:	04c12d83          	lw	s11,76(sp)
800040f4:	08010113          	addi	sp,sp,128
800040f8:	00008067          	ret
800040fc:	000c0593          	mv	a1,s8
80004100:	00090513          	mv	a0,s2
80004104:	bddfe0ef          	jal	ra,80002ce0 <__mulsf3>
80004108:	00050793          	mv	a5,a0
8000410c:	000b8593          	mv	a1,s7
80004110:	00090513          	mv	a0,s2
80004114:	00078b93          	mv	s7,a5
80004118:	bc9fe0ef          	jal	ra,80002ce0 <__mulsf3>
8000411c:	000c8593          	mv	a1,s9
80004120:	00050a13          	mv	s4,a0
80004124:	00090513          	mv	a0,s2
80004128:	bb9fe0ef          	jal	ra,80002ce0 <__mulsf3>
8000412c:	00050793          	mv	a5,a0
80004130:	00090593          	mv	a1,s2
80004134:	00048513          	mv	a0,s1
80004138:	00078913          	mv	s2,a5
8000413c:	ba5fe0ef          	jal	ra,80002ce0 <__mulsf3>
80004140:	00006797          	auipc	a5,0x6
80004144:	12c7a583          	lw	a1,300(a5) # 8000a26c <_ZL15forceduartflush+0x4>
80004148:	00050493          	mv	s1,a0
8000414c:	00098513          	mv	a0,s3
80004150:	a40fe0ef          	jal	ra,80002390 <__addsf3>
80004154:	7b9020ef          	jal	ra,8000710c <sqrtf>
80004158:	00048593          	mv	a1,s1
8000415c:	a34fe0ef          	jal	ra,80002390 <__addsf3>
80004160:	800004b7          	lui	s1,0x80000
80004164:	00a4c4b3          	xor	s1,s1,a0
80004168:	00048593          	mv	a1,s1
8000416c:	000b0513          	mv	a0,s6
80004170:	b71fe0ef          	jal	ra,80002ce0 <__mulsf3>
80004174:	000b8593          	mv	a1,s7
80004178:	a18fe0ef          	jal	ra,80002390 <__addsf3>
8000417c:	00a42023          	sw	a0,0(s0)
80004180:	000a8593          	mv	a1,s5
80004184:	00048513          	mv	a0,s1
80004188:	b59fe0ef          	jal	ra,80002ce0 <__mulsf3>
8000418c:	000a0593          	mv	a1,s4
80004190:	a00fe0ef          	jal	ra,80002390 <__addsf3>
80004194:	00a42223          	sw	a0,4(s0)
80004198:	00048593          	mv	a1,s1
8000419c:	000d0513          	mv	a0,s10
800041a0:	b41fe0ef          	jal	ra,80002ce0 <__mulsf3>
800041a4:	00090593          	mv	a1,s2
800041a8:	9e8fe0ef          	jal	ra,80002390 <__addsf3>
800041ac:	00a42423          	sw	a0,8(s0)
800041b0:	f0dff06f          	j	800040bc <_Z7refract4vec3S_ff+0x160>
800041b4:	00006797          	auipc	a5,0x6
800041b8:	0b87ad83          	lw	s11,184(a5) # 8000a26c <_ZL15forceduartflush+0x4>
800041bc:	800004b7          	lui	s1,0x80000
800041c0:	0124c4b3          	xor	s1,s1,s2
800041c4:	000d8593          	mv	a1,s11
800041c8:	00048513          	mv	a0,s1
800041cc:	a5dfe0ef          	jal	ra,80002c28 <__lesf2>
800041d0:	00a05463          	blez	a0,800041d8 <_Z7refract4vec3S_ff+0x27c>
800041d4:	000d8493          	mv	s1,s11
800041d8:	00006797          	auipc	a5,0x6
800041dc:	09c7a903          	lw	s2,156(a5) # 8000a274 <_ZL15forceduartflush+0xc>
800041e0:	00048513          	mv	a0,s1
800041e4:	00090593          	mv	a1,s2
800041e8:	989fe0ef          	jal	ra,80002b70 <__gesf2>
800041ec:	00055463          	bgez	a0,800041f4 <_Z7refract4vec3S_ff+0x298>
800041f0:	00090493          	mv	s1,s2
800041f4:	00000593          	li	a1,0
800041f8:	00048513          	mv	a0,s1
800041fc:	975fe0ef          	jal	ra,80002b70 <__gesf2>
80004200:	10a04263          	bgtz	a0,80004304 <_Z7refract4vec3S_ff+0x3a8>
80004204:	00098593          	mv	a1,s3
80004208:	000a0513          	mv	a0,s4
8000420c:	dd8fe0ef          	jal	ra,800027e4 <__divsf3>
80004210:	00050913          	mv	s2,a0
80004214:	00048593          	mv	a1,s1
80004218:	00048513          	mv	a0,s1
8000421c:	ac5fe0ef          	jal	ra,80002ce0 <__mulsf3>
80004220:	00006797          	auipc	a5,0x6
80004224:	04c7a583          	lw	a1,76(a5) # 8000a26c <_ZL15forceduartflush+0x4>
80004228:	e31fe0ef          	jal	ra,80003058 <__subsf3>
8000422c:	00050993          	mv	s3,a0
80004230:	00090593          	mv	a1,s2
80004234:	00090513          	mv	a0,s2
80004238:	aa9fe0ef          	jal	ra,80002ce0 <__mulsf3>
8000423c:	00050593          	mv	a1,a0
80004240:	00098513          	mv	a0,s3
80004244:	a9dfe0ef          	jal	ra,80002ce0 <__mulsf3>
80004248:	00006797          	auipc	a5,0x6
8000424c:	02c7a583          	lw	a1,44(a5) # 8000a274 <_ZL15forceduartflush+0xc>
80004250:	00050993          	mv	s3,a0
80004254:	9d5fe0ef          	jal	ra,80002c28 <__lesf2>
80004258:	02055063          	bgez	a0,80004278 <_Z7refract4vec3S_ff+0x31c>
8000425c:	00006797          	auipc	a5,0x6
80004260:	0107a783          	lw	a5,16(a5) # 8000a26c <_ZL15forceduartflush+0x4>
80004264:	00000713          	li	a4,0
80004268:	00e42223          	sw	a4,4(s0)
8000426c:	00e42423          	sw	a4,8(s0)
80004270:	00f42023          	sw	a5,0(s0)
80004274:	e49ff06f          	j	800040bc <_Z7refract4vec3S_ff+0x160>
80004278:	00090593          	mv	a1,s2
8000427c:	000c0513          	mv	a0,s8
80004280:	a61fe0ef          	jal	ra,80002ce0 <__mulsf3>
80004284:	00050793          	mv	a5,a0
80004288:	00090593          	mv	a1,s2
8000428c:	000b8513          	mv	a0,s7
80004290:	00078b93          	mv	s7,a5
80004294:	a4dfe0ef          	jal	ra,80002ce0 <__mulsf3>
80004298:	00090593          	mv	a1,s2
8000429c:	00050a13          	mv	s4,a0
800042a0:	000c8513          	mv	a0,s9
800042a4:	a3dfe0ef          	jal	ra,80002ce0 <__mulsf3>
800042a8:	00050793          	mv	a5,a0
800042ac:	00090593          	mv	a1,s2
800042b0:	00048513          	mv	a0,s1
800042b4:	00078913          	mv	s2,a5
800042b8:	a29fe0ef          	jal	ra,80002ce0 <__mulsf3>
800042bc:	00006797          	auipc	a5,0x6
800042c0:	fb07a583          	lw	a1,-80(a5) # 8000a26c <_ZL15forceduartflush+0x4>
800042c4:	00050493          	mv	s1,a0
800042c8:	00098513          	mv	a0,s3
800042cc:	8c4fe0ef          	jal	ra,80002390 <__addsf3>
800042d0:	63d020ef          	jal	ra,8000710c <sqrtf>
800042d4:	00048593          	mv	a1,s1
800042d8:	8b8fe0ef          	jal	ra,80002390 <__addsf3>
800042dc:	00050593          	mv	a1,a0
800042e0:	00050493          	mv	s1,a0
800042e4:	000b0513          	mv	a0,s6
800042e8:	9f9fe0ef          	jal	ra,80002ce0 <__mulsf3>
800042ec:	000b8593          	mv	a1,s7
800042f0:	8a0fe0ef          	jal	ra,80002390 <__addsf3>
800042f4:	00a42023          	sw	a0,0(s0)
800042f8:	00048593          	mv	a1,s1
800042fc:	000a8513          	mv	a0,s5
80004300:	e89ff06f          	j	80004188 <_Z7refract4vec3S_ff+0x22c>
80004304:	800007b7          	lui	a5,0x80000
80004308:	0167cb33          	xor	s6,a5,s6
8000430c:	0157cab3          	xor	s5,a5,s5
80004310:	000a0713          	mv	a4,s4
80004314:	01a7c7b3          	xor	a5,a5,s10
80004318:	00098693          	mv	a3,s3
8000431c:	00010613          	mv	a2,sp
80004320:	01010593          	addi	a1,sp,16
80004324:	00040513          	mv	a0,s0
80004328:	01812823          	sw	s8,16(sp)
8000432c:	01712a23          	sw	s7,20(sp)
80004330:	01912c23          	sw	s9,24(sp)
80004334:	01612023          	sw	s6,0(sp)
80004338:	01512223          	sw	s5,4(sp)
8000433c:	00f12423          	sw	a5,8(sp)
80004340:	c1dff0ef          	jal	ra,80003f5c <_Z7refract4vec3S_ff>
80004344:	d79ff06f          	j	800040bc <_Z7refract4vec3S_ff+0x160>

80004348 <_Z15scene_intersect4vec3S_P6SphereiPS_S2_P8Material>:
80004348:	fa010113          	addi	sp,sp,-96
8000434c:	05612023          	sw	s6,64(sp)
80004350:	03712e23          	sw	s7,60(sp)
80004354:	03812c23          	sw	s8,56(sp)
80004358:	03912a23          	sw	s9,52(sp)
8000435c:	03a12823          	sw	s10,48(sp)
80004360:	03b12623          	sw	s11,44(sp)
80004364:	04112e23          	sw	ra,92(sp)
80004368:	04812c23          	sw	s0,88(sp)
8000436c:	04912a23          	sw	s1,84(sp)
80004370:	05212823          	sw	s2,80(sp)
80004374:	05312623          	sw	s3,76(sp)
80004378:	05412423          	sw	s4,72(sp)
8000437c:	05512223          	sw	s5,68(sp)
80004380:	00d12623          	sw	a3,12(sp)
80004384:	00e12a23          	sw	a4,20(sp)
80004388:	00f12c23          	sw	a5,24(sp)
8000438c:	01012e23          	sw	a6,28(sp)
80004390:	00052c03          	lw	s8,0(a0)
80004394:	00452b83          	lw	s7,4(a0)
80004398:	00852d03          	lw	s10,8(a0)
8000439c:	0005ac83          	lw	s9,0(a1)
800043a0:	0045ab03          	lw	s6,4(a1)
800043a4:	0085ad83          	lw	s11,8(a1)
800043a8:	50d05a63          	blez	a3,800048bc <_Z15scene_intersect4vec3S_P6SphereiPS_S2_P8Material+0x574>
800043ac:	00006797          	auipc	a5,0x6
800043b0:	ecc7a783          	lw	a5,-308(a5) # 8000a278 <_ZL15forceduartflush+0x10>
800043b4:	00060413          	mv	s0,a2
800043b8:	00000a93          	li	s5,0
800043bc:	00f12823          	sw	a5,16(sp)
800043c0:	0240006f          	j	800043e4 <_Z15scene_intersect4vec3S_P6SphereiPS_S2_P8Material+0x9c>
800043c4:	01012503          	lw	a0,16(sp)
800043c8:	00090593          	mv	a1,s2
800043cc:	fa4fe0ef          	jal	ra,80002b70 <__gesf2>
800043d0:	2ea04e63          	bgtz	a0,800046cc <_Z15scene_intersect4vec3S_P6SphereiPS_S2_P8Material+0x384>
800043d4:	00c12783          	lw	a5,12(sp)
800043d8:	001a8a93          	addi	s5,s5,1
800043dc:	03440413          	addi	s0,s0,52
800043e0:	17578063          	beq	a5,s5,80004540 <_Z15scene_intersect4vec3S_P6SphereiPS_S2_P8Material+0x1f8>
800043e4:	00042503          	lw	a0,0(s0)
800043e8:	000c0593          	mv	a1,s8
800043ec:	c6dfe0ef          	jal	ra,80003058 <__subsf3>
800043f0:	00050a13          	mv	s4,a0
800043f4:	00442503          	lw	a0,4(s0)
800043f8:	000b8593          	mv	a1,s7
800043fc:	c5dfe0ef          	jal	ra,80003058 <__subsf3>
80004400:	00050993          	mv	s3,a0
80004404:	00842503          	lw	a0,8(s0)
80004408:	000d0593          	mv	a1,s10
8000440c:	c4dfe0ef          	jal	ra,80003058 <__subsf3>
80004410:	00050913          	mv	s2,a0
80004414:	000c8593          	mv	a1,s9
80004418:	000a0513          	mv	a0,s4
8000441c:	8c5fe0ef          	jal	ra,80002ce0 <__mulsf3>
80004420:	00050493          	mv	s1,a0
80004424:	000b0593          	mv	a1,s6
80004428:	00098513          	mv	a0,s3
8000442c:	8b5fe0ef          	jal	ra,80002ce0 <__mulsf3>
80004430:	00050593          	mv	a1,a0
80004434:	00048513          	mv	a0,s1
80004438:	f59fd0ef          	jal	ra,80002390 <__addsf3>
8000443c:	00050493          	mv	s1,a0
80004440:	000d8593          	mv	a1,s11
80004444:	00090513          	mv	a0,s2
80004448:	899fe0ef          	jal	ra,80002ce0 <__mulsf3>
8000444c:	00050593          	mv	a1,a0
80004450:	00048513          	mv	a0,s1
80004454:	f3dfd0ef          	jal	ra,80002390 <__addsf3>
80004458:	00050493          	mv	s1,a0
8000445c:	000a0593          	mv	a1,s4
80004460:	000a0513          	mv	a0,s4
80004464:	87dfe0ef          	jal	ra,80002ce0 <__mulsf3>
80004468:	00050a13          	mv	s4,a0
8000446c:	00098593          	mv	a1,s3
80004470:	00098513          	mv	a0,s3
80004474:	86dfe0ef          	jal	ra,80002ce0 <__mulsf3>
80004478:	00050593          	mv	a1,a0
8000447c:	000a0513          	mv	a0,s4
80004480:	f11fd0ef          	jal	ra,80002390 <__addsf3>
80004484:	00050993          	mv	s3,a0
80004488:	00090593          	mv	a1,s2
8000448c:	00090513          	mv	a0,s2
80004490:	851fe0ef          	jal	ra,80002ce0 <__mulsf3>
80004494:	00050593          	mv	a1,a0
80004498:	00098513          	mv	a0,s3
8000449c:	ef5fd0ef          	jal	ra,80002390 <__addsf3>
800044a0:	00050a13          	mv	s4,a0
800044a4:	00048593          	mv	a1,s1
800044a8:	00048513          	mv	a0,s1
800044ac:	835fe0ef          	jal	ra,80002ce0 <__mulsf3>
800044b0:	00c42583          	lw	a1,12(s0)
800044b4:	00050993          	mv	s3,a0
800044b8:	00058513          	mv	a0,a1
800044bc:	825fe0ef          	jal	ra,80002ce0 <__mulsf3>
800044c0:	00050913          	mv	s2,a0
800044c4:	00098593          	mv	a1,s3
800044c8:	000a0513          	mv	a0,s4
800044cc:	b8dfe0ef          	jal	ra,80003058 <__subsf3>
800044d0:	00090593          	mv	a1,s2
800044d4:	e9cfe0ef          	jal	ra,80002b70 <__gesf2>
800044d8:	eea04ee3          	bgtz	a0,800043d4 <_Z15scene_intersect4vec3S_P6SphereiPS_S2_P8Material+0x8c>
800044dc:	000a0593          	mv	a1,s4
800044e0:	00098513          	mv	a0,s3
800044e4:	b75fe0ef          	jal	ra,80003058 <__subsf3>
800044e8:	00090593          	mv	a1,s2
800044ec:	ea5fd0ef          	jal	ra,80002390 <__addsf3>
800044f0:	41d020ef          	jal	ra,8000710c <sqrtf>
800044f4:	00050593          	mv	a1,a0
800044f8:	00050993          	mv	s3,a0
800044fc:	00048513          	mv	a0,s1
80004500:	b59fe0ef          	jal	ra,80003058 <__subsf3>
80004504:	00000593          	li	a1,0
80004508:	00050913          	mv	s2,a0
8000450c:	f1cfe0ef          	jal	ra,80002c28 <__lesf2>
80004510:	ea055ae3          	bgez	a0,800043c4 <_Z15scene_intersect4vec3S_P6SphereiPS_S2_P8Material+0x7c>
80004514:	00098593          	mv	a1,s3
80004518:	00048513          	mv	a0,s1
8000451c:	e75fd0ef          	jal	ra,80002390 <__addsf3>
80004520:	00000593          	li	a1,0
80004524:	00050913          	mv	s2,a0
80004528:	f00fe0ef          	jal	ra,80002c28 <__lesf2>
8000452c:	e8055ce3          	bgez	a0,800043c4 <_Z15scene_intersect4vec3S_P6SphereiPS_S2_P8Material+0x7c>
80004530:	00c12783          	lw	a5,12(sp)
80004534:	001a8a93          	addi	s5,s5,1
80004538:	03440413          	addi	s0,s0,52
8000453c:	eb5794e3          	bne	a5,s5,800043e4 <_Z15scene_intersect4vec3S_P6SphereiPS_S2_P8Material+0x9c>
80004540:	80000437          	lui	s0,0x80000
80004544:	fff44493          	not	s1,s0
80004548:	0164f533          	and	a0,s1,s6
8000454c:	fddfe0ef          	jal	ra,80003528 <__extendsfdf2>
80004550:	00006797          	auipc	a5,0x6
80004554:	dc07a603          	lw	a2,-576(a5) # 8000a310 <_ZL15forceduartflush+0xa8>
80004558:	dc47a683          	lw	a3,-572(a5)
8000455c:	d6dfc0ef          	jal	ra,800012c8 <__gedf2>
80004560:	2ca05a63          	blez	a0,80004834 <_Z15scene_intersect4vec3S_P6SphereiPS_S2_P8Material+0x4ec>
80004564:	00006797          	auipc	a5,0x6
80004568:	d187a583          	lw	a1,-744(a5) # 8000a27c <_ZL15forceduartflush+0x14>
8000456c:	000b8513          	mv	a0,s7
80004570:	e21fd0ef          	jal	ra,80002390 <__addsf3>
80004574:	000b0593          	mv	a1,s6
80004578:	00a44533          	xor	a0,s0,a0
8000457c:	a68fe0ef          	jal	ra,800027e4 <__divsf3>
80004580:	00000593          	li	a1,0
80004584:	00050413          	mv	s0,a0
80004588:	de8fe0ef          	jal	ra,80002b70 <__gesf2>
8000458c:	30a05c63          	blez	a0,800048a4 <_Z15scene_intersect4vec3S_P6SphereiPS_S2_P8Material+0x55c>
80004590:	000c8593          	mv	a1,s9
80004594:	00040513          	mv	a0,s0
80004598:	f48fe0ef          	jal	ra,80002ce0 <__mulsf3>
8000459c:	000c0593          	mv	a1,s8
800045a0:	df1fd0ef          	jal	ra,80002390 <__addsf3>
800045a4:	00006797          	auipc	a5,0x6
800045a8:	cdc7a583          	lw	a1,-804(a5) # 8000a280 <_ZL15forceduartflush+0x18>
800045ac:	00050913          	mv	s2,a0
800045b0:	00a4f533          	and	a0,s1,a0
800045b4:	e74fe0ef          	jal	ra,80002c28 <__lesf2>
800045b8:	2e055c63          	bgez	a0,800048b0 <_Z15scene_intersect4vec3S_P6SphereiPS_S2_P8Material+0x568>
800045bc:	000d8593          	mv	a1,s11
800045c0:	00040513          	mv	a0,s0
800045c4:	f1cfe0ef          	jal	ra,80002ce0 <__mulsf3>
800045c8:	000d0593          	mv	a1,s10
800045cc:	dc5fd0ef          	jal	ra,80002390 <__addsf3>
800045d0:	00006797          	auipc	a5,0x6
800045d4:	cb47a583          	lw	a1,-844(a5) # 8000a284 <_ZL15forceduartflush+0x1c>
800045d8:	00050493          	mv	s1,a0
800045dc:	e4cfe0ef          	jal	ra,80002c28 <__lesf2>
800045e0:	2e055663          	bgez	a0,800048cc <_Z15scene_intersect4vec3S_P6SphereiPS_S2_P8Material+0x584>
800045e4:	00006797          	auipc	a5,0x6
800045e8:	ca47a583          	lw	a1,-860(a5) # 8000a288 <_ZL15forceduartflush+0x20>
800045ec:	00048513          	mv	a0,s1
800045f0:	d80fe0ef          	jal	ra,80002b70 <__gesf2>
800045f4:	2ea05263          	blez	a0,800048d8 <_Z15scene_intersect4vec3S_P6SphereiPS_S2_P8Material+0x590>
800045f8:	01012583          	lw	a1,16(sp)
800045fc:	00040513          	mv	a0,s0
80004600:	e28fe0ef          	jal	ra,80002c28 <__lesf2>
80004604:	2e055063          	bgez	a0,800048e4 <_Z15scene_intersect4vec3S_P6SphereiPS_S2_P8Material+0x59c>
80004608:	01412983          	lw	s3,20(sp)
8000460c:	000b0593          	mv	a1,s6
80004610:	00040513          	mv	a0,s0
80004614:	0129a023          	sw	s2,0(s3)
80004618:	ec8fe0ef          	jal	ra,80002ce0 <__mulsf3>
8000461c:	000b8593          	mv	a1,s7
80004620:	d71fd0ef          	jal	ra,80002390 <__addsf3>
80004624:	01812703          	lw	a4,24(sp)
80004628:	00a9a223          	sw	a0,4(s3)
8000462c:	0099a423          	sw	s1,8(s3)
80004630:	00000693          	li	a3,0
80004634:	00006797          	auipc	a5,0x6
80004638:	00d72023          	sw	a3,0(a4)
8000463c:	c387a783          	lw	a5,-968(a5) # 8000a26c <_ZL15forceduartflush+0x4>
80004640:	0009a503          	lw	a0,0(s3)
80004644:	00d72423          	sw	a3,8(a4)
80004648:	00f72223          	sw	a5,4(a4)
8000464c:	eddfe0ef          	jal	ra,80003528 <__extendsfdf2>
80004650:	00006797          	auipc	a5,0x6
80004654:	cc87a603          	lw	a2,-824(a5) # 8000a318 <_ZL15forceduartflush+0xb0>
80004658:	ccc7a683          	lw	a3,-820(a5)
8000465c:	d51fc0ef          	jal	ra,800013ac <__muldf3>
80004660:	00006797          	auipc	a5,0x6
80004664:	cc07a603          	lw	a2,-832(a5) # 8000a320 <_ZL15forceduartflush+0xb8>
80004668:	cc47a683          	lw	a3,-828(a5)
8000466c:	ca1fb0ef          	jal	ra,8000030c <__adddf3>
80004670:	bf9fd0ef          	jal	ra,80002268 <__fixdfsi>
80004674:	00050493          	mv	s1,a0
80004678:	0089a503          	lw	a0,8(s3)
8000467c:	eadfe0ef          	jal	ra,80003528 <__extendsfdf2>
80004680:	00006797          	auipc	a5,0x6
80004684:	c987a603          	lw	a2,-872(a5) # 8000a318 <_ZL15forceduartflush+0xb0>
80004688:	c9c7a683          	lw	a3,-868(a5)
8000468c:	d21fc0ef          	jal	ra,800013ac <__muldf3>
80004690:	bd9fd0ef          	jal	ra,80002268 <__fixdfsi>
80004694:	00a487b3          	add	a5,s1,a0
80004698:	0017f793          	andi	a5,a5,1
8000469c:	24078a63          	beqz	a5,800048f0 <_Z15scene_intersect4vec3S_P6SphereiPS_S2_P8Material+0x5a8>
800046a0:	00006797          	auipc	a5,0x6
800046a4:	bec7a683          	lw	a3,-1044(a5) # 8000a28c <_ZL15forceduartflush+0x24>
800046a8:	00006797          	auipc	a5,0x6
800046ac:	be47a703          	lw	a4,-1052(a5) # 8000a28c <_ZL15forceduartflush+0x24>
800046b0:	00006797          	auipc	a5,0x6
800046b4:	01c12603          	lw	a2,28(sp)
800046b8:	bdc7a783          	lw	a5,-1060(a5) # 8000a28c <_ZL15forceduartflush+0x24>
800046bc:	00d62a23          	sw	a3,20(a2)
800046c0:	00e62c23          	sw	a4,24(a2)
800046c4:	00f62e23          	sw	a5,28(a2)
800046c8:	1740006f          	j	8000483c <_Z15scene_intersect4vec3S_P6SphereiPS_S2_P8Material+0x4f4>
800046cc:	000c8593          	mv	a1,s9
800046d0:	00090513          	mv	a0,s2
800046d4:	e0cfe0ef          	jal	ra,80002ce0 <__mulsf3>
800046d8:	000c0593          	mv	a1,s8
800046dc:	cb5fd0ef          	jal	ra,80002390 <__addsf3>
800046e0:	00050993          	mv	s3,a0
800046e4:	000b0593          	mv	a1,s6
800046e8:	00090513          	mv	a0,s2
800046ec:	df4fe0ef          	jal	ra,80002ce0 <__mulsf3>
800046f0:	000b8593          	mv	a1,s7
800046f4:	c9dfd0ef          	jal	ra,80002390 <__addsf3>
800046f8:	00050493          	mv	s1,a0
800046fc:	000d8593          	mv	a1,s11
80004700:	00090513          	mv	a0,s2
80004704:	ddcfe0ef          	jal	ra,80002ce0 <__mulsf3>
80004708:	000d0593          	mv	a1,s10
8000470c:	c85fd0ef          	jal	ra,80002390 <__addsf3>
80004710:	01412783          	lw	a5,20(sp)
80004714:	00050a13          	mv	s4,a0
80004718:	01212823          	sw	s2,16(sp)
8000471c:	0137a023          	sw	s3,0(a5)
80004720:	0097a223          	sw	s1,4(a5)
80004724:	00a7a423          	sw	a0,8(a5)
80004728:	00042583          	lw	a1,0(s0) # 80000000 <__global_pointer$+0xffff55b0>
8000472c:	00098513          	mv	a0,s3
80004730:	929fe0ef          	jal	ra,80003058 <__subsf3>
80004734:	00442583          	lw	a1,4(s0)
80004738:	00050993          	mv	s3,a0
8000473c:	00048513          	mv	a0,s1
80004740:	919fe0ef          	jal	ra,80003058 <__subsf3>
80004744:	00842583          	lw	a1,8(s0)
80004748:	00050913          	mv	s2,a0
8000474c:	000a0513          	mv	a0,s4
80004750:	909fe0ef          	jal	ra,80003058 <__subsf3>
80004754:	00050493          	mv	s1,a0
80004758:	00098593          	mv	a1,s3
8000475c:	00098513          	mv	a0,s3
80004760:	d80fe0ef          	jal	ra,80002ce0 <__mulsf3>
80004764:	00050a13          	mv	s4,a0
80004768:	00090593          	mv	a1,s2
8000476c:	00090513          	mv	a0,s2
80004770:	d70fe0ef          	jal	ra,80002ce0 <__mulsf3>
80004774:	00050593          	mv	a1,a0
80004778:	000a0513          	mv	a0,s4
8000477c:	c15fd0ef          	jal	ra,80002390 <__addsf3>
80004780:	00050a13          	mv	s4,a0
80004784:	00048593          	mv	a1,s1
80004788:	00048513          	mv	a0,s1
8000478c:	d54fe0ef          	jal	ra,80002ce0 <__mulsf3>
80004790:	00050593          	mv	a1,a0
80004794:	000a0513          	mv	a0,s4
80004798:	bf9fd0ef          	jal	ra,80002390 <__addsf3>
8000479c:	171020ef          	jal	ra,8000710c <sqrtf>
800047a0:	00006797          	auipc	a5,0x6
800047a4:	00050593          	mv	a1,a0
800047a8:	acc7a503          	lw	a0,-1332(a5) # 8000a26c <_ZL15forceduartflush+0x4>
800047ac:	838fe0ef          	jal	ra,800027e4 <__divsf3>
800047b0:	00098593          	mv	a1,s3
800047b4:	00050993          	mv	s3,a0
800047b8:	d28fe0ef          	jal	ra,80002ce0 <__mulsf3>
800047bc:	00090593          	mv	a1,s2
800047c0:	01812903          	lw	s2,24(sp)
800047c4:	00a92023          	sw	a0,0(s2)
800047c8:	00098513          	mv	a0,s3
800047cc:	d14fe0ef          	jal	ra,80002ce0 <__mulsf3>
800047d0:	00a92223          	sw	a0,4(s2)
800047d4:	00048593          	mv	a1,s1
800047d8:	00098513          	mv	a0,s3
800047dc:	d04fe0ef          	jal	ra,80002ce0 <__mulsf3>
800047e0:	00a92423          	sw	a0,8(s2)
800047e4:	01042303          	lw	t1,16(s0)
800047e8:	01442883          	lw	a7,20(s0)
800047ec:	01842803          	lw	a6,24(s0)
800047f0:	01c42503          	lw	a0,28(s0)
800047f4:	02042583          	lw	a1,32(s0)
800047f8:	02442603          	lw	a2,36(s0)
800047fc:	02842683          	lw	a3,40(s0)
80004800:	02c42703          	lw	a4,44(s0)
80004804:	03042783          	lw	a5,48(s0)
80004808:	01c12e03          	lw	t3,28(sp)
8000480c:	006e2023          	sw	t1,0(t3)
80004810:	011e2223          	sw	a7,4(t3)
80004814:	010e2423          	sw	a6,8(t3)
80004818:	00ae2623          	sw	a0,12(t3)
8000481c:	00be2823          	sw	a1,16(t3)
80004820:	00ce2a23          	sw	a2,20(t3)
80004824:	00de2c23          	sw	a3,24(t3)
80004828:	00ee2e23          	sw	a4,28(t3)
8000482c:	02fe2023          	sw	a5,32(t3)
80004830:	ba5ff06f          	j	800043d4 <_Z15scene_intersect4vec3S_P6SphereiPS_S2_P8Material+0x8c>
80004834:	00006797          	auipc	a5,0x6
80004838:	a447a403          	lw	s0,-1468(a5) # 8000a278 <_ZL15forceduartflush+0x10>
8000483c:	01012483          	lw	s1,16(sp)
80004840:	00040513          	mv	a0,s0
80004844:	00048593          	mv	a1,s1
80004848:	be0fe0ef          	jal	ra,80002c28 <__lesf2>
8000484c:	00a05463          	blez	a0,80004854 <_Z15scene_intersect4vec3S_P6SphereiPS_S2_P8Material+0x50c>
80004850:	00048413          	mv	s0,s1
80004854:	00006797          	auipc	a5,0x6
80004858:	a447a583          	lw	a1,-1468(a5) # 8000a298 <_ZL15forceduartflush+0x30>
8000485c:	00040513          	mv	a0,s0
80004860:	bc8fe0ef          	jal	ra,80002c28 <__lesf2>
80004864:	05c12083          	lw	ra,92(sp)
80004868:	05812403          	lw	s0,88(sp)
8000486c:	05412483          	lw	s1,84(sp)
80004870:	05012903          	lw	s2,80(sp)
80004874:	04c12983          	lw	s3,76(sp)
80004878:	04812a03          	lw	s4,72(sp)
8000487c:	04412a83          	lw	s5,68(sp)
80004880:	04012b03          	lw	s6,64(sp)
80004884:	03c12b83          	lw	s7,60(sp)
80004888:	03812c03          	lw	s8,56(sp)
8000488c:	03412c83          	lw	s9,52(sp)
80004890:	03012d03          	lw	s10,48(sp)
80004894:	02c12d83          	lw	s11,44(sp)
80004898:	00052513          	slti	a0,a0,0
8000489c:	06010113          	addi	sp,sp,96
800048a0:	00008067          	ret
800048a4:	00006797          	auipc	a5,0x6
800048a8:	9d47a403          	lw	s0,-1580(a5) # 8000a278 <_ZL15forceduartflush+0x10>
800048ac:	f91ff06f          	j	8000483c <_Z15scene_intersect4vec3S_P6SphereiPS_S2_P8Material+0x4f4>
800048b0:	00006797          	auipc	a5,0x6
800048b4:	9c87a403          	lw	s0,-1592(a5) # 8000a278 <_ZL15forceduartflush+0x10>
800048b8:	f85ff06f          	j	8000483c <_Z15scene_intersect4vec3S_P6SphereiPS_S2_P8Material+0x4f4>
800048bc:	00006797          	auipc	a5,0x6
800048c0:	9bc7a783          	lw	a5,-1604(a5) # 8000a278 <_ZL15forceduartflush+0x10>
800048c4:	00f12823          	sw	a5,16(sp)
800048c8:	c79ff06f          	j	80004540 <_Z15scene_intersect4vec3S_P6SphereiPS_S2_P8Material+0x1f8>
800048cc:	00006797          	auipc	a5,0x6
800048d0:	9ac7a403          	lw	s0,-1620(a5) # 8000a278 <_ZL15forceduartflush+0x10>
800048d4:	f69ff06f          	j	8000483c <_Z15scene_intersect4vec3S_P6SphereiPS_S2_P8Material+0x4f4>
800048d8:	00006797          	auipc	a5,0x6
800048dc:	9a07a403          	lw	s0,-1632(a5) # 8000a278 <_ZL15forceduartflush+0x10>
800048e0:	f5dff06f          	j	8000483c <_Z15scene_intersect4vec3S_P6SphereiPS_S2_P8Material+0x4f4>
800048e4:	00006797          	auipc	a5,0x6
800048e8:	9947a403          	lw	s0,-1644(a5) # 8000a278 <_ZL15forceduartflush+0x10>
800048ec:	f51ff06f          	j	8000483c <_Z15scene_intersect4vec3S_P6SphereiPS_S2_P8Material+0x4f4>
800048f0:	00006797          	auipc	a5,0x6
800048f4:	99c7a683          	lw	a3,-1636(a5) # 8000a28c <_ZL15forceduartflush+0x24>
800048f8:	00006797          	auipc	a5,0x6
800048fc:	9987a703          	lw	a4,-1640(a5) # 8000a290 <_ZL15forceduartflush+0x28>
80004900:	00006797          	auipc	a5,0x6
80004904:	01c12603          	lw	a2,28(sp)
80004908:	9947a783          	lw	a5,-1644(a5) # 8000a294 <_ZL15forceduartflush+0x2c>
8000490c:	00d62a23          	sw	a3,20(a2)
80004910:	00e62c23          	sw	a4,24(a2)
80004914:	00f62e23          	sw	a5,28(a2)
80004918:	f25ff06f          	j	8000483c <_Z15scene_intersect4vec3S_P6SphereiPS_S2_P8Material+0x4f4>

8000491c <_Z8cast_ray4vec3S_P6SphereiP5Lightii>:
8000491c:	e7010113          	addi	sp,sp,-400
80004920:	17412c23          	sw	s4,376(sp)
80004924:	00060a13          	mv	s4,a2
80004928:	15b12e23          	sw	s11,348(sp)
8000492c:	00088d93          	mv	s11,a7
80004930:	000a2883          	lw	a7,0(s4)
80004934:	00006317          	auipc	t1,0x6
80004938:	93832e03          	lw	t3,-1736(t1) # 8000a26c <_ZL15forceduartflush+0x4>
8000493c:	00006317          	auipc	t1,0x6
80004940:	93032303          	lw	t1,-1744(t1) # 8000a26c <_ZL15forceduartflush+0x4>
80004944:	01112823          	sw	a7,16(sp)
80004948:	008a2883          	lw	a7,8(s4)
8000494c:	00000613          	li	a2,0
80004950:	18912223          	sw	s1,388(sp)
80004954:	17912223          	sw	s9,356(sp)
80004958:	10c12823          	sw	a2,272(sp)
8000495c:	10c12a23          	sw	a2,276(sp)
80004960:	10c12c23          	sw	a2,280(sp)
80004964:	10c12e23          	sw	a2,284(sp)
80004968:	12c12023          	sw	a2,288(sp)
8000496c:	12c12223          	sw	a2,292(sp)
80004970:	12c12423          	sw	a2,296(sp)
80004974:	18112623          	sw	ra,396(sp)
80004978:	18812423          	sw	s0,392(sp)
8000497c:	19212023          	sw	s2,384(sp)
80004980:	17312e23          	sw	s3,380(sp)
80004984:	17512a23          	sw	s5,372(sp)
80004988:	17612823          	sw	s6,368(sp)
8000498c:	17712623          	sw	s7,364(sp)
80004990:	17812423          	sw	s8,360(sp)
80004994:	17a12023          	sw	s10,352(sp)
80004998:	11c12423          	sw	t3,264(sp)
8000499c:	10612623          	sw	t1,268(sp)
800049a0:	00200613          	li	a2,2
800049a4:	01112623          	sw	a7,12(sp)
800049a8:	00d12023          	sw	a3,0(sp)
800049ac:	00e12223          	sw	a4,4(sp)
800049b0:	01012423          	sw	a6,8(sp)
800049b4:	004a2c83          	lw	s9,4(s4)
800049b8:	00050493          	mv	s1,a0
800049bc:	0bb65c63          	bge	a2,s11,80004a74 <_Z8cast_ray4vec3S_P6SphereiP5Lightii+0x158>
800049c0:	000c8513          	mv	a0,s9
800049c4:	b65fe0ef          	jal	ra,80003528 <__extendsfdf2>
800049c8:	00006797          	auipc	a5,0x6
800049cc:	9607a603          	lw	a2,-1696(a5) # 8000a328 <_ZL15forceduartflush+0xc0>
800049d0:	9647a683          	lw	a3,-1692(a5)
800049d4:	939fb0ef          	jal	ra,8000030c <__adddf3>
800049d8:	00006797          	auipc	a5,0x6
800049dc:	9407a603          	lw	a2,-1728(a5) # 8000a318 <_ZL15forceduartflush+0xb0>
800049e0:	9447a683          	lw	a3,-1724(a5)
800049e4:	9c9fc0ef          	jal	ra,800013ac <__muldf3>
800049e8:	c1dfe0ef          	jal	ra,80003604 <__truncdfsf2>
800049ec:	00006797          	auipc	a5,0x6
800049f0:	8a47a583          	lw	a1,-1884(a5) # 8000a290 <_ZL15forceduartflush+0x28>
800049f4:	00050413          	mv	s0,a0
800049f8:	ae8fe0ef          	jal	ra,80002ce0 <__mulsf3>
800049fc:	00006797          	auipc	a5,0x6
80004a00:	8a07a583          	lw	a1,-1888(a5) # 8000a29c <_ZL15forceduartflush+0x34>
80004a04:	00050913          	mv	s2,a0
80004a08:	00040513          	mv	a0,s0
80004a0c:	ad4fe0ef          	jal	ra,80002ce0 <__mulsf3>
80004a10:	00006717          	auipc	a4,0x6
80004a14:	89072583          	lw	a1,-1904(a4) # 8000a2a0 <_ZL15forceduartflush+0x38>
80004a18:	00050793          	mv	a5,a0
80004a1c:	00040513          	mv	a0,s0
80004a20:	00078413          	mv	s0,a5
80004a24:	abcfe0ef          	jal	ra,80002ce0 <__mulsf3>
80004a28:	0084a223          	sw	s0,4(s1) # 80000004 <__global_pointer$+0xffff55b4>
80004a2c:	18c12083          	lw	ra,396(sp)
80004a30:	18812403          	lw	s0,392(sp)
80004a34:	0124a023          	sw	s2,0(s1)
80004a38:	00a4a423          	sw	a0,8(s1)
80004a3c:	18012903          	lw	s2,384(sp)
80004a40:	17c12983          	lw	s3,380(sp)
80004a44:	17812a03          	lw	s4,376(sp)
80004a48:	17412a83          	lw	s5,372(sp)
80004a4c:	17012b03          	lw	s6,368(sp)
80004a50:	16c12b83          	lw	s7,364(sp)
80004a54:	16812c03          	lw	s8,360(sp)
80004a58:	16412c83          	lw	s9,356(sp)
80004a5c:	16012d03          	lw	s10,352(sp)
80004a60:	15c12d83          	lw	s11,348(sp)
80004a64:	00048513          	mv	a0,s1
80004a68:	18412483          	lw	s1,388(sp)
80004a6c:	19010113          	addi	sp,sp,400
80004a70:	00008067          	ret
80004a74:	0005af83          	lw	t6,0(a1)
80004a78:	0045af03          	lw	t5,4(a1)
80004a7c:	0085ae83          	lw	t4,8(a1)
80004a80:	000a2e03          	lw	t3,0(s4)
80004a84:	004a2303          	lw	t1,4(s4)
80004a88:	008a2883          	lw	a7,8(s4)
80004a8c:	00012603          	lw	a2,0(sp)
80004a90:	00078413          	mv	s0,a5
80004a94:	00070693          	mv	a3,a4
80004a98:	10810813          	addi	a6,sp,264
80004a9c:	07810793          	addi	a5,sp,120
80004aa0:	06c10713          	addi	a4,sp,108
80004aa4:	04010593          	addi	a1,sp,64
80004aa8:	05010513          	addi	a0,sp,80
80004aac:	05f12823          	sw	t6,80(sp)
80004ab0:	05e12a23          	sw	t5,84(sp)
80004ab4:	05d12c23          	sw	t4,88(sp)
80004ab8:	05c12023          	sw	t3,64(sp)
80004abc:	04612223          	sw	t1,68(sp)
80004ac0:	05112423          	sw	a7,72(sp)
80004ac4:	885ff0ef          	jal	ra,80004348 <_Z15scene_intersect4vec3S_P6SphereiPS_S2_P8Material>
80004ac8:	ee050ce3          	beqz	a0,800049c0 <_Z8cast_ray4vec3S_P6SphereiP5Lightii+0xa4>
80004acc:	07812a83          	lw	s5,120(sp)
80004ad0:	01012d03          	lw	s10,16(sp)
80004ad4:	07c12b03          	lw	s6,124(sp)
80004ad8:	000a8593          	mv	a1,s5
80004adc:	000d0513          	mv	a0,s10
80004ae0:	a00fe0ef          	jal	ra,80002ce0 <__mulsf3>
80004ae4:	00050913          	mv	s2,a0
80004ae8:	000b0593          	mv	a1,s6
80004aec:	000c8513          	mv	a0,s9
80004af0:	9f0fe0ef          	jal	ra,80002ce0 <__mulsf3>
80004af4:	00050593          	mv	a1,a0
80004af8:	00090513          	mv	a0,s2
80004afc:	895fd0ef          	jal	ra,80002390 <__addsf3>
80004b00:	08012b83          	lw	s7,128(sp)
80004b04:	00c12c03          	lw	s8,12(sp)
80004b08:	00050913          	mv	s2,a0
80004b0c:	000b8593          	mv	a1,s7
80004b10:	000c0513          	mv	a0,s8
80004b14:	9ccfe0ef          	jal	ra,80002ce0 <__mulsf3>
80004b18:	00050593          	mv	a1,a0
80004b1c:	00090513          	mv	a0,s2
80004b20:	871fd0ef          	jal	ra,80002390 <__addsf3>
80004b24:	00050593          	mv	a1,a0
80004b28:	869fd0ef          	jal	ra,80002390 <__addsf3>
80004b2c:	00050993          	mv	s3,a0
80004b30:	00050593          	mv	a1,a0
80004b34:	000a8513          	mv	a0,s5
80004b38:	01512c23          	sw	s5,24(sp)
80004b3c:	9a4fe0ef          	jal	ra,80002ce0 <__mulsf3>
80004b40:	00050593          	mv	a1,a0
80004b44:	000d0513          	mv	a0,s10
80004b48:	d10fe0ef          	jal	ra,80003058 <__subsf3>
80004b4c:	00050a93          	mv	s5,a0
80004b50:	000b0593          	mv	a1,s6
80004b54:	00098513          	mv	a0,s3
80004b58:	03612023          	sw	s6,32(sp)
80004b5c:	984fe0ef          	jal	ra,80002ce0 <__mulsf3>
80004b60:	00050593          	mv	a1,a0
80004b64:	000c8513          	mv	a0,s9
80004b68:	cf0fe0ef          	jal	ra,80003058 <__subsf3>
80004b6c:	00050913          	mv	s2,a0
80004b70:	00098593          	mv	a1,s3
80004b74:	000b8513          	mv	a0,s7
80004b78:	01712e23          	sw	s7,28(sp)
80004b7c:	964fe0ef          	jal	ra,80002ce0 <__mulsf3>
80004b80:	00050593          	mv	a1,a0
80004b84:	000c0513          	mv	a0,s8
80004b88:	cd0fe0ef          	jal	ra,80003058 <__subsf3>
80004b8c:	00050993          	mv	s3,a0
80004b90:	000a8593          	mv	a1,s5
80004b94:	000a8513          	mv	a0,s5
80004b98:	948fe0ef          	jal	ra,80002ce0 <__mulsf3>
80004b9c:	00050b13          	mv	s6,a0
80004ba0:	00090593          	mv	a1,s2
80004ba4:	00090513          	mv	a0,s2
80004ba8:	938fe0ef          	jal	ra,80002ce0 <__mulsf3>
80004bac:	00050593          	mv	a1,a0
80004bb0:	000b0513          	mv	a0,s6
80004bb4:	fdcfd0ef          	jal	ra,80002390 <__addsf3>
80004bb8:	00050b13          	mv	s6,a0
80004bbc:	00098593          	mv	a1,s3
80004bc0:	00098513          	mv	a0,s3
80004bc4:	91cfe0ef          	jal	ra,80002ce0 <__mulsf3>
80004bc8:	00050593          	mv	a1,a0
80004bcc:	000b0513          	mv	a0,s6
80004bd0:	fc0fd0ef          	jal	ra,80002390 <__addsf3>
80004bd4:	538020ef          	jal	ra,8000710c <sqrtf>
80004bd8:	00005797          	auipc	a5,0x5
80004bdc:	00050593          	mv	a1,a0
80004be0:	6947a503          	lw	a0,1684(a5) # 8000a26c <_ZL15forceduartflush+0x4>
80004be4:	c01fd0ef          	jal	ra,800027e4 <__divsf3>
80004be8:	000a8593          	mv	a1,s5
80004bec:	00050a93          	mv	s5,a0
80004bf0:	8f0fe0ef          	jal	ra,80002ce0 <__mulsf3>
80004bf4:	00050793          	mv	a5,a0
80004bf8:	00090593          	mv	a1,s2
80004bfc:	000a8513          	mv	a0,s5
80004c00:	00078913          	mv	s2,a5
80004c04:	8dcfe0ef          	jal	ra,80002ce0 <__mulsf3>
80004c08:	00050793          	mv	a5,a0
80004c0c:	00098593          	mv	a1,s3
80004c10:	000a8513          	mv	a0,s5
80004c14:	00078993          	mv	s3,a5
80004c18:	8c8fe0ef          	jal	ra,80002ce0 <__mulsf3>
80004c1c:	00005797          	auipc	a5,0x5
80004c20:	6507ad03          	lw	s10,1616(a5) # 8000a26c <_ZL15forceduartflush+0x4>
80004c24:	008a2783          	lw	a5,8(s4)
80004c28:	000a2883          	lw	a7,0(s4)
80004c2c:	004a2803          	lw	a6,4(s4)
80004c30:	04f12c23          	sw	a5,88(sp)
80004c34:	07812783          	lw	a5,120(sp)
80004c38:	10812683          	lw	a3,264(sp)
80004c3c:	00050313          	mv	t1,a0
80004c40:	04f12023          	sw	a5,64(sp)
80004c44:	07c12783          	lw	a5,124(sp)
80004c48:	04010613          	addi	a2,sp,64
80004c4c:	000d0713          	mv	a4,s10
80004c50:	04f12223          	sw	a5,68(sp)
80004c54:	08012783          	lw	a5,128(sp)
80004c58:	05010593          	addi	a1,sp,80
80004c5c:	0fc10513          	addi	a0,sp,252
80004c60:	00030a13          	mv	s4,t1
80004c64:	05112823          	sw	a7,80(sp)
80004c68:	05012a23          	sw	a6,84(sp)
80004c6c:	04f12423          	sw	a5,72(sp)
80004c70:	aecff0ef          	jal	ra,80003f5c <_Z7refract4vec3S_ff>
80004c74:	0fc12c03          	lw	s8,252(sp)
80004c78:	10012a83          	lw	s5,256(sp)
80004c7c:	10412b83          	lw	s7,260(sp)
80004c80:	000c0593          	mv	a1,s8
80004c84:	000c0513          	mv	a0,s8
80004c88:	858fe0ef          	jal	ra,80002ce0 <__mulsf3>
80004c8c:	00050b13          	mv	s6,a0
80004c90:	000a8593          	mv	a1,s5
80004c94:	000a8513          	mv	a0,s5
80004c98:	848fe0ef          	jal	ra,80002ce0 <__mulsf3>
80004c9c:	00050593          	mv	a1,a0
80004ca0:	000b0513          	mv	a0,s6
80004ca4:	eecfd0ef          	jal	ra,80002390 <__addsf3>
80004ca8:	00050b13          	mv	s6,a0
80004cac:	000b8593          	mv	a1,s7
80004cb0:	000b8513          	mv	a0,s7
80004cb4:	82cfe0ef          	jal	ra,80002ce0 <__mulsf3>
80004cb8:	00050593          	mv	a1,a0
80004cbc:	000b0513          	mv	a0,s6
80004cc0:	ed0fd0ef          	jal	ra,80002390 <__addsf3>
80004cc4:	448020ef          	jal	ra,8000710c <sqrtf>
80004cc8:	00050593          	mv	a1,a0
80004ccc:	000d0513          	mv	a0,s10
80004cd0:	b15fd0ef          	jal	ra,800027e4 <__divsf3>
80004cd4:	00050b13          	mv	s6,a0
80004cd8:	00050593          	mv	a1,a0
80004cdc:	000c0513          	mv	a0,s8
80004ce0:	800fe0ef          	jal	ra,80002ce0 <__mulsf3>
80004ce4:	00050793          	mv	a5,a0
80004ce8:	000b0593          	mv	a1,s6
80004cec:	000a8513          	mv	a0,s5
80004cf0:	00078a93          	mv	s5,a5
80004cf4:	fedfd0ef          	jal	ra,80002ce0 <__mulsf3>
80004cf8:	00050793          	mv	a5,a0
80004cfc:	000b0593          	mv	a1,s6
80004d00:	000b8513          	mv	a0,s7
80004d04:	00078b13          	mv	s6,a5
80004d08:	fd9fd0ef          	jal	ra,80002ce0 <__mulsf3>
80004d0c:	00005717          	auipc	a4,0x5
80004d10:	01812b83          	lw	s7,24(sp)
80004d14:	59872583          	lw	a1,1432(a4) # 8000a2a4 <_ZL15forceduartflush+0x3c>
80004d18:	00050793          	mv	a5,a0
80004d1c:	000b8513          	mv	a0,s7
80004d20:	00f12a23          	sw	a5,20(sp)
80004d24:	fbdfd0ef          	jal	ra,80002ce0 <__mulsf3>
80004d28:	00005717          	auipc	a4,0x5
80004d2c:	02012c03          	lw	s8,32(sp)
80004d30:	57c72583          	lw	a1,1404(a4) # 8000a2a4 <_ZL15forceduartflush+0x3c>
80004d34:	00050793          	mv	a5,a0
80004d38:	000c0513          	mv	a0,s8
80004d3c:	02f12223          	sw	a5,36(sp)
80004d40:	fa1fd0ef          	jal	ra,80002ce0 <__mulsf3>
80004d44:	00005717          	auipc	a4,0x5
80004d48:	01c12d03          	lw	s10,28(sp)
80004d4c:	56072583          	lw	a1,1376(a4) # 8000a2a4 <_ZL15forceduartflush+0x3c>
80004d50:	00050793          	mv	a5,a0
80004d54:	000d0513          	mv	a0,s10
80004d58:	02f12423          	sw	a5,40(sp)
80004d5c:	f85fd0ef          	jal	ra,80002ce0 <__mulsf3>
80004d60:	00050793          	mv	a5,a0
80004d64:	00090593          	mv	a1,s2
80004d68:	000b8513          	mv	a0,s7
80004d6c:	02f12623          	sw	a5,44(sp)
80004d70:	f71fd0ef          	jal	ra,80002ce0 <__mulsf3>
80004d74:	00050b93          	mv	s7,a0
80004d78:	000c0593          	mv	a1,s8
80004d7c:	00098513          	mv	a0,s3
80004d80:	f61fd0ef          	jal	ra,80002ce0 <__mulsf3>
80004d84:	00050593          	mv	a1,a0
80004d88:	000b8513          	mv	a0,s7
80004d8c:	e04fd0ef          	jal	ra,80002390 <__addsf3>
80004d90:	00050b93          	mv	s7,a0
80004d94:	000a0593          	mv	a1,s4
80004d98:	000d0513          	mv	a0,s10
80004d9c:	f45fd0ef          	jal	ra,80002ce0 <__mulsf3>
80004da0:	00050593          	mv	a1,a0
80004da4:	000b8513          	mv	a0,s7
80004da8:	de8fd0ef          	jal	ra,80002390 <__addsf3>
80004dac:	00000593          	li	a1,0
80004db0:	e79fd0ef          	jal	ra,80002c28 <__lesf2>
80004db4:	02412583          	lw	a1,36(sp)
80004db8:	06c12d03          	lw	s10,108(sp)
80004dbc:	07012b83          	lw	s7,112(sp)
80004dc0:	07412c03          	lw	s8,116(sp)
80004dc4:	72054a63          	bltz	a0,800054f8 <_Z8cast_ray4vec3S_P6SphereiP5Lightii+0xbdc>
80004dc8:	000d0513          	mv	a0,s10
80004dcc:	dc4fd0ef          	jal	ra,80002390 <__addsf3>
80004dd0:	02812583          	lw	a1,40(sp)
80004dd4:	00050693          	mv	a3,a0
80004dd8:	000b8513          	mv	a0,s7
80004ddc:	02d12a23          	sw	a3,52(sp)
80004de0:	db0fd0ef          	jal	ra,80002390 <__addsf3>
80004de4:	02c12583          	lw	a1,44(sp)
80004de8:	00050713          	mv	a4,a0
80004dec:	000c0513          	mv	a0,s8
80004df0:	02e12823          	sw	a4,48(sp)
80004df4:	d9cfd0ef          	jal	ra,80002390 <__addsf3>
80004df8:	03412683          	lw	a3,52(sp)
80004dfc:	03012703          	lw	a4,48(sp)
80004e00:	00050793          	mv	a5,a0
80004e04:	01812503          	lw	a0,24(sp)
80004e08:	000a8593          	mv	a1,s5
80004e0c:	08d12e23          	sw	a3,156(sp)
80004e10:	0ae12023          	sw	a4,160(sp)
80004e14:	0af12223          	sw	a5,164(sp)
80004e18:	ec9fd0ef          	jal	ra,80002ce0 <__mulsf3>
80004e1c:	02012583          	lw	a1,32(sp)
80004e20:	02a12823          	sw	a0,48(sp)
80004e24:	000b0513          	mv	a0,s6
80004e28:	eb9fd0ef          	jal	ra,80002ce0 <__mulsf3>
80004e2c:	03012783          	lw	a5,48(sp)
80004e30:	00050593          	mv	a1,a0
80004e34:	00078513          	mv	a0,a5
80004e38:	d58fd0ef          	jal	ra,80002390 <__addsf3>
80004e3c:	01412583          	lw	a1,20(sp)
80004e40:	02a12823          	sw	a0,48(sp)
80004e44:	01c12503          	lw	a0,28(sp)
80004e48:	e99fd0ef          	jal	ra,80002ce0 <__mulsf3>
80004e4c:	03012783          	lw	a5,48(sp)
80004e50:	00050593          	mv	a1,a0
80004e54:	00078513          	mv	a0,a5
80004e58:	d38fd0ef          	jal	ra,80002390 <__addsf3>
80004e5c:	00000593          	li	a1,0
80004e60:	dc9fd0ef          	jal	ra,80002c28 <__lesf2>
80004e64:	02412583          	lw	a1,36(sp)
80004e68:	6c054863          	bltz	a0,80005538 <_Z8cast_ray4vec3S_P6SphereiP5Lightii+0xc1c>
80004e6c:	000d0513          	mv	a0,s10
80004e70:	d20fd0ef          	jal	ra,80002390 <__addsf3>
80004e74:	02812583          	lw	a1,40(sp)
80004e78:	00050e93          	mv	t4,a0
80004e7c:	000b8513          	mv	a0,s7
80004e80:	03d12a23          	sw	t4,52(sp)
80004e84:	d0cfd0ef          	jal	ra,80002390 <__addsf3>
80004e88:	02c12583          	lw	a1,44(sp)
80004e8c:	00050e13          	mv	t3,a0
80004e90:	000c0513          	mv	a0,s8
80004e94:	03c12823          	sw	t3,48(sp)
80004e98:	cf8fd0ef          	jal	ra,80002390 <__addsf3>
80004e9c:	03412e83          	lw	t4,52(sp)
80004ea0:	03012e03          	lw	t3,48(sp)
80004ea4:	00050313          	mv	t1,a0
80004ea8:	0a612823          	sw	t1,176(sp)
80004eac:	09c12303          	lw	t1,156(sp)
80004eb0:	00812803          	lw	a6,8(sp)
80004eb4:	00412703          	lw	a4,4(sp)
80004eb8:	04612823          	sw	t1,80(sp)
80004ebc:	0a012303          	lw	t1,160(sp)
80004ec0:	00012683          	lw	a3,0(sp)
80004ec4:	001d8d93          	addi	s11,s11,1
80004ec8:	04612a23          	sw	t1,84(sp)
80004ecc:	0a412303          	lw	t1,164(sp)
80004ed0:	000d8893          	mv	a7,s11
80004ed4:	00040793          	mv	a5,s0
80004ed8:	04010613          	addi	a2,sp,64
80004edc:	05010593          	addi	a1,sp,80
80004ee0:	0b410513          	addi	a0,sp,180
80004ee4:	0bc12623          	sw	t3,172(sp)
80004ee8:	09212223          	sw	s2,132(sp)
80004eec:	04612c23          	sw	t1,88(sp)
80004ef0:	05212023          	sw	s2,64(sp)
80004ef4:	0bd12423          	sw	t4,168(sp)
80004ef8:	09312423          	sw	s3,136(sp)
80004efc:	09412623          	sw	s4,140(sp)
80004f00:	05312223          	sw	s3,68(sp)
80004f04:	05412423          	sw	s4,72(sp)
80004f08:	a15ff0ef          	jal	ra,8000491c <_Z8cast_ray4vec3S_P6SphereiP5Lightii>
80004f0c:	0a812303          	lw	t1,168(sp)
80004f10:	00812903          	lw	s2,8(sp)
80004f14:	01412e03          	lw	t3,20(sp)
80004f18:	04612823          	sw	t1,80(sp)
80004f1c:	0ac12303          	lw	t1,172(sp)
80004f20:	00412703          	lw	a4,4(sp)
80004f24:	00012683          	lw	a3,0(sp)
80004f28:	04612a23          	sw	t1,84(sp)
80004f2c:	0b012303          	lw	t1,176(sp)
80004f30:	000d8893          	mv	a7,s11
80004f34:	00090813          	mv	a6,s2
80004f38:	00040793          	mv	a5,s0
80004f3c:	04010613          	addi	a2,sp,64
80004f40:	05010593          	addi	a1,sp,80
80004f44:	0c010513          	addi	a0,sp,192
80004f48:	09512823          	sw	s5,144(sp)
80004f4c:	09612a23          	sw	s6,148(sp)
80004f50:	09c12c23          	sw	t3,152(sp)
80004f54:	04612c23          	sw	t1,88(sp)
80004f58:	05512023          	sw	s5,64(sp)
80004f5c:	05612223          	sw	s6,68(sp)
80004f60:	05c12423          	sw	t3,72(sp)
80004f64:	9b9ff0ef          	jal	ra,8000491c <_Z8cast_ray4vec3S_P6SphereiP5Lightii>
80004f68:	61205863          	blez	s2,80005578 <_Z8cast_ray4vec3S_P6SphereiP5Lightii+0xc5c>
80004f6c:	00000793          	li	a5,0
80004f70:	00012a23          	sw	zero,20(sp)
80004f74:	02f12a23          	sw	a5,52(sp)
80004f78:	00078b13          	mv	s6,a5
80004f7c:	03912823          	sw	s9,48(sp)
80004f80:	02912e23          	sw	s1,60(sp)
80004f84:	2000006f          	j	80005184 <_Z8cast_ray4vec3S_P6SphereiP5Lightii+0x868>
80004f88:	000d0513          	mv	a0,s10
80004f8c:	c04fd0ef          	jal	ra,80002390 <__addsf3>
80004f90:	02812583          	lw	a1,40(sp)
80004f94:	00050a93          	mv	s5,a0
80004f98:	000b8513          	mv	a0,s7
80004f9c:	bf4fd0ef          	jal	ra,80002390 <__addsf3>
80004fa0:	02c12583          	lw	a1,44(sp)
80004fa4:	00050a13          	mv	s4,a0
80004fa8:	000c0513          	mv	a0,s8
80004fac:	be4fd0ef          	jal	ra,80002390 <__addsf3>
80004fb0:	00050d93          	mv	s11,a0
80004fb4:	00412683          	lw	a3,4(sp)
80004fb8:	00012603          	lw	a2,0(sp)
80004fbc:	12c10813          	addi	a6,sp,300
80004fc0:	0f010793          	addi	a5,sp,240
80004fc4:	0e410713          	addi	a4,sp,228
80004fc8:	04010593          	addi	a1,sp,64
80004fcc:	05010513          	addi	a0,sp,80
80004fd0:	0d512c23          	sw	s5,216(sp)
80004fd4:	0d412e23          	sw	s4,220(sp)
80004fd8:	0fb12023          	sw	s11,224(sp)
80004fdc:	0c912623          	sw	s1,204(sp)
80004fe0:	0d212823          	sw	s2,208(sp)
80004fe4:	0d312a23          	sw	s3,212(sp)
80004fe8:	05512823          	sw	s5,80(sp)
80004fec:	05412a23          	sw	s4,84(sp)
80004ff0:	05b12c23          	sw	s11,88(sp)
80004ff4:	04912023          	sw	s1,64(sp)
80004ff8:	05212223          	sw	s2,68(sp)
80004ffc:	05312423          	sw	s3,72(sp)
80005000:	b48ff0ef          	jal	ra,80004348 <_Z15scene_intersect4vec3S_P6SphereiPS_S2_P8Material>
80005004:	32051e63          	bnez	a0,80005340 <_Z8cast_ray4vec3S_P6SphereiP5Lightii+0xa24>
80005008:	07812c83          	lw	s9,120(sp)
8000500c:	07c12d83          	lw	s11,124(sp)
80005010:	00048513          	mv	a0,s1
80005014:	000c8593          	mv	a1,s9
80005018:	cc9fd0ef          	jal	ra,80002ce0 <__mulsf3>
8000501c:	00050a13          	mv	s4,a0
80005020:	000d8593          	mv	a1,s11
80005024:	00090513          	mv	a0,s2
80005028:	cb9fd0ef          	jal	ra,80002ce0 <__mulsf3>
8000502c:	08012a83          	lw	s5,128(sp)
80005030:	00050593          	mv	a1,a0
80005034:	000a0513          	mv	a0,s4
80005038:	b58fd0ef          	jal	ra,80002390 <__addsf3>
8000503c:	00050a13          	mv	s4,a0
80005040:	000a8593          	mv	a1,s5
80005044:	00098513          	mv	a0,s3
80005048:	c99fd0ef          	jal	ra,80002ce0 <__mulsf3>
8000504c:	00050593          	mv	a1,a0
80005050:	000a0513          	mv	a0,s4
80005054:	b3cfd0ef          	jal	ra,80002390 <__addsf3>
80005058:	00000593          	li	a1,0
8000505c:	00050a13          	mv	s4,a0
80005060:	b11fd0ef          	jal	ra,80002b70 <__gesf2>
80005064:	000a0713          	mv	a4,s4
80005068:	00055463          	bgez	a0,80005070 <_Z8cast_ray4vec3S_P6SphereiP5Lightii+0x754>
8000506c:	00000713          	li	a4,0
80005070:	00c42583          	lw	a1,12(s0)
80005074:	00070513          	mv	a0,a4
80005078:	c69fd0ef          	jal	ra,80002ce0 <__mulsf3>
8000507c:	00050593          	mv	a1,a0
80005080:	000b0513          	mv	a0,s6
80005084:	b0cfd0ef          	jal	ra,80002390 <__addsf3>
80005088:	00005717          	auipc	a4,0x5
8000508c:	22072583          	lw	a1,544(a4) # 8000a2a8 <_ZL15forceduartflush+0x40>
80005090:	00050b13          	mv	s6,a0
80005094:	000a0513          	mv	a0,s4
80005098:	c49fd0ef          	jal	ra,80002ce0 <__mulsf3>
8000509c:	000c8593          	mv	a1,s9
800050a0:	00050a13          	mv	s4,a0
800050a4:	c3dfd0ef          	jal	ra,80002ce0 <__mulsf3>
800050a8:	00048593          	mv	a1,s1
800050ac:	ae4fd0ef          	jal	ra,80002390 <__addsf3>
800050b0:	01012583          	lw	a1,16(sp)
800050b4:	c2dfd0ef          	jal	ra,80002ce0 <__mulsf3>
800050b8:	00050493          	mv	s1,a0
800050bc:	000d8593          	mv	a1,s11
800050c0:	000a0513          	mv	a0,s4
800050c4:	c1dfd0ef          	jal	ra,80002ce0 <__mulsf3>
800050c8:	00090593          	mv	a1,s2
800050cc:	ac4fd0ef          	jal	ra,80002390 <__addsf3>
800050d0:	03012583          	lw	a1,48(sp)
800050d4:	c0dfd0ef          	jal	ra,80002ce0 <__mulsf3>
800050d8:	00050593          	mv	a1,a0
800050dc:	00048513          	mv	a0,s1
800050e0:	ab0fd0ef          	jal	ra,80002390 <__addsf3>
800050e4:	00050493          	mv	s1,a0
800050e8:	000a8593          	mv	a1,s5
800050ec:	000a0513          	mv	a0,s4
800050f0:	bf1fd0ef          	jal	ra,80002ce0 <__mulsf3>
800050f4:	00098593          	mv	a1,s3
800050f8:	a98fd0ef          	jal	ra,80002390 <__addsf3>
800050fc:	00c12583          	lw	a1,12(sp)
80005100:	be1fd0ef          	jal	ra,80002ce0 <__mulsf3>
80005104:	00050593          	mv	a1,a0
80005108:	00048513          	mv	a0,s1
8000510c:	a84fd0ef          	jal	ra,80002390 <__addsf3>
80005110:	00000593          	li	a1,0
80005114:	00050493          	mv	s1,a0
80005118:	a59fd0ef          	jal	ra,80002b70 <__gesf2>
8000511c:	00055463          	bgez	a0,80005124 <_Z8cast_ray4vec3S_P6SphereiP5Lightii+0x808>
80005120:	00000493          	li	s1,0
80005124:	00000593          	li	a1,0
80005128:	00048513          	mv	a0,s1
8000512c:	a45fd0ef          	jal	ra,80002b70 <__gesf2>
80005130:	02a05e63          	blez	a0,8000516c <_Z8cast_ray4vec3S_P6SphereiP5Lightii+0x850>
80005134:	12812903          	lw	s2,296(sp)
80005138:	00000593          	li	a1,0
8000513c:	00090513          	mv	a0,s2
80005140:	a31fd0ef          	jal	ra,80002b70 <__gesf2>
80005144:	02a05463          	blez	a0,8000516c <_Z8cast_ray4vec3S_P6SphereiP5Lightii+0x850>
80005148:	00090593          	mv	a1,s2
8000514c:	00048513          	mv	a0,s1
80005150:	6b1010ef          	jal	ra,80007000 <powf>
80005154:	00c42583          	lw	a1,12(s0)
80005158:	b89fd0ef          	jal	ra,80002ce0 <__mulsf3>
8000515c:	00050593          	mv	a1,a0
80005160:	03412503          	lw	a0,52(sp)
80005164:	a2cfd0ef          	jal	ra,80002390 <__addsf3>
80005168:	02a12a23          	sw	a0,52(sp)
8000516c:	01412783          	lw	a5,20(sp)
80005170:	00812703          	lw	a4,8(sp)
80005174:	01040413          	addi	s0,s0,16
80005178:	00178793          	addi	a5,a5,1
8000517c:	00f12a23          	sw	a5,20(sp)
80005180:	24f70c63          	beq	a4,a5,800053d8 <_Z8cast_ray4vec3S_P6SphereiP5Lightii+0xabc>
80005184:	00042503          	lw	a0,0(s0)
80005188:	000d0593          	mv	a1,s10
8000518c:	ecdfd0ef          	jal	ra,80003058 <__subsf3>
80005190:	00050493          	mv	s1,a0
80005194:	00442503          	lw	a0,4(s0)
80005198:	000b8593          	mv	a1,s7
8000519c:	ebdfd0ef          	jal	ra,80003058 <__subsf3>
800051a0:	00050913          	mv	s2,a0
800051a4:	00842503          	lw	a0,8(s0)
800051a8:	000c0593          	mv	a1,s8
800051ac:	eadfd0ef          	jal	ra,80003058 <__subsf3>
800051b0:	00050993          	mv	s3,a0
800051b4:	00048593          	mv	a1,s1
800051b8:	00048513          	mv	a0,s1
800051bc:	b25fd0ef          	jal	ra,80002ce0 <__mulsf3>
800051c0:	00050a13          	mv	s4,a0
800051c4:	00090593          	mv	a1,s2
800051c8:	00090513          	mv	a0,s2
800051cc:	b15fd0ef          	jal	ra,80002ce0 <__mulsf3>
800051d0:	00050593          	mv	a1,a0
800051d4:	000a0513          	mv	a0,s4
800051d8:	9b8fd0ef          	jal	ra,80002390 <__addsf3>
800051dc:	00050a13          	mv	s4,a0
800051e0:	00098593          	mv	a1,s3
800051e4:	00098513          	mv	a0,s3
800051e8:	af9fd0ef          	jal	ra,80002ce0 <__mulsf3>
800051ec:	00050593          	mv	a1,a0
800051f0:	000a0513          	mv	a0,s4
800051f4:	99cfd0ef          	jal	ra,80002390 <__addsf3>
800051f8:	715010ef          	jal	ra,8000710c <sqrtf>
800051fc:	00005797          	auipc	a5,0x5
80005200:	00050593          	mv	a1,a0
80005204:	0707a503          	lw	a0,112(a5) # 8000a26c <_ZL15forceduartflush+0x4>
80005208:	ddcfd0ef          	jal	ra,800027e4 <__divsf3>
8000520c:	00048593          	mv	a1,s1
80005210:	00050a13          	mv	s4,a0
80005214:	acdfd0ef          	jal	ra,80002ce0 <__mulsf3>
80005218:	00090593          	mv	a1,s2
8000521c:	00050493          	mv	s1,a0
80005220:	000a0513          	mv	a0,s4
80005224:	abdfd0ef          	jal	ra,80002ce0 <__mulsf3>
80005228:	00098593          	mv	a1,s3
8000522c:	00050913          	mv	s2,a0
80005230:	000a0513          	mv	a0,s4
80005234:	aadfd0ef          	jal	ra,80002ce0 <__mulsf3>
80005238:	00050993          	mv	s3,a0
8000523c:	00042503          	lw	a0,0(s0)
80005240:	000d0593          	mv	a1,s10
80005244:	e15fd0ef          	jal	ra,80003058 <__subsf3>
80005248:	00050a13          	mv	s4,a0
8000524c:	00442503          	lw	a0,4(s0)
80005250:	000b8593          	mv	a1,s7
80005254:	e05fd0ef          	jal	ra,80003058 <__subsf3>
80005258:	00050d93          	mv	s11,a0
8000525c:	00842503          	lw	a0,8(s0)
80005260:	000c0593          	mv	a1,s8
80005264:	df5fd0ef          	jal	ra,80003058 <__subsf3>
80005268:	00050a93          	mv	s5,a0
8000526c:	000a0593          	mv	a1,s4
80005270:	000a0513          	mv	a0,s4
80005274:	a6dfd0ef          	jal	ra,80002ce0 <__mulsf3>
80005278:	00050a13          	mv	s4,a0
8000527c:	000d8593          	mv	a1,s11
80005280:	000d8513          	mv	a0,s11
80005284:	a5dfd0ef          	jal	ra,80002ce0 <__mulsf3>
80005288:	00050593          	mv	a1,a0
8000528c:	000a0513          	mv	a0,s4
80005290:	900fd0ef          	jal	ra,80002390 <__addsf3>
80005294:	00050a13          	mv	s4,a0
80005298:	000a8593          	mv	a1,s5
8000529c:	000a8513          	mv	a0,s5
800052a0:	a41fd0ef          	jal	ra,80002ce0 <__mulsf3>
800052a4:	00050593          	mv	a1,a0
800052a8:	000a0513          	mv	a0,s4
800052ac:	8e4fd0ef          	jal	ra,80002390 <__addsf3>
800052b0:	65d010ef          	jal	ra,8000710c <sqrtf>
800052b4:	00050d93          	mv	s11,a0
800052b8:	01812503          	lw	a0,24(sp)
800052bc:	00048593          	mv	a1,s1
800052c0:	000d8c93          	mv	s9,s11
800052c4:	a1dfd0ef          	jal	ra,80002ce0 <__mulsf3>
800052c8:	02012583          	lw	a1,32(sp)
800052cc:	00050a13          	mv	s4,a0
800052d0:	00090513          	mv	a0,s2
800052d4:	a0dfd0ef          	jal	ra,80002ce0 <__mulsf3>
800052d8:	00050593          	mv	a1,a0
800052dc:	000a0513          	mv	a0,s4
800052e0:	8b0fd0ef          	jal	ra,80002390 <__addsf3>
800052e4:	00050a13          	mv	s4,a0
800052e8:	01c12503          	lw	a0,28(sp)
800052ec:	00098593          	mv	a1,s3
800052f0:	9f1fd0ef          	jal	ra,80002ce0 <__mulsf3>
800052f4:	00050593          	mv	a1,a0
800052f8:	000a0513          	mv	a0,s4
800052fc:	894fd0ef          	jal	ra,80002390 <__addsf3>
80005300:	00000593          	li	a1,0
80005304:	925fd0ef          	jal	ra,80002c28 <__lesf2>
80005308:	02412583          	lw	a1,36(sp)
8000530c:	c6055ee3          	bgez	a0,80004f88 <_Z8cast_ray4vec3S_P6SphereiP5Lightii+0x66c>
80005310:	000d0513          	mv	a0,s10
80005314:	d45fd0ef          	jal	ra,80003058 <__subsf3>
80005318:	02812583          	lw	a1,40(sp)
8000531c:	00050a93          	mv	s5,a0
80005320:	000b8513          	mv	a0,s7
80005324:	d35fd0ef          	jal	ra,80003058 <__subsf3>
80005328:	02c12583          	lw	a1,44(sp)
8000532c:	00050a13          	mv	s4,a0
80005330:	000c0513          	mv	a0,s8
80005334:	d25fd0ef          	jal	ra,80003058 <__subsf3>
80005338:	00050d93          	mv	s11,a0
8000533c:	c79ff06f          	j	80004fb4 <_Z8cast_ray4vec3S_P6SphereiP5Lightii+0x698>
80005340:	0e412503          	lw	a0,228(sp)
80005344:	000a8593          	mv	a1,s5
80005348:	d11fd0ef          	jal	ra,80003058 <__subsf3>
8000534c:	00050793          	mv	a5,a0
80005350:	0e812503          	lw	a0,232(sp)
80005354:	000a0593          	mv	a1,s4
80005358:	00078a13          	mv	s4,a5
8000535c:	cfdfd0ef          	jal	ra,80003058 <__subsf3>
80005360:	00050793          	mv	a5,a0
80005364:	0ec12503          	lw	a0,236(sp)
80005368:	000d8593          	mv	a1,s11
8000536c:	02f12c23          	sw	a5,56(sp)
80005370:	ce9fd0ef          	jal	ra,80003058 <__subsf3>
80005374:	00050a93          	mv	s5,a0
80005378:	000a0593          	mv	a1,s4
8000537c:	000a0513          	mv	a0,s4
80005380:	961fd0ef          	jal	ra,80002ce0 <__mulsf3>
80005384:	03812783          	lw	a5,56(sp)
80005388:	00050a13          	mv	s4,a0
8000538c:	00078593          	mv	a1,a5
80005390:	00078513          	mv	a0,a5
80005394:	94dfd0ef          	jal	ra,80002ce0 <__mulsf3>
80005398:	00050593          	mv	a1,a0
8000539c:	000a0513          	mv	a0,s4
800053a0:	ff1fc0ef          	jal	ra,80002390 <__addsf3>
800053a4:	00050a13          	mv	s4,a0
800053a8:	000a8593          	mv	a1,s5
800053ac:	000a8513          	mv	a0,s5
800053b0:	931fd0ef          	jal	ra,80002ce0 <__mulsf3>
800053b4:	00050593          	mv	a1,a0
800053b8:	000a0513          	mv	a0,s4
800053bc:	fd5fc0ef          	jal	ra,80002390 <__addsf3>
800053c0:	54d010ef          	jal	ra,8000710c <sqrtf>
800053c4:	00050593          	mv	a1,a0
800053c8:	000c8513          	mv	a0,s9
800053cc:	fa4fd0ef          	jal	ra,80002b70 <__gesf2>
800053d0:	c2a05ce3          	blez	a0,80005008 <_Z8cast_ray4vec3S_P6SphereiP5Lightii+0x6ec>
800053d4:	d99ff06f          	j	8000516c <_Z8cast_ray4vec3S_P6SphereiP5Lightii+0x850>
800053d8:	03c12483          	lw	s1,60(sp)
800053dc:	000b0793          	mv	a5,s6
800053e0:	10c12583          	lw	a1,268(sp)
800053e4:	00078513          	mv	a0,a5
800053e8:	8f9fd0ef          	jal	ra,80002ce0 <__mulsf3>
800053ec:	00050993          	mv	s3,a0
800053f0:	11012583          	lw	a1,272(sp)
800053f4:	03412503          	lw	a0,52(sp)
800053f8:	8e9fd0ef          	jal	ra,80002ce0 <__mulsf3>
800053fc:	11812a83          	lw	s5,280(sp)
80005400:	0c012583          	lw	a1,192(sp)
80005404:	00050a13          	mv	s4,a0
80005408:	000a8513          	mv	a0,s5
8000540c:	8d5fd0ef          	jal	ra,80002ce0 <__mulsf3>
80005410:	11412b03          	lw	s6,276(sp)
80005414:	0b412583          	lw	a1,180(sp)
80005418:	00050413          	mv	s0,a0
8000541c:	000b0513          	mv	a0,s6
80005420:	8c1fd0ef          	jal	ra,80002ce0 <__mulsf3>
80005424:	00050593          	mv	a1,a0
80005428:	00040513          	mv	a0,s0
8000542c:	f65fc0ef          	jal	ra,80002390 <__addsf3>
80005430:	000a0593          	mv	a1,s4
80005434:	f5dfc0ef          	jal	ra,80002390 <__addsf3>
80005438:	11c12583          	lw	a1,284(sp)
8000543c:	00050413          	mv	s0,a0
80005440:	00098513          	mv	a0,s3
80005444:	89dfd0ef          	jal	ra,80002ce0 <__mulsf3>
80005448:	00050593          	mv	a1,a0
8000544c:	00040513          	mv	a0,s0
80005450:	f41fc0ef          	jal	ra,80002390 <__addsf3>
80005454:	0c412583          	lw	a1,196(sp)
80005458:	00050913          	mv	s2,a0
8000545c:	000a8513          	mv	a0,s5
80005460:	881fd0ef          	jal	ra,80002ce0 <__mulsf3>
80005464:	0b812583          	lw	a1,184(sp)
80005468:	00050413          	mv	s0,a0
8000546c:	000b0513          	mv	a0,s6
80005470:	871fd0ef          	jal	ra,80002ce0 <__mulsf3>
80005474:	00050593          	mv	a1,a0
80005478:	00040513          	mv	a0,s0
8000547c:	f15fc0ef          	jal	ra,80002390 <__addsf3>
80005480:	000a0593          	mv	a1,s4
80005484:	f0dfc0ef          	jal	ra,80002390 <__addsf3>
80005488:	12012583          	lw	a1,288(sp)
8000548c:	00050413          	mv	s0,a0
80005490:	00098513          	mv	a0,s3
80005494:	84dfd0ef          	jal	ra,80002ce0 <__mulsf3>
80005498:	00050593          	mv	a1,a0
8000549c:	00040513          	mv	a0,s0
800054a0:	ef1fc0ef          	jal	ra,80002390 <__addsf3>
800054a4:	0c812583          	lw	a1,200(sp)
800054a8:	00050413          	mv	s0,a0
800054ac:	000a8513          	mv	a0,s5
800054b0:	831fd0ef          	jal	ra,80002ce0 <__mulsf3>
800054b4:	0bc12583          	lw	a1,188(sp)
800054b8:	00050a93          	mv	s5,a0
800054bc:	000b0513          	mv	a0,s6
800054c0:	821fd0ef          	jal	ra,80002ce0 <__mulsf3>
800054c4:	00050593          	mv	a1,a0
800054c8:	000a8513          	mv	a0,s5
800054cc:	ec5fc0ef          	jal	ra,80002390 <__addsf3>
800054d0:	000a0593          	mv	a1,s4
800054d4:	ebdfc0ef          	jal	ra,80002390 <__addsf3>
800054d8:	12412583          	lw	a1,292(sp)
800054dc:	00050a13          	mv	s4,a0
800054e0:	00098513          	mv	a0,s3
800054e4:	ffcfd0ef          	jal	ra,80002ce0 <__mulsf3>
800054e8:	00050593          	mv	a1,a0
800054ec:	000a0513          	mv	a0,s4
800054f0:	ea1fc0ef          	jal	ra,80002390 <__addsf3>
800054f4:	d34ff06f          	j	80004a28 <_Z8cast_ray4vec3S_P6SphereiP5Lightii+0x10c>
800054f8:	000d0513          	mv	a0,s10
800054fc:	b5dfd0ef          	jal	ra,80003058 <__subsf3>
80005500:	02812583          	lw	a1,40(sp)
80005504:	00050693          	mv	a3,a0
80005508:	000b8513          	mv	a0,s7
8000550c:	02d12a23          	sw	a3,52(sp)
80005510:	b49fd0ef          	jal	ra,80003058 <__subsf3>
80005514:	02c12583          	lw	a1,44(sp)
80005518:	00050713          	mv	a4,a0
8000551c:	000c0513          	mv	a0,s8
80005520:	02e12823          	sw	a4,48(sp)
80005524:	b35fd0ef          	jal	ra,80003058 <__subsf3>
80005528:	03012703          	lw	a4,48(sp)
8000552c:	03412683          	lw	a3,52(sp)
80005530:	00050793          	mv	a5,a0
80005534:	8d1ff06f          	j	80004e04 <_Z8cast_ray4vec3S_P6SphereiP5Lightii+0x4e8>
80005538:	000d0513          	mv	a0,s10
8000553c:	b1dfd0ef          	jal	ra,80003058 <__subsf3>
80005540:	02812583          	lw	a1,40(sp)
80005544:	00050e93          	mv	t4,a0
80005548:	000b8513          	mv	a0,s7
8000554c:	03d12a23          	sw	t4,52(sp)
80005550:	b09fd0ef          	jal	ra,80003058 <__subsf3>
80005554:	02c12583          	lw	a1,44(sp)
80005558:	00050e13          	mv	t3,a0
8000555c:	000c0513          	mv	a0,s8
80005560:	03c12823          	sw	t3,48(sp)
80005564:	af5fd0ef          	jal	ra,80003058 <__subsf3>
80005568:	03012e03          	lw	t3,48(sp)
8000556c:	03412e83          	lw	t4,52(sp)
80005570:	00050313          	mv	t1,a0
80005574:	935ff06f          	j	80004ea8 <_Z8cast_ray4vec3S_P6SphereiP5Lightii+0x58c>
80005578:	00000793          	li	a5,0
8000557c:	02f12a23          	sw	a5,52(sp)
80005580:	e61ff06f          	j	800053e0 <_Z8cast_ray4vec3S_P6SphereiP5Lightii+0xac4>

80005584 <_Z6renderiP6SphereiP5Lighti>:
80005584:	01f55793          	srli	a5,a0,0x1f
80005588:	00a787b3          	add	a5,a5,a0
8000558c:	e4010113          	addi	sp,sp,-448
80005590:	4017d793          	srai	a5,a5,0x1
80005594:	1a112e23          	sw	ra,444(sp)
80005598:	1a812c23          	sw	s0,440(sp)
8000559c:	1a912a23          	sw	s1,436(sp)
800055a0:	1b212823          	sw	s2,432(sp)
800055a4:	1b312623          	sw	s3,428(sp)
800055a8:	1b412423          	sw	s4,424(sp)
800055ac:	1b512223          	sw	s5,420(sp)
800055b0:	1b612023          	sw	s6,416(sp)
800055b4:	19712e23          	sw	s7,412(sp)
800055b8:	19812c23          	sw	s8,408(sp)
800055bc:	19912a23          	sw	s9,404(sp)
800055c0:	19a12823          	sw	s10,400(sp)
800055c4:	19b12623          	sw	s11,396(sp)
800055c8:	09f00813          	li	a6,159
800055cc:	00b12823          	sw	a1,16(sp)
800055d0:	00c12a23          	sw	a2,20(sp)
800055d4:	04d12a23          	sw	a3,84(sp)
800055d8:	04e12023          	sw	a4,64(sp)
800055dc:	04f12c23          	sw	a5,88(sp)
800055e0:	00a85463          	bge	a6,a0,800055e8 <_Z6renderiP6SphereiP5Lighti+0x64>
800055e4:	5810006f          	j	80006364 <_Z6renderiP6SphereiP5Lighti+0xde0>
800055e8:	01f55713          	srli	a4,a0,0x1f
800055ec:	00e507b3          	add	a5,a0,a4
800055f0:	0017f793          	andi	a5,a5,1
800055f4:	40e787b3          	sub	a5,a5,a4
800055f8:	04f12e23          	sw	a5,92(sp)
800055fc:	05812503          	lw	a0,88(sp)
80005600:	ce9fc0ef          	jal	ra,800022e8 <__floatsidf>
80005604:	00005797          	auipc	a5,0x5
80005608:	00050613          	mv	a2,a0
8000560c:	00058693          	mv	a3,a1
80005610:	d2c7a503          	lw	a0,-724(a5) # 8000a330 <_ZL15forceduartflush+0xc8>
80005614:	d307a583          	lw	a1,-720(a5)
80005618:	05c12783          	lw	a5,92(sp)
8000561c:	00f12c23          	sw	a5,24(sp)
80005620:	c58fc0ef          	jal	ra,80001a78 <__subdf3>
80005624:	fe1fd0ef          	jal	ra,80003604 <__truncdfsf2>
80005628:	00050593          	mv	a1,a0
8000562c:	04a12623          	sw	a0,76(sp)
80005630:	eb0fd0ef          	jal	ra,80002ce0 <__mulsf3>
80005634:	04a12823          	sw	a0,80(sp)
80005638:	1980006f          	j	800057d0 <_Z6renderiP6SphereiP5Lighti+0x24c>
8000563c:	00040513          	mv	a0,s0
80005640:	ee9fd0ef          	jal	ra,80003528 <__extendsfdf2>
80005644:	00005797          	auipc	a5,0x5
80005648:	ce47a603          	lw	a2,-796(a5) # 8000a328 <_ZL15forceduartflush+0xc0>
8000564c:	ce87a683          	lw	a3,-792(a5)
80005650:	cbdfa0ef          	jal	ra,8000030c <__adddf3>
80005654:	00005797          	auipc	a5,0x5
80005658:	cc47a603          	lw	a2,-828(a5) # 8000a318 <_ZL15forceduartflush+0xb0>
8000565c:	cc87a683          	lw	a3,-824(a5)
80005660:	d4dfb0ef          	jal	ra,800013ac <__muldf3>
80005664:	fa1fd0ef          	jal	ra,80003604 <__truncdfsf2>
80005668:	00005797          	auipc	a5,0x5
8000566c:	c287a583          	lw	a1,-984(a5) # 8000a290 <_ZL15forceduartflush+0x28>
80005670:	00050413          	mv	s0,a0
80005674:	e6cfd0ef          	jal	ra,80002ce0 <__mulsf3>
80005678:	00005797          	auipc	a5,0x5
8000567c:	c247a583          	lw	a1,-988(a5) # 8000a29c <_ZL15forceduartflush+0x34>
80005680:	00050913          	mv	s2,a0
80005684:	00040513          	mv	a0,s0
80005688:	e58fd0ef          	jal	ra,80002ce0 <__mulsf3>
8000568c:	00005797          	auipc	a5,0x5
80005690:	c147a583          	lw	a1,-1004(a5) # 8000a2a0 <_ZL15forceduartflush+0x38>
80005694:	00050493          	mv	s1,a0
80005698:	00040513          	mv	a0,s0
8000569c:	e44fd0ef          	jal	ra,80002ce0 <__mulsf3>
800056a0:	00050413          	mv	s0,a0
800056a4:	00004517          	auipc	a0,0x4
800056a8:	1d450513          	addi	a0,a0,468 # 80009878 <__clz_tab+0x100>
800056ac:	110010ef          	jal	ra,800067bc <_Z9UARTWritePKc>
800056b0:	00005797          	auipc	a5,0x5
800056b4:	bbc7a983          	lw	s3,-1092(a5) # 8000a26c <_ZL15forceduartflush+0x4>
800056b8:	00090513          	mv	a0,s2
800056bc:	00098593          	mv	a1,s3
800056c0:	d68fd0ef          	jal	ra,80002c28 <__lesf2>
800056c4:	00a05463          	blez	a0,800056cc <_Z6renderiP6SphereiP5Lighti+0x148>
800056c8:	00098913          	mv	s2,s3
800056cc:	00000593          	li	a1,0
800056d0:	00090513          	mv	a0,s2
800056d4:	c9cfd0ef          	jal	ra,80002b70 <__gesf2>
800056d8:	00055463          	bgez	a0,800056e0 <_Z6renderiP6SphereiP5Lighti+0x15c>
800056dc:	00000913          	li	s2,0
800056e0:	00005797          	auipc	a5,0x5
800056e4:	b907a583          	lw	a1,-1136(a5) # 8000a270 <_ZL15forceduartflush+0x8>
800056e8:	00090513          	mv	a0,s2
800056ec:	df4fd0ef          	jal	ra,80002ce0 <__mulsf3>
800056f0:	dd5fd0ef          	jal	ra,800034c4 <__fixunssfsi>
800056f4:	0ff57513          	zext.b	a0,a0
800056f8:	440010ef          	jal	ra,80006b38 <_Z16UARTWriteDecimall>
800056fc:	00004517          	auipc	a0,0x4
80005700:	18450513          	addi	a0,a0,388 # 80009880 <__clz_tab+0x108>
80005704:	0b8010ef          	jal	ra,800067bc <_Z9UARTWritePKc>
80005708:	00005797          	auipc	a5,0x5
8000570c:	b647a903          	lw	s2,-1180(a5) # 8000a26c <_ZL15forceduartflush+0x4>
80005710:	00048513          	mv	a0,s1
80005714:	00090593          	mv	a1,s2
80005718:	d10fd0ef          	jal	ra,80002c28 <__lesf2>
8000571c:	00a05463          	blez	a0,80005724 <_Z6renderiP6SphereiP5Lighti+0x1a0>
80005720:	00090493          	mv	s1,s2
80005724:	00000593          	li	a1,0
80005728:	00048513          	mv	a0,s1
8000572c:	c44fd0ef          	jal	ra,80002b70 <__gesf2>
80005730:	00055463          	bgez	a0,80005738 <_Z6renderiP6SphereiP5Lighti+0x1b4>
80005734:	00000493          	li	s1,0
80005738:	00005797          	auipc	a5,0x5
8000573c:	b387a583          	lw	a1,-1224(a5) # 8000a270 <_ZL15forceduartflush+0x8>
80005740:	00048513          	mv	a0,s1
80005744:	d9cfd0ef          	jal	ra,80002ce0 <__mulsf3>
80005748:	d7dfd0ef          	jal	ra,800034c4 <__fixunssfsi>
8000574c:	0ff57513          	zext.b	a0,a0
80005750:	3e8010ef          	jal	ra,80006b38 <_Z16UARTWriteDecimall>
80005754:	00004517          	auipc	a0,0x4
80005758:	12c50513          	addi	a0,a0,300 # 80009880 <__clz_tab+0x108>
8000575c:	060010ef          	jal	ra,800067bc <_Z9UARTWritePKc>
80005760:	00005797          	auipc	a5,0x5
80005764:	b0c7a483          	lw	s1,-1268(a5) # 8000a26c <_ZL15forceduartflush+0x4>
80005768:	00040513          	mv	a0,s0
8000576c:	00048593          	mv	a1,s1
80005770:	cb8fd0ef          	jal	ra,80002c28 <__lesf2>
80005774:	00a05463          	blez	a0,8000577c <_Z6renderiP6SphereiP5Lighti+0x1f8>
80005778:	00048413          	mv	s0,s1
8000577c:	00000593          	li	a1,0
80005780:	00040513          	mv	a0,s0
80005784:	becfd0ef          	jal	ra,80002b70 <__gesf2>
80005788:	00055463          	bgez	a0,80005790 <_Z6renderiP6SphereiP5Lighti+0x20c>
8000578c:	00000413          	li	s0,0
80005790:	00005797          	auipc	a5,0x5
80005794:	ae07a583          	lw	a1,-1312(a5) # 8000a270 <_ZL15forceduartflush+0x8>
80005798:	00040513          	mv	a0,s0
8000579c:	d44fd0ef          	jal	ra,80002ce0 <__mulsf3>
800057a0:	d25fd0ef          	jal	ra,800034c4 <__fixunssfsi>
800057a4:	0ff57513          	zext.b	a0,a0
800057a8:	390010ef          	jal	ra,80006b38 <_Z16UARTWriteDecimall>
800057ac:	00004517          	auipc	a0,0x4
800057b0:	0d850513          	addi	a0,a0,216 # 80009884 <__clz_tab+0x10c>
800057b4:	008010ef          	jal	ra,800067bc <_Z9UARTWritePKc>
800057b8:	01812703          	lw	a4,24(sp)
800057bc:	04f00793          	li	a5,79
800057c0:	36f70ee3          	beq	a4,a5,8000633c <_Z6renderiP6SphereiP5Lighti+0xdb8>
800057c4:	00270713          	addi	a4,a4,2
800057c8:	00e12c23          	sw	a4,24(sp)
800057cc:	36e7cee3          	blt	a5,a4,80006348 <_Z6renderiP6SphereiP5Lighti+0xdc4>
800057d0:	01812503          	lw	a0,24(sp)
800057d4:	b15fc0ef          	jal	ra,800022e8 <__floatsidf>
800057d8:	00005797          	auipc	a5,0x5
800057dc:	b587a603          	lw	a2,-1192(a5) # 8000a330 <_ZL15forceduartflush+0xc8>
800057e0:	b5c7a683          	lw	a3,-1188(a5)
800057e4:	a94fc0ef          	jal	ra,80001a78 <__subdf3>
800057e8:	e1dfd0ef          	jal	ra,80003604 <__truncdfsf2>
800057ec:	00005797          	auipc	a5,0x5
800057f0:	00050493          	mv	s1,a0
800057f4:	b507a583          	lw	a1,-1200(a5) # 8000a33c <_ZL15forceduartflush+0xd4>
800057f8:	b4c7a503          	lw	a0,-1204(a5)
800057fc:	788010ef          	jal	ra,80006f84 <tan>
80005800:	00005797          	auipc	a5,0x5
80005804:	00050613          	mv	a2,a0
80005808:	00058693          	mv	a3,a1
8000580c:	b407a503          	lw	a0,-1216(a5) # 8000a340 <_ZL15forceduartflush+0xd8>
80005810:	b447a583          	lw	a1,-1212(a5)
80005814:	ad4fb0ef          	jal	ra,80000ae8 <__divdf3>
80005818:	dedfd0ef          	jal	ra,80003604 <__truncdfsf2>
8000581c:	00050593          	mv	a1,a0
80005820:	00050913          	mv	s2,a0
80005824:	cbcfd0ef          	jal	ra,80002ce0 <__mulsf3>
80005828:	05012583          	lw	a1,80(sp)
8000582c:	b65fc0ef          	jal	ra,80002390 <__addsf3>
80005830:	00050413          	mv	s0,a0
80005834:	00048593          	mv	a1,s1
80005838:	00048513          	mv	a0,s1
8000583c:	ca4fd0ef          	jal	ra,80002ce0 <__mulsf3>
80005840:	00050593          	mv	a1,a0
80005844:	00040513          	mv	a0,s0
80005848:	b49fc0ef          	jal	ra,80002390 <__addsf3>
8000584c:	0c1010ef          	jal	ra,8000710c <sqrtf>
80005850:	00005797          	auipc	a5,0x5
80005854:	00050593          	mv	a1,a0
80005858:	a1c7a503          	lw	a0,-1508(a5) # 8000a26c <_ZL15forceduartflush+0x4>
8000585c:	f89fc0ef          	jal	ra,800027e4 <__divsf3>
80005860:	00050413          	mv	s0,a0
80005864:	00050593          	mv	a1,a0
80005868:	00048513          	mv	a0,s1
8000586c:	c74fd0ef          	jal	ra,80002ce0 <__mulsf3>
80005870:	00050793          	mv	a5,a0
80005874:	04c12503          	lw	a0,76(sp)
80005878:	00040593          	mv	a1,s0
8000587c:	00078493          	mv	s1,a5
80005880:	00f12e23          	sw	a5,28(sp)
80005884:	c5cfd0ef          	jal	ra,80002ce0 <__mulsf3>
80005888:	00050793          	mv	a5,a0
8000588c:	00040593          	mv	a1,s0
80005890:	00090513          	mv	a0,s2
80005894:	00078413          	mv	s0,a5
80005898:	02f12023          	sw	a5,32(sp)
8000589c:	c44fd0ef          	jal	ra,80002ce0 <__mulsf3>
800058a0:	00005797          	auipc	a5,0x5
800058a4:	9cc7a303          	lw	t1,-1588(a5) # 8000a26c <_ZL15forceduartflush+0x4>
800058a8:	00005797          	auipc	a5,0x5
800058ac:	9c47a883          	lw	a7,-1596(a5) # 8000a26c <_ZL15forceduartflush+0x4>
800058b0:	01412683          	lw	a3,20(sp)
800058b4:	01012603          	lw	a2,16(sp)
800058b8:	00000e13          	li	t3,0
800058bc:	00050e93          	mv	t4,a0
800058c0:	02a12223          	sw	a0,36(sp)
800058c4:	13810813          	addi	a6,sp,312
800058c8:	0a810793          	addi	a5,sp,168
800058cc:	09c10713          	addi	a4,sp,156
800058d0:	06010593          	addi	a1,sp,96
800058d4:	07010513          	addi	a0,sp,112
800058d8:	09c12223          	sw	t3,132(sp)
800058dc:	09c12423          	sw	t3,136(sp)
800058e0:	09c12623          	sw	t3,140(sp)
800058e4:	08912823          	sw	s1,144(sp)
800058e8:	08812a23          	sw	s0,148(sp)
800058ec:	09d12c23          	sw	t4,152(sp)
800058f0:	12612c23          	sw	t1,312(sp)
800058f4:	13112e23          	sw	a7,316(sp)
800058f8:	15c12023          	sw	t3,320(sp)
800058fc:	15c12223          	sw	t3,324(sp)
80005900:	15c12423          	sw	t3,328(sp)
80005904:	15c12623          	sw	t3,332(sp)
80005908:	15c12823          	sw	t3,336(sp)
8000590c:	15c12a23          	sw	t3,340(sp)
80005910:	15c12c23          	sw	t3,344(sp)
80005914:	06012823          	sw	zero,112(sp)
80005918:	06012a23          	sw	zero,116(sp)
8000591c:	06012c23          	sw	zero,120(sp)
80005920:	06912023          	sw	s1,96(sp)
80005924:	06812223          	sw	s0,100(sp)
80005928:	07d12423          	sw	t4,104(sp)
8000592c:	a1dfe0ef          	jal	ra,80004348 <_Z15scene_intersect4vec3S_P6SphereiPS_S2_P8Material>
80005930:	d00506e3          	beqz	a0,8000563c <_Z6renderiP6SphereiP5Lighti+0xb8>
80005934:	0ac12c03          	lw	s8,172(sp)
80005938:	02012983          	lw	s3,32(sp)
8000593c:	0b012c83          	lw	s9,176(sp)
80005940:	000c0593          	mv	a1,s8
80005944:	00098513          	mv	a0,s3
80005948:	03812c23          	sw	s8,56(sp)
8000594c:	03912e23          	sw	s9,60(sp)
80005950:	b90fd0ef          	jal	ra,80002ce0 <__mulsf3>
80005954:	02412a03          	lw	s4,36(sp)
80005958:	0a812d03          	lw	s10,168(sp)
8000595c:	00050413          	mv	s0,a0
80005960:	000c8593          	mv	a1,s9
80005964:	000a0513          	mv	a0,s4
80005968:	03a12a23          	sw	s10,52(sp)
8000596c:	b74fd0ef          	jal	ra,80002ce0 <__mulsf3>
80005970:	00050593          	mv	a1,a0
80005974:	00040513          	mv	a0,s0
80005978:	a19fc0ef          	jal	ra,80002390 <__addsf3>
8000597c:	01c12903          	lw	s2,28(sp)
80005980:	00050413          	mv	s0,a0
80005984:	000d0593          	mv	a1,s10
80005988:	00090513          	mv	a0,s2
8000598c:	b54fd0ef          	jal	ra,80002ce0 <__mulsf3>
80005990:	00050593          	mv	a1,a0
80005994:	00040513          	mv	a0,s0
80005998:	9f9fc0ef          	jal	ra,80002390 <__addsf3>
8000599c:	00050593          	mv	a1,a0
800059a0:	9f1fc0ef          	jal	ra,80002390 <__addsf3>
800059a4:	00050493          	mv	s1,a0
800059a8:	00050593          	mv	a1,a0
800059ac:	000d0513          	mv	a0,s10
800059b0:	b30fd0ef          	jal	ra,80002ce0 <__mulsf3>
800059b4:	00050593          	mv	a1,a0
800059b8:	00090513          	mv	a0,s2
800059bc:	e9cfd0ef          	jal	ra,80003058 <__subsf3>
800059c0:	00050413          	mv	s0,a0
800059c4:	00048593          	mv	a1,s1
800059c8:	000c0513          	mv	a0,s8
800059cc:	b14fd0ef          	jal	ra,80002ce0 <__mulsf3>
800059d0:	00050593          	mv	a1,a0
800059d4:	00098513          	mv	a0,s3
800059d8:	e80fd0ef          	jal	ra,80003058 <__subsf3>
800059dc:	00050993          	mv	s3,a0
800059e0:	00048593          	mv	a1,s1
800059e4:	000c8513          	mv	a0,s9
800059e8:	af8fd0ef          	jal	ra,80002ce0 <__mulsf3>
800059ec:	00050593          	mv	a1,a0
800059f0:	000a0513          	mv	a0,s4
800059f4:	e64fd0ef          	jal	ra,80003058 <__subsf3>
800059f8:	00050493          	mv	s1,a0
800059fc:	00040593          	mv	a1,s0
80005a00:	00040513          	mv	a0,s0
80005a04:	adcfd0ef          	jal	ra,80002ce0 <__mulsf3>
80005a08:	00050913          	mv	s2,a0
80005a0c:	00098593          	mv	a1,s3
80005a10:	00098513          	mv	a0,s3
80005a14:	accfd0ef          	jal	ra,80002ce0 <__mulsf3>
80005a18:	00050593          	mv	a1,a0
80005a1c:	00090513          	mv	a0,s2
80005a20:	971fc0ef          	jal	ra,80002390 <__addsf3>
80005a24:	00050913          	mv	s2,a0
80005a28:	00048593          	mv	a1,s1
80005a2c:	00048513          	mv	a0,s1
80005a30:	ab0fd0ef          	jal	ra,80002ce0 <__mulsf3>
80005a34:	00050593          	mv	a1,a0
80005a38:	00090513          	mv	a0,s2
80005a3c:	955fc0ef          	jal	ra,80002390 <__addsf3>
80005a40:	6cc010ef          	jal	ra,8000710c <sqrtf>
80005a44:	00005797          	auipc	a5,0x5
80005a48:	00050593          	mv	a1,a0
80005a4c:	8287a503          	lw	a0,-2008(a5) # 8000a26c <_ZL15forceduartflush+0x4>
80005a50:	d95fc0ef          	jal	ra,800027e4 <__divsf3>
80005a54:	00050913          	mv	s2,a0
80005a58:	00050593          	mv	a1,a0
80005a5c:	00040513          	mv	a0,s0
80005a60:	a80fd0ef          	jal	ra,80002ce0 <__mulsf3>
80005a64:	00090593          	mv	a1,s2
80005a68:	00050413          	mv	s0,a0
80005a6c:	00098513          	mv	a0,s3
80005a70:	a70fd0ef          	jal	ra,80002ce0 <__mulsf3>
80005a74:	00050793          	mv	a5,a0
80005a78:	00090593          	mv	a1,s2
80005a7c:	00048513          	mv	a0,s1
80005a80:	00078493          	mv	s1,a5
80005a84:	a5cfd0ef          	jal	ra,80002ce0 <__mulsf3>
80005a88:	09012783          	lw	a5,144(sp)
80005a8c:	00004717          	auipc	a4,0x4
80005a90:	7e072b83          	lw	s7,2016(a4) # 8000a26c <_ZL15forceduartflush+0x4>
80005a94:	06f12823          	sw	a5,112(sp)
80005a98:	09412783          	lw	a5,148(sp)
80005a9c:	13812683          	lw	a3,312(sp)
80005aa0:	06010613          	addi	a2,sp,96
80005aa4:	06f12a23          	sw	a5,116(sp)
80005aa8:	09812783          	lw	a5,152(sp)
80005aac:	000b8713          	mv	a4,s7
80005ab0:	00050913          	mv	s2,a0
80005ab4:	06f12c23          	sw	a5,120(sp)
80005ab8:	0a812783          	lw	a5,168(sp)
80005abc:	07010593          	addi	a1,sp,112
80005ac0:	12c10513          	addi	a0,sp,300
80005ac4:	06f12023          	sw	a5,96(sp)
80005ac8:	0ac12783          	lw	a5,172(sp)
80005acc:	06f12223          	sw	a5,100(sp)
80005ad0:	0b012783          	lw	a5,176(sp)
80005ad4:	06f12423          	sw	a5,104(sp)
80005ad8:	c84fe0ef          	jal	ra,80003f5c <_Z7refract4vec3S_ff>
80005adc:	12c12b03          	lw	s6,300(sp)
80005ae0:	13012983          	lw	s3,304(sp)
80005ae4:	13412a83          	lw	s5,308(sp)
80005ae8:	000b0593          	mv	a1,s6
80005aec:	000b0513          	mv	a0,s6
80005af0:	9f0fd0ef          	jal	ra,80002ce0 <__mulsf3>
80005af4:	00050a13          	mv	s4,a0
80005af8:	00098593          	mv	a1,s3
80005afc:	00098513          	mv	a0,s3
80005b00:	9e0fd0ef          	jal	ra,80002ce0 <__mulsf3>
80005b04:	00050593          	mv	a1,a0
80005b08:	000a0513          	mv	a0,s4
80005b0c:	885fc0ef          	jal	ra,80002390 <__addsf3>
80005b10:	00050a13          	mv	s4,a0
80005b14:	000a8593          	mv	a1,s5
80005b18:	000a8513          	mv	a0,s5
80005b1c:	9c4fd0ef          	jal	ra,80002ce0 <__mulsf3>
80005b20:	00050593          	mv	a1,a0
80005b24:	000a0513          	mv	a0,s4
80005b28:	869fc0ef          	jal	ra,80002390 <__addsf3>
80005b2c:	5e0010ef          	jal	ra,8000710c <sqrtf>
80005b30:	00050593          	mv	a1,a0
80005b34:	000b8513          	mv	a0,s7
80005b38:	cadfc0ef          	jal	ra,800027e4 <__divsf3>
80005b3c:	00050a13          	mv	s4,a0
80005b40:	00050593          	mv	a1,a0
80005b44:	000b0513          	mv	a0,s6
80005b48:	998fd0ef          	jal	ra,80002ce0 <__mulsf3>
80005b4c:	00050793          	mv	a5,a0
80005b50:	000a0593          	mv	a1,s4
80005b54:	00098513          	mv	a0,s3
80005b58:	00078993          	mv	s3,a5
80005b5c:	984fd0ef          	jal	ra,80002ce0 <__mulsf3>
80005b60:	00050793          	mv	a5,a0
80005b64:	000a0593          	mv	a1,s4
80005b68:	000a8513          	mv	a0,s5
80005b6c:	00078a13          	mv	s4,a5
80005b70:	970fd0ef          	jal	ra,80002ce0 <__mulsf3>
80005b74:	00004717          	auipc	a4,0x4
80005b78:	73072583          	lw	a1,1840(a4) # 8000a2a4 <_ZL15forceduartflush+0x3c>
80005b7c:	00050a93          	mv	s5,a0
80005b80:	000d0513          	mv	a0,s10
80005b84:	95cfd0ef          	jal	ra,80002ce0 <__mulsf3>
80005b88:	00004717          	auipc	a4,0x4
80005b8c:	71c72583          	lw	a1,1820(a4) # 8000a2a4 <_ZL15forceduartflush+0x3c>
80005b90:	00050793          	mv	a5,a0
80005b94:	000c0513          	mv	a0,s8
80005b98:	02f12423          	sw	a5,40(sp)
80005b9c:	944fd0ef          	jal	ra,80002ce0 <__mulsf3>
80005ba0:	00004717          	auipc	a4,0x4
80005ba4:	70472583          	lw	a1,1796(a4) # 8000a2a4 <_ZL15forceduartflush+0x3c>
80005ba8:	00050793          	mv	a5,a0
80005bac:	000c8513          	mv	a0,s9
80005bb0:	02f12623          	sw	a5,44(sp)
80005bb4:	92cfd0ef          	jal	ra,80002ce0 <__mulsf3>
80005bb8:	00050793          	mv	a5,a0
80005bbc:	00040593          	mv	a1,s0
80005bc0:	000d0513          	mv	a0,s10
80005bc4:	00078d93          	mv	s11,a5
80005bc8:	02f12823          	sw	a5,48(sp)
80005bcc:	914fd0ef          	jal	ra,80002ce0 <__mulsf3>
80005bd0:	00050b13          	mv	s6,a0
80005bd4:	00048593          	mv	a1,s1
80005bd8:	000c0513          	mv	a0,s8
80005bdc:	904fd0ef          	jal	ra,80002ce0 <__mulsf3>
80005be0:	00050593          	mv	a1,a0
80005be4:	000b0513          	mv	a0,s6
80005be8:	fa8fc0ef          	jal	ra,80002390 <__addsf3>
80005bec:	00050b13          	mv	s6,a0
80005bf0:	00090593          	mv	a1,s2
80005bf4:	000c8513          	mv	a0,s9
80005bf8:	8e8fd0ef          	jal	ra,80002ce0 <__mulsf3>
80005bfc:	00050593          	mv	a1,a0
80005c00:	000b0513          	mv	a0,s6
80005c04:	f8cfc0ef          	jal	ra,80002390 <__addsf3>
80005c08:	00000593          	li	a1,0
80005c0c:	81cfd0ef          	jal	ra,80002c28 <__lesf2>
80005c10:	09c12b83          	lw	s7,156(sp)
80005c14:	0a012c03          	lw	s8,160(sp)
80005c18:	0a412c83          	lw	s9,164(sp)
80005c1c:	7a054c63          	bltz	a0,800063d4 <_Z6renderiP6SphereiP5Lighti+0xe50>
80005c20:	02812503          	lw	a0,40(sp)
80005c24:	000b8593          	mv	a1,s7
80005c28:	f68fc0ef          	jal	ra,80002390 <__addsf3>
80005c2c:	00050d13          	mv	s10,a0
80005c30:	02c12503          	lw	a0,44(sp)
80005c34:	000c0593          	mv	a1,s8
80005c38:	f58fc0ef          	jal	ra,80002390 <__addsf3>
80005c3c:	00050b13          	mv	s6,a0
80005c40:	03012503          	lw	a0,48(sp)
80005c44:	000c8593          	mv	a1,s9
80005c48:	f48fc0ef          	jal	ra,80002390 <__addsf3>
80005c4c:	00050793          	mv	a5,a0
80005c50:	03412503          	lw	a0,52(sp)
80005c54:	00098593          	mv	a1,s3
80005c58:	0cf12a23          	sw	a5,212(sp)
80005c5c:	0d612823          	sw	s6,208(sp)
80005c60:	0da12623          	sw	s10,204(sp)
80005c64:	87cfd0ef          	jal	ra,80002ce0 <__mulsf3>
80005c68:	00050b13          	mv	s6,a0
80005c6c:	03812503          	lw	a0,56(sp)
80005c70:	000a0593          	mv	a1,s4
80005c74:	86cfd0ef          	jal	ra,80002ce0 <__mulsf3>
80005c78:	00050593          	mv	a1,a0
80005c7c:	000b0513          	mv	a0,s6
80005c80:	f10fc0ef          	jal	ra,80002390 <__addsf3>
80005c84:	00050b13          	mv	s6,a0
80005c88:	03c12503          	lw	a0,60(sp)
80005c8c:	000a8593          	mv	a1,s5
80005c90:	850fd0ef          	jal	ra,80002ce0 <__mulsf3>
80005c94:	00050593          	mv	a1,a0
80005c98:	000b0513          	mv	a0,s6
80005c9c:	ef4fc0ef          	jal	ra,80002390 <__addsf3>
80005ca0:	00000593          	li	a1,0
80005ca4:	f85fc0ef          	jal	ra,80002c28 <__lesf2>
80005ca8:	6e054c63          	bltz	a0,800063a0 <_Z6renderiP6SphereiP5Lighti+0xe1c>
80005cac:	02812503          	lw	a0,40(sp)
80005cb0:	000b8593          	mv	a1,s7
80005cb4:	edcfc0ef          	jal	ra,80002390 <__addsf3>
80005cb8:	00050d13          	mv	s10,a0
80005cbc:	02c12503          	lw	a0,44(sp)
80005cc0:	000c0593          	mv	a1,s8
80005cc4:	eccfc0ef          	jal	ra,80002390 <__addsf3>
80005cc8:	00050b13          	mv	s6,a0
80005ccc:	03012503          	lw	a0,48(sp)
80005cd0:	000c8593          	mv	a1,s9
80005cd4:	ebcfc0ef          	jal	ra,80002390 <__addsf3>
80005cd8:	00050313          	mv	t1,a0
80005cdc:	0e612023          	sw	t1,224(sp)
80005ce0:	0cc12303          	lw	t1,204(sp)
80005ce4:	04012d83          	lw	s11,64(sp)
80005ce8:	05412783          	lw	a5,84(sp)
80005cec:	06612823          	sw	t1,112(sp)
80005cf0:	0d012303          	lw	t1,208(sp)
80005cf4:	01412703          	lw	a4,20(sp)
80005cf8:	01012683          	lw	a3,16(sp)
80005cfc:	06612a23          	sw	t1,116(sp)
80005d00:	0d412303          	lw	t1,212(sp)
80005d04:	00100893          	li	a7,1
80005d08:	000d8813          	mv	a6,s11
80005d0c:	06010613          	addi	a2,sp,96
80005d10:	07010593          	addi	a1,sp,112
80005d14:	0e410513          	addi	a0,sp,228
80005d18:	0d612e23          	sw	s6,220(sp)
80005d1c:	0a812a23          	sw	s0,180(sp)
80005d20:	06612c23          	sw	t1,120(sp)
80005d24:	06812023          	sw	s0,96(sp)
80005d28:	0da12c23          	sw	s10,216(sp)
80005d2c:	0a912c23          	sw	s1,184(sp)
80005d30:	0b212e23          	sw	s2,188(sp)
80005d34:	06912223          	sw	s1,100(sp)
80005d38:	07212423          	sw	s2,104(sp)
80005d3c:	be1fe0ef          	jal	ra,8000491c <_Z8cast_ray4vec3S_P6SphereiP5Lightii>
80005d40:	0d812303          	lw	t1,216(sp)
80005d44:	05412403          	lw	s0,84(sp)
80005d48:	01412703          	lw	a4,20(sp)
80005d4c:	06612823          	sw	t1,112(sp)
80005d50:	0dc12303          	lw	t1,220(sp)
80005d54:	01012683          	lw	a3,16(sp)
80005d58:	00040793          	mv	a5,s0
80005d5c:	06612a23          	sw	t1,116(sp)
80005d60:	0e012303          	lw	t1,224(sp)
80005d64:	00100893          	li	a7,1
80005d68:	000d8813          	mv	a6,s11
80005d6c:	06010613          	addi	a2,sp,96
80005d70:	07010593          	addi	a1,sp,112
80005d74:	0f010513          	addi	a0,sp,240
80005d78:	0d312023          	sw	s3,192(sp)
80005d7c:	0d412223          	sw	s4,196(sp)
80005d80:	0d512423          	sw	s5,200(sp)
80005d84:	06612c23          	sw	t1,120(sp)
80005d88:	07312023          	sw	s3,96(sp)
80005d8c:	07412223          	sw	s4,100(sp)
80005d90:	07512423          	sw	s5,104(sp)
80005d94:	b89fe0ef          	jal	ra,8000491c <_Z8cast_ray4vec3S_P6SphereiP5Lightii>
80005d98:	00000793          	li	a5,0
80005d9c:	04f12223          	sw	a5,68(sp)
80005da0:	00078b13          	mv	s6,a5
80005da4:	47b05e63          	blez	s11,80006220 <_Z6renderiP6SphereiP5Lighti+0xc9c>
80005da8:	00012623          	sw	zero,12(sp)
80005dac:	2080006f          	j	80005fb4 <_Z6renderiP6SphereiP5Lighti+0xa30>
80005db0:	02812503          	lw	a0,40(sp)
80005db4:	000b8593          	mv	a1,s7
80005db8:	dd8fc0ef          	jal	ra,80002390 <__addsf3>
80005dbc:	00050a93          	mv	s5,a0
80005dc0:	02c12503          	lw	a0,44(sp)
80005dc4:	000c0593          	mv	a1,s8
80005dc8:	dc8fc0ef          	jal	ra,80002390 <__addsf3>
80005dcc:	00050a13          	mv	s4,a0
80005dd0:	03012503          	lw	a0,48(sp)
80005dd4:	000c8593          	mv	a1,s9
80005dd8:	db8fc0ef          	jal	ra,80002390 <__addsf3>
80005ddc:	00050d93          	mv	s11,a0
80005de0:	01412683          	lw	a3,20(sp)
80005de4:	01012603          	lw	a2,16(sp)
80005de8:	15c10813          	addi	a6,sp,348
80005dec:	12010793          	addi	a5,sp,288
80005df0:	11410713          	addi	a4,sp,276
80005df4:	06010593          	addi	a1,sp,96
80005df8:	07010513          	addi	a0,sp,112
80005dfc:	11512423          	sw	s5,264(sp)
80005e00:	11412623          	sw	s4,268(sp)
80005e04:	11b12823          	sw	s11,272(sp)
80005e08:	0e912e23          	sw	s1,252(sp)
80005e0c:	11212023          	sw	s2,256(sp)
80005e10:	11312223          	sw	s3,260(sp)
80005e14:	07512823          	sw	s5,112(sp)
80005e18:	07412a23          	sw	s4,116(sp)
80005e1c:	07b12c23          	sw	s11,120(sp)
80005e20:	06912023          	sw	s1,96(sp)
80005e24:	07212223          	sw	s2,100(sp)
80005e28:	07312423          	sw	s3,104(sp)
80005e2c:	d1cfe0ef          	jal	ra,80004348 <_Z15scene_intersect4vec3S_P6SphereiPS_S2_P8Material>
80005e30:	34051263          	bnez	a0,80006174 <_Z6renderiP6SphereiP5Lighti+0xbf0>
80005e34:	0a812d03          	lw	s10,168(sp)
80005e38:	0ac12d83          	lw	s11,172(sp)
80005e3c:	00048513          	mv	a0,s1
80005e40:	000d0593          	mv	a1,s10
80005e44:	e9dfc0ef          	jal	ra,80002ce0 <__mulsf3>
80005e48:	00050a13          	mv	s4,a0
80005e4c:	000d8593          	mv	a1,s11
80005e50:	00090513          	mv	a0,s2
80005e54:	e8dfc0ef          	jal	ra,80002ce0 <__mulsf3>
80005e58:	0b012a83          	lw	s5,176(sp)
80005e5c:	00050593          	mv	a1,a0
80005e60:	000a0513          	mv	a0,s4
80005e64:	d2cfc0ef          	jal	ra,80002390 <__addsf3>
80005e68:	00050a13          	mv	s4,a0
80005e6c:	000a8593          	mv	a1,s5
80005e70:	00098513          	mv	a0,s3
80005e74:	e6dfc0ef          	jal	ra,80002ce0 <__mulsf3>
80005e78:	00050593          	mv	a1,a0
80005e7c:	000a0513          	mv	a0,s4
80005e80:	d10fc0ef          	jal	ra,80002390 <__addsf3>
80005e84:	00000593          	li	a1,0
80005e88:	00050a13          	mv	s4,a0
80005e8c:	ce5fc0ef          	jal	ra,80002b70 <__gesf2>
80005e90:	000a0713          	mv	a4,s4
80005e94:	00055463          	bgez	a0,80005e9c <_Z6renderiP6SphereiP5Lighti+0x918>
80005e98:	00000713          	li	a4,0
80005e9c:	00c42583          	lw	a1,12(s0)
80005ea0:	00070513          	mv	a0,a4
80005ea4:	e3dfc0ef          	jal	ra,80002ce0 <__mulsf3>
80005ea8:	00050593          	mv	a1,a0
80005eac:	000b0513          	mv	a0,s6
80005eb0:	ce0fc0ef          	jal	ra,80002390 <__addsf3>
80005eb4:	00004717          	auipc	a4,0x4
80005eb8:	3f472583          	lw	a1,1012(a4) # 8000a2a8 <_ZL15forceduartflush+0x40>
80005ebc:	00050b13          	mv	s6,a0
80005ec0:	000a0513          	mv	a0,s4
80005ec4:	e1dfc0ef          	jal	ra,80002ce0 <__mulsf3>
80005ec8:	00050a13          	mv	s4,a0
80005ecc:	00050593          	mv	a1,a0
80005ed0:	000d0513          	mv	a0,s10
80005ed4:	e0dfc0ef          	jal	ra,80002ce0 <__mulsf3>
80005ed8:	00048593          	mv	a1,s1
80005edc:	cb4fc0ef          	jal	ra,80002390 <__addsf3>
80005ee0:	01c12583          	lw	a1,28(sp)
80005ee4:	dfdfc0ef          	jal	ra,80002ce0 <__mulsf3>
80005ee8:	00050493          	mv	s1,a0
80005eec:	000a0593          	mv	a1,s4
80005ef0:	000d8513          	mv	a0,s11
80005ef4:	dedfc0ef          	jal	ra,80002ce0 <__mulsf3>
80005ef8:	00090593          	mv	a1,s2
80005efc:	c94fc0ef          	jal	ra,80002390 <__addsf3>
80005f00:	02012583          	lw	a1,32(sp)
80005f04:	dddfc0ef          	jal	ra,80002ce0 <__mulsf3>
80005f08:	00050593          	mv	a1,a0
80005f0c:	00048513          	mv	a0,s1
80005f10:	c80fc0ef          	jal	ra,80002390 <__addsf3>
80005f14:	00050493          	mv	s1,a0
80005f18:	000a0593          	mv	a1,s4
80005f1c:	000a8513          	mv	a0,s5
80005f20:	dc1fc0ef          	jal	ra,80002ce0 <__mulsf3>
80005f24:	00098593          	mv	a1,s3
80005f28:	c68fc0ef          	jal	ra,80002390 <__addsf3>
80005f2c:	02412583          	lw	a1,36(sp)
80005f30:	db1fc0ef          	jal	ra,80002ce0 <__mulsf3>
80005f34:	00050593          	mv	a1,a0
80005f38:	00048513          	mv	a0,s1
80005f3c:	c54fc0ef          	jal	ra,80002390 <__addsf3>
80005f40:	00000593          	li	a1,0
80005f44:	00050493          	mv	s1,a0
80005f48:	c29fc0ef          	jal	ra,80002b70 <__gesf2>
80005f4c:	00055463          	bgez	a0,80005f54 <_Z6renderiP6SphereiP5Lighti+0x9d0>
80005f50:	00000493          	li	s1,0
80005f54:	00000593          	li	a1,0
80005f58:	00048513          	mv	a0,s1
80005f5c:	c15fc0ef          	jal	ra,80002b70 <__gesf2>
80005f60:	02a05e63          	blez	a0,80005f9c <_Z6renderiP6SphereiP5Lighti+0xa18>
80005f64:	15812903          	lw	s2,344(sp)
80005f68:	00000593          	li	a1,0
80005f6c:	00090513          	mv	a0,s2
80005f70:	c01fc0ef          	jal	ra,80002b70 <__gesf2>
80005f74:	02a05463          	blez	a0,80005f9c <_Z6renderiP6SphereiP5Lighti+0xa18>
80005f78:	00090593          	mv	a1,s2
80005f7c:	00048513          	mv	a0,s1
80005f80:	080010ef          	jal	ra,80007000 <powf>
80005f84:	00c42583          	lw	a1,12(s0)
80005f88:	d59fc0ef          	jal	ra,80002ce0 <__mulsf3>
80005f8c:	00050593          	mv	a1,a0
80005f90:	04412503          	lw	a0,68(sp)
80005f94:	bfcfc0ef          	jal	ra,80002390 <__addsf3>
80005f98:	04a12223          	sw	a0,68(sp)
80005f9c:	00c12783          	lw	a5,12(sp)
80005fa0:	04012703          	lw	a4,64(sp)
80005fa4:	01040413          	addi	s0,s0,16
80005fa8:	00178793          	addi	a5,a5,1
80005fac:	00f12623          	sw	a5,12(sp)
80005fb0:	26f70863          	beq	a4,a5,80006220 <_Z6renderiP6SphereiP5Lighti+0xc9c>
80005fb4:	00042503          	lw	a0,0(s0)
80005fb8:	000b8593          	mv	a1,s7
80005fbc:	89cfd0ef          	jal	ra,80003058 <__subsf3>
80005fc0:	00050493          	mv	s1,a0
80005fc4:	00442503          	lw	a0,4(s0)
80005fc8:	000c0593          	mv	a1,s8
80005fcc:	88cfd0ef          	jal	ra,80003058 <__subsf3>
80005fd0:	00050913          	mv	s2,a0
80005fd4:	00842503          	lw	a0,8(s0)
80005fd8:	000c8593          	mv	a1,s9
80005fdc:	87cfd0ef          	jal	ra,80003058 <__subsf3>
80005fe0:	00050993          	mv	s3,a0
80005fe4:	00048593          	mv	a1,s1
80005fe8:	00048513          	mv	a0,s1
80005fec:	cf5fc0ef          	jal	ra,80002ce0 <__mulsf3>
80005ff0:	00050a13          	mv	s4,a0
80005ff4:	00090593          	mv	a1,s2
80005ff8:	00090513          	mv	a0,s2
80005ffc:	ce5fc0ef          	jal	ra,80002ce0 <__mulsf3>
80006000:	00050593          	mv	a1,a0
80006004:	000a0513          	mv	a0,s4
80006008:	b88fc0ef          	jal	ra,80002390 <__addsf3>
8000600c:	00050a13          	mv	s4,a0
80006010:	00098593          	mv	a1,s3
80006014:	00098513          	mv	a0,s3
80006018:	cc9fc0ef          	jal	ra,80002ce0 <__mulsf3>
8000601c:	00050593          	mv	a1,a0
80006020:	000a0513          	mv	a0,s4
80006024:	b6cfc0ef          	jal	ra,80002390 <__addsf3>
80006028:	0e4010ef          	jal	ra,8000710c <sqrtf>
8000602c:	00004797          	auipc	a5,0x4
80006030:	00050593          	mv	a1,a0
80006034:	2407a503          	lw	a0,576(a5) # 8000a26c <_ZL15forceduartflush+0x4>
80006038:	facfc0ef          	jal	ra,800027e4 <__divsf3>
8000603c:	00050a13          	mv	s4,a0
80006040:	00050593          	mv	a1,a0
80006044:	00048513          	mv	a0,s1
80006048:	c99fc0ef          	jal	ra,80002ce0 <__mulsf3>
8000604c:	000a0593          	mv	a1,s4
80006050:	00050493          	mv	s1,a0
80006054:	00090513          	mv	a0,s2
80006058:	c89fc0ef          	jal	ra,80002ce0 <__mulsf3>
8000605c:	000a0593          	mv	a1,s4
80006060:	00050913          	mv	s2,a0
80006064:	00098513          	mv	a0,s3
80006068:	c79fc0ef          	jal	ra,80002ce0 <__mulsf3>
8000606c:	00050993          	mv	s3,a0
80006070:	00042503          	lw	a0,0(s0)
80006074:	000b8593          	mv	a1,s7
80006078:	fe1fc0ef          	jal	ra,80003058 <__subsf3>
8000607c:	00050a13          	mv	s4,a0
80006080:	00442503          	lw	a0,4(s0)
80006084:	000c0593          	mv	a1,s8
80006088:	fd1fc0ef          	jal	ra,80003058 <__subsf3>
8000608c:	00050d93          	mv	s11,a0
80006090:	00842503          	lw	a0,8(s0)
80006094:	000c8593          	mv	a1,s9
80006098:	fc1fc0ef          	jal	ra,80003058 <__subsf3>
8000609c:	00050a93          	mv	s5,a0
800060a0:	000a0593          	mv	a1,s4
800060a4:	000a0513          	mv	a0,s4
800060a8:	c39fc0ef          	jal	ra,80002ce0 <__mulsf3>
800060ac:	00050a13          	mv	s4,a0
800060b0:	000d8593          	mv	a1,s11
800060b4:	000d8513          	mv	a0,s11
800060b8:	c29fc0ef          	jal	ra,80002ce0 <__mulsf3>
800060bc:	00050593          	mv	a1,a0
800060c0:	000a0513          	mv	a0,s4
800060c4:	accfc0ef          	jal	ra,80002390 <__addsf3>
800060c8:	00050a13          	mv	s4,a0
800060cc:	000a8593          	mv	a1,s5
800060d0:	000a8513          	mv	a0,s5
800060d4:	c0dfc0ef          	jal	ra,80002ce0 <__mulsf3>
800060d8:	00050593          	mv	a1,a0
800060dc:	000a0513          	mv	a0,s4
800060e0:	ab0fc0ef          	jal	ra,80002390 <__addsf3>
800060e4:	028010ef          	jal	ra,8000710c <sqrtf>
800060e8:	00050d93          	mv	s11,a0
800060ec:	03412503          	lw	a0,52(sp)
800060f0:	00048593          	mv	a1,s1
800060f4:	000d8d13          	mv	s10,s11
800060f8:	be9fc0ef          	jal	ra,80002ce0 <__mulsf3>
800060fc:	00050a13          	mv	s4,a0
80006100:	03812503          	lw	a0,56(sp)
80006104:	00090593          	mv	a1,s2
80006108:	bd9fc0ef          	jal	ra,80002ce0 <__mulsf3>
8000610c:	00050593          	mv	a1,a0
80006110:	000a0513          	mv	a0,s4
80006114:	a7cfc0ef          	jal	ra,80002390 <__addsf3>
80006118:	00050a13          	mv	s4,a0
8000611c:	03c12503          	lw	a0,60(sp)
80006120:	00098593          	mv	a1,s3
80006124:	bbdfc0ef          	jal	ra,80002ce0 <__mulsf3>
80006128:	00050593          	mv	a1,a0
8000612c:	000a0513          	mv	a0,s4
80006130:	a60fc0ef          	jal	ra,80002390 <__addsf3>
80006134:	00000593          	li	a1,0
80006138:	af1fc0ef          	jal	ra,80002c28 <__lesf2>
8000613c:	c6055ae3          	bgez	a0,80005db0 <_Z6renderiP6SphereiP5Lighti+0x82c>
80006140:	02812583          	lw	a1,40(sp)
80006144:	000b8513          	mv	a0,s7
80006148:	f11fc0ef          	jal	ra,80003058 <__subsf3>
8000614c:	02c12583          	lw	a1,44(sp)
80006150:	00050a93          	mv	s5,a0
80006154:	000c0513          	mv	a0,s8
80006158:	f01fc0ef          	jal	ra,80003058 <__subsf3>
8000615c:	03012583          	lw	a1,48(sp)
80006160:	00050a13          	mv	s4,a0
80006164:	000c8513          	mv	a0,s9
80006168:	ef1fc0ef          	jal	ra,80003058 <__subsf3>
8000616c:	00050d93          	mv	s11,a0
80006170:	c71ff06f          	j	80005de0 <_Z6renderiP6SphereiP5Lighti+0x85c>
80006174:	11412503          	lw	a0,276(sp)
80006178:	000a8593          	mv	a1,s5
8000617c:	eddfc0ef          	jal	ra,80003058 <__subsf3>
80006180:	00050793          	mv	a5,a0
80006184:	11812503          	lw	a0,280(sp)
80006188:	000a0593          	mv	a1,s4
8000618c:	00078a13          	mv	s4,a5
80006190:	ec9fc0ef          	jal	ra,80003058 <__subsf3>
80006194:	00050793          	mv	a5,a0
80006198:	11c12503          	lw	a0,284(sp)
8000619c:	000d8593          	mv	a1,s11
800061a0:	04f12423          	sw	a5,72(sp)
800061a4:	eb5fc0ef          	jal	ra,80003058 <__subsf3>
800061a8:	00050a93          	mv	s5,a0
800061ac:	000a0593          	mv	a1,s4
800061b0:	000a0513          	mv	a0,s4
800061b4:	b2dfc0ef          	jal	ra,80002ce0 <__mulsf3>
800061b8:	04812783          	lw	a5,72(sp)
800061bc:	00050a13          	mv	s4,a0
800061c0:	00078593          	mv	a1,a5
800061c4:	00078513          	mv	a0,a5
800061c8:	b19fc0ef          	jal	ra,80002ce0 <__mulsf3>
800061cc:	00050593          	mv	a1,a0
800061d0:	000a0513          	mv	a0,s4
800061d4:	9bcfc0ef          	jal	ra,80002390 <__addsf3>
800061d8:	00050a13          	mv	s4,a0
800061dc:	000a8593          	mv	a1,s5
800061e0:	000a8513          	mv	a0,s5
800061e4:	afdfc0ef          	jal	ra,80002ce0 <__mulsf3>
800061e8:	00050593          	mv	a1,a0
800061ec:	000a0513          	mv	a0,s4
800061f0:	9a0fc0ef          	jal	ra,80002390 <__addsf3>
800061f4:	719000ef          	jal	ra,8000710c <sqrtf>
800061f8:	00050593          	mv	a1,a0
800061fc:	000d0513          	mv	a0,s10
80006200:	971fc0ef          	jal	ra,80002b70 <__gesf2>
80006204:	c2a058e3          	blez	a0,80005e34 <_Z6renderiP6SphereiP5Lighti+0x8b0>
80006208:	00c12783          	lw	a5,12(sp)
8000620c:	04012703          	lw	a4,64(sp)
80006210:	01040413          	addi	s0,s0,16
80006214:	00178793          	addi	a5,a5,1
80006218:	00f12623          	sw	a5,12(sp)
8000621c:	d8f71ce3          	bne	a4,a5,80005fb4 <_Z6renderiP6SphereiP5Lighti+0xa30>
80006220:	13c12583          	lw	a1,316(sp)
80006224:	000b0513          	mv	a0,s6
80006228:	ab9fc0ef          	jal	ra,80002ce0 <__mulsf3>
8000622c:	00050413          	mv	s0,a0
80006230:	14012583          	lw	a1,320(sp)
80006234:	04412503          	lw	a0,68(sp)
80006238:	aa9fc0ef          	jal	ra,80002ce0 <__mulsf3>
8000623c:	14412a83          	lw	s5,324(sp)
80006240:	0e412583          	lw	a1,228(sp)
80006244:	00050993          	mv	s3,a0
80006248:	000a8513          	mv	a0,s5
8000624c:	a95fc0ef          	jal	ra,80002ce0 <__mulsf3>
80006250:	14812a03          	lw	s4,328(sp)
80006254:	0f012583          	lw	a1,240(sp)
80006258:	00050493          	mv	s1,a0
8000625c:	000a0513          	mv	a0,s4
80006260:	a81fc0ef          	jal	ra,80002ce0 <__mulsf3>
80006264:	00050593          	mv	a1,a0
80006268:	00048513          	mv	a0,s1
8000626c:	924fc0ef          	jal	ra,80002390 <__addsf3>
80006270:	00098593          	mv	a1,s3
80006274:	91cfc0ef          	jal	ra,80002390 <__addsf3>
80006278:	14c12583          	lw	a1,332(sp)
8000627c:	00050493          	mv	s1,a0
80006280:	00040513          	mv	a0,s0
80006284:	a5dfc0ef          	jal	ra,80002ce0 <__mulsf3>
80006288:	00050593          	mv	a1,a0
8000628c:	00048513          	mv	a0,s1
80006290:	900fc0ef          	jal	ra,80002390 <__addsf3>
80006294:	0e812583          	lw	a1,232(sp)
80006298:	00050913          	mv	s2,a0
8000629c:	000a8513          	mv	a0,s5
800062a0:	a41fc0ef          	jal	ra,80002ce0 <__mulsf3>
800062a4:	0f412583          	lw	a1,244(sp)
800062a8:	00050493          	mv	s1,a0
800062ac:	000a0513          	mv	a0,s4
800062b0:	a31fc0ef          	jal	ra,80002ce0 <__mulsf3>
800062b4:	00050593          	mv	a1,a0
800062b8:	00048513          	mv	a0,s1
800062bc:	8d4fc0ef          	jal	ra,80002390 <__addsf3>
800062c0:	00098593          	mv	a1,s3
800062c4:	8ccfc0ef          	jal	ra,80002390 <__addsf3>
800062c8:	15012583          	lw	a1,336(sp)
800062cc:	00050493          	mv	s1,a0
800062d0:	00040513          	mv	a0,s0
800062d4:	a0dfc0ef          	jal	ra,80002ce0 <__mulsf3>
800062d8:	00050593          	mv	a1,a0
800062dc:	00048513          	mv	a0,s1
800062e0:	8b0fc0ef          	jal	ra,80002390 <__addsf3>
800062e4:	0ec12583          	lw	a1,236(sp)
800062e8:	00050493          	mv	s1,a0
800062ec:	000a8513          	mv	a0,s5
800062f0:	9f1fc0ef          	jal	ra,80002ce0 <__mulsf3>
800062f4:	0f812583          	lw	a1,248(sp)
800062f8:	00050a93          	mv	s5,a0
800062fc:	000a0513          	mv	a0,s4
80006300:	9e1fc0ef          	jal	ra,80002ce0 <__mulsf3>
80006304:	00050593          	mv	a1,a0
80006308:	000a8513          	mv	a0,s5
8000630c:	884fc0ef          	jal	ra,80002390 <__addsf3>
80006310:	00098593          	mv	a1,s3
80006314:	87cfc0ef          	jal	ra,80002390 <__addsf3>
80006318:	15412583          	lw	a1,340(sp)
8000631c:	00050993          	mv	s3,a0
80006320:	00040513          	mv	a0,s0
80006324:	9bdfc0ef          	jal	ra,80002ce0 <__mulsf3>
80006328:	00050593          	mv	a1,a0
8000632c:	00098513          	mv	a0,s3
80006330:	860fc0ef          	jal	ra,80002390 <__addsf3>
80006334:	00050413          	mv	s0,a0
80006338:	b6cff06f          	j	800056a4 <_Z6renderiP6SphereiP5Lighti+0x120>
8000633c:	00003517          	auipc	a0,0x3
80006340:	54c50513          	addi	a0,a0,1356 # 80009888 <__clz_tab+0x110>
80006344:	478000ef          	jal	ra,800067bc <_Z9UARTWritePKc>
80006348:	05812783          	lw	a5,88(sp)
8000634c:	00278793          	addi	a5,a5,2
80006350:	00078713          	mv	a4,a5
80006354:	04f12c23          	sw	a5,88(sp)
80006358:	04f00793          	li	a5,79
8000635c:	00e7c463          	blt	a5,a4,80006364 <_Z6renderiP6SphereiP5Lighti+0xde0>
80006360:	a9cff06f          	j	800055fc <_Z6renderiP6SphereiP5Lighti+0x78>
80006364:	1bc12083          	lw	ra,444(sp)
80006368:	1b812403          	lw	s0,440(sp)
8000636c:	1b412483          	lw	s1,436(sp)
80006370:	1b012903          	lw	s2,432(sp)
80006374:	1ac12983          	lw	s3,428(sp)
80006378:	1a812a03          	lw	s4,424(sp)
8000637c:	1a412a83          	lw	s5,420(sp)
80006380:	1a012b03          	lw	s6,416(sp)
80006384:	19c12b83          	lw	s7,412(sp)
80006388:	19812c03          	lw	s8,408(sp)
8000638c:	19412c83          	lw	s9,404(sp)
80006390:	19012d03          	lw	s10,400(sp)
80006394:	18c12d83          	lw	s11,396(sp)
80006398:	1c010113          	addi	sp,sp,448
8000639c:	00008067          	ret
800063a0:	02812583          	lw	a1,40(sp)
800063a4:	000b8513          	mv	a0,s7
800063a8:	cb1fc0ef          	jal	ra,80003058 <__subsf3>
800063ac:	02c12583          	lw	a1,44(sp)
800063b0:	00050d13          	mv	s10,a0
800063b4:	000c0513          	mv	a0,s8
800063b8:	ca1fc0ef          	jal	ra,80003058 <__subsf3>
800063bc:	03012583          	lw	a1,48(sp)
800063c0:	00050b13          	mv	s6,a0
800063c4:	000c8513          	mv	a0,s9
800063c8:	c91fc0ef          	jal	ra,80003058 <__subsf3>
800063cc:	00050313          	mv	t1,a0
800063d0:	90dff06f          	j	80005cdc <_Z6renderiP6SphereiP5Lighti+0x758>
800063d4:	02812583          	lw	a1,40(sp)
800063d8:	000b8513          	mv	a0,s7
800063dc:	c7dfc0ef          	jal	ra,80003058 <__subsf3>
800063e0:	02c12583          	lw	a1,44(sp)
800063e4:	00050d13          	mv	s10,a0
800063e8:	000c0513          	mv	a0,s8
800063ec:	c6dfc0ef          	jal	ra,80003058 <__subsf3>
800063f0:	00050b13          	mv	s6,a0
800063f4:	000d8593          	mv	a1,s11
800063f8:	000c8513          	mv	a0,s9
800063fc:	c5dfc0ef          	jal	ra,80003058 <__subsf3>
80006400:	00050793          	mv	a5,a0
80006404:	84dff06f          	j	80005c50 <_Z6renderiP6SphereiP5Lighti+0x6cc>

80006408 <_Z10init_scenev>:
80006408:	ff010113          	addi	sp,sp,-16
8000640c:	00004797          	auipc	a5,0x4
80006410:	00812623          	sw	s0,12(sp)
80006414:	ea07a403          	lw	s0,-352(a5) # 8000a2ac <_ZL15forceduartflush+0x44>
80006418:	00004797          	auipc	a5,0x4
8000641c:	e987a383          	lw	t2,-360(a5) # 8000a2b0 <_ZL15forceduartflush+0x48>
80006420:	00004797          	auipc	a5,0x4
80006424:	f187a283          	lw	t0,-232(a5) # 8000a338 <_ZL15forceduartflush+0xd0>
80006428:	00004797          	auipc	a5,0x4
8000642c:	e447af83          	lw	t6,-444(a5) # 8000a26c <_ZL15forceduartflush+0x4>
80006430:	00004797          	auipc	a5,0x4
80006434:	e847af03          	lw	t5,-380(a5) # 8000a2b4 <_ZL15forceduartflush+0x4c>
80006438:	00004797          	auipc	a5,0x4
8000643c:	e547ae83          	lw	t4,-428(a5) # 8000a28c <_ZL15forceduartflush+0x24>
80006440:	00004797          	auipc	a5,0x4
80006444:	e547ae03          	lw	t3,-428(a5) # 8000a294 <_ZL15forceduartflush+0x2c>
80006448:	00004797          	auipc	a5,0x4
8000644c:	e707a303          	lw	t1,-400(a5) # 8000a2b8 <_ZL15forceduartflush+0x50>
80006450:	00004797          	auipc	a5,0x4
80006454:	e687a883          	lw	a7,-408(a5) # 8000a2b8 <_ZL15forceduartflush+0x50>
80006458:	00004797          	auipc	a5,0x4
8000645c:	e347a803          	lw	a6,-460(a5) # 8000a28c <_ZL15forceduartflush+0x24>
80006460:	00004797          	auipc	a5,0x4
80006464:	e5c7a503          	lw	a0,-420(a5) # 8000a2bc <_ZL15forceduartflush+0x54>
80006468:	00004797          	auipc	a5,0x4
8000646c:	e0c7a583          	lw	a1,-500(a5) # 8000a274 <_ZL15forceduartflush+0xc>
80006470:	00004797          	auipc	a5,0x4
80006474:	e507a603          	lw	a2,-432(a5) # 8000a2c0 <_ZL15forceduartflush+0x58>
80006478:	00004797          	auipc	a5,0x4
8000647c:	e4c7a683          	lw	a3,-436(a5) # 8000a2c4 <_ZL15forceduartflush+0x5c>
80006480:	00004797          	auipc	a5,0x4
80006484:	eb87a703          	lw	a4,-328(a5) # 8000a338 <_ZL15forceduartflush+0xd0>
80006488:	ad018793          	addi	a5,gp,-1328 # 8000a520 <spheres>
8000648c:	00912423          	sw	s1,8(sp)
80006490:	00000493          	li	s1,0
80006494:	0087a023          	sw	s0,0(a5)
80006498:	0097a223          	sw	s1,4(a5)
8000649c:	0077a423          	sw	t2,8(a5)
800064a0:	0057a623          	sw	t0,12(a5)
800064a4:	01f7a823          	sw	t6,16(a5)
800064a8:	01e7aa23          	sw	t5,20(a5)
800064ac:	01d7ac23          	sw	t4,24(a5)
800064b0:	01c7ae23          	sw	t3,28(a5)
800064b4:	0297a023          	sw	s1,32(a5)
800064b8:	0267a223          	sw	t1,36(a5)
800064bc:	0317a423          	sw	a7,40(a5)
800064c0:	0307a623          	sw	a6,44(a5)
800064c4:	02a7a823          	sw	a0,48(a5)
800064c8:	02b7aa23          	sw	a1,52(a5)
800064cc:	02c7ac23          	sw	a2,56(a5)
800064d0:	02d7ae23          	sw	a3,60(a5)
800064d4:	04e7a023          	sw	a4,64(a5)
800064d8:	00004717          	auipc	a4,0x4
800064dc:	df072403          	lw	s0,-528(a4) # 8000a2c8 <_ZL15forceduartflush+0x60>
800064e0:	00004717          	auipc	a4,0x4
800064e4:	dec72383          	lw	t2,-532(a4) # 8000a2cc <_ZL15forceduartflush+0x64>
800064e8:	00004717          	auipc	a4,0x4
800064ec:	dac72283          	lw	t0,-596(a4) # 8000a294 <_ZL15forceduartflush+0x2c>
800064f0:	00004717          	auipc	a4,0x4
800064f4:	de072f83          	lw	t6,-544(a4) # 8000a2d0 <_ZL15forceduartflush+0x68>
800064f8:	00004717          	auipc	a4,0x4
800064fc:	dbc72f03          	lw	t5,-580(a4) # 8000a2b4 <_ZL15forceduartflush+0x4c>
80006500:	00004717          	auipc	a4,0x4
80006504:	d9c72e83          	lw	t4,-612(a4) # 8000a29c <_ZL15forceduartflush+0x34>
80006508:	00004717          	auipc	a4,0x4
8000650c:	dc872e03          	lw	t3,-568(a4) # 8000a2d0 <_ZL15forceduartflush+0x68>
80006510:	00004717          	auipc	a4,0x4
80006514:	dc472303          	lw	t1,-572(a4) # 8000a2d4 <_ZL15forceduartflush+0x6c>
80006518:	00004717          	auipc	a4,0x4
8000651c:	db072883          	lw	a7,-592(a4) # 8000a2c8 <_ZL15forceduartflush+0x60>
80006520:	00004717          	auipc	a4,0x4
80006524:	db872803          	lw	a6,-584(a4) # 8000a2d8 <_ZL15forceduartflush+0x70>
80006528:	00004717          	auipc	a4,0x4
8000652c:	db472503          	lw	a0,-588(a4) # 8000a2dc <_ZL15forceduartflush+0x74>
80006530:	00004717          	auipc	a4,0x4
80006534:	db072583          	lw	a1,-592(a4) # 8000a2e0 <_ZL15forceduartflush+0x78>
80006538:	00004717          	auipc	a4,0x4
8000653c:	d3472603          	lw	a2,-716(a4) # 8000a26c <_ZL15forceduartflush+0x4>
80006540:	00004717          	auipc	a4,0x4
80006544:	da472683          	lw	a3,-604(a4) # 8000a2e4 <_ZL15forceduartflush+0x7c>
80006548:	00004717          	auipc	a4,0x4
8000654c:	d4c72703          	lw	a4,-692(a4) # 8000a294 <_ZL15forceduartflush+0x2c>
80006550:	0487a223          	sw	s0,68(a5)
80006554:	0497a423          	sw	s1,72(a5)
80006558:	0477a623          	sw	t2,76(a5)
8000655c:	0457a823          	sw	t0,80(a5)
80006560:	05f7aa23          	sw	t6,84(a5)
80006564:	05e7ac23          	sw	t5,88(a5)
80006568:	05d7ae23          	sw	t4,92(a5)
8000656c:	07c7a023          	sw	t3,96(a5)
80006570:	0667a223          	sw	t1,100(a5)
80006574:	0717a423          	sw	a7,104(a5)
80006578:	0707a623          	sw	a6,108(a5)
8000657c:	06a7a823          	sw	a0,112(a5)
80006580:	06b7aa23          	sw	a1,116(a5)
80006584:	06c7ac23          	sw	a2,120(a5)
80006588:	06d7ae23          	sw	a3,124(a5)
8000658c:	08e7a023          	sw	a4,128(a5)
80006590:	00004717          	auipc	a4,0x4
80006594:	0897a223          	sw	s1,132(a5)
80006598:	cfc72403          	lw	s0,-772(a4) # 8000a28c <_ZL15forceduartflush+0x24>
8000659c:	00004717          	auipc	a4,0x4
800065a0:	cf872383          	lw	t2,-776(a4) # 8000a294 <_ZL15forceduartflush+0x2c>
800065a4:	00004717          	auipc	a4,0x4
800065a8:	cf072283          	lw	t0,-784(a4) # 8000a294 <_ZL15forceduartflush+0x2c>
800065ac:	00004717          	auipc	a4,0x4
800065b0:	cd472f83          	lw	t6,-812(a4) # 8000a280 <_ZL15forceduartflush+0x18>
800065b4:	00004717          	auipc	a4,0x4
800065b8:	d3472f03          	lw	t5,-716(a4) # 8000a2e8 <_ZL15forceduartflush+0x80>
800065bc:	00004717          	auipc	a4,0x4
800065c0:	d3072e83          	lw	t4,-720(a4) # 8000a2ec <_ZL15forceduartflush+0x84>
800065c4:	00004717          	auipc	a4,0x4
800065c8:	d1872e03          	lw	t3,-744(a4) # 8000a2dc <_ZL15forceduartflush+0x74>
800065cc:	00004717          	auipc	a4,0x4
800065d0:	cb072303          	lw	t1,-848(a4) # 8000a27c <_ZL15forceduartflush+0x14>
800065d4:	00004717          	auipc	a4,0x4
800065d8:	c9872883          	lw	a7,-872(a4) # 8000a26c <_ZL15forceduartflush+0x4>
800065dc:	00004717          	auipc	a4,0x4
800065e0:	ca472803          	lw	a6,-860(a4) # 8000a280 <_ZL15forceduartflush+0x18>
800065e4:	00004717          	auipc	a4,0x4
800065e8:	cec72503          	lw	a0,-788(a4) # 8000a2d0 <_ZL15forceduartflush+0x68>
800065ec:	00004717          	auipc	a4,0x4
800065f0:	c8072583          	lw	a1,-896(a4) # 8000a26c <_ZL15forceduartflush+0x4>
800065f4:	00004717          	auipc	a4,0x4
800065f8:	c7872603          	lw	a2,-904(a4) # 8000a26c <_ZL15forceduartflush+0x4>
800065fc:	00004717          	auipc	a4,0x4
80006600:	c7072683          	lw	a3,-912(a4) # 8000a26c <_ZL15forceduartflush+0x4>
80006604:	00004717          	auipc	a4,0x4
80006608:	cec72703          	lw	a4,-788(a4) # 8000a2f0 <_ZL15forceduartflush+0x88>
8000660c:	0897a423          	sw	s1,136(a5)
80006610:	0887a623          	sw	s0,140(a5)
80006614:	09f7ac23          	sw	t6,152(a5)
80006618:	09e7ae23          	sw	t5,156(a5)
8000661c:	0bd7a023          	sw	t4,160(a5)
80006620:	0bc7a223          	sw	t3,164(a5)
80006624:	0a67a423          	sw	t1,168(a5)
80006628:	0b17a623          	sw	a7,172(a5)
8000662c:	0a97a823          	sw	s1,176(a5)
80006630:	0b07aa23          	sw	a6,180(a5)
80006634:	0aa7ac23          	sw	a0,184(a5)
80006638:	0a97ae23          	sw	s1,188(a5)
8000663c:	0cb7a023          	sw	a1,192(a5)
80006640:	0cc7a223          	sw	a2,196(a5)
80006644:	0cd7a423          	sw	a3,200(a5)
80006648:	0877a823          	sw	t2,144(a5)
8000664c:	0857aa23          	sw	t0,148(a5)
80006650:	0ce7a623          	sw	a4,204(a5)
80006654:	00004797          	auipc	a5,0x4
80006658:	ca07af83          	lw	t6,-864(a5) # 8000a2f4 <_ZL15forceduartflush+0x8c>
8000665c:	00004797          	auipc	a5,0x4
80006660:	c9c7af03          	lw	t5,-868(a5) # 8000a2f8 <_ZL15forceduartflush+0x90>
80006664:	00004797          	auipc	a5,0x4
80006668:	c947ae83          	lw	t4,-876(a5) # 8000a2f8 <_ZL15forceduartflush+0x90>
8000666c:	00004797          	auipc	a5,0x4
80006670:	c5c7ae03          	lw	t3,-932(a5) # 8000a2c8 <_ZL15forceduartflush+0x60>
80006674:	00004797          	auipc	a5,0x4
80006678:	c887a303          	lw	t1,-888(a5) # 8000a2fc <_ZL15forceduartflush+0x94>
8000667c:	00004797          	auipc	a5,0x4
80006680:	c407a883          	lw	a7,-960(a5) # 8000a2bc <_ZL15forceduartflush+0x54>
80006684:	00004797          	auipc	a5,0x4
80006688:	c7c7a803          	lw	a6,-900(a5) # 8000a300 <_ZL15forceduartflush+0x98>
8000668c:	00004797          	auipc	a5,0x4
80006690:	c787a503          	lw	a0,-904(a5) # 8000a304 <_ZL15forceduartflush+0x9c>
80006694:	00004797          	auipc	a5,0x4
80006698:	c687a583          	lw	a1,-920(a5) # 8000a2fc <_ZL15forceduartflush+0x94>
8000669c:	00004797          	auipc	a5,0x4
800066a0:	c5c7a603          	lw	a2,-932(a5) # 8000a2f8 <_ZL15forceduartflush+0x90>
800066a4:	00004797          	auipc	a5,0x4
800066a8:	c587a683          	lw	a3,-936(a5) # 8000a2fc <_ZL15forceduartflush+0x94>
800066ac:	00004797          	auipc	a5,0x4
800066b0:	c5c7a703          	lw	a4,-932(a5) # 8000a308 <_ZL15forceduartflush+0xa0>
800066b4:	00c12403          	lw	s0,12(sp)
800066b8:	aa018793          	addi	a5,gp,-1376 # 8000a4f0 <lights>
800066bc:	01f7a023          	sw	t6,0(a5)
800066c0:	01e7a223          	sw	t5,4(a5)
800066c4:	01d7a423          	sw	t4,8(a5)
800066c8:	01c7a623          	sw	t3,12(a5)
800066cc:	0067a823          	sw	t1,16(a5)
800066d0:	0117aa23          	sw	a7,20(a5)
800066d4:	0107ac23          	sw	a6,24(a5)
800066d8:	00a7ae23          	sw	a0,28(a5)
800066dc:	02b7a023          	sw	a1,32(a5)
800066e0:	02c7a223          	sw	a2,36(a5)
800066e4:	02d7a423          	sw	a3,40(a5)
800066e8:	02e7a623          	sw	a4,44(a5)
800066ec:	00812483          	lw	s1,8(sp)
800066f0:	01010113          	addi	sp,sp,16
800066f4:	00008067          	ret

800066f8 <_Z10workermainv>:
800066f8:	ff010113          	addi	sp,sp,-16
800066fc:	00112623          	sw	ra,12(sp)
80006700:	00812423          	sw	s0,8(sp)
80006704:	f1402473          	csrr	s0,mhartid
80006708:	00004797          	auipc	a5,0x4
8000670c:	b4c7a683          	lw	a3,-1204(a5) # 8000a254 <mailbox>
80006710:	00100713          	li	a4,1
80006714:	00871733          	sll	a4,a4,s0
80006718:	0006a783          	lw	a5,0(a3) # 4000000 <_start-0x7c000000>
8000671c:	00e7f7b3          	and	a5,a5,a4
80006720:	fe078ce3          	beqz	a5,80006718 <_Z10workermainv+0x20>
80006724:	00040513          	mv	a0,s0
80006728:	410000ef          	jal	ra,80006b38 <_Z16UARTWriteDecimall>
8000672c:	8081a703          	lw	a4,-2040(gp) # 8000a258 <nb_lights>
80006730:	80c1a603          	lw	a2,-2036(gp) # 8000a25c <nb_spheres>
80006734:	aa018693          	addi	a3,gp,-1376 # 8000a4f0 <lights>
80006738:	ad018593          	addi	a1,gp,-1328 # 8000a520 <spheres>
8000673c:	00040513          	mv	a0,s0
80006740:	e45fe0ef          	jal	ra,80005584 <_Z6renderiP6SphereiP5Lighti>
80006744:	04c000ef          	jal	ra,80006790 <_Z9UARTFlushv>
80006748:	0000006f          	j	80006748 <_Z10workermainv+0x50>

8000674c <main>:
8000674c:	ff010113          	addi	sp,sp,-16
80006750:	00112623          	sw	ra,12(sp)
80006754:	f1402573          	csrr	a0,mhartid
80006758:	3e0000ef          	jal	ra,80006b38 <_Z16UARTWriteDecimall>
8000675c:	cadff0ef          	jal	ra,80006408 <_Z10init_scenev>
80006760:	00004797          	auipc	a5,0x4
80006764:	af47a783          	lw	a5,-1292(a5) # 8000a254 <mailbox>
80006768:	80c1a603          	lw	a2,-2036(gp) # 8000a25c <nb_spheres>
8000676c:	8081a703          	lw	a4,-2040(gp) # 8000a258 <nb_lights>
80006770:	00e00813          	li	a6,14
80006774:	aa018693          	addi	a3,gp,-1376 # 8000a4f0 <lights>
80006778:	ad018593          	addi	a1,gp,-1328 # 8000a520 <spheres>
8000677c:	00000513          	li	a0,0
80006780:	0107a023          	sw	a6,0(a5)
80006784:	e01fe0ef          	jal	ra,80005584 <_Z6renderiP6SphereiP5Lighti>
80006788:	008000ef          	jal	ra,80006790 <_Z9UARTFlushv>
8000678c:	0000006f          	j	8000678c <main+0x40>

80006790 <_Z9UARTFlushv>:
80006790:	81018713          	addi	a4,gp,-2032 # 8000a260 <IO_UARTStatus>
80006794:	00072783          	lw	a5,0(a4)
80006798:	0007a783          	lw	a5,0(a5)
8000679c:	0017f793          	andi	a5,a5,1
800067a0:	00078c63          	beqz	a5,800067b8 <_Z9UARTFlushv+0x28>
800067a4:	00000013          	nop
800067a8:	00072783          	lw	a5,0(a4)
800067ac:	0007a783          	lw	a5,0(a5)
800067b0:	0017f793          	andi	a5,a5,1
800067b4:	fe0798e3          	bnez	a5,800067a4 <_Z9UARTFlushv+0x14>
800067b8:	00008067          	ret

800067bc <_Z9UARTWritePKc>:
800067bc:	00054783          	lbu	a5,0(a0)
800067c0:	0a078063          	beqz	a5,80006860 <_Z9UARTWritePKc+0xa4>
800067c4:	ff010113          	addi	sp,sp,-16
800067c8:	00912223          	sw	s1,4(sp)
800067cc:	01212023          	sw	s2,0(sp)
800067d0:	00812423          	sw	s0,8(sp)
800067d4:	00112623          	sw	ra,12(sp)
800067d8:	00150413          	addi	s0,a0,1
800067dc:	81418913          	addi	s2,gp,-2028 # 8000a264 <IO_UARTTX>
800067e0:	81818493          	addi	s1,gp,-2024 # 8000a268 <_ZL15forceduartflush>
800067e4:	0100006f          	j	800067f4 <_Z9UARTWritePKc+0x38>
800067e8:	00044783          	lbu	a5,0(s0)
800067ec:	00140413          	addi	s0,s0,1
800067f0:	04078c63          	beqz	a5,80006848 <_Z9UARTWritePKc+0x8c>
800067f4:	0004a503          	lw	a0,0(s1)
800067f8:	00092703          	lw	a4,0(s2)
800067fc:	18000593          	li	a1,384
80006800:	00150513          	addi	a0,a0,1
80006804:	00f72023          	sw	a5,0(a4)
80006808:	00a4a023          	sw	a0,0(s1)
8000680c:	824fd0ef          	jal	ra,80003830 <__modsi3>
80006810:	fc051ce3          	bnez	a0,800067e8 <_Z9UARTWritePKc+0x2c>
80006814:	81018713          	addi	a4,gp,-2032 # 8000a260 <IO_UARTStatus>
80006818:	00072783          	lw	a5,0(a4)
8000681c:	0007a783          	lw	a5,0(a5)
80006820:	0017f793          	andi	a5,a5,1
80006824:	fc0782e3          	beqz	a5,800067e8 <_Z9UARTWritePKc+0x2c>
80006828:	00000013          	nop
8000682c:	00072783          	lw	a5,0(a4)
80006830:	0007a783          	lw	a5,0(a5)
80006834:	0017f793          	andi	a5,a5,1
80006838:	fe0798e3          	bnez	a5,80006828 <_Z9UARTWritePKc+0x6c>
8000683c:	00044783          	lbu	a5,0(s0)
80006840:	00140413          	addi	s0,s0,1
80006844:	fa0798e3          	bnez	a5,800067f4 <_Z9UARTWritePKc+0x38>
80006848:	00c12083          	lw	ra,12(sp)
8000684c:	00812403          	lw	s0,8(sp)
80006850:	00412483          	lw	s1,4(sp)
80006854:	00012903          	lw	s2,0(sp)
80006858:	01010113          	addi	sp,sp,16
8000685c:	00008067          	ret
80006860:	00008067          	ret

80006864 <_Z16UARTWriteHexByteh>:
80006864:	00003717          	auipc	a4,0x3
80006868:	03470713          	addi	a4,a4,52 # 80009898 <__clz_tab+0x120>
8000686c:	00872603          	lw	a2,8(a4)
80006870:	00c72683          	lw	a3,12(a4)
80006874:	00072803          	lw	a6,0(a4)
80006878:	00472583          	lw	a1,4(a4)
8000687c:	00f57793          	andi	a5,a0,15
80006880:	fd010113          	addi	sp,sp,-48
80006884:	02078793          	addi	a5,a5,32
80006888:	00c12a23          	sw	a2,20(sp)
8000688c:	02112623          	sw	ra,44(sp)
80006890:	02812423          	sw	s0,40(sp)
80006894:	02912223          	sw	s1,36(sp)
80006898:	03212023          	sw	s2,32(sp)
8000689c:	01012623          	sw	a6,12(sp)
800068a0:	00b12823          	sw	a1,16(sp)
800068a4:	00d12c23          	sw	a3,24(sp)
800068a8:	00455513          	srli	a0,a0,0x4
800068ac:	002787b3          	add	a5,a5,sp
800068b0:	fec7c683          	lbu	a3,-20(a5)
800068b4:	02050793          	addi	a5,a0,32
800068b8:	00278533          	add	a0,a5,sp
800068bc:	fec54783          	lbu	a5,-20(a0)
800068c0:	01074603          	lbu	a2,16(a4)
800068c4:	00869713          	slli	a4,a3,0x8
800068c8:	00e7e733          	or	a4,a5,a4
800068cc:	00c10e23          	sb	a2,28(sp)
800068d0:	00010523          	sb	zero,10(sp)
800068d4:	00e11423          	sh	a4,8(sp)
800068d8:	06078a63          	beqz	a5,8000694c <_Z16UARTWriteHexByteh+0xe8>
800068dc:	00910413          	addi	s0,sp,9
800068e0:	81418913          	addi	s2,gp,-2028 # 8000a264 <IO_UARTTX>
800068e4:	81818493          	addi	s1,gp,-2024 # 8000a268 <_ZL15forceduartflush>
800068e8:	0100006f          	j	800068f8 <_Z16UARTWriteHexByteh+0x94>
800068ec:	00044783          	lbu	a5,0(s0)
800068f0:	00140413          	addi	s0,s0,1
800068f4:	04078c63          	beqz	a5,8000694c <_Z16UARTWriteHexByteh+0xe8>
800068f8:	0004a503          	lw	a0,0(s1)
800068fc:	00092703          	lw	a4,0(s2)
80006900:	18000593          	li	a1,384
80006904:	00150513          	addi	a0,a0,1
80006908:	00f72023          	sw	a5,0(a4)
8000690c:	00a4a023          	sw	a0,0(s1)
80006910:	f21fc0ef          	jal	ra,80003830 <__modsi3>
80006914:	fc051ce3          	bnez	a0,800068ec <_Z16UARTWriteHexByteh+0x88>
80006918:	81018713          	addi	a4,gp,-2032 # 8000a260 <IO_UARTStatus>
8000691c:	00072783          	lw	a5,0(a4)
80006920:	0007a783          	lw	a5,0(a5)
80006924:	0017f793          	andi	a5,a5,1
80006928:	fc0782e3          	beqz	a5,800068ec <_Z16UARTWriteHexByteh+0x88>
8000692c:	00000013          	nop
80006930:	00072783          	lw	a5,0(a4)
80006934:	0007a783          	lw	a5,0(a5)
80006938:	0017f793          	andi	a5,a5,1
8000693c:	fe0798e3          	bnez	a5,8000692c <_Z16UARTWriteHexByteh+0xc8>
80006940:	00044783          	lbu	a5,0(s0)
80006944:	00140413          	addi	s0,s0,1
80006948:	fa0798e3          	bnez	a5,800068f8 <_Z16UARTWriteHexByteh+0x94>
8000694c:	02c12083          	lw	ra,44(sp)
80006950:	02812403          	lw	s0,40(sp)
80006954:	02412483          	lw	s1,36(sp)
80006958:	02012903          	lw	s2,32(sp)
8000695c:	03010113          	addi	sp,sp,48
80006960:	00008067          	ret

80006964 <_Z12UARTWriteHexm>:
80006964:	00003617          	auipc	a2,0x3
80006968:	f3460613          	addi	a2,a2,-204 # 80009898 <__clz_tab+0x120>
8000696c:	00862883          	lw	a7,8(a2)
80006970:	00062e03          	lw	t3,0(a2)
80006974:	00462303          	lw	t1,4(a2)
80006978:	00c62803          	lw	a6,12(a2)
8000697c:	01855713          	srli	a4,a0,0x18
80006980:	fd010113          	addi	sp,sp,-48
80006984:	00c55693          	srli	a3,a0,0xc
80006988:	00855593          	srli	a1,a0,0x8
8000698c:	00f77713          	andi	a4,a4,15
80006990:	01112a23          	sw	a7,20(sp)
80006994:	01c55793          	srli	a5,a0,0x1c
80006998:	00455893          	srli	a7,a0,0x4
8000699c:	00f6f693          	andi	a3,a3,15
800069a0:	00f5f593          	andi	a1,a1,15
800069a4:	02070713          	addi	a4,a4,32
800069a8:	01012c23          	sw	a6,24(sp)
800069ac:	02112623          	sw	ra,44(sp)
800069b0:	02812423          	sw	s0,40(sp)
800069b4:	02912223          	sw	s1,36(sp)
800069b8:	03212023          	sw	s2,32(sp)
800069bc:	01c12623          	sw	t3,12(sp)
800069c0:	00612823          	sw	t1,16(sp)
800069c4:	00270733          	add	a4,a4,sp
800069c8:	01455813          	srli	a6,a0,0x14
800069cc:	00f8f893          	andi	a7,a7,15
800069d0:	02078793          	addi	a5,a5,32
800069d4:	02068693          	addi	a3,a3,32
800069d8:	02058593          	addi	a1,a1,32
800069dc:	fec74e83          	lbu	t4,-20(a4)
800069e0:	002585b3          	add	a1,a1,sp
800069e4:	00f87813          	andi	a6,a6,15
800069e8:	02088713          	addi	a4,a7,32
800069ec:	002787b3          	add	a5,a5,sp
800069f0:	002686b3          	add	a3,a3,sp
800069f4:	002708b3          	add	a7,a4,sp
800069f8:	fec5cf03          	lbu	t5,-20(a1)
800069fc:	02080713          	addi	a4,a6,32
80006a00:	01055593          	srli	a1,a0,0x10
80006a04:	fec7c783          	lbu	a5,-20(a5)
80006a08:	fec6c683          	lbu	a3,-20(a3)
80006a0c:	00270833          	add	a6,a4,sp
80006a10:	00f57513          	andi	a0,a0,15
80006a14:	ffff0737          	lui	a4,0xffff0
80006a18:	00f5f593          	andi	a1,a1,15
80006a1c:	fec8ce03          	lbu	t3,-20(a7)
80006a20:	fec84303          	lbu	t1,-20(a6)
80006a24:	0ff70713          	addi	a4,a4,255 # ffff00ff <__global_pointer$+0x7ffe56af>
80006a28:	02050513          	addi	a0,a0,32
80006a2c:	02058593          	addi	a1,a1,32
80006a30:	00e6f6b3          	and	a3,a3,a4
80006a34:	00250533          	add	a0,a0,sp
80006a38:	008e9e93          	slli	t4,t4,0x8
80006a3c:	002585b3          	add	a1,a1,sp
80006a40:	008f1f13          	slli	t5,t5,0x8
80006a44:	00e7f733          	and	a4,a5,a4
80006a48:	ff010837          	lui	a6,0xff010
80006a4c:	fff80813          	addi	a6,a6,-1 # ff00ffff <__global_pointer$+0x7f0055af>
80006a50:	fec54883          	lbu	a7,-20(a0)
80006a54:	01d76733          	or	a4,a4,t4
80006a58:	fec5c503          	lbu	a0,-20(a1)
80006a5c:	01e6e6b3          	or	a3,a3,t5
80006a60:	0106f6b3          	and	a3,a3,a6
80006a64:	01077733          	and	a4,a4,a6
80006a68:	010e1e13          	slli	t3,t3,0x10
80006a6c:	01031313          	slli	t1,t1,0x10
80006a70:	010005b7          	lui	a1,0x1000
80006a74:	01064e83          	lbu	t4,16(a2)
80006a78:	fff58593          	addi	a1,a1,-1 # ffffff <_start-0x7f000001>
80006a7c:	01c6e6b3          	or	a3,a3,t3
80006a80:	00676733          	or	a4,a4,t1
80006a84:	01889813          	slli	a6,a7,0x18
80006a88:	00b6f6b3          	and	a3,a3,a1
80006a8c:	01851613          	slli	a2,a0,0x18
80006a90:	00b77733          	and	a4,a4,a1
80006a94:	0106e6b3          	or	a3,a3,a6
80006a98:	00c76733          	or	a4,a4,a2
80006a9c:	01d10e23          	sb	t4,28(sp)
80006aa0:	00010423          	sb	zero,8(sp)
80006aa4:	00e12023          	sw	a4,0(sp)
80006aa8:	00d12223          	sw	a3,4(sp)
80006aac:	06078a63          	beqz	a5,80006b20 <_Z12UARTWriteHexm+0x1bc>
80006ab0:	00110413          	addi	s0,sp,1
80006ab4:	81418913          	addi	s2,gp,-2028 # 8000a264 <IO_UARTTX>
80006ab8:	81818493          	addi	s1,gp,-2024 # 8000a268 <_ZL15forceduartflush>
80006abc:	0100006f          	j	80006acc <_Z12UARTWriteHexm+0x168>
80006ac0:	00044783          	lbu	a5,0(s0)
80006ac4:	00140413          	addi	s0,s0,1
80006ac8:	04078c63          	beqz	a5,80006b20 <_Z12UARTWriteHexm+0x1bc>
80006acc:	0004a503          	lw	a0,0(s1)
80006ad0:	00092703          	lw	a4,0(s2)
80006ad4:	18000593          	li	a1,384
80006ad8:	00150513          	addi	a0,a0,1
80006adc:	00f72023          	sw	a5,0(a4)
80006ae0:	00a4a023          	sw	a0,0(s1)
80006ae4:	d4dfc0ef          	jal	ra,80003830 <__modsi3>
80006ae8:	fc051ce3          	bnez	a0,80006ac0 <_Z12UARTWriteHexm+0x15c>
80006aec:	81018713          	addi	a4,gp,-2032 # 8000a260 <IO_UARTStatus>
80006af0:	00072783          	lw	a5,0(a4)
80006af4:	0007a783          	lw	a5,0(a5)
80006af8:	0017f793          	andi	a5,a5,1
80006afc:	fc0782e3          	beqz	a5,80006ac0 <_Z12UARTWriteHexm+0x15c>
80006b00:	00000013          	nop
80006b04:	00072783          	lw	a5,0(a4)
80006b08:	0007a783          	lw	a5,0(a5)
80006b0c:	0017f793          	andi	a5,a5,1
80006b10:	fe0798e3          	bnez	a5,80006b00 <_Z12UARTWriteHexm+0x19c>
80006b14:	00044783          	lbu	a5,0(s0)
80006b18:	00140413          	addi	s0,s0,1
80006b1c:	fa0798e3          	bnez	a5,80006acc <_Z12UARTWriteHexm+0x168>
80006b20:	02c12083          	lw	ra,44(sp)
80006b24:	02812403          	lw	s0,40(sp)
80006b28:	02412483          	lw	s1,36(sp)
80006b2c:	02012903          	lw	s2,32(sp)
80006b30:	03010113          	addi	sp,sp,48
80006b34:	00008067          	ret

80006b38 <_Z16UARTWriteDecimall>:
80006b38:	00003797          	auipc	a5,0x3
80006b3c:	00003717          	auipc	a4,0x3
80006b40:	d7478793          	addi	a5,a5,-652 # 800098ac <__clz_tab+0x134>
80006b44:	d8470713          	addi	a4,a4,-636 # 800098c0 <__clz_tab+0x148>
80006b48:	00072e03          	lw	t3,0(a4)
80006b4c:	00472303          	lw	t1,4(a4)
80006b50:	00875883          	lhu	a7,8(a4)
80006b54:	00a74803          	lbu	a6,10(a4)
80006b58:	0007a583          	lw	a1,0(a5)
80006b5c:	0047a603          	lw	a2,4(a5)
80006b60:	0087a683          	lw	a3,8(a5)
80006b64:	00c7a703          	lw	a4,12(a5)
80006b68:	0107a783          	lw	a5,16(a5)
80006b6c:	fd010113          	addi	sp,sp,-48
80006b70:	02812423          	sw	s0,40(sp)
80006b74:	02912223          	sw	s1,36(sp)
80006b78:	00f12e23          	sw	a5,28(sp)
80006b7c:	02112623          	sw	ra,44(sp)
80006b80:	03212023          	sw	s2,32(sp)
80006b84:	01c12023          	sw	t3,0(sp)
80006b88:	00612223          	sw	t1,4(sp)
80006b8c:	01111423          	sh	a7,8(sp)
80006b90:	01010523          	sb	a6,10(sp)
80006b94:	00b12623          	sw	a1,12(sp)
80006b98:	00c12823          	sw	a2,16(sp)
80006b9c:	00d12a23          	sw	a3,20(sp)
80006ba0:	00e12c23          	sw	a4,24(sp)
80006ba4:	00050493          	mv	s1,a0
80006ba8:	02d00793          	li	a5,45
80006bac:	00100413          	li	s0,1
80006bb0:	00054663          	bltz	a0,80006bbc <_Z16UARTWriteDecimall+0x84>
80006bb4:	02000793          	li	a5,32
80006bb8:	00000413          	li	s0,0
80006bbc:	3b9ad5b7          	lui	a1,0x3b9ad
80006bc0:	a0058593          	addi	a1,a1,-1536 # 3b9aca00 <_start-0x44653600>
80006bc4:	00048513          	mv	a0,s1
80006bc8:	80000937          	lui	s2,0x80000
80006bcc:	00f10623          	sb	a5,12(sp)
80006bd0:	fff94913          	not	s2,s2
80006bd4:	bd9fc0ef          	jal	ra,800037ac <__divsi3>
80006bd8:	01257533          	and	a0,a0,s2
80006bdc:	1a051c63          	bnez	a0,80006d94 <_Z16UARTWriteDecimall+0x25c>
80006be0:	05f5e5b7          	lui	a1,0x5f5e
80006be4:	10058593          	addi	a1,a1,256 # 5f5e100 <_start-0x7a0a1f00>
80006be8:	00048513          	mv	a0,s1
80006bec:	bc1fc0ef          	jal	ra,800037ac <__divsi3>
80006bf0:	00a00593          	li	a1,10
80006bf4:	c3dfc0ef          	jal	ra,80003830 <__modsi3>
80006bf8:	01257533          	and	a0,a0,s2
80006bfc:	1c051863          	bnez	a0,80006dcc <_Z16UARTWriteDecimall+0x294>
80006c00:	009895b7          	lui	a1,0x989
80006c04:	68058593          	addi	a1,a1,1664 # 989680 <_start-0x7f676980>
80006c08:	00048513          	mv	a0,s1
80006c0c:	ba1fc0ef          	jal	ra,800037ac <__divsi3>
80006c10:	00a00593          	li	a1,10
80006c14:	c1dfc0ef          	jal	ra,80003830 <__modsi3>
80006c18:	01257533          	and	a0,a0,s2
80006c1c:	1e051663          	bnez	a0,80006e08 <_Z16UARTWriteDecimall+0x2d0>
80006c20:	000f45b7          	lui	a1,0xf4
80006c24:	24058593          	addi	a1,a1,576 # f4240 <_start-0x7ff0bdc0>
80006c28:	00048513          	mv	a0,s1
80006c2c:	b81fc0ef          	jal	ra,800037ac <__divsi3>
80006c30:	00a00593          	li	a1,10
80006c34:	bfdfc0ef          	jal	ra,80003830 <__modsi3>
80006c38:	01257533          	and	a0,a0,s2
80006c3c:	20051463          	bnez	a0,80006e44 <_Z16UARTWriteDecimall+0x30c>
80006c40:	000185b7          	lui	a1,0x18
80006c44:	6a058593          	addi	a1,a1,1696 # 186a0 <_start-0x7ffe7960>
80006c48:	00048513          	mv	a0,s1
80006c4c:	b61fc0ef          	jal	ra,800037ac <__divsi3>
80006c50:	00a00593          	li	a1,10
80006c54:	bddfc0ef          	jal	ra,80003830 <__modsi3>
80006c58:	01257533          	and	a0,a0,s2
80006c5c:	22051263          	bnez	a0,80006e80 <_Z16UARTWriteDecimall+0x348>
80006c60:	000025b7          	lui	a1,0x2
80006c64:	71058593          	addi	a1,a1,1808 # 2710 <_start-0x7fffd8f0>
80006c68:	00048513          	mv	a0,s1
80006c6c:	b41fc0ef          	jal	ra,800037ac <__divsi3>
80006c70:	00a00593          	li	a1,10
80006c74:	bbdfc0ef          	jal	ra,80003830 <__modsi3>
80006c78:	01257533          	and	a0,a0,s2
80006c7c:	24051063          	bnez	a0,80006ebc <_Z16UARTWriteDecimall+0x384>
80006c80:	3e800593          	li	a1,1000
80006c84:	00048513          	mv	a0,s1
80006c88:	b25fc0ef          	jal	ra,800037ac <__divsi3>
80006c8c:	00a00593          	li	a1,10
80006c90:	ba1fc0ef          	jal	ra,80003830 <__modsi3>
80006c94:	01257533          	and	a0,a0,s2
80006c98:	24051e63          	bnez	a0,80006ef4 <_Z16UARTWriteDecimall+0x3bc>
80006c9c:	06400593          	li	a1,100
80006ca0:	00048513          	mv	a0,s1
80006ca4:	b09fc0ef          	jal	ra,800037ac <__divsi3>
80006ca8:	00a00593          	li	a1,10
80006cac:	b85fc0ef          	jal	ra,80003830 <__modsi3>
80006cb0:	01257533          	and	a0,a0,s2
80006cb4:	26051c63          	bnez	a0,80006f2c <_Z16UARTWriteDecimall+0x3f4>
80006cb8:	00a00593          	li	a1,10
80006cbc:	00048513          	mv	a0,s1
80006cc0:	aedfc0ef          	jal	ra,800037ac <__divsi3>
80006cc4:	00a00593          	li	a1,10
80006cc8:	b69fc0ef          	jal	ra,80003830 <__modsi3>
80006ccc:	01257533          	and	a0,a0,s2
80006cd0:	28051a63          	bnez	a0,80006f64 <_Z16UARTWriteDecimall+0x42c>
80006cd4:	00a00593          	li	a1,10
80006cd8:	00048513          	mv	a0,s1
80006cdc:	b55fc0ef          	jal	ra,80003830 <__modsi3>
80006ce0:	00151793          	slli	a5,a0,0x1
80006ce4:	0017d793          	srli	a5,a5,0x1
80006ce8:	02078793          	addi	a5,a5,32
80006cec:	002787b3          	add	a5,a5,sp
80006cf0:	fe07c783          	lbu	a5,-32(a5)
80006cf4:	02040713          	addi	a4,s0,32
80006cf8:	00270433          	add	s0,a4,sp
80006cfc:	fef40623          	sb	a5,-20(s0)
80006d00:	00c14783          	lbu	a5,12(sp)
80006d04:	fe0406a3          	sb	zero,-19(s0)
80006d08:	06078a63          	beqz	a5,80006d7c <_Z16UARTWriteDecimall+0x244>
80006d0c:	00d10413          	addi	s0,sp,13
80006d10:	81418913          	addi	s2,gp,-2028 # 8000a264 <IO_UARTTX>
80006d14:	81818493          	addi	s1,gp,-2024 # 8000a268 <_ZL15forceduartflush>
80006d18:	0100006f          	j	80006d28 <_Z16UARTWriteDecimall+0x1f0>
80006d1c:	00044783          	lbu	a5,0(s0)
80006d20:	00140413          	addi	s0,s0,1
80006d24:	04078c63          	beqz	a5,80006d7c <_Z16UARTWriteDecimall+0x244>
80006d28:	0004a503          	lw	a0,0(s1)
80006d2c:	00092703          	lw	a4,0(s2) # 80000000 <__global_pointer$+0xffff55b0>
80006d30:	18000593          	li	a1,384
80006d34:	00150513          	addi	a0,a0,1
80006d38:	00f72023          	sw	a5,0(a4)
80006d3c:	00a4a023          	sw	a0,0(s1)
80006d40:	af1fc0ef          	jal	ra,80003830 <__modsi3>
80006d44:	fc051ce3          	bnez	a0,80006d1c <_Z16UARTWriteDecimall+0x1e4>
80006d48:	81018713          	addi	a4,gp,-2032 # 8000a260 <IO_UARTStatus>
80006d4c:	00072783          	lw	a5,0(a4)
80006d50:	0007a783          	lw	a5,0(a5)
80006d54:	0017f793          	andi	a5,a5,1
80006d58:	fc0782e3          	beqz	a5,80006d1c <_Z16UARTWriteDecimall+0x1e4>
80006d5c:	00000013          	nop
80006d60:	00072783          	lw	a5,0(a4)
80006d64:	0007a783          	lw	a5,0(a5)
80006d68:	0017f793          	andi	a5,a5,1
80006d6c:	fe0798e3          	bnez	a5,80006d5c <_Z16UARTWriteDecimall+0x224>
80006d70:	00044783          	lbu	a5,0(s0)
80006d74:	00140413          	addi	s0,s0,1
80006d78:	fa0798e3          	bnez	a5,80006d28 <_Z16UARTWriteDecimall+0x1f0>
80006d7c:	02c12083          	lw	ra,44(sp)
80006d80:	02812403          	lw	s0,40(sp)
80006d84:	02412483          	lw	s1,36(sp)
80006d88:	02012903          	lw	s2,32(sp)
80006d8c:	03010113          	addi	sp,sp,48
80006d90:	00008067          	ret
80006d94:	02050793          	addi	a5,a0,32
80006d98:	00278533          	add	a0,a5,sp
80006d9c:	fe054703          	lbu	a4,-32(a0)
80006da0:	02040793          	addi	a5,s0,32
80006da4:	002787b3          	add	a5,a5,sp
80006da8:	05f5e5b7          	lui	a1,0x5f5e
80006dac:	10058593          	addi	a1,a1,256 # 5f5e100 <_start-0x7a0a1f00>
80006db0:	fee78623          	sb	a4,-20(a5)
80006db4:	00048513          	mv	a0,s1
80006db8:	9f5fc0ef          	jal	ra,800037ac <__divsi3>
80006dbc:	00a00593          	li	a1,10
80006dc0:	a71fc0ef          	jal	ra,80003830 <__modsi3>
80006dc4:	00140413          	addi	s0,s0,1
80006dc8:	01257533          	and	a0,a0,s2
80006dcc:	02050793          	addi	a5,a0,32
80006dd0:	00278533          	add	a0,a5,sp
80006dd4:	fe054703          	lbu	a4,-32(a0)
80006dd8:	02040793          	addi	a5,s0,32
80006ddc:	002787b3          	add	a5,a5,sp
80006de0:	009895b7          	lui	a1,0x989
80006de4:	68058593          	addi	a1,a1,1664 # 989680 <_start-0x7f676980>
80006de8:	fee78623          	sb	a4,-20(a5)
80006dec:	00048513          	mv	a0,s1
80006df0:	9bdfc0ef          	jal	ra,800037ac <__divsi3>
80006df4:	00a00593          	li	a1,10
80006df8:	a39fc0ef          	jal	ra,80003830 <__modsi3>
80006dfc:	00151513          	slli	a0,a0,0x1
80006e00:	00140413          	addi	s0,s0,1
80006e04:	00155513          	srli	a0,a0,0x1
80006e08:	02050793          	addi	a5,a0,32
80006e0c:	00278533          	add	a0,a5,sp
80006e10:	fe054703          	lbu	a4,-32(a0)
80006e14:	02040793          	addi	a5,s0,32
80006e18:	002787b3          	add	a5,a5,sp
80006e1c:	000f45b7          	lui	a1,0xf4
80006e20:	24058593          	addi	a1,a1,576 # f4240 <_start-0x7ff0bdc0>
80006e24:	fee78623          	sb	a4,-20(a5)
80006e28:	00048513          	mv	a0,s1
80006e2c:	981fc0ef          	jal	ra,800037ac <__divsi3>
80006e30:	00a00593          	li	a1,10
80006e34:	9fdfc0ef          	jal	ra,80003830 <__modsi3>
80006e38:	00151513          	slli	a0,a0,0x1
80006e3c:	00140413          	addi	s0,s0,1
80006e40:	00155513          	srli	a0,a0,0x1
80006e44:	02050793          	addi	a5,a0,32
80006e48:	00278533          	add	a0,a5,sp
80006e4c:	fe054703          	lbu	a4,-32(a0)
80006e50:	02040793          	addi	a5,s0,32
80006e54:	002787b3          	add	a5,a5,sp
80006e58:	000185b7          	lui	a1,0x18
80006e5c:	6a058593          	addi	a1,a1,1696 # 186a0 <_start-0x7ffe7960>
80006e60:	fee78623          	sb	a4,-20(a5)
80006e64:	00048513          	mv	a0,s1
80006e68:	945fc0ef          	jal	ra,800037ac <__divsi3>
80006e6c:	00a00593          	li	a1,10
80006e70:	9c1fc0ef          	jal	ra,80003830 <__modsi3>
80006e74:	00151513          	slli	a0,a0,0x1
80006e78:	00140413          	addi	s0,s0,1
80006e7c:	00155513          	srli	a0,a0,0x1
80006e80:	02050793          	addi	a5,a0,32
80006e84:	00278533          	add	a0,a5,sp
80006e88:	fe054703          	lbu	a4,-32(a0)
80006e8c:	02040793          	addi	a5,s0,32
80006e90:	002787b3          	add	a5,a5,sp
80006e94:	000025b7          	lui	a1,0x2
80006e98:	71058593          	addi	a1,a1,1808 # 2710 <_start-0x7fffd8f0>
80006e9c:	fee78623          	sb	a4,-20(a5)
80006ea0:	00048513          	mv	a0,s1
80006ea4:	909fc0ef          	jal	ra,800037ac <__divsi3>
80006ea8:	00a00593          	li	a1,10
80006eac:	985fc0ef          	jal	ra,80003830 <__modsi3>
80006eb0:	00151513          	slli	a0,a0,0x1
80006eb4:	00140413          	addi	s0,s0,1
80006eb8:	00155513          	srli	a0,a0,0x1
80006ebc:	02050793          	addi	a5,a0,32
80006ec0:	00278533          	add	a0,a5,sp
80006ec4:	fe054703          	lbu	a4,-32(a0)
80006ec8:	02040793          	addi	a5,s0,32
80006ecc:	002787b3          	add	a5,a5,sp
80006ed0:	3e800593          	li	a1,1000
80006ed4:	fee78623          	sb	a4,-20(a5)
80006ed8:	00048513          	mv	a0,s1
80006edc:	8d1fc0ef          	jal	ra,800037ac <__divsi3>
80006ee0:	00a00593          	li	a1,10
80006ee4:	94dfc0ef          	jal	ra,80003830 <__modsi3>
80006ee8:	00151513          	slli	a0,a0,0x1
80006eec:	00140413          	addi	s0,s0,1
80006ef0:	00155513          	srli	a0,a0,0x1
80006ef4:	02050793          	addi	a5,a0,32
80006ef8:	00278533          	add	a0,a5,sp
80006efc:	fe054703          	lbu	a4,-32(a0)
80006f00:	02040793          	addi	a5,s0,32
80006f04:	002787b3          	add	a5,a5,sp
80006f08:	06400593          	li	a1,100
80006f0c:	fee78623          	sb	a4,-20(a5)
80006f10:	00048513          	mv	a0,s1
80006f14:	899fc0ef          	jal	ra,800037ac <__divsi3>
80006f18:	00a00593          	li	a1,10
80006f1c:	915fc0ef          	jal	ra,80003830 <__modsi3>
80006f20:	00151513          	slli	a0,a0,0x1
80006f24:	00140413          	addi	s0,s0,1
80006f28:	00155513          	srli	a0,a0,0x1
80006f2c:	02050793          	addi	a5,a0,32
80006f30:	00278533          	add	a0,a5,sp
80006f34:	fe054703          	lbu	a4,-32(a0)
80006f38:	02040793          	addi	a5,s0,32
80006f3c:	002787b3          	add	a5,a5,sp
80006f40:	00a00593          	li	a1,10
80006f44:	fee78623          	sb	a4,-20(a5)
80006f48:	00048513          	mv	a0,s1
80006f4c:	861fc0ef          	jal	ra,800037ac <__divsi3>
80006f50:	00a00593          	li	a1,10
80006f54:	8ddfc0ef          	jal	ra,80003830 <__modsi3>
80006f58:	00151513          	slli	a0,a0,0x1
80006f5c:	00140413          	addi	s0,s0,1
80006f60:	00155513          	srli	a0,a0,0x1
80006f64:	02050793          	addi	a5,a0,32
80006f68:	00278533          	add	a0,a5,sp
80006f6c:	fe054703          	lbu	a4,-32(a0)
80006f70:	02040793          	addi	a5,s0,32
80006f74:	002787b3          	add	a5,a5,sp
80006f78:	00140413          	addi	s0,s0,1
80006f7c:	fee78623          	sb	a4,-20(a5)
80006f80:	d55ff06f          	j	80006cd4 <_Z16UARTWriteDecimall+0x19c>

80006f84 <tan>:
80006f84:	00159713          	slli	a4,a1,0x1
80006f88:	3fe926b7          	lui	a3,0x3fe92
80006f8c:	00175713          	srli	a4,a4,0x1
80006f90:	1fb68693          	addi	a3,a3,507 # 3fe921fb <_start-0x4016de05>
80006f94:	00e6ca63          	blt	a3,a4,80006fa8 <tan+0x24>
80006f98:	00100713          	li	a4,1
80006f9c:	00000613          	li	a2,0
80006fa0:	00000693          	li	a3,0
80006fa4:	5210106f          	j	80008cc4 <__kernel_tan>
80006fa8:	fe010113          	addi	sp,sp,-32
80006fac:	00112e23          	sw	ra,28(sp)
80006fb0:	7ff006b7          	lui	a3,0x7ff00
80006fb4:	00d74e63          	blt	a4,a3,80006fd0 <tan+0x4c>
80006fb8:	00050613          	mv	a2,a0
80006fbc:	00058693          	mv	a3,a1
80006fc0:	ab9fa0ef          	jal	ra,80001a78 <__subdf3>
80006fc4:	01c12083          	lw	ra,28(sp)
80006fc8:	02010113          	addi	sp,sp,32
80006fcc:	00008067          	ret
80006fd0:	00010613          	mv	a2,sp
80006fd4:	1a8000ef          	jal	ra,8000717c <__ieee754_rem_pio2>
80006fd8:	00151513          	slli	a0,a0,0x1
80006fdc:	00257513          	andi	a0,a0,2
80006fe0:	00100713          	li	a4,1
80006fe4:	40a70733          	sub	a4,a4,a0
80006fe8:	00812603          	lw	a2,8(sp)
80006fec:	00c12683          	lw	a3,12(sp)
80006ff0:	00012503          	lw	a0,0(sp)
80006ff4:	00412583          	lw	a1,4(sp)
80006ff8:	4cd010ef          	jal	ra,80008cc4 <__kernel_tan>
80006ffc:	fc9ff06f          	j	80006fc4 <tan+0x40>

80007000 <powf>:
80007000:	ff010113          	addi	sp,sp,-16
80007004:	00812423          	sw	s0,8(sp)
80007008:	00912223          	sw	s1,4(sp)
8000700c:	01212023          	sw	s2,0(sp)
80007010:	00058413          	mv	s0,a1
80007014:	00112623          	sw	ra,12(sp)
80007018:	00050913          	mv	s2,a0
8000701c:	734000ef          	jal	ra,80007750 <__ieee754_powf>
80007020:	00050493          	mv	s1,a0
80007024:	00040593          	mv	a1,s0
80007028:	00040513          	mv	a0,s0
8000702c:	975fc0ef          	jal	ra,800039a0 <__unordsf2>
80007030:	0a051c63          	bnez	a0,800070e8 <powf+0xe8>
80007034:	00000593          	li	a1,0
80007038:	00090513          	mv	a0,s2
8000703c:	8fdfc0ef          	jal	ra,80003938 <__eqsf2>
80007040:	02051e63          	bnez	a0,8000707c <powf+0x7c>
80007044:	00000593          	li	a1,0
80007048:	00040513          	mv	a0,s0
8000704c:	8edfc0ef          	jal	ra,80003938 <__eqsf2>
80007050:	0a050a63          	beqz	a0,80007104 <powf+0x104>
80007054:	00040513          	mv	a0,s0
80007058:	590020ef          	jal	ra,800095e8 <finitef>
8000705c:	08050663          	beqz	a0,800070e8 <powf+0xe8>
80007060:	00000593          	li	a1,0
80007064:	00040513          	mv	a0,s0
80007068:	bc1fb0ef          	jal	ra,80002c28 <__lesf2>
8000706c:	06055e63          	bgez	a0,800070e8 <powf+0xe8>
80007070:	820f90ef          	jal	ra,80000090 <__errno>
80007074:	02200793          	li	a5,34
80007078:	0400006f          	j	800070b8 <powf+0xb8>
8000707c:	00048513          	mv	a0,s1
80007080:	568020ef          	jal	ra,800095e8 <finitef>
80007084:	02051e63          	bnez	a0,800070c0 <powf+0xc0>
80007088:	00090513          	mv	a0,s2
8000708c:	55c020ef          	jal	ra,800095e8 <finitef>
80007090:	02050863          	beqz	a0,800070c0 <powf+0xc0>
80007094:	00040513          	mv	a0,s0
80007098:	550020ef          	jal	ra,800095e8 <finitef>
8000709c:	02050263          	beqz	a0,800070c0 <powf+0xc0>
800070a0:	00048593          	mv	a1,s1
800070a4:	00048513          	mv	a0,s1
800070a8:	8f9fc0ef          	jal	ra,800039a0 <__unordsf2>
800070ac:	fc0502e3          	beqz	a0,80007070 <powf+0x70>
800070b0:	fe1f80ef          	jal	ra,80000090 <__errno>
800070b4:	02100793          	li	a5,33
800070b8:	00f52023          	sw	a5,0(a0)
800070bc:	02c0006f          	j	800070e8 <powf+0xe8>
800070c0:	00000593          	li	a1,0
800070c4:	00048513          	mv	a0,s1
800070c8:	871fc0ef          	jal	ra,80003938 <__eqsf2>
800070cc:	00051e63          	bnez	a0,800070e8 <powf+0xe8>
800070d0:	00090513          	mv	a0,s2
800070d4:	514020ef          	jal	ra,800095e8 <finitef>
800070d8:	00050863          	beqz	a0,800070e8 <powf+0xe8>
800070dc:	00040513          	mv	a0,s0
800070e0:	508020ef          	jal	ra,800095e8 <finitef>
800070e4:	f80516e3          	bnez	a0,80007070 <powf+0x70>
800070e8:	00c12083          	lw	ra,12(sp)
800070ec:	00812403          	lw	s0,8(sp)
800070f0:	00012903          	lw	s2,0(sp)
800070f4:	00048513          	mv	a0,s1
800070f8:	00412483          	lw	s1,4(sp)
800070fc:	01010113          	addi	sp,sp,16
80007100:	00008067          	ret
80007104:	81c1a483          	lw	s1,-2020(gp) # 8000a26c <_ZL15forceduartflush+0x4>
80007108:	fe1ff06f          	j	800070e8 <powf+0xe8>

8000710c <sqrtf>:
8000710c:	ff010113          	addi	sp,sp,-16
80007110:	00812423          	sw	s0,8(sp)
80007114:	00912223          	sw	s1,4(sp)
80007118:	00112623          	sw	ra,12(sp)
8000711c:	00050493          	mv	s1,a0
80007120:	7f5000ef          	jal	ra,80008114 <__ieee754_sqrtf>
80007124:	00050413          	mv	s0,a0
80007128:	00048593          	mv	a1,s1
8000712c:	00048513          	mv	a0,s1
80007130:	871fc0ef          	jal	ra,800039a0 <__unordsf2>
80007134:	02051863          	bnez	a0,80007164 <sqrtf+0x58>
80007138:	00000593          	li	a1,0
8000713c:	00048513          	mv	a0,s1
80007140:	ae9fb0ef          	jal	ra,80002c28 <__lesf2>
80007144:	02055063          	bgez	a0,80007164 <sqrtf+0x58>
80007148:	f49f80ef          	jal	ra,80000090 <__errno>
8000714c:	02100793          	li	a5,33
80007150:	00000593          	li	a1,0
80007154:	00f52023          	sw	a5,0(a0)
80007158:	00058513          	mv	a0,a1
8000715c:	e88fb0ef          	jal	ra,800027e4 <__divsf3>
80007160:	00050413          	mv	s0,a0
80007164:	00c12083          	lw	ra,12(sp)
80007168:	00040513          	mv	a0,s0
8000716c:	00812403          	lw	s0,8(sp)
80007170:	00412483          	lw	s1,4(sp)
80007174:	01010113          	addi	sp,sp,16
80007178:	00008067          	ret

8000717c <__ieee754_rem_pio2>:
8000717c:	fa010113          	addi	sp,sp,-96
80007180:	05212823          	sw	s2,80(sp)
80007184:	3fe926b7          	lui	a3,0x3fe92
80007188:	00159913          	slli	s2,a1,0x1
8000718c:	04812c23          	sw	s0,88(sp)
80007190:	04112e23          	sw	ra,92(sp)
80007194:	04912a23          	sw	s1,84(sp)
80007198:	05312623          	sw	s3,76(sp)
8000719c:	05412423          	sw	s4,72(sp)
800071a0:	05512223          	sw	s5,68(sp)
800071a4:	05612023          	sw	s6,64(sp)
800071a8:	03712e23          	sw	s7,60(sp)
800071ac:	03812c23          	sw	s8,56(sp)
800071b0:	03912a23          	sw	s9,52(sp)
800071b4:	03a12823          	sw	s10,48(sp)
800071b8:	03b12623          	sw	s11,44(sp)
800071bc:	00195913          	srli	s2,s2,0x1
800071c0:	1fb68693          	addi	a3,a3,507 # 3fe921fb <_start-0x4016de05>
800071c4:	00060413          	mv	s0,a2
800071c8:	0126ce63          	blt	a3,s2,800071e4 <__ieee754_rem_pio2+0x68>
800071cc:	00a42023          	sw	a0,0(s0)
800071d0:	00b42223          	sw	a1,4(s0)
800071d4:	00042423          	sw	zero,8(s0)
800071d8:	00042623          	sw	zero,12(s0)
800071dc:	00000493          	li	s1,0
800071e0:	0740006f          	j	80007254 <__ieee754_rem_pio2+0xd8>
800071e4:	4002e6b7          	lui	a3,0x4002e
800071e8:	97b68693          	addi	a3,a3,-1669 # 4002d97b <_start-0x3ffd2685>
800071ec:	1926ce63          	blt	a3,s2,80007388 <__ieee754_rem_pio2+0x20c>
800071f0:	0eb05663          	blez	a1,800072dc <__ieee754_rem_pio2+0x160>
800071f4:	8f81a603          	lw	a2,-1800(gp) # 8000a348 <_ZL15forceduartflush+0xe0>
800071f8:	8fc1a683          	lw	a3,-1796(gp) # 8000a34c <_ZL15forceduartflush+0xe4>
800071fc:	87dfa0ef          	jal	ra,80001a78 <__subdf3>
80007200:	3ff927b7          	lui	a5,0x3ff92
80007204:	1fb78793          	addi	a5,a5,507 # 3ff921fb <_start-0x4006de05>
80007208:	00050993          	mv	s3,a0
8000720c:	00058493          	mv	s1,a1
80007210:	08f90263          	beq	s2,a5,80007294 <__ieee754_rem_pio2+0x118>
80007214:	9001a603          	lw	a2,-1792(gp) # 8000a350 <_ZL15forceduartflush+0xe8>
80007218:	9041a683          	lw	a3,-1788(gp) # 8000a354 <_ZL15forceduartflush+0xec>
8000721c:	85dfa0ef          	jal	ra,80001a78 <__subdf3>
80007220:	00050613          	mv	a2,a0
80007224:	00058693          	mv	a3,a1
80007228:	00a42023          	sw	a0,0(s0)
8000722c:	00b42223          	sw	a1,4(s0)
80007230:	00098513          	mv	a0,s3
80007234:	00048593          	mv	a1,s1
80007238:	841fa0ef          	jal	ra,80001a78 <__subdf3>
8000723c:	9001a603          	lw	a2,-1792(gp) # 8000a350 <_ZL15forceduartflush+0xe8>
80007240:	9041a683          	lw	a3,-1788(gp) # 8000a354 <_ZL15forceduartflush+0xec>
80007244:	835fa0ef          	jal	ra,80001a78 <__subdf3>
80007248:	00a42423          	sw	a0,8(s0)
8000724c:	00b42623          	sw	a1,12(s0)
80007250:	00100493          	li	s1,1
80007254:	05c12083          	lw	ra,92(sp)
80007258:	05812403          	lw	s0,88(sp)
8000725c:	05012903          	lw	s2,80(sp)
80007260:	04c12983          	lw	s3,76(sp)
80007264:	04812a03          	lw	s4,72(sp)
80007268:	04412a83          	lw	s5,68(sp)
8000726c:	04012b03          	lw	s6,64(sp)
80007270:	03c12b83          	lw	s7,60(sp)
80007274:	03812c03          	lw	s8,56(sp)
80007278:	03412c83          	lw	s9,52(sp)
8000727c:	03012d03          	lw	s10,48(sp)
80007280:	02c12d83          	lw	s11,44(sp)
80007284:	00048513          	mv	a0,s1
80007288:	05412483          	lw	s1,84(sp)
8000728c:	06010113          	addi	sp,sp,96
80007290:	00008067          	ret
80007294:	9081a603          	lw	a2,-1784(gp) # 8000a358 <_ZL15forceduartflush+0xf0>
80007298:	90c1a683          	lw	a3,-1780(gp) # 8000a35c <_ZL15forceduartflush+0xf4>
8000729c:	fdcfa0ef          	jal	ra,80001a78 <__subdf3>
800072a0:	9101a603          	lw	a2,-1776(gp) # 8000a360 <_ZL15forceduartflush+0xf8>
800072a4:	9141a683          	lw	a3,-1772(gp) # 8000a364 <_ZL15forceduartflush+0xfc>
800072a8:	00050913          	mv	s2,a0
800072ac:	00058493          	mv	s1,a1
800072b0:	fc8fa0ef          	jal	ra,80001a78 <__subdf3>
800072b4:	00050613          	mv	a2,a0
800072b8:	00058693          	mv	a3,a1
800072bc:	00a42023          	sw	a0,0(s0)
800072c0:	00b42223          	sw	a1,4(s0)
800072c4:	00090513          	mv	a0,s2
800072c8:	00048593          	mv	a1,s1
800072cc:	facfa0ef          	jal	ra,80001a78 <__subdf3>
800072d0:	9101a603          	lw	a2,-1776(gp) # 8000a360 <_ZL15forceduartflush+0xf8>
800072d4:	9141a683          	lw	a3,-1772(gp) # 8000a364 <_ZL15forceduartflush+0xfc>
800072d8:	f6dff06f          	j	80007244 <__ieee754_rem_pio2+0xc8>
800072dc:	8f81a603          	lw	a2,-1800(gp) # 8000a348 <_ZL15forceduartflush+0xe0>
800072e0:	8fc1a683          	lw	a3,-1796(gp) # 8000a34c <_ZL15forceduartflush+0xe4>
800072e4:	828f90ef          	jal	ra,8000030c <__adddf3>
800072e8:	3ff927b7          	lui	a5,0x3ff92
800072ec:	1fb78793          	addi	a5,a5,507 # 3ff921fb <_start-0x4006de05>
800072f0:	00050993          	mv	s3,a0
800072f4:	00058493          	mv	s1,a1
800072f8:	04f90463          	beq	s2,a5,80007340 <__ieee754_rem_pio2+0x1c4>
800072fc:	9001a603          	lw	a2,-1792(gp) # 8000a350 <_ZL15forceduartflush+0xe8>
80007300:	9041a683          	lw	a3,-1788(gp) # 8000a354 <_ZL15forceduartflush+0xec>
80007304:	808f90ef          	jal	ra,8000030c <__adddf3>
80007308:	00050613          	mv	a2,a0
8000730c:	00058693          	mv	a3,a1
80007310:	00a42023          	sw	a0,0(s0)
80007314:	00b42223          	sw	a1,4(s0)
80007318:	00098513          	mv	a0,s3
8000731c:	00048593          	mv	a1,s1
80007320:	f58fa0ef          	jal	ra,80001a78 <__subdf3>
80007324:	9001a603          	lw	a2,-1792(gp) # 8000a350 <_ZL15forceduartflush+0xe8>
80007328:	9041a683          	lw	a3,-1788(gp) # 8000a354 <_ZL15forceduartflush+0xec>
8000732c:	fe1f80ef          	jal	ra,8000030c <__adddf3>
80007330:	00a42423          	sw	a0,8(s0)
80007334:	00b42623          	sw	a1,12(s0)
80007338:	fff00493          	li	s1,-1
8000733c:	f19ff06f          	j	80007254 <__ieee754_rem_pio2+0xd8>
80007340:	9081a603          	lw	a2,-1784(gp) # 8000a358 <_ZL15forceduartflush+0xf0>
80007344:	90c1a683          	lw	a3,-1780(gp) # 8000a35c <_ZL15forceduartflush+0xf4>
80007348:	fc5f80ef          	jal	ra,8000030c <__adddf3>
8000734c:	9101a603          	lw	a2,-1776(gp) # 8000a360 <_ZL15forceduartflush+0xf8>
80007350:	9141a683          	lw	a3,-1772(gp) # 8000a364 <_ZL15forceduartflush+0xfc>
80007354:	00050913          	mv	s2,a0
80007358:	00058493          	mv	s1,a1
8000735c:	fb1f80ef          	jal	ra,8000030c <__adddf3>
80007360:	00050613          	mv	a2,a0
80007364:	00058693          	mv	a3,a1
80007368:	00a42023          	sw	a0,0(s0)
8000736c:	00b42223          	sw	a1,4(s0)
80007370:	00090513          	mv	a0,s2
80007374:	00048593          	mv	a1,s1
80007378:	f00fa0ef          	jal	ra,80001a78 <__subdf3>
8000737c:	9101a603          	lw	a2,-1776(gp) # 8000a360 <_ZL15forceduartflush+0xf8>
80007380:	9141a683          	lw	a3,-1772(gp) # 8000a364 <_ZL15forceduartflush+0xfc>
80007384:	fa9ff06f          	j	8000732c <__ieee754_rem_pio2+0x1b0>
80007388:	413926b7          	lui	a3,0x41392
8000738c:	1fb68693          	addi	a3,a3,507 # 413921fb <_start-0x3ec6de05>
80007390:	00058c93          	mv	s9,a1
80007394:	2926cc63          	blt	a3,s2,8000762c <__ieee754_rem_pio2+0x4b0>
80007398:	75d010ef          	jal	ra,800092f4 <fabs>
8000739c:	9181a603          	lw	a2,-1768(gp) # 8000a368 <_ZL15forceduartflush+0x100>
800073a0:	91c1a683          	lw	a3,-1764(gp) # 8000a36c <_ZL15forceduartflush+0x104>
800073a4:	00050a13          	mv	s4,a0
800073a8:	00058993          	mv	s3,a1
800073ac:	800fa0ef          	jal	ra,800013ac <__muldf3>
800073b0:	8c81a603          	lw	a2,-1848(gp) # 8000a318 <_ZL15forceduartflush+0xb0>
800073b4:	8cc1a683          	lw	a3,-1844(gp) # 8000a31c <_ZL15forceduartflush+0xb4>
800073b8:	f55f80ef          	jal	ra,8000030c <__adddf3>
800073bc:	eadfa0ef          	jal	ra,80002268 <__fixdfsi>
800073c0:	00050493          	mv	s1,a0
800073c4:	f25fa0ef          	jal	ra,800022e8 <__floatsidf>
800073c8:	8f81a603          	lw	a2,-1800(gp) # 8000a348 <_ZL15forceduartflush+0xe0>
800073cc:	8fc1a683          	lw	a3,-1796(gp) # 8000a34c <_ZL15forceduartflush+0xe4>
800073d0:	00050c13          	mv	s8,a0
800073d4:	00058b93          	mv	s7,a1
800073d8:	fd5f90ef          	jal	ra,800013ac <__muldf3>
800073dc:	00050613          	mv	a2,a0
800073e0:	00058693          	mv	a3,a1
800073e4:	000a0513          	mv	a0,s4
800073e8:	00098593          	mv	a1,s3
800073ec:	e8cfa0ef          	jal	ra,80001a78 <__subdf3>
800073f0:	9001a603          	lw	a2,-1792(gp) # 8000a350 <_ZL15forceduartflush+0xe8>
800073f4:	9041a683          	lw	a3,-1788(gp) # 8000a354 <_ZL15forceduartflush+0xec>
800073f8:	00050b13          	mv	s6,a0
800073fc:	00058a93          	mv	s5,a1
80007400:	000c0513          	mv	a0,s8
80007404:	000b8593          	mv	a1,s7
80007408:	fa5f90ef          	jal	ra,800013ac <__muldf3>
8000740c:	01f00793          	li	a5,31
80007410:	00050a13          	mv	s4,a0
80007414:	00058993          	mv	s3,a1
80007418:	00050613          	mv	a2,a0
8000741c:	00058693          	mv	a3,a1
80007420:	000b0513          	mv	a0,s6
80007424:	000a8593          	mv	a1,s5
80007428:	0297c863          	blt	a5,s1,80007458 <__ieee754_rem_pio2+0x2dc>
8000742c:	fff48713          	addi	a4,s1,-1
80007430:	8000a7b7          	lui	a5,0x8000a
80007434:	00271713          	slli	a4,a4,0x2
80007438:	8cc78793          	addi	a5,a5,-1844 # 800098cc <__global_pointer$+0xffffee7c>
8000743c:	00e787b3          	add	a5,a5,a4
80007440:	0007a783          	lw	a5,0(a5)
80007444:	01278a63          	beq	a5,s2,80007458 <__ieee754_rem_pio2+0x2dc>
80007448:	e30fa0ef          	jal	ra,80001a78 <__subdf3>
8000744c:	00a42023          	sw	a0,0(s0)
80007450:	00b42223          	sw	a1,4(s0)
80007454:	0280006f          	j	8000747c <__ieee754_rem_pio2+0x300>
80007458:	e20fa0ef          	jal	ra,80001a78 <__subdf3>
8000745c:	0145d793          	srli	a5,a1,0x14
80007460:	41495913          	srai	s2,s2,0x14
80007464:	7ff7f793          	andi	a5,a5,2047
80007468:	40f907b3          	sub	a5,s2,a5
8000746c:	01000713          	li	a4,16
80007470:	04f74e63          	blt	a4,a5,800074cc <__ieee754_rem_pio2+0x350>
80007474:	00a42023          	sw	a0,0(s0)
80007478:	00b42223          	sw	a1,4(s0)
8000747c:	00042703          	lw	a4,0(s0)
80007480:	00442903          	lw	s2,4(s0)
80007484:	000b0513          	mv	a0,s6
80007488:	00070613          	mv	a2,a4
8000748c:	00090693          	mv	a3,s2
80007490:	000a8593          	mv	a1,s5
80007494:	de4fa0ef          	jal	ra,80001a78 <__subdf3>
80007498:	000a0613          	mv	a2,s4
8000749c:	00098693          	mv	a3,s3
800074a0:	dd8fa0ef          	jal	ra,80001a78 <__subdf3>
800074a4:	00a42423          	sw	a0,8(s0)
800074a8:	00b42623          	sw	a1,12(s0)
800074ac:	da0cd4e3          	bgez	s9,80007254 <__ieee754_rem_pio2+0xd8>
800074b0:	800007b7          	lui	a5,0x80000
800074b4:	0127c933          	xor	s2,a5,s2
800074b8:	01242223          	sw	s2,4(s0)
800074bc:	00b7c7b3          	xor	a5,a5,a1
800074c0:	00f42623          	sw	a5,12(s0)
800074c4:	409004b3          	neg	s1,s1
800074c8:	d8dff06f          	j	80007254 <__ieee754_rem_pio2+0xd8>
800074cc:	9081a603          	lw	a2,-1784(gp) # 8000a358 <_ZL15forceduartflush+0xf0>
800074d0:	90c1a683          	lw	a3,-1780(gp) # 8000a35c <_ZL15forceduartflush+0xf4>
800074d4:	000c0513          	mv	a0,s8
800074d8:	000b8593          	mv	a1,s7
800074dc:	ed1f90ef          	jal	ra,800013ac <__muldf3>
800074e0:	00050a13          	mv	s4,a0
800074e4:	00058993          	mv	s3,a1
800074e8:	00050613          	mv	a2,a0
800074ec:	00058693          	mv	a3,a1
800074f0:	000b0513          	mv	a0,s6
800074f4:	000a8593          	mv	a1,s5
800074f8:	d80fa0ef          	jal	ra,80001a78 <__subdf3>
800074fc:	00050613          	mv	a2,a0
80007500:	00058693          	mv	a3,a1
80007504:	00050d93          	mv	s11,a0
80007508:	00058d13          	mv	s10,a1
8000750c:	000b0513          	mv	a0,s6
80007510:	000a8593          	mv	a1,s5
80007514:	d64fa0ef          	jal	ra,80001a78 <__subdf3>
80007518:	000a0613          	mv	a2,s4
8000751c:	00098693          	mv	a3,s3
80007520:	d58fa0ef          	jal	ra,80001a78 <__subdf3>
80007524:	9101a603          	lw	a2,-1776(gp) # 8000a360 <_ZL15forceduartflush+0xf8>
80007528:	9141a683          	lw	a3,-1772(gp) # 8000a364 <_ZL15forceduartflush+0xfc>
8000752c:	00050a13          	mv	s4,a0
80007530:	00058993          	mv	s3,a1
80007534:	000c0513          	mv	a0,s8
80007538:	000b8593          	mv	a1,s7
8000753c:	e71f90ef          	jal	ra,800013ac <__muldf3>
80007540:	000a0613          	mv	a2,s4
80007544:	00098693          	mv	a3,s3
80007548:	d30fa0ef          	jal	ra,80001a78 <__subdf3>
8000754c:	00050613          	mv	a2,a0
80007550:	00058693          	mv	a3,a1
80007554:	00050a13          	mv	s4,a0
80007558:	00058993          	mv	s3,a1
8000755c:	000d8513          	mv	a0,s11
80007560:	000d0593          	mv	a1,s10
80007564:	d14fa0ef          	jal	ra,80001a78 <__subdf3>
80007568:	0145d793          	srli	a5,a1,0x14
8000756c:	7ff7f793          	andi	a5,a5,2047
80007570:	40f90933          	sub	s2,s2,a5
80007574:	03100793          	li	a5,49
80007578:	0127cc63          	blt	a5,s2,80007590 <__ieee754_rem_pio2+0x414>
8000757c:	00a42023          	sw	a0,0(s0)
80007580:	00b42223          	sw	a1,4(s0)
80007584:	000d8b13          	mv	s6,s11
80007588:	000d0a93          	mv	s5,s10
8000758c:	ef1ff06f          	j	8000747c <__ieee754_rem_pio2+0x300>
80007590:	9201a603          	lw	a2,-1760(gp) # 8000a370 <_ZL15forceduartflush+0x108>
80007594:	9241a683          	lw	a3,-1756(gp) # 8000a374 <_ZL15forceduartflush+0x10c>
80007598:	000c0513          	mv	a0,s8
8000759c:	000b8593          	mv	a1,s7
800075a0:	e0df90ef          	jal	ra,800013ac <__muldf3>
800075a4:	00050993          	mv	s3,a0
800075a8:	00058913          	mv	s2,a1
800075ac:	00050613          	mv	a2,a0
800075b0:	00058693          	mv	a3,a1
800075b4:	000d8513          	mv	a0,s11
800075b8:	000d0593          	mv	a1,s10
800075bc:	cbcfa0ef          	jal	ra,80001a78 <__subdf3>
800075c0:	00050613          	mv	a2,a0
800075c4:	00058693          	mv	a3,a1
800075c8:	00050b13          	mv	s6,a0
800075cc:	00058a93          	mv	s5,a1
800075d0:	000d8513          	mv	a0,s11
800075d4:	000d0593          	mv	a1,s10
800075d8:	ca0fa0ef          	jal	ra,80001a78 <__subdf3>
800075dc:	00098613          	mv	a2,s3
800075e0:	00090693          	mv	a3,s2
800075e4:	c94fa0ef          	jal	ra,80001a78 <__subdf3>
800075e8:	9281a603          	lw	a2,-1752(gp) # 8000a378 <_ZL15forceduartflush+0x110>
800075ec:	92c1a683          	lw	a3,-1748(gp) # 8000a37c <_ZL15forceduartflush+0x114>
800075f0:	00050993          	mv	s3,a0
800075f4:	00058913          	mv	s2,a1
800075f8:	000c0513          	mv	a0,s8
800075fc:	000b8593          	mv	a1,s7
80007600:	dadf90ef          	jal	ra,800013ac <__muldf3>
80007604:	00098613          	mv	a2,s3
80007608:	00090693          	mv	a3,s2
8000760c:	c6cfa0ef          	jal	ra,80001a78 <__subdf3>
80007610:	00050a13          	mv	s4,a0
80007614:	00058993          	mv	s3,a1
80007618:	00050613          	mv	a2,a0
8000761c:	00058693          	mv	a3,a1
80007620:	000b0513          	mv	a0,s6
80007624:	000a8593          	mv	a1,s5
80007628:	e21ff06f          	j	80007448 <__ieee754_rem_pio2+0x2cc>
8000762c:	7ff006b7          	lui	a3,0x7ff00
80007630:	02d94263          	blt	s2,a3,80007654 <__ieee754_rem_pio2+0x4d8>
80007634:	00050613          	mv	a2,a0
80007638:	00058693          	mv	a3,a1
8000763c:	c3cfa0ef          	jal	ra,80001a78 <__subdf3>
80007640:	00a42423          	sw	a0,8(s0)
80007644:	00b42623          	sw	a1,12(s0)
80007648:	00a42023          	sw	a0,0(s0)
8000764c:	00b42223          	sw	a1,4(s0)
80007650:	b8dff06f          	j	800071dc <__ieee754_rem_pio2+0x60>
80007654:	41495493          	srai	s1,s2,0x14
80007658:	bea48493          	addi	s1,s1,-1046
8000765c:	01449713          	slli	a4,s1,0x14
80007660:	40e909b3          	sub	s3,s2,a4
80007664:	00098593          	mv	a1,s3
80007668:	00050a13          	mv	s4,a0
8000766c:	bfdfa0ef          	jal	ra,80002268 <__fixdfsi>
80007670:	c79fa0ef          	jal	ra,800022e8 <__floatsidf>
80007674:	00050613          	mv	a2,a0
80007678:	00058693          	mv	a3,a1
8000767c:	00a12423          	sw	a0,8(sp)
80007680:	00b12623          	sw	a1,12(sp)
80007684:	000a0513          	mv	a0,s4
80007688:	00098593          	mv	a1,s3
8000768c:	becfa0ef          	jal	ra,80001a78 <__subdf3>
80007690:	9301a603          	lw	a2,-1744(gp) # 8000a380 <_ZL15forceduartflush+0x118>
80007694:	9341a683          	lw	a3,-1740(gp) # 8000a384 <_ZL15forceduartflush+0x11c>
80007698:	d15f90ef          	jal	ra,800013ac <__muldf3>
8000769c:	00058913          	mv	s2,a1
800076a0:	00050993          	mv	s3,a0
800076a4:	bc5fa0ef          	jal	ra,80002268 <__fixdfsi>
800076a8:	c41fa0ef          	jal	ra,800022e8 <__floatsidf>
800076ac:	00050613          	mv	a2,a0
800076b0:	00058693          	mv	a3,a1
800076b4:	00a12823          	sw	a0,16(sp)
800076b8:	00b12a23          	sw	a1,20(sp)
800076bc:	00098513          	mv	a0,s3
800076c0:	00090593          	mv	a1,s2
800076c4:	bb4fa0ef          	jal	ra,80001a78 <__subdf3>
800076c8:	9301a603          	lw	a2,-1744(gp) # 8000a380 <_ZL15forceduartflush+0x118>
800076cc:	9341a683          	lw	a3,-1740(gp) # 8000a384 <_ZL15forceduartflush+0x11c>
800076d0:	00810913          	addi	s2,sp,8
800076d4:	00300993          	li	s3,3
800076d8:	cd5f90ef          	jal	ra,800013ac <__muldf3>
800076dc:	00a12c23          	sw	a0,24(sp)
800076e0:	00b12e23          	sw	a1,28(sp)
800076e4:	00090a13          	mv	s4,s2
800076e8:	01092503          	lw	a0,16(s2)
800076ec:	01492583          	lw	a1,20(s2)
800076f0:	00000613          	li	a2,0
800076f4:	00000693          	li	a3,0
800076f8:	ff890913          	addi	s2,s2,-8
800076fc:	00098a93          	mv	s5,s3
80007700:	fff98993          	addi	s3,s3,-1
80007704:	9a8fc0ef          	jal	ra,800038ac <__eqdf2>
80007708:	fe0500e3          	beqz	a0,800076e8 <__ieee754_rem_pio2+0x56c>
8000770c:	8000a7b7          	lui	a5,0x8000a
80007710:	00048613          	mv	a2,s1
80007714:	94c78793          	addi	a5,a5,-1716 # 8000994c <__global_pointer$+0xffffeefc>
80007718:	00200713          	li	a4,2
8000771c:	000a8693          	mv	a3,s5
80007720:	00040593          	mv	a1,s0
80007724:	000a0513          	mv	a0,s4
80007728:	311000ef          	jal	ra,80008238 <__kernel_rem_pio2>
8000772c:	00050493          	mv	s1,a0
80007730:	b20cd2e3          	bgez	s9,80007254 <__ieee754_rem_pio2+0xd8>
80007734:	00442603          	lw	a2,4(s0)
80007738:	800006b7          	lui	a3,0x80000
8000773c:	00d647b3          	xor	a5,a2,a3
80007740:	00c42603          	lw	a2,12(s0)
80007744:	00f42223          	sw	a5,4(s0)
80007748:	00d647b3          	xor	a5,a2,a3
8000774c:	d75ff06f          	j	800074c0 <__ieee754_rem_pio2+0x344>

80007750 <__ieee754_powf>:
80007750:	fb010113          	addi	sp,sp,-80
80007754:	04812423          	sw	s0,72(sp)
80007758:	80000437          	lui	s0,0x80000
8000775c:	fff44413          	not	s0,s0
80007760:	05212023          	sw	s2,64(sp)
80007764:	03312e23          	sw	s3,60(sp)
80007768:	03612823          	sw	s6,48(sp)
8000776c:	04112623          	sw	ra,76(sp)
80007770:	04912223          	sw	s1,68(sp)
80007774:	03412c23          	sw	s4,56(sp)
80007778:	03512a23          	sw	s5,52(sp)
8000777c:	03712623          	sw	s7,44(sp)
80007780:	03812423          	sw	s8,40(sp)
80007784:	03912223          	sw	s9,36(sp)
80007788:	03a12023          	sw	s10,32(sp)
8000778c:	01b12e23          	sw	s11,28(sp)
80007790:	00b479b3          	and	s3,s0,a1
80007794:	00050b13          	mv	s6,a0
80007798:	00058913          	mv	s2,a1
8000779c:	02099663          	bnez	s3,800077c8 <__ieee754_powf+0x78>
800077a0:	004007b7          	lui	a5,0x400
800077a4:	00a7c7b3          	xor	a5,a5,a0
800077a8:	00179793          	slli	a5,a5,0x1
800077ac:	ff800737          	lui	a4,0xff800
800077b0:	14f77ee3          	bgeu	a4,a5,8000810c <__ieee754_powf+0x9bc>
800077b4:	00090593          	mv	a1,s2
800077b8:	000b0513          	mv	a0,s6
800077bc:	bd5fa0ef          	jal	ra,80002390 <__addsf3>
800077c0:	00050593          	mv	a1,a0
800077c4:	0ac0006f          	j	80007870 <__ieee754_powf+0x120>
800077c8:	00a47433          	and	s0,s0,a0
800077cc:	7f8007b7          	lui	a5,0x7f800
800077d0:	00050a93          	mv	s5,a0
800077d4:	fe87c0e3          	blt	a5,s0,800077b4 <__ieee754_powf+0x64>
800077d8:	0137dc63          	bge	a5,s3,800077f0 <__ieee754_powf+0xa0>
800077dc:	3f8007b7          	lui	a5,0x3f800
800077e0:	fcf51ae3          	bne	a0,a5,800077b4 <__ieee754_powf+0x64>
800077e4:	004007b7          	lui	a5,0x400
800077e8:	00b7c7b3          	xor	a5,a5,a1
800077ec:	fbdff06f          	j	800077a8 <__ieee754_powf+0x58>
800077f0:	00058a13          	mv	s4,a1
800077f4:	00000493          	li	s1,0
800077f8:	04055c63          	bgez	a0,80007850 <__ieee754_powf+0x100>
800077fc:	4b8007b7          	lui	a5,0x4b800
80007800:	04f9d663          	bge	s3,a5,8000784c <__ieee754_powf+0xfc>
80007804:	3f8007b7          	lui	a5,0x3f800
80007808:	02f9c463          	blt	s3,a5,80007830 <__ieee754_powf+0xe0>
8000780c:	4179d713          	srai	a4,s3,0x17
80007810:	09600793          	li	a5,150
80007814:	40e787b3          	sub	a5,a5,a4
80007818:	40f9d733          	sra	a4,s3,a5
8000781c:	00f717b3          	sll	a5,a4,a5
80007820:	01379863          	bne	a5,s3,80007830 <__ieee754_powf+0xe0>
80007824:	00177713          	andi	a4,a4,1
80007828:	00200493          	li	s1,2
8000782c:	40e484b3          	sub	s1,s1,a4
80007830:	3f8007b7          	lui	a5,0x3f800
80007834:	08f99663          	bne	s3,a5,800078c0 <__ieee754_powf+0x170>
80007838:	000b0593          	mv	a1,s6
8000783c:	020a5a63          	bgez	s4,80007870 <__ieee754_powf+0x120>
80007840:	81c1a503          	lw	a0,-2020(gp) # 8000a26c <_ZL15forceduartflush+0x4>
80007844:	fa1fa0ef          	jal	ra,800027e4 <__divsf3>
80007848:	f79ff06f          	j	800077c0 <__ieee754_powf+0x70>
8000784c:	00200493          	li	s1,2
80007850:	7f8007b7          	lui	a5,0x7f800
80007854:	fcf99ee3          	bne	s3,a5,80007830 <__ieee754_powf+0xe0>
80007858:	3f8007b7          	lui	a5,0x3f800
8000785c:	0af408e3          	beq	s0,a5,8000810c <__ieee754_powf+0x9bc>
80007860:	00000593          	li	a1,0
80007864:	0487d663          	bge	a5,s0,800078b0 <__ieee754_powf+0x160>
80007868:	000a4463          	bltz	s4,80007870 <__ieee754_powf+0x120>
8000786c:	00090593          	mv	a1,s2
80007870:	04c12083          	lw	ra,76(sp)
80007874:	04812403          	lw	s0,72(sp)
80007878:	04412483          	lw	s1,68(sp)
8000787c:	04012903          	lw	s2,64(sp)
80007880:	03c12983          	lw	s3,60(sp)
80007884:	03812a03          	lw	s4,56(sp)
80007888:	03412a83          	lw	s5,52(sp)
8000788c:	03012b03          	lw	s6,48(sp)
80007890:	02c12b83          	lw	s7,44(sp)
80007894:	02812c03          	lw	s8,40(sp)
80007898:	02412c83          	lw	s9,36(sp)
8000789c:	02012d03          	lw	s10,32(sp)
800078a0:	01c12d83          	lw	s11,28(sp)
800078a4:	00058513          	mv	a0,a1
800078a8:	05010113          	addi	sp,sp,80
800078ac:	00008067          	ret
800078b0:	fc0a50e3          	bgez	s4,80007870 <__ieee754_powf+0x120>
800078b4:	80000537          	lui	a0,0x80000
800078b8:	012545b3          	xor	a1,a0,s2
800078bc:	fb5ff06f          	j	80007870 <__ieee754_powf+0x120>
800078c0:	400007b7          	lui	a5,0x40000
800078c4:	00fa1a63          	bne	s4,a5,800078d8 <__ieee754_powf+0x188>
800078c8:	000b0593          	mv	a1,s6
800078cc:	000b0513          	mv	a0,s6
800078d0:	c10fb0ef          	jal	ra,80002ce0 <__mulsf3>
800078d4:	eedff06f          	j	800077c0 <__ieee754_powf+0x70>
800078d8:	3f0007b7          	lui	a5,0x3f000
800078dc:	000b0513          	mv	a0,s6
800078e0:	04fa1263          	bne	s4,a5,80007924 <__ieee754_powf+0x1d4>
800078e4:	040ac063          	bltz	s5,80007924 <__ieee754_powf+0x1d4>
800078e8:	04812403          	lw	s0,72(sp)
800078ec:	04c12083          	lw	ra,76(sp)
800078f0:	04412483          	lw	s1,68(sp)
800078f4:	04012903          	lw	s2,64(sp)
800078f8:	03c12983          	lw	s3,60(sp)
800078fc:	03812a03          	lw	s4,56(sp)
80007900:	03412a83          	lw	s5,52(sp)
80007904:	03012b03          	lw	s6,48(sp)
80007908:	02c12b83          	lw	s7,44(sp)
8000790c:	02812c03          	lw	s8,40(sp)
80007910:	02412c83          	lw	s9,36(sp)
80007914:	02012d03          	lw	s10,32(sp)
80007918:	01c12d83          	lw	s11,28(sp)
8000791c:	05010113          	addi	sp,sp,80
80007920:	7f40006f          	j	80008114 <__ieee754_sqrtf>
80007924:	4b9010ef          	jal	ra,800095dc <fabsf>
80007928:	00050593          	mv	a1,a0
8000792c:	00040a63          	beqz	s0,80007940 <__ieee754_powf+0x1f0>
80007930:	002b1713          	slli	a4,s6,0x2
80007934:	00275713          	srli	a4,a4,0x2
80007938:	3f8007b7          	lui	a5,0x3f800
8000793c:	04f71663          	bne	a4,a5,80007988 <__ieee754_powf+0x238>
80007940:	000a5863          	bgez	s4,80007950 <__ieee754_powf+0x200>
80007944:	81c1a503          	lw	a0,-2020(gp) # 8000a26c <_ZL15forceduartflush+0x4>
80007948:	e9dfa0ef          	jal	ra,800027e4 <__divsf3>
8000794c:	00050593          	mv	a1,a0
80007950:	f20ad0e3          	bgez	s5,80007870 <__ieee754_powf+0x120>
80007954:	c08007b7          	lui	a5,0xc0800
80007958:	00f407b3          	add	a5,s0,a5
8000795c:	0097e7b3          	or	a5,a5,s1
80007960:	00079a63          	bnez	a5,80007974 <__ieee754_powf+0x224>
80007964:	00058513          	mv	a0,a1
80007968:	ef0fb0ef          	jal	ra,80003058 <__subsf3>
8000796c:	00050593          	mv	a1,a0
80007970:	ed5ff06f          	j	80007844 <__ieee754_powf+0xf4>
80007974:	00100793          	li	a5,1
80007978:	eef49ce3          	bne	s1,a5,80007870 <__ieee754_powf+0x120>
8000797c:	800007b7          	lui	a5,0x80000
80007980:	00b7c5b3          	xor	a1,a5,a1
80007984:	eedff06f          	j	80007870 <__ieee754_powf+0x120>
80007988:	01fb5a93          	srli	s5,s6,0x1f
8000798c:	fffa8713          	addi	a4,s5,-1
80007990:	00e12423          	sw	a4,8(sp)
80007994:	00e4e733          	or	a4,s1,a4
80007998:	00071663          	bnez	a4,800079a4 <__ieee754_powf+0x254>
8000799c:	000b0593          	mv	a1,s6
800079a0:	fc5ff06f          	j	80007964 <__ieee754_powf+0x214>
800079a4:	4d000737          	lui	a4,0x4d000
800079a8:	1f375a63          	bge	a4,s3,80007b9c <__ieee754_powf+0x44c>
800079ac:	ff378713          	addi	a4,a5,-13 # 7ffffff3 <__global_pointer$+0xffff55a3>
800079b0:	04874463          	blt	a4,s0,800079f8 <__ieee754_powf+0x2a8>
800079b4:	040a5863          	bgez	s4,80007a04 <__ieee754_powf+0x2b4>
800079b8:	00000513          	li	a0,0
800079bc:	04812403          	lw	s0,72(sp)
800079c0:	04c12083          	lw	ra,76(sp)
800079c4:	04412483          	lw	s1,68(sp)
800079c8:	04012903          	lw	s2,64(sp)
800079cc:	03c12983          	lw	s3,60(sp)
800079d0:	03812a03          	lw	s4,56(sp)
800079d4:	03412a83          	lw	s5,52(sp)
800079d8:	03012b03          	lw	s6,48(sp)
800079dc:	02c12b83          	lw	s7,44(sp)
800079e0:	02812c03          	lw	s8,40(sp)
800079e4:	02412c83          	lw	s9,36(sp)
800079e8:	02012d03          	lw	s10,32(sp)
800079ec:	01c12d83          	lw	s11,28(sp)
800079f0:	05010113          	addi	sp,sp,80
800079f4:	0f90106f          	j	800092ec <__math_oflowf>
800079f8:	00778793          	addi	a5,a5,7
800079fc:	0487d463          	bge	a5,s0,80007a44 <__ieee754_powf+0x2f4>
80007a00:	fb404ce3          	bgtz	s4,800079b8 <__ieee754_powf+0x268>
80007a04:	00000513          	li	a0,0
80007a08:	04812403          	lw	s0,72(sp)
80007a0c:	04c12083          	lw	ra,76(sp)
80007a10:	04412483          	lw	s1,68(sp)
80007a14:	04012903          	lw	s2,64(sp)
80007a18:	03c12983          	lw	s3,60(sp)
80007a1c:	03812a03          	lw	s4,56(sp)
80007a20:	03412a83          	lw	s5,52(sp)
80007a24:	03012b03          	lw	s6,48(sp)
80007a28:	02c12b83          	lw	s7,44(sp)
80007a2c:	02812c03          	lw	s8,40(sp)
80007a30:	02412c83          	lw	s9,36(sp)
80007a34:	02012d03          	lw	s10,32(sp)
80007a38:	01c12d83          	lw	s11,28(sp)
80007a3c:	05010113          	addi	sp,sp,80
80007a40:	0a50106f          	j	800092e4 <__math_uflowf>
80007a44:	81c1a583          	lw	a1,-2020(gp) # 8000a26c <_ZL15forceduartflush+0x4>
80007a48:	e10fb0ef          	jal	ra,80003058 <__subsf3>
80007a4c:	9381a583          	lw	a1,-1736(gp) # 8000a388 <_ZL15forceduartflush+0x120>
80007a50:	00050413          	mv	s0,a0
80007a54:	a8cfb0ef          	jal	ra,80002ce0 <__mulsf3>
80007a58:	93c1a583          	lw	a1,-1732(gp) # 8000a38c <_ZL15forceduartflush+0x124>
80007a5c:	00050a13          	mv	s4,a0
80007a60:	00040513          	mv	a0,s0
80007a64:	a7cfb0ef          	jal	ra,80002ce0 <__mulsf3>
80007a68:	9401a583          	lw	a1,-1728(gp) # 8000a390 <_ZL15forceduartflush+0x128>
80007a6c:	00050993          	mv	s3,a0
80007a70:	00040513          	mv	a0,s0
80007a74:	a6cfb0ef          	jal	ra,80002ce0 <__mulsf3>
80007a78:	00050593          	mv	a1,a0
80007a7c:	9441a503          	lw	a0,-1724(gp) # 8000a394 <_ZL15forceduartflush+0x12c>
80007a80:	dd8fb0ef          	jal	ra,80003058 <__subsf3>
80007a84:	00040593          	mv	a1,s0
80007a88:	a58fb0ef          	jal	ra,80002ce0 <__mulsf3>
80007a8c:	00050593          	mv	a1,a0
80007a90:	87c1a503          	lw	a0,-1924(gp) # 8000a2cc <_ZL15forceduartflush+0x64>
80007a94:	dc4fb0ef          	jal	ra,80003058 <__subsf3>
80007a98:	00040593          	mv	a1,s0
80007a9c:	00050b13          	mv	s6,a0
80007aa0:	00040513          	mv	a0,s0
80007aa4:	a3cfb0ef          	jal	ra,80002ce0 <__mulsf3>
80007aa8:	00050593          	mv	a1,a0
80007aac:	000b0513          	mv	a0,s6
80007ab0:	a30fb0ef          	jal	ra,80002ce0 <__mulsf3>
80007ab4:	9481a583          	lw	a1,-1720(gp) # 8000a398 <_ZL15forceduartflush+0x130>
80007ab8:	a28fb0ef          	jal	ra,80002ce0 <__mulsf3>
80007abc:	00050593          	mv	a1,a0
80007ac0:	00098513          	mv	a0,s3
80007ac4:	d94fb0ef          	jal	ra,80003058 <__subsf3>
80007ac8:	00050593          	mv	a1,a0
80007acc:	00050413          	mv	s0,a0
80007ad0:	000a0513          	mv	a0,s4
80007ad4:	8bdfa0ef          	jal	ra,80002390 <__addsf3>
80007ad8:	fffff7b7          	lui	a5,0xfffff
80007adc:	00a7f533          	and	a0,a5,a0
80007ae0:	000a0593          	mv	a1,s4
80007ae4:	00050993          	mv	s3,a0
80007ae8:	d70fb0ef          	jal	ra,80003058 <__subsf3>
80007aec:	00050593          	mv	a1,a0
80007af0:	00040513          	mv	a0,s0
80007af4:	d64fb0ef          	jal	ra,80003058 <__subsf3>
80007af8:	00812783          	lw	a5,8(sp)
80007afc:	fff48493          	addi	s1,s1,-1
80007b00:	00050413          	mv	s0,a0
80007b04:	00f4e4b3          	or	s1,s1,a5
80007b08:	3a049863          	bnez	s1,80007eb8 <__ieee754_powf+0x768>
80007b0c:	8241a483          	lw	s1,-2012(gp) # 8000a274 <_ZL15forceduartflush+0xc>
80007b10:	fffffa37          	lui	s4,0xfffff
80007b14:	012a7a33          	and	s4,s4,s2
80007b18:	000a0593          	mv	a1,s4
80007b1c:	00090513          	mv	a0,s2
80007b20:	d38fb0ef          	jal	ra,80003058 <__subsf3>
80007b24:	00098593          	mv	a1,s3
80007b28:	9b8fb0ef          	jal	ra,80002ce0 <__mulsf3>
80007b2c:	00050a93          	mv	s5,a0
80007b30:	00090593          	mv	a1,s2
80007b34:	00040513          	mv	a0,s0
80007b38:	9a8fb0ef          	jal	ra,80002ce0 <__mulsf3>
80007b3c:	00050593          	mv	a1,a0
80007b40:	000a8513          	mv	a0,s5
80007b44:	84dfa0ef          	jal	ra,80002390 <__addsf3>
80007b48:	000a0593          	mv	a1,s4
80007b4c:	00050913          	mv	s2,a0
80007b50:	00098513          	mv	a0,s3
80007b54:	98cfb0ef          	jal	ra,80002ce0 <__mulsf3>
80007b58:	00050593          	mv	a1,a0
80007b5c:	00050993          	mv	s3,a0
80007b60:	00050a93          	mv	s5,a0
80007b64:	00090513          	mv	a0,s2
80007b68:	829fa0ef          	jal	ra,80002390 <__addsf3>
80007b6c:	00151413          	slli	s0,a0,0x1
80007b70:	00050b93          	mv	s7,a0
80007b74:	00050a13          	mv	s4,a0
80007b78:	00145413          	srli	s0,s0,0x1
80007b7c:	3ca05863          	blez	a0,80007f4c <__ieee754_powf+0x7fc>
80007b80:	430007b7          	lui	a5,0x43000
80007b84:	3287de63          	bge	a5,s0,80007ec0 <__ieee754_powf+0x770>
80007b88:	00000593          	li	a1,0
80007b8c:	00048513          	mv	a0,s1
80007b90:	898fb0ef          	jal	ra,80002c28 <__lesf2>
80007b94:	00052513          	slti	a0,a0,0
80007b98:	e25ff06f          	j	800079bc <__ieee754_powf+0x26c>
80007b9c:	7f8007b7          	lui	a5,0x7f800
80007ba0:	0167f7b3          	and	a5,a5,s6
80007ba4:	00000713          	li	a4,0
80007ba8:	00079a63          	bnez	a5,80007bbc <__ieee754_powf+0x46c>
80007bac:	94c1a583          	lw	a1,-1716(gp) # 8000a39c <_ZL15forceduartflush+0x134>
80007bb0:	930fb0ef          	jal	ra,80002ce0 <__mulsf3>
80007bb4:	00050413          	mv	s0,a0
80007bb8:	fe800713          	li	a4,-24
80007bbc:	41745a13          	srai	s4,s0,0x17
80007bc0:	f81a0a13          	addi	s4,s4,-127 # ffffef81 <__global_pointer$+0x7fff4531>
80007bc4:	00ea0a33          	add	s4,s4,a4
80007bc8:	00800737          	lui	a4,0x800
80007bcc:	fff70793          	addi	a5,a4,-1 # 7fffff <_start-0x7f800001>
80007bd0:	00f47433          	and	s0,s0,a5
80007bd4:	001cc7b7          	lui	a5,0x1cc
80007bd8:	3f800db7          	lui	s11,0x3f800
80007bdc:	47178793          	addi	a5,a5,1137 # 1cc471 <_start-0x7fe33b8f>
80007be0:	01b46db3          	or	s11,s0,s11
80007be4:	00000b93          	li	s7,0
80007be8:	0287d063          	bge	a5,s0,80007c08 <__ieee754_powf+0x4b8>
80007bec:	005db7b7          	lui	a5,0x5db
80007bf0:	3d678793          	addi	a5,a5,982 # 5db3d6 <_start-0x7fa24c2a>
80007bf4:	00100b93          	li	s7,1
80007bf8:	0087d863          	bge	a5,s0,80007c08 <__ieee754_powf+0x4b8>
80007bfc:	001a0a13          	addi	s4,s4,1
80007c00:	40ed8db3          	sub	s11,s11,a4
80007c04:	00000b93          	li	s7,0
80007c08:	002b9c93          	slli	s9,s7,0x2
80007c0c:	99418793          	addi	a5,gp,-1644 # 8000a3e4 <bp>
80007c10:	019787b3          	add	a5,a5,s9
80007c14:	0007ac03          	lw	s8,0(a5)
80007c18:	000d8513          	mv	a0,s11
80007c1c:	401dd413          	srai	s0,s11,0x1
80007c20:	000c0593          	mv	a1,s8
80007c24:	c34fb0ef          	jal	ra,80003058 <__subsf3>
80007c28:	000d8593          	mv	a1,s11
80007c2c:	00a12623          	sw	a0,12(sp)
80007c30:	000c0513          	mv	a0,s8
80007c34:	f5cfa0ef          	jal	ra,80002390 <__addsf3>
80007c38:	00050593          	mv	a1,a0
80007c3c:	81c1a503          	lw	a0,-2020(gp) # 8000a26c <_ZL15forceduartflush+0x4>
80007c40:	fffff9b7          	lui	s3,0xfffff
80007c44:	015b9b93          	slli	s7,s7,0x15
80007c48:	b9dfa0ef          	jal	ra,800027e4 <__divsf3>
80007c4c:	00050d13          	mv	s10,a0
80007c50:	00050593          	mv	a1,a0
80007c54:	00c12503          	lw	a0,12(sp)
80007c58:	888fb0ef          	jal	ra,80002ce0 <__mulsf3>
80007c5c:	200006b7          	lui	a3,0x20000
80007c60:	00d46433          	or	s0,s0,a3
80007c64:	000406b7          	lui	a3,0x40
80007c68:	00d40433          	add	s0,s0,a3
80007c6c:	00a9fb33          	and	s6,s3,a0
80007c70:	01740433          	add	s0,s0,s7
80007c74:	00050a93          	mv	s5,a0
80007c78:	00040593          	mv	a1,s0
80007c7c:	000b0513          	mv	a0,s6
80007c80:	860fb0ef          	jal	ra,80002ce0 <__mulsf3>
80007c84:	00050593          	mv	a1,a0
80007c88:	00c12503          	lw	a0,12(sp)
80007c8c:	bccfb0ef          	jal	ra,80003058 <__subsf3>
80007c90:	00050b93          	mv	s7,a0
80007c94:	000c0593          	mv	a1,s8
80007c98:	00040513          	mv	a0,s0
80007c9c:	bbcfb0ef          	jal	ra,80003058 <__subsf3>
80007ca0:	00050593          	mv	a1,a0
80007ca4:	000d8513          	mv	a0,s11
80007ca8:	bb0fb0ef          	jal	ra,80003058 <__subsf3>
80007cac:	000b0593          	mv	a1,s6
80007cb0:	830fb0ef          	jal	ra,80002ce0 <__mulsf3>
80007cb4:	00050593          	mv	a1,a0
80007cb8:	000b8513          	mv	a0,s7
80007cbc:	b9cfb0ef          	jal	ra,80003058 <__subsf3>
80007cc0:	000d0593          	mv	a1,s10
80007cc4:	81cfb0ef          	jal	ra,80002ce0 <__mulsf3>
80007cc8:	00050b93          	mv	s7,a0
80007ccc:	000a8593          	mv	a1,s5
80007cd0:	000a8513          	mv	a0,s5
80007cd4:	80cfb0ef          	jal	ra,80002ce0 <__mulsf3>
80007cd8:	9501a583          	lw	a1,-1712(gp) # 8000a3a0 <_ZL15forceduartflush+0x138>
80007cdc:	00050413          	mv	s0,a0
80007ce0:	800fb0ef          	jal	ra,80002ce0 <__mulsf3>
80007ce4:	9541a583          	lw	a1,-1708(gp) # 8000a3a4 <_ZL15forceduartflush+0x13c>
80007ce8:	ea8fa0ef          	jal	ra,80002390 <__addsf3>
80007cec:	00040593          	mv	a1,s0
80007cf0:	ff1fa0ef          	jal	ra,80002ce0 <__mulsf3>
80007cf4:	9581a583          	lw	a1,-1704(gp) # 8000a3a8 <_ZL15forceduartflush+0x140>
80007cf8:	e98fa0ef          	jal	ra,80002390 <__addsf3>
80007cfc:	00040593          	mv	a1,s0
80007d00:	fe1fa0ef          	jal	ra,80002ce0 <__mulsf3>
80007d04:	9441a583          	lw	a1,-1724(gp) # 8000a394 <_ZL15forceduartflush+0x12c>
80007d08:	e88fa0ef          	jal	ra,80002390 <__addsf3>
80007d0c:	00040593          	mv	a1,s0
80007d10:	fd1fa0ef          	jal	ra,80002ce0 <__mulsf3>
80007d14:	95c1a583          	lw	a1,-1700(gp) # 8000a3ac <_ZL15forceduartflush+0x144>
80007d18:	e78fa0ef          	jal	ra,80002390 <__addsf3>
80007d1c:	00040593          	mv	a1,s0
80007d20:	fc1fa0ef          	jal	ra,80002ce0 <__mulsf3>
80007d24:	8641a583          	lw	a1,-1948(gp) # 8000a2b4 <_ZL15forceduartflush+0x4c>
80007d28:	e68fa0ef          	jal	ra,80002390 <__addsf3>
80007d2c:	00050c13          	mv	s8,a0
80007d30:	00040593          	mv	a1,s0
80007d34:	00040513          	mv	a0,s0
80007d38:	fa9fa0ef          	jal	ra,80002ce0 <__mulsf3>
80007d3c:	00050593          	mv	a1,a0
80007d40:	000c0513          	mv	a0,s8
80007d44:	f9dfa0ef          	jal	ra,80002ce0 <__mulsf3>
80007d48:	00050413          	mv	s0,a0
80007d4c:	000b0593          	mv	a1,s6
80007d50:	000a8513          	mv	a0,s5
80007d54:	e3cfa0ef          	jal	ra,80002390 <__addsf3>
80007d58:	000b8593          	mv	a1,s7
80007d5c:	f85fa0ef          	jal	ra,80002ce0 <__mulsf3>
80007d60:	00040593          	mv	a1,s0
80007d64:	e2cfa0ef          	jal	ra,80002390 <__addsf3>
80007d68:	00050d13          	mv	s10,a0
80007d6c:	000b0593          	mv	a1,s6
80007d70:	000b0513          	mv	a0,s6
80007d74:	f6dfa0ef          	jal	ra,80002ce0 <__mulsf3>
80007d78:	8901a583          	lw	a1,-1904(gp) # 8000a2e0 <_ZL15forceduartflush+0x78>
80007d7c:	00050d93          	mv	s11,a0
80007d80:	e10fa0ef          	jal	ra,80002390 <__addsf3>
80007d84:	000d0593          	mv	a1,s10
80007d88:	e08fa0ef          	jal	ra,80002390 <__addsf3>
80007d8c:	00a9f433          	and	s0,s3,a0
80007d90:	00040593          	mv	a1,s0
80007d94:	000b0513          	mv	a0,s6
80007d98:	f49fa0ef          	jal	ra,80002ce0 <__mulsf3>
80007d9c:	8901a583          	lw	a1,-1904(gp) # 8000a2e0 <_ZL15forceduartflush+0x78>
80007da0:	00050c13          	mv	s8,a0
80007da4:	00040513          	mv	a0,s0
80007da8:	ab0fb0ef          	jal	ra,80003058 <__subsf3>
80007dac:	000d8593          	mv	a1,s11
80007db0:	aa8fb0ef          	jal	ra,80003058 <__subsf3>
80007db4:	00050593          	mv	a1,a0
80007db8:	000d0513          	mv	a0,s10
80007dbc:	a9cfb0ef          	jal	ra,80003058 <__subsf3>
80007dc0:	000a8593          	mv	a1,s5
80007dc4:	f1dfa0ef          	jal	ra,80002ce0 <__mulsf3>
80007dc8:	00050b13          	mv	s6,a0
80007dcc:	00040593          	mv	a1,s0
80007dd0:	000b8513          	mv	a0,s7
80007dd4:	f0dfa0ef          	jal	ra,80002ce0 <__mulsf3>
80007dd8:	00050593          	mv	a1,a0
80007ddc:	000b0513          	mv	a0,s6
80007de0:	db0fa0ef          	jal	ra,80002390 <__addsf3>
80007de4:	00050b93          	mv	s7,a0
80007de8:	00050593          	mv	a1,a0
80007dec:	000c0513          	mv	a0,s8
80007df0:	da0fa0ef          	jal	ra,80002390 <__addsf3>
80007df4:	9601a583          	lw	a1,-1696(gp) # 8000a3b0 <_ZL15forceduartflush+0x148>
80007df8:	00a9fb33          	and	s6,s3,a0
80007dfc:	000b0513          	mv	a0,s6
80007e00:	ee1fa0ef          	jal	ra,80002ce0 <__mulsf3>
80007e04:	00050413          	mv	s0,a0
80007e08:	000c0593          	mv	a1,s8
80007e0c:	000b0513          	mv	a0,s6
80007e10:	a48fb0ef          	jal	ra,80003058 <__subsf3>
80007e14:	00050593          	mv	a1,a0
80007e18:	000b8513          	mv	a0,s7
80007e1c:	a3cfb0ef          	jal	ra,80003058 <__subsf3>
80007e20:	9641a583          	lw	a1,-1692(gp) # 8000a3b4 <_ZL15forceduartflush+0x14c>
80007e24:	ebdfa0ef          	jal	ra,80002ce0 <__mulsf3>
80007e28:	9681a583          	lw	a1,-1688(gp) # 8000a3b8 <_ZL15forceduartflush+0x150>
80007e2c:	00050b93          	mv	s7,a0
80007e30:	000b0513          	mv	a0,s6
80007e34:	eadfa0ef          	jal	ra,80002ce0 <__mulsf3>
80007e38:	00050593          	mv	a1,a0
80007e3c:	000b8513          	mv	a0,s7
80007e40:	d50fa0ef          	jal	ra,80002390 <__addsf3>
80007e44:	9a418793          	addi	a5,gp,-1628 # 8000a3f4 <dp_l>
80007e48:	019787b3          	add	a5,a5,s9
80007e4c:	0007a583          	lw	a1,0(a5)
80007e50:	d40fa0ef          	jal	ra,80002390 <__addsf3>
80007e54:	00050b13          	mv	s6,a0
80007e58:	000a0513          	mv	a0,s4
80007e5c:	b89fb0ef          	jal	ra,800039e4 <__floatsisf>
80007e60:	99c18793          	addi	a5,gp,-1636 # 8000a3ec <dp_h>
80007e64:	019787b3          	add	a5,a5,s9
80007e68:	0007ab83          	lw	s7,0(a5)
80007e6c:	00050a13          	mv	s4,a0
80007e70:	000b0593          	mv	a1,s6
80007e74:	00040513          	mv	a0,s0
80007e78:	d18fa0ef          	jal	ra,80002390 <__addsf3>
80007e7c:	000b8593          	mv	a1,s7
80007e80:	d10fa0ef          	jal	ra,80002390 <__addsf3>
80007e84:	000a0593          	mv	a1,s4
80007e88:	d08fa0ef          	jal	ra,80002390 <__addsf3>
80007e8c:	00a9f533          	and	a0,s3,a0
80007e90:	000a0593          	mv	a1,s4
80007e94:	00050993          	mv	s3,a0
80007e98:	9c0fb0ef          	jal	ra,80003058 <__subsf3>
80007e9c:	000b8593          	mv	a1,s7
80007ea0:	9b8fb0ef          	jal	ra,80003058 <__subsf3>
80007ea4:	00040593          	mv	a1,s0
80007ea8:	9b0fb0ef          	jal	ra,80003058 <__subsf3>
80007eac:	00050593          	mv	a1,a0
80007eb0:	000b0513          	mv	a0,s6
80007eb4:	c41ff06f          	j	80007af4 <__ieee754_powf+0x3a4>
80007eb8:	81c1a483          	lw	s1,-2020(gp) # 8000a26c <_ZL15forceduartflush+0x4>
80007ebc:	c55ff06f          	j	80007b10 <__ieee754_powf+0x3c0>
80007ec0:	0cf41263          	bne	s0,a5,80007f84 <__ieee754_powf+0x834>
80007ec4:	96c1a583          	lw	a1,-1684(gp) # 8000a3bc <_ZL15forceduartflush+0x154>
80007ec8:	00090513          	mv	a0,s2
80007ecc:	cc4fa0ef          	jal	ra,80002390 <__addsf3>
80007ed0:	00050a93          	mv	s5,a0
80007ed4:	00098593          	mv	a1,s3
80007ed8:	000b8513          	mv	a0,s7
80007edc:	97cfb0ef          	jal	ra,80003058 <__subsf3>
80007ee0:	00050593          	mv	a1,a0
80007ee4:	000a8513          	mv	a0,s5
80007ee8:	c89fa0ef          	jal	ra,80002b70 <__gesf2>
80007eec:	c8a04ee3          	bgtz	a0,80007b88 <__ieee754_powf+0x438>
80007ef0:	41745413          	srai	s0,s0,0x17
80007ef4:	00800737          	lui	a4,0x800
80007ef8:	f8240413          	addi	s0,s0,-126 # 7fffff82 <__global_pointer$+0xffff5532>
80007efc:	40875433          	sra	s0,a4,s0
80007f00:	01740433          	add	s0,s0,s7
80007f04:	41745793          	srai	a5,s0,0x17
80007f08:	0ff7f793          	zext.b	a5,a5
80007f0c:	f8178793          	addi	a5,a5,-127
80007f10:	ff8005b7          	lui	a1,0xff800
80007f14:	40f5d5b3          	sra	a1,a1,a5
80007f18:	fff70693          	addi	a3,a4,-1 # 7fffff <_start-0x7f800001>
80007f1c:	0085f5b3          	and	a1,a1,s0
80007f20:	01700b13          	li	s6,23
80007f24:	00d47433          	and	s0,s0,a3
80007f28:	00e46433          	or	s0,s0,a4
80007f2c:	40fb0b33          	sub	s6,s6,a5
80007f30:	41645b33          	sra	s6,s0,s6
80007f34:	000a5463          	bgez	s4,80007f3c <__ieee754_powf+0x7ec>
80007f38:	41600b33          	neg	s6,s6
80007f3c:	00098513          	mv	a0,s3
80007f40:	918fb0ef          	jal	ra,80003058 <__subsf3>
80007f44:	00050a93          	mv	s5,a0
80007f48:	0480006f          	j	80007f90 <__ieee754_powf+0x840>
80007f4c:	431607b7          	lui	a5,0x43160
80007f50:	0087dc63          	bge	a5,s0,80007f68 <__ieee754_powf+0x818>
80007f54:	00000593          	li	a1,0
80007f58:	00048513          	mv	a0,s1
80007f5c:	ccdfa0ef          	jal	ra,80002c28 <__lesf2>
80007f60:	00052513          	slti	a0,a0,0
80007f64:	aa5ff06f          	j	80007a08 <__ieee754_powf+0x2b8>
80007f68:	00f41e63          	bne	s0,a5,80007f84 <__ieee754_powf+0x834>
80007f6c:	00098593          	mv	a1,s3
80007f70:	8e8fb0ef          	jal	ra,80003058 <__subsf3>
80007f74:	00090593          	mv	a1,s2
80007f78:	bf9fa0ef          	jal	ra,80002b70 <__gesf2>
80007f7c:	f6054ae3          	bltz	a0,80007ef0 <__ieee754_powf+0x7a0>
80007f80:	fd5ff06f          	j	80007f54 <__ieee754_powf+0x804>
80007f84:	3f0007b7          	lui	a5,0x3f000
80007f88:	00000b13          	li	s6,0
80007f8c:	f687c2e3          	blt	a5,s0,80007ef0 <__ieee754_powf+0x7a0>
80007f90:	00090593          	mv	a1,s2
80007f94:	000a8513          	mv	a0,s5
80007f98:	bf8fa0ef          	jal	ra,80002390 <__addsf3>
80007f9c:	9701a583          	lw	a1,-1680(gp) # 8000a3c0 <_ZL15forceduartflush+0x158>
80007fa0:	fffff437          	lui	s0,0xfffff
80007fa4:	00a47433          	and	s0,s0,a0
80007fa8:	00040513          	mv	a0,s0
80007fac:	d35fa0ef          	jal	ra,80002ce0 <__mulsf3>
80007fb0:	00050993          	mv	s3,a0
80007fb4:	000a8593          	mv	a1,s5
80007fb8:	00040513          	mv	a0,s0
80007fbc:	89cfb0ef          	jal	ra,80003058 <__subsf3>
80007fc0:	00050593          	mv	a1,a0
80007fc4:	00090513          	mv	a0,s2
80007fc8:	890fb0ef          	jal	ra,80003058 <__subsf3>
80007fcc:	9741a583          	lw	a1,-1676(gp) # 8000a3c4 <_ZL15forceduartflush+0x15c>
80007fd0:	d11fa0ef          	jal	ra,80002ce0 <__mulsf3>
80007fd4:	9781a583          	lw	a1,-1672(gp) # 8000a3c8 <_ZL15forceduartflush+0x160>
80007fd8:	00050913          	mv	s2,a0
80007fdc:	00040513          	mv	a0,s0
80007fe0:	d01fa0ef          	jal	ra,80002ce0 <__mulsf3>
80007fe4:	00050593          	mv	a1,a0
80007fe8:	00090513          	mv	a0,s2
80007fec:	ba4fa0ef          	jal	ra,80002390 <__addsf3>
80007ff0:	00050413          	mv	s0,a0
80007ff4:	00050593          	mv	a1,a0
80007ff8:	00098513          	mv	a0,s3
80007ffc:	b94fa0ef          	jal	ra,80002390 <__addsf3>
80008000:	00098593          	mv	a1,s3
80008004:	00050a13          	mv	s4,a0
80008008:	850fb0ef          	jal	ra,80003058 <__subsf3>
8000800c:	00050593          	mv	a1,a0
80008010:	00040513          	mv	a0,s0
80008014:	844fb0ef          	jal	ra,80003058 <__subsf3>
80008018:	00050913          	mv	s2,a0
8000801c:	000a0593          	mv	a1,s4
80008020:	000a0513          	mv	a0,s4
80008024:	cbdfa0ef          	jal	ra,80002ce0 <__mulsf3>
80008028:	97c1a583          	lw	a1,-1668(gp) # 8000a3cc <_ZL15forceduartflush+0x164>
8000802c:	00050413          	mv	s0,a0
80008030:	cb1fa0ef          	jal	ra,80002ce0 <__mulsf3>
80008034:	9801a583          	lw	a1,-1664(gp) # 8000a3d0 <_ZL15forceduartflush+0x168>
80008038:	820fb0ef          	jal	ra,80003058 <__subsf3>
8000803c:	00040593          	mv	a1,s0
80008040:	ca1fa0ef          	jal	ra,80002ce0 <__mulsf3>
80008044:	9841a583          	lw	a1,-1660(gp) # 8000a3d4 <_ZL15forceduartflush+0x16c>
80008048:	b48fa0ef          	jal	ra,80002390 <__addsf3>
8000804c:	00040593          	mv	a1,s0
80008050:	c91fa0ef          	jal	ra,80002ce0 <__mulsf3>
80008054:	9881a583          	lw	a1,-1656(gp) # 8000a3d8 <_ZL15forceduartflush+0x170>
80008058:	800fb0ef          	jal	ra,80003058 <__subsf3>
8000805c:	00040593          	mv	a1,s0
80008060:	c81fa0ef          	jal	ra,80002ce0 <__mulsf3>
80008064:	98c1a583          	lw	a1,-1652(gp) # 8000a3dc <_ZL15forceduartflush+0x174>
80008068:	b28fa0ef          	jal	ra,80002390 <__addsf3>
8000806c:	00040593          	mv	a1,s0
80008070:	c71fa0ef          	jal	ra,80002ce0 <__mulsf3>
80008074:	00050593          	mv	a1,a0
80008078:	000a0513          	mv	a0,s4
8000807c:	fddfa0ef          	jal	ra,80003058 <__subsf3>
80008080:	00050413          	mv	s0,a0
80008084:	00050593          	mv	a1,a0
80008088:	000a0513          	mv	a0,s4
8000808c:	c55fa0ef          	jal	ra,80002ce0 <__mulsf3>
80008090:	9901a583          	lw	a1,-1648(gp) # 8000a3e0 <_ZL15forceduartflush+0x178>
80008094:	00050993          	mv	s3,a0
80008098:	00040513          	mv	a0,s0
8000809c:	fbdfa0ef          	jal	ra,80003058 <__subsf3>
800080a0:	00050593          	mv	a1,a0
800080a4:	00098513          	mv	a0,s3
800080a8:	f3cfa0ef          	jal	ra,800027e4 <__divsf3>
800080ac:	00050413          	mv	s0,a0
800080b0:	00090593          	mv	a1,s2
800080b4:	000a0513          	mv	a0,s4
800080b8:	c29fa0ef          	jal	ra,80002ce0 <__mulsf3>
800080bc:	00090593          	mv	a1,s2
800080c0:	ad0fa0ef          	jal	ra,80002390 <__addsf3>
800080c4:	00050593          	mv	a1,a0
800080c8:	00040513          	mv	a0,s0
800080cc:	f8dfa0ef          	jal	ra,80003058 <__subsf3>
800080d0:	000a0593          	mv	a1,s4
800080d4:	f85fa0ef          	jal	ra,80003058 <__subsf3>
800080d8:	00050593          	mv	a1,a0
800080dc:	81c1a503          	lw	a0,-2020(gp) # 8000a26c <_ZL15forceduartflush+0x4>
800080e0:	f79fa0ef          	jal	ra,80003058 <__subsf3>
800080e4:	017b1793          	slli	a5,s6,0x17
800080e8:	00a787b3          	add	a5,a5,a0
800080ec:	4177d713          	srai	a4,a5,0x17
800080f0:	00e04863          	bgtz	a4,80008100 <__ieee754_powf+0x9b0>
800080f4:	000b0593          	mv	a1,s6
800080f8:	504010ef          	jal	ra,800095fc <scalbnf>
800080fc:	00050793          	mv	a5,a0
80008100:	00048593          	mv	a1,s1
80008104:	00078513          	mv	a0,a5
80008108:	fc8ff06f          	j	800078d0 <__ieee754_powf+0x180>
8000810c:	81c1a583          	lw	a1,-2020(gp) # 8000a26c <_ZL15forceduartflush+0x4>
80008110:	f60ff06f          	j	80007870 <__ieee754_powf+0x120>

80008114 <__ieee754_sqrtf>:
80008114:	ff010113          	addi	sp,sp,-16
80008118:	00151793          	slli	a5,a0,0x1
8000811c:	00812423          	sw	s0,8(sp)
80008120:	00112623          	sw	ra,12(sp)
80008124:	0017d793          	srli	a5,a5,0x1
80008128:	7f800737          	lui	a4,0x7f800
8000812c:	00050413          	mv	s0,a0
80008130:	02e7e863          	bltu	a5,a4,80008160 <__ieee754_sqrtf+0x4c>
80008134:	00050593          	mv	a1,a0
80008138:	ba9fa0ef          	jal	ra,80002ce0 <__mulsf3>
8000813c:	00050593          	mv	a1,a0
80008140:	00040513          	mv	a0,s0
80008144:	a4cfa0ef          	jal	ra,80002390 <__addsf3>
80008148:	00050413          	mv	s0,a0
8000814c:	00c12083          	lw	ra,12(sp)
80008150:	00040513          	mv	a0,s0
80008154:	00812403          	lw	s0,8(sp)
80008158:	01010113          	addi	sp,sp,16
8000815c:	00008067          	ret
80008160:	fe0786e3          	beqz	a5,8000814c <__ieee754_sqrtf+0x38>
80008164:	00050793          	mv	a5,a0
80008168:	00055c63          	bgez	a0,80008180 <__ieee754_sqrtf+0x6c>
8000816c:	00050593          	mv	a1,a0
80008170:	ee9fa0ef          	jal	ra,80003058 <__subsf3>
80008174:	00050593          	mv	a1,a0
80008178:	e6cfa0ef          	jal	ra,800027e4 <__divsf3>
8000817c:	fcdff06f          	j	80008148 <__ieee754_sqrtf+0x34>
80008180:	00a77733          	and	a4,a4,a0
80008184:	41755693          	srai	a3,a0,0x17
80008188:	0a070263          	beqz	a4,8000822c <__ieee754_sqrtf+0x118>
8000818c:	00800737          	lui	a4,0x800
80008190:	f8168413          	addi	s0,a3,-127 # 3ff81 <_start-0x7ffc007f>
80008194:	fff70693          	addi	a3,a4,-1 # 7fffff <_start-0x7f800001>
80008198:	00d7f7b3          	and	a5,a5,a3
8000819c:	00e7e7b3          	or	a5,a5,a4
800081a0:	00147713          	andi	a4,s0,1
800081a4:	00070463          	beqz	a4,800081ac <__ieee754_sqrtf+0x98>
800081a8:	00179793          	slli	a5,a5,0x1
800081ac:	40145413          	srai	s0,s0,0x1
800081b0:	00179793          	slli	a5,a5,0x1
800081b4:	01900593          	li	a1,25
800081b8:	00000713          	li	a4,0
800081bc:	00000813          	li	a6,0
800081c0:	01000637          	lui	a2,0x1000
800081c4:	00c80533          	add	a0,a6,a2
800081c8:	00078693          	mv	a3,a5
800081cc:	00a7c863          	blt	a5,a0,800081dc <__ieee754_sqrtf+0xc8>
800081d0:	00c50833          	add	a6,a0,a2
800081d4:	40a786b3          	sub	a3,a5,a0
800081d8:	00c70733          	add	a4,a4,a2
800081dc:	fff58593          	addi	a1,a1,-1 # ff7fffff <__global_pointer$+0x7f7f55af>
800081e0:	00169793          	slli	a5,a3,0x1
800081e4:	00165613          	srli	a2,a2,0x1
800081e8:	fc059ee3          	bnez	a1,800081c4 <__ieee754_sqrtf+0xb0>
800081ec:	00068663          	beqz	a3,800081f8 <__ieee754_sqrtf+0xe4>
800081f0:	00170713          	addi	a4,a4,1
800081f4:	ffe77713          	andi	a4,a4,-2
800081f8:	40175713          	srai	a4,a4,0x1
800081fc:	3f0007b7          	lui	a5,0x3f000
80008200:	00f70733          	add	a4,a4,a5
80008204:	01741413          	slli	s0,s0,0x17
80008208:	00e40433          	add	s0,s0,a4
8000820c:	f41ff06f          	j	8000814c <__ieee754_sqrtf+0x38>
80008210:	00179793          	slli	a5,a5,0x1
80008214:	00170713          	addi	a4,a4,1
80008218:	00b7f633          	and	a2,a5,a1
8000821c:	fe060ae3          	beqz	a2,80008210 <__ieee754_sqrtf+0xfc>
80008220:	fff70713          	addi	a4,a4,-1
80008224:	40e686b3          	sub	a3,a3,a4
80008228:	f65ff06f          	j	8000818c <__ieee754_sqrtf+0x78>
8000822c:	00000713          	li	a4,0
80008230:	008005b7          	lui	a1,0x800
80008234:	fe5ff06f          	j	80008218 <__ieee754_sqrtf+0x104>

80008238 <__kernel_rem_pio2>:
80008238:	d6010113          	addi	sp,sp,-672
8000823c:	00f12423          	sw	a5,8(sp)
80008240:	8000a7b7          	lui	a5,0x8000a
80008244:	29512223          	sw	s5,644(sp)
80008248:	a9878793          	addi	a5,a5,-1384 # 80009a98 <__global_pointer$+0xfffff048>
8000824c:	00070a93          	mv	s5,a4
80008250:	00271713          	slli	a4,a4,0x2
80008254:	00e787b3          	add	a5,a5,a4
80008258:	28912a23          	sw	s1,660(sp)
8000825c:	29212823          	sw	s2,656(sp)
80008260:	29612023          	sw	s6,640(sp)
80008264:	27712e23          	sw	s7,636(sp)
80008268:	27812c23          	sw	s8,632(sp)
8000826c:	27912a23          	sw	s9,628(sp)
80008270:	0007ac03          	lw	s8,0(a5)
80008274:	28112e23          	sw	ra,668(sp)
80008278:	28812c23          	sw	s0,664(sp)
8000827c:	29312623          	sw	s3,652(sp)
80008280:	29412423          	sw	s4,648(sp)
80008284:	27a12823          	sw	s10,624(sp)
80008288:	27b12623          	sw	s11,620(sp)
8000828c:	00a12223          	sw	a0,4(sp)
80008290:	fec00793          	li	a5,-20
80008294:	00058493          	mv	s1,a1
80008298:	00060913          	mv	s2,a2
8000829c:	00068b93          	mv	s7,a3
800082a0:	fff68c93          	addi	s9,a3,-1
800082a4:	00000b13          	li	s6,0
800082a8:	00f64a63          	blt	a2,a5,800082bc <__kernel_rem_pio2+0x84>
800082ac:	01800593          	li	a1,24
800082b0:	ffd60513          	addi	a0,a2,-3 # fffffd <_start-0x7f000003>
800082b4:	cf8fb0ef          	jal	ra,800037ac <__divsi3>
800082b8:	00050b13          	mv	s6,a0
800082bc:	001b0413          	addi	s0,s6,1
800082c0:	00241793          	slli	a5,s0,0x2
800082c4:	40f40433          	sub	s0,s0,a5
800082c8:	00341413          	slli	s0,s0,0x3
800082cc:	419b0a33          	sub	s4,s6,s9
800082d0:	01240433          	add	s0,s0,s2
800082d4:	019c0db3          	add	s11,s8,s9
800082d8:	08010993          	addi	s3,sp,128
800082dc:	000a0913          	mv	s2,s4
800082e0:	414907b3          	sub	a5,s2,s4
800082e4:	02fdd863          	bge	s11,a5,80008314 <__kernel_rem_pio2+0xdc>
800082e8:	000b8d13          	mv	s10,s7
800082ec:	1c010713          	addi	a4,sp,448
800082f0:	417d06b3          	sub	a3,s10,s7
800082f4:	0adc4c63          	blt	s8,a3,800083ac <__kernel_rem_pio2+0x174>
800082f8:	003d1a13          	slli	s4,s10,0x3
800082fc:	08010793          	addi	a5,sp,128
80008300:	00fa0a33          	add	s4,s4,a5
80008304:	00000993          	li	s3,0
80008308:	00000913          	li	s2,0
8000830c:	00000d93          	li	s11,0
80008310:	0800006f          	j	80008390 <__kernel_rem_pio2+0x158>
80008314:	00000513          	li	a0,0
80008318:	00000593          	li	a1,0
8000831c:	00094c63          	bltz	s2,80008334 <__kernel_rem_pio2+0xfc>
80008320:	00812703          	lw	a4,8(sp)
80008324:	00291793          	slli	a5,s2,0x2
80008328:	00f707b3          	add	a5,a4,a5
8000832c:	0007a503          	lw	a0,0(a5)
80008330:	fb9f90ef          	jal	ra,800022e8 <__floatsidf>
80008334:	00a9a023          	sw	a0,0(s3) # fffff000 <__global_pointer$+0x7fff45b0>
80008338:	00b9a223          	sw	a1,4(s3)
8000833c:	00190913          	addi	s2,s2,1
80008340:	00898993          	addi	s3,s3,8
80008344:	f9dff06f          	j	800082e0 <__kernel_rem_pio2+0xa8>
80008348:	00412783          	lw	a5,4(sp)
8000834c:	003d9593          	slli	a1,s11,0x3
80008350:	000a2603          	lw	a2,0(s4)
80008354:	00b785b3          	add	a1,a5,a1
80008358:	004a2683          	lw	a3,4(s4)
8000835c:	0005a503          	lw	a0,0(a1) # 800000 <_start-0x7f800000>
80008360:	0045a583          	lw	a1,4(a1)
80008364:	00e12023          	sw	a4,0(sp)
80008368:	001d8d93          	addi	s11,s11,1 # 3f800001 <_start-0x407fffff>
8000836c:	840f90ef          	jal	ra,800013ac <__muldf3>
80008370:	00050613          	mv	a2,a0
80008374:	00058693          	mv	a3,a1
80008378:	00098513          	mv	a0,s3
8000837c:	00090593          	mv	a1,s2
80008380:	f8df70ef          	jal	ra,8000030c <__adddf3>
80008384:	00012703          	lw	a4,0(sp)
80008388:	00050993          	mv	s3,a0
8000838c:	00058913          	mv	s2,a1
80008390:	ff8a0a13          	addi	s4,s4,-8
80008394:	fbbcdae3          	bge	s9,s11,80008348 <__kernel_rem_pio2+0x110>
80008398:	01372023          	sw	s3,0(a4)
8000839c:	01272223          	sw	s2,4(a4)
800083a0:	001d0d13          	addi	s10,s10,1
800083a4:	00870713          	addi	a4,a4,8
800083a8:	f49ff06f          	j	800082f0 <__kernel_rem_pio2+0xb8>
800083ac:	002c1793          	slli	a5,s8,0x2
800083b0:	03078793          	addi	a5,a5,48
800083b4:	002787b3          	add	a5,a5,sp
800083b8:	00f12623          	sw	a5,12(sp)
800083bc:	9b41a803          	lw	a6,-1612(gp) # 8000a404 <dp_l+0x10>
800083c0:	9b01a783          	lw	a5,-1616(gp) # 8000a400 <dp_l+0xc>
800083c4:	000c0993          	mv	s3,s8
800083c8:	01012a23          	sw	a6,20(sp)
800083cc:	00f12823          	sw	a5,16(sp)
800083d0:	9341a803          	lw	a6,-1740(gp) # 8000a384 <_ZL15forceduartflush+0x11c>
800083d4:	9301a783          	lw	a5,-1744(gp) # 8000a380 <_ZL15forceduartflush+0x118>
800083d8:	01012e23          	sw	a6,28(sp)
800083dc:	00f12c23          	sw	a5,24(sp)
800083e0:	8cc1a803          	lw	a6,-1844(gp) # 8000a31c <_ZL15forceduartflush+0xb4>
800083e4:	8c81a783          	lw	a5,-1848(gp) # 8000a318 <_ZL15forceduartflush+0xb0>
800083e8:	03012223          	sw	a6,36(sp)
800083ec:	02f12023          	sw	a5,32(sp)
800083f0:	00399793          	slli	a5,s3,0x3
800083f4:	03010713          	addi	a4,sp,48
800083f8:	23078793          	addi	a5,a5,560
800083fc:	00e787b3          	add	a5,a5,a4
80008400:	f607aa03          	lw	s4,-160(a5)
80008404:	f647a903          	lw	s2,-156(a5)
80008408:	00070d93          	mv	s11,a4
8000840c:	00070813          	mv	a6,a4
80008410:	00098d13          	mv	s10,s3
80008414:	1fa04c63          	bgtz	s10,8000860c <__kernel_rem_pio2+0x3d4>
80008418:	00040613          	mv	a2,s0
8000841c:	000a0513          	mv	a0,s4
80008420:	00090593          	mv	a1,s2
80008424:	090010ef          	jal	ra,800094b4 <scalbn>
80008428:	9b81a603          	lw	a2,-1608(gp) # 8000a408 <dp_l+0x14>
8000842c:	9bc1a683          	lw	a3,-1604(gp) # 8000a40c <dp_l+0x18>
80008430:	00050a13          	mv	s4,a0
80008434:	00058913          	mv	s2,a1
80008438:	f75f80ef          	jal	ra,800013ac <__muldf3>
8000843c:	6d1000ef          	jal	ra,8000930c <floor>
80008440:	9c01a603          	lw	a2,-1600(gp) # 8000a410 <dp_l+0x1c>
80008444:	9c41a683          	lw	a3,-1596(gp) # 8000a414 <dp_l+0x20>
80008448:	f65f80ef          	jal	ra,800013ac <__muldf3>
8000844c:	00050613          	mv	a2,a0
80008450:	00058693          	mv	a3,a1
80008454:	000a0513          	mv	a0,s4
80008458:	00090593          	mv	a1,s2
8000845c:	e1cf90ef          	jal	ra,80001a78 <__subdf3>
80008460:	00050a13          	mv	s4,a0
80008464:	00058913          	mv	s2,a1
80008468:	e01f90ef          	jal	ra,80002268 <__fixdfsi>
8000846c:	00a12023          	sw	a0,0(sp)
80008470:	e79f90ef          	jal	ra,800022e8 <__floatsidf>
80008474:	00050613          	mv	a2,a0
80008478:	00058693          	mv	a3,a1
8000847c:	000a0513          	mv	a0,s4
80008480:	00090593          	mv	a1,s2
80008484:	df4f90ef          	jal	ra,80001a78 <__subdf3>
80008488:	00050d13          	mv	s10,a0
8000848c:	00058a13          	mv	s4,a1
80008490:	20805863          	blez	s0,800086a0 <__kernel_rem_pio2+0x468>
80008494:	fff98693          	addi	a3,s3,-1
80008498:	00269693          	slli	a3,a3,0x2
8000849c:	23068793          	addi	a5,a3,560
800084a0:	03010713          	addi	a4,sp,48
800084a4:	00e786b3          	add	a3,a5,a4
800084a8:	dd06a903          	lw	s2,-560(a3)
800084ac:	00012783          	lw	a5,0(sp)
800084b0:	01800593          	li	a1,24
800084b4:	408585b3          	sub	a1,a1,s0
800084b8:	40b95633          	sra	a2,s2,a1
800084bc:	00c787b3          	add	a5,a5,a2
800084c0:	00b61633          	sll	a2,a2,a1
800084c4:	40c90933          	sub	s2,s2,a2
800084c8:	dd26a823          	sw	s2,-560(a3)
800084cc:	01700693          	li	a3,23
800084d0:	408686b3          	sub	a3,a3,s0
800084d4:	00f12023          	sw	a5,0(sp)
800084d8:	40d95933          	sra	s2,s2,a3
800084dc:	09205a63          	blez	s2,80008570 <__kernel_rem_pio2+0x338>
800084e0:	00012783          	lw	a5,0(sp)
800084e4:	010005b7          	lui	a1,0x1000
800084e8:	00000613          	li	a2,0
800084ec:	00178793          	addi	a5,a5,1
800084f0:	00f12023          	sw	a5,0(sp)
800084f4:	00000893          	li	a7,0
800084f8:	fff58513          	addi	a0,a1,-1 # ffffff <_start-0x7f000001>
800084fc:	1f364263          	blt	a2,s3,800086e0 <__kernel_rem_pio2+0x4a8>
80008500:	00805a63          	blez	s0,80008514 <__kernel_rem_pio2+0x2dc>
80008504:	00100793          	li	a5,1
80008508:	20f40863          	beq	s0,a5,80008718 <__kernel_rem_pio2+0x4e0>
8000850c:	00200793          	li	a5,2
80008510:	22f40863          	beq	s0,a5,80008740 <__kernel_rem_pio2+0x508>
80008514:	00200793          	li	a5,2
80008518:	04f91c63          	bne	s2,a5,80008570 <__kernel_rem_pio2+0x338>
8000851c:	8d81a503          	lw	a0,-1832(gp) # 8000a328 <_ZL15forceduartflush+0xc0>
80008520:	8dc1a583          	lw	a1,-1828(gp) # 8000a32c <_ZL15forceduartflush+0xc4>
80008524:	000d0613          	mv	a2,s10
80008528:	000a0693          	mv	a3,s4
8000852c:	03112423          	sw	a7,40(sp)
80008530:	d48f90ef          	jal	ra,80001a78 <__subdf3>
80008534:	02812883          	lw	a7,40(sp)
80008538:	00050d13          	mv	s10,a0
8000853c:	00058a13          	mv	s4,a1
80008540:	02088863          	beqz	a7,80008570 <__kernel_rem_pio2+0x338>
80008544:	8d81a503          	lw	a0,-1832(gp) # 8000a328 <_ZL15forceduartflush+0xc0>
80008548:	8dc1a583          	lw	a1,-1828(gp) # 8000a32c <_ZL15forceduartflush+0xc4>
8000854c:	00040613          	mv	a2,s0
80008550:	765000ef          	jal	ra,800094b4 <scalbn>
80008554:	00050613          	mv	a2,a0
80008558:	00058693          	mv	a3,a1
8000855c:	000d0513          	mv	a0,s10
80008560:	000a0593          	mv	a1,s4
80008564:	d14f90ef          	jal	ra,80001a78 <__subdf3>
80008568:	00050d13          	mv	s10,a0
8000856c:	00058a13          	mv	s4,a1
80008570:	00000613          	li	a2,0
80008574:	00000693          	li	a3,0
80008578:	000d0513          	mv	a0,s10
8000857c:	000a0593          	mv	a1,s4
80008580:	b2cfb0ef          	jal	ra,800038ac <__eqdf2>
80008584:	2e051c63          	bnez	a0,8000887c <__kernel_rem_pio2+0x644>
80008588:	fff98a13          	addi	s4,s3,-1
8000858c:	000a0713          	mv	a4,s4
80008590:	00000693          	li	a3,0
80008594:	1d875863          	bge	a4,s8,80008764 <__kernel_rem_pio2+0x52c>
80008598:	20068e63          	beqz	a3,800087b4 <__kernel_rem_pio2+0x57c>
8000859c:	002a1713          	slli	a4,s4,0x2
800085a0:	03070793          	addi	a5,a4,48
800085a4:	00278733          	add	a4,a5,sp
800085a8:	00072703          	lw	a4,0(a4)
800085ac:	fe840413          	addi	s0,s0,-24 # ffffefe8 <__global_pointer$+0x7fff4598>
800085b0:	2c070263          	beqz	a4,80008874 <__kernel_rem_pio2+0x63c>
800085b4:	8d81a503          	lw	a0,-1832(gp) # 8000a328 <_ZL15forceduartflush+0xc0>
800085b8:	8dc1a583          	lw	a1,-1828(gp) # 8000a32c <_ZL15forceduartflush+0xc4>
800085bc:	00040613          	mv	a2,s0
800085c0:	000a0c93          	mv	s9,s4
800085c4:	6f1000ef          	jal	ra,800094b4 <scalbn>
800085c8:	9b01ab03          	lw	s6,-1616(gp) # 8000a400 <dp_l+0xc>
800085cc:	9b41ab83          	lw	s7,-1612(gp) # 8000a404 <dp_l+0x10>
800085d0:	00050413          	mv	s0,a0
800085d4:	00058993          	mv	s3,a1
800085d8:	360cda63          	bgez	s9,8000894c <__kernel_rem_pio2+0x714>
800085dc:	000a0993          	mv	s3,s4
800085e0:	8000a737          	lui	a4,0x8000a
800085e4:	4209c463          	bltz	s3,80008a0c <__kernel_rem_pio2+0x7d4>
800085e8:	00399c93          	slli	s9,s3,0x3
800085ec:	1c010793          	addi	a5,sp,448
800085f0:	a5870d93          	addi	s11,a4,-1448 # 80009a58 <__global_pointer$+0xfffff008>
800085f4:	00fc8cb3          	add	s9,s9,a5
800085f8:	00000b93          	li	s7,0
800085fc:	00000b13          	li	s6,0
80008600:	00000d13          	li	s10,0
80008604:	413a0433          	sub	s0,s4,s3
80008608:	3dc0006f          	j	800089e4 <__kernel_rem_pio2+0x7ac>
8000860c:	01012603          	lw	a2,16(sp)
80008610:	01412683          	lw	a3,20(sp)
80008614:	000a0513          	mv	a0,s4
80008618:	00090593          	mv	a1,s2
8000861c:	01012023          	sw	a6,0(sp)
80008620:	d8df80ef          	jal	ra,800013ac <__muldf3>
80008624:	c45f90ef          	jal	ra,80002268 <__fixdfsi>
80008628:	cc1f90ef          	jal	ra,800022e8 <__floatsidf>
8000862c:	01812603          	lw	a2,24(sp)
80008630:	01c12683          	lw	a3,28(sp)
80008634:	02a12623          	sw	a0,44(sp)
80008638:	02b12423          	sw	a1,40(sp)
8000863c:	d71f80ef          	jal	ra,800013ac <__muldf3>
80008640:	00050613          	mv	a2,a0
80008644:	00058693          	mv	a3,a1
80008648:	000a0513          	mv	a0,s4
8000864c:	00090593          	mv	a1,s2
80008650:	c28f90ef          	jal	ra,80001a78 <__subdf3>
80008654:	c15f90ef          	jal	ra,80002268 <__fixdfsi>
80008658:	fffd0d13          	addi	s10,s10,-1
8000865c:	1c010793          	addi	a5,sp,448
80008660:	003d1693          	slli	a3,s10,0x3
80008664:	00012803          	lw	a6,0(sp)
80008668:	00d786b3          	add	a3,a5,a3
8000866c:	02c12303          	lw	t1,44(sp)
80008670:	02812883          	lw	a7,40(sp)
80008674:	0006a603          	lw	a2,0(a3)
80008678:	0046a683          	lw	a3,4(a3)
8000867c:	00a82023          	sw	a0,0(a6)
80008680:	00088593          	mv	a1,a7
80008684:	00030513          	mv	a0,t1
80008688:	c85f70ef          	jal	ra,8000030c <__adddf3>
8000868c:	00012803          	lw	a6,0(sp)
80008690:	00050a13          	mv	s4,a0
80008694:	00058913          	mv	s2,a1
80008698:	00480813          	addi	a6,a6,4
8000869c:	d79ff06f          	j	80008414 <__kernel_rem_pio2+0x1dc>
800086a0:	02041263          	bnez	s0,800086c4 <__kernel_rem_pio2+0x48c>
800086a4:	fff98693          	addi	a3,s3,-1
800086a8:	00269693          	slli	a3,a3,0x2
800086ac:	23068793          	addi	a5,a3,560
800086b0:	03010713          	addi	a4,sp,48
800086b4:	00e786b3          	add	a3,a5,a4
800086b8:	dd06a903          	lw	s2,-560(a3)
800086bc:	41795913          	srai	s2,s2,0x17
800086c0:	e1dff06f          	j	800084dc <__kernel_rem_pio2+0x2a4>
800086c4:	02012603          	lw	a2,32(sp)
800086c8:	02412683          	lw	a3,36(sp)
800086cc:	00000913          	li	s2,0
800086d0:	bf9f80ef          	jal	ra,800012c8 <__gedf2>
800086d4:	e8054ee3          	bltz	a0,80008570 <__kernel_rem_pio2+0x338>
800086d8:	00200913          	li	s2,2
800086dc:	e05ff06f          	j	800084e0 <__kernel_rem_pio2+0x2a8>
800086e0:	000da683          	lw	a3,0(s11)
800086e4:	02089263          	bnez	a7,80008708 <__kernel_rem_pio2+0x4d0>
800086e8:	00068863          	beqz	a3,800086f8 <__kernel_rem_pio2+0x4c0>
800086ec:	40d586b3          	sub	a3,a1,a3
800086f0:	00dda023          	sw	a3,0(s11)
800086f4:	00100693          	li	a3,1
800086f8:	00160613          	addi	a2,a2,1
800086fc:	004d8d93          	addi	s11,s11,4
80008700:	00068893          	mv	a7,a3
80008704:	df9ff06f          	j	800084fc <__kernel_rem_pio2+0x2c4>
80008708:	40d506b3          	sub	a3,a0,a3
8000870c:	00dda023          	sw	a3,0(s11)
80008710:	00088693          	mv	a3,a7
80008714:	fe5ff06f          	j	800086f8 <__kernel_rem_pio2+0x4c0>
80008718:	fff98793          	addi	a5,s3,-1
8000871c:	00279793          	slli	a5,a5,0x2
80008720:	23078793          	addi	a5,a5,560
80008724:	03010713          	addi	a4,sp,48
80008728:	00e787b3          	add	a5,a5,a4
8000872c:	dd07a683          	lw	a3,-560(a5)
80008730:	00969693          	slli	a3,a3,0x9
80008734:	0096d693          	srli	a3,a3,0x9
80008738:	dcd7a823          	sw	a3,-560(a5)
8000873c:	dd9ff06f          	j	80008514 <__kernel_rem_pio2+0x2dc>
80008740:	fff98793          	addi	a5,s3,-1
80008744:	00279793          	slli	a5,a5,0x2
80008748:	23078793          	addi	a5,a5,560
8000874c:	03010713          	addi	a4,sp,48
80008750:	00e787b3          	add	a5,a5,a4
80008754:	dd07a683          	lw	a3,-560(a5)
80008758:	00a69693          	slli	a3,a3,0xa
8000875c:	00a6d693          	srli	a3,a3,0xa
80008760:	fd9ff06f          	j	80008738 <__kernel_rem_pio2+0x500>
80008764:	00271613          	slli	a2,a4,0x2
80008768:	03060793          	addi	a5,a2,48
8000876c:	00278633          	add	a2,a5,sp
80008770:	00062603          	lw	a2,0(a2)
80008774:	fff70713          	addi	a4,a4,-1
80008778:	00c6e6b3          	or	a3,a3,a2
8000877c:	e19ff06f          	j	80008594 <__kernel_rem_pio2+0x35c>
80008780:	00190913          	addi	s2,s2,1
80008784:	ffc7a703          	lw	a4,-4(a5)
80008788:	ffc78793          	addi	a5,a5,-4
8000878c:	fe070ae3          	beqz	a4,80008780 <__kernel_rem_pio2+0x548>
80008790:	01798a33          	add	s4,s3,s7
80008794:	003a1a13          	slli	s4,s4,0x3
80008798:	08010793          	addi	a5,sp,128
8000879c:	00198d13          	addi	s10,s3,1
800087a0:	01478a33          	add	s4,a5,s4
800087a4:	01298933          	add	s2,s3,s2
800087a8:	01a95c63          	bge	s2,s10,800087c0 <__kernel_rem_pio2+0x588>
800087ac:	00090993          	mv	s3,s2
800087b0:	c41ff06f          	j	800083f0 <__kernel_rem_pio2+0x1b8>
800087b4:	00c12783          	lw	a5,12(sp)
800087b8:	00100913          	li	s2,1
800087bc:	fc9ff06f          	j	80008784 <__kernel_rem_pio2+0x54c>
800087c0:	00812783          	lw	a5,8(sp)
800087c4:	01ab0733          	add	a4,s6,s10
800087c8:	00271713          	slli	a4,a4,0x2
800087cc:	00e78733          	add	a4,a5,a4
800087d0:	00072503          	lw	a0,0(a4)
800087d4:	00000993          	li	s3,0
800087d8:	b11f90ef          	jal	ra,800022e8 <__floatsidf>
800087dc:	00aa2023          	sw	a0,0(s4)
800087e0:	00ba2223          	sw	a1,4(s4)
800087e4:	000a0893          	mv	a7,s4
800087e8:	00000813          	li	a6,0
800087ec:	00000713          	li	a4,0
800087f0:	030cd263          	bge	s9,a6,80008814 <__kernel_rem_pio2+0x5dc>
800087f4:	003d1693          	slli	a3,s10,0x3
800087f8:	1c010793          	addi	a5,sp,448
800087fc:	00d786b3          	add	a3,a5,a3
80008800:	00e6a023          	sw	a4,0(a3)
80008804:	0136a223          	sw	s3,4(a3)
80008808:	001d0d13          	addi	s10,s10,1
8000880c:	008a0a13          	addi	s4,s4,8
80008810:	f99ff06f          	j	800087a8 <__kernel_rem_pio2+0x570>
80008814:	00412783          	lw	a5,4(sp)
80008818:	00381593          	slli	a1,a6,0x3
8000881c:	0008a603          	lw	a2,0(a7)
80008820:	00b785b3          	add	a1,a5,a1
80008824:	0048a683          	lw	a3,4(a7)
80008828:	0005a503          	lw	a0,0(a1)
8000882c:	0045a583          	lw	a1,4(a1)
80008830:	03012423          	sw	a6,40(sp)
80008834:	01112023          	sw	a7,0(sp)
80008838:	02e12623          	sw	a4,44(sp)
8000883c:	b71f80ef          	jal	ra,800013ac <__muldf3>
80008840:	02c12703          	lw	a4,44(sp)
80008844:	00050613          	mv	a2,a0
80008848:	00058693          	mv	a3,a1
8000884c:	00070513          	mv	a0,a4
80008850:	00098593          	mv	a1,s3
80008854:	ab9f70ef          	jal	ra,8000030c <__adddf3>
80008858:	02812803          	lw	a6,40(sp)
8000885c:	00012883          	lw	a7,0(sp)
80008860:	00050713          	mv	a4,a0
80008864:	00058993          	mv	s3,a1
80008868:	00180813          	addi	a6,a6,1
8000886c:	ff888893          	addi	a7,a7,-8
80008870:	f81ff06f          	j	800087f0 <__kernel_rem_pio2+0x5b8>
80008874:	fffa0a13          	addi	s4,s4,-1
80008878:	d25ff06f          	j	8000859c <__kernel_rem_pio2+0x364>
8000887c:	40800633          	neg	a2,s0
80008880:	000d0513          	mv	a0,s10
80008884:	000a0593          	mv	a1,s4
80008888:	42d000ef          	jal	ra,800094b4 <scalbn>
8000888c:	9301ab03          	lw	s6,-1744(gp) # 8000a380 <_ZL15forceduartflush+0x118>
80008890:	9341ab83          	lw	s7,-1740(gp) # 8000a384 <_ZL15forceduartflush+0x11c>
80008894:	00050d93          	mv	s11,a0
80008898:	000b0613          	mv	a2,s6
8000889c:	000b8693          	mv	a3,s7
800088a0:	00058d13          	mv	s10,a1
800088a4:	a25f80ef          	jal	ra,800012c8 <__gedf2>
800088a8:	00299c93          	slli	s9,s3,0x2
800088ac:	06054e63          	bltz	a0,80008928 <__kernel_rem_pio2+0x6f0>
800088b0:	9b01a603          	lw	a2,-1616(gp) # 8000a400 <dp_l+0xc>
800088b4:	9b41a683          	lw	a3,-1612(gp) # 8000a404 <dp_l+0x10>
800088b8:	000d8513          	mv	a0,s11
800088bc:	000d0593          	mv	a1,s10
800088c0:	aedf80ef          	jal	ra,800013ac <__muldf3>
800088c4:	9a5f90ef          	jal	ra,80002268 <__fixdfsi>
800088c8:	230c8793          	addi	a5,s9,560
800088cc:	03010713          	addi	a4,sp,48
800088d0:	00e78cb3          	add	s9,a5,a4
800088d4:	00a12223          	sw	a0,4(sp)
800088d8:	a11f90ef          	jal	ra,800022e8 <__floatsidf>
800088dc:	000b0613          	mv	a2,s6
800088e0:	000b8693          	mv	a3,s7
800088e4:	ac9f80ef          	jal	ra,800013ac <__muldf3>
800088e8:	00050613          	mv	a2,a0
800088ec:	00058693          	mv	a3,a1
800088f0:	000d8513          	mv	a0,s11
800088f4:	000d0593          	mv	a1,s10
800088f8:	980f90ef          	jal	ra,80001a78 <__subdf3>
800088fc:	96df90ef          	jal	ra,80002268 <__fixdfsi>
80008900:	00198a13          	addi	s4,s3,1
80008904:	002a1713          	slli	a4,s4,0x2
80008908:	00412803          	lw	a6,4(sp)
8000890c:	23070793          	addi	a5,a4,560
80008910:	03010713          	addi	a4,sp,48
80008914:	dcaca823          	sw	a0,-560(s9)
80008918:	00e78733          	add	a4,a5,a4
8000891c:	01840413          	addi	s0,s0,24
80008920:	dd072823          	sw	a6,-560(a4)
80008924:	c91ff06f          	j	800085b4 <__kernel_rem_pio2+0x37c>
80008928:	230c8793          	addi	a5,s9,560
8000892c:	03010713          	addi	a4,sp,48
80008930:	000d8513          	mv	a0,s11
80008934:	000d0593          	mv	a1,s10
80008938:	00e78cb3          	add	s9,a5,a4
8000893c:	92df90ef          	jal	ra,80002268 <__fixdfsi>
80008940:	dcaca823          	sw	a0,-560(s9)
80008944:	00098a13          	mv	s4,s3
80008948:	c6dff06f          	j	800085b4 <__kernel_rem_pio2+0x37c>
8000894c:	002c9713          	slli	a4,s9,0x2
80008950:	003c9d13          	slli	s10,s9,0x3
80008954:	1c010793          	addi	a5,sp,448
80008958:	01a78d33          	add	s10,a5,s10
8000895c:	03070793          	addi	a5,a4,48
80008960:	00278733          	add	a4,a5,sp
80008964:	00072503          	lw	a0,0(a4)
80008968:	fffc8c93          	addi	s9,s9,-1
8000896c:	97df90ef          	jal	ra,800022e8 <__floatsidf>
80008970:	00040613          	mv	a2,s0
80008974:	00098693          	mv	a3,s3
80008978:	a35f80ef          	jal	ra,800013ac <__muldf3>
8000897c:	00ad2023          	sw	a0,0(s10)
80008980:	00bd2223          	sw	a1,4(s10)
80008984:	00040513          	mv	a0,s0
80008988:	00098593          	mv	a1,s3
8000898c:	000b0613          	mv	a2,s6
80008990:	000b8693          	mv	a3,s7
80008994:	a19f80ef          	jal	ra,800013ac <__muldf3>
80008998:	00050413          	mv	s0,a0
8000899c:	00058993          	mv	s3,a1
800089a0:	c39ff06f          	j	800085d8 <__kernel_rem_pio2+0x3a0>
800089a4:	000ca603          	lw	a2,0(s9)
800089a8:	004ca683          	lw	a3,4(s9)
800089ac:	000da503          	lw	a0,0(s11)
800089b0:	004da583          	lw	a1,4(s11)
800089b4:	001d0d13          	addi	s10,s10,1
800089b8:	008d8d93          	addi	s11,s11,8
800089bc:	9f1f80ef          	jal	ra,800013ac <__muldf3>
800089c0:	00050613          	mv	a2,a0
800089c4:	00058693          	mv	a3,a1
800089c8:	000b8513          	mv	a0,s7
800089cc:	000b0593          	mv	a1,s6
800089d0:	93df70ef          	jal	ra,8000030c <__adddf3>
800089d4:	00050b93          	mv	s7,a0
800089d8:	00058b13          	mv	s6,a1
800089dc:	008c8c93          	addi	s9,s9,8
800089e0:	8000a737          	lui	a4,0x8000a
800089e4:	01ac4463          	blt	s8,s10,800089ec <__kernel_rem_pio2+0x7b4>
800089e8:	fba45ee3          	bge	s0,s10,800089a4 <__kernel_rem_pio2+0x76c>
800089ec:	00341413          	slli	s0,s0,0x3
800089f0:	23040793          	addi	a5,s0,560
800089f4:	03010693          	addi	a3,sp,48
800089f8:	00d78433          	add	s0,a5,a3
800089fc:	ed742023          	sw	s7,-320(s0)
80008a00:	ed642223          	sw	s6,-316(s0)
80008a04:	fff98993          	addi	s3,s3,-1
80008a08:	bddff06f          	j	800085e4 <__kernel_rem_pio2+0x3ac>
80008a0c:	00200713          	li	a4,2
80008a10:	05574863          	blt	a4,s5,80008a60 <__kernel_rem_pio2+0x828>
80008a14:	17504e63          	bgtz	s5,80008b90 <__kernel_rem_pio2+0x958>
80008a18:	0e0a8c63          	beqz	s5,80008b10 <__kernel_rem_pio2+0x8d8>
80008a1c:	00012783          	lw	a5,0(sp)
80008a20:	29c12083          	lw	ra,668(sp)
80008a24:	29812403          	lw	s0,664(sp)
80008a28:	29412483          	lw	s1,660(sp)
80008a2c:	29012903          	lw	s2,656(sp)
80008a30:	28c12983          	lw	s3,652(sp)
80008a34:	28812a03          	lw	s4,648(sp)
80008a38:	28412a83          	lw	s5,644(sp)
80008a3c:	28012b03          	lw	s6,640(sp)
80008a40:	27c12b83          	lw	s7,636(sp)
80008a44:	27812c03          	lw	s8,632(sp)
80008a48:	27412c83          	lw	s9,628(sp)
80008a4c:	27012d03          	lw	s10,624(sp)
80008a50:	26c12d83          	lw	s11,620(sp)
80008a54:	0077f513          	andi	a0,a5,7
80008a58:	2a010113          	addi	sp,sp,672
80008a5c:	00008067          	ret
80008a60:	00300713          	li	a4,3
80008a64:	faea9ce3          	bne	s5,a4,80008a1c <__kernel_rem_pio2+0x7e4>
80008a68:	003a1413          	slli	s0,s4,0x3
80008a6c:	12010793          	addi	a5,sp,288
80008a70:	00878433          	add	s0,a5,s0
80008a74:	00040993          	mv	s3,s0
80008a78:	000a0d93          	mv	s11,s4
80008a7c:	ff898993          	addi	s3,s3,-8
80008a80:	13b04a63          	bgtz	s11,80008bb4 <__kernel_rem_pio2+0x97c>
80008a84:	000a0d13          	mv	s10,s4
80008a88:	00100d93          	li	s11,1
80008a8c:	ff840413          	addi	s0,s0,-8
80008a90:	19adc463          	blt	s11,s10,80008c18 <__kernel_rem_pio2+0x9e0>
80008a94:	00000513          	li	a0,0
80008a98:	00000593          	li	a1,0
80008a9c:	00100413          	li	s0,1
80008aa0:	1d444e63          	blt	s0,s4,80008c7c <__kernel_rem_pio2+0xa44>
80008aa4:	12012783          	lw	a5,288(sp)
80008aa8:	12412683          	lw	a3,292(sp)
80008aac:	12812603          	lw	a2,296(sp)
80008ab0:	12c12703          	lw	a4,300(sp)
80008ab4:	1e091463          	bnez	s2,80008c9c <__kernel_rem_pio2+0xa64>
80008ab8:	00f4a023          	sw	a5,0(s1)
80008abc:	00d4a223          	sw	a3,4(s1)
80008ac0:	00c4a423          	sw	a2,8(s1)
80008ac4:	00e4a623          	sw	a4,12(s1)
80008ac8:	00058793          	mv	a5,a1
80008acc:	00a4a823          	sw	a0,16(s1)
80008ad0:	00f4aa23          	sw	a5,20(s1)
80008ad4:	f49ff06f          	j	80008a1c <__kernel_rem_pio2+0x7e4>
80008ad8:	003a1713          	slli	a4,s4,0x3
80008adc:	12010793          	addi	a5,sp,288
80008ae0:	00e78733          	add	a4,a5,a4
80008ae4:	00072603          	lw	a2,0(a4) # 8000a000 <__global_pointer$+0xfffff5b0>
80008ae8:	00472683          	lw	a3,4(a4)
80008aec:	fffa0a13          	addi	s4,s4,-1
80008af0:	81df70ef          	jal	ra,8000030c <__adddf3>
80008af4:	fe0a52e3          	bgez	s4,80008ad8 <__kernel_rem_pio2+0x8a0>
80008af8:	00090663          	beqz	s2,80008b04 <__kernel_rem_pio2+0x8cc>
80008afc:	800007b7          	lui	a5,0x80000
80008b00:	00b7c5b3          	xor	a1,a5,a1
80008b04:	00a4a023          	sw	a0,0(s1)
80008b08:	00b4a223          	sw	a1,4(s1)
80008b0c:	f11ff06f          	j	80008a1c <__kernel_rem_pio2+0x7e4>
80008b10:	00000513          	li	a0,0
80008b14:	00000593          	li	a1,0
80008b18:	fddff06f          	j	80008af4 <__kernel_rem_pio2+0x8bc>
80008b1c:	00341713          	slli	a4,s0,0x3
80008b20:	12010793          	addi	a5,sp,288
80008b24:	00e78733          	add	a4,a5,a4
80008b28:	00072603          	lw	a2,0(a4)
80008b2c:	00472683          	lw	a3,4(a4)
80008b30:	fff40413          	addi	s0,s0,-1
80008b34:	fd8f70ef          	jal	ra,8000030c <__adddf3>
80008b38:	fe0452e3          	bgez	s0,80008b1c <__kernel_rem_pio2+0x8e4>
80008b3c:	00058713          	mv	a4,a1
80008b40:	00090663          	beqz	s2,80008b4c <__kernel_rem_pio2+0x914>
80008b44:	80000737          	lui	a4,0x80000
80008b48:	00b74733          	xor	a4,a4,a1
80008b4c:	00a4a023          	sw	a0,0(s1)
80008b50:	00050613          	mv	a2,a0
80008b54:	00058693          	mv	a3,a1
80008b58:	12012503          	lw	a0,288(sp)
80008b5c:	12412583          	lw	a1,292(sp)
80008b60:	00e4a223          	sw	a4,4(s1)
80008b64:	12010413          	addi	s0,sp,288
80008b68:	f11f80ef          	jal	ra,80001a78 <__subdf3>
80008b6c:	00100993          	li	s3,1
80008b70:	00840413          	addi	s0,s0,8
80008b74:	033a5663          	bge	s4,s3,80008ba0 <__kernel_rem_pio2+0x968>
80008b78:	00090663          	beqz	s2,80008b84 <__kernel_rem_pio2+0x94c>
80008b7c:	800007b7          	lui	a5,0x80000
80008b80:	00b7c5b3          	xor	a1,a5,a1
80008b84:	00a4a423          	sw	a0,8(s1)
80008b88:	00b4a623          	sw	a1,12(s1)
80008b8c:	e91ff06f          	j	80008a1c <__kernel_rem_pio2+0x7e4>
80008b90:	000a0413          	mv	s0,s4
80008b94:	00000513          	li	a0,0
80008b98:	00000593          	li	a1,0
80008b9c:	f9dff06f          	j	80008b38 <__kernel_rem_pio2+0x900>
80008ba0:	00042603          	lw	a2,0(s0)
80008ba4:	00442683          	lw	a3,4(s0)
80008ba8:	00198993          	addi	s3,s3,1
80008bac:	f60f70ef          	jal	ra,8000030c <__adddf3>
80008bb0:	fc1ff06f          	j	80008b70 <__kernel_rem_pio2+0x938>
80008bb4:	0009ac03          	lw	s8,0(s3)
80008bb8:	0049ac83          	lw	s9,4(s3)
80008bbc:	0089ab03          	lw	s6,8(s3)
80008bc0:	00c9ab83          	lw	s7,12(s3)
80008bc4:	000c0513          	mv	a0,s8
80008bc8:	000b0613          	mv	a2,s6
80008bcc:	000b8693          	mv	a3,s7
80008bd0:	000c8593          	mv	a1,s9
80008bd4:	f38f70ef          	jal	ra,8000030c <__adddf3>
80008bd8:	00050613          	mv	a2,a0
80008bdc:	00058693          	mv	a3,a1
80008be0:	00050d13          	mv	s10,a0
80008be4:	00058a93          	mv	s5,a1
80008be8:	000c0513          	mv	a0,s8
80008bec:	000c8593          	mv	a1,s9
80008bf0:	e89f80ef          	jal	ra,80001a78 <__subdf3>
80008bf4:	000b0613          	mv	a2,s6
80008bf8:	000b8693          	mv	a3,s7
80008bfc:	f10f70ef          	jal	ra,8000030c <__adddf3>
80008c00:	fffd8d93          	addi	s11,s11,-1
80008c04:	00a9a423          	sw	a0,8(s3)
80008c08:	00b9a623          	sw	a1,12(s3)
80008c0c:	01a9a023          	sw	s10,0(s3)
80008c10:	0159a223          	sw	s5,4(s3)
80008c14:	e69ff06f          	j	80008a7c <__kernel_rem_pio2+0x844>
80008c18:	00042c03          	lw	s8,0(s0)
80008c1c:	00442c83          	lw	s9,4(s0)
80008c20:	00842b03          	lw	s6,8(s0)
80008c24:	00c42b83          	lw	s7,12(s0)
80008c28:	000c0513          	mv	a0,s8
80008c2c:	000b0613          	mv	a2,s6
80008c30:	000b8693          	mv	a3,s7
80008c34:	000c8593          	mv	a1,s9
80008c38:	ed4f70ef          	jal	ra,8000030c <__adddf3>
80008c3c:	00050613          	mv	a2,a0
80008c40:	00058693          	mv	a3,a1
80008c44:	00050a93          	mv	s5,a0
80008c48:	00058993          	mv	s3,a1
80008c4c:	000c0513          	mv	a0,s8
80008c50:	000c8593          	mv	a1,s9
80008c54:	e25f80ef          	jal	ra,80001a78 <__subdf3>
80008c58:	000b0613          	mv	a2,s6
80008c5c:	000b8693          	mv	a3,s7
80008c60:	eacf70ef          	jal	ra,8000030c <__adddf3>
80008c64:	fffd0d13          	addi	s10,s10,-1
80008c68:	00a42423          	sw	a0,8(s0)
80008c6c:	00b42623          	sw	a1,12(s0)
80008c70:	01542023          	sw	s5,0(s0)
80008c74:	01342223          	sw	s3,4(s0)
80008c78:	e15ff06f          	j	80008a8c <__kernel_rem_pio2+0x854>
80008c7c:	003a1713          	slli	a4,s4,0x3
80008c80:	12010793          	addi	a5,sp,288
80008c84:	00e78733          	add	a4,a5,a4
80008c88:	00072603          	lw	a2,0(a4) # 80000000 <__global_pointer$+0xffff55b0>
80008c8c:	00472683          	lw	a3,4(a4)
80008c90:	fffa0a13          	addi	s4,s4,-1
80008c94:	e78f70ef          	jal	ra,8000030c <__adddf3>
80008c98:	e09ff06f          	j	80008aa0 <__kernel_rem_pio2+0x868>
80008c9c:	00f4a023          	sw	a5,0(s1)
80008ca0:	800007b7          	lui	a5,0x80000
80008ca4:	00d7c6b3          	xor	a3,a5,a3
80008ca8:	00e7c733          	xor	a4,a5,a4
80008cac:	00d4a223          	sw	a3,4(s1)
80008cb0:	00c4a423          	sw	a2,8(s1)
80008cb4:	00e4a623          	sw	a4,12(s1)
80008cb8:	00a4a823          	sw	a0,16(s1)
80008cbc:	00b7c7b3          	xor	a5,a5,a1
80008cc0:	e11ff06f          	j	80008ad0 <__kernel_rem_pio2+0x898>

80008cc4 <__kernel_tan>:
80008cc4:	fb010113          	addi	sp,sp,-80
80008cc8:	800007b7          	lui	a5,0x80000
80008ccc:	03512a23          	sw	s5,52(sp)
80008cd0:	fff7ca93          	not	s5,a5
80008cd4:	04812423          	sw	s0,72(sp)
80008cd8:	04912223          	sw	s1,68(sp)
80008cdc:	03412c23          	sw	s4,56(sp)
80008ce0:	03812423          	sw	s8,40(sp)
80008ce4:	03a12023          	sw	s10,32(sp)
80008ce8:	00070a13          	mv	s4,a4
80008cec:	04112623          	sw	ra,76(sp)
80008cf0:	05212023          	sw	s2,64(sp)
80008cf4:	03312e23          	sw	s3,60(sp)
80008cf8:	03612823          	sw	s6,48(sp)
80008cfc:	03712623          	sw	s7,44(sp)
80008d00:	03912223          	sw	s9,36(sp)
80008d04:	01b12e23          	sw	s11,28(sp)
80008d08:	00b12223          	sw	a1,4(sp)
80008d0c:	0155fab3          	and	s5,a1,s5
80008d10:	3e300737          	lui	a4,0x3e300
80008d14:	00050d13          	mv	s10,a0
80008d18:	00058413          	mv	s0,a1
80008d1c:	00060c13          	mv	s8,a2
80008d20:	00068493          	mv	s1,a3
80008d24:	16ead063          	bge	s5,a4,80008e84 <__kernel_tan+0x1c0>
80008d28:	d40f90ef          	jal	ra,80002268 <__fixdfsi>
80008d2c:	1a051e63          	bnez	a0,80008ee8 <__kernel_tan+0x224>
80008d30:	001a0793          	addi	a5,s4,1
80008d34:	01a7e7b3          	or	a5,a5,s10
80008d38:	0157e7b3          	or	a5,a5,s5
80008d3c:	06079863          	bnez	a5,80008dac <__kernel_tan+0xe8>
80008d40:	000d0513          	mv	a0,s10
80008d44:	00040593          	mv	a1,s0
80008d48:	5ac000ef          	jal	ra,800092f4 <fabs>
80008d4c:	00050613          	mv	a2,a0
80008d50:	00058693          	mv	a3,a1
80008d54:	8d81a503          	lw	a0,-1832(gp) # 8000a328 <_ZL15forceduartflush+0xc0>
80008d58:	8dc1a583          	lw	a1,-1828(gp) # 8000a32c <_ZL15forceduartflush+0xc4>
80008d5c:	d8df70ef          	jal	ra,80000ae8 <__divdf3>
80008d60:	00050d13          	mv	s10,a0
80008d64:	00058413          	mv	s0,a1
80008d68:	04c12083          	lw	ra,76(sp)
80008d6c:	00040593          	mv	a1,s0
80008d70:	04812403          	lw	s0,72(sp)
80008d74:	04412483          	lw	s1,68(sp)
80008d78:	04012903          	lw	s2,64(sp)
80008d7c:	03c12983          	lw	s3,60(sp)
80008d80:	03812a03          	lw	s4,56(sp)
80008d84:	03412a83          	lw	s5,52(sp)
80008d88:	03012b03          	lw	s6,48(sp)
80008d8c:	02c12b83          	lw	s7,44(sp)
80008d90:	02812c03          	lw	s8,40(sp)
80008d94:	02412c83          	lw	s9,36(sp)
80008d98:	01c12d83          	lw	s11,28(sp)
80008d9c:	000d0513          	mv	a0,s10
80008da0:	02012d03          	lw	s10,32(sp)
80008da4:	05010113          	addi	sp,sp,80
80008da8:	00008067          	ret
80008dac:	00100793          	li	a5,1
80008db0:	fafa0ce3          	beq	s4,a5,80008d68 <__kernel_tan+0xa4>
80008db4:	00048693          	mv	a3,s1
80008db8:	000c0613          	mv	a2,s8
80008dbc:	000d0513          	mv	a0,s10
80008dc0:	00040593          	mv	a1,s0
80008dc4:	d48f70ef          	jal	ra,8000030c <__adddf3>
80008dc8:	00058b13          	mv	s6,a1
80008dcc:	00050613          	mv	a2,a0
80008dd0:	00058693          	mv	a3,a1
80008dd4:	9c81a503          	lw	a0,-1592(gp) # 8000a418 <dp_l+0x24>
80008dd8:	9cc1a583          	lw	a1,-1588(gp) # 8000a41c <dp_l+0x28>
80008ddc:	00000b93          	li	s7,0
80008de0:	00048a13          	mv	s4,s1
80008de4:	d05f70ef          	jal	ra,80000ae8 <__divdf3>
80008de8:	00058913          	mv	s2,a1
80008dec:	00050993          	mv	s3,a0
80008df0:	000d0613          	mv	a2,s10
80008df4:	00040693          	mv	a3,s0
80008df8:	000b8513          	mv	a0,s7
80008dfc:	000b0593          	mv	a1,s6
80008e00:	c79f80ef          	jal	ra,80001a78 <__subdf3>
80008e04:	000c0a93          	mv	s5,s8
80008e08:	00050613          	mv	a2,a0
80008e0c:	00058693          	mv	a3,a1
80008e10:	000a8513          	mv	a0,s5
80008e14:	000a0593          	mv	a1,s4
80008e18:	c61f80ef          	jal	ra,80001a78 <__subdf3>
80008e1c:	00000493          	li	s1,0
80008e20:	00048613          	mv	a2,s1
80008e24:	00090693          	mv	a3,s2
80008e28:	d84f80ef          	jal	ra,800013ac <__muldf3>
80008e2c:	00050a93          	mv	s5,a0
80008e30:	00058a13          	mv	s4,a1
80008e34:	00048613          	mv	a2,s1
80008e38:	00090693          	mv	a3,s2
80008e3c:	000b8513          	mv	a0,s7
80008e40:	000b0593          	mv	a1,s6
80008e44:	d68f80ef          	jal	ra,800013ac <__muldf3>
80008e48:	8d81a603          	lw	a2,-1832(gp) # 8000a328 <_ZL15forceduartflush+0xc0>
80008e4c:	8dc1a683          	lw	a3,-1828(gp) # 8000a32c <_ZL15forceduartflush+0xc4>
80008e50:	cbcf70ef          	jal	ra,8000030c <__adddf3>
80008e54:	00050613          	mv	a2,a0
80008e58:	00058693          	mv	a3,a1
80008e5c:	000a8513          	mv	a0,s5
80008e60:	000a0593          	mv	a1,s4
80008e64:	ca8f70ef          	jal	ra,8000030c <__adddf3>
80008e68:	00098613          	mv	a2,s3
80008e6c:	00090693          	mv	a3,s2
80008e70:	d3cf80ef          	jal	ra,800013ac <__muldf3>
80008e74:	00048613          	mv	a2,s1
80008e78:	00090693          	mv	a3,s2
80008e7c:	c90f70ef          	jal	ra,8000030c <__adddf3>
80008e80:	ee1ff06f          	j	80008d60 <__kernel_tan+0x9c>
80008e84:	3fe59737          	lui	a4,0x3fe59
80008e88:	42770713          	addi	a4,a4,1063 # 3fe59427 <_start-0x401a6bd9>
80008e8c:	05575e63          	bge	a4,s5,80008ee8 <__kernel_tan+0x224>
80008e90:	0005d663          	bgez	a1,80008e9c <__kernel_tan+0x1d8>
80008e94:	00b7c433          	xor	s0,a5,a1
80008e98:	00d7c4b3          	xor	s1,a5,a3
80008e9c:	9d01a503          	lw	a0,-1584(gp) # 8000a420 <dp_l+0x2c>
80008ea0:	9d41a583          	lw	a1,-1580(gp) # 8000a424 <dp_l+0x30>
80008ea4:	000d0613          	mv	a2,s10
80008ea8:	00040693          	mv	a3,s0
80008eac:	bcdf80ef          	jal	ra,80001a78 <__subdf3>
80008eb0:	00058413          	mv	s0,a1
80008eb4:	00050913          	mv	s2,a0
80008eb8:	9dc1a583          	lw	a1,-1572(gp) # 8000a42c <dp_l+0x38>
80008ebc:	9d81a503          	lw	a0,-1576(gp) # 8000a428 <dp_l+0x34>
80008ec0:	000c0613          	mv	a2,s8
80008ec4:	00048693          	mv	a3,s1
80008ec8:	bb1f80ef          	jal	ra,80001a78 <__subdf3>
80008ecc:	00040693          	mv	a3,s0
80008ed0:	00090613          	mv	a2,s2
80008ed4:	c38f70ef          	jal	ra,8000030c <__adddf3>
80008ed8:	00050d13          	mv	s10,a0
80008edc:	00058413          	mv	s0,a1
80008ee0:	00000c13          	li	s8,0
80008ee4:	00000493          	li	s1,0
80008ee8:	000d0613          	mv	a2,s10
80008eec:	00040693          	mv	a3,s0
80008ef0:	000d0513          	mv	a0,s10
80008ef4:	00040593          	mv	a1,s0
80008ef8:	cb4f80ef          	jal	ra,800013ac <__muldf3>
80008efc:	00050613          	mv	a2,a0
80008f00:	00058693          	mv	a3,a1
80008f04:	00058b13          	mv	s6,a1
80008f08:	00050c93          	mv	s9,a0
80008f0c:	ca0f80ef          	jal	ra,800013ac <__muldf3>
80008f10:	00058913          	mv	s2,a1
80008f14:	00050993          	mv	s3,a0
80008f18:	000b0693          	mv	a3,s6
80008f1c:	000c8613          	mv	a2,s9
80008f20:	000d0513          	mv	a0,s10
80008f24:	00040593          	mv	a1,s0
80008f28:	c84f80ef          	jal	ra,800013ac <__muldf3>
80008f2c:	9e01a603          	lw	a2,-1568(gp) # 8000a430 <dp_l+0x3c>
80008f30:	9e41a683          	lw	a3,-1564(gp) # 8000a434 <dp_l+0x40>
80008f34:	00050d93          	mv	s11,a0
80008f38:	00058b93          	mv	s7,a1
80008f3c:	00098513          	mv	a0,s3
80008f40:	00090593          	mv	a1,s2
80008f44:	c68f80ef          	jal	ra,800013ac <__muldf3>
80008f48:	9e81a603          	lw	a2,-1560(gp) # 8000a438 <dp_l+0x44>
80008f4c:	9ec1a683          	lw	a3,-1556(gp) # 8000a43c <dp_l+0x48>
80008f50:	bbcf70ef          	jal	ra,8000030c <__adddf3>
80008f54:	00090693          	mv	a3,s2
80008f58:	00098613          	mv	a2,s3
80008f5c:	c50f80ef          	jal	ra,800013ac <__muldf3>
80008f60:	9f01a603          	lw	a2,-1552(gp) # 8000a440 <dp_l+0x4c>
80008f64:	9f41a683          	lw	a3,-1548(gp) # 8000a444 <dp_l+0x50>
80008f68:	ba4f70ef          	jal	ra,8000030c <__adddf3>
80008f6c:	00090693          	mv	a3,s2
80008f70:	00098613          	mv	a2,s3
80008f74:	c38f80ef          	jal	ra,800013ac <__muldf3>
80008f78:	9f81a603          	lw	a2,-1544(gp) # 8000a448 <dp_l+0x54>
80008f7c:	9fc1a683          	lw	a3,-1540(gp) # 8000a44c <dp_l+0x58>
80008f80:	b8cf70ef          	jal	ra,8000030c <__adddf3>
80008f84:	00090693          	mv	a3,s2
80008f88:	00098613          	mv	a2,s3
80008f8c:	c20f80ef          	jal	ra,800013ac <__muldf3>
80008f90:	a001a603          	lw	a2,-1536(gp) # 8000a450 <dp_l+0x5c>
80008f94:	a041a683          	lw	a3,-1532(gp) # 8000a454 <dp_l+0x60>
80008f98:	b74f70ef          	jal	ra,8000030c <__adddf3>
80008f9c:	00090693          	mv	a3,s2
80008fa0:	00098613          	mv	a2,s3
80008fa4:	c08f80ef          	jal	ra,800013ac <__muldf3>
80008fa8:	a081a603          	lw	a2,-1528(gp) # 8000a458 <dp_l+0x64>
80008fac:	a0c1a683          	lw	a3,-1524(gp) # 8000a45c <dp_l+0x68>
80008fb0:	b5cf70ef          	jal	ra,8000030c <__adddf3>
80008fb4:	000b0693          	mv	a3,s6
80008fb8:	000c8613          	mv	a2,s9
80008fbc:	bf0f80ef          	jal	ra,800013ac <__muldf3>
80008fc0:	a101a603          	lw	a2,-1520(gp) # 8000a460 <dp_l+0x6c>
80008fc4:	a141a683          	lw	a3,-1516(gp) # 8000a464 <dp_l+0x70>
80008fc8:	00a12623          	sw	a0,12(sp)
80008fcc:	00b12423          	sw	a1,8(sp)
80008fd0:	00098513          	mv	a0,s3
80008fd4:	00090593          	mv	a1,s2
80008fd8:	bd4f80ef          	jal	ra,800013ac <__muldf3>
80008fdc:	a181a603          	lw	a2,-1512(gp) # 8000a468 <dp_l+0x74>
80008fe0:	a1c1a683          	lw	a3,-1508(gp) # 8000a46c <dp_l+0x78>
80008fe4:	b28f70ef          	jal	ra,8000030c <__adddf3>
80008fe8:	00090693          	mv	a3,s2
80008fec:	00098613          	mv	a2,s3
80008ff0:	bbcf80ef          	jal	ra,800013ac <__muldf3>
80008ff4:	a201a603          	lw	a2,-1504(gp) # 8000a470 <dp_l+0x7c>
80008ff8:	a241a683          	lw	a3,-1500(gp) # 8000a474 <dp_l+0x80>
80008ffc:	b10f70ef          	jal	ra,8000030c <__adddf3>
80009000:	00090693          	mv	a3,s2
80009004:	00098613          	mv	a2,s3
80009008:	ba4f80ef          	jal	ra,800013ac <__muldf3>
8000900c:	a281a603          	lw	a2,-1496(gp) # 8000a478 <dp_l+0x84>
80009010:	a2c1a683          	lw	a3,-1492(gp) # 8000a47c <dp_l+0x88>
80009014:	af8f70ef          	jal	ra,8000030c <__adddf3>
80009018:	00090693          	mv	a3,s2
8000901c:	00098613          	mv	a2,s3
80009020:	b8cf80ef          	jal	ra,800013ac <__muldf3>
80009024:	a301a603          	lw	a2,-1488(gp) # 8000a480 <dp_l+0x8c>
80009028:	a341a683          	lw	a3,-1484(gp) # 8000a484 <dp_l+0x90>
8000902c:	ae0f70ef          	jal	ra,8000030c <__adddf3>
80009030:	00090693          	mv	a3,s2
80009034:	00098613          	mv	a2,s3
80009038:	b74f80ef          	jal	ra,800013ac <__muldf3>
8000903c:	a381a603          	lw	a2,-1480(gp) # 8000a488 <dp_l+0x94>
80009040:	a3c1a683          	lw	a3,-1476(gp) # 8000a48c <dp_l+0x98>
80009044:	ac8f70ef          	jal	ra,8000030c <__adddf3>
80009048:	00c12703          	lw	a4,12(sp)
8000904c:	00812783          	lw	a5,8(sp)
80009050:	00050613          	mv	a2,a0
80009054:	00058693          	mv	a3,a1
80009058:	00070513          	mv	a0,a4
8000905c:	00078593          	mv	a1,a5
80009060:	aacf70ef          	jal	ra,8000030c <__adddf3>
80009064:	000d8613          	mv	a2,s11
80009068:	000b8693          	mv	a3,s7
8000906c:	b40f80ef          	jal	ra,800013ac <__muldf3>
80009070:	000c0613          	mv	a2,s8
80009074:	00048693          	mv	a3,s1
80009078:	a94f70ef          	jal	ra,8000030c <__adddf3>
8000907c:	000b0693          	mv	a3,s6
80009080:	000c8613          	mv	a2,s9
80009084:	b28f80ef          	jal	ra,800013ac <__muldf3>
80009088:	000c0613          	mv	a2,s8
8000908c:	00048693          	mv	a3,s1
80009090:	a7cf70ef          	jal	ra,8000030c <__adddf3>
80009094:	a401a603          	lw	a2,-1472(gp) # 8000a490 <dp_l+0x9c>
80009098:	a441a683          	lw	a3,-1468(gp) # 8000a494 <dp_l+0xa0>
8000909c:	00050913          	mv	s2,a0
800090a0:	00058493          	mv	s1,a1
800090a4:	000d8513          	mv	a0,s11
800090a8:	000b8593          	mv	a1,s7
800090ac:	b00f80ef          	jal	ra,800013ac <__muldf3>
800090b0:	00090613          	mv	a2,s2
800090b4:	00048693          	mv	a3,s1
800090b8:	a54f70ef          	jal	ra,8000030c <__adddf3>
800090bc:	00050613          	mv	a2,a0
800090c0:	00058693          	mv	a3,a1
800090c4:	00050c13          	mv	s8,a0
800090c8:	00058b13          	mv	s6,a1
800090cc:	000d0513          	mv	a0,s10
800090d0:	00040593          	mv	a1,s0
800090d4:	a38f70ef          	jal	ra,8000030c <__adddf3>
800090d8:	3fe597b7          	lui	a5,0x3fe59
800090dc:	42778793          	addi	a5,a5,1063 # 3fe59427 <_start-0x401a6bd9>
800090e0:	00050913          	mv	s2,a0
800090e4:	00058493          	mv	s1,a1
800090e8:	0d57d863          	bge	a5,s5,800091b8 <__kernel_tan+0x4f4>
800090ec:	000a0513          	mv	a0,s4
800090f0:	9f8f90ef          	jal	ra,800022e8 <__floatsidf>
800090f4:	00050a13          	mv	s4,a0
800090f8:	00058993          	mv	s3,a1
800090fc:	00090613          	mv	a2,s2
80009100:	00048693          	mv	a3,s1
80009104:	00090513          	mv	a0,s2
80009108:	00048593          	mv	a1,s1
8000910c:	aa0f80ef          	jal	ra,800013ac <__muldf3>
80009110:	00050c93          	mv	s9,a0
80009114:	00058a93          	mv	s5,a1
80009118:	000a0613          	mv	a2,s4
8000911c:	00098693          	mv	a3,s3
80009120:	00090513          	mv	a0,s2
80009124:	00048593          	mv	a1,s1
80009128:	9e4f70ef          	jal	ra,8000030c <__adddf3>
8000912c:	00050613          	mv	a2,a0
80009130:	00058693          	mv	a3,a1
80009134:	000c8513          	mv	a0,s9
80009138:	000a8593          	mv	a1,s5
8000913c:	9adf70ef          	jal	ra,80000ae8 <__divdf3>
80009140:	000c0613          	mv	a2,s8
80009144:	000b0693          	mv	a3,s6
80009148:	931f80ef          	jal	ra,80001a78 <__subdf3>
8000914c:	00050613          	mv	a2,a0
80009150:	00058693          	mv	a3,a1
80009154:	000d0513          	mv	a0,s10
80009158:	00040593          	mv	a1,s0
8000915c:	91df80ef          	jal	ra,80001a78 <__subdf3>
80009160:	00050613          	mv	a2,a0
80009164:	00058693          	mv	a3,a1
80009168:	9a4f70ef          	jal	ra,8000030c <__adddf3>
8000916c:	00050613          	mv	a2,a0
80009170:	00058693          	mv	a3,a1
80009174:	000a0513          	mv	a0,s4
80009178:	00098593          	mv	a1,s3
8000917c:	8fdf80ef          	jal	ra,80001a78 <__subdf3>
80009180:	00412783          	lw	a5,4(sp)
80009184:	00050493          	mv	s1,a0
80009188:	00100513          	li	a0,1
8000918c:	41e7d793          	srai	a5,a5,0x1e
80009190:	0027f793          	andi	a5,a5,2
80009194:	40f50533          	sub	a0,a0,a5
80009198:	00058413          	mv	s0,a1
8000919c:	94cf90ef          	jal	ra,800022e8 <__floatsidf>
800091a0:	00050613          	mv	a2,a0
800091a4:	00058693          	mv	a3,a1
800091a8:	00048513          	mv	a0,s1
800091ac:	00040593          	mv	a1,s0
800091b0:	9fcf80ef          	jal	ra,800013ac <__muldf3>
800091b4:	badff06f          	j	80008d60 <__kernel_tan+0x9c>
800091b8:	00100793          	li	a5,1
800091bc:	0afa0a63          	beq	s4,a5,80009270 <__kernel_tan+0x5ac>
800091c0:	00058a93          	mv	s5,a1
800091c4:	00050613          	mv	a2,a0
800091c8:	00058693          	mv	a3,a1
800091cc:	9c81a503          	lw	a0,-1592(gp) # 8000a418 <dp_l+0x24>
800091d0:	9cc1a583          	lw	a1,-1588(gp) # 8000a41c <dp_l+0x28>
800091d4:	00000b93          	li	s7,0
800091d8:	00000913          	li	s2,0
800091dc:	90df70ef          	jal	ra,80000ae8 <__divdf3>
800091e0:	00058993          	mv	s3,a1
800091e4:	00040693          	mv	a3,s0
800091e8:	00050a13          	mv	s4,a0
800091ec:	000d0613          	mv	a2,s10
800091f0:	000b8513          	mv	a0,s7
800091f4:	000a8593          	mv	a1,s5
800091f8:	881f80ef          	jal	ra,80001a78 <__subdf3>
800091fc:	00050613          	mv	a2,a0
80009200:	00058693          	mv	a3,a1
80009204:	000c0513          	mv	a0,s8
80009208:	000b0593          	mv	a1,s6
8000920c:	86df80ef          	jal	ra,80001a78 <__subdf3>
80009210:	00090613          	mv	a2,s2
80009214:	00098693          	mv	a3,s3
80009218:	994f80ef          	jal	ra,800013ac <__muldf3>
8000921c:	00050b13          	mv	s6,a0
80009220:	00058413          	mv	s0,a1
80009224:	00090613          	mv	a2,s2
80009228:	00098693          	mv	a3,s3
8000922c:	000b8513          	mv	a0,s7
80009230:	000a8593          	mv	a1,s5
80009234:	978f80ef          	jal	ra,800013ac <__muldf3>
80009238:	8d81a603          	lw	a2,-1832(gp) # 8000a328 <_ZL15forceduartflush+0xc0>
8000923c:	8dc1a683          	lw	a3,-1828(gp) # 8000a32c <_ZL15forceduartflush+0xc4>
80009240:	8ccf70ef          	jal	ra,8000030c <__adddf3>
80009244:	00050613          	mv	a2,a0
80009248:	00058693          	mv	a3,a1
8000924c:	000b0513          	mv	a0,s6
80009250:	00040593          	mv	a1,s0
80009254:	8b8f70ef          	jal	ra,8000030c <__adddf3>
80009258:	000a0613          	mv	a2,s4
8000925c:	00098693          	mv	a3,s3
80009260:	94cf80ef          	jal	ra,800013ac <__muldf3>
80009264:	00090613          	mv	a2,s2
80009268:	00098693          	mv	a3,s3
8000926c:	c11ff06f          	j	80008e7c <__kernel_tan+0x1b8>
80009270:	00050d13          	mv	s10,a0
80009274:	00058413          	mv	s0,a1
80009278:	af1ff06f          	j	80008d68 <__kernel_tan+0xa4>

8000927c <with_errnof>:
8000927c:	ff010113          	addi	sp,sp,-16
80009280:	00812423          	sw	s0,8(sp)
80009284:	00912223          	sw	s1,4(sp)
80009288:	00112623          	sw	ra,12(sp)
8000928c:	00050413          	mv	s0,a0
80009290:	00058493          	mv	s1,a1
80009294:	dfdf60ef          	jal	ra,80000090 <__errno>
80009298:	00952023          	sw	s1,0(a0) # 80000000 <__global_pointer$+0xffff55b0>
8000929c:	00c12083          	lw	ra,12(sp)
800092a0:	00040513          	mv	a0,s0
800092a4:	00812403          	lw	s0,8(sp)
800092a8:	00412483          	lw	s1,4(sp)
800092ac:	01010113          	addi	sp,sp,16
800092b0:	00008067          	ret

800092b4 <xflowf>:
800092b4:	ff010113          	addi	sp,sp,-16
800092b8:	00112623          	sw	ra,12(sp)
800092bc:	02050063          	beqz	a0,800092dc <xflowf+0x28>
800092c0:	80000537          	lui	a0,0x80000
800092c4:	00b54533          	xor	a0,a0,a1
800092c8:	a19f90ef          	jal	ra,80002ce0 <__mulsf3>
800092cc:	00c12083          	lw	ra,12(sp)
800092d0:	02200593          	li	a1,34
800092d4:	01010113          	addi	sp,sp,16
800092d8:	fa5ff06f          	j	8000927c <with_errnof>
800092dc:	00058513          	mv	a0,a1
800092e0:	fe9ff06f          	j	800092c8 <xflowf+0x14>

800092e4 <__math_uflowf>:
800092e4:	a481a583          	lw	a1,-1464(gp) # 8000a498 <dp_l+0xa4>
800092e8:	fcdff06f          	j	800092b4 <xflowf>

800092ec <__math_oflowf>:
800092ec:	a4c1a583          	lw	a1,-1460(gp) # 8000a49c <dp_l+0xa8>
800092f0:	fc5ff06f          	j	800092b4 <xflowf>

800092f4 <fabs>:
800092f4:	00159593          	slli	a1,a1,0x1
800092f8:	00050713          	mv	a4,a0
800092fc:	0015d793          	srli	a5,a1,0x1
80009300:	00070513          	mv	a0,a4
80009304:	00078593          	mv	a1,a5
80009308:	00008067          	ret

8000930c <floor>:
8000930c:	4145d693          	srai	a3,a1,0x14
80009310:	fe010113          	addi	sp,sp,-32
80009314:	7ff6f693          	andi	a3,a3,2047
80009318:	00812c23          	sw	s0,24(sp)
8000931c:	00912a23          	sw	s1,20(sp)
80009320:	01412423          	sw	s4,8(sp)
80009324:	01512223          	sw	s5,4(sp)
80009328:	00112e23          	sw	ra,28(sp)
8000932c:	01212823          	sw	s2,16(sp)
80009330:	01312623          	sw	s3,12(sp)
80009334:	c0168493          	addi	s1,a3,-1023
80009338:	01300613          	li	a2,19
8000933c:	00050713          	mv	a4,a0
80009340:	00058793          	mv	a5,a1
80009344:	00058413          	mv	s0,a1
80009348:	00050a93          	mv	s5,a0
8000934c:	00050a13          	mv	s4,a0
80009350:	0a964063          	blt	a2,s1,800093f0 <floor+0xe4>
80009354:	0404d663          	bgez	s1,800093a0 <floor+0x94>
80009358:	a501a603          	lw	a2,-1456(gp) # 8000a4a0 <dp_l+0xac>
8000935c:	a541a683          	lw	a3,-1452(gp) # 8000a4a4 <dp_l+0xb0>
80009360:	fadf60ef          	jal	ra,8000030c <__adddf3>
80009364:	00000613          	li	a2,0
80009368:	00000693          	li	a3,0
8000936c:	f5df70ef          	jal	ra,800012c8 <__gedf2>
80009370:	02a05263          	blez	a0,80009394 <floor+0x88>
80009374:	12045a63          	bgez	s0,800094a8 <floor+0x19c>
80009378:	00141413          	slli	s0,s0,0x1
8000937c:	00145413          	srli	s0,s0,0x1
80009380:	008aea33          	or	s4,s5,s0
80009384:	80000437          	lui	s0,0x80000
80009388:	000a0663          	beqz	s4,80009394 <floor+0x88>
8000938c:	00000a13          	li	s4,0
80009390:	bff00437          	lui	s0,0xbff00
80009394:	000a0713          	mv	a4,s4
80009398:	00040793          	mv	a5,s0
8000939c:	0780006f          	j	80009414 <floor+0x108>
800093a0:	001009b7          	lui	s3,0x100
800093a4:	fff98913          	addi	s2,s3,-1 # fffff <_start-0x7ff00001>
800093a8:	40995933          	sra	s2,s2,s1
800093ac:	0125f6b3          	and	a3,a1,s2
800093b0:	00a6e6b3          	or	a3,a3,a0
800093b4:	06068063          	beqz	a3,80009414 <floor+0x108>
800093b8:	a501a603          	lw	a2,-1456(gp) # 8000a4a0 <dp_l+0xac>
800093bc:	a541a683          	lw	a3,-1452(gp) # 8000a4a4 <dp_l+0xb0>
800093c0:	f4df60ef          	jal	ra,8000030c <__adddf3>
800093c4:	00000613          	li	a2,0
800093c8:	00000693          	li	a3,0
800093cc:	efdf70ef          	jal	ra,800012c8 <__gedf2>
800093d0:	fca052e3          	blez	a0,80009394 <floor+0x88>
800093d4:	00045663          	bgez	s0,800093e0 <floor+0xd4>
800093d8:	4099d9b3          	sra	s3,s3,s1
800093dc:	01340433          	add	s0,s0,s3
800093e0:	fff94913          	not	s2,s2
800093e4:	01247433          	and	s0,s0,s2
800093e8:	00000a13          	li	s4,0
800093ec:	fa9ff06f          	j	80009394 <floor+0x88>
800093f0:	03300613          	li	a2,51
800093f4:	04965663          	bge	a2,s1,80009440 <floor+0x134>
800093f8:	40000693          	li	a3,1024
800093fc:	00d49c63          	bne	s1,a3,80009414 <floor+0x108>
80009400:	00050613          	mv	a2,a0
80009404:	00058693          	mv	a3,a1
80009408:	f05f60ef          	jal	ra,8000030c <__adddf3>
8000940c:	00050713          	mv	a4,a0
80009410:	00058793          	mv	a5,a1
80009414:	01c12083          	lw	ra,28(sp)
80009418:	01812403          	lw	s0,24(sp)
8000941c:	01412483          	lw	s1,20(sp)
80009420:	01012903          	lw	s2,16(sp)
80009424:	00c12983          	lw	s3,12(sp)
80009428:	00812a03          	lw	s4,8(sp)
8000942c:	00412a83          	lw	s5,4(sp)
80009430:	00070513          	mv	a0,a4
80009434:	00078593          	mv	a1,a5
80009438:	02010113          	addi	sp,sp,32
8000943c:	00008067          	ret
80009440:	bed68693          	addi	a3,a3,-1043
80009444:	fff00913          	li	s2,-1
80009448:	00d95933          	srl	s2,s2,a3
8000944c:	012576b3          	and	a3,a0,s2
80009450:	fc0682e3          	beqz	a3,80009414 <floor+0x108>
80009454:	a501a603          	lw	a2,-1456(gp) # 8000a4a0 <dp_l+0xac>
80009458:	a541a683          	lw	a3,-1452(gp) # 8000a4a4 <dp_l+0xb0>
8000945c:	eb1f60ef          	jal	ra,8000030c <__adddf3>
80009460:	00000613          	li	a2,0
80009464:	00000693          	li	a3,0
80009468:	e61f70ef          	jal	ra,800012c8 <__gedf2>
8000946c:	f2a054e3          	blez	a0,80009394 <floor+0x88>
80009470:	02045663          	bgez	s0,8000949c <floor+0x190>
80009474:	01400793          	li	a5,20
80009478:	00f49663          	bne	s1,a5,80009484 <floor+0x178>
8000947c:	00140413          	addi	s0,s0,1 # bff00001 <__global_pointer$+0x3fef55b1>
80009480:	01c0006f          	j	8000949c <floor+0x190>
80009484:	03400713          	li	a4,52
80009488:	40970733          	sub	a4,a4,s1
8000948c:	00100793          	li	a5,1
80009490:	00e797b3          	sll	a5,a5,a4
80009494:	00fa8a33          	add	s4,s5,a5
80009498:	ff5a62e3          	bltu	s4,s5,8000947c <floor+0x170>
8000949c:	fff94913          	not	s2,s2
800094a0:	012a7a33          	and	s4,s4,s2
800094a4:	ef1ff06f          	j	80009394 <floor+0x88>
800094a8:	00000a13          	li	s4,0
800094ac:	00000413          	li	s0,0
800094b0:	ee5ff06f          	j	80009394 <floor+0x88>

800094b4 <scalbn>:
800094b4:	ff010113          	addi	sp,sp,-16
800094b8:	4145d793          	srai	a5,a1,0x14
800094bc:	00812423          	sw	s0,8(sp)
800094c0:	00112623          	sw	ra,12(sp)
800094c4:	7ff7f793          	andi	a5,a5,2047
800094c8:	00060413          	mv	s0,a2
800094cc:	02079e63          	bnez	a5,80009508 <scalbn+0x54>
800094d0:	00159793          	slli	a5,a1,0x1
800094d4:	0017d793          	srli	a5,a5,0x1
800094d8:	00a7e7b3          	or	a5,a5,a0
800094dc:	04078263          	beqz	a5,80009520 <scalbn+0x6c>
800094e0:	a5c1a683          	lw	a3,-1444(gp) # 8000a4ac <dp_l+0xb8>
800094e4:	a581a603          	lw	a2,-1448(gp) # 8000a4a8 <dp_l+0xb4>
800094e8:	ec5f70ef          	jal	ra,800013ac <__muldf3>
800094ec:	ffff46b7          	lui	a3,0xffff4
800094f0:	cb068693          	addi	a3,a3,-848 # ffff3cb0 <__global_pointer$+0x7ffe9260>
800094f4:	02d45e63          	bge	s0,a3,80009530 <scalbn+0x7c>
800094f8:	a601a603          	lw	a2,-1440(gp) # 8000a4b0 <dp_l+0xbc>
800094fc:	a641a683          	lw	a3,-1436(gp) # 8000a4b4 <dp_l+0xc0>
80009500:	eadf70ef          	jal	ra,800013ac <__muldf3>
80009504:	01c0006f          	j	80009520 <scalbn+0x6c>
80009508:	7ff00693          	li	a3,2047
8000950c:	00058713          	mv	a4,a1
80009510:	02d79863          	bne	a5,a3,80009540 <scalbn+0x8c>
80009514:	00050613          	mv	a2,a0
80009518:	00058693          	mv	a3,a1
8000951c:	df1f60ef          	jal	ra,8000030c <__adddf3>
80009520:	00c12083          	lw	ra,12(sp)
80009524:	00812403          	lw	s0,8(sp)
80009528:	01010113          	addi	sp,sp,16
8000952c:	00008067          	ret
80009530:	4145d793          	srai	a5,a1,0x14
80009534:	7ff7f793          	andi	a5,a5,2047
80009538:	00058713          	mv	a4,a1
8000953c:	fca78793          	addi	a5,a5,-54
80009540:	00f40633          	add	a2,s0,a5
80009544:	7fe00793          	li	a5,2046
80009548:	02c7d663          	bge	a5,a2,80009574 <scalbn+0xc0>
8000954c:	a501a703          	lw	a4,-1456(gp) # 8000a4a0 <dp_l+0xac>
80009550:	a541a783          	lw	a5,-1452(gp) # 8000a4a4 <dp_l+0xb0>
80009554:	0005d663          	bgez	a1,80009560 <scalbn+0xac>
80009558:	a681a703          	lw	a4,-1432(gp) # 8000a4b8 <dp_l+0xc4>
8000955c:	a6c1a783          	lw	a5,-1428(gp) # 8000a4bc <dp_l+0xc8>
80009560:	a501a603          	lw	a2,-1456(gp) # 8000a4a0 <dp_l+0xac>
80009564:	a541a683          	lw	a3,-1452(gp) # 8000a4a4 <dp_l+0xb0>
80009568:	00070513          	mv	a0,a4
8000956c:	00078593          	mv	a1,a5
80009570:	f91ff06f          	j	80009500 <scalbn+0x4c>
80009574:	00c05e63          	blez	a2,80009590 <scalbn+0xdc>
80009578:	801007b7          	lui	a5,0x80100
8000957c:	fff78793          	addi	a5,a5,-1 # 800fffff <__global_pointer$+0xf55af>
80009580:	00f77733          	and	a4,a4,a5
80009584:	01461613          	slli	a2,a2,0x14
80009588:	00c765b3          	or	a1,a4,a2
8000958c:	f95ff06f          	j	80009520 <scalbn+0x6c>
80009590:	fcb00793          	li	a5,-53
80009594:	02f65263          	bge	a2,a5,800095b8 <scalbn+0x104>
80009598:	a601a703          	lw	a4,-1440(gp) # 8000a4b0 <dp_l+0xbc>
8000959c:	a641a783          	lw	a5,-1436(gp) # 8000a4b4 <dp_l+0xc0>
800095a0:	0005d663          	bgez	a1,800095ac <scalbn+0xf8>
800095a4:	a701a703          	lw	a4,-1424(gp) # 8000a4c0 <dp_l+0xcc>
800095a8:	a741a783          	lw	a5,-1420(gp) # 8000a4c4 <dp_l+0xd0>
800095ac:	a601a603          	lw	a2,-1440(gp) # 8000a4b0 <dp_l+0xbc>
800095b0:	a641a683          	lw	a3,-1436(gp) # 8000a4b4 <dp_l+0xc0>
800095b4:	fb5ff06f          	j	80009568 <scalbn+0xb4>
800095b8:	801007b7          	lui	a5,0x80100
800095bc:	fff78793          	addi	a5,a5,-1 # 800fffff <__global_pointer$+0xf55af>
800095c0:	03660613          	addi	a2,a2,54
800095c4:	01461613          	slli	a2,a2,0x14
800095c8:	00f77733          	and	a4,a4,a5
800095cc:	00e667b3          	or	a5,a2,a4
800095d0:	a781a603          	lw	a2,-1416(gp) # 8000a4c8 <dp_l+0xd4>
800095d4:	a7c1a683          	lw	a3,-1412(gp) # 8000a4cc <dp_l+0xd8>
800095d8:	f95ff06f          	j	8000956c <scalbn+0xb8>

800095dc <fabsf>:
800095dc:	00151513          	slli	a0,a0,0x1
800095e0:	00155513          	srli	a0,a0,0x1
800095e4:	00008067          	ret

800095e8 <finitef>:
800095e8:	00151513          	slli	a0,a0,0x1
800095ec:	7f8007b7          	lui	a5,0x7f800
800095f0:	00155513          	srli	a0,a0,0x1
800095f4:	00f52533          	slt	a0,a0,a5
800095f8:	00008067          	ret

800095fc <scalbnf>:
800095fc:	00151613          	slli	a2,a0,0x1
80009600:	00050793          	mv	a5,a0
80009604:	0e060c63          	beqz	a2,800096fc <scalbnf+0x100>
80009608:	ff010113          	addi	sp,sp,-16
8000960c:	00165713          	srli	a4,a2,0x1
80009610:	00112623          	sw	ra,12(sp)
80009614:	00812423          	sw	s0,8(sp)
80009618:	7f800637          	lui	a2,0x7f800
8000961c:	00c76a63          	bltu	a4,a2,80009630 <scalbnf+0x34>
80009620:	00050593          	mv	a1,a0
80009624:	d6df80ef          	jal	ra,80002390 <__addsf3>
80009628:	00050793          	mv	a5,a0
8000962c:	0800006f          	j	800096ac <scalbnf+0xb0>
80009630:	00c576b3          	and	a3,a0,a2
80009634:	00058413          	mv	s0,a1
80009638:	04069a63          	bnez	a3,8000968c <scalbnf+0x90>
8000963c:	a801a583          	lw	a1,-1408(gp) # 8000a4d0 <dp_l+0xdc>
80009640:	ea0f90ef          	jal	ra,80002ce0 <__mulsf3>
80009644:	ffff4737          	lui	a4,0xffff4
80009648:	cb070713          	addi	a4,a4,-848 # ffff3cb0 <__global_pointer$+0x7ffe9260>
8000964c:	00050793          	mv	a5,a0
80009650:	02e44863          	blt	s0,a4,80009680 <scalbnf+0x84>
80009654:	41755713          	srai	a4,a0,0x17
80009658:	0ff77713          	zext.b	a4,a4
8000965c:	fe770713          	addi	a4,a4,-25
80009660:	008705b3          	add	a1,a4,s0
80009664:	0fe00713          	li	a4,254
80009668:	02b75663          	bge	a4,a1,80009694 <scalbnf+0x98>
8000966c:	8281a503          	lw	a0,-2008(gp) # 8000a278 <_ZL15forceduartflush+0x10>
80009670:	0007d463          	bgez	a5,80009678 <scalbnf+0x7c>
80009674:	a881a503          	lw	a0,-1400(gp) # 8000a4d8 <dp_l+0xe4>
80009678:	8281a583          	lw	a1,-2008(gp) # 8000a278 <_ZL15forceduartflush+0x10>
8000967c:	0080006f          	j	80009684 <scalbnf+0x88>
80009680:	a841a583          	lw	a1,-1404(gp) # 8000a4d4 <dp_l+0xe0>
80009684:	e5cf90ef          	jal	ra,80002ce0 <__mulsf3>
80009688:	fa1ff06f          	j	80009628 <scalbnf+0x2c>
8000968c:	01775713          	srli	a4,a4,0x17
80009690:	fd1ff06f          	j	80009660 <scalbnf+0x64>
80009694:	02b05663          	blez	a1,800096c0 <scalbnf+0xc4>
80009698:	808007b7          	lui	a5,0x80800
8000969c:	fff78793          	addi	a5,a5,-1 # 807fffff <__global_pointer$+0x7f55af>
800096a0:	00f57533          	and	a0,a0,a5
800096a4:	01759593          	slli	a1,a1,0x17
800096a8:	00b567b3          	or	a5,a0,a1
800096ac:	00c12083          	lw	ra,12(sp)
800096b0:	00812403          	lw	s0,8(sp)
800096b4:	00078513          	mv	a0,a5
800096b8:	01010113          	addi	sp,sp,16
800096bc:	00008067          	ret
800096c0:	fea00713          	li	a4,-22
800096c4:	00e5dc63          	bge	a1,a4,800096dc <scalbnf+0xe0>
800096c8:	a841a503          	lw	a0,-1404(gp) # 8000a4d4 <dp_l+0xe0>
800096cc:	0007d463          	bgez	a5,800096d4 <scalbnf+0xd8>
800096d0:	a8c1a503          	lw	a0,-1396(gp) # 8000a4dc <dp_l+0xe8>
800096d4:	a841a583          	lw	a1,-1404(gp) # 8000a4d4 <dp_l+0xe0>
800096d8:	fadff06f          	j	80009684 <scalbnf+0x88>
800096dc:	80800737          	lui	a4,0x80800
800096e0:	01958593          	addi	a1,a1,25
800096e4:	fff70713          	addi	a4,a4,-1 # 807fffff <__global_pointer$+0x7f55af>
800096e8:	01759793          	slli	a5,a1,0x17
800096ec:	00e57533          	and	a0,a0,a4
800096f0:	a901a583          	lw	a1,-1392(gp) # 8000a4e0 <dp_l+0xec>
800096f4:	00a7e533          	or	a0,a5,a0
800096f8:	f8dff06f          	j	80009684 <scalbnf+0x88>
800096fc:	00008067          	ret

Disassembly of section .rodata:

80009700 <__clz_tab-0x78>:
80009700:	11ac                	addi	a1,sp,232
80009702:	8000                	0x8000
80009704:	128c                	addi	a1,sp,352
80009706:	8000                	0x8000
80009708:	11bc                	addi	a5,sp,232
8000970a:	8000                	0x8000
8000970c:	128c                	addi	a1,sp,352
8000970e:	8000                	0x8000
80009710:	1298                	addi	a4,sp,352
80009712:	8000                	0x8000
80009714:	128c                	addi	a1,sp,352
80009716:	8000                	0x8000
80009718:	11bc                	addi	a5,sp,232
8000971a:	8000                	0x8000
8000971c:	11ac                	addi	a1,sp,232
8000971e:	8000                	0x8000
80009720:	11ac                	addi	a1,sp,232
80009722:	8000                	0x8000
80009724:	1298                	addi	a4,sp,352
80009726:	8000                	0x8000
80009728:	11bc                	addi	a5,sp,232
8000972a:	8000                	0x8000
8000972c:	1184                	addi	s1,sp,224
8000972e:	8000                	0x8000
80009730:	1184                	addi	s1,sp,224
80009732:	8000                	0x8000
80009734:	1184                	addi	s1,sp,224
80009736:	8000                	0x8000
80009738:	11c4                	addi	s1,sp,228
8000973a:	8000                	0x8000
8000973c:	2ad8                	fld	fa4,144(a3)
8000973e:	8000                	0x8000
80009740:	2b64                	fld	fs1,208(a4)
80009742:	8000                	0x8000
80009744:	2ae4                	fld	fs1,208(a3)
80009746:	8000                	0x8000
80009748:	2b64                	fld	fs1,208(a4)
8000974a:	8000                	0x8000
8000974c:	2b54                	fld	fa3,144(a4)
8000974e:	8000                	0x8000
80009750:	2b64                	fld	fs1,208(a4)
80009752:	8000                	0x8000
80009754:	2ae4                	fld	fs1,208(a3)
80009756:	8000                	0x8000
80009758:	2ad8                	fld	fa4,144(a3)
8000975a:	8000                	0x8000
8000975c:	2ad8                	fld	fa4,144(a3)
8000975e:	8000                	0x8000
80009760:	2b54                	fld	fa3,144(a4)
80009762:	8000                	0x8000
80009764:	2ae4                	fld	fs1,208(a3)
80009766:	8000                	0x8000
80009768:	2ab4                	fld	fa3,80(a3)
8000976a:	8000                	0x8000
8000976c:	2ab4                	fld	fa3,80(a3)
8000976e:	8000                	0x8000
80009770:	2ab4                	fld	fa3,80(a3)
80009772:	8000                	0x8000
80009774:	2aec                	fld	fa1,208(a3)
80009776:	8000                	0x8000

80009778 <__clz_tab>:
80009778:	0100                	addi	s0,sp,128
8000977a:	0202                	c.slli64	tp
8000977c:	03030303          	lb	t1,48(t1)
80009780:	0404                	addi	s1,sp,512
80009782:	0404                	addi	s1,sp,512
80009784:	0404                	addi	s1,sp,512
80009786:	0404                	addi	s1,sp,512
80009788:	0505                	addi	a0,a0,1
8000978a:	0505                	addi	a0,a0,1
8000978c:	0505                	addi	a0,a0,1
8000978e:	0505                	addi	a0,a0,1
80009790:	0505                	addi	a0,a0,1
80009792:	0505                	addi	a0,a0,1
80009794:	0505                	addi	a0,a0,1
80009796:	0505                	addi	a0,a0,1
80009798:	0606                	slli	a2,a2,0x1
8000979a:	0606                	slli	a2,a2,0x1
8000979c:	0606                	slli	a2,a2,0x1
8000979e:	0606                	slli	a2,a2,0x1
800097a0:	0606                	slli	a2,a2,0x1
800097a2:	0606                	slli	a2,a2,0x1
800097a4:	0606                	slli	a2,a2,0x1
800097a6:	0606                	slli	a2,a2,0x1
800097a8:	0606                	slli	a2,a2,0x1
800097aa:	0606                	slli	a2,a2,0x1
800097ac:	0606                	slli	a2,a2,0x1
800097ae:	0606                	slli	a2,a2,0x1
800097b0:	0606                	slli	a2,a2,0x1
800097b2:	0606                	slli	a2,a2,0x1
800097b4:	0606                	slli	a2,a2,0x1
800097b6:	0606                	slli	a2,a2,0x1
800097b8:	07070707          	0x7070707
800097bc:	07070707          	0x7070707
800097c0:	07070707          	0x7070707
800097c4:	07070707          	0x7070707
800097c8:	07070707          	0x7070707
800097cc:	07070707          	0x7070707
800097d0:	07070707          	0x7070707
800097d4:	07070707          	0x7070707
800097d8:	07070707          	0x7070707
800097dc:	07070707          	0x7070707
800097e0:	07070707          	0x7070707
800097e4:	07070707          	0x7070707
800097e8:	07070707          	0x7070707
800097ec:	07070707          	0x7070707
800097f0:	07070707          	0x7070707
800097f4:	07070707          	0x7070707
800097f8:	0808                	addi	a0,sp,16
800097fa:	0808                	addi	a0,sp,16
800097fc:	0808                	addi	a0,sp,16
800097fe:	0808                	addi	a0,sp,16
80009800:	0808                	addi	a0,sp,16
80009802:	0808                	addi	a0,sp,16
80009804:	0808                	addi	a0,sp,16
80009806:	0808                	addi	a0,sp,16
80009808:	0808                	addi	a0,sp,16
8000980a:	0808                	addi	a0,sp,16
8000980c:	0808                	addi	a0,sp,16
8000980e:	0808                	addi	a0,sp,16
80009810:	0808                	addi	a0,sp,16
80009812:	0808                	addi	a0,sp,16
80009814:	0808                	addi	a0,sp,16
80009816:	0808                	addi	a0,sp,16
80009818:	0808                	addi	a0,sp,16
8000981a:	0808                	addi	a0,sp,16
8000981c:	0808                	addi	a0,sp,16
8000981e:	0808                	addi	a0,sp,16
80009820:	0808                	addi	a0,sp,16
80009822:	0808                	addi	a0,sp,16
80009824:	0808                	addi	a0,sp,16
80009826:	0808                	addi	a0,sp,16
80009828:	0808                	addi	a0,sp,16
8000982a:	0808                	addi	a0,sp,16
8000982c:	0808                	addi	a0,sp,16
8000982e:	0808                	addi	a0,sp,16
80009830:	0808                	addi	a0,sp,16
80009832:	0808                	addi	a0,sp,16
80009834:	0808                	addi	a0,sp,16
80009836:	0808                	addi	a0,sp,16
80009838:	0808                	addi	a0,sp,16
8000983a:	0808                	addi	a0,sp,16
8000983c:	0808                	addi	a0,sp,16
8000983e:	0808                	addi	a0,sp,16
80009840:	0808                	addi	a0,sp,16
80009842:	0808                	addi	a0,sp,16
80009844:	0808                	addi	a0,sp,16
80009846:	0808                	addi	a0,sp,16
80009848:	0808                	addi	a0,sp,16
8000984a:	0808                	addi	a0,sp,16
8000984c:	0808                	addi	a0,sp,16
8000984e:	0808                	addi	a0,sp,16
80009850:	0808                	addi	a0,sp,16
80009852:	0808                	addi	a0,sp,16
80009854:	0808                	addi	a0,sp,16
80009856:	0808                	addi	a0,sp,16
80009858:	0808                	addi	a0,sp,16
8000985a:	0808                	addi	a0,sp,16
8000985c:	0808                	addi	a0,sp,16
8000985e:	0808                	addi	a0,sp,16
80009860:	0808                	addi	a0,sp,16
80009862:	0808                	addi	a0,sp,16
80009864:	0808                	addi	a0,sp,16
80009866:	0808                	addi	a0,sp,16
80009868:	0808                	addi	a0,sp,16
8000986a:	0808                	addi	a0,sp,16
8000986c:	0808                	addi	a0,sp,16
8000986e:	0808                	addi	a0,sp,16
80009870:	0808                	addi	a0,sp,16
80009872:	0808                	addi	a0,sp,16
80009874:	0808                	addi	a0,sp,16
80009876:	0808                	addi	a0,sp,16
80009878:	38345b1b          	0x38345b1b
8000987c:	003b323b          	0x3b323b
80009880:	0000003b          	0x3b
80009884:	206d                	jal	8000992e <npio2_hw+0x62>
80009886:	0000                	unimp
80009888:	38345b1b          	0x38345b1b
8000988c:	303b323b          	0x303b323b
80009890:	303b303b          	0x303b303b
80009894:	006d                	c.nop	27
80009896:	0000                	unimp
80009898:	3130                	fld	fa2,96(a0)
8000989a:	3332                	fld	ft6,296(sp)
8000989c:	3534                	fld	fa3,104(a0)
8000989e:	3736                	fld	fa4,360(sp)
800098a0:	3938                	fld	fa4,112(a0)
800098a2:	4241                	li	tp,16
800098a4:	46454443          	fmadd.q	fs0,fa0,ft4,fs0,rmm
800098a8:	0000                	unimp
800098aa:	0000                	unimp
800098ac:	2020                	fld	fs0,64(s0)
800098ae:	2020                	fld	fs0,64(s0)
800098b0:	2020                	fld	fs0,64(s0)
800098b2:	2020                	fld	fs0,64(s0)
800098b4:	2020                	fld	fs0,64(s0)
800098b6:	2020                	fld	fs0,64(s0)
800098b8:	2020                	fld	fs0,64(s0)
800098ba:	2020                	fld	fs0,64(s0)
800098bc:	2020                	fld	fs0,64(s0)
800098be:	0020                	addi	s0,sp,8
800098c0:	3130                	fld	fa2,96(a0)
800098c2:	3332                	fld	ft6,296(sp)
800098c4:	3534                	fld	fa3,104(a0)
800098c6:	3736                	fld	fa4,360(sp)
800098c8:	3938                	fld	fa4,112(a0)
	...

800098cc <npio2_hw>:
800098cc:	3ff921fb          	0x3ff921fb
800098d0:	400921fb          	0x400921fb
800098d4:	d97c                	sw	a5,116(a0)
800098d6:	4012                	0x4012
800098d8:	401921fb          	0x401921fb
800098dc:	6a7a                	flw	fs4,156(sp)
800098de:	401f d97c 4022      	0x4022d97c401f
800098e4:	4025fdbb          	0x4025fdbb
800098e8:	402921fb          	0x402921fb
800098ec:	463a                	lw	a2,140(sp)
800098ee:	402c                	lw	a1,64(s0)
800098f0:	6a7a                	flw	fs4,156(sp)
800098f2:	475c402f          	0x475c402f
800098f6:	4031                	c.li	zero,12
800098f8:	d97c                	sw	a5,116(a0)
800098fa:	4032                	0x4032
800098fc:	6b9c                	flw	fa5,16(a5)
800098fe:	4034                	lw	a3,64(s0)
80009900:	4035fdbb          	0x4035fdbb
80009904:	40378fdb          	0x40378fdb
80009908:	403921fb          	0x403921fb
8000990c:	403ab41b          	0x403ab41b
80009910:	463a                	lw	a2,140(sp)
80009912:	403c                	lw	a5,64(s0)
80009914:	d85a                	sw	s6,48(sp)
80009916:	403d                	c.li	zero,15
80009918:	6a7a                	flw	fs4,156(sp)
8000991a:	7e4c403f 475c4040 	0x475c40407e4c403f
80009922:	4041                	c.li	zero,16
80009924:	106c                	addi	a1,sp,44
80009926:	4042                	0x4042
80009928:	d97c                	sw	a5,116(a0)
8000992a:	4042                	0x4042
8000992c:	a28c                	fsd	fa1,0(a3)
8000992e:	6b9c4043          	fmadd.d	ft0,fs8,fs9,fa3,rmm
80009932:	4044                	lw	s1,4(s0)
80009934:	34ac                	fld	fa1,104(s1)
80009936:	4045                	c.li	zero,17
80009938:	4045fdbb          	0x4045fdbb
8000993c:	4046c6cb          	fnmsub.s	fa3,fa3,ft4,fs0,rmm
80009940:	40478fdb          	0x40478fdb
80009944:	404858eb          	0x404858eb
80009948:	404921fb          	0x404921fb

8000994c <two_over_pi>:
8000994c:	00a2f983          	0xa2f983
80009950:	4e44                	lw	s1,28(a2)
80009952:	006e                	c.slli	zero,0x1b
80009954:	29fc                	fld	fa5,208(a1)
80009956:	0015                	c.nop	5
80009958:	57d1                	li	a5,-12
8000995a:	34dd0027          	0x34dd0027
8000995e:	00f5                	addi	ra,ra,29
80009960:	db62                	sw	s8,180(sp)
80009962:	00c0                	addi	s0,sp,68
80009964:	993c                	0x993c
80009966:	0095                	addi	ra,ra,5
80009968:	9041                	srli	s0,s0,0x30
8000996a:	51630043          	fmadd.s	ft0,ft6,fs6,fa0,rne
8000996e:	00fe                	slli	ra,ra,0x1f
80009970:	00abdebb          	0xabdebb
80009974:	00c561b7          	lui	gp,0xc56
80009978:	6e3a                	flw	ft8,140(sp)
8000997a:	0024                	addi	s1,sp,8
8000997c:	4dd2                	lw	s11,20(sp)
8000997e:	0042                	c.slli	zero,0x10
80009980:	0649                	addi	a2,a2,18
80009982:	00e0                	addi	s0,sp,76
80009984:	ea09                	bnez	a2,80009996 <two_over_pi+0x4a>
80009986:	002e                	c.slli	zero,0xb
80009988:	921c                	0x921c
8000998a:	00d1                	addi	ra,ra,20
8000998c:	00fe1deb          	0xfe1deb
80009990:	b129                	j	8000959a <scalbn+0xe6>
80009992:	001c                	0x1c
80009994:	3ee8                	fld	fa0,248(a3)
80009996:	35f500a7          	0x35f500a7
8000999a:	0082                	c.slli64	ra
8000999c:	bb44                	fsd	fs1,176(a4)
8000999e:	002e                	c.slli	zero,0xb
800099a0:	e99c                	fsw	fa5,16(a1)
800099a2:	0084                	addi	s1,sp,64
800099a4:	26b4                	fld	fa3,72(a3)
800099a6:	0070                	addi	a2,sp,12
800099a8:	7e41                	lui	t3,0xffff0
800099aa:	005f 91d6 0039      	0x3991d6005f
800099b0:	00398353          	fadd.s	ft6,fs3,ft3,rne
800099b4:	f49c                	fsw	fa5,40(s1)
800099b6:	0039                	c.nop	14
800099b8:	00845f8b          	0x845f8b
800099bc:	f928                	fsw	fa0,112(a0)
800099be:	00bd                	addi	ra,ra,15
800099c0:	1ff8                	addi	a4,sp,1020
800099c2:	ffde003b          	0xffde003b
800099c6:	980f0097          	auipc	ra,0x980f0
800099ca:	0005                	c.nop	1
800099cc:	2f11                	jal	8000a0e0 <_fdata+0x2b0>
800099ce:	5a0a00ef          	jal	ra,800a9f6e <__global_pointer$+0x9f51e>
800099d2:	1f6d008b          	0x1f6d008b
800099d6:	006d                	c.nop	27
800099d8:	00367ecf          	fnmadd.s	ft9,fa2,ft3,ft0
800099dc:	cb09                	beqz	a4,800099ee <two_over_pi+0xa2>
800099de:	4f460027          	0x4f460027
800099e2:	669e00b7          	lui	ra,0x669e0
800099e6:	ea2d003f 27ba005f 	0x27ba005fea2d003f
800099ee:	0075                	c.nop	29
800099f0:	ebe5                	bnez	a5,80009ae0 <_etext+0x38>
800099f2:	7b3d00c7          	fmsub.d	ft1,fs10,fs3,fa5,rne
800099f6:	00f1                	addi	ra,ra,28
800099f8:	000739f7          	0x739f7
800099fc:	5292                	lw	t0,36(sp)
800099fe:	008a                	slli	ra,ra,0x2
80009a00:	00ea6bfb          	0xea6bfb
80009a04:	b11f 005f 5d08      	0x5d08005fb11f
80009a0a:	008d                	addi	ra,ra,3
80009a0c:	0330                	addi	a2,sp,392
80009a0e:	0056                	c.slli	zero,0x15
80009a10:	0046fc7b          	0x46fc7b
80009a14:	abf0                	fsd	fa2,208(a5)
80009a16:	bc20006b          	0xbc20006b
80009a1a:	f43600cf          	0xf43600cf
80009a1e:	009a                	slli	ra,ra,0x6
80009a20:	001da9e3          	0x1da9e3
80009a24:	615e                	flw	ft2,212(sp)
80009a26:	0091                	addi	ra,ra,4
80009a28:	1b08                	addi	a0,sp,432
80009a2a:	00e6                	slli	ra,ra,0x19
80009a2c:	9985                	andi	a1,a1,-31
80009a2e:	0065                	c.nop	25
80009a30:	14a0                	addi	s0,sp,616
80009a32:	005f 408d 0068      	0x68408d005f
80009a38:	d880                	sw	s0,48(s1)
80009a3a:	00ff                	0xff
80009a3c:	004d7327          	0x4d7327
80009a40:	0606                	slli	a2,a2,0x1
80009a42:	0031                	c.nop	12
80009a44:	56ca                	lw	a3,176(sp)
80009a46:	0015                	c.nop	5
80009a48:	a8c9                	j	80009b1a <_etext+0x72>
80009a4a:	e27b0073          	0xe27b0073
80009a4e:	0060                	addi	s0,sp,12
80009a50:	00c08c6b          	0xc08c6b
80009a54:	0000                	unimp
	...

80009a58 <PIo2>:
80009a58:	0000                	unimp
80009a5a:	4000                	lw	s0,0(s0)
80009a5c:	3ff921fb          	0x3ff921fb
80009a60:	0000                	unimp
80009a62:	0000                	unimp
80009a64:	442d                	li	s0,11
80009a66:	3e74                	fld	fa3,248(a2)
80009a68:	0000                	unimp
80009a6a:	8000                	0x8000
80009a6c:	4698                	lw	a4,8(a3)
80009a6e:	3cf8                	fld	fa4,248(s1)
80009a70:	0000                	unimp
80009a72:	6000                	flw	fs0,0(s0)
80009a74:	cc51                	beqz	s0,80009b10 <_etext+0x68>
80009a76:	3b78                	fld	fa4,240(a4)
80009a78:	0000                	unimp
80009a7a:	8000                	0x8000
80009a7c:	39f01b83          	lh	s7,927(zero) # 39f <_start-0x7ffffc61>
80009a80:	0000                	unimp
80009a82:	4000                	lw	s0,0(s0)
80009a84:	2520                	fld	fs0,72(a0)
80009a86:	387a                	fld	fa6,440(sp)
80009a88:	0000                	unimp
80009a8a:	8000                	0x8000
80009a8c:	8222                	mv	tp,s0
80009a8e:	000036e3          	0x36e3
80009a92:	0000                	unimp
80009a94:	f31d                	bnez	a4,800099ba <two_over_pi+0x6e>
80009a96:	3569                	jal	80009920 <npio2_hw+0x54>

80009a98 <init_jk>:
80009a98:	0002                	c.slli64	zero
80009a9a:	0000                	unimp
80009a9c:	00000003          	lb	zero,0(zero) # 0 <_start-0x80000000>
80009aa0:	0004                	0x4
80009aa2:	0000                	unimp
80009aa4:	0006                	c.slli	zero,0x1
	...

Disassembly of section .srodata:

80009aa8 <_global_impure_ptr>:
80009aa8:	9e28                	0x9e28
80009aaa:	8000                	0x8000

Disassembly of section .eh_frame:

80009aac <.eh_frame>:
80009aac:	0010                	0x10
80009aae:	0000                	unimp
80009ab0:	0000                	unimp
80009ab2:	0000                	unimp
80009ab4:	00527a03          	0x527a03
80009ab8:	7c01                	lui	s8,0xfffe0
80009aba:	0101                	addi	sp,sp,0
80009abc:	00020d1b          	0x20d1b
80009ac0:	0010                	0x10
80009ac2:	0000                	unimp
80009ac4:	0018                	0x18
80009ac6:	0000                	unimp
80009ac8:	6538                	flw	fa4,72(a0)
80009aca:	ffff                	0xffff
80009acc:	007c                	addi	a5,sp,12
80009ace:	0000                	unimp
80009ad0:	0000                	unimp
80009ad2:	0000                	unimp
80009ad4:	0010                	0x10
80009ad6:	0000                	unimp
80009ad8:	002c                	addi	a1,sp,8
80009ada:	0000                	unimp
80009adc:	65a0                	flw	fs0,72(a1)
80009ade:	ffff                	0xffff
	...
80009ae8:	0044                	addi	s1,sp,4
80009aea:	0000                	unimp
80009aec:	0040                	addi	s0,sp,4
80009aee:	0000                	unimp
80009af0:	a008                	fsd	fa0,0(s0)
80009af2:	ffff                	0xffff
80009af4:	0190                	addi	a2,sp,192
80009af6:	0000                	unimp
80009af8:	4400                	lw	s0,8(s0)
80009afa:	200e                	fld	ft0,192(sp)
80009afc:	9344                	0x9344
80009afe:	6005                	c.lui	zero,0x1
80009b00:	0288                	addi	a0,sp,320
80009b02:	0389                	addi	t2,t2,2
80009b04:	0492                	slli	s1,s1,0x4
80009b06:	0694                	addi	a3,sp,832
80009b08:	0181                	addi	gp,gp,0
80009b0a:	0a012403          	lw	s0,160(sp)
80009b0e:	44c1                	li	s1,16
80009b10:	44c8                	lw	a0,12(s1)
80009b12:	44c9                	li	s1,18
80009b14:	44d2                	lw	s1,20(sp)
80009b16:	44d444d3          	0x44d444d3
80009b1a:	000e                	c.slli	zero,0x3
80009b1c:	0b44                	addi	s1,sp,404
80009b1e:	c844                	sw	s1,20(s0)
80009b20:	c144                	sw	s1,4(a0)
80009b22:	c944                	sw	s1,20(a0)
80009b24:	d244                	sw	s1,36(a2)
80009b26:	d344                	sw	s1,36(a4)
80009b28:	d444                	sw	s1,44(s0)
80009b2a:	0e4c                	addi	a1,sp,788
80009b2c:	0000                	unimp
80009b2e:	0000                	unimp
80009b30:	003c                	addi	a5,sp,8
80009b32:	0000                	unimp
80009b34:	0088                	addi	a0,sp,64
80009b36:	0000                	unimp
80009b38:	a150                	fsd	fa2,128(a0)
80009b3a:	ffff                	0xffff
80009b3c:	01bc                	addi	a5,sp,200
80009b3e:	0000                	unimp
80009b40:	4400                	lw	s0,8(s0)
80009b42:	200e                	fld	ft0,192(sp)
80009b44:	8848                	0x8848
80009b46:	9202                	jalr	tp
80009b48:	5c04                	lw	s1,56(s0)
80009b4a:	0181                	addi	gp,gp,0
80009b4c:	0389                	addi	t2,t2,2
80009b4e:	94500593          	li	a1,-1723
80009b52:	9506                	add	a0,a0,ra
80009b54:	03089607          	0x3089607
80009b58:	00fc                	addi	a5,sp,76
80009b5a:	c10a                	sw	sp,128(sp)
80009b5c:	c844                	sw	s1,20(s0)
80009b5e:	c944                	sw	s1,20(a0)
80009b60:	d244                	sw	s1,36(a2)
80009b62:	d344                	sw	s1,36(a4)
80009b64:	d444                	sw	s1,44(s0)
80009b66:	d544                	sw	s1,44(a0)
80009b68:	d644                	sw	s1,44(a2)
80009b6a:	0e44                	addi	s1,sp,788
80009b6c:	4400                	lw	s0,8(s0)
80009b6e:	003c000b          	0x3c000b
80009b72:	0000                	unimp
80009b74:	00c8                	addi	a0,sp,68
80009b76:	0000                	unimp
80009b78:	a2cc                	fsd	fa1,128(a3)
80009b7a:	ffff                	0xffff
80009b7c:	0118                	addi	a4,sp,128
80009b7e:	0000                	unimp
80009b80:	4400                	lw	s0,8(s0)
80009b82:	300e                	fld	ft0,224(sp)
80009b84:	9648                	0x9648
80009b86:	9708                	0x9708
80009b88:	5009                	c.li	zero,-30
80009b8a:	0694                	addi	a3,sp,832
80009b8c:	0795                	addi	a5,a5,5
80009b8e:	8854                	0x8854
80009b90:	5802                	lw	a6,32(sp)
80009b92:	0181                	addi	gp,gp,0
80009b94:	0389                	addi	t2,t2,2
80009b96:	0492                	slli	s1,s1,0x4
80009b98:	a4020593          	addi	a1,tp,-1472 # fffffa40 <__global_pointer$+0x7fff4ff0>
80009b9c:	48c1                	li	a7,16
80009b9e:	44c8                	lw	a0,12(s1)
80009ba0:	44c9                	li	s1,18
80009ba2:	44d2                	lw	s1,20(sp)
80009ba4:	44d444d3          	0x44d444d3
80009ba8:	44d5                	li	s1,21
80009baa:	44d6                	lw	s1,84(sp)
80009bac:	000e44d7          	0xe44d7
80009bb0:	0054                	addi	a3,sp,4
80009bb2:	0000                	unimp
80009bb4:	0108                	addi	a0,sp,128
80009bb6:	0000                	unimp
80009bb8:	a3a4                	fsd	fs1,64(a5)
80009bba:	ffff                	0xffff
80009bbc:	03ec                	addi	a1,sp,460
80009bbe:	0000                	unimp
80009bc0:	4400                	lw	s0,8(s0)
80009bc2:	800e                	c.mv	zero,gp
80009bc4:	4801                	li	a6,0
80009bc6:	0896                	slli	a7,a7,0x5
80009bc8:	0a98                	addi	a4,sp,336
80009bca:	9550                	0x9550
80009bcc:	54099707          	0x54099707
80009bd0:	0288                	addi	a0,sp,320
80009bd2:	815c                	0x815c
80009bd4:	8901                	andi	a0,a0,0
80009bd6:	93049203          	lh	tp,-1744(s1)
80009bda:	9405                	srai	s0,s0,0x21
80009bdc:	5006                	0x5006
80009bde:	0b99                	addi	s7,s7,6
80009be0:	0c9a                	slli	s9,s9,0x6
80009be2:	9b4c                	0x9b4c
80009be4:	030d                	addi	t1,t1,3
80009be6:	00fc                	addi	a5,sp,76
80009be8:	c10a                	sw	sp,128(sp)
80009bea:	c848                	sw	a0,20(s0)
80009bec:	c944                	sw	s1,20(a0)
80009bee:	d244                	sw	s1,36(a2)
80009bf0:	d344                	sw	s1,36(a4)
80009bf2:	d444                	sw	s1,44(s0)
80009bf4:	d544                	sw	s1,44(a0)
80009bf6:	d644                	sw	s1,44(a2)
80009bf8:	d744                	sw	s1,44(a4)
80009bfa:	d844                	sw	s1,52(s0)
80009bfc:	d944                	sw	s1,52(a0)
80009bfe:	da44                	sw	s1,52(a2)
80009c00:	db44                	sw	s1,52(a4)
80009c02:	0e44                	addi	s1,sp,788
80009c04:	4400                	lw	s0,8(s0)
80009c06:	0050000b          	0x50000b
80009c0a:	0000                	unimp
80009c0c:	0160                	addi	s0,sp,140
80009c0e:	0000                	unimp
80009c10:	a738                	fsd	fa4,72(a4)
80009c12:	ffff                	0xffff
80009c14:	05d4                	addi	a3,sp,708
80009c16:	0000                	unimp
80009c18:	4400                	lw	s0,8(s0)
80009c1a:	600e                	flw	ft0,192(sp)
80009c1c:	9674                	0x9674
80009c1e:	9708                	0x9708
80009c20:	9809                	andi	s0,s0,-30
80009c22:	990a                	add	s2,s2,sp
80009c24:	9b0c9a0b          	0x9b0c9a0b
80009c28:	810d                	srli	a0,a0,0x3
80009c2a:	8801                	andi	s0,s0,0
80009c2c:	8902                	jr	s2
80009c2e:	93049203          	lh	tp,-1744(s1)
80009c32:	9405                	srai	s0,s0,0x21
80009c34:	9506                	add	a0,a0,ra
80009c36:	04e80307          	0x4e80307
80009c3a:	c10a                	sw	sp,128(sp)
80009c3c:	c844                	sw	s1,20(s0)
80009c3e:	c944                	sw	s1,20(a0)
80009c40:	d244                	sw	s1,36(a2)
80009c42:	d344                	sw	s1,36(a4)
80009c44:	d444                	sw	s1,44(s0)
80009c46:	d544                	sw	s1,44(a0)
80009c48:	d644                	sw	s1,44(a2)
80009c4a:	d744                	sw	s1,44(a4)
80009c4c:	d844                	sw	s1,52(s0)
80009c4e:	d944                	sw	s1,52(a0)
80009c50:	da44                	sw	s1,52(a2)
80009c52:	db44                	sw	s1,52(a4)
80009c54:	0e48                	addi	a0,sp,788
80009c56:	4400                	lw	s0,8(s0)
80009c58:	0000000b          	0xb
80009c5c:	0050                	addi	a2,sp,4
80009c5e:	0000                	unimp
80009c60:	01b4                	addi	a3,sp,200
80009c62:	0000                	unimp
80009c64:	acb8                	fsd	fa4,88(s1)
80009c66:	ffff                	0xffff
80009c68:	0c68                	addi	a0,sp,540
80009c6a:	0000                	unimp
80009c6c:	4400                	lw	s0,8(s0)
80009c6e:	900e                	c.add	zero,gp
80009c70:	06944403          	lbu	s0,105(s0)
80009c74:	9b48                	0x9b48
80009c76:	020d                	addi	tp,tp,3
80009c78:	896c                	0x896c
80009c7a:	810b9903          	lh	s2,-2032(s7)
80009c7e:	8801                	andi	s0,s0,0
80009c80:	9202                	jalr	tp
80009c82:	9304                	0x9304
80009c84:	9505                	srai	a0,a0,0x21
80009c86:	97089607          	0x97089607
80009c8a:	9809                	andi	s0,s0,-30
80009c8c:	9a0a                	add	s4,s4,sp
80009c8e:	020c                	addi	a1,sp,256
80009c90:	0a98                	addi	a4,sp,336
80009c92:	44c1                	li	s1,16
80009c94:	4cc8                	lw	a0,28(s1)
80009c96:	44d2                	lw	s1,20(sp)
80009c98:	44d444d3          	0x44d444d3
80009c9c:	44d5                	li	s1,21
80009c9e:	44d6                	lw	s1,84(sp)
80009ca0:	44d844d7          	0x44d844d7
80009ca4:	44d9                	li	s1,22
80009ca6:	44da                	lw	s1,148(sp)
80009ca8:	44c948db          	0x44c948db
80009cac:	000e                	c.slli	zero,0x3
80009cae:	0b44                	addi	s1,sp,404
80009cb0:	0050                	addi	a2,sp,4
80009cb2:	0000                	unimp
80009cb4:	0208                	addi	a0,sp,256
80009cb6:	0000                	unimp
80009cb8:	b8cc                	fsd	fa1,176(s1)
80009cba:	ffff                	0xffff
80009cbc:	0e84                	addi	s1,sp,848
80009cbe:	0000                	unimp
80009cc0:	4c00                	lw	s0,24(s0)
80009cc2:	c00e                	sw	gp,0(sp)
80009cc4:	01817803          	0x1817803
80009cc8:	0288                	addi	a0,sp,320
80009cca:	0389                	addi	t2,t2,2
80009ccc:	0492                	slli	s1,s1,0x4
80009cce:	06940593          	addi	a1,s0,105
80009cd2:	0795                	addi	a5,a5,5
80009cd4:	0896                	slli	a7,a7,0x5
80009cd6:	0a980997          	auipc	s3,0xa980
80009cda:	0b99                	addi	s7,s7,6
80009cdc:	0c9a                	slli	s9,s9,0x6
80009cde:	a0030d9b          	0xa0030d9b
80009ce2:	0a0d                	addi	s4,s4,3
80009ce4:	44c1                	li	s1,16
80009ce6:	44c8                	lw	a0,12(s1)
80009ce8:	44c9                	li	s1,18
80009cea:	44d2                	lw	s1,20(sp)
80009cec:	44d444d3          	0x44d444d3
80009cf0:	44d5                	li	s1,21
80009cf2:	44d6                	lw	s1,84(sp)
80009cf4:	44d844d7          	0x44d844d7
80009cf8:	44d9                	li	s1,22
80009cfa:	44da                	lw	s1,148(sp)
80009cfc:	000e44db          	0xe44db
80009d00:	0b44                	addi	s1,sp,404
80009d02:	0000                	unimp
80009d04:	0020                	addi	s0,sp,8
80009d06:	0000                	unimp
80009d08:	025c                	addi	a5,sp,260
80009d0a:	0000                	unimp
80009d0c:	c6fc                	sw	a5,76(a3)
80009d0e:	ffff                	0xffff
80009d10:	02f0                	addi	a2,sp,332
80009d12:	0000                	unimp
80009d14:	4400                	lw	s0,8(s0)
80009d16:	100e                	c.slli	zero,0x23
80009d18:	8848                	0x8848
80009d1a:	0201                	addi	tp,tp,0
80009d1c:	897c                	0x897c
80009d1e:	0302                	c.slli64	t1
80009d20:	0228                	addi	a0,sp,264
80009d22:	78c8                	flw	fa0,52(s1)
80009d24:	44c9                	li	s1,18
80009d26:	000e                	c.slli	zero,0x3
80009d28:	0018                	0x18
80009d2a:	0000                	unimp
80009d2c:	0280                	addi	s0,sp,320
80009d2e:	0000                	unimp
80009d30:	c9c8                	sw	a0,20(a1)
80009d32:	ffff                	0xffff
80009d34:	0054                	addi	a3,sp,4
80009d36:	0000                	unimp
80009d38:	4400                	lw	s0,8(s0)
80009d3a:	100e                	c.slli	zero,0x23
80009d3c:	8148                	0x8148
80009d3e:	8801                	andi	s0,s0,0
80009d40:	0002                	c.slli64	zero
80009d42:	0000                	unimp
80009d44:	0014                	0x14
80009d46:	0000                	unimp
80009d48:	029c                	addi	a5,sp,320
80009d4a:	0000                	unimp
80009d4c:	ca00                	sw	s0,16(a2)
80009d4e:	ffff                	0xffff
80009d50:	0044                	addi	s1,sp,4
80009d52:	0000                	unimp
80009d54:	4400                	lw	s0,8(s0)
80009d56:	100e                	c.slli	zero,0x23
80009d58:	8144                	0x8144
80009d5a:	0001                	nop
80009d5c:	0010                	0x10
80009d5e:	0000                	unimp
80009d60:	02b4                	addi	a3,sp,328
80009d62:	0000                	unimp
80009d64:	ca2c                	sw	a1,80(a2)
80009d66:	ffff                	0xffff
80009d68:	002c                	addi	a1,sp,8
80009d6a:	0000                	unimp
80009d6c:	0000                	unimp
80009d6e:	0000                	unimp
80009d70:	0028                	addi	a0,sp,8
80009d72:	0000                	unimp
80009d74:	02c8                	addi	a0,sp,324
80009d76:	0000                	unimp
80009d78:	ca44                	sw	s1,20(a2)
80009d7a:	ffff                	0xffff
80009d7c:	00a8                	addi	a0,sp,72
80009d7e:	0000                	unimp
80009d80:	4c00                	lw	s0,24(s0)
80009d82:	100e                	c.slli	zero,0x23
80009d84:	8948                	0x8948
80009d86:	48049203          	lh	tp,1152(s1)
80009d8a:	0288                	addi	a0,sp,320
80009d8c:	0181                	addi	gp,gp,0
80009d8e:	7402                	flw	fs0,32(sp)
80009d90:	44c1                	li	s1,16
80009d92:	44c8                	lw	a0,12(s1)
80009d94:	44c9                	li	s1,18
80009d96:	44d2                	lw	s1,20(sp)
80009d98:	000e                	c.slli	zero,0x3
80009d9a:	0000                	unimp
80009d9c:	0028                	addi	a0,sp,8
80009d9e:	0000                	unimp
80009da0:	02f4                	addi	a3,sp,332
80009da2:	0000                	unimp
80009da4:	cac0                	sw	s0,20(a3)
80009da6:	ffff                	0xffff
80009da8:	0100                	addi	s0,sp,128
80009daa:	0000                	unimp
80009dac:	6000                	flw	fs0,0(s0)
80009dae:	300e                	fld	ft0,224(sp)
80009db0:	8158                	0x8158
80009db2:	8801                	andi	s0,s0,0
80009db4:	8902                	jr	s2
80009db6:	02049203          	lh	tp,32(s1)
80009dba:	c1b4                	sw	a3,64(a1)
80009dbc:	c844                	sw	s1,20(s0)
80009dbe:	c944                	sw	s1,20(a0)
80009dc0:	d244                	sw	s1,36(a2)
80009dc2:	0e44                	addi	s1,sp,788
80009dc4:	0000                	unimp
80009dc6:	0000                	unimp
80009dc8:	0028                	addi	a0,sp,8
80009dca:	0000                	unimp
80009dcc:	0320                	addi	s0,sp,392
80009dce:	0000                	unimp
80009dd0:	cb94                	sw	a3,16(a5)
80009dd2:	ffff                	0xffff
80009dd4:	01d4                	addi	a3,sp,196
80009dd6:	0000                	unimp
80009dd8:	6000                	flw	fs0,0(s0)
80009dda:	300e                	fld	ft0,224(sp)
80009ddc:	8178                	0x8178
80009dde:	8801                	andi	s0,s0,0
80009de0:	8902                	jr	s2
80009de2:	03049203          	lh	tp,48(s1)
80009de6:	0168                	addi	a0,sp,140
80009de8:	44c1                	li	s1,16
80009dea:	44c8                	lw	a0,12(s1)
80009dec:	44c9                	li	s1,18
80009dee:	44d2                	lw	s1,20(sp)
80009df0:	000e                	c.slli	zero,0x3
80009df2:	0000                	unimp
80009df4:	002c                	addi	a1,sp,8
80009df6:	0000                	unimp
80009df8:	034c                	addi	a1,sp,388
80009dfa:	0000                	unimp
80009dfc:	cd3c                	sw	a5,88(a0)
80009dfe:	ffff                	0xffff
80009e00:	044c                	addi	a1,sp,516
80009e02:	0000                	unimp
80009e04:	7800                	flw	fs0,48(s0)
80009e06:	300e                	fld	ft0,224(sp)
80009e08:	8854                	0x8854
80009e0a:	8902                	jr	s2
80009e0c:	92018103          	lb	sp,-1760(gp) # c55920 <_start-0x7f3aa6e0>
80009e10:	0304                	addi	s1,sp,384
80009e12:	01fc                	addi	a5,sp,204
80009e14:	c10a                	sw	sp,128(sp)
80009e16:	c844                	sw	s1,20(s0)
80009e18:	c944                	sw	s1,20(a0)
80009e1a:	d244                	sw	s1,36(a2)
80009e1c:	0e44                	addi	s1,sp,788
80009e1e:	4400                	lw	s0,8(s0)
80009e20:	0000000b          	0xb

Disassembly of section .data:

80009e28 <impure_data>:
80009e28:	0000                	unimp
80009e2a:	0000                	unimp
80009e2c:	a114                	fsd	fa3,0(a0)
80009e2e:	8000                	0x8000

80009e30 <_fdata>:
80009e30:	a17c                	fsd	fa5,192(a0)
80009e32:	8000                	0x8000
80009e34:	a1e4                	fsd	fs1,192(a1)
80009e36:	8000                	0x8000
	...
80009ed0:	0001                	nop
80009ed2:	0000                	unimp
80009ed4:	0000                	unimp
80009ed6:	0000                	unimp
80009ed8:	330e                	fld	ft6,224(sp)
80009eda:	abcd                	j	8000a4cc <dp_l+0xd8>
80009edc:	1234                	addi	a3,sp,296
80009ede:	e66d                	bnez	a2,80009fc8 <_fdata+0x198>
80009ee0:	deec                	sw	a1,124(a3)
80009ee2:	0005                	c.nop	1
80009ee4:	0000000b          	0xb
	...

Disassembly of section .sdata:

8000a250 <_impure_ptr>:
8000a250:	9e28                	0x9e28
8000a252:	8000                	0x8000

8000a254 <mailbox>:
8000a254:	5000                	lw	s0,32(s0)
8000a256:	2000                	fld	fs0,0(s0)

8000a258 <nb_lights>:
8000a258:	00000003          	lb	zero,0(zero) # 0 <_start-0x80000000>

8000a25c <nb_spheres>:
8000a25c:	0004                	0x4
	...

8000a260 <IO_UARTStatus>:
8000a260:	0008                	0x8
8000a262:	2000                	fld	fs0,0(s0)

8000a264 <IO_UARTTX>:
8000a264:	0004                	0x4
8000a266:	2000                	fld	fs0,0(s0)

8000a268 <_ZL15forceduartflush>:
8000a268:	0001                	nop
8000a26a:	0000                	unimp
8000a26c:	0000                	unimp
8000a26e:	3f80                	fld	fs0,56(a5)
8000a270:	0000                	unimp
8000a272:	437f                	0x437f
8000a274:	0000                	unimp
8000a276:	bf80                	fsd	fs0,56(a5)
8000a278:	f2ca                	fsw	fs2,100(sp)
8000a27a:	7149                	addi	sp,sp,-368
8000a27c:	0000                	unimp
8000a27e:	4080                	lw	s0,0(s1)
8000a280:	0000                	unimp
8000a282:	4120                	lw	s0,64(a0)
8000a284:	0000                	unimp
8000a286:	c120                	sw	s0,64(a0)
8000a288:	0000                	unimp
8000a28a:	c1f0                	sw	a2,68(a1)
8000a28c:	999a                	add	s3,s3,t1
8000a28e:	3e99                	jal	80009de4 <_global_impure_ptr+0x33c>
8000a290:	cccd                	beqz	s1,8000a34a <_ZL15forceduartflush+0xe2>
8000a292:	3e4c                	fld	fa1,184(a2)
8000a294:	cccd                	beqz	s1,8000a34e <_ZL15forceduartflush+0xe6>
8000a296:	3dcc                	fld	fa1,184(a1)
8000a298:	0000                	unimp
8000a29a:	447a                	lw	s0,156(sp)
8000a29c:	3f333333          	0x3f333333
8000a2a0:	6666                	flw	fa2,88(sp)
8000a2a2:	3fa6                	fld	ft11,104(sp)
8000a2a4:	3a83126f          	jal	tp,8003b64c <_gp+0x30bfc>
8000a2a8:	0000                	unimp
8000a2aa:	c000                	sw	s0,0(s0)
8000a2ac:	0000                	unimp
8000a2ae:	c040                	sw	s0,4(s0)
8000a2b0:	0000                	unimp
8000a2b2:	c180                	sw	s0,0(a1)
8000a2b4:	999a                	add	s3,s3,t1
8000a2b6:	3f19                	jal	8000a1cc <_fdata+0x39c>
8000a2b8:	cccd                	beqz	s1,8000a372 <_ZL15forceduartflush+0x10a>
8000a2ba:	3ecc                	fld	fa1,184(a3)
8000a2bc:	0000                	unimp
8000a2be:	4248                	lw	a0,4(a2)
8000a2c0:	0000                	unimp
8000a2c2:	bfc0                	fsd	fs0,184(a5)
8000a2c4:	0000                	unimp
8000a2c6:	c140                	sw	s0,4(a0)
8000a2c8:	0000                	unimp
8000a2ca:	3fc0                	fld	fs0,184(a5)
8000a2cc:	0000                	unimp
8000a2ce:	3f00                	fld	fs0,56(a4)
8000a2d0:	cccd                	beqz	s1,8000a38a <_ZL15forceduartflush+0x122>
8000a2d2:	3f4c                	fld	fa1,184(a4)
8000a2d4:	0000                	unimp
8000a2d6:	42fa                	lw	t0,156(sp)
8000a2d8:	0000                	unimp
8000a2da:	bf00                	fsd	fs0,56(a4)
8000a2dc:	0000                	unimp
8000a2de:	c190                	sw	a2,0(a1)
8000a2e0:	0000                	unimp
8000a2e2:	4040                	lw	s0,4(s0)
8000a2e4:	6666                	flw	fa2,88(sp)
8000a2e6:	3f66                	fld	ft10,120(sp)
8000a2e8:	0000                	unimp
8000a2ea:	40e0                	lw	s0,68(s1)
8000a2ec:	0000                	unimp
8000a2ee:	40a0                	lw	s0,64(s1)
8000a2f0:	0000                	unimp
8000a2f2:	430e                	lw	t1,192(sp)
8000a2f4:	0000                	unimp
8000a2f6:	c1a0                	sw	s0,64(a1)
8000a2f8:	0000                	unimp
8000a2fa:	41a0                	lw	s0,64(a1)
8000a2fc:	0000                	unimp
8000a2fe:	41f0                	lw	a2,68(a1)
8000a300:	0000                	unimp
8000a302:	c1c8                	sw	a0,4(a1)
8000a304:	6666                	flw	fa2,88(sp)
8000a306:	3fe6                	fld	ft11,120(sp)
8000a308:	999a                	add	s3,s3,t1
8000a30a:	3fd9                	jal	8000a2e0 <_ZL15forceduartflush+0x78>
8000a30c:	0000                	unimp
8000a30e:	0000                	unimp
8000a310:	a9fc                	fsd	fa5,208(a1)
8000a312:	d2f1                	beqz	a3,8000a2d6 <_ZL15forceduartflush+0x6e>
8000a314:	624d                	lui	tp,0x13
8000a316:	3f50                	fld	fa2,184(a4)
8000a318:	0000                	unimp
8000a31a:	0000                	unimp
8000a31c:	0000                	unimp
8000a31e:	3fe0                	fld	fs0,248(a5)
8000a320:	0000                	unimp
8000a322:	0000                	unimp
8000a324:	4000                	lw	s0,0(s0)
8000a326:	0000408f          	0x408f
8000a32a:	0000                	unimp
8000a32c:	0000                	unimp
8000a32e:	3ff0                	fld	fa2,248(a5)
8000a330:	0000                	unimp
8000a332:	0000                	unimp
8000a334:	c000                	sw	s0,0(s0)
8000a336:	00004043          	fmadd.s	ft0,ft0,ft0,ft0,rmm
8000a33a:	4000                	lw	s0,0(s0)
8000a33c:	c152                	sw	s4,128(sp)
8000a33e:	3fe0                	fld	fs0,248(a5)
8000a340:	0000                	unimp
8000a342:	0000                	unimp
8000a344:	0000                	unimp
8000a346:	c044                	sw	s1,4(s0)
8000a348:	0000                	unimp
8000a34a:	5440                	lw	s0,44(s0)
8000a34c:	3ff921fb          	0x3ff921fb
8000a350:	6331                	lui	t1,0xc
8000a352:	1a62                	slli	s4,s4,0x38
8000a354:	b461                	j	80009ddc <_global_impure_ptr+0x334>
8000a356:	3dd0                	fld	fa2,184(a1)
8000a358:	0000                	unimp
8000a35a:	1a60                	addi	s0,sp,316
8000a35c:	b461                	j	80009de4 <_global_impure_ptr+0x33c>
8000a35e:	3dd0                	fld	fa2,184(a1)
8000a360:	2e037073          	csrci	0x2e0,6
8000a364:	198a                	slli	s3,s3,0x22
8000a366:	c8833ba3          	0xc8833ba3
8000a36a:	6dc9                	lui	s11,0x12
8000a36c:	5f30                	lw	a2,120(a4)
8000a36e:	3fe4                	fld	fs1,248(a5)
8000a370:	0000                	unimp
8000a372:	2e00                	fld	fs0,24(a2)
8000a374:	198a                	slli	s3,s3,0x22
8000a376:	49c13ba3          	0x49c13ba3
8000a37a:	2520                	fld	fs0,72(a0)
8000a37c:	839a                	mv	t2,t1
8000a37e:	0000397b          	0x397b
8000a382:	0000                	unimp
8000a384:	0000                	unimp
8000a386:	4170                	lw	a2,68(a0)
8000a388:	aa00                	fsd	fs0,16(a2)
8000a38a:	3fb8                	fld	fa4,120(a5)
8000a38c:	a570                	fsd	fa2,200(a0)
8000a38e:	36ec                	fld	fa1,232(a3)
8000a390:	0000                	unimp
8000a392:	3e80                	fld	fs0,56(a3)
8000a394:	3eaaaaab          	0x3eaaaaab
8000a398:	3fb8aa3b          	0x3fb8aa3b
8000a39c:	0000                	unimp
8000a39e:	4b80                	lw	s0,16(a5)
8000a3a0:	f142                	fsw	fa6,160(sp)
8000a3a2:	32553e53          	0x32553e53
8000a3a6:	3e6c                	fld	fa1,248(a2)
8000a3a8:	a305                	j	8000a8c8 <__BSS_END__$+0x2d8>
8000a3aa:	6db73e8b          	0x6db73e8b
8000a3ae:	38003edb          	0x38003edb
8000a3b2:	3f76                	fld	ft10,376(sp)
8000a3b4:	3f76384f          	fnmadd.q	fa6,fa2,fs7,ft7,rup
8000a3b8:	c3a0                	sw	s0,64(a5)
8000a3ba:	369d                	jal	80009f20 <_fdata+0xf0>
8000a3bc:	aa3c                	fsd	fa5,80(a2)
8000a3be:	3338                	fld	fa4,96(a4)
8000a3c0:	7200                	flw	fs0,32(a2)
8000a3c2:	3f31                	jal	8000a2de <_ZL15forceduartflush+0x76>
8000a3c4:	7218                	flw	fa4,32(a2)
8000a3c6:	3f31                	jal	8000a2e2 <_ZL15forceduartflush+0x7a>
8000a3c8:	be8c                	fsd	fa1,56(a3)
8000a3ca:	bb4c35bf ea0e3331 	0xea0e3331bb4c35bf
8000a3d2:	35dd                	jal	8000a2b8 <_ZL15forceduartflush+0x50>
8000a3d4:	b355                	j	8000a178 <_fdata+0x348>
8000a3d6:	388a                	fld	fa7,160(sp)
8000a3d8:	0b61                	addi	s6,s6,24
8000a3da:	3b36                	fld	fs6,360(sp)
8000a3dc:	3e2aaaab          	0x3e2aaaab
8000a3e0:	0000                	unimp
8000a3e2:	4000                	lw	s0,0(s0)

8000a3e4 <bp>:
8000a3e4:	0000                	unimp
8000a3e6:	3f80                	fld	fs0,56(a5)
8000a3e8:	0000                	unimp
8000a3ea:	3fc0                	fld	fs0,184(a5)

8000a3ec <dp_h>:
8000a3ec:	0000                	unimp
8000a3ee:	0000                	unimp
8000a3f0:	c000                	sw	s0,0(s0)
8000a3f2:	3f15                	jal	8000a326 <_ZL15forceduartflush+0xbe>

8000a3f4 <dp_l>:
8000a3f4:	0000                	unimp
8000a3f6:	0000                	unimp
8000a3f8:	cfdc                	sw	a5,28(a5)
8000a3fa:	35d1                	jal	8000a2be <_ZL15forceduartflush+0x56>
	...
8000a404:	0000                	unimp
8000a406:	3e70                	fld	fa2,248(a2)
8000a408:	0000                	unimp
8000a40a:	0000                	unimp
8000a40c:	0000                	unimp
8000a40e:	3fc0                	fld	fs0,184(a5)
8000a410:	0000                	unimp
8000a412:	0000                	unimp
8000a414:	0000                	unimp
8000a416:	4020                	lw	s0,64(s0)
8000a418:	0000                	unimp
8000a41a:	0000                	unimp
8000a41c:	0000                	unimp
8000a41e:	bff0                	fsd	fa2,248(a5)
8000a420:	2d18                	fld	fa4,24(a0)
8000a422:	5444                	lw	s1,44(s0)
8000a424:	3fe921fb          	0x3fe921fb
8000a428:	33145c07          	0x33145c07
8000a42c:	a626                	fsd	fs1,264(sp)
8000a42e:	3c81                	jal	80009e7e <_fdata+0x4e>
8000a430:	7ad4                	flw	fa3,52(a3)
8000a432:	2a7074bf a7e93efb 	0xa7e93efb2a7074bf
8000a43a:	32f0                	fld	fa2,224(a3)
8000a43c:	3f12b80f          	0x3f12b80f
8000a440:	1068                	addi	a0,sp,44
8000a442:	1a8d                	addi	s5,s5,-29
8000a444:	3f3026f7          	0x3f3026f7
8000a448:	8315                	srli	a4,a4,0x5
8000a44a:	fee0                	fsw	fs0,124(a3)
8000a44c:	dbc8                	sw	a0,52(a5)
8000a44e:	84933f57          	0x84933f57
8000a452:	e96e                	fsw	fs11,144(sp)
8000a454:	3f8226e3          	0x3f8226e3
8000a458:	41fe                	lw	gp,220(sp)
8000a45a:	a1ba1bb3          	0xa1ba1bb3
8000a45e:	53733fab          	0x53733fab
8000a462:	db60                	sw	s0,116(a4)
8000a464:	bef375cb          	fnmsub.q	fa1,ft6,fa5,fs7
8000a468:	92a6                	add	t0,t0,s1
8000a46a:	7e88a037          	lui	zero,0x7e88a
8000a46e:	3f14                	fld	fa3,56(a4)
8000a470:	6501                	0x6501
8000a472:	f2f2                	fsw	ft8,100(sp)
8000a474:	44d8                	lw	a4,12(s1)
8000a476:	03283f43          	fmadd.d	ft10,fa6,fs2,ft0,rup
8000a47a:	c956                	sw	s5,144(sp)
8000a47c:	6d22                	flw	fs10,8(sp)
8000a47e:	3f6d                	jal	8000a438 <dp_l+0x44>
8000a480:	8406d637          	lui	a2,0x8406d
8000a484:	64f4                	flw	fa3,76(s1)
8000a486:	3f96                	fld	ft11,352(sp)
8000a488:	fe7a                	fsw	ft10,60(sp)
8000a48a:	1110                	addi	a2,sp,160
8000a48c:	1111                	addi	sp,sp,-28
8000a48e:	3fc1                	jal	8000a45e <dp_l+0x6a>
8000a490:	55555563          	bge	a0,s5,8000a9da <__BSS_END__$+0x3ea>
8000a494:	5555                	li	a0,-11
8000a496:	3fd5                	jal	8000a48a <dp_l+0x96>
8000a498:	0000                	unimp
8000a49a:	1000                	addi	s0,sp,32
8000a49c:	0000                	unimp
8000a49e:	7000                	flw	fs0,32(s0)
8000a4a0:	759c                	flw	fa5,40(a1)
8000a4a2:	8800                	0x8800
8000a4a4:	e43c                	fsw	fa5,72(s0)
8000a4a6:	00007e37          	lui	t3,0x7
8000a4aa:	0000                	unimp
8000a4ac:	0000                	unimp
8000a4ae:	4350                	lw	a2,4(a4)
8000a4b0:	f359                	bnez	a4,8000a436 <dp_l+0x42>
8000a4b2:	c2f8                	sw	a4,68(a3)
8000a4b4:	6e1f 01a5 759c      	0x759c01a56e1f
8000a4ba:	8800                	0x8800
8000a4bc:	e43c                	fsw	fa5,72(s0)
8000a4be:	f359fe37          	lui	t3,0xf359f
8000a4c2:	c2f8                	sw	a4,68(a3)
8000a4c4:	6e1f 81a5 0000      	0x81a56e1f
8000a4ca:	0000                	unimp
8000a4cc:	0000                	unimp
8000a4ce:	3c90                	fld	fa2,56(s1)
8000a4d0:	0000                	unimp
8000a4d2:	4c00                	lw	s0,24(s0)
8000a4d4:	4260                	lw	s0,68(a2)
8000a4d6:	0da2                	slli	s11,s11,0x8
8000a4d8:	f2ca                	fsw	fs2,100(sp)
8000a4da:	f149                	bnez	a0,8000a45c <dp_l+0x68>
8000a4dc:	4260                	lw	s0,68(a2)
8000a4de:	8da2                	mv	s11,s0
8000a4e0:	0000                	unimp
8000a4e2:	3300                	fld	fs0,32(a4)

Disassembly of section .sbss:

8000a4e4 <__malloc_max_total_mem>:
8000a4e4:	0000                	unimp
	...

8000a4e8 <__malloc_max_sbrked_mem>:
8000a4e8:	0000                	unimp
	...

8000a4ec <__malloc_top_pad>:
8000a4ec:	0000                	unimp
	...

Disassembly of section .bss:

8000a4f0 <lights>:
	...

8000a520 <spheres>:
	...

Disassembly of section .comment:

00000000 <.comment>:
   0:	3a434347          	fmsub.d	ft6,ft6,ft4,ft7,rmm
   4:	2820                	fld	fs0,80(s0)
   6:	29554e47          	fmsub.s	ft8,fa0,fs5,ft5,rmm
   a:	3120                	fld	fs0,96(a0)
   c:	2e31                	jal	328 <_start-0x7ffffcd8>
   e:	2e31                	jal	32a <_start-0x7ffffcd6>
  10:	0030                	addi	a2,sp,8

Disassembly of section .riscv.attributes:

00000000 <.riscv.attributes>:
   0:	1f41                	addi	t5,t5,-16
   2:	0000                	unimp
   4:	7200                	flw	fs0,32(a2)
   6:	7369                	lui	t1,0xffffa
   8:	01007663          	bgeu	zero,a6,14 <_start-0x7fffffec>
   c:	0015                	c.nop	5
   e:	0000                	unimp
  10:	1004                	addi	s1,sp,32
  12:	7205                	lui	tp,0xfffe1
  14:	3376                	fld	ft6,376(sp)
  16:	6932                	flw	fs2,12(sp)
  18:	7032                	flw	ft0,44(sp)
  1a:	0030                	addi	a2,sp,8
  1c:	0108                	addi	a0,sp,128
  1e:	0b0a                	slli	s6,s6,0x2
