
./BOOT.elf:     file format elf32-littleriscv
./BOOT.elf
architecture: riscv:rv32, flags 0x00000112:
EXEC_P, HAS_SYMS, D_PAGED
start address 0x20000000

Program Header:
    LOAD off    0x00001000 vaddr 0x20000000 paddr 0x20000000 align 2**12
         filesz 0x0000a5e4 memsz 0x0000b0e5 flags rwx

Sections:
Idx Name          Size      VMA       LMA       File off  Algn
  0 .boot         0000008c  20000000  20000000  00001000  2**2
                  CONTENTS, ALLOC, LOAD, READONLY, CODE
  1 .text         00007a34  20000100  20000100  00001100  2**8
                  CONTENTS, ALLOC, LOAD, READONLY, CODE
  2 .rodata       00000fe8  20007b34  20007b34  00008b34  2**2
                  CONTENTS, ALLOC, LOAD, READONLY, DATA
  3 .srodata      00000004  20008b1c  20008b1c  00009b1c  2**2
                  CONTENTS, ALLOC, LOAD, READONLY, DATA
  4 .eh_frame     00000d90  20008b20  20008b20  00009b20  2**2
                  CONTENTS, ALLOC, LOAD, READONLY, DATA
  5 .data         00000cbc  200098b0  200098b0  0000a8b0  2**3
                  CONTENTS, ALLOC, LOAD, DATA
  6 .got          00000064  2000a56c  2000a56c  0000b56c  2**2
                  CONTENTS, ALLOC, LOAD, DATA
  7 .got.plt      00000008  2000a5d0  2000a5d0  0000b5d0  2**2
                  CONTENTS, ALLOC, LOAD, DATA
  8 .sdata        0000000c  2000a5d8  2000a5d8  0000b5d8  2**2
                  CONTENTS, ALLOC, LOAD, DATA
  9 .sbss         00000010  2000a5e4  2000a5e4  0000b5e4  2**2
                  ALLOC
 10 .bss          00000af1  2000a5f4  2000a5f4  0000b5e4  2**2
                  ALLOC
 11 .comment      00000012  00000000  00000000  0000b5e4  2**0
                  CONTENTS, READONLY
 12 .riscv.attributes 00000025  00000000  00000000  0000b5f6  2**0
                  CONTENTS, READONLY
SYMBOL TABLE:
20000000 l    d  .boot	00000000 .boot
20000100 l    d  .text	00000000 .text
20007b34 l    d  .rodata	00000000 .rodata
20008b1c l    d  .srodata	00000000 .srodata
20008b20 l    d  .eh_frame	00000000 .eh_frame
200098b0 l    d  .data	00000000 .data
2000a56c l    d  .got	00000000 .got
2000a5d0 l    d  .got.plt	00000000 .got.plt
2000a5d8 l    d  .sdata	00000000 .sdata
2000a5e4 l    d  .sbss	00000000 .sbss
2000a5f4 l    d  .bss	00000000 .bss
00000000 l    d  .comment	00000000 .comment
00000000 l    d  .riscv.attributes	00000000 .riscv.attributes
00000000 l    df *ABS*	00000000 rom.cpp
20000078 l       .boot	00000000 workerhartstart
20000060 l       .boot	00000000 noatexitfound
2000a84c l     O .bss	00000200 _ZL11commandline
2000aa4c l     O .bss	00000004 _ZL6cmdlen
2000aa50 l     O .bss	00000080 _ZL8filename
2000aad0 l     O .bss	00000004 _ZZ16ProcessKeyEventsvE9uppercase
2000a0e0 l     O .data	00000200 _ZL10currentdir
00000000 l    df *ABS*	00000000 atexit.c
00000000 l    df *ABS*	00000000 errno.c
00000000 l    df *ABS*	00000000 fini.c
00000000 l    df *ABS*	00000000 init.c
00000000 l    df *ABS*	00000000 malloc.c
00000000 l    df *ABS*	00000000 mallocr.c
00000000 l    df *ABS*	00000000 memcmp.c
00000000 l    df *ABS*	00000000 memcpy.c
00000000 l    df *ABS*	00000000 mlock.c
00000000 l    df *ABS*	00000000 sbrkr.c
00000000 l    df *ABS*	00000000 strcat.c
00000000 l    df *ABS*	00000000 strchr.c
00000000 l    df *ABS*	00000000 strcpy.c
00000000 l    df *ABS*	00000000 strstr.c
200010c8 l     F .text	0000040c two_way_long_needle
00000000 l    df *ABS*	00000000 strtok.c
00000000 l    df *ABS*	00000000 strtok_r.c
00000000 l    df *ABS*	00000000 __atexit.c
00000000 l    df *ABS*	00000000 mallocr.c
00000000 l    df *ABS*	00000000 strlen.c
00000000 l    df *ABS*	00000000 strnlen.c
00000000 l    df *ABS*	00000000 libgcc2.c
00000000 l    df *ABS*	00000000 uart.c
00000000 l    df *ABS*	00000000 core.c
2000a340 l     O .data	00000004 _ZL10heap_start
00000000 l    df *ABS*	00000000 ringbuffer.c
00000000 l    df *ABS*	00000000 ps2.c
00000000 l    df *ABS*	00000000 sdcard.c
00000000 l    df *ABS*	00000000 ff.c
20004920 l     F .text	00000104 _ZL12get_ldnumberPPKc
20004a24 l     F .text	00000214 _ZL8check_fsP5FATFSm
20004c38 l     F .text	00000454 _ZL12mount_volumePPKcPP5FATFSh.constprop.0
2000508c l     F .text	00000208 _ZL7get_fatP7FFOBJIDm.isra.0
20005294 l     F .text	000002cc _ZL7dir_sdiP3DIRm.constprop.0
20005560 l     F .text	00000a64 _ZL11follow_pathP3DIRPKc
2000aed4 l     O .bss	00000002 _ZL4Fsid
2000aed8 l     O .bss	0000000c _ZL5FatFs
2000aee4 l     O .bss	00000200 _ZL6LfnBuf
2000b0e4 l     O .bss	00000001 _ZL7CurrVol
2000a560 l     O .data	0000000c _ZL9VolumeStr
200086b8 l     O .rodata	00000080 _ZL5ExCvt
20008738 l     O .rodata	0000000d _ZL6LfnOfs
00000000 l    df *ABS*	00000000 ffunicode.c
2000876c l     O .rodata	00000100 _ZL5uc437
2000886c l     O .rodata	000001f2 _ZZ11ff_wtoupperE4cvt1
20008a60 l     O .rodata	000000bc _ZZ11ff_wtoupperE4cvt2
00000000 l    df *ABS*	00000000 diskio.c
00000000 l    df *ABS*	00000000 libgcc2.c
00000000 l    df *ABS*	00000000 impure.c
200098b0 l     O .data	00000428 impure_data
00000000 l    df *ABS*	00000000 task.c
00000000 l    df *ABS*	00000000 buttons.c
00000000 l    df *ABS*	00000000 memtest.c
00000000 l    df *ABS*	00000000 nanojpeg.c
00000000 l    df *ABS*	00000000 micromod.c
00000000 l    df *ABS*	00000000 spi.c
20008b1c l       .srodata	00000000 __fini_array_end
20008b1c l       .srodata	00000000 __fini_array_start
20008b1c l       .srodata	00000000 __init_array_end
20008b1c l       .srodata	00000000 __preinit_array_end
2000a56c l     O .got	00000000 _GLOBAL_OFFSET_TABLE_
20008b1c l       .srodata	00000000 __init_array_start
20008b1c l       .srodata	00000000 __preinit_array_start
20003b68 g     F .text	000000ac _Z14RingBufferReadPhPvm
20001018 g     F .text	000000b0 strcpy
2000181c g     F .text	00000008 strtok_r
2000ade0 g       *ABS*	00000000 __global_pointer$
200098b0 g       .data	00000000 _fdata
20002300 g     F .text	000000c0 _Z32worker_interrupt_service_routinev
200024e0 g     F .text	00000044 _Z11HandleTimerv
20003388 g     F .text	00000024 _Z9UARTFlushv
20000c70 g     F .text	00000004 __malloc_unlock
200045e4 g     F .text	00000158 _Z17SDReadSingleBlockmPhS_
20003130 g     F .text	000001ac _Z16ProcessKeyEventsv
2000acd4 g     O .bss	00000200 keymapprev
20002c08 g     F .text	0000000c _Z3CLSv
20001784 g     F .text	00000098 __strtok_r
2000a458 g     O .data	00000100 scantoasciitable_uppercase
20000114 g     F .text	0000000c __errno
20003cbc g     F .text	0000009c _Z12ScanKeyboardPt
200039d4 g     F .text	00000014 _Z17E32SetTimeComparey
2000a5f0 g     O .sbss	00000004 errno
20008b1c g       .rodata	00000000 _etext
2000ade0 g       .sdata	00000000 _gp
2000a334 g     O .data	00000004 IO_UARTRX
20007960 g     F .text	00000158 ff_wtoupper
2000a354 g     O .data	00000004 PS2KEYBOARDDATAAVAIL
200033e4 g     F .text	00000014 _Z11UARTPutCharc
2000008c g       .boot	00000000 _boot
2000244c g     F .text	00000094 _Z13HandleButtonsv
20000a68 g     F .text	00000128 memcpy
20003488 g     F .text	0000007c _Z16UARTWriteHexByteh
20007ac4 g     F .text	00000030 disk_initialize
20002400 g     F .text	0000004c _Z10HandleUARTv
20003d84 g     F .text	0000001c _Z7SPITxRxh
20000218 g     F .text	00000010 malloc
200064dc g     F .text	000000c0 f_chdir
2000a5f4 g       .bss	00000000 _bss_start
2000a5ec g     O .sbss	00000004 __malloc_top_pad
20007ab8 g     F .text	0000000c disk_status
20000c74 g     F .text	00000060 _sbrk_r
20004760 g     F .text	000000b4 _Z20SDReadMultipleBlocksPhmm
20006c1c g     F .text	00000070 f_closedir
2000a5e8 g     O .sbss	00000004 __malloc_max_sbrked_mem
20008b1c g     O .srodata	00000004 _global_impure_ptr
2000017c g     F .text	0000009c __libc_init_array
200039b0 g     F .text	00000024 _Z9ClockToMsy
20001dd8 g     F .text	00000430 .hidden __udivdi3
2000a34c g     O .data	00000004 m_writeOffset
20003b28 g     F .text	00000040 _sbrk
20003370 g     F .text	00000018 _Z11UARTHasDatav
2000a358 g     O .data	00000100 scantoasciitable_lowercase
20001da0 g     F .text	00000038 strnlen
2000b0e5 g       .bss	00000000 _bss_end
200078b0 g     F .text	00000078 ff_uni2oem
20000120 g     F .text	0000005c __libc_fini_array
200042e4 g     F .text	00000040 _Z11SDResponse1v
2000a344 g     O .data	00000004 IO_SPIRXTX
20000cd4 g     F .text	00000088 strcat
200064a0 g     F .text	0000003c f_chdrive
200039e8 g     F .text	00000024 _chdir
2000a558 g     O .data	00000004 BUTTONCHANGE
20001a00 g     F .text	00000314 _free_r
200043c8 g     F .text	0000005c _Z6SDIdlev
20006430 g     F .text	00000070 f_close
2000008c g       .boot	00000000 _ftext
2000a5dc g     O .sdata	00000004 __malloc_sbrk_base
20000000 g     F .boot	0000008c _start
20003b04 g     F .text	00000024 _wait
200014d4 g     F .text	0000029c strstr
20003654 g     F .text	00000348 _Z16UARTWriteDecimall
20001824 g     F .text	0000009c __register_exitproc
20006198 g     F .text	00000298 f_read
200029f0 g     F .text	00000050 _Z10InstallISRv
20006c8c g     F .text	00000c24 f_readdir
2000a5f4 g     O .bss	00000028 __malloc_current_mallinfo
20002c14 g     F .text	0000001c _Z14FlushDataCachev
200045c4 g     F .text	00000020 _Z17SDSetBlockSize512v
20001770 g     F .text	00000014 strtok
2000a350 g     O .data	00000004 PS2KEYBOARDDATA
200009f0 g     F .text	00000078 memcmp
20009cd8 g     O .data	00000408 __malloc_av_
20000c6c g     F .text	00000004 __malloc_lock
20002a88 g     F .text	00000180 _Z9ListFilesPKc
20000b90 g     F .text	000000dc memset
200032f0 g     F .text	00000080 main
2000a5e4 g     O .sbss	00000004 __malloc_max_total_mem
200033f8 g     F .text	00000090 _Z9UARTWritePKc
20002eec g     F .text	00000244 _Z13ParseCommandsv
20003d58 g     F .text	0000002c _Z11ScanToASCIIhh
200044b0 g     F .text	00000114 _Z10SDCardInitv
20000238 g     F .text	000007b8 _malloc_r
20005fc4 g     F .text	0000009c f_mount
2000473c g     F .text	00000024 _Z18SDWriteSingleBlockmPhS_
20002a40 g     F .text	00000048 _Z16InstallWorkerISRv
20006b10 g     F .text	0000010c f_opendir
200018c0 g     F .text	00000140 _malloc_trim_r
20002524 g     F .text	000000e4 _Z14HandleKeyboardv
20007928 g     F .text	00000038 ff_oem2uni
20000e9c g     F .text	0000017c strcmp
20003a54 g     F .text	00000024 _openat
2000659c g     F .text	00000574 f_lseek
20007b34 g     O .rodata	00000100 .hidden __clz_tab
200048c4 g     F .text	0000005c _Z13SDCardStartupv
20003da0 g     F .text	00000544 _Z5SDCmd13SDCardCommandm
20000100 g     F .text	00000014 atexit
2000a33c g     O .data	00000004 IO_UARTTX
20004424 g     F .text	0000008c _Z19SDCheckVoltageRangev
2000a5d8 g     O .sdata	00000004 _impure_ptr
20003a30 g     F .text	00000024 _lstat
20004324 g     F .text	000000a4 _Z11SDResponse7Pm
2000b0e5 g       .bss	00000000 __BSS_END__$
20003a0c g     F .text	00000024 _getcwd
20003a78 g     F .text	0000008c _write
2000a56c g       .data	00000000 _edata
2000b0e8 g       .bss	00000000 _end
2000a348 g     O .data	00000004 m_readOffset
2000a5e0 g     O .sdata	00000004 __malloc_trim_threshold
20006060 g     F .text	00000138 f_open
20002c30 g     F .text	000002bc _Z29ParseELFHeaderAndLoadSectionsP3FILP16SElfFileHeader32Rm
200033ac g     F .text	00000038 _Z8UARTReadv
2000a338 g     O .data	00000004 IO_UARTStatus
2000008c g     F .boot	00000000 _exit
20003c14 g     F .text	000000a8 _Z15RingBufferWritePhPKvm
2000399c g     F .text	00000014 _Z11E32ReadTimev
2000aad4 g     O .bss	00000200 keymap
20001d14 g     F .text	0000008c strlen
20007af4 g     F .text	00000040 disk_read
2000a2e0 g     O .data	00000004 keyboardringbuffer
20002800 g     F .text	00000110 _Z25interrupt_service_routinev
20000d5c g     F .text	00000140 strchr
2000a2e4 g     O .data	00000050 FRtoString
20004814 g     F .text	000000b0 _Z21SDWriteMultipleBlocksPKhmm
2000a61c g     O .bss	00000230 Fs
20002608 g     F .text	00000168 _Z10HandleTrapmmmm
20003504 g     F .text	00000150 _Z12UARTWriteHexm
2000a5e8 g       .sbss	00000000 _fbss
2000a55c g     O .data	00000004 BUTTONCHANGEAVAIL
200032dc g     F .text	00000014 _Z10workermainv
20000228 g     F .text	00000010 free



Disassembly of section .boot:

20000000 <_start>:
20000000:	0000a197          	auipc	gp,0xa
20000004:	5701a183          	lw	gp,1392(gp) # 2000a570 <_GLOBAL_OFFSET_TABLE_+0x4>
20000008:	f14024f3          	csrr	s1,mhartid
2000000c:	00c49493          	slli	s1,s1,0xc
20000010:	20000937          	lui	s2,0x20000
20000014:	ff090913          	addi	s2,s2,-16 # 1ffffff0 <_start-0x10>
20000018:	40990933          	sub	s2,s2,s1
2000001c:	00090113          	mv	sp,s2
20000020:	00010413          	mv	s0,sp
20000024:	04049a63          	bnez	s1,20000078 <workerhartstart>
20000028:	0000a517          	auipc	a0,0xa
2000002c:	57852503          	lw	a0,1400(a0) # 2000a5a0 <_GLOBAL_OFFSET_TABLE_+0x34>
20000030:	0000a617          	auipc	a2,0xa
20000034:	57c62603          	lw	a2,1404(a2) # 2000a5ac <_GLOBAL_OFFSET_TABLE_+0x40>
20000038:	40a60633          	sub	a2,a2,a0
2000003c:	00000593          	li	a1,0
20000040:	351000ef          	jal	ra,20000b90 <memset>
20000044:	0000a517          	auipc	a0,0xa
20000048:	56052503          	lw	a0,1376(a0) # 2000a5a4 <_GLOBAL_OFFSET_TABLE_+0x38>
2000004c:	00050a63          	beqz	a0,20000060 <noatexitfound>
20000050:	00001517          	auipc	a0,0x1
20000054:	0000a517          	auipc	a0,0xa
20000058:	53c52503          	lw	a0,1340(a0) # 2000a590 <_GLOBAL_OFFSET_TABLE_+0x24>
2000005c:	0a4000ef          	jal	ra,20000100 <atexit>

20000060 <noatexitfound>:
20000060:	11c000ef          	jal	ra,2000017c <__libc_init_array>
20000064:	00012503          	lw	a0,0(sp)
20000068:	00410593          	addi	a1,sp,4
2000006c:	00000613          	li	a2,0
20000070:	2800306f          	j	200032f0 <main>
20000074:	00100073          	ebreak

20000078 <workerhartstart>:
20000078:	00012503          	lw	a0,0(sp)
2000007c:	00410593          	addi	a1,sp,4
20000080:	00000613          	li	a2,0
20000084:	2580306f          	j	200032dc <_Z10workermainv>
20000088:	00100073          	ebreak

Disassembly of section .text:

20000100 <atexit>:
20000100:	00050593          	mv	a1,a0
20000104:	00000693          	li	a3,0
20000108:	00000613          	li	a2,0
2000010c:	00000513          	li	a0,0
20000110:	7140106f          	j	20001824 <__register_exitproc>

20000114 <__errno>:
20000114:	2000a7b7          	lui	a5,0x2000a
20000118:	5d87a503          	lw	a0,1496(a5) # 2000a5d8 <_impure_ptr>
2000011c:	00008067          	ret

20000120 <__libc_fini_array>:
20000120:	ff010113          	addi	sp,sp,-16
20000124:	00812423          	sw	s0,8(sp)
20000128:	200097b7          	lui	a5,0x20009
2000012c:	20009437          	lui	s0,0x20009
20000130:	b1c78793          	addi	a5,a5,-1252 # 20008b1c <_global_impure_ptr>
20000134:	b1c40413          	addi	s0,s0,-1252 # 20008b1c <_global_impure_ptr>
20000138:	40f40433          	sub	s0,s0,a5
2000013c:	00912223          	sw	s1,4(sp)
20000140:	00112623          	sw	ra,12(sp)
20000144:	40245493          	srai	s1,s0,0x2
20000148:	02048063          	beqz	s1,20000168 <__libc_fini_array+0x48>
2000014c:	ffc40413          	addi	s0,s0,-4
20000150:	00f40433          	add	s0,s0,a5
20000154:	00042783          	lw	a5,0(s0)
20000158:	fff48493          	addi	s1,s1,-1
2000015c:	ffc40413          	addi	s0,s0,-4
20000160:	000780e7          	jalr	a5
20000164:	fe0498e3          	bnez	s1,20000154 <__libc_fini_array+0x34>
20000168:	00c12083          	lw	ra,12(sp)
2000016c:	00812403          	lw	s0,8(sp)
20000170:	00412483          	lw	s1,4(sp)
20000174:	01010113          	addi	sp,sp,16
20000178:	00008067          	ret

2000017c <__libc_init_array>:
2000017c:	ff010113          	addi	sp,sp,-16
20000180:	00812423          	sw	s0,8(sp)
20000184:	01212023          	sw	s2,0(sp)
20000188:	20009437          	lui	s0,0x20009
2000018c:	20009937          	lui	s2,0x20009
20000190:	b1c40793          	addi	a5,s0,-1252 # 20008b1c <_global_impure_ptr>
20000194:	b1c90913          	addi	s2,s2,-1252 # 20008b1c <_global_impure_ptr>
20000198:	40f90933          	sub	s2,s2,a5
2000019c:	00112623          	sw	ra,12(sp)
200001a0:	00912223          	sw	s1,4(sp)
200001a4:	40295913          	srai	s2,s2,0x2
200001a8:	02090063          	beqz	s2,200001c8 <__libc_init_array+0x4c>
200001ac:	b1c40413          	addi	s0,s0,-1252
200001b0:	00000493          	li	s1,0
200001b4:	00042783          	lw	a5,0(s0)
200001b8:	00148493          	addi	s1,s1,1
200001bc:	00440413          	addi	s0,s0,4
200001c0:	000780e7          	jalr	a5
200001c4:	fe9918e3          	bne	s2,s1,200001b4 <__libc_init_array+0x38>
200001c8:	20009437          	lui	s0,0x20009
200001cc:	20009937          	lui	s2,0x20009
200001d0:	b1c40793          	addi	a5,s0,-1252 # 20008b1c <_global_impure_ptr>
200001d4:	b1c90913          	addi	s2,s2,-1252 # 20008b1c <_global_impure_ptr>
200001d8:	40f90933          	sub	s2,s2,a5
200001dc:	40295913          	srai	s2,s2,0x2
200001e0:	02090063          	beqz	s2,20000200 <__libc_init_array+0x84>
200001e4:	b1c40413          	addi	s0,s0,-1252
200001e8:	00000493          	li	s1,0
200001ec:	00042783          	lw	a5,0(s0)
200001f0:	00148493          	addi	s1,s1,1
200001f4:	00440413          	addi	s0,s0,4
200001f8:	000780e7          	jalr	a5
200001fc:	fe9918e3          	bne	s2,s1,200001ec <__libc_init_array+0x70>
20000200:	00c12083          	lw	ra,12(sp)
20000204:	00812403          	lw	s0,8(sp)
20000208:	00412483          	lw	s1,4(sp)
2000020c:	00012903          	lw	s2,0(sp)
20000210:	01010113          	addi	sp,sp,16
20000214:	00008067          	ret

20000218 <malloc>:
20000218:	2000a7b7          	lui	a5,0x2000a
2000021c:	00050593          	mv	a1,a0
20000220:	5d87a503          	lw	a0,1496(a5) # 2000a5d8 <_impure_ptr>
20000224:	0140006f          	j	20000238 <_malloc_r>

20000228 <free>:
20000228:	2000a7b7          	lui	a5,0x2000a
2000022c:	00050593          	mv	a1,a0
20000230:	5d87a503          	lw	a0,1496(a5) # 2000a5d8 <_impure_ptr>
20000234:	7cc0106f          	j	20001a00 <_free_r>

20000238 <_malloc_r>:
20000238:	fd010113          	addi	sp,sp,-48
2000023c:	01312e23          	sw	s3,28(sp)
20000240:	02112623          	sw	ra,44(sp)
20000244:	02812423          	sw	s0,40(sp)
20000248:	02912223          	sw	s1,36(sp)
2000024c:	03212023          	sw	s2,32(sp)
20000250:	01412c23          	sw	s4,24(sp)
20000254:	01512a23          	sw	s5,20(sp)
20000258:	01612823          	sw	s6,16(sp)
2000025c:	01712623          	sw	s7,12(sp)
20000260:	01812423          	sw	s8,8(sp)
20000264:	01912223          	sw	s9,4(sp)
20000268:	00b58793          	addi	a5,a1,11
2000026c:	01600713          	li	a4,22
20000270:	00050993          	mv	s3,a0
20000274:	06f76663          	bltu	a4,a5,200002e0 <_malloc_r+0xa8>
20000278:	01000793          	li	a5,16
2000027c:	1eb7e663          	bltu	a5,a1,20000468 <_malloc_r+0x230>
20000280:	1ed000ef          	jal	ra,20000c6c <__malloc_lock>
20000284:	01000493          	li	s1,16
20000288:	01800793          	li	a5,24
2000028c:	00200613          	li	a2,2
20000290:	2000a937          	lui	s2,0x2000a
20000294:	cd890913          	addi	s2,s2,-808 # 20009cd8 <__malloc_av_>
20000298:	00f907b3          	add	a5,s2,a5
2000029c:	0047a403          	lw	s0,4(a5)
200002a0:	ff878713          	addi	a4,a5,-8
200002a4:	20e40a63          	beq	s0,a4,200004b8 <_malloc_r+0x280>
200002a8:	00442783          	lw	a5,4(s0)
200002ac:	00c42683          	lw	a3,12(s0)
200002b0:	00842603          	lw	a2,8(s0)
200002b4:	ffc7f793          	andi	a5,a5,-4
200002b8:	00f407b3          	add	a5,s0,a5
200002bc:	0047a703          	lw	a4,4(a5)
200002c0:	00d62623          	sw	a3,12(a2)
200002c4:	00c6a423          	sw	a2,8(a3)
200002c8:	00176713          	ori	a4,a4,1
200002cc:	00098513          	mv	a0,s3
200002d0:	00e7a223          	sw	a4,4(a5)
200002d4:	19d000ef          	jal	ra,20000c70 <__malloc_unlock>
200002d8:	00840513          	addi	a0,s0,8
200002dc:	1980006f          	j	20000474 <_malloc_r+0x23c>
200002e0:	ff87f493          	andi	s1,a5,-8
200002e4:	1807c263          	bltz	a5,20000468 <_malloc_r+0x230>
200002e8:	18b4e063          	bltu	s1,a1,20000468 <_malloc_r+0x230>
200002ec:	181000ef          	jal	ra,20000c6c <__malloc_lock>
200002f0:	1f700793          	li	a5,503
200002f4:	4697f663          	bgeu	a5,s1,20000760 <_malloc_r+0x528>
200002f8:	0094d793          	srli	a5,s1,0x9
200002fc:	1a078663          	beqz	a5,200004a8 <_malloc_r+0x270>
20000300:	00400713          	li	a4,4
20000304:	3cf76c63          	bltu	a4,a5,200006dc <_malloc_r+0x4a4>
20000308:	0064d793          	srli	a5,s1,0x6
2000030c:	03978613          	addi	a2,a5,57
20000310:	03878513          	addi	a0,a5,56
20000314:	00361693          	slli	a3,a2,0x3
20000318:	2000a937          	lui	s2,0x2000a
2000031c:	cd890913          	addi	s2,s2,-808 # 20009cd8 <__malloc_av_>
20000320:	00d906b3          	add	a3,s2,a3
20000324:	0046a403          	lw	s0,4(a3)
20000328:	ff868693          	addi	a3,a3,-8
2000032c:	02868663          	beq	a3,s0,20000358 <_malloc_r+0x120>
20000330:	00f00593          	li	a1,15
20000334:	0100006f          	j	20000344 <_malloc_r+0x10c>
20000338:	32075c63          	bgez	a4,20000670 <_malloc_r+0x438>
2000033c:	00c42403          	lw	s0,12(s0)
20000340:	00868c63          	beq	a3,s0,20000358 <_malloc_r+0x120>
20000344:	00442783          	lw	a5,4(s0)
20000348:	ffc7f793          	andi	a5,a5,-4
2000034c:	40978733          	sub	a4,a5,s1
20000350:	fee5d4e3          	bge	a1,a4,20000338 <_malloc_r+0x100>
20000354:	00050613          	mv	a2,a0
20000358:	01092403          	lw	s0,16(s2)
2000035c:	00890893          	addi	a7,s2,8
20000360:	17140863          	beq	s0,a7,200004d0 <_malloc_r+0x298>
20000364:	00442583          	lw	a1,4(s0)
20000368:	00f00713          	li	a4,15
2000036c:	ffc5f593          	andi	a1,a1,-4
20000370:	409587b3          	sub	a5,a1,s1
20000374:	40f74c63          	blt	a4,a5,2000078c <_malloc_r+0x554>
20000378:	01192a23          	sw	a7,20(s2)
2000037c:	01192823          	sw	a7,16(s2)
20000380:	3e07d663          	bgez	a5,2000076c <_malloc_r+0x534>
20000384:	1ff00793          	li	a5,511
20000388:	2eb7ea63          	bltu	a5,a1,2000067c <_malloc_r+0x444>
2000038c:	ff85f793          	andi	a5,a1,-8
20000390:	00878793          	addi	a5,a5,8
20000394:	00492503          	lw	a0,4(s2)
20000398:	00f907b3          	add	a5,s2,a5
2000039c:	0007a683          	lw	a3,0(a5)
200003a0:	0055d593          	srli	a1,a1,0x5
200003a4:	00100713          	li	a4,1
200003a8:	00b71733          	sll	a4,a4,a1
200003ac:	00a76733          	or	a4,a4,a0
200003b0:	ff878593          	addi	a1,a5,-8
200003b4:	00b42623          	sw	a1,12(s0)
200003b8:	00d42423          	sw	a3,8(s0)
200003bc:	00e92223          	sw	a4,4(s2)
200003c0:	0087a023          	sw	s0,0(a5)
200003c4:	0086a623          	sw	s0,12(a3)
200003c8:	40265793          	srai	a5,a2,0x2
200003cc:	00100593          	li	a1,1
200003d0:	00f595b3          	sll	a1,a1,a5
200003d4:	10b76863          	bltu	a4,a1,200004e4 <_malloc_r+0x2ac>
200003d8:	00e5f7b3          	and	a5,a1,a4
200003dc:	02079463          	bnez	a5,20000404 <_malloc_r+0x1cc>
200003e0:	00159593          	slli	a1,a1,0x1
200003e4:	ffc67613          	andi	a2,a2,-4
200003e8:	00e5f7b3          	and	a5,a1,a4
200003ec:	00460613          	addi	a2,a2,4
200003f0:	00079a63          	bnez	a5,20000404 <_malloc_r+0x1cc>
200003f4:	00159593          	slli	a1,a1,0x1
200003f8:	00e5f7b3          	and	a5,a1,a4
200003fc:	00460613          	addi	a2,a2,4
20000400:	fe078ae3          	beqz	a5,200003f4 <_malloc_r+0x1bc>
20000404:	00f00813          	li	a6,15
20000408:	00361313          	slli	t1,a2,0x3
2000040c:	00690333          	add	t1,s2,t1
20000410:	00030513          	mv	a0,t1
20000414:	00c52783          	lw	a5,12(a0)
20000418:	00060e13          	mv	t3,a2
2000041c:	2ef50263          	beq	a0,a5,20000700 <_malloc_r+0x4c8>
20000420:	0047a703          	lw	a4,4(a5)
20000424:	00078413          	mv	s0,a5
20000428:	00c7a783          	lw	a5,12(a5)
2000042c:	ffc77713          	andi	a4,a4,-4
20000430:	409706b3          	sub	a3,a4,s1
20000434:	2ed84263          	blt	a6,a3,20000718 <_malloc_r+0x4e0>
20000438:	fe06c2e3          	bltz	a3,2000041c <_malloc_r+0x1e4>
2000043c:	00e40733          	add	a4,s0,a4
20000440:	00472683          	lw	a3,4(a4)
20000444:	00842603          	lw	a2,8(s0)
20000448:	00098513          	mv	a0,s3
2000044c:	0016e693          	ori	a3,a3,1
20000450:	00d72223          	sw	a3,4(a4)
20000454:	00f62623          	sw	a5,12(a2)
20000458:	00c7a423          	sw	a2,8(a5)
2000045c:	015000ef          	jal	ra,20000c70 <__malloc_unlock>
20000460:	00840513          	addi	a0,s0,8
20000464:	0100006f          	j	20000474 <_malloc_r+0x23c>
20000468:	00c00793          	li	a5,12
2000046c:	00f9a023          	sw	a5,0(s3)
20000470:	00000513          	li	a0,0
20000474:	02c12083          	lw	ra,44(sp)
20000478:	02812403          	lw	s0,40(sp)
2000047c:	02412483          	lw	s1,36(sp)
20000480:	02012903          	lw	s2,32(sp)
20000484:	01c12983          	lw	s3,28(sp)
20000488:	01812a03          	lw	s4,24(sp)
2000048c:	01412a83          	lw	s5,20(sp)
20000490:	01012b03          	lw	s6,16(sp)
20000494:	00c12b83          	lw	s7,12(sp)
20000498:	00812c03          	lw	s8,8(sp)
2000049c:	00412c83          	lw	s9,4(sp)
200004a0:	03010113          	addi	sp,sp,48
200004a4:	00008067          	ret
200004a8:	20000693          	li	a3,512
200004ac:	04000613          	li	a2,64
200004b0:	03f00513          	li	a0,63
200004b4:	e65ff06f          	j	20000318 <_malloc_r+0xe0>
200004b8:	00c7a403          	lw	s0,12(a5)
200004bc:	00260613          	addi	a2,a2,2
200004c0:	de8794e3          	bne	a5,s0,200002a8 <_malloc_r+0x70>
200004c4:	01092403          	lw	s0,16(s2)
200004c8:	00890893          	addi	a7,s2,8
200004cc:	e9141ce3          	bne	s0,a7,20000364 <_malloc_r+0x12c>
200004d0:	00492703          	lw	a4,4(s2)
200004d4:	40265793          	srai	a5,a2,0x2
200004d8:	00100593          	li	a1,1
200004dc:	00f595b3          	sll	a1,a1,a5
200004e0:	eeb77ce3          	bgeu	a4,a1,200003d8 <_malloc_r+0x1a0>
200004e4:	00892403          	lw	s0,8(s2)
200004e8:	00442b03          	lw	s6,4(s0)
200004ec:	ffcb7b13          	andi	s6,s6,-4
200004f0:	009b6863          	bltu	s6,s1,20000500 <_malloc_r+0x2c8>
200004f4:	409b07b3          	sub	a5,s6,s1
200004f8:	00f00713          	li	a4,15
200004fc:	14f74663          	blt	a4,a5,20000648 <_malloc_r+0x410>
20000500:	2000a7b7          	lui	a5,0x2000a
20000504:	2000acb7          	lui	s9,0x2000a
20000508:	5ec7aa83          	lw	s5,1516(a5) # 2000a5ec <__malloc_top_pad>
2000050c:	5dcca703          	lw	a4,1500(s9) # 2000a5dc <__malloc_sbrk_base>
20000510:	fff00793          	li	a5,-1
20000514:	01640a33          	add	s4,s0,s6
20000518:	01548ab3          	add	s5,s1,s5
2000051c:	34f70a63          	beq	a4,a5,20000870 <_malloc_r+0x638>
20000520:	000017b7          	lui	a5,0x1
20000524:	00f78793          	addi	a5,a5,15 # 100f <_start-0x1fffeff1>
20000528:	00fa8ab3          	add	s5,s5,a5
2000052c:	fffff7b7          	lui	a5,0xfffff
20000530:	00fafab3          	and	s5,s5,a5
20000534:	000a8593          	mv	a1,s5
20000538:	00098513          	mv	a0,s3
2000053c:	738000ef          	jal	ra,20000c74 <_sbrk_r>
20000540:	fff00793          	li	a5,-1
20000544:	00050b93          	mv	s7,a0
20000548:	28f50c63          	beq	a0,a5,200007e0 <_malloc_r+0x5a8>
2000054c:	29456863          	bltu	a0,s4,200007dc <_malloc_r+0x5a4>
20000550:	2000ac37          	lui	s8,0x2000a
20000554:	5f4c0c13          	addi	s8,s8,1524 # 2000a5f4 <__malloc_current_mallinfo>
20000558:	000c2583          	lw	a1,0(s8)
2000055c:	00ba85b3          	add	a1,s5,a1
20000560:	00bc2023          	sw	a1,0(s8)
20000564:	00058793          	mv	a5,a1
20000568:	3aaa0463          	beq	s4,a0,20000910 <_malloc_r+0x6d8>
2000056c:	5dcca683          	lw	a3,1500(s9)
20000570:	fff00713          	li	a4,-1
20000574:	3ae68c63          	beq	a3,a4,2000092c <_malloc_r+0x6f4>
20000578:	414b8a33          	sub	s4,s7,s4
2000057c:	00fa07b3          	add	a5,s4,a5
20000580:	00fc2023          	sw	a5,0(s8)
20000584:	007bfc93          	andi	s9,s7,7
20000588:	300c8663          	beqz	s9,20000894 <_malloc_r+0x65c>
2000058c:	000017b7          	lui	a5,0x1
20000590:	419b8bb3          	sub	s7,s7,s9
20000594:	00878593          	addi	a1,a5,8 # 1008 <_start-0x1fffeff8>
20000598:	008b8b93          	addi	s7,s7,8
2000059c:	419585b3          	sub	a1,a1,s9
200005a0:	015b8ab3          	add	s5,s7,s5
200005a4:	fff78793          	addi	a5,a5,-1
200005a8:	415585b3          	sub	a1,a1,s5
200005ac:	00f5fa33          	and	s4,a1,a5
200005b0:	000a0593          	mv	a1,s4
200005b4:	00098513          	mv	a0,s3
200005b8:	6bc000ef          	jal	ra,20000c74 <_sbrk_r>
200005bc:	fff00793          	li	a5,-1
200005c0:	3cf50063          	beq	a0,a5,20000980 <_malloc_r+0x748>
200005c4:	41750533          	sub	a0,a0,s7
200005c8:	01450ab3          	add	s5,a0,s4
200005cc:	000c2783          	lw	a5,0(s8)
200005d0:	01792423          	sw	s7,8(s2)
200005d4:	001aea93          	ori	s5,s5,1
200005d8:	00fa05b3          	add	a1,s4,a5
200005dc:	00bc2023          	sw	a1,0(s8)
200005e0:	015ba223          	sw	s5,4(s7)
200005e4:	35240863          	beq	s0,s2,20000934 <_malloc_r+0x6fc>
200005e8:	00f00693          	li	a3,15
200005ec:	3566f863          	bgeu	a3,s6,2000093c <_malloc_r+0x704>
200005f0:	00442703          	lw	a4,4(s0)
200005f4:	ff4b0793          	addi	a5,s6,-12
200005f8:	ff87f793          	andi	a5,a5,-8
200005fc:	00177713          	andi	a4,a4,1
20000600:	00f76733          	or	a4,a4,a5
20000604:	00e42223          	sw	a4,4(s0)
20000608:	00500613          	li	a2,5
2000060c:	00f40733          	add	a4,s0,a5
20000610:	00c72223          	sw	a2,4(a4)
20000614:	00c72423          	sw	a2,8(a4)
20000618:	36f6ee63          	bltu	a3,a5,20000994 <_malloc_r+0x75c>
2000061c:	004baa83          	lw	s5,4(s7)
20000620:	000b8413          	mv	s0,s7
20000624:	2000a7b7          	lui	a5,0x2000a
20000628:	5e87a703          	lw	a4,1512(a5) # 2000a5e8 <__malloc_max_sbrked_mem>
2000062c:	00b77463          	bgeu	a4,a1,20000634 <_malloc_r+0x3fc>
20000630:	5eb7a423          	sw	a1,1512(a5)
20000634:	2000a7b7          	lui	a5,0x2000a
20000638:	5e47a703          	lw	a4,1508(a5) # 2000a5e4 <__malloc_max_total_mem>
2000063c:	1ab77663          	bgeu	a4,a1,200007e8 <_malloc_r+0x5b0>
20000640:	5eb7a223          	sw	a1,1508(a5)
20000644:	1a40006f          	j	200007e8 <_malloc_r+0x5b0>
20000648:	0014e713          	ori	a4,s1,1
2000064c:	00e42223          	sw	a4,4(s0)
20000650:	009404b3          	add	s1,s0,s1
20000654:	00992423          	sw	s1,8(s2)
20000658:	0017e793          	ori	a5,a5,1
2000065c:	00098513          	mv	a0,s3
20000660:	00f4a223          	sw	a5,4(s1)
20000664:	60c000ef          	jal	ra,20000c70 <__malloc_unlock>
20000668:	00840513          	addi	a0,s0,8
2000066c:	e09ff06f          	j	20000474 <_malloc_r+0x23c>
20000670:	00c42683          	lw	a3,12(s0)
20000674:	00842603          	lw	a2,8(s0)
20000678:	c41ff06f          	j	200002b8 <_malloc_r+0x80>
2000067c:	0095d793          	srli	a5,a1,0x9
20000680:	00400713          	li	a4,4
20000684:	14f77263          	bgeu	a4,a5,200007c8 <_malloc_r+0x590>
20000688:	01400713          	li	a4,20
2000068c:	22f76a63          	bltu	a4,a5,200008c0 <_malloc_r+0x688>
20000690:	05c78693          	addi	a3,a5,92
20000694:	05b78713          	addi	a4,a5,91
20000698:	00369693          	slli	a3,a3,0x3
2000069c:	00d906b3          	add	a3,s2,a3
200006a0:	0006a783          	lw	a5,0(a3)
200006a4:	ff868693          	addi	a3,a3,-8
200006a8:	1cf68863          	beq	a3,a5,20000878 <_malloc_r+0x640>
200006ac:	0047a703          	lw	a4,4(a5)
200006b0:	ffc77713          	andi	a4,a4,-4
200006b4:	00e5f663          	bgeu	a1,a4,200006c0 <_malloc_r+0x488>
200006b8:	0087a783          	lw	a5,8(a5)
200006bc:	fef698e3          	bne	a3,a5,200006ac <_malloc_r+0x474>
200006c0:	00c7a683          	lw	a3,12(a5)
200006c4:	00492703          	lw	a4,4(s2)
200006c8:	00d42623          	sw	a3,12(s0)
200006cc:	00f42423          	sw	a5,8(s0)
200006d0:	0086a423          	sw	s0,8(a3)
200006d4:	0087a623          	sw	s0,12(a5)
200006d8:	cf1ff06f          	j	200003c8 <_malloc_r+0x190>
200006dc:	01400713          	li	a4,20
200006e0:	12f77663          	bgeu	a4,a5,2000080c <_malloc_r+0x5d4>
200006e4:	05400713          	li	a4,84
200006e8:	1ef76a63          	bltu	a4,a5,200008dc <_malloc_r+0x6a4>
200006ec:	00c4d793          	srli	a5,s1,0xc
200006f0:	06f78613          	addi	a2,a5,111
200006f4:	06e78513          	addi	a0,a5,110
200006f8:	00361693          	slli	a3,a2,0x3
200006fc:	c1dff06f          	j	20000318 <_malloc_r+0xe0>
20000700:	001e0e13          	addi	t3,t3,1
20000704:	003e7793          	andi	a5,t3,3
20000708:	00850513          	addi	a0,a0,8
2000070c:	10078e63          	beqz	a5,20000828 <_malloc_r+0x5f0>
20000710:	00c52783          	lw	a5,12(a0)
20000714:	d09ff06f          	j	2000041c <_malloc_r+0x1e4>
20000718:	00842603          	lw	a2,8(s0)
2000071c:	0014e593          	ori	a1,s1,1
20000720:	00b42223          	sw	a1,4(s0)
20000724:	00f62623          	sw	a5,12(a2)
20000728:	00c7a423          	sw	a2,8(a5)
2000072c:	009404b3          	add	s1,s0,s1
20000730:	00992a23          	sw	s1,20(s2)
20000734:	00992823          	sw	s1,16(s2)
20000738:	0016e793          	ori	a5,a3,1
2000073c:	0114a623          	sw	a7,12(s1)
20000740:	0114a423          	sw	a7,8(s1)
20000744:	00f4a223          	sw	a5,4(s1)
20000748:	00e40733          	add	a4,s0,a4
2000074c:	00098513          	mv	a0,s3
20000750:	00d72023          	sw	a3,0(a4)
20000754:	51c000ef          	jal	ra,20000c70 <__malloc_unlock>
20000758:	00840513          	addi	a0,s0,8
2000075c:	d19ff06f          	j	20000474 <_malloc_r+0x23c>
20000760:	0034d613          	srli	a2,s1,0x3
20000764:	00848793          	addi	a5,s1,8
20000768:	b29ff06f          	j	20000290 <_malloc_r+0x58>
2000076c:	00b405b3          	add	a1,s0,a1
20000770:	0045a783          	lw	a5,4(a1)
20000774:	00098513          	mv	a0,s3
20000778:	0017e793          	ori	a5,a5,1
2000077c:	00f5a223          	sw	a5,4(a1)
20000780:	4f0000ef          	jal	ra,20000c70 <__malloc_unlock>
20000784:	00840513          	addi	a0,s0,8
20000788:	cedff06f          	j	20000474 <_malloc_r+0x23c>
2000078c:	0014e713          	ori	a4,s1,1
20000790:	00e42223          	sw	a4,4(s0)
20000794:	009404b3          	add	s1,s0,s1
20000798:	00992a23          	sw	s1,20(s2)
2000079c:	00992823          	sw	s1,16(s2)
200007a0:	0017e713          	ori	a4,a5,1
200007a4:	0114a623          	sw	a7,12(s1)
200007a8:	0114a423          	sw	a7,8(s1)
200007ac:	00e4a223          	sw	a4,4(s1)
200007b0:	00b405b3          	add	a1,s0,a1
200007b4:	00098513          	mv	a0,s3
200007b8:	00f5a023          	sw	a5,0(a1)
200007bc:	4b4000ef          	jal	ra,20000c70 <__malloc_unlock>
200007c0:	00840513          	addi	a0,s0,8
200007c4:	cb1ff06f          	j	20000474 <_malloc_r+0x23c>
200007c8:	0065d793          	srli	a5,a1,0x6
200007cc:	03978693          	addi	a3,a5,57
200007d0:	03878713          	addi	a4,a5,56
200007d4:	00369693          	slli	a3,a3,0x3
200007d8:	ec5ff06f          	j	2000069c <_malloc_r+0x464>
200007dc:	11240e63          	beq	s0,s2,200008f8 <_malloc_r+0x6c0>
200007e0:	00892403          	lw	s0,8(s2)
200007e4:	00442a83          	lw	s5,4(s0)
200007e8:	ffcafa93          	andi	s5,s5,-4
200007ec:	409a87b3          	sub	a5,s5,s1
200007f0:	009ae663          	bltu	s5,s1,200007fc <_malloc_r+0x5c4>
200007f4:	00f00713          	li	a4,15
200007f8:	e4f748e3          	blt	a4,a5,20000648 <_malloc_r+0x410>
200007fc:	00098513          	mv	a0,s3
20000800:	470000ef          	jal	ra,20000c70 <__malloc_unlock>
20000804:	00000513          	li	a0,0
20000808:	c6dff06f          	j	20000474 <_malloc_r+0x23c>
2000080c:	05c78613          	addi	a2,a5,92
20000810:	05b78513          	addi	a0,a5,91
20000814:	00361693          	slli	a3,a2,0x3
20000818:	b01ff06f          	j	20000318 <_malloc_r+0xe0>
2000081c:	00832783          	lw	a5,8(t1)
20000820:	fff60613          	addi	a2,a2,-1
20000824:	1c679263          	bne	a5,t1,200009e8 <_malloc_r+0x7b0>
20000828:	00367793          	andi	a5,a2,3
2000082c:	ff830313          	addi	t1,t1,-8
20000830:	fe0796e3          	bnez	a5,2000081c <_malloc_r+0x5e4>
20000834:	00492703          	lw	a4,4(s2)
20000838:	fff5c793          	not	a5,a1
2000083c:	00e7f7b3          	and	a5,a5,a4
20000840:	00f92223          	sw	a5,4(s2)
20000844:	00159593          	slli	a1,a1,0x1
20000848:	c8b7eee3          	bltu	a5,a1,200004e4 <_malloc_r+0x2ac>
2000084c:	c8058ce3          	beqz	a1,200004e4 <_malloc_r+0x2ac>
20000850:	00f5f733          	and	a4,a1,a5
20000854:	00071a63          	bnez	a4,20000868 <_malloc_r+0x630>
20000858:	00159593          	slli	a1,a1,0x1
2000085c:	00f5f733          	and	a4,a1,a5
20000860:	004e0e13          	addi	t3,t3,4
20000864:	fe070ae3          	beqz	a4,20000858 <_malloc_r+0x620>
20000868:	000e0613          	mv	a2,t3
2000086c:	b9dff06f          	j	20000408 <_malloc_r+0x1d0>
20000870:	010a8a93          	addi	s5,s5,16
20000874:	cc1ff06f          	j	20000534 <_malloc_r+0x2fc>
20000878:	00492503          	lw	a0,4(s2)
2000087c:	40275593          	srai	a1,a4,0x2
20000880:	00100713          	li	a4,1
20000884:	00b71733          	sll	a4,a4,a1
20000888:	00a76733          	or	a4,a4,a0
2000088c:	00e92223          	sw	a4,4(s2)
20000890:	e39ff06f          	j	200006c8 <_malloc_r+0x490>
20000894:	015b85b3          	add	a1,s7,s5
20000898:	40b005b3          	neg	a1,a1
2000089c:	01459593          	slli	a1,a1,0x14
200008a0:	0145da13          	srli	s4,a1,0x14
200008a4:	000a0593          	mv	a1,s4
200008a8:	00098513          	mv	a0,s3
200008ac:	3c8000ef          	jal	ra,20000c74 <_sbrk_r>
200008b0:	fff00793          	li	a5,-1
200008b4:	d0f518e3          	bne	a0,a5,200005c4 <_malloc_r+0x38c>
200008b8:	00000a13          	li	s4,0
200008bc:	d11ff06f          	j	200005cc <_malloc_r+0x394>
200008c0:	05400713          	li	a4,84
200008c4:	08f76263          	bltu	a4,a5,20000948 <_malloc_r+0x710>
200008c8:	00c5d793          	srli	a5,a1,0xc
200008cc:	06f78693          	addi	a3,a5,111
200008d0:	06e78713          	addi	a4,a5,110
200008d4:	00369693          	slli	a3,a3,0x3
200008d8:	dc5ff06f          	j	2000069c <_malloc_r+0x464>
200008dc:	15400713          	li	a4,340
200008e0:	08f76263          	bltu	a4,a5,20000964 <_malloc_r+0x72c>
200008e4:	00f4d793          	srli	a5,s1,0xf
200008e8:	07878613          	addi	a2,a5,120
200008ec:	07778513          	addi	a0,a5,119
200008f0:	00361693          	slli	a3,a2,0x3
200008f4:	a25ff06f          	j	20000318 <_malloc_r+0xe0>
200008f8:	2000ac37          	lui	s8,0x2000a
200008fc:	5f4c0c13          	addi	s8,s8,1524 # 2000a5f4 <__malloc_current_mallinfo>
20000900:	000c2783          	lw	a5,0(s8)
20000904:	00fa87b3          	add	a5,s5,a5
20000908:	00fc2023          	sw	a5,0(s8)
2000090c:	c61ff06f          	j	2000056c <_malloc_r+0x334>
20000910:	014a1713          	slli	a4,s4,0x14
20000914:	c4071ce3          	bnez	a4,2000056c <_malloc_r+0x334>
20000918:	00892403          	lw	s0,8(s2)
2000091c:	015b0ab3          	add	s5,s6,s5
20000920:	001aea93          	ori	s5,s5,1
20000924:	01542223          	sw	s5,4(s0)
20000928:	cfdff06f          	j	20000624 <_malloc_r+0x3ec>
2000092c:	5d7cae23          	sw	s7,1500(s9)
20000930:	c55ff06f          	j	20000584 <_malloc_r+0x34c>
20000934:	000b8413          	mv	s0,s7
20000938:	cedff06f          	j	20000624 <_malloc_r+0x3ec>
2000093c:	00100793          	li	a5,1
20000940:	00fba223          	sw	a5,4(s7)
20000944:	eb9ff06f          	j	200007fc <_malloc_r+0x5c4>
20000948:	15400713          	li	a4,340
2000094c:	06f76263          	bltu	a4,a5,200009b0 <_malloc_r+0x778>
20000950:	00f5d793          	srli	a5,a1,0xf
20000954:	07878693          	addi	a3,a5,120
20000958:	07778713          	addi	a4,a5,119
2000095c:	00369693          	slli	a3,a3,0x3
20000960:	d3dff06f          	j	2000069c <_malloc_r+0x464>
20000964:	55400713          	li	a4,1364
20000968:	06f76263          	bltu	a4,a5,200009cc <_malloc_r+0x794>
2000096c:	0124d793          	srli	a5,s1,0x12
20000970:	07d78613          	addi	a2,a5,125
20000974:	07c78513          	addi	a0,a5,124
20000978:	00361693          	slli	a3,a2,0x3
2000097c:	99dff06f          	j	20000318 <_malloc_r+0xe0>
20000980:	ff8c8c93          	addi	s9,s9,-8
20000984:	019a8ab3          	add	s5,s5,s9
20000988:	417a8ab3          	sub	s5,s5,s7
2000098c:	00000a13          	li	s4,0
20000990:	c3dff06f          	j	200005cc <_malloc_r+0x394>
20000994:	00840593          	addi	a1,s0,8
20000998:	00098513          	mv	a0,s3
2000099c:	064010ef          	jal	ra,20001a00 <_free_r>
200009a0:	00892403          	lw	s0,8(s2)
200009a4:	000c2583          	lw	a1,0(s8)
200009a8:	00442a83          	lw	s5,4(s0)
200009ac:	c79ff06f          	j	20000624 <_malloc_r+0x3ec>
200009b0:	55400713          	li	a4,1364
200009b4:	02f76463          	bltu	a4,a5,200009dc <_malloc_r+0x7a4>
200009b8:	0125d793          	srli	a5,a1,0x12
200009bc:	07d78693          	addi	a3,a5,125
200009c0:	07c78713          	addi	a4,a5,124
200009c4:	00369693          	slli	a3,a3,0x3
200009c8:	cd5ff06f          	j	2000069c <_malloc_r+0x464>
200009cc:	3f800693          	li	a3,1016
200009d0:	07f00613          	li	a2,127
200009d4:	07e00513          	li	a0,126
200009d8:	941ff06f          	j	20000318 <_malloc_r+0xe0>
200009dc:	3f800693          	li	a3,1016
200009e0:	07e00713          	li	a4,126
200009e4:	cb9ff06f          	j	2000069c <_malloc_r+0x464>
200009e8:	00492783          	lw	a5,4(s2)
200009ec:	e59ff06f          	j	20000844 <_malloc_r+0x60c>

200009f0 <memcmp>:
200009f0:	00300793          	li	a5,3
200009f4:	02c7f863          	bgeu	a5,a2,20000a24 <memcmp+0x34>
200009f8:	00b567b3          	or	a5,a0,a1
200009fc:	0037f793          	andi	a5,a5,3
20000a00:	00300693          	li	a3,3
20000a04:	04079e63          	bnez	a5,20000a60 <memcmp+0x70>
20000a08:	00052703          	lw	a4,0(a0)
20000a0c:	0005a783          	lw	a5,0(a1)
20000a10:	04f71863          	bne	a4,a5,20000a60 <memcmp+0x70>
20000a14:	ffc60613          	addi	a2,a2,-4
20000a18:	00450513          	addi	a0,a0,4
20000a1c:	00458593          	addi	a1,a1,4
20000a20:	fec6e4e3          	bltu	a3,a2,20000a08 <memcmp+0x18>
20000a24:	fff60693          	addi	a3,a2,-1
20000a28:	02060863          	beqz	a2,20000a58 <memcmp+0x68>
20000a2c:	00168693          	addi	a3,a3,1
20000a30:	00d506b3          	add	a3,a0,a3
20000a34:	0080006f          	j	20000a3c <memcmp+0x4c>
20000a38:	02d50063          	beq	a0,a3,20000a58 <memcmp+0x68>
20000a3c:	00054783          	lbu	a5,0(a0)
20000a40:	0005c703          	lbu	a4,0(a1)
20000a44:	00150513          	addi	a0,a0,1
20000a48:	00158593          	addi	a1,a1,1
20000a4c:	fee786e3          	beq	a5,a4,20000a38 <memcmp+0x48>
20000a50:	40e78533          	sub	a0,a5,a4
20000a54:	00008067          	ret
20000a58:	00000513          	li	a0,0
20000a5c:	00008067          	ret
20000a60:	fff60693          	addi	a3,a2,-1
20000a64:	fc9ff06f          	j	20000a2c <memcmp+0x3c>

20000a68 <memcpy>:
20000a68:	00b547b3          	xor	a5,a0,a1
20000a6c:	0037f793          	andi	a5,a5,3
20000a70:	00c508b3          	add	a7,a0,a2
20000a74:	06079663          	bnez	a5,20000ae0 <memcpy+0x78>
20000a78:	00300793          	li	a5,3
20000a7c:	06c7f263          	bgeu	a5,a2,20000ae0 <memcpy+0x78>
20000a80:	00357793          	andi	a5,a0,3
20000a84:	00050713          	mv	a4,a0
20000a88:	0c079a63          	bnez	a5,20000b5c <memcpy+0xf4>
20000a8c:	ffc8f613          	andi	a2,a7,-4
20000a90:	40e606b3          	sub	a3,a2,a4
20000a94:	02000793          	li	a5,32
20000a98:	02000293          	li	t0,32
20000a9c:	06d7c263          	blt	a5,a3,20000b00 <memcpy+0x98>
20000aa0:	00058693          	mv	a3,a1
20000aa4:	00070793          	mv	a5,a4
20000aa8:	02c77863          	bgeu	a4,a2,20000ad8 <memcpy+0x70>
20000aac:	0006a803          	lw	a6,0(a3)
20000ab0:	00478793          	addi	a5,a5,4
20000ab4:	00468693          	addi	a3,a3,4
20000ab8:	ff07ae23          	sw	a6,-4(a5)
20000abc:	fec7e8e3          	bltu	a5,a2,20000aac <memcpy+0x44>
20000ac0:	fff60793          	addi	a5,a2,-1
20000ac4:	40e787b3          	sub	a5,a5,a4
20000ac8:	ffc7f793          	andi	a5,a5,-4
20000acc:	00478793          	addi	a5,a5,4
20000ad0:	00f70733          	add	a4,a4,a5
20000ad4:	00f585b3          	add	a1,a1,a5
20000ad8:	01176863          	bltu	a4,a7,20000ae8 <memcpy+0x80>
20000adc:	00008067          	ret
20000ae0:	00050713          	mv	a4,a0
20000ae4:	ff157ce3          	bgeu	a0,a7,20000adc <memcpy+0x74>
20000ae8:	0005c783          	lbu	a5,0(a1)
20000aec:	00170713          	addi	a4,a4,1
20000af0:	00158593          	addi	a1,a1,1
20000af4:	fef70fa3          	sb	a5,-1(a4)
20000af8:	ff1768e3          	bltu	a4,a7,20000ae8 <memcpy+0x80>
20000afc:	00008067          	ret
20000b00:	0045a683          	lw	a3,4(a1)
20000b04:	01c5a783          	lw	a5,28(a1)
20000b08:	0005af83          	lw	t6,0(a1)
20000b0c:	0085af03          	lw	t5,8(a1)
20000b10:	00c5ae83          	lw	t4,12(a1)
20000b14:	0105ae03          	lw	t3,16(a1)
20000b18:	0145a303          	lw	t1,20(a1)
20000b1c:	0185a803          	lw	a6,24(a1)
20000b20:	00d72223          	sw	a3,4(a4)
20000b24:	0205a683          	lw	a3,32(a1)
20000b28:	01f72023          	sw	t6,0(a4)
20000b2c:	01e72423          	sw	t5,8(a4)
20000b30:	01d72623          	sw	t4,12(a4)
20000b34:	01c72823          	sw	t3,16(a4)
20000b38:	00672a23          	sw	t1,20(a4)
20000b3c:	01072c23          	sw	a6,24(a4)
20000b40:	00f72e23          	sw	a5,28(a4)
20000b44:	02470713          	addi	a4,a4,36
20000b48:	40e607b3          	sub	a5,a2,a4
20000b4c:	fed72e23          	sw	a3,-4(a4)
20000b50:	02458593          	addi	a1,a1,36
20000b54:	faf2c6e3          	blt	t0,a5,20000b00 <memcpy+0x98>
20000b58:	f49ff06f          	j	20000aa0 <memcpy+0x38>
20000b5c:	0005c683          	lbu	a3,0(a1)
20000b60:	00170713          	addi	a4,a4,1
20000b64:	00377793          	andi	a5,a4,3
20000b68:	fed70fa3          	sb	a3,-1(a4)
20000b6c:	00158593          	addi	a1,a1,1
20000b70:	f0078ee3          	beqz	a5,20000a8c <memcpy+0x24>
20000b74:	0005c683          	lbu	a3,0(a1)
20000b78:	00170713          	addi	a4,a4,1
20000b7c:	00377793          	andi	a5,a4,3
20000b80:	fed70fa3          	sb	a3,-1(a4)
20000b84:	00158593          	addi	a1,a1,1
20000b88:	fc079ae3          	bnez	a5,20000b5c <memcpy+0xf4>
20000b8c:	f01ff06f          	j	20000a8c <memcpy+0x24>

20000b90 <memset>:
20000b90:	00f00313          	li	t1,15
20000b94:	00050713          	mv	a4,a0
20000b98:	02c37e63          	bgeu	t1,a2,20000bd4 <memset+0x44>
20000b9c:	00f77793          	andi	a5,a4,15
20000ba0:	0a079063          	bnez	a5,20000c40 <memset+0xb0>
20000ba4:	08059263          	bnez	a1,20000c28 <memset+0x98>
20000ba8:	ff067693          	andi	a3,a2,-16
20000bac:	00f67613          	andi	a2,a2,15
20000bb0:	00e686b3          	add	a3,a3,a4
20000bb4:	00b72023          	sw	a1,0(a4)
20000bb8:	00b72223          	sw	a1,4(a4)
20000bbc:	00b72423          	sw	a1,8(a4)
20000bc0:	00b72623          	sw	a1,12(a4)
20000bc4:	01070713          	addi	a4,a4,16
20000bc8:	fed766e3          	bltu	a4,a3,20000bb4 <memset+0x24>
20000bcc:	00061463          	bnez	a2,20000bd4 <memset+0x44>
20000bd0:	00008067          	ret
20000bd4:	40c306b3          	sub	a3,t1,a2
20000bd8:	00269693          	slli	a3,a3,0x2
20000bdc:	00000297          	auipc	t0,0x0
20000be0:	005686b3          	add	a3,a3,t0
20000be4:	00c68067          	jr	12(a3)
20000be8:	00b70723          	sb	a1,14(a4)
20000bec:	00b706a3          	sb	a1,13(a4)
20000bf0:	00b70623          	sb	a1,12(a4)
20000bf4:	00b705a3          	sb	a1,11(a4)
20000bf8:	00b70523          	sb	a1,10(a4)
20000bfc:	00b704a3          	sb	a1,9(a4)
20000c00:	00b70423          	sb	a1,8(a4)
20000c04:	00b703a3          	sb	a1,7(a4)
20000c08:	00b70323          	sb	a1,6(a4)
20000c0c:	00b702a3          	sb	a1,5(a4)
20000c10:	00b70223          	sb	a1,4(a4)
20000c14:	00b701a3          	sb	a1,3(a4)
20000c18:	00b70123          	sb	a1,2(a4)
20000c1c:	00b700a3          	sb	a1,1(a4)
20000c20:	00b70023          	sb	a1,0(a4)
20000c24:	00008067          	ret
20000c28:	0ff5f593          	zext.b	a1,a1
20000c2c:	00859693          	slli	a3,a1,0x8
20000c30:	00d5e5b3          	or	a1,a1,a3
20000c34:	01059693          	slli	a3,a1,0x10
20000c38:	00d5e5b3          	or	a1,a1,a3
20000c3c:	f6dff06f          	j	20000ba8 <memset+0x18>
20000c40:	00279693          	slli	a3,a5,0x2
20000c44:	00000297          	auipc	t0,0x0
20000c48:	005686b3          	add	a3,a3,t0
20000c4c:	00008293          	mv	t0,ra
20000c50:	fa0680e7          	jalr	-96(a3)
20000c54:	00028093          	mv	ra,t0
20000c58:	ff078793          	addi	a5,a5,-16
20000c5c:	40f70733          	sub	a4,a4,a5
20000c60:	00f60633          	add	a2,a2,a5
20000c64:	f6c378e3          	bgeu	t1,a2,20000bd4 <memset+0x44>
20000c68:	f3dff06f          	j	20000ba4 <memset+0x14>

20000c6c <__malloc_lock>:
20000c6c:	00008067          	ret

20000c70 <__malloc_unlock>:
20000c70:	00008067          	ret

20000c74 <_sbrk_r>:
20000c74:	ff010113          	addi	sp,sp,-16
20000c78:	00812423          	sw	s0,8(sp)
20000c7c:	00912223          	sw	s1,4(sp)
20000c80:	00050413          	mv	s0,a0
20000c84:	2000a4b7          	lui	s1,0x2000a
20000c88:	00058513          	mv	a0,a1
20000c8c:	00112623          	sw	ra,12(sp)
20000c90:	5e04a823          	sw	zero,1520(s1) # 2000a5f0 <errno>
20000c94:	695020ef          	jal	ra,20003b28 <_sbrk>
20000c98:	fff00793          	li	a5,-1
20000c9c:	00f50c63          	beq	a0,a5,20000cb4 <_sbrk_r+0x40>
20000ca0:	00c12083          	lw	ra,12(sp)
20000ca4:	00812403          	lw	s0,8(sp)
20000ca8:	00412483          	lw	s1,4(sp)
20000cac:	01010113          	addi	sp,sp,16
20000cb0:	00008067          	ret
20000cb4:	5f04a783          	lw	a5,1520(s1)
20000cb8:	fe0784e3          	beqz	a5,20000ca0 <_sbrk_r+0x2c>
20000cbc:	00c12083          	lw	ra,12(sp)
20000cc0:	00f42023          	sw	a5,0(s0)
20000cc4:	00812403          	lw	s0,8(sp)
20000cc8:	00412483          	lw	s1,4(sp)
20000ccc:	01010113          	addi	sp,sp,16
20000cd0:	00008067          	ret

20000cd4 <strcat>:
20000cd4:	ff010113          	addi	sp,sp,-16
20000cd8:	00812423          	sw	s0,8(sp)
20000cdc:	00112623          	sw	ra,12(sp)
20000ce0:	00357793          	andi	a5,a0,3
20000ce4:	00050413          	mv	s0,a0
20000ce8:	04079463          	bnez	a5,20000d30 <strcat+0x5c>
20000cec:	00052703          	lw	a4,0(a0)
20000cf0:	feff0637          	lui	a2,0xfeff0
20000cf4:	eff60613          	addi	a2,a2,-257 # fefefeff <_end+0xdefe4e17>
20000cf8:	00c707b3          	add	a5,a4,a2
20000cfc:	808086b7          	lui	a3,0x80808
20000d00:	fff74713          	not	a4,a4
20000d04:	00e7f7b3          	and	a5,a5,a4
20000d08:	08068693          	addi	a3,a3,128 # 80808080 <_end+0x607fcf98>
20000d0c:	00d7f7b3          	and	a5,a5,a3
20000d10:	02079063          	bnez	a5,20000d30 <strcat+0x5c>
20000d14:	00452703          	lw	a4,4(a0)
20000d18:	00450513          	addi	a0,a0,4
20000d1c:	00c707b3          	add	a5,a4,a2
20000d20:	fff74713          	not	a4,a4
20000d24:	00e7f7b3          	and	a5,a5,a4
20000d28:	00d7f7b3          	and	a5,a5,a3
20000d2c:	fe0784e3          	beqz	a5,20000d14 <strcat+0x40>
20000d30:	00054783          	lbu	a5,0(a0)
20000d34:	00078863          	beqz	a5,20000d44 <strcat+0x70>
20000d38:	00154783          	lbu	a5,1(a0)
20000d3c:	00150513          	addi	a0,a0,1
20000d40:	fe079ce3          	bnez	a5,20000d38 <strcat+0x64>
20000d44:	2d4000ef          	jal	ra,20001018 <strcpy>
20000d48:	00c12083          	lw	ra,12(sp)
20000d4c:	00040513          	mv	a0,s0
20000d50:	00812403          	lw	s0,8(sp)
20000d54:	01010113          	addi	sp,sp,16
20000d58:	00008067          	ret

20000d5c <strchr>:
20000d5c:	0ff5f693          	zext.b	a3,a1
20000d60:	00357793          	andi	a5,a0,3
20000d64:	0c068063          	beqz	a3,20000e24 <strchr+0xc8>
20000d68:	00078e63          	beqz	a5,20000d84 <strchr+0x28>
20000d6c:	00054783          	lbu	a5,0(a0)
20000d70:	0a078663          	beqz	a5,20000e1c <strchr+0xc0>
20000d74:	0ad78663          	beq	a5,a3,20000e20 <strchr+0xc4>
20000d78:	00150513          	addi	a0,a0,1
20000d7c:	00357793          	andi	a5,a0,3
20000d80:	fe0796e3          	bnez	a5,20000d6c <strchr+0x10>
20000d84:	0ff5f593          	zext.b	a1,a1
20000d88:	00859793          	slli	a5,a1,0x8
20000d8c:	00f5e5b3          	or	a1,a1,a5
20000d90:	00052703          	lw	a4,0(a0)
20000d94:	01059313          	slli	t1,a1,0x10
20000d98:	00b36333          	or	t1,t1,a1
20000d9c:	feff0837          	lui	a6,0xfeff0
20000da0:	00e34633          	xor	a2,t1,a4
20000da4:	eff80813          	addi	a6,a6,-257 # fefefeff <_end+0xdefe4e17>
20000da8:	010607b3          	add	a5,a2,a6
20000dac:	010705b3          	add	a1,a4,a6
20000db0:	fff64613          	not	a2,a2
20000db4:	fff74713          	not	a4,a4
20000db8:	00c7f7b3          	and	a5,a5,a2
20000dbc:	00e5f733          	and	a4,a1,a4
20000dc0:	808088b7          	lui	a7,0x80808
20000dc4:	00e7e7b3          	or	a5,a5,a4
20000dc8:	08088893          	addi	a7,a7,128 # 80808080 <_end+0x607fcf98>
20000dcc:	0117f7b3          	and	a5,a5,a7
20000dd0:	02079a63          	bnez	a5,20000e04 <strchr+0xa8>
20000dd4:	00452703          	lw	a4,4(a0)
20000dd8:	00450513          	addi	a0,a0,4
20000ddc:	00674633          	xor	a2,a4,t1
20000de0:	010707b3          	add	a5,a4,a6
20000de4:	010605b3          	add	a1,a2,a6
20000de8:	fff74713          	not	a4,a4
20000dec:	fff64613          	not	a2,a2
20000df0:	00e7f7b3          	and	a5,a5,a4
20000df4:	00c5f733          	and	a4,a1,a2
20000df8:	00e7e7b3          	or	a5,a5,a4
20000dfc:	0117f7b3          	and	a5,a5,a7
20000e00:	fc078ae3          	beqz	a5,20000dd4 <strchr+0x78>
20000e04:	00054783          	lbu	a5,0(a0)
20000e08:	00078a63          	beqz	a5,20000e1c <strchr+0xc0>
20000e0c:	08f68663          	beq	a3,a5,20000e98 <strchr+0x13c>
20000e10:	00154783          	lbu	a5,1(a0)
20000e14:	00150513          	addi	a0,a0,1
20000e18:	fe079ae3          	bnez	a5,20000e0c <strchr+0xb0>
20000e1c:	00000513          	li	a0,0
20000e20:	00008067          	ret
20000e24:	00078c63          	beqz	a5,20000e3c <strchr+0xe0>
20000e28:	00054783          	lbu	a5,0(a0)
20000e2c:	fe078ae3          	beqz	a5,20000e20 <strchr+0xc4>
20000e30:	00150513          	addi	a0,a0,1
20000e34:	00357793          	andi	a5,a0,3
20000e38:	fe0798e3          	bnez	a5,20000e28 <strchr+0xcc>
20000e3c:	00052703          	lw	a4,0(a0)
20000e40:	feff0637          	lui	a2,0xfeff0
20000e44:	eff60613          	addi	a2,a2,-257 # fefefeff <_end+0xdefe4e17>
20000e48:	00c707b3          	add	a5,a4,a2
20000e4c:	808086b7          	lui	a3,0x80808
20000e50:	fff74713          	not	a4,a4
20000e54:	00e7f7b3          	and	a5,a5,a4
20000e58:	08068693          	addi	a3,a3,128 # 80808080 <_end+0x607fcf98>
20000e5c:	00d7f7b3          	and	a5,a5,a3
20000e60:	02079063          	bnez	a5,20000e80 <strchr+0x124>
20000e64:	00452703          	lw	a4,4(a0)
20000e68:	00450513          	addi	a0,a0,4
20000e6c:	00c707b3          	add	a5,a4,a2
20000e70:	fff74713          	not	a4,a4
20000e74:	00e7f7b3          	and	a5,a5,a4
20000e78:	00d7f7b3          	and	a5,a5,a3
20000e7c:	fe0784e3          	beqz	a5,20000e64 <strchr+0x108>
20000e80:	00054783          	lbu	a5,0(a0)
20000e84:	f8078ee3          	beqz	a5,20000e20 <strchr+0xc4>
20000e88:	00154783          	lbu	a5,1(a0)
20000e8c:	00150513          	addi	a0,a0,1
20000e90:	fe079ce3          	bnez	a5,20000e88 <strchr+0x12c>
20000e94:	00008067          	ret
20000e98:	00008067          	ret

20000e9c <strcmp>:
20000e9c:	00b56733          	or	a4,a0,a1
20000ea0:	fff00393          	li	t2,-1
20000ea4:	00377713          	andi	a4,a4,3
20000ea8:	10071063          	bnez	a4,20000fa8 <strcmp+0x10c>
20000eac:	7f7f87b7          	lui	a5,0x7f7f8
20000eb0:	f7f78793          	addi	a5,a5,-129 # 7f7f7f7f <_end+0x5f7ece97>
20000eb4:	00052603          	lw	a2,0(a0)
20000eb8:	0005a683          	lw	a3,0(a1)
20000ebc:	00f672b3          	and	t0,a2,a5
20000ec0:	00f66333          	or	t1,a2,a5
20000ec4:	00f282b3          	add	t0,t0,a5
20000ec8:	0062e2b3          	or	t0,t0,t1
20000ecc:	10729263          	bne	t0,t2,20000fd0 <strcmp+0x134>
20000ed0:	08d61663          	bne	a2,a3,20000f5c <strcmp+0xc0>
20000ed4:	00452603          	lw	a2,4(a0)
20000ed8:	0045a683          	lw	a3,4(a1)
20000edc:	00f672b3          	and	t0,a2,a5
20000ee0:	00f66333          	or	t1,a2,a5
20000ee4:	00f282b3          	add	t0,t0,a5
20000ee8:	0062e2b3          	or	t0,t0,t1
20000eec:	0c729e63          	bne	t0,t2,20000fc8 <strcmp+0x12c>
20000ef0:	06d61663          	bne	a2,a3,20000f5c <strcmp+0xc0>
20000ef4:	00852603          	lw	a2,8(a0)
20000ef8:	0085a683          	lw	a3,8(a1)
20000efc:	00f672b3          	and	t0,a2,a5
20000f00:	00f66333          	or	t1,a2,a5
20000f04:	00f282b3          	add	t0,t0,a5
20000f08:	0062e2b3          	or	t0,t0,t1
20000f0c:	0c729863          	bne	t0,t2,20000fdc <strcmp+0x140>
20000f10:	04d61663          	bne	a2,a3,20000f5c <strcmp+0xc0>
20000f14:	00c52603          	lw	a2,12(a0)
20000f18:	00c5a683          	lw	a3,12(a1)
20000f1c:	00f672b3          	and	t0,a2,a5
20000f20:	00f66333          	or	t1,a2,a5
20000f24:	00f282b3          	add	t0,t0,a5
20000f28:	0062e2b3          	or	t0,t0,t1
20000f2c:	0c729263          	bne	t0,t2,20000ff0 <strcmp+0x154>
20000f30:	02d61663          	bne	a2,a3,20000f5c <strcmp+0xc0>
20000f34:	01052603          	lw	a2,16(a0)
20000f38:	0105a683          	lw	a3,16(a1)
20000f3c:	00f672b3          	and	t0,a2,a5
20000f40:	00f66333          	or	t1,a2,a5
20000f44:	00f282b3          	add	t0,t0,a5
20000f48:	0062e2b3          	or	t0,t0,t1
20000f4c:	0a729c63          	bne	t0,t2,20001004 <strcmp+0x168>
20000f50:	01450513          	addi	a0,a0,20
20000f54:	01458593          	addi	a1,a1,20
20000f58:	f4d60ee3          	beq	a2,a3,20000eb4 <strcmp+0x18>
20000f5c:	01061713          	slli	a4,a2,0x10
20000f60:	01069793          	slli	a5,a3,0x10
20000f64:	00f71e63          	bne	a4,a5,20000f80 <strcmp+0xe4>
20000f68:	01065713          	srli	a4,a2,0x10
20000f6c:	0106d793          	srli	a5,a3,0x10
20000f70:	40f70533          	sub	a0,a4,a5
20000f74:	0ff57593          	zext.b	a1,a0
20000f78:	02059063          	bnez	a1,20000f98 <strcmp+0xfc>
20000f7c:	00008067          	ret
20000f80:	01075713          	srli	a4,a4,0x10
20000f84:	0107d793          	srli	a5,a5,0x10
20000f88:	40f70533          	sub	a0,a4,a5
20000f8c:	0ff57593          	zext.b	a1,a0
20000f90:	00059463          	bnez	a1,20000f98 <strcmp+0xfc>
20000f94:	00008067          	ret
20000f98:	0ff77713          	zext.b	a4,a4
20000f9c:	0ff7f793          	zext.b	a5,a5
20000fa0:	40f70533          	sub	a0,a4,a5
20000fa4:	00008067          	ret
20000fa8:	00054603          	lbu	a2,0(a0)
20000fac:	0005c683          	lbu	a3,0(a1)
20000fb0:	00150513          	addi	a0,a0,1
20000fb4:	00158593          	addi	a1,a1,1
20000fb8:	00d61463          	bne	a2,a3,20000fc0 <strcmp+0x124>
20000fbc:	fe0616e3          	bnez	a2,20000fa8 <strcmp+0x10c>
20000fc0:	40d60533          	sub	a0,a2,a3
20000fc4:	00008067          	ret
20000fc8:	00450513          	addi	a0,a0,4
20000fcc:	00458593          	addi	a1,a1,4
20000fd0:	fcd61ce3          	bne	a2,a3,20000fa8 <strcmp+0x10c>
20000fd4:	00000513          	li	a0,0
20000fd8:	00008067          	ret
20000fdc:	00850513          	addi	a0,a0,8
20000fe0:	00858593          	addi	a1,a1,8
20000fe4:	fcd612e3          	bne	a2,a3,20000fa8 <strcmp+0x10c>
20000fe8:	00000513          	li	a0,0
20000fec:	00008067          	ret
20000ff0:	00c50513          	addi	a0,a0,12
20000ff4:	00c58593          	addi	a1,a1,12
20000ff8:	fad618e3          	bne	a2,a3,20000fa8 <strcmp+0x10c>
20000ffc:	00000513          	li	a0,0
20001000:	00008067          	ret
20001004:	01050513          	addi	a0,a0,16
20001008:	01058593          	addi	a1,a1,16
2000100c:	f8d61ee3          	bne	a2,a3,20000fa8 <strcmp+0x10c>
20001010:	00000513          	li	a0,0
20001014:	00008067          	ret

20001018 <strcpy>:
20001018:	00b567b3          	or	a5,a0,a1
2000101c:	0037f793          	andi	a5,a5,3
20001020:	08079263          	bnez	a5,200010a4 <strcpy+0x8c>
20001024:	0005a703          	lw	a4,0(a1)
20001028:	7f7f86b7          	lui	a3,0x7f7f8
2000102c:	f7f68693          	addi	a3,a3,-129 # 7f7f7f7f <_end+0x5f7ece97>
20001030:	00d777b3          	and	a5,a4,a3
20001034:	00d787b3          	add	a5,a5,a3
20001038:	00e7e7b3          	or	a5,a5,a4
2000103c:	00d7e7b3          	or	a5,a5,a3
20001040:	fff00613          	li	a2,-1
20001044:	06c79e63          	bne	a5,a2,200010c0 <strcpy+0xa8>
20001048:	00050613          	mv	a2,a0
2000104c:	fff00813          	li	a6,-1
20001050:	00e62023          	sw	a4,0(a2)
20001054:	0045a703          	lw	a4,4(a1)
20001058:	00458593          	addi	a1,a1,4
2000105c:	00460613          	addi	a2,a2,4
20001060:	00d777b3          	and	a5,a4,a3
20001064:	00d787b3          	add	a5,a5,a3
20001068:	00e7e7b3          	or	a5,a5,a4
2000106c:	00d7e7b3          	or	a5,a5,a3
20001070:	ff0780e3          	beq	a5,a6,20001050 <strcpy+0x38>
20001074:	0005c783          	lbu	a5,0(a1)
20001078:	0015c703          	lbu	a4,1(a1)
2000107c:	0025c683          	lbu	a3,2(a1)
20001080:	00f60023          	sb	a5,0(a2)
20001084:	00078a63          	beqz	a5,20001098 <strcpy+0x80>
20001088:	00e600a3          	sb	a4,1(a2)
2000108c:	00070663          	beqz	a4,20001098 <strcpy+0x80>
20001090:	00d60123          	sb	a3,2(a2)
20001094:	00069463          	bnez	a3,2000109c <strcpy+0x84>
20001098:	00008067          	ret
2000109c:	000601a3          	sb	zero,3(a2)
200010a0:	00008067          	ret
200010a4:	00050793          	mv	a5,a0
200010a8:	0005c703          	lbu	a4,0(a1)
200010ac:	00178793          	addi	a5,a5,1
200010b0:	00158593          	addi	a1,a1,1
200010b4:	fee78fa3          	sb	a4,-1(a5)
200010b8:	fe0718e3          	bnez	a4,200010a8 <strcpy+0x90>
200010bc:	00008067          	ret
200010c0:	00050613          	mv	a2,a0
200010c4:	fb1ff06f          	j	20001074 <strcpy+0x5c>

200010c8 <two_way_long_needle>:
200010c8:	bb010113          	addi	sp,sp,-1104
200010cc:	44812423          	sw	s0,1096(sp)
200010d0:	44912223          	sw	s1,1092(sp)
200010d4:	43312e23          	sw	s3,1084(sp)
200010d8:	43812423          	sw	s8,1064(sp)
200010dc:	44112623          	sw	ra,1100(sp)
200010e0:	45212023          	sw	s2,1088(sp)
200010e4:	43412c23          	sw	s4,1080(sp)
200010e8:	43512a23          	sw	s5,1076(sp)
200010ec:	43612823          	sw	s6,1072(sp)
200010f0:	43712623          	sw	s7,1068(sp)
200010f4:	43912223          	sw	s9,1060(sp)
200010f8:	43a12023          	sw	s10,1056(sp)
200010fc:	41b12e23          	sw	s11,1052(sp)
20001100:	00100793          	li	a5,1
20001104:	00068993          	mv	s3,a3
20001108:	00050413          	mv	s0,a0
2000110c:	00058c13          	mv	s8,a1
20001110:	00060493          	mv	s1,a2
20001114:	3ad7fa63          	bgeu	a5,a3,200014c8 <two_way_long_needle+0x400>
20001118:	00000613          	li	a2,0
2000111c:	00100d93          	li	s11,1
20001120:	00100693          	li	a3,1
20001124:	fff00c93          	li	s9,-1
20001128:	0180006f          	j	20001140 <two_way_long_needle+0x78>
2000112c:	41978db3          	sub	s11,a5,s9
20001130:	00078613          	mv	a2,a5
20001134:	00100693          	li	a3,1
20001138:	00d607b3          	add	a5,a2,a3
2000113c:	0337fc63          	bgeu	a5,s3,20001174 <two_way_long_needle+0xac>
20001140:	01948733          	add	a4,s1,s9
20001144:	00d70733          	add	a4,a4,a3
20001148:	00f485b3          	add	a1,s1,a5
2000114c:	0005c583          	lbu	a1,0(a1)
20001150:	00074703          	lbu	a4,0(a4)
20001154:	fce5ece3          	bltu	a1,a4,2000112c <two_way_long_needle+0x64>
20001158:	1ae58863          	beq	a1,a4,20001308 <two_way_long_needle+0x240>
2000115c:	00060c93          	mv	s9,a2
20001160:	00100693          	li	a3,1
20001164:	00160613          	addi	a2,a2,1
20001168:	00d607b3          	add	a5,a2,a3
2000116c:	00100d93          	li	s11,1
20001170:	fd37e8e3          	bltu	a5,s3,20001140 <two_way_long_needle+0x78>
20001174:	00000593          	li	a1,0
20001178:	00100813          	li	a6,1
2000117c:	00100613          	li	a2,1
20001180:	fff00513          	li	a0,-1
20001184:	00100713          	li	a4,1
20001188:	0180006f          	j	200011a0 <two_way_long_needle+0xd8>
2000118c:	40a70833          	sub	a6,a4,a0
20001190:	00070593          	mv	a1,a4
20001194:	00100613          	li	a2,1
20001198:	00c58733          	add	a4,a1,a2
2000119c:	03377c63          	bgeu	a4,s3,200011d4 <two_way_long_needle+0x10c>
200011a0:	00c487b3          	add	a5,s1,a2
200011a4:	00e486b3          	add	a3,s1,a4
200011a8:	00a787b3          	add	a5,a5,a0
200011ac:	0006c683          	lbu	a3,0(a3)
200011b0:	0007c783          	lbu	a5,0(a5)
200011b4:	fcd7ece3          	bltu	a5,a3,2000118c <two_way_long_needle+0xc4>
200011b8:	14f68e63          	beq	a3,a5,20001314 <two_way_long_needle+0x24c>
200011bc:	00058513          	mv	a0,a1
200011c0:	00100613          	li	a2,1
200011c4:	00158593          	addi	a1,a1,1
200011c8:	00c58733          	add	a4,a1,a2
200011cc:	00100813          	li	a6,1
200011d0:	fd3768e3          	bltu	a4,s3,200011a0 <two_way_long_needle+0xd8>
200011d4:	00150513          	addi	a0,a0,1
200011d8:	001c8c93          	addi	s9,s9,1
200011dc:	01956663          	bltu	a0,s9,200011e8 <two_way_long_needle+0x120>
200011e0:	00080d93          	mv	s11,a6
200011e4:	00050c93          	mv	s9,a0
200011e8:	01010793          	addi	a5,sp,16
200011ec:	41010713          	addi	a4,sp,1040
200011f0:	0137a023          	sw	s3,0(a5)
200011f4:	00478793          	addi	a5,a5,4
200011f8:	fef71ce3          	bne	a4,a5,200011f0 <two_way_long_needle+0x128>
200011fc:	fff98913          	addi	s2,s3,-1
20001200:	009985b3          	add	a1,s3,s1
20001204:	00048713          	mv	a4,s1
20001208:	01248633          	add	a2,s1,s2
2000120c:	02098463          	beqz	s3,20001234 <two_way_long_needle+0x16c>
20001210:	00074783          	lbu	a5,0(a4)
20001214:	01010513          	addi	a0,sp,16
20001218:	40e606b3          	sub	a3,a2,a4
2000121c:	00279793          	slli	a5,a5,0x2
20001220:	40078793          	addi	a5,a5,1024
20001224:	00a787b3          	add	a5,a5,a0
20001228:	00170713          	addi	a4,a4,1
2000122c:	c0d7a023          	sw	a3,-1024(a5)
20001230:	fee590e3          	bne	a1,a4,20001210 <two_way_long_needle+0x148>
20001234:	000c8613          	mv	a2,s9
20001238:	01b485b3          	add	a1,s1,s11
2000123c:	00048513          	mv	a0,s1
20001240:	fb0ff0ef          	jal	ra,200009f0 <memcmp>
20001244:	16051e63          	bnez	a0,200013c0 <two_way_long_needle+0x2f8>
20001248:	00001bb7          	lui	s7,0x1
2000124c:	00100a13          	li	s4,1
20001250:	fffc8793          	addi	a5,s9,-1
20001254:	800b8b93          	addi	s7,s7,-2048 # 800 <_start-0x1ffff800>
20001258:	00000b13          	li	s6,0
2000125c:	00000d13          	li	s10,0
20001260:	419a0a33          	sub	s4,s4,s9
20001264:	00f12623          	sw	a5,12(sp)
20001268:	41b98ab3          	sub	s5,s3,s11
2000126c:	0179ebb3          	or	s7,s3,s7
20001270:	01a405b3          	add	a1,s0,s10
20001274:	012587b3          	add	a5,a1,s2
20001278:	0007c783          	lbu	a5,0(a5)
2000127c:	01010713          	addi	a4,sp,16
20001280:	00279793          	slli	a5,a5,0x2
20001284:	40078793          	addi	a5,a5,1024
20001288:	00e787b3          	add	a5,a5,a4
2000128c:	c007a783          	lw	a5,-1024(a5)
20001290:	08078863          	beqz	a5,20001320 <two_way_long_needle+0x258>
20001294:	000b0663          	beqz	s6,200012a0 <two_way_long_needle+0x1d8>
20001298:	01b7f463          	bgeu	a5,s11,200012a0 <two_way_long_needle+0x1d8>
2000129c:	000a8793          	mv	a5,s5
200012a0:	00fd0d33          	add	s10,s10,a5
200012a4:	00000b13          	li	s6,0
200012a8:	413c07b3          	sub	a5,s8,s3
200012ac:	fda7f2e3          	bgeu	a5,s10,20001270 <two_way_long_needle+0x1a8>
200012b0:	01840533          	add	a0,s0,s8
200012b4:	000b8593          	mv	a1,s7
200012b8:	2e9000ef          	jal	ra,20001da0 <strnlen>
200012bc:	00ac0c33          	add	s8,s8,a0
200012c0:	413c07b3          	sub	a5,s8,s3
200012c4:	fba7f6e3          	bgeu	a5,s10,20001270 <two_way_long_needle+0x1a8>
200012c8:	00000513          	li	a0,0
200012cc:	44c12083          	lw	ra,1100(sp)
200012d0:	44812403          	lw	s0,1096(sp)
200012d4:	44412483          	lw	s1,1092(sp)
200012d8:	44012903          	lw	s2,1088(sp)
200012dc:	43c12983          	lw	s3,1084(sp)
200012e0:	43812a03          	lw	s4,1080(sp)
200012e4:	43412a83          	lw	s5,1076(sp)
200012e8:	43012b03          	lw	s6,1072(sp)
200012ec:	42c12b83          	lw	s7,1068(sp)
200012f0:	42812c03          	lw	s8,1064(sp)
200012f4:	42412c83          	lw	s9,1060(sp)
200012f8:	42012d03          	lw	s10,1056(sp)
200012fc:	41c12d83          	lw	s11,1052(sp)
20001300:	45010113          	addi	sp,sp,1104
20001304:	00008067          	ret
20001308:	1add8663          	beq	s11,a3,200014b4 <two_way_long_needle+0x3ec>
2000130c:	00168693          	addi	a3,a3,1
20001310:	e29ff06f          	j	20001138 <two_way_long_needle+0x70>
20001314:	19060a63          	beq	a2,a6,200014a8 <two_way_long_needle+0x3e0>
20001318:	00160613          	addi	a2,a2,1
2000131c:	e7dff06f          	j	20001198 <two_way_long_needle+0xd0>
20001320:	000c8713          	mv	a4,s9
20001324:	016cf463          	bgeu	s9,s6,2000132c <two_way_long_needle+0x264>
20001328:	000b0713          	mv	a4,s6
2000132c:	03277263          	bgeu	a4,s2,20001350 <two_way_long_needle+0x288>
20001330:	01a707b3          	add	a5,a4,s10
20001334:	00e48833          	add	a6,s1,a4
20001338:	00f407b3          	add	a5,s0,a5
2000133c:	00084683          	lbu	a3,0(a6)
20001340:	0007c783          	lbu	a5,0(a5)
20001344:	04f69c63          	bne	a3,a5,2000139c <two_way_long_needle+0x2d4>
20001348:	00170713          	addi	a4,a4,1
2000134c:	ff2762e3          	bltu	a4,s2,20001330 <two_way_long_needle+0x268>
20001350:	00c12703          	lw	a4,12(sp)
20001354:	000c8813          	mv	a6,s9
20001358:	019b6863          	bltu	s6,s9,20001368 <two_way_long_needle+0x2a0>
2000135c:	02c0006f          	j	20001388 <two_way_long_needle+0x2c0>
20001360:	05670663          	beq	a4,s6,200013ac <two_way_long_needle+0x2e4>
20001364:	00050713          	mv	a4,a0
20001368:	01a707b3          	add	a5,a4,s10
2000136c:	00e486b3          	add	a3,s1,a4
20001370:	00f407b3          	add	a5,s0,a5
20001374:	0006c683          	lbu	a3,0(a3)
20001378:	0007c783          	lbu	a5,0(a5)
2000137c:	00170813          	addi	a6,a4,1
20001380:	fff70513          	addi	a0,a4,-1
20001384:	fcf68ee3          	beq	a3,a5,20001360 <two_way_long_needle+0x298>
20001388:	001b0613          	addi	a2,s6,1
2000138c:	02c86663          	bltu	a6,a2,200013b8 <two_way_long_needle+0x2f0>
20001390:	01bd0d33          	add	s10,s10,s11
20001394:	000a8b13          	mv	s6,s5
20001398:	f11ff06f          	j	200012a8 <two_way_long_needle+0x1e0>
2000139c:	01aa0d33          	add	s10,s4,s10
200013a0:	00ed0d33          	add	s10,s10,a4
200013a4:	00000b13          	li	s6,0
200013a8:	f01ff06f          	j	200012a8 <two_way_long_needle+0x1e0>
200013ac:	000b0813          	mv	a6,s6
200013b0:	001b0613          	addi	a2,s6,1
200013b4:	fcc87ee3          	bgeu	a6,a2,20001390 <two_way_long_needle+0x2c8>
200013b8:	00058513          	mv	a0,a1
200013bc:	f11ff06f          	j	200012cc <two_way_long_needle+0x204>
200013c0:	41998ab3          	sub	s5,s3,s9
200013c4:	0d9aee63          	bltu	s5,s9,200014a0 <two_way_long_needle+0x3d8>
200013c8:	00001b37          	lui	s6,0x1
200013cc:	00100a13          	li	s4,1
200013d0:	800b0b13          	addi	s6,s6,-2048 # 800 <_start-0x1ffff800>
200013d4:	001a8a93          	addi	s5,s5,1
200013d8:	00000b93          	li	s7,0
200013dc:	419a0a33          	sub	s4,s4,s9
200013e0:	fff00d13          	li	s10,-1
200013e4:	0169eb33          	or	s6,s3,s6
200013e8:	01740633          	add	a2,s0,s7
200013ec:	012607b3          	add	a5,a2,s2
200013f0:	0007c783          	lbu	a5,0(a5)
200013f4:	01010713          	addi	a4,sp,16
200013f8:	00279793          	slli	a5,a5,0x2
200013fc:	40078793          	addi	a5,a5,1024
20001400:	00e787b3          	add	a5,a5,a4
20001404:	c007a783          	lw	a5,-1024(a5)
20001408:	02078663          	beqz	a5,20001434 <two_way_long_needle+0x36c>
2000140c:	00fb8bb3          	add	s7,s7,a5
20001410:	413c07b3          	sub	a5,s8,s3
20001414:	fd77fae3          	bgeu	a5,s7,200013e8 <two_way_long_needle+0x320>
20001418:	01840533          	add	a0,s0,s8
2000141c:	000b0593          	mv	a1,s6
20001420:	181000ef          	jal	ra,20001da0 <strnlen>
20001424:	00ac0c33          	add	s8,s8,a0
20001428:	413c07b3          	sub	a5,s8,s3
2000142c:	fb77fee3          	bgeu	a5,s7,200013e8 <two_way_long_needle+0x320>
20001430:	e99ff06f          	j	200012c8 <two_way_long_needle+0x200>
20001434:	000c8713          	mv	a4,s9
20001438:	012ce863          	bltu	s9,s2,20001448 <two_way_long_needle+0x380>
2000143c:	0300006f          	j	2000146c <two_way_long_needle+0x3a4>
20001440:	00170713          	addi	a4,a4,1
20001444:	03277463          	bgeu	a4,s2,2000146c <two_way_long_needle+0x3a4>
20001448:	017707b3          	add	a5,a4,s7
2000144c:	00e48833          	add	a6,s1,a4
20001450:	00f407b3          	add	a5,s0,a5
20001454:	00084683          	lbu	a3,0(a6)
20001458:	0007c783          	lbu	a5,0(a5)
2000145c:	fef682e3          	beq	a3,a5,20001440 <two_way_long_needle+0x378>
20001460:	017a0bb3          	add	s7,s4,s7
20001464:	01770bb3          	add	s7,a4,s7
20001468:	fa9ff06f          	j	20001410 <two_way_long_needle+0x348>
2000146c:	fffc8793          	addi	a5,s9,-1
20001470:	01a79663          	bne	a5,s10,2000147c <two_way_long_needle+0x3b4>
20001474:	04c0006f          	j	200014c0 <two_way_long_needle+0x3f8>
20001478:	05a78463          	beq	a5,s10,200014c0 <two_way_long_needle+0x3f8>
2000147c:	01778733          	add	a4,a5,s7
20001480:	00f486b3          	add	a3,s1,a5
20001484:	00e40733          	add	a4,s0,a4
20001488:	0006c683          	lbu	a3,0(a3)
2000148c:	00074703          	lbu	a4,0(a4)
20001490:	fff78793          	addi	a5,a5,-1
20001494:	fee682e3          	beq	a3,a4,20001478 <two_way_long_needle+0x3b0>
20001498:	015b8bb3          	add	s7,s7,s5
2000149c:	f75ff06f          	j	20001410 <two_way_long_needle+0x348>
200014a0:	000c8a93          	mv	s5,s9
200014a4:	f25ff06f          	j	200013c8 <two_way_long_needle+0x300>
200014a8:	00c585b3          	add	a1,a1,a2
200014ac:	00100613          	li	a2,1
200014b0:	ce9ff06f          	j	20001198 <two_way_long_needle+0xd0>
200014b4:	01b60633          	add	a2,a2,s11
200014b8:	00100693          	li	a3,1
200014bc:	c7dff06f          	j	20001138 <two_way_long_needle+0x70>
200014c0:	00060513          	mv	a0,a2
200014c4:	e09ff06f          	j	200012cc <two_way_long_needle+0x204>
200014c8:	00100d93          	li	s11,1
200014cc:	00000c93          	li	s9,0
200014d0:	d19ff06f          	j	200011e8 <two_way_long_needle+0x120>

200014d4 <strstr>:
200014d4:	fa010113          	addi	sp,sp,-96
200014d8:	04812c23          	sw	s0,88(sp)
200014dc:	04912a23          	sw	s1,84(sp)
200014e0:	04112e23          	sw	ra,92(sp)
200014e4:	05212823          	sw	s2,80(sp)
200014e8:	05312623          	sw	s3,76(sp)
200014ec:	05412423          	sw	s4,72(sp)
200014f0:	05512223          	sw	s5,68(sp)
200014f4:	00058493          	mv	s1,a1
200014f8:	0005c583          	lbu	a1,0(a1)
200014fc:	00050413          	mv	s0,a0
20001500:	0e058c63          	beqz	a1,200015f8 <strstr+0x124>
20001504:	0014c683          	lbu	a3,1(s1)
20001508:	1c068263          	beqz	a3,200016cc <strstr+0x1f8>
2000150c:	0024c603          	lbu	a2,2(s1)
20001510:	10060863          	beqz	a2,20001620 <strstr+0x14c>
20001514:	0034c503          	lbu	a0,3(s1)
20001518:	1e050063          	beqz	a0,200016f8 <strstr+0x224>
2000151c:	0044c783          	lbu	a5,4(s1)
20001520:	12078c63          	beqz	a5,20001658 <strstr+0x184>
20001524:	00048513          	mv	a0,s1
20001528:	7ec000ef          	jal	ra,20001d14 <strlen>
2000152c:	00050913          	mv	s2,a0
20001530:	20056593          	ori	a1,a0,512
20001534:	00040513          	mv	a0,s0
20001538:	069000ef          	jal	ra,20001da0 <strnlen>
2000153c:	17256263          	bltu	a0,s2,200016a0 <strstr+0x1cc>
20001540:	0fe00793          	li	a5,254
20001544:	1f27ec63          	bltu	a5,s2,2000173c <strstr+0x268>
20001548:	412509b3          	sub	s3,a0,s2
2000154c:	04000613          	li	a2,64
20001550:	00190593          	addi	a1,s2,1
20001554:	00010513          	mv	a0,sp
20001558:	013409b3          	add	s3,s0,s3
2000155c:	e34ff0ef          	jal	ra,20000b90 <memset>
20001560:	02090a63          	beqz	s2,20001594 <strstr+0xc0>
20001564:	0ff97613          	zext.b	a2,s2
20001568:	00048713          	mv	a4,s1
2000156c:	009905b3          	add	a1,s2,s1
20001570:	00c48633          	add	a2,s1,a2
20001574:	00074783          	lbu	a5,0(a4)
20001578:	40e606b3          	sub	a3,a2,a4
2000157c:	00170713          	addi	a4,a4,1
20001580:	03f7f793          	andi	a5,a5,63
20001584:	04078793          	addi	a5,a5,64
20001588:	002787b3          	add	a5,a5,sp
2000158c:	fcd78023          	sb	a3,-64(a5)
20001590:	fee592e3          	bne	a1,a4,20001574 <strstr+0xa0>
20001594:	00001ab7          	lui	s5,0x1
20001598:	800a8a93          	addi	s5,s5,-2048 # 800 <_start-0x1ffff800>
2000159c:	fff40413          	addi	s0,s0,-1
200015a0:	012407b3          	add	a5,s0,s2
200015a4:	0007c783          	lbu	a5,0(a5)
200015a8:	03f7f793          	andi	a5,a5,63
200015ac:	04078793          	addi	a5,a5,64
200015b0:	002787b3          	add	a5,a5,sp
200015b4:	fc07c783          	lbu	a5,-64(a5)
200015b8:	00f40433          	add	s0,s0,a5
200015bc:	0089f863          	bgeu	s3,s0,200015cc <strstr+0xf8>
200015c0:	0e80006f          	j	200016a8 <strstr+0x1d4>
200015c4:	01440433          	add	s0,s0,s4
200015c8:	0e89e063          	bltu	s3,s0,200016a8 <strstr+0x1d4>
200015cc:	012407b3          	add	a5,s0,s2
200015d0:	0007c783          	lbu	a5,0(a5)
200015d4:	00040513          	mv	a0,s0
200015d8:	00090613          	mv	a2,s2
200015dc:	03f7f793          	andi	a5,a5,63
200015e0:	04078793          	addi	a5,a5,64
200015e4:	002787b3          	add	a5,a5,sp
200015e8:	00048593          	mv	a1,s1
200015ec:	fc07ca03          	lbu	s4,-64(a5)
200015f0:	c00ff0ef          	jal	ra,200009f0 <memcmp>
200015f4:	fc0518e3          	bnez	a0,200015c4 <strstr+0xf0>
200015f8:	05c12083          	lw	ra,92(sp)
200015fc:	00040513          	mv	a0,s0
20001600:	05812403          	lw	s0,88(sp)
20001604:	05412483          	lw	s1,84(sp)
20001608:	05012903          	lw	s2,80(sp)
2000160c:	04c12983          	lw	s3,76(sp)
20001610:	04812a03          	lw	s4,72(sp)
20001614:	04412a83          	lw	s5,68(sp)
20001618:	06010113          	addi	sp,sp,96
2000161c:	00008067          	ret
20001620:	01059593          	slli	a1,a1,0x10
20001624:	00054703          	lbu	a4,0(a0)
20001628:	00d5e5b3          	or	a1,a1,a3
2000162c:	00000793          	li	a5,0
20001630:	0080006f          	j	20001638 <strstr+0x164>
20001634:	00068413          	mv	s0,a3
20001638:	01079793          	slli	a5,a5,0x10
2000163c:	00f767b3          	or	a5,a4,a5
20001640:	06070063          	beqz	a4,200016a0 <strstr+0x1cc>
20001644:	00144703          	lbu	a4,1(s0)
20001648:	00140693          	addi	a3,s0,1
2000164c:	fef594e3          	bne	a1,a5,20001634 <strstr+0x160>
20001650:	fff40413          	addi	s0,s0,-1
20001654:	fa5ff06f          	j	200015f8 <strstr+0x124>
20001658:	01069713          	slli	a4,a3,0x10
2000165c:	01859793          	slli	a5,a1,0x18
20001660:	00044683          	lbu	a3,0(s0)
20001664:	00e7e7b3          	or	a5,a5,a4
20001668:	00a7e7b3          	or	a5,a5,a0
2000166c:	00861613          	slli	a2,a2,0x8
20001670:	00c7e7b3          	or	a5,a5,a2
20001674:	02068663          	beqz	a3,200016a0 <strstr+0x1cc>
20001678:	00000713          	li	a4,0
2000167c:	0080006f          	j	20001684 <strstr+0x1b0>
20001680:	06e78863          	beq	a5,a4,200016f0 <strstr+0x21c>
20001684:	00040613          	mv	a2,s0
20001688:	00871713          	slli	a4,a4,0x8
2000168c:	00140413          	addi	s0,s0,1
20001690:	00e6e733          	or	a4,a3,a4
20001694:	00044683          	lbu	a3,0(s0)
20001698:	fe0694e3          	bnez	a3,20001680 <strstr+0x1ac>
2000169c:	04e78a63          	beq	a5,a4,200016f0 <strstr+0x21c>
200016a0:	00000413          	li	s0,0
200016a4:	f55ff06f          	j	200015f8 <strstr+0x124>
200016a8:	01298533          	add	a0,s3,s2
200016ac:	00054783          	lbu	a5,0(a0)
200016b0:	fe0788e3          	beqz	a5,200016a0 <strstr+0x1cc>
200016b4:	000a8593          	mv	a1,s5
200016b8:	6e8000ef          	jal	ra,20001da0 <strnlen>
200016bc:	00a989b3          	add	s3,s3,a0
200016c0:	ec89fee3          	bgeu	s3,s0,2000159c <strstr+0xc8>
200016c4:	00000413          	li	s0,0
200016c8:	f31ff06f          	j	200015f8 <strstr+0x124>
200016cc:	05812403          	lw	s0,88(sp)
200016d0:	05c12083          	lw	ra,92(sp)
200016d4:	05412483          	lw	s1,84(sp)
200016d8:	05012903          	lw	s2,80(sp)
200016dc:	04c12983          	lw	s3,76(sp)
200016e0:	04812a03          	lw	s4,72(sp)
200016e4:	04412a83          	lw	s5,68(sp)
200016e8:	06010113          	addi	sp,sp,96
200016ec:	e70ff06f          	j	20000d5c <strchr>
200016f0:	ffd60413          	addi	s0,a2,-3
200016f4:	f05ff06f          	j	200015f8 <strstr+0x124>
200016f8:	01069693          	slli	a3,a3,0x10
200016fc:	01859793          	slli	a5,a1,0x18
20001700:	00d7e7b3          	or	a5,a5,a3
20001704:	00861613          	slli	a2,a2,0x8
20001708:	00044683          	lbu	a3,0(s0)
2000170c:	00c7e7b3          	or	a5,a5,a2
20001710:	00000713          	li	a4,0
20001714:	0080006f          	j	2000171c <strstr+0x248>
20001718:	00060413          	mv	s0,a2
2000171c:	00e6e733          	or	a4,a3,a4
20001720:	00871713          	slli	a4,a4,0x8
20001724:	f6068ee3          	beqz	a3,200016a0 <strstr+0x1cc>
20001728:	00144683          	lbu	a3,1(s0)
2000172c:	00140613          	addi	a2,s0,1
20001730:	fee794e3          	bne	a5,a4,20001718 <strstr+0x244>
20001734:	ffe40413          	addi	s0,s0,-2
20001738:	ec1ff06f          	j	200015f8 <strstr+0x124>
2000173c:	00050593          	mv	a1,a0
20001740:	00040513          	mv	a0,s0
20001744:	05812403          	lw	s0,88(sp)
20001748:	05c12083          	lw	ra,92(sp)
2000174c:	04c12983          	lw	s3,76(sp)
20001750:	04812a03          	lw	s4,72(sp)
20001754:	04412a83          	lw	s5,68(sp)
20001758:	00090693          	mv	a3,s2
2000175c:	00048613          	mv	a2,s1
20001760:	05012903          	lw	s2,80(sp)
20001764:	05412483          	lw	s1,84(sp)
20001768:	06010113          	addi	sp,sp,96
2000176c:	95dff06f          	j	200010c8 <two_way_long_needle>

20001770 <strtok>:
20001770:	2000a7b7          	lui	a5,0x2000a
20001774:	5d87a603          	lw	a2,1496(a5) # 2000a5d8 <_impure_ptr>
20001778:	00100693          	li	a3,1
2000177c:	05c60613          	addi	a2,a2,92
20001780:	0040006f          	j	20001784 <__strtok_r>

20001784 <__strtok_r>:
20001784:	06050863          	beqz	a0,200017f4 <__strtok_r+0x70>
20001788:	00054803          	lbu	a6,0(a0)
2000178c:	00150893          	addi	a7,a0,1
20001790:	00058793          	mv	a5,a1
20001794:	0080006f          	j	2000179c <__strtok_r+0x18>
20001798:	04e80263          	beq	a6,a4,200017dc <__strtok_r+0x58>
2000179c:	0007c703          	lbu	a4,0(a5)
200017a0:	00178793          	addi	a5,a5,1
200017a4:	fe071ae3          	bnez	a4,20001798 <__strtok_r+0x14>
200017a8:	04080e63          	beqz	a6,20001804 <__strtok_r+0x80>
200017ac:	0008c683          	lbu	a3,0(a7)
200017b0:	00058793          	mv	a5,a1
200017b4:	00188893          	addi	a7,a7,1
200017b8:	0080006f          	j	200017c0 <__strtok_r+0x3c>
200017bc:	fe0708e3          	beqz	a4,200017ac <__strtok_r+0x28>
200017c0:	0007c703          	lbu	a4,0(a5)
200017c4:	00178793          	addi	a5,a5,1
200017c8:	fee69ae3          	bne	a3,a4,200017bc <__strtok_r+0x38>
200017cc:	00068e63          	beqz	a3,200017e8 <__strtok_r+0x64>
200017d0:	fe088fa3          	sb	zero,-1(a7)
200017d4:	01162023          	sw	a7,0(a2)
200017d8:	00008067          	ret
200017dc:	02068a63          	beqz	a3,20001810 <__strtok_r+0x8c>
200017e0:	00088513          	mv	a0,a7
200017e4:	fa5ff06f          	j	20001788 <__strtok_r+0x4>
200017e8:	00000893          	li	a7,0
200017ec:	01162023          	sw	a7,0(a2)
200017f0:	00008067          	ret
200017f4:	00062503          	lw	a0,0(a2)
200017f8:	f80518e3          	bnez	a0,20001788 <__strtok_r+0x4>
200017fc:	00000513          	li	a0,0
20001800:	00008067          	ret
20001804:	00062023          	sw	zero,0(a2)
20001808:	00000513          	li	a0,0
2000180c:	00008067          	ret
20001810:	01162023          	sw	a7,0(a2)
20001814:	00050023          	sb	zero,0(a0)
20001818:	00008067          	ret

2000181c <strtok_r>:
2000181c:	00100693          	li	a3,1
20001820:	f65ff06f          	j	20001784 <__strtok_r>

20001824 <__register_exitproc>:
20001824:	200097b7          	lui	a5,0x20009
20001828:	b1c7a703          	lw	a4,-1252(a5) # 20008b1c <_global_impure_ptr>
2000182c:	14872783          	lw	a5,328(a4)
20001830:	04078c63          	beqz	a5,20001888 <__register_exitproc+0x64>
20001834:	0047a703          	lw	a4,4(a5)
20001838:	01f00813          	li	a6,31
2000183c:	06e84e63          	blt	a6,a4,200018b8 <__register_exitproc+0x94>
20001840:	00271813          	slli	a6,a4,0x2
20001844:	02050663          	beqz	a0,20001870 <__register_exitproc+0x4c>
20001848:	01078333          	add	t1,a5,a6
2000184c:	08c32423          	sw	a2,136(t1)
20001850:	1887a883          	lw	a7,392(a5)
20001854:	00100613          	li	a2,1
20001858:	00e61633          	sll	a2,a2,a4
2000185c:	00c8e8b3          	or	a7,a7,a2
20001860:	1917a423          	sw	a7,392(a5)
20001864:	10d32423          	sw	a3,264(t1)
20001868:	00200693          	li	a3,2
2000186c:	02d50463          	beq	a0,a3,20001894 <__register_exitproc+0x70>
20001870:	00170713          	addi	a4,a4,1
20001874:	00e7a223          	sw	a4,4(a5)
20001878:	010787b3          	add	a5,a5,a6
2000187c:	00b7a423          	sw	a1,8(a5)
20001880:	00000513          	li	a0,0
20001884:	00008067          	ret
20001888:	14c70793          	addi	a5,a4,332
2000188c:	14f72423          	sw	a5,328(a4)
20001890:	fa5ff06f          	j	20001834 <__register_exitproc+0x10>
20001894:	18c7a683          	lw	a3,396(a5)
20001898:	00170713          	addi	a4,a4,1
2000189c:	00e7a223          	sw	a4,4(a5)
200018a0:	00c6e6b3          	or	a3,a3,a2
200018a4:	18d7a623          	sw	a3,396(a5)
200018a8:	010787b3          	add	a5,a5,a6
200018ac:	00b7a423          	sw	a1,8(a5)
200018b0:	00000513          	li	a0,0
200018b4:	00008067          	ret
200018b8:	fff00513          	li	a0,-1
200018bc:	00008067          	ret

200018c0 <_malloc_trim_r>:
200018c0:	fe010113          	addi	sp,sp,-32
200018c4:	01312623          	sw	s3,12(sp)
200018c8:	2000a9b7          	lui	s3,0x2000a
200018cc:	00812c23          	sw	s0,24(sp)
200018d0:	00912a23          	sw	s1,20(sp)
200018d4:	01212823          	sw	s2,16(sp)
200018d8:	01412423          	sw	s4,8(sp)
200018dc:	00112e23          	sw	ra,28(sp)
200018e0:	00058a13          	mv	s4,a1
200018e4:	00050913          	mv	s2,a0
200018e8:	cd898993          	addi	s3,s3,-808 # 20009cd8 <__malloc_av_>
200018ec:	b80ff0ef          	jal	ra,20000c6c <__malloc_lock>
200018f0:	0089a703          	lw	a4,8(s3)
200018f4:	000017b7          	lui	a5,0x1
200018f8:	fef78413          	addi	s0,a5,-17 # fef <_start-0x1ffff011>
200018fc:	00472483          	lw	s1,4(a4)
20001900:	41440433          	sub	s0,s0,s4
20001904:	ffc4f493          	andi	s1,s1,-4
20001908:	00940433          	add	s0,s0,s1
2000190c:	00c45413          	srli	s0,s0,0xc
20001910:	fff40413          	addi	s0,s0,-1
20001914:	00c41413          	slli	s0,s0,0xc
20001918:	00f44e63          	blt	s0,a5,20001934 <_malloc_trim_r+0x74>
2000191c:	00000593          	li	a1,0
20001920:	00090513          	mv	a0,s2
20001924:	b50ff0ef          	jal	ra,20000c74 <_sbrk_r>
20001928:	0089a783          	lw	a5,8(s3)
2000192c:	009787b3          	add	a5,a5,s1
20001930:	02f50863          	beq	a0,a5,20001960 <_malloc_trim_r+0xa0>
20001934:	00090513          	mv	a0,s2
20001938:	b38ff0ef          	jal	ra,20000c70 <__malloc_unlock>
2000193c:	01c12083          	lw	ra,28(sp)
20001940:	01812403          	lw	s0,24(sp)
20001944:	01412483          	lw	s1,20(sp)
20001948:	01012903          	lw	s2,16(sp)
2000194c:	00c12983          	lw	s3,12(sp)
20001950:	00812a03          	lw	s4,8(sp)
20001954:	00000513          	li	a0,0
20001958:	02010113          	addi	sp,sp,32
2000195c:	00008067          	ret
20001960:	408005b3          	neg	a1,s0
20001964:	00090513          	mv	a0,s2
20001968:	b0cff0ef          	jal	ra,20000c74 <_sbrk_r>
2000196c:	fff00793          	li	a5,-1
20001970:	04f50a63          	beq	a0,a5,200019c4 <_malloc_trim_r+0x104>
20001974:	2000a7b7          	lui	a5,0x2000a
20001978:	5f478793          	addi	a5,a5,1524 # 2000a5f4 <__malloc_current_mallinfo>
2000197c:	0007a703          	lw	a4,0(a5)
20001980:	0089a683          	lw	a3,8(s3)
20001984:	408484b3          	sub	s1,s1,s0
20001988:	0014e493          	ori	s1,s1,1
2000198c:	40870733          	sub	a4,a4,s0
20001990:	00090513          	mv	a0,s2
20001994:	0096a223          	sw	s1,4(a3)
20001998:	00e7a023          	sw	a4,0(a5)
2000199c:	ad4ff0ef          	jal	ra,20000c70 <__malloc_unlock>
200019a0:	01c12083          	lw	ra,28(sp)
200019a4:	01812403          	lw	s0,24(sp)
200019a8:	01412483          	lw	s1,20(sp)
200019ac:	01012903          	lw	s2,16(sp)
200019b0:	00c12983          	lw	s3,12(sp)
200019b4:	00812a03          	lw	s4,8(sp)
200019b8:	00100513          	li	a0,1
200019bc:	02010113          	addi	sp,sp,32
200019c0:	00008067          	ret
200019c4:	00000593          	li	a1,0
200019c8:	00090513          	mv	a0,s2
200019cc:	aa8ff0ef          	jal	ra,20000c74 <_sbrk_r>
200019d0:	0089a703          	lw	a4,8(s3)
200019d4:	00f00693          	li	a3,15
200019d8:	40e507b3          	sub	a5,a0,a4
200019dc:	f4f6dce3          	bge	a3,a5,20001934 <_malloc_trim_r+0x74>
200019e0:	2000a6b7          	lui	a3,0x2000a
200019e4:	5dc6a683          	lw	a3,1500(a3) # 2000a5dc <__malloc_sbrk_base>
200019e8:	0017e793          	ori	a5,a5,1
200019ec:	00f72223          	sw	a5,4(a4)
200019f0:	40d50533          	sub	a0,a0,a3
200019f4:	2000a6b7          	lui	a3,0x2000a
200019f8:	5ea6aa23          	sw	a0,1524(a3) # 2000a5f4 <__malloc_current_mallinfo>
200019fc:	f39ff06f          	j	20001934 <_malloc_trim_r+0x74>

20001a00 <_free_r>:
20001a00:	12058a63          	beqz	a1,20001b34 <_free_r+0x134>
20001a04:	ff010113          	addi	sp,sp,-16
20001a08:	00812423          	sw	s0,8(sp)
20001a0c:	00912223          	sw	s1,4(sp)
20001a10:	00058413          	mv	s0,a1
20001a14:	00050493          	mv	s1,a0
20001a18:	00112623          	sw	ra,12(sp)
20001a1c:	a50ff0ef          	jal	ra,20000c6c <__malloc_lock>
20001a20:	ffc42803          	lw	a6,-4(s0)
20001a24:	ff840713          	addi	a4,s0,-8
20001a28:	2000a5b7          	lui	a1,0x2000a
20001a2c:	ffe87793          	andi	a5,a6,-2
20001a30:	00f70633          	add	a2,a4,a5
20001a34:	cd858593          	addi	a1,a1,-808 # 20009cd8 <__malloc_av_>
20001a38:	00462683          	lw	a3,4(a2)
20001a3c:	0085a503          	lw	a0,8(a1)
20001a40:	ffc6f693          	andi	a3,a3,-4
20001a44:	1ac50a63          	beq	a0,a2,20001bf8 <_free_r+0x1f8>
20001a48:	00d62223          	sw	a3,4(a2)
20001a4c:	00187813          	andi	a6,a6,1
20001a50:	00d60533          	add	a0,a2,a3
20001a54:	0a081063          	bnez	a6,20001af4 <_free_r+0xf4>
20001a58:	ff842303          	lw	t1,-8(s0)
20001a5c:	00452803          	lw	a6,4(a0)
20001a60:	2000a537          	lui	a0,0x2000a
20001a64:	40670733          	sub	a4,a4,t1
20001a68:	00872883          	lw	a7,8(a4)
20001a6c:	ce050513          	addi	a0,a0,-800 # 20009ce0 <__malloc_av_+0x8>
20001a70:	006787b3          	add	a5,a5,t1
20001a74:	00187813          	andi	a6,a6,1
20001a78:	14a88063          	beq	a7,a0,20001bb8 <_free_r+0x1b8>
20001a7c:	00c72303          	lw	t1,12(a4)
20001a80:	0068a623          	sw	t1,12(a7)
20001a84:	01132423          	sw	a7,8(t1)
20001a88:	1e080463          	beqz	a6,20001c70 <_free_r+0x270>
20001a8c:	0017e693          	ori	a3,a5,1
20001a90:	00d72223          	sw	a3,4(a4)
20001a94:	00f62023          	sw	a5,0(a2)
20001a98:	1ff00693          	li	a3,511
20001a9c:	0af6e863          	bltu	a3,a5,20001b4c <_free_r+0x14c>
20001aa0:	ff87f693          	andi	a3,a5,-8
20001aa4:	00868693          	addi	a3,a3,8
20001aa8:	0045a503          	lw	a0,4(a1)
20001aac:	00d586b3          	add	a3,a1,a3
20001ab0:	0006a603          	lw	a2,0(a3)
20001ab4:	0057d813          	srli	a6,a5,0x5
20001ab8:	00100793          	li	a5,1
20001abc:	010797b3          	sll	a5,a5,a6
20001ac0:	00a7e7b3          	or	a5,a5,a0
20001ac4:	ff868513          	addi	a0,a3,-8
20001ac8:	00a72623          	sw	a0,12(a4)
20001acc:	00c72423          	sw	a2,8(a4)
20001ad0:	00f5a223          	sw	a5,4(a1)
20001ad4:	00e6a023          	sw	a4,0(a3)
20001ad8:	00e62623          	sw	a4,12(a2)
20001adc:	00812403          	lw	s0,8(sp)
20001ae0:	00c12083          	lw	ra,12(sp)
20001ae4:	00048513          	mv	a0,s1
20001ae8:	00412483          	lw	s1,4(sp)
20001aec:	01010113          	addi	sp,sp,16
20001af0:	980ff06f          	j	20000c70 <__malloc_unlock>
20001af4:	00452503          	lw	a0,4(a0)
20001af8:	00157513          	andi	a0,a0,1
20001afc:	02051e63          	bnez	a0,20001b38 <_free_r+0x138>
20001b00:	2000a537          	lui	a0,0x2000a
20001b04:	00d787b3          	add	a5,a5,a3
20001b08:	ce050513          	addi	a0,a0,-800 # 20009ce0 <__malloc_av_+0x8>
20001b0c:	00862683          	lw	a3,8(a2)
20001b10:	0017e893          	ori	a7,a5,1
20001b14:	00f70833          	add	a6,a4,a5
20001b18:	16a68863          	beq	a3,a0,20001c88 <_free_r+0x288>
20001b1c:	00c62603          	lw	a2,12(a2)
20001b20:	00c6a623          	sw	a2,12(a3)
20001b24:	00d62423          	sw	a3,8(a2)
20001b28:	01172223          	sw	a7,4(a4)
20001b2c:	00f82023          	sw	a5,0(a6)
20001b30:	f69ff06f          	j	20001a98 <_free_r+0x98>
20001b34:	00008067          	ret
20001b38:	0017e693          	ori	a3,a5,1
20001b3c:	fed42e23          	sw	a3,-4(s0)
20001b40:	00f62023          	sw	a5,0(a2)
20001b44:	1ff00693          	li	a3,511
20001b48:	f4f6fce3          	bgeu	a3,a5,20001aa0 <_free_r+0xa0>
20001b4c:	0097d693          	srli	a3,a5,0x9
20001b50:	00400613          	li	a2,4
20001b54:	0ed66c63          	bltu	a2,a3,20001c4c <_free_r+0x24c>
20001b58:	0067d693          	srli	a3,a5,0x6
20001b5c:	03968813          	addi	a6,a3,57
20001b60:	03868613          	addi	a2,a3,56
20001b64:	00381813          	slli	a6,a6,0x3
20001b68:	01058833          	add	a6,a1,a6
20001b6c:	00082683          	lw	a3,0(a6)
20001b70:	ff880813          	addi	a6,a6,-8
20001b74:	12d80863          	beq	a6,a3,20001ca4 <_free_r+0x2a4>
20001b78:	0046a603          	lw	a2,4(a3)
20001b7c:	ffc67613          	andi	a2,a2,-4
20001b80:	00c7f663          	bgeu	a5,a2,20001b8c <_free_r+0x18c>
20001b84:	0086a683          	lw	a3,8(a3)
20001b88:	fed818e3          	bne	a6,a3,20001b78 <_free_r+0x178>
20001b8c:	00c6a803          	lw	a6,12(a3)
20001b90:	01072623          	sw	a6,12(a4)
20001b94:	00d72423          	sw	a3,8(a4)
20001b98:	00812403          	lw	s0,8(sp)
20001b9c:	00c12083          	lw	ra,12(sp)
20001ba0:	00e82423          	sw	a4,8(a6)
20001ba4:	00048513          	mv	a0,s1
20001ba8:	00412483          	lw	s1,4(sp)
20001bac:	00e6a623          	sw	a4,12(a3)
20001bb0:	01010113          	addi	sp,sp,16
20001bb4:	8bcff06f          	j	20000c70 <__malloc_unlock>
20001bb8:	14081663          	bnez	a6,20001d04 <_free_r+0x304>
20001bbc:	00c62583          	lw	a1,12(a2)
20001bc0:	00862603          	lw	a2,8(a2)
20001bc4:	00f686b3          	add	a3,a3,a5
20001bc8:	00812403          	lw	s0,8(sp)
20001bcc:	00b62623          	sw	a1,12(a2)
20001bd0:	00c5a423          	sw	a2,8(a1)
20001bd4:	0016e793          	ori	a5,a3,1
20001bd8:	00c12083          	lw	ra,12(sp)
20001bdc:	00f72223          	sw	a5,4(a4)
20001be0:	00048513          	mv	a0,s1
20001be4:	00d70733          	add	a4,a4,a3
20001be8:	00412483          	lw	s1,4(sp)
20001bec:	00d72023          	sw	a3,0(a4)
20001bf0:	01010113          	addi	sp,sp,16
20001bf4:	87cff06f          	j	20000c70 <__malloc_unlock>
20001bf8:	00187813          	andi	a6,a6,1
20001bfc:	00d786b3          	add	a3,a5,a3
20001c00:	02081063          	bnez	a6,20001c20 <_free_r+0x220>
20001c04:	ff842503          	lw	a0,-8(s0)
20001c08:	40a70733          	sub	a4,a4,a0
20001c0c:	00c72783          	lw	a5,12(a4)
20001c10:	00872603          	lw	a2,8(a4)
20001c14:	00a686b3          	add	a3,a3,a0
20001c18:	00f62623          	sw	a5,12(a2)
20001c1c:	00c7a423          	sw	a2,8(a5)
20001c20:	2000a7b7          	lui	a5,0x2000a
20001c24:	0016e613          	ori	a2,a3,1
20001c28:	5e07a783          	lw	a5,1504(a5) # 2000a5e0 <__malloc_trim_threshold>
20001c2c:	00c72223          	sw	a2,4(a4)
20001c30:	00e5a423          	sw	a4,8(a1)
20001c34:	eaf6e4e3          	bltu	a3,a5,20001adc <_free_r+0xdc>
20001c38:	2000a7b7          	lui	a5,0x2000a
20001c3c:	5ec7a583          	lw	a1,1516(a5) # 2000a5ec <__malloc_top_pad>
20001c40:	00048513          	mv	a0,s1
20001c44:	c7dff0ef          	jal	ra,200018c0 <_malloc_trim_r>
20001c48:	e95ff06f          	j	20001adc <_free_r+0xdc>
20001c4c:	01400613          	li	a2,20
20001c50:	02d67463          	bgeu	a2,a3,20001c78 <_free_r+0x278>
20001c54:	05400613          	li	a2,84
20001c58:	06d66463          	bltu	a2,a3,20001cc0 <_free_r+0x2c0>
20001c5c:	00c7d693          	srli	a3,a5,0xc
20001c60:	06f68813          	addi	a6,a3,111
20001c64:	06e68613          	addi	a2,a3,110
20001c68:	00381813          	slli	a6,a6,0x3
20001c6c:	efdff06f          	j	20001b68 <_free_r+0x168>
20001c70:	00d787b3          	add	a5,a5,a3
20001c74:	e99ff06f          	j	20001b0c <_free_r+0x10c>
20001c78:	05c68813          	addi	a6,a3,92
20001c7c:	05b68613          	addi	a2,a3,91
20001c80:	00381813          	slli	a6,a6,0x3
20001c84:	ee5ff06f          	j	20001b68 <_free_r+0x168>
20001c88:	00e5aa23          	sw	a4,20(a1)
20001c8c:	00e5a823          	sw	a4,16(a1)
20001c90:	00a72623          	sw	a0,12(a4)
20001c94:	00a72423          	sw	a0,8(a4)
20001c98:	01172223          	sw	a7,4(a4)
20001c9c:	00f82023          	sw	a5,0(a6)
20001ca0:	e3dff06f          	j	20001adc <_free_r+0xdc>
20001ca4:	0045a503          	lw	a0,4(a1)
20001ca8:	40265613          	srai	a2,a2,0x2
20001cac:	00100793          	li	a5,1
20001cb0:	00c797b3          	sll	a5,a5,a2
20001cb4:	00a7e7b3          	or	a5,a5,a0
20001cb8:	00f5a223          	sw	a5,4(a1)
20001cbc:	ed5ff06f          	j	20001b90 <_free_r+0x190>
20001cc0:	15400613          	li	a2,340
20001cc4:	00d66c63          	bltu	a2,a3,20001cdc <_free_r+0x2dc>
20001cc8:	00f7d693          	srli	a3,a5,0xf
20001ccc:	07868813          	addi	a6,a3,120
20001cd0:	07768613          	addi	a2,a3,119
20001cd4:	00381813          	slli	a6,a6,0x3
20001cd8:	e91ff06f          	j	20001b68 <_free_r+0x168>
20001cdc:	55400613          	li	a2,1364
20001ce0:	00d66c63          	bltu	a2,a3,20001cf8 <_free_r+0x2f8>
20001ce4:	0127d693          	srli	a3,a5,0x12
20001ce8:	07d68813          	addi	a6,a3,125
20001cec:	07c68613          	addi	a2,a3,124
20001cf0:	00381813          	slli	a6,a6,0x3
20001cf4:	e75ff06f          	j	20001b68 <_free_r+0x168>
20001cf8:	3f800813          	li	a6,1016
20001cfc:	07e00613          	li	a2,126
20001d00:	e69ff06f          	j	20001b68 <_free_r+0x168>
20001d04:	0017e693          	ori	a3,a5,1
20001d08:	00d72223          	sw	a3,4(a4)
20001d0c:	00f62023          	sw	a5,0(a2)
20001d10:	dcdff06f          	j	20001adc <_free_r+0xdc>

20001d14 <strlen>:
20001d14:	00357793          	andi	a5,a0,3
20001d18:	00050713          	mv	a4,a0
20001d1c:	04079c63          	bnez	a5,20001d74 <strlen+0x60>
20001d20:	7f7f86b7          	lui	a3,0x7f7f8
20001d24:	f7f68693          	addi	a3,a3,-129 # 7f7f7f7f <_end+0x5f7ece97>
20001d28:	fff00593          	li	a1,-1
20001d2c:	00072603          	lw	a2,0(a4)
20001d30:	00470713          	addi	a4,a4,4
20001d34:	00d677b3          	and	a5,a2,a3
20001d38:	00d787b3          	add	a5,a5,a3
20001d3c:	00c7e7b3          	or	a5,a5,a2
20001d40:	00d7e7b3          	or	a5,a5,a3
20001d44:	feb784e3          	beq	a5,a1,20001d2c <strlen+0x18>
20001d48:	ffc74683          	lbu	a3,-4(a4)
20001d4c:	40a707b3          	sub	a5,a4,a0
20001d50:	04068463          	beqz	a3,20001d98 <strlen+0x84>
20001d54:	ffd74683          	lbu	a3,-3(a4)
20001d58:	02068c63          	beqz	a3,20001d90 <strlen+0x7c>
20001d5c:	ffe74503          	lbu	a0,-2(a4)
20001d60:	00a03533          	snez	a0,a0
20001d64:	00f50533          	add	a0,a0,a5
20001d68:	ffe50513          	addi	a0,a0,-2
20001d6c:	00008067          	ret
20001d70:	fa0688e3          	beqz	a3,20001d20 <strlen+0xc>
20001d74:	00074783          	lbu	a5,0(a4)
20001d78:	00170713          	addi	a4,a4,1
20001d7c:	00377693          	andi	a3,a4,3
20001d80:	fe0798e3          	bnez	a5,20001d70 <strlen+0x5c>
20001d84:	40a70733          	sub	a4,a4,a0
20001d88:	fff70513          	addi	a0,a4,-1
20001d8c:	00008067          	ret
20001d90:	ffd78513          	addi	a0,a5,-3
20001d94:	00008067          	ret
20001d98:	ffc78513          	addi	a0,a5,-4
20001d9c:	00008067          	ret

20001da0 <strnlen>:
20001da0:	00b506b3          	add	a3,a0,a1
20001da4:	00050793          	mv	a5,a0
20001da8:	00059863          	bnez	a1,20001db8 <strnlen+0x18>
20001dac:	0240006f          	j	20001dd0 <strnlen+0x30>
20001db0:	00178793          	addi	a5,a5,1
20001db4:	00f68a63          	beq	a3,a5,20001dc8 <strnlen+0x28>
20001db8:	0007c703          	lbu	a4,0(a5)
20001dbc:	fe071ae3          	bnez	a4,20001db0 <strnlen+0x10>
20001dc0:	40a78533          	sub	a0,a5,a0
20001dc4:	00008067          	ret
20001dc8:	40a68533          	sub	a0,a3,a0
20001dcc:	00008067          	ret
20001dd0:	00000513          	li	a0,0
20001dd4:	00008067          	ret

20001dd8 <__udivdi3>:
20001dd8:	00050313          	mv	t1,a0
20001ddc:	00058893          	mv	a7,a1
20001de0:	00060713          	mv	a4,a2
20001de4:	00050813          	mv	a6,a0
20001de8:	00058793          	mv	a5,a1
20001dec:	28069263          	bnez	a3,20002070 <__udivdi3+0x298>
20001df0:	200085b7          	lui	a1,0x20008
20001df4:	b3458593          	addi	a1,a1,-1228 # 20007b34 <__clz_tab>
20001df8:	0ec8f663          	bgeu	a7,a2,20001ee4 <__udivdi3+0x10c>
20001dfc:	000106b7          	lui	a3,0x10
20001e00:	0cd67863          	bgeu	a2,a3,20001ed0 <__udivdi3+0xf8>
20001e04:	10063693          	sltiu	a3,a2,256
20001e08:	0016c693          	xori	a3,a3,1
20001e0c:	00369693          	slli	a3,a3,0x3
20001e10:	00d65533          	srl	a0,a2,a3
20001e14:	00a585b3          	add	a1,a1,a0
20001e18:	0005c583          	lbu	a1,0(a1)
20001e1c:	02000513          	li	a0,32
20001e20:	00d586b3          	add	a3,a1,a3
20001e24:	40d505b3          	sub	a1,a0,a3
20001e28:	00d50c63          	beq	a0,a3,20001e40 <__udivdi3+0x68>
20001e2c:	00b897b3          	sll	a5,a7,a1
20001e30:	00d356b3          	srl	a3,t1,a3
20001e34:	00b61733          	sll	a4,a2,a1
20001e38:	00f6e7b3          	or	a5,a3,a5
20001e3c:	00b31833          	sll	a6,t1,a1
20001e40:	01075593          	srli	a1,a4,0x10
20001e44:	02b7d333          	divu	t1,a5,a1
20001e48:	01071613          	slli	a2,a4,0x10
20001e4c:	01065613          	srli	a2,a2,0x10
20001e50:	02b7f7b3          	remu	a5,a5,a1
20001e54:	00030513          	mv	a0,t1
20001e58:	026608b3          	mul	a7,a2,t1
20001e5c:	01079693          	slli	a3,a5,0x10
20001e60:	01085793          	srli	a5,a6,0x10
20001e64:	00d7e7b3          	or	a5,a5,a3
20001e68:	0117fe63          	bgeu	a5,a7,20001e84 <__udivdi3+0xac>
20001e6c:	00e787b3          	add	a5,a5,a4
20001e70:	fff30513          	addi	a0,t1,-1
20001e74:	00e7e863          	bltu	a5,a4,20001e84 <__udivdi3+0xac>
20001e78:	0117f663          	bgeu	a5,a7,20001e84 <__udivdi3+0xac>
20001e7c:	ffe30513          	addi	a0,t1,-2
20001e80:	00e787b3          	add	a5,a5,a4
20001e84:	411787b3          	sub	a5,a5,a7
20001e88:	02b7d8b3          	divu	a7,a5,a1
20001e8c:	01081813          	slli	a6,a6,0x10
20001e90:	01085813          	srli	a6,a6,0x10
20001e94:	02b7f7b3          	remu	a5,a5,a1
20001e98:	031606b3          	mul	a3,a2,a7
20001e9c:	01079793          	slli	a5,a5,0x10
20001ea0:	00f86833          	or	a6,a6,a5
20001ea4:	00088793          	mv	a5,a7
20001ea8:	00d87c63          	bgeu	a6,a3,20001ec0 <__udivdi3+0xe8>
20001eac:	01070833          	add	a6,a4,a6
20001eb0:	fff88793          	addi	a5,a7,-1
20001eb4:	00e86663          	bltu	a6,a4,20001ec0 <__udivdi3+0xe8>
20001eb8:	00d87463          	bgeu	a6,a3,20001ec0 <__udivdi3+0xe8>
20001ebc:	ffe88793          	addi	a5,a7,-2
20001ec0:	01051513          	slli	a0,a0,0x10
20001ec4:	00f56533          	or	a0,a0,a5
20001ec8:	00000593          	li	a1,0
20001ecc:	00008067          	ret
20001ed0:	01000537          	lui	a0,0x1000
20001ed4:	01000693          	li	a3,16
20001ed8:	f2a66ce3          	bltu	a2,a0,20001e10 <__udivdi3+0x38>
20001edc:	01800693          	li	a3,24
20001ee0:	f31ff06f          	j	20001e10 <__udivdi3+0x38>
20001ee4:	00061463          	bnez	a2,20001eec <__udivdi3+0x114>
20001ee8:	00100073          	ebreak
20001eec:	000107b7          	lui	a5,0x10
20001ef0:	0cf67063          	bgeu	a2,a5,20001fb0 <__udivdi3+0x1d8>
20001ef4:	10063693          	sltiu	a3,a2,256
20001ef8:	0016c693          	xori	a3,a3,1
20001efc:	00369693          	slli	a3,a3,0x3
20001f00:	00d657b3          	srl	a5,a2,a3
20001f04:	00f585b3          	add	a1,a1,a5
20001f08:	0005c783          	lbu	a5,0(a1)
20001f0c:	00d787b3          	add	a5,a5,a3
20001f10:	02000693          	li	a3,32
20001f14:	40f685b3          	sub	a1,a3,a5
20001f18:	0af69663          	bne	a3,a5,20001fc4 <__udivdi3+0x1ec>
20001f1c:	40c887b3          	sub	a5,a7,a2
20001f20:	00100593          	li	a1,1
20001f24:	01075893          	srli	a7,a4,0x10
20001f28:	0317de33          	divu	t3,a5,a7
20001f2c:	01071613          	slli	a2,a4,0x10
20001f30:	01065613          	srli	a2,a2,0x10
20001f34:	01085693          	srli	a3,a6,0x10
20001f38:	0317f7b3          	remu	a5,a5,a7
20001f3c:	000e0513          	mv	a0,t3
20001f40:	03c60333          	mul	t1,a2,t3
20001f44:	01079793          	slli	a5,a5,0x10
20001f48:	00f6e7b3          	or	a5,a3,a5
20001f4c:	0067fe63          	bgeu	a5,t1,20001f68 <__udivdi3+0x190>
20001f50:	00e787b3          	add	a5,a5,a4
20001f54:	fffe0513          	addi	a0,t3,-1
20001f58:	00e7e863          	bltu	a5,a4,20001f68 <__udivdi3+0x190>
20001f5c:	0067f663          	bgeu	a5,t1,20001f68 <__udivdi3+0x190>
20001f60:	ffee0513          	addi	a0,t3,-2
20001f64:	00e787b3          	add	a5,a5,a4
20001f68:	406787b3          	sub	a5,a5,t1
20001f6c:	0317d333          	divu	t1,a5,a7
20001f70:	01081813          	slli	a6,a6,0x10
20001f74:	01085813          	srli	a6,a6,0x10
20001f78:	0317f7b3          	remu	a5,a5,a7
20001f7c:	026606b3          	mul	a3,a2,t1
20001f80:	01079793          	slli	a5,a5,0x10
20001f84:	00f86833          	or	a6,a6,a5
20001f88:	00030793          	mv	a5,t1
20001f8c:	00d87c63          	bgeu	a6,a3,20001fa4 <__udivdi3+0x1cc>
20001f90:	01070833          	add	a6,a4,a6
20001f94:	fff30793          	addi	a5,t1,-1
20001f98:	00e86663          	bltu	a6,a4,20001fa4 <__udivdi3+0x1cc>
20001f9c:	00d87463          	bgeu	a6,a3,20001fa4 <__udivdi3+0x1cc>
20001fa0:	ffe30793          	addi	a5,t1,-2
20001fa4:	01051513          	slli	a0,a0,0x10
20001fa8:	00f56533          	or	a0,a0,a5
20001fac:	00008067          	ret
20001fb0:	010007b7          	lui	a5,0x1000
20001fb4:	01000693          	li	a3,16
20001fb8:	f4f664e3          	bltu	a2,a5,20001f00 <__udivdi3+0x128>
20001fbc:	01800693          	li	a3,24
20001fc0:	f41ff06f          	j	20001f00 <__udivdi3+0x128>
20001fc4:	00b61733          	sll	a4,a2,a1
20001fc8:	00f8d6b3          	srl	a3,a7,a5
20001fcc:	01075513          	srli	a0,a4,0x10
20001fd0:	00f357b3          	srl	a5,t1,a5
20001fd4:	00b31833          	sll	a6,t1,a1
20001fd8:	02a6d333          	divu	t1,a3,a0
20001fdc:	01071613          	slli	a2,a4,0x10
20001fe0:	00b898b3          	sll	a7,a7,a1
20001fe4:	01065613          	srli	a2,a2,0x10
20001fe8:	0117e7b3          	or	a5,a5,a7
20001fec:	02a6f6b3          	remu	a3,a3,a0
20001ff0:	026608b3          	mul	a7,a2,t1
20001ff4:	01069593          	slli	a1,a3,0x10
20001ff8:	0107d693          	srli	a3,a5,0x10
20001ffc:	00b6e6b3          	or	a3,a3,a1
20002000:	00030593          	mv	a1,t1
20002004:	0116fe63          	bgeu	a3,a7,20002020 <__udivdi3+0x248>
20002008:	00e686b3          	add	a3,a3,a4
2000200c:	fff30593          	addi	a1,t1,-1
20002010:	00e6e863          	bltu	a3,a4,20002020 <__udivdi3+0x248>
20002014:	0116f663          	bgeu	a3,a7,20002020 <__udivdi3+0x248>
20002018:	ffe30593          	addi	a1,t1,-2
2000201c:	00e686b3          	add	a3,a3,a4
20002020:	411686b3          	sub	a3,a3,a7
20002024:	02a6d8b3          	divu	a7,a3,a0
20002028:	01079793          	slli	a5,a5,0x10
2000202c:	0107d793          	srli	a5,a5,0x10
20002030:	02a6f6b3          	remu	a3,a3,a0
20002034:	03160633          	mul	a2,a2,a7
20002038:	01069693          	slli	a3,a3,0x10
2000203c:	00d7e7b3          	or	a5,a5,a3
20002040:	00088693          	mv	a3,a7
20002044:	00c7fe63          	bgeu	a5,a2,20002060 <__udivdi3+0x288>
20002048:	00e787b3          	add	a5,a5,a4
2000204c:	fff88693          	addi	a3,a7,-1
20002050:	00e7e863          	bltu	a5,a4,20002060 <__udivdi3+0x288>
20002054:	00c7f663          	bgeu	a5,a2,20002060 <__udivdi3+0x288>
20002058:	ffe88693          	addi	a3,a7,-2
2000205c:	00e787b3          	add	a5,a5,a4
20002060:	01059593          	slli	a1,a1,0x10
20002064:	40c787b3          	sub	a5,a5,a2
20002068:	00d5e5b3          	or	a1,a1,a3
2000206c:	eb9ff06f          	j	20001f24 <__udivdi3+0x14c>
20002070:	18d5e663          	bltu	a1,a3,200021fc <__udivdi3+0x424>
20002074:	000107b7          	lui	a5,0x10
20002078:	04f6f463          	bgeu	a3,a5,200020c0 <__udivdi3+0x2e8>
2000207c:	1006b713          	sltiu	a4,a3,256
20002080:	00174713          	xori	a4,a4,1
20002084:	00371713          	slli	a4,a4,0x3
20002088:	200087b7          	lui	a5,0x20008
2000208c:	00e6d5b3          	srl	a1,a3,a4
20002090:	b3478793          	addi	a5,a5,-1228 # 20007b34 <__clz_tab>
20002094:	00b787b3          	add	a5,a5,a1
20002098:	0007c783          	lbu	a5,0(a5)
2000209c:	00e787b3          	add	a5,a5,a4
200020a0:	02000713          	li	a4,32
200020a4:	40f705b3          	sub	a1,a4,a5
200020a8:	02f71663          	bne	a4,a5,200020d4 <__udivdi3+0x2fc>
200020ac:	00100513          	li	a0,1
200020b0:	e116eee3          	bltu	a3,a7,20001ecc <__udivdi3+0xf4>
200020b4:	00c33533          	sltu	a0,t1,a2
200020b8:	00154513          	xori	a0,a0,1
200020bc:	00008067          	ret
200020c0:	010007b7          	lui	a5,0x1000
200020c4:	01000713          	li	a4,16
200020c8:	fcf6e0e3          	bltu	a3,a5,20002088 <__udivdi3+0x2b0>
200020cc:	01800713          	li	a4,24
200020d0:	fb9ff06f          	j	20002088 <__udivdi3+0x2b0>
200020d4:	00f65733          	srl	a4,a2,a5
200020d8:	00b696b3          	sll	a3,a3,a1
200020dc:	00d766b3          	or	a3,a4,a3
200020e0:	00f8d733          	srl	a4,a7,a5
200020e4:	00b898b3          	sll	a7,a7,a1
200020e8:	00f357b3          	srl	a5,t1,a5
200020ec:	0117e7b3          	or	a5,a5,a7
200020f0:	0106d893          	srli	a7,a3,0x10
200020f4:	03175eb3          	divu	t4,a4,a7
200020f8:	01069813          	slli	a6,a3,0x10
200020fc:	01085813          	srli	a6,a6,0x10
20002100:	00b61633          	sll	a2,a2,a1
20002104:	03177733          	remu	a4,a4,a7
20002108:	03d80e33          	mul	t3,a6,t4
2000210c:	01071513          	slli	a0,a4,0x10
20002110:	0107d713          	srli	a4,a5,0x10
20002114:	00a76733          	or	a4,a4,a0
20002118:	000e8513          	mv	a0,t4
2000211c:	01c77e63          	bgeu	a4,t3,20002138 <__udivdi3+0x360>
20002120:	00d70733          	add	a4,a4,a3
20002124:	fffe8513          	addi	a0,t4,-1
20002128:	00d76863          	bltu	a4,a3,20002138 <__udivdi3+0x360>
2000212c:	01c77663          	bgeu	a4,t3,20002138 <__udivdi3+0x360>
20002130:	ffee8513          	addi	a0,t4,-2
20002134:	00d70733          	add	a4,a4,a3
20002138:	41c70733          	sub	a4,a4,t3
2000213c:	03175e33          	divu	t3,a4,a7
20002140:	01079793          	slli	a5,a5,0x10
20002144:	0107d793          	srli	a5,a5,0x10
20002148:	03177733          	remu	a4,a4,a7
2000214c:	03c80833          	mul	a6,a6,t3
20002150:	01071713          	slli	a4,a4,0x10
20002154:	00e7e7b3          	or	a5,a5,a4
20002158:	000e0713          	mv	a4,t3
2000215c:	0107fe63          	bgeu	a5,a6,20002178 <__udivdi3+0x3a0>
20002160:	00d787b3          	add	a5,a5,a3
20002164:	fffe0713          	addi	a4,t3,-1
20002168:	00d7e863          	bltu	a5,a3,20002178 <__udivdi3+0x3a0>
2000216c:	0107f663          	bgeu	a5,a6,20002178 <__udivdi3+0x3a0>
20002170:	ffee0713          	addi	a4,t3,-2
20002174:	00d787b3          	add	a5,a5,a3
20002178:	01051513          	slli	a0,a0,0x10
2000217c:	00010e37          	lui	t3,0x10
20002180:	00e56533          	or	a0,a0,a4
20002184:	fffe0693          	addi	a3,t3,-1 # ffff <_start-0x1fff0001>
20002188:	00d57733          	and	a4,a0,a3
2000218c:	410787b3          	sub	a5,a5,a6
20002190:	00d676b3          	and	a3,a2,a3
20002194:	01055813          	srli	a6,a0,0x10
20002198:	01065613          	srli	a2,a2,0x10
2000219c:	02d708b3          	mul	a7,a4,a3
200021a0:	02d806b3          	mul	a3,a6,a3
200021a4:	02c70733          	mul	a4,a4,a2
200021a8:	02c80833          	mul	a6,a6,a2
200021ac:	00d70633          	add	a2,a4,a3
200021b0:	0108d713          	srli	a4,a7,0x10
200021b4:	00c70733          	add	a4,a4,a2
200021b8:	00d77463          	bgeu	a4,a3,200021c0 <__udivdi3+0x3e8>
200021bc:	01c80833          	add	a6,a6,t3
200021c0:	01075693          	srli	a3,a4,0x10
200021c4:	010686b3          	add	a3,a3,a6
200021c8:	02d7e663          	bltu	a5,a3,200021f4 <__udivdi3+0x41c>
200021cc:	ced79ee3          	bne	a5,a3,20001ec8 <__udivdi3+0xf0>
200021d0:	000107b7          	lui	a5,0x10
200021d4:	fff78793          	addi	a5,a5,-1 # ffff <_start-0x1fff0001>
200021d8:	00f77733          	and	a4,a4,a5
200021dc:	01071713          	slli	a4,a4,0x10
200021e0:	00f8f8b3          	and	a7,a7,a5
200021e4:	00b31333          	sll	t1,t1,a1
200021e8:	01170733          	add	a4,a4,a7
200021ec:	00000593          	li	a1,0
200021f0:	cce37ee3          	bgeu	t1,a4,20001ecc <__udivdi3+0xf4>
200021f4:	fff50513          	addi	a0,a0,-1 # ffffff <_start-0x1f000001>
200021f8:	cd1ff06f          	j	20001ec8 <__udivdi3+0xf0>
200021fc:	00000593          	li	a1,0
20002200:	00000513          	li	a0,0
20002204:	00008067          	ret
	...

20002300 <_Z32worker_interrupt_service_routinev>:
20002300:	fb010113          	addi	sp,sp,-80
20002304:	04112623          	sw	ra,76(sp)
20002308:	04512423          	sw	t0,72(sp)
2000230c:	04612223          	sw	t1,68(sp)
20002310:	04712023          	sw	t2,64(sp)
20002314:	02a12e23          	sw	a0,60(sp)
20002318:	02b12c23          	sw	a1,56(sp)
2000231c:	02c12a23          	sw	a2,52(sp)
20002320:	02d12823          	sw	a3,48(sp)
20002324:	02e12623          	sw	a4,44(sp)
20002328:	02f12423          	sw	a5,40(sp)
2000232c:	03012223          	sw	a6,36(sp)
20002330:	03112023          	sw	a7,32(sp)
20002334:	01c12e23          	sw	t3,28(sp)
20002338:	01d12c23          	sw	t4,24(sp)
2000233c:	01e12a23          	sw	t5,20(sp)
20002340:	01f12823          	sw	t6,16(sp)
20002344:	01112623          	sw	a7,12(sp)
20002348:	342027f3          	csrr	a5,mcause
2000234c:	0407c663          	bltz	a5,20002398 <_Z32worker_interrupt_service_routinev+0x98>
20002350:	04c12083          	lw	ra,76(sp)
20002354:	04812283          	lw	t0,72(sp)
20002358:	04412303          	lw	t1,68(sp)
2000235c:	04012383          	lw	t2,64(sp)
20002360:	03c12503          	lw	a0,60(sp)
20002364:	03812583          	lw	a1,56(sp)
20002368:	03412603          	lw	a2,52(sp)
2000236c:	03012683          	lw	a3,48(sp)
20002370:	02c12703          	lw	a4,44(sp)
20002374:	02812783          	lw	a5,40(sp)
20002378:	02412803          	lw	a6,36(sp)
2000237c:	02012883          	lw	a7,32(sp)
20002380:	01c12e03          	lw	t3,28(sp)
20002384:	01812e83          	lw	t4,24(sp)
20002388:	01412f03          	lw	t5,20(sp)
2000238c:	01012f83          	lw	t6,16(sp)
20002390:	05010113          	addi	sp,sp,80
20002394:	30200073          	mret
20002398:	00179793          	slli	a5,a5,0x1
2000239c:	0017d793          	srli	a5,a5,0x1
200023a0:	00700713          	li	a4,7
200023a4:	fae796e3          	bne	a5,a4,20002350 <_Z32worker_interrupt_service_routinev+0x50>
200023a8:	f1402573          	csrr	a0,mhartid
200023ac:	2a8010ef          	jal	ra,20003654 <_Z16UARTWriteDecimall>
200023b0:	fff00793          	li	a5,-1
200023b4:	80179773          	csrrw	a4,0x801,a5
200023b8:	800797f3          	csrrw	a5,0x800,a5
200023bc:	f95ff06f          	j	20002350 <_Z32worker_interrupt_service_routinev+0x50>
	...

20002400 <_Z10HandleUARTv>:
20002400:	00008797          	auipc	a5,0x8
20002404:	1b47a783          	lw	a5,436(a5) # 2000a5b4 <_GLOBAL_OFFSET_TABLE_+0x48>
20002408:	0007a703          	lw	a4,0(a5)
2000240c:	00072783          	lw	a5,0(a4)
20002410:	0017f793          	andi	a5,a5,1
20002414:	02078a63          	beqz	a5,20002448 <_Z10HandleUARTv+0x48>
20002418:	00008797          	auipc	a5,0x8
2000241c:	1687a783          	lw	a5,360(a5) # 2000a580 <_GLOBAL_OFFSET_TABLE_+0x14>
20002420:	0007a603          	lw	a2,0(a5)
20002424:	00008797          	auipc	a5,0x8
20002428:	1847a783          	lw	a5,388(a5) # 2000a5a8 <_GLOBAL_OFFSET_TABLE_+0x3c>
2000242c:	0007a683          	lw	a3,0(a5)
20002430:	00062783          	lw	a5,0(a2)
20002434:	0ff7f793          	zext.b	a5,a5
20002438:	00f6a023          	sw	a5,0(a3) # 10000 <_start-0x1fff0000>
2000243c:	00072783          	lw	a5,0(a4)
20002440:	0017f793          	andi	a5,a5,1
20002444:	fe0796e3          	bnez	a5,20002430 <_Z10HandleUARTv+0x30>
20002448:	7410006f          	j	20003388 <_Z9UARTFlushv>

2000244c <_Z13HandleButtonsv>:
2000244c:	fe010113          	addi	sp,sp,-32
20002450:	00912a23          	sw	s1,20(sp)
20002454:	00008497          	auipc	s1,0x8
20002458:	1784a483          	lw	s1,376(s1) # 2000a5cc <_GLOBAL_OFFSET_TABLE_+0x60>
2000245c:	0004a783          	lw	a5,0(s1)
20002460:	00112e23          	sw	ra,28(sp)
20002464:	00812c23          	sw	s0,24(sp)
20002468:	0007a783          	lw	a5,0(a5)
2000246c:	01212823          	sw	s2,16(sp)
20002470:	01312623          	sw	s3,12(sp)
20002474:	01412423          	sw	s4,8(sp)
20002478:	04078463          	beqz	a5,200024c0 <_Z13HandleButtonsv+0x74>
2000247c:	00008a17          	auipc	s4,0x8
20002480:	11ca2a03          	lw	s4,284(s4) # 2000a598 <_GLOBAL_OFFSET_TABLE_+0x2c>
20002484:	00005997          	auipc	s3,0x5
20002488:	7b098993          	addi	s3,s3,1968 # 20007c34 <__clz_tab+0x100>
2000248c:	00006917          	auipc	s2,0x6
20002490:	bdc90913          	addi	s2,s2,-1060 # 20008068 <__clz_tab+0x534>
20002494:	000a2783          	lw	a5,0(s4)
20002498:	00098513          	mv	a0,s3
2000249c:	0007a403          	lw	s0,0(a5)
200024a0:	759000ef          	jal	ra,200033f8 <_Z9UARTWritePKc>
200024a4:	00040513          	mv	a0,s0
200024a8:	05c010ef          	jal	ra,20003504 <_Z12UARTWriteHexm>
200024ac:	00090513          	mv	a0,s2
200024b0:	749000ef          	jal	ra,200033f8 <_Z9UARTWritePKc>
200024b4:	0004a783          	lw	a5,0(s1)
200024b8:	0007a783          	lw	a5,0(a5)
200024bc:	fc079ce3          	bnez	a5,20002494 <_Z13HandleButtonsv+0x48>
200024c0:	01c12083          	lw	ra,28(sp)
200024c4:	01812403          	lw	s0,24(sp)
200024c8:	01412483          	lw	s1,20(sp)
200024cc:	01012903          	lw	s2,16(sp)
200024d0:	00c12983          	lw	s3,12(sp)
200024d4:	00812a03          	lw	s4,8(sp)
200024d8:	02010113          	addi	sp,sp,32
200024dc:	00008067          	ret

200024e0 <_Z11HandleTimerv>:
200024e0:	ff010113          	addi	sp,sp,-16
200024e4:	00005517          	auipc	a0,0x5
200024e8:	76850513          	addi	a0,a0,1896 # 20007c4c <__clz_tab+0x118>
200024ec:	00112623          	sw	ra,12(sp)
200024f0:	709000ef          	jal	ra,200033f8 <_Z9UARTWritePKc>
200024f4:	00005517          	auipc	a0,0x5
200024f8:	76850513          	addi	a0,a0,1896 # 20007c5c <__clz_tab+0x128>
200024fc:	6fd000ef          	jal	ra,200033f8 <_Z9UARTWritePKc>
20002500:	00005517          	auipc	a0,0x5
20002504:	79050513          	addi	a0,a0,1936 # 20007c90 <__clz_tab+0x15c>
20002508:	6f1000ef          	jal	ra,200033f8 <_Z9UARTWritePKc>
2000250c:	fff00793          	li	a5,-1
20002510:	80179773          	csrrw	a4,0x801,a5
20002514:	800797f3          	csrrw	a5,0x800,a5
20002518:	00c12083          	lw	ra,12(sp)
2000251c:	01010113          	addi	sp,sp,16
20002520:	00008067          	ret

20002524 <_Z14HandleKeyboardv>:
20002524:	fd010113          	addi	sp,sp,-48
20002528:	02812423          	sw	s0,40(sp)
2000252c:	00008417          	auipc	s0,0x8
20002530:	05842403          	lw	s0,88(s0) # 2000a584 <_GLOBAL_OFFSET_TABLE_+0x18>
20002534:	00042783          	lw	a5,0(s0)
20002538:	02912223          	sw	s1,36(sp)
2000253c:	02112623          	sw	ra,44(sp)
20002540:	0007a783          	lw	a5,0(a5)
20002544:	03212023          	sw	s2,32(sp)
20002548:	01312e23          	sw	s3,28(sp)
2000254c:	01412c23          	sw	s4,24(sp)
20002550:	01512a23          	sw	s5,20(sp)
20002554:	01612823          	sw	s6,16(sp)
20002558:	00008497          	auipc	s1,0x8
2000255c:	0604a483          	lw	s1,96(s1) # 2000a5b8 <_GLOBAL_OFFSET_TABLE_+0x4c>
20002560:	00078c63          	beqz	a5,20002578 <_Z14HandleKeyboardv+0x54>
20002564:	00048513          	mv	a0,s1
20002568:	754010ef          	jal	ra,20003cbc <_Z12ScanKeyboardPt>
2000256c:	00042783          	lw	a5,0(s0)
20002570:	0007a783          	lw	a5,0(a5)
20002574:	fe0798e3          	bnez	a5,20002564 <_Z14HandleKeyboardv+0x40>
20002578:	00008417          	auipc	s0,0x8
2000257c:	00042403          	lw	s0,0(s0) # 2000a578 <_GLOBAL_OFFSET_TABLE_+0xc>
20002580:	00008497          	auipc	s1,0x8
20002584:	0384a483          	lw	s1,56(s1) # 2000a5b8 <_GLOBAL_OFFSET_TABLE_+0x4c>
20002588:	00000793          	li	a5,0
2000258c:	0aa00993          	li	s3,170
20002590:	10000a93          	li	s5,256
20002594:	00c10a13          	addi	s4,sp,12
20002598:	00008b17          	auipc	s6,0x8
2000259c:	024b2b03          	lw	s6,36(s6) # 2000a5bc <_GLOBAL_OFFSET_TABLE_+0x50>
200025a0:	00178913          	addi	s2,a5,1
200025a4:	03378663          	beq	a5,s3,200025d0 <_Z14HandleKeyboardv+0xac>
200025a8:	0004d783          	lhu	a5,0(s1)
200025ac:	00045703          	lhu	a4,0(s0)
200025b0:	00400613          	li	a2,4
200025b4:	00f12623          	sw	a5,12(sp)
200025b8:	000a0593          	mv	a1,s4
200025bc:	00e78863          	beq	a5,a4,200025cc <_Z14HandleKeyboardv+0xa8>
200025c0:	000b2503          	lw	a0,0(s6)
200025c4:	00f41023          	sh	a5,0(s0)
200025c8:	64c010ef          	jal	ra,20003c14 <_Z15RingBufferWritePhPKvm>
200025cc:	01590a63          	beq	s2,s5,200025e0 <_Z14HandleKeyboardv+0xbc>
200025d0:	00240413          	addi	s0,s0,2
200025d4:	00248493          	addi	s1,s1,2
200025d8:	00090793          	mv	a5,s2
200025dc:	fc5ff06f          	j	200025a0 <_Z14HandleKeyboardv+0x7c>
200025e0:	02c12083          	lw	ra,44(sp)
200025e4:	02812403          	lw	s0,40(sp)
200025e8:	02412483          	lw	s1,36(sp)
200025ec:	02012903          	lw	s2,32(sp)
200025f0:	01c12983          	lw	s3,28(sp)
200025f4:	01812a03          	lw	s4,24(sp)
200025f8:	01412a83          	lw	s5,20(sp)
200025fc:	01012b03          	lw	s6,16(sp)
20002600:	03010113          	addi	sp,sp,48
20002604:	00008067          	ret

20002608 <_Z10HandleTrapmmmm>:
20002608:	00300793          	li	a5,3
2000260c:	0cf50263          	beq	a0,a5,200026d0 <_Z10HandleTrapmmmm+0xc8>
20002610:	fe010113          	addi	sp,sp,-32
20002614:	00812c23          	sw	s0,24(sp)
20002618:	00912a23          	sw	s1,20(sp)
2000261c:	00112e23          	sw	ra,28(sp)
20002620:	01212823          	sw	s2,16(sp)
20002624:	01312623          	sw	s3,12(sp)
20002628:	00b00793          	li	a5,11
2000262c:	00050413          	mv	s0,a0
20002630:	00068493          	mv	s1,a3
20002634:	0af51063          	bne	a0,a5,200026d4 <_Z10HandleTrapmmmm+0xcc>
20002638:	00005517          	auipc	a0,0x5
2000263c:	66050513          	addi	a0,a0,1632 # 20007c98 <__clz_tab+0x164>
20002640:	00058993          	mv	s3,a1
20002644:	5b5000ef          	jal	ra,200033f8 <_Z9UARTWritePKc>
20002648:	00005517          	auipc	a0,0x5
2000264c:	65c50513          	addi	a0,a0,1628 # 20007ca4 <__clz_tab+0x170>
20002650:	5a9000ef          	jal	ra,200033f8 <_Z9UARTWritePKc>
20002654:	00005517          	auipc	a0,0x5
20002658:	6f450513          	addi	a0,a0,1780 # 20007d48 <__clz_tab+0x214>
2000265c:	59d000ef          	jal	ra,200033f8 <_Z9UARTWritePKc>
20002660:	00005517          	auipc	a0,0x5
20002664:	72450513          	addi	a0,a0,1828 # 20007d84 <__clz_tab+0x250>
20002668:	591000ef          	jal	ra,200033f8 <_Z9UARTWritePKc>
2000266c:	00005517          	auipc	a0,0x5
20002670:	75450513          	addi	a0,a0,1876 # 20007dc0 <__clz_tab+0x28c>
20002674:	585000ef          	jal	ra,200033f8 <_Z9UARTWritePKc>
20002678:	00098513          	mv	a0,s3
2000267c:	689000ef          	jal	ra,20003504 <_Z12UARTWriteHexm>
20002680:	00005517          	auipc	a0,0x5
20002684:	74850513          	addi	a0,a0,1864 # 20007dc8 <__clz_tab+0x294>
20002688:	571000ef          	jal	ra,200033f8 <_Z9UARTWritePKc>
2000268c:	00048513          	mv	a0,s1
20002690:	675000ef          	jal	ra,20003504 <_Z12UARTWriteHexm>
20002694:	00005517          	auipc	a0,0x5
20002698:	73850513          	addi	a0,a0,1848 # 20007dcc <__clz_tab+0x298>
2000269c:	55d000ef          	jal	ra,200033f8 <_Z9UARTWritePKc>
200026a0:	00005517          	auipc	a0,0x5
200026a4:	75050513          	addi	a0,a0,1872 # 20007df0 <__clz_tab+0x2bc>
200026a8:	551000ef          	jal	ra,200033f8 <_Z9UARTWritePKc>
200026ac:	01812403          	lw	s0,24(sp)
200026b0:	01c12083          	lw	ra,28(sp)
200026b4:	01412483          	lw	s1,20(sp)
200026b8:	01012903          	lw	s2,16(sp)
200026bc:	00c12983          	lw	s3,12(sp)
200026c0:	00005517          	auipc	a0,0x5
200026c4:	5d050513          	addi	a0,a0,1488 # 20007c90 <__clz_tab+0x15c>
200026c8:	02010113          	addi	sp,sp,32
200026cc:	52d0006f          	j	200033f8 <_Z9UARTWritePKc>
200026d0:	00008067          	ret
200026d4:	00005517          	auipc	a0,0x5
200026d8:	7c050513          	addi	a0,a0,1984 # 20007e94 <__clz_tab+0x360>
200026dc:	00060913          	mv	s2,a2
200026e0:	519000ef          	jal	ra,200033f8 <_Z9UARTWritePKc>
200026e4:	00005517          	auipc	a0,0x5
200026e8:	5b450513          	addi	a0,a0,1460 # 20007c98 <__clz_tab+0x164>
200026ec:	50d000ef          	jal	ra,200033f8 <_Z9UARTWritePKc>
200026f0:	00005517          	auipc	a0,0x5
200026f4:	5b450513          	addi	a0,a0,1460 # 20007ca4 <__clz_tab+0x170>
200026f8:	501000ef          	jal	ra,200033f8 <_Z9UARTWritePKc>
200026fc:	00005517          	auipc	a0,0x5
20002700:	7a050513          	addi	a0,a0,1952 # 20007e9c <__clz_tab+0x368>
20002704:	4f5000ef          	jal	ra,200033f8 <_Z9UARTWritePKc>
20002708:	00005517          	auipc	a0,0x5
2000270c:	7d050513          	addi	a0,a0,2000 # 20007ed8 <__clz_tab+0x3a4>
20002710:	4e9000ef          	jal	ra,200033f8 <_Z9UARTWritePKc>
20002714:	00040513          	mv	a0,s0
20002718:	5ed000ef          	jal	ra,20003504 <_Z12UARTWriteHexm>
2000271c:	00005517          	auipc	a0,0x5
20002720:	7d450513          	addi	a0,a0,2004 # 20007ef0 <__clz_tab+0x3bc>
20002724:	4d5000ef          	jal	ra,200033f8 <_Z9UARTWritePKc>
20002728:	00090513          	mv	a0,s2
2000272c:	5d9000ef          	jal	ra,20003504 <_Z12UARTWriteHexm>
20002730:	00005517          	auipc	a0,0x5
20002734:	69850513          	addi	a0,a0,1688 # 20007dc8 <__clz_tab+0x294>
20002738:	4c1000ef          	jal	ra,200033f8 <_Z9UARTWritePKc>
2000273c:	00048513          	mv	a0,s1
20002740:	5c5000ef          	jal	ra,20003504 <_Z12UARTWriteHexm>
20002744:	00005517          	auipc	a0,0x5
20002748:	7b050513          	addi	a0,a0,1968 # 20007ef4 <__clz_tab+0x3c0>
2000274c:	4ad000ef          	jal	ra,200033f8 <_Z9UARTWritePKc>
20002750:	00005517          	auipc	a0,0x5
20002754:	6a050513          	addi	a0,a0,1696 # 20007df0 <__clz_tab+0x2bc>
20002758:	4a1000ef          	jal	ra,200033f8 <_Z9UARTWritePKc>
2000275c:	00005517          	auipc	a0,0x5
20002760:	53450513          	addi	a0,a0,1332 # 20007c90 <__clz_tab+0x15c>
20002764:	495000ef          	jal	ra,200033f8 <_Z9UARTWritePKc>
20002768:	10500073          	wfi
2000276c:	ffdff06f          	j	20002768 <_Z10HandleTrapmmmm+0x160>
	...

20002800 <_Z25interrupt_service_routinev>:
20002800:	fa010113          	addi	sp,sp,-96
20002804:	04112e23          	sw	ra,92(sp)
20002808:	04512c23          	sw	t0,88(sp)
2000280c:	04612a23          	sw	t1,84(sp)
20002810:	04712823          	sw	t2,80(sp)
20002814:	04a12623          	sw	a0,76(sp)
20002818:	04b12423          	sw	a1,72(sp)
2000281c:	04c12223          	sw	a2,68(sp)
20002820:	04d12023          	sw	a3,64(sp)
20002824:	02e12e23          	sw	a4,60(sp)
20002828:	02f12c23          	sw	a5,56(sp)
2000282c:	03012a23          	sw	a6,52(sp)
20002830:	03112823          	sw	a7,48(sp)
20002834:	03c12623          	sw	t3,44(sp)
20002838:	03d12423          	sw	t4,40(sp)
2000283c:	03e12223          	sw	t5,36(sp)
20002840:	03f12023          	sw	t6,32(sp)
20002844:	01112e23          	sw	a7,28(sp)
20002848:	34302673          	csrr	a2,mtval
2000284c:	34202573          	csrr	a0,mcause
20002850:	341026f3          	csrr	a3,mepc
20002854:	06055263          	bgez	a0,200028b8 <_Z25interrupt_service_routinev+0xb8>
20002858:	00151513          	slli	a0,a0,0x1
2000285c:	00155513          	srli	a0,a0,0x1
20002860:	00b00793          	li	a5,11
20002864:	06f50263          	beq	a0,a5,200028c8 <_Z25interrupt_service_routinev+0xc8>
20002868:	00700793          	li	a5,7
2000286c:	06f50e63          	beq	a0,a5,200028e8 <_Z25interrupt_service_routinev+0xe8>
20002870:	05c12083          	lw	ra,92(sp)
20002874:	05812283          	lw	t0,88(sp)
20002878:	05412303          	lw	t1,84(sp)
2000287c:	05012383          	lw	t2,80(sp)
20002880:	04c12503          	lw	a0,76(sp)
20002884:	04812583          	lw	a1,72(sp)
20002888:	04412603          	lw	a2,68(sp)
2000288c:	04012683          	lw	a3,64(sp)
20002890:	03c12703          	lw	a4,60(sp)
20002894:	03812783          	lw	a5,56(sp)
20002898:	03412803          	lw	a6,52(sp)
2000289c:	03012883          	lw	a7,48(sp)
200028a0:	02c12e03          	lw	t3,44(sp)
200028a4:	02812e83          	lw	t4,40(sp)
200028a8:	02412f03          	lw	t5,36(sp)
200028ac:	02012f83          	lw	t6,32(sp)
200028b0:	06010113          	addi	sp,sp,96
200028b4:	30200073          	mret
200028b8:	01c12583          	lw	a1,28(sp)
200028bc:	ffc68693          	addi	a3,a3,-4
200028c0:	d49ff0ef          	jal	ra,20002608 <_Z10HandleTrapmmmm>
200028c4:	fadff06f          	j	20002870 <_Z25interrupt_service_routinev+0x70>
200028c8:	00167793          	andi	a5,a2,1
200028cc:	02079a63          	bnez	a5,20002900 <_Z25interrupt_service_routinev+0x100>
200028d0:	00267793          	andi	a5,a2,2
200028d4:	00079e63          	bnez	a5,200028f0 <_Z25interrupt_service_routinev+0xf0>
200028d8:	00467613          	andi	a2,a2,4
200028dc:	f8060ae3          	beqz	a2,20002870 <_Z25interrupt_service_routinev+0x70>
200028e0:	c45ff0ef          	jal	ra,20002524 <_Z14HandleKeyboardv>
200028e4:	f8dff06f          	j	20002870 <_Z25interrupt_service_routinev+0x70>
200028e8:	bf9ff0ef          	jal	ra,200024e0 <_Z11HandleTimerv>
200028ec:	f85ff06f          	j	20002870 <_Z25interrupt_service_routinev+0x70>
200028f0:	00c12623          	sw	a2,12(sp)
200028f4:	b59ff0ef          	jal	ra,2000244c <_Z13HandleButtonsv>
200028f8:	00c12603          	lw	a2,12(sp)
200028fc:	fddff06f          	j	200028d8 <_Z25interrupt_service_routinev+0xd8>
20002900:	00c12623          	sw	a2,12(sp)
20002904:	afdff0ef          	jal	ra,20002400 <_Z10HandleUARTv>
20002908:	00c12603          	lw	a2,12(sp)
2000290c:	fc5ff06f          	j	200028d0 <_Z25interrupt_service_routinev+0xd0>
	...

200029f0 <_Z10InstallISRv>:
200029f0:	ff010113          	addi	sp,sp,-16
200029f4:	00112623          	sw	ra,12(sp)
200029f8:	00008797          	auipc	a5,0x8
200029fc:	bc87a783          	lw	a5,-1080(a5) # 2000a5c0 <_GLOBAL_OFFSET_TABLE_+0x54>
20002a00:	305797f3          	csrrw	a5,mtvec,a5
20002a04:	799000ef          	jal	ra,2000399c <_Z11E32ReadTimev>
20002a08:	00050793          	mv	a5,a0
20002a0c:	00989537          	lui	a0,0x989
20002a10:	68050513          	addi	a0,a0,1664 # 989680 <_start-0x1f676980>
20002a14:	00a78533          	add	a0,a5,a0
20002a18:	00f537b3          	sltu	a5,a0,a5
20002a1c:	00b785b3          	add	a1,a5,a1
20002a20:	7b5000ef          	jal	ra,200039d4 <_Z17E32SetTimeComparey>
20002a24:	000017b7          	lui	a5,0x1
20002a28:	88878793          	addi	a5,a5,-1912 # 888 <_start-0x1ffff778>
20002a2c:	304797f3          	csrrw	a5,mie,a5
20002a30:	300457f3          	csrrwi	a5,mstatus,8
20002a34:	00c12083          	lw	ra,12(sp)
20002a38:	01010113          	addi	sp,sp,16
20002a3c:	00008067          	ret

20002a40 <_Z16InstallWorkerISRv>:
20002a40:	ff010113          	addi	sp,sp,-16
20002a44:	00112623          	sw	ra,12(sp)
20002a48:	00008797          	auipc	a5,0x8
20002a4c:	b2c7a783          	lw	a5,-1236(a5) # 2000a574 <_GLOBAL_OFFSET_TABLE_+0x8>
20002a50:	305797f3          	csrrw	a5,mtvec,a5
20002a54:	749000ef          	jal	ra,2000399c <_Z11E32ReadTimev>
20002a58:	00050793          	mv	a5,a0
20002a5c:	20050513          	addi	a0,a0,512
20002a60:	00f537b3          	sltu	a5,a0,a5
20002a64:	00b785b3          	add	a1,a5,a1
20002a68:	76d000ef          	jal	ra,200039d4 <_Z17E32SetTimeComparey>
20002a6c:	000017b7          	lui	a5,0x1
20002a70:	88878793          	addi	a5,a5,-1912 # 888 <_start-0x1ffff778>
20002a74:	304797f3          	csrrw	a5,mie,a5
20002a78:	300457f3          	csrrwi	a5,mstatus,8
20002a7c:	00c12083          	lw	ra,12(sp)
20002a80:	01010113          	addi	sp,sp,16
20002a84:	00008067          	ret

20002a88 <_Z9ListFilesPKc>:
20002a88:	e8010113          	addi	sp,sp,-384
20002a8c:	16812c23          	sw	s0,376(sp)
20002a90:	00810413          	addi	s0,sp,8
20002a94:	00050593          	mv	a1,a0
20002a98:	00040513          	mv	a0,s0
20002a9c:	16112e23          	sw	ra,380(sp)
20002aa0:	16912a23          	sw	s1,372(sp)
20002aa4:	17212823          	sw	s2,368(sp)
20002aa8:	17312623          	sw	s3,364(sp)
20002aac:	17412423          	sw	s4,360(sp)
20002ab0:	17512223          	sw	s5,356(sp)
20002ab4:	17612023          	sw	s6,352(sp)
20002ab8:	15712e23          	sw	s7,348(sp)
20002abc:	15812c23          	sw	s8,344(sp)
20002ac0:	15912a23          	sw	s9,340(sp)
20002ac4:	15a12823          	sw	s10,336(sp)
20002ac8:	048040ef          	jal	ra,20006b10 <f_opendir>
20002acc:	12051063          	bnez	a0,20002bec <_Z9ListFilesPKc+0x164>
20002ad0:	03810493          	addi	s1,sp,56
20002ad4:	04e10993          	addi	s3,sp,78
20002ad8:	00005a17          	auipc	s4,0x5
20002adc:	428a0a13          	addi	s4,s4,1064 # 20007f00 <__clz_tab+0x3cc>
20002ae0:	00005c17          	auipc	s8,0x5
20002ae4:	43cc0c13          	addi	s8,s8,1084 # 20007f1c <__clz_tab+0x3e8>
20002ae8:	00005b97          	auipc	s7,0x5
20002aec:	160b8b93          	addi	s7,s7,352 # 20007c48 <__clz_tab+0x114>
20002af0:	00005b17          	auipc	s6,0x5
20002af4:	428b0b13          	addi	s6,s6,1064 # 20007f18 <__clz_tab+0x3e4>
20002af8:	00005c97          	auipc	s9,0x5
20002afc:	410c8c93          	addi	s9,s9,1040 # 20007f08 <__clz_tab+0x3d4>
20002b00:	00005a97          	auipc	s5,0x5
20002b04:	410a8a93          	addi	s5,s5,1040 # 20007f10 <__clz_tab+0x3dc>
20002b08:	00005917          	auipc	s2,0x5
20002b0c:	18890913          	addi	s2,s2,392 # 20007c90 <__clz_tab+0x15c>
20002b10:	00048593          	mv	a1,s1
20002b14:	00040513          	mv	a0,s0
20002b18:	174040ef          	jal	ra,20006c8c <f_readdir>
20002b1c:	00051663          	bnez	a0,20002b28 <_Z9ListFilesPKc+0xa0>
20002b20:	02012783          	lw	a5,32(sp)
20002b24:	04079263          	bnez	a5,20002b68 <_Z9ListFilesPKc+0xe0>
20002b28:	00040513          	mv	a0,s0
20002b2c:	0f0040ef          	jal	ra,20006c1c <f_closedir>
20002b30:	17c12083          	lw	ra,380(sp)
20002b34:	17812403          	lw	s0,376(sp)
20002b38:	17412483          	lw	s1,372(sp)
20002b3c:	17012903          	lw	s2,368(sp)
20002b40:	16c12983          	lw	s3,364(sp)
20002b44:	16812a03          	lw	s4,360(sp)
20002b48:	16412a83          	lw	s5,356(sp)
20002b4c:	16012b03          	lw	s6,352(sp)
20002b50:	15c12b83          	lw	s7,348(sp)
20002b54:	15812c03          	lw	s8,344(sp)
20002b58:	15412c83          	lw	s9,340(sp)
20002b5c:	15012d03          	lw	s10,336(sp)
20002b60:	18010113          	addi	sp,sp,384
20002b64:	00008067          	ret
20002b68:	000a0593          	mv	a1,s4
20002b6c:	00098513          	mv	a0,s3
20002b70:	965fe0ef          	jal	ra,200014d4 <strstr>
20002b74:	04014783          	lbu	a5,64(sp)
20002b78:	00050d13          	mv	s10,a0
20002b7c:	0107f793          	andi	a5,a5,16
20002b80:	04079263          	bnez	a5,20002bc4 <_Z9ListFilesPKc+0x13c>
20002b84:	00050663          	beqz	a0,20002b90 <_Z9ListFilesPKc+0x108>
20002b88:	000c0513          	mv	a0,s8
20002b8c:	06d000ef          	jal	ra,200033f8 <_Z9UARTWritePKc>
20002b90:	00098513          	mv	a0,s3
20002b94:	065000ef          	jal	ra,200033f8 <_Z9UARTWritePKc>
20002b98:	000b8513          	mv	a0,s7
20002b9c:	05d000ef          	jal	ra,200033f8 <_Z9UARTWritePKc>
20002ba0:	03812503          	lw	a0,56(sp)
20002ba4:	2b1000ef          	jal	ra,20003654 <_Z16UARTWriteDecimall>
20002ba8:	000b0513          	mv	a0,s6
20002bac:	04d000ef          	jal	ra,200033f8 <_Z9UARTWritePKc>
20002bb0:	00090513          	mv	a0,s2
20002bb4:	045000ef          	jal	ra,200033f8 <_Z9UARTWritePKc>
20002bb8:	02012783          	lw	a5,32(sp)
20002bbc:	f4079ae3          	bnez	a5,20002b10 <_Z9ListFilesPKc+0x88>
20002bc0:	f69ff06f          	j	20002b28 <_Z9ListFilesPKc+0xa0>
20002bc4:	000c8513          	mv	a0,s9
20002bc8:	031000ef          	jal	ra,200033f8 <_Z9UARTWritePKc>
20002bcc:	000d0663          	beqz	s10,20002bd8 <_Z9ListFilesPKc+0x150>
20002bd0:	000c0513          	mv	a0,s8
20002bd4:	025000ef          	jal	ra,200033f8 <_Z9UARTWritePKc>
20002bd8:	00098513          	mv	a0,s3
20002bdc:	01d000ef          	jal	ra,200033f8 <_Z9UARTWritePKc>
20002be0:	000a8513          	mv	a0,s5
20002be4:	015000ef          	jal	ra,200033f8 <_Z9UARTWritePKc>
20002be8:	fc9ff06f          	j	20002bb0 <_Z9ListFilesPKc+0x128>
20002bec:	00251513          	slli	a0,a0,0x2
20002bf0:	00008797          	auipc	a5,0x8
20002bf4:	9d47a783          	lw	a5,-1580(a5) # 2000a5c4 <_GLOBAL_OFFSET_TABLE_+0x58>
20002bf8:	00a787b3          	add	a5,a5,a0
20002bfc:	0007a503          	lw	a0,0(a5)
20002c00:	7f8000ef          	jal	ra,200033f8 <_Z9UARTWritePKc>
20002c04:	f2dff06f          	j	20002b30 <_Z9ListFilesPKc+0xa8>

20002c08 <_Z3CLSv>:
20002c08:	00005517          	auipc	a0,0x5
20002c0c:	31c50513          	addi	a0,a0,796 # 20007f24 <__clz_tab+0x3f0>
20002c10:	7e80006f          	j	200033f8 <_Z9UARTWritePKc>

20002c14 <_Z14FlushDataCachev>:
20002c14:	00000793          	li	a5,0
20002c18:	000026b7          	lui	a3,0x2
20002c1c:	0007a703          	lw	a4,0(a5)
20002c20:	00e00033          	add	zero,zero,a4
20002c24:	00478793          	addi	a5,a5,4
20002c28:	fed79ae3          	bne	a5,a3,20002c1c <_Z14FlushDataCachev+0x8>
20002c2c:	00008067          	ret

20002c30 <_Z29ParseELFHeaderAndLoadSectionsP3FILP16SElfFileHeader32Rm>:
20002c30:	f6010113          	addi	sp,sp,-160
20002c34:	08812c23          	sw	s0,152(sp)
20002c38:	08112e23          	sw	ra,156(sp)
20002c3c:	08912a23          	sw	s1,148(sp)
20002c40:	09212823          	sw	s2,144(sp)
20002c44:	09312623          	sw	s3,140(sp)
20002c48:	09412423          	sw	s4,136(sp)
20002c4c:	09512223          	sw	s5,132(sp)
20002c50:	09612023          	sw	s6,128(sp)
20002c54:	00058413          	mv	s0,a1
20002c58:	0015c683          	lbu	a3,1(a1)
20002c5c:	00244703          	lbu	a4,2(s0)
20002c60:	0005c583          	lbu	a1,0(a1)
20002c64:	00344783          	lbu	a5,3(s0)
20002c68:	00869693          	slli	a3,a3,0x8
20002c6c:	00b6e6b3          	or	a3,a3,a1
20002c70:	01071713          	slli	a4,a4,0x10
20002c74:	00d76733          	or	a4,a4,a3
20002c78:	01879793          	slli	a5,a5,0x18
20002c7c:	00e7e7b3          	or	a5,a5,a4
20002c80:	464c4737          	lui	a4,0x464c4
20002c84:	57f70713          	addi	a4,a4,1407 # 464c457f <_end+0x264b9497>
20002c88:	02e78a63          	beq	a5,a4,20002cbc <_Z29ParseELFHeaderAndLoadSectionsP3FILP16SElfFileHeader32Rm+0x8c>
20002c8c:	09812403          	lw	s0,152(sp)
20002c90:	09c12083          	lw	ra,156(sp)
20002c94:	09412483          	lw	s1,148(sp)
20002c98:	09012903          	lw	s2,144(sp)
20002c9c:	08c12983          	lw	s3,140(sp)
20002ca0:	08812a03          	lw	s4,136(sp)
20002ca4:	08412a83          	lw	s5,132(sp)
20002ca8:	08012b03          	lw	s6,128(sp)
20002cac:	00005517          	auipc	a0,0x5
20002cb0:	28450513          	addi	a0,a0,644 # 20007f30 <__clz_tab+0x3fc>
20002cb4:	0a010113          	addi	sp,sp,160
20002cb8:	7400006f          	j	200033f8 <_Z9UARTWritePKc>
20002cbc:	01944683          	lbu	a3,25(s0)
20002cc0:	01844583          	lbu	a1,24(s0)
20002cc4:	01a44703          	lbu	a4,26(s0)
20002cc8:	01b44783          	lbu	a5,27(s0)
20002ccc:	00869693          	slli	a3,a3,0x8
20002cd0:	00b6e6b3          	or	a3,a3,a1
20002cd4:	01071713          	slli	a4,a4,0x10
20002cd8:	00d76733          	or	a4,a4,a3
20002cdc:	01879793          	slli	a5,a5,0x18
20002ce0:	00e7e7b3          	or	a5,a5,a4
20002ce4:	00f62023          	sw	a5,0(a2)
20002ce8:	01d44703          	lbu	a4,29(s0)
20002cec:	01c44683          	lbu	a3,28(s0)
20002cf0:	01e44783          	lbu	a5,30(s0)
20002cf4:	01f44583          	lbu	a1,31(s0)
20002cf8:	00871713          	slli	a4,a4,0x8
20002cfc:	00d76733          	or	a4,a4,a3
20002d00:	01079793          	slli	a5,a5,0x10
20002d04:	00e7e7b3          	or	a5,a5,a4
20002d08:	01859593          	slli	a1,a1,0x18
20002d0c:	00f5e5b3          	or	a1,a1,a5
20002d10:	00050913          	mv	s2,a0
20002d14:	00c10993          	addi	s3,sp,12
20002d18:	085030ef          	jal	ra,2000659c <f_lseek>
20002d1c:	02000613          	li	a2,32
20002d20:	00098693          	mv	a3,s3
20002d24:	01010593          	addi	a1,sp,16
20002d28:	00090513          	mv	a0,s2
20002d2c:	46c030ef          	jal	ra,20006198 <f_read>
20002d30:	03344783          	lbu	a5,51(s0)
20002d34:	02f44703          	lbu	a4,47(s0)
20002d38:	03244603          	lbu	a2,50(s0)
20002d3c:	02e44683          	lbu	a3,46(s0)
20002d40:	00879793          	slli	a5,a5,0x8
20002d44:	00871713          	slli	a4,a4,0x8
20002d48:	00d76733          	or	a4,a4,a3
20002d4c:	00c7e7b3          	or	a5,a5,a2
20002d50:	02e787b3          	mul	a5,a5,a4
20002d54:	02144683          	lbu	a3,33(s0)
20002d58:	02044603          	lbu	a2,32(s0)
20002d5c:	02244703          	lbu	a4,34(s0)
20002d60:	02344583          	lbu	a1,35(s0)
20002d64:	00869693          	slli	a3,a3,0x8
20002d68:	00c6e6b3          	or	a3,a3,a2
20002d6c:	01071713          	slli	a4,a4,0x10
20002d70:	00d76733          	or	a4,a4,a3
20002d74:	01859593          	slli	a1,a1,0x18
20002d78:	00e5e5b3          	or	a1,a1,a4
20002d7c:	00b785b3          	add	a1,a5,a1
20002d80:	00090513          	mv	a0,s2
20002d84:	019030ef          	jal	ra,2000659c <f_lseek>
20002d88:	00098693          	mv	a3,s3
20002d8c:	02800613          	li	a2,40
20002d90:	03010593          	addi	a1,sp,48
20002d94:	00090513          	mv	a0,s2
20002d98:	400030ef          	jal	ra,20006198 <f_read>
20002d9c:	04412503          	lw	a0,68(sp)
20002da0:	c78fd0ef          	jal	ra,20000218 <malloc>
20002da4:	04012583          	lw	a1,64(sp)
20002da8:	00050a93          	mv	s5,a0
20002dac:	00090513          	mv	a0,s2
20002db0:	7ec030ef          	jal	ra,2000659c <f_lseek>
20002db4:	04412603          	lw	a2,68(sp)
20002db8:	00098693          	mv	a3,s3
20002dbc:	000a8593          	mv	a1,s5
20002dc0:	00090513          	mv	a0,s2
20002dc4:	3d4030ef          	jal	ra,20006198 <f_read>
20002dc8:	03144783          	lbu	a5,49(s0)
20002dcc:	03044703          	lbu	a4,48(s0)
20002dd0:	00879793          	slli	a5,a5,0x8
20002dd4:	00e7e7b3          	or	a5,a5,a4
20002dd8:	0e078263          	beqz	a5,20002ebc <_Z29ParseELFHeaderAndLoadSectionsP3FILP16SElfFileHeader32Rm+0x28c>
20002ddc:	00000493          	li	s1,0
20002de0:	05810a13          	addi	s4,sp,88
20002de4:	0240006f          	j	20002e08 <_Z29ParseELFHeaderAndLoadSectionsP3FILP16SElfFileHeader32Rm+0x1d8>
20002de8:	03144783          	lbu	a5,49(s0)
20002dec:	03044703          	lbu	a4,48(s0)
20002df0:	00148493          	addi	s1,s1,1
20002df4:	00879793          	slli	a5,a5,0x8
20002df8:	01049493          	slli	s1,s1,0x10
20002dfc:	0104d493          	srli	s1,s1,0x10
20002e00:	00e7e7b3          	or	a5,a5,a4
20002e04:	0af4fc63          	bgeu	s1,a5,20002ebc <_Z29ParseELFHeaderAndLoadSectionsP3FILP16SElfFileHeader32Rm+0x28c>
20002e08:	02f44783          	lbu	a5,47(s0)
20002e0c:	02e44703          	lbu	a4,46(s0)
20002e10:	02144683          	lbu	a3,33(s0)
20002e14:	00879793          	slli	a5,a5,0x8
20002e18:	00e7e7b3          	or	a5,a5,a4
20002e1c:	029787b3          	mul	a5,a5,s1
20002e20:	02044603          	lbu	a2,32(s0)
20002e24:	02244703          	lbu	a4,34(s0)
20002e28:	02344583          	lbu	a1,35(s0)
20002e2c:	00869693          	slli	a3,a3,0x8
20002e30:	00c6e6b3          	or	a3,a3,a2
20002e34:	01071713          	slli	a4,a4,0x10
20002e38:	00d76733          	or	a4,a4,a3
20002e3c:	01859593          	slli	a1,a1,0x18
20002e40:	00e5e5b3          	or	a1,a1,a4
20002e44:	00b785b3          	add	a1,a5,a1
20002e48:	00090513          	mv	a0,s2
20002e4c:	750030ef          	jal	ra,2000659c <f_lseek>
20002e50:	00098693          	mv	a3,s3
20002e54:	02800613          	li	a2,40
20002e58:	000a0593          	mv	a1,s4
20002e5c:	00090513          	mv	a0,s2
20002e60:	338030ef          	jal	ra,20006198 <f_read>
20002e64:	06012783          	lw	a5,96(sp)
20002e68:	0077f793          	andi	a5,a5,7
20002e6c:	f6078ee3          	beqz	a5,20002de8 <_Z29ParseELFHeaderAndLoadSectionsP3FILP16SElfFileHeader32Rm+0x1b8>
20002e70:	06c12783          	lw	a5,108(sp)
20002e74:	f6078ae3          	beqz	a5,20002de8 <_Z29ParseELFHeaderAndLoadSectionsP3FILP16SElfFileHeader32Rm+0x1b8>
20002e78:	06812583          	lw	a1,104(sp)
20002e7c:	00090513          	mv	a0,s2
20002e80:	06412b03          	lw	s6,100(sp)
20002e84:	718030ef          	jal	ra,2000659c <f_lseek>
20002e88:	06c12603          	lw	a2,108(sp)
20002e8c:	00098693          	mv	a3,s3
20002e90:	000b0593          	mv	a1,s6
20002e94:	00090513          	mv	a0,s2
20002e98:	300030ef          	jal	ra,20006198 <f_read>
20002e9c:	03144783          	lbu	a5,49(s0)
20002ea0:	03044703          	lbu	a4,48(s0)
20002ea4:	00148493          	addi	s1,s1,1
20002ea8:	00879793          	slli	a5,a5,0x8
20002eac:	01049493          	slli	s1,s1,0x10
20002eb0:	0104d493          	srli	s1,s1,0x10
20002eb4:	00e7e7b3          	or	a5,a5,a4
20002eb8:	f4f4e8e3          	bltu	s1,a5,20002e08 <_Z29ParseELFHeaderAndLoadSectionsP3FILP16SElfFileHeader32Rm+0x1d8>
20002ebc:	000a8513          	mv	a0,s5
20002ec0:	b68fd0ef          	jal	ra,20000228 <free>
20002ec4:	09c12083          	lw	ra,156(sp)
20002ec8:	09812403          	lw	s0,152(sp)
20002ecc:	09412483          	lw	s1,148(sp)
20002ed0:	09012903          	lw	s2,144(sp)
20002ed4:	08c12983          	lw	s3,140(sp)
20002ed8:	08812a03          	lw	s4,136(sp)
20002edc:	08412a83          	lw	s5,132(sp)
20002ee0:	08012b03          	lw	s6,128(sp)
20002ee4:	0a010113          	addi	sp,sp,160
20002ee8:	00008067          	ret

20002eec <_Z13ParseCommandsv>:
20002eec:	d9010113          	addi	sp,sp,-624
20002ef0:	00005597          	auipc	a1,0x5
20002ef4:	d5858593          	addi	a1,a1,-680 # 20007c48 <__clz_tab+0x114>
20002ef8:	a6c18513          	addi	a0,gp,-1428 # 2000a84c <_ZL11commandline>
20002efc:	26812423          	sw	s0,616(sp)
20002f00:	26112623          	sw	ra,620(sp)
20002f04:	26912223          	sw	s1,612(sp)
20002f08:	869fe0ef          	jal	ra,20001770 <strtok>
20002f0c:	00005597          	auipc	a1,0x5
20002f10:	04458593          	addi	a1,a1,68 # 20007f50 <__clz_tab+0x41c>
20002f14:	00050413          	mv	s0,a0
20002f18:	f85fd0ef          	jal	ra,20000e9c <strcmp>
20002f1c:	04051863          	bnez	a0,20002f6c <_Z13ParseCommandsv+0x80>
20002f20:	00005517          	auipc	a0,0x5
20002f24:	03850513          	addi	a0,a0,56 # 20007f58 <__clz_tab+0x424>
20002f28:	4d0000ef          	jal	ra,200033f8 <_Z9UARTWritePKc>
20002f2c:	00005517          	auipc	a0,0x5
20002f30:	06c50513          	addi	a0,a0,108 # 20007f98 <__clz_tab+0x464>
20002f34:	4c4000ef          	jal	ra,200033f8 <_Z9UARTWritePKc>
20002f38:	00005517          	auipc	a0,0x5
20002f3c:	09450513          	addi	a0,a0,148 # 20007fcc <__clz_tab+0x498>
20002f40:	4b8000ef          	jal	ra,200033f8 <_Z9UARTWritePKc>
20002f44:	00005517          	auipc	a0,0x5
20002f48:	0b850513          	addi	a0,a0,184 # 20007ffc <__clz_tab+0x4c8>
20002f4c:	4ac000ef          	jal	ra,200033f8 <_Z9UARTWritePKc>
20002f50:	26c12083          	lw	ra,620(sp)
20002f54:	26812403          	lw	s0,616(sp)
20002f58:	c601a623          	sw	zero,-916(gp) # 2000aa4c <_ZL6cmdlen>
20002f5c:	a6018623          	sb	zero,-1428(gp) # 2000a84c <_ZL11commandline>
20002f60:	26412483          	lw	s1,612(sp)
20002f64:	27010113          	addi	sp,sp,624
20002f68:	00008067          	ret
20002f6c:	00005597          	auipc	a1,0x5
20002f70:	0cc58593          	addi	a1,a1,204 # 20008038 <__clz_tab+0x504>
20002f74:	00040513          	mv	a0,s0
20002f78:	f25fd0ef          	jal	ra,20000e9c <strcmp>
20002f7c:	02051463          	bnez	a0,20002fa4 <_Z13ParseCommandsv+0xb8>
20002f80:	00005597          	auipc	a1,0x5
20002f84:	cc858593          	addi	a1,a1,-824 # 20007c48 <__clz_tab+0x114>
20002f88:	fe8fe0ef          	jal	ra,20001770 <strtok>
20002f8c:	00050593          	mv	a1,a0
20002f90:	08050663          	beqz	a0,2000301c <_Z13ParseCommandsv+0x130>
20002f94:	00007517          	auipc	a0,0x7
20002f98:	14c50513          	addi	a0,a0,332 # 2000a0e0 <_ZL10currentdir>
20002f9c:	87cfe0ef          	jal	ra,20001018 <strcpy>
20002fa0:	fb1ff06f          	j	20002f50 <_Z13ParseCommandsv+0x64>
20002fa4:	00005597          	auipc	a1,0x5
20002fa8:	09c58593          	addi	a1,a1,156 # 20008040 <__clz_tab+0x50c>
20002fac:	00040513          	mv	a0,s0
20002fb0:	eedfd0ef          	jal	ra,20000e9c <strcmp>
20002fb4:	04050663          	beqz	a0,20003000 <_Z13ParseCommandsv+0x114>
20002fb8:	00005597          	auipc	a1,0x5
20002fbc:	08c58593          	addi	a1,a1,140 # 20008044 <__clz_tab+0x510>
20002fc0:	00040513          	mv	a0,s0
20002fc4:	ed9fd0ef          	jal	ra,20000e9c <strcmp>
20002fc8:	06051063          	bnez	a0,20003028 <_Z13ParseCommandsv+0x13c>
20002fcc:	00005517          	auipc	a0,0x5
20002fd0:	09c50513          	addi	a0,a0,156 # 20008068 <__clz_tab+0x534>
20002fd4:	424000ef          	jal	ra,200033f8 <_Z9UARTWritePKc>
20002fd8:	00007517          	auipc	a0,0x7
20002fdc:	10850513          	addi	a0,a0,264 # 2000a0e0 <_ZL10currentdir>
20002fe0:	418000ef          	jal	ra,200033f8 <_Z9UARTWritePKc>
20002fe4:	00005517          	auipc	a0,0x5
20002fe8:	08450513          	addi	a0,a0,132 # 20008068 <__clz_tab+0x534>
20002fec:	40c000ef          	jal	ra,200033f8 <_Z9UARTWritePKc>
20002ff0:	00007517          	auipc	a0,0x7
20002ff4:	0f050513          	addi	a0,a0,240 # 2000a0e0 <_ZL10currentdir>
20002ff8:	a91ff0ef          	jal	ra,20002a88 <_Z9ListFilesPKc>
20002ffc:	f55ff06f          	j	20002f50 <_Z13ParseCommandsv+0x64>
20003000:	00007517          	auipc	a0,0x7
20003004:	0e050513          	addi	a0,a0,224 # 2000a0e0 <_ZL10currentdir>
20003008:	3f0000ef          	jal	ra,200033f8 <_Z9UARTWritePKc>
2000300c:	00005517          	auipc	a0,0x5
20003010:	05c50513          	addi	a0,a0,92 # 20008068 <__clz_tab+0x534>
20003014:	3e4000ef          	jal	ra,200033f8 <_Z9UARTWritePKc>
20003018:	f39ff06f          	j	20002f50 <_Z13ParseCommandsv+0x64>
2000301c:	00005597          	auipc	a1,0x5
20003020:	02058593          	addi	a1,a1,32 # 2000803c <__clz_tab+0x508>
20003024:	f71ff06f          	j	20002f94 <_Z13ParseCommandsv+0xa8>
20003028:	00005597          	auipc	a1,0x5
2000302c:	02058593          	addi	a1,a1,32 # 20008048 <__clz_tab+0x514>
20003030:	00040513          	mv	a0,s0
20003034:	e69fd0ef          	jal	ra,20000e9c <strcmp>
20003038:	0c050663          	beqz	a0,20003104 <_Z13ParseCommandsv+0x218>
2000303c:	f0040ae3          	beqz	s0,20002f50 <_Z13ParseCommandsv+0x64>
20003040:	00007597          	auipc	a1,0x7
20003044:	0a058593          	addi	a1,a1,160 # 2000a0e0 <_ZL10currentdir>
20003048:	c7018513          	addi	a0,gp,-912 # 2000aa50 <_ZL8filename>
2000304c:	fcdfd0ef          	jal	ra,20001018 <strcpy>
20003050:	00040593          	mv	a1,s0
20003054:	c7018513          	addi	a0,gp,-912 # 2000aa50 <_ZL8filename>
20003058:	c7dfd0ef          	jal	ra,20000cd4 <strcat>
2000305c:	00005597          	auipc	a1,0x5
20003060:	ea458593          	addi	a1,a1,-348 # 20007f00 <__clz_tab+0x3cc>
20003064:	c7018513          	addi	a0,gp,-912 # 2000aa50 <_ZL8filename>
20003068:	c6dfd0ef          	jal	ra,20000cd4 <strcat>
2000306c:	03c10413          	addi	s0,sp,60
20003070:	00100613          	li	a2,1
20003074:	c7018593          	addi	a1,gp,-912 # 2000aa50 <_ZL8filename>
20003078:	00040513          	mv	a0,s0
2000307c:	7e5020ef          	jal	ra,20006060 <f_open>
20003080:	08051663          	bnez	a0,2000310c <_Z13ParseCommandsv+0x220>
20003084:	00810493          	addi	s1,sp,8
20003088:	00010693          	mv	a3,sp
2000308c:	00048593          	mv	a1,s1
20003090:	03400613          	li	a2,52
20003094:	00040513          	mv	a0,s0
20003098:	100030ef          	jal	ra,20006198 <f_read>
2000309c:	00410613          	addi	a2,sp,4
200030a0:	00048593          	mv	a1,s1
200030a4:	00040513          	mv	a0,s0
200030a8:	b89ff0ef          	jal	ra,20002c30 <_Z29ParseELFHeaderAndLoadSectionsP3FILP16SElfFileHeader32Rm>
200030ac:	00040513          	mv	a0,s0
200030b0:	380030ef          	jal	ra,20006430 <f_close>
200030b4:	00100613          	li	a2,1
200030b8:	00005597          	auipc	a1,0x5
200030bc:	f8458593          	addi	a1,a1,-124 # 2000803c <__clz_tab+0x508>
200030c0:	00000513          	li	a0,0
200030c4:	701020ef          	jal	ra,20005fc4 <f_mount>
200030c8:	00005597          	auipc	a1,0x5
200030cc:	f7458593          	addi	a1,a1,-140 # 2000803c <__clz_tab+0x508>
200030d0:	00007517          	auipc	a0,0x7
200030d4:	01050513          	addi	a0,a0,16 # 2000a0e0 <_ZL10currentdir>
200030d8:	f41fd0ef          	jal	ra,20001018 <strcpy>
200030dc:	b39ff0ef          	jal	ra,20002c14 <_Z14FlushDataCachev>
200030e0:	00412403          	lw	s0,4(sp)
200030e4:	000400e7          	jalr	s0
200030e8:	00100613          	li	a2,1
200030ec:	00005597          	auipc	a1,0x5
200030f0:	f5058593          	addi	a1,a1,-176 # 2000803c <__clz_tab+0x508>
200030f4:	00007517          	auipc	a0,0x7
200030f8:	4d452503          	lw	a0,1236(a0) # 2000a5c8 <_GLOBAL_OFFSET_TABLE_+0x5c>
200030fc:	6c9020ef          	jal	ra,20005fc4 <f_mount>
20003100:	e51ff06f          	j	20002f50 <_Z13ParseCommandsv+0x64>
20003104:	b05ff0ef          	jal	ra,20002c08 <_Z3CLSv>
20003108:	e49ff06f          	j	20002f50 <_Z13ParseCommandsv+0x64>
2000310c:	00005517          	auipc	a0,0x5
20003110:	f4050513          	addi	a0,a0,-192 # 2000804c <__clz_tab+0x518>
20003114:	2e4000ef          	jal	ra,200033f8 <_Z9UARTWritePKc>
20003118:	c7018513          	addi	a0,gp,-912 # 2000aa50 <_ZL8filename>
2000311c:	2dc000ef          	jal	ra,200033f8 <_Z9UARTWritePKc>
20003120:	00005517          	auipc	a0,0x5
20003124:	f3c50513          	addi	a0,a0,-196 # 2000805c <__clz_tab+0x528>
20003128:	2d0000ef          	jal	ra,200033f8 <_Z9UARTWritePKc>
2000312c:	e25ff06f          	j	20002f50 <_Z13ParseCommandsv+0x64>

20003130 <_Z16ProcessKeyEventsv>:
20003130:	fe010113          	addi	sp,sp,-32
20003134:	00112e23          	sw	ra,28(sp)
20003138:	00812c23          	sw	s0,24(sp)
2000313c:	00912a23          	sw	s1,20(sp)
20003140:	01212823          	sw	s2,16(sp)
20003144:	00012623          	sw	zero,12(sp)
20003148:	08800793          	li	a5,136
2000314c:	304797f3          	csrrw	a5,mie,a5
20003150:	00007797          	auipc	a5,0x7
20003154:	46c7a783          	lw	a5,1132(a5) # 2000a5bc <_GLOBAL_OFFSET_TABLE_+0x50>
20003158:	0007a503          	lw	a0,0(a5)
2000315c:	00400613          	li	a2,4
20003160:	00c10593          	addi	a1,sp,12
20003164:	205000ef          	jal	ra,20003b68 <_Z14RingBufferReadPhPvm>
20003168:	000017b7          	lui	a5,0x1
2000316c:	88878793          	addi	a5,a5,-1912 # 888 <_start-0x1ffff778>
20003170:	304797f3          	csrrw	a5,mie,a5
20003174:	06050463          	beqz	a0,200031dc <_Z16ProcessKeyEventsv+0xac>
20003178:	00c12503          	lw	a0,12(sp)
2000317c:	05800693          	li	a3,88
20003180:	0ff57793          	zext.b	a5,a0
20003184:	10057713          	andi	a4,a0,256
20003188:	06d78a63          	beq	a5,a3,200031fc <_Z16ProcessKeyEventsv+0xcc>
2000318c:	02070c63          	beqz	a4,200031c4 <_Z16ProcessKeyEventsv+0x94>
20003190:	01200713          	li	a4,18
20003194:	00e78663          	beq	a5,a4,200031a0 <_Z16ProcessKeyEventsv+0x70>
20003198:	05900713          	li	a4,89
2000319c:	04e79063          	bne	a5,a4,200031dc <_Z16ProcessKeyEventsv+0xac>
200031a0:	00000413          	li	s0,0
200031a4:	01c12083          	lw	ra,28(sp)
200031a8:	00040513          	mv	a0,s0
200031ac:	01812403          	lw	s0,24(sp)
200031b0:	ce01a823          	sw	zero,-784(gp) # 2000aad0 <_ZZ16ProcessKeyEventsvE9uppercase>
200031b4:	01412483          	lw	s1,20(sp)
200031b8:	01012903          	lw	s2,16(sp)
200031bc:	02010113          	addi	sp,sp,32
200031c0:	00008067          	ret
200031c4:	01200713          	li	a4,18
200031c8:	00e78663          	beq	a5,a4,200031d4 <_Z16ProcessKeyEventsv+0xa4>
200031cc:	05900713          	li	a4,89
200031d0:	0ae79e63          	bne	a5,a4,2000328c <_Z16ProcessKeyEventsv+0x15c>
200031d4:	00100793          	li	a5,1
200031d8:	cef1a823          	sw	a5,-784(gp) # 2000aad0 <_ZZ16ProcessKeyEventsvE9uppercase>
200031dc:	00000413          	li	s0,0
200031e0:	01c12083          	lw	ra,28(sp)
200031e4:	00040513          	mv	a0,s0
200031e8:	01812403          	lw	s0,24(sp)
200031ec:	01412483          	lw	s1,20(sp)
200031f0:	01012903          	lw	s2,16(sp)
200031f4:	02010113          	addi	sp,sp,32
200031f8:	00008067          	ret
200031fc:	cf018493          	addi	s1,gp,-784 # 2000aad0 <_ZZ16ProcessKeyEventsvE9uppercase>
20003200:	0004a583          	lw	a1,0(s1)
20003204:	0015b593          	seqz	a1,a1
20003208:	00b4a023          	sw	a1,0(s1)
2000320c:	fc0718e3          	bnez	a4,200031dc <_Z16ProcessKeyEventsv+0xac>
20003210:	c6c18913          	addi	s2,gp,-916 # 2000aa4c <_ZL6cmdlen>
20003214:	00092403          	lw	s0,0(s2)
20003218:	00140793          	addi	a5,s0,1
2000321c:	0ff5f593          	zext.b	a1,a1
20003220:	0ff57513          	zext.b	a0,a0
20003224:	00f92023          	sw	a5,0(s2)
20003228:	331000ef          	jal	ra,20003d58 <_Z11ScanToASCIIhh>
2000322c:	a6c18793          	addi	a5,gp,-1428 # 2000a84c <_ZL11commandline>
20003230:	00092703          	lw	a4,0(s2)
20003234:	00878433          	add	s0,a5,s0
20003238:	00a40023          	sb	a0,0(s0)
2000323c:	1fe00693          	li	a3,510
20003240:	04e6c063          	blt	a3,a4,20003280 <_Z16ProcessKeyEventsv+0x150>
20003244:	00e787b3          	add	a5,a5,a4
20003248:	00c12503          	lw	a0,12(sp)
2000324c:	00000413          	li	s0,0
20003250:	00078023          	sb	zero,0(a5)
20003254:	0004c583          	lbu	a1,0(s1)
20003258:	0ff57513          	zext.b	a0,a0
2000325c:	2fd000ef          	jal	ra,20003d58 <_Z11ScanToASCIIhh>
20003260:	184000ef          	jal	ra,200033e4 <_Z11UARTPutCharc>
20003264:	01c12083          	lw	ra,28(sp)
20003268:	00040513          	mv	a0,s0
2000326c:	01812403          	lw	s0,24(sp)
20003270:	01412483          	lw	s1,20(sp)
20003274:	01012903          	lw	s2,16(sp)
20003278:	02010113          	addi	sp,sp,32
2000327c:	00008067          	ret
20003280:	1ff00713          	li	a4,511
20003284:	00e92023          	sw	a4,0(s2)
20003288:	fbdff06f          	j	20003244 <_Z16ProcessKeyEventsv+0x114>
2000328c:	05a00713          	li	a4,90
20003290:	00100413          	li	s0,1
20003294:	cf018493          	addi	s1,gp,-784 # 2000aad0 <_ZZ16ProcessKeyEventsvE9uppercase>
20003298:	fae78ee3          	beq	a5,a4,20003254 <_Z16ProcessKeyEventsv+0x124>
2000329c:	c6c18913          	addi	s2,gp,-916 # 2000aa4c <_ZL6cmdlen>
200032a0:	06600713          	li	a4,102
200032a4:	0004a583          	lw	a1,0(s1)
200032a8:	00092403          	lw	s0,0(s2)
200032ac:	f6e796e3          	bne	a5,a4,20003218 <_Z16ProcessKeyEventsv+0xe8>
200032b0:	fff40413          	addi	s0,s0,-1
200032b4:	00044e63          	bltz	s0,200032d0 <_Z16ProcessKeyEventsv+0x1a0>
200032b8:	00892023          	sw	s0,0(s2)
200032bc:	a6c18793          	addi	a5,gp,-1428 # 2000a84c <_ZL11commandline>
200032c0:	008787b3          	add	a5,a5,s0
200032c4:	00078023          	sb	zero,0(a5)
200032c8:	00000413          	li	s0,0
200032cc:	f89ff06f          	j	20003254 <_Z16ProcessKeyEventsv+0x124>
200032d0:	c601a623          	sw	zero,-916(gp) # 2000aa4c <_ZL6cmdlen>
200032d4:	00000413          	li	s0,0
200032d8:	fe5ff06f          	j	200032bc <_Z16ProcessKeyEventsv+0x18c>

200032dc <_Z10workermainv>:
200032dc:	ff010113          	addi	sp,sp,-16
200032e0:	00112623          	sw	ra,12(sp)
200032e4:	f5cff0ef          	jal	ra,20002a40 <_Z16InstallWorkerISRv>
200032e8:	10500073          	wfi
200032ec:	ffdff06f          	j	200032e8 <_Z10workermainv+0xc>

200032f0 <main>:
200032f0:	ff010113          	addi	sp,sp,-16
200032f4:	00112623          	sw	ra,12(sp)
200032f8:	ef8ff0ef          	jal	ra,200029f0 <_Z10InstallISRv>
200032fc:	90dff0ef          	jal	ra,20002c08 <_Z3CLSv>
20003300:	00005517          	auipc	a0,0x5
20003304:	d6c50513          	addi	a0,a0,-660 # 2000806c <__clz_tab+0x538>
20003308:	0f0000ef          	jal	ra,200033f8 <_Z9UARTWritePKc>
2000330c:	00005517          	auipc	a0,0x5
20003310:	dd450513          	addi	a0,a0,-556 # 200080e0 <__clz_tab+0x5ac>
20003314:	0e4000ef          	jal	ra,200033f8 <_Z9UARTWritePKc>
20003318:	00005517          	auipc	a0,0x5
2000331c:	df450513          	addi	a0,a0,-524 # 2000810c <__clz_tab+0x5d8>
20003320:	0d8000ef          	jal	ra,200033f8 <_Z9UARTWritePKc>
20003324:	00100613          	li	a2,1
20003328:	00005597          	auipc	a1,0x5
2000332c:	d1458593          	addi	a1,a1,-748 # 2000803c <__clz_tab+0x508>
20003330:	00007517          	auipc	a0,0x7
20003334:	29852503          	lw	a0,664(a0) # 2000a5c8 <_GLOBAL_OFFSET_TABLE_+0x5c>
20003338:	48d020ef          	jal	ra,20005fc4 <f_mount>
2000333c:	00051c63          	bnez	a0,20003354 <main+0x64>
20003340:	10500073          	wfi
20003344:	dedff0ef          	jal	ra,20003130 <_Z16ProcessKeyEventsv>
20003348:	fe050ce3          	beqz	a0,20003340 <main+0x50>
2000334c:	ba1ff0ef          	jal	ra,20002eec <_Z13ParseCommandsv>
20003350:	ff1ff06f          	j	20003340 <main+0x50>
20003354:	00251513          	slli	a0,a0,0x2
20003358:	00007797          	auipc	a5,0x7
2000335c:	26c7a783          	lw	a5,620(a5) # 2000a5c4 <_GLOBAL_OFFSET_TABLE_+0x58>
20003360:	00a787b3          	add	a5,a5,a0
20003364:	0007a503          	lw	a0,0(a5)
20003368:	090000ef          	jal	ra,200033f8 <_Z9UARTWritePKc>
2000336c:	fd5ff06f          	j	20003340 <main+0x50>

20003370 <_Z11UARTHasDatav>:
20003370:	00007797          	auipc	a5,0x7
20003374:	2447a783          	lw	a5,580(a5) # 2000a5b4 <_GLOBAL_OFFSET_TABLE_+0x48>
20003378:	0007a783          	lw	a5,0(a5)
2000337c:	0007a503          	lw	a0,0(a5)
20003380:	00157513          	andi	a0,a0,1
20003384:	00008067          	ret

20003388 <_Z9UARTFlushv>:
20003388:	ff010113          	addi	sp,sp,-16
2000338c:	00112623          	sw	ra,12(sp)
20003390:	0080006f          	j	20003398 <_Z9UARTFlushv+0x10>
20003394:	00000013          	nop
20003398:	fd9ff0ef          	jal	ra,20003370 <_Z11UARTHasDatav>
2000339c:	fe051ce3          	bnez	a0,20003394 <_Z9UARTFlushv+0xc>
200033a0:	00c12083          	lw	ra,12(sp)
200033a4:	01010113          	addi	sp,sp,16
200033a8:	00008067          	ret

200033ac <_Z8UARTReadv>:
200033ac:	ff010113          	addi	sp,sp,-16
200033b0:	00112623          	sw	ra,12(sp)
200033b4:	fbdff0ef          	jal	ra,20003370 <_Z11UARTHasDatav>
200033b8:	00000793          	li	a5,0
200033bc:	00050c63          	beqz	a0,200033d4 <_Z8UARTReadv+0x28>
200033c0:	00007797          	auipc	a5,0x7
200033c4:	1e87a783          	lw	a5,488(a5) # 2000a5a8 <_GLOBAL_OFFSET_TABLE_+0x3c>
200033c8:	0007a783          	lw	a5,0(a5)
200033cc:	0007a783          	lw	a5,0(a5)
200033d0:	0ff7f793          	zext.b	a5,a5
200033d4:	00c12083          	lw	ra,12(sp)
200033d8:	00078513          	mv	a0,a5
200033dc:	01010113          	addi	sp,sp,16
200033e0:	00008067          	ret

200033e4 <_Z11UARTPutCharc>:
200033e4:	00007797          	auipc	a5,0x7
200033e8:	1c47a783          	lw	a5,452(a5) # 2000a5a8 <_GLOBAL_OFFSET_TABLE_+0x3c>
200033ec:	0007a783          	lw	a5,0(a5)
200033f0:	00a7a023          	sw	a0,0(a5)
200033f4:	00008067          	ret

200033f8 <_Z9UARTWritePKc>:
200033f8:	ff010113          	addi	sp,sp,-16
200033fc:	00912223          	sw	s1,4(sp)
20003400:	00112623          	sw	ra,12(sp)
20003404:	00812423          	sw	s0,8(sp)
20003408:	01212023          	sw	s2,0(sp)
2000340c:	00050493          	mv	s1,a0
20003410:	00054503          	lbu	a0,0(a0)
20003414:	02050a63          	beqz	a0,20003448 <_Z9UARTWritePKc+0x50>
20003418:	fcdff0ef          	jal	ra,200033e4 <_Z11UARTPutCharc>
2000341c:	0014c503          	lbu	a0,1(s1)
20003420:	00200413          	li	s0,2
20003424:	30000913          	li	s2,768
20003428:	02050063          	beqz	a0,20003448 <_Z9UARTWritePKc+0x50>
2000342c:	00140413          	addi	s0,s0,1
20003430:	fb5ff0ef          	jal	ra,200033e4 <_Z11UARTPutCharc>
20003434:	032467b3          	rem	a5,s0,s2
20003438:	00848733          	add	a4,s1,s0
2000343c:	02078263          	beqz	a5,20003460 <_Z9UARTWritePKc+0x68>
20003440:	fff74503          	lbu	a0,-1(a4)
20003444:	fe0514e3          	bnez	a0,2000342c <_Z9UARTWritePKc+0x34>
20003448:	00c12083          	lw	ra,12(sp)
2000344c:	00812403          	lw	s0,8(sp)
20003450:	00412483          	lw	s1,4(sp)
20003454:	00012903          	lw	s2,0(sp)
20003458:	01010113          	addi	sp,sp,16
2000345c:	00008067          	ret
20003460:	f29ff0ef          	jal	ra,20003388 <_Z9UARTFlushv>
20003464:	008487b3          	add	a5,s1,s0
20003468:	fff7c503          	lbu	a0,-1(a5)
2000346c:	fc0510e3          	bnez	a0,2000342c <_Z9UARTWritePKc+0x34>
20003470:	00c12083          	lw	ra,12(sp)
20003474:	00812403          	lw	s0,8(sp)
20003478:	00412483          	lw	s1,4(sp)
2000347c:	00012903          	lw	s2,0(sp)
20003480:	01010113          	addi	sp,sp,16
20003484:	00008067          	ret

20003488 <_Z16UARTWriteHexByteh>:
20003488:	00005797          	auipc	a5,0x5
2000348c:	00878793          	addi	a5,a5,8 # 20008490 <__clz_tab+0x95c>
20003490:	0087a603          	lw	a2,8(a5)
20003494:	00c7a683          	lw	a3,12(a5)
20003498:	0007a803          	lw	a6,0(a5)
2000349c:	0047a583          	lw	a1,4(a5)
200034a0:	00f57713          	andi	a4,a0,15
200034a4:	fd010113          	addi	sp,sp,-48
200034a8:	02070713          	addi	a4,a4,32
200034ac:	02112623          	sw	ra,44(sp)
200034b0:	00c12a23          	sw	a2,20(sp)
200034b4:	01012623          	sw	a6,12(sp)
200034b8:	00b12823          	sw	a1,16(sp)
200034bc:	00d12c23          	sw	a3,24(sp)
200034c0:	00270733          	add	a4,a4,sp
200034c4:	00455513          	srli	a0,a0,0x4
200034c8:	fec74683          	lbu	a3,-20(a4)
200034cc:	02050713          	addi	a4,a0,32
200034d0:	00270533          	add	a0,a4,sp
200034d4:	fec54703          	lbu	a4,-20(a0)
200034d8:	0107c603          	lbu	a2,16(a5)
200034dc:	00869793          	slli	a5,a3,0x8
200034e0:	00f767b3          	or	a5,a4,a5
200034e4:	00810513          	addi	a0,sp,8
200034e8:	00c10e23          	sb	a2,28(sp)
200034ec:	00010523          	sb	zero,10(sp)
200034f0:	00f11423          	sh	a5,8(sp)
200034f4:	f05ff0ef          	jal	ra,200033f8 <_Z9UARTWritePKc>
200034f8:	02c12083          	lw	ra,44(sp)
200034fc:	03010113          	addi	sp,sp,48
20003500:	00008067          	ret

20003504 <_Z12UARTWriteHexm>:
20003504:	00005697          	auipc	a3,0x5
20003508:	f8c68693          	addi	a3,a3,-116 # 20008490 <__clz_tab+0x95c>
2000350c:	0086a803          	lw	a6,8(a3)
20003510:	00c6a583          	lw	a1,12(a3)
20003514:	0006ae03          	lw	t3,0(a3)
20003518:	0046a303          	lw	t1,4(a3)
2000351c:	01855613          	srli	a2,a0,0x18
20003520:	fd010113          	addi	sp,sp,-48
20003524:	01c55893          	srli	a7,a0,0x1c
20003528:	00f67613          	andi	a2,a2,15
2000352c:	01012a23          	sw	a6,20(sp)
20003530:	00b12c23          	sw	a1,24(sp)
20003534:	00c55793          	srli	a5,a0,0xc
20003538:	00855713          	srli	a4,a0,0x8
2000353c:	00455813          	srli	a6,a0,0x4
20003540:	02088593          	addi	a1,a7,32
20003544:	02060613          	addi	a2,a2,32
20003548:	02112623          	sw	ra,44(sp)
2000354c:	01c12623          	sw	t3,12(sp)
20003550:	00612823          	sw	t1,16(sp)
20003554:	002588b3          	add	a7,a1,sp
20003558:	00260633          	add	a2,a2,sp
2000355c:	01455593          	srli	a1,a0,0x14
20003560:	00f87813          	andi	a6,a6,15
20003564:	00f7f793          	andi	a5,a5,15
20003568:	00f77713          	andi	a4,a4,15
2000356c:	fec64e83          	lbu	t4,-20(a2)
20003570:	00f5f593          	andi	a1,a1,15
20003574:	02080613          	addi	a2,a6,32
20003578:	02078793          	addi	a5,a5,32
2000357c:	02070713          	addi	a4,a4,32
20003580:	00260833          	add	a6,a2,sp
20003584:	00270733          	add	a4,a4,sp
20003588:	002787b3          	add	a5,a5,sp
2000358c:	02058613          	addi	a2,a1,32
20003590:	002605b3          	add	a1,a2,sp
20003594:	fec74f03          	lbu	t5,-20(a4)
20003598:	fec7c783          	lbu	a5,-20(a5)
2000359c:	fec8c703          	lbu	a4,-20(a7)
200035a0:	01055613          	srli	a2,a0,0x10
200035a4:	ffff08b7          	lui	a7,0xffff0
200035a8:	00f57513          	andi	a0,a0,15
200035ac:	00f67613          	andi	a2,a2,15
200035b0:	fec5c303          	lbu	t1,-20(a1)
200035b4:	fec84e03          	lbu	t3,-20(a6)
200035b8:	0ff88893          	addi	a7,a7,255 # ffff00ff <_end+0xdffe5017>
200035bc:	02050593          	addi	a1,a0,32
200035c0:	02060613          	addi	a2,a2,32
200035c4:	00258533          	add	a0,a1,sp
200035c8:	00260633          	add	a2,a2,sp
200035cc:	008f1f13          	slli	t5,t5,0x8
200035d0:	0117f7b3          	and	a5,a5,a7
200035d4:	008e9e93          	slli	t4,t4,0x8
200035d8:	01177733          	and	a4,a4,a7
200035dc:	ff0105b7          	lui	a1,0xff010
200035e0:	fec54803          	lbu	a6,-20(a0)
200035e4:	fff58593          	addi	a1,a1,-1 # ff00ffff <_end+0xdf004f17>
200035e8:	fec64503          	lbu	a0,-20(a2)
200035ec:	01e7e7b3          	or	a5,a5,t5
200035f0:	01d76733          	or	a4,a4,t4
200035f4:	01031893          	slli	a7,t1,0x10
200035f8:	010e1e13          	slli	t3,t3,0x10
200035fc:	00b7f7b3          	and	a5,a5,a1
20003600:	00b77733          	and	a4,a4,a1
20003604:	01000637          	lui	a2,0x1000
20003608:	0106c303          	lbu	t1,16(a3)
2000360c:	fff60613          	addi	a2,a2,-1 # ffffff <_start-0x1f000001>
20003610:	01c7e7b3          	or	a5,a5,t3
20003614:	01176733          	or	a4,a4,a7
20003618:	01851693          	slli	a3,a0,0x18
2000361c:	01881593          	slli	a1,a6,0x18
20003620:	00c7f7b3          	and	a5,a5,a2
20003624:	00c77733          	and	a4,a4,a2
20003628:	00b7e7b3          	or	a5,a5,a1
2000362c:	00d76733          	or	a4,a4,a3
20003630:	00010513          	mv	a0,sp
20003634:	00610e23          	sb	t1,28(sp)
20003638:	00010423          	sb	zero,8(sp)
2000363c:	00e12023          	sw	a4,0(sp)
20003640:	00f12223          	sw	a5,4(sp)
20003644:	db5ff0ef          	jal	ra,200033f8 <_Z9UARTWritePKc>
20003648:	02c12083          	lw	ra,44(sp)
2000364c:	03010113          	addi	sp,sp,48
20003650:	00008067          	ret

20003654 <_Z16UARTWriteDecimall>:
20003654:	00005797          	auipc	a5,0x5
20003658:	e5078793          	addi	a5,a5,-432 # 200084a4 <__clz_tab+0x970>
2000365c:	00005717          	auipc	a4,0x5
20003660:	e5c70713          	addi	a4,a4,-420 # 200084b8 <__clz_tab+0x984>
20003664:	00072e03          	lw	t3,0(a4)
20003668:	00472303          	lw	t1,4(a4)
2000366c:	00875883          	lhu	a7,8(a4)
20003670:	00a74803          	lbu	a6,10(a4)
20003674:	0007a583          	lw	a1,0(a5)
20003678:	00c7a703          	lw	a4,12(a5)
2000367c:	0047a603          	lw	a2,4(a5)
20003680:	0087a683          	lw	a3,8(a5)
20003684:	0107a783          	lw	a5,16(a5)
20003688:	fd010113          	addi	sp,sp,-48
2000368c:	00e12c23          	sw	a4,24(sp)
20003690:	00f12e23          	sw	a5,28(sp)
20003694:	02112623          	sw	ra,44(sp)
20003698:	01c12023          	sw	t3,0(sp)
2000369c:	00612223          	sw	t1,4(sp)
200036a0:	01111423          	sh	a7,8(sp)
200036a4:	01010523          	sb	a6,10(sp)
200036a8:	00b12623          	sw	a1,12(sp)
200036ac:	00c12823          	sw	a2,16(sp)
200036b0:	00d12a23          	sw	a3,20(sp)
200036b4:	02d00713          	li	a4,45
200036b8:	00100793          	li	a5,1
200036bc:	00054663          	bltz	a0,200036c8 <_Z16UARTWriteDecimall+0x74>
200036c0:	02000713          	li	a4,32
200036c4:	00000793          	li	a5,0
200036c8:	3b9ad6b7          	lui	a3,0x3b9ad
200036cc:	a0068693          	addi	a3,a3,-1536 # 3b9aca00 <_end+0x1b9a1918>
200036d0:	02d546b3          	div	a3,a0,a3
200036d4:	80000637          	lui	a2,0x80000
200036d8:	fff64613          	not	a2,a2
200036dc:	00e10623          	sb	a4,12(sp)
200036e0:	05f5e737          	lui	a4,0x5f5e
200036e4:	10070713          	addi	a4,a4,256 # 5f5e100 <_start-0x1a0a1f00>
200036e8:	00c6f6b3          	and	a3,a3,a2
200036ec:	02e54733          	div	a4,a0,a4
200036f0:	0e069663          	bnez	a3,200037dc <_Z16UARTWriteDecimall+0x188>
200036f4:	00a00593          	li	a1,10
200036f8:	02b76733          	rem	a4,a4,a1
200036fc:	00c77733          	and	a4,a4,a2
20003700:	10071263          	bnez	a4,20003804 <_Z16UARTWriteDecimall+0x1b0>
20003704:	009896b7          	lui	a3,0x989
20003708:	68068693          	addi	a3,a3,1664 # 989680 <_start-0x1f676980>
2000370c:	02d546b3          	div	a3,a0,a3
20003710:	02b6e6b3          	rem	a3,a3,a1
20003714:	00c6f6b3          	and	a3,a3,a2
20003718:	12069263          	bnez	a3,2000383c <_Z16UARTWriteDecimall+0x1e8>
2000371c:	000f4737          	lui	a4,0xf4
20003720:	24070713          	addi	a4,a4,576 # f4240 <_start-0x1ff0bdc0>
20003724:	02e54733          	div	a4,a0,a4
20003728:	02b76733          	rem	a4,a4,a1
2000372c:	00c77733          	and	a4,a4,a2
20003730:	14071263          	bnez	a4,20003874 <_Z16UARTWriteDecimall+0x220>
20003734:	000186b7          	lui	a3,0x18
20003738:	6a068693          	addi	a3,a3,1696 # 186a0 <_start-0x1ffe7960>
2000373c:	02d546b3          	div	a3,a0,a3
20003740:	02b6e6b3          	rem	a3,a3,a1
20003744:	00c6f6b3          	and	a3,a3,a2
20003748:	16069263          	bnez	a3,200038ac <_Z16UARTWriteDecimall+0x258>
2000374c:	00002737          	lui	a4,0x2
20003750:	71070713          	addi	a4,a4,1808 # 2710 <_start-0x1fffd8f0>
20003754:	02e54733          	div	a4,a0,a4
20003758:	02b76733          	rem	a4,a4,a1
2000375c:	00c77733          	and	a4,a4,a2
20003760:	18071263          	bnez	a4,200038e4 <_Z16UARTWriteDecimall+0x290>
20003764:	3e800693          	li	a3,1000
20003768:	02d546b3          	div	a3,a0,a3
2000376c:	02b6e6b3          	rem	a3,a3,a1
20003770:	00c6f6b3          	and	a3,a3,a2
20003774:	1a069263          	bnez	a3,20003918 <_Z16UARTWriteDecimall+0x2c4>
20003778:	06400713          	li	a4,100
2000377c:	02e54733          	div	a4,a0,a4
20003780:	02b76733          	rem	a4,a4,a1
20003784:	00c77733          	and	a4,a4,a2
20003788:	1c071263          	bnez	a4,2000394c <_Z16UARTWriteDecimall+0x2f8>
2000378c:	02b54733          	div	a4,a0,a1
20003790:	02b76733          	rem	a4,a4,a1
20003794:	00c77733          	and	a4,a4,a2
20003798:	1e071263          	bnez	a4,2000397c <_Z16UARTWriteDecimall+0x328>
2000379c:	00a00713          	li	a4,10
200037a0:	02e56733          	rem	a4,a0,a4
200037a4:	02078793          	addi	a5,a5,32
200037a8:	002787b3          	add	a5,a5,sp
200037ac:	00c10513          	addi	a0,sp,12
200037b0:	fe0786a3          	sb	zero,-19(a5)
200037b4:	00171713          	slli	a4,a4,0x1
200037b8:	00175713          	srli	a4,a4,0x1
200037bc:	02070713          	addi	a4,a4,32
200037c0:	00270733          	add	a4,a4,sp
200037c4:	fe074703          	lbu	a4,-32(a4)
200037c8:	fee78623          	sb	a4,-20(a5)
200037cc:	c2dff0ef          	jal	ra,200033f8 <_Z9UARTWritePKc>
200037d0:	02c12083          	lw	ra,44(sp)
200037d4:	03010113          	addi	sp,sp,48
200037d8:	00008067          	ret
200037dc:	02068693          	addi	a3,a3,32
200037e0:	002686b3          	add	a3,a3,sp
200037e4:	fe06c583          	lbu	a1,-32(a3)
200037e8:	02078693          	addi	a3,a5,32
200037ec:	002686b3          	add	a3,a3,sp
200037f0:	feb68623          	sb	a1,-20(a3)
200037f4:	00a00693          	li	a3,10
200037f8:	02d76733          	rem	a4,a4,a3
200037fc:	00178793          	addi	a5,a5,1
20003800:	00c77733          	and	a4,a4,a2
20003804:	009896b7          	lui	a3,0x989
20003808:	68068693          	addi	a3,a3,1664 # 989680 <_start-0x1f676980>
2000380c:	02d546b3          	div	a3,a0,a3
20003810:	02070713          	addi	a4,a4,32
20003814:	00270733          	add	a4,a4,sp
20003818:	fe074603          	lbu	a2,-32(a4)
2000381c:	02078713          	addi	a4,a5,32
20003820:	00270733          	add	a4,a4,sp
20003824:	fec70623          	sb	a2,-20(a4)
20003828:	00a00713          	li	a4,10
2000382c:	00178793          	addi	a5,a5,1
20003830:	02e6e6b3          	rem	a3,a3,a4
20003834:	00169693          	slli	a3,a3,0x1
20003838:	0016d693          	srli	a3,a3,0x1
2000383c:	000f4737          	lui	a4,0xf4
20003840:	24070713          	addi	a4,a4,576 # f4240 <_start-0x1ff0bdc0>
20003844:	02e54733          	div	a4,a0,a4
20003848:	02068693          	addi	a3,a3,32
2000384c:	002686b3          	add	a3,a3,sp
20003850:	fe06c603          	lbu	a2,-32(a3)
20003854:	02078693          	addi	a3,a5,32
20003858:	002686b3          	add	a3,a3,sp
2000385c:	fec68623          	sb	a2,-20(a3)
20003860:	00a00693          	li	a3,10
20003864:	00178793          	addi	a5,a5,1
20003868:	02d76733          	rem	a4,a4,a3
2000386c:	00171713          	slli	a4,a4,0x1
20003870:	00175713          	srli	a4,a4,0x1
20003874:	000186b7          	lui	a3,0x18
20003878:	6a068693          	addi	a3,a3,1696 # 186a0 <_start-0x1ffe7960>
2000387c:	02d546b3          	div	a3,a0,a3
20003880:	02070713          	addi	a4,a4,32
20003884:	00270733          	add	a4,a4,sp
20003888:	fe074603          	lbu	a2,-32(a4)
2000388c:	02078713          	addi	a4,a5,32
20003890:	00270733          	add	a4,a4,sp
20003894:	fec70623          	sb	a2,-20(a4)
20003898:	00a00713          	li	a4,10
2000389c:	00178793          	addi	a5,a5,1
200038a0:	02e6e6b3          	rem	a3,a3,a4
200038a4:	00169693          	slli	a3,a3,0x1
200038a8:	0016d693          	srli	a3,a3,0x1
200038ac:	00002737          	lui	a4,0x2
200038b0:	71070713          	addi	a4,a4,1808 # 2710 <_start-0x1fffd8f0>
200038b4:	02e54733          	div	a4,a0,a4
200038b8:	02068693          	addi	a3,a3,32
200038bc:	002686b3          	add	a3,a3,sp
200038c0:	fe06c603          	lbu	a2,-32(a3)
200038c4:	02078693          	addi	a3,a5,32
200038c8:	002686b3          	add	a3,a3,sp
200038cc:	fec68623          	sb	a2,-20(a3)
200038d0:	00a00693          	li	a3,10
200038d4:	00178793          	addi	a5,a5,1
200038d8:	02d76733          	rem	a4,a4,a3
200038dc:	00171713          	slli	a4,a4,0x1
200038e0:	00175713          	srli	a4,a4,0x1
200038e4:	3e800693          	li	a3,1000
200038e8:	02d546b3          	div	a3,a0,a3
200038ec:	02070713          	addi	a4,a4,32
200038f0:	00270733          	add	a4,a4,sp
200038f4:	fe074603          	lbu	a2,-32(a4)
200038f8:	02078713          	addi	a4,a5,32
200038fc:	00270733          	add	a4,a4,sp
20003900:	fec70623          	sb	a2,-20(a4)
20003904:	00a00713          	li	a4,10
20003908:	00178793          	addi	a5,a5,1
2000390c:	02e6e6b3          	rem	a3,a3,a4
20003910:	00169693          	slli	a3,a3,0x1
20003914:	0016d693          	srli	a3,a3,0x1
20003918:	06400713          	li	a4,100
2000391c:	02e54733          	div	a4,a0,a4
20003920:	02068693          	addi	a3,a3,32
20003924:	002686b3          	add	a3,a3,sp
20003928:	fe06c603          	lbu	a2,-32(a3)
2000392c:	02078693          	addi	a3,a5,32
20003930:	002686b3          	add	a3,a3,sp
20003934:	fec68623          	sb	a2,-20(a3)
20003938:	00a00693          	li	a3,10
2000393c:	00178793          	addi	a5,a5,1
20003940:	02d76733          	rem	a4,a4,a3
20003944:	00171713          	slli	a4,a4,0x1
20003948:	00175713          	srli	a4,a4,0x1
2000394c:	00a00613          	li	a2,10
20003950:	02c546b3          	div	a3,a0,a2
20003954:	02070713          	addi	a4,a4,32
20003958:	00270733          	add	a4,a4,sp
2000395c:	fe074583          	lbu	a1,-32(a4)
20003960:	02078713          	addi	a4,a5,32
20003964:	00270733          	add	a4,a4,sp
20003968:	feb70623          	sb	a1,-20(a4)
2000396c:	00178793          	addi	a5,a5,1
20003970:	02c6e733          	rem	a4,a3,a2
20003974:	00171713          	slli	a4,a4,0x1
20003978:	00175713          	srli	a4,a4,0x1
2000397c:	02070713          	addi	a4,a4,32
20003980:	00270733          	add	a4,a4,sp
20003984:	fe074683          	lbu	a3,-32(a4)
20003988:	02078713          	addi	a4,a5,32
2000398c:	00270733          	add	a4,a4,sp
20003990:	00178793          	addi	a5,a5,1
20003994:	fed70623          	sb	a3,-20(a4)
20003998:	e05ff06f          	j	2000379c <_Z16UARTWriteDecimall+0x148>

2000399c <_Z11E32ReadTimev>:
2000399c:	c81025f3          	rdtimeh	a1
200039a0:	c0102573          	rdtime	a0
200039a4:	c81027f3          	rdtimeh	a5
200039a8:	fef59ae3          	bne	a1,a5,2000399c <_Z11E32ReadTimev>
200039ac:	00008067          	ret

200039b0 <_Z9ClockToMsy>:
200039b0:	00002637          	lui	a2,0x2
200039b4:	ff010113          	addi	sp,sp,-16
200039b8:	71060613          	addi	a2,a2,1808 # 2710 <_start-0x1fffd8f0>
200039bc:	00000693          	li	a3,0
200039c0:	00112623          	sw	ra,12(sp)
200039c4:	c14fe0ef          	jal	ra,20001dd8 <__udivdi3>
200039c8:	00c12083          	lw	ra,12(sp)
200039cc:	01010113          	addi	sp,sp,16
200039d0:	00008067          	ret

200039d4 <_Z17E32SetTimeComparey>:
200039d4:	00058713          	mv	a4,a1
200039d8:	00000793          	li	a5,0
200039dc:	80171773          	csrrw	a4,0x801,a4
200039e0:	80051573          	csrrw	a0,0x800,a0
200039e4:	00008067          	ret

200039e8 <_chdir>:
200039e8:	ff010113          	addi	sp,sp,-16
200039ec:	00112623          	sw	ra,12(sp)
200039f0:	f24fc0ef          	jal	ra,20000114 <__errno>
200039f4:	00c12083          	lw	ra,12(sp)
200039f8:	05800793          	li	a5,88
200039fc:	00f52023          	sw	a5,0(a0)
20003a00:	fff00513          	li	a0,-1
20003a04:	01010113          	addi	sp,sp,16
20003a08:	00008067          	ret

20003a0c <_getcwd>:
20003a0c:	ff010113          	addi	sp,sp,-16
20003a10:	00112623          	sw	ra,12(sp)
20003a14:	f00fc0ef          	jal	ra,20000114 <__errno>
20003a18:	00c12083          	lw	ra,12(sp)
20003a1c:	fa800793          	li	a5,-88
20003a20:	00f52023          	sw	a5,0(a0)
20003a24:	00000513          	li	a0,0
20003a28:	01010113          	addi	sp,sp,16
20003a2c:	00008067          	ret

20003a30 <_lstat>:
20003a30:	ff010113          	addi	sp,sp,-16
20003a34:	00112623          	sw	ra,12(sp)
20003a38:	edcfc0ef          	jal	ra,20000114 <__errno>
20003a3c:	00c12083          	lw	ra,12(sp)
20003a40:	05800793          	li	a5,88
20003a44:	00f52023          	sw	a5,0(a0)
20003a48:	fff00513          	li	a0,-1
20003a4c:	01010113          	addi	sp,sp,16
20003a50:	00008067          	ret

20003a54 <_openat>:
20003a54:	ff010113          	addi	sp,sp,-16
20003a58:	00112623          	sw	ra,12(sp)
20003a5c:	eb8fc0ef          	jal	ra,20000114 <__errno>
20003a60:	00c12083          	lw	ra,12(sp)
20003a64:	05800793          	li	a5,88
20003a68:	00f52023          	sw	a5,0(a0)
20003a6c:	fff00513          	li	a0,-1
20003a70:	01010113          	addi	sp,sp,16
20003a74:	00008067          	ret

20003a78 <_write>:
20003a78:	00100793          	li	a5,1
20003a7c:	00f50663          	beq	a0,a5,20003a88 <_write+0x10>
20003a80:	00000513          	li	a0,0
20003a84:	00008067          	ret
20003a88:	fe010113          	addi	sp,sp,-32
20003a8c:	00812c23          	sw	s0,24(sp)
20003a90:	01212823          	sw	s2,16(sp)
20003a94:	01312623          	sw	s3,12(sp)
20003a98:	00112e23          	sw	ra,28(sp)
20003a9c:	00912a23          	sw	s1,20(sp)
20003aa0:	00c589b3          	add	s3,a1,a2
20003aa4:	00058413          	mv	s0,a1
20003aa8:	00060913          	mv	s2,a2
20003aac:	03358a63          	beq	a1,s3,20003ae0 <_write+0x68>
20003ab0:	00000493          	li	s1,0
20003ab4:	00c0006f          	j	20003ac0 <_write+0x48>
20003ab8:	00148493          	addi	s1,s1,1
20003abc:	02898263          	beq	s3,s0,20003ae0 <_write+0x68>
20003ac0:	00044503          	lbu	a0,0(s0)
20003ac4:	00140413          	addi	s0,s0,1
20003ac8:	91dff0ef          	jal	ra,200033e4 <_Z11UARTPutCharc>
20003acc:	07f4f793          	andi	a5,s1,127
20003ad0:	fe0794e3          	bnez	a5,20003ab8 <_write+0x40>
20003ad4:	8b5ff0ef          	jal	ra,20003388 <_Z9UARTFlushv>
20003ad8:	00148493          	addi	s1,s1,1
20003adc:	fe8992e3          	bne	s3,s0,20003ac0 <_write+0x48>
20003ae0:	8a9ff0ef          	jal	ra,20003388 <_Z9UARTFlushv>
20003ae4:	01c12083          	lw	ra,28(sp)
20003ae8:	01812403          	lw	s0,24(sp)
20003aec:	01412483          	lw	s1,20(sp)
20003af0:	00c12983          	lw	s3,12(sp)
20003af4:	00090513          	mv	a0,s2
20003af8:	01012903          	lw	s2,16(sp)
20003afc:	02010113          	addi	sp,sp,32
20003b00:	00008067          	ret

20003b04 <_wait>:
20003b04:	ff010113          	addi	sp,sp,-16
20003b08:	00112623          	sw	ra,12(sp)
20003b0c:	e08fc0ef          	jal	ra,20000114 <__errno>
20003b10:	00c12083          	lw	ra,12(sp)
20003b14:	00a00793          	li	a5,10
20003b18:	00f52023          	sw	a5,0(a0)
20003b1c:	fff00513          	li	a0,-1
20003b20:	01010113          	addi	sp,sp,16
20003b24:	00008067          	ret

20003b28 <_sbrk>:
20003b28:	00007617          	auipc	a2,0x7
20003b2c:	81860613          	addi	a2,a2,-2024 # 2000a340 <_ZL10heap_start>
20003b30:	00062783          	lw	a5,0(a2)
20003b34:	1fff0737          	lui	a4,0x1fff0
20003b38:	02e78463          	beq	a5,a4,20003b60 <_sbrk+0x38>
20003b3c:	00a786b3          	add	a3,a5,a0
20003b40:	00e6e863          	bltu	a3,a4,20003b50 <_sbrk+0x28>
20003b44:	00e62023          	sw	a4,0(a2)
20003b48:	00078513          	mv	a0,a5
20003b4c:	00008067          	ret
20003b50:	00a686b3          	add	a3,a3,a0
20003b54:	00d62023          	sw	a3,0(a2)
20003b58:	00078513          	mv	a0,a5
20003b5c:	00008067          	ret
20003b60:	00000793          	li	a5,0
20003b64:	fe5ff06f          	j	20003b48 <_sbrk+0x20>

20003b68 <_Z14RingBufferReadPhPvm>:
20003b68:	ff010113          	addi	sp,sp,-16
20003b6c:	01212023          	sw	s2,0(sp)
20003b70:	00007797          	auipc	a5,0x7
20003b74:	a187a783          	lw	a5,-1512(a5) # 2000a588 <_GLOBAL_OFFSET_TABLE_+0x1c>
20003b78:	00007917          	auipc	s2,0x7
20003b7c:	a3892903          	lw	s2,-1480(s2) # 2000a5b0 <_GLOBAL_OFFSET_TABLE_+0x44>
20003b80:	00092703          	lw	a4,0(s2)
20003b84:	0007a783          	lw	a5,0(a5)
20003b88:	00912223          	sw	s1,4(sp)
20003b8c:	00072483          	lw	s1,0(a4) # 1fff0000 <_start-0x10000>
20003b90:	0007a783          	lw	a5,0(a5)
20003b94:	00112623          	sw	ra,12(sp)
20003b98:	00812423          	sw	s0,8(sp)
20003b9c:	409787b3          	sub	a5,a5,s1
20003ba0:	02c7f063          	bgeu	a5,a2,20003bc0 <_Z14RingBufferReadPhPvm+0x58>
20003ba4:	00c12083          	lw	ra,12(sp)
20003ba8:	00812403          	lw	s0,8(sp)
20003bac:	00412483          	lw	s1,4(sp)
20003bb0:	00012903          	lw	s2,0(sp)
20003bb4:	00000513          	li	a0,0
20003bb8:	01010113          	addi	sp,sp,16
20003bbc:	00008067          	ret
20003bc0:	00050713          	mv	a4,a0
20003bc4:	00060413          	mv	s0,a2
20003bc8:	00058513          	mv	a0,a1
20003bcc:	00000013          	nop
20003bd0:	40000613          	li	a2,1024
20003bd4:	3ff4f593          	andi	a1,s1,1023
20003bd8:	40b60633          	sub	a2,a2,a1
20003bdc:	00c47463          	bgeu	s0,a2,20003be4 <_Z14RingBufferReadPhPvm+0x7c>
20003be0:	00040613          	mv	a2,s0
20003be4:	00b705b3          	add	a1,a4,a1
20003be8:	e81fc0ef          	jal	ra,20000a68 <memcpy>
20003bec:	00092783          	lw	a5,0(s2)
20003bf0:	008484b3          	add	s1,s1,s0
20003bf4:	00c12083          	lw	ra,12(sp)
20003bf8:	00812403          	lw	s0,8(sp)
20003bfc:	0097a023          	sw	s1,0(a5)
20003c00:	00012903          	lw	s2,0(sp)
20003c04:	00412483          	lw	s1,4(sp)
20003c08:	00100513          	li	a0,1
20003c0c:	01010113          	addi	sp,sp,16
20003c10:	00008067          	ret

20003c14 <_Z15RingBufferWritePhPKvm>:
20003c14:	ff010113          	addi	sp,sp,-16
20003c18:	00007797          	auipc	a5,0x7
20003c1c:	9987a783          	lw	a5,-1640(a5) # 2000a5b0 <_GLOBAL_OFFSET_TABLE_+0x44>
20003c20:	0007a783          	lw	a5,0(a5)
20003c24:	01212023          	sw	s2,0(sp)
20003c28:	00007917          	auipc	s2,0x7
20003c2c:	96092903          	lw	s2,-1696(s2) # 2000a588 <_GLOBAL_OFFSET_TABLE_+0x1c>
20003c30:	00092703          	lw	a4,0(s2)
20003c34:	0007a783          	lw	a5,0(a5)
20003c38:	00912223          	sw	s1,4(sp)
20003c3c:	00072483          	lw	s1,0(a4)
20003c40:	40078793          	addi	a5,a5,1024
20003c44:	00112623          	sw	ra,12(sp)
20003c48:	00812423          	sw	s0,8(sp)
20003c4c:	409787b3          	sub	a5,a5,s1
20003c50:	02c7f063          	bgeu	a5,a2,20003c70 <_Z15RingBufferWritePhPKvm+0x5c>
20003c54:	00c12083          	lw	ra,12(sp)
20003c58:	00812403          	lw	s0,8(sp)
20003c5c:	00412483          	lw	s1,4(sp)
20003c60:	00012903          	lw	s2,0(sp)
20003c64:	00000513          	li	a0,0
20003c68:	01010113          	addi	sp,sp,16
20003c6c:	00008067          	ret
20003c70:	00060413          	mv	s0,a2
20003c74:	3ff4f793          	andi	a5,s1,1023
20003c78:	40000613          	li	a2,1024
20003c7c:	40f60633          	sub	a2,a2,a5
20003c80:	00c47463          	bgeu	s0,a2,20003c88 <_Z15RingBufferWritePhPKvm+0x74>
20003c84:	00040613          	mv	a2,s0
20003c88:	00f50533          	add	a0,a0,a5
20003c8c:	dddfc0ef          	jal	ra,20000a68 <memcpy>
20003c90:	00000013          	nop
20003c94:	00092783          	lw	a5,0(s2)
20003c98:	008484b3          	add	s1,s1,s0
20003c9c:	00c12083          	lw	ra,12(sp)
20003ca0:	00812403          	lw	s0,8(sp)
20003ca4:	0097a023          	sw	s1,0(a5)
20003ca8:	00012903          	lw	s2,0(sp)
20003cac:	00412483          	lw	s1,4(sp)
20003cb0:	00100513          	li	a0,1
20003cb4:	01010113          	addi	sp,sp,16
20003cb8:	00008067          	ret

20003cbc <_Z12ScanKeyboardPt>:
20003cbc:	00007797          	auipc	a5,0x7
20003cc0:	8c87a783          	lw	a5,-1848(a5) # 2000a584 <_GLOBAL_OFFSET_TABLE_+0x18>
20003cc4:	0007a783          	lw	a5,0(a5)
20003cc8:	00000713          	li	a4,0
20003ccc:	0007a683          	lw	a3,0(a5)
20003cd0:	04068663          	beqz	a3,20003d1c <_Z12ScanKeyboardPt+0x60>
20003cd4:	00007717          	auipc	a4,0x7
20003cd8:	8c872703          	lw	a4,-1848(a4) # 2000a59c <_GLOBAL_OFFSET_TABLE_+0x30>
20003cdc:	00072603          	lw	a2,0(a4)
20003ce0:	0e000593          	li	a1,224
20003ce4:	10000693          	li	a3,256
20003ce8:	00062703          	lw	a4,0(a2)
20003cec:	00000813          	li	a6,0
20003cf0:	0ff77713          	zext.b	a4,a4
20003cf4:	02b70863          	beq	a4,a1,20003d24 <_Z12ScanKeyboardPt+0x68>
20003cf8:	0f000593          	li	a1,240
20003cfc:	04b71463          	bne	a4,a1,20003d44 <_Z12ScanKeyboardPt+0x88>
20003d00:	0007a703          	lw	a4,0(a5)
20003d04:	fe070ee3          	beqz	a4,20003d00 <_Z12ScanKeyboardPt+0x44>
20003d08:	00062783          	lw	a5,0(a2)
20003d0c:	0ff7f793          	zext.b	a5,a5
20003d10:	00179713          	slli	a4,a5,0x1
20003d14:	00e50533          	add	a0,a0,a4
20003d18:	00f6e733          	or	a4,a3,a5
20003d1c:	00e51023          	sh	a4,0(a0)
20003d20:	00008067          	ret
20003d24:	0007a703          	lw	a4,0(a5)
20003d28:	fe070ee3          	beqz	a4,20003d24 <_Z12ScanKeyboardPt+0x68>
20003d2c:	00062703          	lw	a4,0(a2)
20003d30:	0f000593          	li	a1,240
20003d34:	50000693          	li	a3,1280
20003d38:	0ff77713          	zext.b	a4,a4
20003d3c:	40000813          	li	a6,1024
20003d40:	fcb700e3          	beq	a4,a1,20003d00 <_Z12ScanKeyboardPt+0x44>
20003d44:	00171793          	slli	a5,a4,0x1
20003d48:	00f50533          	add	a0,a0,a5
20003d4c:	00e86733          	or	a4,a6,a4
20003d50:	00e51023          	sh	a4,0(a0)
20003d54:	00008067          	ret

20003d58 <_Z11ScanToASCIIhh>:
20003d58:	00058c63          	beqz	a1,20003d70 <_Z11ScanToASCIIhh+0x18>
20003d5c:	00007797          	auipc	a5,0x7
20003d60:	8207a783          	lw	a5,-2016(a5) # 2000a57c <_GLOBAL_OFFSET_TABLE_+0x10>
20003d64:	00a787b3          	add	a5,a5,a0
20003d68:	0007c503          	lbu	a0,0(a5)
20003d6c:	00008067          	ret
20003d70:	00007797          	auipc	a5,0x7
20003d74:	81c7a783          	lw	a5,-2020(a5) # 2000a58c <_GLOBAL_OFFSET_TABLE_+0x20>
20003d78:	00a787b3          	add	a5,a5,a0
20003d7c:	0007c503          	lbu	a0,0(a5)
20003d80:	00008067          	ret

20003d84 <_Z7SPITxRxh>:
20003d84:	00007797          	auipc	a5,0x7
20003d88:	8107a783          	lw	a5,-2032(a5) # 2000a594 <_GLOBAL_OFFSET_TABLE_+0x28>
20003d8c:	0007a703          	lw	a4,0(a5)
20003d90:	00a70023          	sb	a0,0(a4)
20003d94:	0007a783          	lw	a5,0(a5)
20003d98:	0007c503          	lbu	a0,0(a5)
20003d9c:	00008067          	ret

20003da0 <_Z5SDCmd13SDCardCommandm>:
20003da0:	03f57813          	andi	a6,a0,63
20003da4:	04086813          	ori	a6,a6,64
20003da8:	01a81793          	slli	a5,a6,0x1a
20003dac:	0185d513          	srli	a0,a1,0x18
20003db0:	0105d613          	srli	a2,a1,0x10
20003db4:	41f7d793          	srai	a5,a5,0x1f
20003db8:	0ff67613          	zext.b	a2,a2
20003dbc:	00851893          	slli	a7,a0,0x8
20003dc0:	0097f793          	andi	a5,a5,9
20003dc4:	0085d693          	srli	a3,a1,0x8
20003dc8:	01061313          	slli	t1,a2,0x10
20003dcc:	011868b3          	or	a7,a6,a7
20003dd0:	01278793          	addi	a5,a5,18
20003dd4:	01869713          	slli	a4,a3,0x18
20003dd8:	0068e8b3          	or	a7,a7,t1
20003ddc:	00179793          	slli	a5,a5,0x1
20003de0:	00381313          	slli	t1,a6,0x3
20003de4:	00e8e8b3          	or	a7,a7,a4
20003de8:	0ff5f713          	zext.b	a4,a1
20003dec:	0067c5b3          	xor	a1,a5,t1
20003df0:	fe010113          	addi	sp,sp,-32
20003df4:	01859593          	slli	a1,a1,0x18
20003df8:	00112e23          	sw	ra,28(sp)
20003dfc:	00812c23          	sw	s0,24(sp)
20003e00:	00912a23          	sw	s1,20(sp)
20003e04:	01212823          	sw	s2,16(sp)
20003e08:	01112423          	sw	a7,8(sp)
20003e0c:	00e10623          	sb	a4,12(sp)
20003e10:	4185d593          	srai	a1,a1,0x18
20003e14:	0ff6f693          	zext.b	a3,a3
20003e18:	0005d463          	bgez	a1,20003e20 <_Z5SDCmd13SDCardCommandm+0x80>
20003e1c:	0097c793          	xori	a5,a5,9
20003e20:	00179793          	slli	a5,a5,0x1
20003e24:	00481593          	slli	a1,a6,0x4
20003e28:	00b7c5b3          	xor	a1,a5,a1
20003e2c:	01859593          	slli	a1,a1,0x18
20003e30:	4185d593          	srai	a1,a1,0x18
20003e34:	0005d663          	bgez	a1,20003e40 <_Z5SDCmd13SDCardCommandm+0xa0>
20003e38:	0097c793          	xori	a5,a5,9
20003e3c:	0ff7f793          	zext.b	a5,a5
20003e40:	00179793          	slli	a5,a5,0x1
20003e44:	0ff7f793          	zext.b	a5,a5
20003e48:	00581593          	slli	a1,a6,0x5
20003e4c:	00b7c5b3          	xor	a1,a5,a1
20003e50:	01859593          	slli	a1,a1,0x18
20003e54:	4185d593          	srai	a1,a1,0x18
20003e58:	0005d463          	bgez	a1,20003e60 <_Z5SDCmd13SDCardCommandm+0xc0>
20003e5c:	0097c793          	xori	a5,a5,9
20003e60:	00179793          	slli	a5,a5,0x1
20003e64:	0ff7f793          	zext.b	a5,a5
20003e68:	00681593          	slli	a1,a6,0x6
20003e6c:	00b7c5b3          	xor	a1,a5,a1
20003e70:	01859593          	slli	a1,a1,0x18
20003e74:	4185d593          	srai	a1,a1,0x18
20003e78:	0005d463          	bgez	a1,20003e80 <_Z5SDCmd13SDCardCommandm+0xe0>
20003e7c:	0097c793          	xori	a5,a5,9
20003e80:	00179793          	slli	a5,a5,0x1
20003e84:	0ff7f793          	zext.b	a5,a5
20003e88:	00781593          	slli	a1,a6,0x7
20003e8c:	00b7c5b3          	xor	a1,a5,a1
20003e90:	01859593          	slli	a1,a1,0x18
20003e94:	4185d593          	srai	a1,a1,0x18
20003e98:	0005d463          	bgez	a1,20003ea0 <_Z5SDCmd13SDCardCommandm+0x100>
20003e9c:	0097c793          	xori	a5,a5,9
20003ea0:	00179793          	slli	a5,a5,0x1
20003ea4:	0ff7f793          	zext.b	a5,a5
20003ea8:	00f545b3          	xor	a1,a0,a5
20003eac:	01859593          	slli	a1,a1,0x18
20003eb0:	4185d593          	srai	a1,a1,0x18
20003eb4:	0005d463          	bgez	a1,20003ebc <_Z5SDCmd13SDCardCommandm+0x11c>
20003eb8:	0097c793          	xori	a5,a5,9
20003ebc:	00179793          	slli	a5,a5,0x1
20003ec0:	0ff7f793          	zext.b	a5,a5
20003ec4:	00151593          	slli	a1,a0,0x1
20003ec8:	00b7c5b3          	xor	a1,a5,a1
20003ecc:	01859593          	slli	a1,a1,0x18
20003ed0:	4185d593          	srai	a1,a1,0x18
20003ed4:	0005d463          	bgez	a1,20003edc <_Z5SDCmd13SDCardCommandm+0x13c>
20003ed8:	0097c793          	xori	a5,a5,9
20003edc:	00179793          	slli	a5,a5,0x1
20003ee0:	0ff7f793          	zext.b	a5,a5
20003ee4:	00251593          	slli	a1,a0,0x2
20003ee8:	00b7c5b3          	xor	a1,a5,a1
20003eec:	01859593          	slli	a1,a1,0x18
20003ef0:	4185d593          	srai	a1,a1,0x18
20003ef4:	0005d463          	bgez	a1,20003efc <_Z5SDCmd13SDCardCommandm+0x15c>
20003ef8:	0097c793          	xori	a5,a5,9
20003efc:	00179793          	slli	a5,a5,0x1
20003f00:	0ff7f793          	zext.b	a5,a5
20003f04:	00351593          	slli	a1,a0,0x3
20003f08:	00b7c5b3          	xor	a1,a5,a1
20003f0c:	01859593          	slli	a1,a1,0x18
20003f10:	4185d593          	srai	a1,a1,0x18
20003f14:	0005d463          	bgez	a1,20003f1c <_Z5SDCmd13SDCardCommandm+0x17c>
20003f18:	0097c793          	xori	a5,a5,9
20003f1c:	00179793          	slli	a5,a5,0x1
20003f20:	0ff7f793          	zext.b	a5,a5
20003f24:	00451593          	slli	a1,a0,0x4
20003f28:	00b7c5b3          	xor	a1,a5,a1
20003f2c:	01859593          	slli	a1,a1,0x18
20003f30:	4185d593          	srai	a1,a1,0x18
20003f34:	0005d463          	bgez	a1,20003f3c <_Z5SDCmd13SDCardCommandm+0x19c>
20003f38:	0097c793          	xori	a5,a5,9
20003f3c:	00179793          	slli	a5,a5,0x1
20003f40:	0ff7f793          	zext.b	a5,a5
20003f44:	00551593          	slli	a1,a0,0x5
20003f48:	00b7c5b3          	xor	a1,a5,a1
20003f4c:	01859593          	slli	a1,a1,0x18
20003f50:	4185d593          	srai	a1,a1,0x18
20003f54:	0005d463          	bgez	a1,20003f5c <_Z5SDCmd13SDCardCommandm+0x1bc>
20003f58:	0097c793          	xori	a5,a5,9
20003f5c:	00179793          	slli	a5,a5,0x1
20003f60:	0ff7f793          	zext.b	a5,a5
20003f64:	00651593          	slli	a1,a0,0x6
20003f68:	00b7c5b3          	xor	a1,a5,a1
20003f6c:	01859593          	slli	a1,a1,0x18
20003f70:	4185d593          	srai	a1,a1,0x18
20003f74:	0005d463          	bgez	a1,20003f7c <_Z5SDCmd13SDCardCommandm+0x1dc>
20003f78:	0097c793          	xori	a5,a5,9
20003f7c:	00179793          	slli	a5,a5,0x1
20003f80:	0ff7f793          	zext.b	a5,a5
20003f84:	00751593          	slli	a1,a0,0x7
20003f88:	00b7c5b3          	xor	a1,a5,a1
20003f8c:	01859593          	slli	a1,a1,0x18
20003f90:	4185d593          	srai	a1,a1,0x18
20003f94:	0005d463          	bgez	a1,20003f9c <_Z5SDCmd13SDCardCommandm+0x1fc>
20003f98:	0097c793          	xori	a5,a5,9
20003f9c:	00179793          	slli	a5,a5,0x1
20003fa0:	0ff7f793          	zext.b	a5,a5
20003fa4:	00f645b3          	xor	a1,a2,a5
20003fa8:	01859593          	slli	a1,a1,0x18
20003fac:	4185d593          	srai	a1,a1,0x18
20003fb0:	0005d463          	bgez	a1,20003fb8 <_Z5SDCmd13SDCardCommandm+0x218>
20003fb4:	0097c793          	xori	a5,a5,9
20003fb8:	00179793          	slli	a5,a5,0x1
20003fbc:	0ff7f793          	zext.b	a5,a5
20003fc0:	00161593          	slli	a1,a2,0x1
20003fc4:	00b7c5b3          	xor	a1,a5,a1
20003fc8:	01859593          	slli	a1,a1,0x18
20003fcc:	4185d593          	srai	a1,a1,0x18
20003fd0:	0005d463          	bgez	a1,20003fd8 <_Z5SDCmd13SDCardCommandm+0x238>
20003fd4:	0097c793          	xori	a5,a5,9
20003fd8:	00179793          	slli	a5,a5,0x1
20003fdc:	0ff7f793          	zext.b	a5,a5
20003fe0:	00261593          	slli	a1,a2,0x2
20003fe4:	00b7c5b3          	xor	a1,a5,a1
20003fe8:	01859593          	slli	a1,a1,0x18
20003fec:	4185d593          	srai	a1,a1,0x18
20003ff0:	0005d463          	bgez	a1,20003ff8 <_Z5SDCmd13SDCardCommandm+0x258>
20003ff4:	0097c793          	xori	a5,a5,9
20003ff8:	00179793          	slli	a5,a5,0x1
20003ffc:	0ff7f793          	zext.b	a5,a5
20004000:	00361593          	slli	a1,a2,0x3
20004004:	00b7c5b3          	xor	a1,a5,a1
20004008:	01859593          	slli	a1,a1,0x18
2000400c:	4185d593          	srai	a1,a1,0x18
20004010:	0005d463          	bgez	a1,20004018 <_Z5SDCmd13SDCardCommandm+0x278>
20004014:	0097c793          	xori	a5,a5,9
20004018:	00179793          	slli	a5,a5,0x1
2000401c:	0ff7f793          	zext.b	a5,a5
20004020:	00461593          	slli	a1,a2,0x4
20004024:	00b7c5b3          	xor	a1,a5,a1
20004028:	01859593          	slli	a1,a1,0x18
2000402c:	4185d593          	srai	a1,a1,0x18
20004030:	0005d463          	bgez	a1,20004038 <_Z5SDCmd13SDCardCommandm+0x298>
20004034:	0097c793          	xori	a5,a5,9
20004038:	00179793          	slli	a5,a5,0x1
2000403c:	0ff7f793          	zext.b	a5,a5
20004040:	00561593          	slli	a1,a2,0x5
20004044:	00b7c5b3          	xor	a1,a5,a1
20004048:	01859593          	slli	a1,a1,0x18
2000404c:	4185d593          	srai	a1,a1,0x18
20004050:	0005d463          	bgez	a1,20004058 <_Z5SDCmd13SDCardCommandm+0x2b8>
20004054:	0097c793          	xori	a5,a5,9
20004058:	00179793          	slli	a5,a5,0x1
2000405c:	0ff7f793          	zext.b	a5,a5
20004060:	00661593          	slli	a1,a2,0x6
20004064:	00b7c5b3          	xor	a1,a5,a1
20004068:	01859593          	slli	a1,a1,0x18
2000406c:	4185d593          	srai	a1,a1,0x18
20004070:	0005d463          	bgez	a1,20004078 <_Z5SDCmd13SDCardCommandm+0x2d8>
20004074:	0097c793          	xori	a5,a5,9
20004078:	00179793          	slli	a5,a5,0x1
2000407c:	0ff7f793          	zext.b	a5,a5
20004080:	00761613          	slli	a2,a2,0x7
20004084:	00c7c633          	xor	a2,a5,a2
20004088:	01861613          	slli	a2,a2,0x18
2000408c:	41865613          	srai	a2,a2,0x18
20004090:	00065463          	bgez	a2,20004098 <_Z5SDCmd13SDCardCommandm+0x2f8>
20004094:	0097c793          	xori	a5,a5,9
20004098:	00179793          	slli	a5,a5,0x1
2000409c:	0ff7f793          	zext.b	a5,a5
200040a0:	00f6c633          	xor	a2,a3,a5
200040a4:	01861613          	slli	a2,a2,0x18
200040a8:	41865613          	srai	a2,a2,0x18
200040ac:	00065463          	bgez	a2,200040b4 <_Z5SDCmd13SDCardCommandm+0x314>
200040b0:	0097c793          	xori	a5,a5,9
200040b4:	00179793          	slli	a5,a5,0x1
200040b8:	0ff7f793          	zext.b	a5,a5
200040bc:	00169613          	slli	a2,a3,0x1
200040c0:	00c7c633          	xor	a2,a5,a2
200040c4:	01861613          	slli	a2,a2,0x18
200040c8:	41865613          	srai	a2,a2,0x18
200040cc:	00065463          	bgez	a2,200040d4 <_Z5SDCmd13SDCardCommandm+0x334>
200040d0:	0097c793          	xori	a5,a5,9
200040d4:	00179793          	slli	a5,a5,0x1
200040d8:	0ff7f793          	zext.b	a5,a5
200040dc:	00269613          	slli	a2,a3,0x2
200040e0:	00c7c633          	xor	a2,a5,a2
200040e4:	01861613          	slli	a2,a2,0x18
200040e8:	41865613          	srai	a2,a2,0x18
200040ec:	00065463          	bgez	a2,200040f4 <_Z5SDCmd13SDCardCommandm+0x354>
200040f0:	0097c793          	xori	a5,a5,9
200040f4:	00179793          	slli	a5,a5,0x1
200040f8:	0ff7f793          	zext.b	a5,a5
200040fc:	00369613          	slli	a2,a3,0x3
20004100:	00c7c633          	xor	a2,a5,a2
20004104:	01861613          	slli	a2,a2,0x18
20004108:	41865613          	srai	a2,a2,0x18
2000410c:	00065463          	bgez	a2,20004114 <_Z5SDCmd13SDCardCommandm+0x374>
20004110:	0097c793          	xori	a5,a5,9
20004114:	00179793          	slli	a5,a5,0x1
20004118:	0ff7f793          	zext.b	a5,a5
2000411c:	00469613          	slli	a2,a3,0x4
20004120:	00c7c633          	xor	a2,a5,a2
20004124:	01861613          	slli	a2,a2,0x18
20004128:	41865613          	srai	a2,a2,0x18
2000412c:	00065463          	bgez	a2,20004134 <_Z5SDCmd13SDCardCommandm+0x394>
20004130:	0097c793          	xori	a5,a5,9
20004134:	00179793          	slli	a5,a5,0x1
20004138:	0ff7f793          	zext.b	a5,a5
2000413c:	00569613          	slli	a2,a3,0x5
20004140:	00c7c633          	xor	a2,a5,a2
20004144:	01861613          	slli	a2,a2,0x18
20004148:	41865613          	srai	a2,a2,0x18
2000414c:	00065463          	bgez	a2,20004154 <_Z5SDCmd13SDCardCommandm+0x3b4>
20004150:	0097c793          	xori	a5,a5,9
20004154:	00179793          	slli	a5,a5,0x1
20004158:	0ff7f793          	zext.b	a5,a5
2000415c:	00669613          	slli	a2,a3,0x6
20004160:	00c7c633          	xor	a2,a5,a2
20004164:	01861613          	slli	a2,a2,0x18
20004168:	41865613          	srai	a2,a2,0x18
2000416c:	00065463          	bgez	a2,20004174 <_Z5SDCmd13SDCardCommandm+0x3d4>
20004170:	0097c793          	xori	a5,a5,9
20004174:	00179793          	slli	a5,a5,0x1
20004178:	0ff7f793          	zext.b	a5,a5
2000417c:	00769693          	slli	a3,a3,0x7
20004180:	00d7c6b3          	xor	a3,a5,a3
20004184:	01869693          	slli	a3,a3,0x18
20004188:	4186d693          	srai	a3,a3,0x18
2000418c:	0006d463          	bgez	a3,20004194 <_Z5SDCmd13SDCardCommandm+0x3f4>
20004190:	0097c793          	xori	a5,a5,9
20004194:	00179793          	slli	a5,a5,0x1
20004198:	0ff7f793          	zext.b	a5,a5
2000419c:	00f746b3          	xor	a3,a4,a5
200041a0:	01869693          	slli	a3,a3,0x18
200041a4:	4186d693          	srai	a3,a3,0x18
200041a8:	0006d463          	bgez	a3,200041b0 <_Z5SDCmd13SDCardCommandm+0x410>
200041ac:	0097c793          	xori	a5,a5,9
200041b0:	00179793          	slli	a5,a5,0x1
200041b4:	0ff7f793          	zext.b	a5,a5
200041b8:	00171693          	slli	a3,a4,0x1
200041bc:	00d7c6b3          	xor	a3,a5,a3
200041c0:	01869693          	slli	a3,a3,0x18
200041c4:	4186d693          	srai	a3,a3,0x18
200041c8:	0006d463          	bgez	a3,200041d0 <_Z5SDCmd13SDCardCommandm+0x430>
200041cc:	0097c793          	xori	a5,a5,9
200041d0:	00179793          	slli	a5,a5,0x1
200041d4:	0ff7f793          	zext.b	a5,a5
200041d8:	00271693          	slli	a3,a4,0x2
200041dc:	00d7c6b3          	xor	a3,a5,a3
200041e0:	01869693          	slli	a3,a3,0x18
200041e4:	4186d693          	srai	a3,a3,0x18
200041e8:	0006d463          	bgez	a3,200041f0 <_Z5SDCmd13SDCardCommandm+0x450>
200041ec:	0097c793          	xori	a5,a5,9
200041f0:	00179793          	slli	a5,a5,0x1
200041f4:	0ff7f793          	zext.b	a5,a5
200041f8:	00371693          	slli	a3,a4,0x3
200041fc:	00d7c6b3          	xor	a3,a5,a3
20004200:	01869693          	slli	a3,a3,0x18
20004204:	4186d693          	srai	a3,a3,0x18
20004208:	0006d463          	bgez	a3,20004210 <_Z5SDCmd13SDCardCommandm+0x470>
2000420c:	0097c793          	xori	a5,a5,9
20004210:	00179793          	slli	a5,a5,0x1
20004214:	0ff7f793          	zext.b	a5,a5
20004218:	00471693          	slli	a3,a4,0x4
2000421c:	00d7c6b3          	xor	a3,a5,a3
20004220:	01869693          	slli	a3,a3,0x18
20004224:	4186d693          	srai	a3,a3,0x18
20004228:	0006d463          	bgez	a3,20004230 <_Z5SDCmd13SDCardCommandm+0x490>
2000422c:	0097c793          	xori	a5,a5,9
20004230:	00179793          	slli	a5,a5,0x1
20004234:	0ff7f793          	zext.b	a5,a5
20004238:	00571693          	slli	a3,a4,0x5
2000423c:	00d7c6b3          	xor	a3,a5,a3
20004240:	01869693          	slli	a3,a3,0x18
20004244:	4186d693          	srai	a3,a3,0x18
20004248:	0006d463          	bgez	a3,20004250 <_Z5SDCmd13SDCardCommandm+0x4b0>
2000424c:	0097c793          	xori	a5,a5,9
20004250:	00179793          	slli	a5,a5,0x1
20004254:	0ff7f793          	zext.b	a5,a5
20004258:	00671693          	slli	a3,a4,0x6
2000425c:	00d7c6b3          	xor	a3,a5,a3
20004260:	01869693          	slli	a3,a3,0x18
20004264:	4186d693          	srai	a3,a3,0x18
20004268:	0006d463          	bgez	a3,20004270 <_Z5SDCmd13SDCardCommandm+0x4d0>
2000426c:	0097c793          	xori	a5,a5,9
20004270:	00179793          	slli	a5,a5,0x1
20004274:	0ff7f793          	zext.b	a5,a5
20004278:	00771713          	slli	a4,a4,0x7
2000427c:	00e7c733          	xor	a4,a5,a4
20004280:	01871713          	slli	a4,a4,0x18
20004284:	41875713          	srai	a4,a4,0x18
20004288:	00075463          	bgez	a4,20004290 <_Z5SDCmd13SDCardCommandm+0x4f0>
2000428c:	0097c793          	xori	a5,a5,9
20004290:	00179793          	slli	a5,a5,0x1
20004294:	0017e793          	ori	a5,a5,1
20004298:	0ff00513          	li	a0,255
2000429c:	00f106a3          	sb	a5,13(sp)
200042a0:	00810413          	addi	s0,sp,8
200042a4:	ae1ff0ef          	jal	ra,20003d84 <_Z7SPITxRxh>
200042a8:	00e10913          	addi	s2,sp,14
200042ac:	00044503          	lbu	a0,0(s0)
200042b0:	00140413          	addi	s0,s0,1
200042b4:	ad1ff0ef          	jal	ra,20003d84 <_Z7SPITxRxh>
200042b8:	00050493          	mv	s1,a0
200042bc:	fe8918e3          	bne	s2,s0,200042ac <_Z5SDCmd13SDCardCommandm+0x50c>
200042c0:	0ff00513          	li	a0,255
200042c4:	ac1ff0ef          	jal	ra,20003d84 <_Z7SPITxRxh>
200042c8:	01c12083          	lw	ra,28(sp)
200042cc:	01812403          	lw	s0,24(sp)
200042d0:	01012903          	lw	s2,16(sp)
200042d4:	00048513          	mv	a0,s1
200042d8:	01412483          	lw	s1,20(sp)
200042dc:	02010113          	addi	sp,sp,32
200042e0:	00008067          	ret

200042e4 <_Z11SDResponse1v>:
200042e4:	ff010113          	addi	sp,sp,-16
200042e8:	00812423          	sw	s0,8(sp)
200042ec:	00010437          	lui	s0,0x10
200042f0:	00112623          	sw	ra,12(sp)
200042f4:	00140413          	addi	s0,s0,1 # 10001 <_start-0x1ffeffff>
200042f8:	0080006f          	j	20004300 <_Z11SDResponse1v+0x1c>
200042fc:	00040c63          	beqz	s0,20004314 <_Z11SDResponse1v+0x30>
20004300:	0ff00513          	li	a0,255
20004304:	a81ff0ef          	jal	ra,20003d84 <_Z7SPITxRxh>
20004308:	0ff00793          	li	a5,255
2000430c:	fff40413          	addi	s0,s0,-1
20004310:	fef506e3          	beq	a0,a5,200042fc <_Z11SDResponse1v+0x18>
20004314:	00c12083          	lw	ra,12(sp)
20004318:	00812403          	lw	s0,8(sp)
2000431c:	01010113          	addi	sp,sp,16
20004320:	00008067          	ret

20004324 <_Z11SDResponse7Pm>:
20004324:	fe010113          	addi	sp,sp,-32
20004328:	00912a23          	sw	s1,20(sp)
2000432c:	01212823          	sw	s2,16(sp)
20004330:	00112e23          	sw	ra,28(sp)
20004334:	00812c23          	sw	s0,24(sp)
20004338:	01312623          	sw	s3,12(sp)
2000433c:	01412423          	sw	s4,8(sp)
20004340:	00052023          	sw	zero,0(a0)
20004344:	00050913          	mv	s2,a0
20004348:	f9dff0ef          	jal	ra,200042e4 <_Z11SDResponse1v>
2000434c:	00100793          	li	a5,1
20004350:	0ff00493          	li	s1,255
20004354:	04a7e863          	bltu	a5,a0,200043a4 <_Z11SDResponse7Pm+0x80>
20004358:	00050493          	mv	s1,a0
2000435c:	0ff00513          	li	a0,255
20004360:	a25ff0ef          	jal	ra,20003d84 <_Z7SPITxRxh>
20004364:	00050413          	mv	s0,a0
20004368:	0ff00513          	li	a0,255
2000436c:	a19ff0ef          	jal	ra,20003d84 <_Z7SPITxRxh>
20004370:	00050a13          	mv	s4,a0
20004374:	0ff00513          	li	a0,255
20004378:	a0dff0ef          	jal	ra,20003d84 <_Z7SPITxRxh>
2000437c:	00050993          	mv	s3,a0
20004380:	01841413          	slli	s0,s0,0x18
20004384:	0ff00513          	li	a0,255
20004388:	010a1a13          	slli	s4,s4,0x10
2000438c:	9f9ff0ef          	jal	ra,20003d84 <_Z7SPITxRxh>
20004390:	01446433          	or	s0,s0,s4
20004394:	00a46433          	or	s0,s0,a0
20004398:	00899993          	slli	s3,s3,0x8
2000439c:	01346433          	or	s0,s0,s3
200043a0:	00892023          	sw	s0,0(s2)
200043a4:	01c12083          	lw	ra,28(sp)
200043a8:	01812403          	lw	s0,24(sp)
200043ac:	01012903          	lw	s2,16(sp)
200043b0:	00c12983          	lw	s3,12(sp)
200043b4:	00812a03          	lw	s4,8(sp)
200043b8:	00048513          	mv	a0,s1
200043bc:	01412483          	lw	s1,20(sp)
200043c0:	02010113          	addi	sp,sp,32
200043c4:	00008067          	ret

200043c8 <_Z6SDIdlev>:
200043c8:	ff010113          	addi	sp,sp,-16
200043cc:	00000593          	li	a1,0
200043d0:	00000513          	li	a0,0
200043d4:	00112623          	sw	ra,12(sp)
200043d8:	00812423          	sw	s0,8(sp)
200043dc:	9c5ff0ef          	jal	ra,20003da0 <_Z5SDCmd13SDCardCommandm>
200043e0:	f05ff0ef          	jal	ra,200042e4 <_Z11SDResponse1v>
200043e4:	00100793          	li	a5,1
200043e8:	00050413          	mv	s0,a0
200043ec:	02f50263          	beq	a0,a5,20004410 <_Z6SDIdlev+0x48>
200043f0:	00004517          	auipc	a0,0x4
200043f4:	0d450513          	addi	a0,a0,212 # 200084c4 <__clz_tab+0x990>
200043f8:	800ff0ef          	jal	ra,200033f8 <_Z9UARTWritePKc>
200043fc:	00040513          	mv	a0,s0
20004400:	904ff0ef          	jal	ra,20003504 <_Z12UARTWriteHexm>
20004404:	00004517          	auipc	a0,0x4
20004408:	c6450513          	addi	a0,a0,-924 # 20008068 <__clz_tab+0x534>
2000440c:	fedfe0ef          	jal	ra,200033f8 <_Z9UARTWritePKc>
20004410:	00c12083          	lw	ra,12(sp)
20004414:	00040513          	mv	a0,s0
20004418:	00812403          	lw	s0,8(sp)
2000441c:	01010113          	addi	sp,sp,16
20004420:	00008067          	ret

20004424 <_Z19SDCheckVoltageRangev>:
20004424:	fe010113          	addi	sp,sp,-32
20004428:	1aa00593          	li	a1,426
2000442c:	00800513          	li	a0,8
20004430:	00112e23          	sw	ra,28(sp)
20004434:	00812c23          	sw	s0,24(sp)
20004438:	969ff0ef          	jal	ra,20003da0 <_Z5SDCmd13SDCardCommandm>
2000443c:	00c10513          	addi	a0,sp,12
20004440:	ee5ff0ef          	jal	ra,20004324 <_Z11SDResponse7Pm>
20004444:	00100793          	li	a5,1
20004448:	00050413          	mv	s0,a0
2000444c:	02f50263          	beq	a0,a5,20004470 <_Z19SDCheckVoltageRangev+0x4c>
20004450:	00004517          	auipc	a0,0x4
20004454:	09450513          	addi	a0,a0,148 # 200084e4 <__clz_tab+0x9b0>
20004458:	fa1fe0ef          	jal	ra,200033f8 <_Z9UARTWritePKc>
2000445c:	00040513          	mv	a0,s0
20004460:	8a4ff0ef          	jal	ra,20003504 <_Z12UARTWriteHexm>
20004464:	00004517          	auipc	a0,0x4
20004468:	c0450513          	addi	a0,a0,-1020 # 20008068 <__clz_tab+0x534>
2000446c:	f8dfe0ef          	jal	ra,200033f8 <_Z9UARTWritePKc>
20004470:	00c12703          	lw	a4,12(sp)
20004474:	1aa00793          	li	a5,426
20004478:	02f70263          	beq	a4,a5,2000449c <_Z19SDCheckVoltageRangev+0x78>
2000447c:	00004517          	auipc	a0,0x4
20004480:	09450513          	addi	a0,a0,148 # 20008510 <__clz_tab+0x9dc>
20004484:	f75fe0ef          	jal	ra,200033f8 <_Z9UARTWritePKc>
20004488:	00c12503          	lw	a0,12(sp)
2000448c:	878ff0ef          	jal	ra,20003504 <_Z12UARTWriteHexm>
20004490:	00004517          	auipc	a0,0x4
20004494:	bd850513          	addi	a0,a0,-1064 # 20008068 <__clz_tab+0x534>
20004498:	f61fe0ef          	jal	ra,200033f8 <_Z9UARTWritePKc>
2000449c:	01c12083          	lw	ra,28(sp)
200044a0:	00040513          	mv	a0,s0
200044a4:	01812403          	lw	s0,24(sp)
200044a8:	02010113          	addi	sp,sp,32
200044ac:	00008067          	ret

200044b0 <_Z10SDCardInitv>:
200044b0:	ff010113          	addi	sp,sp,-16
200044b4:	01212023          	sw	s2,0(sp)
200044b8:	00112623          	sw	ra,12(sp)
200044bc:	00812423          	sw	s0,8(sp)
200044c0:	00912223          	sw	s1,4(sp)
200044c4:	00010937          	lui	s2,0x10
200044c8:	0080006f          	j	200044d0 <_Z10SDCardInitv+0x20>
200044cc:	08090a63          	beqz	s2,20004560 <_Z10SDCardInitv+0xb0>
200044d0:	00000593          	li	a1,0
200044d4:	03700513          	li	a0,55
200044d8:	8c9ff0ef          	jal	ra,20003da0 <_Z5SDCmd13SDCardCommandm>
200044dc:	e09ff0ef          	jal	ra,200042e4 <_Z11SDResponse1v>
200044e0:	400005b7          	lui	a1,0x40000
200044e4:	00050493          	mv	s1,a0
200044e8:	02900513          	li	a0,41
200044ec:	8b5ff0ef          	jal	ra,20003da0 <_Z5SDCmd13SDCardCommandm>
200044f0:	df5ff0ef          	jal	ra,200042e4 <_Z11SDResponse1v>
200044f4:	00050413          	mv	s0,a0
200044f8:	fff90913          	addi	s2,s2,-1 # ffff <_start-0x1fff0001>
200044fc:	fc0518e3          	bnez	a0,200044cc <_Z10SDCardInitv+0x1c>
20004500:	00100793          	li	a5,1
20004504:	02f49063          	bne	s1,a5,20004524 <_Z10SDCardInitv+0x74>
20004508:	00c12083          	lw	ra,12(sp)
2000450c:	00040513          	mv	a0,s0
20004510:	00812403          	lw	s0,8(sp)
20004514:	00412483          	lw	s1,4(sp)
20004518:	00012903          	lw	s2,0(sp)
2000451c:	01010113          	addi	sp,sp,16
20004520:	00008067          	ret
20004524:	00004517          	auipc	a0,0x4
20004528:	01c50513          	addi	a0,a0,28 # 20008540 <__clz_tab+0xa0c>
2000452c:	ecdfe0ef          	jal	ra,200033f8 <_Z9UARTWritePKc>
20004530:	00048513          	mv	a0,s1
20004534:	fd1fe0ef          	jal	ra,20003504 <_Z12UARTWriteHexm>
20004538:	00004517          	auipc	a0,0x4
2000453c:	b3050513          	addi	a0,a0,-1232 # 20008068 <__clz_tab+0x534>
20004540:	eb9fe0ef          	jal	ra,200033f8 <_Z9UARTWritePKc>
20004544:	00c12083          	lw	ra,12(sp)
20004548:	00040513          	mv	a0,s0
2000454c:	00812403          	lw	s0,8(sp)
20004550:	00412483          	lw	s1,4(sp)
20004554:	00012903          	lw	s2,0(sp)
20004558:	01010113          	addi	sp,sp,16
2000455c:	00008067          	ret
20004560:	00100793          	li	a5,1
20004564:	02f48263          	beq	s1,a5,20004588 <_Z10SDCardInitv+0xd8>
20004568:	00004517          	auipc	a0,0x4
2000456c:	fd850513          	addi	a0,a0,-40 # 20008540 <__clz_tab+0xa0c>
20004570:	e89fe0ef          	jal	ra,200033f8 <_Z9UARTWritePKc>
20004574:	00048513          	mv	a0,s1
20004578:	f8dfe0ef          	jal	ra,20003504 <_Z12UARTWriteHexm>
2000457c:	00004517          	auipc	a0,0x4
20004580:	aec50513          	addi	a0,a0,-1300 # 20008068 <__clz_tab+0x534>
20004584:	e75fe0ef          	jal	ra,200033f8 <_Z9UARTWritePKc>
20004588:	00004517          	auipc	a0,0x4
2000458c:	fdc50513          	addi	a0,a0,-36 # 20008564 <__clz_tab+0xa30>
20004590:	e69fe0ef          	jal	ra,200033f8 <_Z9UARTWritePKc>
20004594:	00040513          	mv	a0,s0
20004598:	f6dfe0ef          	jal	ra,20003504 <_Z12UARTWriteHexm>
2000459c:	00004517          	auipc	a0,0x4
200045a0:	acc50513          	addi	a0,a0,-1332 # 20008068 <__clz_tab+0x534>
200045a4:	e55fe0ef          	jal	ra,200033f8 <_Z9UARTWritePKc>
200045a8:	00c12083          	lw	ra,12(sp)
200045ac:	00040513          	mv	a0,s0
200045b0:	00812403          	lw	s0,8(sp)
200045b4:	00412483          	lw	s1,4(sp)
200045b8:	00012903          	lw	s2,0(sp)
200045bc:	01010113          	addi	sp,sp,16
200045c0:	00008067          	ret

200045c4 <_Z17SDSetBlockSize512v>:
200045c4:	ff010113          	addi	sp,sp,-16
200045c8:	20000593          	li	a1,512
200045cc:	01000513          	li	a0,16
200045d0:	00112623          	sw	ra,12(sp)
200045d4:	fccff0ef          	jal	ra,20003da0 <_Z5SDCmd13SDCardCommandm>
200045d8:	00c12083          	lw	ra,12(sp)
200045dc:	01010113          	addi	sp,sp,16
200045e0:	d05ff06f          	j	200042e4 <_Z11SDResponse1v>

200045e4 <_Z17SDReadSingleBlockmPhS_>:
200045e4:	fe010113          	addi	sp,sp,-32
200045e8:	00912a23          	sw	s1,20(sp)
200045ec:	00050493          	mv	s1,a0
200045f0:	00812c23          	sw	s0,24(sp)
200045f4:	01100513          	li	a0,17
200045f8:	00058413          	mv	s0,a1
200045fc:	00048593          	mv	a1,s1
20004600:	00112e23          	sw	ra,28(sp)
20004604:	01212823          	sw	s2,16(sp)
20004608:	01312623          	sw	s3,12(sp)
2000460c:	00060993          	mv	s3,a2
20004610:	f90ff0ef          	jal	ra,20003da0 <_Z5SDCmd13SDCardCommandm>
20004614:	cd1ff0ef          	jal	ra,200042e4 <_Z11SDResponse1v>
20004618:	0ff00793          	li	a5,255
2000461c:	00050913          	mv	s2,a0
20004620:	02f50e63          	beq	a0,a5,2000465c <_Z17SDReadSingleBlockmPhS_+0x78>
20004624:	cc1ff0ef          	jal	ra,200042e4 <_Z11SDResponse1v>
20004628:	0fe00793          	li	a5,254
2000462c:	00050913          	mv	s2,a0
20004630:	0af50e63          	beq	a0,a5,200046ec <_Z17SDReadSingleBlockmPhS_+0x108>
20004634:	0f057793          	andi	a5,a0,240
20004638:	02079263          	bnez	a5,2000465c <_Z17SDReadSingleBlockmPhS_+0x78>
2000463c:	00157793          	andi	a5,a0,1
20004640:	08079e63          	bnez	a5,200046dc <_Z17SDReadSingleBlockmPhS_+0xf8>
20004644:	00297793          	andi	a5,s2,2
20004648:	08079263          	bnez	a5,200046cc <_Z17SDReadSingleBlockmPhS_+0xe8>
2000464c:	00497793          	andi	a5,s2,4
20004650:	06079663          	bnez	a5,200046bc <_Z17SDReadSingleBlockmPhS_+0xd8>
20004654:	00897793          	andi	a5,s2,8
20004658:	02079263          	bnez	a5,2000467c <_Z17SDReadSingleBlockmPhS_+0x98>
2000465c:	01c12083          	lw	ra,28(sp)
20004660:	01812403          	lw	s0,24(sp)
20004664:	01412483          	lw	s1,20(sp)
20004668:	00c12983          	lw	s3,12(sp)
2000466c:	00090513          	mv	a0,s2
20004670:	01012903          	lw	s2,16(sp)
20004674:	02010113          	addi	sp,sp,32
20004678:	00008067          	ret
2000467c:	00004517          	auipc	a0,0x4
20004680:	fa450513          	addi	a0,a0,-92 # 20008620 <__clz_tab+0xaec>
20004684:	d75fe0ef          	jal	ra,200033f8 <_Z9UARTWritePKc>
20004688:	00048513          	mv	a0,s1
2000468c:	e79fe0ef          	jal	ra,20003504 <_Z12UARTWriteHexm>
20004690:	00004517          	auipc	a0,0x4
20004694:	9d850513          	addi	a0,a0,-1576 # 20008068 <__clz_tab+0x534>
20004698:	d61fe0ef          	jal	ra,200033f8 <_Z9UARTWritePKc>
2000469c:	01c12083          	lw	ra,28(sp)
200046a0:	01812403          	lw	s0,24(sp)
200046a4:	01412483          	lw	s1,20(sp)
200046a8:	00c12983          	lw	s3,12(sp)
200046ac:	00090513          	mv	a0,s2
200046b0:	01012903          	lw	s2,16(sp)
200046b4:	02010113          	addi	sp,sp,32
200046b8:	00008067          	ret
200046bc:	00004517          	auipc	a0,0x4
200046c0:	f2c50513          	addi	a0,a0,-212 # 200085e8 <__clz_tab+0xab4>
200046c4:	d35fe0ef          	jal	ra,200033f8 <_Z9UARTWritePKc>
200046c8:	f8dff06f          	j	20004654 <_Z17SDReadSingleBlockmPhS_+0x70>
200046cc:	00004517          	auipc	a0,0x4
200046d0:	eec50513          	addi	a0,a0,-276 # 200085b8 <__clz_tab+0xa84>
200046d4:	d25fe0ef          	jal	ra,200033f8 <_Z9UARTWritePKc>
200046d8:	f75ff06f          	j	2000464c <_Z17SDReadSingleBlockmPhS_+0x68>
200046dc:	00004517          	auipc	a0,0x4
200046e0:	eac50513          	addi	a0,a0,-340 # 20008588 <__clz_tab+0xa54>
200046e4:	d15fe0ef          	jal	ra,200033f8 <_Z9UARTWritePKc>
200046e8:	f5dff06f          	j	20004644 <_Z17SDReadSingleBlockmPhS_+0x60>
200046ec:	20040493          	addi	s1,s0,512
200046f0:	0ff00513          	li	a0,255
200046f4:	e90ff0ef          	jal	ra,20003d84 <_Z7SPITxRxh>
200046f8:	00a40023          	sb	a0,0(s0)
200046fc:	00140413          	addi	s0,s0,1
20004700:	fe8498e3          	bne	s1,s0,200046f0 <_Z17SDReadSingleBlockmPhS_+0x10c>
20004704:	0ff00513          	li	a0,255
20004708:	e7cff0ef          	jal	ra,20003d84 <_Z7SPITxRxh>
2000470c:	00a98023          	sb	a0,0(s3)
20004710:	0ff00513          	li	a0,255
20004714:	e70ff0ef          	jal	ra,20003d84 <_Z7SPITxRxh>
20004718:	00a980a3          	sb	a0,1(s3)
2000471c:	01c12083          	lw	ra,28(sp)
20004720:	01812403          	lw	s0,24(sp)
20004724:	01412483          	lw	s1,20(sp)
20004728:	00c12983          	lw	s3,12(sp)
2000472c:	00090513          	mv	a0,s2
20004730:	01012903          	lw	s2,16(sp)
20004734:	02010113          	addi	sp,sp,32
20004738:	00008067          	ret

2000473c <_Z18SDWriteSingleBlockmPhS_>:
2000473c:	ff010113          	addi	sp,sp,-16
20004740:	00004517          	auipc	a0,0x4
20004744:	f2050513          	addi	a0,a0,-224 # 20008660 <__clz_tab+0xb2c>
20004748:	00112623          	sw	ra,12(sp)
2000474c:	cadfe0ef          	jal	ra,200033f8 <_Z9UARTWritePKc>
20004750:	00c12083          	lw	ra,12(sp)
20004754:	0ff00513          	li	a0,255
20004758:	01010113          	addi	sp,sp,16
2000475c:	00008067          	ret

20004760 <_Z20SDReadMultipleBlocksPhmm>:
20004760:	0a058663          	beqz	a1,2000480c <_Z20SDReadMultipleBlocksPhmm+0xac>
20004764:	dd010113          	addi	sp,sp,-560
20004768:	22812423          	sw	s0,552(sp)
2000476c:	22912223          	sw	s1,548(sp)
20004770:	23212023          	sw	s2,544(sp)
20004774:	21312e23          	sw	s3,540(sp)
20004778:	21412c23          	sw	s4,536(sp)
2000477c:	21512a23          	sw	s5,532(sp)
20004780:	21612823          	sw	s6,528(sp)
20004784:	22112623          	sw	ra,556(sp)
20004788:	00050a13          	mv	s4,a0
2000478c:	00060413          	mv	s0,a2
20004790:	00c589b3          	add	s3,a1,a2
20004794:	00000493          	li	s1,0
20004798:	00c10b13          	addi	s6,sp,12
2000479c:	01010913          	addi	s2,sp,16
200047a0:	0fe00a93          	li	s5,254
200047a4:	000b0613          	mv	a2,s6
200047a8:	00090593          	mv	a1,s2
200047ac:	00040513          	mv	a0,s0
200047b0:	e35ff0ef          	jal	ra,200045e4 <_Z17SDReadSingleBlockmPhS_>
200047b4:	00050793          	mv	a5,a0
200047b8:	20000613          	li	a2,512
200047bc:	009a0533          	add	a0,s4,s1
200047c0:	00090593          	mv	a1,s2
200047c4:	00140413          	addi	s0,s0,1
200047c8:	03579e63          	bne	a5,s5,20004804 <_Z20SDReadMultipleBlocksPhmm+0xa4>
200047cc:	a9cfc0ef          	jal	ra,20000a68 <memcpy>
200047d0:	20048493          	addi	s1,s1,512
200047d4:	fc8998e3          	bne	s3,s0,200047a4 <_Z20SDReadMultipleBlocksPhmm+0x44>
200047d8:	00048513          	mv	a0,s1
200047dc:	22c12083          	lw	ra,556(sp)
200047e0:	22812403          	lw	s0,552(sp)
200047e4:	22412483          	lw	s1,548(sp)
200047e8:	22012903          	lw	s2,544(sp)
200047ec:	21c12983          	lw	s3,540(sp)
200047f0:	21812a03          	lw	s4,536(sp)
200047f4:	21412a83          	lw	s5,532(sp)
200047f8:	21012b03          	lw	s6,528(sp)
200047fc:	23010113          	addi	sp,sp,560
20004800:	00008067          	ret
20004804:	fff00513          	li	a0,-1
20004808:	fd5ff06f          	j	200047dc <_Z20SDReadMultipleBlocksPhmm+0x7c>
2000480c:	fff00513          	li	a0,-1
20004810:	00008067          	ret

20004814 <_Z21SDWriteMultipleBlocksPKhmm>:
20004814:	0a058463          	beqz	a1,200048bc <_Z21SDWriteMultipleBlocksPKhmm+0xa8>
20004818:	dd010113          	addi	sp,sp,-560
2000481c:	22812423          	sw	s0,552(sp)
20004820:	22912223          	sw	s1,548(sp)
20004824:	23212023          	sw	s2,544(sp)
20004828:	21312e23          	sw	s3,540(sp)
2000482c:	21412c23          	sw	s4,536(sp)
20004830:	21512a23          	sw	s5,532(sp)
20004834:	21612823          	sw	s6,528(sp)
20004838:	22112623          	sw	ra,556(sp)
2000483c:	00050a13          	mv	s4,a0
20004840:	00060413          	mv	s0,a2
20004844:	00c589b3          	add	s3,a1,a2
20004848:	00000493          	li	s1,0
2000484c:	01010913          	addi	s2,sp,16
20004850:	00c10b13          	addi	s6,sp,12
20004854:	0fe00a93          	li	s5,254
20004858:	009a05b3          	add	a1,s4,s1
2000485c:	20000613          	li	a2,512
20004860:	00090513          	mv	a0,s2
20004864:	a04fc0ef          	jal	ra,20000a68 <memcpy>
20004868:	00040513          	mv	a0,s0
2000486c:	000b0613          	mv	a2,s6
20004870:	00090593          	mv	a1,s2
20004874:	ec9ff0ef          	jal	ra,2000473c <_Z18SDWriteSingleBlockmPhS_>
20004878:	00140413          	addi	s0,s0,1
2000487c:	03551c63          	bne	a0,s5,200048b4 <_Z21SDWriteMultipleBlocksPKhmm+0xa0>
20004880:	20048493          	addi	s1,s1,512
20004884:	fc899ae3          	bne	s3,s0,20004858 <_Z21SDWriteMultipleBlocksPKhmm+0x44>
20004888:	00048513          	mv	a0,s1
2000488c:	22c12083          	lw	ra,556(sp)
20004890:	22812403          	lw	s0,552(sp)
20004894:	22412483          	lw	s1,548(sp)
20004898:	22012903          	lw	s2,544(sp)
2000489c:	21c12983          	lw	s3,540(sp)
200048a0:	21812a03          	lw	s4,536(sp)
200048a4:	21412a83          	lw	s5,532(sp)
200048a8:	21012b03          	lw	s6,528(sp)
200048ac:	23010113          	addi	sp,sp,560
200048b0:	00008067          	ret
200048b4:	fff00513          	li	a0,-1
200048b8:	fd5ff06f          	j	2000488c <_Z21SDWriteMultipleBlocksPKhmm+0x78>
200048bc:	fff00513          	li	a0,-1
200048c0:	00008067          	ret

200048c4 <_Z13SDCardStartupv>:
200048c4:	ff010113          	addi	sp,sp,-16
200048c8:	00812423          	sw	s0,8(sp)
200048cc:	00112623          	sw	ra,12(sp)
200048d0:	00a00413          	li	s0,10
200048d4:	fff40413          	addi	s0,s0,-1
200048d8:	0ff00513          	li	a0,255
200048dc:	ca8ff0ef          	jal	ra,20003d84 <_Z7SPITxRxh>
200048e0:	fe041ae3          	bnez	s0,200048d4 <_Z13SDCardStartupv+0x10>
200048e4:	ae5ff0ef          	jal	ra,200043c8 <_Z6SDIdlev>
200048e8:	00100793          	li	a5,1
200048ec:	00050413          	mv	s0,a0
200048f0:	02f51463          	bne	a0,a5,20004918 <_Z13SDCardStartupv+0x54>
200048f4:	b31ff0ef          	jal	ra,20004424 <_Z19SDCheckVoltageRangev>
200048f8:	02851063          	bne	a0,s0,20004918 <_Z13SDCardStartupv+0x54>
200048fc:	bb5ff0ef          	jal	ra,200044b0 <_Z10SDCardInitv>
20004900:	00a03533          	snez	a0,a0
20004904:	40a00533          	neg	a0,a0
20004908:	00c12083          	lw	ra,12(sp)
2000490c:	00812403          	lw	s0,8(sp)
20004910:	01010113          	addi	sp,sp,16
20004914:	00008067          	ret
20004918:	fff00513          	li	a0,-1
2000491c:	fedff06f          	j	20004908 <_Z13SDCardStartupv+0x44>

20004920 <_ZL12get_ldnumberPPKc>:
20004920:	00052f83          	lw	t6,0(a0)
20004924:	0e0f8c63          	beqz	t6,20004a1c <_ZL12get_ldnumberPPKc+0xfc>
20004928:	00050f13          	mv	t5,a0
2000492c:	000f8793          	mv	a5,t6
20004930:	01f00693          	li	a3,31
20004934:	03a00613          	li	a2,58
20004938:	0080006f          	j	20004940 <_ZL12get_ldnumberPPKc+0x20>
2000493c:	00c70c63          	beq	a4,a2,20004954 <_ZL12get_ldnumberPPKc+0x34>
20004940:	0007c703          	lbu	a4,0(a5)
20004944:	00178793          	addi	a5,a5,1
20004948:	fee6eae3          	bltu	a3,a4,2000493c <_ZL12get_ldnumberPPKc+0x1c>
2000494c:	3041c503          	lbu	a0,772(gp) # 2000b0e4 <_ZL7CurrVol>
20004950:	00008067          	ret
20004954:	000fc383          	lbu	t2,0(t6)
20004958:	00900693          	li	a3,9
2000495c:	fd038713          	addi	a4,t2,-48
20004960:	0ff77613          	zext.b	a2,a4
20004964:	08c6fa63          	bgeu	a3,a2,200049f8 <_ZL12get_ldnumberPPKc+0xd8>
20004968:	ff010113          	addi	sp,sp,-16
2000496c:	00812623          	sw	s0,12(sp)
20004970:	00006297          	auipc	t0,0x6
20004974:	bf028293          	addi	t0,t0,-1040 # 2000a560 <_ZL9VolumeStr>
20004978:	00000513          	li	a0,0
2000497c:	01900313          	li	t1,25
20004980:	00300413          	li	s0,3
20004984:	0002a803          	lw	a6,0(t0)
20004988:	00038613          	mv	a2,t2
2000498c:	000f8893          	mv	a7,t6
20004990:	00084683          	lbu	a3,0(a6)
20004994:	f9f60713          	addi	a4,a2,-97
20004998:	fe060e13          	addi	t3,a2,-32
2000499c:	f9f68593          	addi	a1,a3,-97
200049a0:	0ff5f593          	zext.b	a1,a1
200049a4:	fe068e93          	addi	t4,a3,-32
200049a8:	0ff77713          	zext.b	a4,a4
200049ac:	00180813          	addi	a6,a6,1
200049b0:	00188893          	addi	a7,a7,1
200049b4:	00b36c63          	bltu	t1,a1,200049cc <_ZL12get_ldnumberPPKc+0xac>
200049b8:	0ffef693          	zext.b	a3,t4
200049bc:	00e37a63          	bgeu	t1,a4,200049d0 <_ZL12get_ldnumberPPKc+0xb0>
200049c0:	00c69e63          	bne	a3,a2,200049dc <_ZL12get_ldnumberPPKc+0xbc>
200049c4:	0008c603          	lbu	a2,0(a7)
200049c8:	fc9ff06f          	j	20004990 <_ZL12get_ldnumberPPKc+0x70>
200049cc:	00e36463          	bltu	t1,a4,200049d4 <_ZL12get_ldnumberPPKc+0xb4>
200049d0:	0ffe7613          	zext.b	a2,t3
200049d4:	fe0696e3          	bnez	a3,200049c0 <_ZL12get_ldnumberPPKc+0xa0>
200049d8:	03178e63          	beq	a5,a7,20004a14 <_ZL12get_ldnumberPPKc+0xf4>
200049dc:	00150513          	addi	a0,a0,1
200049e0:	00428293          	addi	t0,t0,4
200049e4:	fa8510e3          	bne	a0,s0,20004984 <_ZL12get_ldnumberPPKc+0x64>
200049e8:	fff00513          	li	a0,-1
200049ec:	00c12403          	lw	s0,12(sp)
200049f0:	01010113          	addi	sp,sp,16
200049f4:	00008067          	ret
200049f8:	002f8693          	addi	a3,t6,2
200049fc:	f6d796e3          	bne	a5,a3,20004968 <_ZL12get_ldnumberPPKc+0x48>
20004a00:	00070513          	mv	a0,a4
20004a04:	00200713          	li	a4,2
20004a08:	00a74a63          	blt	a4,a0,20004a1c <_ZL12get_ldnumberPPKc+0xfc>
20004a0c:	00ff2023          	sw	a5,0(t5)
20004a10:	00008067          	ret
20004a14:	00ff2023          	sw	a5,0(t5)
20004a18:	fd5ff06f          	j	200049ec <_ZL12get_ldnumberPPKc+0xcc>
20004a1c:	fff00513          	li	a0,-1
20004a20:	00008067          	ret

20004a24 <_ZL8check_fsP5FATFSm>:
20004a24:	ff010113          	addi	sp,sp,-16
20004a28:	00812423          	sw	s0,8(sp)
20004a2c:	01212023          	sw	s2,0(sp)
20004a30:	00112623          	sw	ra,12(sp)
20004a34:	00912223          	sw	s1,4(sp)
20004a38:	fff00913          	li	s2,-1
20004a3c:	000501a3          	sb	zero,3(a0)
20004a40:	03252623          	sw	s2,44(a0)
20004a44:	00050413          	mv	s0,a0
20004a48:	15259a63          	bne	a1,s2,20004b9c <_ZL8check_fsP5FATFSm+0x178>
20004a4c:	22f44483          	lbu	s1,559(s0)
20004a50:	22e44683          	lbu	a3,558(s0)
20004a54:	03044783          	lbu	a5,48(s0)
20004a58:	00849493          	slli	s1,s1,0x8
20004a5c:	0eb00713          	li	a4,235
20004a60:	00d4e4b3          	or	s1,s1,a3
20004a64:	02e78e63          	beq	a5,a4,20004aa0 <_ZL8check_fsP5FATFSm+0x7c>
20004a68:	01878793          	addi	a5,a5,24
20004a6c:	0ff7f793          	zext.b	a5,a5
20004a70:	00100713          	li	a4,1
20004a74:	02f77663          	bgeu	a4,a5,20004aa0 <_ZL8check_fsP5FATFSm+0x7c>
20004a78:	0000b7b7          	lui	a5,0xb
20004a7c:	a5578793          	addi	a5,a5,-1451 # aa55 <_start-0x1fff55ab>
20004a80:	04f49663          	bne	s1,a5,20004acc <_ZL8check_fsP5FATFSm+0xa8>
20004a84:	00200513          	li	a0,2
20004a88:	00c12083          	lw	ra,12(sp)
20004a8c:	00812403          	lw	s0,8(sp)
20004a90:	00412483          	lw	s1,4(sp)
20004a94:	00012903          	lw	s2,0(sp)
20004a98:	01010113          	addi	sp,sp,16
20004a9c:	00008067          	ret
20004aa0:	0000b7b7          	lui	a5,0xb
20004aa4:	a5578793          	addi	a5,a5,-1451 # aa55 <_start-0x1fff55ab>
20004aa8:	12f48c63          	beq	s1,a5,20004be0 <_ZL8check_fsP5FATFSm+0x1bc>
20004aac:	03c44783          	lbu	a5,60(s0)
20004ab0:	03b44703          	lbu	a4,59(s0)
20004ab4:	03d44683          	lbu	a3,61(s0)
20004ab8:	00879793          	slli	a5,a5,0x8
20004abc:	00e7e7b3          	or	a5,a5,a4
20004ac0:	fff78713          	addi	a4,a5,-1
20004ac4:	00f77733          	and	a4,a4,a5
20004ac8:	02070063          	beqz	a4,20004ae8 <_ZL8check_fsP5FATFSm+0xc4>
20004acc:	00300513          	li	a0,3
20004ad0:	00c12083          	lw	ra,12(sp)
20004ad4:	00812403          	lw	s0,8(sp)
20004ad8:	00412483          	lw	s1,4(sp)
20004adc:	00012903          	lw	s2,0(sp)
20004ae0:	01010113          	addi	sp,sp,16
20004ae4:	00008067          	ret
20004ae8:	20000713          	li	a4,512
20004aec:	fee790e3          	bne	a5,a4,20004acc <_ZL8check_fsP5FATFSm+0xa8>
20004af0:	fc068ee3          	beqz	a3,20004acc <_ZL8check_fsP5FATFSm+0xa8>
20004af4:	fff68793          	addi	a5,a3,-1
20004af8:	00d7f7b3          	and	a5,a5,a3
20004afc:	fc0798e3          	bnez	a5,20004acc <_ZL8check_fsP5FATFSm+0xa8>
20004b00:	03f44783          	lbu	a5,63(s0)
20004b04:	03e44703          	lbu	a4,62(s0)
20004b08:	00879793          	slli	a5,a5,0x8
20004b0c:	00e7e7b3          	or	a5,a5,a4
20004b10:	f60784e3          	beqz	a5,20004a78 <_ZL8check_fsP5FATFSm+0x54>
20004b14:	04044783          	lbu	a5,64(s0)
20004b18:	00100713          	li	a4,1
20004b1c:	fff78793          	addi	a5,a5,-1
20004b20:	f4f76ce3          	bltu	a4,a5,20004a78 <_ZL8check_fsP5FATFSm+0x54>
20004b24:	04244783          	lbu	a5,66(s0)
20004b28:	04144703          	lbu	a4,65(s0)
20004b2c:	00879793          	slli	a5,a5,0x8
20004b30:	00e7e7b3          	or	a5,a5,a4
20004b34:	f40782e3          	beqz	a5,20004a78 <_ZL8check_fsP5FATFSm+0x54>
20004b38:	04444783          	lbu	a5,68(s0)
20004b3c:	04344683          	lbu	a3,67(s0)
20004b40:	07f00713          	li	a4,127
20004b44:	00879793          	slli	a5,a5,0x8
20004b48:	00d7e7b3          	or	a5,a5,a3
20004b4c:	02f76a63          	bltu	a4,a5,20004b80 <_ZL8check_fsP5FATFSm+0x15c>
20004b50:	05144683          	lbu	a3,81(s0)
20004b54:	05044603          	lbu	a2,80(s0)
20004b58:	05244703          	lbu	a4,82(s0)
20004b5c:	05344783          	lbu	a5,83(s0)
20004b60:	00869693          	slli	a3,a3,0x8
20004b64:	00c6e6b3          	or	a3,a3,a2
20004b68:	01071713          	slli	a4,a4,0x10
20004b6c:	00d76733          	or	a4,a4,a3
20004b70:	01879793          	slli	a5,a5,0x18
20004b74:	00e7e7b3          	or	a5,a5,a4
20004b78:	00010737          	lui	a4,0x10
20004b7c:	eee7eee3          	bltu	a5,a4,20004a78 <_ZL8check_fsP5FATFSm+0x54>
20004b80:	04744783          	lbu	a5,71(s0)
20004b84:	04644703          	lbu	a4,70(s0)
20004b88:	00879793          	slli	a5,a5,0x8
20004b8c:	00e7e7b3          	or	a5,a5,a4
20004b90:	ee0784e3          	beqz	a5,20004a78 <_ZL8check_fsP5FATFSm+0x54>
20004b94:	00000513          	li	a0,0
20004b98:	f39ff06f          	j	20004ad0 <_ZL8check_fsP5FATFSm+0xac>
20004b9c:	00154503          	lbu	a0,1(a0)
20004ba0:	00058493          	mv	s1,a1
20004ba4:	00058613          	mv	a2,a1
20004ba8:	00100693          	li	a3,1
20004bac:	03040593          	addi	a1,s0,48
20004bb0:	745020ef          	jal	ra,20007af4 <disk_read>
20004bb4:	00051663          	bnez	a0,20004bc0 <_ZL8check_fsP5FATFSm+0x19c>
20004bb8:	02942623          	sw	s1,44(s0)
20004bbc:	e91ff06f          	j	20004a4c <_ZL8check_fsP5FATFSm+0x28>
20004bc0:	03242623          	sw	s2,44(s0)
20004bc4:	00c12083          	lw	ra,12(sp)
20004bc8:	00812403          	lw	s0,8(sp)
20004bcc:	00412483          	lw	s1,4(sp)
20004bd0:	00012903          	lw	s2,0(sp)
20004bd4:	00400513          	li	a0,4
20004bd8:	01010113          	addi	sp,sp,16
20004bdc:	00008067          	ret
20004be0:	00800613          	li	a2,8
20004be4:	00004597          	auipc	a1,0x4
20004be8:	aa858593          	addi	a1,a1,-1368 # 2000868c <__clz_tab+0xb58>
20004bec:	08240513          	addi	a0,s0,130
20004bf0:	e01fb0ef          	jal	ra,200009f0 <memcmp>
20004bf4:	fa0500e3          	beqz	a0,20004b94 <_ZL8check_fsP5FATFSm+0x170>
20004bf8:	03c44783          	lbu	a5,60(s0)
20004bfc:	03b44703          	lbu	a4,59(s0)
20004c00:	03d44683          	lbu	a3,61(s0)
20004c04:	00879793          	slli	a5,a5,0x8
20004c08:	00e7e7b3          	or	a5,a5,a4
20004c0c:	fff78713          	addi	a4,a5,-1
20004c10:	00f77733          	and	a4,a4,a5
20004c14:	e60718e3          	bnez	a4,20004a84 <_ZL8check_fsP5FATFSm+0x60>
20004c18:	20000713          	li	a4,512
20004c1c:	e6e794e3          	bne	a5,a4,20004a84 <_ZL8check_fsP5FATFSm+0x60>
20004c20:	e60682e3          	beqz	a3,20004a84 <_ZL8check_fsP5FATFSm+0x60>
20004c24:	fff68793          	addi	a5,a3,-1
20004c28:	00d7f7b3          	and	a5,a5,a3
20004c2c:	ec078ae3          	beqz	a5,20004b00 <_ZL8check_fsP5FATFSm+0xdc>
20004c30:	00200513          	li	a0,2
20004c34:	e55ff06f          	j	20004a88 <_ZL8check_fsP5FATFSm+0x64>

20004c38 <_ZL12mount_volumePPKcPP5FATFSh.constprop.0>:
20004c38:	fe010113          	addi	sp,sp,-32
20004c3c:	01212823          	sw	s2,16(sp)
20004c40:	00112e23          	sw	ra,28(sp)
20004c44:	00812c23          	sw	s0,24(sp)
20004c48:	00912a23          	sw	s1,20(sp)
20004c4c:	01312623          	sw	s3,12(sp)
20004c50:	0005a023          	sw	zero,0(a1)
20004c54:	00058913          	mv	s2,a1
20004c58:	cc9ff0ef          	jal	ra,20004920 <_ZL12get_ldnumberPPKc>
20004c5c:	32054663          	bltz	a0,20004f88 <_ZL12mount_volumePPKcPP5FATFSh.constprop.0+0x350>
20004c60:	00251713          	slli	a4,a0,0x2
20004c64:	0f818793          	addi	a5,gp,248 # 2000aed8 <_ZL5FatFs>
20004c68:	00e787b3          	add	a5,a5,a4
20004c6c:	0007a403          	lw	s0,0(a5)
20004c70:	00050493          	mv	s1,a0
20004c74:	32040a63          	beqz	s0,20004fa8 <_ZL12mount_volumePPKcPP5FATFSh.constprop.0+0x370>
20004c78:	00892023          	sw	s0,0(s2)
20004c7c:	00044783          	lbu	a5,0(s0)
20004c80:	00078c63          	beqz	a5,20004c98 <_ZL12mount_volumePPKcPP5FATFSh.constprop.0+0x60>
20004c84:	00144503          	lbu	a0,1(s0)
20004c88:	631020ef          	jal	ra,20007ab8 <disk_status>
20004c8c:	00157793          	andi	a5,a0,1
20004c90:	00000513          	li	a0,0
20004c94:	20078463          	beqz	a5,20004e9c <_ZL12mount_volumePPKcPP5FATFSh.constprop.0+0x264>
20004c98:	0ff4f513          	zext.b	a0,s1
20004c9c:	00040023          	sb	zero,0(s0)
20004ca0:	00a400a3          	sb	a0,1(s0)
20004ca4:	621020ef          	jal	ra,20007ac4 <disk_initialize>
20004ca8:	00157793          	andi	a5,a0,1
20004cac:	00300513          	li	a0,3
20004cb0:	1e079663          	bnez	a5,20004e9c <_ZL12mount_volumePPKcPP5FATFSh.constprop.0+0x264>
20004cb4:	00000593          	li	a1,0
20004cb8:	00040513          	mv	a0,s0
20004cbc:	d69ff0ef          	jal	ra,20004a24 <_ZL8check_fsP5FATFSm>
20004cc0:	00200713          	li	a4,2
20004cc4:	00050793          	mv	a5,a0
20004cc8:	1ee50863          	beq	a0,a4,20004eb8 <_ZL12mount_volumePPKcPP5FATFSh.constprop.0+0x280>
20004ccc:	00400713          	li	a4,4
20004cd0:	00100513          	li	a0,1
20004cd4:	1ce78463          	beq	a5,a4,20004e9c <_ZL12mount_volumePPKcPP5FATFSh.constprop.0+0x264>
20004cd8:	28f56863          	bltu	a0,a5,20004f68 <_ZL12mount_volumePPKcPP5FATFSh.constprop.0+0x330>
20004cdc:	03c44783          	lbu	a5,60(s0)
20004ce0:	03b44683          	lbu	a3,59(s0)
20004ce4:	20000713          	li	a4,512
20004ce8:	00879793          	slli	a5,a5,0x8
20004cec:	00d7e7b3          	or	a5,a5,a3
20004cf0:	02c42503          	lw	a0,44(s0)
20004cf4:	26e79a63          	bne	a5,a4,20004f68 <_ZL12mount_volumePPKcPP5FATFSh.constprop.0+0x330>
20004cf8:	04744783          	lbu	a5,71(s0)
20004cfc:	04644703          	lbu	a4,70(s0)
20004d00:	00879793          	slli	a5,a5,0x8
20004d04:	00e7e7b3          	or	a5,a5,a4
20004d08:	02079663          	bnez	a5,20004d34 <_ZL12mount_volumePPKcPP5FATFSh.constprop.0+0xfc>
20004d0c:	05544683          	lbu	a3,85(s0)
20004d10:	05444603          	lbu	a2,84(s0)
20004d14:	05644703          	lbu	a4,86(s0)
20004d18:	05744783          	lbu	a5,87(s0)
20004d1c:	00869693          	slli	a3,a3,0x8
20004d20:	00c6e6b3          	or	a3,a3,a2
20004d24:	01071713          	slli	a4,a4,0x10
20004d28:	00d76733          	or	a4,a4,a3
20004d2c:	01879793          	slli	a5,a5,0x18
20004d30:	00e7e7b3          	or	a5,a5,a4
20004d34:	04044703          	lbu	a4,64(s0)
20004d38:	00f42c23          	sw	a5,24(s0)
20004d3c:	00100613          	li	a2,1
20004d40:	fff70693          	addi	a3,a4,-1 # ffff <_start-0x1fff0001>
20004d44:	00e40123          	sb	a4,2(s0)
20004d48:	0ff6f693          	zext.b	a3,a3
20004d4c:	20d66e63          	bltu	a2,a3,20004f68 <_ZL12mount_volumePPKcPP5FATFSh.constprop.0+0x330>
20004d50:	03d44883          	lbu	a7,61(s0)
20004d54:	01089693          	slli	a3,a7,0x10
20004d58:	0106d693          	srli	a3,a3,0x10
20004d5c:	00d41523          	sh	a3,10(s0)
20004d60:	20068463          	beqz	a3,20004f68 <_ZL12mount_volumePPKcPP5FATFSh.constprop.0+0x330>
20004d64:	fff88693          	addi	a3,a7,-1
20004d68:	0116f6b3          	and	a3,a3,a7
20004d6c:	1e069e63          	bnez	a3,20004f68 <_ZL12mount_volumePPKcPP5FATFSh.constprop.0+0x330>
20004d70:	04244603          	lbu	a2,66(s0)
20004d74:	04144683          	lbu	a3,65(s0)
20004d78:	00861613          	slli	a2,a2,0x8
20004d7c:	00d66633          	or	a2,a2,a3
20004d80:	00c41423          	sh	a2,8(s0)
20004d84:	00f67693          	andi	a3,a2,15
20004d88:	1e069063          	bnez	a3,20004f68 <_ZL12mount_volumePPKcPP5FATFSh.constprop.0+0x330>
20004d8c:	04444683          	lbu	a3,68(s0)
20004d90:	04344583          	lbu	a1,67(s0)
20004d94:	00869693          	slli	a3,a3,0x8
20004d98:	00b6e6b3          	or	a3,a3,a1
20004d9c:	02069663          	bnez	a3,20004dc8 <_ZL12mount_volumePPKcPP5FATFSh.constprop.0+0x190>
20004da0:	05144803          	lbu	a6,81(s0)
20004da4:	05044303          	lbu	t1,80(s0)
20004da8:	05244583          	lbu	a1,82(s0)
20004dac:	05344683          	lbu	a3,83(s0)
20004db0:	00881813          	slli	a6,a6,0x8
20004db4:	00686833          	or	a6,a6,t1
20004db8:	01059593          	slli	a1,a1,0x10
20004dbc:	0105e5b3          	or	a1,a1,a6
20004dc0:	01869693          	slli	a3,a3,0x18
20004dc4:	00b6e6b3          	or	a3,a3,a1
20004dc8:	03f44583          	lbu	a1,63(s0)
20004dcc:	03e44803          	lbu	a6,62(s0)
20004dd0:	00859593          	slli	a1,a1,0x8
20004dd4:	0105e5b3          	or	a1,a1,a6
20004dd8:	18058863          	beqz	a1,20004f68 <_ZL12mount_volumePPKcPP5FATFSh.constprop.0+0x330>
20004ddc:	02f70733          	mul	a4,a4,a5
20004de0:	00465813          	srli	a6,a2,0x4
20004de4:	00b80833          	add	a6,a6,a1
20004de8:	00e80833          	add	a6,a6,a4
20004dec:	1706ee63          	bltu	a3,a6,20004f68 <_ZL12mount_volumePPKcPP5FATFSh.constprop.0+0x330>
20004df0:	410686b3          	sub	a3,a3,a6
20004df4:	0316d333          	divu	t1,a3,a7
20004df8:	1716e863          	bltu	a3,a7,20004f68 <_ZL12mount_volumePPKcPP5FATFSh.constprop.0+0x330>
20004dfc:	100006b7          	lui	a3,0x10000
20004e00:	ff568693          	addi	a3,a3,-11 # ffffff5 <_start-0x1000000b>
20004e04:	1666e263          	bltu	a3,t1,20004f68 <_ZL12mount_volumePPKcPP5FATFSh.constprop.0+0x330>
20004e08:	000106b7          	lui	a3,0x10
20004e0c:	ff568693          	addi	a3,a3,-11 # fff5 <_start-0x1fff000b>
20004e10:	00230893          	addi	a7,t1,2
20004e14:	00b505b3          	add	a1,a0,a1
20004e18:	01050833          	add	a6,a0,a6
20004e1c:	2066e063          	bltu	a3,t1,2000501c <_ZL12mount_volumePPKcPP5FATFSh.constprop.0+0x3e4>
20004e20:	000016b7          	lui	a3,0x1
20004e24:	ff568693          	addi	a3,a3,-11 # ff5 <_start-0x1ffff00b>
20004e28:	01142a23          	sw	a7,20(s0)
20004e2c:	00a42e23          	sw	a0,28(s0)
20004e30:	02b42023          	sw	a1,32(s0)
20004e34:	03042423          	sw	a6,40(s0)
20004e38:	2466e063          	bltu	a3,t1,20005078 <_ZL12mount_volumePPKcPP5FATFSh.constprop.0+0x440>
20004e3c:	12060663          	beqz	a2,20004f68 <_ZL12mount_volumePPKcPP5FATFSh.constprop.0+0x330>
20004e40:	00189693          	slli	a3,a7,0x1
20004e44:	011686b3          	add	a3,a3,a7
20004e48:	0016d693          	srli	a3,a3,0x1
20004e4c:	0018f893          	andi	a7,a7,1
20004e50:	00b70733          	add	a4,a4,a1
20004e54:	011686b3          	add	a3,a3,a7
20004e58:	00100613          	li	a2,1
20004e5c:	1ff68693          	addi	a3,a3,511
20004e60:	02e42223          	sw	a4,36(s0)
20004e64:	0096d713          	srli	a4,a3,0x9
20004e68:	10e7e063          	bltu	a5,a4,20004f68 <_ZL12mount_volumePPKcPP5FATFSh.constprop.0+0x330>
20004e6c:	0f418713          	addi	a4,gp,244 # 2000aed4 <_ZL4Fsid>
20004e70:	00075783          	lhu	a5,0(a4)
20004e74:	00c40023          	sb	a2,0(s0)
20004e78:	00042823          	sw	zero,16(s0)
20004e7c:	00178793          	addi	a5,a5,1
20004e80:	01079793          	slli	a5,a5,0x10
20004e84:	0107d793          	srli	a5,a5,0x10
20004e88:	00f71023          	sh	a5,0(a4)
20004e8c:	00f41323          	sh	a5,6(s0)
20004e90:	10418793          	addi	a5,gp,260 # 2000aee4 <_ZL6LfnBuf>
20004e94:	00f42623          	sw	a5,12(s0)
20004e98:	00000513          	li	a0,0
20004e9c:	01c12083          	lw	ra,28(sp)
20004ea0:	01812403          	lw	s0,24(sp)
20004ea4:	01412483          	lw	s1,20(sp)
20004ea8:	01012903          	lw	s2,16(sp)
20004eac:	00c12983          	lw	s3,12(sp)
20004eb0:	02010113          	addi	sp,sp,32
20004eb4:	00008067          	ret
20004eb8:	1f744303          	lbu	t1,503(s0)
20004ebc:	1f644f83          	lbu	t6,502(s0)
20004ec0:	1f844603          	lbu	a2,504(s0)
20004ec4:	20744883          	lbu	a7,519(s0)
20004ec8:	21744803          	lbu	a6,535(s0)
20004ecc:	22744503          	lbu	a0,551(s0)
20004ed0:	1f944583          	lbu	a1,505(s0)
20004ed4:	20644f03          	lbu	t5,518(s0)
20004ed8:	20844683          	lbu	a3,520(s0)
20004edc:	21644e83          	lbu	t4,534(s0)
20004ee0:	21844703          	lbu	a4,536(s0)
20004ee4:	22644e03          	lbu	t3,550(s0)
20004ee8:	22844783          	lbu	a5,552(s0)
20004eec:	20944483          	lbu	s1,521(s0)
20004ef0:	21944903          	lbu	s2,537(s0)
20004ef4:	22944983          	lbu	s3,553(s0)
20004ef8:	00831313          	slli	t1,t1,0x8
20004efc:	01f36333          	or	t1,t1,t6
20004f00:	01061613          	slli	a2,a2,0x10
20004f04:	00889893          	slli	a7,a7,0x8
20004f08:	00881813          	slli	a6,a6,0x8
20004f0c:	00851513          	slli	a0,a0,0x8
20004f10:	00666633          	or	a2,a2,t1
20004f14:	01859593          	slli	a1,a1,0x18
20004f18:	01e8e8b3          	or	a7,a7,t5
20004f1c:	01069693          	slli	a3,a3,0x10
20004f20:	01d86833          	or	a6,a6,t4
20004f24:	01071713          	slli	a4,a4,0x10
20004f28:	01c56533          	or	a0,a0,t3
20004f2c:	01079793          	slli	a5,a5,0x10
20004f30:	0116e6b3          	or	a3,a3,a7
20004f34:	01849493          	slli	s1,s1,0x18
20004f38:	01076733          	or	a4,a4,a6
20004f3c:	01891913          	slli	s2,s2,0x18
20004f40:	00a7e7b3          	or	a5,a5,a0
20004f44:	01899993          	slli	s3,s3,0x18
20004f48:	00c5e5b3          	or	a1,a1,a2
20004f4c:	00d4e4b3          	or	s1,s1,a3
20004f50:	00e96933          	or	s2,s2,a4
20004f54:	00f9e9b3          	or	s3,s3,a5
20004f58:	04059c63          	bnez	a1,20004fb0 <_ZL12mount_volumePPKcPP5FATFSh.constprop.0+0x378>
20004f5c:	06049463          	bnez	s1,20004fc4 <_ZL12mount_volumePPKcPP5FATFSh.constprop.0+0x38c>
20004f60:	06091e63          	bnez	s2,20004fdc <_ZL12mount_volumePPKcPP5FATFSh.constprop.0+0x3a4>
20004f64:	08099863          	bnez	s3,20004ff4 <_ZL12mount_volumePPKcPP5FATFSh.constprop.0+0x3bc>
20004f68:	01c12083          	lw	ra,28(sp)
20004f6c:	01812403          	lw	s0,24(sp)
20004f70:	01412483          	lw	s1,20(sp)
20004f74:	01012903          	lw	s2,16(sp)
20004f78:	00c12983          	lw	s3,12(sp)
20004f7c:	00d00513          	li	a0,13
20004f80:	02010113          	addi	sp,sp,32
20004f84:	00008067          	ret
20004f88:	01c12083          	lw	ra,28(sp)
20004f8c:	01812403          	lw	s0,24(sp)
20004f90:	01412483          	lw	s1,20(sp)
20004f94:	01012903          	lw	s2,16(sp)
20004f98:	00c12983          	lw	s3,12(sp)
20004f9c:	00b00513          	li	a0,11
20004fa0:	02010113          	addi	sp,sp,32
20004fa4:	00008067          	ret
20004fa8:	00c00513          	li	a0,12
20004fac:	ef1ff06f          	j	20004e9c <_ZL12mount_volumePPKcPP5FATFSh.constprop.0+0x264>
20004fb0:	00040513          	mv	a0,s0
20004fb4:	a71ff0ef          	jal	ra,20004a24 <_ZL8check_fsP5FATFSm>
20004fb8:	00100793          	li	a5,1
20004fbc:	d2a7f0e3          	bgeu	a5,a0,20004cdc <_ZL12mount_volumePPKcPP5FATFSh.constprop.0+0xa4>
20004fc0:	fa0480e3          	beqz	s1,20004f60 <_ZL12mount_volumePPKcPP5FATFSh.constprop.0+0x328>
20004fc4:	00048593          	mv	a1,s1
20004fc8:	00040513          	mv	a0,s0
20004fcc:	a59ff0ef          	jal	ra,20004a24 <_ZL8check_fsP5FATFSm>
20004fd0:	00100793          	li	a5,1
20004fd4:	d0a7f4e3          	bgeu	a5,a0,20004cdc <_ZL12mount_volumePPKcPP5FATFSh.constprop.0+0xa4>
20004fd8:	f80906e3          	beqz	s2,20004f64 <_ZL12mount_volumePPKcPP5FATFSh.constprop.0+0x32c>
20004fdc:	00090593          	mv	a1,s2
20004fe0:	00040513          	mv	a0,s0
20004fe4:	a41ff0ef          	jal	ra,20004a24 <_ZL8check_fsP5FATFSm>
20004fe8:	00100793          	li	a5,1
20004fec:	cea7f8e3          	bgeu	a5,a0,20004cdc <_ZL12mount_volumePPKcPP5FATFSh.constprop.0+0xa4>
20004ff0:	f6098ce3          	beqz	s3,20004f68 <_ZL12mount_volumePPKcPP5FATFSh.constprop.0+0x330>
20004ff4:	00098593          	mv	a1,s3
20004ff8:	00040513          	mv	a0,s0
20004ffc:	a29ff0ef          	jal	ra,20004a24 <_ZL8check_fsP5FATFSm>
20005000:	00100713          	li	a4,1
20005004:	00050793          	mv	a5,a0
20005008:	cca77ae3          	bgeu	a4,a0,20004cdc <_ZL12mount_volumePPKcPP5FATFSh.constprop.0+0xa4>
2000500c:	00400713          	li	a4,4
20005010:	00100513          	li	a0,1
20005014:	e8e784e3          	beq	a5,a4,20004e9c <_ZL12mount_volumePPKcPP5FATFSh.constprop.0+0x264>
20005018:	f51ff06f          	j	20004f68 <_ZL12mount_volumePPKcPP5FATFSh.constprop.0+0x330>
2000501c:	05b44703          	lbu	a4,91(s0)
20005020:	05a44683          	lbu	a3,90(s0)
20005024:	01142a23          	sw	a7,20(s0)
20005028:	00871713          	slli	a4,a4,0x8
2000502c:	00d76733          	or	a4,a4,a3
20005030:	00a42e23          	sw	a0,28(s0)
20005034:	02b42023          	sw	a1,32(s0)
20005038:	03042423          	sw	a6,40(s0)
2000503c:	00e66733          	or	a4,a2,a4
20005040:	f20714e3          	bnez	a4,20004f68 <_ZL12mount_volumePPKcPP5FATFSh.constprop.0+0x330>
20005044:	05d44603          	lbu	a2,93(s0)
20005048:	05c44583          	lbu	a1,92(s0)
2000504c:	05e44683          	lbu	a3,94(s0)
20005050:	05f44703          	lbu	a4,95(s0)
20005054:	00861613          	slli	a2,a2,0x8
20005058:	00b66633          	or	a2,a2,a1
2000505c:	01069693          	slli	a3,a3,0x10
20005060:	00c6e6b3          	or	a3,a3,a2
20005064:	01871713          	slli	a4,a4,0x18
20005068:	00d76733          	or	a4,a4,a3
2000506c:	00300613          	li	a2,3
20005070:	00289693          	slli	a3,a7,0x2
20005074:	de9ff06f          	j	20004e5c <_ZL12mount_volumePPKcPP5FATFSh.constprop.0+0x224>
20005078:	ee0608e3          	beqz	a2,20004f68 <_ZL12mount_volumePPKcPP5FATFSh.constprop.0+0x330>
2000507c:	00b70733          	add	a4,a4,a1
20005080:	00189693          	slli	a3,a7,0x1
20005084:	00200613          	li	a2,2
20005088:	dd5ff06f          	j	20004e5c <_ZL12mount_volumePPKcPP5FATFSh.constprop.0+0x224>

2000508c <_ZL7get_fatP7FFOBJIDm.isra.0>:
2000508c:	00100793          	li	a5,1
20005090:	06b7f663          	bgeu	a5,a1,200050fc <_ZL7get_fatP7FFOBJIDm.isra.0+0x70>
20005094:	01452703          	lw	a4,20(a0)
20005098:	fe010113          	addi	sp,sp,-32
2000509c:	00812c23          	sw	s0,24(sp)
200050a0:	00912a23          	sw	s1,20(sp)
200050a4:	00112e23          	sw	ra,28(sp)
200050a8:	01212823          	sw	s2,16(sp)
200050ac:	01312623          	sw	s3,12(sp)
200050b0:	01412423          	sw	s4,8(sp)
200050b4:	00050493          	mv	s1,a0
200050b8:	00058413          	mv	s0,a1
200050bc:	00100513          	li	a0,1
200050c0:	00e5fe63          	bgeu	a1,a4,200050dc <_ZL7get_fatP7FFOBJIDm.isra.0+0x50>
200050c4:	0004c703          	lbu	a4,0(s1)
200050c8:	00200693          	li	a3,2
200050cc:	0ed70663          	beq	a4,a3,200051b8 <_ZL7get_fatP7FFOBJIDm.isra.0+0x12c>
200050d0:	00300693          	li	a3,3
200050d4:	08d70663          	beq	a4,a3,20005160 <_ZL7get_fatP7FFOBJIDm.isra.0+0xd4>
200050d8:	02f70663          	beq	a4,a5,20005104 <_ZL7get_fatP7FFOBJIDm.isra.0+0x78>
200050dc:	01c12083          	lw	ra,28(sp)
200050e0:	01812403          	lw	s0,24(sp)
200050e4:	01412483          	lw	s1,20(sp)
200050e8:	01012903          	lw	s2,16(sp)
200050ec:	00c12983          	lw	s3,12(sp)
200050f0:	00812a03          	lw	s4,8(sp)
200050f4:	02010113          	addi	sp,sp,32
200050f8:	00008067          	ret
200050fc:	00100513          	li	a0,1
20005100:	00008067          	ret
20005104:	0204a703          	lw	a4,32(s1)
20005108:	0015d913          	srli	s2,a1,0x1
2000510c:	00b90933          	add	s2,s2,a1
20005110:	02c4a783          	lw	a5,44(s1)
20005114:	00995993          	srli	s3,s2,0x9
20005118:	00e989b3          	add	s3,s3,a4
2000511c:	10f99a63          	bne	s3,a5,20005230 <_ZL7get_fatP7FFOBJIDm.isra.0+0x1a4>
20005120:	00190993          	addi	s3,s2,1
20005124:	0099da13          	srli	s4,s3,0x9
20005128:	1ff97913          	andi	s2,s2,511
2000512c:	01248933          	add	s2,s1,s2
20005130:	00ea0a33          	add	s4,s4,a4
20005134:	03094903          	lbu	s2,48(s2)
20005138:	12fa1063          	bne	s4,a5,20005258 <_ZL7get_fatP7FFOBJIDm.isra.0+0x1cc>
2000513c:	1ff9f993          	andi	s3,s3,511
20005140:	013489b3          	add	s3,s1,s3
20005144:	0309c503          	lbu	a0,48(s3)
20005148:	00147413          	andi	s0,s0,1
2000514c:	00851513          	slli	a0,a0,0x8
20005150:	01256533          	or	a0,a0,s2
20005154:	12040263          	beqz	s0,20005278 <_ZL7get_fatP7FFOBJIDm.isra.0+0x1ec>
20005158:	00455513          	srli	a0,a0,0x4
2000515c:	f81ff06f          	j	200050dc <_ZL7get_fatP7FFOBJIDm.isra.0+0x50>
20005160:	0204a703          	lw	a4,32(s1)
20005164:	02c4a783          	lw	a5,44(s1)
20005168:	0075d993          	srli	s3,a1,0x7
2000516c:	00e989b3          	add	s3,s3,a4
20005170:	03048913          	addi	s2,s1,48
20005174:	08f99e63          	bne	s3,a5,20005210 <_ZL7get_fatP7FFOBJIDm.isra.0+0x184>
20005178:	00241413          	slli	s0,s0,0x2
2000517c:	1fc47413          	andi	s0,s0,508
20005180:	008905b3          	add	a1,s2,s0
20005184:	0015c703          	lbu	a4,1(a1)
20005188:	0005c683          	lbu	a3,0(a1)
2000518c:	0025c783          	lbu	a5,2(a1)
20005190:	0035c503          	lbu	a0,3(a1)
20005194:	00871713          	slli	a4,a4,0x8
20005198:	00d76733          	or	a4,a4,a3
2000519c:	01079793          	slli	a5,a5,0x10
200051a0:	00e7e7b3          	or	a5,a5,a4
200051a4:	01851513          	slli	a0,a0,0x18
200051a8:	00f56533          	or	a0,a0,a5
200051ac:	00451513          	slli	a0,a0,0x4
200051b0:	00455513          	srli	a0,a0,0x4
200051b4:	f29ff06f          	j	200050dc <_ZL7get_fatP7FFOBJIDm.isra.0+0x50>
200051b8:	0204a703          	lw	a4,32(s1)
200051bc:	02c4a783          	lw	a5,44(s1)
200051c0:	0085d993          	srli	s3,a1,0x8
200051c4:	00e989b3          	add	s3,s3,a4
200051c8:	03048913          	addi	s2,s1,48
200051cc:	02f99263          	bne	s3,a5,200051f0 <_ZL7get_fatP7FFOBJIDm.isra.0+0x164>
200051d0:	00141413          	slli	s0,s0,0x1
200051d4:	1fe47413          	andi	s0,s0,510
200051d8:	008905b3          	add	a1,s2,s0
200051dc:	0015c503          	lbu	a0,1(a1)
200051e0:	0005c783          	lbu	a5,0(a1)
200051e4:	00851513          	slli	a0,a0,0x8
200051e8:	00f56533          	or	a0,a0,a5
200051ec:	ef1ff06f          	j	200050dc <_ZL7get_fatP7FFOBJIDm.isra.0+0x50>
200051f0:	0014c503          	lbu	a0,1(s1)
200051f4:	00100693          	li	a3,1
200051f8:	00098613          	mv	a2,s3
200051fc:	00090593          	mv	a1,s2
20005200:	0f5020ef          	jal	ra,20007af4 <disk_read>
20005204:	08051063          	bnez	a0,20005284 <_ZL7get_fatP7FFOBJIDm.isra.0+0x1f8>
20005208:	0334a623          	sw	s3,44(s1)
2000520c:	fc5ff06f          	j	200051d0 <_ZL7get_fatP7FFOBJIDm.isra.0+0x144>
20005210:	0014c503          	lbu	a0,1(s1)
20005214:	00100693          	li	a3,1
20005218:	00098613          	mv	a2,s3
2000521c:	00090593          	mv	a1,s2
20005220:	0d5020ef          	jal	ra,20007af4 <disk_read>
20005224:	06051063          	bnez	a0,20005284 <_ZL7get_fatP7FFOBJIDm.isra.0+0x1f8>
20005228:	0334a623          	sw	s3,44(s1)
2000522c:	f4dff06f          	j	20005178 <_ZL7get_fatP7FFOBJIDm.isra.0+0xec>
20005230:	0014c503          	lbu	a0,1(s1)
20005234:	00100693          	li	a3,1
20005238:	00098613          	mv	a2,s3
2000523c:	03048593          	addi	a1,s1,48
20005240:	0b5020ef          	jal	ra,20007af4 <disk_read>
20005244:	04051063          	bnez	a0,20005284 <_ZL7get_fatP7FFOBJIDm.isra.0+0x1f8>
20005248:	0204a703          	lw	a4,32(s1)
2000524c:	0334a623          	sw	s3,44(s1)
20005250:	00098793          	mv	a5,s3
20005254:	ecdff06f          	j	20005120 <_ZL7get_fatP7FFOBJIDm.isra.0+0x94>
20005258:	0014c503          	lbu	a0,1(s1)
2000525c:	00100693          	li	a3,1
20005260:	000a0613          	mv	a2,s4
20005264:	03048593          	addi	a1,s1,48
20005268:	08d020ef          	jal	ra,20007af4 <disk_read>
2000526c:	00051c63          	bnez	a0,20005284 <_ZL7get_fatP7FFOBJIDm.isra.0+0x1f8>
20005270:	0344a623          	sw	s4,44(s1)
20005274:	ec9ff06f          	j	2000513c <_ZL7get_fatP7FFOBJIDm.isra.0+0xb0>
20005278:	01451513          	slli	a0,a0,0x14
2000527c:	01455513          	srli	a0,a0,0x14
20005280:	e5dff06f          	j	200050dc <_ZL7get_fatP7FFOBJIDm.isra.0+0x50>
20005284:	fff00793          	li	a5,-1
20005288:	02f4a623          	sw	a5,44(s1)
2000528c:	fff00513          	li	a0,-1
20005290:	e4dff06f          	j	200050dc <_ZL7get_fatP7FFOBJIDm.isra.0+0x50>

20005294 <_ZL7dir_sdiP3DIRm.constprop.0>:
20005294:	fc010113          	addi	sp,sp,-64
20005298:	02812c23          	sw	s0,56(sp)
2000529c:	00852403          	lw	s0,8(a0)
200052a0:	03612023          	sw	s6,32(sp)
200052a4:	01712e23          	sw	s7,28(sp)
200052a8:	02112e23          	sw	ra,60(sp)
200052ac:	02912a23          	sw	s1,52(sp)
200052b0:	03212823          	sw	s2,48(sp)
200052b4:	03312623          	sw	s3,44(sp)
200052b8:	03412423          	sw	s4,40(sp)
200052bc:	03512223          	sw	s5,36(sp)
200052c0:	01812c23          	sw	s8,24(sp)
200052c4:	01912a23          	sw	s9,20(sp)
200052c8:	01a12823          	sw	s10,16(sp)
200052cc:	01b12623          	sw	s11,12(sp)
200052d0:	00052823          	sw	zero,16(a0)
200052d4:	00052b83          	lw	s7,0(a0)
200052d8:	00050b13          	mv	s6,a0
200052dc:	0c041263          	bnez	s0,200053a0 <_ZL7dir_sdiP3DIRm.constprop.0+0x10c>
200052e0:	000bc703          	lbu	a4,0(s7)
200052e4:	00200793          	li	a5,2
200052e8:	0ae7e663          	bltu	a5,a4,20005394 <_ZL7dir_sdiP3DIRm.constprop.0+0x100>
200052ec:	008bd783          	lhu	a5,8(s7)
200052f0:	08078e63          	beqz	a5,2000538c <_ZL7dir_sdiP3DIRm.constprop.0+0xf8>
200052f4:	024ba703          	lw	a4,36(s7)
200052f8:	00eb2c23          	sw	a4,24(s6)
200052fc:	008b2a23          	sw	s0,20(s6)
20005300:	08070663          	beqz	a4,2000538c <_ZL7dir_sdiP3DIRm.constprop.0+0xf8>
20005304:	030b8793          	addi	a5,s7,48
20005308:	00fb2e23          	sw	a5,28(s6)
2000530c:	00000513          	li	a0,0
20005310:	03c12083          	lw	ra,60(sp)
20005314:	03812403          	lw	s0,56(sp)
20005318:	03412483          	lw	s1,52(sp)
2000531c:	03012903          	lw	s2,48(sp)
20005320:	02c12983          	lw	s3,44(sp)
20005324:	02812a03          	lw	s4,40(sp)
20005328:	02412a83          	lw	s5,36(sp)
2000532c:	02012b03          	lw	s6,32(sp)
20005330:	01c12b83          	lw	s7,28(sp)
20005334:	01812c03          	lw	s8,24(sp)
20005338:	01412c83          	lw	s9,20(sp)
2000533c:	01012d03          	lw	s10,16(sp)
20005340:	00c12d83          	lw	s11,12(sp)
20005344:	04010113          	addi	sp,sp,64
20005348:	00008067          	ret
2000534c:	0204a703          	lw	a4,32(s1)
20005350:	02c4a783          	lw	a5,44(s1)
20005354:	00845a93          	srli	s5,s0,0x8
20005358:	00ea8ab3          	add	s5,s5,a4
2000535c:	03048913          	addi	s2,s1,48
20005360:	12fa9c63          	bne	s5,a5,20005498 <_ZL7dir_sdiP3DIRm.constprop.0+0x204>
20005364:	00141413          	slli	s0,s0,0x1
20005368:	1fe47413          	andi	s0,s0,510
2000536c:	008905b3          	add	a1,s2,s0
20005370:	0015c403          	lbu	s0,1(a1)
20005374:	0005c783          	lbu	a5,0(a1)
20005378:	00841413          	slli	s0,s0,0x8
2000537c:	00f46433          	or	s0,s0,a5
20005380:	008c7663          	bgeu	s8,s0,2000538c <_ZL7dir_sdiP3DIRm.constprop.0+0xf8>
20005384:	014ba703          	lw	a4,20(s7)
20005388:	02e46e63          	bltu	s0,a4,200053c4 <_ZL7dir_sdiP3DIRm.constprop.0+0x130>
2000538c:	00200513          	li	a0,2
20005390:	f81ff06f          	j	20005310 <_ZL7dir_sdiP3DIRm.constprop.0+0x7c>
20005394:	024ba783          	lw	a5,36(s7)
20005398:	f4078ae3          	beqz	a5,200052ec <_ZL7dir_sdiP3DIRm.constprop.0+0x58>
2000539c:	00078413          	mv	s0,a5
200053a0:	00abd703          	lhu	a4,10(s7)
200053a4:	100009b7          	lui	s3,0x10000
200053a8:	00001a37          	lui	s4,0x1
200053ac:	00100c13          	li	s8,1
200053b0:	00200d13          	li	s10,2
200053b4:	00300c93          	li	s9,3
200053b8:	fff98993          	addi	s3,s3,-1 # fffffff <_start-0x10000001>
200053bc:	fffa0a13          	addi	s4,s4,-1 # fff <_start-0x1ffff001>
200053c0:	16071863          	bnez	a4,20005530 <_ZL7dir_sdiP3DIRm.constprop.0+0x29c>
200053c4:	000b2483          	lw	s1,0(s6)
200053c8:	fc8c72e3          	bgeu	s8,s0,2000538c <_ZL7dir_sdiP3DIRm.constprop.0+0xf8>
200053cc:	0144a703          	lw	a4,20(s1)
200053d0:	fae47ee3          	bgeu	s0,a4,2000538c <_ZL7dir_sdiP3DIRm.constprop.0+0xf8>
200053d4:	0004c703          	lbu	a4,0(s1)
200053d8:	f7a70ae3          	beq	a4,s10,2000534c <_ZL7dir_sdiP3DIRm.constprop.0+0xb8>
200053dc:	07970463          	beq	a4,s9,20005444 <_ZL7dir_sdiP3DIRm.constprop.0+0x1b0>
200053e0:	fb8716e3          	bne	a4,s8,2000538c <_ZL7dir_sdiP3DIRm.constprop.0+0xf8>
200053e4:	0204a703          	lw	a4,32(s1)
200053e8:	00145913          	srli	s2,s0,0x1
200053ec:	00890933          	add	s2,s2,s0
200053f0:	02c4a783          	lw	a5,44(s1)
200053f4:	00995a93          	srli	s5,s2,0x9
200053f8:	00ea8ab3          	add	s5,s5,a4
200053fc:	0cfa9e63          	bne	s5,a5,200054d8 <_ZL7dir_sdiP3DIRm.constprop.0+0x244>
20005400:	00190a93          	addi	s5,s2,1
20005404:	009add93          	srli	s11,s5,0x9
20005408:	1ff97913          	andi	s2,s2,511
2000540c:	01248933          	add	s2,s1,s2
20005410:	00ed8db3          	add	s11,s11,a4
20005414:	03094903          	lbu	s2,48(s2)
20005418:	0efd9463          	bne	s11,a5,20005500 <_ZL7dir_sdiP3DIRm.constprop.0+0x26c>
2000541c:	1ffafa93          	andi	s5,s5,511
20005420:	01548ab3          	add	s5,s1,s5
20005424:	030ac783          	lbu	a5,48(s5)
20005428:	00147713          	andi	a4,s0,1
2000542c:	00879793          	slli	a5,a5,0x8
20005430:	0127e7b3          	or	a5,a5,s2
20005434:	0147f433          	and	s0,a5,s4
20005438:	f40704e3          	beqz	a4,20005380 <_ZL7dir_sdiP3DIRm.constprop.0+0xec>
2000543c:	0047d413          	srli	s0,a5,0x4
20005440:	f41ff06f          	j	20005380 <_ZL7dir_sdiP3DIRm.constprop.0+0xec>
20005444:	0204a703          	lw	a4,32(s1)
20005448:	02c4a783          	lw	a5,44(s1)
2000544c:	00745a93          	srli	s5,s0,0x7
20005450:	00ea8ab3          	add	s5,s5,a4
20005454:	03048913          	addi	s2,s1,48
20005458:	06fa9063          	bne	s5,a5,200054b8 <_ZL7dir_sdiP3DIRm.constprop.0+0x224>
2000545c:	00241413          	slli	s0,s0,0x2
20005460:	1fc47413          	andi	s0,s0,508
20005464:	008905b3          	add	a1,s2,s0
20005468:	0015c703          	lbu	a4,1(a1)
2000546c:	0005c683          	lbu	a3,0(a1)
20005470:	0025c783          	lbu	a5,2(a1)
20005474:	0035c403          	lbu	s0,3(a1)
20005478:	00871713          	slli	a4,a4,0x8
2000547c:	00d76733          	or	a4,a4,a3
20005480:	01079793          	slli	a5,a5,0x10
20005484:	00e7e7b3          	or	a5,a5,a4
20005488:	01841413          	slli	s0,s0,0x18
2000548c:	00f46433          	or	s0,s0,a5
20005490:	01347433          	and	s0,s0,s3
20005494:	eedff06f          	j	20005380 <_ZL7dir_sdiP3DIRm.constprop.0+0xec>
20005498:	0014c503          	lbu	a0,1(s1)
2000549c:	00100693          	li	a3,1
200054a0:	000a8613          	mv	a2,s5
200054a4:	00090593          	mv	a1,s2
200054a8:	64c020ef          	jal	ra,20007af4 <disk_read>
200054ac:	06051a63          	bnez	a0,20005520 <_ZL7dir_sdiP3DIRm.constprop.0+0x28c>
200054b0:	0354a623          	sw	s5,44(s1)
200054b4:	eb1ff06f          	j	20005364 <_ZL7dir_sdiP3DIRm.constprop.0+0xd0>
200054b8:	0014c503          	lbu	a0,1(s1)
200054bc:	00100693          	li	a3,1
200054c0:	000a8613          	mv	a2,s5
200054c4:	00090593          	mv	a1,s2
200054c8:	62c020ef          	jal	ra,20007af4 <disk_read>
200054cc:	04051a63          	bnez	a0,20005520 <_ZL7dir_sdiP3DIRm.constprop.0+0x28c>
200054d0:	0354a623          	sw	s5,44(s1)
200054d4:	f89ff06f          	j	2000545c <_ZL7dir_sdiP3DIRm.constprop.0+0x1c8>
200054d8:	0014c503          	lbu	a0,1(s1)
200054dc:	00100693          	li	a3,1
200054e0:	000a8613          	mv	a2,s5
200054e4:	03048593          	addi	a1,s1,48
200054e8:	60c020ef          	jal	ra,20007af4 <disk_read>
200054ec:	02051a63          	bnez	a0,20005520 <_ZL7dir_sdiP3DIRm.constprop.0+0x28c>
200054f0:	0204a703          	lw	a4,32(s1)
200054f4:	0354a623          	sw	s5,44(s1)
200054f8:	000a8793          	mv	a5,s5
200054fc:	f05ff06f          	j	20005400 <_ZL7dir_sdiP3DIRm.constprop.0+0x16c>
20005500:	0014c503          	lbu	a0,1(s1)
20005504:	00100693          	li	a3,1
20005508:	000d8613          	mv	a2,s11
2000550c:	03048593          	addi	a1,s1,48
20005510:	5e4020ef          	jal	ra,20007af4 <disk_read>
20005514:	00051663          	bnez	a0,20005520 <_ZL7dir_sdiP3DIRm.constprop.0+0x28c>
20005518:	03b4a623          	sw	s11,44(s1)
2000551c:	f01ff06f          	j	2000541c <_ZL7dir_sdiP3DIRm.constprop.0+0x188>
20005520:	fff00793          	li	a5,-1
20005524:	02f4a623          	sw	a5,44(s1)
20005528:	00100513          	li	a0,1
2000552c:	de5ff06f          	j	20005310 <_ZL7dir_sdiP3DIRm.constprop.0+0x7c>
20005530:	014ba783          	lw	a5,20(s7)
20005534:	ffe40693          	addi	a3,s0,-2
20005538:	ffe78793          	addi	a5,a5,-2
2000553c:	00f6fa63          	bgeu	a3,a5,20005550 <_ZL7dir_sdiP3DIRm.constprop.0+0x2bc>
20005540:	02d70733          	mul	a4,a4,a3
20005544:	028ba783          	lw	a5,40(s7)
20005548:	00f70733          	add	a4,a4,a5
2000554c:	dadff06f          	j	200052f8 <_ZL7dir_sdiP3DIRm.constprop.0+0x64>
20005550:	000b2c23          	sw	zero,24(s6)
20005554:	008b2a23          	sw	s0,20(s6)
20005558:	00200513          	li	a0,2
2000555c:	db5ff06f          	j	20005310 <_ZL7dir_sdiP3DIRm.constprop.0+0x7c>

20005560 <_ZL11follow_pathP3DIRPKc>:
20005560:	fa010113          	addi	sp,sp,-96
20005564:	04812c23          	sw	s0,88(sp)
20005568:	03912a23          	sw	s9,52(sp)
2000556c:	00052783          	lw	a5,0(a0)
20005570:	04112e23          	sw	ra,92(sp)
20005574:	04912a23          	sw	s1,84(sp)
20005578:	05212823          	sw	s2,80(sp)
2000557c:	05312623          	sw	s3,76(sp)
20005580:	05412423          	sw	s4,72(sp)
20005584:	05512223          	sw	s5,68(sp)
20005588:	05612023          	sw	s6,64(sp)
2000558c:	03712e23          	sw	s7,60(sp)
20005590:	03812c23          	sw	s8,56(sp)
20005594:	03a12823          	sw	s10,48(sp)
20005598:	03b12623          	sw	s11,44(sp)
2000559c:	0005c703          	lbu	a4,0(a1)
200055a0:	02f00693          	li	a3,47
200055a4:	00f12423          	sw	a5,8(sp)
200055a8:	00058c93          	mv	s9,a1
200055ac:	00050413          	mv	s0,a0
200055b0:	06d70663          	beq	a4,a3,2000561c <_ZL11follow_pathP3DIRPKc+0xbc>
200055b4:	05c00693          	li	a3,92
200055b8:	06d70263          	beq	a4,a3,2000561c <_ZL11follow_pathP3DIRPKc+0xbc>
200055bc:	0107a703          	lw	a4,16(a5)
200055c0:	01f00693          	li	a3,31
200055c4:	00e42423          	sw	a4,8(s0)
200055c8:	000cc603          	lbu	a2,0(s9)
200055cc:	00812703          	lw	a4,8(sp)
200055d0:	08c6e063          	bltu	a3,a2,20005650 <_ZL11follow_pathP3DIRPKc+0xf0>
200055d4:	f8000793          	li	a5,-128
200055d8:	02f405a3          	sb	a5,43(s0)
200055dc:	00040513          	mv	a0,s0
200055e0:	05812403          	lw	s0,88(sp)
200055e4:	05c12083          	lw	ra,92(sp)
200055e8:	05412483          	lw	s1,84(sp)
200055ec:	05012903          	lw	s2,80(sp)
200055f0:	04c12983          	lw	s3,76(sp)
200055f4:	04812a03          	lw	s4,72(sp)
200055f8:	04412a83          	lw	s5,68(sp)
200055fc:	04012b03          	lw	s6,64(sp)
20005600:	03c12b83          	lw	s7,60(sp)
20005604:	03812c03          	lw	s8,56(sp)
20005608:	03412c83          	lw	s9,52(sp)
2000560c:	03012d03          	lw	s10,48(sp)
20005610:	02c12d83          	lw	s11,44(sp)
20005614:	06010113          	addi	sp,sp,96
20005618:	c7dff06f          	j	20005294 <_ZL7dir_sdiP3DIRm.constprop.0>
2000561c:	02f00693          	li	a3,47
20005620:	05c00613          	li	a2,92
20005624:	000cc703          	lbu	a4,0(s9)
20005628:	00d70463          	beq	a4,a3,20005630 <_ZL11follow_pathP3DIRPKc+0xd0>
2000562c:	00c71663          	bne	a4,a2,20005638 <_ZL11follow_pathP3DIRPKc+0xd8>
20005630:	001c8c93          	addi	s9,s9,1
20005634:	ff1ff06f          	j	20005624 <_ZL11follow_pathP3DIRPKc+0xc4>
20005638:	00000713          	li	a4,0
2000563c:	00e42423          	sw	a4,8(s0)
20005640:	000cc603          	lbu	a2,0(s9)
20005644:	01f00693          	li	a3,31
20005648:	00812703          	lw	a4,8(sp)
2000564c:	f8c6f4e3          	bgeu	a3,a2,200055d4 <_ZL11follow_pathP3DIRPKc+0x74>
20005650:	000027b7          	lui	a5,0x2
20005654:	02078793          	addi	a5,a5,32 # 2020 <_start-0x1fffdfe0>
20005658:	00010c37          	lui	s8,0x10
2000565c:	00f12a23          	sw	a5,20(sp)
20005660:	fffc0793          	addi	a5,s8,-1 # ffff <_start-0x1fff0001>
20005664:	00f12823          	sw	a5,16(sp)
20005668:	00c72b03          	lw	s6,12(a4)
2000566c:	00000d13          	li	s10,0
20005670:	01f00913          	li	s2,31
20005674:	000b0c13          	mv	s8,s6
20005678:	02f00493          	li	s1,47
2000567c:	05c00993          	li	s3,92
20005680:	07f00a13          	li	s4,127
20005684:	00003d97          	auipc	s11,0x3
20005688:	014d8d93          	addi	s11,s11,20 # 20008698 <__clz_tab+0xb64>
2000568c:	0ff00a93          	li	s5,255
20005690:	000cc503          	lbu	a0,0(s9)
20005694:	001c8c93          	addi	s9,s9,1
20005698:	08051663          	bnez	a0,20005724 <_ZL11follow_pathP3DIRPKc+0x1c4>
2000569c:	00100713          	li	a4,1
200056a0:	00400493          	li	s1,4
200056a4:	0eed0a63          	beq	s10,a4,20005798 <_ZL11follow_pathP3DIRPKc+0x238>
200056a8:	00200713          	li	a4,2
200056ac:	12ed0c63          	beq	s10,a4,200057e4 <_ZL11follow_pathP3DIRPKc+0x284>
200056b0:	020d0663          	beqz	s10,200056dc <_ZL11follow_pathP3DIRPKc+0x17c>
200056b4:	001d1713          	slli	a4,s10,0x1
200056b8:	00eb0733          	add	a4,s6,a4
200056bc:	02000513          	li	a0,32
200056c0:	02e00813          	li	a6,46
200056c4:	ffe75603          	lhu	a2,-2(a4)
200056c8:	ffe70713          	addi	a4,a4,-2
200056cc:	00a60463          	beq	a2,a0,200056d4 <_ZL11follow_pathP3DIRPKc+0x174>
200056d0:	13061a63          	bne	a2,a6,20005804 <_ZL11follow_pathP3DIRPKc+0x2a4>
200056d4:	fffd0d13          	addi	s10,s10,-1
200056d8:	fe0d16e3          	bnez	s10,200056c4 <_ZL11follow_pathP3DIRPKc+0x164>
200056dc:	000b1023          	sh	zero,0(s6)
200056e0:	00600913          	li	s2,6
200056e4:	05c12083          	lw	ra,92(sp)
200056e8:	05812403          	lw	s0,88(sp)
200056ec:	05412483          	lw	s1,84(sp)
200056f0:	04c12983          	lw	s3,76(sp)
200056f4:	04812a03          	lw	s4,72(sp)
200056f8:	04412a83          	lw	s5,68(sp)
200056fc:	04012b03          	lw	s6,64(sp)
20005700:	03c12b83          	lw	s7,60(sp)
20005704:	03812c03          	lw	s8,56(sp)
20005708:	03412c83          	lw	s9,52(sp)
2000570c:	03012d03          	lw	s10,48(sp)
20005710:	02c12d83          	lw	s11,44(sp)
20005714:	00090513          	mv	a0,s2
20005718:	05012903          	lw	s2,80(sp)
2000571c:	06010113          	addi	sp,sp,96
20005720:	00008067          	ret
20005724:	1b500593          	li	a1,437
20005728:	200020ef          	jal	ra,20007928 <ff_oem2uni>
2000572c:	00050b93          	mv	s7,a0
20005730:	fa0508e3          	beqz	a0,200056e0 <_ZL11follow_pathP3DIRPKc+0x180>
20005734:	f6a974e3          	bgeu	s2,a0,2000569c <_ZL11follow_pathP3DIRPKc+0x13c>
20005738:	029b8a63          	beq	s7,s1,2000576c <_ZL11follow_pathP3DIRPKc+0x20c>
2000573c:	033b8863          	beq	s7,s3,2000576c <_ZL11follow_pathP3DIRPKc+0x20c>
20005740:	017a7c63          	bgeu	s4,s7,20005758 <_ZL11follow_pathP3DIRPKc+0x1f8>
20005744:	f95d0ee3          	beq	s10,s5,200056e0 <_ZL11follow_pathP3DIRPKc+0x180>
20005748:	017c1023          	sh	s7,0(s8)
2000574c:	001d0d13          	addi	s10,s10,1
20005750:	002c0c13          	addi	s8,s8,2
20005754:	f3dff06f          	j	20005690 <_ZL11follow_pathP3DIRPKc+0x130>
20005758:	000b8593          	mv	a1,s7
2000575c:	000d8513          	mv	a0,s11
20005760:	dfcfb0ef          	jal	ra,20000d5c <strchr>
20005764:	fe0500e3          	beqz	a0,20005744 <_ZL11follow_pathP3DIRPKc+0x1e4>
20005768:	f79ff06f          	j	200056e0 <_ZL11follow_pathP3DIRPKc+0x180>
2000576c:	02f00713          	li	a4,47
20005770:	05c00613          	li	a2,92
20005774:	000cc483          	lbu	s1,0(s9)
20005778:	00e48463          	beq	s1,a4,20005780 <_ZL11follow_pathP3DIRPKc+0x220>
2000577c:	00c49663          	bne	s1,a2,20005788 <_ZL11follow_pathP3DIRPKc+0x228>
20005780:	001c8c93          	addi	s9,s9,1
20005784:	ff1ff06f          	j	20005774 <_ZL11follow_pathP3DIRPKc+0x214>
20005788:	0204b493          	sltiu	s1,s1,32
2000578c:	00100713          	li	a4,1
20005790:	00249493          	slli	s1,s1,0x2
20005794:	f0ed1ae3          	bne	s10,a4,200056a8 <_ZL11follow_pathP3DIRPKc+0x148>
20005798:	000b5603          	lhu	a2,0(s6)
2000579c:	02e00713          	li	a4,46
200057a0:	f0e61ae3          	bne	a2,a4,200056b4 <_ZL11follow_pathP3DIRPKc+0x154>
200057a4:	000b1123          	sh	zero,2(s6)
200057a8:	02000713          	li	a4,32
200057ac:	01412783          	lw	a5,20(sp)
200057b0:	02e400a3          	sb	a4,33(s0)
200057b4:	20202737          	lui	a4,0x20202
200057b8:	02070713          	addi	a4,a4,32 # 20202020 <_end+0x1f6f38>
200057bc:	0204e493          	ori	s1,s1,32
200057c0:	02e00693          	li	a3,46
200057c4:	02e42223          	sw	a4,36(s0)
200057c8:	02000713          	li	a4,32
200057cc:	02d40023          	sb	a3,32(s0)
200057d0:	02f41123          	sh	a5,34(s0)
200057d4:	02f41423          	sh	a5,40(s0)
200057d8:	02e40523          	sb	a4,42(s0)
200057dc:	0ff4f493          	zext.b	s1,s1
200057e0:	1600006f          	j	20005940 <_ZL11follow_pathP3DIRPKc+0x3e0>
200057e4:	002b5703          	lhu	a4,2(s6)
200057e8:	02e00613          	li	a2,46
200057ec:	ecc714e3          	bne	a4,a2,200056b4 <_ZL11follow_pathP3DIRPKc+0x154>
200057f0:	000b5603          	lhu	a2,0(s6)
200057f4:	ece610e3          	bne	a2,a4,200056b4 <_ZL11follow_pathP3DIRPKc+0x154>
200057f8:	000b1223          	sh	zero,4(s6)
200057fc:	02e00713          	li	a4,46
20005800:	fadff06f          	j	200057ac <_ZL11follow_pathP3DIRPKc+0x24c>
20005804:	001d1713          	slli	a4,s10,0x1
20005808:	00eb0733          	add	a4,s6,a4
2000580c:	00071023          	sh	zero,0(a4)
20005810:	000b5303          	lhu	t1,0(s6)
20005814:	002b0593          	addi	a1,s6,2
20005818:	00000613          	li	a2,0
2000581c:	02000893          	li	a7,32
20005820:	62a31663          	bne	t1,a0,20005e4c <_ZL11follow_pathP3DIRPKc+0x8ec>
20005824:	0005d503          	lhu	a0,0(a1)
20005828:	00058913          	mv	s2,a1
2000582c:	00060813          	mv	a6,a2
20005830:	00258593          	addi	a1,a1,2
20005834:	00160613          	addi	a2,a2,1
20005838:	ff1506e3          	beq	a0,a7,20005824 <_ZL11follow_pathP3DIRPKc+0x2c4>
2000583c:	00280993          	addi	s3,a6,2
20005840:	0034e493          	ori	s1,s1,3
20005844:	0ff4f493          	zext.b	s1,s1
20005848:	02e00593          	li	a1,46
2000584c:	ffe75603          	lhu	a2,-2(a4)
20005850:	ffe70713          	addi	a4,a4,-2
20005854:	00b60663          	beq	a2,a1,20005860 <_ZL11follow_pathP3DIRPKc+0x300>
20005858:	fffd0d13          	addi	s10,s10,-1
2000585c:	fe0d18e3          	bnez	s10,2000584c <_ZL11follow_pathP3DIRPKc+0x2ec>
20005860:	00b00613          	li	a2,11
20005864:	02000593          	li	a1,32
20005868:	02040513          	addi	a0,s0,32
2000586c:	b24fb0ef          	jal	ra,20000b90 <memset>
20005870:	00095903          	lhu	s2,0(s2)
20005874:	70090863          	beqz	s2,20005f84 <_ZL11follow_pathP3DIRPKc+0xa24>
20005878:	00000a13          	li	s4,0
2000587c:	00800a93          	li	s5,8
20005880:	00000e93          	li	t4,0
20005884:	02000d93          	li	s11,32
20005888:	02e00893          	li	a7,46
2000588c:	00b00313          	li	t1,11
20005890:	07f00c13          	li	s8,127
20005894:	57b90a63          	beq	s2,s11,20005e08 <_ZL11follow_pathP3DIRPKc+0x8a8>
20005898:	57190663          	beq	s2,a7,20005e04 <_ZL11follow_pathP3DIRPKc+0x8a4>
2000589c:	595efc63          	bgeu	t4,s5,20005e34 <_ZL11follow_pathP3DIRPKc+0x8d4>
200058a0:	573d0c63          	beq	s10,s3,20005e18 <_ZL11follow_pathP3DIRPKc+0x8b8>
200058a4:	5d2c6463          	bltu	s8,s2,20005e6c <_ZL11follow_pathP3DIRPKc+0x90c>
200058a8:	00090593          	mv	a1,s2
200058ac:	00003517          	auipc	a0,0x3
200058b0:	df850513          	addi	a0,a0,-520 # 200086a4 <__clz_tab+0xb70>
200058b4:	01d12623          	sw	t4,12(sp)
200058b8:	ca4fb0ef          	jal	ra,20000d5c <strchr>
200058bc:	00c12e83          	lw	t4,12(sp)
200058c0:	00048613          	mv	a2,s1
200058c4:	02e00893          	li	a7,46
200058c8:	00b00313          	li	t1,11
200058cc:	62050c63          	beqz	a0,20005f04 <_ZL11follow_pathP3DIRPKc+0x9a4>
200058d0:	00366613          	ori	a2,a2,3
200058d4:	0ff67493          	zext.b	s1,a2
200058d8:	000e8713          	mv	a4,t4
200058dc:	05f00913          	li	s2,95
200058e0:	00e40633          	add	a2,s0,a4
200058e4:	00170e93          	addi	t4,a4,1
200058e8:	03260023          	sb	s2,32(a2)
200058ec:	00098813          	mv	a6,s3
200058f0:	00181713          	slli	a4,a6,0x1
200058f4:	00eb0733          	add	a4,s6,a4
200058f8:	00075903          	lhu	s2,0(a4)
200058fc:	00180993          	addi	s3,a6,1
20005900:	f8091ae3          	bnez	s2,20005894 <_ZL11follow_pathP3DIRPKc+0x334>
20005904:	02044683          	lbu	a3,32(s0)
20005908:	0e500713          	li	a4,229
2000590c:	00e69663          	bne	a3,a4,20005918 <_ZL11follow_pathP3DIRPKc+0x3b8>
20005910:	00500713          	li	a4,5
20005914:	02e40023          	sb	a4,32(s0)
20005918:	00800713          	li	a4,8
2000591c:	08ea8463          	beq	s5,a4,200059a4 <_ZL11follow_pathP3DIRPKc+0x444>
20005920:	00ca7713          	andi	a4,s4,12
20005924:	00c00693          	li	a3,12
20005928:	00d70863          	beq	a4,a3,20005938 <_ZL11follow_pathP3DIRPKc+0x3d8>
2000592c:	003a7713          	andi	a4,s4,3
20005930:	00300693          	li	a3,3
20005934:	08d71263          	bne	a4,a3,200059b8 <_ZL11follow_pathP3DIRPKc+0x458>
20005938:	0024e493          	ori	s1,s1,2
2000593c:	0ff4f493          	zext.b	s1,s1
20005940:	029405a3          	sb	s1,43(s0)
20005944:	00040513          	mv	a0,s0
20005948:	00042d03          	lw	s10,0(s0)
2000594c:	949ff0ef          	jal	ra,20005294 <_ZL7dir_sdiP3DIRm.constprop.0>
20005950:	00050913          	mv	s2,a0
20005954:	0a051263          	bnez	a0,200059f8 <_ZL11follow_pathP3DIRPKc+0x498>
20005958:	01842d83          	lw	s11,24(s0)
2000595c:	fff00713          	li	a4,-1
20005960:	02e42623          	sw	a4,44(s0)
20005964:	0ff00a13          	li	s4,255
20005968:	0ff00c13          	li	s8,255
2000596c:	030d0993          	addi	s3,s10,48
20005970:	02040a93          	addi	s5,s0,32
20005974:	02cd2703          	lw	a4,44(s10)
20005978:	09b70a63          	beq	a4,s11,20005a0c <_ZL11follow_pathP3DIRPKc+0x4ac>
2000597c:	001d4503          	lbu	a0,1(s10)
20005980:	00100693          	li	a3,1
20005984:	000d8613          	mv	a2,s11
20005988:	00098593          	mv	a1,s3
2000598c:	168020ef          	jal	ra,20007af4 <disk_read>
20005990:	06050c63          	beqz	a0,20005a08 <_ZL11follow_pathP3DIRPKc+0x4a8>
20005994:	fff00793          	li	a5,-1
20005998:	02fd2623          	sw	a5,44(s10)
2000599c:	00100913          	li	s2,1
200059a0:	d45ff06f          	j	200056e4 <_ZL11follow_pathP3DIRPKc+0x184>
200059a4:	002a1a13          	slli	s4,s4,0x2
200059a8:	00ca7693          	andi	a3,s4,12
200059ac:	00c00713          	li	a4,12
200059b0:	0ffa7a13          	zext.b	s4,s4
200059b4:	f8e682e3          	beq	a3,a4,20005938 <_ZL11follow_pathP3DIRPKc+0x3d8>
200059b8:	0024f713          	andi	a4,s1,2
200059bc:	f80712e3          	bnez	a4,20005940 <_ZL11follow_pathP3DIRPKc+0x3e0>
200059c0:	001a7713          	andi	a4,s4,1
200059c4:	00070663          	beqz	a4,200059d0 <_ZL11follow_pathP3DIRPKc+0x470>
200059c8:	0104e493          	ori	s1,s1,16
200059cc:	0ff4f493          	zext.b	s1,s1
200059d0:	004a7a13          	andi	s4,s4,4
200059d4:	f60a06e3          	beqz	s4,20005940 <_ZL11follow_pathP3DIRPKc+0x3e0>
200059d8:	0084e493          	ori	s1,s1,8
200059dc:	0ff4f493          	zext.b	s1,s1
200059e0:	029405a3          	sb	s1,43(s0)
200059e4:	00040513          	mv	a0,s0
200059e8:	00042d03          	lw	s10,0(s0)
200059ec:	8a9ff0ef          	jal	ra,20005294 <_ZL7dir_sdiP3DIRm.constprop.0>
200059f0:	00050913          	mv	s2,a0
200059f4:	f60502e3          	beqz	a0,20005958 <_ZL11follow_pathP3DIRPKc+0x3f8>
200059f8:	00400693          	li	a3,4
200059fc:	02b44703          	lbu	a4,43(s0)
20005a00:	30d50663          	beq	a0,a3,20005d0c <_ZL11follow_pathP3DIRPKc+0x7ac>
20005a04:	ce1ff06f          	j	200056e4 <_ZL11follow_pathP3DIRPKc+0x184>
20005a08:	03bd2623          	sw	s11,44(s10)
20005a0c:	01c42b03          	lw	s6,28(s0)
20005a10:	000b4683          	lbu	a3,0(s6)
20005a14:	04068663          	beqz	a3,20005a60 <_ZL11follow_pathP3DIRPKc+0x500>
20005a18:	00bb4703          	lbu	a4,11(s6)
20005a1c:	0e500593          	li	a1,229
20005a20:	03f77613          	andi	a2,a4,63
20005a24:	00c40323          	sb	a2,6(s0)
20005a28:	00b68a63          	beq	a3,a1,20005a3c <_ZL11follow_pathP3DIRPKc+0x4dc>
20005a2c:	00877713          	andi	a4,a4,8
20005a30:	06070c63          	beqz	a4,20005aa8 <_ZL11follow_pathP3DIRPKc+0x548>
20005a34:	00f00713          	li	a4,15
20005a38:	16e60e63          	beq	a2,a4,20005bb4 <_ZL11follow_pathP3DIRPKc+0x654>
20005a3c:	fff00713          	li	a4,-1
20005a40:	02e42623          	sw	a4,44(s0)
20005a44:	0ff00c13          	li	s8,255
20005a48:	01042483          	lw	s1,16(s0)
20005a4c:	002006b7          	lui	a3,0x200
20005a50:	00042703          	lw	a4,0(s0)
20005a54:	02048493          	addi	s1,s1,32
20005a58:	00d4e863          	bltu	s1,a3,20005a68 <_ZL11follow_pathP3DIRPKc+0x508>
20005a5c:	00042c23          	sw	zero,24(s0)
20005a60:	02b44703          	lbu	a4,43(s0)
20005a64:	2a80006f          	j	20005d0c <_ZL11follow_pathP3DIRPKc+0x7ac>
20005a68:	01842d83          	lw	s11,24(s0)
20005a6c:	fe0d8ae3          	beqz	s11,20005a60 <_ZL11follow_pathP3DIRPKc+0x500>
20005a70:	1ff4fb13          	andi	s6,s1,511
20005a74:	020b1063          	bnez	s6,20005a94 <_ZL11follow_pathP3DIRPKc+0x534>
20005a78:	01442583          	lw	a1,20(s0)
20005a7c:	001d8d93          	addi	s11,s11,1
20005a80:	01b42c23          	sw	s11,24(s0)
20005a84:	0c059263          	bnez	a1,20005b48 <_ZL11follow_pathP3DIRPKc+0x5e8>
20005a88:	00875683          	lhu	a3,8(a4)
20005a8c:	0054d593          	srli	a1,s1,0x5
20005a90:	26d5fa63          	bgeu	a1,a3,20005d04 <_ZL11follow_pathP3DIRPKc+0x7a4>
20005a94:	03070713          	addi	a4,a4,48
20005a98:	01670733          	add	a4,a4,s6
20005a9c:	00942823          	sw	s1,16(s0)
20005aa0:	00e42e23          	sw	a4,28(s0)
20005aa4:	ed1ff06f          	j	20005974 <_ZL11follow_pathP3DIRPKc+0x414>
20005aa8:	00f00713          	li	a4,15
20005aac:	10e60463          	beq	a2,a4,20005bb4 <_ZL11follow_pathP3DIRPKc+0x654>
20005ab0:	120c0c63          	beqz	s8,20005be8 <_ZL11follow_pathP3DIRPKc+0x688>
20005ab4:	02b44703          	lbu	a4,43(s0)
20005ab8:	00177713          	andi	a4,a4,1
20005abc:	f80710e3          	bnez	a4,20005a3c <_ZL11follow_pathP3DIRPKc+0x4dc>
20005ac0:	00b00613          	li	a2,11
20005ac4:	000a8593          	mv	a1,s5
20005ac8:	000b0513          	mv	a0,s6
20005acc:	f25fa0ef          	jal	ra,200009f0 <memcmp>
20005ad0:	f60516e3          	bnez	a0,20005a3c <_ZL11follow_pathP3DIRPKc+0x4dc>
20005ad4:	02b44703          	lbu	a4,43(s0)
20005ad8:	00477713          	andi	a4,a4,4
20005adc:	c00714e3          	bnez	a4,200056e4 <_ZL11follow_pathP3DIRPKc+0x184>
20005ae0:	00644703          	lbu	a4,6(s0)
20005ae4:	01077713          	andi	a4,a4,16
20005ae8:	48070a63          	beqz	a4,20005f7c <_ZL11follow_pathP3DIRPKc+0xa1c>
20005aec:	00812783          	lw	a5,8(sp)
20005af0:	01042683          	lw	a3,16(s0)
20005af4:	00300613          	li	a2,3
20005af8:	03078713          	addi	a4,a5,48
20005afc:	1ff6f693          	andi	a3,a3,511
20005b00:	00d70733          	add	a4,a4,a3
20005b04:	01b74683          	lbu	a3,27(a4)
20005b08:	01a74503          	lbu	a0,26(a4)
20005b0c:	0007c583          	lbu	a1,0(a5)
20005b10:	00869693          	slli	a3,a3,0x8
20005b14:	00a6e6b3          	or	a3,a3,a0
20005b18:	00c58863          	beq	a1,a2,20005b28 <_ZL11follow_pathP3DIRPKc+0x5c8>
20005b1c:	00d42423          	sw	a3,8(s0)
20005b20:	00042703          	lw	a4,0(s0)
20005b24:	b45ff06f          	j	20005668 <_ZL11follow_pathP3DIRPKc+0x108>
20005b28:	01574603          	lbu	a2,21(a4)
20005b2c:	01474583          	lbu	a1,20(a4)
20005b30:	00861713          	slli	a4,a2,0x8
20005b34:	00b76733          	or	a4,a4,a1
20005b38:	01071713          	slli	a4,a4,0x10
20005b3c:	00e6e6b3          	or	a3,a3,a4
20005b40:	00d42423          	sw	a3,8(s0)
20005b44:	fddff06f          	j	20005b20 <_ZL11follow_pathP3DIRPKc+0x5c0>
20005b48:	00a75683          	lhu	a3,10(a4)
20005b4c:	0094d513          	srli	a0,s1,0x9
20005b50:	fff68693          	addi	a3,a3,-1 # 1fffff <_start-0x1fe00001>
20005b54:	00a6f6b3          	and	a3,a3,a0
20005b58:	f2069ee3          	bnez	a3,20005a94 <_ZL11follow_pathP3DIRPKc+0x534>
20005b5c:	00070513          	mv	a0,a4
20005b60:	00e12623          	sw	a4,12(sp)
20005b64:	d28ff0ef          	jal	ra,2000508c <_ZL7get_fatP7FFOBJIDm.isra.0>
20005b68:	00100693          	li	a3,1
20005b6c:	2ea6fc63          	bgeu	a3,a0,20005e64 <_ZL11follow_pathP3DIRPKc+0x904>
20005b70:	fff00693          	li	a3,-1
20005b74:	2ed50463          	beq	a0,a3,20005e5c <_ZL11follow_pathP3DIRPKc+0x8fc>
20005b78:	00c12703          	lw	a4,12(sp)
20005b7c:	01472683          	lw	a3,20(a4)
20005b80:	18d57263          	bgeu	a0,a3,20005d04 <_ZL11follow_pathP3DIRPKc+0x7a4>
20005b84:	00a42a23          	sw	a0,20(s0)
20005b88:	01472683          	lw	a3,20(a4)
20005b8c:	ffe50513          	addi	a0,a0,-2
20005b90:	00000d93          	li	s11,0
20005b94:	ffe68693          	addi	a3,a3,-2
20005b98:	00d57a63          	bgeu	a0,a3,20005bac <_ZL11follow_pathP3DIRPKc+0x64c>
20005b9c:	00a75603          	lhu	a2,10(a4)
20005ba0:	02872683          	lw	a3,40(a4)
20005ba4:	02a60633          	mul	a2,a2,a0
20005ba8:	00d60db3          	add	s11,a2,a3
20005bac:	01b42c23          	sw	s11,24(s0)
20005bb0:	ee5ff06f          	j	20005a94 <_ZL11follow_pathP3DIRPKc+0x534>
20005bb4:	02b44703          	lbu	a4,43(s0)
20005bb8:	04077713          	andi	a4,a4,64
20005bbc:	e80716e3          	bnez	a4,20005a48 <_ZL11follow_pathP3DIRPKc+0x4e8>
20005bc0:	0406f713          	andi	a4,a3,64
20005bc4:	16070463          	beqz	a4,20005d2c <_ZL11follow_pathP3DIRPKc+0x7cc>
20005bc8:	01042703          	lw	a4,16(s0)
20005bcc:	00db4a03          	lbu	s4,13(s6)
20005bd0:	0bf6fc13          	andi	s8,a3,191
20005bd4:	02e42623          	sw	a4,44(s0)
20005bd8:	00db4703          	lbu	a4,13(s6)
20005bdc:	15470e63          	beq	a4,s4,20005d38 <_ZL11follow_pathP3DIRPKc+0x7d8>
20005be0:	0ff00c13          	li	s8,255
20005be4:	e65ff06f          	j	20005a48 <_ZL11follow_pathP3DIRPKc+0x4e8>
20005be8:	000b4683          	lbu	a3,0(s6)
20005bec:	001b4583          	lbu	a1,1(s6)
20005bf0:	002b4603          	lbu	a2,2(s6)
20005bf4:	0016d713          	srli	a4,a3,0x1
20005bf8:	00769693          	slli	a3,a3,0x7
20005bfc:	00d76733          	or	a4,a4,a3
20005c00:	00b70733          	add	a4,a4,a1
20005c04:	0ff77693          	zext.b	a3,a4
20005c08:	0016d693          	srli	a3,a3,0x1
20005c0c:	00771713          	slli	a4,a4,0x7
20005c10:	00e6e6b3          	or	a3,a3,a4
20005c14:	0ff6f693          	zext.b	a3,a3
20005c18:	00c686b3          	add	a3,a3,a2
20005c1c:	0ff6f713          	zext.b	a4,a3
20005c20:	003b4603          	lbu	a2,3(s6)
20005c24:	00769693          	slli	a3,a3,0x7
20005c28:	00175713          	srli	a4,a4,0x1
20005c2c:	00d76733          	or	a4,a4,a3
20005c30:	0ff77713          	zext.b	a4,a4
20005c34:	00c70733          	add	a4,a4,a2
20005c38:	0ff77693          	zext.b	a3,a4
20005c3c:	004b4603          	lbu	a2,4(s6)
20005c40:	00771713          	slli	a4,a4,0x7
20005c44:	0016d693          	srli	a3,a3,0x1
20005c48:	00e6e6b3          	or	a3,a3,a4
20005c4c:	0ff6f693          	zext.b	a3,a3
20005c50:	00c686b3          	add	a3,a3,a2
20005c54:	0ff6f713          	zext.b	a4,a3
20005c58:	005b4603          	lbu	a2,5(s6)
20005c5c:	00769693          	slli	a3,a3,0x7
20005c60:	00175713          	srli	a4,a4,0x1
20005c64:	00d76733          	or	a4,a4,a3
20005c68:	0ff77713          	zext.b	a4,a4
20005c6c:	00c70733          	add	a4,a4,a2
20005c70:	0ff77693          	zext.b	a3,a4
20005c74:	006b4603          	lbu	a2,6(s6)
20005c78:	00771713          	slli	a4,a4,0x7
20005c7c:	0016d693          	srli	a3,a3,0x1
20005c80:	00e6e6b3          	or	a3,a3,a4
20005c84:	0ff6f693          	zext.b	a3,a3
20005c88:	00c686b3          	add	a3,a3,a2
20005c8c:	0ff6f713          	zext.b	a4,a3
20005c90:	007b4603          	lbu	a2,7(s6)
20005c94:	00769693          	slli	a3,a3,0x7
20005c98:	00175713          	srli	a4,a4,0x1
20005c9c:	00d76733          	or	a4,a4,a3
20005ca0:	0ff77713          	zext.b	a4,a4
20005ca4:	00c70733          	add	a4,a4,a2
20005ca8:	0ff77693          	zext.b	a3,a4
20005cac:	008b4603          	lbu	a2,8(s6)
20005cb0:	00771713          	slli	a4,a4,0x7
20005cb4:	0016d693          	srli	a3,a3,0x1
20005cb8:	00e6e6b3          	or	a3,a3,a4
20005cbc:	0ff6f693          	zext.b	a3,a3
20005cc0:	00c686b3          	add	a3,a3,a2
20005cc4:	0ff6f713          	zext.b	a4,a3
20005cc8:	009b4603          	lbu	a2,9(s6)
20005ccc:	00769693          	slli	a3,a3,0x7
20005cd0:	00175713          	srli	a4,a4,0x1
20005cd4:	00d76733          	or	a4,a4,a3
20005cd8:	0ff77713          	zext.b	a4,a4
20005cdc:	00c70733          	add	a4,a4,a2
20005ce0:	0ff77693          	zext.b	a3,a4
20005ce4:	00ab4603          	lbu	a2,10(s6)
20005ce8:	0016d693          	srli	a3,a3,0x1
20005cec:	00771713          	slli	a4,a4,0x7
20005cf0:	00e6e733          	or	a4,a3,a4
20005cf4:	00c70733          	add	a4,a4,a2
20005cf8:	0ff77713          	zext.b	a4,a4
20005cfc:	db471ce3          	bne	a4,s4,20005ab4 <_ZL11follow_pathP3DIRPKc+0x554>
20005d00:	dd5ff06f          	j	20005ad4 <_ZL11follow_pathP3DIRPKc+0x574>
20005d04:	02b44703          	lbu	a4,43(s0)
20005d08:	00042c23          	sw	zero,24(s0)
20005d0c:	02077693          	andi	a3,a4,32
20005d10:	00477713          	andi	a4,a4,4
20005d14:	26068063          	beqz	a3,20005f74 <_ZL11follow_pathP3DIRPKc+0xa14>
20005d18:	e00704e3          	beqz	a4,20005b20 <_ZL11follow_pathP3DIRPKc+0x5c0>
20005d1c:	f8000793          	li	a5,-128
20005d20:	02f405a3          	sb	a5,43(s0)
20005d24:	00000913          	li	s2,0
20005d28:	9bdff06f          	j	200056e4 <_ZL11follow_pathP3DIRPKc+0x184>
20005d2c:	eb8686e3          	beq	a3,s8,20005bd8 <_ZL11follow_pathP3DIRPKc+0x678>
20005d30:	0ff00c13          	li	s8,255
20005d34:	d15ff06f          	j	20005a48 <_ZL11follow_pathP3DIRPKc+0x4e8>
20005d38:	01bb4703          	lbu	a4,27(s6)
20005d3c:	01ab4683          	lbu	a3,26(s6)
20005d40:	00871713          	slli	a4,a4,0x8
20005d44:	00d76733          	or	a4,a4,a3
20005d48:	e8071ce3          	bnez	a4,20005be0 <_ZL11follow_pathP3DIRPKc+0x680>
20005d4c:	000b4683          	lbu	a3,0(s6)
20005d50:	00cd2b83          	lw	s7,12(s10)
20005d54:	00003497          	auipc	s1,0x3
20005d58:	9e448493          	addi	s1,s1,-1564 # 20008738 <_ZL6LfnOfs>
20005d5c:	03f6f693          	andi	a3,a3,63
20005d60:	fff68693          	addi	a3,a3,-1
20005d64:	00169713          	slli	a4,a3,0x1
20005d68:	00d70733          	add	a4,a4,a3
20005d6c:	00271713          	slli	a4,a4,0x2
20005d70:	00d70db3          	add	s11,a4,a3
20005d74:	00100e93          	li	t4,1
20005d78:	0540006f          	j	20005dcc <_ZL11follow_pathP3DIRPKc+0x86c>
20005d7c:	00e12c23          	sw	a4,24(sp)
20005d80:	0ff00793          	li	a5,255
20005d84:	e5b7eee3          	bltu	a5,s11,20005be0 <_ZL11follow_pathP3DIRPKc+0x680>
20005d88:	3d9010ef          	jal	ra,20007960 <ff_wtoupper>
20005d8c:	001d9613          	slli	a2,s11,0x1
20005d90:	00cb8633          	add	a2,s7,a2
20005d94:	00050693          	mv	a3,a0
20005d98:	00c12e03          	lw	t3,12(sp)
20005d9c:	00065503          	lhu	a0,0(a2)
20005da0:	00d12e23          	sw	a3,28(sp)
20005da4:	000e0d93          	mv	s11,t3
20005da8:	3b9010ef          	jal	ra,20007960 <ff_wtoupper>
20005dac:	01c12683          	lw	a3,28(sp)
20005db0:	e2a698e3          	bne	a3,a0,20005be0 <_ZL11follow_pathP3DIRPKc+0x680>
20005db4:	01812703          	lw	a4,24(sp)
20005db8:	00070e93          	mv	t4,a4
20005dbc:	00148493          	addi	s1,s1,1
20005dc0:	00003797          	auipc	a5,0x3
20005dc4:	98578793          	addi	a5,a5,-1659 # 20008745 <_ZL6LfnOfs+0xd>
20005dc8:	16f48063          	beq	s1,a5,20005f28 <_ZL11follow_pathP3DIRPKc+0x9c8>
20005dcc:	0004c683          	lbu	a3,0(s1)
20005dd0:	001d8e13          	addi	t3,s11,1
20005dd4:	01c12623          	sw	t3,12(sp)
20005dd8:	00db06b3          	add	a3,s6,a3
20005ddc:	0016c703          	lbu	a4,1(a3)
20005de0:	0006c683          	lbu	a3,0(a3)
20005de4:	00871713          	slli	a4,a4,0x8
20005de8:	00d76733          	or	a4,a4,a3
20005dec:	00070513          	mv	a0,a4
20005df0:	f80e96e3          	bnez	t4,20005d7c <_ZL11follow_pathP3DIRPKc+0x81c>
20005df4:	01012783          	lw	a5,16(sp)
20005df8:	fcf702e3          	beq	a4,a5,20005dbc <_ZL11follow_pathP3DIRPKc+0x85c>
20005dfc:	0ff00c13          	li	s8,255
20005e00:	c49ff06f          	j	20005a48 <_ZL11follow_pathP3DIRPKc+0x4e8>
20005e04:	013d0a63          	beq	s10,s3,20005e18 <_ZL11follow_pathP3DIRPKc+0x8b8>
20005e08:	0034e493          	ori	s1,s1,3
20005e0c:	0ff4f493          	zext.b	s1,s1
20005e10:	00098813          	mv	a6,s3
20005e14:	addff06f          	j	200058f0 <_ZL11follow_pathP3DIRPKc+0x390>
20005e18:	126a8e63          	beq	s5,t1,20005f54 <_ZL11follow_pathP3DIRPKc+0x9f4>
20005e1c:	002a1a13          	slli	s4,s4,0x2
20005e20:	0ffa7a13          	zext.b	s4,s4
20005e24:	000d0813          	mv	a6,s10
20005e28:	00b00a93          	li	s5,11
20005e2c:	00800e93          	li	t4,8
20005e30:	ac1ff06f          	j	200058f0 <_ZL11follow_pathP3DIRPKc+0x390>
20005e34:	126a8063          	beq	s5,t1,20005f54 <_ZL11follow_pathP3DIRPKc+0x9f4>
20005e38:	ff3d02e3          	beq	s10,s3,20005e1c <_ZL11follow_pathP3DIRPKc+0x8bc>
20005e3c:	0034e493          	ori	s1,s1,3
20005e40:	0ff4f493          	zext.b	s1,s1
20005e44:	ad3d60e3          	bltu	s10,s3,20005904 <_ZL11follow_pathP3DIRPKc+0x3a4>
20005e48:	fd5ff06f          	j	20005e1c <_ZL11follow_pathP3DIRPKc+0x8bc>
20005e4c:	000b0913          	mv	s2,s6
20005e50:	00100993          	li	s3,1
20005e54:	9f031ae3          	bne	t1,a6,20005848 <_ZL11follow_pathP3DIRPKc+0x2e8>
20005e58:	9e9ff06f          	j	20005840 <_ZL11follow_pathP3DIRPKc+0x2e0>
20005e5c:	00100913          	li	s2,1
20005e60:	885ff06f          	j	200056e4 <_ZL11follow_pathP3DIRPKc+0x184>
20005e64:	00200913          	li	s2,2
20005e68:	87dff06f          	j	200056e4 <_ZL11follow_pathP3DIRPKc+0x184>
20005e6c:	0024e613          	ori	a2,s1,2
20005e70:	0ff67613          	zext.b	a2,a2
20005e74:	00090513          	mv	a0,s2
20005e78:	1b500593          	li	a1,437
20005e7c:	01d12c23          	sw	t4,24(sp)
20005e80:	00c12623          	sw	a2,12(sp)
20005e84:	22d010ef          	jal	ra,200078b0 <ff_uni2oem>
20005e88:	08057713          	andi	a4,a0,128
20005e8c:	00c12603          	lw	a2,12(sp)
20005e90:	01812e83          	lw	t4,24(sp)
20005e94:	00050913          	mv	s2,a0
20005e98:	02e00893          	li	a7,46
20005e9c:	00b00313          	li	t1,11
20005ea0:	02070263          	beqz	a4,20005ec4 <_ZL11follow_pathP3DIRPKc+0x964>
20005ea4:	07f57713          	andi	a4,a0,127
20005ea8:	00003797          	auipc	a5,0x3
20005eac:	81078793          	addi	a5,a5,-2032 # 200086b8 <_ZL5ExCvt>
20005eb0:	00e78733          	add	a4,a5,a4
20005eb4:	00074903          	lbu	s2,0(a4)
20005eb8:	a0090ce3          	beqz	s2,200058d0 <_ZL11follow_pathP3DIRPKc+0x370>
20005ebc:	00060493          	mv	s1,a2
20005ec0:	9e9ff06f          	j	200058a8 <_ZL11follow_pathP3DIRPKc+0x348>
20005ec4:	0ff00713          	li	a4,255
20005ec8:	fea778e3          	bgeu	a4,a0,20005eb8 <_ZL11follow_pathP3DIRPKc+0x958>
20005ecc:	fffa8713          	addi	a4,s5,-1
20005ed0:	02eef063          	bgeu	t4,a4,20005ef0 <_ZL11follow_pathP3DIRPKc+0x990>
20005ed4:	01d405b3          	add	a1,s0,t4
20005ed8:	00855513          	srli	a0,a0,0x8
20005edc:	001e8713          	addi	a4,t4,1
20005ee0:	02a58023          	sb	a0,32(a1)
20005ee4:	0ff97913          	zext.b	s2,s2
20005ee8:	00060493          	mv	s1,a2
20005eec:	9f5ff06f          	j	200058e0 <_ZL11follow_pathP3DIRPKc+0x380>
20005ef0:	0034e493          	ori	s1,s1,3
20005ef4:	0ff4f493          	zext.b	s1,s1
20005ef8:	00098813          	mv	a6,s3
20005efc:	000a8e93          	mv	t4,s5
20005f00:	9f1ff06f          	j	200058f0 <_ZL11follow_pathP3DIRPKc+0x390>
20005f04:	fbf90713          	addi	a4,s2,-65
20005f08:	01071713          	slli	a4,a4,0x10
20005f0c:	01075713          	srli	a4,a4,0x10
20005f10:	01900613          	li	a2,25
20005f14:	08e66663          	bltu	a2,a4,20005fa0 <_ZL11follow_pathP3DIRPKc+0xa40>
20005f18:	002a6a13          	ori	s4,s4,2
20005f1c:	0ff97913          	zext.b	s2,s2
20005f20:	000e8713          	mv	a4,t4
20005f24:	9bdff06f          	j	200058e0 <_ZL11follow_pathP3DIRPKc+0x380>
20005f28:	000b4703          	lbu	a4,0(s6)
20005f2c:	04077713          	andi	a4,a4,64
20005f30:	00070c63          	beqz	a4,20005f48 <_ZL11follow_pathP3DIRPKc+0x9e8>
20005f34:	000e8a63          	beqz	t4,20005f48 <_ZL11follow_pathP3DIRPKc+0x9e8>
20005f38:	001d9713          	slli	a4,s11,0x1
20005f3c:	00eb84b3          	add	s1,s7,a4
20005f40:	0004d703          	lhu	a4,0(s1)
20005f44:	c8071ee3          	bnez	a4,20005be0 <_ZL11follow_pathP3DIRPKc+0x680>
20005f48:	fffc0893          	addi	a7,s8,-1
20005f4c:	0ff8fc13          	zext.b	s8,a7
20005f50:	af9ff06f          	j	20005a48 <_ZL11follow_pathP3DIRPKc+0x4e8>
20005f54:	02044683          	lbu	a3,32(s0)
20005f58:	0034e493          	ori	s1,s1,3
20005f5c:	0e500713          	li	a4,229
20005f60:	0ff4f493          	zext.b	s1,s1
20005f64:	9ae69ee3          	bne	a3,a4,20005920 <_ZL11follow_pathP3DIRPKc+0x3c0>
20005f68:	00500713          	li	a4,5
20005f6c:	02e40023          	sb	a4,32(s0)
20005f70:	9b1ff06f          	j	20005920 <_ZL11follow_pathP3DIRPKc+0x3c0>
20005f74:	00400913          	li	s2,4
20005f78:	f6071663          	bnez	a4,200056e4 <_ZL11follow_pathP3DIRPKc+0x184>
20005f7c:	00500913          	li	s2,5
20005f80:	f64ff06f          	j	200056e4 <_ZL11follow_pathP3DIRPKc+0x184>
20005f84:	02044683          	lbu	a3,32(s0)
20005f88:	0e500713          	li	a4,229
20005f8c:	9ae69ae3          	bne	a3,a4,20005940 <_ZL11follow_pathP3DIRPKc+0x3e0>
20005f90:	00500713          	li	a4,5
20005f94:	02e40023          	sb	a4,32(s0)
20005f98:	00000a13          	li	s4,0
20005f9c:	a1dff06f          	j	200059b8 <_ZL11follow_pathP3DIRPKc+0x458>
20005fa0:	f9f90713          	addi	a4,s2,-97
20005fa4:	01071713          	slli	a4,a4,0x10
20005fa8:	01075713          	srli	a4,a4,0x10
20005fac:	00e66663          	bltu	a2,a4,20005fb8 <_ZL11follow_pathP3DIRPKc+0xa58>
20005fb0:	fe090913          	addi	s2,s2,-32
20005fb4:	001a6a13          	ori	s4,s4,1
20005fb8:	0ff97913          	zext.b	s2,s2
20005fbc:	000e8713          	mv	a4,t4
20005fc0:	921ff06f          	j	200058e0 <_ZL11follow_pathP3DIRPKc+0x380>

20005fc4 <f_mount>:
20005fc4:	fd010113          	addi	sp,sp,-48
20005fc8:	00a12623          	sw	a0,12(sp)
20005fcc:	01c10513          	addi	a0,sp,28
20005fd0:	02812423          	sw	s0,40(sp)
20005fd4:	02112623          	sw	ra,44(sp)
20005fd8:	00b12423          	sw	a1,8(sp)
20005fdc:	00060413          	mv	s0,a2
20005fe0:	00b12e23          	sw	a1,28(sp)
20005fe4:	93dfe0ef          	jal	ra,20004920 <_ZL12get_ldnumberPPKc>
20005fe8:	06054263          	bltz	a0,2000604c <f_mount+0x88>
20005fec:	0f818793          	addi	a5,gp,248 # 2000aed8 <_ZL5FatFs>
20005ff0:	00251513          	slli	a0,a0,0x2
20005ff4:	00a78733          	add	a4,a5,a0
20005ff8:	00072703          	lw	a4,0(a4)
20005ffc:	00070463          	beqz	a4,20006004 <f_mount+0x40>
20006000:	00070023          	sb	zero,0(a4)
20006004:	00c12703          	lw	a4,12(sp)
20006008:	00070463          	beqz	a4,20006010 <f_mount+0x4c>
2000600c:	00070023          	sb	zero,0(a4)
20006010:	00a787b3          	add	a5,a5,a0
20006014:	00e7a023          	sw	a4,0(a5)
20006018:	00000513          	li	a0,0
2000601c:	00041a63          	bnez	s0,20006030 <f_mount+0x6c>
20006020:	02c12083          	lw	ra,44(sp)
20006024:	02812403          	lw	s0,40(sp)
20006028:	03010113          	addi	sp,sp,48
2000602c:	00008067          	ret
20006030:	00c10593          	addi	a1,sp,12
20006034:	00810513          	addi	a0,sp,8
20006038:	c01fe0ef          	jal	ra,20004c38 <_ZL12mount_volumePPKcPP5FATFSh.constprop.0>
2000603c:	02c12083          	lw	ra,44(sp)
20006040:	02812403          	lw	s0,40(sp)
20006044:	03010113          	addi	sp,sp,48
20006048:	00008067          	ret
2000604c:	02c12083          	lw	ra,44(sp)
20006050:	02812403          	lw	s0,40(sp)
20006054:	00b00513          	li	a0,11
20006058:	03010113          	addi	sp,sp,48
2000605c:	00008067          	ret

20006060 <f_open>:
20006060:	fa010113          	addi	sp,sp,-96
20006064:	04112e23          	sw	ra,92(sp)
20006068:	04812c23          	sw	s0,88(sp)
2000606c:	04912a23          	sw	s1,84(sp)
20006070:	05212823          	sw	s2,80(sp)
20006074:	00b12623          	sw	a1,12(sp)
20006078:	0e050a63          	beqz	a0,2000616c <f_open+0x10c>
2000607c:	00050413          	mv	s0,a0
20006080:	01c10593          	addi	a1,sp,28
20006084:	00c10513          	addi	a0,sp,12
20006088:	00060493          	mv	s1,a2
2000608c:	badfe0ef          	jal	ra,20004c38 <_ZL12mount_volumePPKcPP5FATFSh.constprop.0>
20006090:	02050063          	beqz	a0,200060b0 <f_open+0x50>
20006094:	00042023          	sw	zero,0(s0)
20006098:	05c12083          	lw	ra,92(sp)
2000609c:	05812403          	lw	s0,88(sp)
200060a0:	05412483          	lw	s1,84(sp)
200060a4:	05012903          	lw	s2,80(sp)
200060a8:	06010113          	addi	sp,sp,96
200060ac:	00008067          	ret
200060b0:	01c12903          	lw	s2,28(sp)
200060b4:	00c12583          	lw	a1,12(sp)
200060b8:	02010513          	addi	a0,sp,32
200060bc:	03212023          	sw	s2,32(sp)
200060c0:	ca0ff0ef          	jal	ra,20005560 <_ZL11follow_pathP3DIRPKc>
200060c4:	fc0518e3          	bnez	a0,20006094 <f_open+0x34>
200060c8:	04b10783          	lb	a5,75(sp)
200060cc:	0a07ce63          	bltz	a5,20006188 <f_open+0x128>
200060d0:	02614783          	lbu	a5,38(sp)
200060d4:	0107f793          	andi	a5,a5,16
200060d8:	0a079c63          	bnez	a5,20006190 <f_open+0x130>
200060dc:	03c12783          	lw	a5,60(sp)
200060e0:	00094603          	lbu	a2,0(s2)
200060e4:	00300693          	li	a3,3
200060e8:	01b7c703          	lbu	a4,27(a5)
200060ec:	01a7c583          	lbu	a1,26(a5)
200060f0:	00871713          	slli	a4,a4,0x8
200060f4:	00b76733          	or	a4,a4,a1
200060f8:	00d61e63          	bne	a2,a3,20006114 <f_open+0xb4>
200060fc:	0157c683          	lbu	a3,21(a5)
20006100:	0147c603          	lbu	a2,20(a5)
20006104:	00869693          	slli	a3,a3,0x8
20006108:	00c6e6b3          	or	a3,a3,a2
2000610c:	01069693          	slli	a3,a3,0x10
20006110:	00d76733          	or	a4,a4,a3
20006114:	00e42423          	sw	a4,8(s0)
20006118:	01d7c683          	lbu	a3,29(a5)
2000611c:	01c7c603          	lbu	a2,28(a5)
20006120:	01e7c703          	lbu	a4,30(a5)
20006124:	01f7c783          	lbu	a5,31(a5)
20006128:	00869693          	slli	a3,a3,0x8
2000612c:	00695583          	lhu	a1,6(s2)
20006130:	00c6e6b3          	or	a3,a3,a2
20006134:	01071713          	slli	a4,a4,0x10
20006138:	00d76733          	or	a4,a4,a3
2000613c:	01879793          	slli	a5,a5,0x18
20006140:	00e7e7b3          	or	a5,a5,a4
20006144:	0014f613          	andi	a2,s1,1
20006148:	00f42623          	sw	a5,12(s0)
2000614c:	02042023          	sw	zero,32(s0)
20006150:	01242023          	sw	s2,0(s0)
20006154:	00b41223          	sh	a1,4(s0)
20006158:	00c40823          	sb	a2,16(s0)
2000615c:	000408a3          	sb	zero,17(s0)
20006160:	00042e23          	sw	zero,28(s0)
20006164:	00042a23          	sw	zero,20(s0)
20006168:	f31ff06f          	j	20006098 <f_open+0x38>
2000616c:	05c12083          	lw	ra,92(sp)
20006170:	05812403          	lw	s0,88(sp)
20006174:	05412483          	lw	s1,84(sp)
20006178:	05012903          	lw	s2,80(sp)
2000617c:	00900513          	li	a0,9
20006180:	06010113          	addi	sp,sp,96
20006184:	00008067          	ret
20006188:	00600513          	li	a0,6
2000618c:	f09ff06f          	j	20006094 <f_open+0x34>
20006190:	00400513          	li	a0,4
20006194:	f01ff06f          	j	20006094 <f_open+0x34>

20006198 <f_read>:
20006198:	fb010113          	addi	sp,sp,-80
2000619c:	04112623          	sw	ra,76(sp)
200061a0:	04812423          	sw	s0,72(sp)
200061a4:	04912223          	sw	s1,68(sp)
200061a8:	05212023          	sw	s2,64(sp)
200061ac:	03312e23          	sw	s3,60(sp)
200061b0:	03412c23          	sw	s4,56(sp)
200061b4:	03512a23          	sw	s5,52(sp)
200061b8:	03612823          	sw	s6,48(sp)
200061bc:	03712623          	sw	s7,44(sp)
200061c0:	03812423          	sw	s8,40(sp)
200061c4:	03912223          	sw	s9,36(sp)
200061c8:	03a12023          	sw	s10,32(sp)
200061cc:	01b12e23          	sw	s11,28(sp)
200061d0:	0006a023          	sw	zero,0(a3)
200061d4:	02050463          	beqz	a0,200061fc <f_read+0x64>
200061d8:	00052783          	lw	a5,0(a0)
200061dc:	00050413          	mv	s0,a0
200061e0:	00078e63          	beqz	a5,200061fc <f_read+0x64>
200061e4:	0007c703          	lbu	a4,0(a5)
200061e8:	00070a63          	beqz	a4,200061fc <f_read+0x64>
200061ec:	00068a93          	mv	s5,a3
200061f0:	0067d703          	lhu	a4,6(a5)
200061f4:	00455683          	lhu	a3,4(a0)
200061f8:	04e68463          	beq	a3,a4,20006240 <f_read+0xa8>
200061fc:	00900d13          	li	s10,9
20006200:	04c12083          	lw	ra,76(sp)
20006204:	04812403          	lw	s0,72(sp)
20006208:	04412483          	lw	s1,68(sp)
2000620c:	04012903          	lw	s2,64(sp)
20006210:	03c12983          	lw	s3,60(sp)
20006214:	03812a03          	lw	s4,56(sp)
20006218:	03412a83          	lw	s5,52(sp)
2000621c:	03012b03          	lw	s6,48(sp)
20006220:	02c12b83          	lw	s7,44(sp)
20006224:	02812c03          	lw	s8,40(sp)
20006228:	02412c83          	lw	s9,36(sp)
2000622c:	01c12d83          	lw	s11,28(sp)
20006230:	000d0513          	mv	a0,s10
20006234:	02012d03          	lw	s10,32(sp)
20006238:	05010113          	addi	sp,sp,80
2000623c:	00008067          	ret
20006240:	0017c503          	lbu	a0,1(a5)
20006244:	00058c13          	mv	s8,a1
20006248:	00c12623          	sw	a2,12(sp)
2000624c:	06d010ef          	jal	ra,20007ab8 <disk_status>
20006250:	00157513          	andi	a0,a0,1
20006254:	fa0514e3          	bnez	a0,200061fc <f_read+0x64>
20006258:	01144d03          	lbu	s10,17(s0)
2000625c:	fa0d12e3          	bnez	s10,20006200 <f_read+0x68>
20006260:	01044783          	lbu	a5,16(s0)
20006264:	0017f793          	andi	a5,a5,1
20006268:	1a078463          	beqz	a5,20006410 <f_read+0x278>
2000626c:	01442703          	lw	a4,20(s0)
20006270:	00c42b03          	lw	s6,12(s0)
20006274:	00c12603          	lw	a2,12(sp)
20006278:	00042d83          	lw	s11,0(s0)
2000627c:	40eb0b33          	sub	s6,s6,a4
20006280:	01667463          	bgeu	a2,s6,20006288 <f_read+0xf0>
20006284:	00060b13          	mv	s6,a2
20006288:	f60b0ce3          	beqz	s6,20006200 <f_read+0x68>
2000628c:	1ff77593          	andi	a1,a4,511
20006290:	20000913          	li	s2,512
20006294:	1ff00993          	li	s3,511
20006298:	02440493          	addi	s1,s0,36
2000629c:	fff00a13          	li	s4,-1
200062a0:	08059e63          	bnez	a1,2000633c <f_read+0x1a4>
200062a4:	00addc83          	lhu	s9,10(s11)
200062a8:	00975793          	srli	a5,a4,0x9
200062ac:	fffc8c93          	addi	s9,s9,-1
200062b0:	00fcfcb3          	and	s9,s9,a5
200062b4:	0a0c8463          	beqz	s9,2000635c <f_read+0x1c4>
200062b8:	01842503          	lw	a0,24(s0)
200062bc:	014da703          	lw	a4,20(s11)
200062c0:	ffe50793          	addi	a5,a0,-2
200062c4:	ffe70713          	addi	a4,a4,-2
200062c8:	0ae7fe63          	bgeu	a5,a4,20006384 <f_read+0x1ec>
200062cc:	00add703          	lhu	a4,10(s11)
200062d0:	028da683          	lw	a3,40(s11)
200062d4:	02e787b3          	mul	a5,a5,a4
200062d8:	00d78633          	add	a2,a5,a3
200062dc:	0a060463          	beqz	a2,20006384 <f_read+0x1ec>
200062e0:	00cc8633          	add	a2,s9,a2
200062e4:	0b69f863          	bgeu	s3,s6,20006394 <f_read+0x1fc>
200062e8:	009b5b93          	srli	s7,s6,0x9
200062ec:	017c87b3          	add	a5,s9,s7
200062f0:	00f77463          	bgeu	a4,a5,200062f8 <f_read+0x160>
200062f4:	41970bb3          	sub	s7,a4,s9
200062f8:	001dc503          	lbu	a0,1(s11)
200062fc:	000b8693          	mv	a3,s7
20006300:	000c0593          	mv	a1,s8
20006304:	7f0010ef          	jal	ra,20007af4 <disk_read>
20006308:	0e051c63          	bnez	a0,20006400 <f_read+0x268>
2000630c:	009b9b93          	slli	s7,s7,0x9
20006310:	000aa783          	lw	a5,0(s5)
20006314:	01442703          	lw	a4,20(s0)
20006318:	417b0b33          	sub	s6,s6,s7
2000631c:	017787b3          	add	a5,a5,s7
20006320:	00faa023          	sw	a5,0(s5)
20006324:	00eb8733          	add	a4,s7,a4
20006328:	00e42a23          	sw	a4,20(s0)
2000632c:	017c0c33          	add	s8,s8,s7
20006330:	ec0b08e3          	beqz	s6,20006200 <f_read+0x68>
20006334:	1ff77593          	andi	a1,a4,511
20006338:	f60586e3          	beqz	a1,200062a4 <f_read+0x10c>
2000633c:	40b90bb3          	sub	s7,s2,a1
20006340:	017b7463          	bgeu	s6,s7,20006348 <f_read+0x1b0>
20006344:	000b0b93          	mv	s7,s6
20006348:	000b8613          	mv	a2,s7
2000634c:	00b485b3          	add	a1,s1,a1
20006350:	000c0513          	mv	a0,s8
20006354:	f14fa0ef          	jal	ra,20000a68 <memcpy>
20006358:	fb9ff06f          	j	20006310 <f_read+0x178>
2000635c:	06071663          	bnez	a4,200063c8 <f_read+0x230>
20006360:	00842503          	lw	a0,8(s0)
20006364:	00100793          	li	a5,1
20006368:	00a7fe63          	bgeu	a5,a0,20006384 <f_read+0x1ec>
2000636c:	09450a63          	beq	a0,s4,20006400 <f_read+0x268>
20006370:	00a42c23          	sw	a0,24(s0)
20006374:	014da703          	lw	a4,20(s11)
20006378:	ffe50793          	addi	a5,a0,-2
2000637c:	ffe70713          	addi	a4,a4,-2
20006380:	f4e7e6e3          	bltu	a5,a4,200062cc <f_read+0x134>
20006384:	00200793          	li	a5,2
20006388:	00f408a3          	sb	a5,17(s0)
2000638c:	00200d13          	li	s10,2
20006390:	e71ff06f          	j	20006200 <f_read+0x68>
20006394:	01c42783          	lw	a5,28(s0)
20006398:	02c78063          	beq	a5,a2,200063b8 <f_read+0x220>
2000639c:	001dc503          	lbu	a0,1(s11)
200063a0:	00100693          	li	a3,1
200063a4:	00048593          	mv	a1,s1
200063a8:	00c12623          	sw	a2,12(sp)
200063ac:	748010ef          	jal	ra,20007af4 <disk_read>
200063b0:	00c12603          	lw	a2,12(sp)
200063b4:	04051663          	bnez	a0,20006400 <f_read+0x268>
200063b8:	01442583          	lw	a1,20(s0)
200063bc:	00c42e23          	sw	a2,28(s0)
200063c0:	1ff5f593          	andi	a1,a1,511
200063c4:	f79ff06f          	j	2000633c <f_read+0x1a4>
200063c8:	02042683          	lw	a3,32(s0)
200063cc:	00042503          	lw	a0,0(s0)
200063d0:	04068463          	beqz	a3,20006418 <f_read+0x280>
200063d4:	00a55603          	lhu	a2,10(a0)
200063d8:	0046a703          	lw	a4,4(a3)
200063dc:	00468693          	addi	a3,a3,4
200063e0:	02c7d7b3          	divu	a5,a5,a2
200063e4:	fa0700e3          	beqz	a4,20006384 <f_read+0x1ec>
200063e8:	02e7ee63          	bltu	a5,a4,20006424 <f_read+0x28c>
200063ec:	00868693          	addi	a3,a3,8
200063f0:	40e787b3          	sub	a5,a5,a4
200063f4:	0006a703          	lw	a4,0(a3)
200063f8:	fe0718e3          	bnez	a4,200063e8 <f_read+0x250>
200063fc:	f89ff06f          	j	20006384 <f_read+0x1ec>
20006400:	00100793          	li	a5,1
20006404:	00f408a3          	sb	a5,17(s0)
20006408:	00100d13          	li	s10,1
2000640c:	df5ff06f          	j	20006200 <f_read+0x68>
20006410:	00700d13          	li	s10,7
20006414:	dedff06f          	j	20006200 <f_read+0x68>
20006418:	01842583          	lw	a1,24(s0)
2000641c:	c71fe0ef          	jal	ra,2000508c <_ZL7get_fatP7FFOBJIDm.isra.0>
20006420:	f45ff06f          	j	20006364 <f_read+0x1cc>
20006424:	0046a703          	lw	a4,4(a3)
20006428:	00e78533          	add	a0,a5,a4
2000642c:	f39ff06f          	j	20006364 <f_read+0x1cc>

20006430 <f_close>:
20006430:	06050463          	beqz	a0,20006498 <f_close+0x68>
20006434:	00052783          	lw	a5,0(a0)
20006438:	ff010113          	addi	sp,sp,-16
2000643c:	00812423          	sw	s0,8(sp)
20006440:	00112623          	sw	ra,12(sp)
20006444:	00050413          	mv	s0,a0
20006448:	00078c63          	beqz	a5,20006460 <f_close+0x30>
2000644c:	0007c703          	lbu	a4,0(a5)
20006450:	00070863          	beqz	a4,20006460 <f_close+0x30>
20006454:	00455683          	lhu	a3,4(a0)
20006458:	0067d703          	lhu	a4,6(a5)
2000645c:	00e68c63          	beq	a3,a4,20006474 <f_close+0x44>
20006460:	00c12083          	lw	ra,12(sp)
20006464:	00812403          	lw	s0,8(sp)
20006468:	00900513          	li	a0,9
2000646c:	01010113          	addi	sp,sp,16
20006470:	00008067          	ret
20006474:	0017c503          	lbu	a0,1(a5)
20006478:	640010ef          	jal	ra,20007ab8 <disk_status>
2000647c:	00157513          	andi	a0,a0,1
20006480:	fe0510e3          	bnez	a0,20006460 <f_close+0x30>
20006484:	00c12083          	lw	ra,12(sp)
20006488:	00042023          	sw	zero,0(s0)
2000648c:	00812403          	lw	s0,8(sp)
20006490:	01010113          	addi	sp,sp,16
20006494:	00008067          	ret
20006498:	00900513          	li	a0,9
2000649c:	00008067          	ret

200064a0 <f_chdrive>:
200064a0:	fe010113          	addi	sp,sp,-32
200064a4:	00a12623          	sw	a0,12(sp)
200064a8:	00c10513          	addi	a0,sp,12
200064ac:	00112e23          	sw	ra,28(sp)
200064b0:	c70fe0ef          	jal	ra,20004920 <_ZL12get_ldnumberPPKc>
200064b4:	00054c63          	bltz	a0,200064cc <f_chdrive+0x2c>
200064b8:	01c12083          	lw	ra,28(sp)
200064bc:	30a18223          	sb	a0,772(gp) # 2000b0e4 <_ZL7CurrVol>
200064c0:	00000513          	li	a0,0
200064c4:	02010113          	addi	sp,sp,32
200064c8:	00008067          	ret
200064cc:	01c12083          	lw	ra,28(sp)
200064d0:	00b00513          	li	a0,11
200064d4:	02010113          	addi	sp,sp,32
200064d8:	00008067          	ret

200064dc <f_chdir>:
200064dc:	fa010113          	addi	sp,sp,-96
200064e0:	00a12623          	sw	a0,12(sp)
200064e4:	01c10593          	addi	a1,sp,28
200064e8:	00c10513          	addi	a0,sp,12
200064ec:	04112e23          	sw	ra,92(sp)
200064f0:	04812c23          	sw	s0,88(sp)
200064f4:	f44fe0ef          	jal	ra,20004c38 <_ZL12mount_volumePPKcPP5FATFSh.constprop.0>
200064f8:	00050a63          	beqz	a0,2000650c <f_chdir+0x30>
200064fc:	05c12083          	lw	ra,92(sp)
20006500:	05812403          	lw	s0,88(sp)
20006504:	06010113          	addi	sp,sp,96
20006508:	00008067          	ret
2000650c:	01c12403          	lw	s0,28(sp)
20006510:	00c12583          	lw	a1,12(sp)
20006514:	02010513          	addi	a0,sp,32
20006518:	02812023          	sw	s0,32(sp)
2000651c:	844ff0ef          	jal	ra,20005560 <_ZL11follow_pathP3DIRPKc>
20006520:	04051063          	bnez	a0,20006560 <f_chdir+0x84>
20006524:	04b10783          	lb	a5,75(sp)
20006528:	0407c463          	bltz	a5,20006570 <f_chdir+0x94>
2000652c:	02614783          	lbu	a5,38(sp)
20006530:	0107f793          	andi	a5,a5,16
20006534:	02078a63          	beqz	a5,20006568 <f_chdir+0x8c>
20006538:	03c12703          	lw	a4,60(sp)
2000653c:	00044603          	lbu	a2,0(s0)
20006540:	00300693          	li	a3,3
20006544:	01b74783          	lbu	a5,27(a4)
20006548:	01a74583          	lbu	a1,26(a4)
2000654c:	00879793          	slli	a5,a5,0x8
20006550:	00b7e7b3          	or	a5,a5,a1
20006554:	02d60463          	beq	a2,a3,2000657c <f_chdir+0xa0>
20006558:	00f42823          	sw	a5,16(s0)
2000655c:	fa1ff06f          	j	200064fc <f_chdir+0x20>
20006560:	00400793          	li	a5,4
20006564:	f8f51ce3          	bne	a0,a5,200064fc <f_chdir+0x20>
20006568:	00500513          	li	a0,5
2000656c:	f91ff06f          	j	200064fc <f_chdir+0x20>
20006570:	02812783          	lw	a5,40(sp)
20006574:	00f42823          	sw	a5,16(s0)
20006578:	f85ff06f          	j	200064fc <f_chdir+0x20>
2000657c:	01574683          	lbu	a3,21(a4)
20006580:	01474603          	lbu	a2,20(a4)
20006584:	00869713          	slli	a4,a3,0x8
20006588:	00c76733          	or	a4,a4,a2
2000658c:	01071713          	slli	a4,a4,0x10
20006590:	00e7e7b3          	or	a5,a5,a4
20006594:	00f42823          	sw	a5,16(s0)
20006598:	f65ff06f          	j	200064fc <f_chdir+0x20>

2000659c <f_lseek>:
2000659c:	fa010113          	addi	sp,sp,-96
200065a0:	04112e23          	sw	ra,92(sp)
200065a4:	04812c23          	sw	s0,88(sp)
200065a8:	04912a23          	sw	s1,84(sp)
200065ac:	05212823          	sw	s2,80(sp)
200065b0:	05312623          	sw	s3,76(sp)
200065b4:	05412423          	sw	s4,72(sp)
200065b8:	05512223          	sw	s5,68(sp)
200065bc:	05612023          	sw	s6,64(sp)
200065c0:	03712e23          	sw	s7,60(sp)
200065c4:	03812c23          	sw	s8,56(sp)
200065c8:	03912a23          	sw	s9,52(sp)
200065cc:	03a12823          	sw	s10,48(sp)
200065d0:	03b12623          	sw	s11,44(sp)
200065d4:	02050263          	beqz	a0,200065f8 <f_lseek+0x5c>
200065d8:	00052783          	lw	a5,0(a0)
200065dc:	00050413          	mv	s0,a0
200065e0:	00078c63          	beqz	a5,200065f8 <f_lseek+0x5c>
200065e4:	0007c703          	lbu	a4,0(a5)
200065e8:	00070863          	beqz	a4,200065f8 <f_lseek+0x5c>
200065ec:	00455683          	lhu	a3,4(a0)
200065f0:	0067d703          	lhu	a4,6(a5)
200065f4:	04e68463          	beq	a3,a4,2000663c <f_lseek+0xa0>
200065f8:	00900913          	li	s2,9
200065fc:	05c12083          	lw	ra,92(sp)
20006600:	05812403          	lw	s0,88(sp)
20006604:	05412483          	lw	s1,84(sp)
20006608:	04c12983          	lw	s3,76(sp)
2000660c:	04812a03          	lw	s4,72(sp)
20006610:	04412a83          	lw	s5,68(sp)
20006614:	04012b03          	lw	s6,64(sp)
20006618:	03c12b83          	lw	s7,60(sp)
2000661c:	03812c03          	lw	s8,56(sp)
20006620:	03412c83          	lw	s9,52(sp)
20006624:	03012d03          	lw	s10,48(sp)
20006628:	02c12d83          	lw	s11,44(sp)
2000662c:	00090513          	mv	a0,s2
20006630:	05012903          	lw	s2,80(sp)
20006634:	06010113          	addi	sp,sp,96
20006638:	00008067          	ret
2000663c:	0017c503          	lbu	a0,1(a5)
20006640:	00b12623          	sw	a1,12(sp)
20006644:	474010ef          	jal	ra,20007ab8 <disk_status>
20006648:	00157513          	andi	a0,a0,1
2000664c:	fa0516e3          	bnez	a0,200065f8 <f_lseek+0x5c>
20006650:	01144903          	lbu	s2,17(s0)
20006654:	00042c03          	lw	s8,0(s0)
20006658:	fa0912e3          	bnez	s2,200065fc <f_lseek+0x60>
2000665c:	02042783          	lw	a5,32(s0)
20006660:	00c12583          	lw	a1,12(sp)
20006664:	0a078a63          	beqz	a5,20006718 <f_lseek+0x17c>
20006668:	fff00713          	li	a4,-1
2000666c:	1ae58063          	beq	a1,a4,2000680c <f_lseek+0x270>
20006670:	00c42603          	lw	a2,12(s0)
20006674:	00c5f463          	bgeu	a1,a2,2000667c <f_lseek+0xe0>
20006678:	00058613          	mv	a2,a1
2000667c:	00c42a23          	sw	a2,20(s0)
20006680:	f6060ee3          	beqz	a2,200065fc <f_lseek+0x60>
20006684:	00ac5583          	lhu	a1,10(s8)
20006688:	0047a703          	lw	a4,4(a5)
2000668c:	fff60513          	addi	a0,a2,-1
20006690:	00955513          	srli	a0,a0,0x9
20006694:	02b556b3          	divu	a3,a0,a1
20006698:	00478793          	addi	a5,a5,4
2000669c:	00070c63          	beqz	a4,200066b4 <f_lseek+0x118>
200066a0:	2ee6ec63          	bltu	a3,a4,20006998 <f_lseek+0x3fc>
200066a4:	00878793          	addi	a5,a5,8
200066a8:	40e686b3          	sub	a3,a3,a4
200066ac:	0007a703          	lw	a4,0(a5)
200066b0:	fe0718e3          	bnez	a4,200066a0 <f_lseek+0x104>
200066b4:	ffe00793          	li	a5,-2
200066b8:	00e42c23          	sw	a4,24(s0)
200066bc:	014c2703          	lw	a4,20(s8)
200066c0:	ffe70713          	addi	a4,a4,-2
200066c4:	18e7fe63          	bgeu	a5,a4,20006860 <f_lseek+0x2c4>
200066c8:	02f587b3          	mul	a5,a1,a5
200066cc:	028c2703          	lw	a4,40(s8)
200066d0:	00e787b3          	add	a5,a5,a4
200066d4:	18078663          	beqz	a5,20006860 <f_lseek+0x2c4>
200066d8:	1ff67613          	andi	a2,a2,511
200066dc:	f20600e3          	beqz	a2,200065fc <f_lseek+0x60>
200066e0:	fff58493          	addi	s1,a1,-1
200066e4:	01c42703          	lw	a4,28(s0)
200066e8:	00a4f4b3          	and	s1,s1,a0
200066ec:	00f484b3          	add	s1,s1,a5
200066f0:	f09706e3          	beq	a4,s1,200065fc <f_lseek+0x60>
200066f4:	001c4503          	lbu	a0,1(s8)
200066f8:	00100693          	li	a3,1
200066fc:	00048613          	mv	a2,s1
20006700:	02440593          	addi	a1,s0,36
20006704:	3f0010ef          	jal	ra,20007af4 <disk_read>
20006708:	00050913          	mv	s2,a0
2000670c:	0e051863          	bnez	a0,200067fc <f_lseek+0x260>
20006710:	00942e23          	sw	s1,28(s0)
20006714:	ee9ff06f          	j	200065fc <f_lseek+0x60>
20006718:	00c42703          	lw	a4,12(s0)
2000671c:	00e5f463          	bgeu	a1,a4,20006724 <f_lseek+0x188>
20006720:	00058713          	mv	a4,a1
20006724:	01442783          	lw	a5,20(s0)
20006728:	00042a23          	sw	zero,20(s0)
2000672c:	ec0708e3          	beqz	a4,200065fc <f_lseek+0x60>
20006730:	00ac5483          	lhu	s1,10(s8)
20006734:	00949493          	slli	s1,s1,0x9
20006738:	06078463          	beqz	a5,200067a0 <f_lseek+0x204>
2000673c:	fff78693          	addi	a3,a5,-1
20006740:	fff70793          	addi	a5,a4,-1
20006744:	0297d7b3          	divu	a5,a5,s1
20006748:	0296d633          	divu	a2,a3,s1
2000674c:	04c7ea63          	bltu	a5,a2,200067a0 <f_lseek+0x204>
20006750:	01842a03          	lw	s4,24(s0)
20006754:	409007b3          	neg	a5,s1
20006758:	00d7f7b3          	and	a5,a5,a3
2000675c:	00f42a23          	sw	a5,20(s0)
20006760:	40f709b3          	sub	s3,a4,a5
20006764:	000a0593          	mv	a1,s4
20006768:	040a1663          	bnez	s4,200067b4 <f_lseek+0x218>
2000676c:	1ff7f793          	andi	a5,a5,511
20006770:	e80786e3          	beqz	a5,200065fc <f_lseek+0x60>
20006774:	01c42783          	lw	a5,28(s0)
20006778:	e94782e3          	beq	a5,s4,200065fc <f_lseek+0x60>
2000677c:	001c4503          	lbu	a0,1(s8)
20006780:	00100693          	li	a3,1
20006784:	000a0613          	mv	a2,s4
20006788:	02440593          	addi	a1,s0,36
2000678c:	368010ef          	jal	ra,20007af4 <disk_read>
20006790:	00050913          	mv	s2,a0
20006794:	06051463          	bnez	a0,200067fc <f_lseek+0x260>
20006798:	01442e23          	sw	s4,28(s0)
2000679c:	e61ff06f          	j	200065fc <f_lseek+0x60>
200067a0:	00842583          	lw	a1,8(s0)
200067a4:	00b42c23          	sw	a1,24(s0)
200067a8:	e4058ae3          	beqz	a1,200065fc <f_lseek+0x60>
200067ac:	00000793          	li	a5,0
200067b0:	00070993          	mv	s3,a4
200067b4:	3534fa63          	bgeu	s1,s3,20006b08 <f_lseek+0x56c>
200067b8:	000c0513          	mv	a0,s8
200067bc:	fff00a13          	li	s4,-1
200067c0:	00100a93          	li	s5,1
200067c4:	0200006f          	j	200067e4 <f_lseek+0x248>
200067c8:	08aafc63          	bgeu	s5,a0,20006860 <f_lseek+0x2c4>
200067cc:	014c2783          	lw	a5,20(s8)
200067d0:	08f57863          	bgeu	a0,a5,20006860 <f_lseek+0x2c4>
200067d4:	00a42c23          	sw	a0,24(s0)
200067d8:	01442783          	lw	a5,20(s0)
200067dc:	2f34f663          	bgeu	s1,s3,20006ac8 <f_lseek+0x52c>
200067e0:	00042503          	lw	a0,0(s0)
200067e4:	00f487b3          	add	a5,s1,a5
200067e8:	00f42a23          	sw	a5,20(s0)
200067ec:	8a1fe0ef          	jal	ra,2000508c <_ZL7get_fatP7FFOBJIDm.isra.0>
200067f0:	00050593          	mv	a1,a0
200067f4:	409989b3          	sub	s3,s3,s1
200067f8:	fd4518e3          	bne	a0,s4,200067c8 <f_lseek+0x22c>
200067fc:	00100793          	li	a5,1
20006800:	00f408a3          	sb	a5,17(s0)
20006804:	00100913          	li	s2,1
20006808:	df5ff06f          	j	200065fc <f_lseek+0x60>
2000680c:	0007a703          	lw	a4,0(a5)
20006810:	00842d83          	lw	s11,8(s0)
20006814:	00478a13          	addi	s4,a5,4
20006818:	00e12623          	sw	a4,12(sp)
2000681c:	160d8263          	beqz	s11,20006980 <f_lseek+0x3e4>
20006820:	00001bb7          	lui	s7,0x1
20006824:	10000ab7          	lui	s5,0x10000
20006828:	fffb8793          	addi	a5,s7,-1 # fff <_start-0x1ffff001>
2000682c:	000c0993          	mv	s3,s8
20006830:	00200b13          	li	s6,2
20006834:	00200893          	li	a7,2
20006838:	fffa8a93          	addi	s5,s5,-1 # fffffff <_start-0x10000001>
2000683c:	00f12823          	sw	a5,16(sp)
20006840:	00000c93          	li	s9,0
20006844:	000d8493          	mv	s1,s11
20006848:	00100d13          	li	s10,1
2000684c:	00300b93          	li	s7,3
20006850:	001c8c93          	addi	s9,s9,1
20006854:	009d7663          	bgeu	s10,s1,20006860 <f_lseek+0x2c4>
20006858:	0149a783          	lw	a5,20(s3)
2000685c:	00f4ea63          	bltu	s1,a5,20006870 <f_lseek+0x2d4>
20006860:	00200793          	li	a5,2
20006864:	00f408a3          	sb	a5,17(s0)
20006868:	00200913          	li	s2,2
2000686c:	d91ff06f          	j	200065fc <f_lseek+0x60>
20006870:	0009c783          	lbu	a5,0(s3)
20006874:	0d178a63          	beq	a5,a7,20006948 <f_lseek+0x3ac>
20006878:	07778e63          	beq	a5,s7,200068f4 <f_lseek+0x358>
2000687c:	ffa792e3          	bne	a5,s10,20006860 <f_lseek+0x2c4>
20006880:	0209a583          	lw	a1,32(s3)
20006884:	0014d793          	srli	a5,s1,0x1
20006888:	009787b3          	add	a5,a5,s1
2000688c:	02c9a683          	lw	a3,44(s3)
20006890:	0097d613          	srli	a2,a5,0x9
20006894:	00b60633          	add	a2,a2,a1
20006898:	16d61463          	bne	a2,a3,20006a00 <f_lseek+0x464>
2000689c:	00178313          	addi	t1,a5,1
200068a0:	00935613          	srli	a2,t1,0x9
200068a4:	1ff7f793          	andi	a5,a5,511
200068a8:	00f987b3          	add	a5,s3,a5
200068ac:	00b60633          	add	a2,a2,a1
200068b0:	0307c783          	lbu	a5,48(a5)
200068b4:	18c69263          	bne	a3,a2,20006a38 <f_lseek+0x49c>
200068b8:	1ff37313          	andi	t1,t1,511
200068bc:	00698333          	add	t1,s3,t1
200068c0:	03034683          	lbu	a3,48(t1)
200068c4:	0014f613          	andi	a2,s1,1
200068c8:	00869693          	slli	a3,a3,0x8
200068cc:	00f6e6b3          	or	a3,a3,a5
200068d0:	01012783          	lw	a5,16(sp)
200068d4:	00f6f7b3          	and	a5,a3,a5
200068d8:	18061c63          	bnez	a2,20006a70 <f_lseek+0x4d4>
200068dc:	f8fd72e3          	bgeu	s10,a5,20006860 <f_lseek+0x2c4>
200068e0:	00148493          	addi	s1,s1,1
200068e4:	1af49063          	bne	s1,a5,20006a84 <f_lseek+0x4e8>
200068e8:	00042983          	lw	s3,0(s0)
200068ec:	00078493          	mv	s1,a5
200068f0:	f61ff06f          	j	20006850 <f_lseek+0x2b4>
200068f4:	0209a683          	lw	a3,32(s3)
200068f8:	02c9a783          	lw	a5,44(s3)
200068fc:	0074d613          	srli	a2,s1,0x7
20006900:	00d60633          	add	a2,a2,a3
20006904:	03098593          	addi	a1,s3,48
20006908:	0cf61663          	bne	a2,a5,200069d4 <f_lseek+0x438>
2000690c:	00249793          	slli	a5,s1,0x2
20006910:	1fc7f793          	andi	a5,a5,508
20006914:	00f585b3          	add	a1,a1,a5
20006918:	0015c603          	lbu	a2,1(a1)
2000691c:	0005c503          	lbu	a0,0(a1)
20006920:	0025c683          	lbu	a3,2(a1)
20006924:	0035c783          	lbu	a5,3(a1)
20006928:	00861613          	slli	a2,a2,0x8
2000692c:	00a66633          	or	a2,a2,a0
20006930:	01069693          	slli	a3,a3,0x10
20006934:	00c6e6b3          	or	a3,a3,a2
20006938:	01879793          	slli	a5,a5,0x18
2000693c:	00d7e7b3          	or	a5,a5,a3
20006940:	0157f7b3          	and	a5,a5,s5
20006944:	f99ff06f          	j	200068dc <f_lseek+0x340>
20006948:	0209a683          	lw	a3,32(s3)
2000694c:	02c9a783          	lw	a5,44(s3)
20006950:	0084d613          	srli	a2,s1,0x8
20006954:	00d60633          	add	a2,a2,a3
20006958:	03098593          	addi	a1,s3,48
2000695c:	04f61663          	bne	a2,a5,200069a8 <f_lseek+0x40c>
20006960:	00149793          	slli	a5,s1,0x1
20006964:	1fe7f793          	andi	a5,a5,510
20006968:	00f585b3          	add	a1,a1,a5
2000696c:	0015c783          	lbu	a5,1(a1)
20006970:	0005c683          	lbu	a3,0(a1)
20006974:	00879793          	slli	a5,a5,0x8
20006978:	00d7e7b3          	or	a5,a5,a3
2000697c:	f61ff06f          	j	200068dc <f_lseek+0x340>
20006980:	00200b13          	li	s6,2
20006984:	0167a023          	sw	s6,0(a5)
20006988:	00c12783          	lw	a5,12(sp)
2000698c:	1367e263          	bltu	a5,s6,20006ab0 <f_lseek+0x514>
20006990:	000a2023          	sw	zero,0(s4)
20006994:	c69ff06f          	j	200065fc <f_lseek+0x60>
20006998:	0047a703          	lw	a4,4(a5)
2000699c:	00e68733          	add	a4,a3,a4
200069a0:	ffe70793          	addi	a5,a4,-2
200069a4:	d15ff06f          	j	200066b8 <f_lseek+0x11c>
200069a8:	0019c503          	lbu	a0,1(s3)
200069ac:	00100693          	li	a3,1
200069b0:	00c12c23          	sw	a2,24(sp)
200069b4:	00b12a23          	sw	a1,20(sp)
200069b8:	13c010ef          	jal	ra,20007af4 <disk_read>
200069bc:	01412583          	lw	a1,20(sp)
200069c0:	01812603          	lw	a2,24(sp)
200069c4:	00200893          	li	a7,2
200069c8:	0a051863          	bnez	a0,20006a78 <f_lseek+0x4dc>
200069cc:	02c9a623          	sw	a2,44(s3)
200069d0:	f91ff06f          	j	20006960 <f_lseek+0x3c4>
200069d4:	0019c503          	lbu	a0,1(s3)
200069d8:	00100693          	li	a3,1
200069dc:	00c12c23          	sw	a2,24(sp)
200069e0:	00b12a23          	sw	a1,20(sp)
200069e4:	110010ef          	jal	ra,20007af4 <disk_read>
200069e8:	08051863          	bnez	a0,20006a78 <f_lseek+0x4dc>
200069ec:	01812603          	lw	a2,24(sp)
200069f0:	01412583          	lw	a1,20(sp)
200069f4:	00200893          	li	a7,2
200069f8:	02c9a623          	sw	a2,44(s3)
200069fc:	f11ff06f          	j	2000690c <f_lseek+0x370>
20006a00:	0019c503          	lbu	a0,1(s3)
20006a04:	00100693          	li	a3,1
20006a08:	03098593          	addi	a1,s3,48
20006a0c:	00f12c23          	sw	a5,24(sp)
20006a10:	00c12a23          	sw	a2,20(sp)
20006a14:	0e0010ef          	jal	ra,20007af4 <disk_read>
20006a18:	01412603          	lw	a2,20(sp)
20006a1c:	01812783          	lw	a5,24(sp)
20006a20:	00200893          	li	a7,2
20006a24:	04051a63          	bnez	a0,20006a78 <f_lseek+0x4dc>
20006a28:	0209a583          	lw	a1,32(s3)
20006a2c:	02c9a623          	sw	a2,44(s3)
20006a30:	00060693          	mv	a3,a2
20006a34:	e69ff06f          	j	2000689c <f_lseek+0x300>
20006a38:	0019c503          	lbu	a0,1(s3)
20006a3c:	00100693          	li	a3,1
20006a40:	03098593          	addi	a1,s3,48
20006a44:	00f12e23          	sw	a5,28(sp)
20006a48:	00612c23          	sw	t1,24(sp)
20006a4c:	00c12a23          	sw	a2,20(sp)
20006a50:	0a4010ef          	jal	ra,20007af4 <disk_read>
20006a54:	01412603          	lw	a2,20(sp)
20006a58:	01812303          	lw	t1,24(sp)
20006a5c:	01c12783          	lw	a5,28(sp)
20006a60:	00200893          	li	a7,2
20006a64:	00051a63          	bnez	a0,20006a78 <f_lseek+0x4dc>
20006a68:	02c9a623          	sw	a2,44(s3)
20006a6c:	e4dff06f          	j	200068b8 <f_lseek+0x31c>
20006a70:	0046d793          	srli	a5,a3,0x4
20006a74:	e69ff06f          	j	200068dc <f_lseek+0x340>
20006a78:	fff00793          	li	a5,-1
20006a7c:	02f9a623          	sw	a5,44(s3)
20006a80:	d7dff06f          	j	200067fc <f_lseek+0x260>
20006a84:	00c12703          	lw	a4,12(sp)
20006a88:	002b0b13          	addi	s6,s6,2
20006a8c:	03676663          	bltu	a4,s6,20006ab8 <f_lseek+0x51c>
20006a90:	019a2023          	sw	s9,0(s4)
20006a94:	01ba2223          	sw	s11,4(s4)
20006a98:	014c2703          	lw	a4,20(s8)
20006a9c:	008a0a13          	addi	s4,s4,8
20006aa0:	02e7f063          	bgeu	a5,a4,20006ac0 <f_lseek+0x524>
20006aa4:	00042983          	lw	s3,0(s0)
20006aa8:	00078d93          	mv	s11,a5
20006aac:	d95ff06f          	j	20006840 <f_lseek+0x2a4>
20006ab0:	01100913          	li	s2,17
20006ab4:	b49ff06f          	j	200065fc <f_lseek+0x60>
20006ab8:	014c2703          	lw	a4,20(s8)
20006abc:	fee7e4e3          	bltu	a5,a4,20006aa4 <f_lseek+0x508>
20006ac0:	02042783          	lw	a5,32(s0)
20006ac4:	ec1ff06f          	j	20006984 <f_lseek+0x3e8>
20006ac8:	013787b3          	add	a5,a5,s3
20006acc:	00f42a23          	sw	a5,20(s0)
20006ad0:	1ff9fa13          	andi	s4,s3,511
20006ad4:	c80a0ce3          	beqz	s4,2000676c <f_lseek+0x1d0>
20006ad8:	014c2703          	lw	a4,20(s8)
20006adc:	ffe58593          	addi	a1,a1,-2
20006ae0:	ffe70713          	addi	a4,a4,-2
20006ae4:	d6e5fee3          	bgeu	a1,a4,20006860 <f_lseek+0x2c4>
20006ae8:	00ac5a03          	lhu	s4,10(s8)
20006aec:	028c2703          	lw	a4,40(s8)
20006af0:	02ba0a33          	mul	s4,s4,a1
20006af4:	00ea0a33          	add	s4,s4,a4
20006af8:	d60a04e3          	beqz	s4,20006860 <f_lseek+0x2c4>
20006afc:	0099d993          	srli	s3,s3,0x9
20006b00:	01498a33          	add	s4,s3,s4
20006b04:	c69ff06f          	j	2000676c <f_lseek+0x1d0>
20006b08:	00070793          	mv	a5,a4
20006b0c:	fc1ff06f          	j	20006acc <f_lseek+0x530>

20006b10 <f_opendir>:
20006b10:	fd010113          	addi	sp,sp,-48
20006b14:	02112623          	sw	ra,44(sp)
20006b18:	02812423          	sw	s0,40(sp)
20006b1c:	02912223          	sw	s1,36(sp)
20006b20:	00b12623          	sw	a1,12(sp)
20006b24:	0c050063          	beqz	a0,20006be4 <f_opendir+0xd4>
20006b28:	00050413          	mv	s0,a0
20006b2c:	01c10593          	addi	a1,sp,28
20006b30:	00c10513          	addi	a0,sp,12
20006b34:	904fe0ef          	jal	ra,20004c38 <_ZL12mount_volumePPKcPP5FATFSh.constprop.0>
20006b38:	00050e63          	beqz	a0,20006b54 <f_opendir+0x44>
20006b3c:	02c12083          	lw	ra,44(sp)
20006b40:	00042023          	sw	zero,0(s0)
20006b44:	02812403          	lw	s0,40(sp)
20006b48:	02412483          	lw	s1,36(sp)
20006b4c:	03010113          	addi	sp,sp,48
20006b50:	00008067          	ret
20006b54:	01c12483          	lw	s1,28(sp)
20006b58:	00c12583          	lw	a1,12(sp)
20006b5c:	00040513          	mv	a0,s0
20006b60:	00942023          	sw	s1,0(s0)
20006b64:	9fdfe0ef          	jal	ra,20005560 <_ZL11follow_pathP3DIRPKc>
20006b68:	06051663          	bnez	a0,20006bd4 <f_opendir+0xc4>
20006b6c:	02b40783          	lb	a5,43(s0)
20006b70:	0207ca63          	bltz	a5,20006ba4 <f_opendir+0x94>
20006b74:	00644783          	lbu	a5,6(s0)
20006b78:	0107f793          	andi	a5,a5,16
20006b7c:	06078063          	beqz	a5,20006bdc <f_opendir+0xcc>
20006b80:	01c42703          	lw	a4,28(s0)
20006b84:	0004c603          	lbu	a2,0(s1)
20006b88:	00300693          	li	a3,3
20006b8c:	01b74783          	lbu	a5,27(a4)
20006b90:	01a74583          	lbu	a1,26(a4)
20006b94:	00879793          	slli	a5,a5,0x8
20006b98:	00b7e7b3          	or	a5,a5,a1
20006b9c:	06d60063          	beq	a2,a3,20006bfc <f_opendir+0xec>
20006ba0:	00f42423          	sw	a5,8(s0)
20006ba4:	0064d783          	lhu	a5,6(s1)
20006ba8:	00040513          	mv	a0,s0
20006bac:	00f41223          	sh	a5,4(s0)
20006bb0:	ee4fe0ef          	jal	ra,20005294 <_ZL7dir_sdiP3DIRm.constprop.0>
20006bb4:	00400793          	li	a5,4
20006bb8:	02f50263          	beq	a0,a5,20006bdc <f_opendir+0xcc>
20006bbc:	f80510e3          	bnez	a0,20006b3c <f_opendir+0x2c>
20006bc0:	02c12083          	lw	ra,44(sp)
20006bc4:	02812403          	lw	s0,40(sp)
20006bc8:	02412483          	lw	s1,36(sp)
20006bcc:	03010113          	addi	sp,sp,48
20006bd0:	00008067          	ret
20006bd4:	00400793          	li	a5,4
20006bd8:	f6f512e3          	bne	a0,a5,20006b3c <f_opendir+0x2c>
20006bdc:	00500513          	li	a0,5
20006be0:	f5dff06f          	j	20006b3c <f_opendir+0x2c>
20006be4:	02c12083          	lw	ra,44(sp)
20006be8:	02812403          	lw	s0,40(sp)
20006bec:	02412483          	lw	s1,36(sp)
20006bf0:	00900513          	li	a0,9
20006bf4:	03010113          	addi	sp,sp,48
20006bf8:	00008067          	ret
20006bfc:	01574683          	lbu	a3,21(a4)
20006c00:	01474603          	lbu	a2,20(a4)
20006c04:	00869713          	slli	a4,a3,0x8
20006c08:	00c76733          	or	a4,a4,a2
20006c0c:	01071713          	slli	a4,a4,0x10
20006c10:	00e7e7b3          	or	a5,a5,a4
20006c14:	00f42423          	sw	a5,8(s0)
20006c18:	f8dff06f          	j	20006ba4 <f_opendir+0x94>

20006c1c <f_closedir>:
20006c1c:	06050463          	beqz	a0,20006c84 <f_closedir+0x68>
20006c20:	00052783          	lw	a5,0(a0)
20006c24:	ff010113          	addi	sp,sp,-16
20006c28:	00812423          	sw	s0,8(sp)
20006c2c:	00112623          	sw	ra,12(sp)
20006c30:	00050413          	mv	s0,a0
20006c34:	00078c63          	beqz	a5,20006c4c <f_closedir+0x30>
20006c38:	0007c703          	lbu	a4,0(a5)
20006c3c:	00070863          	beqz	a4,20006c4c <f_closedir+0x30>
20006c40:	00455683          	lhu	a3,4(a0)
20006c44:	0067d703          	lhu	a4,6(a5)
20006c48:	00e68c63          	beq	a3,a4,20006c60 <f_closedir+0x44>
20006c4c:	00c12083          	lw	ra,12(sp)
20006c50:	00812403          	lw	s0,8(sp)
20006c54:	00900513          	li	a0,9
20006c58:	01010113          	addi	sp,sp,16
20006c5c:	00008067          	ret
20006c60:	0017c503          	lbu	a0,1(a5)
20006c64:	655000ef          	jal	ra,20007ab8 <disk_status>
20006c68:	00157513          	andi	a0,a0,1
20006c6c:	fe0510e3          	bnez	a0,20006c4c <f_closedir+0x30>
20006c70:	00c12083          	lw	ra,12(sp)
20006c74:	00042023          	sw	zero,0(s0)
20006c78:	00812403          	lw	s0,8(sp)
20006c7c:	01010113          	addi	sp,sp,16
20006c80:	00008067          	ret
20006c84:	00900513          	li	a0,9
20006c88:	00008067          	ret

20006c8c <f_readdir>:
20006c8c:	7e050063          	beqz	a0,2000746c <f_readdir+0x7e0>
20006c90:	00052783          	lw	a5,0(a0)
20006c94:	fb010113          	addi	sp,sp,-80
20006c98:	04812423          	sw	s0,72(sp)
20006c9c:	04112623          	sw	ra,76(sp)
20006ca0:	04912223          	sw	s1,68(sp)
20006ca4:	05212023          	sw	s2,64(sp)
20006ca8:	03312e23          	sw	s3,60(sp)
20006cac:	03412c23          	sw	s4,56(sp)
20006cb0:	03512a23          	sw	s5,52(sp)
20006cb4:	03612823          	sw	s6,48(sp)
20006cb8:	03712623          	sw	s7,44(sp)
20006cbc:	03812423          	sw	s8,40(sp)
20006cc0:	03912223          	sw	s9,36(sp)
20006cc4:	03a12023          	sw	s10,32(sp)
20006cc8:	01b12e23          	sw	s11,28(sp)
20006ccc:	00050413          	mv	s0,a0
20006cd0:	00078c63          	beqz	a5,20006ce8 <f_readdir+0x5c>
20006cd4:	0007c703          	lbu	a4,0(a5)
20006cd8:	00070863          	beqz	a4,20006ce8 <f_readdir+0x5c>
20006cdc:	00455683          	lhu	a3,4(a0)
20006ce0:	0067d703          	lhu	a4,6(a5)
20006ce4:	04e68263          	beq	a3,a4,20006d28 <f_readdir+0x9c>
20006ce8:	00900513          	li	a0,9
20006cec:	04c12083          	lw	ra,76(sp)
20006cf0:	04812403          	lw	s0,72(sp)
20006cf4:	04412483          	lw	s1,68(sp)
20006cf8:	04012903          	lw	s2,64(sp)
20006cfc:	03c12983          	lw	s3,60(sp)
20006d00:	03812a03          	lw	s4,56(sp)
20006d04:	03412a83          	lw	s5,52(sp)
20006d08:	03012b03          	lw	s6,48(sp)
20006d0c:	02c12b83          	lw	s7,44(sp)
20006d10:	02812c03          	lw	s8,40(sp)
20006d14:	02412c83          	lw	s9,36(sp)
20006d18:	02012d03          	lw	s10,32(sp)
20006d1c:	01c12d83          	lw	s11,28(sp)
20006d20:	05010113          	addi	sp,sp,80
20006d24:	00008067          	ret
20006d28:	0017c503          	lbu	a0,1(a5)
20006d2c:	00058913          	mv	s2,a1
20006d30:	589000ef          	jal	ra,20007ab8 <disk_status>
20006d34:	00157793          	andi	a5,a0,1
20006d38:	00f12623          	sw	a5,12(sp)
20006d3c:	fa0796e3          	bnez	a5,20006ce8 <f_readdir+0x5c>
20006d40:	72090a63          	beqz	s2,20007474 <f_readdir+0x7e8>
20006d44:	01842c03          	lw	s8,24(s0)
20006d48:	00042d03          	lw	s10,0(s0)
20006d4c:	340c06e3          	beqz	s8,20007898 <f_readdir+0xc0c>
20006d50:	0ff00793          	li	a5,255
20006d54:	00010bb7          	lui	s7,0x10
20006d58:	00f12423          	sw	a5,8(sp)
20006d5c:	0ff00c93          	li	s9,255
20006d60:	030d0b13          	addi	s6,s10,48
20006d64:	0e500993          	li	s3,229
20006d68:	02e00a13          	li	s4,46
20006d6c:	00800a93          	li	s5,8
20006d70:	fffb8b93          	addi	s7,s7,-1 # ffff <_start-0x1fff0001>
20006d74:	02cd2783          	lw	a5,44(s10)
20006d78:	03878a63          	beq	a5,s8,20006dac <f_readdir+0x120>
20006d7c:	001d4503          	lbu	a0,1(s10)
20006d80:	00100693          	li	a3,1
20006d84:	000c0613          	mv	a2,s8
20006d88:	000b0593          	mv	a1,s6
20006d8c:	569000ef          	jal	ra,20007af4 <disk_read>
20006d90:	00050c63          	beqz	a0,20006da8 <f_readdir+0x11c>
20006d94:	fff00793          	li	a5,-1
20006d98:	02fd2623          	sw	a5,44(s10)
20006d9c:	00042c23          	sw	zero,24(s0)
20006da0:	00100513          	li	a0,1
20006da4:	f49ff06f          	j	20006cec <f_readdir+0x60>
20006da8:	038d2623          	sw	s8,44(s10)
20006dac:	01c42683          	lw	a3,28(s0)
20006db0:	0006c703          	lbu	a4,0(a3)
20006db4:	70070063          	beqz	a4,200074b4 <f_readdir+0x828>
20006db8:	00b6c783          	lbu	a5,11(a3)
20006dbc:	03f7f793          	andi	a5,a5,63
20006dc0:	00f40323          	sb	a5,6(s0)
20006dc4:	01370863          	beq	a4,s3,20006dd4 <f_readdir+0x148>
20006dc8:	01470663          	beq	a4,s4,20006dd4 <f_readdir+0x148>
20006dcc:	fdf7f613          	andi	a2,a5,-33
20006dd0:	4f561063          	bne	a2,s5,200072b0 <f_readdir+0x624>
20006dd4:	01042483          	lw	s1,16(s0)
20006dd8:	0ff00c93          	li	s9,255
20006ddc:	02048493          	addi	s1,s1,32
20006de0:	00200737          	lui	a4,0x200
20006de4:	00042d83          	lw	s11,0(s0)
20006de8:	3ce4ea63          	bltu	s1,a4,200071bc <f_readdir+0x530>
20006dec:	00042c23          	sw	zero,24(s0)
20006df0:	00090b23          	sb	zero,22(s2)
20006df4:	01842703          	lw	a4,24(s0)
20006df8:	6c070263          	beqz	a4,200074bc <f_readdir+0x830>
20006dfc:	02c42683          	lw	a3,44(s0)
20006e00:	fff00713          	li	a4,-1
20006e04:	06e68e63          	beq	a3,a4,20006e80 <f_readdir+0x1f4>
20006e08:	00cda603          	lw	a2,12(s11)
20006e0c:	00200493          	li	s1,2
20006e10:	00000b93          	li	s7,0
20006e14:	00065703          	lhu	a4,0(a2)
20006e18:	00000b13          	li	s6,0
20006e1c:	04070863          	beqz	a4,20006e6c <f_readdir+0x1e0>
20006e20:	000039b7          	lui	s3,0x3
20006e24:	0ff00c13          	li	s8,255
20006e28:	00100a93          	li	s5,1
20006e2c:	80098993          	addi	s3,s3,-2048 # 2800 <_start-0x1fffd800>
20006e30:	7ff00a13          	li	s4,2047
20006e34:	000b1a63          	bnez	s6,20006e48 <f_readdir+0x1bc>
20006e38:	013706b3          	add	a3,a4,s3
20006e3c:	01069693          	slli	a3,a3,0x10
20006e40:	0106d693          	srli	a3,a3,0x10
20006e44:	62da7063          	bgeu	s4,a3,20007464 <f_readdir+0x7d8>
20006e48:	010b1513          	slli	a0,s6,0x10
20006e4c:	00e56533          	or	a0,a0,a4
20006e50:	1b500593          	li	a1,437
20006e54:	25d000ef          	jal	ra,200078b0 <ff_uni2oem>
20006e58:	417c0733          	sub	a4,s8,s7
20006e5c:	5eac7863          	bgeu	s8,a0,2000744c <f_readdir+0x7c0>
20006e60:	3aeae063          	bltu	s5,a4,20007200 <f_readdir+0x574>
20006e64:	00000713          	li	a4,0
20006e68:	000b0463          	beqz	s6,20006e70 <f_readdir+0x1e4>
20006e6c:	00000713          	li	a4,0
20006e70:	00e90733          	add	a4,s2,a4
20006e74:	00070b23          	sb	zero,22(a4) # 200016 <_start-0x1fdfffea>
20006e78:	01694783          	lbu	a5,22(s2)
20006e7c:	00f12623          	sw	a5,12(sp)
20006e80:	01c42703          	lw	a4,28(s0)
20006e84:	02000693          	li	a3,32
20006e88:	00074783          	lbu	a5,0(a4)
20006e8c:	01079613          	slli	a2,a5,0x10
20006e90:	01065613          	srli	a2,a2,0x10
20006e94:	72d78a63          	beq	a5,a3,200075c8 <f_readdir+0x93c>
20006e98:	00500713          	li	a4,5
20006e9c:	00e61463          	bne	a2,a4,20006ea4 <f_readdir+0x218>
20006ea0:	0e500793          	li	a5,229
20006ea4:	00f904a3          	sb	a5,9(s2)
20006ea8:	01c42703          	lw	a4,28(s0)
20006eac:	00100793          	li	a5,1
20006eb0:	00174683          	lbu	a3,1(a4)
20006eb4:	02000613          	li	a2,32
20006eb8:	01069593          	slli	a1,a3,0x10
20006ebc:	0105d593          	srli	a1,a1,0x10
20006ec0:	02c68063          	beq	a3,a2,20006ee0 <f_readdir+0x254>
20006ec4:	00500713          	li	a4,5
20006ec8:	00e59463          	bne	a1,a4,20006ed0 <f_readdir+0x244>
20006ecc:	0e500693          	li	a3,229
20006ed0:	00f90733          	add	a4,s2,a5
20006ed4:	00d704a3          	sb	a3,9(a4)
20006ed8:	01c42703          	lw	a4,28(s0)
20006edc:	00178793          	addi	a5,a5,1
20006ee0:	00274683          	lbu	a3,2(a4)
20006ee4:	02000613          	li	a2,32
20006ee8:	01069593          	slli	a1,a3,0x10
20006eec:	0105d593          	srli	a1,a1,0x10
20006ef0:	02c68063          	beq	a3,a2,20006f10 <f_readdir+0x284>
20006ef4:	00500713          	li	a4,5
20006ef8:	00e59463          	bne	a1,a4,20006f00 <f_readdir+0x274>
20006efc:	0e500693          	li	a3,229
20006f00:	00f90733          	add	a4,s2,a5
20006f04:	00d704a3          	sb	a3,9(a4)
20006f08:	01c42703          	lw	a4,28(s0)
20006f0c:	00178793          	addi	a5,a5,1
20006f10:	00374683          	lbu	a3,3(a4)
20006f14:	02000613          	li	a2,32
20006f18:	01069593          	slli	a1,a3,0x10
20006f1c:	0105d593          	srli	a1,a1,0x10
20006f20:	02c68063          	beq	a3,a2,20006f40 <f_readdir+0x2b4>
20006f24:	00500713          	li	a4,5
20006f28:	00e59463          	bne	a1,a4,20006f30 <f_readdir+0x2a4>
20006f2c:	0e500693          	li	a3,229
20006f30:	00f90733          	add	a4,s2,a5
20006f34:	00d704a3          	sb	a3,9(a4)
20006f38:	01c42703          	lw	a4,28(s0)
20006f3c:	00178793          	addi	a5,a5,1
20006f40:	00474683          	lbu	a3,4(a4)
20006f44:	02000613          	li	a2,32
20006f48:	01069593          	slli	a1,a3,0x10
20006f4c:	0105d593          	srli	a1,a1,0x10
20006f50:	02c68063          	beq	a3,a2,20006f70 <f_readdir+0x2e4>
20006f54:	00500713          	li	a4,5
20006f58:	00e59463          	bne	a1,a4,20006f60 <f_readdir+0x2d4>
20006f5c:	0e500693          	li	a3,229
20006f60:	00f90733          	add	a4,s2,a5
20006f64:	00d704a3          	sb	a3,9(a4)
20006f68:	01c42703          	lw	a4,28(s0)
20006f6c:	00178793          	addi	a5,a5,1
20006f70:	00574683          	lbu	a3,5(a4)
20006f74:	02000613          	li	a2,32
20006f78:	01069593          	slli	a1,a3,0x10
20006f7c:	0105d593          	srli	a1,a1,0x10
20006f80:	02c68063          	beq	a3,a2,20006fa0 <f_readdir+0x314>
20006f84:	00500713          	li	a4,5
20006f88:	00e59463          	bne	a1,a4,20006f90 <f_readdir+0x304>
20006f8c:	0e500693          	li	a3,229
20006f90:	00f90733          	add	a4,s2,a5
20006f94:	00d704a3          	sb	a3,9(a4)
20006f98:	01c42703          	lw	a4,28(s0)
20006f9c:	00178793          	addi	a5,a5,1
20006fa0:	00674683          	lbu	a3,6(a4)
20006fa4:	02000613          	li	a2,32
20006fa8:	01069593          	slli	a1,a3,0x10
20006fac:	0105d593          	srli	a1,a1,0x10
20006fb0:	02c68063          	beq	a3,a2,20006fd0 <f_readdir+0x344>
20006fb4:	00500713          	li	a4,5
20006fb8:	00e59463          	bne	a1,a4,20006fc0 <f_readdir+0x334>
20006fbc:	0e500693          	li	a3,229
20006fc0:	00f90733          	add	a4,s2,a5
20006fc4:	00d704a3          	sb	a3,9(a4)
20006fc8:	01c42703          	lw	a4,28(s0)
20006fcc:	00178793          	addi	a5,a5,1
20006fd0:	00774683          	lbu	a3,7(a4)
20006fd4:	02000613          	li	a2,32
20006fd8:	01069593          	slli	a1,a3,0x10
20006fdc:	0105d593          	srli	a1,a1,0x10
20006fe0:	02c68063          	beq	a3,a2,20007000 <f_readdir+0x374>
20006fe4:	00500713          	li	a4,5
20006fe8:	00e59463          	bne	a1,a4,20006ff0 <f_readdir+0x364>
20006fec:	0e500693          	li	a3,229
20006ff0:	00f90733          	add	a4,s2,a5
20006ff4:	00d704a3          	sb	a3,9(a4)
20006ff8:	01c42703          	lw	a4,28(s0)
20006ffc:	00178793          	addi	a5,a5,1
20007000:	00874683          	lbu	a3,8(a4)
20007004:	02000613          	li	a2,32
20007008:	01069593          	slli	a1,a3,0x10
2000700c:	0105d593          	srli	a1,a1,0x10
20007010:	02c68863          	beq	a3,a2,20007040 <f_readdir+0x3b4>
20007014:	00500713          	li	a4,5
20007018:	00e59463          	bne	a1,a4,20007020 <f_readdir+0x394>
2000701c:	0e500693          	li	a3,229
20007020:	00178713          	addi	a4,a5,1
20007024:	00f90633          	add	a2,s2,a5
20007028:	02e00593          	li	a1,46
2000702c:	00b604a3          	sb	a1,9(a2)
20007030:	00e90733          	add	a4,s2,a4
20007034:	00d704a3          	sb	a3,9(a4)
20007038:	01c42703          	lw	a4,28(s0)
2000703c:	00278793          	addi	a5,a5,2
20007040:	00974683          	lbu	a3,9(a4)
20007044:	02000613          	li	a2,32
20007048:	01069593          	slli	a1,a3,0x10
2000704c:	0105d593          	srli	a1,a1,0x10
20007050:	02c68063          	beq	a3,a2,20007070 <f_readdir+0x3e4>
20007054:	00500713          	li	a4,5
20007058:	00e59463          	bne	a1,a4,20007060 <f_readdir+0x3d4>
2000705c:	0e500693          	li	a3,229
20007060:	00f90733          	add	a4,s2,a5
20007064:	00d704a3          	sb	a3,9(a4)
20007068:	01c42703          	lw	a4,28(s0)
2000706c:	00178793          	addi	a5,a5,1
20007070:	00a74703          	lbu	a4,10(a4)
20007074:	02000693          	li	a3,32
20007078:	01071613          	slli	a2,a4,0x10
2000707c:	01065613          	srli	a2,a2,0x10
20007080:	4cd70e63          	beq	a4,a3,2000755c <f_readdir+0x8d0>
20007084:	00500693          	li	a3,5
20007088:	00d61463          	bne	a2,a3,20007090 <f_readdir+0x404>
2000708c:	0e500713          	li	a4,229
20007090:	00f907b3          	add	a5,s2,a5
20007094:	00e784a3          	sb	a4,9(a5)
20007098:	00078523          	sb	zero,10(a5)
2000709c:	00c12783          	lw	a5,12(sp)
200070a0:	44078463          	beqz	a5,200074e8 <f_readdir+0x85c>
200070a4:	01c42783          	lw	a5,28(s0)
200070a8:	00b7c783          	lbu	a5,11(a5)
200070ac:	002005b7          	lui	a1,0x200
200070b0:	03f7f793          	andi	a5,a5,63
200070b4:	00f90423          	sb	a5,8(s2)
200070b8:	01c42783          	lw	a5,28(s0)
200070bc:	00042483          	lw	s1,0(s0)
200070c0:	01d7c603          	lbu	a2,29(a5)
200070c4:	01c7c503          	lbu	a0,28(a5)
200070c8:	01e7c683          	lbu	a3,30(a5)
200070cc:	01f7c703          	lbu	a4,31(a5)
200070d0:	00861613          	slli	a2,a2,0x8
200070d4:	00a66633          	or	a2,a2,a0
200070d8:	01069693          	slli	a3,a3,0x10
200070dc:	00c6e6b3          	or	a3,a3,a2
200070e0:	01871713          	slli	a4,a4,0x18
200070e4:	00d76733          	or	a4,a4,a3
200070e8:	00e92023          	sw	a4,0(s2)
200070ec:	0177c703          	lbu	a4,23(a5)
200070f0:	0167c683          	lbu	a3,22(a5)
200070f4:	01042983          	lw	s3,16(s0)
200070f8:	00871713          	slli	a4,a4,0x8
200070fc:	00d76733          	or	a4,a4,a3
20007100:	00e91323          	sh	a4,6(s2)
20007104:	0197c703          	lbu	a4,25(a5)
20007108:	0187c683          	lbu	a3,24(a5)
2000710c:	02098993          	addi	s3,s3,32
20007110:	00871793          	slli	a5,a4,0x8
20007114:	00d7e7b3          	or	a5,a5,a3
20007118:	00f91223          	sh	a5,4(s2)
2000711c:	3ab9f863          	bgeu	s3,a1,200074cc <f_readdir+0x840>
20007120:	01842783          	lw	a5,24(s0)
20007124:	08078863          	beqz	a5,200071b4 <f_readdir+0x528>
20007128:	1ff9f913          	andi	s2,s3,511
2000712c:	06091c63          	bnez	s2,200071a4 <f_readdir+0x518>
20007130:	01442583          	lw	a1,20(s0)
20007134:	00178793          	addi	a5,a5,1
20007138:	00f42c23          	sw	a5,24(s0)
2000713c:	38058e63          	beqz	a1,200074d8 <f_readdir+0x84c>
20007140:	00a4da03          	lhu	s4,10(s1)
20007144:	0099d793          	srli	a5,s3,0x9
20007148:	fffa0a13          	addi	s4,s4,-1
2000714c:	00fa7a33          	and	s4,s4,a5
20007150:	040a1a63          	bnez	s4,200071a4 <f_readdir+0x518>
20007154:	00048513          	mv	a0,s1
20007158:	f35fd0ef          	jal	ra,2000508c <_ZL7get_fatP7FFOBJIDm.isra.0>
2000715c:	00100713          	li	a4,1
20007160:	00050793          	mv	a5,a0
20007164:	74a77263          	bgeu	a4,a0,200078a8 <f_readdir+0xc1c>
20007168:	fff00713          	li	a4,-1
2000716c:	00100513          	li	a0,1
20007170:	b6e78ee3          	beq	a5,a4,20006cec <f_readdir+0x60>
20007174:	0144a703          	lw	a4,20(s1)
20007178:	34e7fa63          	bgeu	a5,a4,200074cc <f_readdir+0x840>
2000717c:	00f42a23          	sw	a5,20(s0)
20007180:	0144a703          	lw	a4,20(s1)
20007184:	ffe78793          	addi	a5,a5,-2
20007188:	ffe70713          	addi	a4,a4,-2
2000718c:	00e7fa63          	bgeu	a5,a4,200071a0 <f_readdir+0x514>
20007190:	00a4da03          	lhu	s4,10(s1)
20007194:	0284a703          	lw	a4,40(s1)
20007198:	02fa0a33          	mul	s4,s4,a5
2000719c:	00ea0a33          	add	s4,s4,a4
200071a0:	01442c23          	sw	s4,24(s0)
200071a4:	03048493          	addi	s1,s1,48
200071a8:	012484b3          	add	s1,s1,s2
200071ac:	01342823          	sw	s3,16(s0)
200071b0:	00942e23          	sw	s1,28(s0)
200071b4:	00000513          	li	a0,0
200071b8:	b35ff06f          	j	20006cec <f_readdir+0x60>
200071bc:	01842c03          	lw	s8,24(s0)
200071c0:	c20c06e3          	beqz	s8,20006dec <f_readdir+0x160>
200071c4:	1ff4f713          	andi	a4,s1,511
200071c8:	06071a63          	bnez	a4,2000723c <f_readdir+0x5b0>
200071cc:	01442583          	lw	a1,20(s0)
200071d0:	001c0c13          	addi	s8,s8,1
200071d4:	01842c23          	sw	s8,24(s0)
200071d8:	06059c63          	bnez	a1,20007250 <f_readdir+0x5c4>
200071dc:	008dd703          	lhu	a4,8(s11)
200071e0:	0054d693          	srli	a3,s1,0x5
200071e4:	c0e6f4e3          	bgeu	a3,a4,20006dec <f_readdir+0x160>
200071e8:	030d8793          	addi	a5,s11,48
200071ec:	00942823          	sw	s1,16(s0)
200071f0:	00f42e23          	sw	a5,28(s0)
200071f4:	b80c10e3          	bnez	s8,20006d74 <f_readdir+0xe8>
200071f8:	00042d83          	lw	s11,0(s0)
200071fc:	bf5ff06f          	j	20006df0 <f_readdir+0x164>
20007200:	01790733          	add	a4,s2,s7
20007204:	00855693          	srli	a3,a0,0x8
20007208:	00d70b23          	sb	a3,22(a4)
2000720c:	00a70ba3          	sb	a0,23(a4)
20007210:	00200713          	li	a4,2
20007214:	00cda603          	lw	a2,12(s11)
20007218:	00eb8bb3          	add	s7,s7,a4
2000721c:	00000b13          	li	s6,0
20007220:	00960733          	add	a4,a2,s1
20007224:	00075703          	lhu	a4,0(a4)
20007228:	00248493          	addi	s1,s1,2
2000722c:	c00714e3          	bnez	a4,20006e34 <f_readdir+0x1a8>
20007230:	000b8713          	mv	a4,s7
20007234:	c20b1ce3          	bnez	s6,20006e6c <f_readdir+0x1e0>
20007238:	c39ff06f          	j	20006e70 <f_readdir+0x1e4>
2000723c:	030d8793          	addi	a5,s11,48
20007240:	00e787b3          	add	a5,a5,a4
20007244:	00942823          	sw	s1,16(s0)
20007248:	00f42e23          	sw	a5,28(s0)
2000724c:	b29ff06f          	j	20006d74 <f_readdir+0xe8>
20007250:	00add703          	lhu	a4,10(s11)
20007254:	0094d693          	srli	a3,s1,0x9
20007258:	fff70713          	addi	a4,a4,-1
2000725c:	00d77733          	and	a4,a4,a3
20007260:	f80714e3          	bnez	a4,200071e8 <f_readdir+0x55c>
20007264:	000d8513          	mv	a0,s11
20007268:	e25fd0ef          	jal	ra,2000508c <_ZL7get_fatP7FFOBJIDm.isra.0>
2000726c:	00100713          	li	a4,1
20007270:	34a77663          	bgeu	a4,a0,200075bc <f_readdir+0x930>
20007274:	fff00713          	li	a4,-1
20007278:	32e50c63          	beq	a0,a4,200075b0 <f_readdir+0x924>
2000727c:	014da703          	lw	a4,20(s11)
20007280:	22e57a63          	bgeu	a0,a4,200074b4 <f_readdir+0x828>
20007284:	00a42a23          	sw	a0,20(s0)
20007288:	014da703          	lw	a4,20(s11)
2000728c:	ffe50513          	addi	a0,a0,-2
20007290:	ffe70713          	addi	a4,a4,-2
20007294:	30e57263          	bgeu	a0,a4,20007598 <f_readdir+0x90c>
20007298:	00add603          	lhu	a2,10(s11)
2000729c:	028da703          	lw	a4,40(s11)
200072a0:	02a60633          	mul	a2,a2,a0
200072a4:	00e60c33          	add	s8,a2,a4
200072a8:	01842c23          	sw	s8,24(s0)
200072ac:	f3dff06f          	j	200071e8 <f_readdir+0x55c>
200072b0:	00f00613          	li	a2,15
200072b4:	30c79e63          	bne	a5,a2,200075d0 <f_readdir+0x944>
200072b8:	04077793          	andi	a5,a4,64
200072bc:	01042483          	lw	s1,16(s0)
200072c0:	18078063          	beqz	a5,20007440 <f_readdir+0x7b4>
200072c4:	00d6c783          	lbu	a5,13(a3)
200072c8:	0bf77c93          	andi	s9,a4,191
200072cc:	02942623          	sw	s1,44(s0)
200072d0:	00f12423          	sw	a5,8(sp)
200072d4:	00d6c783          	lbu	a5,13(a3)
200072d8:	00812703          	lw	a4,8(sp)
200072dc:	00e78663          	beq	a5,a4,200072e8 <f_readdir+0x65c>
200072e0:	0ff00c93          	li	s9,255
200072e4:	af9ff06f          	j	20006ddc <f_readdir+0x150>
200072e8:	01b6c783          	lbu	a5,27(a3)
200072ec:	01a6c703          	lbu	a4,26(a3)
200072f0:	00879793          	slli	a5,a5,0x8
200072f4:	00e7e7b3          	or	a5,a5,a4
200072f8:	fe0794e3          	bnez	a5,200072e0 <f_readdir+0x654>
200072fc:	0006c703          	lbu	a4,0(a3)
20007300:	0026c603          	lbu	a2,2(a3)
20007304:	0016c583          	lbu	a1,1(a3)
20007308:	fbf77713          	andi	a4,a4,-65
2000730c:	fff70713          	addi	a4,a4,-1
20007310:	00171793          	slli	a5,a4,0x1
20007314:	00e787b3          	add	a5,a5,a4
20007318:	00279793          	slli	a5,a5,0x2
2000731c:	00861613          	slli	a2,a2,0x8
20007320:	00e787b3          	add	a5,a5,a4
20007324:	0ff00713          	li	a4,255
20007328:	00b66633          	or	a2,a2,a1
2000732c:	faf76ae3          	bltu	a4,a5,200072e0 <f_readdir+0x654>
20007330:	00cd2703          	lw	a4,12(s10)
20007334:	00179513          	slli	a0,a5,0x1
20007338:	00a70533          	add	a0,a4,a0
2000733c:	00c51023          	sh	a2,0(a0)
20007340:	0046c583          	lbu	a1,4(a3)
20007344:	0036c303          	lbu	t1,3(a3)
20007348:	00859593          	slli	a1,a1,0x8
2000734c:	0065e5b3          	or	a1,a1,t1
20007350:	3a061863          	bnez	a2,20007700 <f_readdir+0xa74>
20007354:	f97596e3          	bne	a1,s7,200072e0 <f_readdir+0x654>
20007358:	0066c603          	lbu	a2,6(a3)
2000735c:	0056c783          	lbu	a5,5(a3)
20007360:	00861613          	slli	a2,a2,0x8
20007364:	00f66633          	or	a2,a2,a5
20007368:	f7761ce3          	bne	a2,s7,200072e0 <f_readdir+0x654>
2000736c:	0086c583          	lbu	a1,8(a3)
20007370:	0076c783          	lbu	a5,7(a3)
20007374:	00859593          	slli	a1,a1,0x8
20007378:	00f5e5b3          	or	a1,a1,a5
2000737c:	f77592e3          	bne	a1,s7,200072e0 <f_readdir+0x654>
20007380:	00a6c603          	lbu	a2,10(a3)
20007384:	0096c783          	lbu	a5,9(a3)
20007388:	00861613          	slli	a2,a2,0x8
2000738c:	00f66633          	or	a2,a2,a5
20007390:	f57618e3          	bne	a2,s7,200072e0 <f_readdir+0x654>
20007394:	00f6c583          	lbu	a1,15(a3)
20007398:	00e6c783          	lbu	a5,14(a3)
2000739c:	00859593          	slli	a1,a1,0x8
200073a0:	00f5e5b3          	or	a1,a1,a5
200073a4:	f3759ee3          	bne	a1,s7,200072e0 <f_readdir+0x654>
200073a8:	0116c603          	lbu	a2,17(a3)
200073ac:	0106c783          	lbu	a5,16(a3)
200073b0:	00861613          	slli	a2,a2,0x8
200073b4:	00f66633          	or	a2,a2,a5
200073b8:	f37614e3          	bne	a2,s7,200072e0 <f_readdir+0x654>
200073bc:	0136c583          	lbu	a1,19(a3)
200073c0:	0126c783          	lbu	a5,18(a3)
200073c4:	00859593          	slli	a1,a1,0x8
200073c8:	00f5e5b3          	or	a1,a1,a5
200073cc:	f1759ae3          	bne	a1,s7,200072e0 <f_readdir+0x654>
200073d0:	0156c303          	lbu	t1,21(a3)
200073d4:	0146c783          	lbu	a5,20(a3)
200073d8:	00831313          	slli	t1,t1,0x8
200073dc:	00f36333          	or	t1,t1,a5
200073e0:	f17310e3          	bne	t1,s7,200072e0 <f_readdir+0x654>
200073e4:	0176c603          	lbu	a2,23(a3)
200073e8:	0166c783          	lbu	a5,22(a3)
200073ec:	00861613          	slli	a2,a2,0x8
200073f0:	00f66633          	or	a2,a2,a5
200073f4:	ef7616e3          	bne	a2,s7,200072e0 <f_readdir+0x654>
200073f8:	0196c583          	lbu	a1,25(a3)
200073fc:	0186c783          	lbu	a5,24(a3)
20007400:	00859593          	slli	a1,a1,0x8
20007404:	00f5e5b3          	or	a1,a1,a5
20007408:	ed759ce3          	bne	a1,s7,200072e0 <f_readdir+0x654>
2000740c:	01d6c603          	lbu	a2,29(a3)
20007410:	01c6c783          	lbu	a5,28(a3)
20007414:	00861613          	slli	a2,a2,0x8
20007418:	00f66633          	or	a2,a2,a5
2000741c:	ed7612e3          	bne	a2,s7,200072e0 <f_readdir+0x654>
20007420:	01f6c583          	lbu	a1,31(a3)
20007424:	01e6c783          	lbu	a5,30(a3)
20007428:	00859593          	slli	a1,a1,0x8
2000742c:	00f5e5b3          	or	a1,a1,a5
20007430:	eb7598e3          	bne	a1,s7,200072e0 <f_readdir+0x654>
20007434:	fffc8893          	addi	a7,s9,-1
20007438:	0ff8fc93          	zext.b	s9,a7
2000743c:	9a1ff06f          	j	20006ddc <f_readdir+0x150>
20007440:	e9970ae3          	beq	a4,s9,200072d4 <f_readdir+0x648>
20007444:	0ff00c93          	li	s9,255
20007448:	995ff06f          	j	20006ddc <f_readdir+0x150>
2000744c:	a0050ce3          	beqz	a0,20006e64 <f_readdir+0x1d8>
20007450:	a0070ce3          	beqz	a4,20006e68 <f_readdir+0x1dc>
20007454:	01790733          	add	a4,s2,s7
20007458:	00a70b23          	sb	a0,22(a4)
2000745c:	00100713          	li	a4,1
20007460:	db5ff06f          	j	20007214 <f_readdir+0x588>
20007464:	00070b13          	mv	s6,a4
20007468:	db9ff06f          	j	20007220 <f_readdir+0x594>
2000746c:	00900513          	li	a0,9
20007470:	00008067          	ret
20007474:	00040513          	mv	a0,s0
20007478:	04812403          	lw	s0,72(sp)
2000747c:	04c12083          	lw	ra,76(sp)
20007480:	04412483          	lw	s1,68(sp)
20007484:	04012903          	lw	s2,64(sp)
20007488:	03c12983          	lw	s3,60(sp)
2000748c:	03812a03          	lw	s4,56(sp)
20007490:	03412a83          	lw	s5,52(sp)
20007494:	03012b03          	lw	s6,48(sp)
20007498:	02c12b83          	lw	s7,44(sp)
2000749c:	02812c03          	lw	s8,40(sp)
200074a0:	02412c83          	lw	s9,36(sp)
200074a4:	02012d03          	lw	s10,32(sp)
200074a8:	01c12d83          	lw	s11,28(sp)
200074ac:	05010113          	addi	sp,sp,80
200074b0:	de5fd06f          	j	20005294 <_ZL7dir_sdiP3DIRm.constprop.0>
200074b4:	00042d83          	lw	s11,0(s0)
200074b8:	935ff06f          	j	20006dec <f_readdir+0x160>
200074bc:	01042783          	lw	a5,16(s0)
200074c0:	00200737          	lui	a4,0x200
200074c4:	02078793          	addi	a5,a5,32
200074c8:	cee7e6e3          	bltu	a5,a4,200071b4 <f_readdir+0x528>
200074cc:	00042c23          	sw	zero,24(s0)
200074d0:	00000513          	li	a0,0
200074d4:	819ff06f          	j	20006cec <f_readdir+0x60>
200074d8:	0084d783          	lhu	a5,8(s1)
200074dc:	0059d713          	srli	a4,s3,0x5
200074e0:	ccf762e3          	bltu	a4,a5,200071a4 <f_readdir+0x518>
200074e4:	fe9ff06f          	j	200074cc <f_readdir+0x840>
200074e8:	00994783          	lbu	a5,9(s2)
200074ec:	00a90693          	addi	a3,s2,10
200074f0:	00800513          	li	a0,8
200074f4:	3a078663          	beqz	a5,200078a0 <f_readdir+0xc14>
200074f8:	ff700613          	li	a2,-9
200074fc:	02e00593          	li	a1,46
20007500:	01900813          	li	a6,25
20007504:	41260633          	sub	a2,a2,s2
20007508:	0340006f          	j	2000753c <f_readdir+0x8b0>
2000750c:	00e86e63          	bltu	a6,a4,20007528 <f_readdir+0x89c>
20007510:	01c42703          	lw	a4,28(s0)
20007514:	02078893          	addi	a7,a5,32
20007518:	00c74703          	lbu	a4,12(a4) # 20000c <_start-0x1fdffff4>
2000751c:	00e57733          	and	a4,a0,a4
20007520:	00070463          	beqz	a4,20007528 <f_readdir+0x89c>
20007524:	0ff8f793          	zext.b	a5,a7
20007528:	00f68623          	sb	a5,12(a3)
2000752c:	0006c783          	lbu	a5,0(a3)
20007530:	00d60733          	add	a4,a2,a3
20007534:	00168693          	addi	a3,a3,1
20007538:	04078263          	beqz	a5,2000757c <f_readdir+0x8f0>
2000753c:	01079713          	slli	a4,a5,0x10
20007540:	01075713          	srli	a4,a4,0x10
20007544:	fbf70713          	addi	a4,a4,-65
20007548:	01071713          	slli	a4,a4,0x10
2000754c:	01075713          	srli	a4,a4,0x10
20007550:	fab79ee3          	bne	a5,a1,2000750c <f_readdir+0x880>
20007554:	01000513          	li	a0,16
20007558:	fd1ff06f          	j	20007528 <f_readdir+0x89c>
2000755c:	00f90733          	add	a4,s2,a5
20007560:	000704a3          	sb	zero,9(a4)
20007564:	00c12703          	lw	a4,12(sp)
20007568:	b2071ee3          	bnez	a4,200070a4 <f_readdir+0x418>
2000756c:	f6079ee3          	bnez	a5,200074e8 <f_readdir+0x85c>
20007570:	03f00793          	li	a5,63
20007574:	00f90b23          	sb	a5,22(s2)
20007578:	00100713          	li	a4,1
2000757c:	00e90733          	add	a4,s2,a4
20007580:	00070b23          	sb	zero,22(a4)
20007584:	01c42783          	lw	a5,28(s0)
20007588:	00c7c703          	lbu	a4,12(a5)
2000758c:	b0071ee3          	bnez	a4,200070a8 <f_readdir+0x41c>
20007590:	000904a3          	sb	zero,9(s2)
20007594:	b11ff06f          	j	200070a4 <f_readdir+0x418>
20007598:	030d8793          	addi	a5,s11,48
2000759c:	00042c23          	sw	zero,24(s0)
200075a0:	00042d83          	lw	s11,0(s0)
200075a4:	00942823          	sw	s1,16(s0)
200075a8:	00f42e23          	sw	a5,28(s0)
200075ac:	845ff06f          	j	20006df0 <f_readdir+0x164>
200075b0:	00100513          	li	a0,1
200075b4:	00042c23          	sw	zero,24(s0)
200075b8:	f34ff06f          	j	20006cec <f_readdir+0x60>
200075bc:	00200513          	li	a0,2
200075c0:	00042c23          	sw	zero,24(s0)
200075c4:	f28ff06f          	j	20006cec <f_readdir+0x60>
200075c8:	00000793          	li	a5,0
200075cc:	8e5ff06f          	j	20006eb0 <f_readdir+0x224>
200075d0:	120c9063          	bnez	s9,200076f0 <f_readdir+0xa64>
200075d4:	0006c703          	lbu	a4,0(a3)
200075d8:	0016c583          	lbu	a1,1(a3)
200075dc:	0026c603          	lbu	a2,2(a3)
200075e0:	00175793          	srli	a5,a4,0x1
200075e4:	00771713          	slli	a4,a4,0x7
200075e8:	00e7e7b3          	or	a5,a5,a4
200075ec:	00b787b3          	add	a5,a5,a1
200075f0:	0ff7f713          	zext.b	a4,a5
200075f4:	00175713          	srli	a4,a4,0x1
200075f8:	00779793          	slli	a5,a5,0x7
200075fc:	00f76733          	or	a4,a4,a5
20007600:	0ff77713          	zext.b	a4,a4
20007604:	00c70733          	add	a4,a4,a2
20007608:	0ff77793          	zext.b	a5,a4
2000760c:	0036c603          	lbu	a2,3(a3)
20007610:	00771713          	slli	a4,a4,0x7
20007614:	0017d793          	srli	a5,a5,0x1
20007618:	00e7e7b3          	or	a5,a5,a4
2000761c:	0ff7f793          	zext.b	a5,a5
20007620:	00c787b3          	add	a5,a5,a2
20007624:	0ff7f713          	zext.b	a4,a5
20007628:	0046c603          	lbu	a2,4(a3)
2000762c:	00779793          	slli	a5,a5,0x7
20007630:	00175713          	srli	a4,a4,0x1
20007634:	00f76733          	or	a4,a4,a5
20007638:	0ff77713          	zext.b	a4,a4
2000763c:	00c70733          	add	a4,a4,a2
20007640:	0ff77793          	zext.b	a5,a4
20007644:	0056c603          	lbu	a2,5(a3)
20007648:	00771713          	slli	a4,a4,0x7
2000764c:	0017d793          	srli	a5,a5,0x1
20007650:	00e7e7b3          	or	a5,a5,a4
20007654:	0ff7f793          	zext.b	a5,a5
20007658:	00c787b3          	add	a5,a5,a2
2000765c:	0ff7f713          	zext.b	a4,a5
20007660:	0066c603          	lbu	a2,6(a3)
20007664:	00779793          	slli	a5,a5,0x7
20007668:	00175713          	srli	a4,a4,0x1
2000766c:	00f76733          	or	a4,a4,a5
20007670:	0ff77713          	zext.b	a4,a4
20007674:	00c70733          	add	a4,a4,a2
20007678:	0ff77793          	zext.b	a5,a4
2000767c:	0076c603          	lbu	a2,7(a3)
20007680:	00771713          	slli	a4,a4,0x7
20007684:	0017d793          	srli	a5,a5,0x1
20007688:	00e7e7b3          	or	a5,a5,a4
2000768c:	0ff7f793          	zext.b	a5,a5
20007690:	00c787b3          	add	a5,a5,a2
20007694:	0ff7f713          	zext.b	a4,a5
20007698:	0086c603          	lbu	a2,8(a3)
2000769c:	00779793          	slli	a5,a5,0x7
200076a0:	00175713          	srli	a4,a4,0x1
200076a4:	00f76733          	or	a4,a4,a5
200076a8:	0ff77713          	zext.b	a4,a4
200076ac:	00c70733          	add	a4,a4,a2
200076b0:	0ff77793          	zext.b	a5,a4
200076b4:	0096c603          	lbu	a2,9(a3)
200076b8:	00771713          	slli	a4,a4,0x7
200076bc:	0017d793          	srli	a5,a5,0x1
200076c0:	00e7e7b3          	or	a5,a5,a4
200076c4:	0ff7f793          	zext.b	a5,a5
200076c8:	00c787b3          	add	a5,a5,a2
200076cc:	0ff7f713          	zext.b	a4,a5
200076d0:	00a6c683          	lbu	a3,10(a3)
200076d4:	00175713          	srli	a4,a4,0x1
200076d8:	00779793          	slli	a5,a5,0x7
200076dc:	00f767b3          	or	a5,a4,a5
200076e0:	00812703          	lw	a4,8(sp)
200076e4:	00d787b3          	add	a5,a5,a3
200076e8:	0ff7f793          	zext.b	a5,a5
200076ec:	b0e786e3          	beq	a5,a4,200071f8 <f_readdir+0x56c>
200076f0:	fff00713          	li	a4,-1
200076f4:	00042d83          	lw	s11,0(s0)
200076f8:	02e42623          	sw	a4,44(s0)
200076fc:	ef4ff06f          	j	20006df0 <f_readdir+0x164>
20007700:	00178613          	addi	a2,a5,1
20007704:	10000313          	li	t1,256
20007708:	bc660ce3          	beq	a2,t1,200072e0 <f_readdir+0x654>
2000770c:	00161613          	slli	a2,a2,0x1
20007710:	00c70733          	add	a4,a4,a2
20007714:	00b71023          	sh	a1,0(a4)
20007718:	0066c603          	lbu	a2,6(a3)
2000771c:	0056c303          	lbu	t1,5(a3)
20007720:	00861613          	slli	a2,a2,0x8
20007724:	00666633          	or	a2,a2,t1
20007728:	c40580e3          	beqz	a1,20007368 <f_readdir+0x6dc>
2000772c:	0fe00593          	li	a1,254
20007730:	bab788e3          	beq	a5,a1,200072e0 <f_readdir+0x654>
20007734:	00c71123          	sh	a2,2(a4)
20007738:	0086c583          	lbu	a1,8(a3)
2000773c:	0076c303          	lbu	t1,7(a3)
20007740:	00859593          	slli	a1,a1,0x8
20007744:	0065e5b3          	or	a1,a1,t1
20007748:	c2060ae3          	beqz	a2,2000737c <f_readdir+0x6f0>
2000774c:	0fd00613          	li	a2,253
20007750:	b8c788e3          	beq	a5,a2,200072e0 <f_readdir+0x654>
20007754:	00b71223          	sh	a1,4(a4)
20007758:	00a6c603          	lbu	a2,10(a3)
2000775c:	0096c303          	lbu	t1,9(a3)
20007760:	00861613          	slli	a2,a2,0x8
20007764:	00666633          	or	a2,a2,t1
20007768:	c20584e3          	beqz	a1,20007390 <f_readdir+0x704>
2000776c:	0fc00593          	li	a1,252
20007770:	b6b788e3          	beq	a5,a1,200072e0 <f_readdir+0x654>
20007774:	00c71323          	sh	a2,6(a4)
20007778:	00f6c583          	lbu	a1,15(a3)
2000777c:	00e6c303          	lbu	t1,14(a3)
20007780:	00859593          	slli	a1,a1,0x8
20007784:	0065e5b3          	or	a1,a1,t1
20007788:	c0060ee3          	beqz	a2,200073a4 <f_readdir+0x718>
2000778c:	0fb00613          	li	a2,251
20007790:	b4c788e3          	beq	a5,a2,200072e0 <f_readdir+0x654>
20007794:	00b71423          	sh	a1,8(a4)
20007798:	0116c603          	lbu	a2,17(a3)
2000779c:	0106c303          	lbu	t1,16(a3)
200077a0:	00861613          	slli	a2,a2,0x8
200077a4:	00666633          	or	a2,a2,t1
200077a8:	c00588e3          	beqz	a1,200073b8 <f_readdir+0x72c>
200077ac:	0fa00593          	li	a1,250
200077b0:	b2b788e3          	beq	a5,a1,200072e0 <f_readdir+0x654>
200077b4:	00c71523          	sh	a2,10(a4)
200077b8:	0136c583          	lbu	a1,19(a3)
200077bc:	0126c303          	lbu	t1,18(a3)
200077c0:	00859593          	slli	a1,a1,0x8
200077c4:	0065e5b3          	or	a1,a1,t1
200077c8:	c00602e3          	beqz	a2,200073cc <f_readdir+0x740>
200077cc:	0f900613          	li	a2,249
200077d0:	b0c788e3          	beq	a5,a2,200072e0 <f_readdir+0x654>
200077d4:	00b71623          	sh	a1,12(a4)
200077d8:	0156c303          	lbu	t1,21(a3)
200077dc:	0146c603          	lbu	a2,20(a3)
200077e0:	00831313          	slli	t1,t1,0x8
200077e4:	00c36333          	or	t1,t1,a2
200077e8:	be058ce3          	beqz	a1,200073e0 <f_readdir+0x754>
200077ec:	0f800613          	li	a2,248
200077f0:	aec788e3          	beq	a5,a2,200072e0 <f_readdir+0x654>
200077f4:	00671723          	sh	t1,14(a4)
200077f8:	0176c603          	lbu	a2,23(a3)
200077fc:	0166c583          	lbu	a1,22(a3)
20007800:	00861613          	slli	a2,a2,0x8
20007804:	00b66633          	or	a2,a2,a1
20007808:	be0306e3          	beqz	t1,200073f4 <f_readdir+0x768>
2000780c:	0f700593          	li	a1,247
20007810:	acb788e3          	beq	a5,a1,200072e0 <f_readdir+0x654>
20007814:	00c71823          	sh	a2,16(a4)
20007818:	0196c583          	lbu	a1,25(a3)
2000781c:	0186c303          	lbu	t1,24(a3)
20007820:	00859593          	slli	a1,a1,0x8
20007824:	0065e5b3          	or	a1,a1,t1
20007828:	be0600e3          	beqz	a2,20007408 <f_readdir+0x77c>
2000782c:	0f600613          	li	a2,246
20007830:	aac788e3          	beq	a5,a2,200072e0 <f_readdir+0x654>
20007834:	00b71923          	sh	a1,18(a4)
20007838:	01d6c603          	lbu	a2,29(a3)
2000783c:	01c6c303          	lbu	t1,28(a3)
20007840:	00861613          	slli	a2,a2,0x8
20007844:	00666633          	or	a2,a2,t1
20007848:	bc058ae3          	beqz	a1,2000741c <f_readdir+0x790>
2000784c:	0f500593          	li	a1,245
20007850:	a8b788e3          	beq	a5,a1,200072e0 <f_readdir+0x654>
20007854:	00c71a23          	sh	a2,20(a4)
20007858:	01f6c583          	lbu	a1,31(a3)
2000785c:	01e6c303          	lbu	t1,30(a3)
20007860:	00859593          	slli	a1,a1,0x8
20007864:	0065e5b3          	or	a1,a1,t1
20007868:	bc0604e3          	beqz	a2,20007430 <f_readdir+0x7a4>
2000786c:	0f400613          	li	a2,244
20007870:	a6c788e3          	beq	a5,a2,200072e0 <f_readdir+0x654>
20007874:	00b71b23          	sh	a1,22(a4)
20007878:	0006c703          	lbu	a4,0(a3)
2000787c:	04077713          	andi	a4,a4,64
20007880:	ba070ae3          	beqz	a4,20007434 <f_readdir+0x7a8>
20007884:	ba0588e3          	beqz	a1,20007434 <f_readdir+0x7a8>
20007888:	0f300713          	li	a4,243
2000788c:	a4e78ae3          	beq	a5,a4,200072e0 <f_readdir+0x654>
20007890:	00051d23          	sh	zero,26(a0)
20007894:	ba1ff06f          	j	20007434 <f_readdir+0x7a8>
20007898:	000d0d93          	mv	s11,s10
2000789c:	d50ff06f          	j	20006dec <f_readdir+0x160>
200078a0:	00000713          	li	a4,0
200078a4:	cd9ff06f          	j	2000757c <f_readdir+0x8f0>
200078a8:	00200513          	li	a0,2
200078ac:	c40ff06f          	j	20006cec <f_readdir+0x60>

200078b0 <ff_uni2oem>:
200078b0:	07f00713          	li	a4,127
200078b4:	00050793          	mv	a5,a0
200078b8:	00a76863          	bltu	a4,a0,200078c8 <ff_uni2oem+0x18>
200078bc:	01051513          	slli	a0,a0,0x10
200078c0:	01055513          	srli	a0,a0,0x10
200078c4:	00008067          	ret
200078c8:	00010737          	lui	a4,0x10
200078cc:	00000513          	li	a0,0
200078d0:	00e7f663          	bgeu	a5,a4,200078dc <ff_uni2oem+0x2c>
200078d4:	1b500713          	li	a4,437
200078d8:	00e58463          	beq	a1,a4,200078e0 <ff_uni2oem+0x30>
200078dc:	00008067          	ret
200078e0:	00001697          	auipc	a3,0x1
200078e4:	e8c68693          	addi	a3,a3,-372 # 2000876c <_ZL5uc437>
200078e8:	00000713          	li	a4,0
200078ec:	08000513          	li	a0,128
200078f0:	0100006f          	j	20007900 <ff_uni2oem+0x50>
200078f4:	01059713          	slli	a4,a1,0x10
200078f8:	01075713          	srli	a4,a4,0x10
200078fc:	02a70263          	beq	a4,a0,20007920 <ff_uni2oem+0x70>
20007900:	0006d603          	lhu	a2,0(a3)
20007904:	00170593          	addi	a1,a4,1 # 10001 <_start-0x1ffeffff>
20007908:	00268693          	addi	a3,a3,2
2000790c:	fef614e3          	bne	a2,a5,200078f4 <ff_uni2oem+0x44>
20007910:	08070713          	addi	a4,a4,128
20007914:	01071513          	slli	a0,a4,0x10
20007918:	01055513          	srli	a0,a0,0x10
2000791c:	00008067          	ret
20007920:	00000513          	li	a0,0
20007924:	00008067          	ret

20007928 <ff_oem2uni>:
20007928:	07f00793          	li	a5,127
2000792c:	00a7f863          	bgeu	a5,a0,2000793c <ff_oem2uni+0x14>
20007930:	1b500793          	li	a5,437
20007934:	00f58663          	beq	a1,a5,20007940 <ff_oem2uni+0x18>
20007938:	00000513          	li	a0,0
2000793c:	00008067          	ret
20007940:	0ff00793          	li	a5,255
20007944:	fea7eae3          	bltu	a5,a0,20007938 <ff_oem2uni+0x10>
20007948:	00001797          	auipc	a5,0x1
2000794c:	d2478793          	addi	a5,a5,-732 # 2000866c <__clz_tab+0xb38>
20007950:	00151513          	slli	a0,a0,0x1
20007954:	00f50533          	add	a0,a0,a5
20007958:	00055503          	lhu	a0,0(a0)
2000795c:	00008067          	ret

20007960 <ff_wtoupper>:
20007960:	000107b7          	lui	a5,0x10
20007964:	04f57c63          	bgeu	a0,a5,200079bc <ff_wtoupper+0x5c>
20007968:	01051813          	slli	a6,a0,0x10
2000796c:	000017b7          	lui	a5,0x1
20007970:	01085813          	srli	a6,a6,0x10
20007974:	00001717          	auipc	a4,0x1
20007978:	ef870713          	addi	a4,a4,-264 # 2000886c <_ZZ11ff_wtoupperE4cvt1>
2000797c:	02f56a63          	bltu	a0,a5,200079b0 <ff_wtoupper+0x50>
20007980:	00001717          	auipc	a4,0x1
20007984:	0e070713          	addi	a4,a4,224 # 20008a60 <_ZZ11ff_wtoupperE4cvt2>
20007988:	00075683          	lhu	a3,0(a4)
2000798c:	02068663          	beqz	a3,200079b8 <ff_wtoupper+0x58>
20007990:	02d86463          	bltu	a6,a3,200079b8 <ff_wtoupper+0x58>
20007994:	00275783          	lhu	a5,2(a4)
20007998:	00470713          	addi	a4,a4,4
2000799c:	0ff7f613          	zext.b	a2,a5
200079a0:	00d605b3          	add	a1,a2,a3
200079a4:	0087d793          	srli	a5,a5,0x8
200079a8:	00b54c63          	blt	a0,a1,200079c0 <ff_wtoupper+0x60>
200079ac:	02078c63          	beqz	a5,200079e4 <ff_wtoupper+0x84>
200079b0:	00075683          	lhu	a3,0(a4)
200079b4:	fc069ee3          	bnez	a3,20007990 <ff_wtoupper+0x30>
200079b8:	00080513          	mv	a0,a6
200079bc:	00008067          	ret
200079c0:	00800613          	li	a2,8
200079c4:	fef66ae3          	bltu	a2,a5,200079b8 <ff_wtoupper+0x58>
200079c8:	00001617          	auipc	a2,0x1
200079cc:	d8060613          	addi	a2,a2,-640 # 20008748 <_ZL6LfnOfs+0x10>
200079d0:	00279793          	slli	a5,a5,0x2
200079d4:	00c787b3          	add	a5,a5,a2
200079d8:	0007a783          	lw	a5,0(a5) # 1000 <_start-0x1ffff000>
200079dc:	00c787b3          	add	a5,a5,a2
200079e0:	00078067          	jr	a5
200079e4:	00161613          	slli	a2,a2,0x1
200079e8:	00c70733          	add	a4,a4,a2
200079ec:	fc5ff06f          	j	200079b0 <ff_wtoupper+0x50>
200079f0:	fb080813          	addi	a6,a6,-80
200079f4:	01081813          	slli	a6,a6,0x10
200079f8:	01085813          	srli	a6,a6,0x10
200079fc:	00080513          	mv	a0,a6
20007a00:	fbdff06f          	j	200079bc <ff_wtoupper+0x5c>
20007a04:	00880813          	addi	a6,a6,8
20007a08:	01081813          	slli	a6,a6,0x10
20007a0c:	01085813          	srli	a6,a6,0x10
20007a10:	00080513          	mv	a0,a6
20007a14:	fa9ff06f          	j	200079bc <ff_wtoupper+0x5c>
20007a18:	fe680813          	addi	a6,a6,-26
20007a1c:	01081813          	slli	a6,a6,0x10
20007a20:	01085813          	srli	a6,a6,0x10
20007a24:	00080513          	mv	a0,a6
20007a28:	f95ff06f          	j	200079bc <ff_wtoupper+0x5c>
20007a2c:	fd080813          	addi	a6,a6,-48
20007a30:	01081813          	slli	a6,a6,0x10
20007a34:	01085813          	srli	a6,a6,0x10
20007a38:	00080513          	mv	a0,a6
20007a3c:	f81ff06f          	j	200079bc <ff_wtoupper+0x5c>
20007a40:	fe080813          	addi	a6,a6,-32
20007a44:	01081813          	slli	a6,a6,0x10
20007a48:	01085813          	srli	a6,a6,0x10
20007a4c:	00080513          	mv	a0,a6
20007a50:	f6dff06f          	j	200079bc <ff_wtoupper+0x5c>
20007a54:	ff080813          	addi	a6,a6,-16
20007a58:	01081813          	slli	a6,a6,0x10
20007a5c:	01085813          	srli	a6,a6,0x10
20007a60:	00080513          	mv	a0,a6
20007a64:	f59ff06f          	j	200079bc <ff_wtoupper+0x5c>
20007a68:	40d807b3          	sub	a5,a6,a3
20007a6c:	0017f793          	andi	a5,a5,1
20007a70:	40f80833          	sub	a6,a6,a5
20007a74:	01081813          	slli	a6,a6,0x10
20007a78:	01085813          	srli	a6,a6,0x10
20007a7c:	00080513          	mv	a0,a6
20007a80:	f3dff06f          	j	200079bc <ff_wtoupper+0x5c>
20007a84:	40d507b3          	sub	a5,a0,a3
20007a88:	00179793          	slli	a5,a5,0x1
20007a8c:	00f70733          	add	a4,a4,a5
20007a90:	00075803          	lhu	a6,0(a4)
20007a94:	00080513          	mv	a0,a6
20007a98:	f25ff06f          	j	200079bc <ff_wtoupper+0x5c>
20007a9c:	ffffe7b7          	lui	a5,0xffffe
20007aa0:	3a078793          	addi	a5,a5,928 # ffffe3a0 <_end+0xdfff32b8>
20007aa4:	00f80833          	add	a6,a6,a5
20007aa8:	01081813          	slli	a6,a6,0x10
20007aac:	01085813          	srli	a6,a6,0x10
20007ab0:	00080513          	mv	a0,a6
20007ab4:	f09ff06f          	j	200079bc <ff_wtoupper+0x5c>

20007ab8 <disk_status>:
20007ab8:	fff50513          	addi	a0,a0,-1
20007abc:	00a03533          	snez	a0,a0
20007ac0:	00008067          	ret

20007ac4 <disk_initialize>:
20007ac4:	00100793          	li	a5,1
20007ac8:	00f50663          	beq	a0,a5,20007ad4 <disk_initialize+0x10>
20007acc:	00100513          	li	a0,1
20007ad0:	00008067          	ret
20007ad4:	ff010113          	addi	sp,sp,-16
20007ad8:	00112623          	sw	ra,12(sp)
20007adc:	de9fc0ef          	jal	ra,200048c4 <_Z13SDCardStartupv>
20007ae0:	00c12083          	lw	ra,12(sp)
20007ae4:	00150513          	addi	a0,a0,1
20007ae8:	00153513          	seqz	a0,a0
20007aec:	01010113          	addi	sp,sp,16
20007af0:	00008067          	ret

20007af4 <disk_read>:
20007af4:	00100713          	li	a4,1
20007af8:	00e50a63          	beq	a0,a4,20007b0c <disk_read+0x18>
20007afc:	0fd57513          	andi	a0,a0,253
20007b00:	00a03533          	snez	a0,a0
20007b04:	00350513          	addi	a0,a0,3
20007b08:	00008067          	ret
20007b0c:	ff010113          	addi	sp,sp,-16
20007b10:	00058513          	mv	a0,a1
20007b14:	00068593          	mv	a1,a3
20007b18:	00112623          	sw	ra,12(sp)
20007b1c:	c45fc0ef          	jal	ra,20004760 <_Z20SDReadMultipleBlocksPhmm>
20007b20:	00c12083          	lw	ra,12(sp)
20007b24:	00150513          	addi	a0,a0,1
20007b28:	00153513          	seqz	a0,a0
20007b2c:	01010113          	addi	sp,sp,16
20007b30:	00008067          	ret

Disassembly of section .rodata:

20007b34 <__clz_tab>:
20007b34:	0100                	addi	s0,sp,128
20007b36:	0202                	c.slli64	tp
20007b38:	03030303          	lb	t1,48(t1)
20007b3c:	0404                	addi	s1,sp,512
20007b3e:	0404                	addi	s1,sp,512
20007b40:	0404                	addi	s1,sp,512
20007b42:	0404                	addi	s1,sp,512
20007b44:	0505                	addi	a0,a0,1
20007b46:	0505                	addi	a0,a0,1
20007b48:	0505                	addi	a0,a0,1
20007b4a:	0505                	addi	a0,a0,1
20007b4c:	0505                	addi	a0,a0,1
20007b4e:	0505                	addi	a0,a0,1
20007b50:	0505                	addi	a0,a0,1
20007b52:	0505                	addi	a0,a0,1
20007b54:	0606                	slli	a2,a2,0x1
20007b56:	0606                	slli	a2,a2,0x1
20007b58:	0606                	slli	a2,a2,0x1
20007b5a:	0606                	slli	a2,a2,0x1
20007b5c:	0606                	slli	a2,a2,0x1
20007b5e:	0606                	slli	a2,a2,0x1
20007b60:	0606                	slli	a2,a2,0x1
20007b62:	0606                	slli	a2,a2,0x1
20007b64:	0606                	slli	a2,a2,0x1
20007b66:	0606                	slli	a2,a2,0x1
20007b68:	0606                	slli	a2,a2,0x1
20007b6a:	0606                	slli	a2,a2,0x1
20007b6c:	0606                	slli	a2,a2,0x1
20007b6e:	0606                	slli	a2,a2,0x1
20007b70:	0606                	slli	a2,a2,0x1
20007b72:	0606                	slli	a2,a2,0x1
20007b74:	07070707          	0x7070707
20007b78:	07070707          	0x7070707
20007b7c:	07070707          	0x7070707
20007b80:	07070707          	0x7070707
20007b84:	07070707          	0x7070707
20007b88:	07070707          	0x7070707
20007b8c:	07070707          	0x7070707
20007b90:	07070707          	0x7070707
20007b94:	07070707          	0x7070707
20007b98:	07070707          	0x7070707
20007b9c:	07070707          	0x7070707
20007ba0:	07070707          	0x7070707
20007ba4:	07070707          	0x7070707
20007ba8:	07070707          	0x7070707
20007bac:	07070707          	0x7070707
20007bb0:	07070707          	0x7070707
20007bb4:	0808                	addi	a0,sp,16
20007bb6:	0808                	addi	a0,sp,16
20007bb8:	0808                	addi	a0,sp,16
20007bba:	0808                	addi	a0,sp,16
20007bbc:	0808                	addi	a0,sp,16
20007bbe:	0808                	addi	a0,sp,16
20007bc0:	0808                	addi	a0,sp,16
20007bc2:	0808                	addi	a0,sp,16
20007bc4:	0808                	addi	a0,sp,16
20007bc6:	0808                	addi	a0,sp,16
20007bc8:	0808                	addi	a0,sp,16
20007bca:	0808                	addi	a0,sp,16
20007bcc:	0808                	addi	a0,sp,16
20007bce:	0808                	addi	a0,sp,16
20007bd0:	0808                	addi	a0,sp,16
20007bd2:	0808                	addi	a0,sp,16
20007bd4:	0808                	addi	a0,sp,16
20007bd6:	0808                	addi	a0,sp,16
20007bd8:	0808                	addi	a0,sp,16
20007bda:	0808                	addi	a0,sp,16
20007bdc:	0808                	addi	a0,sp,16
20007bde:	0808                	addi	a0,sp,16
20007be0:	0808                	addi	a0,sp,16
20007be2:	0808                	addi	a0,sp,16
20007be4:	0808                	addi	a0,sp,16
20007be6:	0808                	addi	a0,sp,16
20007be8:	0808                	addi	a0,sp,16
20007bea:	0808                	addi	a0,sp,16
20007bec:	0808                	addi	a0,sp,16
20007bee:	0808                	addi	a0,sp,16
20007bf0:	0808                	addi	a0,sp,16
20007bf2:	0808                	addi	a0,sp,16
20007bf4:	0808                	addi	a0,sp,16
20007bf6:	0808                	addi	a0,sp,16
20007bf8:	0808                	addi	a0,sp,16
20007bfa:	0808                	addi	a0,sp,16
20007bfc:	0808                	addi	a0,sp,16
20007bfe:	0808                	addi	a0,sp,16
20007c00:	0808                	addi	a0,sp,16
20007c02:	0808                	addi	a0,sp,16
20007c04:	0808                	addi	a0,sp,16
20007c06:	0808                	addi	a0,sp,16
20007c08:	0808                	addi	a0,sp,16
20007c0a:	0808                	addi	a0,sp,16
20007c0c:	0808                	addi	a0,sp,16
20007c0e:	0808                	addi	a0,sp,16
20007c10:	0808                	addi	a0,sp,16
20007c12:	0808                	addi	a0,sp,16
20007c14:	0808                	addi	a0,sp,16
20007c16:	0808                	addi	a0,sp,16
20007c18:	0808                	addi	a0,sp,16
20007c1a:	0808                	addi	a0,sp,16
20007c1c:	0808                	addi	a0,sp,16
20007c1e:	0808                	addi	a0,sp,16
20007c20:	0808                	addi	a0,sp,16
20007c22:	0808                	addi	a0,sp,16
20007c24:	0808                	addi	a0,sp,16
20007c26:	0808                	addi	a0,sp,16
20007c28:	0808                	addi	a0,sp,16
20007c2a:	0808                	addi	a0,sp,16
20007c2c:	0808                	addi	a0,sp,16
20007c2e:	0808                	addi	a0,sp,16
20007c30:	0808                	addi	a0,sp,16
20007c32:	0808                	addi	a0,sp,16
20007c34:	7542                	flw	fa0,48(sp)
20007c36:	7474                	flw	fa3,108(s0)
20007c38:	73206e6f          	jal	t3,2000e36a <_end+0x3282>
20007c3c:	6174                	flw	fa3,68(a0)
20007c3e:	6574                	flw	fa3,76(a0)
20007c40:	6320                	flw	fs0,64(a4)
20007c42:	6168                	flw	fa0,68(a0)
20007c44:	676e                	flw	fa4,216(sp)
20007c46:	3a65                	jal	200075fe <f_readdir+0x972>
20007c48:	0020                	addi	s0,sp,8
20007c4a:	0000                	unimp
20007c4c:	1b0a                	slli	s6,s6,0x22
20007c4e:	6d34335b          	0x6d34335b
20007c52:	37345b1b          	0x37345b1b
20007c56:	1b6d                	addi	s6,s6,-5
20007c58:	006d375b          	0x6d375b
20007c5c:	4948                	lw	a0,20(a0)
20007c5e:	544e                	lw	s0,240(sp)
20007c60:	203a                	fld	ft0,392(sp)
20007c62:	7954                	flw	fa3,52(a0)
20007c64:	6570                	flw	fa2,76(a0)
20007c66:	2720                	fld	fs0,72(a4)
20007c68:	6568                	flw	fa0,76(a0)
20007c6a:	706c                	flw	fa1,100(s0)
20007c6c:	6f662027          	fsw	fs6,1760(a2)
20007c70:	2072                	fld	ft0,280(sp)
20007c72:	2061                	jal	20007cfa <__clz_tab+0x1c6>
20007c74:	696c                	flw	fa1,84(a0)
20007c76:	6f207473          	csrrci	s0,0x6f2,0
20007c7a:	2066                	fld	ft0,88(sp)
20007c7c:	7661                	lui	a2,0xffff8
20007c7e:	6961                	lui	s2,0x18
20007c80:	616c                	flw	fa1,68(a0)
20007c82:	6c62                	flw	fs8,24(sp)
20007c84:	2065                	jal	20007d2c <__clz_tab+0x1f8>
20007c86:	6d6d6f63          	bltu	s10,s6,20008364 <__clz_tab+0x830>
20007c8a:	6e61                	lui	t3,0x18
20007c8c:	7364                	flw	fs1,100(a4)
20007c8e:	002e                	c.slli	zero,0xb
20007c90:	6d305b1b          	0x6d305b1b
20007c94:	000a                	c.slli	zero,0x2
20007c96:	0000                	unimp
20007c98:	31335b1b          	0x31335b1b
20007c9c:	1b6d                	addi	s6,s6,-5
20007c9e:	6d30345b          	0x6d30345b
20007ca2:	0000                	unimp
20007ca4:	94e2                	add	s1,s1,s8
20007ca6:	e28c                	fsw	fa1,0(a3)
20007ca8:	8094                	0x8094
20007caa:	94e2                	add	s1,s1,s8
20007cac:	e280                	fsw	fs0,0(a3)
20007cae:	8094                	0x8094
20007cb0:	94e2                	add	s1,s1,s8
20007cb2:	e280                	fsw	fs0,0(a3)
20007cb4:	8094                	0x8094
20007cb6:	94e2                	add	s1,s1,s8
20007cb8:	e280                	fsw	fs0,0(a3)
20007cba:	8094                	0x8094
20007cbc:	94e2                	add	s1,s1,s8
20007cbe:	e280                	fsw	fs0,0(a3)
20007cc0:	8094                	0x8094
20007cc2:	94e2                	add	s1,s1,s8
20007cc4:	e280                	fsw	fs0,0(a3)
20007cc6:	8094                	0x8094
20007cc8:	94e2                	add	s1,s1,s8
20007cca:	e280                	fsw	fs0,0(a3)
20007ccc:	8094                	0x8094
20007cce:	94e2                	add	s1,s1,s8
20007cd0:	e280                	fsw	fs0,0(a3)
20007cd2:	8094                	0x8094
20007cd4:	94e2                	add	s1,s1,s8
20007cd6:	e280                	fsw	fs0,0(a3)
20007cd8:	8094                	0x8094
20007cda:	94e2                	add	s1,s1,s8
20007cdc:	e280                	fsw	fs0,0(a3)
20007cde:	8094                	0x8094
20007ce0:	94e2                	add	s1,s1,s8
20007ce2:	e280                	fsw	fs0,0(a3)
20007ce4:	8094                	0x8094
20007ce6:	94e2                	add	s1,s1,s8
20007ce8:	e280                	fsw	fs0,0(a3)
20007cea:	8094                	0x8094
20007cec:	94e2                	add	s1,s1,s8
20007cee:	e280                	fsw	fs0,0(a3)
20007cf0:	8094                	0x8094
20007cf2:	94e2                	add	s1,s1,s8
20007cf4:	e280                	fsw	fs0,0(a3)
20007cf6:	8094                	0x8094
20007cf8:	94e2                	add	s1,s1,s8
20007cfa:	e280                	fsw	fs0,0(a3)
20007cfc:	8094                	0x8094
20007cfe:	94e2                	add	s1,s1,s8
20007d00:	e280                	fsw	fs0,0(a3)
20007d02:	8094                	0x8094
20007d04:	94e2                	add	s1,s1,s8
20007d06:	e280                	fsw	fs0,0(a3)
20007d08:	8094                	0x8094
20007d0a:	94e2                	add	s1,s1,s8
20007d0c:	e280                	fsw	fs0,0(a3)
20007d0e:	8094                	0x8094
20007d10:	94e2                	add	s1,s1,s8
20007d12:	e280                	fsw	fs0,0(a3)
20007d14:	8094                	0x8094
20007d16:	94e2                	add	s1,s1,s8
20007d18:	e280                	fsw	fs0,0(a3)
20007d1a:	8094                	0x8094
20007d1c:	94e2                	add	s1,s1,s8
20007d1e:	e280                	fsw	fs0,0(a3)
20007d20:	8094                	0x8094
20007d22:	94e2                	add	s1,s1,s8
20007d24:	e280                	fsw	fs0,0(a3)
20007d26:	8094                	0x8094
20007d28:	94e2                	add	s1,s1,s8
20007d2a:	e280                	fsw	fs0,0(a3)
20007d2c:	8094                	0x8094
20007d2e:	94e2                	add	s1,s1,s8
20007d30:	e280                	fsw	fs0,0(a3)
20007d32:	8094                	0x8094
20007d34:	94e2                	add	s1,s1,s8
20007d36:	e280                	fsw	fs0,0(a3)
20007d38:	8094                	0x8094
20007d3a:	94e2                	add	s1,s1,s8
20007d3c:	e280                	fsw	fs0,0(a3)
20007d3e:	8094                	0x8094
20007d40:	94e2                	add	s1,s1,s8
20007d42:	0a90                	addi	a2,sp,336
20007d44:	0000                	unimp
20007d46:	0000                	unimp
20007d48:	94e2                	add	s1,s1,s8
20007d4a:	2082                	fld	ft1,0(sp)
20007d4c:	6e55                	lui	t3,0x15
20007d4e:	6d69                	lui	s10,0x1a
20007d50:	6c70                	flw	fa2,92(s0)
20007d52:	6d65                	lui	s10,0x19
20007d54:	6e65                	lui	t3,0x19
20007d56:	6574                	flw	fa3,76(a0)
20007d58:	2064                	fld	fs1,192(s0)
20007d5a:	616d                	addi	sp,sp,240
20007d5c:	6e696863          	bltu	s2,t1,2000844c <__clz_tab+0x918>
20007d60:	2065                	jal	20007e08 <__clz_tab+0x2d4>
20007d62:	4345                	li	t1,17
20007d64:	4c41                	li	s8,16
20007d66:	2e4c                	fld	fa1,152(a2)
20007d68:	5020                	lw	s0,96(s0)
20007d6a:	6f72                	flw	ft10,28(sp)
20007d6c:	6d617267          	0x6d617267
20007d70:	7720                	flw	fs0,104(a4)
20007d72:	6c69                	lui	s8,0x1a
20007d74:	206c                	fld	fa1,192(s0)
20007d76:	6572                	flw	fa0,28(sp)
20007d78:	656d7573          	csrrci	a0,0x656,26
20007d7c:	2020                	fld	fs0,64(s0)
20007d7e:	94e2                	add	s1,s1,s8
20007d80:	0a82                	c.slli64	s5
20007d82:	0000                	unimp
20007d84:	94e2                	add	s1,s1,s8
20007d86:	2082                	fld	ft1,0(sp)
20007d88:	7865                	lui	a6,0xffff9
20007d8a:	6365                	lui	t1,0x19
20007d8c:	7475                	lui	s0,0xffffd
20007d8e:	6f69                	lui	t5,0x1a
20007d90:	2c6e                	fld	fs8,216(sp)
20007d92:	7420                	flw	fs0,104(s0)
20007d94:	6f68                	flw	fa0,92(a4)
20007d96:	6775                	lui	a4,0x1d
20007d98:	2068                	fld	fa0,192(s0)
20007d9a:	7469                	lui	s0,0xffffa
20007d9c:	6d20                	flw	fs0,88(a0)
20007d9e:	6769                	lui	a4,0x1a
20007da0:	7468                	flw	fa0,108(s0)
20007da2:	6320                	flw	fs0,64(a4)
20007da4:	6172                	flw	ft2,28(sp)
20007da6:	202e6873          	csrrsi	a6,0x202,28
20007daa:	2020                	fld	fs0,64(s0)
20007dac:	2020                	fld	fs0,64(s0)
20007dae:	2020                	fld	fs0,64(s0)
20007db0:	2020                	fld	fs0,64(s0)
20007db2:	2020                	fld	fs0,64(s0)
20007db4:	2020                	fld	fs0,64(s0)
20007db6:	2020                	fld	fs0,64(s0)
20007db8:	2020                	fld	fs0,64(s0)
20007dba:	94e2                	add	s1,s1,s8
20007dbc:	0a82                	c.slli64	s5
20007dbe:	0000                	unimp
20007dc0:	94e2                	add	s1,s1,s8
20007dc2:	2082                	fld	ft1,0(sp)
20007dc4:	00000023          	sb	zero,0(zero) # 0 <_start-0x20000000>
20007dc8:	4020                	lw	s0,64(s0)
20007dca:	0000                	unimp
20007dcc:	2020                	fld	fs0,64(s0)
20007dce:	2020                	fld	fs0,64(s0)
20007dd0:	2020                	fld	fs0,64(s0)
20007dd2:	2020                	fld	fs0,64(s0)
20007dd4:	2020                	fld	fs0,64(s0)
20007dd6:	2020                	fld	fs0,64(s0)
20007dd8:	2020                	fld	fs0,64(s0)
20007dda:	2020                	fld	fs0,64(s0)
20007ddc:	2020                	fld	fs0,64(s0)
20007dde:	2020                	fld	fs0,64(s0)
20007de0:	2020                	fld	fs0,64(s0)
20007de2:	2020                	fld	fs0,64(s0)
20007de4:	2020                	fld	fs0,64(s0)
20007de6:	2020                	fld	fs0,64(s0)
20007de8:	2020                	fld	fs0,64(s0)
20007dea:	e220                	fsw	fs0,64(a2)
20007dec:	8294                	0x8294
20007dee:	000a                	c.slli	zero,0x2
20007df0:	94e2                	add	s1,s1,s8
20007df2:	e294                	fsw	fa3,0(a3)
20007df4:	8094                	0x8094
20007df6:	94e2                	add	s1,s1,s8
20007df8:	e280                	fsw	fs0,0(a3)
20007dfa:	8094                	0x8094
20007dfc:	94e2                	add	s1,s1,s8
20007dfe:	e280                	fsw	fs0,0(a3)
20007e00:	8094                	0x8094
20007e02:	94e2                	add	s1,s1,s8
20007e04:	e280                	fsw	fs0,0(a3)
20007e06:	8094                	0x8094
20007e08:	94e2                	add	s1,s1,s8
20007e0a:	e280                	fsw	fs0,0(a3)
20007e0c:	8094                	0x8094
20007e0e:	94e2                	add	s1,s1,s8
20007e10:	e280                	fsw	fs0,0(a3)
20007e12:	8094                	0x8094
20007e14:	94e2                	add	s1,s1,s8
20007e16:	e280                	fsw	fs0,0(a3)
20007e18:	8094                	0x8094
20007e1a:	94e2                	add	s1,s1,s8
20007e1c:	e280                	fsw	fs0,0(a3)
20007e1e:	8094                	0x8094
20007e20:	94e2                	add	s1,s1,s8
20007e22:	e280                	fsw	fs0,0(a3)
20007e24:	8094                	0x8094
20007e26:	94e2                	add	s1,s1,s8
20007e28:	e280                	fsw	fs0,0(a3)
20007e2a:	8094                	0x8094
20007e2c:	94e2                	add	s1,s1,s8
20007e2e:	e280                	fsw	fs0,0(a3)
20007e30:	8094                	0x8094
20007e32:	94e2                	add	s1,s1,s8
20007e34:	e280                	fsw	fs0,0(a3)
20007e36:	8094                	0x8094
20007e38:	94e2                	add	s1,s1,s8
20007e3a:	e280                	fsw	fs0,0(a3)
20007e3c:	8094                	0x8094
20007e3e:	94e2                	add	s1,s1,s8
20007e40:	e280                	fsw	fs0,0(a3)
20007e42:	8094                	0x8094
20007e44:	94e2                	add	s1,s1,s8
20007e46:	e280                	fsw	fs0,0(a3)
20007e48:	8094                	0x8094
20007e4a:	94e2                	add	s1,s1,s8
20007e4c:	e280                	fsw	fs0,0(a3)
20007e4e:	8094                	0x8094
20007e50:	94e2                	add	s1,s1,s8
20007e52:	e280                	fsw	fs0,0(a3)
20007e54:	8094                	0x8094
20007e56:	94e2                	add	s1,s1,s8
20007e58:	e280                	fsw	fs0,0(a3)
20007e5a:	8094                	0x8094
20007e5c:	94e2                	add	s1,s1,s8
20007e5e:	e280                	fsw	fs0,0(a3)
20007e60:	8094                	0x8094
20007e62:	94e2                	add	s1,s1,s8
20007e64:	e280                	fsw	fs0,0(a3)
20007e66:	8094                	0x8094
20007e68:	94e2                	add	s1,s1,s8
20007e6a:	e280                	fsw	fs0,0(a3)
20007e6c:	8094                	0x8094
20007e6e:	94e2                	add	s1,s1,s8
20007e70:	e280                	fsw	fs0,0(a3)
20007e72:	8094                	0x8094
20007e74:	94e2                	add	s1,s1,s8
20007e76:	e280                	fsw	fs0,0(a3)
20007e78:	8094                	0x8094
20007e7a:	94e2                	add	s1,s1,s8
20007e7c:	e280                	fsw	fs0,0(a3)
20007e7e:	8094                	0x8094
20007e80:	94e2                	add	s1,s1,s8
20007e82:	e280                	fsw	fs0,0(a3)
20007e84:	8094                	0x8094
20007e86:	94e2                	add	s1,s1,s8
20007e88:	e280                	fsw	fs0,0(a3)
20007e8a:	8094                	0x8094
20007e8c:	94e2                	add	s1,s1,s8
20007e8e:	0a98                	addi	a4,sp,336
20007e90:	0000                	unimp
20007e92:	0000                	unimp
20007e94:	6d305b1b          	0x6d305b1b
20007e98:	0a0a                	slli	s4,s4,0x2
20007e9a:	0000                	unimp
20007e9c:	94e2                	add	s1,s1,s8
20007e9e:	2082                	fld	ft1,0(sp)
20007ea0:	74666f53          	0x74666f53
20007ea4:	65726177          	0x65726177
20007ea8:	4620                	lw	s0,72(a2)
20007eaa:	6961                	lui	s2,0x18
20007eac:	756c                	flw	fa1,108(a0)
20007eae:	6572                	flw	fa0,28(sp)
20007eb0:	202e                	fld	ft0,200(sp)
20007eb2:	7250                	flw	fa2,36(a2)
20007eb4:	7365                	lui	t1,0xffff9
20007eb6:	65722073          	csrs	0x657,tp
20007eba:	20746573          	csrrsi	a0,0x207,8
20007ebe:	7562                	flw	fa0,56(sp)
20007ec0:	7474                	flw	fa3,108(s0)
20007ec2:	74206e6f          	jal	t3,2000e604 <_end+0x351c>
20007ec6:	6f63206f          	j	2003a5bc <_end+0x2f4d4>
20007eca:	746e                	flw	fs0,248(sp)
20007ecc:	6e69                	lui	t3,0x1a
20007ece:	6575                	lui	a0,0x1d
20007ed0:	202e                	fld	ft0,200(sp)
20007ed2:	94e2                	add	s1,s1,s8
20007ed4:	0a82                	c.slli64	s5
20007ed6:	0000                	unimp
20007ed8:	94e2                	add	s1,s1,s8
20007eda:	2082                	fld	ft1,0(sp)
20007edc:	2020                	fld	fs0,64(s0)
20007ede:	75727547          	0x75727547
20007ee2:	4d20                	lw	s0,88(a0)
20007ee4:	6465                	lui	s0,0x19
20007ee6:	7469                	lui	s0,0xffffa
20007ee8:	7461                	lui	s0,0xffff8
20007eea:	6f69                	lui	t5,0x1a
20007eec:	206e                	fld	ft0,216(sp)
20007eee:	002e0023          	sb	sp,0(t3) # 1a000 <_start-0x1ffe6000>
20007ef2:	0000                	unimp
20007ef4:	2020                	fld	fs0,64(s0)
20007ef6:	2020                	fld	fs0,64(s0)
20007ef8:	94e2                	add	s1,s1,s8
20007efa:	0a82                	c.slli64	s5
20007efc:	0000                	unimp
20007efe:	0000                	unimp
20007f00:	652e                	flw	fa0,200(sp)
20007f02:	666c                	flw	fa1,76(a2)
20007f04:	0000                	unimp
20007f06:	0000                	unimp
20007f08:	32335b1b          	0x32335b1b
20007f0c:	006d                	c.nop	27
20007f0e:	0000                	unimp
20007f10:	3c20                	fld	fs0,120(s0)
20007f12:	6964                	flw	fs1,84(a0)
20007f14:	3e72                	fld	ft8,312(sp)
20007f16:	0000                	unimp
20007f18:	0062                	c.slli	zero,0x18
20007f1a:	0000                	unimp
20007f1c:	33335b1b          	0x33335b1b
20007f20:	006d                	c.nop	27
20007f22:	0000                	unimp
20007f24:	6d305b1b          	0x6d305b1b
20007f28:	4a325b1b          	0x4a325b1b
20007f2c:	0000                	unimp
20007f2e:	0000                	unimp
20007f30:	6620                	flw	fs0,72(a2)
20007f32:	6961                	lui	s2,0x18
20007f34:	656c                	flw	fa1,76(a0)
20007f36:	3a64                	fld	fs1,240(a2)
20007f38:	6520                	flw	fs0,72(a0)
20007f3a:	7078                	flw	fa4,100(s0)
20007f3c:	6365                	lui	t1,0x19
20007f3e:	6974                	flw	fa3,84(a0)
20007f40:	676e                	flw	fa4,216(sp)
20007f42:	3020                	fld	fs0,96(s0)
20007f44:	3778                	fld	fa4,232(a4)
20007f46:	2b46                	fld	fs6,80(sp)
20007f48:	464c4527          	fsq	ft4,1130(s8) # 1a46a <_start-0x1ffe5b96>
20007f4c:	00000027          	0x27
20007f50:	6568                	flw	fa0,76(a0)
20007f52:	706c                	flw	fa1,100(s0)
20007f54:	0000                	unimp
20007f56:	0000                	unimp
20007f58:	34335b1b          	0x34335b1b
20007f5c:	1b6d                	addi	s6,s6,-5
20007f5e:	6d37345b          	0x6d37345b
20007f62:	6d375b1b          	0x6d375b1b
20007f66:	6964                	flw	fs1,84(a0)
20007f68:	1b72                	slli	s6,s6,0x3c
20007f6a:	3a6d305b          	0x3a6d305b
20007f6e:	7320                	flw	fs0,96(a4)
20007f70:	6f68                	flw	fa0,92(a4)
20007f72:	696c2077          	0x696c2077
20007f76:	6f207473          	csrrci	s0,0x6f2,0
20007f7a:	2066                	fld	ft0,88(sp)
20007f7c:	6966                	flw	fs2,88(sp)
20007f7e:	656c                	flw	fa1,76(a0)
20007f80:	6e692073          	csrs	0x6e6,s2
20007f84:	7720                	flw	fs0,104(a4)
20007f86:	696b726f          	jal	tp,200bf61c <_end+0xb4534>
20007f8a:	676e                	flw	fa4,216(sp)
20007f8c:	6420                	flw	fs0,72(s0)
20007f8e:	7269                	lui	tp,0xffffa
20007f90:	6365                	lui	t1,0x19
20007f92:	6f74                	flw	fa3,92(a4)
20007f94:	7972                	flw	fs2,60(sp)
20007f96:	000a                	c.slli	zero,0x2
20007f98:	34335b1b          	0x34335b1b
20007f9c:	1b6d                	addi	s6,s6,-5
20007f9e:	6d37345b          	0x6d37345b
20007fa2:	6d375b1b          	0x6d375b1b
20007fa6:	1b647763          	bgeu	s0,s6,20008154 <__clz_tab+0x620>
20007faa:	3a6d305b          	0x3a6d305b
20007fae:	6320                	flw	fs0,64(a4)
20007fb0:	6168                	flw	fa0,68(a0)
20007fb2:	676e                	flw	fa4,216(sp)
20007fb4:	2065                	jal	2000805c <__clz_tab+0x528>
20007fb6:	6b726f77          	0x6b726f77
20007fba:	6e69                	lui	t3,0x1a
20007fbc:	69642067          	0x69642067
20007fc0:	6572                	flw	fa0,28(sp)
20007fc2:	726f7463          	bgeu	t5,t1,200086ea <_ZL5ExCvt+0x32>
20007fc6:	0a79                	addi	s4,s4,30
20007fc8:	0000                	unimp
20007fca:	0000                	unimp
20007fcc:	34335b1b          	0x34335b1b
20007fd0:	1b6d                	addi	s6,s6,-5
20007fd2:	6d37345b          	0x6d37345b
20007fd6:	6d375b1b          	0x6d375b1b
20007fda:	7770                	flw	fa2,108(a4)
20007fdc:	1b64                	addi	s1,sp,444
20007fde:	3a6d305b          	0x3a6d305b
20007fe2:	7320                	flw	fs0,96(a4)
20007fe4:	6f68                	flw	fa0,92(a4)
20007fe6:	6f772077          	0x6f772077
20007fea:	6b72                	flw	fs6,28(sp)
20007fec:	6e69                	lui	t3,0x1a
20007fee:	69642067          	0x69642067
20007ff2:	6572                	flw	fa0,28(sp)
20007ff4:	726f7463          	bgeu	t5,t1,2000871c <_ZL5ExCvt+0x64>
20007ff8:	0a79                	addi	s4,s4,30
20007ffa:	0000                	unimp
20007ffc:	34335b1b          	0x34335b1b
20008000:	1b6d                	addi	s6,s6,-5
20008002:	6d37345b          	0x6d37345b
20008006:	6d375b1b          	0x6d375b1b
2000800a:	1b736c63          	bltu	t1,s7,200081c2 <__clz_tab+0x68e>
2000800e:	3a6d305b          	0x3a6d305b
20008012:	6320                	flw	fs0,64(a4)
20008014:	656c                	flw	fa1,76(a0)
20008016:	7261                	lui	tp,0xffff8
20008018:	7620                	flw	fs0,104(a2)
2000801a:	7369                	lui	t1,0xffffa
2000801c:	6269                	lui	tp,0x1a
2000801e:	656c                	flw	fa1,76(a0)
20008020:	7020                	flw	fs0,96(s0)
20008022:	6974726f          	jal	tp,2004feb8 <_end+0x44dd0>
20008026:	6f206e6f          	jal	t3,2000e718 <_end+0x3630>
2000802a:	2066                	fld	ft0,88(sp)
2000802c:	6574                	flw	fa3,76(a0)
2000802e:	6d72                	flw	fs10,28(sp)
20008030:	6e69                	lui	t3,0x1a
20008032:	6c61                	lui	s8,0x18
20008034:	000a                	c.slli	zero,0x2
20008036:	0000                	unimp
20008038:	00647763          	bgeu	s0,t1,20008046 <__clz_tab+0x512>
2000803c:	003a6473          	csrrsi	s0,fcsr,20
20008040:	7770                	flw	fa2,108(a4)
20008042:	0064                	addi	s1,sp,12
20008044:	6964                	flw	fs1,84(a0)
20008046:	0072                	c.slli	zero,0x1c
20008048:	00736c63          	bltu	t1,t2,20008060 <__clz_tab+0x52c>
2000804c:	7845                	lui	a6,0xffff1
2000804e:	6365                	lui	t1,0x19
20008050:	7475                	lui	s0,0xffffd
20008052:	6261                	lui	tp,0x18
20008054:	656c                	flw	fa1,76(a0)
20008056:	2720                	fld	fs0,72(a4)
20008058:	0000                	unimp
2000805a:	0000                	unimp
2000805c:	6f6e2027          	fsw	fs6,1760(t3) # 1a6e0 <_start-0x1ffe5920>
20008060:	2074                	fld	fa3,192(s0)
20008062:	6f66                	flw	ft10,88(sp)
20008064:	6e75                	lui	t3,0x1d
20008066:	2e64                	fld	fs1,216(a2)
20008068:	000a                	c.slli	zero,0x2
2000806a:	0000                	unimp
2000806c:	94e2                	add	s1,s1,s8
2000806e:	e28c                	fsw	fa1,0(a3)
20008070:	8094                	0x8094
20008072:	94e2                	add	s1,s1,s8
20008074:	e280                	fsw	fs0,0(a3)
20008076:	8094                	0x8094
20008078:	94e2                	add	s1,s1,s8
2000807a:	e280                	fsw	fs0,0(a3)
2000807c:	8094                	0x8094
2000807e:	94e2                	add	s1,s1,s8
20008080:	e280                	fsw	fs0,0(a3)
20008082:	8094                	0x8094
20008084:	94e2                	add	s1,s1,s8
20008086:	e280                	fsw	fs0,0(a3)
20008088:	8094                	0x8094
2000808a:	94e2                	add	s1,s1,s8
2000808c:	e280                	fsw	fs0,0(a3)
2000808e:	8094                	0x8094
20008090:	94e2                	add	s1,s1,s8
20008092:	e280                	fsw	fs0,0(a3)
20008094:	8094                	0x8094
20008096:	94e2                	add	s1,s1,s8
20008098:	e280                	fsw	fs0,0(a3)
2000809a:	8094                	0x8094
2000809c:	94e2                	add	s1,s1,s8
2000809e:	e280                	fsw	fs0,0(a3)
200080a0:	8094                	0x8094
200080a2:	94e2                	add	s1,s1,s8
200080a4:	e280                	fsw	fs0,0(a3)
200080a6:	8094                	0x8094
200080a8:	94e2                	add	s1,s1,s8
200080aa:	e280                	fsw	fs0,0(a3)
200080ac:	8094                	0x8094
200080ae:	94e2                	add	s1,s1,s8
200080b0:	e280                	fsw	fs0,0(a3)
200080b2:	8094                	0x8094
200080b4:	94e2                	add	s1,s1,s8
200080b6:	e280                	fsw	fs0,0(a3)
200080b8:	8094                	0x8094
200080ba:	94e2                	add	s1,s1,s8
200080bc:	e280                	fsw	fs0,0(a3)
200080be:	8094                	0x8094
200080c0:	94e2                	add	s1,s1,s8
200080c2:	e280                	fsw	fs0,0(a3)
200080c4:	8094                	0x8094
200080c6:	94e2                	add	s1,s1,s8
200080c8:	e280                	fsw	fs0,0(a3)
200080ca:	8094                	0x8094
200080cc:	94e2                	add	s1,s1,s8
200080ce:	e280                	fsw	fs0,0(a3)
200080d0:	8094                	0x8094
200080d2:	94e2                	add	s1,s1,s8
200080d4:	e280                	fsw	fs0,0(a3)
200080d6:	8094                	0x8094
200080d8:	94e2                	add	s1,s1,s8
200080da:	e280                	fsw	fs0,0(a3)
200080dc:	9094                	0x9094
200080de:	000a                	c.slli	zero,0x2
200080e0:	94e2                	add	s1,s1,s8
200080e2:	2082                	fld	ft1,0(sp)
200080e4:	3345                	jal	20007e84 <__clz_tab+0x350>
200080e6:	4f32                	lw	t5,12(sp)
200080e8:	30762053          	0x30762053
200080ec:	312e                	fld	ft2,232(sp)
200080ee:	3035                	jal	2000791a <ff_uni2oem+0x6a>
200080f0:	2820                	fld	fs0,80(s0)
200080f2:	30322963          	0x30322963
200080f6:	3232                	fld	ft4,296(sp)
200080f8:	4520                	lw	s0,72(a0)
200080fa:	676e                	flw	fa4,216(sp)
200080fc:	6e69                	lui	t3,0x1a
200080fe:	4320                	lw	s0,64(a4)
20008100:	6c69                	lui	s8,0x1a
20008102:	7361                	lui	t1,0xffff8
20008104:	6e75                	lui	t3,0x1d
20008106:	e220                	fsw	fs0,64(a2)
20008108:	8294                	0x8294
2000810a:	000a                	c.slli	zero,0x2
2000810c:	94e2                	add	s1,s1,s8
2000810e:	e294                	fsw	fa3,0(a3)
20008110:	8094                	0x8094
20008112:	94e2                	add	s1,s1,s8
20008114:	e280                	fsw	fs0,0(a3)
20008116:	8094                	0x8094
20008118:	94e2                	add	s1,s1,s8
2000811a:	e280                	fsw	fs0,0(a3)
2000811c:	8094                	0x8094
2000811e:	94e2                	add	s1,s1,s8
20008120:	e280                	fsw	fs0,0(a3)
20008122:	8094                	0x8094
20008124:	94e2                	add	s1,s1,s8
20008126:	e280                	fsw	fs0,0(a3)
20008128:	8094                	0x8094
2000812a:	94e2                	add	s1,s1,s8
2000812c:	e280                	fsw	fs0,0(a3)
2000812e:	8094                	0x8094
20008130:	94e2                	add	s1,s1,s8
20008132:	e280                	fsw	fs0,0(a3)
20008134:	8094                	0x8094
20008136:	94e2                	add	s1,s1,s8
20008138:	e280                	fsw	fs0,0(a3)
2000813a:	8094                	0x8094
2000813c:	94e2                	add	s1,s1,s8
2000813e:	e280                	fsw	fs0,0(a3)
20008140:	8094                	0x8094
20008142:	94e2                	add	s1,s1,s8
20008144:	e280                	fsw	fs0,0(a3)
20008146:	8094                	0x8094
20008148:	94e2                	add	s1,s1,s8
2000814a:	e280                	fsw	fs0,0(a3)
2000814c:	8094                	0x8094
2000814e:	94e2                	add	s1,s1,s8
20008150:	e280                	fsw	fs0,0(a3)
20008152:	8094                	0x8094
20008154:	94e2                	add	s1,s1,s8
20008156:	e280                	fsw	fs0,0(a3)
20008158:	8094                	0x8094
2000815a:	94e2                	add	s1,s1,s8
2000815c:	e280                	fsw	fs0,0(a3)
2000815e:	8094                	0x8094
20008160:	94e2                	add	s1,s1,s8
20008162:	e280                	fsw	fs0,0(a3)
20008164:	8094                	0x8094
20008166:	94e2                	add	s1,s1,s8
20008168:	e280                	fsw	fs0,0(a3)
2000816a:	8094                	0x8094
2000816c:	94e2                	add	s1,s1,s8
2000816e:	e280                	fsw	fs0,0(a3)
20008170:	8094                	0x8094
20008172:	94e2                	add	s1,s1,s8
20008174:	e280                	fsw	fs0,0(a3)
20008176:	8094                	0x8094
20008178:	94e2                	add	s1,s1,s8
2000817a:	e280                	fsw	fs0,0(a3)
2000817c:	9894                	0x9894
2000817e:	0a0a                	slli	s4,s4,0x2
20008180:	0000                	unimp
20008182:	0000                	unimp
20008184:	63637553          	0x63637553
20008188:	6565                	lui	a0,0x19
2000818a:	6564                	flw	fs1,76(a0)
2000818c:	0a64                	addi	s1,sp,284
2000818e:	0000                	unimp
20008190:	2041                	jal	20008210 <__clz_tab+0x6dc>
20008192:	6168                	flw	fa0,68(a0)
20008194:	6472                	flw	fs0,28(sp)
20008196:	6520                	flw	fs0,72(a0)
20008198:	7272                	flw	ft4,60(sp)
2000819a:	6f20726f          	jal	tp,2000f88c <_end+0x47a4>
2000819e:	72756363          	bltu	a0,t2,200088c4 <_ZZ11ff_wtoupperE4cvt1+0x58>
200081a2:	6572                	flw	fa0,28(sp)
200081a4:	2064                	fld	fs1,192(s0)
200081a6:	6e69                	lui	t3,0x1a
200081a8:	7420                	flw	fs0,104(s0)
200081aa:	6568                	flw	fa0,76(a0)
200081ac:	6c20                	flw	fs0,88(s0)
200081ae:	6c20776f          	jal	a4,2000f870 <_end+0x4788>
200081b2:	7665                	lui	a2,0xffff9
200081b4:	6c65                	lui	s8,0x19
200081b6:	6420                	flw	fs0,72(s0)
200081b8:	7369                	lui	t1,0xffffa
200081ba:	2f49206b          	0x2f49206b
200081be:	616c204f          	fnmadd.s	ft0,fs8,fs6,fa2,rdn
200081c2:	6579                	lui	a0,0x1e
200081c4:	0a72                	slli	s4,s4,0x1c
200081c6:	0000                	unimp
200081c8:	7341                	lui	t1,0xffff0
200081ca:	74726573          	csrrsi	a0,0x747,4
200081ce:	6f69                	lui	t5,0x1a
200081d0:	206e                	fld	ft0,216(sp)
200081d2:	6166                	flw	ft2,88(sp)
200081d4:	6c69                	lui	s8,0x1a
200081d6:	6465                	lui	s0,0x19
200081d8:	000a                	c.slli	zero,0x2
200081da:	0000                	unimp
200081dc:	6854                	flw	fa3,20(s0)
200081de:	2065                	jal	20008286 <__clz_tab+0x752>
200081e0:	6870                	flw	fa2,84(s0)
200081e2:	7379                	lui	t1,0xffffe
200081e4:	6369                	lui	t1,0x1a
200081e6:	6c61                	lui	s8,0x18
200081e8:	6420                	flw	fs0,72(s0)
200081ea:	6972                	flw	fs2,28(sp)
200081ec:	6576                	flw	fa0,92(sp)
200081ee:	6320                	flw	fs0,64(a4)
200081f0:	6e61                	lui	t3,0x18
200081f2:	6f6e                	flw	ft10,216(sp)
200081f4:	2074                	fld	fa3,192(s0)
200081f6:	6b726f77          	0x6b726f77
200081fa:	000a                	c.slli	zero,0x2
200081fc:	6c756f43          	0x6c756f43
20008200:	2064                	fld	fs1,192(s0)
20008202:	6f6e                	flw	ft10,216(sp)
20008204:	2074                	fld	fa3,192(s0)
20008206:	6966                	flw	fs2,88(sp)
20008208:	646e                	flw	fs0,216(sp)
2000820a:	7420                	flw	fs0,104(s0)
2000820c:	6568                	flw	fa0,76(a0)
2000820e:	6620                	flw	fs0,72(a2)
20008210:	6c69                	lui	s8,0x1a
20008212:	0a65                	addi	s4,s4,25
20008214:	0000                	unimp
20008216:	0000                	unimp
20008218:	6c756f43          	0x6c756f43
2000821c:	2064                	fld	fs1,192(s0)
2000821e:	6f6e                	flw	ft10,216(sp)
20008220:	2074                	fld	fa3,192(s0)
20008222:	6966                	flw	fs2,88(sp)
20008224:	646e                	flw	fs0,216(sp)
20008226:	7420                	flw	fs0,104(s0)
20008228:	6568                	flw	fa0,76(a0)
2000822a:	7020                	flw	fs0,96(s0)
2000822c:	7461                	lui	s0,0xffff8
2000822e:	0a68                	addi	a0,sp,284
20008230:	0000                	unimp
20008232:	0000                	unimp
20008234:	6854                	flw	fa3,20(s0)
20008236:	2065                	jal	200082de <__clz_tab+0x7aa>
20008238:	6170                	flw	fa2,68(a0)
2000823a:	6874                	flw	fa3,84(s0)
2000823c:	6e20                	flw	fs0,88(a2)
2000823e:	6d61                	lui	s10,0x18
20008240:	2065                	jal	200082e8 <__clz_tab+0x7b4>
20008242:	6f66                	flw	ft10,88(sp)
20008244:	6d72                	flw	fs10,28(sp)
20008246:	7461                	lui	s0,0xffff8
20008248:	6920                	flw	fs0,80(a0)
2000824a:	6e692073          	csrs	0x6e6,s2
2000824e:	6176                	flw	ft2,92(sp)
20008250:	696c                	flw	fa1,84(a0)
20008252:	0a64                	addi	s1,sp,284
20008254:	0000                	unimp
20008256:	0000                	unimp
20008258:	6341                	lui	t1,0x10
2000825a:	73736563          	bltu	t1,s7,20008984 <_ZZ11ff_wtoupperE4cvt1+0x118>
2000825e:	6420                	flw	fs0,72(s0)
20008260:	6e65                	lui	t3,0x19
20008262:	6569                	lui	a0,0x1a
20008264:	2064                	fld	fs1,192(s0)
20008266:	7564                	flw	fs1,108(a0)
20008268:	2065                	jal	20008310 <__clz_tab+0x7dc>
2000826a:	6f74                	flw	fa3,92(a4)
2000826c:	7020                	flw	fs0,96(s0)
2000826e:	6f72                	flw	ft10,28(sp)
20008270:	6968                	flw	fa0,84(a0)
20008272:	6962                	flw	fs2,24(sp)
20008274:	6574                	flw	fa3,76(a0)
20008276:	2064                	fld	fs1,192(s0)
20008278:	6361                	lui	t1,0x18
2000827a:	73736563          	bltu	t1,s7,200089a4 <_ZZ11ff_wtoupperE4cvt1+0x138>
2000827e:	6f20                	flw	fs0,88(a4)
20008280:	2072                	fld	ft0,280(sp)
20008282:	6964                	flw	fs1,84(a0)
20008284:	6572                	flw	fa0,28(sp)
20008286:	726f7463          	bgeu	t5,t1,200089ae <_ZZ11ff_wtoupperE4cvt1+0x142>
2000828a:	2079                	jal	20008318 <__clz_tab+0x7e4>
2000828c:	7566                	flw	fa0,120(sp)
2000828e:	6c6c                	flw	fa1,92(s0)
20008290:	000a                	c.slli	zero,0x2
20008292:	0000                	unimp
20008294:	6341                	lui	t1,0x10
20008296:	73736563          	bltu	t1,s7,200089c0 <_ZZ11ff_wtoupperE4cvt1+0x154>
2000829a:	6420                	flw	fs0,72(s0)
2000829c:	6e65                	lui	t3,0x19
2000829e:	6569                	lui	a0,0x1a
200082a0:	2064                	fld	fs1,192(s0)
200082a2:	7564                	flw	fs1,108(a0)
200082a4:	2065                	jal	2000834c <__clz_tab+0x818>
200082a6:	6f74                	flw	fa3,92(a4)
200082a8:	7020                	flw	fs0,96(s0)
200082aa:	6f72                	flw	ft10,28(sp)
200082ac:	6968                	flw	fa0,84(a0)
200082ae:	6962                	flw	fs2,24(sp)
200082b0:	6574                	flw	fa3,76(a0)
200082b2:	2064                	fld	fs1,192(s0)
200082b4:	6361                	lui	t1,0x18
200082b6:	73736563          	bltu	t1,s7,200089e0 <_ZZ11ff_wtoupperE4cvt1+0x174>
200082ba:	000a                	c.slli	zero,0x2
200082bc:	6854                	flw	fa3,20(s0)
200082be:	2065                	jal	20008366 <__clz_tab+0x832>
200082c0:	6966                	flw	fs2,88(sp)
200082c2:	656c                	flw	fa1,76(a0)
200082c4:	7269642f          	0x7269642f
200082c8:	6365                	lui	t1,0x19
200082ca:	6f74                	flw	fa3,92(a4)
200082cc:	7972                	flw	fs2,60(sp)
200082ce:	6f20                	flw	fs0,88(a4)
200082d0:	6a62                	flw	fs4,24(sp)
200082d2:	6365                	lui	t1,0x19
200082d4:	2074                	fld	fa3,192(s0)
200082d6:	7369                	lui	t1,0xffffa
200082d8:	6920                	flw	fs0,80(a0)
200082da:	766e                	flw	fa2,248(sp)
200082dc:	6c61                	lui	s8,0x18
200082de:	6469                	lui	s0,0x1a
200082e0:	000a                	c.slli	zero,0x2
200082e2:	0000                	unimp
200082e4:	6854                	flw	fa3,20(s0)
200082e6:	2065                	jal	2000838e <__clz_tab+0x85a>
200082e8:	6870                	flw	fa2,84(s0)
200082ea:	7379                	lui	t1,0xffffe
200082ec:	6369                	lui	t1,0x1a
200082ee:	6c61                	lui	s8,0x18
200082f0:	6420                	flw	fs0,72(s0)
200082f2:	6972                	flw	fs2,28(sp)
200082f4:	6576                	flw	fa0,92(sp)
200082f6:	6920                	flw	fs0,80(a0)
200082f8:	72772073          	csrs	0x727,a4
200082fc:	7469                	lui	s0,0xffffa
200082fe:	2065                	jal	200083a6 <__clz_tab+0x872>
20008300:	7270                	flw	fa2,100(a2)
20008302:	6365746f          	jal	s0,2005f938 <_end+0x54850>
20008306:	6574                	flw	fa3,76(a0)
20008308:	0a64                	addi	s1,sp,284
2000830a:	0000                	unimp
2000830c:	6854                	flw	fa3,20(s0)
2000830e:	2065                	jal	200083b6 <__clz_tab+0x882>
20008310:	6f6c                	flw	fa1,92(a4)
20008312:	61636967          	0x61636967
20008316:	206c                	fld	fa1,192(s0)
20008318:	7264                	flw	fs1,100(a2)
2000831a:	7669                	lui	a2,0xffffa
2000831c:	2065                	jal	200083c4 <__clz_tab+0x890>
2000831e:	756e                	flw	fa0,248(sp)
20008320:	626d                	lui	tp,0x1b
20008322:	7265                	lui	tp,0xffff9
20008324:	6920                	flw	fs0,80(a0)
20008326:	6e692073          	csrs	0x6e6,s2
2000832a:	6176                	flw	ft2,92(sp)
2000832c:	696c                	flw	fa1,84(a0)
2000832e:	0a64                	addi	s1,sp,284
20008330:	0000                	unimp
20008332:	0000                	unimp
20008334:	6854                	flw	fa3,20(s0)
20008336:	2065                	jal	200083de <__clz_tab+0x8aa>
20008338:	6f76                	flw	ft10,92(sp)
2000833a:	756c                	flw	fa1,108(a0)
2000833c:	656d                	lui	a0,0x1b
2000833e:	6820                	flw	fs0,80(s0)
20008340:	7361                	lui	t1,0xffff8
20008342:	6e20                	flw	fs0,88(a2)
20008344:	6f77206f          	j	2007b23a <_end+0x70152>
20008348:	6b72                	flw	fs6,28(sp)
2000834a:	6120                	flw	fs0,64(a0)
2000834c:	6572                	flw	fa0,28(sp)
2000834e:	0a61                	addi	s4,s4,24
20008350:	0000                	unimp
20008352:	0000                	unimp
20008354:	6854                	flw	fa3,20(s0)
20008356:	7265                	lui	tp,0xffff9
20008358:	2065                	jal	20008400 <__clz_tab+0x8cc>
2000835a:	7369                	lui	t1,0xffffa
2000835c:	6e20                	flw	fs0,88(a2)
2000835e:	6176206f          	j	2006b174 <_end+0x6008c>
20008362:	696c                	flw	fa1,84(a0)
20008364:	2064                	fld	fs1,192(s0)
20008366:	4146                	lw	sp,80(sp)
20008368:	2054                	fld	fa3,128(s0)
2000836a:	6f76                	flw	ft10,92(sp)
2000836c:	756c                	flw	fa1,108(a0)
2000836e:	656d                	lui	a0,0x1b
20008370:	000a                	c.slli	zero,0x2
20008372:	0000                	unimp
20008374:	6854                	flw	fa3,20(s0)
20008376:	2065                	jal	2000841e <__clz_tab+0x8ea>
20008378:	5f66                	lw	t5,120(sp)
2000837a:	6b6d                	lui	s6,0x1b
2000837c:	7366                	flw	ft6,120(sp)
2000837e:	2928                	fld	fa0,80(a0)
20008380:	6120                	flw	fs0,64(a0)
20008382:	6f62                	flw	ft10,24(sp)
20008384:	7472                	flw	fs0,60(sp)
20008386:	6465                	lui	s0,0x19
20008388:	6420                	flw	fs0,72(s0)
2000838a:	6575                	lui	a0,0x1d
2000838c:	7420                	flw	fs0,104(s0)
2000838e:	6e61206f          	j	2001aa74 <_end+0xf98c>
20008392:	2079                	jal	20008420 <__clz_tab+0x8ec>
20008394:	7270                	flw	fa2,100(a2)
20008396:	656c626f          	jal	tp,200ce9ec <_end+0xc3904>
2000839a:	0a6d                	addi	s4,s4,27
2000839c:	0000                	unimp
2000839e:	0000                	unimp
200083a0:	6c756f43          	0x6c756f43
200083a4:	2064                	fld	fs1,192(s0)
200083a6:	6f6e                	flw	ft10,216(sp)
200083a8:	2074                	fld	fa3,192(s0)
200083aa:	20746567          	0x20746567
200083ae:	2061                	jal	20008436 <__clz_tab+0x902>
200083b0:	6e617267          	0x6e617267
200083b4:	2074                	fld	fa3,192(s0)
200083b6:	6f74                	flw	fa3,92(a4)
200083b8:	6120                	flw	fs0,64(a0)
200083ba:	73656363          	bltu	a0,s6,20008ae0 <_ZZ11ff_wtoupperE4cvt2+0x80>
200083be:	68742073          	csrs	0x687,s0
200083c2:	2065                	jal	2000846a <__clz_tab+0x936>
200083c4:	6f76                	flw	ft10,92(sp)
200083c6:	756c                	flw	fa1,108(a0)
200083c8:	656d                	lui	a0,0x1b
200083ca:	7720                	flw	fs0,104(a4)
200083cc:	7469                	lui	s0,0xffffa
200083ce:	6968                	flw	fa0,84(a0)
200083d0:	206e                	fld	ft0,216(sp)
200083d2:	6564                	flw	fs1,76(a0)
200083d4:	6966                	flw	fs2,88(sp)
200083d6:	656e                	flw	fa0,216(sp)
200083d8:	2064                	fld	fs1,192(s0)
200083da:	6570                	flw	fa2,76(a0)
200083dc:	6972                	flw	fs2,28(sp)
200083de:	000a646f          	jal	s0,200ae3de <_end+0xa32f6>
200083e2:	0000                	unimp
200083e4:	6854                	flw	fa3,20(s0)
200083e6:	2065                	jal	2000848e <__clz_tab+0x95a>
200083e8:	7265706f          	j	2005fb0e <_end+0x54a26>
200083ec:	7461                	lui	s0,0xffff8
200083ee:	6f69                	lui	t5,0x1a
200083f0:	206e                	fld	ft0,216(sp)
200083f2:	7369                	lui	t1,0xffffa
200083f4:	7220                	flw	fs0,96(a2)
200083f6:	6a65                	lui	s4,0x19
200083f8:	6365                	lui	t1,0x19
200083fa:	6574                	flw	fa3,76(a0)
200083fc:	2064                	fld	fs1,192(s0)
200083fe:	6361                	lui	t1,0x18
20008400:	64726f63          	bltu	tp,t2,20008a5e <_ZZ11ff_wtoupperE4cvt1+0x1f2>
20008404:	6e69                	lui	t3,0x1a
20008406:	6f742067          	0x6f742067
2000840a:	7420                	flw	fs0,104(s0)
2000840c:	6568                	flw	fa0,76(a0)
2000840e:	6620                	flw	fs0,72(a2)
20008410:	6c69                	lui	s8,0x1a
20008412:	2065                	jal	200084ba <__clz_tab+0x986>
20008414:	72616873          	csrrsi	a6,0x726,2
20008418:	6e69                	lui	t3,0x1a
2000841a:	6f702067          	0x6f702067
2000841e:	696c                	flw	fa1,84(a0)
20008420:	000a7963          	bgeu	s4,zero,20008432 <__clz_tab+0x8fe>
20008424:	464c                	lw	a1,12(a2)
20008426:	204e                	fld	ft0,208(sp)
20008428:	6b726f77          	0x6b726f77
2000842c:	6e69                	lui	t3,0x1a
2000842e:	75622067          	0x75622067
20008432:	6666                	flw	fa2,88(sp)
20008434:	7265                	lui	tp,0xffff9
20008436:	6320                	flw	fs0,64(a4)
20008438:	646c756f          	jal	a0,200cfa7e <_end+0xc4996>
2000843c:	6e20                	flw	fs0,88(a2)
2000843e:	6220746f          	jal	s0,2000fa60 <_end+0x4978>
20008442:	2065                	jal	200084ea <__clz_tab+0x9b6>
20008444:	6c61                	lui	s8,0x18
20008446:	6f6c                	flw	fa1,92(a4)
20008448:	65746163          	bltu	s0,s7,20008a8a <_ZZ11ff_wtoupperE4cvt2+0x2a>
2000844c:	0a64                	addi	s1,sp,284
2000844e:	0000                	unimp
20008450:	754e                	flw	fa0,240(sp)
20008452:	626d                	lui	tp,0x1b
20008454:	7265                	lui	tp,0xffff9
20008456:	6f20                	flw	fs0,88(a4)
20008458:	2066                	fld	ft0,88(sp)
2000845a:	6e65706f          	j	2005fb40 <_end+0x54a58>
2000845e:	6620                	flw	fs0,72(a2)
20008460:	6c69                	lui	s8,0x1a
20008462:	7365                	lui	t1,0xffff9
20008464:	3e20                	fld	fs0,120(a2)
20008466:	4620                	lw	s0,72(a2)
20008468:	5f46                	lw	t5,112(sp)
2000846a:	5346                	lw	t1,112(sp)
2000846c:	4c5f 434f 0a4b      	0xa4b434f4c5f
20008472:	0000                	unimp
20008474:	65766947          	0x65766947
20008478:	206e                	fld	ft0,216(sp)
2000847a:	6170                	flw	fa2,68(a0)
2000847c:	6172                	flw	ft2,28(sp)
2000847e:	656d                	lui	a0,0x1b
20008480:	6574                	flw	fa3,76(a0)
20008482:	2072                	fld	ft0,280(sp)
20008484:	7369                	lui	t1,0xffffa
20008486:	6920                	flw	fs0,80(a0)
20008488:	766e                	flw	fa2,248(sp)
2000848a:	6c61                	lui	s8,0x18
2000848c:	6469                	lui	s0,0x1a
2000848e:	000a                	c.slli	zero,0x2
20008490:	3130                	fld	fa2,96(a0)
20008492:	3332                	fld	ft6,296(sp)
20008494:	3534                	fld	fa3,104(a0)
20008496:	3736                	fld	fa4,360(sp)
20008498:	3938                	fld	fa4,112(a0)
2000849a:	4241                	li	tp,16
2000849c:	46454443          	fmadd.q	fs0,fa0,ft4,fs0,rmm
200084a0:	0000                	unimp
200084a2:	0000                	unimp
200084a4:	2020                	fld	fs0,64(s0)
200084a6:	2020                	fld	fs0,64(s0)
200084a8:	2020                	fld	fs0,64(s0)
200084aa:	2020                	fld	fs0,64(s0)
200084ac:	2020                	fld	fs0,64(s0)
200084ae:	2020                	fld	fs0,64(s0)
200084b0:	2020                	fld	fs0,64(s0)
200084b2:	2020                	fld	fs0,64(s0)
200084b4:	2020                	fld	fs0,64(s0)
200084b6:	0020                	addi	s0,sp,8
200084b8:	3130                	fld	fa2,96(a0)
200084ba:	3332                	fld	ft6,296(sp)
200084bc:	3534                	fld	fa3,104(a0)
200084be:	3736                	fld	fa4,360(sp)
200084c0:	3938                	fld	fa4,112(a0)
200084c2:	0000                	unimp
200084c4:	64494453          	0x64494453
200084c8:	656c                	flw	fa1,76(a0)
200084ca:	6520                	flw	fs0,72(a0)
200084cc:	7078                	flw	fa4,100(s0)
200084ce:	6365                	lui	t1,0x19
200084d0:	6574                	flw	fa3,76(a0)
200084d2:	2064                	fld	fs1,192(s0)
200084d4:	7830                	flw	fa2,112(s0)
200084d6:	3130                	fld	fa2,96(a0)
200084d8:	202c                	fld	fa1,64(s0)
200084da:	20746f67          	0x20746f67
200084de:	7830                	flw	fa2,112(s0)
200084e0:	0000                	unimp
200084e2:	0000                	unimp
200084e4:	68434453          	0x68434453
200084e8:	6365                	lui	t1,0x19
200084ea:	6c6f566b          	0x6c6f566b
200084ee:	6174                	flw	fa3,68(a0)
200084f0:	61526567          	0x61526567
200084f4:	676e                	flw	fa4,216(sp)
200084f6:	2065                	jal	2000859e <__clz_tab+0xa6a>
200084f8:	7865                	lui	a6,0xffff9
200084fa:	6570                	flw	fa2,76(a0)
200084fc:	64657463          	bgeu	a0,t1,20008b44 <_etext+0x28>
20008500:	3020                	fld	fs0,96(s0)
20008502:	3078                	fld	fa4,224(s0)
20008504:	2c31                	jal	20008720 <_ZL5ExCvt+0x68>
20008506:	6720                	flw	fs0,72(a4)
20008508:	3020746f          	jal	s0,2000f80a <_end+0x4722>
2000850c:	0078                	addi	a4,sp,12
2000850e:	0000                	unimp
20008510:	68434453          	0x68434453
20008514:	6365                	lui	t1,0x19
20008516:	6c6f566b          	0x6c6f566b
2000851a:	6174                	flw	fa3,68(a0)
2000851c:	61526567          	0x61526567
20008520:	676e                	flw	fa4,216(sp)
20008522:	2065                	jal	200085ca <__clz_tab+0xa96>
20008524:	7865                	lui	a6,0xffff9
20008526:	6570                	flw	fa2,76(a0)
20008528:	64657463          	bgeu	a0,t1,20008b70 <_etext+0x54>
2000852c:	3020                	fld	fs0,96(s0)
2000852e:	3078                	fld	fa4,224(s0)
20008530:	3030                	fld	fa2,96(s0)
20008532:	3030                	fld	fa2,96(s0)
20008534:	4131                	li	sp,12
20008536:	2c41                	jal	200087c6 <_ZL5uc437+0x5a>
20008538:	6720                	flw	fs0,72(a4)
2000853a:	3020746f          	jal	s0,2000f83c <_end+0x4754>
2000853e:	0078                	addi	a4,sp,12
20008540:	61434453          	0x61434453
20008544:	6472                	flw	fs0,28(sp)
20008546:	6e49                	lui	t3,0x12
20008548:	7469                	lui	s0,0xffffa
2000854a:	6520                	flw	fs0,72(a0)
2000854c:	7078                	flw	fa4,100(s0)
2000854e:	6365                	lui	t1,0x19
20008550:	6574                	flw	fa3,76(a0)
20008552:	2064                	fld	fs1,192(s0)
20008554:	7830                	flw	fa2,112(s0)
20008556:	3130                	fld	fa2,96(a0)
20008558:	202c                	fld	fa1,64(s0)
2000855a:	20746f67          	0x20746f67
2000855e:	7830                	flw	fa2,112(s0)
20008560:	0000                	unimp
20008562:	0000                	unimp
20008564:	61434453          	0x61434453
20008568:	6472                	flw	fs0,28(sp)
2000856a:	6e49                	lui	t3,0x12
2000856c:	7469                	lui	s0,0xffffa
2000856e:	6520                	flw	fs0,72(a0)
20008570:	7078                	flw	fa4,100(s0)
20008572:	6365                	lui	t1,0x19
20008574:	6574                	flw	fa3,76(a0)
20008576:	2064                	fld	fs1,192(s0)
20008578:	7830                	flw	fa2,112(s0)
2000857a:	3030                	fld	fa2,96(s0)
2000857c:	202c                	fld	fa1,64(s0)
2000857e:	20746f67          	0x20746f67
20008582:	7830                	flw	fa2,112(s0)
20008584:	0000                	unimp
20008586:	0000                	unimp
20008588:	65524453          	0x65524453
2000858c:	6461                	lui	s0,0x18
2000858e:	676e6953          	0x676e6953
20008592:	656c                	flw	fa1,76(a0)
20008594:	6c42                	flw	fs8,16(sp)
20008596:	3a6b636f          	jal	t1,200be93c <_end+0xb3854>
2000859a:	6520                	flw	fs0,72(a0)
2000859c:	7272                	flw	ft4,60(sp)
2000859e:	7220726f          	jal	tp,2000fcc0 <_end+0x4bd8>
200085a2:	7365                	lui	t1,0xffff9
200085a4:	6f70                	flw	fa2,92(a4)
200085a6:	736e                	flw	ft6,248(sp)
200085a8:	2065                	jal	20008650 <__clz_tab+0xb1c>
200085aa:	203d                	jal	200085d8 <__clz_tab+0xaa4>
200085ac:	72726527          	0x72726527
200085b0:	0a27726f          	jal	tp,2007f652 <_end+0x7456a>
200085b4:	0000                	unimp
200085b6:	0000                	unimp
200085b8:	65524453          	0x65524453
200085bc:	6461                	lui	s0,0x18
200085be:	676e6953          	0x676e6953
200085c2:	656c                	flw	fa1,76(a0)
200085c4:	6c42                	flw	fs8,16(sp)
200085c6:	3a6b636f          	jal	t1,200be96c <_end+0xb3884>
200085ca:	6520                	flw	fs0,72(a0)
200085cc:	7272                	flw	ft4,60(sp)
200085ce:	7220726f          	jal	tp,2000fcf0 <_end+0x4c08>
200085d2:	7365                	lui	t1,0xffff9
200085d4:	6f70                	flw	fa2,92(a4)
200085d6:	736e                	flw	ft6,248(sp)
200085d8:	2065                	jal	20008680 <__clz_tab+0xb4c>
200085da:	203d                	jal	20008608 <__clz_tab+0xad4>
200085dc:	20434327          	fsq	ft4,518(t1) # ffff9206 <_end+0xdffee11e>
200085e0:	7265                	lui	tp,0xffff9
200085e2:	6f72                	flw	ft10,28(sp)
200085e4:	2772                	fld	fa4,280(sp)
200085e6:	000a                	c.slli	zero,0x2
200085e8:	65524453          	0x65524453
200085ec:	6461                	lui	s0,0x18
200085ee:	676e6953          	0x676e6953
200085f2:	656c                	flw	fa1,76(a0)
200085f4:	6c42                	flw	fs8,16(sp)
200085f6:	3a6b636f          	jal	t1,200be99c <_end+0xb38b4>
200085fa:	6520                	flw	fs0,72(a0)
200085fc:	7272                	flw	ft4,60(sp)
200085fe:	7220726f          	jal	tp,2000fd20 <_end+0x4c38>
20008602:	7365                	lui	t1,0xffff9
20008604:	6f70                	flw	fa2,92(a4)
20008606:	736e                	flw	ft6,248(sp)
20008608:	2065                	jal	200086b0 <__clz_tab+0xb7c>
2000860a:	203d                	jal	20008638 <__clz_tab+0xb04>
2000860c:	72614327          	fsq	ft6,1830(sp)
20008610:	2064                	fld	fs1,192(s0)
20008612:	4345                	li	t1,17
20008614:	61662043          	fmadd.s	ft0,fa2,fs6,fa2,rdn
20008618:	6c69                	lui	s8,0x1a
2000861a:	6465                	lui	s0,0x19
2000861c:	00000a27          	0xa27
20008620:	65524453          	0x65524453
20008624:	6461                	lui	s0,0x18
20008626:	676e6953          	0x676e6953
2000862a:	656c                	flw	fa1,76(a0)
2000862c:	6c42                	flw	fs8,16(sp)
2000862e:	3a6b636f          	jal	t1,200be9d4 <_end+0xb38ec>
20008632:	6520                	flw	fs0,72(a0)
20008634:	7272                	flw	ft4,60(sp)
20008636:	7220726f          	jal	tp,2000fd58 <_end+0x4c70>
2000863a:	7365                	lui	t1,0xffff9
2000863c:	6f70                	flw	fa2,92(a4)
2000863e:	736e                	flw	ft6,248(sp)
20008640:	2065                	jal	200086e8 <_ZL5ExCvt+0x30>
20008642:	203d                	jal	20008670 <__clz_tab+0xb3c>
20008644:	74754f27          	fsq	ft7,1886(a0) # 1b75e <_start-0x1ffe48a2>
20008648:	6f20                	flw	fs0,88(a4)
2000864a:	2066                	fld	ft0,88(sp)
2000864c:	6172                	flw	ft2,28(sp)
2000864e:	676e                	flw	fa4,216(sp)
20008650:	2765                	jal	20008df8 <_etext+0x2dc>
20008652:	7320                	flw	fs0,96(a4)
20008654:	6365                	lui	t1,0x19
20008656:	6f74                	flw	fa3,92(a4)
20008658:	3a72                	fld	fs4,312(sp)
2000865a:	3020                	fld	fs0,96(s0)
2000865c:	0078                	addi	a4,sp,12
2000865e:	0000                	unimp
20008660:	72574453          	0x72574453
20008664:	7469                	lui	s0,0xffffa
20008666:	5365                	li	t1,-7
20008668:	6e69                	lui	t3,0x1a
2000866a:	42656c67          	0x42656c67
2000866e:	6f6c                	flw	fa1,92(a4)
20008670:	203a6b63          	bltu	s4,gp,20008886 <_ZZ11ff_wtoupperE4cvt1+0x1a>
20008674:	6f6e                	flw	ft10,216(sp)
20008676:	2074                	fld	fa3,192(s0)
20008678:	6d69                	lui	s10,0x1a
2000867a:	6c70                	flw	fa2,92(s0)
2000867c:	6d65                	lui	s10,0x19
2000867e:	6e65                	lui	t3,0x19
20008680:	6574                	flw	fa3,76(a0)
20008682:	2064                	fld	fs1,192(s0)
20008684:	6579                	lui	a0,0x1e
20008686:	2e74                	fld	fa3,216(a2)
20008688:	000a                	c.slli	zero,0x2
2000868a:	0000                	unimp
2000868c:	4146                	lw	sp,80(sp)
2000868e:	3354                	fld	fa3,160(a4)
20008690:	2032                	fld	ft0,264(sp)
20008692:	2020                	fld	fs0,64(s0)
20008694:	0000                	unimp
20008696:	0000                	unimp
20008698:	3a2a                	fld	fs4,168(sp)
2000869a:	3e3c                	fld	fa5,120(a2)
2000869c:	227c                	fld	fa5,192(a2)
2000869e:	00007f3f 2c2b0000 	0x2c2b000000007f3f
200086a6:	5d5b3d3b          	0x5d5b3d3b
200086aa:	0000                	unimp
200086ac:	4152                	lw	sp,20(sp)
200086ae:	004d                	c.nop	19
200086b0:	00004453          	fadd.s	fs0,ft0,ft0,rmm
200086b4:	5355                	li	t1,-11
200086b6:	0042                	c.slli	zero,0x10

200086b8 <_ZL5ExCvt>:
200086b8:	9a80                	0x9a80
200086ba:	4145                	li	sp,17
200086bc:	418e                	lw	gp,192(sp)
200086be:	4545808f          	0x4545808f
200086c2:	4945                	li	s2,17
200086c4:	4949                	li	s2,18
200086c6:	8f8e                	mv	t6,gp
200086c8:	9290                	0x9290
200086ca:	4f92                	lw	t6,4(sp)
200086cc:	4f99                	li	t6,6
200086ce:	5555                	li	a0,-11
200086d0:	9959                	andi	a0,a0,-10
200086d2:	9b9a                	add	s7,s7,t1
200086d4:	9d9c                	0x9d9c
200086d6:	9f9e                	add	t6,t6,t2
200086d8:	4941                	li	s2,16
200086da:	a5a5554f          	0xa5a5554f
200086de:	a7a6                	fsd	fs1,456(sp)
200086e0:	a9a8                	fsd	fa0,80(a1)
200086e2:	abaa                	fsd	fa0,464(sp)
200086e4:	adac                	fsd	fa1,88(a1)
200086e6:	afae                	fsd	fa1,472(sp)
200086e8:	b1b0                	fsd	fa2,96(a1)
200086ea:	b3b2                	fsd	fa2,480(sp)
200086ec:	b5b4                	fsd	fa3,104(a1)
200086ee:	b7b6                	fsd	fa3,488(sp)
200086f0:	b9b8                	fsd	fa4,112(a1)
200086f2:	bbba                	fsd	fa4,496(sp)
200086f4:	bdbc                	fsd	fa5,120(a1)
200086f6:	bfbe                	fsd	fa5,504(sp)
200086f8:	c1c0                	sw	s0,4(a1)
200086fa:	c3c2                	sw	a6,196(sp)
200086fc:	c5c4                	sw	s1,12(a1)
200086fe:	c7c6                	sw	a7,204(sp)
20008700:	c9c8                	sw	a0,20(a1)
20008702:	cbca                	sw	s2,212(sp)
20008704:	cdcc                	sw	a1,28(a1)
20008706:	cfce                	sw	s3,220(sp)
20008708:	d1d0                	sw	a2,36(a1)
2000870a:	d3d2                	sw	s4,228(sp)
2000870c:	d5d4                	sw	a3,44(a1)
2000870e:	d7d6                	sw	s5,236(sp)
20008710:	d9d8                	sw	a4,52(a1)
20008712:	dbda                	sw	s6,244(sp)
20008714:	dddc                	sw	a5,60(a1)
20008716:	dfde                	sw	s7,252(sp)
20008718:	e1e0                	fsw	fs0,68(a1)
2000871a:	e3e2                	fsw	fs8,196(sp)
2000871c:	e5e4                	fsw	fs1,76(a1)
2000871e:	e7e6                	fsw	fs9,204(sp)
20008720:	e9e8                	fsw	fa0,84(a1)
20008722:	ebea                	fsw	fs10,212(sp)
20008724:	edec                	fsw	fa1,92(a1)
20008726:	efee                	fsw	fs11,220(sp)
20008728:	f1f0                	fsw	fa2,100(a1)
2000872a:	f3f2                	fsw	ft8,228(sp)
2000872c:	f5f4                	fsw	fa3,108(a1)
2000872e:	f7f6                	fsw	ft9,236(sp)
20008730:	f9f8                	fsw	fa4,116(a1)
20008732:	fbfa                	fsw	ft10,244(sp)
20008734:	fdfc                	fsw	fa5,124(a1)
20008736:	fffe                	fsw	ft11,252(sp)

20008738 <_ZL6LfnOfs>:
20008738:	0301                	addi	t1,t1,0
2000873a:	0705                	addi	a4,a4,1
2000873c:	0e09                	addi	t3,t3,2
2000873e:	1210                	addi	a2,sp,288
20008740:	1614                	addi	a3,sp,800
20008742:	1c18                	addi	a4,sp,560
20008744:	001e                	c.slli	zero,0x7
20008746:	0000                	unimp
20008748:	f33c                	fsw	fa5,96(a4)
2000874a:	ffff                	0xffff
2000874c:	f320                	fsw	fs0,96(a4)
2000874e:	ffff                	0xffff
20008750:	f30c                	fsw	fa1,32(a4)
20008752:	ffff                	0xffff
20008754:	f2f8                	fsw	fa4,100(a3)
20008756:	ffff                	0xffff
20008758:	f2e4                	fsw	fs1,100(a3)
2000875a:	ffff                	0xffff
2000875c:	f2d0                	fsw	fa2,36(a3)
2000875e:	ffff                	0xffff
20008760:	f2bc                	fsw	fa5,96(a3)
20008762:	ffff                	0xffff
20008764:	f2a8                	fsw	fa0,96(a3)
20008766:	ffff                	0xffff
20008768:	f354                	fsw	fa3,36(a4)
2000876a:	ffff                	0xffff

2000876c <_ZL5uc437>:
2000876c:	00fc00c7          	fmsub.s	ft1,fs8,fa5,ft0,rne
20008770:	00e9                	addi	ra,ra,26
20008772:	00e2                	slli	ra,ra,0x18
20008774:	00e4                	addi	s1,sp,76
20008776:	00e0                	addi	s0,sp,76
20008778:	00e5                	addi	ra,ra,25
2000877a:	00ea00e7          	jalr	14(s4) # 1900e <_start-0x1ffe6ff2>
2000877e:	00e800eb          	0xe800eb
20008782:	00ee00ef          	jal	ra,200e8790 <_end+0xdd6a8>
20008786:	00ec                	addi	a1,sp,76
20008788:	00c4                	addi	s1,sp,68
2000878a:	00c5                	addi	ra,ra,17
2000878c:	00c9                	addi	ra,ra,18
2000878e:	00e6                	slli	ra,ra,0x19
20008790:	00c6                	slli	ra,ra,0x11
20008792:	00f4                	addi	a3,sp,76
20008794:	00f6                	slli	ra,ra,0x1d
20008796:	00f2                	slli	ra,ra,0x1c
20008798:	00f900fb          	0xf900fb
2000879c:	00ff                	0xff
2000879e:	00d6                	slli	ra,ra,0x15
200087a0:	00dc                	addi	a5,sp,68
200087a2:	00a2                	slli	ra,ra,0x8
200087a4:	00a500a3          	sb	a0,1(a0) # 1e001 <_start-0x1ffe1fff>
200087a8:	019220a7          	fsw	fs9,1(tp) # ffff9001 <_end+0xdffedf19>
200087ac:	00e1                	addi	ra,ra,24
200087ae:	00ed                	addi	ra,ra,27
200087b0:	00fa00f3          	0xfa00f3
200087b4:	00f1                	addi	ra,ra,28
200087b6:	00d1                	addi	ra,ra,20
200087b8:	00aa                	slli	ra,ra,0xa
200087ba:	00ba                	slli	ra,ra,0xe
200087bc:	231000bf 00bd00ac 	0xbd00ac231000bf
200087c4:	00bc                	addi	a5,sp,72
200087c6:	00a1                	addi	ra,ra,8
200087c8:	00bb00ab          	0xbb00ab
200087cc:	2591                	jal	20008e10 <_etext+0x2f4>
200087ce:	2592                	fld	fa1,256(sp)
200087d0:	25022593          	slti	a1,tp,592
200087d4:	2524                	fld	fs1,72(a0)
200087d6:	2561                	jal	20008e5e <_etext+0x342>
200087d8:	2562                	fld	fa0,24(sp)
200087da:	2556                	fld	fa0,336(sp)
200087dc:	2555                	jal	20008e80 <_etext+0x364>
200087de:	25512563          	0x25512563
200087e2:	255d2557          	0x255d2557
200087e6:	255c                	fld	fa5,136(a0)
200087e8:	2510255b          	0x2510255b
200087ec:	2514                	fld	fa3,8(a0)
200087ee:	2534                	fld	fa3,72(a0)
200087f0:	252c                	fld	fa1,72(a0)
200087f2:	251c                	fld	fa5,8(a0)
200087f4:	2500                	fld	fs0,8(a0)
200087f6:	253c                	fld	fa5,72(a0)
200087f8:	255e                	fld	fa0,464(sp)
200087fa:	255f 255a 2554      	0x2554255a255f
20008800:	2569                	jal	20008e8a <_etext+0x36e>
20008802:	2566                	fld	fa0,88(sp)
20008804:	2560                	fld	fs0,200(a0)
20008806:	2550                	fld	fa2,136(a0)
20008808:	256c                	fld	fa1,200(a0)
2000880a:	25682567          	0x25682567
2000880e:	2564                	fld	fs1,200(a0)
20008810:	2565                	jal	20008eb8 <_etext+0x39c>
20008812:	2559                	jal	20008e98 <_etext+0x37c>
20008814:	2558                	fld	fa4,136(a0)
20008816:	2552                	fld	fa0,272(sp)
20008818:	256b2553          	0x256b2553
2000881c:	256a                	fld	fa0,152(sp)
2000881e:	2518                	fld	fa4,8(a0)
20008820:	250c                	fld	fa1,8(a0)
20008822:	2588                	fld	fa0,8(a1)
20008824:	2584                	fld	fs1,8(a1)
20008826:	258c                	fld	fa1,8(a1)
20008828:	2590                	fld	fa2,8(a1)
2000882a:	2580                	fld	fs0,8(a1)
2000882c:	03b1                	addi	t2,t2,12
2000882e:	00df 0393 03c0      	0x3c0039300df
20008834:	03c303a3          	sb	t3,39(t1) # 19027 <_start-0x1ffe6fd9>
20008838:	00b5                	addi	ra,ra,13
2000883a:	03c4                	addi	s1,sp,452
2000883c:	03a6                	slli	t2,t2,0x9
2000883e:	0398                	addi	a4,sp,448
20008840:	03a9                	addi	t2,t2,10
20008842:	03b4                	addi	a3,sp,456
20008844:	221e                	fld	ft4,448(sp)
20008846:	03c6                	slli	t2,t2,0x11
20008848:	03b5                	addi	t2,t2,13
2000884a:	2229                	jal	20008954 <_ZZ11ff_wtoupperE4cvt1+0xe8>
2000884c:	2261                	jal	200089d4 <_ZZ11ff_wtoupperE4cvt1+0x168>
2000884e:	00b1                	addi	ra,ra,12
20008850:	2265                	jal	200089f8 <_ZZ11ff_wtoupperE4cvt1+0x18c>
20008852:	2264                	fld	fs1,192(a2)
20008854:	2320                	fld	fs0,64(a4)
20008856:	2321                	jal	20008d5e <_etext+0x242>
20008858:	224800f7          	0x224800f7
2000885c:	00b0                	addi	a2,sp,72
2000885e:	2219                	jal	20008964 <_ZZ11ff_wtoupperE4cvt1+0xf8>
20008860:	221a00b7          	lui	ra,0x221a0
20008864:	207f                	0x207f
20008866:	00b2                	slli	ra,ra,0xc
20008868:	25a0                	fld	fs0,72(a1)
2000886a:	00a0                	addi	s0,sp,72

2000886c <_ZZ11ff_wtoupperE4cvt1>:
2000886c:	0061                	c.nop	24
2000886e:	031a                	slli	t1,t1,0x6
20008870:	00e0                	addi	s0,sp,76
20008872:	00f80317          	auipc	t1,0xf80
20008876:	00ff0307          	0xff0307
2000887a:	0001                	nop
2000887c:	0178                	addi	a4,sp,140
2000887e:	0100                	addi	s0,sp,128
20008880:	0130                	addi	a2,sp,136
20008882:	0132                	slli	sp,sp,0xc
20008884:	0106                	slli	sp,sp,0x1
20008886:	0139                	addi	sp,sp,14
20008888:	0110                	addi	a2,sp,128
2000888a:	014a                	slli	sp,sp,0x12
2000888c:	012e                	slli	sp,sp,0xb
2000888e:	0179                	addi	sp,sp,30
20008890:	0106                	slli	sp,sp,0x1
20008892:	0180                	addi	s0,sp,192
20008894:	004d                	c.nop	19
20008896:	01810243          	fmadd.s	ft4,ft2,fs8,ft0,rne
2000889a:	0182                	c.slli64	gp
2000889c:	0182                	c.slli64	gp
2000889e:	0184                	addi	s1,sp,192
200088a0:	0184                	addi	s1,sp,192
200088a2:	0186                	slli	gp,gp,0x1
200088a4:	01870187          	0x1870187
200088a8:	0189                	addi	gp,gp,2
200088aa:	018a                	slli	gp,gp,0x2
200088ac:	018b018b          	0x18b018b
200088b0:	018d                	addi	gp,gp,3
200088b2:	018e                	slli	gp,gp,0x3
200088b4:	0190018f          	0x190018f
200088b8:	0191                	addi	gp,gp,4
200088ba:	0191                	addi	gp,gp,4
200088bc:	01940193          	addi	gp,s0,25 # ffffa019 <_end+0xdffeef31>
200088c0:	01f6                	slli	gp,gp,0x1d
200088c2:	0196                	slli	gp,gp,0x5
200088c4:	01980197          	auipc	gp,0x1980
200088c8:	0198                	addi	a4,sp,192
200088ca:	023d                	addi	tp,tp,15
200088cc:	019c019b          	0x19c019b
200088d0:	019d                	addi	gp,gp,7
200088d2:	0220                	addi	s0,sp,264
200088d4:	019f 01a0 01a0      	0x1a001a0019f
200088da:	01a2                	slli	gp,gp,0x8
200088dc:	01a2                	slli	gp,gp,0x8
200088de:	01a4                	addi	s1,sp,200
200088e0:	01a4                	addi	s1,sp,200
200088e2:	01a6                	slli	gp,gp,0x9
200088e4:	01a701a7          	0x1a701a7
200088e8:	01a9                	addi	gp,gp,10
200088ea:	01aa                	slli	gp,gp,0xa
200088ec:	01ac01ab          	0x1ac01ab
200088f0:	01ac                	addi	a1,sp,200
200088f2:	01ae                	slli	gp,gp,0xb
200088f4:	01af01af          	0x1af01af
200088f8:	01b1                	addi	gp,gp,12
200088fa:	01b2                	slli	gp,gp,0xc
200088fc:	01b301b3          	add	gp,t1,s11
20008900:	01b5                	addi	gp,gp,13
20008902:	01b5                	addi	gp,gp,13
20008904:	01b801b7          	lui	gp,0x1b80
20008908:	01b8                	addi	a4,sp,200
2000890a:	01ba                	slli	gp,gp,0xe
2000890c:	01bc01bb          	0x1bc01bb
20008910:	01bc                	addi	a5,sp,200
20008912:	01be                	slli	gp,gp,0xf
20008914:	01c001f7          	0x1c001f7
20008918:	01c1                	addi	gp,gp,16
2000891a:	01c2                	slli	gp,gp,0x10
2000891c:	01c401c3          	fmadd.s	ft3,fs0,ft8,ft0,rne
20008920:	01c5                	addi	gp,gp,17
20008922:	01c4                	addi	s1,sp,196
20008924:	01c801c7          	fmsub.s	ft3,fa6,ft8,ft0,rne
20008928:	01ca01c7          	fmsub.s	ft3,fs4,ft8,ft0,rne
2000892c:	01ca01cb          	fnmsub.s	ft3,fs4,ft8,ft0,rne
20008930:	01cd                	addi	gp,gp,19
20008932:	0110                	addi	a2,sp,128
20008934:	01dd                	addi	gp,gp,23
20008936:	0001                	nop
20008938:	018e                	slli	gp,gp,0x3
2000893a:	01de                	slli	gp,gp,0x17
2000893c:	0112                	slli	sp,sp,0x4
2000893e:	000301f3          	0x301f3
20008942:	01f1                	addi	gp,gp,28
20008944:	01f4                	addi	a3,sp,204
20008946:	01f4                	addi	a3,sp,204
20008948:	01f8                	addi	a4,sp,204
2000894a:	0128                	addi	a0,sp,136
2000894c:	0222                	slli	tp,tp,0x8
2000894e:	0112                	slli	sp,sp,0x4
20008950:	023a                	slli	tp,tp,0xe
20008952:	0009                	c.nop	2
20008954:	2c65                	jal	20008c0c <_etext+0xf0>
20008956:	023b023b          	0x23b023b
2000895a:	023d                	addi	tp,tp,15
2000895c:	2c66                	fld	fs8,88(sp)
2000895e:	0240023f 02410241 	0x24102410240023f
20008966:	0246                	slli	tp,tp,0x11
20008968:	010a                	slli	sp,sp,0x2
2000896a:	00400253          	fadd.s	ft4,ft0,ft4,rne
2000896e:	0181                	addi	gp,gp,0
20008970:	0186                	slli	gp,gp,0x1
20008972:	0255                	addi	tp,tp,21
20008974:	0189                	addi	gp,gp,2
20008976:	018a                	slli	gp,gp,0x2
20008978:	0258                	addi	a4,sp,260
2000897a:	025a018f          	0x25a018f
2000897e:	0190                	addi	a2,sp,192
20008980:	025c                	addi	a5,sp,260
20008982:	025d                	addi	tp,tp,23
20008984:	025e                	slli	tp,tp,0x17
20008986:	025f 0193 0261      	0x2610193025f
2000898c:	0262                	slli	tp,tp,0x18
2000898e:	0194                	addi	a3,sp,192
20008990:	0264                	addi	s1,sp,268
20008992:	0265                	addi	tp,tp,25
20008994:	0266                	slli	tp,tp,0x19
20008996:	01970267          	jalr	tp,25(a4) # 1a019 <_start-0x1ffe5fe7>
2000899a:	0196                	slli	gp,gp,0x5
2000899c:	026a                	slli	tp,tp,0x1a
2000899e:	2c62                	fld	fs8,24(sp)
200089a0:	026c                	addi	a1,sp,268
200089a2:	026d                	addi	tp,tp,27
200089a4:	026e                	slli	tp,tp,0x1b
200089a6:	019c                	addi	a5,sp,192
200089a8:	0270                	addi	a2,sp,268
200089aa:	0271                	addi	tp,tp,28
200089ac:	019d                	addi	gp,gp,7
200089ae:	02740273          	0x2740273
200089b2:	019f 0276 0277      	0x2770276019f
200089b8:	0278                	addi	a4,sp,268
200089ba:	0279                	addi	tp,tp,30
200089bc:	027a                	slli	tp,tp,0x1e
200089be:	027c027b          	0x27c027b
200089c2:	2c64                	fld	fs1,216(s0)
200089c4:	027e                	slli	tp,tp,0x1f
200089c6:	027f                	0x27f
200089c8:	01a6                	slli	gp,gp,0x9
200089ca:	0281                	addi	t0,t0,0
200089cc:	0282                	c.slli64	t0
200089ce:	01a9                	addi	gp,gp,10
200089d0:	0284                	addi	s1,sp,320
200089d2:	0285                	addi	t0,t0,1
200089d4:	0286                	slli	t0,t0,0x1
200089d6:	01ae0287          	0x1ae0287
200089da:	0244                	addi	s1,sp,260
200089dc:	01b1                	addi	gp,gp,12
200089de:	01b2                	slli	gp,gp,0xc
200089e0:	0245                	addi	tp,tp,17
200089e2:	028d                	addi	t0,t0,3
200089e4:	028e                	slli	t0,t0,0x3
200089e6:	0290028f          	0x290028f
200089ea:	0291                	addi	t0,t0,4
200089ec:	037b01b7          	lui	gp,0x37b0
200089f0:	03fd0003          	lb	zero,63(s10) # 1903f <_start-0x1ffe6fc1>
200089f4:	03fe                	slli	t2,t2,0x1f
200089f6:	03ff                	0x3ff
200089f8:	03ac                	addi	a1,sp,456
200089fa:	0004                	0x4
200089fc:	0386                	slli	t2,t2,0x1
200089fe:	0388                	addi	a0,sp,448
20008a00:	0389                	addi	t2,t2,2
20008a02:	038a                	slli	t2,t2,0x2
20008a04:	03b1                	addi	t2,t2,12
20008a06:	0311                	addi	t1,t1,4
20008a08:	03c2                	slli	t2,t2,0x10
20008a0a:	0002                	c.slli64	zero
20008a0c:	03a303a3          	sb	s10,39(t1) # 20f88899 <_end+0xf7d7b1>
20008a10:	03c4                	addi	s1,sp,452
20008a12:	0308                	addi	a0,sp,384
20008a14:	03cc                	addi	a1,sp,452
20008a16:	038c0003          	lb	zero,56(s8) # 1a038 <_start-0x1ffe5fc8>
20008a1a:	038e                	slli	t2,t2,0x3
20008a1c:	03d8038f          	0x3d8038f
20008a20:	0118                	addi	a4,sp,128
20008a22:	03f2                	slli	t2,t2,0x1c
20008a24:	000a                	c.slli	zero,0x2
20008a26:	03f9                	addi	t2,t2,30
20008a28:	03f403f3          	0x3f403f3
20008a2c:	03f5                	addi	t2,t2,29
20008a2e:	03f6                	slli	t2,t2,0x1d
20008a30:	03f703f7          	0x3f703f7
20008a34:	03f9                	addi	t2,t2,30
20008a36:	03fa                	slli	t2,t2,0x1e
20008a38:	03fa                	slli	t2,t2,0x1e
20008a3a:	0430                	addi	a2,sp,520
20008a3c:	0320                	addi	s0,sp,392
20008a3e:	0450                	addi	a2,sp,516
20008a40:	0710                	addi	a2,sp,896
20008a42:	0460                	addi	s0,sp,524
20008a44:	0122                	slli	sp,sp,0x8
20008a46:	048a                	slli	s1,s1,0x2
20008a48:	0136                	slli	sp,sp,0xd
20008a4a:	04c1                	addi	s1,s1,16
20008a4c:	010e                	slli	sp,sp,0x3
20008a4e:	000104cf          	fnmadd.s	fs1,ft2,ft0,ft0,rne
20008a52:	04c0                	addi	s0,sp,580
20008a54:	04d0                	addi	a2,sp,580
20008a56:	0144                	addi	s1,sp,132
20008a58:	0561                	addi	a0,a0,24
20008a5a:	0426                	slli	s0,s0,0x9
20008a5c:	0000                	unimp
	...

20008a60 <_ZZ11ff_wtoupperE4cvt2>:
20008a60:	1d7d                	addi	s10,s10,-1
20008a62:	0001                	nop
20008a64:	1e002c63          	0x1e002c63
20008a68:	0196                	slli	gp,gp,0x5
20008a6a:	1ea0                	addi	s0,sp,888
20008a6c:	015a                	slli	sp,sp,0x16
20008a6e:	1f00                	addi	s0,sp,944
20008a70:	0608                	addi	a0,sp,768
20008a72:	1f10                	addi	a2,sp,944
20008a74:	0606                	slli	a2,a2,0x1
20008a76:	1f20                	addi	s0,sp,952
20008a78:	0608                	addi	a0,sp,768
20008a7a:	1f30                	addi	a2,sp,952
20008a7c:	0608                	addi	a0,sp,768
20008a7e:	1f40                	addi	s0,sp,948
20008a80:	0606                	slli	a2,a2,0x1
20008a82:	1f51                	addi	t5,t5,-12
20008a84:	1f590007          	0x1f590007
20008a88:	1f52                	slli	t5,t5,0x34
20008a8a:	1f541f5b          	0x1f541f5b
20008a8e:	1f5d                	addi	t5,t5,-9
20008a90:	1f56                	slli	t5,t5,0x35
20008a92:	1f5f 1f60 0608      	0x6081f601f5f
20008a98:	1f70                	addi	a2,sp,956
20008a9a:	000e                	c.slli	zero,0x3
20008a9c:	1fba                	slli	t6,t6,0x2e
20008a9e:	1fc81fbb          	0x1fc81fbb
20008aa2:	1fc9                	addi	t6,t6,-14
20008aa4:	1fca                	slli	t6,t6,0x32
20008aa6:	1fda1fcb          	fnmsub.q	ft11,fs4,ft9,ft3,rtz
20008aaa:	1ff81fdb          	0x1ff81fdb
20008aae:	1ff9                	addi	t6,t6,-2
20008ab0:	1fea                	slli	t6,t6,0x3a
20008ab2:	1ffa1feb          	0x1ffa1feb
20008ab6:	1f801ffb          	0x1f801ffb
20008aba:	0608                	addi	a0,sp,768
20008abc:	1f90                	addi	a2,sp,1008
20008abe:	0608                	addi	a0,sp,768
20008ac0:	1fa0                	addi	s0,sp,1016
20008ac2:	0608                	addi	a0,sp,768
20008ac4:	1fb0                	addi	a2,sp,1016
20008ac6:	0004                	0x4
20008ac8:	1fb8                	addi	a4,sp,1016
20008aca:	1fb9                	addi	t6,t6,-18
20008acc:	1fb2                	slli	t6,t6,0x2c
20008ace:	1fbc                	addi	a5,sp,1016
20008ad0:	1fcc                	addi	a1,sp,1012
20008ad2:	0001                	nop
20008ad4:	1fd01fc3          	fmadd.q	ft11,ft0,ft9,ft3,rtz
20008ad8:	0602                	c.slli64	a2
20008ada:	1fe0                	addi	s0,sp,1020
20008adc:	0602                	c.slli64	a2
20008ade:	1fe5                	addi	t6,t6,-7
20008ae0:	0001                	nop
20008ae2:	1fec                	addi	a1,sp,1020
20008ae4:	00011ff3          	csrrw	t6,ustatus,sp
20008ae8:	1ffc                	addi	a5,sp,1020
20008aea:	214e                	fld	ft2,208(sp)
20008aec:	0001                	nop
20008aee:	2132                	fld	ft2,264(sp)
20008af0:	2170                	fld	fa2,192(a0)
20008af2:	0210                	addi	a2,sp,256
20008af4:	2184                	fld	fs1,0(a1)
20008af6:	0001                	nop
20008af8:	24d02183          	lw	gp,589(zero) # 24d <_start-0x1ffffdb3>
20008afc:	051a                	slli	a0,a0,0x6
20008afe:	2c30                	fld	fa2,88(s0)
20008b00:	2c60042f          	0x2c60042f
20008b04:	0102                	c.slli64	sp
20008b06:	01062c67          	0x1062c67
20008b0a:	2c75                	jal	20008dc6 <_etext+0x2aa>
20008b0c:	0102                	c.slli64	sp
20008b0e:	2c80                	fld	fs0,24(s1)
20008b10:	0164                	addi	s1,sp,140
20008b12:	2d00                	fld	fs0,24(a0)
20008b14:	0826                	slli	a6,a6,0x9
20008b16:	ff41                	bnez	a4,20008aae <_ZZ11ff_wtoupperE4cvt2+0x4e>
20008b18:	031a                	slli	t1,t1,0x6
	...

Disassembly of section .srodata:

20008b1c <_global_impure_ptr>:
20008b1c:	98b0                	0x98b0
20008b1e:	2000                	fld	fs0,0(s0)

Disassembly of section .eh_frame:

20008b20 <.eh_frame>:
20008b20:	0010                	0x10
20008b22:	0000                	unimp
20008b24:	0000                	unimp
20008b26:	0000                	unimp
20008b28:	00527a03          	0x527a03
20008b2c:	7c01                	lui	s8,0xfffe0
20008b2e:	0101                	addi	sp,sp,0
20008b30:	00020d1b          	0x20d1b
20008b34:	0058                	addi	a4,sp,4
20008b36:	0000                	unimp
20008b38:	0018                	0x18
20008b3a:	0000                	unimp
20008b3c:	97c4                	0x97c4
20008b3e:	ffff                	0xffff
20008b40:	00c0                	addi	s0,sp,68
20008b42:	0000                	unimp
20008b44:	4400                	lw	s0,8(s0)
20008b46:	500e                	0x500e
20008b48:	4002                	0x4002
20008b4a:	0181                	addi	gp,gp,0
20008b4c:	0285                	addi	t0,t0,1
20008b4e:	0386                	slli	t2,t2,0x1
20008b50:	058a0487          	0x58a0487
20008b54:	078c068b          	0x78c068b
20008b58:	088d                	addi	a7,a7,3
20008b5a:	098e                	slli	s3,s3,0x3
20008b5c:	0b900a8f          	0xb900a8f
20008b60:	0c91                	addi	s9,s9,4
20008b62:	0d9c                	addi	a5,sp,720
20008b64:	0e9d                	addi	t4,t4,7
20008b66:	0f9e                	slli	t6,t6,0x7
20008b68:	109f 0a50 44c1      	0x44c10a50109f
20008b6e:	44c5                	li	s1,17
20008b70:	44c6                	lw	s1,80(sp)
20008b72:	44ca44c7          	0x44ca44c7
20008b76:	44cc44cb          	0x44cc44cb
20008b7a:	44cd                	li	s1,19
20008b7c:	44ce                	lw	s1,208(sp)
20008b7e:	44d044cf          	0x44d044cf
20008b82:	44d1                	li	s1,20
20008b84:	44dc                	lw	a5,12(s1)
20008b86:	44dd                	li	s1,23
20008b88:	44de                	lw	s1,212(sp)
20008b8a:	44df 000e 0b44      	0xb44000e44df
20008b90:	0010                	0x10
20008b92:	0000                	unimp
20008b94:	0074                	addi	a3,sp,12
20008b96:	0000                	unimp
20008b98:	7468                	flw	fa0,108(s0)
20008b9a:	ffff                	0xffff
20008b9c:	008c                	addi	a1,sp,64
20008b9e:	0000                	unimp
20008ba0:	0000                	unimp
20008ba2:	0000                	unimp
20008ba4:	0010                	0x10
20008ba6:	0000                	unimp
20008ba8:	0088                	addi	a0,sp,64
20008baa:	0000                	unimp
20008bac:	74e0                	flw	fs0,108(s1)
20008bae:	ffff                	0xffff
	...
20008bb8:	0010                	0x10
20008bba:	0000                	unimp
20008bbc:	009c                	addi	a5,sp,64
20008bbe:	0000                	unimp
20008bc0:	9840                	0x9840
20008bc2:	ffff                	0xffff
20008bc4:	004c                	addi	a1,sp,4
20008bc6:	0000                	unimp
20008bc8:	0000                	unimp
20008bca:	0000                	unimp
20008bcc:	0030                	addi	a2,sp,8
20008bce:	0000                	unimp
20008bd0:	00b0                	addi	a2,sp,72
20008bd2:	0000                	unimp
20008bd4:	9878                	0x9878
20008bd6:	ffff                	0xffff
20008bd8:	0094                	addi	a3,sp,64
20008bda:	0000                	unimp
20008bdc:	4400                	lw	s0,8(s0)
20008bde:	200e                	fld	ft0,192(sp)
20008be0:	8944                	0x8944
20008be2:	01816403          	0x1816403
20008be6:	0288                	addi	a0,sp,320
20008be8:	0492                	slli	s1,s1,0x4
20008bea:	06940593          	addi	a1,s0,105
20008bee:	4c02                	lw	s8,0(sp)
20008bf0:	44c1                	li	s1,16
20008bf2:	44c8                	lw	a0,12(s1)
20008bf4:	44c9                	li	s1,18
20008bf6:	44d2                	lw	s1,20(sp)
20008bf8:	44d444d3          	0x44d444d3
20008bfc:	000e                	c.slli	zero,0x3
20008bfe:	0000                	unimp
20008c00:	0018                	0x18
20008c02:	0000                	unimp
20008c04:	00e4                	addi	s1,sp,76
20008c06:	0000                	unimp
20008c08:	98d8                	0x98d8
20008c0a:	ffff                	0xffff
20008c0c:	0044                	addi	s1,sp,4
20008c0e:	0000                	unimp
20008c10:	4400                	lw	s0,8(s0)
20008c12:	100e                	c.slli	zero,0x23
20008c14:	814c                	0x814c
20008c16:	6c01                	0x6c01
20008c18:	44c1                	li	s1,16
20008c1a:	000e                	c.slli	zero,0x3
20008c1c:	0038                	addi	a4,sp,8
20008c1e:	0000                	unimp
20008c20:	0100                	addi	s0,sp,128
20008c22:	0000                	unimp
20008c24:	9900                	0x9900
20008c26:	ffff                	0xffff
20008c28:	00e4                	addi	s1,sp,76
20008c2a:	0000                	unimp
20008c2c:	4400                	lw	s0,8(s0)
20008c2e:	300e                	fld	ft0,224(sp)
20008c30:	8844                	0x8844
20008c32:	6c02                	flw	fs8,0(sp)
20008c34:	0389                	addi	t2,t2,2
20008c36:	0181                	addi	gp,gp,0
20008c38:	0492                	slli	s1,s1,0x4
20008c3a:	06940593          	addi	a1,s0,105
20008c3e:	0795                	addi	a5,a5,5
20008c40:	0896                	slli	a7,a7,0x5
20008c42:	8c02                	jr	s8
20008c44:	44c1                	li	s1,16
20008c46:	44c8                	lw	a0,12(s1)
20008c48:	44c9                	li	s1,18
20008c4a:	44d2                	lw	s1,20(sp)
20008c4c:	44d444d3          	0x44d444d3
20008c50:	44d5                	li	s1,21
20008c52:	44d6                	lw	s1,84(sp)
20008c54:	000e                	c.slli	zero,0x3
20008c56:	0000                	unimp
20008c58:	0038                	addi	a4,sp,8
20008c5a:	0000                	unimp
20008c5c:	013c                	addi	a5,sp,136
20008c5e:	0000                	unimp
20008c60:	99a8                	0x99a8
20008c62:	ffff                	0xffff
20008c64:	0168                	addi	a0,sp,140
20008c66:	0000                	unimp
20008c68:	4c00                	lw	s0,24(s0)
20008c6a:	200e                	fld	ft0,192(sp)
20008c6c:	8854                	0x8854
20008c6e:	8902                	jr	s2
20008c70:	92018103          	lb	sp,-1760(gp) # 37af920 <_start-0x1c8506e0>
20008c74:	9304                	0x9304
20008c76:	0205                	addi	tp,tp,1
20008c78:	c888                	sw	a0,16(s1)
20008c7a:	c144                	sw	s1,4(a0)
20008c7c:	c944                	sw	s1,20(a0)
20008c7e:	d244                	sw	s1,36(a2)
20008c80:	d344                	sw	s1,36(a4)
20008c82:	0e4c                	addi	a1,sp,788
20008c84:	4800                	lw	s0,16(s0)
20008c86:	200e                	fld	ft0,192(sp)
20008c88:	0181                	addi	gp,gp,0
20008c8a:	0288                	addi	a0,sp,320
20008c8c:	0389                	addi	t2,t2,2
20008c8e:	0492                	slli	s1,s1,0x4
20008c90:	00000593          	li	a1,0
20008c94:	0058                	addi	a4,sp,4
20008c96:	0000                	unimp
20008c98:	0178                	addi	a4,sp,140
20008c9a:	0000                	unimp
20008c9c:	9b64                	0x9b64
20008c9e:	ffff                	0xffff
20008ca0:	0110                	addi	a2,sp,128
20008ca2:	0000                	unimp
20008ca4:	4400                	lw	s0,8(s0)
20008ca6:	600e                	flw	ft0,192(sp)
20008ca8:	4002                	0x4002
20008caa:	0181                	addi	gp,gp,0
20008cac:	0285                	addi	t0,t0,1
20008cae:	0386                	slli	t2,t2,0x1
20008cb0:	058a0487          	0x58a0487
20008cb4:	078c068b          	0x78c068b
20008cb8:	088d                	addi	a7,a7,3
20008cba:	098e                	slli	s3,s3,0x3
20008cbc:	0b900a8f          	0xb900a8f
20008cc0:	0c91                	addi	s9,s9,4
20008cc2:	0d9c                	addi	a5,sp,720
20008cc4:	0e9d                	addi	t4,t4,7
20008cc6:	0f9e                	slli	t6,t6,0x7
20008cc8:	109f 0a70 44c1      	0x44c10a70109f
20008cce:	44c5                	li	s1,17
20008cd0:	44c6                	lw	s1,80(sp)
20008cd2:	44ca44c7          	0x44ca44c7
20008cd6:	44cc44cb          	0x44cc44cb
20008cda:	44cd                	li	s1,19
20008cdc:	44ce                	lw	s1,208(sp)
20008cde:	44d044cf          	0x44d044cf
20008ce2:	44d1                	li	s1,20
20008ce4:	44dc                	lw	a5,12(s1)
20008ce6:	44dd                	li	s1,23
20008ce8:	44de                	lw	s1,212(sp)
20008cea:	44df 000e 0b44      	0xb44000e44df
20008cf0:	001c                	0x1c
20008cf2:	0000                	unimp
20008cf4:	01d4                	addi	a3,sp,196
20008cf6:	0000                	unimp
20008cf8:	9cf8                	0x9cf8
20008cfa:	ffff                	0xffff
20008cfc:	0050                	addi	a2,sp,4
20008cfe:	0000                	unimp
20008d00:	4400                	lw	s0,8(s0)
20008d02:	100e                	c.slli	zero,0x23
20008d04:	8144                	0x8144
20008d06:	0201                	addi	tp,tp,0
20008d08:	c140                	sw	s0,4(a0)
20008d0a:	0e44                	addi	s1,sp,788
20008d0c:	0000                	unimp
20008d0e:	0000                	unimp
20008d10:	001c                	0x1c
20008d12:	0000                	unimp
20008d14:	01f4                	addi	a3,sp,204
20008d16:	0000                	unimp
20008d18:	9d28                	0x9d28
20008d1a:	ffff                	0xffff
20008d1c:	0048                	addi	a0,sp,4
20008d1e:	0000                	unimp
20008d20:	4400                	lw	s0,8(s0)
20008d22:	100e                	c.slli	zero,0x23
20008d24:	8144                	0x8144
20008d26:	0201                	addi	tp,tp,0
20008d28:	c138                	sw	a4,64(a0)
20008d2a:	0e44                	addi	s1,sp,788
20008d2c:	0000                	unimp
20008d2e:	0000                	unimp
20008d30:	004c                	addi	a1,sp,4
20008d32:	0000                	unimp
20008d34:	0214                	addi	a3,sp,256
20008d36:	0000                	unimp
20008d38:	9d50                	0x9d50
20008d3a:	ffff                	0xffff
20008d3c:	0180                	addi	s0,sp,192
20008d3e:	0000                	unimp
20008d40:	4400                	lw	s0,8(s0)
20008d42:	800e                	c.mv	zero,gp
20008d44:	02884403          	lbu	s0,40(a6) # ffff9028 <_end+0xdffedf40>
20008d48:	8178                	0x8178
20008d4a:	8901                	andi	a0,a0,0
20008d4c:	93049203          	lh	tp,-1744(s1)
20008d50:	9405                	srai	s0,s0,0x21
20008d52:	9506                	add	a0,a0,ra
20008d54:	97089607          	0x97089607
20008d58:	9809                	andi	s0,s0,-30
20008d5a:	990a                	add	s2,s2,sp
20008d5c:	020c9a0b          	0x20c9a0b
20008d60:	0a6c                	addi	a1,sp,284
20008d62:	44c1                	li	s1,16
20008d64:	44c8                	lw	a0,12(s1)
20008d66:	44c9                	li	s1,18
20008d68:	44d2                	lw	s1,20(sp)
20008d6a:	44d444d3          	0x44d444d3
20008d6e:	44d5                	li	s1,21
20008d70:	44d6                	lw	s1,84(sp)
20008d72:	44d844d7          	0x44d844d7
20008d76:	44d9                	li	s1,22
20008d78:	44da                	lw	s1,148(sp)
20008d7a:	000e                	c.slli	zero,0x3
20008d7c:	0b44                	addi	s1,sp,404
20008d7e:	0000                	unimp
20008d80:	0010                	0x10
20008d82:	0000                	unimp
20008d84:	0264                	addi	s1,sp,268
20008d86:	0000                	unimp
20008d88:	9e80                	0x9e80
20008d8a:	ffff                	0xffff
20008d8c:	000c                	0xc
20008d8e:	0000                	unimp
20008d90:	0000                	unimp
20008d92:	0000                	unimp
20008d94:	0010                	0x10
20008d96:	0000                	unimp
20008d98:	0278                	addi	a4,sp,268
20008d9a:	0000                	unimp
20008d9c:	9e78                	0x9e78
20008d9e:	ffff                	0xffff
20008da0:	001c                	0x1c
20008da2:	0000                	unimp
20008da4:	0000                	unimp
20008da6:	0000                	unimp
20008da8:	0050                	addi	a2,sp,4
20008daa:	0000                	unimp
20008dac:	028c                	addi	a1,sp,320
20008dae:	0000                	unimp
20008db0:	9e80                	0x9e80
20008db2:	ffff                	0xffff
20008db4:	02bc                	addi	a5,sp,328
20008db6:	0000                	unimp
20008db8:	4400                	lw	s0,8(s0)
20008dba:	a00e                	fsd	ft3,0(sp)
20008dbc:	6001                	0x6001
20008dbe:	0288                	addi	a0,sp,320
20008dc0:	0181                	addi	gp,gp,0
20008dc2:	0389                	addi	t2,t2,2
20008dc4:	0492                	slli	s1,s1,0x4
20008dc6:	06940593          	addi	a1,s0,105
20008dca:	0795                	addi	a5,a5,5
20008dcc:	0896                	slli	a7,a7,0x5
20008dce:	0a7c                	addi	a5,sp,284
20008dd0:	44c8                	lw	a0,12(s1)
20008dd2:	44c1                	li	s1,16
20008dd4:	44c9                	li	s1,18
20008dd6:	44d2                	lw	s1,20(sp)
20008dd8:	44d444d3          	0x44d444d3
20008ddc:	44d5                	li	s1,21
20008dde:	4cd6                	lw	s9,84(sp)
20008de0:	000e                	c.slli	zero,0x3
20008de2:	0b44                	addi	s1,sp,404
20008de4:	c1020c03          	lb	s8,-1008(tp) # fffffc10 <_end+0xdfff4b28>
20008de8:	c844                	sw	s1,20(s0)
20008dea:	c944                	sw	s1,20(a0)
20008dec:	d244                	sw	s1,36(a2)
20008dee:	d344                	sw	s1,36(a4)
20008df0:	d444                	sw	s1,44(s0)
20008df2:	d544                	sw	s1,44(a0)
20008df4:	d644                	sw	s1,44(a2)
20008df6:	0e44                	addi	s1,sp,788
20008df8:	0000                	unimp
20008dfa:	0000                	unimp
20008dfc:	0028                	addi	a0,sp,8
20008dfe:	0000                	unimp
20008e00:	02e0                	addi	s0,sp,332
20008e02:	0000                	unimp
20008e04:	a0e8                	fsd	fa0,192(s1)
20008e06:	ffff                	0xffff
20008e08:	0244                	addi	s1,sp,260
20008e0a:	0000                	unimp
20008e0c:	4400                	lw	s0,8(s0)
20008e0e:	f00e                	fsw	ft3,32(sp)
20008e10:	5804                	lw	s1,48(s0)
20008e12:	0288                	addi	a0,sp,320
20008e14:	0181                	addi	gp,gp,0
20008e16:	0389                	addi	t2,t2,2
20008e18:	4c02                	lw	s8,0(sp)
20008e1a:	c10a                	sw	sp,128(sp)
20008e1c:	c844                	sw	s1,20(s0)
20008e1e:	c94c                	sw	a1,20(a0)
20008e20:	0e44                	addi	s1,sp,788
20008e22:	4400                	lw	s0,8(s0)
20008e24:	0000000b          	0xb
20008e28:	0048                	addi	a0,sp,4
20008e2a:	0000                	unimp
20008e2c:	030c                	addi	a1,sp,384
20008e2e:	0000                	unimp
20008e30:	a300                	fsd	fs0,0(a4)
20008e32:	ffff                	0xffff
20008e34:	01ac                	addi	a1,sp,200
20008e36:	0000                	unimp
20008e38:	4400                	lw	s0,8(s0)
20008e3a:	200e                	fld	ft0,192(sp)
20008e3c:	8150                	0x8150
20008e3e:	8801                	andi	s0,s0,0
20008e40:	8902                	jr	s2
20008e42:	02049203          	lh	tp,32(s1)
20008e46:	0a64                	addi	s1,sp,284
20008e48:	48c1                	li	a7,16
20008e4a:	48c8                	lw	a0,20(s1)
20008e4c:	44c9                	li	s1,18
20008e4e:	44d2                	lw	s1,20(sp)
20008e50:	000e                	c.slli	zero,0x3
20008e52:	0b44                	addi	s1,sp,404
20008e54:	0a60                	addi	s0,sp,284
20008e56:	48c1                	li	a7,16
20008e58:	44c8                	lw	a0,12(s1)
20008e5a:	44c9                	li	s1,18
20008e5c:	44d2                	lw	s1,20(sp)
20008e5e:	000e                	c.slli	zero,0x3
20008e60:	0b44                	addi	s1,sp,404
20008e62:	6c02                	flw	fs8,0(sp)
20008e64:	c10a                	sw	sp,128(sp)
20008e66:	c848                	sw	a0,20(s0)
20008e68:	c944                	sw	s1,20(a0)
20008e6a:	d244                	sw	s1,36(a2)
20008e6c:	0e44                	addi	s1,sp,788
20008e6e:	4400                	lw	s0,8(s0)
20008e70:	0000000b          	0xb
20008e74:	0014                	0x14
20008e76:	0000                	unimp
20008e78:	0358                	addi	a4,sp,388
20008e7a:	0000                	unimp
20008e7c:	a460                	fsd	fs0,200(s0)
20008e7e:	ffff                	0xffff
20008e80:	0014                	0x14
20008e82:	0000                	unimp
20008e84:	4400                	lw	s0,8(s0)
20008e86:	100e                	c.slli	zero,0x23
20008e88:	8144                	0x8144
20008e8a:	0001                	nop
20008e8c:	0014                	0x14
20008e8e:	0000                	unimp
20008e90:	0370                	addi	a2,sp,396
20008e92:	0000                	unimp
20008e94:	a45c                	fsd	fa5,136(s0)
20008e96:	ffff                	0xffff
20008e98:	0080                	addi	s0,sp,64
20008e9a:	0000                	unimp
20008e9c:	4400                	lw	s0,8(s0)
20008e9e:	100e                	c.slli	zero,0x23
20008ea0:	8144                	0x8144
20008ea2:	0001                	nop
20008ea4:	0010                	0x10
20008ea6:	0000                	unimp
20008ea8:	0388                	addi	a0,sp,448
20008eaa:	0000                	unimp
20008eac:	a4c4                	fsd	fs1,136(s1)
20008eae:	ffff                	0xffff
20008eb0:	0018                	0x18
20008eb2:	0000                	unimp
20008eb4:	0000                	unimp
20008eb6:	0000                	unimp
20008eb8:	0018                	0x18
20008eba:	0000                	unimp
20008ebc:	039c                	addi	a5,sp,448
20008ebe:	0000                	unimp
20008ec0:	a4c8                	fsd	fa0,136(s1)
20008ec2:	ffff                	0xffff
20008ec4:	0024                	addi	s1,sp,8
20008ec6:	0000                	unimp
20008ec8:	4400                	lw	s0,8(s0)
20008eca:	100e                	c.slli	zero,0x23
20008ecc:	8144                	0x8144
20008ece:	5401                	li	s0,-32
20008ed0:	44c1                	li	s1,16
20008ed2:	000e                	c.slli	zero,0x3
20008ed4:	0018                	0x18
20008ed6:	0000                	unimp
20008ed8:	03b8                	addi	a4,sp,456
20008eda:	0000                	unimp
20008edc:	a4d0                	fsd	fa2,136(s1)
20008ede:	ffff                	0xffff
20008ee0:	0038                	addi	a4,sp,8
20008ee2:	0000                	unimp
20008ee4:	4400                	lw	s0,8(s0)
20008ee6:	100e                	c.slli	zero,0x23
20008ee8:	8144                	0x8144
20008eea:	6401                	0x6401
20008eec:	48c1                	li	a7,16
20008eee:	000e                	c.slli	zero,0x3
20008ef0:	0010                	0x10
20008ef2:	0000                	unimp
20008ef4:	03d4                	addi	a3,sp,452
20008ef6:	0000                	unimp
20008ef8:	a4ec                	fsd	fa1,200(s1)
20008efa:	ffff                	0xffff
20008efc:	0014                	0x14
20008efe:	0000                	unimp
20008f00:	0000                	unimp
20008f02:	0000                	unimp
20008f04:	0034                	addi	a3,sp,8
20008f06:	0000                	unimp
20008f08:	03e8                	addi	a0,sp,460
20008f0a:	0000                	unimp
20008f0c:	a4ec                	fsd	fa1,200(s1)
20008f0e:	ffff                	0xffff
20008f10:	0090                	addi	a2,sp,64
20008f12:	0000                	unimp
20008f14:	4400                	lw	s0,8(s0)
20008f16:	100e                	c.slli	zero,0x23
20008f18:	8950                	0x8950
20008f1a:	88018103          	lb	sp,-1920(gp) # 2000a660 <Fs+0x44>
20008f1e:	9202                	jalr	tp
20008f20:	0204                	addi	s1,sp,256
20008f22:	0a40                	addi	s0,sp,276
20008f24:	44c1                	li	s1,16
20008f26:	44c8                	lw	a0,12(s1)
20008f28:	44c9                	li	s1,18
20008f2a:	44d2                	lw	s1,20(sp)
20008f2c:	000e                	c.slli	zero,0x3
20008f2e:	0b44                	addi	s1,sp,404
20008f30:	c154                	sw	a3,4(a0)
20008f32:	c844                	sw	s1,20(s0)
20008f34:	c944                	sw	s1,20(a0)
20008f36:	d244                	sw	s1,36(a2)
20008f38:	0e44                	addi	s1,sp,788
20008f3a:	0000                	unimp
20008f3c:	001c                	0x1c
20008f3e:	0000                	unimp
20008f40:	0420                	addi	s0,sp,520
20008f42:	0000                	unimp
20008f44:	a544                	fsd	fs1,136(a0)
20008f46:	ffff                	0xffff
20008f48:	007c                	addi	a5,sp,12
20008f4a:	0000                	unimp
20008f4c:	6000                	flw	fs0,0(s0)
20008f4e:	300e                	fld	ft0,224(sp)
20008f50:	8148                	0x8148
20008f52:	0201                	addi	tp,tp,0
20008f54:	c14c                	sw	a1,4(a0)
20008f56:	0e44                	addi	s1,sp,788
20008f58:	0000                	unimp
20008f5a:	0000                	unimp
20008f5c:	001c                	0x1c
20008f5e:	0000                	unimp
20008f60:	0440                	addi	s0,sp,516
20008f62:	0000                	unimp
20008f64:	a5a0                	fsd	fs0,72(a1)
20008f66:	ffff                	0xffff
20008f68:	0150                	addi	a2,sp,132
20008f6a:	0000                	unimp
20008f6c:	6000                	flw	fs0,0(s0)
20008f6e:	300e                	fld	ft0,224(sp)
20008f70:	8168                	0x8168
20008f72:	0301                	addi	t1,t1,0
20008f74:	0100                	addi	s0,sp,128
20008f76:	44c1                	li	s1,16
20008f78:	000e                	c.slli	zero,0x3
20008f7a:	0000                	unimp
20008f7c:	0020                	addi	s0,sp,8
20008f7e:	0000                	unimp
20008f80:	0460                	addi	s0,sp,524
20008f82:	0000                	unimp
20008f84:	a6d0                	fsd	fa2,136(a3)
20008f86:	ffff                	0xffff
20008f88:	0348                	addi	a0,sp,388
20008f8a:	0000                	unimp
20008f8c:	7800                	flw	fs0,48(s0)
20008f8e:	300e                	fld	ft0,224(sp)
20008f90:	814c                	0x814c
20008f92:	0301                	addi	t1,t1,0
20008f94:	013c                	addi	a5,sp,136
20008f96:	c10a                	sw	sp,128(sp)
20008f98:	0e44                	addi	s1,sp,788
20008f9a:	4400                	lw	s0,8(s0)
20008f9c:	0000000b          	0xb
20008fa0:	0010                	0x10
20008fa2:	0000                	unimp
20008fa4:	0484                	addi	s1,sp,576
20008fa6:	0000                	unimp
20008fa8:	a9f4                	fsd	fa3,208(a1)
20008faa:	ffff                	0xffff
20008fac:	0014                	0x14
20008fae:	0000                	unimp
20008fb0:	0000                	unimp
20008fb2:	0000                	unimp
20008fb4:	0018                	0x18
20008fb6:	0000                	unimp
20008fb8:	0498                	addi	a4,sp,576
20008fba:	0000                	unimp
20008fbc:	a9f4                	fsd	fa3,208(a1)
20008fbe:	ffff                	0xffff
20008fc0:	0024                	addi	s1,sp,8
20008fc2:	0000                	unimp
20008fc4:	4800                	lw	s0,16(s0)
20008fc6:	100e                	c.slli	zero,0x23
20008fc8:	814c                	0x814c
20008fca:	4801                	li	a6,0
20008fcc:	44c1                	li	s1,16
20008fce:	000e                	c.slli	zero,0x3
20008fd0:	0010                	0x10
20008fd2:	0000                	unimp
20008fd4:	04b4                	addi	a3,sp,584
20008fd6:	0000                	unimp
20008fd8:	a9fc                	fsd	fa5,208(a1)
20008fda:	ffff                	0xffff
20008fdc:	0014                	0x14
20008fde:	0000                	unimp
20008fe0:	0000                	unimp
20008fe2:	0000                	unimp
20008fe4:	0018                	0x18
20008fe6:	0000                	unimp
20008fe8:	04c8                	addi	a0,sp,580
20008fea:	0000                	unimp
20008fec:	a9fc                	fsd	fa5,208(a1)
20008fee:	ffff                	0xffff
20008ff0:	0024                	addi	s1,sp,8
20008ff2:	0000                	unimp
20008ff4:	4400                	lw	s0,8(s0)
20008ff6:	100e                	c.slli	zero,0x23
20008ff8:	8144                	0x8144
20008ffa:	4801                	li	a6,0
20008ffc:	50c1                	li	ra,-16
20008ffe:	000e                	c.slli	zero,0x3
20009000:	0018                	0x18
20009002:	0000                	unimp
20009004:	04e4                	addi	s1,sp,588
20009006:	0000                	unimp
20009008:	aa04                	fsd	fs1,16(a2)
2000900a:	ffff                	0xffff
2000900c:	0024                	addi	s1,sp,8
2000900e:	0000                	unimp
20009010:	4400                	lw	s0,8(s0)
20009012:	100e                	c.slli	zero,0x23
20009014:	8144                	0x8144
20009016:	4801                	li	a6,0
20009018:	50c1                	li	ra,-16
2000901a:	000e                	c.slli	zero,0x3
2000901c:	0018                	0x18
2000901e:	0000                	unimp
20009020:	0500                	addi	s0,sp,640
20009022:	0000                	unimp
20009024:	aa0c                	fsd	fa1,16(a2)
20009026:	ffff                	0xffff
20009028:	0024                	addi	s1,sp,8
2000902a:	0000                	unimp
2000902c:	4400                	lw	s0,8(s0)
2000902e:	100e                	c.slli	zero,0x23
20009030:	8144                	0x8144
20009032:	4801                	li	a6,0
20009034:	50c1                	li	ra,-16
20009036:	000e                	c.slli	zero,0x3
20009038:	0018                	0x18
2000903a:	0000                	unimp
2000903c:	051c                	addi	a5,sp,640
2000903e:	0000                	unimp
20009040:	aa14                	fsd	fa3,16(a2)
20009042:	ffff                	0xffff
20009044:	0024                	addi	s1,sp,8
20009046:	0000                	unimp
20009048:	4400                	lw	s0,8(s0)
2000904a:	100e                	c.slli	zero,0x23
2000904c:	8144                	0x8144
2000904e:	4801                	li	a6,0
20009050:	50c1                	li	ra,-16
20009052:	000e                	c.slli	zero,0x3
20009054:	002c                	addi	a1,sp,8
20009056:	0000                	unimp
20009058:	0538                	addi	a4,sp,648
2000905a:	0000                	unimp
2000905c:	aa1c                	fsd	fa5,16(a2)
2000905e:	ffff                	0xffff
20009060:	008c                	addi	a1,sp,64
20009062:	0000                	unimp
20009064:	5400                	lw	s0,40(s0)
20009066:	200e                	fld	ft0,192(sp)
20009068:	8854                	0x8854
2000906a:	9202                	jalr	tp
2000906c:	9304                	0x9304
2000906e:	8105                	srli	a0,a0,0x1
20009070:	8901                	andi	a0,a0,0
20009072:	c1480203          	lb	tp,-1004(a6)
20009076:	c844                	sw	s1,20(s0)
20009078:	c944                	sw	s1,20(a0)
2000907a:	d344                	sw	s1,36(a4)
2000907c:	d248                	sw	a0,36(a2)
2000907e:	0e44                	addi	s1,sp,788
20009080:	0000                	unimp
20009082:	0000                	unimp
20009084:	0018                	0x18
20009086:	0000                	unimp
20009088:	0568                	addi	a0,sp,652
2000908a:	0000                	unimp
2000908c:	aa78                	fsd	fa4,208(a2)
2000908e:	ffff                	0xffff
20009090:	0024                	addi	s1,sp,8
20009092:	0000                	unimp
20009094:	4400                	lw	s0,8(s0)
20009096:	100e                	c.slli	zero,0x23
20009098:	8144                	0x8144
2000909a:	4801                	li	a6,0
2000909c:	50c1                	li	ra,-16
2000909e:	000e                	c.slli	zero,0x3
200090a0:	0010                	0x10
200090a2:	0000                	unimp
200090a4:	0584                	addi	s1,sp,704
200090a6:	0000                	unimp
200090a8:	aa80                	fsd	fs0,16(a3)
200090aa:	ffff                	0xffff
200090ac:	0040                	addi	s0,sp,4
200090ae:	0000                	unimp
200090b0:	0000                	unimp
200090b2:	0000                	unimp
200090b4:	0034                	addi	a3,sp,8
200090b6:	0000                	unimp
200090b8:	0598                	addi	a4,sp,704
200090ba:	0000                	unimp
200090bc:	aaac                	fsd	fa1,80(a3)
200090be:	ffff                	0xffff
200090c0:	00ac                	addi	a1,sp,72
200090c2:	0000                	unimp
200090c4:	4400                	lw	s0,8(s0)
200090c6:	100e                	c.slli	zero,0x23
200090c8:	924c                	0x924c
200090ca:	5404                	lw	s1,40(s0)
200090cc:	0389                	addi	t2,t2,2
200090ce:	8150                	0x8150
200090d0:	8801                	andi	s0,s0,0
200090d2:	4c02                	lw	s8,0(sp)
200090d4:	c10a                	sw	sp,128(sp)
200090d6:	c844                	sw	s1,20(s0)
200090d8:	c944                	sw	s1,20(a0)
200090da:	d244                	sw	s1,36(a2)
200090dc:	0e48                	addi	a0,sp,788
200090de:	4400                	lw	s0,8(s0)
200090e0:	44c1780b          	0x44c1780b
200090e4:	48c8                	lw	a0,20(s1)
200090e6:	44d2                	lw	s1,20(sp)
200090e8:	48c9                	li	a7,18
200090ea:	000e                	c.slli	zero,0x3
200090ec:	0034                	addi	a3,sp,8
200090ee:	0000                	unimp
200090f0:	05d0                	addi	a2,sp,708
200090f2:	0000                	unimp
200090f4:	ab20                	fsd	fs0,80(a4)
200090f6:	ffff                	0xffff
200090f8:	00a8                	addi	a0,sp,72
200090fa:	0000                	unimp
200090fc:	4400                	lw	s0,8(s0)
200090fe:	100e                	c.slli	zero,0x23
20009100:	9250                	0x9250
20009102:	5404                	lw	s1,40(s0)
20009104:	0389                	addi	t2,t2,2
20009106:	8150                	0x8150
20009108:	8801                	andi	s0,s0,0
2000910a:	4c02                	lw	s8,0(sp)
2000910c:	c10a                	sw	sp,128(sp)
2000910e:	c844                	sw	s1,20(s0)
20009110:	c944                	sw	s1,20(a0)
20009112:	d244                	sw	s1,36(a2)
20009114:	0e48                	addi	a0,sp,788
20009116:	4400                	lw	s0,8(s0)
20009118:	44c1700b          	0x44c1700b
2000911c:	48c8                	lw	a0,20(s1)
2000911e:	44d2                	lw	s1,20(sp)
20009120:	48c9                	li	a7,18
20009122:	000e                	c.slli	zero,0x3
20009124:	0010                	0x10
20009126:	0000                	unimp
20009128:	0608                	addi	a0,sp,768
2000912a:	0000                	unimp
2000912c:	ab90                	fsd	fa2,16(a5)
2000912e:	ffff                	0xffff
20009130:	009c                	addi	a5,sp,64
20009132:	0000                	unimp
20009134:	0000                	unimp
20009136:	0000                	unimp
20009138:	0010                	0x10
2000913a:	0000                	unimp
2000913c:	061c                	addi	a5,sp,768
2000913e:	0000                	unimp
20009140:	ac18                	fsd	fa4,24(s0)
20009142:	ffff                	0xffff
20009144:	002c                	addi	a1,sp,8
20009146:	0000                	unimp
20009148:	0000                	unimp
2000914a:	0000                	unimp
2000914c:	0010                	0x10
2000914e:	0000                	unimp
20009150:	0630                	addi	a2,sp,776
20009152:	0000                	unimp
20009154:	ac30                	fsd	fa2,88(s0)
20009156:	ffff                	0xffff
20009158:	001c                	0x1c
2000915a:	0000                	unimp
2000915c:	0000                	unimp
2000915e:	0000                	unimp
20009160:	0028                	addi	a0,sp,8
20009162:	0000                	unimp
20009164:	0644                	addi	s1,sp,772
20009166:	0000                	unimp
20009168:	ac38                	fsd	fa4,88(s0)
2000916a:	ffff                	0xffff
2000916c:	0544                	addi	s1,sp,644
2000916e:	0000                	unimp
20009170:	0200                	addi	s0,sp,256
20009172:	0e54                	addi	a3,sp,788
20009174:	5420                	lw	s0,104(s0)
20009176:	0181                	addi	gp,gp,0
20009178:	0288                	addi	a0,sp,320
2000917a:	0389                	addi	t2,t2,2
2000917c:	0492                	slli	s1,s1,0x4
2000917e:	c104c403          	lbu	s0,-1008(s1)
20009182:	c844                	sw	s1,20(s0)
20009184:	d244                	sw	s1,36(a2)
20009186:	c948                	sw	a0,20(a0)
20009188:	0e44                	addi	s1,sp,788
2000918a:	0000                	unimp
2000918c:	0020                	addi	s0,sp,8
2000918e:	0000                	unimp
20009190:	0670                	addi	a2,sp,780
20009192:	0000                	unimp
20009194:	b150                	fsd	fa2,160(a0)
20009196:	ffff                	0xffff
20009198:	0040                	addi	s0,sp,4
2000919a:	0000                	unimp
2000919c:	4400                	lw	s0,8(s0)
2000919e:	100e                	c.slli	zero,0x23
200091a0:	8844                	0x8844
200091a2:	4802                	lw	a6,0(sp)
200091a4:	0181                	addi	gp,gp,0
200091a6:	c164                	sw	s1,68(a0)
200091a8:	c844                	sw	s1,20(s0)
200091aa:	0e44                	addi	s1,sp,788
200091ac:	0000                	unimp
200091ae:	0000                	unimp
200091b0:	0030                	addi	a2,sp,8
200091b2:	0000                	unimp
200091b4:	0694                	addi	a3,sp,832
200091b6:	0000                	unimp
200091b8:	b16c                	fsd	fa1,224(a0)
200091ba:	ffff                	0xffff
200091bc:	00a4                	addi	s1,sp,72
200091be:	0000                	unimp
200091c0:	4400                	lw	s0,8(s0)
200091c2:	200e                	fld	ft0,192(sp)
200091c4:	8958                	0x8958
200091c6:	81049203          	lh	tp,-2032(s1)
200091ca:	8801                	andi	s0,s0,0
200091cc:	9302                	jalr	t1
200091ce:	9405                	srai	s0,s0,0x21
200091d0:	0206                	slli	tp,tp,0x1
200091d2:	c168                	sw	a0,68(a0)
200091d4:	c844                	sw	s1,20(s0)
200091d6:	d244                	sw	s1,36(a2)
200091d8:	d344                	sw	s1,36(a4)
200091da:	d444                	sw	s1,44(s0)
200091dc:	c948                	sw	a0,20(a0)
200091de:	0e44                	addi	s1,sp,788
200091e0:	0000                	unimp
200091e2:	0000                	unimp
200091e4:	0020                	addi	s0,sp,8
200091e6:	0000                	unimp
200091e8:	06c8                	addi	a0,sp,836
200091ea:	0000                	unimp
200091ec:	b1dc                	fsd	fa5,160(a1)
200091ee:	ffff                	0xffff
200091f0:	005c                	addi	a5,sp,4
200091f2:	0000                	unimp
200091f4:	4400                	lw	s0,8(s0)
200091f6:	100e                	c.slli	zero,0x23
200091f8:	8150                	0x8150
200091fa:	8801                	andi	s0,s0,0
200091fc:	0202                	c.slli64	tp
200091fe:	c138                	sw	a4,64(a0)
20009200:	c848                	sw	a0,20(s0)
20009202:	0e44                	addi	s1,sp,788
20009204:	0000                	unimp
20009206:	0000                	unimp
20009208:	0020                	addi	s0,sp,8
2000920a:	0000                	unimp
2000920c:	06ec                	addi	a1,sp,844
2000920e:	0000                	unimp
20009210:	b214                	fsd	fa3,32(a2)
20009212:	ffff                	0xffff
20009214:	008c                	addi	a1,sp,64
20009216:	0000                	unimp
20009218:	4400                	lw	s0,8(s0)
2000921a:	200e                	fld	ft0,192(sp)
2000921c:	8150                	0x8150
2000921e:	8801                	andi	s0,s0,0
20009220:	0202                	c.slli64	tp
20009222:	c168                	sw	a0,68(a0)
20009224:	c848                	sw	a0,20(s0)
20009226:	0e44                	addi	s1,sp,788
20009228:	0000                	unimp
2000922a:	0000                	unimp
2000922c:	0044                	addi	s1,sp,4
2000922e:	0000                	unimp
20009230:	0710                	addi	a2,sp,896
20009232:	0000                	unimp
20009234:	b27c                	fsd	fa5,224(a2)
20009236:	ffff                	0xffff
20009238:	0114                	addi	a3,sp,128
2000923a:	0000                	unimp
2000923c:	4400                	lw	s0,8(s0)
2000923e:	100e                	c.slli	zero,0x23
20009240:	9250                	0x9250
20009242:	8104                	0x8104
20009244:	8801                	andi	s0,s0,0
20009246:	8902                	jr	s2
20009248:	0a480203          	lb	tp,164(a6)
2000924c:	48c1                	li	a7,16
2000924e:	44c8                	lw	a0,12(s1)
20009250:	44c9                	li	s1,18
20009252:	44d2                	lw	s1,20(sp)
20009254:	000e                	c.slli	zero,0x3
20009256:	0b44                	addi	s1,sp,404
20009258:	0a64                	addi	s1,sp,284
2000925a:	48c1                	li	a7,16
2000925c:	44c8                	lw	a0,12(s1)
2000925e:	44c9                	li	s1,18
20009260:	44d2                	lw	s1,20(sp)
20009262:	000e                	c.slli	zero,0x3
20009264:	0b44                	addi	s1,sp,404
20009266:	4c02                	lw	s8,0(sp)
20009268:	48c1                	li	a7,16
2000926a:	44c8                	lw	a0,12(s1)
2000926c:	44c9                	li	s1,18
2000926e:	44d2                	lw	s1,20(sp)
20009270:	000e                	c.slli	zero,0x3
20009272:	0000                	unimp
20009274:	0018                	0x18
20009276:	0000                	unimp
20009278:	0758                	addi	a4,sp,900
2000927a:	0000                	unimp
2000927c:	b348                	fsd	fa0,160(a4)
2000927e:	ffff                	0xffff
20009280:	0020                	addi	s0,sp,8
20009282:	0000                	unimp
20009284:	4400                	lw	s0,8(s0)
20009286:	100e                	c.slli	zero,0x23
20009288:	814c                	0x814c
2000928a:	4801                	li	a6,0
2000928c:	44c1                	li	s1,16
2000928e:	000e                	c.slli	zero,0x3
20009290:	004c                	addi	a1,sp,4
20009292:	0000                	unimp
20009294:	0774                	addi	a3,sp,908
20009296:	0000                	unimp
20009298:	b34c                	fsd	fa1,160(a4)
2000929a:	ffff                	0xffff
2000929c:	0158                	addi	a4,sp,132
2000929e:	0000                	unimp
200092a0:	4400                	lw	s0,8(s0)
200092a2:	200e                	fld	ft0,192(sp)
200092a4:	8944                	0x8944
200092a6:	02884c03          	lbu	s8,40(a6)
200092aa:	8154                	0x8154
200092ac:	9201                	srli	a2,a2,0x20
200092ae:	9304                	0x9304
200092b0:	0205                	addi	tp,tp,1
200092b2:	0a54                	addi	a3,sp,276
200092b4:	44c1                	li	s1,16
200092b6:	44c8                	lw	a0,12(s1)
200092b8:	44c9                	li	s1,18
200092ba:	44d248d3          	0x44d248d3
200092be:	000e                	c.slli	zero,0x3
200092c0:	0b44                	addi	s1,sp,404
200092c2:	0a64                	addi	s1,sp,284
200092c4:	44c1                	li	s1,16
200092c6:	44c8                	lw	a0,12(s1)
200092c8:	44c9                	li	s1,18
200092ca:	44d248d3          	0x44d248d3
200092ce:	000e                	c.slli	zero,0x3
200092d0:	0b44                	addi	s1,sp,404
200092d2:	6402                	flw	fs0,0(sp)
200092d4:	44c1                	li	s1,16
200092d6:	44c8                	lw	a0,12(s1)
200092d8:	44c9                	li	s1,18
200092da:	44d248d3          	0x44d248d3
200092de:	000e                	c.slli	zero,0x3
200092e0:	0018                	0x18
200092e2:	0000                	unimp
200092e4:	07c4                	addi	s1,sp,964
200092e6:	0000                	unimp
200092e8:	b454                	fsd	fa3,168(s0)
200092ea:	ffff                	0xffff
200092ec:	0024                	addi	s1,sp,8
200092ee:	0000                	unimp
200092f0:	4400                	lw	s0,8(s0)
200092f2:	100e                	c.slli	zero,0x23
200092f4:	814c                	0x814c
200092f6:	4801                	li	a6,0
200092f8:	48c1                	li	a7,16
200092fa:	000e                	c.slli	zero,0x3
200092fc:	0044                	addi	s1,sp,4
200092fe:	0000                	unimp
20009300:	07e0                	addi	s0,sp,972
20009302:	0000                	unimp
20009304:	b45c                	fsd	fa5,168(s0)
20009306:	ffff                	0xffff
20009308:	00b4                	addi	a3,sp,72
2000930a:	0000                	unimp
2000930c:	4800                	lw	s0,16(s0)
2000930e:	b00e                	fsd	ft3,32(sp)
20009310:	6004                	flw	fs1,0(s0)
20009312:	0288                	addi	a0,sp,320
20009314:	0389                	addi	t2,t2,2
20009316:	0492                	slli	s1,s1,0x4
20009318:	06940593          	addi	a1,s0,105
2000931c:	0795                	addi	a5,a5,5
2000931e:	0896                	slli	a7,a7,0x5
20009320:	0181                	addi	gp,gp,0
20009322:	5802                	lw	a6,32(sp)
20009324:	c10a                	sw	sp,128(sp)
20009326:	c844                	sw	s1,20(s0)
20009328:	c944                	sw	s1,20(a0)
2000932a:	d244                	sw	s1,36(a2)
2000932c:	d344                	sw	s1,36(a4)
2000932e:	d444                	sw	s1,44(s0)
20009330:	d544                	sw	s1,44(a0)
20009332:	d644                	sw	s1,44(a2)
20009334:	0e44                	addi	s1,sp,788
20009336:	4400                	lw	s0,8(s0)
20009338:	000e480b          	0xe480b
2000933c:	c8c1                	beqz	s1,200093cc <_global_impure_ptr+0x8b0>
2000933e:	d2c9                	beqz	a3,200092c0 <_global_impure_ptr+0x7a4>
20009340:	d6d5d4d3          	0xd6d5d4d3
20009344:	0044                	addi	s1,sp,4
20009346:	0000                	unimp
20009348:	0828                	addi	a0,sp,24
2000934a:	0000                	unimp
2000934c:	b4c8                	fsd	fa0,168(s1)
2000934e:	ffff                	0xffff
20009350:	00b0                	addi	a2,sp,72
20009352:	0000                	unimp
20009354:	4800                	lw	s0,16(s0)
20009356:	b00e                	fsd	ft3,32(sp)
20009358:	6004                	flw	fs1,0(s0)
2000935a:	0288                	addi	a0,sp,320
2000935c:	0389                	addi	t2,t2,2
2000935e:	0492                	slli	s1,s1,0x4
20009360:	06940593          	addi	a1,s0,105
20009364:	0795                	addi	a5,a5,5
20009366:	0896                	slli	a7,a7,0x5
20009368:	0181                	addi	gp,gp,0
2000936a:	5402                	lw	s0,32(sp)
2000936c:	c10a                	sw	sp,128(sp)
2000936e:	c844                	sw	s1,20(s0)
20009370:	c944                	sw	s1,20(a0)
20009372:	d244                	sw	s1,36(a2)
20009374:	d344                	sw	s1,36(a4)
20009376:	d444                	sw	s1,44(s0)
20009378:	d544                	sw	s1,44(a0)
2000937a:	d644                	sw	s1,44(a2)
2000937c:	0e44                	addi	s1,sp,788
2000937e:	4400                	lw	s0,8(s0)
20009380:	000e480b          	0xe480b
20009384:	c8c1                	beqz	s1,20009414 <_global_impure_ptr+0x8f8>
20009386:	d2c9                	beqz	a3,20009308 <_global_impure_ptr+0x7ec>
20009388:	d6d5d4d3          	0xd6d5d4d3
2000938c:	0020                	addi	s0,sp,8
2000938e:	0000                	unimp
20009390:	0870                	addi	a2,sp,28
20009392:	0000                	unimp
20009394:	b530                	fsd	fa2,104(a0)
20009396:	ffff                	0xffff
20009398:	005c                	addi	a5,sp,4
2000939a:	0000                	unimp
2000939c:	4400                	lw	s0,8(s0)
2000939e:	100e                	c.slli	zero,0x23
200093a0:	8848                	0x8848
200093a2:	8102                	jr	sp
200093a4:	0201                	addi	tp,tp,0
200093a6:	0a3c                	addi	a5,sp,280
200093a8:	44c1                	li	s1,16
200093aa:	44c8                	lw	a0,12(s1)
200093ac:	000e                	c.slli	zero,0x3
200093ae:	0b44                	addi	s1,sp,404
200093b0:	0024                	addi	s1,sp,8
200093b2:	0000                	unimp
200093b4:	0894                	addi	a3,sp,80
200093b6:	0000                	unimp
200093b8:	b568                	fsd	fa0,232(a0)
200093ba:	ffff                	0xffff
200093bc:	0104                	addi	s1,sp,128
200093be:	0000                	unimp
200093c0:	0200                	addi	s0,sp,256
200093c2:	0e4c                	addi	a1,sp,788
200093c4:	4410                	lw	a2,8(s0)
200093c6:	0188                	addi	a0,sp,192
200093c8:	8002                	0x8002
200093ca:	44c8                	lw	a0,12(s1)
200093cc:	000e                	c.slli	zero,0x3
200093ce:	0e60                	addi	s0,sp,796
200093d0:	8810                	0x8810
200093d2:	4801                	li	a6,0
200093d4:	000e                	c.slli	zero,0x3
200093d6:	00c8                	addi	a0,sp,68
200093d8:	0048                	addi	a0,sp,4
200093da:	0000                	unimp
200093dc:	08bc                	addi	a5,sp,88
200093de:	0000                	unimp
200093e0:	b644                	fsd	fs1,168(a2)
200093e2:	ffff                	0xffff
200093e4:	0214                	addi	a3,sp,256
200093e6:	0000                	unimp
200093e8:	4400                	lw	s0,8(s0)
200093ea:	100e                	c.slli	zero,0x23
200093ec:	8850                	0x8850
200093ee:	9202                	jalr	tp
200093f0:	8104                	0x8104
200093f2:	8901                	andi	a0,a0,0
200093f4:	0a540203          	lb	tp,165(s0)
200093f8:	44c1                	li	s1,16
200093fa:	44c8                	lw	a0,12(s1)
200093fc:	44c9                	li	s1,18
200093fe:	44d2                	lw	s1,20(sp)
20009400:	000e                	c.slli	zero,0x3
20009402:	0b44                	addi	s1,sp,404
20009404:	0a74                	addi	a3,sp,284
20009406:	44c1                	li	s1,16
20009408:	44c8                	lw	a0,12(s1)
2000940a:	44c9                	li	s1,18
2000940c:	44d2                	lw	s1,20(sp)
2000940e:	000e                	c.slli	zero,0x3
20009410:	0b44                	addi	s1,sp,404
20009412:	e002                	fsw	ft0,0(sp)
20009414:	c10a                	sw	sp,128(sp)
20009416:	c844                	sw	s1,20(s0)
20009418:	c944                	sw	s1,20(a0)
2000941a:	d244                	sw	s1,36(a2)
2000941c:	0e48                	addi	a0,sp,788
2000941e:	4400                	lw	s0,8(s0)
20009420:	0000000b          	0xb
20009424:	0050                	addi	a2,sp,4
20009426:	0000                	unimp
20009428:	0908                	addi	a0,sp,144
2000942a:	0000                	unimp
2000942c:	b80c                	fsd	fa1,48(s0)
2000942e:	ffff                	0xffff
20009430:	0454                	addi	a3,sp,516
20009432:	0000                	unimp
20009434:	4400                	lw	s0,8(s0)
20009436:	200e                	fld	ft0,192(sp)
20009438:	9254                	0x9254
2000943a:	8104                	0x8104
2000943c:	8801                	andi	s0,s0,0
2000943e:	8902                	jr	s2
20009440:	03059303          	lh	t1,48(a1) # 200030 <_start-0x1fdfffd0>
20009444:	0250                	addi	a2,sp,260
20009446:	c10a                	sw	sp,128(sp)
20009448:	c844                	sw	s1,20(s0)
2000944a:	c944                	sw	s1,20(a0)
2000944c:	d244                	sw	s1,36(a2)
2000944e:	d344                	sw	s1,36(a4)
20009450:	0e44                	addi	s1,sp,788
20009452:	4400                	lw	s0,8(s0)
20009454:	0ab4020b          	0xab4020b
20009458:	44c1                	li	s1,16
2000945a:	44c8                	lw	a0,12(s1)
2000945c:	44c9                	li	s1,18
2000945e:	44d2                	lw	s1,20(sp)
20009460:	000e48d3          	fadd.s	fa7,ft8,ft0,rmm
20009464:	0b44                	addi	s1,sp,404
20009466:	0a44                	addi	s1,sp,276
20009468:	44c1                	li	s1,16
2000946a:	44c8                	lw	a0,12(s1)
2000946c:	44c9                	li	s1,18
2000946e:	44d2                	lw	s1,20(sp)
20009470:	000e48d3          	fadd.s	fa7,ft8,ft0,rmm
20009474:	0b44                	addi	s1,sp,404
20009476:	0000                	unimp
20009478:	003c                	addi	a5,sp,8
2000947a:	0000                	unimp
2000947c:	095c                	addi	a5,sp,148
2000947e:	0000                	unimp
20009480:	bc0c                	fsd	fa1,56(s0)
20009482:	ffff                	0xffff
20009484:	0208                	addi	a0,sp,256
20009486:	0000                	unimp
20009488:	5000                	lw	s0,32(s0)
2000948a:	200e                	fld	ft0,192(sp)
2000948c:	8858                	0x8858
2000948e:	8902                	jr	s2
20009490:	92018103          	lb	sp,-1760(gp) # 2000a700 <Fs+0xe4>
20009494:	9304                	0x9304
20009496:	9405                	srai	s0,s0,0x21
20009498:	6c06                	flw	fs8,64(sp)
2000949a:	44c1                	li	s1,16
2000949c:	44c8                	lw	a0,12(s1)
2000949e:	44c9                	li	s1,18
200094a0:	44d2                	lw	s1,20(sp)
200094a2:	44d444d3          	0x44d444d3
200094a6:	000e                	c.slli	zero,0x3
200094a8:	0e4c                	addi	a1,sp,788
200094aa:	8120                	0x8120
200094ac:	8801                	andi	s0,s0,0
200094ae:	8902                	jr	s2
200094b0:	93049203          	lh	tp,-1744(s1)
200094b4:	9405                	srai	s0,s0,0x21
200094b6:	0006                	c.slli	zero,0x1
200094b8:	0050                	addi	a2,sp,4
200094ba:	0000                	unimp
200094bc:	099c                	addi	a5,sp,208
200094be:	0000                	unimp
200094c0:	bdd4                	fsd	fa3,184(a1)
200094c2:	ffff                	0xffff
200094c4:	02cc                	addi	a1,sp,324
200094c6:	0000                	unimp
200094c8:	4400                	lw	s0,8(s0)
200094ca:	400e                	0x400e
200094cc:	8844                	0x8844
200094ce:	7402                	flw	fs0,32(sp)
200094d0:	0896                	slli	a7,a7,0x5
200094d2:	01810997          	auipc	s3,0x1810
200094d6:	0389                	addi	t2,t2,2
200094d8:	0492                	slli	s1,s1,0x4
200094da:	06940593          	addi	a1,s0,105
200094de:	0795                	addi	a5,a5,5
200094e0:	0a98                	addi	a4,sp,336
200094e2:	0b99                	addi	s7,s7,6
200094e4:	0c9a                	slli	s9,s9,0x6
200094e6:	44020d9b          	0x44020d9b
200094ea:	c10a                	sw	sp,128(sp)
200094ec:	c844                	sw	s1,20(s0)
200094ee:	c944                	sw	s1,20(a0)
200094f0:	d244                	sw	s1,36(a2)
200094f2:	d344                	sw	s1,36(a4)
200094f4:	d444                	sw	s1,44(s0)
200094f6:	d544                	sw	s1,44(a0)
200094f8:	d644                	sw	s1,44(a2)
200094fa:	d744                	sw	s1,44(a4)
200094fc:	d844                	sw	s1,52(s0)
200094fe:	d944                	sw	s1,52(a0)
20009500:	da44                	sw	s1,52(a2)
20009502:	db44                	sw	s1,52(a4)
20009504:	0e44                	addi	s1,sp,788
20009506:	4400                	lw	s0,8(s0)
20009508:	0000000b          	0xb
2000950c:	0070                	addi	a2,sp,12
2000950e:	0000                	unimp
20009510:	09f0                	addi	a2,sp,220
20009512:	0000                	unimp
20009514:	c04c                	sw	a1,4(s0)
20009516:	ffff                	0xffff
20009518:	0a64                	addi	s1,sp,284
2000951a:	0000                	unimp
2000951c:	4400                	lw	s0,8(s0)
2000951e:	600e                	flw	ft0,192(sp)
20009520:	8878                	0x8878
20009522:	9902                	jalr	s2
20009524:	8901810b          	0x8901810b
20009528:	93049203          	lh	tp,-1744(s1)
2000952c:	9405                	srai	s0,s0,0x21
2000952e:	9506                	add	a0,a0,ra
20009530:	97089607          	0x97089607
20009534:	9809                	andi	s0,s0,-30
20009536:	9a0a                	add	s4,s4,sp
20009538:	9b0c                	0x9b0c
2000953a:	020d                	addi	tp,tp,3
2000953c:	0a48                	addi	a0,sp,276
2000953e:	44c8                	lw	a0,12(s1)
20009540:	44c1                	li	s1,16
20009542:	44c9                	li	s1,18
20009544:	44d2                	lw	s1,20(sp)
20009546:	44d444d3          	0x44d444d3
2000954a:	44d5                	li	s1,21
2000954c:	44d6                	lw	s1,84(sp)
2000954e:	44d844d7          	0x44d844d7
20009552:	44d9                	li	s1,22
20009554:	44da                	lw	s1,148(sp)
20009556:	000e44db          	0xe44db
2000955a:	0b44                	addi	s1,sp,404
2000955c:	cc02                	sw	zero,24(sp)
2000955e:	c10a                	sw	sp,128(sp)
20009560:	c844                	sw	s1,20(s0)
20009562:	c944                	sw	s1,20(a0)
20009564:	d344                	sw	s1,36(a4)
20009566:	d444                	sw	s1,44(s0)
20009568:	d544                	sw	s1,44(a0)
2000956a:	d644                	sw	s1,44(a2)
2000956c:	d744                	sw	s1,44(a4)
2000956e:	d844                	sw	s1,52(s0)
20009570:	d944                	sw	s1,52(a0)
20009572:	da44                	sw	s1,52(a2)
20009574:	db44                	sw	s1,52(a4)
20009576:	d248                	sw	a0,36(a2)
20009578:	0e44                	addi	s1,sp,788
2000957a:	4400                	lw	s0,8(s0)
2000957c:	0000000b          	0xb
20009580:	0034                	addi	a3,sp,8
20009582:	0000                	unimp
20009584:	0a64                	addi	s1,sp,284
20009586:	0000                	unimp
20009588:	ca3c                	sw	a5,80(a2)
2000958a:	ffff                	0xffff
2000958c:	009c                	addi	a5,sp,64
2000958e:	0000                	unimp
20009590:	4400                	lw	s0,8(s0)
20009592:	300e                	fld	ft0,224(sp)
20009594:	8850                	0x8850
20009596:	8102                	jr	sp
20009598:	0201                	addi	tp,tp,0
2000959a:	0a4c                	addi	a1,sp,276
2000959c:	44c1                	li	s1,16
2000959e:	44c8                	lw	a0,12(s1)
200095a0:	000e                	c.slli	zero,0x3
200095a2:	0b44                	addi	s1,sp,404
200095a4:	0a50                	addi	a2,sp,276
200095a6:	44c1                	li	s1,16
200095a8:	44c8                	lw	a0,12(s1)
200095aa:	000e                	c.slli	zero,0x3
200095ac:	0b44                	addi	s1,sp,404
200095ae:	c144                	sw	s1,4(a0)
200095b0:	c844                	sw	s1,20(s0)
200095b2:	0e48                	addi	a0,sp,788
200095b4:	0000                	unimp
200095b6:	0000                	unimp
200095b8:	0038                	addi	a4,sp,8
200095ba:	0000                	unimp
200095bc:	0a9c                	addi	a5,sp,336
200095be:	0000                	unimp
200095c0:	caa0                	sw	s0,80(a3)
200095c2:	ffff                	0xffff
200095c4:	0138                	addi	a4,sp,136
200095c6:	0000                	unimp
200095c8:	4400                	lw	s0,8(s0)
200095ca:	600e                	flw	ft0,192(sp)
200095cc:	8150                	0x8150
200095ce:	8801                	andi	s0,s0,0
200095d0:	8902                	jr	s2
200095d2:	68049203          	lh	tp,1664(s1)
200095d6:	c10a                	sw	sp,128(sp)
200095d8:	c844                	sw	s1,20(s0)
200095da:	c944                	sw	s1,20(a0)
200095dc:	d244                	sw	s1,36(a2)
200095de:	0e44                	addi	s1,sp,788
200095e0:	4400                	lw	s0,8(s0)
200095e2:	0ac0020b          	0xac0020b
200095e6:	44c1                	li	s1,16
200095e8:	44c8                	lw	a0,12(s1)
200095ea:	44c9                	li	s1,18
200095ec:	48d2                	lw	a7,20(sp)
200095ee:	000e                	c.slli	zero,0x3
200095f0:	0b44                	addi	s1,sp,404
200095f2:	0000                	unimp
200095f4:	004c                	addi	a1,sp,4
200095f6:	0000                	unimp
200095f8:	0ad8                	addi	a4,sp,340
200095fa:	0000                	unimp
200095fc:	cb9c                	sw	a5,16(a5)
200095fe:	ffff                	0xffff
20009600:	0298                	addi	a4,sp,320
20009602:	0000                	unimp
20009604:	4400                	lw	s0,8(s0)
20009606:	500e                	0x500e
20009608:	8174                	0x8174
2000960a:	8801                	andi	s0,s0,0
2000960c:	8902                	jr	s2
2000960e:	93049203          	lh	tp,-1744(s1)
20009612:	9405                	srai	s0,s0,0x21
20009614:	9506                	add	a0,a0,ra
20009616:	97089607          	0x97089607
2000961a:	9809                	andi	s0,s0,-30
2000961c:	990a                	add	s2,s2,sp
2000961e:	9b0c9a0b          	0x9b0c9a0b
20009622:	740d                	lui	s0,0xfffe3
20009624:	c10a                	sw	sp,128(sp)
20009626:	c844                	sw	s1,20(s0)
20009628:	c944                	sw	s1,20(a0)
2000962a:	d244                	sw	s1,36(a2)
2000962c:	d344                	sw	s1,36(a4)
2000962e:	d444                	sw	s1,44(s0)
20009630:	d544                	sw	s1,44(a0)
20009632:	d644                	sw	s1,44(a2)
20009634:	d744                	sw	s1,44(a4)
20009636:	d844                	sw	s1,52(s0)
20009638:	d944                	sw	s1,52(a0)
2000963a:	db44                	sw	s1,52(a4)
2000963c:	da48                	sw	a0,52(a2)
2000963e:	0e44                	addi	s1,sp,788
20009640:	4400                	lw	s0,8(s0)
20009642:	0028000b          	0x28000b
20009646:	0000                	unimp
20009648:	0b28                	addi	a0,sp,408
2000964a:	0000                	unimp
2000964c:	cde4                	sw	s1,92(a1)
2000964e:	ffff                	0xffff
20009650:	0070                	addi	a2,sp,12
20009652:	0000                	unimp
20009654:	4c00                	lw	s0,24(s0)
20009656:	100e                	c.slli	zero,0x23
20009658:	8848                	0x8848
2000965a:	8102                	jr	sp
2000965c:	6001                	0x6001
2000965e:	c10a                	sw	sp,128(sp)
20009660:	c844                	sw	s1,20(s0)
20009662:	0e48                	addi	a0,sp,788
20009664:	4400                	lw	s0,8(s0)
20009666:	48c1540b          	0x48c1540b
2000966a:	44c8                	lw	a0,12(s1)
2000966c:	000e                	c.slli	zero,0x3
2000966e:	0000                	unimp
20009670:	0020                	addi	s0,sp,8
20009672:	0000                	unimp
20009674:	0b54                	addi	a3,sp,404
20009676:	0000                	unimp
20009678:	ce28                	sw	a0,88(a2)
2000967a:	ffff                	0xffff
2000967c:	003c                	addi	a5,sp,8
2000967e:	0000                	unimp
20009680:	4400                	lw	s0,8(s0)
20009682:	200e                	fld	ft0,192(sp)
20009684:	814c                	0x814c
20009686:	4c01                	li	s8,0
20009688:	c10a                	sw	sp,128(sp)
2000968a:	0e4c                	addi	a1,sp,788
2000968c:	4400                	lw	s0,8(s0)
2000968e:	48c1440b          	0x48c1440b
20009692:	000e                	c.slli	zero,0x3
20009694:	0020                	addi	s0,sp,8
20009696:	0000                	unimp
20009698:	0b78                	addi	a4,sp,412
2000969a:	0000                	unimp
2000969c:	ce40                	sw	s0,28(a2)
2000969e:	ffff                	0xffff
200096a0:	00c0                	addi	s0,sp,68
200096a2:	0000                	unimp
200096a4:	4400                	lw	s0,8(s0)
200096a6:	600e                	flw	ft0,192(sp)
200096a8:	8154                	0x8154
200096aa:	8801                	andi	s0,s0,0
200096ac:	4c02                	lw	s8,0(sp)
200096ae:	c10a                	sw	sp,128(sp)
200096b0:	c844                	sw	s1,20(s0)
200096b2:	0e44                	addi	s1,sp,788
200096b4:	4400                	lw	s0,8(s0)
200096b6:	004c000b          	0x4c000b
200096ba:	0000                	unimp
200096bc:	0b9c                	addi	a5,sp,464
200096be:	0000                	unimp
200096c0:	cedc                	sw	a5,28(a3)
200096c2:	ffff                	0xffff
200096c4:	0574                	addi	a3,sp,652
200096c6:	0000                	unimp
200096c8:	4400                	lw	s0,8(s0)
200096ca:	600e                	flw	ft0,192(sp)
200096cc:	8174                	0x8174
200096ce:	8801                	andi	s0,s0,0
200096d0:	8902                	jr	s2
200096d2:	93049203          	lh	tp,-1744(s1)
200096d6:	9405                	srai	s0,s0,0x21
200096d8:	9506                	add	a0,a0,ra
200096da:	97089607          	0x97089607
200096de:	9809                	andi	s0,s0,-30
200096e0:	990a                	add	s2,s2,sp
200096e2:	9b0c9a0b          	0x9b0c9a0b
200096e6:	6c0d                	lui	s8,0x3
200096e8:	c10a                	sw	sp,128(sp)
200096ea:	c844                	sw	s1,20(s0)
200096ec:	c944                	sw	s1,20(a0)
200096ee:	d344                	sw	s1,36(a4)
200096f0:	d444                	sw	s1,44(s0)
200096f2:	d544                	sw	s1,44(a0)
200096f4:	d644                	sw	s1,44(a2)
200096f6:	d744                	sw	s1,44(a4)
200096f8:	d844                	sw	s1,52(s0)
200096fa:	d944                	sw	s1,52(a0)
200096fc:	da44                	sw	s1,52(a2)
200096fe:	db44                	sw	s1,52(a4)
20009700:	d248                	sw	a0,36(a2)
20009702:	0e44                	addi	s1,sp,788
20009704:	4400                	lw	s0,8(s0)
20009706:	003c000b          	0x3c000b
2000970a:	0000                	unimp
2000970c:	0bec                	addi	a1,sp,476
2000970e:	0000                	unimp
20009710:	d400                	sw	s0,40(s0)
20009712:	ffff                	0xffff
20009714:	010c                	addi	a1,sp,128
20009716:	0000                	unimp
20009718:	4400                	lw	s0,8(s0)
2000971a:	300e                	fld	ft0,224(sp)
2000971c:	814c                	0x814c
2000971e:	8801                	andi	s0,s0,0
20009720:	8902                	jr	s2
20009722:	c10a6003          	0xc10a6003
20009726:	c848                	sw	a0,20(s0)
20009728:	c944                	sw	s1,20(a0)
2000972a:	0e44                	addi	s1,sp,788
2000972c:	4400                	lw	s0,8(s0)
2000972e:	0a70020b          	0xa70020b
20009732:	44c1                	li	s1,16
20009734:	44c8                	lw	a0,12(s1)
20009736:	44c9                	li	s1,18
20009738:	000e                	c.slli	zero,0x3
2000973a:	0b44                	addi	s1,sp,404
2000973c:	0a54                	addi	a3,sp,276
2000973e:	44c1                	li	s1,16
20009740:	44c8                	lw	a0,12(s1)
20009742:	48c9                	li	a7,18
20009744:	000e                	c.slli	zero,0x3
20009746:	0b44                	addi	s1,sp,404
20009748:	0028                	addi	a0,sp,8
2000974a:	0000                	unimp
2000974c:	0c2c                	addi	a1,sp,536
2000974e:	0000                	unimp
20009750:	d4cc                	sw	a1,44(s1)
20009752:	ffff                	0xffff
20009754:	0070                	addi	a2,sp,12
20009756:	0000                	unimp
20009758:	4c00                	lw	s0,24(s0)
2000975a:	100e                	c.slli	zero,0x23
2000975c:	8848                	0x8848
2000975e:	8102                	jr	sp
20009760:	6001                	0x6001
20009762:	c10a                	sw	sp,128(sp)
20009764:	c844                	sw	s1,20(s0)
20009766:	0e48                	addi	a0,sp,788
20009768:	4400                	lw	s0,8(s0)
2000976a:	48c1540b          	0x48c1540b
2000976e:	44c8                	lw	a0,12(s1)
20009770:	000e                	c.slli	zero,0x3
20009772:	0000                	unimp
20009774:	009c                	addi	a5,sp,64
20009776:	0000                	unimp
20009778:	0c58                	addi	a4,sp,532
2000977a:	0000                	unimp
2000977c:	d510                	sw	a2,40(a0)
2000977e:	ffff                	0xffff
20009780:	0c24                	addi	s1,sp,536
20009782:	0000                	unimp
20009784:	4c00                	lw	s0,24(s0)
20009786:	500e                	0x500e
20009788:	8874                	0x8874
2000978a:	8102                	jr	sp
2000978c:	8901                	andi	a0,a0,0
2000978e:	93049203          	lh	tp,-1744(s1)
20009792:	9405                	srai	s0,s0,0x21
20009794:	9506                	add	a0,a0,ra
20009796:	97089607          	0x97089607
2000979a:	9809                	andi	s0,s0,-30
2000979c:	990a                	add	s2,s2,sp
2000979e:	9b0c9a0b          	0x9b0c9a0b
200097a2:	640d                	lui	s0,0x3
200097a4:	c10a                	sw	sp,128(sp)
200097a6:	c844                	sw	s1,20(s0)
200097a8:	c944                	sw	s1,20(a0)
200097aa:	d244                	sw	s1,36(a2)
200097ac:	d344                	sw	s1,36(a4)
200097ae:	d444                	sw	s1,44(s0)
200097b0:	d544                	sw	s1,44(a0)
200097b2:	d644                	sw	s1,44(a2)
200097b4:	d744                	sw	s1,44(a4)
200097b6:	d844                	sw	s1,52(s0)
200097b8:	d944                	sw	s1,52(a0)
200097ba:	da44                	sw	s1,52(a2)
200097bc:	db44                	sw	s1,52(a4)
200097be:	0e44                	addi	s1,sp,788
200097c0:	4400                	lw	s0,8(s0)
200097c2:	0744030b          	0x744030b
200097c6:	000e                	c.slli	zero,0x3
200097c8:	c8c1                	beqz	s1,20009858 <_global_impure_ptr+0xd3c>
200097ca:	d2c9                	beqz	a3,2000974c <_global_impure_ptr+0xc30>
200097cc:	d6d5d4d3          	0xd6d5d4d3
200097d0:	dad9d8d7          	0xdad9d8d7
200097d4:	500e48db          	0x500e48db
200097d8:	0181                	addi	gp,gp,0
200097da:	0288                	addi	a0,sp,320
200097dc:	0389                	addi	t2,t2,2
200097de:	0492                	slli	s1,s1,0x4
200097e0:	06940593          	addi	a1,s0,105 # 3069 <_start-0x1fffcf97>
200097e4:	0795                	addi	a5,a5,5
200097e6:	0896                	slli	a7,a7,0x5
200097e8:	0a980997          	auipc	s3,0xa980
200097ec:	0b99                	addi	s7,s7,6
200097ee:	0c9a                	slli	s9,s9,0x6
200097f0:	0a480d9b          	0xa480d9b
200097f4:	44c8                	lw	a0,12(s1)
200097f6:	44c1                	li	s1,16
200097f8:	44c9                	li	s1,18
200097fa:	44d2                	lw	s1,20(sp)
200097fc:	44d444d3          	0x44d444d3
20009800:	44d5                	li	s1,21
20009802:	44d6                	lw	s1,84(sp)
20009804:	44d844d7          	0x44d844d7
20009808:	44d9                	li	s1,22
2000980a:	44da                	lw	s1,148(sp)
2000980c:	000e44db          	0xe44db
20009810:	0b44                	addi	s1,sp,404
20009812:	0000                	unimp
20009814:	0010                	0x10
20009816:	0000                	unimp
20009818:	0cf8                	addi	a4,sp,604
2000981a:	0000                	unimp
2000981c:	e094                	fsw	fa3,0(s1)
2000981e:	ffff                	0xffff
20009820:	0078                	addi	a4,sp,12
20009822:	0000                	unimp
20009824:	0000                	unimp
20009826:	0000                	unimp
20009828:	0010                	0x10
2000982a:	0000                	unimp
2000982c:	0d0c                	addi	a1,sp,656
2000982e:	0000                	unimp
20009830:	e0f8                	fsw	fa4,68(s1)
20009832:	ffff                	0xffff
20009834:	0038                	addi	a4,sp,8
20009836:	0000                	unimp
20009838:	0000                	unimp
2000983a:	0000                	unimp
2000983c:	0010                	0x10
2000983e:	0000                	unimp
20009840:	0d20                	addi	s0,sp,664
20009842:	0000                	unimp
20009844:	e11c                	fsw	fa5,0(a0)
20009846:	ffff                	0xffff
20009848:	0158                	addi	a4,sp,132
2000984a:	0000                	unimp
2000984c:	0000                	unimp
2000984e:	0000                	unimp
20009850:	0010                	0x10
20009852:	0000                	unimp
20009854:	0d34                	addi	a3,sp,664
20009856:	0000                	unimp
20009858:	e260                	fsw	fs0,68(a2)
2000985a:	ffff                	0xffff
2000985c:	000c                	0xc
2000985e:	0000                	unimp
20009860:	0000                	unimp
20009862:	0000                	unimp
20009864:	0018                	0x18
20009866:	0000                	unimp
20009868:	0d48                	addi	a0,sp,660
2000986a:	0000                	unimp
2000986c:	e258                	fsw	fa4,4(a2)
2000986e:	ffff                	0xffff
20009870:	0030                	addi	a2,sp,8
20009872:	0000                	unimp
20009874:	5400                	lw	s0,40(s0)
20009876:	100e                	c.slli	zero,0x23
20009878:	8144                	0x8144
2000987a:	4801                	li	a6,0
2000987c:	4cc1                	li	s9,16
2000987e:	000e                	c.slli	zero,0x3
20009880:	0018                	0x18
20009882:	0000                	unimp
20009884:	0d64                	addi	s1,sp,668
20009886:	0000                	unimp
20009888:	e26c                	fsw	fa1,68(a2)
2000988a:	ffff                	0xffff
2000988c:	0040                	addi	s0,sp,4
2000988e:	0000                	unimp
20009890:	5c00                	lw	s0,56(s0)
20009892:	100e                	c.slli	zero,0x23
20009894:	814c                	0x814c
20009896:	4801                	li	a6,0
20009898:	4cc1                	li	s9,16
2000989a:	000e                	c.slli	zero,0x3
2000989c:	0010                	0x10
2000989e:	0000                	unimp
200098a0:	0d80                	addi	s0,sp,720
200098a2:	0000                	unimp
200098a4:	8534                	0x8534
200098a6:	ffff                	0xffff
200098a8:	0430                	addi	a2,sp,520
200098aa:	0000                	unimp
200098ac:	0000                	unimp
	...

Disassembly of section .data:

200098b0 <impure_data>:
200098b0:	0000                	unimp
200098b2:	0000                	unimp
200098b4:	9b9c                	0x9b9c
200098b6:	2000                	fld	fs0,0(s0)
200098b8:	9c04                	0x9c04
200098ba:	2000                	fld	fs0,0(s0)
200098bc:	9c6c                	0x9c6c
200098be:	2000                	fld	fs0,0(s0)
	...
20009958:	0001                	nop
2000995a:	0000                	unimp
2000995c:	0000                	unimp
2000995e:	0000                	unimp
20009960:	330e                	fld	ft6,224(sp)
20009962:	abcd                	j	20009f54 <__malloc_av_+0x27c>
20009964:	1234                	addi	a3,sp,296
20009966:	e66d                	bnez	a2,20009a50 <impure_data+0x1a0>
20009968:	deec                	sw	a1,124(a3)
2000996a:	0005                	c.nop	1
2000996c:	0000000b          	0xb
	...

20009cd8 <__malloc_av_>:
	...
20009ce0:	9cd8                	0x9cd8
20009ce2:	2000                	fld	fs0,0(s0)
20009ce4:	9cd8                	0x9cd8
20009ce6:	2000                	fld	fs0,0(s0)
20009ce8:	9ce0                	0x9ce0
20009cea:	2000                	fld	fs0,0(s0)
20009cec:	9ce0                	0x9ce0
20009cee:	2000                	fld	fs0,0(s0)
20009cf0:	9ce8                	0x9ce8
20009cf2:	2000                	fld	fs0,0(s0)
20009cf4:	9ce8                	0x9ce8
20009cf6:	2000                	fld	fs0,0(s0)
20009cf8:	9cf0                	0x9cf0
20009cfa:	2000                	fld	fs0,0(s0)
20009cfc:	9cf0                	0x9cf0
20009cfe:	2000                	fld	fs0,0(s0)
20009d00:	9cf8                	0x9cf8
20009d02:	2000                	fld	fs0,0(s0)
20009d04:	9cf8                	0x9cf8
20009d06:	2000                	fld	fs0,0(s0)
20009d08:	9d00                	0x9d00
20009d0a:	2000                	fld	fs0,0(s0)
20009d0c:	9d00                	0x9d00
20009d0e:	2000                	fld	fs0,0(s0)
20009d10:	9d08                	0x9d08
20009d12:	2000                	fld	fs0,0(s0)
20009d14:	9d08                	0x9d08
20009d16:	2000                	fld	fs0,0(s0)
20009d18:	9d10                	0x9d10
20009d1a:	2000                	fld	fs0,0(s0)
20009d1c:	9d10                	0x9d10
20009d1e:	2000                	fld	fs0,0(s0)
20009d20:	9d18                	0x9d18
20009d22:	2000                	fld	fs0,0(s0)
20009d24:	9d18                	0x9d18
20009d26:	2000                	fld	fs0,0(s0)
20009d28:	9d20                	0x9d20
20009d2a:	2000                	fld	fs0,0(s0)
20009d2c:	9d20                	0x9d20
20009d2e:	2000                	fld	fs0,0(s0)
20009d30:	9d28                	0x9d28
20009d32:	2000                	fld	fs0,0(s0)
20009d34:	9d28                	0x9d28
20009d36:	2000                	fld	fs0,0(s0)
20009d38:	9d30                	0x9d30
20009d3a:	2000                	fld	fs0,0(s0)
20009d3c:	9d30                	0x9d30
20009d3e:	2000                	fld	fs0,0(s0)
20009d40:	9d38                	0x9d38
20009d42:	2000                	fld	fs0,0(s0)
20009d44:	9d38                	0x9d38
20009d46:	2000                	fld	fs0,0(s0)
20009d48:	9d40                	0x9d40
20009d4a:	2000                	fld	fs0,0(s0)
20009d4c:	9d40                	0x9d40
20009d4e:	2000                	fld	fs0,0(s0)
20009d50:	9d48                	0x9d48
20009d52:	2000                	fld	fs0,0(s0)
20009d54:	9d48                	0x9d48
20009d56:	2000                	fld	fs0,0(s0)
20009d58:	9d50                	0x9d50
20009d5a:	2000                	fld	fs0,0(s0)
20009d5c:	9d50                	0x9d50
20009d5e:	2000                	fld	fs0,0(s0)
20009d60:	9d58                	0x9d58
20009d62:	2000                	fld	fs0,0(s0)
20009d64:	9d58                	0x9d58
20009d66:	2000                	fld	fs0,0(s0)
20009d68:	9d60                	0x9d60
20009d6a:	2000                	fld	fs0,0(s0)
20009d6c:	9d60                	0x9d60
20009d6e:	2000                	fld	fs0,0(s0)
20009d70:	9d68                	0x9d68
20009d72:	2000                	fld	fs0,0(s0)
20009d74:	9d68                	0x9d68
20009d76:	2000                	fld	fs0,0(s0)
20009d78:	9d70                	0x9d70
20009d7a:	2000                	fld	fs0,0(s0)
20009d7c:	9d70                	0x9d70
20009d7e:	2000                	fld	fs0,0(s0)
20009d80:	9d78                	0x9d78
20009d82:	2000                	fld	fs0,0(s0)
20009d84:	9d78                	0x9d78
20009d86:	2000                	fld	fs0,0(s0)
20009d88:	9d80                	0x9d80
20009d8a:	2000                	fld	fs0,0(s0)
20009d8c:	9d80                	0x9d80
20009d8e:	2000                	fld	fs0,0(s0)
20009d90:	9d88                	0x9d88
20009d92:	2000                	fld	fs0,0(s0)
20009d94:	9d88                	0x9d88
20009d96:	2000                	fld	fs0,0(s0)
20009d98:	9d90                	0x9d90
20009d9a:	2000                	fld	fs0,0(s0)
20009d9c:	9d90                	0x9d90
20009d9e:	2000                	fld	fs0,0(s0)
20009da0:	9d98                	0x9d98
20009da2:	2000                	fld	fs0,0(s0)
20009da4:	9d98                	0x9d98
20009da6:	2000                	fld	fs0,0(s0)
20009da8:	9da0                	0x9da0
20009daa:	2000                	fld	fs0,0(s0)
20009dac:	9da0                	0x9da0
20009dae:	2000                	fld	fs0,0(s0)
20009db0:	9da8                	0x9da8
20009db2:	2000                	fld	fs0,0(s0)
20009db4:	9da8                	0x9da8
20009db6:	2000                	fld	fs0,0(s0)
20009db8:	9db0                	0x9db0
20009dba:	2000                	fld	fs0,0(s0)
20009dbc:	9db0                	0x9db0
20009dbe:	2000                	fld	fs0,0(s0)
20009dc0:	9db8                	0x9db8
20009dc2:	2000                	fld	fs0,0(s0)
20009dc4:	9db8                	0x9db8
20009dc6:	2000                	fld	fs0,0(s0)
20009dc8:	9dc0                	0x9dc0
20009dca:	2000                	fld	fs0,0(s0)
20009dcc:	9dc0                	0x9dc0
20009dce:	2000                	fld	fs0,0(s0)
20009dd0:	9dc8                	0x9dc8
20009dd2:	2000                	fld	fs0,0(s0)
20009dd4:	9dc8                	0x9dc8
20009dd6:	2000                	fld	fs0,0(s0)
20009dd8:	9dd0                	0x9dd0
20009dda:	2000                	fld	fs0,0(s0)
20009ddc:	9dd0                	0x9dd0
20009dde:	2000                	fld	fs0,0(s0)
20009de0:	9dd8                	0x9dd8
20009de2:	2000                	fld	fs0,0(s0)
20009de4:	9dd8                	0x9dd8
20009de6:	2000                	fld	fs0,0(s0)
20009de8:	9de0                	0x9de0
20009dea:	2000                	fld	fs0,0(s0)
20009dec:	9de0                	0x9de0
20009dee:	2000                	fld	fs0,0(s0)
20009df0:	9de8                	0x9de8
20009df2:	2000                	fld	fs0,0(s0)
20009df4:	9de8                	0x9de8
20009df6:	2000                	fld	fs0,0(s0)
20009df8:	9df0                	0x9df0
20009dfa:	2000                	fld	fs0,0(s0)
20009dfc:	9df0                	0x9df0
20009dfe:	2000                	fld	fs0,0(s0)
20009e00:	9df8                	0x9df8
20009e02:	2000                	fld	fs0,0(s0)
20009e04:	9df8                	0x9df8
20009e06:	2000                	fld	fs0,0(s0)
20009e08:	9e00                	0x9e00
20009e0a:	2000                	fld	fs0,0(s0)
20009e0c:	9e00                	0x9e00
20009e0e:	2000                	fld	fs0,0(s0)
20009e10:	9e08                	0x9e08
20009e12:	2000                	fld	fs0,0(s0)
20009e14:	9e08                	0x9e08
20009e16:	2000                	fld	fs0,0(s0)
20009e18:	9e10                	0x9e10
20009e1a:	2000                	fld	fs0,0(s0)
20009e1c:	9e10                	0x9e10
20009e1e:	2000                	fld	fs0,0(s0)
20009e20:	9e18                	0x9e18
20009e22:	2000                	fld	fs0,0(s0)
20009e24:	9e18                	0x9e18
20009e26:	2000                	fld	fs0,0(s0)
20009e28:	9e20                	0x9e20
20009e2a:	2000                	fld	fs0,0(s0)
20009e2c:	9e20                	0x9e20
20009e2e:	2000                	fld	fs0,0(s0)
20009e30:	9e28                	0x9e28
20009e32:	2000                	fld	fs0,0(s0)
20009e34:	9e28                	0x9e28
20009e36:	2000                	fld	fs0,0(s0)
20009e38:	9e30                	0x9e30
20009e3a:	2000                	fld	fs0,0(s0)
20009e3c:	9e30                	0x9e30
20009e3e:	2000                	fld	fs0,0(s0)
20009e40:	9e38                	0x9e38
20009e42:	2000                	fld	fs0,0(s0)
20009e44:	9e38                	0x9e38
20009e46:	2000                	fld	fs0,0(s0)
20009e48:	9e40                	0x9e40
20009e4a:	2000                	fld	fs0,0(s0)
20009e4c:	9e40                	0x9e40
20009e4e:	2000                	fld	fs0,0(s0)
20009e50:	9e48                	0x9e48
20009e52:	2000                	fld	fs0,0(s0)
20009e54:	9e48                	0x9e48
20009e56:	2000                	fld	fs0,0(s0)
20009e58:	9e50                	0x9e50
20009e5a:	2000                	fld	fs0,0(s0)
20009e5c:	9e50                	0x9e50
20009e5e:	2000                	fld	fs0,0(s0)
20009e60:	9e58                	0x9e58
20009e62:	2000                	fld	fs0,0(s0)
20009e64:	9e58                	0x9e58
20009e66:	2000                	fld	fs0,0(s0)
20009e68:	9e60                	0x9e60
20009e6a:	2000                	fld	fs0,0(s0)
20009e6c:	9e60                	0x9e60
20009e6e:	2000                	fld	fs0,0(s0)
20009e70:	9e68                	0x9e68
20009e72:	2000                	fld	fs0,0(s0)
20009e74:	9e68                	0x9e68
20009e76:	2000                	fld	fs0,0(s0)
20009e78:	9e70                	0x9e70
20009e7a:	2000                	fld	fs0,0(s0)
20009e7c:	9e70                	0x9e70
20009e7e:	2000                	fld	fs0,0(s0)
20009e80:	9e78                	0x9e78
20009e82:	2000                	fld	fs0,0(s0)
20009e84:	9e78                	0x9e78
20009e86:	2000                	fld	fs0,0(s0)
20009e88:	9e80                	0x9e80
20009e8a:	2000                	fld	fs0,0(s0)
20009e8c:	9e80                	0x9e80
20009e8e:	2000                	fld	fs0,0(s0)
20009e90:	9e88                	0x9e88
20009e92:	2000                	fld	fs0,0(s0)
20009e94:	9e88                	0x9e88
20009e96:	2000                	fld	fs0,0(s0)
20009e98:	9e90                	0x9e90
20009e9a:	2000                	fld	fs0,0(s0)
20009e9c:	9e90                	0x9e90
20009e9e:	2000                	fld	fs0,0(s0)
20009ea0:	9e98                	0x9e98
20009ea2:	2000                	fld	fs0,0(s0)
20009ea4:	9e98                	0x9e98
20009ea6:	2000                	fld	fs0,0(s0)
20009ea8:	9ea0                	0x9ea0
20009eaa:	2000                	fld	fs0,0(s0)
20009eac:	9ea0                	0x9ea0
20009eae:	2000                	fld	fs0,0(s0)
20009eb0:	9ea8                	0x9ea8
20009eb2:	2000                	fld	fs0,0(s0)
20009eb4:	9ea8                	0x9ea8
20009eb6:	2000                	fld	fs0,0(s0)
20009eb8:	9eb0                	0x9eb0
20009eba:	2000                	fld	fs0,0(s0)
20009ebc:	9eb0                	0x9eb0
20009ebe:	2000                	fld	fs0,0(s0)
20009ec0:	9eb8                	0x9eb8
20009ec2:	2000                	fld	fs0,0(s0)
20009ec4:	9eb8                	0x9eb8
20009ec6:	2000                	fld	fs0,0(s0)
20009ec8:	9ec0                	0x9ec0
20009eca:	2000                	fld	fs0,0(s0)
20009ecc:	9ec0                	0x9ec0
20009ece:	2000                	fld	fs0,0(s0)
20009ed0:	9ec8                	0x9ec8
20009ed2:	2000                	fld	fs0,0(s0)
20009ed4:	9ec8                	0x9ec8
20009ed6:	2000                	fld	fs0,0(s0)
20009ed8:	9ed0                	0x9ed0
20009eda:	2000                	fld	fs0,0(s0)
20009edc:	9ed0                	0x9ed0
20009ede:	2000                	fld	fs0,0(s0)
20009ee0:	9ed8                	0x9ed8
20009ee2:	2000                	fld	fs0,0(s0)
20009ee4:	9ed8                	0x9ed8
20009ee6:	2000                	fld	fs0,0(s0)
20009ee8:	9ee0                	0x9ee0
20009eea:	2000                	fld	fs0,0(s0)
20009eec:	9ee0                	0x9ee0
20009eee:	2000                	fld	fs0,0(s0)
20009ef0:	9ee8                	0x9ee8
20009ef2:	2000                	fld	fs0,0(s0)
20009ef4:	9ee8                	0x9ee8
20009ef6:	2000                	fld	fs0,0(s0)
20009ef8:	9ef0                	0x9ef0
20009efa:	2000                	fld	fs0,0(s0)
20009efc:	9ef0                	0x9ef0
20009efe:	2000                	fld	fs0,0(s0)
20009f00:	9ef8                	0x9ef8
20009f02:	2000                	fld	fs0,0(s0)
20009f04:	9ef8                	0x9ef8
20009f06:	2000                	fld	fs0,0(s0)
20009f08:	9f00                	0x9f00
20009f0a:	2000                	fld	fs0,0(s0)
20009f0c:	9f00                	0x9f00
20009f0e:	2000                	fld	fs0,0(s0)
20009f10:	9f08                	0x9f08
20009f12:	2000                	fld	fs0,0(s0)
20009f14:	9f08                	0x9f08
20009f16:	2000                	fld	fs0,0(s0)
20009f18:	9f10                	0x9f10
20009f1a:	2000                	fld	fs0,0(s0)
20009f1c:	9f10                	0x9f10
20009f1e:	2000                	fld	fs0,0(s0)
20009f20:	9f18                	0x9f18
20009f22:	2000                	fld	fs0,0(s0)
20009f24:	9f18                	0x9f18
20009f26:	2000                	fld	fs0,0(s0)
20009f28:	9f20                	0x9f20
20009f2a:	2000                	fld	fs0,0(s0)
20009f2c:	9f20                	0x9f20
20009f2e:	2000                	fld	fs0,0(s0)
20009f30:	9f28                	0x9f28
20009f32:	2000                	fld	fs0,0(s0)
20009f34:	9f28                	0x9f28
20009f36:	2000                	fld	fs0,0(s0)
20009f38:	9f30                	0x9f30
20009f3a:	2000                	fld	fs0,0(s0)
20009f3c:	9f30                	0x9f30
20009f3e:	2000                	fld	fs0,0(s0)
20009f40:	9f38                	0x9f38
20009f42:	2000                	fld	fs0,0(s0)
20009f44:	9f38                	0x9f38
20009f46:	2000                	fld	fs0,0(s0)
20009f48:	9f40                	0x9f40
20009f4a:	2000                	fld	fs0,0(s0)
20009f4c:	9f40                	0x9f40
20009f4e:	2000                	fld	fs0,0(s0)
20009f50:	9f48                	0x9f48
20009f52:	2000                	fld	fs0,0(s0)
20009f54:	9f48                	0x9f48
20009f56:	2000                	fld	fs0,0(s0)
20009f58:	9f50                	0x9f50
20009f5a:	2000                	fld	fs0,0(s0)
20009f5c:	9f50                	0x9f50
20009f5e:	2000                	fld	fs0,0(s0)
20009f60:	9f58                	0x9f58
20009f62:	2000                	fld	fs0,0(s0)
20009f64:	9f58                	0x9f58
20009f66:	2000                	fld	fs0,0(s0)
20009f68:	9f60                	0x9f60
20009f6a:	2000                	fld	fs0,0(s0)
20009f6c:	9f60                	0x9f60
20009f6e:	2000                	fld	fs0,0(s0)
20009f70:	9f68                	0x9f68
20009f72:	2000                	fld	fs0,0(s0)
20009f74:	9f68                	0x9f68
20009f76:	2000                	fld	fs0,0(s0)
20009f78:	9f70                	0x9f70
20009f7a:	2000                	fld	fs0,0(s0)
20009f7c:	9f70                	0x9f70
20009f7e:	2000                	fld	fs0,0(s0)
20009f80:	9f78                	0x9f78
20009f82:	2000                	fld	fs0,0(s0)
20009f84:	9f78                	0x9f78
20009f86:	2000                	fld	fs0,0(s0)
20009f88:	9f80                	0x9f80
20009f8a:	2000                	fld	fs0,0(s0)
20009f8c:	9f80                	0x9f80
20009f8e:	2000                	fld	fs0,0(s0)
20009f90:	9f88                	0x9f88
20009f92:	2000                	fld	fs0,0(s0)
20009f94:	9f88                	0x9f88
20009f96:	2000                	fld	fs0,0(s0)
20009f98:	9f90                	0x9f90
20009f9a:	2000                	fld	fs0,0(s0)
20009f9c:	9f90                	0x9f90
20009f9e:	2000                	fld	fs0,0(s0)
20009fa0:	9f98                	0x9f98
20009fa2:	2000                	fld	fs0,0(s0)
20009fa4:	9f98                	0x9f98
20009fa6:	2000                	fld	fs0,0(s0)
20009fa8:	9fa0                	0x9fa0
20009faa:	2000                	fld	fs0,0(s0)
20009fac:	9fa0                	0x9fa0
20009fae:	2000                	fld	fs0,0(s0)
20009fb0:	9fa8                	0x9fa8
20009fb2:	2000                	fld	fs0,0(s0)
20009fb4:	9fa8                	0x9fa8
20009fb6:	2000                	fld	fs0,0(s0)
20009fb8:	9fb0                	0x9fb0
20009fba:	2000                	fld	fs0,0(s0)
20009fbc:	9fb0                	0x9fb0
20009fbe:	2000                	fld	fs0,0(s0)
20009fc0:	9fb8                	0x9fb8
20009fc2:	2000                	fld	fs0,0(s0)
20009fc4:	9fb8                	0x9fb8
20009fc6:	2000                	fld	fs0,0(s0)
20009fc8:	9fc0                	0x9fc0
20009fca:	2000                	fld	fs0,0(s0)
20009fcc:	9fc0                	0x9fc0
20009fce:	2000                	fld	fs0,0(s0)
20009fd0:	9fc8                	0x9fc8
20009fd2:	2000                	fld	fs0,0(s0)
20009fd4:	9fc8                	0x9fc8
20009fd6:	2000                	fld	fs0,0(s0)
20009fd8:	9fd0                	0x9fd0
20009fda:	2000                	fld	fs0,0(s0)
20009fdc:	9fd0                	0x9fd0
20009fde:	2000                	fld	fs0,0(s0)
20009fe0:	9fd8                	0x9fd8
20009fe2:	2000                	fld	fs0,0(s0)
20009fe4:	9fd8                	0x9fd8
20009fe6:	2000                	fld	fs0,0(s0)
20009fe8:	9fe0                	0x9fe0
20009fea:	2000                	fld	fs0,0(s0)
20009fec:	9fe0                	0x9fe0
20009fee:	2000                	fld	fs0,0(s0)
20009ff0:	9fe8                	0x9fe8
20009ff2:	2000                	fld	fs0,0(s0)
20009ff4:	9fe8                	0x9fe8
20009ff6:	2000                	fld	fs0,0(s0)
20009ff8:	9ff0                	0x9ff0
20009ffa:	2000                	fld	fs0,0(s0)
20009ffc:	9ff0                	0x9ff0
20009ffe:	2000                	fld	fs0,0(s0)
2000a000:	9ff8                	0x9ff8
2000a002:	2000                	fld	fs0,0(s0)
2000a004:	9ff8                	0x9ff8
2000a006:	2000                	fld	fs0,0(s0)
2000a008:	a000                	fsd	fs0,0(s0)
2000a00a:	2000                	fld	fs0,0(s0)
2000a00c:	a000                	fsd	fs0,0(s0)
2000a00e:	2000                	fld	fs0,0(s0)
2000a010:	a008                	fsd	fa0,0(s0)
2000a012:	2000                	fld	fs0,0(s0)
2000a014:	a008                	fsd	fa0,0(s0)
2000a016:	2000                	fld	fs0,0(s0)
2000a018:	a010                	fsd	fa2,0(s0)
2000a01a:	2000                	fld	fs0,0(s0)
2000a01c:	a010                	fsd	fa2,0(s0)
2000a01e:	2000                	fld	fs0,0(s0)
2000a020:	a018                	fsd	fa4,0(s0)
2000a022:	2000                	fld	fs0,0(s0)
2000a024:	a018                	fsd	fa4,0(s0)
2000a026:	2000                	fld	fs0,0(s0)
2000a028:	a020                	fsd	fs0,64(s0)
2000a02a:	2000                	fld	fs0,0(s0)
2000a02c:	a020                	fsd	fs0,64(s0)
2000a02e:	2000                	fld	fs0,0(s0)
2000a030:	a028                	fsd	fa0,64(s0)
2000a032:	2000                	fld	fs0,0(s0)
2000a034:	a028                	fsd	fa0,64(s0)
2000a036:	2000                	fld	fs0,0(s0)
2000a038:	a030                	fsd	fa2,64(s0)
2000a03a:	2000                	fld	fs0,0(s0)
2000a03c:	a030                	fsd	fa2,64(s0)
2000a03e:	2000                	fld	fs0,0(s0)
2000a040:	a038                	fsd	fa4,64(s0)
2000a042:	2000                	fld	fs0,0(s0)
2000a044:	a038                	fsd	fa4,64(s0)
2000a046:	2000                	fld	fs0,0(s0)
2000a048:	a040                	fsd	fs0,128(s0)
2000a04a:	2000                	fld	fs0,0(s0)
2000a04c:	a040                	fsd	fs0,128(s0)
2000a04e:	2000                	fld	fs0,0(s0)
2000a050:	a048                	fsd	fa0,128(s0)
2000a052:	2000                	fld	fs0,0(s0)
2000a054:	a048                	fsd	fa0,128(s0)
2000a056:	2000                	fld	fs0,0(s0)
2000a058:	a050                	fsd	fa2,128(s0)
2000a05a:	2000                	fld	fs0,0(s0)
2000a05c:	a050                	fsd	fa2,128(s0)
2000a05e:	2000                	fld	fs0,0(s0)
2000a060:	a058                	fsd	fa4,128(s0)
2000a062:	2000                	fld	fs0,0(s0)
2000a064:	a058                	fsd	fa4,128(s0)
2000a066:	2000                	fld	fs0,0(s0)
2000a068:	a060                	fsd	fs0,192(s0)
2000a06a:	2000                	fld	fs0,0(s0)
2000a06c:	a060                	fsd	fs0,192(s0)
2000a06e:	2000                	fld	fs0,0(s0)
2000a070:	a068                	fsd	fa0,192(s0)
2000a072:	2000                	fld	fs0,0(s0)
2000a074:	a068                	fsd	fa0,192(s0)
2000a076:	2000                	fld	fs0,0(s0)
2000a078:	a070                	fsd	fa2,192(s0)
2000a07a:	2000                	fld	fs0,0(s0)
2000a07c:	a070                	fsd	fa2,192(s0)
2000a07e:	2000                	fld	fs0,0(s0)
2000a080:	a078                	fsd	fa4,192(s0)
2000a082:	2000                	fld	fs0,0(s0)
2000a084:	a078                	fsd	fa4,192(s0)
2000a086:	2000                	fld	fs0,0(s0)
2000a088:	a080                	fsd	fs0,0(s1)
2000a08a:	2000                	fld	fs0,0(s0)
2000a08c:	a080                	fsd	fs0,0(s1)
2000a08e:	2000                	fld	fs0,0(s0)
2000a090:	a088                	fsd	fa0,0(s1)
2000a092:	2000                	fld	fs0,0(s0)
2000a094:	a088                	fsd	fa0,0(s1)
2000a096:	2000                	fld	fs0,0(s0)
2000a098:	a090                	fsd	fa2,0(s1)
2000a09a:	2000                	fld	fs0,0(s0)
2000a09c:	a090                	fsd	fa2,0(s1)
2000a09e:	2000                	fld	fs0,0(s0)
2000a0a0:	a098                	fsd	fa4,0(s1)
2000a0a2:	2000                	fld	fs0,0(s0)
2000a0a4:	a098                	fsd	fa4,0(s1)
2000a0a6:	2000                	fld	fs0,0(s0)
2000a0a8:	a0a0                	fsd	fs0,64(s1)
2000a0aa:	2000                	fld	fs0,0(s0)
2000a0ac:	a0a0                	fsd	fs0,64(s1)
2000a0ae:	2000                	fld	fs0,0(s0)
2000a0b0:	a0a8                	fsd	fa0,64(s1)
2000a0b2:	2000                	fld	fs0,0(s0)
2000a0b4:	a0a8                	fsd	fa0,64(s1)
2000a0b6:	2000                	fld	fs0,0(s0)
2000a0b8:	a0b0                	fsd	fa2,64(s1)
2000a0ba:	2000                	fld	fs0,0(s0)
2000a0bc:	a0b0                	fsd	fa2,64(s1)
2000a0be:	2000                	fld	fs0,0(s0)
2000a0c0:	a0b8                	fsd	fa4,64(s1)
2000a0c2:	2000                	fld	fs0,0(s0)
2000a0c4:	a0b8                	fsd	fa4,64(s1)
2000a0c6:	2000                	fld	fs0,0(s0)
2000a0c8:	a0c0                	fsd	fs0,128(s1)
2000a0ca:	2000                	fld	fs0,0(s0)
2000a0cc:	a0c0                	fsd	fs0,128(s1)
2000a0ce:	2000                	fld	fs0,0(s0)
2000a0d0:	a0c8                	fsd	fa0,128(s1)
2000a0d2:	2000                	fld	fs0,0(s0)
2000a0d4:	a0c8                	fsd	fa0,128(s1)
2000a0d6:	2000                	fld	fs0,0(s0)
2000a0d8:	a0d0                	fsd	fa2,128(s1)
2000a0da:	2000                	fld	fs0,0(s0)
2000a0dc:	a0d0                	fsd	fa2,128(s1)
2000a0de:	2000                	fld	fs0,0(s0)

2000a0e0 <_ZL10currentdir>:
2000a0e0:	003a6473          	csrrsi	s0,fcsr,20
	...

2000a2e0 <keyboardringbuffer>:
2000a2e0:	0000                	unimp
2000a2e2:	8001                	c.srli64	s0

2000a2e4 <FRtoString>:
2000a2e4:	8184                	0x8184
2000a2e6:	2000                	fld	fs0,0(s0)
2000a2e8:	8190                	0x8190
2000a2ea:	2000                	fld	fs0,0(s0)
2000a2ec:	81c8                	0x81c8
2000a2ee:	2000                	fld	fs0,0(s0)
2000a2f0:	81dc                	0x81dc
2000a2f2:	2000                	fld	fs0,0(s0)
2000a2f4:	81fc                	0x81fc
2000a2f6:	2000                	fld	fs0,0(s0)
2000a2f8:	8218                	0x8218
2000a2fa:	2000                	fld	fs0,0(s0)
2000a2fc:	8234                	0x8234
2000a2fe:	2000                	fld	fs0,0(s0)
2000a300:	8258                	0x8258
2000a302:	2000                	fld	fs0,0(s0)
2000a304:	8294                	0x8294
2000a306:	2000                	fld	fs0,0(s0)
2000a308:	82bc                	0x82bc
2000a30a:	2000                	fld	fs0,0(s0)
2000a30c:	82e4                	0x82e4
2000a30e:	2000                	fld	fs0,0(s0)
2000a310:	830c                	0x830c
2000a312:	2000                	fld	fs0,0(s0)
2000a314:	8334                	0x8334
2000a316:	2000                	fld	fs0,0(s0)
2000a318:	8354                	0x8354
2000a31a:	2000                	fld	fs0,0(s0)
2000a31c:	8374                	0x8374
2000a31e:	2000                	fld	fs0,0(s0)
2000a320:	83a0                	0x83a0
2000a322:	2000                	fld	fs0,0(s0)
2000a324:	83e4                	0x83e4
2000a326:	2000                	fld	fs0,0(s0)
2000a328:	8424                	0x8424
2000a32a:	2000                	fld	fs0,0(s0)
2000a32c:	8450                	0x8450
2000a32e:	2000                	fld	fs0,0(s0)
2000a330:	8474                	0x8474
2000a332:	2000                	fld	fs0,0(s0)

2000a334 <IO_UARTRX>:
2000a334:	1000                	addi	s0,sp,32
2000a336:	8000                	0x8000

2000a338 <IO_UARTStatus>:
2000a338:	1008                	addi	a0,sp,32
2000a33a:	8000                	0x8000

2000a33c <IO_UARTTX>:
2000a33c:	1004                	addi	s1,sp,32
2000a33e:	8000                	0x8000

2000a340 <_ZL10heap_start>:
2000a340:	0000                	unimp
2000a342:	1000                	addi	s0,sp,32

2000a344 <IO_SPIRXTX>:
2000a344:	1010                	addi	a2,sp,32
2000a346:	8000                	0x8000

2000a348 <m_readOffset>:
2000a348:	0400                	addi	s0,sp,512
2000a34a:	8001                	c.srli64	s0

2000a34c <m_writeOffset>:
2000a34c:	0408                	addi	a0,sp,512
2000a34e:	8001                	c.srli64	s0

2000a350 <PS2KEYBOARDDATA>:
2000a350:	1020                	addi	s0,sp,40
2000a352:	8000                	0x8000

2000a354 <PS2KEYBOARDDATAAVAIL>:
2000a354:	1028                	addi	a0,sp,40
2000a356:	8000                	0x8000

2000a358 <scantoasciitable_lowercase>:
2000a358:	2020                	fld	fs0,64(s0)
2000a35a:	2020                	fld	fs0,64(s0)
2000a35c:	2020                	fld	fs0,64(s0)
2000a35e:	2020                	fld	fs0,64(s0)
2000a360:	2020                	fld	fs0,64(s0)
2000a362:	2020                	fld	fs0,64(s0)
2000a364:	0b20                	addi	s0,sp,408
2000a366:	2060                	fld	fs0,192(s0)
2000a368:	2020                	fld	fs0,64(s0)
2000a36a:	2020                	fld	fs0,64(s0)
2000a36c:	7120                	flw	fs0,96(a0)
2000a36e:	2031                	jal	2000a37a <scantoasciitable_lowercase+0x22>
2000a370:	2020                	fld	fs0,64(s0)
2000a372:	737a                	flw	ft6,188(sp)
2000a374:	7761                	lui	a4,0xffff8
2000a376:	2032                	fld	ft0,264(sp)
2000a378:	6320                	flw	fs0,64(a4)
2000a37a:	6478                	flw	fa4,76(s0)
2000a37c:	3465                	jal	20009e24 <__malloc_av_+0x14c>
2000a37e:	20202033          	sh1add	zero,zero,sp
2000a382:	6676                	flw	fa2,92(sp)
2000a384:	7274                	flw	fa3,100(a2)
2000a386:	2035                	jal	2000a3b2 <scantoasciitable_lowercase+0x5a>
2000a388:	6e20                	flw	fs0,88(a2)
2000a38a:	6862                	flw	fa6,24(sp)
2000a38c:	20367967          	0x20367967
2000a390:	2020                	fld	fs0,64(s0)
2000a392:	6a6d                	lui	s4,0x1b
2000a394:	3775                	jal	2000a340 <_ZL10heap_start>
2000a396:	2038                	fld	fa4,64(s0)
2000a398:	2c20                	fld	fs0,88(s0)
2000a39a:	306f696b          	0x306f696b
2000a39e:	2039                	jal	2000a3ac <scantoasciitable_lowercase+0x54>
2000a3a0:	2e20                	fld	fs0,88(a2)
2000a3a2:	703b6c2f          	0x703b6c2f
2000a3a6:	202d                	jal	2000a3d0 <scantoasciitable_lowercase+0x78>
2000a3a8:	2020                	fld	fs0,64(s0)
2000a3aa:	3d5b2027          	fsw	fs5,960(s6) # 1b3c0 <_start-0x1ffe4c40>
2000a3ae:	2020                	fld	fs0,64(s0)
2000a3b0:	2020                	fld	fs0,64(s0)
2000a3b2:	5d0d                	li	s10,-29
2000a3b4:	5c20                	lw	s0,120(s0)
2000a3b6:	2020                	fld	fs0,64(s0)
2000a3b8:	2020                	fld	fs0,64(s0)
2000a3ba:	2020                	fld	fs0,64(s0)
2000a3bc:	2020                	fld	fs0,64(s0)
2000a3be:	2008                	fld	fa0,0(s0)
2000a3c0:	2020                	fld	fs0,64(s0)
2000a3c2:	2020                	fld	fs0,64(s0)
2000a3c4:	2020                	fld	fs0,64(s0)
2000a3c6:	2020                	fld	fs0,64(s0)
2000a3c8:	2020                	fld	fs0,64(s0)
2000a3ca:	2020                	fld	fs0,64(s0)
2000a3cc:	2020                	fld	fs0,64(s0)
2000a3ce:	2020201b          	0x2020201b
2000a3d2:	2020                	fld	fs0,64(s0)
2000a3d4:	2020                	fld	fs0,64(s0)
2000a3d6:	2020                	fld	fs0,64(s0)
2000a3d8:	2020                	fld	fs0,64(s0)
2000a3da:	2020                	fld	fs0,64(s0)
2000a3dc:	2020                	fld	fs0,64(s0)
2000a3de:	2020                	fld	fs0,64(s0)
2000a3e0:	2020                	fld	fs0,64(s0)
2000a3e2:	2020                	fld	fs0,64(s0)
2000a3e4:	2020                	fld	fs0,64(s0)
2000a3e6:	2020                	fld	fs0,64(s0)
2000a3e8:	2020                	fld	fs0,64(s0)
2000a3ea:	2020                	fld	fs0,64(s0)
2000a3ec:	2020                	fld	fs0,64(s0)
2000a3ee:	2020                	fld	fs0,64(s0)
2000a3f0:	2020                	fld	fs0,64(s0)
2000a3f2:	2020                	fld	fs0,64(s0)
2000a3f4:	2020                	fld	fs0,64(s0)
2000a3f6:	2020                	fld	fs0,64(s0)
2000a3f8:	2020                	fld	fs0,64(s0)
2000a3fa:	2020                	fld	fs0,64(s0)
2000a3fc:	2020                	fld	fs0,64(s0)
2000a3fe:	2020                	fld	fs0,64(s0)
2000a400:	2020                	fld	fs0,64(s0)
2000a402:	2020                	fld	fs0,64(s0)
2000a404:	2020                	fld	fs0,64(s0)
2000a406:	2020                	fld	fs0,64(s0)
2000a408:	2020                	fld	fs0,64(s0)
2000a40a:	2020                	fld	fs0,64(s0)
2000a40c:	2020                	fld	fs0,64(s0)
2000a40e:	2020                	fld	fs0,64(s0)
2000a410:	2020                	fld	fs0,64(s0)
2000a412:	2020                	fld	fs0,64(s0)
2000a414:	2020                	fld	fs0,64(s0)
2000a416:	2020                	fld	fs0,64(s0)
2000a418:	2020                	fld	fs0,64(s0)
2000a41a:	2020                	fld	fs0,64(s0)
2000a41c:	2020                	fld	fs0,64(s0)
2000a41e:	2020                	fld	fs0,64(s0)
2000a420:	2020                	fld	fs0,64(s0)
2000a422:	2020                	fld	fs0,64(s0)
2000a424:	2020                	fld	fs0,64(s0)
2000a426:	2020                	fld	fs0,64(s0)
2000a428:	2020                	fld	fs0,64(s0)
2000a42a:	2020                	fld	fs0,64(s0)
2000a42c:	2020                	fld	fs0,64(s0)
2000a42e:	2020                	fld	fs0,64(s0)
2000a430:	2020                	fld	fs0,64(s0)
2000a432:	2020                	fld	fs0,64(s0)
2000a434:	2020                	fld	fs0,64(s0)
2000a436:	2020                	fld	fs0,64(s0)
2000a438:	2020                	fld	fs0,64(s0)
2000a43a:	2020                	fld	fs0,64(s0)
2000a43c:	2020                	fld	fs0,64(s0)
2000a43e:	2020                	fld	fs0,64(s0)
2000a440:	2020                	fld	fs0,64(s0)
2000a442:	2020                	fld	fs0,64(s0)
2000a444:	2020                	fld	fs0,64(s0)
2000a446:	2020                	fld	fs0,64(s0)
2000a448:	2020                	fld	fs0,64(s0)
2000a44a:	2020                	fld	fs0,64(s0)
2000a44c:	2020                	fld	fs0,64(s0)
2000a44e:	2020                	fld	fs0,64(s0)
2000a450:	2020                	fld	fs0,64(s0)
2000a452:	2020                	fld	fs0,64(s0)
2000a454:	2020                	fld	fs0,64(s0)
2000a456:	2020                	fld	fs0,64(s0)

2000a458 <scantoasciitable_uppercase>:
2000a458:	2020                	fld	fs0,64(s0)
2000a45a:	2020                	fld	fs0,64(s0)
2000a45c:	2020                	fld	fs0,64(s0)
2000a45e:	2020                	fld	fs0,64(s0)
2000a460:	2020                	fld	fs0,64(s0)
2000a462:	2020                	fld	fs0,64(s0)
2000a464:	0b20                	addi	s0,sp,408
2000a466:	2060                	fld	fs0,192(s0)
2000a468:	2020                	fld	fs0,64(s0)
2000a46a:	2020                	fld	fs0,64(s0)
2000a46c:	5120                	lw	s0,96(a0)
2000a46e:	2021                	jal	2000a476 <scantoasciitable_uppercase+0x1e>
2000a470:	2020                	fld	fs0,64(s0)
2000a472:	535a                	lw	t1,180(sp)
2000a474:	5741                	li	a4,-16
2000a476:	2040                	fld	fs0,128(s0)
2000a478:	4320                	lw	s0,64(a4)
2000a47a:	4458                	lw	a4,12(s0)
2000a47c:	2445                	jal	2000a71c <Fs+0x100>
2000a47e:	20202023          	sw	sp,512(zero) # 200 <_start-0x1ffffe00>
2000a482:	4656                	lw	a2,84(sp)
2000a484:	5254                	lw	a3,36(a2)
2000a486:	2025                	jal	2000a4ae <scantoasciitable_uppercase+0x56>
2000a488:	4e20                	lw	s0,88(a2)
2000a48a:	4842                	lw	a6,16(sp)
2000a48c:	205e5947          	fmsub.s	fs2,ft8,ft5,ft4,unknown
2000a490:	2020                	fld	fs0,64(s0)
2000a492:	4a4d                	li	s4,19
2000a494:	3755                	jal	2000a438 <scantoasciitable_lowercase+0xe0>
2000a496:	202a                	fld	ft0,136(sp)
2000a498:	3c20                	fld	fs0,120(s0)
2000a49a:	294f494b          	fnmsub.s	fs2,ft10,fs4,ft5,rmm
2000a49e:	2028                	fld	fa0,64(s0)
2000a4a0:	3e20                	fld	fs0,120(a2)
2000a4a2:	503a6c3f 2020205f 	0x2020205f503a6c3f
2000a4aa:	2022                	fld	ft0,8(sp)
2000a4ac:	20202b7b          	0x20202b7b
2000a4b0:	2020                	fld	fs0,64(s0)
2000a4b2:	7d0d                	lui	s10,0xfffe3
2000a4b4:	7c20                	flw	fs0,120(s0)
2000a4b6:	2020                	fld	fs0,64(s0)
2000a4b8:	2020                	fld	fs0,64(s0)
2000a4ba:	2020                	fld	fs0,64(s0)
2000a4bc:	2020                	fld	fs0,64(s0)
2000a4be:	2008                	fld	fa0,0(s0)
2000a4c0:	2020                	fld	fs0,64(s0)
2000a4c2:	2020                	fld	fs0,64(s0)
2000a4c4:	2020                	fld	fs0,64(s0)
2000a4c6:	2020                	fld	fs0,64(s0)
2000a4c8:	2020                	fld	fs0,64(s0)
2000a4ca:	2020                	fld	fs0,64(s0)
2000a4cc:	2020                	fld	fs0,64(s0)
2000a4ce:	2020201b          	0x2020201b
2000a4d2:	2020                	fld	fs0,64(s0)
2000a4d4:	2020                	fld	fs0,64(s0)
2000a4d6:	2020                	fld	fs0,64(s0)
2000a4d8:	2020                	fld	fs0,64(s0)
2000a4da:	2020                	fld	fs0,64(s0)
2000a4dc:	2020                	fld	fs0,64(s0)
2000a4de:	2020                	fld	fs0,64(s0)
2000a4e0:	2020                	fld	fs0,64(s0)
2000a4e2:	2020                	fld	fs0,64(s0)
2000a4e4:	2020                	fld	fs0,64(s0)
2000a4e6:	2020                	fld	fs0,64(s0)
2000a4e8:	2020                	fld	fs0,64(s0)
2000a4ea:	2020                	fld	fs0,64(s0)
2000a4ec:	2020                	fld	fs0,64(s0)
2000a4ee:	2020                	fld	fs0,64(s0)
2000a4f0:	2020                	fld	fs0,64(s0)
2000a4f2:	2020                	fld	fs0,64(s0)
2000a4f4:	2020                	fld	fs0,64(s0)
2000a4f6:	2020                	fld	fs0,64(s0)
2000a4f8:	2020                	fld	fs0,64(s0)
2000a4fa:	2020                	fld	fs0,64(s0)
2000a4fc:	2020                	fld	fs0,64(s0)
2000a4fe:	2020                	fld	fs0,64(s0)
2000a500:	2020                	fld	fs0,64(s0)
2000a502:	2020                	fld	fs0,64(s0)
2000a504:	2020                	fld	fs0,64(s0)
2000a506:	2020                	fld	fs0,64(s0)
2000a508:	2020                	fld	fs0,64(s0)
2000a50a:	2020                	fld	fs0,64(s0)
2000a50c:	2020                	fld	fs0,64(s0)
2000a50e:	2020                	fld	fs0,64(s0)
2000a510:	2020                	fld	fs0,64(s0)
2000a512:	2020                	fld	fs0,64(s0)
2000a514:	2020                	fld	fs0,64(s0)
2000a516:	2020                	fld	fs0,64(s0)
2000a518:	2020                	fld	fs0,64(s0)
2000a51a:	2020                	fld	fs0,64(s0)
2000a51c:	2020                	fld	fs0,64(s0)
2000a51e:	2020                	fld	fs0,64(s0)
2000a520:	2020                	fld	fs0,64(s0)
2000a522:	2020                	fld	fs0,64(s0)
2000a524:	2020                	fld	fs0,64(s0)
2000a526:	2020                	fld	fs0,64(s0)
2000a528:	2020                	fld	fs0,64(s0)
2000a52a:	2020                	fld	fs0,64(s0)
2000a52c:	2020                	fld	fs0,64(s0)
2000a52e:	2020                	fld	fs0,64(s0)
2000a530:	2020                	fld	fs0,64(s0)
2000a532:	2020                	fld	fs0,64(s0)
2000a534:	2020                	fld	fs0,64(s0)
2000a536:	2020                	fld	fs0,64(s0)
2000a538:	2020                	fld	fs0,64(s0)
2000a53a:	2020                	fld	fs0,64(s0)
2000a53c:	2020                	fld	fs0,64(s0)
2000a53e:	2020                	fld	fs0,64(s0)
2000a540:	2020                	fld	fs0,64(s0)
2000a542:	2020                	fld	fs0,64(s0)
2000a544:	2020                	fld	fs0,64(s0)
2000a546:	2020                	fld	fs0,64(s0)
2000a548:	2020                	fld	fs0,64(s0)
2000a54a:	2020                	fld	fs0,64(s0)
2000a54c:	2020                	fld	fs0,64(s0)
2000a54e:	2020                	fld	fs0,64(s0)
2000a550:	2020                	fld	fs0,64(s0)
2000a552:	2020                	fld	fs0,64(s0)
2000a554:	2020                	fld	fs0,64(s0)
2000a556:	2020                	fld	fs0,64(s0)

2000a558 <BUTTONCHANGE>:
2000a558:	1030                	addi	a2,sp,40
2000a55a:	8000                	0x8000

2000a55c <BUTTONCHANGEAVAIL>:
2000a55c:	1034                	addi	a3,sp,40
2000a55e:	8000                	0x8000

2000a560 <_ZL9VolumeStr>:
2000a560:	86ac                	0x86ac
2000a562:	2000                	fld	fs0,0(s0)
2000a564:	86b0                	0x86b0
2000a566:	2000                	fld	fs0,0(s0)
2000a568:	86b4                	0x86b4
2000a56a:	2000                	fld	fs0,0(s0)

Disassembly of section .got:

2000a56c <_GLOBAL_OFFSET_TABLE_>:
2000a56c:	0000                	unimp
2000a56e:	0000                	unimp
2000a570:	ade0                	fsd	fs0,216(a1)
2000a572:	2000                	fld	fs0,0(s0)
2000a574:	2300                	fld	fs0,0(a4)
2000a576:	2000                	fld	fs0,0(s0)
2000a578:	acd4                	fsd	fa3,152(s1)
2000a57a:	2000                	fld	fs0,0(s0)
2000a57c:	a458                	fsd	fa4,136(s0)
2000a57e:	2000                	fld	fs0,0(s0)
2000a580:	a334                	fsd	fa3,64(a4)
2000a582:	2000                	fld	fs0,0(s0)
2000a584:	a354                	fsd	fa3,128(a4)
2000a586:	2000                	fld	fs0,0(s0)
2000a588:	a34c                	fsd	fa1,128(a4)
2000a58a:	2000                	fld	fs0,0(s0)
2000a58c:	a358                	fsd	fa4,128(a4)
2000a58e:	2000                	fld	fs0,0(s0)
2000a590:	0120                	addi	s0,sp,136
2000a592:	2000                	fld	fs0,0(s0)
2000a594:	a344                	fsd	fs1,128(a4)
2000a596:	2000                	fld	fs0,0(s0)
2000a598:	a558                	fsd	fa4,136(a0)
2000a59a:	2000                	fld	fs0,0(s0)
2000a59c:	a350                	fsd	fa2,128(a4)
2000a59e:	2000                	fld	fs0,0(s0)
2000a5a0:	a5e4                	fsd	fs1,200(a1)
2000a5a2:	2000                	fld	fs0,0(s0)
2000a5a4:	0100                	addi	s0,sp,128
2000a5a6:	2000                	fld	fs0,0(s0)
2000a5a8:	a33c                	fsd	fa5,64(a4)
2000a5aa:	2000                	fld	fs0,0(s0)
2000a5ac:	b0e5                	j	20009e94 <__malloc_av_+0x1bc>
2000a5ae:	2000                	fld	fs0,0(s0)
2000a5b0:	a348                	fsd	fa0,128(a4)
2000a5b2:	2000                	fld	fs0,0(s0)
2000a5b4:	a338                	fsd	fa4,64(a4)
2000a5b6:	2000                	fld	fs0,0(s0)
2000a5b8:	aad4                	fsd	fa3,144(a3)
2000a5ba:	2000                	fld	fs0,0(s0)
2000a5bc:	a2e0                	fsd	fs0,192(a3)
2000a5be:	2000                	fld	fs0,0(s0)
2000a5c0:	2800                	fld	fs0,16(s0)
2000a5c2:	2000                	fld	fs0,0(s0)
2000a5c4:	a2e4                	fsd	fs1,192(a3)
2000a5c6:	2000                	fld	fs0,0(s0)
2000a5c8:	a61c                	fsd	fa5,8(a2)
2000a5ca:	2000                	fld	fs0,0(s0)
2000a5cc:	a55c                	fsd	fa5,136(a0)
2000a5ce:	2000                	fld	fs0,0(s0)

Disassembly of section .got.plt:

2000a5d0 <.got.plt>:
2000a5d0:	ffff                	0xffff
2000a5d2:	ffff                	0xffff
2000a5d4:	0000                	unimp
	...

Disassembly of section .sdata:

2000a5d8 <_impure_ptr>:
2000a5d8:	98b0                	0x98b0
2000a5da:	2000                	fld	fs0,0(s0)

2000a5dc <__malloc_sbrk_base>:
2000a5dc:	ffff                	0xffff
2000a5de:	ffff                	0xffff

2000a5e0 <__malloc_trim_threshold>:
2000a5e0:	0000                	unimp
2000a5e2:	0002                	c.slli64	zero

Disassembly of section .sbss:

2000a5e4 <__malloc_max_total_mem>:
2000a5e4:	0000                	unimp
	...

2000a5e8 <__malloc_max_sbrked_mem>:
2000a5e8:	0000                	unimp
	...

2000a5ec <__malloc_top_pad>:
2000a5ec:	0000                	unimp
	...

2000a5f0 <errno>:
2000a5f0:	0000                	unimp
	...

Disassembly of section .bss:

2000a5f4 <__malloc_current_mallinfo>:
	...

2000a61c <Fs>:
	...

2000a84c <_ZL11commandline>:
	...

2000aa4c <_ZL6cmdlen>:
2000aa4c:	0000                	unimp
	...

2000aa50 <_ZL8filename>:
	...

2000aad0 <_ZZ16ProcessKeyEventsvE9uppercase>:
2000aad0:	0000                	unimp
	...

2000aad4 <keymap>:
	...

2000acd4 <keymapprev>:
	...

2000aed4 <_ZL4Fsid>:
2000aed4:	0000                	unimp
	...

2000aed8 <_ZL5FatFs>:
	...

2000aee4 <_ZL6LfnBuf>:
	...

2000b0e4 <_ZL7CurrVol>:
	...

Disassembly of section .comment:

00000000 <.comment>:
   0:	3a434347          	fmsub.d	ft6,ft6,ft4,ft7,rmm
   4:	2820                	fld	fs0,80(s0)
   6:	29554e47          	fmsub.s	ft8,fa0,fs5,ft5,rmm
   a:	3120                	fld	fs0,96(a0)
   c:	2e31                	jal	328 <_start-0x1ffffcd8>
   e:	2e31                	jal	32a <_start-0x1ffffcd6>
  10:	0030                	addi	a2,sp,8

Disassembly of section .riscv.attributes:

00000000 <.riscv.attributes>:
   0:	2441                	jal	280 <_start-0x1ffffd80>
   2:	0000                	unimp
   4:	7200                	flw	fs0,32(a2)
   6:	7369                	lui	t1,0xffffa
   8:	01007663          	bgeu	zero,a6,14 <_start-0x1fffffec>
   c:	001a                	c.slli	zero,0x6
   e:	0000                	unimp
  10:	1004                	addi	s1,sp,32
  12:	7205                	lui	tp,0xfffe1
  14:	3376                	fld	ft6,376(sp)
  16:	6932                	flw	fs2,12(sp)
  18:	7032                	flw	ft0,44(sp)
  1a:	5f30                	lw	a2,120(a4)
  1c:	326d                	jal	fffff9c6 <_end+0xdfff48de>
  1e:	3070                	fld	fa2,224(s0)
  20:	0800                	addi	s0,sp,16
  22:	0a01                	addi	s4,s4,0
  24:	0b              	Address 0x0000000000000024 is out of bounds.

