
./BOOT.elf:     file format elf32-littleriscv
./BOOT.elf
architecture: riscv:rv32, flags 0x00000112:
EXEC_P, HAS_SYMS, D_PAGED
start address 0x20000000

Program Header:
    LOAD off    0x00001000 vaddr 0x20000000 paddr 0x20000000 align 2**12
         filesz 0x00009b60 memsz 0x00009c6c flags rwx

Sections:
Idx Name          Size      VMA       LMA       File off  Algn
  0 .boot         0000008c  20000000  20000000  00001000  2**2
                  CONTENTS, ALLOC, LOAD, READONLY, CODE
  1 .text         00008b60  2000008c  2000008c  0000108c  2**2
                  CONTENTS, ALLOC, LOAD, READONLY, CODE
  2 .rodata       000004f0  20008bf0  20008bf0  00009bf0  2**3
                  CONTENTS, ALLOC, LOAD, READONLY, DATA
  3 .srodata      00000004  200090e0  200090e0  0000a0e0  2**2
                  CONTENTS, ALLOC, LOAD, READONLY, DATA
  4 .eh_frame     00000428  200090e4  200090e4  0000a0e4  2**2
                  CONTENTS, ALLOC, LOAD, READONLY, DATA
  5 .data         00000444  20009510  20009510  0000a510  2**3
                  CONTENTS, ALLOC, LOAD, DATA
  6 .got          0000003c  20009954  20009954  0000a954  2**2
                  CONTENTS, ALLOC, LOAD, DATA
  7 .got.plt      00000008  20009990  20009990  0000a990  2**2
                  CONTENTS, ALLOC, LOAD, DATA
  8 .sdata        000001c8  20009998  20009998  0000a998  2**3
                  CONTENTS, ALLOC, LOAD, DATA
  9 .sbss         0000000c  20009b60  20009b60  0000ab60  2**2
                  ALLOC
 10 .bss          00000100  20009b6c  20009b6c  0000ab60  2**2
                  ALLOC
 11 .comment      00000012  00000000  00000000  0000ab60  2**0
                  CONTENTS, READONLY
 12 .riscv.attributes 00000025  00000000  00000000  0000ab72  2**0
                  CONTENTS, READONLY
SYMBOL TABLE:
20000000 l    d  .boot	00000000 .boot
2000008c l    d  .text	00000000 .text
20008bf0 l    d  .rodata	00000000 .rodata
200090e0 l    d  .srodata	00000000 .srodata
200090e4 l    d  .eh_frame	00000000 .eh_frame
20009510 l    d  .data	00000000 .data
20009954 l    d  .got	00000000 .got
20009990 l    d  .got.plt	00000000 .got.plt
20009998 l    d  .sdata	00000000 .sdata
20009b60 l    d  .sbss	00000000 .sbss
20009b6c l    d  .bss	00000000 .bss
00000000 l    d  .comment	00000000 .comment
00000000 l    d  .riscv.attributes	00000000 .riscv.attributes
00000000 l    df *ABS*	00000000 rom.cpp
20000078 l       .boot	00000000 workerhartstart
20000060 l       .boot	00000000 noatexitfound
20003dfc l     F .text	000003d4 _Z7refract4vec3S_ff.localalias
200046c8 l     F .text	00000cb4 _Z8cast_ray4vec3S_P6SphereiP5Lightii.localalias
20008ec0 l     O .rodata	00000010 _ZL6dither
00000000 l    df *ABS*	00000000 atexit.c
00000000 l    df *ABS*	00000000 errno.c
00000000 l    df *ABS*	00000000 fini.c
00000000 l    df *ABS*	00000000 init.c
00000000 l    df *ABS*	00000000 __atexit.c
00000000 l    df *ABS*	00000000 adddf3.c
00000000 l    df *ABS*	00000000 divdf3.c
00000000 l    df *ABS*	00000000 gedf2.c
00000000 l    df *ABS*	00000000 muldf3.c
00000000 l    df *ABS*	00000000 subdf3.c
00000000 l    df *ABS*	00000000 fixdfsi.c
00000000 l    df *ABS*	00000000 floatsidf.c
00000000 l    df *ABS*	00000000 addsf3.c
00000000 l    df *ABS*	00000000 divsf3.c
00000000 l    df *ABS*	00000000 gesf2.c
00000000 l    df *ABS*	00000000 lesf2.c
00000000 l    df *ABS*	00000000 mulsf3.c
00000000 l    df *ABS*	00000000 subsf3.c
00000000 l    df *ABS*	00000000 fixunssfsi.c
00000000 l    df *ABS*	00000000 floatsisf.c
00000000 l    df *ABS*	00000000 extendsfdf2.c
00000000 l    df *ABS*	00000000 truncdfsf2.c
00000000 l    df *ABS*	00000000 libgcc2.c
00000000 l    df *ABS*	00000000 eqdf2.c
00000000 l    df *ABS*	00000000 eqsf2.c
00000000 l    df *ABS*	00000000 unordsf2.c
00000000 l    df *ABS*	00000000 uart.c
00000000 l    df *ABS*	00000000 s_tan.c
00000000 l    df *ABS*	00000000 wf_pow.c
00000000 l    df *ABS*	00000000 wf_sqrt.c
00000000 l    df *ABS*	00000000 e_rem_pio2.c
20008f04 l     O .rodata	00000080 npio2_hw
20008f84 l     O .rodata	00000108 two_over_pi
00000000 l    df *ABS*	00000000 ef_pow.c
20009a54 l     O .sdata	00000008 bp
20009a5c l     O .sdata	00000008 dp_h
20009a64 l     O .sdata	00000008 dp_l
00000000 l    df *ABS*	00000000 ef_sqrt.c
00000000 l    df *ABS*	00000000 k_rem_pio2.c
20009090 l     O .rodata	00000040 PIo2
200090d0 l     O .rodata	00000010 init_jk
00000000 l    df *ABS*	00000000 k_tan.c
00000000 l    df *ABS*	00000000 math_errf.c
20008768 l     F .text	00000038 with_errnof
200087a0 l     F .text	00000030 xflowf
00000000 l    df *ABS*	00000000 s_fabs.c
00000000 l    df *ABS*	00000000 s_floor.c
00000000 l    df *ABS*	00000000 s_scalbn.c
00000000 l    df *ABS*	00000000 sf_fabs.c
00000000 l    df *ABS*	00000000 sf_finite.c
00000000 l    df *ABS*	00000000 sf_scalbn.c
00000000 l    df *ABS*	00000000 libgcc2.c
00000000 l    df *ABS*	00000000 impure.c
20009510 l     O .data	00000428 impure_data
00000000 l    df *ABS*	00000000 gpu.c
200090e0 l       .srodata	00000000 __fini_array_end
200090e0 l       .srodata	00000000 __fini_array_start
200090e0 l       .srodata	00000000 __init_array_end
200090e0 l       .srodata	00000000 __preinit_array_end
20009954 l     O .got	00000000 _GLOBAL_OFFSET_TABLE_
200090e0 l       .srodata	00000000 __init_array_start
200090e0 l       .srodata	00000000 __preinit_array_start
200087e0 g     F .text	00000018 fabs
200036ac g     F .text	0000008c .hidden __eqdf2
2000a1a0 g       *ABS*	00000000 __global_pointer$
20009510 g       .data	00000000 _fdata
20005e48 g     F .text	00000024 _Z9UARTFlushv
20002630 g     F .text	00000334 .hidden __divsf3
200064d8 g     F .text	00000110 powf
20009940 g     O .data	00000004 nb_spheres
2000994c g     O .data	00000004 GPUFB0
200011d4 g     F .text	000000e4 .hidden __gtdf2
200000a0 g     F .text	0000000c __errno
200087f8 g     F .text	000001a8 floor
200090e0 g       .rodata	00000000 _etext
20003dfc g     F .text	000003d4 _Z7refract4vec3S_ff
2000a1a0 g       .sdata	00000000 _gp
20009950 g     O .data	00000004 GPUPAL_32
20002e1c g     F .text	0000046c .hidden __subsf3
20005ea4 g     F .text	00000014 _Z11UARTPutCharc
2000008c g       .boot	00000000 _boot
200065e8 g     F .text	00000070 sqrtf
20006658 g     F .text	000005d4 __ieee754_rem_pio2
20009938 g     O .data	00000004 mailbox
20002134 g     F .text	000000a8 .hidden __floatsidf
20005f48 g     F .text	0000007c _Z16UARTWriteHexByteh
20002a1c g     F .text	000000b8 .hidden __lesf2
20009b6c g       .bss	00000000 _bss_start
20009b68 g     O .sbss	00000004 __malloc_top_pad
200055f4 g     F .text	0000063c _Z10init_scenev
20008ad4 g     F .text	00000014 finitef
20008ac8 g     F .text	0000000c fabsf
20009b64 g     O .sbss	00000004 __malloc_max_sbrked_mem
20003400 g     F .text	000000dc .hidden __extendsfdf2
2000031c g     F .text	000007dc .hidden __adddf3
20003738 g     F .text	00000068 .hidden __nesf2
200090e0 g     O .srodata	00000004 _global_impure_ptr
20000108 g     F .text	0000009c __libc_init_array
20005e30 g     F .text	00000018 _Z11UARTHasDatav
20009c6c g       .bss	00000000 _bss_end
20007730 g     F .text	00000a80 __kernel_rem_pio2
200000ac g     F .text	0000005c __libc_fini_array
200020b4 g     F .text	00000080 .hidden __fixdfsi
200046c8 g     F .text	00000cb4 _Z8cast_ray4vec3S_P6SphereiP5Lightii
20002964 g     F .text	000000b8 .hidden __gtsf2
20003a7c g     F .text	00000034 _Z21make_Material_defaultv
2000993c g     O .data	00000004 nb_lights
200041d0 g     F .text	000004f8 _Z15scene_intersect4vec3S_P6SphereiPS_S2_P8Material
200087d0 g     F .text	00000008 .hidden __math_uflowf
20003660 g     F .text	0000004c .hidden __clzsi2
2000008c g       .boot	00000000 _ftext
20000000 g     F .boot	0000008c _start
20006114 g     F .text	00000348 _Z16UARTWriteDecimall
200032ec g     F .text	00000114 .hidden __floatsisf
20000280 g     F .text	0000009c __register_exitproc
20003738 g     F .text	00000068 .hidden __eqsf2
200037e4 g     F .text	00000234 _Z18graphics_set_pixeliifff
20000af8 g     F .text	000006dc .hidden __divdf3
20003ce4 g     F .text	00000118 _Z7reflect4vec3S_
20003b28 g     F .text	000001bc _Z20Sphere_ray_intersectP6Sphere4vec3S1_Pf
20003ab0 g     F .text	00000078 _Z11make_Sphere4vec3f8Material
200012b8 g     F .text	0000060c .hidden __muldf3
20006c2c g     F .text	000009e0 __ieee754_powf
20009b9c g     O .bss	000000d0 spheres
20008ae8 g     F .text	00000104 scalbnf
200001a4 g     F .text	000000dc memset
2000760c g     F .text	00000124 __ieee754_sqrtf
20005ca4 g     F .text	0000018c main
20009b60 g     O .sbss	00000004 __malloc_max_total_mem
20005eb8 g     F .text	00000090 _Z9UARTWritePKc
20002a1c g     F .text	000000b8 .hidden __ltsf2
200034dc g     F .text	00000184 .hidden __truncdfsf2
20002ad4 g     F .text	00000348 .hidden __mulsf3
2000645c g     F .text	0000007c tan
200036ac g     F .text	0000008c .hidden __nedf2
20003a18 g     F .text	00000020 _Z10make_Light4vec3f
20008c68 g     O .rodata	00000100 .hidden __clz_tab
20009b6c g     O .bss	00000030 lights
2000008c g     F .text	00000014 atexit
20002964 g     F .text	000000b8 .hidden __gesf2
20009948 g     O .data	00000004 IO_UARTTX
20009998 g     O .sdata	00000004 _impure_ptr
200089a0 g     F .text	00000128 scalbn
20003a38 g     F .text	00000044 _Z13make_Materialf4vec44vec3f
20009c6c g       .bss	00000000 __BSS_END__$
20009954 g       .data	00000000 _edata
20009c70 g       .bss	00000000 _end
200037a0 g     F .text	00000044 .hidden __unordsf2
20005e6c g     F .text	00000038 _Z8UARTReadv
20003288 g     F .text	00000064 .hidden __fixunssfsi
20009944 g     O .data	00000004 IO_UARTStatus
2000008c g     F .boot	00000000 _exit
2000537c g     F .text	00000278 _Z6renderiP6SphereiP5Lighti
200087d8 g     F .text	00000008 .hidden __math_oflowf
200011d4 g     F .text	000000e4 .hidden __gedf2
200018c4 g     F .text	000007f0 .hidden __subdf3
20005fc4 g     F .text	00000150 _Z12UARTWriteHexm
20009b60 g       .sbss	00000000 _fbss
200081b0 g     F .text	000005b8 __kernel_tan
200021dc g     F .text	00000454 .hidden __addsf3
20005c30 g     F .text	00000074 _Z10workermainv



Disassembly of section .boot:

20000000 <_start>:
20000000:	0000a197          	auipc	gp,0xa
20000004:	9581a183          	lw	gp,-1704(gp) # 20009958 <_GLOBAL_OFFSET_TABLE_+0x4>
20000008:	f14024f3          	csrr	s1,mhartid
2000000c:	00a49493          	slli	s1,s1,0xa
20000010:	20010937          	lui	s2,0x20010
20000014:	ff090913          	addi	s2,s2,-16 # 2000fff0 <__global_pointer$+0x5e50>
20000018:	40990933          	sub	s2,s2,s1
2000001c:	00090113          	mv	sp,s2
20000020:	00010413          	mv	s0,sp
20000024:	04049a63          	bnez	s1,20000078 <workerhartstart>
20000028:	0000a517          	auipc	a0,0xa
2000002c:	95052503          	lw	a0,-1712(a0) # 20009978 <_GLOBAL_OFFSET_TABLE_+0x24>
20000030:	0000a617          	auipc	a2,0xa
20000034:	95862603          	lw	a2,-1704(a2) # 20009988 <_GLOBAL_OFFSET_TABLE_+0x34>
20000038:	40a60633          	sub	a2,a2,a0
2000003c:	00000593          	li	a1,0
20000040:	164000ef          	jal	ra,200001a4 <memset>
20000044:	0000a517          	auipc	a0,0xa
20000048:	93c52503          	lw	a0,-1732(a0) # 20009980 <_GLOBAL_OFFSET_TABLE_+0x2c>
2000004c:	00050a63          	beqz	a0,20000060 <noatexitfound>
20000050:	00001517          	auipc	a0,0x1
20000054:	0000a517          	auipc	a0,0xa
20000058:	91852503          	lw	a0,-1768(a0) # 2000996c <_GLOBAL_OFFSET_TABLE_+0x18>
2000005c:	030000ef          	jal	ra,2000008c <_exit>

20000060 <noatexitfound>:
20000060:	0a8000ef          	jal	ra,20000108 <__libc_init_array>
20000064:	00012503          	lw	a0,0(sp)
20000068:	00410593          	addi	a1,sp,4
2000006c:	00000613          	li	a2,0
20000070:	4350506f          	j	20005ca4 <main>
20000074:	00100073          	ebreak

20000078 <workerhartstart>:
20000078:	00012503          	lw	a0,0(sp)
2000007c:	00410593          	addi	a1,sp,4
20000080:	00000613          	li	a2,0
20000084:	3ad0506f          	j	20005c30 <_Z10workermainv>
20000088:	00100073          	ebreak

Disassembly of section .text:

2000008c <atexit>:
2000008c:	00050593          	mv	a1,a0
20000090:	00000693          	li	a3,0
20000094:	00000613          	li	a2,0
20000098:	00000513          	li	a0,0
2000009c:	1e40006f          	j	20000280 <__register_exitproc>

200000a0 <__errno>:
200000a0:	2000a7b7          	lui	a5,0x2000a
200000a4:	9987a503          	lw	a0,-1640(a5) # 20009998 <_impure_ptr>
200000a8:	00008067          	ret

200000ac <__libc_fini_array>:
200000ac:	ff010113          	addi	sp,sp,-16
200000b0:	00812423          	sw	s0,8(sp)
200000b4:	200097b7          	lui	a5,0x20009
200000b8:	20009437          	lui	s0,0x20009
200000bc:	0e078793          	addi	a5,a5,224 # 200090e0 <_global_impure_ptr>
200000c0:	0e040413          	addi	s0,s0,224 # 200090e0 <_global_impure_ptr>
200000c4:	40f40433          	sub	s0,s0,a5
200000c8:	00912223          	sw	s1,4(sp)
200000cc:	00112623          	sw	ra,12(sp)
200000d0:	40245493          	srai	s1,s0,0x2
200000d4:	02048063          	beqz	s1,200000f4 <__libc_fini_array+0x48>
200000d8:	ffc40413          	addi	s0,s0,-4
200000dc:	00f40433          	add	s0,s0,a5
200000e0:	00042783          	lw	a5,0(s0)
200000e4:	fff48493          	addi	s1,s1,-1
200000e8:	ffc40413          	addi	s0,s0,-4
200000ec:	000780e7          	jalr	a5
200000f0:	fe0498e3          	bnez	s1,200000e0 <__libc_fini_array+0x34>
200000f4:	00c12083          	lw	ra,12(sp)
200000f8:	00812403          	lw	s0,8(sp)
200000fc:	00412483          	lw	s1,4(sp)
20000100:	01010113          	addi	sp,sp,16
20000104:	00008067          	ret

20000108 <__libc_init_array>:
20000108:	ff010113          	addi	sp,sp,-16
2000010c:	00812423          	sw	s0,8(sp)
20000110:	01212023          	sw	s2,0(sp)
20000114:	20009437          	lui	s0,0x20009
20000118:	20009937          	lui	s2,0x20009
2000011c:	0e040793          	addi	a5,s0,224 # 200090e0 <_global_impure_ptr>
20000120:	0e090913          	addi	s2,s2,224 # 200090e0 <_global_impure_ptr>
20000124:	40f90933          	sub	s2,s2,a5
20000128:	00112623          	sw	ra,12(sp)
2000012c:	00912223          	sw	s1,4(sp)
20000130:	40295913          	srai	s2,s2,0x2
20000134:	02090063          	beqz	s2,20000154 <__libc_init_array+0x4c>
20000138:	0e040413          	addi	s0,s0,224
2000013c:	00000493          	li	s1,0
20000140:	00042783          	lw	a5,0(s0)
20000144:	00148493          	addi	s1,s1,1
20000148:	00440413          	addi	s0,s0,4
2000014c:	000780e7          	jalr	a5
20000150:	fe9918e3          	bne	s2,s1,20000140 <__libc_init_array+0x38>
20000154:	20009437          	lui	s0,0x20009
20000158:	20009937          	lui	s2,0x20009
2000015c:	0e040793          	addi	a5,s0,224 # 200090e0 <_global_impure_ptr>
20000160:	0e090913          	addi	s2,s2,224 # 200090e0 <_global_impure_ptr>
20000164:	40f90933          	sub	s2,s2,a5
20000168:	40295913          	srai	s2,s2,0x2
2000016c:	02090063          	beqz	s2,2000018c <__libc_init_array+0x84>
20000170:	0e040413          	addi	s0,s0,224
20000174:	00000493          	li	s1,0
20000178:	00042783          	lw	a5,0(s0)
2000017c:	00148493          	addi	s1,s1,1
20000180:	00440413          	addi	s0,s0,4
20000184:	000780e7          	jalr	a5
20000188:	fe9918e3          	bne	s2,s1,20000178 <__libc_init_array+0x70>
2000018c:	00c12083          	lw	ra,12(sp)
20000190:	00812403          	lw	s0,8(sp)
20000194:	00412483          	lw	s1,4(sp)
20000198:	00012903          	lw	s2,0(sp)
2000019c:	01010113          	addi	sp,sp,16
200001a0:	00008067          	ret

200001a4 <memset>:
200001a4:	00f00313          	li	t1,15
200001a8:	00050713          	mv	a4,a0
200001ac:	02c37e63          	bgeu	t1,a2,200001e8 <memset+0x44>
200001b0:	00f77793          	andi	a5,a4,15
200001b4:	0a079063          	bnez	a5,20000254 <memset+0xb0>
200001b8:	08059263          	bnez	a1,2000023c <memset+0x98>
200001bc:	ff067693          	andi	a3,a2,-16
200001c0:	00f67613          	andi	a2,a2,15
200001c4:	00e686b3          	add	a3,a3,a4
200001c8:	00b72023          	sw	a1,0(a4)
200001cc:	00b72223          	sw	a1,4(a4)
200001d0:	00b72423          	sw	a1,8(a4)
200001d4:	00b72623          	sw	a1,12(a4)
200001d8:	01070713          	addi	a4,a4,16
200001dc:	fed766e3          	bltu	a4,a3,200001c8 <memset+0x24>
200001e0:	00061463          	bnez	a2,200001e8 <memset+0x44>
200001e4:	00008067          	ret
200001e8:	40c306b3          	sub	a3,t1,a2
200001ec:	00269693          	slli	a3,a3,0x2
200001f0:	00000297          	auipc	t0,0x0
200001f4:	005686b3          	add	a3,a3,t0
200001f8:	00c68067          	jr	12(a3)
200001fc:	00b70723          	sb	a1,14(a4)
20000200:	00b706a3          	sb	a1,13(a4)
20000204:	00b70623          	sb	a1,12(a4)
20000208:	00b705a3          	sb	a1,11(a4)
2000020c:	00b70523          	sb	a1,10(a4)
20000210:	00b704a3          	sb	a1,9(a4)
20000214:	00b70423          	sb	a1,8(a4)
20000218:	00b703a3          	sb	a1,7(a4)
2000021c:	00b70323          	sb	a1,6(a4)
20000220:	00b702a3          	sb	a1,5(a4)
20000224:	00b70223          	sb	a1,4(a4)
20000228:	00b701a3          	sb	a1,3(a4)
2000022c:	00b70123          	sb	a1,2(a4)
20000230:	00b700a3          	sb	a1,1(a4)
20000234:	00b70023          	sb	a1,0(a4)
20000238:	00008067          	ret
2000023c:	0ff5f593          	zext.b	a1,a1
20000240:	00859693          	slli	a3,a1,0x8
20000244:	00d5e5b3          	or	a1,a1,a3
20000248:	01059693          	slli	a3,a1,0x10
2000024c:	00d5e5b3          	or	a1,a1,a3
20000250:	f6dff06f          	j	200001bc <memset+0x18>
20000254:	00279693          	slli	a3,a5,0x2
20000258:	00000297          	auipc	t0,0x0
2000025c:	005686b3          	add	a3,a3,t0
20000260:	00008293          	mv	t0,ra
20000264:	fa0680e7          	jalr	-96(a3)
20000268:	00028093          	mv	ra,t0
2000026c:	ff078793          	addi	a5,a5,-16
20000270:	40f70733          	sub	a4,a4,a5
20000274:	00f60633          	add	a2,a2,a5
20000278:	f6c378e3          	bgeu	t1,a2,200001e8 <memset+0x44>
2000027c:	f3dff06f          	j	200001b8 <memset+0x14>

20000280 <__register_exitproc>:
20000280:	200097b7          	lui	a5,0x20009
20000284:	0e07a703          	lw	a4,224(a5) # 200090e0 <_global_impure_ptr>
20000288:	14872783          	lw	a5,328(a4)
2000028c:	04078c63          	beqz	a5,200002e4 <__register_exitproc+0x64>
20000290:	0047a703          	lw	a4,4(a5)
20000294:	01f00813          	li	a6,31
20000298:	06e84e63          	blt	a6,a4,20000314 <__register_exitproc+0x94>
2000029c:	00271813          	slli	a6,a4,0x2
200002a0:	02050663          	beqz	a0,200002cc <__register_exitproc+0x4c>
200002a4:	01078333          	add	t1,a5,a6
200002a8:	08c32423          	sw	a2,136(t1)
200002ac:	1887a883          	lw	a7,392(a5)
200002b0:	00100613          	li	a2,1
200002b4:	00e61633          	sll	a2,a2,a4
200002b8:	00c8e8b3          	or	a7,a7,a2
200002bc:	1917a423          	sw	a7,392(a5)
200002c0:	10d32423          	sw	a3,264(t1)
200002c4:	00200693          	li	a3,2
200002c8:	02d50463          	beq	a0,a3,200002f0 <__register_exitproc+0x70>
200002cc:	00170713          	addi	a4,a4,1
200002d0:	00e7a223          	sw	a4,4(a5)
200002d4:	010787b3          	add	a5,a5,a6
200002d8:	00b7a423          	sw	a1,8(a5)
200002dc:	00000513          	li	a0,0
200002e0:	00008067          	ret
200002e4:	14c70793          	addi	a5,a4,332
200002e8:	14f72423          	sw	a5,328(a4)
200002ec:	fa5ff06f          	j	20000290 <__register_exitproc+0x10>
200002f0:	18c7a683          	lw	a3,396(a5)
200002f4:	00170713          	addi	a4,a4,1
200002f8:	00e7a223          	sw	a4,4(a5)
200002fc:	00c6e6b3          	or	a3,a3,a2
20000300:	18d7a623          	sw	a3,396(a5)
20000304:	010787b3          	add	a5,a5,a6
20000308:	00b7a423          	sw	a1,8(a5)
2000030c:	00000513          	li	a0,0
20000310:	00008067          	ret
20000314:	fff00513          	li	a0,-1
20000318:	00008067          	ret

2000031c <__adddf3>:
2000031c:	00100837          	lui	a6,0x100
20000320:	fff80813          	addi	a6,a6,-1 # fffff <_start-0x1ff00001>
20000324:	fe010113          	addi	sp,sp,-32
20000328:	00b878b3          	and	a7,a6,a1
2000032c:	0145d713          	srli	a4,a1,0x14
20000330:	01d55793          	srli	a5,a0,0x1d
20000334:	00d87833          	and	a6,a6,a3
20000338:	00812c23          	sw	s0,24(sp)
2000033c:	7ff77413          	andi	s0,a4,2047
20000340:	00389713          	slli	a4,a7,0x3
20000344:	0146d893          	srli	a7,a3,0x14
20000348:	00381813          	slli	a6,a6,0x3
2000034c:	00912a23          	sw	s1,20(sp)
20000350:	00e7e7b3          	or	a5,a5,a4
20000354:	7ff8f893          	andi	a7,a7,2047
20000358:	01d65713          	srli	a4,a2,0x1d
2000035c:	00112e23          	sw	ra,28(sp)
20000360:	01212823          	sw	s2,16(sp)
20000364:	01312623          	sw	s3,12(sp)
20000368:	01f5d493          	srli	s1,a1,0x1f
2000036c:	01f6d693          	srli	a3,a3,0x1f
20000370:	01076733          	or	a4,a4,a6
20000374:	00351513          	slli	a0,a0,0x3
20000378:	00361613          	slli	a2,a2,0x3
2000037c:	41140833          	sub	a6,s0,a7
20000380:	2cd49863          	bne	s1,a3,20000650 <__adddf3+0x334>
20000384:	13005063          	blez	a6,200004a4 <__adddf3+0x188>
20000388:	04089063          	bnez	a7,200003c8 <__adddf3+0xac>
2000038c:	00c766b3          	or	a3,a4,a2
20000390:	70068e63          	beqz	a3,20000aac <__adddf3+0x790>
20000394:	fff80593          	addi	a1,a6,-1
20000398:	02059063          	bnez	a1,200003b8 <__adddf3+0x9c>
2000039c:	00c50633          	add	a2,a0,a2
200003a0:	00e78733          	add	a4,a5,a4
200003a4:	00a637b3          	sltu	a5,a2,a0
200003a8:	00f707b3          	add	a5,a4,a5
200003ac:	00060513          	mv	a0,a2
200003b0:	00100413          	li	s0,1
200003b4:	0700006f          	j	20000424 <__adddf3+0x108>
200003b8:	7ff00693          	li	a3,2047
200003bc:	02d81063          	bne	a6,a3,200003dc <__adddf3+0xc0>
200003c0:	7ff00413          	li	s0,2047
200003c4:	2140006f          	j	200005d8 <__adddf3+0x2bc>
200003c8:	7ff00693          	li	a3,2047
200003cc:	20d40663          	beq	s0,a3,200005d8 <__adddf3+0x2bc>
200003d0:	008006b7          	lui	a3,0x800
200003d4:	00d76733          	or	a4,a4,a3
200003d8:	00080593          	mv	a1,a6
200003dc:	03800693          	li	a3,56
200003e0:	0ab6cc63          	blt	a3,a1,20000498 <__adddf3+0x17c>
200003e4:	01f00693          	li	a3,31
200003e8:	06b6ce63          	blt	a3,a1,20000464 <__adddf3+0x148>
200003ec:	02000813          	li	a6,32
200003f0:	40b80833          	sub	a6,a6,a1
200003f4:	010716b3          	sll	a3,a4,a6
200003f8:	00b658b3          	srl	a7,a2,a1
200003fc:	01061833          	sll	a6,a2,a6
20000400:	0116e6b3          	or	a3,a3,a7
20000404:	01003833          	snez	a6,a6
20000408:	0106e6b3          	or	a3,a3,a6
2000040c:	00b755b3          	srl	a1,a4,a1
20000410:	00a686b3          	add	a3,a3,a0
20000414:	00f585b3          	add	a1,a1,a5
20000418:	00a6b7b3          	sltu	a5,a3,a0
2000041c:	00f587b3          	add	a5,a1,a5
20000420:	00068513          	mv	a0,a3
20000424:	00800737          	lui	a4,0x800
20000428:	00e7f733          	and	a4,a5,a4
2000042c:	1a070663          	beqz	a4,200005d8 <__adddf3+0x2bc>
20000430:	00140413          	addi	s0,s0,1
20000434:	7ff00713          	li	a4,2047
20000438:	5ce40a63          	beq	s0,a4,20000a0c <__adddf3+0x6f0>
2000043c:	ff800737          	lui	a4,0xff800
20000440:	fff70713          	addi	a4,a4,-1 # ff7fffff <__global_pointer$+0xdf7f5e5f>
20000444:	00e7f7b3          	and	a5,a5,a4
20000448:	00155713          	srli	a4,a0,0x1
2000044c:	00157513          	andi	a0,a0,1
20000450:	00a76733          	or	a4,a4,a0
20000454:	01f79513          	slli	a0,a5,0x1f
20000458:	00e56533          	or	a0,a0,a4
2000045c:	0017d793          	srli	a5,a5,0x1
20000460:	1780006f          	j	200005d8 <__adddf3+0x2bc>
20000464:	fe058693          	addi	a3,a1,-32
20000468:	02000893          	li	a7,32
2000046c:	00d756b3          	srl	a3,a4,a3
20000470:	00000813          	li	a6,0
20000474:	01158863          	beq	a1,a7,20000484 <__adddf3+0x168>
20000478:	04000813          	li	a6,64
2000047c:	40b80833          	sub	a6,a6,a1
20000480:	01071833          	sll	a6,a4,a6
20000484:	00c86833          	or	a6,a6,a2
20000488:	01003833          	snez	a6,a6
2000048c:	0106e6b3          	or	a3,a3,a6
20000490:	00000593          	li	a1,0
20000494:	f7dff06f          	j	20000410 <__adddf3+0xf4>
20000498:	00c766b3          	or	a3,a4,a2
2000049c:	00d036b3          	snez	a3,a3
200004a0:	ff1ff06f          	j	20000490 <__adddf3+0x174>
200004a4:	0e080263          	beqz	a6,20000588 <__adddf3+0x26c>
200004a8:	408885b3          	sub	a1,a7,s0
200004ac:	02041e63          	bnez	s0,200004e8 <__adddf3+0x1cc>
200004b0:	00a7e6b3          	or	a3,a5,a0
200004b4:	52068c63          	beqz	a3,200009ec <__adddf3+0x6d0>
200004b8:	fff58693          	addi	a3,a1,-1
200004bc:	00069c63          	bnez	a3,200004d4 <__adddf3+0x1b8>
200004c0:	00c50533          	add	a0,a0,a2
200004c4:	00e78733          	add	a4,a5,a4
200004c8:	00c53633          	sltu	a2,a0,a2
200004cc:	00c707b3          	add	a5,a4,a2
200004d0:	ee1ff06f          	j	200003b0 <__adddf3+0x94>
200004d4:	7ff00813          	li	a6,2047
200004d8:	03059263          	bne	a1,a6,200004fc <__adddf3+0x1e0>
200004dc:	00070793          	mv	a5,a4
200004e0:	00060513          	mv	a0,a2
200004e4:	eddff06f          	j	200003c0 <__adddf3+0xa4>
200004e8:	7ff00693          	li	a3,2047
200004ec:	fed888e3          	beq	a7,a3,200004dc <__adddf3+0x1c0>
200004f0:	008006b7          	lui	a3,0x800
200004f4:	00d7e7b3          	or	a5,a5,a3
200004f8:	00058693          	mv	a3,a1
200004fc:	03800593          	li	a1,56
20000500:	06d5ce63          	blt	a1,a3,2000057c <__adddf3+0x260>
20000504:	01f00593          	li	a1,31
20000508:	04d5c063          	blt	a1,a3,20000548 <__adddf3+0x22c>
2000050c:	02000813          	li	a6,32
20000510:	40d80833          	sub	a6,a6,a3
20000514:	010795b3          	sll	a1,a5,a6
20000518:	00d55333          	srl	t1,a0,a3
2000051c:	01051833          	sll	a6,a0,a6
20000520:	0065e5b3          	or	a1,a1,t1
20000524:	01003833          	snez	a6,a6
20000528:	0105e5b3          	or	a1,a1,a6
2000052c:	00d7d6b3          	srl	a3,a5,a3
20000530:	00c58533          	add	a0,a1,a2
20000534:	00e686b3          	add	a3,a3,a4
20000538:	00c53633          	sltu	a2,a0,a2
2000053c:	00c687b3          	add	a5,a3,a2
20000540:	00088413          	mv	s0,a7
20000544:	ee1ff06f          	j	20000424 <__adddf3+0x108>
20000548:	fe068593          	addi	a1,a3,-32 # 7fffe0 <_start-0x1f800020>
2000054c:	02000313          	li	t1,32
20000550:	00b7d5b3          	srl	a1,a5,a1
20000554:	00000813          	li	a6,0
20000558:	00668863          	beq	a3,t1,20000568 <__adddf3+0x24c>
2000055c:	04000813          	li	a6,64
20000560:	40d80833          	sub	a6,a6,a3
20000564:	01079833          	sll	a6,a5,a6
20000568:	00a86833          	or	a6,a6,a0
2000056c:	01003833          	snez	a6,a6
20000570:	0105e5b3          	or	a1,a1,a6
20000574:	00000693          	li	a3,0
20000578:	fb9ff06f          	j	20000530 <__adddf3+0x214>
2000057c:	00a7e5b3          	or	a1,a5,a0
20000580:	00b035b3          	snez	a1,a1
20000584:	ff1ff06f          	j	20000574 <__adddf3+0x258>
20000588:	00140693          	addi	a3,s0,1
2000058c:	7fe6f593          	andi	a1,a3,2046
20000590:	08059863          	bnez	a1,20000620 <__adddf3+0x304>
20000594:	00a7e6b3          	or	a3,a5,a0
20000598:	06041463          	bnez	s0,20000600 <__adddf3+0x2e4>
2000059c:	46068063          	beqz	a3,200009fc <__adddf3+0x6e0>
200005a0:	00c766b3          	or	a3,a4,a2
200005a4:	02068a63          	beqz	a3,200005d8 <__adddf3+0x2bc>
200005a8:	00c50633          	add	a2,a0,a2
200005ac:	00e78733          	add	a4,a5,a4
200005b0:	00a637b3          	sltu	a5,a2,a0
200005b4:	00f707b3          	add	a5,a4,a5
200005b8:	00800737          	lui	a4,0x800
200005bc:	00e7f733          	and	a4,a5,a4
200005c0:	00060513          	mv	a0,a2
200005c4:	00070a63          	beqz	a4,200005d8 <__adddf3+0x2bc>
200005c8:	ff800737          	lui	a4,0xff800
200005cc:	fff70713          	addi	a4,a4,-1 # ff7fffff <__global_pointer$+0xdf7f5e5f>
200005d0:	00e7f7b3          	and	a5,a5,a4
200005d4:	00100413          	li	s0,1
200005d8:	00757713          	andi	a4,a0,7
200005dc:	42070c63          	beqz	a4,20000a14 <__adddf3+0x6f8>
200005e0:	00f57713          	andi	a4,a0,15
200005e4:	00400693          	li	a3,4
200005e8:	42d70663          	beq	a4,a3,20000a14 <__adddf3+0x6f8>
200005ec:	00450713          	addi	a4,a0,4
200005f0:	00a73533          	sltu	a0,a4,a0
200005f4:	00a787b3          	add	a5,a5,a0
200005f8:	00070513          	mv	a0,a4
200005fc:	4180006f          	j	20000a14 <__adddf3+0x6f8>
20000600:	ec068ee3          	beqz	a3,200004dc <__adddf3+0x1c0>
20000604:	00c76733          	or	a4,a4,a2
20000608:	da070ce3          	beqz	a4,200003c0 <__adddf3+0xa4>
2000060c:	00000493          	li	s1,0
20000610:	004007b7          	lui	a5,0x400
20000614:	00000513          	li	a0,0
20000618:	7ff00413          	li	s0,2047
2000061c:	3f80006f          	j	20000a14 <__adddf3+0x6f8>
20000620:	7ff00593          	li	a1,2047
20000624:	3eb68263          	beq	a3,a1,20000a08 <__adddf3+0x6ec>
20000628:	00c50633          	add	a2,a0,a2
2000062c:	00a63533          	sltu	a0,a2,a0
20000630:	00e78733          	add	a4,a5,a4
20000634:	00a70733          	add	a4,a4,a0
20000638:	01f71513          	slli	a0,a4,0x1f
2000063c:	00165613          	srli	a2,a2,0x1
20000640:	00c56533          	or	a0,a0,a2
20000644:	00175793          	srli	a5,a4,0x1
20000648:	00068413          	mv	s0,a3
2000064c:	f8dff06f          	j	200005d8 <__adddf3+0x2bc>
20000650:	0f005c63          	blez	a6,20000748 <__adddf3+0x42c>
20000654:	08089e63          	bnez	a7,200006f0 <__adddf3+0x3d4>
20000658:	00c766b3          	or	a3,a4,a2
2000065c:	44068863          	beqz	a3,20000aac <__adddf3+0x790>
20000660:	fff80593          	addi	a1,a6,-1
20000664:	02059063          	bnez	a1,20000684 <__adddf3+0x368>
20000668:	40c50633          	sub	a2,a0,a2
2000066c:	40e78733          	sub	a4,a5,a4
20000670:	00c537b3          	sltu	a5,a0,a2
20000674:	40f707b3          	sub	a5,a4,a5
20000678:	00060513          	mv	a0,a2
2000067c:	00100413          	li	s0,1
20000680:	0540006f          	j	200006d4 <__adddf3+0x3b8>
20000684:	7ff00693          	li	a3,2047
20000688:	d2d80ce3          	beq	a6,a3,200003c0 <__adddf3+0xa4>
2000068c:	03800693          	li	a3,56
20000690:	0ab6c663          	blt	a3,a1,2000073c <__adddf3+0x420>
20000694:	01f00693          	li	a3,31
20000698:	06b6c863          	blt	a3,a1,20000708 <__adddf3+0x3ec>
2000069c:	02000813          	li	a6,32
200006a0:	40b80833          	sub	a6,a6,a1
200006a4:	010716b3          	sll	a3,a4,a6
200006a8:	00b658b3          	srl	a7,a2,a1
200006ac:	01061833          	sll	a6,a2,a6
200006b0:	0116e6b3          	or	a3,a3,a7
200006b4:	01003833          	snez	a6,a6
200006b8:	0106e6b3          	or	a3,a3,a6
200006bc:	00b755b3          	srl	a1,a4,a1
200006c0:	40d506b3          	sub	a3,a0,a3
200006c4:	40b785b3          	sub	a1,a5,a1
200006c8:	00d537b3          	sltu	a5,a0,a3
200006cc:	40f587b3          	sub	a5,a1,a5
200006d0:	00068513          	mv	a0,a3
200006d4:	00800937          	lui	s2,0x800
200006d8:	0127f733          	and	a4,a5,s2
200006dc:	ee070ee3          	beqz	a4,200005d8 <__adddf3+0x2bc>
200006e0:	fff90913          	addi	s2,s2,-1 # 7fffff <_start-0x1f800001>
200006e4:	0127f933          	and	s2,a5,s2
200006e8:	00050993          	mv	s3,a0
200006ec:	2140006f          	j	20000900 <__adddf3+0x5e4>
200006f0:	7ff00693          	li	a3,2047
200006f4:	eed402e3          	beq	s0,a3,200005d8 <__adddf3+0x2bc>
200006f8:	008006b7          	lui	a3,0x800
200006fc:	00d76733          	or	a4,a4,a3
20000700:	00080593          	mv	a1,a6
20000704:	f89ff06f          	j	2000068c <__adddf3+0x370>
20000708:	fe058693          	addi	a3,a1,-32
2000070c:	02000893          	li	a7,32
20000710:	00d756b3          	srl	a3,a4,a3
20000714:	00000813          	li	a6,0
20000718:	01158863          	beq	a1,a7,20000728 <__adddf3+0x40c>
2000071c:	04000813          	li	a6,64
20000720:	40b80833          	sub	a6,a6,a1
20000724:	01071833          	sll	a6,a4,a6
20000728:	00c86833          	or	a6,a6,a2
2000072c:	01003833          	snez	a6,a6
20000730:	0106e6b3          	or	a3,a3,a6
20000734:	00000593          	li	a1,0
20000738:	f89ff06f          	j	200006c0 <__adddf3+0x3a4>
2000073c:	00c766b3          	or	a3,a4,a2
20000740:	00d036b3          	snez	a3,a3
20000744:	ff1ff06f          	j	20000734 <__adddf3+0x418>
20000748:	0e080863          	beqz	a6,20000838 <__adddf3+0x51c>
2000074c:	40888833          	sub	a6,a7,s0
20000750:	04041263          	bnez	s0,20000794 <__adddf3+0x478>
20000754:	00a7e5b3          	or	a1,a5,a0
20000758:	34058e63          	beqz	a1,20000ab4 <__adddf3+0x798>
2000075c:	fff80593          	addi	a1,a6,-1
20000760:	00059e63          	bnez	a1,2000077c <__adddf3+0x460>
20000764:	40a60533          	sub	a0,a2,a0
20000768:	40f70733          	sub	a4,a4,a5
2000076c:	00a63633          	sltu	a2,a2,a0
20000770:	40c707b3          	sub	a5,a4,a2
20000774:	00068493          	mv	s1,a3
20000778:	f05ff06f          	j	2000067c <__adddf3+0x360>
2000077c:	7ff00313          	li	t1,2047
20000780:	02681463          	bne	a6,t1,200007a8 <__adddf3+0x48c>
20000784:	00070793          	mv	a5,a4
20000788:	00060513          	mv	a0,a2
2000078c:	7ff00413          	li	s0,2047
20000790:	0d00006f          	j	20000860 <__adddf3+0x544>
20000794:	7ff00593          	li	a1,2047
20000798:	feb886e3          	beq	a7,a1,20000784 <__adddf3+0x468>
2000079c:	008005b7          	lui	a1,0x800
200007a0:	00b7e7b3          	or	a5,a5,a1
200007a4:	00080593          	mv	a1,a6
200007a8:	03800813          	li	a6,56
200007ac:	08b84063          	blt	a6,a1,2000082c <__adddf3+0x510>
200007b0:	01f00813          	li	a6,31
200007b4:	04b84263          	blt	a6,a1,200007f8 <__adddf3+0x4dc>
200007b8:	02000313          	li	t1,32
200007bc:	40b30333          	sub	t1,t1,a1
200007c0:	00b55e33          	srl	t3,a0,a1
200007c4:	00679833          	sll	a6,a5,t1
200007c8:	00651333          	sll	t1,a0,t1
200007cc:	01c86833          	or	a6,a6,t3
200007d0:	00603333          	snez	t1,t1
200007d4:	00686533          	or	a0,a6,t1
200007d8:	00b7d5b3          	srl	a1,a5,a1
200007dc:	40a60533          	sub	a0,a2,a0
200007e0:	40b705b3          	sub	a1,a4,a1
200007e4:	00a63633          	sltu	a2,a2,a0
200007e8:	40c587b3          	sub	a5,a1,a2
200007ec:	00088413          	mv	s0,a7
200007f0:	00068493          	mv	s1,a3
200007f4:	ee1ff06f          	j	200006d4 <__adddf3+0x3b8>
200007f8:	fe058813          	addi	a6,a1,-32 # 7fffe0 <_start-0x1f800020>
200007fc:	02000e13          	li	t3,32
20000800:	0107d833          	srl	a6,a5,a6
20000804:	00000313          	li	t1,0
20000808:	01c58863          	beq	a1,t3,20000818 <__adddf3+0x4fc>
2000080c:	04000313          	li	t1,64
20000810:	40b30333          	sub	t1,t1,a1
20000814:	00679333          	sll	t1,a5,t1
20000818:	00a36333          	or	t1,t1,a0
2000081c:	00603333          	snez	t1,t1
20000820:	00686533          	or	a0,a6,t1
20000824:	00000593          	li	a1,0
20000828:	fb5ff06f          	j	200007dc <__adddf3+0x4c0>
2000082c:	00a7e533          	or	a0,a5,a0
20000830:	00a03533          	snez	a0,a0
20000834:	ff1ff06f          	j	20000824 <__adddf3+0x508>
20000838:	00140593          	addi	a1,s0,1
2000083c:	7fe5f593          	andi	a1,a1,2046
20000840:	08059863          	bnez	a1,200008d0 <__adddf3+0x5b4>
20000844:	00a7e833          	or	a6,a5,a0
20000848:	00c765b3          	or	a1,a4,a2
2000084c:	06041263          	bnez	s0,200008b0 <__adddf3+0x594>
20000850:	00081c63          	bnez	a6,20000868 <__adddf3+0x54c>
20000854:	26058863          	beqz	a1,20000ac4 <__adddf3+0x7a8>
20000858:	00070793          	mv	a5,a4
2000085c:	00060513          	mv	a0,a2
20000860:	00068493          	mv	s1,a3
20000864:	d75ff06f          	j	200005d8 <__adddf3+0x2bc>
20000868:	d60588e3          	beqz	a1,200005d8 <__adddf3+0x2bc>
2000086c:	40c50833          	sub	a6,a0,a2
20000870:	010538b3          	sltu	a7,a0,a6
20000874:	40e785b3          	sub	a1,a5,a4
20000878:	411585b3          	sub	a1,a1,a7
2000087c:	008008b7          	lui	a7,0x800
20000880:	0115f8b3          	and	a7,a1,a7
20000884:	00088c63          	beqz	a7,2000089c <__adddf3+0x580>
20000888:	40a60533          	sub	a0,a2,a0
2000088c:	40f70733          	sub	a4,a4,a5
20000890:	00a63633          	sltu	a2,a2,a0
20000894:	40c707b3          	sub	a5,a4,a2
20000898:	fc9ff06f          	j	20000860 <__adddf3+0x544>
2000089c:	00b86533          	or	a0,a6,a1
200008a0:	22050a63          	beqz	a0,20000ad4 <__adddf3+0x7b8>
200008a4:	00058793          	mv	a5,a1
200008a8:	00080513          	mv	a0,a6
200008ac:	d2dff06f          	j	200005d8 <__adddf3+0x2bc>
200008b0:	00081c63          	bnez	a6,200008c8 <__adddf3+0x5ac>
200008b4:	22058463          	beqz	a1,20000adc <__adddf3+0x7c0>
200008b8:	00070793          	mv	a5,a4
200008bc:	00060513          	mv	a0,a2
200008c0:	00068493          	mv	s1,a3
200008c4:	afdff06f          	j	200003c0 <__adddf3+0xa4>
200008c8:	ae058ce3          	beqz	a1,200003c0 <__adddf3+0xa4>
200008cc:	d41ff06f          	j	2000060c <__adddf3+0x2f0>
200008d0:	40c509b3          	sub	s3,a0,a2
200008d4:	013535b3          	sltu	a1,a0,s3
200008d8:	40e78933          	sub	s2,a5,a4
200008dc:	40b90933          	sub	s2,s2,a1
200008e0:	008005b7          	lui	a1,0x800
200008e4:	00b975b3          	and	a1,s2,a1
200008e8:	08058463          	beqz	a1,20000970 <__adddf3+0x654>
200008ec:	40a609b3          	sub	s3,a2,a0
200008f0:	40f70933          	sub	s2,a4,a5
200008f4:	01363633          	sltu	a2,a2,s3
200008f8:	40c90933          	sub	s2,s2,a2
200008fc:	00068493          	mv	s1,a3
20000900:	08090263          	beqz	s2,20000984 <__adddf3+0x668>
20000904:	00090513          	mv	a0,s2
20000908:	559020ef          	jal	ra,20003660 <__clzsi2>
2000090c:	ff850713          	addi	a4,a0,-8
20000910:	01f00793          	li	a5,31
20000914:	08e7c063          	blt	a5,a4,20000994 <__adddf3+0x678>
20000918:	02000793          	li	a5,32
2000091c:	40e787b3          	sub	a5,a5,a4
20000920:	00e91933          	sll	s2,s2,a4
20000924:	00f9d7b3          	srl	a5,s3,a5
20000928:	0127e7b3          	or	a5,a5,s2
2000092c:	00e99533          	sll	a0,s3,a4
20000930:	0a874463          	blt	a4,s0,200009d8 <__adddf3+0x6bc>
20000934:	40870733          	sub	a4,a4,s0
20000938:	00170613          	addi	a2,a4,1
2000093c:	01f00693          	li	a3,31
20000940:	06c6c263          	blt	a3,a2,200009a4 <__adddf3+0x688>
20000944:	02000713          	li	a4,32
20000948:	40c70733          	sub	a4,a4,a2
2000094c:	00e796b3          	sll	a3,a5,a4
20000950:	00c555b3          	srl	a1,a0,a2
20000954:	00e51733          	sll	a4,a0,a4
20000958:	00b6e6b3          	or	a3,a3,a1
2000095c:	00e03733          	snez	a4,a4
20000960:	00e6e533          	or	a0,a3,a4
20000964:	00c7d7b3          	srl	a5,a5,a2
20000968:	00000413          	li	s0,0
2000096c:	c6dff06f          	j	200005d8 <__adddf3+0x2bc>
20000970:	0129e533          	or	a0,s3,s2
20000974:	f80516e3          	bnez	a0,20000900 <__adddf3+0x5e4>
20000978:	00000793          	li	a5,0
2000097c:	00000413          	li	s0,0
20000980:	14c0006f          	j	20000acc <__adddf3+0x7b0>
20000984:	00098513          	mv	a0,s3
20000988:	4d9020ef          	jal	ra,20003660 <__clzsi2>
2000098c:	02050513          	addi	a0,a0,32
20000990:	f7dff06f          	j	2000090c <__adddf3+0x5f0>
20000994:	fd850793          	addi	a5,a0,-40
20000998:	00f997b3          	sll	a5,s3,a5
2000099c:	00000513          	li	a0,0
200009a0:	f91ff06f          	j	20000930 <__adddf3+0x614>
200009a4:	fe170713          	addi	a4,a4,-31
200009a8:	02000593          	li	a1,32
200009ac:	00e7d733          	srl	a4,a5,a4
200009b0:	00000693          	li	a3,0
200009b4:	00b60863          	beq	a2,a1,200009c4 <__adddf3+0x6a8>
200009b8:	04000693          	li	a3,64
200009bc:	40c686b3          	sub	a3,a3,a2
200009c0:	00d796b3          	sll	a3,a5,a3
200009c4:	00d566b3          	or	a3,a0,a3
200009c8:	00d036b3          	snez	a3,a3
200009cc:	00d76533          	or	a0,a4,a3
200009d0:	00000793          	li	a5,0
200009d4:	f95ff06f          	j	20000968 <__adddf3+0x64c>
200009d8:	40e40433          	sub	s0,s0,a4
200009dc:	ff800737          	lui	a4,0xff800
200009e0:	fff70713          	addi	a4,a4,-1 # ff7fffff <__global_pointer$+0xdf7f5e5f>
200009e4:	00e7f7b3          	and	a5,a5,a4
200009e8:	bf1ff06f          	j	200005d8 <__adddf3+0x2bc>
200009ec:	00070793          	mv	a5,a4
200009f0:	00060513          	mv	a0,a2
200009f4:	00058413          	mv	s0,a1
200009f8:	be1ff06f          	j	200005d8 <__adddf3+0x2bc>
200009fc:	00070793          	mv	a5,a4
20000a00:	00060513          	mv	a0,a2
20000a04:	bd5ff06f          	j	200005d8 <__adddf3+0x2bc>
20000a08:	7ff00413          	li	s0,2047
20000a0c:	00000793          	li	a5,0
20000a10:	00000513          	li	a0,0
20000a14:	00800737          	lui	a4,0x800
20000a18:	00e7f733          	and	a4,a5,a4
20000a1c:	00070e63          	beqz	a4,20000a38 <__adddf3+0x71c>
20000a20:	00140413          	addi	s0,s0,1
20000a24:	7ff00713          	li	a4,2047
20000a28:	0ce40263          	beq	s0,a4,20000aec <__adddf3+0x7d0>
20000a2c:	ff800737          	lui	a4,0xff800
20000a30:	fff70713          	addi	a4,a4,-1 # ff7fffff <__global_pointer$+0xdf7f5e5f>
20000a34:	00e7f7b3          	and	a5,a5,a4
20000a38:	01d79693          	slli	a3,a5,0x1d
20000a3c:	00355513          	srli	a0,a0,0x3
20000a40:	7ff00713          	li	a4,2047
20000a44:	00a6e6b3          	or	a3,a3,a0
20000a48:	0037d793          	srli	a5,a5,0x3
20000a4c:	00e41e63          	bne	s0,a4,20000a68 <__adddf3+0x74c>
20000a50:	00f6e6b3          	or	a3,a3,a5
20000a54:	00000793          	li	a5,0
20000a58:	00068863          	beqz	a3,20000a68 <__adddf3+0x74c>
20000a5c:	000807b7          	lui	a5,0x80
20000a60:	00000693          	li	a3,0
20000a64:	00000493          	li	s1,0
20000a68:	01441713          	slli	a4,s0,0x14
20000a6c:	7ff00637          	lui	a2,0x7ff00
20000a70:	00c79793          	slli	a5,a5,0xc
20000a74:	01c12083          	lw	ra,28(sp)
20000a78:	01812403          	lw	s0,24(sp)
20000a7c:	00c77733          	and	a4,a4,a2
20000a80:	00c7d793          	srli	a5,a5,0xc
20000a84:	01f49493          	slli	s1,s1,0x1f
20000a88:	00f767b3          	or	a5,a4,a5
20000a8c:	0097e733          	or	a4,a5,s1
20000a90:	01012903          	lw	s2,16(sp)
20000a94:	01412483          	lw	s1,20(sp)
20000a98:	00c12983          	lw	s3,12(sp)
20000a9c:	00068513          	mv	a0,a3
20000aa0:	00070593          	mv	a1,a4
20000aa4:	02010113          	addi	sp,sp,32
20000aa8:	00008067          	ret
20000aac:	00080413          	mv	s0,a6
20000ab0:	b29ff06f          	j	200005d8 <__adddf3+0x2bc>
20000ab4:	00070793          	mv	a5,a4
20000ab8:	00060513          	mv	a0,a2
20000abc:	00080413          	mv	s0,a6
20000ac0:	da1ff06f          	j	20000860 <__adddf3+0x544>
20000ac4:	00000793          	li	a5,0
20000ac8:	00000513          	li	a0,0
20000acc:	00000493          	li	s1,0
20000ad0:	f45ff06f          	j	20000a14 <__adddf3+0x6f8>
20000ad4:	00000793          	li	a5,0
20000ad8:	ff5ff06f          	j	20000acc <__adddf3+0x7b0>
20000adc:	00000513          	li	a0,0
20000ae0:	00000493          	li	s1,0
20000ae4:	004007b7          	lui	a5,0x400
20000ae8:	b31ff06f          	j	20000618 <__adddf3+0x2fc>
20000aec:	00000793          	li	a5,0
20000af0:	00000513          	li	a0,0
20000af4:	f45ff06f          	j	20000a38 <__adddf3+0x71c>

20000af8 <__divdf3>:
20000af8:	fd010113          	addi	sp,sp,-48
20000afc:	0145d813          	srli	a6,a1,0x14
20000b00:	02912223          	sw	s1,36(sp)
20000b04:	01312e23          	sw	s3,28(sp)
20000b08:	01412c23          	sw	s4,24(sp)
20000b0c:	01612823          	sw	s6,16(sp)
20000b10:	01812423          	sw	s8,8(sp)
20000b14:	00c59493          	slli	s1,a1,0xc
20000b18:	02112623          	sw	ra,44(sp)
20000b1c:	02812423          	sw	s0,40(sp)
20000b20:	03212023          	sw	s2,32(sp)
20000b24:	01512a23          	sw	s5,20(sp)
20000b28:	01712623          	sw	s7,12(sp)
20000b2c:	7ff87813          	andi	a6,a6,2047
20000b30:	00050a13          	mv	s4,a0
20000b34:	00060b13          	mv	s6,a2
20000b38:	00068c13          	mv	s8,a3
20000b3c:	00c4d493          	srli	s1,s1,0xc
20000b40:	01f5d993          	srli	s3,a1,0x1f
20000b44:	0a080063          	beqz	a6,20000be4 <__divdf3+0xec>
20000b48:	7ff00793          	li	a5,2047
20000b4c:	0ef80e63          	beq	a6,a5,20000c48 <__divdf3+0x150>
20000b50:	01d55a93          	srli	s5,a0,0x1d
20000b54:	00349493          	slli	s1,s1,0x3
20000b58:	009aeab3          	or	s5,s5,s1
20000b5c:	008007b7          	lui	a5,0x800
20000b60:	00faeab3          	or	s5,s5,a5
20000b64:	00351413          	slli	s0,a0,0x3
20000b68:	c0180913          	addi	s2,a6,-1023
20000b6c:	00000b93          	li	s7,0
20000b70:	014c5793          	srli	a5,s8,0x14
20000b74:	00cc1493          	slli	s1,s8,0xc
20000b78:	7ff7f793          	andi	a5,a5,2047
20000b7c:	00c4d493          	srli	s1,s1,0xc
20000b80:	01fc5c13          	srli	s8,s8,0x1f
20000b84:	10078063          	beqz	a5,20000c84 <__divdf3+0x18c>
20000b88:	7ff00713          	li	a4,2047
20000b8c:	16e78063          	beq	a5,a4,20000cec <__divdf3+0x1f4>
20000b90:	00349493          	slli	s1,s1,0x3
20000b94:	01db5713          	srli	a4,s6,0x1d
20000b98:	00976733          	or	a4,a4,s1
20000b9c:	008004b7          	lui	s1,0x800
20000ba0:	009764b3          	or	s1,a4,s1
20000ba4:	003b1e93          	slli	t4,s6,0x3
20000ba8:	c0178793          	addi	a5,a5,-1023 # 7ffc01 <_start-0x1f8003ff>
20000bac:	00000713          	li	a4,0
20000bb0:	40f90833          	sub	a6,s2,a5
20000bb4:	002b9793          	slli	a5,s7,0x2
20000bb8:	00e7e7b3          	or	a5,a5,a4
20000bbc:	fff78793          	addi	a5,a5,-1
20000bc0:	00e00693          	li	a3,14
20000bc4:	0189c633          	xor	a2,s3,s8
20000bc8:	14f6ee63          	bltu	a3,a5,20000d24 <__divdf3+0x22c>
20000bcc:	200096b7          	lui	a3,0x20009
20000bd0:	00279793          	slli	a5,a5,0x2
20000bd4:	bf068693          	addi	a3,a3,-1040 # 20008bf0 <scalbnf+0x108>
20000bd8:	00d787b3          	add	a5,a5,a3
20000bdc:	0007a783          	lw	a5,0(a5)
20000be0:	00078067          	jr	a5
20000be4:	00a4eab3          	or	s5,s1,a0
20000be8:	060a8e63          	beqz	s5,20000c64 <__divdf3+0x16c>
20000bec:	04048063          	beqz	s1,20000c2c <__divdf3+0x134>
20000bf0:	00048513          	mv	a0,s1
20000bf4:	26d020ef          	jal	ra,20003660 <__clzsi2>
20000bf8:	ff550793          	addi	a5,a0,-11
20000bfc:	01c00713          	li	a4,28
20000c00:	02f74c63          	blt	a4,a5,20000c38 <__divdf3+0x140>
20000c04:	01d00a93          	li	s5,29
20000c08:	ff850413          	addi	s0,a0,-8
20000c0c:	40fa8ab3          	sub	s5,s5,a5
20000c10:	008494b3          	sll	s1,s1,s0
20000c14:	015a5ab3          	srl	s5,s4,s5
20000c18:	009aeab3          	or	s5,s5,s1
20000c1c:	008a1433          	sll	s0,s4,s0
20000c20:	c0d00813          	li	a6,-1011
20000c24:	40a80933          	sub	s2,a6,a0
20000c28:	f45ff06f          	j	20000b6c <__divdf3+0x74>
20000c2c:	235020ef          	jal	ra,20003660 <__clzsi2>
20000c30:	02050513          	addi	a0,a0,32
20000c34:	fc5ff06f          	j	20000bf8 <__divdf3+0x100>
20000c38:	fd850a93          	addi	s5,a0,-40
20000c3c:	015a1ab3          	sll	s5,s4,s5
20000c40:	00000413          	li	s0,0
20000c44:	fddff06f          	j	20000c20 <__divdf3+0x128>
20000c48:	00a4eab3          	or	s5,s1,a0
20000c4c:	020a8463          	beqz	s5,20000c74 <__divdf3+0x17c>
20000c50:	00050413          	mv	s0,a0
20000c54:	00048a93          	mv	s5,s1
20000c58:	7ff00913          	li	s2,2047
20000c5c:	00300b93          	li	s7,3
20000c60:	f11ff06f          	j	20000b70 <__divdf3+0x78>
20000c64:	00000413          	li	s0,0
20000c68:	00000913          	li	s2,0
20000c6c:	00100b93          	li	s7,1
20000c70:	f01ff06f          	j	20000b70 <__divdf3+0x78>
20000c74:	00000413          	li	s0,0
20000c78:	7ff00913          	li	s2,2047
20000c7c:	00200b93          	li	s7,2
20000c80:	ef1ff06f          	j	20000b70 <__divdf3+0x78>
20000c84:	0164eeb3          	or	t4,s1,s6
20000c88:	060e8e63          	beqz	t4,20000d04 <__divdf3+0x20c>
20000c8c:	04048063          	beqz	s1,20000ccc <__divdf3+0x1d4>
20000c90:	00048513          	mv	a0,s1
20000c94:	1cd020ef          	jal	ra,20003660 <__clzsi2>
20000c98:	ff550713          	addi	a4,a0,-11
20000c9c:	01c00793          	li	a5,28
20000ca0:	02e7ce63          	blt	a5,a4,20000cdc <__divdf3+0x1e4>
20000ca4:	01d00793          	li	a5,29
20000ca8:	ff850e93          	addi	t4,a0,-8
20000cac:	40e787b3          	sub	a5,a5,a4
20000cb0:	01d494b3          	sll	s1,s1,t4
20000cb4:	00fb57b3          	srl	a5,s6,a5
20000cb8:	0097e4b3          	or	s1,a5,s1
20000cbc:	01db1eb3          	sll	t4,s6,t4
20000cc0:	c0d00793          	li	a5,-1011
20000cc4:	40a787b3          	sub	a5,a5,a0
20000cc8:	ee5ff06f          	j	20000bac <__divdf3+0xb4>
20000ccc:	000b0513          	mv	a0,s6
20000cd0:	191020ef          	jal	ra,20003660 <__clzsi2>
20000cd4:	02050513          	addi	a0,a0,32
20000cd8:	fc1ff06f          	j	20000c98 <__divdf3+0x1a0>
20000cdc:	fd850493          	addi	s1,a0,-40
20000ce0:	009b14b3          	sll	s1,s6,s1
20000ce4:	00000e93          	li	t4,0
20000ce8:	fd9ff06f          	j	20000cc0 <__divdf3+0x1c8>
20000cec:	0164eeb3          	or	t4,s1,s6
20000cf0:	020e8263          	beqz	t4,20000d14 <__divdf3+0x21c>
20000cf4:	000b0e93          	mv	t4,s6
20000cf8:	7ff00793          	li	a5,2047
20000cfc:	00300713          	li	a4,3
20000d00:	eb1ff06f          	j	20000bb0 <__divdf3+0xb8>
20000d04:	00000493          	li	s1,0
20000d08:	00000793          	li	a5,0
20000d0c:	00100713          	li	a4,1
20000d10:	ea1ff06f          	j	20000bb0 <__divdf3+0xb8>
20000d14:	00000493          	li	s1,0
20000d18:	7ff00793          	li	a5,2047
20000d1c:	00200713          	li	a4,2
20000d20:	e91ff06f          	j	20000bb0 <__divdf3+0xb8>
20000d24:	0154e663          	bltu	s1,s5,20000d30 <__divdf3+0x238>
20000d28:	349a9e63          	bne	s5,s1,20001084 <__divdf3+0x58c>
20000d2c:	35d46c63          	bltu	s0,t4,20001084 <__divdf3+0x58c>
20000d30:	01fa9713          	slli	a4,s5,0x1f
20000d34:	00145793          	srli	a5,s0,0x1
20000d38:	01f41f13          	slli	t5,s0,0x1f
20000d3c:	001ada93          	srli	s5,s5,0x1
20000d40:	00f76433          	or	s0,a4,a5
20000d44:	00849513          	slli	a0,s1,0x8
20000d48:	018ed693          	srli	a3,t4,0x18
20000d4c:	00a6e6b3          	or	a3,a3,a0
20000d50:	01055513          	srli	a0,a0,0x10
20000d54:	02aade33          	divu	t3,s5,a0
20000d58:	01069313          	slli	t1,a3,0x10
20000d5c:	01035313          	srli	t1,t1,0x10
20000d60:	01045793          	srli	a5,s0,0x10
20000d64:	008e9593          	slli	a1,t4,0x8
20000d68:	02aafab3          	remu	s5,s5,a0
20000d6c:	000e0713          	mv	a4,t3
20000d70:	03c308b3          	mul	a7,t1,t3
20000d74:	010a9a93          	slli	s5,s5,0x10
20000d78:	0157e7b3          	or	a5,a5,s5
20000d7c:	0117fe63          	bgeu	a5,a7,20000d98 <__divdf3+0x2a0>
20000d80:	00d787b3          	add	a5,a5,a3
20000d84:	fffe0713          	addi	a4,t3,-1
20000d88:	00d7e863          	bltu	a5,a3,20000d98 <__divdf3+0x2a0>
20000d8c:	0117f663          	bgeu	a5,a7,20000d98 <__divdf3+0x2a0>
20000d90:	ffee0713          	addi	a4,t3,-2
20000d94:	00d787b3          	add	a5,a5,a3
20000d98:	411787b3          	sub	a5,a5,a7
20000d9c:	02a7de33          	divu	t3,a5,a0
20000da0:	01041413          	slli	s0,s0,0x10
20000da4:	01045413          	srli	s0,s0,0x10
20000da8:	02a7f7b3          	remu	a5,a5,a0
20000dac:	03c308b3          	mul	a7,t1,t3
20000db0:	01079793          	slli	a5,a5,0x10
20000db4:	00f46433          	or	s0,s0,a5
20000db8:	000e0793          	mv	a5,t3
20000dbc:	01147e63          	bgeu	s0,a7,20000dd8 <__divdf3+0x2e0>
20000dc0:	00d40433          	add	s0,s0,a3
20000dc4:	fffe0793          	addi	a5,t3,-1
20000dc8:	00d46863          	bltu	s0,a3,20000dd8 <__divdf3+0x2e0>
20000dcc:	01147663          	bgeu	s0,a7,20000dd8 <__divdf3+0x2e0>
20000dd0:	ffee0793          	addi	a5,t3,-2
20000dd4:	00d40433          	add	s0,s0,a3
20000dd8:	01071713          	slli	a4,a4,0x10
20000ddc:	000103b7          	lui	t2,0x10
20000de0:	00f76fb3          	or	t6,a4,a5
20000de4:	41140433          	sub	s0,s0,a7
20000de8:	fff38893          	addi	a7,t2,-1 # ffff <_start-0x1fff0001>
20000dec:	011ff7b3          	and	a5,t6,a7
20000df0:	010fde93          	srli	t4,t6,0x10
20000df4:	0105de13          	srli	t3,a1,0x10
20000df8:	0115f8b3          	and	a7,a1,a7
20000dfc:	02f882b3          	mul	t0,a7,a5
20000e00:	031e84b3          	mul	s1,t4,a7
20000e04:	0102d713          	srli	a4,t0,0x10
20000e08:	02fe07b3          	mul	a5,t3,a5
20000e0c:	009787b3          	add	a5,a5,s1
20000e10:	00f70733          	add	a4,a4,a5
20000e14:	03ce8eb3          	mul	t4,t4,t3
20000e18:	00977463          	bgeu	a4,s1,20000e20 <__divdf3+0x328>
20000e1c:	007e8eb3          	add	t4,t4,t2
20000e20:	01075793          	srli	a5,a4,0x10
20000e24:	01d787b3          	add	a5,a5,t4
20000e28:	00010eb7          	lui	t4,0x10
20000e2c:	fffe8e93          	addi	t4,t4,-1 # ffff <_start-0x1fff0001>
20000e30:	01d77733          	and	a4,a4,t4
20000e34:	01071713          	slli	a4,a4,0x10
20000e38:	01d2f2b3          	and	t0,t0,t4
20000e3c:	00570733          	add	a4,a4,t0
20000e40:	00f46863          	bltu	s0,a5,20000e50 <__divdf3+0x358>
20000e44:	000f8493          	mv	s1,t6
20000e48:	04f41463          	bne	s0,a5,20000e90 <__divdf3+0x398>
20000e4c:	04ef7263          	bgeu	t5,a4,20000e90 <__divdf3+0x398>
20000e50:	00bf0f33          	add	t5,t5,a1
20000e54:	00bf3eb3          	sltu	t4,t5,a1
20000e58:	00de8eb3          	add	t4,t4,a3
20000e5c:	01d40433          	add	s0,s0,t4
20000e60:	ffff8493          	addi	s1,t6,-1
20000e64:	0086e663          	bltu	a3,s0,20000e70 <__divdf3+0x378>
20000e68:	02869463          	bne	a3,s0,20000e90 <__divdf3+0x398>
20000e6c:	02bf6263          	bltu	t5,a1,20000e90 <__divdf3+0x398>
20000e70:	00f46663          	bltu	s0,a5,20000e7c <__divdf3+0x384>
20000e74:	00879e63          	bne	a5,s0,20000e90 <__divdf3+0x398>
20000e78:	00ef7c63          	bgeu	t5,a4,20000e90 <__divdf3+0x398>
20000e7c:	00bf0f33          	add	t5,t5,a1
20000e80:	00bf3eb3          	sltu	t4,t5,a1
20000e84:	00de8eb3          	add	t4,t4,a3
20000e88:	ffef8493          	addi	s1,t6,-2
20000e8c:	01d40433          	add	s0,s0,t4
20000e90:	40ef0733          	sub	a4,t5,a4
20000e94:	40f40433          	sub	s0,s0,a5
20000e98:	00ef37b3          	sltu	a5,t5,a4
20000e9c:	40f40433          	sub	s0,s0,a5
20000ea0:	fff00e93          	li	t4,-1
20000ea4:	12868463          	beq	a3,s0,20000fcc <__divdf3+0x4d4>
20000ea8:	02a45fb3          	divu	t6,s0,a0
20000eac:	01075793          	srli	a5,a4,0x10
20000eb0:	02a47433          	remu	s0,s0,a0
20000eb4:	000f8e93          	mv	t4,t6
20000eb8:	03f30f33          	mul	t5,t1,t6
20000ebc:	01041413          	slli	s0,s0,0x10
20000ec0:	0087e7b3          	or	a5,a5,s0
20000ec4:	01e7fe63          	bgeu	a5,t5,20000ee0 <__divdf3+0x3e8>
20000ec8:	00d787b3          	add	a5,a5,a3
20000ecc:	ffff8e93          	addi	t4,t6,-1
20000ed0:	00d7e863          	bltu	a5,a3,20000ee0 <__divdf3+0x3e8>
20000ed4:	01e7f663          	bgeu	a5,t5,20000ee0 <__divdf3+0x3e8>
20000ed8:	ffef8e93          	addi	t4,t6,-2
20000edc:	00d787b3          	add	a5,a5,a3
20000ee0:	41e787b3          	sub	a5,a5,t5
20000ee4:	02a7df33          	divu	t5,a5,a0
20000ee8:	01071713          	slli	a4,a4,0x10
20000eec:	01075713          	srli	a4,a4,0x10
20000ef0:	02a7f7b3          	remu	a5,a5,a0
20000ef4:	000f0513          	mv	a0,t5
20000ef8:	03e30333          	mul	t1,t1,t5
20000efc:	01079793          	slli	a5,a5,0x10
20000f00:	00f76733          	or	a4,a4,a5
20000f04:	00677e63          	bgeu	a4,t1,20000f20 <__divdf3+0x428>
20000f08:	00d70733          	add	a4,a4,a3
20000f0c:	ffff0513          	addi	a0,t5,-1
20000f10:	00d76863          	bltu	a4,a3,20000f20 <__divdf3+0x428>
20000f14:	00677663          	bgeu	a4,t1,20000f20 <__divdf3+0x428>
20000f18:	ffef0513          	addi	a0,t5,-2
20000f1c:	00d70733          	add	a4,a4,a3
20000f20:	010e9793          	slli	a5,t4,0x10
20000f24:	00a7e7b3          	or	a5,a5,a0
20000f28:	01079513          	slli	a0,a5,0x10
20000f2c:	01055513          	srli	a0,a0,0x10
20000f30:	40670733          	sub	a4,a4,t1
20000f34:	0107d313          	srli	t1,a5,0x10
20000f38:	03150eb3          	mul	t4,a0,a7
20000f3c:	031308b3          	mul	a7,t1,a7
20000f40:	026e0333          	mul	t1,t3,t1
20000f44:	02ae0e33          	mul	t3,t3,a0
20000f48:	010ed513          	srli	a0,t4,0x10
20000f4c:	011e0e33          	add	t3,t3,a7
20000f50:	01c50533          	add	a0,a0,t3
20000f54:	01157663          	bgeu	a0,a7,20000f60 <__divdf3+0x468>
20000f58:	000108b7          	lui	a7,0x10
20000f5c:	01130333          	add	t1,t1,a7
20000f60:	01055893          	srli	a7,a0,0x10
20000f64:	006888b3          	add	a7,a7,t1
20000f68:	00010337          	lui	t1,0x10
20000f6c:	fff30313          	addi	t1,t1,-1 # ffff <_start-0x1fff0001>
20000f70:	00657533          	and	a0,a0,t1
20000f74:	01051513          	slli	a0,a0,0x10
20000f78:	006efeb3          	and	t4,t4,t1
20000f7c:	01d50533          	add	a0,a0,t4
20000f80:	01176863          	bltu	a4,a7,20000f90 <__divdf3+0x498>
20000f84:	25171463          	bne	a4,a7,200011cc <__divdf3+0x6d4>
20000f88:	00078e93          	mv	t4,a5
20000f8c:	04050063          	beqz	a0,20000fcc <__divdf3+0x4d4>
20000f90:	00e68733          	add	a4,a3,a4
20000f94:	fff78e93          	addi	t4,a5,-1
20000f98:	02d76463          	bltu	a4,a3,20000fc0 <__divdf3+0x4c8>
20000f9c:	01176663          	bltu	a4,a7,20000fa8 <__divdf3+0x4b0>
20000fa0:	23171463          	bne	a4,a7,200011c8 <__divdf3+0x6d0>
20000fa4:	02a5f063          	bgeu	a1,a0,20000fc4 <__divdf3+0x4cc>
20000fa8:	ffe78e93          	addi	t4,a5,-2
20000fac:	00159793          	slli	a5,a1,0x1
20000fb0:	00b7b5b3          	sltu	a1,a5,a1
20000fb4:	00d585b3          	add	a1,a1,a3
20000fb8:	00b70733          	add	a4,a4,a1
20000fbc:	00078593          	mv	a1,a5
20000fc0:	01171463          	bne	a4,a7,20000fc8 <__divdf3+0x4d0>
20000fc4:	00b50463          	beq	a0,a1,20000fcc <__divdf3+0x4d4>
20000fc8:	001eee93          	ori	t4,t4,1
20000fcc:	3ff80793          	addi	a5,a6,1023
20000fd0:	10f05a63          	blez	a5,200010e4 <__divdf3+0x5ec>
20000fd4:	007ef713          	andi	a4,t4,7
20000fd8:	02070063          	beqz	a4,20000ff8 <__divdf3+0x500>
20000fdc:	00fef713          	andi	a4,t4,15
20000fe0:	00400693          	li	a3,4
20000fe4:	00d70a63          	beq	a4,a3,20000ff8 <__divdf3+0x500>
20000fe8:	004e8713          	addi	a4,t4,4
20000fec:	01d73eb3          	sltu	t4,a4,t4
20000ff0:	01d484b3          	add	s1,s1,t4
20000ff4:	00070e93          	mv	t4,a4
20000ff8:	01000737          	lui	a4,0x1000
20000ffc:	00e4f733          	and	a4,s1,a4
20001000:	00070a63          	beqz	a4,20001014 <__divdf3+0x51c>
20001004:	ff0007b7          	lui	a5,0xff000
20001008:	fff78793          	addi	a5,a5,-1 # feffffff <__global_pointer$+0xdeff5e5f>
2000100c:	00f4f4b3          	and	s1,s1,a5
20001010:	40080793          	addi	a5,a6,1024
20001014:	7fe00713          	li	a4,2046
20001018:	0af74063          	blt	a4,a5,200010b8 <__divdf3+0x5c0>
2000101c:	003ede93          	srli	t4,t4,0x3
20001020:	01d49713          	slli	a4,s1,0x1d
20001024:	01d76733          	or	a4,a4,t4
20001028:	0034d513          	srli	a0,s1,0x3
2000102c:	7ff006b7          	lui	a3,0x7ff00
20001030:	01479793          	slli	a5,a5,0x14
20001034:	00c51513          	slli	a0,a0,0xc
20001038:	02c12083          	lw	ra,44(sp)
2000103c:	02812403          	lw	s0,40(sp)
20001040:	00d7f7b3          	and	a5,a5,a3
20001044:	00c55513          	srli	a0,a0,0xc
20001048:	00a7e7b3          	or	a5,a5,a0
2000104c:	01f61613          	slli	a2,a2,0x1f
20001050:	00c7e6b3          	or	a3,a5,a2
20001054:	02412483          	lw	s1,36(sp)
20001058:	02012903          	lw	s2,32(sp)
2000105c:	01c12983          	lw	s3,28(sp)
20001060:	01812a03          	lw	s4,24(sp)
20001064:	01412a83          	lw	s5,20(sp)
20001068:	01012b03          	lw	s6,16(sp)
2000106c:	00c12b83          	lw	s7,12(sp)
20001070:	00812c03          	lw	s8,8(sp)
20001074:	00070513          	mv	a0,a4
20001078:	00068593          	mv	a1,a3
2000107c:	03010113          	addi	sp,sp,48
20001080:	00008067          	ret
20001084:	fff80813          	addi	a6,a6,-1
20001088:	00000f13          	li	t5,0
2000108c:	cb9ff06f          	j	20000d44 <__divdf3+0x24c>
20001090:	00098613          	mv	a2,s3
20001094:	000a8493          	mv	s1,s5
20001098:	00040e93          	mv	t4,s0
2000109c:	000b8713          	mv	a4,s7
200010a0:	00300793          	li	a5,3
200010a4:	10f70063          	beq	a4,a5,200011a4 <__divdf3+0x6ac>
200010a8:	00100793          	li	a5,1
200010ac:	0ef70663          	beq	a4,a5,20001198 <__divdf3+0x6a0>
200010b0:	00200793          	li	a5,2
200010b4:	f0f71ce3          	bne	a4,a5,20000fcc <__divdf3+0x4d4>
200010b8:	00000513          	li	a0,0
200010bc:	00000713          	li	a4,0
200010c0:	7ff00793          	li	a5,2047
200010c4:	f69ff06f          	j	2000102c <__divdf3+0x534>
200010c8:	000c0613          	mv	a2,s8
200010cc:	fd5ff06f          	j	200010a0 <__divdf3+0x5a8>
200010d0:	000804b7          	lui	s1,0x80
200010d4:	00000e93          	li	t4,0
200010d8:	00000613          	li	a2,0
200010dc:	00300713          	li	a4,3
200010e0:	fc1ff06f          	j	200010a0 <__divdf3+0x5a8>
200010e4:	00100513          	li	a0,1
200010e8:	40f50533          	sub	a0,a0,a5
200010ec:	03800713          	li	a4,56
200010f0:	0aa74463          	blt	a4,a0,20001198 <__divdf3+0x6a0>
200010f4:	01f00713          	li	a4,31
200010f8:	06a74663          	blt	a4,a0,20001164 <__divdf3+0x66c>
200010fc:	41e80813          	addi	a6,a6,1054
20001100:	010497b3          	sll	a5,s1,a6
20001104:	00aed733          	srl	a4,t4,a0
20001108:	010e9833          	sll	a6,t4,a6
2000110c:	00e7e7b3          	or	a5,a5,a4
20001110:	01003833          	snez	a6,a6
20001114:	0107e7b3          	or	a5,a5,a6
20001118:	00a4d533          	srl	a0,s1,a0
2000111c:	0077f713          	andi	a4,a5,7
20001120:	02070063          	beqz	a4,20001140 <__divdf3+0x648>
20001124:	00f7f713          	andi	a4,a5,15
20001128:	00400693          	li	a3,4
2000112c:	00d70a63          	beq	a4,a3,20001140 <__divdf3+0x648>
20001130:	00478713          	addi	a4,a5,4
20001134:	00f737b3          	sltu	a5,a4,a5
20001138:	00f50533          	add	a0,a0,a5
2000113c:	00070793          	mv	a5,a4
20001140:	00800737          	lui	a4,0x800
20001144:	00e57733          	and	a4,a0,a4
20001148:	06071863          	bnez	a4,200011b8 <__divdf3+0x6c0>
2000114c:	01d51713          	slli	a4,a0,0x1d
20001150:	0037d793          	srli	a5,a5,0x3
20001154:	00f76733          	or	a4,a4,a5
20001158:	00355513          	srli	a0,a0,0x3
2000115c:	00000793          	li	a5,0
20001160:	ecdff06f          	j	2000102c <__divdf3+0x534>
20001164:	fe100713          	li	a4,-31
20001168:	40f707b3          	sub	a5,a4,a5
2000116c:	02000693          	li	a3,32
20001170:	00f4d7b3          	srl	a5,s1,a5
20001174:	00000713          	li	a4,0
20001178:	00d50663          	beq	a0,a3,20001184 <__divdf3+0x68c>
2000117c:	43e80713          	addi	a4,a6,1086
20001180:	00e49733          	sll	a4,s1,a4
20001184:	01d76733          	or	a4,a4,t4
20001188:	00e03733          	snez	a4,a4
2000118c:	00e7e7b3          	or	a5,a5,a4
20001190:	00000513          	li	a0,0
20001194:	f89ff06f          	j	2000111c <__divdf3+0x624>
20001198:	00000513          	li	a0,0
2000119c:	00000713          	li	a4,0
200011a0:	fbdff06f          	j	2000115c <__divdf3+0x664>
200011a4:	00080537          	lui	a0,0x80
200011a8:	00000713          	li	a4,0
200011ac:	7ff00793          	li	a5,2047
200011b0:	00000613          	li	a2,0
200011b4:	e79ff06f          	j	2000102c <__divdf3+0x534>
200011b8:	00000513          	li	a0,0
200011bc:	00000713          	li	a4,0
200011c0:	00100793          	li	a5,1
200011c4:	e69ff06f          	j	2000102c <__divdf3+0x534>
200011c8:	000e8793          	mv	a5,t4
200011cc:	00078e93          	mv	t4,a5
200011d0:	df9ff06f          	j	20000fc8 <__divdf3+0x4d0>

200011d4 <__gedf2>:
200011d4:	00100737          	lui	a4,0x100
200011d8:	fff70713          	addi	a4,a4,-1 # fffff <_start-0x1ff00001>
200011dc:	0145d813          	srli	a6,a1,0x14
200011e0:	00b778b3          	and	a7,a4,a1
200011e4:	00050793          	mv	a5,a0
200011e8:	00050313          	mv	t1,a0
200011ec:	7ff87813          	andi	a6,a6,2047
200011f0:	01f5d513          	srli	a0,a1,0x1f
200011f4:	7ff00e93          	li	t4,2047
200011f8:	0146d593          	srli	a1,a3,0x14
200011fc:	00d77733          	and	a4,a4,a3
20001200:	00060e13          	mv	t3,a2
20001204:	7ff5f593          	andi	a1,a1,2047
20001208:	01f6d693          	srli	a3,a3,0x1f
2000120c:	01d81a63          	bne	a6,t4,20001220 <__gedf2+0x4c>
20001210:	00f8eeb3          	or	t4,a7,a5
20001214:	080e8a63          	beqz	t4,200012a8 <__gedf2+0xd4>
20001218:	ffe00513          	li	a0,-2
2000121c:	00008067          	ret
20001220:	01d59663          	bne	a1,t4,2000122c <__gedf2+0x58>
20001224:	00c76eb3          	or	t4,a4,a2
20001228:	fe0e98e3          	bnez	t4,20001218 <__gedf2+0x44>
2000122c:	08081063          	bnez	a6,200012ac <__gedf2+0xd8>
20001230:	00f8e7b3          	or	a5,a7,a5
20001234:	0017b793          	seqz	a5,a5
20001238:	00059663          	bnez	a1,20001244 <__gedf2+0x70>
2000123c:	00c76633          	or	a2,a4,a2
20001240:	04060c63          	beqz	a2,20001298 <__gedf2+0xc4>
20001244:	00079c63          	bnez	a5,2000125c <__gedf2+0x88>
20001248:	00d51463          	bne	a0,a3,20001250 <__gedf2+0x7c>
2000124c:	0305d063          	bge	a1,a6,2000126c <__gedf2+0x98>
20001250:	04050063          	beqz	a0,20001290 <__gedf2+0xbc>
20001254:	fff00513          	li	a0,-1
20001258:	00008067          	ret
2000125c:	fff00513          	li	a0,-1
20001260:	00068a63          	beqz	a3,20001274 <__gedf2+0xa0>
20001264:	00068513          	mv	a0,a3
20001268:	00008067          	ret
2000126c:	00b85663          	bge	a6,a1,20001278 <__gedf2+0xa4>
20001270:	fe0502e3          	beqz	a0,20001254 <__gedf2+0x80>
20001274:	00008067          	ret
20001278:	fd176ce3          	bltu	a4,a7,20001250 <__gedf2+0x7c>
2000127c:	02e89263          	bne	a7,a4,200012a0 <__gedf2+0xcc>
20001280:	fc6e68e3          	bltu	t3,t1,20001250 <__gedf2+0x7c>
20001284:	ffc366e3          	bltu	t1,t3,20001270 <__gedf2+0x9c>
20001288:	00000513          	li	a0,0
2000128c:	00008067          	ret
20001290:	00100513          	li	a0,1
20001294:	00008067          	ret
20001298:	fe0798e3          	bnez	a5,20001288 <__gedf2+0xb4>
2000129c:	fb5ff06f          	j	20001250 <__gedf2+0x7c>
200012a0:	fce8e8e3          	bltu	a7,a4,20001270 <__gedf2+0x9c>
200012a4:	fe5ff06f          	j	20001288 <__gedf2+0xb4>
200012a8:	f7058ee3          	beq	a1,a6,20001224 <__gedf2+0x50>
200012ac:	f8059ee3          	bnez	a1,20001248 <__gedf2+0x74>
200012b0:	00000793          	li	a5,0
200012b4:	f89ff06f          	j	2000123c <__gedf2+0x68>

200012b8 <__muldf3>:
200012b8:	fd010113          	addi	sp,sp,-48
200012bc:	01312e23          	sw	s3,28(sp)
200012c0:	0145d993          	srli	s3,a1,0x14
200012c4:	02812423          	sw	s0,40(sp)
200012c8:	02912223          	sw	s1,36(sp)
200012cc:	01412c23          	sw	s4,24(sp)
200012d0:	01512a23          	sw	s5,20(sp)
200012d4:	01712623          	sw	s7,12(sp)
200012d8:	00c59493          	slli	s1,a1,0xc
200012dc:	02112623          	sw	ra,44(sp)
200012e0:	03212023          	sw	s2,32(sp)
200012e4:	01612823          	sw	s6,16(sp)
200012e8:	7ff9f993          	andi	s3,s3,2047
200012ec:	00050413          	mv	s0,a0
200012f0:	00060b93          	mv	s7,a2
200012f4:	00068a93          	mv	s5,a3
200012f8:	00c4d493          	srli	s1,s1,0xc
200012fc:	01f5da13          	srli	s4,a1,0x1f
20001300:	30098863          	beqz	s3,20001610 <__muldf3+0x358>
20001304:	7ff00793          	li	a5,2047
20001308:	36f98663          	beq	s3,a5,20001674 <__muldf3+0x3bc>
2000130c:	00349493          	slli	s1,s1,0x3
20001310:	01d55793          	srli	a5,a0,0x1d
20001314:	0097e7b3          	or	a5,a5,s1
20001318:	008004b7          	lui	s1,0x800
2000131c:	0097e4b3          	or	s1,a5,s1
20001320:	00351913          	slli	s2,a0,0x3
20001324:	c0198993          	addi	s3,s3,-1023
20001328:	00000b13          	li	s6,0
2000132c:	014ad713          	srli	a4,s5,0x14
20001330:	00ca9413          	slli	s0,s5,0xc
20001334:	7ff77713          	andi	a4,a4,2047
20001338:	00c45413          	srli	s0,s0,0xc
2000133c:	01fada93          	srli	s5,s5,0x1f
20001340:	36070663          	beqz	a4,200016ac <__muldf3+0x3f4>
20001344:	7ff00793          	li	a5,2047
20001348:	3cf70663          	beq	a4,a5,20001714 <__muldf3+0x45c>
2000134c:	00341413          	slli	s0,s0,0x3
20001350:	01dbd793          	srli	a5,s7,0x1d
20001354:	0087e7b3          	or	a5,a5,s0
20001358:	00800437          	lui	s0,0x800
2000135c:	0087e433          	or	s0,a5,s0
20001360:	c0170713          	addi	a4,a4,-1023
20001364:	003b9793          	slli	a5,s7,0x3
20001368:	00000513          	li	a0,0
2000136c:	00e989b3          	add	s3,s3,a4
20001370:	002b1713          	slli	a4,s6,0x2
20001374:	00a76733          	or	a4,a4,a0
20001378:	00a00693          	li	a3,10
2000137c:	015a4633          	xor	a2,s4,s5
20001380:	00198593          	addi	a1,s3,1
20001384:	40e6c863          	blt	a3,a4,20001794 <__muldf3+0x4dc>
20001388:	00200693          	li	a3,2
2000138c:	3ce6c063          	blt	a3,a4,2000174c <__muldf3+0x494>
20001390:	fff70713          	addi	a4,a4,-1
20001394:	00100693          	li	a3,1
20001398:	3ce6fc63          	bgeu	a3,a4,20001770 <__muldf3+0x4b8>
2000139c:	00010e37          	lui	t3,0x10
200013a0:	fffe0313          	addi	t1,t3,-1 # ffff <_start-0x1fff0001>
200013a4:	01095813          	srli	a6,s2,0x10
200013a8:	0107d513          	srli	a0,a5,0x10
200013ac:	00697933          	and	s2,s2,t1
200013b0:	0067feb3          	and	t4,a5,t1
200013b4:	03d907b3          	mul	a5,s2,t4
200013b8:	03d80f33          	mul	t5,a6,t4
200013bc:	0107d713          	srli	a4,a5,0x10
200013c0:	032506b3          	mul	a3,a0,s2
200013c4:	01e686b3          	add	a3,a3,t5
200013c8:	00d70733          	add	a4,a4,a3
200013cc:	02a808b3          	mul	a7,a6,a0
200013d0:	01e77463          	bgeu	a4,t5,200013d8 <__muldf3+0x120>
200013d4:	01c888b3          	add	a7,a7,t3
200013d8:	006776b3          	and	a3,a4,t1
200013dc:	0067f7b3          	and	a5,a5,t1
200013e0:	01069693          	slli	a3,a3,0x10
200013e4:	00647e33          	and	t3,s0,t1
200013e8:	00f686b3          	add	a3,a3,a5
200013ec:	01045793          	srli	a5,s0,0x10
200013f0:	01075293          	srli	t0,a4,0x10
200013f4:	03c90f33          	mul	t5,s2,t3
200013f8:	03c80333          	mul	t1,a6,t3
200013fc:	010f5713          	srli	a4,t5,0x10
20001400:	03278933          	mul	s2,a5,s2
20001404:	00690933          	add	s2,s2,t1
20001408:	01270733          	add	a4,a4,s2
2000140c:	02f80833          	mul	a6,a6,a5
20001410:	00677663          	bgeu	a4,t1,2000141c <__muldf3+0x164>
20001414:	00010337          	lui	t1,0x10
20001418:	00680833          	add	a6,a6,t1
2000141c:	00010937          	lui	s2,0x10
20001420:	fff90f93          	addi	t6,s2,-1 # ffff <_start-0x1fff0001>
20001424:	01075313          	srli	t1,a4,0x10
20001428:	01ff7f33          	and	t5,t5,t6
2000142c:	01f77733          	and	a4,a4,t6
20001430:	0104d413          	srli	s0,s1,0x10
20001434:	01f4ffb3          	and	t6,s1,t6
20001438:	03fe83b3          	mul	t2,t4,t6
2000143c:	01030333          	add	t1,t1,a6
20001440:	01071713          	slli	a4,a4,0x10
20001444:	01e70f33          	add	t5,a4,t5
20001448:	01e282b3          	add	t0,t0,t5
2000144c:	03d40833          	mul	a6,s0,t4
20001450:	0103d713          	srli	a4,t2,0x10
20001454:	028504b3          	mul	s1,a0,s0
20001458:	03f50533          	mul	a0,a0,t6
2000145c:	01050533          	add	a0,a0,a6
20001460:	00a70733          	add	a4,a4,a0
20001464:	01077463          	bgeu	a4,a6,2000146c <__muldf3+0x1b4>
20001468:	012484b3          	add	s1,s1,s2
2000146c:	01075e93          	srli	t4,a4,0x10
20001470:	009e8eb3          	add	t4,t4,s1
20001474:	000104b7          	lui	s1,0x10
20001478:	fff48513          	addi	a0,s1,-1 # ffff <_start-0x1fff0001>
2000147c:	00a77733          	and	a4,a4,a0
20001480:	00a3f3b3          	and	t2,t2,a0
20001484:	01071713          	slli	a4,a4,0x10
20001488:	03c40533          	mul	a0,s0,t3
2000148c:	00770733          	add	a4,a4,t2
20001490:	02878833          	mul	a6,a5,s0
20001494:	03fe03b3          	mul	t2,t3,t6
20001498:	03f787b3          	mul	a5,a5,t6
2000149c:	0103df93          	srli	t6,t2,0x10
200014a0:	00a787b3          	add	a5,a5,a0
200014a4:	00ff8fb3          	add	t6,t6,a5
200014a8:	00aff463          	bgeu	t6,a0,200014b0 <__muldf3+0x1f8>
200014ac:	00980833          	add	a6,a6,s1
200014b0:	00010537          	lui	a0,0x10
200014b4:	fff50513          	addi	a0,a0,-1 # ffff <_start-0x1fff0001>
200014b8:	00aff7b3          	and	a5,t6,a0
200014bc:	00a3f3b3          	and	t2,t2,a0
200014c0:	01079793          	slli	a5,a5,0x10
200014c4:	005888b3          	add	a7,a7,t0
200014c8:	007787b3          	add	a5,a5,t2
200014cc:	01e8bf33          	sltu	t5,a7,t5
200014d0:	006787b3          	add	a5,a5,t1
200014d4:	01e782b3          	add	t0,a5,t5
200014d8:	00e888b3          	add	a7,a7,a4
200014dc:	00e8b733          	sltu	a4,a7,a4
200014e0:	01d28533          	add	a0,t0,t4
200014e4:	00e50e33          	add	t3,a0,a4
200014e8:	0067b433          	sltu	s0,a5,t1
200014ec:	01e2b2b3          	sltu	t0,t0,t5
200014f0:	010fd793          	srli	a5,t6,0x10
200014f4:	00ee3733          	sltu	a4,t3,a4
200014f8:	00546433          	or	s0,s0,t0
200014fc:	01d53533          	sltu	a0,a0,t4
20001500:	00f40433          	add	s0,s0,a5
20001504:	00e56533          	or	a0,a0,a4
20001508:	00a40433          	add	s0,s0,a0
2000150c:	01040433          	add	s0,s0,a6
20001510:	017e5793          	srli	a5,t3,0x17
20001514:	00941413          	slli	s0,s0,0x9
20001518:	00f46433          	or	s0,s0,a5
2000151c:	00989793          	slli	a5,a7,0x9
20001520:	00d7e7b3          	or	a5,a5,a3
20001524:	00f037b3          	snez	a5,a5
20001528:	0178d893          	srli	a7,a7,0x17
2000152c:	009e1713          	slli	a4,t3,0x9
20001530:	0117e7b3          	or	a5,a5,a7
20001534:	00e7e7b3          	or	a5,a5,a4
20001538:	01000737          	lui	a4,0x1000
2000153c:	00e47733          	and	a4,s0,a4
20001540:	28070663          	beqz	a4,200017cc <__muldf3+0x514>
20001544:	0017d713          	srli	a4,a5,0x1
20001548:	0017f793          	andi	a5,a5,1
2000154c:	00f76733          	or	a4,a4,a5
20001550:	01f41793          	slli	a5,s0,0x1f
20001554:	00f767b3          	or	a5,a4,a5
20001558:	00145413          	srli	s0,s0,0x1
2000155c:	3ff58693          	addi	a3,a1,1023 # 8003ff <_start-0x1f7ffc01>
20001560:	26d05a63          	blez	a3,200017d4 <__muldf3+0x51c>
20001564:	0077f713          	andi	a4,a5,7
20001568:	02070063          	beqz	a4,20001588 <__muldf3+0x2d0>
2000156c:	00f7f713          	andi	a4,a5,15
20001570:	00400513          	li	a0,4
20001574:	00a70a63          	beq	a4,a0,20001588 <__muldf3+0x2d0>
20001578:	00478713          	addi	a4,a5,4
2000157c:	00f737b3          	sltu	a5,a4,a5
20001580:	00f40433          	add	s0,s0,a5
20001584:	00070793          	mv	a5,a4
20001588:	01000737          	lui	a4,0x1000
2000158c:	00e47733          	and	a4,s0,a4
20001590:	00070a63          	beqz	a4,200015a4 <__muldf3+0x2ec>
20001594:	ff000737          	lui	a4,0xff000
20001598:	fff70713          	addi	a4,a4,-1 # feffffff <__global_pointer$+0xdeff5e5f>
2000159c:	00e47433          	and	s0,s0,a4
200015a0:	40058693          	addi	a3,a1,1024
200015a4:	7fe00713          	li	a4,2046
200015a8:	2ed74e63          	blt	a4,a3,200018a4 <__muldf3+0x5ec>
200015ac:	01d41713          	slli	a4,s0,0x1d
200015b0:	0037d793          	srli	a5,a5,0x3
200015b4:	00f76733          	or	a4,a4,a5
200015b8:	00345413          	srli	s0,s0,0x3
200015bc:	7ff007b7          	lui	a5,0x7ff00
200015c0:	01469693          	slli	a3,a3,0x14
200015c4:	00c41413          	slli	s0,s0,0xc
200015c8:	00f6f6b3          	and	a3,a3,a5
200015cc:	00c45413          	srli	s0,s0,0xc
200015d0:	02c12083          	lw	ra,44(sp)
200015d4:	0086e6b3          	or	a3,a3,s0
200015d8:	02812403          	lw	s0,40(sp)
200015dc:	01f61613          	slli	a2,a2,0x1f
200015e0:	00c6e7b3          	or	a5,a3,a2
200015e4:	02412483          	lw	s1,36(sp)
200015e8:	02012903          	lw	s2,32(sp)
200015ec:	01c12983          	lw	s3,28(sp)
200015f0:	01812a03          	lw	s4,24(sp)
200015f4:	01412a83          	lw	s5,20(sp)
200015f8:	01012b03          	lw	s6,16(sp)
200015fc:	00c12b83          	lw	s7,12(sp)
20001600:	00070513          	mv	a0,a4
20001604:	00078593          	mv	a1,a5
20001608:	03010113          	addi	sp,sp,48
2000160c:	00008067          	ret
20001610:	00a4e933          	or	s2,s1,a0
20001614:	06090c63          	beqz	s2,2000168c <__muldf3+0x3d4>
20001618:	04048063          	beqz	s1,20001658 <__muldf3+0x3a0>
2000161c:	00048513          	mv	a0,s1
20001620:	040020ef          	jal	ra,20003660 <__clzsi2>
20001624:	ff550713          	addi	a4,a0,-11
20001628:	01c00793          	li	a5,28
2000162c:	02e7cc63          	blt	a5,a4,20001664 <__muldf3+0x3ac>
20001630:	01d00793          	li	a5,29
20001634:	ff850913          	addi	s2,a0,-8
20001638:	40e787b3          	sub	a5,a5,a4
2000163c:	012494b3          	sll	s1,s1,s2
20001640:	00f457b3          	srl	a5,s0,a5
20001644:	0097e4b3          	or	s1,a5,s1
20001648:	01241933          	sll	s2,s0,s2
2000164c:	c0d00993          	li	s3,-1011
20001650:	40a989b3          	sub	s3,s3,a0
20001654:	cd5ff06f          	j	20001328 <__muldf3+0x70>
20001658:	008020ef          	jal	ra,20003660 <__clzsi2>
2000165c:	02050513          	addi	a0,a0,32
20001660:	fc5ff06f          	j	20001624 <__muldf3+0x36c>
20001664:	fd850493          	addi	s1,a0,-40
20001668:	009414b3          	sll	s1,s0,s1
2000166c:	00000913          	li	s2,0
20001670:	fddff06f          	j	2000164c <__muldf3+0x394>
20001674:	00a4e933          	or	s2,s1,a0
20001678:	02090263          	beqz	s2,2000169c <__muldf3+0x3e4>
2000167c:	00050913          	mv	s2,a0
20001680:	7ff00993          	li	s3,2047
20001684:	00300b13          	li	s6,3
20001688:	ca5ff06f          	j	2000132c <__muldf3+0x74>
2000168c:	00000493          	li	s1,0
20001690:	00000993          	li	s3,0
20001694:	00100b13          	li	s6,1
20001698:	c95ff06f          	j	2000132c <__muldf3+0x74>
2000169c:	00000493          	li	s1,0
200016a0:	7ff00993          	li	s3,2047
200016a4:	00200b13          	li	s6,2
200016a8:	c85ff06f          	j	2000132c <__muldf3+0x74>
200016ac:	017467b3          	or	a5,s0,s7
200016b0:	06078e63          	beqz	a5,2000172c <__muldf3+0x474>
200016b4:	04040063          	beqz	s0,200016f4 <__muldf3+0x43c>
200016b8:	00040513          	mv	a0,s0
200016bc:	7a5010ef          	jal	ra,20003660 <__clzsi2>
200016c0:	ff550693          	addi	a3,a0,-11
200016c4:	01c00793          	li	a5,28
200016c8:	02d7ce63          	blt	a5,a3,20001704 <__muldf3+0x44c>
200016cc:	01d00713          	li	a4,29
200016d0:	ff850793          	addi	a5,a0,-8
200016d4:	40d70733          	sub	a4,a4,a3
200016d8:	00f41433          	sll	s0,s0,a5
200016dc:	00ebd733          	srl	a4,s7,a4
200016e0:	00876433          	or	s0,a4,s0
200016e4:	00fb97b3          	sll	a5,s7,a5
200016e8:	c0d00713          	li	a4,-1011
200016ec:	40a70733          	sub	a4,a4,a0
200016f0:	c79ff06f          	j	20001368 <__muldf3+0xb0>
200016f4:	000b8513          	mv	a0,s7
200016f8:	769010ef          	jal	ra,20003660 <__clzsi2>
200016fc:	02050513          	addi	a0,a0,32
20001700:	fc1ff06f          	j	200016c0 <__muldf3+0x408>
20001704:	fd850413          	addi	s0,a0,-40
20001708:	008b9433          	sll	s0,s7,s0
2000170c:	00000793          	li	a5,0
20001710:	fd9ff06f          	j	200016e8 <__muldf3+0x430>
20001714:	017467b3          	or	a5,s0,s7
20001718:	02078263          	beqz	a5,2000173c <__muldf3+0x484>
2000171c:	000b8793          	mv	a5,s7
20001720:	7ff00713          	li	a4,2047
20001724:	00300513          	li	a0,3
20001728:	c45ff06f          	j	2000136c <__muldf3+0xb4>
2000172c:	00000413          	li	s0,0
20001730:	00000713          	li	a4,0
20001734:	00100513          	li	a0,1
20001738:	c35ff06f          	j	2000136c <__muldf3+0xb4>
2000173c:	00000413          	li	s0,0
20001740:	7ff00713          	li	a4,2047
20001744:	00200513          	li	a0,2
20001748:	c25ff06f          	j	2000136c <__muldf3+0xb4>
2000174c:	00100693          	li	a3,1
20001750:	00e696b3          	sll	a3,a3,a4
20001754:	5306f713          	andi	a4,a3,1328
20001758:	04071863          	bnez	a4,200017a8 <__muldf3+0x4f0>
2000175c:	2406f813          	andi	a6,a3,576
20001760:	12081463          	bnez	a6,20001888 <__muldf3+0x5d0>
20001764:	0886f693          	andi	a3,a3,136
20001768:	c2068ae3          	beqz	a3,2000139c <__muldf3+0xe4>
2000176c:	000a8613          	mv	a2,s5
20001770:	00200713          	li	a4,2
20001774:	12e50863          	beq	a0,a4,200018a4 <__muldf3+0x5ec>
20001778:	00300713          	li	a4,3
2000177c:	10e50e63          	beq	a0,a4,20001898 <__muldf3+0x5e0>
20001780:	00100713          	li	a4,1
20001784:	dce51ce3          	bne	a0,a4,2000155c <__muldf3+0x2a4>
20001788:	00000413          	li	s0,0
2000178c:	00000713          	li	a4,0
20001790:	0bc0006f          	j	2000184c <__muldf3+0x594>
20001794:	00f00693          	li	a3,15
20001798:	02d70063          	beq	a4,a3,200017b8 <__muldf3+0x500>
2000179c:	00b00693          	li	a3,11
200017a0:	fcd706e3          	beq	a4,a3,2000176c <__muldf3+0x4b4>
200017a4:	000a0613          	mv	a2,s4
200017a8:	00048413          	mv	s0,s1
200017ac:	00090793          	mv	a5,s2
200017b0:	000b0513          	mv	a0,s6
200017b4:	fbdff06f          	j	20001770 <__muldf3+0x4b8>
200017b8:	00080437          	lui	s0,0x80
200017bc:	00000793          	li	a5,0
200017c0:	00000613          	li	a2,0
200017c4:	00300513          	li	a0,3
200017c8:	fb1ff06f          	j	20001778 <__muldf3+0x4c0>
200017cc:	00098593          	mv	a1,s3
200017d0:	d8dff06f          	j	2000155c <__muldf3+0x2a4>
200017d4:	00100513          	li	a0,1
200017d8:	40d50533          	sub	a0,a0,a3
200017dc:	03800713          	li	a4,56
200017e0:	faa744e3          	blt	a4,a0,20001788 <__muldf3+0x4d0>
200017e4:	01f00713          	li	a4,31
200017e8:	06a74663          	blt	a4,a0,20001854 <__muldf3+0x59c>
200017ec:	41e58593          	addi	a1,a1,1054
200017f0:	00b41733          	sll	a4,s0,a1
200017f4:	00a7d6b3          	srl	a3,a5,a0
200017f8:	00b795b3          	sll	a1,a5,a1
200017fc:	00d76733          	or	a4,a4,a3
20001800:	00b035b3          	snez	a1,a1
20001804:	00b767b3          	or	a5,a4,a1
20001808:	00a45433          	srl	s0,s0,a0
2000180c:	0077f713          	andi	a4,a5,7
20001810:	02070063          	beqz	a4,20001830 <__muldf3+0x578>
20001814:	00f7f713          	andi	a4,a5,15
20001818:	00400693          	li	a3,4
2000181c:	00d70a63          	beq	a4,a3,20001830 <__muldf3+0x578>
20001820:	00478713          	addi	a4,a5,4 # 7ff00004 <__global_pointer$+0x5fef5e64>
20001824:	00f737b3          	sltu	a5,a4,a5
20001828:	00f40433          	add	s0,s0,a5
2000182c:	00070793          	mv	a5,a4
20001830:	00800737          	lui	a4,0x800
20001834:	00e47733          	and	a4,s0,a4
20001838:	06071e63          	bnez	a4,200018b4 <__muldf3+0x5fc>
2000183c:	01d41713          	slli	a4,s0,0x1d
20001840:	0037d793          	srli	a5,a5,0x3
20001844:	00f76733          	or	a4,a4,a5
20001848:	00345413          	srli	s0,s0,0x3
2000184c:	00000693          	li	a3,0
20001850:	d6dff06f          	j	200015bc <__muldf3+0x304>
20001854:	fe100713          	li	a4,-31
20001858:	40d70733          	sub	a4,a4,a3
2000185c:	02000813          	li	a6,32
20001860:	00e45733          	srl	a4,s0,a4
20001864:	00000693          	li	a3,0
20001868:	01050663          	beq	a0,a6,20001874 <__muldf3+0x5bc>
2000186c:	43e58593          	addi	a1,a1,1086
20001870:	00b416b3          	sll	a3,s0,a1
20001874:	00f6e6b3          	or	a3,a3,a5
20001878:	00d036b3          	snez	a3,a3
2000187c:	00d767b3          	or	a5,a4,a3
20001880:	00000413          	li	s0,0
20001884:	f89ff06f          	j	2000180c <__muldf3+0x554>
20001888:	00080437          	lui	s0,0x80
2000188c:	7ff00693          	li	a3,2047
20001890:	00000613          	li	a2,0
20001894:	d29ff06f          	j	200015bc <__muldf3+0x304>
20001898:	00080437          	lui	s0,0x80
2000189c:	00000713          	li	a4,0
200018a0:	fedff06f          	j	2000188c <__muldf3+0x5d4>
200018a4:	00000413          	li	s0,0
200018a8:	00000713          	li	a4,0
200018ac:	7ff00693          	li	a3,2047
200018b0:	d0dff06f          	j	200015bc <__muldf3+0x304>
200018b4:	00000413          	li	s0,0
200018b8:	00000713          	li	a4,0
200018bc:	00100693          	li	a3,1
200018c0:	cfdff06f          	j	200015bc <__muldf3+0x304>

200018c4 <__subdf3>:
200018c4:	00100837          	lui	a6,0x100
200018c8:	fff80813          	addi	a6,a6,-1 # fffff <_start-0x1ff00001>
200018cc:	fe010113          	addi	sp,sp,-32
200018d0:	00b878b3          	and	a7,a6,a1
200018d4:	0145d713          	srli	a4,a1,0x14
200018d8:	01d55793          	srli	a5,a0,0x1d
200018dc:	00d87833          	and	a6,a6,a3
200018e0:	00812c23          	sw	s0,24(sp)
200018e4:	7ff77413          	andi	s0,a4,2047
200018e8:	00389713          	slli	a4,a7,0x3
200018ec:	0146d893          	srli	a7,a3,0x14
200018f0:	00912a23          	sw	s1,20(sp)
200018f4:	00e7e7b3          	or	a5,a5,a4
200018f8:	01f5d493          	srli	s1,a1,0x1f
200018fc:	01d65713          	srli	a4,a2,0x1d
20001900:	00381813          	slli	a6,a6,0x3
20001904:	00112e23          	sw	ra,28(sp)
20001908:	01212823          	sw	s2,16(sp)
2000190c:	01312623          	sw	s3,12(sp)
20001910:	7ff8f893          	andi	a7,a7,2047
20001914:	7ff00593          	li	a1,2047
20001918:	00351513          	slli	a0,a0,0x3
2000191c:	01f6d693          	srli	a3,a3,0x1f
20001920:	01076733          	or	a4,a4,a6
20001924:	00361613          	slli	a2,a2,0x3
20001928:	00b89663          	bne	a7,a1,20001934 <__subdf3+0x70>
2000192c:	00c765b3          	or	a1,a4,a2
20001930:	00059463          	bnez	a1,20001938 <__subdf3+0x74>
20001934:	0016c693          	xori	a3,a3,1
20001938:	41140833          	sub	a6,s0,a7
2000193c:	2c969863          	bne	a3,s1,20001c0c <__subdf3+0x348>
20001940:	13005063          	blez	a6,20001a60 <__subdf3+0x19c>
20001944:	04089063          	bnez	a7,20001984 <__subdf3+0xc0>
20001948:	00c766b3          	or	a3,a4,a2
2000194c:	70068e63          	beqz	a3,20002068 <__subdf3+0x7a4>
20001950:	fff80593          	addi	a1,a6,-1
20001954:	02059063          	bnez	a1,20001974 <__subdf3+0xb0>
20001958:	00c50633          	add	a2,a0,a2
2000195c:	00e78733          	add	a4,a5,a4
20001960:	00a637b3          	sltu	a5,a2,a0
20001964:	00f707b3          	add	a5,a4,a5
20001968:	00060513          	mv	a0,a2
2000196c:	00100413          	li	s0,1
20001970:	0700006f          	j	200019e0 <__subdf3+0x11c>
20001974:	7ff00693          	li	a3,2047
20001978:	02d81063          	bne	a6,a3,20001998 <__subdf3+0xd4>
2000197c:	7ff00413          	li	s0,2047
20001980:	2140006f          	j	20001b94 <__subdf3+0x2d0>
20001984:	7ff00693          	li	a3,2047
20001988:	20d40663          	beq	s0,a3,20001b94 <__subdf3+0x2d0>
2000198c:	008006b7          	lui	a3,0x800
20001990:	00d76733          	or	a4,a4,a3
20001994:	00080593          	mv	a1,a6
20001998:	03800693          	li	a3,56
2000199c:	0ab6cc63          	blt	a3,a1,20001a54 <__subdf3+0x190>
200019a0:	01f00693          	li	a3,31
200019a4:	06b6ce63          	blt	a3,a1,20001a20 <__subdf3+0x15c>
200019a8:	02000813          	li	a6,32
200019ac:	40b80833          	sub	a6,a6,a1
200019b0:	010716b3          	sll	a3,a4,a6
200019b4:	00b658b3          	srl	a7,a2,a1
200019b8:	01061833          	sll	a6,a2,a6
200019bc:	0116e6b3          	or	a3,a3,a7
200019c0:	01003833          	snez	a6,a6
200019c4:	0106e6b3          	or	a3,a3,a6
200019c8:	00b755b3          	srl	a1,a4,a1
200019cc:	00a686b3          	add	a3,a3,a0
200019d0:	00f585b3          	add	a1,a1,a5
200019d4:	00a6b7b3          	sltu	a5,a3,a0
200019d8:	00f587b3          	add	a5,a1,a5
200019dc:	00068513          	mv	a0,a3
200019e0:	00800737          	lui	a4,0x800
200019e4:	00e7f733          	and	a4,a5,a4
200019e8:	1a070663          	beqz	a4,20001b94 <__subdf3+0x2d0>
200019ec:	00140413          	addi	s0,s0,1 # 80001 <_start-0x1ff7ffff>
200019f0:	7ff00713          	li	a4,2047
200019f4:	5ce40a63          	beq	s0,a4,20001fc8 <__subdf3+0x704>
200019f8:	ff800737          	lui	a4,0xff800
200019fc:	fff70713          	addi	a4,a4,-1 # ff7fffff <__global_pointer$+0xdf7f5e5f>
20001a00:	00e7f7b3          	and	a5,a5,a4
20001a04:	00155713          	srli	a4,a0,0x1
20001a08:	00157513          	andi	a0,a0,1
20001a0c:	00a76733          	or	a4,a4,a0
20001a10:	01f79513          	slli	a0,a5,0x1f
20001a14:	00e56533          	or	a0,a0,a4
20001a18:	0017d793          	srli	a5,a5,0x1
20001a1c:	1780006f          	j	20001b94 <__subdf3+0x2d0>
20001a20:	fe058693          	addi	a3,a1,-32
20001a24:	02000893          	li	a7,32
20001a28:	00d756b3          	srl	a3,a4,a3
20001a2c:	00000813          	li	a6,0
20001a30:	01158863          	beq	a1,a7,20001a40 <__subdf3+0x17c>
20001a34:	04000813          	li	a6,64
20001a38:	40b80833          	sub	a6,a6,a1
20001a3c:	01071833          	sll	a6,a4,a6
20001a40:	00c86833          	or	a6,a6,a2
20001a44:	01003833          	snez	a6,a6
20001a48:	0106e6b3          	or	a3,a3,a6
20001a4c:	00000593          	li	a1,0
20001a50:	f7dff06f          	j	200019cc <__subdf3+0x108>
20001a54:	00c766b3          	or	a3,a4,a2
20001a58:	00d036b3          	snez	a3,a3
20001a5c:	ff1ff06f          	j	20001a4c <__subdf3+0x188>
20001a60:	0e080263          	beqz	a6,20001b44 <__subdf3+0x280>
20001a64:	408885b3          	sub	a1,a7,s0
20001a68:	02041e63          	bnez	s0,20001aa4 <__subdf3+0x1e0>
20001a6c:	00a7e6b3          	or	a3,a5,a0
20001a70:	52068c63          	beqz	a3,20001fa8 <__subdf3+0x6e4>
20001a74:	fff58693          	addi	a3,a1,-1
20001a78:	00069c63          	bnez	a3,20001a90 <__subdf3+0x1cc>
20001a7c:	00c50533          	add	a0,a0,a2
20001a80:	00e78733          	add	a4,a5,a4
20001a84:	00c53633          	sltu	a2,a0,a2
20001a88:	00c707b3          	add	a5,a4,a2
20001a8c:	ee1ff06f          	j	2000196c <__subdf3+0xa8>
20001a90:	7ff00813          	li	a6,2047
20001a94:	03059263          	bne	a1,a6,20001ab8 <__subdf3+0x1f4>
20001a98:	00070793          	mv	a5,a4
20001a9c:	00060513          	mv	a0,a2
20001aa0:	eddff06f          	j	2000197c <__subdf3+0xb8>
20001aa4:	7ff00693          	li	a3,2047
20001aa8:	fed888e3          	beq	a7,a3,20001a98 <__subdf3+0x1d4>
20001aac:	008006b7          	lui	a3,0x800
20001ab0:	00d7e7b3          	or	a5,a5,a3
20001ab4:	00058693          	mv	a3,a1
20001ab8:	03800593          	li	a1,56
20001abc:	06d5ce63          	blt	a1,a3,20001b38 <__subdf3+0x274>
20001ac0:	01f00593          	li	a1,31
20001ac4:	04d5c063          	blt	a1,a3,20001b04 <__subdf3+0x240>
20001ac8:	02000813          	li	a6,32
20001acc:	40d80833          	sub	a6,a6,a3
20001ad0:	010795b3          	sll	a1,a5,a6
20001ad4:	00d55333          	srl	t1,a0,a3
20001ad8:	01051833          	sll	a6,a0,a6
20001adc:	0065e5b3          	or	a1,a1,t1
20001ae0:	01003833          	snez	a6,a6
20001ae4:	0105e5b3          	or	a1,a1,a6
20001ae8:	00d7d6b3          	srl	a3,a5,a3
20001aec:	00c58533          	add	a0,a1,a2
20001af0:	00e686b3          	add	a3,a3,a4
20001af4:	00c53633          	sltu	a2,a0,a2
20001af8:	00c687b3          	add	a5,a3,a2
20001afc:	00088413          	mv	s0,a7
20001b00:	ee1ff06f          	j	200019e0 <__subdf3+0x11c>
20001b04:	fe068593          	addi	a1,a3,-32 # 7fffe0 <_start-0x1f800020>
20001b08:	02000313          	li	t1,32
20001b0c:	00b7d5b3          	srl	a1,a5,a1
20001b10:	00000813          	li	a6,0
20001b14:	00668863          	beq	a3,t1,20001b24 <__subdf3+0x260>
20001b18:	04000813          	li	a6,64
20001b1c:	40d80833          	sub	a6,a6,a3
20001b20:	01079833          	sll	a6,a5,a6
20001b24:	00a86833          	or	a6,a6,a0
20001b28:	01003833          	snez	a6,a6
20001b2c:	0105e5b3          	or	a1,a1,a6
20001b30:	00000693          	li	a3,0
20001b34:	fb9ff06f          	j	20001aec <__subdf3+0x228>
20001b38:	00a7e5b3          	or	a1,a5,a0
20001b3c:	00b035b3          	snez	a1,a1
20001b40:	ff1ff06f          	j	20001b30 <__subdf3+0x26c>
20001b44:	00140693          	addi	a3,s0,1
20001b48:	7fe6f593          	andi	a1,a3,2046
20001b4c:	08059863          	bnez	a1,20001bdc <__subdf3+0x318>
20001b50:	00a7e6b3          	or	a3,a5,a0
20001b54:	06041463          	bnez	s0,20001bbc <__subdf3+0x2f8>
20001b58:	46068063          	beqz	a3,20001fb8 <__subdf3+0x6f4>
20001b5c:	00c766b3          	or	a3,a4,a2
20001b60:	02068a63          	beqz	a3,20001b94 <__subdf3+0x2d0>
20001b64:	00c50633          	add	a2,a0,a2
20001b68:	00e78733          	add	a4,a5,a4
20001b6c:	00a637b3          	sltu	a5,a2,a0
20001b70:	00f707b3          	add	a5,a4,a5
20001b74:	00800737          	lui	a4,0x800
20001b78:	00e7f733          	and	a4,a5,a4
20001b7c:	00060513          	mv	a0,a2
20001b80:	00070a63          	beqz	a4,20001b94 <__subdf3+0x2d0>
20001b84:	ff800737          	lui	a4,0xff800
20001b88:	fff70713          	addi	a4,a4,-1 # ff7fffff <__global_pointer$+0xdf7f5e5f>
20001b8c:	00e7f7b3          	and	a5,a5,a4
20001b90:	00100413          	li	s0,1
20001b94:	00757713          	andi	a4,a0,7
20001b98:	42070c63          	beqz	a4,20001fd0 <__subdf3+0x70c>
20001b9c:	00f57713          	andi	a4,a0,15
20001ba0:	00400693          	li	a3,4
20001ba4:	42d70663          	beq	a4,a3,20001fd0 <__subdf3+0x70c>
20001ba8:	00450713          	addi	a4,a0,4
20001bac:	00a73533          	sltu	a0,a4,a0
20001bb0:	00a787b3          	add	a5,a5,a0
20001bb4:	00070513          	mv	a0,a4
20001bb8:	4180006f          	j	20001fd0 <__subdf3+0x70c>
20001bbc:	ec068ee3          	beqz	a3,20001a98 <__subdf3+0x1d4>
20001bc0:	00c76733          	or	a4,a4,a2
20001bc4:	da070ce3          	beqz	a4,2000197c <__subdf3+0xb8>
20001bc8:	00000493          	li	s1,0
20001bcc:	004007b7          	lui	a5,0x400
20001bd0:	00000513          	li	a0,0
20001bd4:	7ff00413          	li	s0,2047
20001bd8:	3f80006f          	j	20001fd0 <__subdf3+0x70c>
20001bdc:	7ff00593          	li	a1,2047
20001be0:	3eb68263          	beq	a3,a1,20001fc4 <__subdf3+0x700>
20001be4:	00c50633          	add	a2,a0,a2
20001be8:	00a63533          	sltu	a0,a2,a0
20001bec:	00e78733          	add	a4,a5,a4
20001bf0:	00a70733          	add	a4,a4,a0
20001bf4:	01f71513          	slli	a0,a4,0x1f
20001bf8:	00165613          	srli	a2,a2,0x1
20001bfc:	00c56533          	or	a0,a0,a2
20001c00:	00175793          	srli	a5,a4,0x1
20001c04:	00068413          	mv	s0,a3
20001c08:	f8dff06f          	j	20001b94 <__subdf3+0x2d0>
20001c0c:	0f005c63          	blez	a6,20001d04 <__subdf3+0x440>
20001c10:	08089e63          	bnez	a7,20001cac <__subdf3+0x3e8>
20001c14:	00c766b3          	or	a3,a4,a2
20001c18:	44068863          	beqz	a3,20002068 <__subdf3+0x7a4>
20001c1c:	fff80593          	addi	a1,a6,-1
20001c20:	02059063          	bnez	a1,20001c40 <__subdf3+0x37c>
20001c24:	40c50633          	sub	a2,a0,a2
20001c28:	40e78733          	sub	a4,a5,a4
20001c2c:	00c537b3          	sltu	a5,a0,a2
20001c30:	40f707b3          	sub	a5,a4,a5
20001c34:	00060513          	mv	a0,a2
20001c38:	00100413          	li	s0,1
20001c3c:	0540006f          	j	20001c90 <__subdf3+0x3cc>
20001c40:	7ff00693          	li	a3,2047
20001c44:	d2d80ce3          	beq	a6,a3,2000197c <__subdf3+0xb8>
20001c48:	03800693          	li	a3,56
20001c4c:	0ab6c663          	blt	a3,a1,20001cf8 <__subdf3+0x434>
20001c50:	01f00693          	li	a3,31
20001c54:	06b6c863          	blt	a3,a1,20001cc4 <__subdf3+0x400>
20001c58:	02000813          	li	a6,32
20001c5c:	40b80833          	sub	a6,a6,a1
20001c60:	010716b3          	sll	a3,a4,a6
20001c64:	00b658b3          	srl	a7,a2,a1
20001c68:	01061833          	sll	a6,a2,a6
20001c6c:	0116e6b3          	or	a3,a3,a7
20001c70:	01003833          	snez	a6,a6
20001c74:	0106e6b3          	or	a3,a3,a6
20001c78:	00b755b3          	srl	a1,a4,a1
20001c7c:	40d506b3          	sub	a3,a0,a3
20001c80:	40b785b3          	sub	a1,a5,a1
20001c84:	00d537b3          	sltu	a5,a0,a3
20001c88:	40f587b3          	sub	a5,a1,a5
20001c8c:	00068513          	mv	a0,a3
20001c90:	00800937          	lui	s2,0x800
20001c94:	0127f733          	and	a4,a5,s2
20001c98:	ee070ee3          	beqz	a4,20001b94 <__subdf3+0x2d0>
20001c9c:	fff90913          	addi	s2,s2,-1 # 7fffff <_start-0x1f800001>
20001ca0:	0127f933          	and	s2,a5,s2
20001ca4:	00050993          	mv	s3,a0
20001ca8:	2140006f          	j	20001ebc <__subdf3+0x5f8>
20001cac:	7ff00693          	li	a3,2047
20001cb0:	eed402e3          	beq	s0,a3,20001b94 <__subdf3+0x2d0>
20001cb4:	008006b7          	lui	a3,0x800
20001cb8:	00d76733          	or	a4,a4,a3
20001cbc:	00080593          	mv	a1,a6
20001cc0:	f89ff06f          	j	20001c48 <__subdf3+0x384>
20001cc4:	fe058693          	addi	a3,a1,-32
20001cc8:	02000893          	li	a7,32
20001ccc:	00d756b3          	srl	a3,a4,a3
20001cd0:	00000813          	li	a6,0
20001cd4:	01158863          	beq	a1,a7,20001ce4 <__subdf3+0x420>
20001cd8:	04000813          	li	a6,64
20001cdc:	40b80833          	sub	a6,a6,a1
20001ce0:	01071833          	sll	a6,a4,a6
20001ce4:	00c86833          	or	a6,a6,a2
20001ce8:	01003833          	snez	a6,a6
20001cec:	0106e6b3          	or	a3,a3,a6
20001cf0:	00000593          	li	a1,0
20001cf4:	f89ff06f          	j	20001c7c <__subdf3+0x3b8>
20001cf8:	00c766b3          	or	a3,a4,a2
20001cfc:	00d036b3          	snez	a3,a3
20001d00:	ff1ff06f          	j	20001cf0 <__subdf3+0x42c>
20001d04:	0e080863          	beqz	a6,20001df4 <__subdf3+0x530>
20001d08:	40888833          	sub	a6,a7,s0
20001d0c:	04041263          	bnez	s0,20001d50 <__subdf3+0x48c>
20001d10:	00a7e5b3          	or	a1,a5,a0
20001d14:	34058e63          	beqz	a1,20002070 <__subdf3+0x7ac>
20001d18:	fff80593          	addi	a1,a6,-1
20001d1c:	00059e63          	bnez	a1,20001d38 <__subdf3+0x474>
20001d20:	40a60533          	sub	a0,a2,a0
20001d24:	40f70733          	sub	a4,a4,a5
20001d28:	00a63633          	sltu	a2,a2,a0
20001d2c:	40c707b3          	sub	a5,a4,a2
20001d30:	00068493          	mv	s1,a3
20001d34:	f05ff06f          	j	20001c38 <__subdf3+0x374>
20001d38:	7ff00313          	li	t1,2047
20001d3c:	02681463          	bne	a6,t1,20001d64 <__subdf3+0x4a0>
20001d40:	00070793          	mv	a5,a4
20001d44:	00060513          	mv	a0,a2
20001d48:	7ff00413          	li	s0,2047
20001d4c:	0d00006f          	j	20001e1c <__subdf3+0x558>
20001d50:	7ff00593          	li	a1,2047
20001d54:	feb886e3          	beq	a7,a1,20001d40 <__subdf3+0x47c>
20001d58:	008005b7          	lui	a1,0x800
20001d5c:	00b7e7b3          	or	a5,a5,a1
20001d60:	00080593          	mv	a1,a6
20001d64:	03800813          	li	a6,56
20001d68:	08b84063          	blt	a6,a1,20001de8 <__subdf3+0x524>
20001d6c:	01f00813          	li	a6,31
20001d70:	04b84263          	blt	a6,a1,20001db4 <__subdf3+0x4f0>
20001d74:	02000313          	li	t1,32
20001d78:	40b30333          	sub	t1,t1,a1
20001d7c:	00b55e33          	srl	t3,a0,a1
20001d80:	00679833          	sll	a6,a5,t1
20001d84:	00651333          	sll	t1,a0,t1
20001d88:	01c86833          	or	a6,a6,t3
20001d8c:	00603333          	snez	t1,t1
20001d90:	00686533          	or	a0,a6,t1
20001d94:	00b7d5b3          	srl	a1,a5,a1
20001d98:	40a60533          	sub	a0,a2,a0
20001d9c:	40b705b3          	sub	a1,a4,a1
20001da0:	00a63633          	sltu	a2,a2,a0
20001da4:	40c587b3          	sub	a5,a1,a2
20001da8:	00088413          	mv	s0,a7
20001dac:	00068493          	mv	s1,a3
20001db0:	ee1ff06f          	j	20001c90 <__subdf3+0x3cc>
20001db4:	fe058813          	addi	a6,a1,-32 # 7fffe0 <_start-0x1f800020>
20001db8:	02000e13          	li	t3,32
20001dbc:	0107d833          	srl	a6,a5,a6
20001dc0:	00000313          	li	t1,0
20001dc4:	01c58863          	beq	a1,t3,20001dd4 <__subdf3+0x510>
20001dc8:	04000313          	li	t1,64
20001dcc:	40b30333          	sub	t1,t1,a1
20001dd0:	00679333          	sll	t1,a5,t1
20001dd4:	00a36333          	or	t1,t1,a0
20001dd8:	00603333          	snez	t1,t1
20001ddc:	00686533          	or	a0,a6,t1
20001de0:	00000593          	li	a1,0
20001de4:	fb5ff06f          	j	20001d98 <__subdf3+0x4d4>
20001de8:	00a7e533          	or	a0,a5,a0
20001dec:	00a03533          	snez	a0,a0
20001df0:	ff1ff06f          	j	20001de0 <__subdf3+0x51c>
20001df4:	00140593          	addi	a1,s0,1
20001df8:	7fe5f593          	andi	a1,a1,2046
20001dfc:	08059863          	bnez	a1,20001e8c <__subdf3+0x5c8>
20001e00:	00c765b3          	or	a1,a4,a2
20001e04:	00a7e833          	or	a6,a5,a0
20001e08:	06041263          	bnez	s0,20001e6c <__subdf3+0x5a8>
20001e0c:	00081c63          	bnez	a6,20001e24 <__subdf3+0x560>
20001e10:	26058863          	beqz	a1,20002080 <__subdf3+0x7bc>
20001e14:	00070793          	mv	a5,a4
20001e18:	00060513          	mv	a0,a2
20001e1c:	00068493          	mv	s1,a3
20001e20:	d75ff06f          	j	20001b94 <__subdf3+0x2d0>
20001e24:	d60588e3          	beqz	a1,20001b94 <__subdf3+0x2d0>
20001e28:	40c50833          	sub	a6,a0,a2
20001e2c:	010538b3          	sltu	a7,a0,a6
20001e30:	40e785b3          	sub	a1,a5,a4
20001e34:	411585b3          	sub	a1,a1,a7
20001e38:	008008b7          	lui	a7,0x800
20001e3c:	0115f8b3          	and	a7,a1,a7
20001e40:	00088c63          	beqz	a7,20001e58 <__subdf3+0x594>
20001e44:	40a60533          	sub	a0,a2,a0
20001e48:	40f70733          	sub	a4,a4,a5
20001e4c:	00a63633          	sltu	a2,a2,a0
20001e50:	40c707b3          	sub	a5,a4,a2
20001e54:	fc9ff06f          	j	20001e1c <__subdf3+0x558>
20001e58:	00b86533          	or	a0,a6,a1
20001e5c:	22050a63          	beqz	a0,20002090 <__subdf3+0x7cc>
20001e60:	00058793          	mv	a5,a1
20001e64:	00080513          	mv	a0,a6
20001e68:	d2dff06f          	j	20001b94 <__subdf3+0x2d0>
20001e6c:	00081c63          	bnez	a6,20001e84 <__subdf3+0x5c0>
20001e70:	22058463          	beqz	a1,20002098 <__subdf3+0x7d4>
20001e74:	00070793          	mv	a5,a4
20001e78:	00060513          	mv	a0,a2
20001e7c:	00068493          	mv	s1,a3
20001e80:	afdff06f          	j	2000197c <__subdf3+0xb8>
20001e84:	ae058ce3          	beqz	a1,2000197c <__subdf3+0xb8>
20001e88:	d41ff06f          	j	20001bc8 <__subdf3+0x304>
20001e8c:	40c509b3          	sub	s3,a0,a2
20001e90:	013535b3          	sltu	a1,a0,s3
20001e94:	40e78933          	sub	s2,a5,a4
20001e98:	40b90933          	sub	s2,s2,a1
20001e9c:	008005b7          	lui	a1,0x800
20001ea0:	00b975b3          	and	a1,s2,a1
20001ea4:	08058463          	beqz	a1,20001f2c <__subdf3+0x668>
20001ea8:	40a609b3          	sub	s3,a2,a0
20001eac:	40f70933          	sub	s2,a4,a5
20001eb0:	01363633          	sltu	a2,a2,s3
20001eb4:	40c90933          	sub	s2,s2,a2
20001eb8:	00068493          	mv	s1,a3
20001ebc:	08090263          	beqz	s2,20001f40 <__subdf3+0x67c>
20001ec0:	00090513          	mv	a0,s2
20001ec4:	79c010ef          	jal	ra,20003660 <__clzsi2>
20001ec8:	ff850713          	addi	a4,a0,-8
20001ecc:	01f00793          	li	a5,31
20001ed0:	08e7c063          	blt	a5,a4,20001f50 <__subdf3+0x68c>
20001ed4:	02000793          	li	a5,32
20001ed8:	40e787b3          	sub	a5,a5,a4
20001edc:	00e91933          	sll	s2,s2,a4
20001ee0:	00f9d7b3          	srl	a5,s3,a5
20001ee4:	0127e7b3          	or	a5,a5,s2
20001ee8:	00e99533          	sll	a0,s3,a4
20001eec:	0a874463          	blt	a4,s0,20001f94 <__subdf3+0x6d0>
20001ef0:	40870733          	sub	a4,a4,s0
20001ef4:	00170613          	addi	a2,a4,1
20001ef8:	01f00693          	li	a3,31
20001efc:	06c6c263          	blt	a3,a2,20001f60 <__subdf3+0x69c>
20001f00:	02000713          	li	a4,32
20001f04:	40c70733          	sub	a4,a4,a2
20001f08:	00e796b3          	sll	a3,a5,a4
20001f0c:	00c555b3          	srl	a1,a0,a2
20001f10:	00e51733          	sll	a4,a0,a4
20001f14:	00b6e6b3          	or	a3,a3,a1
20001f18:	00e03733          	snez	a4,a4
20001f1c:	00e6e533          	or	a0,a3,a4
20001f20:	00c7d7b3          	srl	a5,a5,a2
20001f24:	00000413          	li	s0,0
20001f28:	c6dff06f          	j	20001b94 <__subdf3+0x2d0>
20001f2c:	0129e533          	or	a0,s3,s2
20001f30:	f80516e3          	bnez	a0,20001ebc <__subdf3+0x5f8>
20001f34:	00000793          	li	a5,0
20001f38:	00000413          	li	s0,0
20001f3c:	14c0006f          	j	20002088 <__subdf3+0x7c4>
20001f40:	00098513          	mv	a0,s3
20001f44:	71c010ef          	jal	ra,20003660 <__clzsi2>
20001f48:	02050513          	addi	a0,a0,32
20001f4c:	f7dff06f          	j	20001ec8 <__subdf3+0x604>
20001f50:	fd850793          	addi	a5,a0,-40
20001f54:	00f997b3          	sll	a5,s3,a5
20001f58:	00000513          	li	a0,0
20001f5c:	f91ff06f          	j	20001eec <__subdf3+0x628>
20001f60:	fe170713          	addi	a4,a4,-31
20001f64:	02000593          	li	a1,32
20001f68:	00e7d733          	srl	a4,a5,a4
20001f6c:	00000693          	li	a3,0
20001f70:	00b60863          	beq	a2,a1,20001f80 <__subdf3+0x6bc>
20001f74:	04000693          	li	a3,64
20001f78:	40c686b3          	sub	a3,a3,a2
20001f7c:	00d796b3          	sll	a3,a5,a3
20001f80:	00d566b3          	or	a3,a0,a3
20001f84:	00d036b3          	snez	a3,a3
20001f88:	00d76533          	or	a0,a4,a3
20001f8c:	00000793          	li	a5,0
20001f90:	f95ff06f          	j	20001f24 <__subdf3+0x660>
20001f94:	40e40433          	sub	s0,s0,a4
20001f98:	ff800737          	lui	a4,0xff800
20001f9c:	fff70713          	addi	a4,a4,-1 # ff7fffff <__global_pointer$+0xdf7f5e5f>
20001fa0:	00e7f7b3          	and	a5,a5,a4
20001fa4:	bf1ff06f          	j	20001b94 <__subdf3+0x2d0>
20001fa8:	00070793          	mv	a5,a4
20001fac:	00060513          	mv	a0,a2
20001fb0:	00058413          	mv	s0,a1
20001fb4:	be1ff06f          	j	20001b94 <__subdf3+0x2d0>
20001fb8:	00070793          	mv	a5,a4
20001fbc:	00060513          	mv	a0,a2
20001fc0:	bd5ff06f          	j	20001b94 <__subdf3+0x2d0>
20001fc4:	7ff00413          	li	s0,2047
20001fc8:	00000793          	li	a5,0
20001fcc:	00000513          	li	a0,0
20001fd0:	00800737          	lui	a4,0x800
20001fd4:	00e7f733          	and	a4,a5,a4
20001fd8:	00070e63          	beqz	a4,20001ff4 <__subdf3+0x730>
20001fdc:	00140413          	addi	s0,s0,1
20001fe0:	7ff00713          	li	a4,2047
20001fe4:	0ce40263          	beq	s0,a4,200020a8 <__subdf3+0x7e4>
20001fe8:	ff800737          	lui	a4,0xff800
20001fec:	fff70713          	addi	a4,a4,-1 # ff7fffff <__global_pointer$+0xdf7f5e5f>
20001ff0:	00e7f7b3          	and	a5,a5,a4
20001ff4:	01d79693          	slli	a3,a5,0x1d
20001ff8:	00355513          	srli	a0,a0,0x3
20001ffc:	7ff00713          	li	a4,2047
20002000:	00a6e6b3          	or	a3,a3,a0
20002004:	0037d793          	srli	a5,a5,0x3
20002008:	00e41e63          	bne	s0,a4,20002024 <__subdf3+0x760>
2000200c:	00f6e6b3          	or	a3,a3,a5
20002010:	00000793          	li	a5,0
20002014:	00068863          	beqz	a3,20002024 <__subdf3+0x760>
20002018:	000807b7          	lui	a5,0x80
2000201c:	00000693          	li	a3,0
20002020:	00000493          	li	s1,0
20002024:	01441713          	slli	a4,s0,0x14
20002028:	7ff00637          	lui	a2,0x7ff00
2000202c:	00c79793          	slli	a5,a5,0xc
20002030:	01c12083          	lw	ra,28(sp)
20002034:	01812403          	lw	s0,24(sp)
20002038:	00c77733          	and	a4,a4,a2
2000203c:	00c7d793          	srli	a5,a5,0xc
20002040:	01f49493          	slli	s1,s1,0x1f
20002044:	00f767b3          	or	a5,a4,a5
20002048:	0097e733          	or	a4,a5,s1
2000204c:	01012903          	lw	s2,16(sp)
20002050:	01412483          	lw	s1,20(sp)
20002054:	00c12983          	lw	s3,12(sp)
20002058:	00068513          	mv	a0,a3
2000205c:	00070593          	mv	a1,a4
20002060:	02010113          	addi	sp,sp,32
20002064:	00008067          	ret
20002068:	00080413          	mv	s0,a6
2000206c:	b29ff06f          	j	20001b94 <__subdf3+0x2d0>
20002070:	00070793          	mv	a5,a4
20002074:	00060513          	mv	a0,a2
20002078:	00080413          	mv	s0,a6
2000207c:	da1ff06f          	j	20001e1c <__subdf3+0x558>
20002080:	00000793          	li	a5,0
20002084:	00000513          	li	a0,0
20002088:	00000493          	li	s1,0
2000208c:	f45ff06f          	j	20001fd0 <__subdf3+0x70c>
20002090:	00000793          	li	a5,0
20002094:	ff5ff06f          	j	20002088 <__subdf3+0x7c4>
20002098:	00000513          	li	a0,0
2000209c:	00000493          	li	s1,0
200020a0:	004007b7          	lui	a5,0x400
200020a4:	b31ff06f          	j	20001bd4 <__subdf3+0x310>
200020a8:	00000793          	li	a5,0
200020ac:	00000513          	li	a0,0
200020b0:	f45ff06f          	j	20001ff4 <__subdf3+0x730>

200020b4 <__fixdfsi>:
200020b4:	0145d713          	srli	a4,a1,0x14
200020b8:	001006b7          	lui	a3,0x100
200020bc:	fff68793          	addi	a5,a3,-1 # fffff <_start-0x1ff00001>
200020c0:	7ff77713          	andi	a4,a4,2047
200020c4:	3fe00613          	li	a2,1022
200020c8:	00b7f7b3          	and	a5,a5,a1
200020cc:	01f5d593          	srli	a1,a1,0x1f
200020d0:	04e65e63          	bge	a2,a4,2000212c <__fixdfsi+0x78>
200020d4:	41d00613          	li	a2,1053
200020d8:	00e65a63          	bge	a2,a4,200020ec <__fixdfsi+0x38>
200020dc:	80000537          	lui	a0,0x80000
200020e0:	fff54513          	not	a0,a0
200020e4:	00a58533          	add	a0,a1,a0
200020e8:	00008067          	ret
200020ec:	00d7e7b3          	or	a5,a5,a3
200020f0:	43300693          	li	a3,1075
200020f4:	40e686b3          	sub	a3,a3,a4
200020f8:	01f00613          	li	a2,31
200020fc:	02d64063          	blt	a2,a3,2000211c <__fixdfsi+0x68>
20002100:	bed70713          	addi	a4,a4,-1043
20002104:	00e797b3          	sll	a5,a5,a4
20002108:	00d55533          	srl	a0,a0,a3
2000210c:	00a7e533          	or	a0,a5,a0
20002110:	02058063          	beqz	a1,20002130 <__fixdfsi+0x7c>
20002114:	40a00533          	neg	a0,a0
20002118:	00008067          	ret
2000211c:	41300693          	li	a3,1043
20002120:	40e68733          	sub	a4,a3,a4
20002124:	00e7d533          	srl	a0,a5,a4
20002128:	fe9ff06f          	j	20002110 <__fixdfsi+0x5c>
2000212c:	00000513          	li	a0,0
20002130:	00008067          	ret

20002134 <__floatsidf>:
20002134:	ff010113          	addi	sp,sp,-16
20002138:	00112623          	sw	ra,12(sp)
2000213c:	00812423          	sw	s0,8(sp)
20002140:	00912223          	sw	s1,4(sp)
20002144:	08050663          	beqz	a0,200021d0 <__floatsidf+0x9c>
20002148:	41f55793          	srai	a5,a0,0x1f
2000214c:	00a7c433          	xor	s0,a5,a0
20002150:	40f40433          	sub	s0,s0,a5
20002154:	01f55493          	srli	s1,a0,0x1f
20002158:	00040513          	mv	a0,s0
2000215c:	504010ef          	jal	ra,20003660 <__clzsi2>
20002160:	41e00713          	li	a4,1054
20002164:	00a00793          	li	a5,10
20002168:	40a70733          	sub	a4,a4,a0
2000216c:	04a7c863          	blt	a5,a0,200021bc <__floatsidf+0x88>
20002170:	00b00793          	li	a5,11
20002174:	40a787b3          	sub	a5,a5,a0
20002178:	01550513          	addi	a0,a0,21 # 80000015 <__global_pointer$+0x5fff5e75>
2000217c:	00f457b3          	srl	a5,s0,a5
20002180:	00a41433          	sll	s0,s0,a0
20002184:	00048513          	mv	a0,s1
20002188:	00c79793          	slli	a5,a5,0xc
2000218c:	00c7d793          	srli	a5,a5,0xc
20002190:	01471713          	slli	a4,a4,0x14
20002194:	01f51513          	slli	a0,a0,0x1f
20002198:	00f76733          	or	a4,a4,a5
2000219c:	00c12083          	lw	ra,12(sp)
200021a0:	00a767b3          	or	a5,a4,a0
200021a4:	00040513          	mv	a0,s0
200021a8:	00812403          	lw	s0,8(sp)
200021ac:	00412483          	lw	s1,4(sp)
200021b0:	00078593          	mv	a1,a5
200021b4:	01010113          	addi	sp,sp,16
200021b8:	00008067          	ret
200021bc:	ff550513          	addi	a0,a0,-11
200021c0:	00a417b3          	sll	a5,s0,a0
200021c4:	00048513          	mv	a0,s1
200021c8:	00000413          	li	s0,0
200021cc:	fbdff06f          	j	20002188 <__floatsidf+0x54>
200021d0:	00000713          	li	a4,0
200021d4:	00000793          	li	a5,0
200021d8:	ff1ff06f          	j	200021c8 <__floatsidf+0x94>

200021dc <__addsf3>:
200021dc:	00800737          	lui	a4,0x800
200021e0:	ff010113          	addi	sp,sp,-16
200021e4:	fff70713          	addi	a4,a4,-1 # 7fffff <_start-0x1f800001>
200021e8:	00a777b3          	and	a5,a4,a0
200021ec:	00812423          	sw	s0,8(sp)
200021f0:	00912223          	sw	s1,4(sp)
200021f4:	01755413          	srli	s0,a0,0x17
200021f8:	01f55493          	srli	s1,a0,0x1f
200021fc:	0175d513          	srli	a0,a1,0x17
20002200:	00b77733          	and	a4,a4,a1
20002204:	0ff47413          	zext.b	s0,s0
20002208:	0ff57513          	zext.b	a0,a0
2000220c:	00112623          	sw	ra,12(sp)
20002210:	01212023          	sw	s2,0(sp)
20002214:	01f5d593          	srli	a1,a1,0x1f
20002218:	00379793          	slli	a5,a5,0x3
2000221c:	00371713          	slli	a4,a4,0x3
20002220:	40a406b3          	sub	a3,s0,a0
20002224:	18b49663          	bne	s1,a1,200023b0 <__addsf3+0x1d4>
20002228:	0ad05863          	blez	a3,200022d8 <__addsf3+0xfc>
2000222c:	04051063          	bnez	a0,2000226c <__addsf3+0x90>
20002230:	02070063          	beqz	a4,20002250 <__addsf3+0x74>
20002234:	fff40693          	addi	a3,s0,-1
20002238:	00069863          	bnez	a3,20002248 <__addsf3+0x6c>
2000223c:	00e787b3          	add	a5,a5,a4
20002240:	00100413          	li	s0,1
20002244:	0600006f          	j	200022a4 <__addsf3+0xc8>
20002248:	0ff00613          	li	a2,255
2000224c:	02c41863          	bne	s0,a2,2000227c <__addsf3+0xa0>
20002250:	0077f713          	andi	a4,a5,7
20002254:	34070a63          	beqz	a4,200025a8 <__addsf3+0x3cc>
20002258:	00f7f713          	andi	a4,a5,15
2000225c:	00400693          	li	a3,4
20002260:	34d70463          	beq	a4,a3,200025a8 <__addsf3+0x3cc>
20002264:	00478793          	addi	a5,a5,4 # 400004 <_start-0x1fbffffc>
20002268:	3400006f          	j	200025a8 <__addsf3+0x3cc>
2000226c:	0ff00613          	li	a2,255
20002270:	fec400e3          	beq	s0,a2,20002250 <__addsf3+0x74>
20002274:	04000637          	lui	a2,0x4000
20002278:	00c76733          	or	a4,a4,a2
2000227c:	01b00593          	li	a1,27
20002280:	00100613          	li	a2,1
20002284:	00d5ce63          	blt	a1,a3,200022a0 <__addsf3+0xc4>
20002288:	02000613          	li	a2,32
2000228c:	00d755b3          	srl	a1,a4,a3
20002290:	40d606b3          	sub	a3,a2,a3
20002294:	00d71733          	sll	a4,a4,a3
20002298:	00e03733          	snez	a4,a4
2000229c:	00e5e633          	or	a2,a1,a4
200022a0:	00c787b3          	add	a5,a5,a2
200022a4:	04000737          	lui	a4,0x4000
200022a8:	00e7f733          	and	a4,a5,a4
200022ac:	fa0702e3          	beqz	a4,20002250 <__addsf3+0x74>
200022b0:	00140413          	addi	s0,s0,1
200022b4:	0ff00713          	li	a4,255
200022b8:	2ee40663          	beq	s0,a4,200025a4 <__addsf3+0x3c8>
200022bc:	7e000737          	lui	a4,0x7e000
200022c0:	0017f693          	andi	a3,a5,1
200022c4:	fff70713          	addi	a4,a4,-1 # 7dffffff <__global_pointer$+0x5dff5e5f>
200022c8:	0017d793          	srli	a5,a5,0x1
200022cc:	00e7f7b3          	and	a5,a5,a4
200022d0:	00d7e7b3          	or	a5,a5,a3
200022d4:	f7dff06f          	j	20002250 <__addsf3+0x74>
200022d8:	06068663          	beqz	a3,20002344 <__addsf3+0x168>
200022dc:	408506b3          	sub	a3,a0,s0
200022e0:	02041063          	bnez	s0,20002300 <__addsf3+0x124>
200022e4:	2a078663          	beqz	a5,20002590 <__addsf3+0x3b4>
200022e8:	fff68613          	addi	a2,a3,-1
200022ec:	f40608e3          	beqz	a2,2000223c <__addsf3+0x60>
200022f0:	0ff00593          	li	a1,255
200022f4:	02b69063          	bne	a3,a1,20002314 <__addsf3+0x138>
200022f8:	00070793          	mv	a5,a4
200022fc:	2100006f          	j	2000250c <__addsf3+0x330>
20002300:	0ff00613          	li	a2,255
20002304:	fec50ae3          	beq	a0,a2,200022f8 <__addsf3+0x11c>
20002308:	04000637          	lui	a2,0x4000
2000230c:	00c7e7b3          	or	a5,a5,a2
20002310:	00068613          	mv	a2,a3
20002314:	01b00593          	li	a1,27
20002318:	00100693          	li	a3,1
2000231c:	00c5ce63          	blt	a1,a2,20002338 <__addsf3+0x15c>
20002320:	02000693          	li	a3,32
20002324:	40c686b3          	sub	a3,a3,a2
20002328:	00c7d5b3          	srl	a1,a5,a2
2000232c:	00d797b3          	sll	a5,a5,a3
20002330:	00f037b3          	snez	a5,a5
20002334:	00f5e6b3          	or	a3,a1,a5
20002338:	00e687b3          	add	a5,a3,a4
2000233c:	00050413          	mv	s0,a0
20002340:	f65ff06f          	j	200022a4 <__addsf3+0xc8>
20002344:	00140693          	addi	a3,s0,1
20002348:	0fe6f613          	andi	a2,a3,254
2000234c:	04061663          	bnez	a2,20002398 <__addsf3+0x1bc>
20002350:	02041863          	bnez	s0,20002380 <__addsf3+0x1a4>
20002354:	24078263          	beqz	a5,20002598 <__addsf3+0x3bc>
20002358:	ee070ce3          	beqz	a4,20002250 <__addsf3+0x74>
2000235c:	00e787b3          	add	a5,a5,a4
20002360:	04000737          	lui	a4,0x4000
20002364:	00e7f733          	and	a4,a5,a4
20002368:	ee0704e3          	beqz	a4,20002250 <__addsf3+0x74>
2000236c:	fc000737          	lui	a4,0xfc000
20002370:	fff70713          	addi	a4,a4,-1 # fbffffff <__global_pointer$+0xdbff5e5f>
20002374:	00e7f7b3          	and	a5,a5,a4
20002378:	00100413          	li	s0,1
2000237c:	ed5ff06f          	j	20002250 <__addsf3+0x74>
20002380:	f6078ce3          	beqz	a5,200022f8 <__addsf3+0x11c>
20002384:	18070463          	beqz	a4,2000250c <__addsf3+0x330>
20002388:	00000493          	li	s1,0
2000238c:	020007b7          	lui	a5,0x2000
20002390:	0ff00413          	li	s0,255
20002394:	2140006f          	j	200025a8 <__addsf3+0x3cc>
20002398:	0ff00613          	li	a2,255
2000239c:	20c68263          	beq	a3,a2,200025a0 <__addsf3+0x3c4>
200023a0:	00e78733          	add	a4,a5,a4
200023a4:	00175793          	srli	a5,a4,0x1
200023a8:	00068413          	mv	s0,a3
200023ac:	ea5ff06f          	j	20002250 <__addsf3+0x74>
200023b0:	06d05e63          	blez	a3,2000242c <__addsf3+0x250>
200023b4:	06051263          	bnez	a0,20002418 <__addsf3+0x23c>
200023b8:	e8070ce3          	beqz	a4,20002250 <__addsf3+0x74>
200023bc:	fff40693          	addi	a3,s0,-1
200023c0:	00069863          	bnez	a3,200023d0 <__addsf3+0x1f4>
200023c4:	40e787b3          	sub	a5,a5,a4
200023c8:	00100413          	li	s0,1
200023cc:	0340006f          	j	20002400 <__addsf3+0x224>
200023d0:	0ff00613          	li	a2,255
200023d4:	e6c40ee3          	beq	s0,a2,20002250 <__addsf3+0x74>
200023d8:	01b00593          	li	a1,27
200023dc:	00100613          	li	a2,1
200023e0:	00d5ce63          	blt	a1,a3,200023fc <__addsf3+0x220>
200023e4:	02000613          	li	a2,32
200023e8:	00d755b3          	srl	a1,a4,a3
200023ec:	40d606b3          	sub	a3,a2,a3
200023f0:	00d71733          	sll	a4,a4,a3
200023f4:	00e03733          	snez	a4,a4
200023f8:	00e5e633          	or	a2,a1,a4
200023fc:	40c787b3          	sub	a5,a5,a2
20002400:	04000937          	lui	s2,0x4000
20002404:	0127f733          	and	a4,a5,s2
20002408:	e40704e3          	beqz	a4,20002250 <__addsf3+0x74>
2000240c:	fff90913          	addi	s2,s2,-1 # 3ffffff <_start-0x1c000001>
20002410:	0127f933          	and	s2,a5,s2
20002414:	1180006f          	j	2000252c <__addsf3+0x350>
20002418:	0ff00613          	li	a2,255
2000241c:	e2c40ae3          	beq	s0,a2,20002250 <__addsf3+0x74>
20002420:	04000637          	lui	a2,0x4000
20002424:	00c76733          	or	a4,a4,a2
20002428:	fb1ff06f          	j	200023d8 <__addsf3+0x1fc>
2000242c:	08068063          	beqz	a3,200024ac <__addsf3+0x2d0>
20002430:	408506b3          	sub	a3,a0,s0
20002434:	02041863          	bnez	s0,20002464 <__addsf3+0x288>
20002438:	1e078263          	beqz	a5,2000261c <__addsf3+0x440>
2000243c:	fff68613          	addi	a2,a3,-1
20002440:	00061863          	bnez	a2,20002450 <__addsf3+0x274>
20002444:	40f707b3          	sub	a5,a4,a5
20002448:	00058493          	mv	s1,a1
2000244c:	f7dff06f          	j	200023c8 <__addsf3+0x1ec>
20002450:	0ff00813          	li	a6,255
20002454:	03069263          	bne	a3,a6,20002478 <__addsf3+0x29c>
20002458:	00070793          	mv	a5,a4
2000245c:	0ff00413          	li	s0,255
20002460:	06c0006f          	j	200024cc <__addsf3+0x2f0>
20002464:	0ff00613          	li	a2,255
20002468:	fec508e3          	beq	a0,a2,20002458 <__addsf3+0x27c>
2000246c:	04000637          	lui	a2,0x4000
20002470:	00c7e7b3          	or	a5,a5,a2
20002474:	00068613          	mv	a2,a3
20002478:	01b00813          	li	a6,27
2000247c:	00100693          	li	a3,1
20002480:	00c84e63          	blt	a6,a2,2000249c <__addsf3+0x2c0>
20002484:	02000693          	li	a3,32
20002488:	40c686b3          	sub	a3,a3,a2
2000248c:	00c7d833          	srl	a6,a5,a2
20002490:	00d797b3          	sll	a5,a5,a3
20002494:	00f037b3          	snez	a5,a5
20002498:	00f866b3          	or	a3,a6,a5
2000249c:	40d707b3          	sub	a5,a4,a3
200024a0:	00050413          	mv	s0,a0
200024a4:	00058493          	mv	s1,a1
200024a8:	f59ff06f          	j	20002400 <__addsf3+0x224>
200024ac:	00140693          	addi	a3,s0,1
200024b0:	0fe6f693          	andi	a3,a3,254
200024b4:	06069063          	bnez	a3,20002514 <__addsf3+0x338>
200024b8:	04041263          	bnez	s0,200024fc <__addsf3+0x320>
200024bc:	00079c63          	bnez	a5,200024d4 <__addsf3+0x2f8>
200024c0:	00000493          	li	s1,0
200024c4:	0e070263          	beqz	a4,200025a8 <__addsf3+0x3cc>
200024c8:	00070793          	mv	a5,a4
200024cc:	00058493          	mv	s1,a1
200024d0:	d81ff06f          	j	20002250 <__addsf3+0x74>
200024d4:	d6070ee3          	beqz	a4,20002250 <__addsf3+0x74>
200024d8:	40e786b3          	sub	a3,a5,a4
200024dc:	04000637          	lui	a2,0x4000
200024e0:	00c6f633          	and	a2,a3,a2
200024e4:	40f707b3          	sub	a5,a4,a5
200024e8:	fe0612e3          	bnez	a2,200024cc <__addsf3+0x2f0>
200024ec:	00000793          	li	a5,0
200024f0:	08068263          	beqz	a3,20002574 <__addsf3+0x398>
200024f4:	00068793          	mv	a5,a3
200024f8:	d59ff06f          	j	20002250 <__addsf3+0x74>
200024fc:	e80794e3          	bnez	a5,20002384 <__addsf3+0x1a8>
20002500:	e80704e3          	beqz	a4,20002388 <__addsf3+0x1ac>
20002504:	00070793          	mv	a5,a4
20002508:	00058493          	mv	s1,a1
2000250c:	0ff00413          	li	s0,255
20002510:	d41ff06f          	j	20002250 <__addsf3+0x74>
20002514:	40e78933          	sub	s2,a5,a4
20002518:	040006b7          	lui	a3,0x4000
2000251c:	00d976b3          	and	a3,s2,a3
20002520:	04068463          	beqz	a3,20002568 <__addsf3+0x38c>
20002524:	40f70933          	sub	s2,a4,a5
20002528:	00058493          	mv	s1,a1
2000252c:	00090513          	mv	a0,s2
20002530:	130010ef          	jal	ra,20003660 <__clzsi2>
20002534:	ffb50513          	addi	a0,a0,-5
20002538:	00a91933          	sll	s2,s2,a0
2000253c:	04854063          	blt	a0,s0,2000257c <__addsf3+0x3a0>
20002540:	40850533          	sub	a0,a0,s0
20002544:	00150513          	addi	a0,a0,1
20002548:	02000713          	li	a4,32
2000254c:	40a70733          	sub	a4,a4,a0
20002550:	00a957b3          	srl	a5,s2,a0
20002554:	00e91933          	sll	s2,s2,a4
20002558:	01203933          	snez	s2,s2
2000255c:	0127e7b3          	or	a5,a5,s2
20002560:	00000413          	li	s0,0
20002564:	cedff06f          	j	20002250 <__addsf3+0x74>
20002568:	fc0912e3          	bnez	s2,2000252c <__addsf3+0x350>
2000256c:	00000793          	li	a5,0
20002570:	00000413          	li	s0,0
20002574:	00000493          	li	s1,0
20002578:	0300006f          	j	200025a8 <__addsf3+0x3cc>
2000257c:	fc0007b7          	lui	a5,0xfc000
20002580:	fff78793          	addi	a5,a5,-1 # fbffffff <__global_pointer$+0xdbff5e5f>
20002584:	40a40433          	sub	s0,s0,a0
20002588:	00f977b3          	and	a5,s2,a5
2000258c:	cc5ff06f          	j	20002250 <__addsf3+0x74>
20002590:	00070793          	mv	a5,a4
20002594:	e15ff06f          	j	200023a8 <__addsf3+0x1cc>
20002598:	00070793          	mv	a5,a4
2000259c:	cb5ff06f          	j	20002250 <__addsf3+0x74>
200025a0:	0ff00413          	li	s0,255
200025a4:	00000793          	li	a5,0
200025a8:	04000737          	lui	a4,0x4000
200025ac:	00e7f733          	and	a4,a5,a4
200025b0:	00070e63          	beqz	a4,200025cc <__addsf3+0x3f0>
200025b4:	00140413          	addi	s0,s0,1
200025b8:	0ff00713          	li	a4,255
200025bc:	06e40663          	beq	s0,a4,20002628 <__addsf3+0x44c>
200025c0:	fc000737          	lui	a4,0xfc000
200025c4:	fff70713          	addi	a4,a4,-1 # fbffffff <__global_pointer$+0xdbff5e5f>
200025c8:	00e7f7b3          	and	a5,a5,a4
200025cc:	0ff00713          	li	a4,255
200025d0:	0037d793          	srli	a5,a5,0x3
200025d4:	00e41863          	bne	s0,a4,200025e4 <__addsf3+0x408>
200025d8:	00078663          	beqz	a5,200025e4 <__addsf3+0x408>
200025dc:	004007b7          	lui	a5,0x400
200025e0:	00000493          	li	s1,0
200025e4:	01741413          	slli	s0,s0,0x17
200025e8:	7f800737          	lui	a4,0x7f800
200025ec:	00979793          	slli	a5,a5,0x9
200025f0:	00e47433          	and	s0,s0,a4
200025f4:	0097d793          	srli	a5,a5,0x9
200025f8:	00f46433          	or	s0,s0,a5
200025fc:	01f49513          	slli	a0,s1,0x1f
20002600:	00c12083          	lw	ra,12(sp)
20002604:	00a46533          	or	a0,s0,a0
20002608:	00812403          	lw	s0,8(sp)
2000260c:	00412483          	lw	s1,4(sp)
20002610:	00012903          	lw	s2,0(sp)
20002614:	01010113          	addi	sp,sp,16
20002618:	00008067          	ret
2000261c:	00070793          	mv	a5,a4
20002620:	00068413          	mv	s0,a3
20002624:	ea9ff06f          	j	200024cc <__addsf3+0x2f0>
20002628:	00000793          	li	a5,0
2000262c:	fa1ff06f          	j	200025cc <__addsf3+0x3f0>

20002630 <__divsf3>:
20002630:	fe010113          	addi	sp,sp,-32
20002634:	00912a23          	sw	s1,20(sp)
20002638:	01755493          	srli	s1,a0,0x17
2000263c:	01212823          	sw	s2,16(sp)
20002640:	01312623          	sw	s3,12(sp)
20002644:	01412423          	sw	s4,8(sp)
20002648:	00951993          	slli	s3,a0,0x9
2000264c:	00112e23          	sw	ra,28(sp)
20002650:	00812c23          	sw	s0,24(sp)
20002654:	01512223          	sw	s5,4(sp)
20002658:	0ff4f493          	zext.b	s1,s1
2000265c:	00058a13          	mv	s4,a1
20002660:	0099d993          	srli	s3,s3,0x9
20002664:	01f55913          	srli	s2,a0,0x1f
20002668:	08048463          	beqz	s1,200026f0 <__divsf3+0xc0>
2000266c:	0ff00793          	li	a5,255
20002670:	0af48063          	beq	s1,a5,20002710 <__divsf3+0xe0>
20002674:	00399993          	slli	s3,s3,0x3
20002678:	040007b7          	lui	a5,0x4000
2000267c:	00f9e9b3          	or	s3,s3,a5
20002680:	f8148493          	addi	s1,s1,-127
20002684:	00000a93          	li	s5,0
20002688:	017a5793          	srli	a5,s4,0x17
2000268c:	009a1413          	slli	s0,s4,0x9
20002690:	0ff7f793          	zext.b	a5,a5
20002694:	00945413          	srli	s0,s0,0x9
20002698:	01fa5a13          	srli	s4,s4,0x1f
2000269c:	08078a63          	beqz	a5,20002730 <__divsf3+0x100>
200026a0:	0ff00713          	li	a4,255
200026a4:	0ae78663          	beq	a5,a4,20002750 <__divsf3+0x120>
200026a8:	00341413          	slli	s0,s0,0x3
200026ac:	04000737          	lui	a4,0x4000
200026b0:	00e46433          	or	s0,s0,a4
200026b4:	f8178793          	addi	a5,a5,-127 # 3ffff81 <_start-0x1c00007f>
200026b8:	00000713          	li	a4,0
200026bc:	40f484b3          	sub	s1,s1,a5
200026c0:	002a9793          	slli	a5,s5,0x2
200026c4:	00e7e7b3          	or	a5,a5,a4
200026c8:	fff78793          	addi	a5,a5,-1
200026cc:	00e00613          	li	a2,14
200026d0:	014946b3          	xor	a3,s2,s4
200026d4:	08f66e63          	bltu	a2,a5,20002770 <__divsf3+0x140>
200026d8:	20009637          	lui	a2,0x20009
200026dc:	00279793          	slli	a5,a5,0x2
200026e0:	c2c60613          	addi	a2,a2,-980 # 20008c2c <scalbnf+0x144>
200026e4:	00c787b3          	add	a5,a5,a2
200026e8:	0007a783          	lw	a5,0(a5)
200026ec:	00078067          	jr	a5
200026f0:	02098a63          	beqz	s3,20002724 <__divsf3+0xf4>
200026f4:	00098513          	mv	a0,s3
200026f8:	769000ef          	jal	ra,20003660 <__clzsi2>
200026fc:	ffb50793          	addi	a5,a0,-5
20002700:	f8a00493          	li	s1,-118
20002704:	00f999b3          	sll	s3,s3,a5
20002708:	40a484b3          	sub	s1,s1,a0
2000270c:	f79ff06f          	j	20002684 <__divsf3+0x54>
20002710:	0ff00493          	li	s1,255
20002714:	00200a93          	li	s5,2
20002718:	f60988e3          	beqz	s3,20002688 <__divsf3+0x58>
2000271c:	00300a93          	li	s5,3
20002720:	f69ff06f          	j	20002688 <__divsf3+0x58>
20002724:	00000493          	li	s1,0
20002728:	00100a93          	li	s5,1
2000272c:	f5dff06f          	j	20002688 <__divsf3+0x58>
20002730:	02040a63          	beqz	s0,20002764 <__divsf3+0x134>
20002734:	00040513          	mv	a0,s0
20002738:	729000ef          	jal	ra,20003660 <__clzsi2>
2000273c:	ffb50793          	addi	a5,a0,-5
20002740:	00f41433          	sll	s0,s0,a5
20002744:	f8a00793          	li	a5,-118
20002748:	40a787b3          	sub	a5,a5,a0
2000274c:	f6dff06f          	j	200026b8 <__divsf3+0x88>
20002750:	0ff00793          	li	a5,255
20002754:	00200713          	li	a4,2
20002758:	f60402e3          	beqz	s0,200026bc <__divsf3+0x8c>
2000275c:	00300713          	li	a4,3
20002760:	f5dff06f          	j	200026bc <__divsf3+0x8c>
20002764:	00000793          	li	a5,0
20002768:	00100713          	li	a4,1
2000276c:	f51ff06f          	j	200026bc <__divsf3+0x8c>
20002770:	00541613          	slli	a2,s0,0x5
20002774:	1289f463          	bgeu	s3,s0,2000289c <__divsf3+0x26c>
20002778:	fff48493          	addi	s1,s1,-1
2000277c:	00000793          	li	a5,0
20002780:	01065593          	srli	a1,a2,0x10
20002784:	02b9d833          	divu	a6,s3,a1
20002788:	00010737          	lui	a4,0x10
2000278c:	fff70713          	addi	a4,a4,-1 # ffff <_start-0x1fff0001>
20002790:	00e67733          	and	a4,a2,a4
20002794:	0107d793          	srli	a5,a5,0x10
20002798:	02b9f9b3          	remu	s3,s3,a1
2000279c:	00080413          	mv	s0,a6
200027a0:	03070533          	mul	a0,a4,a6
200027a4:	01099993          	slli	s3,s3,0x10
200027a8:	0137e7b3          	or	a5,a5,s3
200027ac:	00a7fe63          	bgeu	a5,a0,200027c8 <__divsf3+0x198>
200027b0:	00c787b3          	add	a5,a5,a2
200027b4:	fff80413          	addi	s0,a6,-1
200027b8:	00c7e863          	bltu	a5,a2,200027c8 <__divsf3+0x198>
200027bc:	00a7f663          	bgeu	a5,a0,200027c8 <__divsf3+0x198>
200027c0:	ffe80413          	addi	s0,a6,-2
200027c4:	00c787b3          	add	a5,a5,a2
200027c8:	40a787b3          	sub	a5,a5,a0
200027cc:	02b7d533          	divu	a0,a5,a1
200027d0:	02b7f7b3          	remu	a5,a5,a1
200027d4:	00050593          	mv	a1,a0
200027d8:	02a70733          	mul	a4,a4,a0
200027dc:	01079793          	slli	a5,a5,0x10
200027e0:	00e7fe63          	bgeu	a5,a4,200027fc <__divsf3+0x1cc>
200027e4:	00c787b3          	add	a5,a5,a2
200027e8:	fff50593          	addi	a1,a0,-1
200027ec:	00c7e863          	bltu	a5,a2,200027fc <__divsf3+0x1cc>
200027f0:	00e7f663          	bgeu	a5,a4,200027fc <__divsf3+0x1cc>
200027f4:	ffe50593          	addi	a1,a0,-2
200027f8:	00c787b3          	add	a5,a5,a2
200027fc:	01041413          	slli	s0,s0,0x10
20002800:	40e787b3          	sub	a5,a5,a4
20002804:	00b46433          	or	s0,s0,a1
20002808:	00f037b3          	snez	a5,a5
2000280c:	00f46433          	or	s0,s0,a5
20002810:	07f48713          	addi	a4,s1,127
20002814:	0ce05e63          	blez	a4,200028f0 <__divsf3+0x2c0>
20002818:	00747793          	andi	a5,s0,7
2000281c:	00078a63          	beqz	a5,20002830 <__divsf3+0x200>
20002820:	00f47793          	andi	a5,s0,15
20002824:	00400613          	li	a2,4
20002828:	00c78463          	beq	a5,a2,20002830 <__divsf3+0x200>
2000282c:	00440413          	addi	s0,s0,4
20002830:	080007b7          	lui	a5,0x8000
20002834:	00f477b3          	and	a5,s0,a5
20002838:	00078a63          	beqz	a5,2000284c <__divsf3+0x21c>
2000283c:	f80007b7          	lui	a5,0xf8000
20002840:	fff78793          	addi	a5,a5,-1 # f7ffffff <__global_pointer$+0xd7ff5e5f>
20002844:	00f47433          	and	s0,s0,a5
20002848:	08048713          	addi	a4,s1,128
2000284c:	0fe00793          	li	a5,254
20002850:	06e7ce63          	blt	a5,a4,200028cc <__divsf3+0x29c>
20002854:	00345793          	srli	a5,s0,0x3
20002858:	01c12083          	lw	ra,28(sp)
2000285c:	01812403          	lw	s0,24(sp)
20002860:	01771713          	slli	a4,a4,0x17
20002864:	7f800637          	lui	a2,0x7f800
20002868:	00979793          	slli	a5,a5,0x9
2000286c:	00c77733          	and	a4,a4,a2
20002870:	0097d793          	srli	a5,a5,0x9
20002874:	00f76733          	or	a4,a4,a5
20002878:	01f69513          	slli	a0,a3,0x1f
2000287c:	01412483          	lw	s1,20(sp)
20002880:	01012903          	lw	s2,16(sp)
20002884:	00c12983          	lw	s3,12(sp)
20002888:	00812a03          	lw	s4,8(sp)
2000288c:	00412a83          	lw	s5,4(sp)
20002890:	00a76533          	or	a0,a4,a0
20002894:	02010113          	addi	sp,sp,32
20002898:	00008067          	ret
2000289c:	01f99793          	slli	a5,s3,0x1f
200028a0:	0019d993          	srli	s3,s3,0x1
200028a4:	eddff06f          	j	20002780 <__divsf3+0x150>
200028a8:	00090693          	mv	a3,s2
200028ac:	00098413          	mv	s0,s3
200028b0:	000a8713          	mv	a4,s5
200028b4:	00300793          	li	a5,3
200028b8:	08f70863          	beq	a4,a5,20002948 <__divsf3+0x318>
200028bc:	00100793          	li	a5,1
200028c0:	08f70c63          	beq	a4,a5,20002958 <__divsf3+0x328>
200028c4:	00200793          	li	a5,2
200028c8:	f4f714e3          	bne	a4,a5,20002810 <__divsf3+0x1e0>
200028cc:	00000793          	li	a5,0
200028d0:	0ff00713          	li	a4,255
200028d4:	f85ff06f          	j	20002858 <__divsf3+0x228>
200028d8:	000a0693          	mv	a3,s4
200028dc:	fd9ff06f          	j	200028b4 <__divsf3+0x284>
200028e0:	00400437          	lui	s0,0x400
200028e4:	00000693          	li	a3,0
200028e8:	00300713          	li	a4,3
200028ec:	fc9ff06f          	j	200028b4 <__divsf3+0x284>
200028f0:	00100793          	li	a5,1
200028f4:	40e787b3          	sub	a5,a5,a4
200028f8:	01b00713          	li	a4,27
200028fc:	04f74e63          	blt	a4,a5,20002958 <__divsf3+0x328>
20002900:	09e48493          	addi	s1,s1,158
20002904:	00f457b3          	srl	a5,s0,a5
20002908:	00941433          	sll	s0,s0,s1
2000290c:	00803433          	snez	s0,s0
20002910:	0087e7b3          	or	a5,a5,s0
20002914:	0077f713          	andi	a4,a5,7
20002918:	00070a63          	beqz	a4,2000292c <__divsf3+0x2fc>
2000291c:	00f7f713          	andi	a4,a5,15
20002920:	00400613          	li	a2,4
20002924:	00c70463          	beq	a4,a2,2000292c <__divsf3+0x2fc>
20002928:	00478793          	addi	a5,a5,4
2000292c:	04000737          	lui	a4,0x4000
20002930:	00e7f733          	and	a4,a5,a4
20002934:	0037d793          	srli	a5,a5,0x3
20002938:	f20700e3          	beqz	a4,20002858 <__divsf3+0x228>
2000293c:	00000793          	li	a5,0
20002940:	00100713          	li	a4,1
20002944:	f15ff06f          	j	20002858 <__divsf3+0x228>
20002948:	004007b7          	lui	a5,0x400
2000294c:	0ff00713          	li	a4,255
20002950:	00000693          	li	a3,0
20002954:	f05ff06f          	j	20002858 <__divsf3+0x228>
20002958:	00000793          	li	a5,0
2000295c:	00000713          	li	a4,0
20002960:	ef9ff06f          	j	20002858 <__divsf3+0x228>

20002964 <__gesf2>:
20002964:	00800737          	lui	a4,0x800
20002968:	fff70713          	addi	a4,a4,-1 # 7fffff <_start-0x1f800001>
2000296c:	01755693          	srli	a3,a0,0x17
20002970:	00a77633          	and	a2,a4,a0
20002974:	01f55793          	srli	a5,a0,0x1f
20002978:	0ff6f693          	zext.b	a3,a3
2000297c:	0175d513          	srli	a0,a1,0x17
20002980:	0ff00813          	li	a6,255
20002984:	00b77733          	and	a4,a4,a1
20002988:	0ff57513          	zext.b	a0,a0
2000298c:	01f5d593          	srli	a1,a1,0x1f
20002990:	01069863          	bne	a3,a6,200029a0 <__gesf2+0x3c>
20002994:	06060c63          	beqz	a2,20002a0c <__gesf2+0xa8>
20002998:	ffe00513          	li	a0,-2
2000299c:	00008067          	ret
200029a0:	01051463          	bne	a0,a6,200029a8 <__gesf2+0x44>
200029a4:	fe071ae3          	bnez	a4,20002998 <__gesf2+0x34>
200029a8:	06069463          	bnez	a3,20002a10 <__gesf2+0xac>
200029ac:	00051463          	bnez	a0,200029b4 <__gesf2+0x50>
200029b0:	04070a63          	beqz	a4,20002a04 <__gesf2+0xa0>
200029b4:	00060e63          	beqz	a2,200029d0 <__gesf2+0x6c>
200029b8:	00b79463          	bne	a5,a1,200029c0 <__gesf2+0x5c>
200029bc:	02d55263          	bge	a0,a3,200029e0 <__gesf2+0x7c>
200029c0:	00100513          	li	a0,1
200029c4:	02078e63          	beqz	a5,20002a00 <__gesf2+0x9c>
200029c8:	fff00513          	li	a0,-1
200029cc:	00008067          	ret
200029d0:	fff00513          	li	a0,-1
200029d4:	02058663          	beqz	a1,20002a00 <__gesf2+0x9c>
200029d8:	00058513          	mv	a0,a1
200029dc:	00008067          	ret
200029e0:	00a6da63          	bge	a3,a0,200029f4 <__gesf2+0x90>
200029e4:	fff00513          	li	a0,-1
200029e8:	00078c63          	beqz	a5,20002a00 <__gesf2+0x9c>
200029ec:	00078513          	mv	a0,a5
200029f0:	00008067          	ret
200029f4:	fcc766e3          	bltu	a4,a2,200029c0 <__gesf2+0x5c>
200029f8:	00000513          	li	a0,0
200029fc:	fee664e3          	bltu	a2,a4,200029e4 <__gesf2+0x80>
20002a00:	00008067          	ret
20002a04:	fe060ee3          	beqz	a2,20002a00 <__gesf2+0x9c>
20002a08:	fb9ff06f          	j	200029c0 <__gesf2+0x5c>
20002a0c:	f8d50ce3          	beq	a0,a3,200029a4 <__gesf2+0x40>
20002a10:	fa0514e3          	bnez	a0,200029b8 <__gesf2+0x54>
20002a14:	fa0706e3          	beqz	a4,200029c0 <__gesf2+0x5c>
20002a18:	fa1ff06f          	j	200029b8 <__gesf2+0x54>

20002a1c <__lesf2>:
20002a1c:	00800737          	lui	a4,0x800
20002a20:	fff70713          	addi	a4,a4,-1 # 7fffff <_start-0x1f800001>
20002a24:	01755693          	srli	a3,a0,0x17
20002a28:	00a77633          	and	a2,a4,a0
20002a2c:	01f55793          	srli	a5,a0,0x1f
20002a30:	0ff6f693          	zext.b	a3,a3
20002a34:	0175d513          	srli	a0,a1,0x17
20002a38:	0ff00813          	li	a6,255
20002a3c:	00b77733          	and	a4,a4,a1
20002a40:	0ff57513          	zext.b	a0,a0
20002a44:	01f5d593          	srli	a1,a1,0x1f
20002a48:	01069863          	bne	a3,a6,20002a58 <__lesf2+0x3c>
20002a4c:	06060c63          	beqz	a2,20002ac4 <__lesf2+0xa8>
20002a50:	00200513          	li	a0,2
20002a54:	00008067          	ret
20002a58:	01051463          	bne	a0,a6,20002a60 <__lesf2+0x44>
20002a5c:	fe071ae3          	bnez	a4,20002a50 <__lesf2+0x34>
20002a60:	06069463          	bnez	a3,20002ac8 <__lesf2+0xac>
20002a64:	00051463          	bnez	a0,20002a6c <__lesf2+0x50>
20002a68:	04070a63          	beqz	a4,20002abc <__lesf2+0xa0>
20002a6c:	00060e63          	beqz	a2,20002a88 <__lesf2+0x6c>
20002a70:	00b79463          	bne	a5,a1,20002a78 <__lesf2+0x5c>
20002a74:	02d55263          	bge	a0,a3,20002a98 <__lesf2+0x7c>
20002a78:	00100513          	li	a0,1
20002a7c:	02078e63          	beqz	a5,20002ab8 <__lesf2+0x9c>
20002a80:	fff00513          	li	a0,-1
20002a84:	00008067          	ret
20002a88:	fff00513          	li	a0,-1
20002a8c:	02058663          	beqz	a1,20002ab8 <__lesf2+0x9c>
20002a90:	00058513          	mv	a0,a1
20002a94:	00008067          	ret
20002a98:	00a6da63          	bge	a3,a0,20002aac <__lesf2+0x90>
20002a9c:	fff00513          	li	a0,-1
20002aa0:	00078c63          	beqz	a5,20002ab8 <__lesf2+0x9c>
20002aa4:	00078513          	mv	a0,a5
20002aa8:	00008067          	ret
20002aac:	fcc766e3          	bltu	a4,a2,20002a78 <__lesf2+0x5c>
20002ab0:	00000513          	li	a0,0
20002ab4:	fee664e3          	bltu	a2,a4,20002a9c <__lesf2+0x80>
20002ab8:	00008067          	ret
20002abc:	fe060ee3          	beqz	a2,20002ab8 <__lesf2+0x9c>
20002ac0:	fb9ff06f          	j	20002a78 <__lesf2+0x5c>
20002ac4:	f8d50ce3          	beq	a0,a3,20002a5c <__lesf2+0x40>
20002ac8:	fa0514e3          	bnez	a0,20002a70 <__lesf2+0x54>
20002acc:	fa0706e3          	beqz	a4,20002a78 <__lesf2+0x5c>
20002ad0:	fa1ff06f          	j	20002a70 <__lesf2+0x54>

20002ad4 <__mulsf3>:
20002ad4:	fe010113          	addi	sp,sp,-32
20002ad8:	01212823          	sw	s2,16(sp)
20002adc:	01755913          	srli	s2,a0,0x17
20002ae0:	00912a23          	sw	s1,20(sp)
20002ae4:	01312623          	sw	s3,12(sp)
20002ae8:	01512223          	sw	s5,4(sp)
20002aec:	00951493          	slli	s1,a0,0x9
20002af0:	00112e23          	sw	ra,28(sp)
20002af4:	00812c23          	sw	s0,24(sp)
20002af8:	01412423          	sw	s4,8(sp)
20002afc:	0ff97913          	zext.b	s2,s2
20002b00:	00058a93          	mv	s5,a1
20002b04:	0094d493          	srli	s1,s1,0x9
20002b08:	01f55993          	srli	s3,a0,0x1f
20002b0c:	18090a63          	beqz	s2,20002ca0 <__mulsf3+0x1cc>
20002b10:	0ff00793          	li	a5,255
20002b14:	1af90663          	beq	s2,a5,20002cc0 <__mulsf3+0x1ec>
20002b18:	00349493          	slli	s1,s1,0x3
20002b1c:	040007b7          	lui	a5,0x4000
20002b20:	00f4e4b3          	or	s1,s1,a5
20002b24:	f8190913          	addi	s2,s2,-127
20002b28:	00000a13          	li	s4,0
20002b2c:	017ad793          	srli	a5,s5,0x17
20002b30:	009a9413          	slli	s0,s5,0x9
20002b34:	0ff7f793          	zext.b	a5,a5
20002b38:	00945413          	srli	s0,s0,0x9
20002b3c:	01fada93          	srli	s5,s5,0x1f
20002b40:	1a078063          	beqz	a5,20002ce0 <__mulsf3+0x20c>
20002b44:	0ff00713          	li	a4,255
20002b48:	1ae78c63          	beq	a5,a4,20002d00 <__mulsf3+0x22c>
20002b4c:	00341413          	slli	s0,s0,0x3
20002b50:	04000737          	lui	a4,0x4000
20002b54:	00e46433          	or	s0,s0,a4
20002b58:	f8178793          	addi	a5,a5,-127 # 3ffff81 <_start-0x1c00007f>
20002b5c:	00000693          	li	a3,0
20002b60:	00f90933          	add	s2,s2,a5
20002b64:	002a1793          	slli	a5,s4,0x2
20002b68:	00d7e7b3          	or	a5,a5,a3
20002b6c:	00a00713          	li	a4,10
20002b70:	0159c533          	xor	a0,s3,s5
20002b74:	00190613          	addi	a2,s2,1
20002b78:	1ef74c63          	blt	a4,a5,20002d70 <__mulsf3+0x29c>
20002b7c:	00200713          	li	a4,2
20002b80:	1af74063          	blt	a4,a5,20002d20 <__mulsf3+0x24c>
20002b84:	fff78793          	addi	a5,a5,-1
20002b88:	00100713          	li	a4,1
20002b8c:	1af77c63          	bgeu	a4,a5,20002d44 <__mulsf3+0x270>
20002b90:	000108b7          	lui	a7,0x10
20002b94:	fff88813          	addi	a6,a7,-1 # ffff <_start-0x1fff0001>
20002b98:	0104d713          	srli	a4,s1,0x10
20002b9c:	01045793          	srli	a5,s0,0x10
20002ba0:	010476b3          	and	a3,s0,a6
20002ba4:	0104f4b3          	and	s1,s1,a6
20002ba8:	029685b3          	mul	a1,a3,s1
20002bac:	02d706b3          	mul	a3,a4,a3
20002bb0:	0105d413          	srli	s0,a1,0x10
20002bb4:	02f70733          	mul	a4,a4,a5
20002bb8:	029787b3          	mul	a5,a5,s1
20002bbc:	00d787b3          	add	a5,a5,a3
20002bc0:	00f40433          	add	s0,s0,a5
20002bc4:	00d47463          	bgeu	s0,a3,20002bcc <__mulsf3+0xf8>
20002bc8:	01170733          	add	a4,a4,a7
20002bcc:	010477b3          	and	a5,s0,a6
20002bd0:	01079793          	slli	a5,a5,0x10
20002bd4:	0105f5b3          	and	a1,a1,a6
20002bd8:	00b787b3          	add	a5,a5,a1
20002bdc:	00679693          	slli	a3,a5,0x6
20002be0:	01045413          	srli	s0,s0,0x10
20002be4:	00d036b3          	snez	a3,a3
20002be8:	01a7d793          	srli	a5,a5,0x1a
20002bec:	00e40433          	add	s0,s0,a4
20002bf0:	00f6e7b3          	or	a5,a3,a5
20002bf4:	00641413          	slli	s0,s0,0x6
20002bf8:	00f46433          	or	s0,s0,a5
20002bfc:	080007b7          	lui	a5,0x8000
20002c00:	00f477b3          	and	a5,s0,a5
20002c04:	18078e63          	beqz	a5,20002da0 <__mulsf3+0x2cc>
20002c08:	00145793          	srli	a5,s0,0x1
20002c0c:	00147413          	andi	s0,s0,1
20002c10:	0087e433          	or	s0,a5,s0
20002c14:	07f60713          	addi	a4,a2,127 # 7f80007f <__global_pointer$+0x5f7f5edf>
20002c18:	18e05863          	blez	a4,20002da8 <__mulsf3+0x2d4>
20002c1c:	00747793          	andi	a5,s0,7
20002c20:	00078a63          	beqz	a5,20002c34 <__mulsf3+0x160>
20002c24:	00f47793          	andi	a5,s0,15
20002c28:	00400693          	li	a3,4
20002c2c:	00d78463          	beq	a5,a3,20002c34 <__mulsf3+0x160>
20002c30:	00440413          	addi	s0,s0,4 # 400004 <_start-0x1fbffffc>
20002c34:	080007b7          	lui	a5,0x8000
20002c38:	00f477b3          	and	a5,s0,a5
20002c3c:	00078a63          	beqz	a5,20002c50 <__mulsf3+0x17c>
20002c40:	f80007b7          	lui	a5,0xf8000
20002c44:	fff78793          	addi	a5,a5,-1 # f7ffffff <__global_pointer$+0xd7ff5e5f>
20002c48:	00f47433          	and	s0,s0,a5
20002c4c:	08060713          	addi	a4,a2,128
20002c50:	0fe00793          	li	a5,254
20002c54:	1ae7ce63          	blt	a5,a4,20002e10 <__mulsf3+0x33c>
20002c58:	00345793          	srli	a5,s0,0x3
20002c5c:	01c12083          	lw	ra,28(sp)
20002c60:	01812403          	lw	s0,24(sp)
20002c64:	01771713          	slli	a4,a4,0x17
20002c68:	7f8006b7          	lui	a3,0x7f800
20002c6c:	00979793          	slli	a5,a5,0x9
20002c70:	00d77733          	and	a4,a4,a3
20002c74:	0097d793          	srli	a5,a5,0x9
20002c78:	00f76733          	or	a4,a4,a5
20002c7c:	01f51513          	slli	a0,a0,0x1f
20002c80:	01412483          	lw	s1,20(sp)
20002c84:	01012903          	lw	s2,16(sp)
20002c88:	00c12983          	lw	s3,12(sp)
20002c8c:	00812a03          	lw	s4,8(sp)
20002c90:	00412a83          	lw	s5,4(sp)
20002c94:	00a76533          	or	a0,a4,a0
20002c98:	02010113          	addi	sp,sp,32
20002c9c:	00008067          	ret
20002ca0:	02048a63          	beqz	s1,20002cd4 <__mulsf3+0x200>
20002ca4:	00048513          	mv	a0,s1
20002ca8:	1b9000ef          	jal	ra,20003660 <__clzsi2>
20002cac:	ffb50793          	addi	a5,a0,-5
20002cb0:	f8a00913          	li	s2,-118
20002cb4:	00f494b3          	sll	s1,s1,a5
20002cb8:	40a90933          	sub	s2,s2,a0
20002cbc:	e6dff06f          	j	20002b28 <__mulsf3+0x54>
20002cc0:	0ff00913          	li	s2,255
20002cc4:	00200a13          	li	s4,2
20002cc8:	e60482e3          	beqz	s1,20002b2c <__mulsf3+0x58>
20002ccc:	00300a13          	li	s4,3
20002cd0:	e5dff06f          	j	20002b2c <__mulsf3+0x58>
20002cd4:	00000913          	li	s2,0
20002cd8:	00100a13          	li	s4,1
20002cdc:	e51ff06f          	j	20002b2c <__mulsf3+0x58>
20002ce0:	02040a63          	beqz	s0,20002d14 <__mulsf3+0x240>
20002ce4:	00040513          	mv	a0,s0
20002ce8:	179000ef          	jal	ra,20003660 <__clzsi2>
20002cec:	ffb50793          	addi	a5,a0,-5
20002cf0:	00f41433          	sll	s0,s0,a5
20002cf4:	f8a00793          	li	a5,-118
20002cf8:	40a787b3          	sub	a5,a5,a0
20002cfc:	e61ff06f          	j	20002b5c <__mulsf3+0x88>
20002d00:	0ff00793          	li	a5,255
20002d04:	00200693          	li	a3,2
20002d08:	e4040ce3          	beqz	s0,20002b60 <__mulsf3+0x8c>
20002d0c:	00300693          	li	a3,3
20002d10:	e51ff06f          	j	20002b60 <__mulsf3+0x8c>
20002d14:	00000793          	li	a5,0
20002d18:	00100693          	li	a3,1
20002d1c:	e45ff06f          	j	20002b60 <__mulsf3+0x8c>
20002d20:	00100713          	li	a4,1
20002d24:	00f717b3          	sll	a5,a4,a5
20002d28:	5307f713          	andi	a4,a5,1328
20002d2c:	04071c63          	bnez	a4,20002d84 <__mulsf3+0x2b0>
20002d30:	2407f713          	andi	a4,a5,576
20002d34:	0c071663          	bnez	a4,20002e00 <__mulsf3+0x32c>
20002d38:	0887f793          	andi	a5,a5,136
20002d3c:	e4078ae3          	beqz	a5,20002b90 <__mulsf3+0xbc>
20002d40:	000a8513          	mv	a0,s5
20002d44:	00200593          	li	a1,2
20002d48:	00000793          	li	a5,0
20002d4c:	0ff00713          	li	a4,255
20002d50:	f0b686e3          	beq	a3,a1,20002c5c <__mulsf3+0x188>
20002d54:	00300793          	li	a5,3
20002d58:	0af68463          	beq	a3,a5,20002e00 <__mulsf3+0x32c>
20002d5c:	00100793          	li	a5,1
20002d60:	eaf69ae3          	bne	a3,a5,20002c14 <__mulsf3+0x140>
20002d64:	00000793          	li	a5,0
20002d68:	00000713          	li	a4,0
20002d6c:	ef1ff06f          	j	20002c5c <__mulsf3+0x188>
20002d70:	00f00713          	li	a4,15
20002d74:	00e78e63          	beq	a5,a4,20002d90 <__mulsf3+0x2bc>
20002d78:	00b00713          	li	a4,11
20002d7c:	fce782e3          	beq	a5,a4,20002d40 <__mulsf3+0x26c>
20002d80:	00098513          	mv	a0,s3
20002d84:	00048413          	mv	s0,s1
20002d88:	000a0693          	mv	a3,s4
20002d8c:	fb9ff06f          	j	20002d44 <__mulsf3+0x270>
20002d90:	00400437          	lui	s0,0x400
20002d94:	00000513          	li	a0,0
20002d98:	00300693          	li	a3,3
20002d9c:	fb9ff06f          	j	20002d54 <__mulsf3+0x280>
20002da0:	00090613          	mv	a2,s2
20002da4:	e71ff06f          	j	20002c14 <__mulsf3+0x140>
20002da8:	00100793          	li	a5,1
20002dac:	40e787b3          	sub	a5,a5,a4
20002db0:	01b00713          	li	a4,27
20002db4:	faf748e3          	blt	a4,a5,20002d64 <__mulsf3+0x290>
20002db8:	09e60613          	addi	a2,a2,158
20002dbc:	00f457b3          	srl	a5,s0,a5
20002dc0:	00c41433          	sll	s0,s0,a2
20002dc4:	00803433          	snez	s0,s0
20002dc8:	0087e7b3          	or	a5,a5,s0
20002dcc:	0077f713          	andi	a4,a5,7
20002dd0:	00070a63          	beqz	a4,20002de4 <__mulsf3+0x310>
20002dd4:	00f7f713          	andi	a4,a5,15
20002dd8:	00400693          	li	a3,4
20002ddc:	00d70463          	beq	a4,a3,20002de4 <__mulsf3+0x310>
20002de0:	00478793          	addi	a5,a5,4
20002de4:	04000737          	lui	a4,0x4000
20002de8:	00e7f733          	and	a4,a5,a4
20002dec:	0037d793          	srli	a5,a5,0x3
20002df0:	e60706e3          	beqz	a4,20002c5c <__mulsf3+0x188>
20002df4:	00000793          	li	a5,0
20002df8:	00100713          	li	a4,1
20002dfc:	e61ff06f          	j	20002c5c <__mulsf3+0x188>
20002e00:	004007b7          	lui	a5,0x400
20002e04:	0ff00713          	li	a4,255
20002e08:	00000513          	li	a0,0
20002e0c:	e51ff06f          	j	20002c5c <__mulsf3+0x188>
20002e10:	00000793          	li	a5,0
20002e14:	0ff00713          	li	a4,255
20002e18:	e45ff06f          	j	20002c5c <__mulsf3+0x188>

20002e1c <__subsf3>:
20002e1c:	00800737          	lui	a4,0x800
20002e20:	ff010113          	addi	sp,sp,-16
20002e24:	fff70713          	addi	a4,a4,-1 # 7fffff <_start-0x1f800001>
20002e28:	0175d613          	srli	a2,a1,0x17
20002e2c:	00a777b3          	and	a5,a4,a0
20002e30:	00812423          	sw	s0,8(sp)
20002e34:	00b77733          	and	a4,a4,a1
20002e38:	00912223          	sw	s1,4(sp)
20002e3c:	01755413          	srli	s0,a0,0x17
20002e40:	00112623          	sw	ra,12(sp)
20002e44:	01212023          	sw	s2,0(sp)
20002e48:	0ff67613          	zext.b	a2,a2
20002e4c:	0ff00693          	li	a3,255
20002e50:	0ff47413          	zext.b	s0,s0
20002e54:	01f55493          	srli	s1,a0,0x1f
20002e58:	00379793          	slli	a5,a5,0x3
20002e5c:	01f5d593          	srli	a1,a1,0x1f
20002e60:	00371713          	slli	a4,a4,0x3
20002e64:	00d61463          	bne	a2,a3,20002e6c <__subsf3+0x50>
20002e68:	00071463          	bnez	a4,20002e70 <__subsf3+0x54>
20002e6c:	0015c593          	xori	a1,a1,1
20002e70:	40c406b3          	sub	a3,s0,a2
20002e74:	18959a63          	bne	a1,s1,20003008 <__subsf3+0x1ec>
20002e78:	0ad05063          	blez	a3,20002f18 <__subsf3+0xfc>
20002e7c:	02061663          	bnez	a2,20002ea8 <__subsf3+0x8c>
20002e80:	18070063          	beqz	a4,20003000 <__subsf3+0x1e4>
20002e84:	fff68613          	addi	a2,a3,-1 # 7f7fffff <__global_pointer$+0x5f7f5e5f>
20002e88:	00061863          	bnez	a2,20002e98 <__subsf3+0x7c>
20002e8c:	00e787b3          	add	a5,a5,a4
20002e90:	00100413          	li	s0,1
20002e94:	0500006f          	j	20002ee4 <__subsf3+0xc8>
20002e98:	0ff00593          	li	a1,255
20002e9c:	02b69063          	bne	a3,a1,20002ebc <__subsf3+0xa0>
20002ea0:	0ff00413          	li	s0,255
20002ea4:	1180006f          	j	20002fbc <__subsf3+0x1a0>
20002ea8:	0ff00613          	li	a2,255
20002eac:	10c40863          	beq	s0,a2,20002fbc <__subsf3+0x1a0>
20002eb0:	04000637          	lui	a2,0x4000
20002eb4:	00c76733          	or	a4,a4,a2
20002eb8:	00068613          	mv	a2,a3
20002ebc:	01b00593          	li	a1,27
20002ec0:	00100693          	li	a3,1
20002ec4:	00c5ce63          	blt	a1,a2,20002ee0 <__subsf3+0xc4>
20002ec8:	02000693          	li	a3,32
20002ecc:	40c686b3          	sub	a3,a3,a2
20002ed0:	00c755b3          	srl	a1,a4,a2
20002ed4:	00d71733          	sll	a4,a4,a3
20002ed8:	00e03733          	snez	a4,a4
20002edc:	00e5e6b3          	or	a3,a1,a4
20002ee0:	00d787b3          	add	a5,a5,a3
20002ee4:	04000737          	lui	a4,0x4000
20002ee8:	00e7f733          	and	a4,a5,a4
20002eec:	0c070863          	beqz	a4,20002fbc <__subsf3+0x1a0>
20002ef0:	00140413          	addi	s0,s0,1 # 400001 <_start-0x1fbfffff>
20002ef4:	0ff00713          	li	a4,255
20002ef8:	30e40263          	beq	s0,a4,200031fc <__subsf3+0x3e0>
20002efc:	7e000737          	lui	a4,0x7e000
20002f00:	0017f693          	andi	a3,a5,1
20002f04:	fff70713          	addi	a4,a4,-1 # 7dffffff <__global_pointer$+0x5dff5e5f>
20002f08:	0017d793          	srli	a5,a5,0x1
20002f0c:	00e7f7b3          	and	a5,a5,a4
20002f10:	00d7e7b3          	or	a5,a5,a3
20002f14:	0a80006f          	j	20002fbc <__subsf3+0x1a0>
20002f18:	06068663          	beqz	a3,20002f84 <__subsf3+0x168>
20002f1c:	408606b3          	sub	a3,a2,s0
20002f20:	02041063          	bnez	s0,20002f40 <__subsf3+0x124>
20002f24:	2c078263          	beqz	a5,200031e8 <__subsf3+0x3cc>
20002f28:	fff68593          	addi	a1,a3,-1
20002f2c:	f60580e3          	beqz	a1,20002e8c <__subsf3+0x70>
20002f30:	0ff00513          	li	a0,255
20002f34:	02a69063          	bne	a3,a0,20002f54 <__subsf3+0x138>
20002f38:	00070793          	mv	a5,a4
20002f3c:	f65ff06f          	j	20002ea0 <__subsf3+0x84>
20002f40:	0ff00593          	li	a1,255
20002f44:	feb60ae3          	beq	a2,a1,20002f38 <__subsf3+0x11c>
20002f48:	040005b7          	lui	a1,0x4000
20002f4c:	00b7e7b3          	or	a5,a5,a1
20002f50:	00068593          	mv	a1,a3
20002f54:	01b00513          	li	a0,27
20002f58:	00100693          	li	a3,1
20002f5c:	00b54e63          	blt	a0,a1,20002f78 <__subsf3+0x15c>
20002f60:	02000693          	li	a3,32
20002f64:	40b686b3          	sub	a3,a3,a1
20002f68:	00b7d533          	srl	a0,a5,a1
20002f6c:	00d797b3          	sll	a5,a5,a3
20002f70:	00f037b3          	snez	a5,a5
20002f74:	00f566b3          	or	a3,a0,a5
20002f78:	00e687b3          	add	a5,a3,a4
20002f7c:	00060413          	mv	s0,a2
20002f80:	f65ff06f          	j	20002ee4 <__subsf3+0xc8>
20002f84:	00140693          	addi	a3,s0,1
20002f88:	0fe6f613          	andi	a2,a3,254
20002f8c:	06061263          	bnez	a2,20002ff0 <__subsf3+0x1d4>
20002f90:	04041463          	bnez	s0,20002fd8 <__subsf3+0x1bc>
20002f94:	24078e63          	beqz	a5,200031f0 <__subsf3+0x3d4>
20002f98:	02070263          	beqz	a4,20002fbc <__subsf3+0x1a0>
20002f9c:	00e787b3          	add	a5,a5,a4
20002fa0:	04000737          	lui	a4,0x4000
20002fa4:	00e7f733          	and	a4,a5,a4
20002fa8:	00070a63          	beqz	a4,20002fbc <__subsf3+0x1a0>
20002fac:	fc000737          	lui	a4,0xfc000
20002fb0:	fff70713          	addi	a4,a4,-1 # fbffffff <__global_pointer$+0xdbff5e5f>
20002fb4:	00e7f7b3          	and	a5,a5,a4
20002fb8:	00100413          	li	s0,1
20002fbc:	0077f713          	andi	a4,a5,7
20002fc0:	24070063          	beqz	a4,20003200 <__subsf3+0x3e4>
20002fc4:	00f7f713          	andi	a4,a5,15
20002fc8:	00400693          	li	a3,4
20002fcc:	22d70a63          	beq	a4,a3,20003200 <__subsf3+0x3e4>
20002fd0:	00478793          	addi	a5,a5,4 # 400004 <_start-0x1fbffffc>
20002fd4:	22c0006f          	j	20003200 <__subsf3+0x3e4>
20002fd8:	f60780e3          	beqz	a5,20002f38 <__subsf3+0x11c>
20002fdc:	ec0702e3          	beqz	a4,20002ea0 <__subsf3+0x84>
20002fe0:	00000493          	li	s1,0
20002fe4:	020007b7          	lui	a5,0x2000
20002fe8:	0ff00413          	li	s0,255
20002fec:	2140006f          	j	20003200 <__subsf3+0x3e4>
20002ff0:	0ff00613          	li	a2,255
20002ff4:	20c68263          	beq	a3,a2,200031f8 <__subsf3+0x3dc>
20002ff8:	00e78733          	add	a4,a5,a4
20002ffc:	00175793          	srli	a5,a4,0x1
20003000:	00068413          	mv	s0,a3
20003004:	fb9ff06f          	j	20002fbc <__subsf3+0x1a0>
20003008:	08d05063          	blez	a3,20003088 <__subsf3+0x26c>
2000300c:	06061263          	bnez	a2,20003070 <__subsf3+0x254>
20003010:	fe0708e3          	beqz	a4,20003000 <__subsf3+0x1e4>
20003014:	fff68613          	addi	a2,a3,-1
20003018:	00061863          	bnez	a2,20003028 <__subsf3+0x20c>
2000301c:	40e787b3          	sub	a5,a5,a4
20003020:	00100413          	li	s0,1
20003024:	0340006f          	j	20003058 <__subsf3+0x23c>
20003028:	0ff00593          	li	a1,255
2000302c:	e6b68ae3          	beq	a3,a1,20002ea0 <__subsf3+0x84>
20003030:	01b00593          	li	a1,27
20003034:	00100693          	li	a3,1
20003038:	00c5ce63          	blt	a1,a2,20003054 <__subsf3+0x238>
2000303c:	02000693          	li	a3,32
20003040:	40c686b3          	sub	a3,a3,a2
20003044:	00c755b3          	srl	a1,a4,a2
20003048:	00d71733          	sll	a4,a4,a3
2000304c:	00e03733          	snez	a4,a4
20003050:	00e5e6b3          	or	a3,a1,a4
20003054:	40d787b3          	sub	a5,a5,a3
20003058:	04000937          	lui	s2,0x4000
2000305c:	0127f733          	and	a4,a5,s2
20003060:	f4070ee3          	beqz	a4,20002fbc <__subsf3+0x1a0>
20003064:	fff90913          	addi	s2,s2,-1 # 3ffffff <_start-0x1c000001>
20003068:	0127f933          	and	s2,a5,s2
2000306c:	1180006f          	j	20003184 <__subsf3+0x368>
20003070:	0ff00613          	li	a2,255
20003074:	f4c404e3          	beq	s0,a2,20002fbc <__subsf3+0x1a0>
20003078:	04000637          	lui	a2,0x4000
2000307c:	00c76733          	or	a4,a4,a2
20003080:	00068613          	mv	a2,a3
20003084:	fadff06f          	j	20003030 <__subsf3+0x214>
20003088:	08068063          	beqz	a3,20003108 <__subsf3+0x2ec>
2000308c:	408606b3          	sub	a3,a2,s0
20003090:	02041863          	bnez	s0,200030c0 <__subsf3+0x2a4>
20003094:	1e078063          	beqz	a5,20003274 <__subsf3+0x458>
20003098:	fff68513          	addi	a0,a3,-1
2000309c:	00051863          	bnez	a0,200030ac <__subsf3+0x290>
200030a0:	40f707b3          	sub	a5,a4,a5
200030a4:	00058493          	mv	s1,a1
200030a8:	f79ff06f          	j	20003020 <__subsf3+0x204>
200030ac:	0ff00813          	li	a6,255
200030b0:	03069263          	bne	a3,a6,200030d4 <__subsf3+0x2b8>
200030b4:	00070793          	mv	a5,a4
200030b8:	0ff00413          	li	s0,255
200030bc:	06c0006f          	j	20003128 <__subsf3+0x30c>
200030c0:	0ff00513          	li	a0,255
200030c4:	fea608e3          	beq	a2,a0,200030b4 <__subsf3+0x298>
200030c8:	04000537          	lui	a0,0x4000
200030cc:	00a7e7b3          	or	a5,a5,a0
200030d0:	00068513          	mv	a0,a3
200030d4:	01b00813          	li	a6,27
200030d8:	00100693          	li	a3,1
200030dc:	00a84e63          	blt	a6,a0,200030f8 <__subsf3+0x2dc>
200030e0:	02000693          	li	a3,32
200030e4:	40a686b3          	sub	a3,a3,a0
200030e8:	00a7d833          	srl	a6,a5,a0
200030ec:	00d797b3          	sll	a5,a5,a3
200030f0:	00f037b3          	snez	a5,a5
200030f4:	00f866b3          	or	a3,a6,a5
200030f8:	40d707b3          	sub	a5,a4,a3
200030fc:	00060413          	mv	s0,a2
20003100:	00058493          	mv	s1,a1
20003104:	f55ff06f          	j	20003058 <__subsf3+0x23c>
20003108:	00140693          	addi	a3,s0,1
2000310c:	0fe6f693          	andi	a3,a3,254
20003110:	04069e63          	bnez	a3,2000316c <__subsf3+0x350>
20003114:	04041263          	bnez	s0,20003158 <__subsf3+0x33c>
20003118:	00079c63          	bnez	a5,20003130 <__subsf3+0x314>
2000311c:	00000493          	li	s1,0
20003120:	0e070063          	beqz	a4,20003200 <__subsf3+0x3e4>
20003124:	00070793          	mv	a5,a4
20003128:	00058493          	mv	s1,a1
2000312c:	e91ff06f          	j	20002fbc <__subsf3+0x1a0>
20003130:	e80706e3          	beqz	a4,20002fbc <__subsf3+0x1a0>
20003134:	40e786b3          	sub	a3,a5,a4
20003138:	04000637          	lui	a2,0x4000
2000313c:	00c6f633          	and	a2,a3,a2
20003140:	40f707b3          	sub	a5,a4,a5
20003144:	fe0612e3          	bnez	a2,20003128 <__subsf3+0x30c>
20003148:	00000793          	li	a5,0
2000314c:	08068063          	beqz	a3,200031cc <__subsf3+0x3b0>
20003150:	00068793          	mv	a5,a3
20003154:	e69ff06f          	j	20002fbc <__subsf3+0x1a0>
20003158:	e80792e3          	bnez	a5,20002fdc <__subsf3+0x1c0>
2000315c:	e80702e3          	beqz	a4,20002fe0 <__subsf3+0x1c4>
20003160:	00070793          	mv	a5,a4
20003164:	00058493          	mv	s1,a1
20003168:	d39ff06f          	j	20002ea0 <__subsf3+0x84>
2000316c:	40e78933          	sub	s2,a5,a4
20003170:	040006b7          	lui	a3,0x4000
20003174:	00d976b3          	and	a3,s2,a3
20003178:	04068463          	beqz	a3,200031c0 <__subsf3+0x3a4>
2000317c:	40f70933          	sub	s2,a4,a5
20003180:	00058493          	mv	s1,a1
20003184:	00090513          	mv	a0,s2
20003188:	4d8000ef          	jal	ra,20003660 <__clzsi2>
2000318c:	ffb50513          	addi	a0,a0,-5 # 3fffffb <_start-0x1c000005>
20003190:	00a91933          	sll	s2,s2,a0
20003194:	04854063          	blt	a0,s0,200031d4 <__subsf3+0x3b8>
20003198:	40850533          	sub	a0,a0,s0
2000319c:	00150513          	addi	a0,a0,1
200031a0:	02000713          	li	a4,32
200031a4:	40a70733          	sub	a4,a4,a0
200031a8:	00a957b3          	srl	a5,s2,a0
200031ac:	00e91933          	sll	s2,s2,a4
200031b0:	01203933          	snez	s2,s2
200031b4:	0127e7b3          	or	a5,a5,s2
200031b8:	00000413          	li	s0,0
200031bc:	e01ff06f          	j	20002fbc <__subsf3+0x1a0>
200031c0:	fc0912e3          	bnez	s2,20003184 <__subsf3+0x368>
200031c4:	00000793          	li	a5,0
200031c8:	00000413          	li	s0,0
200031cc:	00000493          	li	s1,0
200031d0:	0300006f          	j	20003200 <__subsf3+0x3e4>
200031d4:	fc0007b7          	lui	a5,0xfc000
200031d8:	fff78793          	addi	a5,a5,-1 # fbffffff <__global_pointer$+0xdbff5e5f>
200031dc:	40a40433          	sub	s0,s0,a0
200031e0:	00f977b3          	and	a5,s2,a5
200031e4:	dd9ff06f          	j	20002fbc <__subsf3+0x1a0>
200031e8:	00070793          	mv	a5,a4
200031ec:	e15ff06f          	j	20003000 <__subsf3+0x1e4>
200031f0:	00070793          	mv	a5,a4
200031f4:	dc9ff06f          	j	20002fbc <__subsf3+0x1a0>
200031f8:	0ff00413          	li	s0,255
200031fc:	00000793          	li	a5,0
20003200:	04000737          	lui	a4,0x4000
20003204:	00e7f733          	and	a4,a5,a4
20003208:	00070e63          	beqz	a4,20003224 <__subsf3+0x408>
2000320c:	00140413          	addi	s0,s0,1
20003210:	0ff00713          	li	a4,255
20003214:	06e40663          	beq	s0,a4,20003280 <__subsf3+0x464>
20003218:	fc000737          	lui	a4,0xfc000
2000321c:	fff70713          	addi	a4,a4,-1 # fbffffff <__global_pointer$+0xdbff5e5f>
20003220:	00e7f7b3          	and	a5,a5,a4
20003224:	0ff00713          	li	a4,255
20003228:	0037d793          	srli	a5,a5,0x3
2000322c:	00e41863          	bne	s0,a4,2000323c <__subsf3+0x420>
20003230:	00078663          	beqz	a5,2000323c <__subsf3+0x420>
20003234:	004007b7          	lui	a5,0x400
20003238:	00000493          	li	s1,0
2000323c:	01741413          	slli	s0,s0,0x17
20003240:	7f800737          	lui	a4,0x7f800
20003244:	00979793          	slli	a5,a5,0x9
20003248:	00e47433          	and	s0,s0,a4
2000324c:	0097d793          	srli	a5,a5,0x9
20003250:	00f46433          	or	s0,s0,a5
20003254:	01f49513          	slli	a0,s1,0x1f
20003258:	00c12083          	lw	ra,12(sp)
2000325c:	00a46533          	or	a0,s0,a0
20003260:	00812403          	lw	s0,8(sp)
20003264:	00412483          	lw	s1,4(sp)
20003268:	00012903          	lw	s2,0(sp)
2000326c:	01010113          	addi	sp,sp,16
20003270:	00008067          	ret
20003274:	00070793          	mv	a5,a4
20003278:	00068413          	mv	s0,a3
2000327c:	eadff06f          	j	20003128 <__subsf3+0x30c>
20003280:	00000793          	li	a5,0
20003284:	fa1ff06f          	j	20003224 <__subsf3+0x408>

20003288 <__fixunssfsi>:
20003288:	01755793          	srli	a5,a0,0x17
2000328c:	00800637          	lui	a2,0x800
20003290:	fff60693          	addi	a3,a2,-1 # 7fffff <_start-0x1f800001>
20003294:	0ff7f793          	zext.b	a5,a5
20003298:	07e00593          	li	a1,126
2000329c:	00a6f6b3          	and	a3,a3,a0
200032a0:	01f55713          	srli	a4,a0,0x1f
200032a4:	00000513          	li	a0,0
200032a8:	04f5d063          	bge	a1,a5,200032e8 <__fixunssfsi+0x60>
200032ac:	00071863          	bnez	a4,200032bc <__fixunssfsi+0x34>
200032b0:	09e00713          	li	a4,158
200032b4:	fff00513          	li	a0,-1
200032b8:	00f75463          	bge	a4,a5,200032c0 <__fixunssfsi+0x38>
200032bc:	00008067          	ret
200032c0:	09500713          	li	a4,149
200032c4:	00c6e533          	or	a0,a3,a2
200032c8:	00f75863          	bge	a4,a5,200032d8 <__fixunssfsi+0x50>
200032cc:	f6a78793          	addi	a5,a5,-150 # 3fff6a <_start-0x1fc00096>
200032d0:	00f51533          	sll	a0,a0,a5
200032d4:	00008067          	ret
200032d8:	09600713          	li	a4,150
200032dc:	40f707b3          	sub	a5,a4,a5
200032e0:	00f55533          	srl	a0,a0,a5
200032e4:	00008067          	ret
200032e8:	00008067          	ret

200032ec <__floatsisf>:
200032ec:	0e050863          	beqz	a0,200033dc <__floatsisf+0xf0>
200032f0:	41f55793          	srai	a5,a0,0x1f
200032f4:	ff010113          	addi	sp,sp,-16
200032f8:	00812423          	sw	s0,8(sp)
200032fc:	00a7c433          	xor	s0,a5,a0
20003300:	40f40433          	sub	s0,s0,a5
20003304:	00912223          	sw	s1,4(sp)
20003308:	01f55493          	srli	s1,a0,0x1f
2000330c:	00040513          	mv	a0,s0
20003310:	00112623          	sw	ra,12(sp)
20003314:	34c000ef          	jal	ra,20003660 <__clzsi2>
20003318:	09e00713          	li	a4,158
2000331c:	40a70733          	sub	a4,a4,a0
20003320:	09600793          	li	a5,150
20003324:	02e7cc63          	blt	a5,a4,2000335c <__floatsisf+0x70>
20003328:	ff850513          	addi	a0,a0,-8
2000332c:	00a417b3          	sll	a5,s0,a0
20003330:	00c12083          	lw	ra,12(sp)
20003334:	00812403          	lw	s0,8(sp)
20003338:	00979793          	slli	a5,a5,0x9
2000333c:	01771713          	slli	a4,a4,0x17
20003340:	0097d793          	srli	a5,a5,0x9
20003344:	01f49513          	slli	a0,s1,0x1f
20003348:	00f76733          	or	a4,a4,a5
2000334c:	00412483          	lw	s1,4(sp)
20003350:	00a76533          	or	a0,a4,a0
20003354:	01010113          	addi	sp,sp,16
20003358:	00008067          	ret
2000335c:	09900793          	li	a5,153
20003360:	02e7d063          	bge	a5,a4,20003380 <__floatsisf+0x94>
20003364:	00500793          	li	a5,5
20003368:	40a787b3          	sub	a5,a5,a0
2000336c:	01b50693          	addi	a3,a0,27
20003370:	00f457b3          	srl	a5,s0,a5
20003374:	00d41433          	sll	s0,s0,a3
20003378:	00803433          	snez	s0,s0
2000337c:	0087e433          	or	s0,a5,s0
20003380:	00500793          	li	a5,5
20003384:	00a7d663          	bge	a5,a0,20003390 <__floatsisf+0xa4>
20003388:	ffb50793          	addi	a5,a0,-5
2000338c:	00f41433          	sll	s0,s0,a5
20003390:	fc0007b7          	lui	a5,0xfc000
20003394:	fff78793          	addi	a5,a5,-1 # fbffffff <__global_pointer$+0xdbff5e5f>
20003398:	00747693          	andi	a3,s0,7
2000339c:	00f477b3          	and	a5,s0,a5
200033a0:	00068a63          	beqz	a3,200033b4 <__floatsisf+0xc8>
200033a4:	00f47413          	andi	s0,s0,15
200033a8:	00400693          	li	a3,4
200033ac:	00d40463          	beq	s0,a3,200033b4 <__floatsisf+0xc8>
200033b0:	00478793          	addi	a5,a5,4
200033b4:	040006b7          	lui	a3,0x4000
200033b8:	00d7f6b3          	and	a3,a5,a3
200033bc:	00068c63          	beqz	a3,200033d4 <__floatsisf+0xe8>
200033c0:	fc000737          	lui	a4,0xfc000
200033c4:	fff70713          	addi	a4,a4,-1 # fbffffff <__global_pointer$+0xdbff5e5f>
200033c8:	00e7f7b3          	and	a5,a5,a4
200033cc:	09f00713          	li	a4,159
200033d0:	40a70733          	sub	a4,a4,a0
200033d4:	0037d793          	srli	a5,a5,0x3
200033d8:	f59ff06f          	j	20003330 <__floatsisf+0x44>
200033dc:	00000793          	li	a5,0
200033e0:	00000713          	li	a4,0
200033e4:	00979793          	slli	a5,a5,0x9
200033e8:	0097d793          	srli	a5,a5,0x9
200033ec:	01771713          	slli	a4,a4,0x17
200033f0:	00f76733          	or	a4,a4,a5
200033f4:	01f51513          	slli	a0,a0,0x1f
200033f8:	00a76533          	or	a0,a4,a0
200033fc:	00008067          	ret

20003400 <__extendsfdf2>:
20003400:	01755713          	srli	a4,a0,0x17
20003404:	0ff77713          	zext.b	a4,a4
20003408:	ff010113          	addi	sp,sp,-16
2000340c:	00170793          	addi	a5,a4,1
20003410:	00812423          	sw	s0,8(sp)
20003414:	00912223          	sw	s1,4(sp)
20003418:	00951413          	slli	s0,a0,0x9
2000341c:	00112623          	sw	ra,12(sp)
20003420:	0fe7f793          	andi	a5,a5,254
20003424:	00945413          	srli	s0,s0,0x9
20003428:	01f55493          	srli	s1,a0,0x1f
2000342c:	04078263          	beqz	a5,20003470 <__extendsfdf2+0x70>
20003430:	00345793          	srli	a5,s0,0x3
20003434:	38070713          	addi	a4,a4,896
20003438:	01d41413          	slli	s0,s0,0x1d
2000343c:	00c79793          	slli	a5,a5,0xc
20003440:	00c7d793          	srli	a5,a5,0xc
20003444:	01471713          	slli	a4,a4,0x14
20003448:	01f49513          	slli	a0,s1,0x1f
2000344c:	00f76733          	or	a4,a4,a5
20003450:	00c12083          	lw	ra,12(sp)
20003454:	00a767b3          	or	a5,a4,a0
20003458:	00040513          	mv	a0,s0
2000345c:	00812403          	lw	s0,8(sp)
20003460:	00412483          	lw	s1,4(sp)
20003464:	00078593          	mv	a1,a5
20003468:	01010113          	addi	sp,sp,16
2000346c:	00008067          	ret
20003470:	04071663          	bnez	a4,200034bc <__extendsfdf2+0xbc>
20003474:	00000793          	li	a5,0
20003478:	fc0402e3          	beqz	s0,2000343c <__extendsfdf2+0x3c>
2000347c:	00040513          	mv	a0,s0
20003480:	1e0000ef          	jal	ra,20003660 <__clzsi2>
20003484:	00a00793          	li	a5,10
20003488:	02a7c263          	blt	a5,a0,200034ac <__extendsfdf2+0xac>
2000348c:	00b00793          	li	a5,11
20003490:	40a787b3          	sub	a5,a5,a0
20003494:	01550713          	addi	a4,a0,21
20003498:	00f457b3          	srl	a5,s0,a5
2000349c:	00e41433          	sll	s0,s0,a4
200034a0:	38900713          	li	a4,905
200034a4:	40a70733          	sub	a4,a4,a0
200034a8:	f95ff06f          	j	2000343c <__extendsfdf2+0x3c>
200034ac:	ff550793          	addi	a5,a0,-11
200034b0:	00f417b3          	sll	a5,s0,a5
200034b4:	00000413          	li	s0,0
200034b8:	fe9ff06f          	j	200034a0 <__extendsfdf2+0xa0>
200034bc:	00000793          	li	a5,0
200034c0:	00040a63          	beqz	s0,200034d4 <__extendsfdf2+0xd4>
200034c4:	00345793          	srli	a5,s0,0x3
200034c8:	00080737          	lui	a4,0x80
200034cc:	01d41413          	slli	s0,s0,0x1d
200034d0:	00e7e7b3          	or	a5,a5,a4
200034d4:	7ff00713          	li	a4,2047
200034d8:	f65ff06f          	j	2000343c <__extendsfdf2+0x3c>

200034dc <__truncdfsf2>:
200034dc:	0145d613          	srli	a2,a1,0x14
200034e0:	7ff67613          	andi	a2,a2,2047
200034e4:	00c59793          	slli	a5,a1,0xc
200034e8:	00160713          	addi	a4,a2,1
200034ec:	0097d793          	srli	a5,a5,0x9
200034f0:	01d55693          	srli	a3,a0,0x1d
200034f4:	7fe77713          	andi	a4,a4,2046
200034f8:	00f6e6b3          	or	a3,a3,a5
200034fc:	01f5d593          	srli	a1,a1,0x1f
20003500:	00351793          	slli	a5,a0,0x3
20003504:	0a070663          	beqz	a4,200035b0 <__truncdfsf2+0xd4>
20003508:	c8060713          	addi	a4,a2,-896
2000350c:	0fe00813          	li	a6,254
20003510:	0ce84263          	blt	a6,a4,200035d4 <__truncdfsf2+0xf8>
20003514:	08e04063          	bgtz	a4,20003594 <__truncdfsf2+0xb8>
20003518:	fe900513          	li	a0,-23
2000351c:	12a74063          	blt	a4,a0,2000363c <__truncdfsf2+0x160>
20003520:	00800537          	lui	a0,0x800
20003524:	00a6e6b3          	or	a3,a3,a0
20003528:	01e00513          	li	a0,30
2000352c:	40e50533          	sub	a0,a0,a4
20003530:	01f00813          	li	a6,31
20003534:	02a84863          	blt	a6,a0,20003564 <__truncdfsf2+0x88>
20003538:	c8260613          	addi	a2,a2,-894
2000353c:	00a7d533          	srl	a0,a5,a0
20003540:	00c797b3          	sll	a5,a5,a2
20003544:	00f037b3          	snez	a5,a5
20003548:	00c696b3          	sll	a3,a3,a2
2000354c:	00d7e7b3          	or	a5,a5,a3
20003550:	00f567b3          	or	a5,a0,a5
20003554:	00000713          	li	a4,0
20003558:	0077f693          	andi	a3,a5,7
2000355c:	08068063          	beqz	a3,200035dc <__truncdfsf2+0x100>
20003560:	0e40006f          	j	20003644 <__truncdfsf2+0x168>
20003564:	ffe00813          	li	a6,-2
20003568:	40e80833          	sub	a6,a6,a4
2000356c:	02000893          	li	a7,32
20003570:	0106d833          	srl	a6,a3,a6
20003574:	00000713          	li	a4,0
20003578:	01150663          	beq	a0,a7,20003584 <__truncdfsf2+0xa8>
2000357c:	ca260613          	addi	a2,a2,-862
20003580:	00c69733          	sll	a4,a3,a2
20003584:	00f76733          	or	a4,a4,a5
20003588:	00e03733          	snez	a4,a4
2000358c:	00e867b3          	or	a5,a6,a4
20003590:	fc5ff06f          	j	20003554 <__truncdfsf2+0x78>
20003594:	00651513          	slli	a0,a0,0x6
20003598:	00a03533          	snez	a0,a0
2000359c:	00369693          	slli	a3,a3,0x3
200035a0:	01d7d793          	srli	a5,a5,0x1d
200035a4:	00d566b3          	or	a3,a0,a3
200035a8:	00f6e7b3          	or	a5,a3,a5
200035ac:	fadff06f          	j	20003558 <__truncdfsf2+0x7c>
200035b0:	00f6e7b3          	or	a5,a3,a5
200035b4:	00061663          	bnez	a2,200035c0 <__truncdfsf2+0xe4>
200035b8:	00f037b3          	snez	a5,a5
200035bc:	f99ff06f          	j	20003554 <__truncdfsf2+0x78>
200035c0:	0ff00713          	li	a4,255
200035c4:	00078c63          	beqz	a5,200035dc <__truncdfsf2+0x100>
200035c8:	00369693          	slli	a3,a3,0x3
200035cc:	020007b7          	lui	a5,0x2000
200035d0:	fd9ff06f          	j	200035a8 <__truncdfsf2+0xcc>
200035d4:	00000793          	li	a5,0
200035d8:	0ff00713          	li	a4,255
200035dc:	040006b7          	lui	a3,0x4000
200035e0:	00d7f6b3          	and	a3,a5,a3
200035e4:	00068e63          	beqz	a3,20003600 <__truncdfsf2+0x124>
200035e8:	00170713          	addi	a4,a4,1 # 80001 <_start-0x1ff7ffff>
200035ec:	0ff00693          	li	a3,255
200035f0:	06d70463          	beq	a4,a3,20003658 <__truncdfsf2+0x17c>
200035f4:	fc0006b7          	lui	a3,0xfc000
200035f8:	fff68693          	addi	a3,a3,-1 # fbffffff <__global_pointer$+0xdbff5e5f>
200035fc:	00d7f7b3          	and	a5,a5,a3
20003600:	0ff00693          	li	a3,255
20003604:	0037d793          	srli	a5,a5,0x3
20003608:	00d71863          	bne	a4,a3,20003618 <__truncdfsf2+0x13c>
2000360c:	00078663          	beqz	a5,20003618 <__truncdfsf2+0x13c>
20003610:	004007b7          	lui	a5,0x400
20003614:	00000593          	li	a1,0
20003618:	7f8006b7          	lui	a3,0x7f800
2000361c:	01771713          	slli	a4,a4,0x17
20003620:	00979793          	slli	a5,a5,0x9
20003624:	00d77733          	and	a4,a4,a3
20003628:	0097d793          	srli	a5,a5,0x9
2000362c:	00f76733          	or	a4,a4,a5
20003630:	01f59513          	slli	a0,a1,0x1f
20003634:	00a76533          	or	a0,a4,a0
20003638:	00008067          	ret
2000363c:	00100793          	li	a5,1
20003640:	00000713          	li	a4,0
20003644:	00f7f693          	andi	a3,a5,15
20003648:	00400613          	li	a2,4
2000364c:	f8c688e3          	beq	a3,a2,200035dc <__truncdfsf2+0x100>
20003650:	00478793          	addi	a5,a5,4 # 400004 <_start-0x1fbffffc>
20003654:	f89ff06f          	j	200035dc <__truncdfsf2+0x100>
20003658:	00000793          	li	a5,0
2000365c:	fa5ff06f          	j	20003600 <__truncdfsf2+0x124>

20003660 <__clzsi2>:
20003660:	000107b7          	lui	a5,0x10
20003664:	02f57a63          	bgeu	a0,a5,20003698 <__clzsi2+0x38>
20003668:	10053793          	sltiu	a5,a0,256
2000366c:	0017c793          	xori	a5,a5,1
20003670:	00379793          	slli	a5,a5,0x3
20003674:	20009737          	lui	a4,0x20009
20003678:	02000693          	li	a3,32
2000367c:	40f686b3          	sub	a3,a3,a5
20003680:	00f55533          	srl	a0,a0,a5
20003684:	c6870793          	addi	a5,a4,-920 # 20008c68 <__clz_tab>
20003688:	00a787b3          	add	a5,a5,a0
2000368c:	0007c503          	lbu	a0,0(a5) # 10000 <_start-0x1fff0000>
20003690:	40a68533          	sub	a0,a3,a0
20003694:	00008067          	ret
20003698:	01000737          	lui	a4,0x1000
2000369c:	01000793          	li	a5,16
200036a0:	fce56ae3          	bltu	a0,a4,20003674 <__clzsi2+0x14>
200036a4:	01800793          	li	a5,24
200036a8:	fcdff06f          	j	20003674 <__clzsi2+0x14>

200036ac <__eqdf2>:
200036ac:	0145d713          	srli	a4,a1,0x14
200036b0:	001007b7          	lui	a5,0x100
200036b4:	fff78793          	addi	a5,a5,-1 # fffff <_start-0x1ff00001>
200036b8:	0146d813          	srli	a6,a3,0x14
200036bc:	00050313          	mv	t1,a0
200036c0:	00050e93          	mv	t4,a0
200036c4:	7ff77713          	andi	a4,a4,2047
200036c8:	7ff00513          	li	a0,2047
200036cc:	00b7f8b3          	and	a7,a5,a1
200036d0:	00060f13          	mv	t5,a2
200036d4:	00d7f7b3          	and	a5,a5,a3
200036d8:	01f5d593          	srli	a1,a1,0x1f
200036dc:	7ff87813          	andi	a6,a6,2047
200036e0:	01f6d693          	srli	a3,a3,0x1f
200036e4:	00a71c63          	bne	a4,a0,200036fc <__eqdf2+0x50>
200036e8:	0068ee33          	or	t3,a7,t1
200036ec:	00100513          	li	a0,1
200036f0:	000e1463          	bnez	t3,200036f8 <__eqdf2+0x4c>
200036f4:	00e80663          	beq	a6,a4,20003700 <__eqdf2+0x54>
200036f8:	00008067          	ret
200036fc:	00a81863          	bne	a6,a0,2000370c <__eqdf2+0x60>
20003700:	00c7e633          	or	a2,a5,a2
20003704:	00100513          	li	a0,1
20003708:	fe0618e3          	bnez	a2,200036f8 <__eqdf2+0x4c>
2000370c:	00100513          	li	a0,1
20003710:	ff0714e3          	bne	a4,a6,200036f8 <__eqdf2+0x4c>
20003714:	fef892e3          	bne	a7,a5,200036f8 <__eqdf2+0x4c>
20003718:	ffee90e3          	bne	t4,t5,200036f8 <__eqdf2+0x4c>
2000371c:	00d58a63          	beq	a1,a3,20003730 <__eqdf2+0x84>
20003720:	fc071ce3          	bnez	a4,200036f8 <__eqdf2+0x4c>
20003724:	0068e8b3          	or	a7,a7,t1
20003728:	01103533          	snez	a0,a7
2000372c:	00008067          	ret
20003730:	00000513          	li	a0,0
20003734:	00008067          	ret

20003738 <__eqsf2>:
20003738:	01755693          	srli	a3,a0,0x17
2000373c:	008007b7          	lui	a5,0x800
20003740:	fff78793          	addi	a5,a5,-1 # 7fffff <_start-0x1f800001>
20003744:	0175d613          	srli	a2,a1,0x17
20003748:	0ff6f693          	zext.b	a3,a3
2000374c:	0ff00893          	li	a7,255
20003750:	00a7f833          	and	a6,a5,a0
20003754:	01f55713          	srli	a4,a0,0x1f
20003758:	00b7f7b3          	and	a5,a5,a1
2000375c:	0ff67613          	zext.b	a2,a2
20003760:	01f5d593          	srli	a1,a1,0x1f
20003764:	00100513          	li	a0,1
20003768:	01169a63          	bne	a3,a7,2000377c <__eqsf2+0x44>
2000376c:	00081663          	bnez	a6,20003778 <__eqsf2+0x40>
20003770:	00d61463          	bne	a2,a3,20003778 <__eqsf2+0x40>
20003774:	00078a63          	beqz	a5,20003788 <__eqsf2+0x50>
20003778:	00008067          	ret
2000377c:	ff160ee3          	beq	a2,a7,20003778 <__eqsf2+0x40>
20003780:	fec69ce3          	bne	a3,a2,20003778 <__eqsf2+0x40>
20003784:	fef81ae3          	bne	a6,a5,20003778 <__eqsf2+0x40>
20003788:	00000513          	li	a0,0
2000378c:	feb706e3          	beq	a4,a1,20003778 <__eqsf2+0x40>
20003790:	00100513          	li	a0,1
20003794:	fe0692e3          	bnez	a3,20003778 <__eqsf2+0x40>
20003798:	01003533          	snez	a0,a6
2000379c:	00008067          	ret

200037a0 <__unordsf2>:
200037a0:	008007b7          	lui	a5,0x800
200037a4:	fff78793          	addi	a5,a5,-1 # 7fffff <_start-0x1f800001>
200037a8:	00a7f733          	and	a4,a5,a0
200037ac:	01755513          	srli	a0,a0,0x17
200037b0:	00b7f7b3          	and	a5,a5,a1
200037b4:	0ff57513          	zext.b	a0,a0
200037b8:	0175d593          	srli	a1,a1,0x17
200037bc:	0ff00693          	li	a3,255
200037c0:	0ff5f593          	zext.b	a1,a1
200037c4:	00d51663          	bne	a0,a3,200037d0 <__unordsf2+0x30>
200037c8:	00100513          	li	a0,1
200037cc:	00071a63          	bnez	a4,200037e0 <__unordsf2+0x40>
200037d0:	0ff00713          	li	a4,255
200037d4:	00000513          	li	a0,0
200037d8:	00e59463          	bne	a1,a4,200037e0 <__unordsf2+0x40>
200037dc:	00f03533          	snez	a0,a5
200037e0:	00008067          	ret

200037e4 <_Z18graphics_set_pixeliifff>:
200037e4:	fd010113          	addi	sp,sp,-48
200037e8:	00357793          	andi	a5,a0,3
200037ec:	01412c23          	sw	s4,24(sp)
200037f0:	00058a13          	mv	s4,a1
200037f4:	00279593          	slli	a1,a5,0x2
200037f8:	00005797          	auipc	a5,0x5
200037fc:	6c878793          	addi	a5,a5,1736 # 20008ec0 <_ZL6dither>
20003800:	02812423          	sw	s0,40(sp)
20003804:	01512a23          	sw	s5,20(sp)
20003808:	00b787b3          	add	a5,a5,a1
2000380c:	00060413          	mv	s0,a2
20003810:	00005a97          	auipc	s5,0x5
20003814:	5d0aaa83          	lw	s5,1488(s5) # 20008de0 <__clz_tab+0x178>
20003818:	003a7613          	andi	a2,s4,3
2000381c:	02912223          	sw	s1,36(sp)
20003820:	00c787b3          	add	a5,a5,a2
20003824:	00050493          	mv	s1,a0
20003828:	000a8593          	mv	a1,s5
2000382c:	00040513          	mv	a0,s0
20003830:	03212023          	sw	s2,32(sp)
20003834:	01312e23          	sw	s3,28(sp)
20003838:	01712623          	sw	s7,12(sp)
2000383c:	02112623          	sw	ra,44(sp)
20003840:	01612823          	sw	s6,16(sp)
20003844:	0007cb83          	lbu	s7,0(a5)
20003848:	00068993          	mv	s3,a3
2000384c:	00070913          	mv	s2,a4
20003850:	9ccff0ef          	jal	ra,20002a1c <__lesf2>
20003854:	00a05463          	blez	a0,2000385c <_Z18graphics_set_pixeliifff+0x78>
20003858:	000a8413          	mv	s0,s5
2000385c:	00000593          	li	a1,0
20003860:	00040513          	mv	a0,s0
20003864:	900ff0ef          	jal	ra,20002964 <__gesf2>
20003868:	00055463          	bgez	a0,20003870 <_Z18graphics_set_pixeliifff+0x8c>
2000386c:	00000413          	li	s0,0
20003870:	00005597          	auipc	a1,0x5
20003874:	5745a583          	lw	a1,1396(a1) # 20008de4 <__clz_tab+0x17c>
20003878:	00040513          	mv	a0,s0
2000387c:	a58ff0ef          	jal	ra,20002ad4 <__mulsf3>
20003880:	a09ff0ef          	jal	ra,20003288 <__fixunssfsi>
20003884:	01051513          	slli	a0,a0,0x10
20003888:	01055513          	srli	a0,a0,0x10
2000388c:	01750533          	add	a0,a0,s7
20003890:	a5dff0ef          	jal	ra,200032ec <__floatsisf>
20003894:	00005b17          	auipc	s6,0x5
20003898:	550b2b03          	lw	s6,1360(s6) # 20008de4 <__clz_tab+0x17c>
2000389c:	000b0593          	mv	a1,s6
200038a0:	00050413          	mv	s0,a0
200038a4:	978ff0ef          	jal	ra,20002a1c <__lesf2>
200038a8:	00a05463          	blez	a0,200038b0 <_Z18graphics_set_pixeliifff+0xcc>
200038ac:	000b0413          	mv	s0,s6
200038b0:	00040513          	mv	a0,s0
200038b4:	9d5ff0ef          	jal	ra,20003288 <__fixunssfsi>
200038b8:	00050413          	mv	s0,a0
200038bc:	01041413          	slli	s0,s0,0x10
200038c0:	000a8593          	mv	a1,s5
200038c4:	00098513          	mv	a0,s3
200038c8:	01045413          	srli	s0,s0,0x10
200038cc:	950ff0ef          	jal	ra,20002a1c <__lesf2>
200038d0:	00a05463          	blez	a0,200038d8 <_Z18graphics_set_pixeliifff+0xf4>
200038d4:	000a8993          	mv	s3,s5
200038d8:	00000593          	li	a1,0
200038dc:	00098513          	mv	a0,s3
200038e0:	884ff0ef          	jal	ra,20002964 <__gesf2>
200038e4:	00055463          	bgez	a0,200038ec <_Z18graphics_set_pixeliifff+0x108>
200038e8:	00000993          	li	s3,0
200038ec:	00005597          	auipc	a1,0x5
200038f0:	4f85a583          	lw	a1,1272(a1) # 20008de4 <__clz_tab+0x17c>
200038f4:	00098513          	mv	a0,s3
200038f8:	9dcff0ef          	jal	ra,20002ad4 <__mulsf3>
200038fc:	98dff0ef          	jal	ra,20003288 <__fixunssfsi>
20003900:	01051513          	slli	a0,a0,0x10
20003904:	01055513          	srli	a0,a0,0x10
20003908:	01750533          	add	a0,a0,s7
2000390c:	9e1ff0ef          	jal	ra,200032ec <__floatsisf>
20003910:	000b0593          	mv	a1,s6
20003914:	00050993          	mv	s3,a0
20003918:	904ff0ef          	jal	ra,20002a1c <__lesf2>
2000391c:	00a05463          	blez	a0,20003924 <_Z18graphics_set_pixeliifff+0x140>
20003920:	000b0993          	mv	s3,s6
20003924:	00098513          	mv	a0,s3
20003928:	961ff0ef          	jal	ra,20003288 <__fixunssfsi>
2000392c:	00050993          	mv	s3,a0
20003930:	01099993          	slli	s3,s3,0x10
20003934:	000a8593          	mv	a1,s5
20003938:	00090513          	mv	a0,s2
2000393c:	0109d993          	srli	s3,s3,0x10
20003940:	8dcff0ef          	jal	ra,20002a1c <__lesf2>
20003944:	00a05463          	blez	a0,2000394c <_Z18graphics_set_pixeliifff+0x168>
20003948:	000a8913          	mv	s2,s5
2000394c:	00000593          	li	a1,0
20003950:	00090513          	mv	a0,s2
20003954:	810ff0ef          	jal	ra,20002964 <__gesf2>
20003958:	00055463          	bgez	a0,20003960 <_Z18graphics_set_pixeliifff+0x17c>
2000395c:	00000913          	li	s2,0
20003960:	00005597          	auipc	a1,0x5
20003964:	4845a583          	lw	a1,1156(a1) # 20008de4 <__clz_tab+0x17c>
20003968:	00090513          	mv	a0,s2
2000396c:	968ff0ef          	jal	ra,20002ad4 <__mulsf3>
20003970:	919ff0ef          	jal	ra,20003288 <__fixunssfsi>
20003974:	01051513          	slli	a0,a0,0x10
20003978:	01055513          	srli	a0,a0,0x10
2000397c:	01750533          	add	a0,a0,s7
20003980:	96dff0ef          	jal	ra,200032ec <__floatsisf>
20003984:	000b0593          	mv	a1,s6
20003988:	00050913          	mv	s2,a0
2000398c:	890ff0ef          	jal	ra,20002a1c <__lesf2>
20003990:	00a05463          	blez	a0,20003998 <_Z18graphics_set_pixeliifff+0x1b4>
20003994:	000b0913          	mv	s2,s6
20003998:	00090513          	mv	a0,s2
2000399c:	8edff0ef          	jal	ra,20003288 <__fixunssfsi>
200039a0:	01051713          	slli	a4,a0,0x10
200039a4:	01075713          	srli	a4,a4,0x10
200039a8:	002a1793          	slli	a5,s4,0x2
200039ac:	00675713          	srli	a4,a4,0x6
200039b0:	00006697          	auipc	a3,0x6
200039b4:	fb06a683          	lw	a3,-80(a3) # 20009960 <_GLOBAL_OFFSET_TABLE_+0xc>
200039b8:	0006a683          	lw	a3,0(a3)
200039bc:	014787b3          	add	a5,a5,s4
200039c0:	00671713          	slli	a4,a4,0x6
200039c4:	00545413          	srli	s0,s0,0x5
200039c8:	0059d993          	srli	s3,s3,0x5
200039cc:	00399993          	slli	s3,s3,0x3
200039d0:	00679793          	slli	a5,a5,0x6
200039d4:	00e46433          	or	s0,s0,a4
200039d8:	01346433          	or	s0,s0,s3
200039dc:	00978533          	add	a0,a5,s1
200039e0:	0ff47413          	zext.b	s0,s0
200039e4:	00a687b3          	add	a5,a3,a0
200039e8:	00878023          	sb	s0,0(a5)
200039ec:	02c12083          	lw	ra,44(sp)
200039f0:	02812403          	lw	s0,40(sp)
200039f4:	02412483          	lw	s1,36(sp)
200039f8:	02012903          	lw	s2,32(sp)
200039fc:	01c12983          	lw	s3,28(sp)
20003a00:	01812a03          	lw	s4,24(sp)
20003a04:	01412a83          	lw	s5,20(sp)
20003a08:	01012b03          	lw	s6,16(sp)
20003a0c:	00c12b83          	lw	s7,12(sp)
20003a10:	03010113          	addi	sp,sp,48
20003a14:	00008067          	ret

20003a18 <_Z10make_Light4vec3f>:
20003a18:	0005a803          	lw	a6,0(a1)
20003a1c:	0045a683          	lw	a3,4(a1)
20003a20:	0085a703          	lw	a4,8(a1)
20003a24:	01052023          	sw	a6,0(a0) # 800000 <_start-0x1f800000>
20003a28:	00d52223          	sw	a3,4(a0)
20003a2c:	00e52423          	sw	a4,8(a0)
20003a30:	00c52623          	sw	a2,12(a0)
20003a34:	00008067          	ret

20003a38 <_Z13make_Materialf4vec44vec3f>:
20003a38:	00062e83          	lw	t4,0(a2)
20003a3c:	00462e03          	lw	t3,4(a2)
20003a40:	00862303          	lw	t1,8(a2)
20003a44:	00c62883          	lw	a7,12(a2)
20003a48:	0006a803          	lw	a6,0(a3)
20003a4c:	0046a603          	lw	a2,4(a3)
20003a50:	0086a683          	lw	a3,8(a3)
20003a54:	00b52023          	sw	a1,0(a0)
20003a58:	01d52223          	sw	t4,4(a0)
20003a5c:	01c52423          	sw	t3,8(a0)
20003a60:	00652623          	sw	t1,12(a0)
20003a64:	01152823          	sw	a7,16(a0)
20003a68:	01052a23          	sw	a6,20(a0)
20003a6c:	00c52c23          	sw	a2,24(a0)
20003a70:	00d52e23          	sw	a3,28(a0)
20003a74:	02e52023          	sw	a4,32(a0)
20003a78:	00008067          	ret

20003a7c <_Z21make_Material_defaultv>:
20003a7c:	00005717          	auipc	a4,0x5
20003a80:	36472703          	lw	a4,868(a4) # 20008de0 <__clz_tab+0x178>
20003a84:	00e52023          	sw	a4,0(a0)
20003a88:	00e52223          	sw	a4,4(a0)
20003a8c:	00000713          	li	a4,0
20003a90:	00e52423          	sw	a4,8(a0)
20003a94:	00e52623          	sw	a4,12(a0)
20003a98:	00e52823          	sw	a4,16(a0)
20003a9c:	00e52a23          	sw	a4,20(a0)
20003aa0:	00e52c23          	sw	a4,24(a0)
20003aa4:	00e52e23          	sw	a4,28(a0)
20003aa8:	02e52023          	sw	a4,32(a0)
20003aac:	00008067          	ret

20003ab0 <_Z11make_Sphere4vec3f8Material>:
20003ab0:	ff010113          	addi	sp,sp,-16
20003ab4:	00812623          	sw	s0,12(sp)
20003ab8:	0005a403          	lw	s0,0(a1)
20003abc:	0045a383          	lw	t2,4(a1)
20003ac0:	0085a283          	lw	t0,8(a1)
20003ac4:	0006af83          	lw	t6,0(a3)
20003ac8:	0046af03          	lw	t5,4(a3)
20003acc:	0086ae83          	lw	t4,8(a3)
20003ad0:	00c6ae03          	lw	t3,12(a3)
20003ad4:	0106a303          	lw	t1,16(a3)
20003ad8:	0146a883          	lw	a7,20(a3)
20003adc:	0186a803          	lw	a6,24(a3)
20003ae0:	01c6a583          	lw	a1,28(a3)
20003ae4:	0206a703          	lw	a4,32(a3)
20003ae8:	00852023          	sw	s0,0(a0)
20003aec:	00c12403          	lw	s0,12(sp)
20003af0:	00752223          	sw	t2,4(a0)
20003af4:	00552423          	sw	t0,8(a0)
20003af8:	00c52623          	sw	a2,12(a0)
20003afc:	01f52823          	sw	t6,16(a0)
20003b00:	01e52a23          	sw	t5,20(a0)
20003b04:	01d52c23          	sw	t4,24(a0)
20003b08:	01c52e23          	sw	t3,28(a0)
20003b0c:	02652023          	sw	t1,32(a0)
20003b10:	03152223          	sw	a7,36(a0)
20003b14:	03052423          	sw	a6,40(a0)
20003b18:	02b52623          	sw	a1,44(a0)
20003b1c:	02e52823          	sw	a4,48(a0)
20003b20:	01010113          	addi	sp,sp,16
20003b24:	00008067          	ret

20003b28 <_Z20Sphere_ray_intersectP6Sphere4vec3S1_Pf>:
20003b28:	fe010113          	addi	sp,sp,-32
20003b2c:	00812c23          	sw	s0,24(sp)
20003b30:	01212823          	sw	s2,16(sp)
20003b34:	00050413          	mv	s0,a0
20003b38:	00058913          	mv	s2,a1
20003b3c:	00052503          	lw	a0,0(a0)
20003b40:	0005a583          	lw	a1,0(a1)
20003b44:	00112e23          	sw	ra,28(sp)
20003b48:	00912a23          	sw	s1,20(sp)
20003b4c:	01312623          	sw	s3,12(sp)
20003b50:	00060493          	mv	s1,a2
20003b54:	01412423          	sw	s4,8(sp)
20003b58:	01512223          	sw	s5,4(sp)
20003b5c:	01612023          	sw	s6,0(sp)
20003b60:	00068a93          	mv	s5,a3
20003b64:	ab8ff0ef          	jal	ra,20002e1c <__subsf3>
20003b68:	00050a13          	mv	s4,a0
20003b6c:	00492583          	lw	a1,4(s2)
20003b70:	00442503          	lw	a0,4(s0)
20003b74:	aa8ff0ef          	jal	ra,20002e1c <__subsf3>
20003b78:	00050993          	mv	s3,a0
20003b7c:	00892583          	lw	a1,8(s2)
20003b80:	00842503          	lw	a0,8(s0)
20003b84:	a98ff0ef          	jal	ra,20002e1c <__subsf3>
20003b88:	0004a583          	lw	a1,0(s1)
20003b8c:	00050913          	mv	s2,a0
20003b90:	000a0513          	mv	a0,s4
20003b94:	f41fe0ef          	jal	ra,20002ad4 <__mulsf3>
20003b98:	0044a583          	lw	a1,4(s1)
20003b9c:	00050b13          	mv	s6,a0
20003ba0:	00098513          	mv	a0,s3
20003ba4:	f31fe0ef          	jal	ra,20002ad4 <__mulsf3>
20003ba8:	00050593          	mv	a1,a0
20003bac:	000b0513          	mv	a0,s6
20003bb0:	e2cfe0ef          	jal	ra,200021dc <__addsf3>
20003bb4:	0084a583          	lw	a1,8(s1)
20003bb8:	00050493          	mv	s1,a0
20003bbc:	00090513          	mv	a0,s2
20003bc0:	f15fe0ef          	jal	ra,20002ad4 <__mulsf3>
20003bc4:	00050593          	mv	a1,a0
20003bc8:	00048513          	mv	a0,s1
20003bcc:	e10fe0ef          	jal	ra,200021dc <__addsf3>
20003bd0:	00050493          	mv	s1,a0
20003bd4:	000a0593          	mv	a1,s4
20003bd8:	000a0513          	mv	a0,s4
20003bdc:	ef9fe0ef          	jal	ra,20002ad4 <__mulsf3>
20003be0:	00098593          	mv	a1,s3
20003be4:	00050a13          	mv	s4,a0
20003be8:	00098513          	mv	a0,s3
20003bec:	ee9fe0ef          	jal	ra,20002ad4 <__mulsf3>
20003bf0:	00050593          	mv	a1,a0
20003bf4:	000a0513          	mv	a0,s4
20003bf8:	de4fe0ef          	jal	ra,200021dc <__addsf3>
20003bfc:	00050993          	mv	s3,a0
20003c00:	00090593          	mv	a1,s2
20003c04:	00090513          	mv	a0,s2
20003c08:	ecdfe0ef          	jal	ra,20002ad4 <__mulsf3>
20003c0c:	00050593          	mv	a1,a0
20003c10:	00098513          	mv	a0,s3
20003c14:	dc8fe0ef          	jal	ra,200021dc <__addsf3>
20003c18:	00050993          	mv	s3,a0
20003c1c:	00048593          	mv	a1,s1
20003c20:	00048513          	mv	a0,s1
20003c24:	eb1fe0ef          	jal	ra,20002ad4 <__mulsf3>
20003c28:	00c42583          	lw	a1,12(s0)
20003c2c:	00050913          	mv	s2,a0
20003c30:	00058513          	mv	a0,a1
20003c34:	ea1fe0ef          	jal	ra,20002ad4 <__mulsf3>
20003c38:	00050413          	mv	s0,a0
20003c3c:	00090593          	mv	a1,s2
20003c40:	00098513          	mv	a0,s3
20003c44:	9d8ff0ef          	jal	ra,20002e1c <__subsf3>
20003c48:	00040593          	mv	a1,s0
20003c4c:	d19fe0ef          	jal	ra,20002964 <__gesf2>
20003c50:	02a05863          	blez	a0,20003c80 <_Z20Sphere_ray_intersectP6Sphere4vec3S1_Pf+0x158>
20003c54:	00000513          	li	a0,0
20003c58:	01c12083          	lw	ra,28(sp)
20003c5c:	01812403          	lw	s0,24(sp)
20003c60:	01412483          	lw	s1,20(sp)
20003c64:	01012903          	lw	s2,16(sp)
20003c68:	00c12983          	lw	s3,12(sp)
20003c6c:	00812a03          	lw	s4,8(sp)
20003c70:	00412a83          	lw	s5,4(sp)
20003c74:	00012b03          	lw	s6,0(sp)
20003c78:	02010113          	addi	sp,sp,32
20003c7c:	00008067          	ret
20003c80:	00098593          	mv	a1,s3
20003c84:	00090513          	mv	a0,s2
20003c88:	994ff0ef          	jal	ra,20002e1c <__subsf3>
20003c8c:	00040593          	mv	a1,s0
20003c90:	d4cfe0ef          	jal	ra,200021dc <__addsf3>
20003c94:	155020ef          	jal	ra,200065e8 <sqrtf>
20003c98:	00050593          	mv	a1,a0
20003c9c:	00050913          	mv	s2,a0
20003ca0:	00048513          	mv	a0,s1
20003ca4:	978ff0ef          	jal	ra,20002e1c <__subsf3>
20003ca8:	00000593          	li	a1,0
20003cac:	00050413          	mv	s0,a0
20003cb0:	d6dfe0ef          	jal	ra,20002a1c <__lesf2>
20003cb4:	00055a63          	bgez	a0,20003cc8 <_Z20Sphere_ray_intersectP6Sphere4vec3S1_Pf+0x1a0>
20003cb8:	00048593          	mv	a1,s1
20003cbc:	00090513          	mv	a0,s2
20003cc0:	d1cfe0ef          	jal	ra,200021dc <__addsf3>
20003cc4:	00050413          	mv	s0,a0
20003cc8:	008aa023          	sw	s0,0(s5)
20003ccc:	00000593          	li	a1,0
20003cd0:	00040513          	mv	a0,s0
20003cd4:	c91fe0ef          	jal	ra,20002964 <__gesf2>
20003cd8:	fff54513          	not	a0,a0
20003cdc:	01f55513          	srli	a0,a0,0x1f
20003ce0:	f79ff06f          	j	20003c58 <_Z20Sphere_ray_intersectP6Sphere4vec3S1_Pf+0x130>

20003ce4 <_Z7reflect4vec3S_>:
20003ce4:	fd010113          	addi	sp,sp,-48
20003ce8:	01612823          	sw	s6,16(sp)
20003cec:	01712623          	sw	s7,12(sp)
20003cf0:	0005ab03          	lw	s6,0(a1)
20003cf4:	00062b83          	lw	s7,0(a2)
20003cf8:	01412c23          	sw	s4,24(sp)
20003cfc:	01512a23          	sw	s5,20(sp)
20003d00:	0045aa03          	lw	s4,4(a1)
20003d04:	00462a83          	lw	s5,4(a2)
20003d08:	00058793          	mv	a5,a1
20003d0c:	02812423          	sw	s0,40(sp)
20003d10:	000b0593          	mv	a1,s6
20003d14:	00050413          	mv	s0,a0
20003d18:	000b8513          	mv	a0,s7
20003d1c:	02112623          	sw	ra,44(sp)
20003d20:	02912223          	sw	s1,36(sp)
20003d24:	03212023          	sw	s2,32(sp)
20003d28:	01312e23          	sw	s3,28(sp)
20003d2c:	0087a903          	lw	s2,8(a5)
20003d30:	00862983          	lw	s3,8(a2)
20003d34:	da1fe0ef          	jal	ra,20002ad4 <__mulsf3>
20003d38:	00050493          	mv	s1,a0
20003d3c:	000a8593          	mv	a1,s5
20003d40:	000a0513          	mv	a0,s4
20003d44:	d91fe0ef          	jal	ra,20002ad4 <__mulsf3>
20003d48:	00050593          	mv	a1,a0
20003d4c:	00048513          	mv	a0,s1
20003d50:	c8cfe0ef          	jal	ra,200021dc <__addsf3>
20003d54:	00050493          	mv	s1,a0
20003d58:	00098593          	mv	a1,s3
20003d5c:	00090513          	mv	a0,s2
20003d60:	d75fe0ef          	jal	ra,20002ad4 <__mulsf3>
20003d64:	00050593          	mv	a1,a0
20003d68:	00048513          	mv	a0,s1
20003d6c:	c70fe0ef          	jal	ra,200021dc <__addsf3>
20003d70:	00050593          	mv	a1,a0
20003d74:	c68fe0ef          	jal	ra,200021dc <__addsf3>
20003d78:	000b8593          	mv	a1,s7
20003d7c:	00050493          	mv	s1,a0
20003d80:	d55fe0ef          	jal	ra,20002ad4 <__mulsf3>
20003d84:	00050593          	mv	a1,a0
20003d88:	000b0513          	mv	a0,s6
20003d8c:	890ff0ef          	jal	ra,20002e1c <__subsf3>
20003d90:	00a42023          	sw	a0,0(s0)
20003d94:	000a8593          	mv	a1,s5
20003d98:	00048513          	mv	a0,s1
20003d9c:	d39fe0ef          	jal	ra,20002ad4 <__mulsf3>
20003da0:	00050593          	mv	a1,a0
20003da4:	000a0513          	mv	a0,s4
20003da8:	874ff0ef          	jal	ra,20002e1c <__subsf3>
20003dac:	00a42223          	sw	a0,4(s0)
20003db0:	00098593          	mv	a1,s3
20003db4:	00048513          	mv	a0,s1
20003db8:	d1dfe0ef          	jal	ra,20002ad4 <__mulsf3>
20003dbc:	00050593          	mv	a1,a0
20003dc0:	00090513          	mv	a0,s2
20003dc4:	858ff0ef          	jal	ra,20002e1c <__subsf3>
20003dc8:	00a42423          	sw	a0,8(s0)
20003dcc:	02c12083          	lw	ra,44(sp)
20003dd0:	00040513          	mv	a0,s0
20003dd4:	02812403          	lw	s0,40(sp)
20003dd8:	02412483          	lw	s1,36(sp)
20003ddc:	02012903          	lw	s2,32(sp)
20003de0:	01c12983          	lw	s3,28(sp)
20003de4:	01812a03          	lw	s4,24(sp)
20003de8:	01412a83          	lw	s5,20(sp)
20003dec:	01012b03          	lw	s6,16(sp)
20003df0:	00c12b83          	lw	s7,12(sp)
20003df4:	03010113          	addi	sp,sp,48
20003df8:	00008067          	ret

20003dfc <_Z7refract4vec3S_ff>:
20003dfc:	f7010113          	addi	sp,sp,-144
20003e00:	07712623          	sw	s7,108(sp)
20003e04:	07912223          	sw	s9,100(sp)
20003e08:	00062b83          	lw	s7,0(a2)
20003e0c:	0005ac83          	lw	s9,0(a1)
20003e10:	07412c23          	sw	s4,120(sp)
20003e14:	0045aa03          	lw	s4,4(a1)
20003e18:	07612823          	sw	s6,112(sp)
20003e1c:	00462b03          	lw	s6,4(a2)
20003e20:	00058793          	mv	a5,a1
20003e24:	08812423          	sw	s0,136(sp)
20003e28:	000c8593          	mv	a1,s9
20003e2c:	00050413          	mv	s0,a0
20003e30:	000b8513          	mv	a0,s7
20003e34:	08112623          	sw	ra,140(sp)
20003e38:	08912223          	sw	s1,132(sp)
20003e3c:	09212023          	sw	s2,128(sp)
20003e40:	07312e23          	sw	s3,124(sp)
20003e44:	00070913          	mv	s2,a4
20003e48:	00068993          	mv	s3,a3
20003e4c:	07512a23          	sw	s5,116(sp)
20003e50:	07812423          	sw	s8,104(sp)
20003e54:	07a12023          	sw	s10,96(sp)
20003e58:	05b12e23          	sw	s11,92(sp)
20003e5c:	0087ad03          	lw	s10,8(a5)
20003e60:	00862d83          	lw	s11,8(a2)
20003e64:	01412623          	sw	s4,12(sp)
20003e68:	c6dfe0ef          	jal	ra,20002ad4 <__mulsf3>
20003e6c:	00050493          	mv	s1,a0
20003e70:	000a0593          	mv	a1,s4
20003e74:	000b0513          	mv	a0,s6
20003e78:	c5dfe0ef          	jal	ra,20002ad4 <__mulsf3>
20003e7c:	00050593          	mv	a1,a0
20003e80:	00048513          	mv	a0,s1
20003e84:	b58fe0ef          	jal	ra,200021dc <__addsf3>
20003e88:	00050493          	mv	s1,a0
20003e8c:	000d0593          	mv	a1,s10
20003e90:	000d8513          	mv	a0,s11
20003e94:	c41fe0ef          	jal	ra,20002ad4 <__mulsf3>
20003e98:	00050593          	mv	a1,a0
20003e9c:	00048513          	mv	a0,s1
20003ea0:	b3cfe0ef          	jal	ra,200021dc <__addsf3>
20003ea4:	00005a97          	auipc	s5,0x5
20003ea8:	f3caaa83          	lw	s5,-196(s5) # 20008de0 <__clz_tab+0x178>
20003eac:	000a8593          	mv	a1,s5
20003eb0:	00050493          	mv	s1,a0
20003eb4:	b69fe0ef          	jal	ra,20002a1c <__lesf2>
20003eb8:	000a8c13          	mv	s8,s5
20003ebc:	00a04463          	bgtz	a0,20003ec4 <_Z7refract4vec3S_ff+0xc8>
20003ec0:	00048c13          	mv	s8,s1
20003ec4:	00005a17          	auipc	s4,0x5
20003ec8:	f24a2a03          	lw	s4,-220(s4) # 20008de8 <__clz_tab+0x180>
20003ecc:	000a0593          	mv	a1,s4
20003ed0:	000c0513          	mv	a0,s8
20003ed4:	a91fe0ef          	jal	ra,20002964 <__gesf2>
20003ed8:	00055463          	bgez	a0,20003ee0 <_Z7refract4vec3S_ff+0xe4>
20003edc:	000a0c13          	mv	s8,s4
20003ee0:	00000593          	li	a1,0
20003ee4:	000c0513          	mv	a0,s8
20003ee8:	a7dfe0ef          	jal	ra,20002964 <__gesf2>
20003eec:	14a04c63          	bgtz	a0,20004044 <_Z7refract4vec3S_ff+0x248>
20003ef0:	00098593          	mv	a1,s3
20003ef4:	00090513          	mv	a0,s2
20003ef8:	f38fe0ef          	jal	ra,20002630 <__divsf3>
20003efc:	00050493          	mv	s1,a0
20003f00:	000c0593          	mv	a1,s8
20003f04:	000c0513          	mv	a0,s8
20003f08:	bcdfe0ef          	jal	ra,20002ad4 <__mulsf3>
20003f0c:	00005597          	auipc	a1,0x5
20003f10:	ed45a583          	lw	a1,-300(a1) # 20008de0 <__clz_tab+0x178>
20003f14:	f09fe0ef          	jal	ra,20002e1c <__subsf3>
20003f18:	00050913          	mv	s2,a0
20003f1c:	00048593          	mv	a1,s1
20003f20:	00048513          	mv	a0,s1
20003f24:	bb1fe0ef          	jal	ra,20002ad4 <__mulsf3>
20003f28:	00050593          	mv	a1,a0
20003f2c:	00090513          	mv	a0,s2
20003f30:	ba5fe0ef          	jal	ra,20002ad4 <__mulsf3>
20003f34:	000a0593          	mv	a1,s4
20003f38:	00050913          	mv	s2,a0
20003f3c:	ae1fe0ef          	jal	ra,20002a1c <__lesf2>
20003f40:	04055a63          	bgez	a0,20003f94 <_Z7refract4vec3S_ff+0x198>
20003f44:	00000793          	li	a5,0
20003f48:	01542023          	sw	s5,0(s0)
20003f4c:	00f42223          	sw	a5,4(s0)
20003f50:	00f42423          	sw	a5,8(s0)
20003f54:	08c12083          	lw	ra,140(sp)
20003f58:	00040513          	mv	a0,s0
20003f5c:	08812403          	lw	s0,136(sp)
20003f60:	08412483          	lw	s1,132(sp)
20003f64:	08012903          	lw	s2,128(sp)
20003f68:	07c12983          	lw	s3,124(sp)
20003f6c:	07812a03          	lw	s4,120(sp)
20003f70:	07412a83          	lw	s5,116(sp)
20003f74:	07012b03          	lw	s6,112(sp)
20003f78:	06c12b83          	lw	s7,108(sp)
20003f7c:	06812c03          	lw	s8,104(sp)
20003f80:	06412c83          	lw	s9,100(sp)
20003f84:	06012d03          	lw	s10,96(sp)
20003f88:	05c12d83          	lw	s11,92(sp)
20003f8c:	09010113          	addi	sp,sp,144
20003f90:	00008067          	ret
20003f94:	000c8593          	mv	a1,s9
20003f98:	00048513          	mv	a0,s1
20003f9c:	b39fe0ef          	jal	ra,20002ad4 <__mulsf3>
20003fa0:	00c12583          	lw	a1,12(sp)
20003fa4:	00050a93          	mv	s5,a0
20003fa8:	00048513          	mv	a0,s1
20003fac:	b29fe0ef          	jal	ra,20002ad4 <__mulsf3>
20003fb0:	00050a13          	mv	s4,a0
20003fb4:	000d0593          	mv	a1,s10
20003fb8:	00048513          	mv	a0,s1
20003fbc:	b19fe0ef          	jal	ra,20002ad4 <__mulsf3>
20003fc0:	00048593          	mv	a1,s1
20003fc4:	00050993          	mv	s3,a0
20003fc8:	000c0513          	mv	a0,s8
20003fcc:	b09fe0ef          	jal	ra,20002ad4 <__mulsf3>
20003fd0:	00050493          	mv	s1,a0
20003fd4:	00005597          	auipc	a1,0x5
20003fd8:	e0c5a583          	lw	a1,-500(a1) # 20008de0 <__clz_tab+0x178>
20003fdc:	00090513          	mv	a0,s2
20003fe0:	9fcfe0ef          	jal	ra,200021dc <__addsf3>
20003fe4:	604020ef          	jal	ra,200065e8 <sqrtf>
20003fe8:	00048593          	mv	a1,s1
20003fec:	9f0fe0ef          	jal	ra,200021dc <__addsf3>
20003ff0:	800004b7          	lui	s1,0x80000
20003ff4:	00a4c4b3          	xor	s1,s1,a0
20003ff8:	00048593          	mv	a1,s1
20003ffc:	000b8513          	mv	a0,s7
20004000:	ad5fe0ef          	jal	ra,20002ad4 <__mulsf3>
20004004:	000a8593          	mv	a1,s5
20004008:	9d4fe0ef          	jal	ra,200021dc <__addsf3>
2000400c:	00a42023          	sw	a0,0(s0)
20004010:	000b0593          	mv	a1,s6
20004014:	00048513          	mv	a0,s1
20004018:	abdfe0ef          	jal	ra,20002ad4 <__mulsf3>
2000401c:	000a0593          	mv	a1,s4
20004020:	9bcfe0ef          	jal	ra,200021dc <__addsf3>
20004024:	00a42223          	sw	a0,4(s0)
20004028:	00048593          	mv	a1,s1
2000402c:	000d8513          	mv	a0,s11
20004030:	aa5fe0ef          	jal	ra,20002ad4 <__mulsf3>
20004034:	00098593          	mv	a1,s3
20004038:	9a4fe0ef          	jal	ra,200021dc <__addsf3>
2000403c:	00a42423          	sw	a0,8(s0)
20004040:	f15ff06f          	j	20003f54 <_Z7refract4vec3S_ff+0x158>
20004044:	800007b7          	lui	a5,0x80000
20004048:	0097c4b3          	xor	s1,a5,s1
2000404c:	000a8593          	mv	a1,s5
20004050:	00048513          	mv	a0,s1
20004054:	9c9fe0ef          	jal	ra,20002a1c <__lesf2>
20004058:	00a05463          	blez	a0,20004060 <_Z7refract4vec3S_ff+0x264>
2000405c:	000a8493          	mv	s1,s5
20004060:	000a0593          	mv	a1,s4
20004064:	00048513          	mv	a0,s1
20004068:	8fdfe0ef          	jal	ra,20002964 <__gesf2>
2000406c:	00055463          	bgez	a0,20004074 <_Z7refract4vec3S_ff+0x278>
20004070:	000a0493          	mv	s1,s4
20004074:	00000593          	li	a1,0
20004078:	00048513          	mv	a0,s1
2000407c:	8e9fe0ef          	jal	ra,20002964 <__gesf2>
20004080:	10a04463          	bgtz	a0,20004188 <_Z7refract4vec3S_ff+0x38c>
20004084:	00090593          	mv	a1,s2
20004088:	00098513          	mv	a0,s3
2000408c:	da4fe0ef          	jal	ra,20002630 <__divsf3>
20004090:	00050913          	mv	s2,a0
20004094:	00048593          	mv	a1,s1
20004098:	00048513          	mv	a0,s1
2000409c:	a39fe0ef          	jal	ra,20002ad4 <__mulsf3>
200040a0:	00005597          	auipc	a1,0x5
200040a4:	d405a583          	lw	a1,-704(a1) # 20008de0 <__clz_tab+0x178>
200040a8:	d75fe0ef          	jal	ra,20002e1c <__subsf3>
200040ac:	00050993          	mv	s3,a0
200040b0:	00090593          	mv	a1,s2
200040b4:	00090513          	mv	a0,s2
200040b8:	a1dfe0ef          	jal	ra,20002ad4 <__mulsf3>
200040bc:	00050593          	mv	a1,a0
200040c0:	00098513          	mv	a0,s3
200040c4:	a11fe0ef          	jal	ra,20002ad4 <__mulsf3>
200040c8:	000a0593          	mv	a1,s4
200040cc:	00050993          	mv	s3,a0
200040d0:	94dfe0ef          	jal	ra,20002a1c <__lesf2>
200040d4:	e60548e3          	bltz	a0,20003f44 <_Z7refract4vec3S_ff+0x148>
200040d8:	00090593          	mv	a1,s2
200040dc:	000c8513          	mv	a0,s9
200040e0:	9f5fe0ef          	jal	ra,20002ad4 <__mulsf3>
200040e4:	00050a93          	mv	s5,a0
200040e8:	00c12503          	lw	a0,12(sp)
200040ec:	00090593          	mv	a1,s2
200040f0:	9e5fe0ef          	jal	ra,20002ad4 <__mulsf3>
200040f4:	00090593          	mv	a1,s2
200040f8:	00050a13          	mv	s4,a0
200040fc:	000d0513          	mv	a0,s10
20004100:	9d5fe0ef          	jal	ra,20002ad4 <__mulsf3>
20004104:	00050793          	mv	a5,a0
20004108:	00090593          	mv	a1,s2
2000410c:	00048513          	mv	a0,s1
20004110:	00078913          	mv	s2,a5
20004114:	9c1fe0ef          	jal	ra,20002ad4 <__mulsf3>
20004118:	00050493          	mv	s1,a0
2000411c:	00005597          	auipc	a1,0x5
20004120:	cc45a583          	lw	a1,-828(a1) # 20008de0 <__clz_tab+0x178>
20004124:	00098513          	mv	a0,s3
20004128:	8b4fe0ef          	jal	ra,200021dc <__addsf3>
2000412c:	4bc020ef          	jal	ra,200065e8 <sqrtf>
20004130:	00048593          	mv	a1,s1
20004134:	8a8fe0ef          	jal	ra,200021dc <__addsf3>
20004138:	00050493          	mv	s1,a0
2000413c:	00050593          	mv	a1,a0
20004140:	000b8513          	mv	a0,s7
20004144:	991fe0ef          	jal	ra,20002ad4 <__mulsf3>
20004148:	000a8593          	mv	a1,s5
2000414c:	890fe0ef          	jal	ra,200021dc <__addsf3>
20004150:	00a42023          	sw	a0,0(s0)
20004154:	00048593          	mv	a1,s1
20004158:	000b0513          	mv	a0,s6
2000415c:	979fe0ef          	jal	ra,20002ad4 <__mulsf3>
20004160:	000a0593          	mv	a1,s4
20004164:	878fe0ef          	jal	ra,200021dc <__addsf3>
20004168:	00a42223          	sw	a0,4(s0)
2000416c:	00048593          	mv	a1,s1
20004170:	000d8513          	mv	a0,s11
20004174:	961fe0ef          	jal	ra,20002ad4 <__mulsf3>
20004178:	00090593          	mv	a1,s2
2000417c:	860fe0ef          	jal	ra,200021dc <__addsf3>
20004180:	00a42423          	sw	a0,8(s0)
20004184:	dd1ff06f          	j	20003f54 <_Z7refract4vec3S_ff+0x158>
20004188:	00c12803          	lw	a6,12(sp)
2000418c:	800007b7          	lui	a5,0x80000
20004190:	0177cbb3          	xor	s7,a5,s7
20004194:	0167cb33          	xor	s6,a5,s6
20004198:	00098713          	mv	a4,s3
2000419c:	01b7c7b3          	xor	a5,a5,s11
200041a0:	00090693          	mv	a3,s2
200041a4:	01010613          	addi	a2,sp,16
200041a8:	02010593          	addi	a1,sp,32
200041ac:	00040513          	mv	a0,s0
200041b0:	03912023          	sw	s9,32(sp)
200041b4:	03012223          	sw	a6,36(sp)
200041b8:	03a12423          	sw	s10,40(sp)
200041bc:	01712823          	sw	s7,16(sp)
200041c0:	01612a23          	sw	s6,20(sp)
200041c4:	00f12c23          	sw	a5,24(sp)
200041c8:	c35ff0ef          	jal	ra,20003dfc <_Z7refract4vec3S_ff>
200041cc:	d89ff06f          	j	20003f54 <_Z7refract4vec3S_ff+0x158>

200041d0 <_Z15scene_intersect4vec3S_P6SphereiPS_S2_P8Material>:
200041d0:	f6010113          	addi	sp,sp,-160
200041d4:	08912a23          	sw	s1,148(sp)
200041d8:	09212823          	sw	s2,144(sp)
200041dc:	09312623          	sw	s3,140(sp)
200041e0:	09412423          	sw	s4,136(sp)
200041e4:	09512223          	sw	s5,132(sp)
200041e8:	09612023          	sw	s6,128(sp)
200041ec:	08112e23          	sw	ra,156(sp)
200041f0:	08812c23          	sw	s0,152(sp)
200041f4:	07712e23          	sw	s7,124(sp)
200041f8:	07812c23          	sw	s8,120(sp)
200041fc:	07912a23          	sw	s9,116(sp)
20004200:	07a12823          	sw	s10,112(sp)
20004204:	07b12623          	sw	s11,108(sp)
20004208:	00d12223          	sw	a3,4(sp)
2000420c:	02e12223          	sw	a4,36(sp)
20004210:	00f12a23          	sw	a5,20(sp)
20004214:	03012423          	sw	a6,40(sp)
20004218:	00052983          	lw	s3,0(a0)
2000421c:	00452903          	lw	s2,4(a0)
20004220:	00852a83          	lw	s5,8(a0)
20004224:	0005aa03          	lw	s4,0(a1)
20004228:	0045a483          	lw	s1,4(a1)
2000422c:	0085ab03          	lw	s6,8(a1)
20004230:	44d05c63          	blez	a3,20004688 <_Z15scene_intersect4vec3S_P6SphereiPS_S2_P8Material+0x4b8>
20004234:	00005797          	auipc	a5,0x5
20004238:	bb87a783          	lw	a5,-1096(a5) # 20008dec <__clz_tab+0x184>
2000423c:	02f12623          	sw	a5,44(sp)
20004240:	00f12823          	sw	a5,16(sp)
20004244:	03010793          	addi	a5,sp,48
20004248:	00f12423          	sw	a5,8(sp)
2000424c:	04010793          	addi	a5,sp,64
20004250:	00050c13          	mv	s8,a0
20004254:	00058c93          	mv	s9,a1
20004258:	00000413          	li	s0,0
2000425c:	05c10d13          	addi	s10,sp,92
20004260:	00f12623          	sw	a5,12(sp)
20004264:	00060d93          	mv	s11,a2
20004268:	0140006f          	j	2000427c <_Z15scene_intersect4vec3S_P6SphereiPS_S2_P8Material+0xac>
2000426c:	00412783          	lw	a5,4(sp)
20004270:	00140413          	addi	s0,s0,1
20004274:	034d8d93          	addi	s11,s11,52
20004278:	22878063          	beq	a5,s0,20004498 <_Z15scene_intersect4vec3S_P6SphereiPS_S2_P8Material+0x2c8>
2000427c:	00812603          	lw	a2,8(sp)
20004280:	00c12583          	lw	a1,12(sp)
20004284:	013c2023          	sw	s3,0(s8)
20004288:	012c2223          	sw	s2,4(s8)
2000428c:	015c2423          	sw	s5,8(s8)
20004290:	014ca023          	sw	s4,0(s9)
20004294:	009ca223          	sw	s1,4(s9)
20004298:	016ca423          	sw	s6,8(s9)
2000429c:	000d0693          	mv	a3,s10
200042a0:	000d8513          	mv	a0,s11
200042a4:	05312023          	sw	s3,64(sp)
200042a8:	05212223          	sw	s2,68(sp)
200042ac:	05512423          	sw	s5,72(sp)
200042b0:	03412823          	sw	s4,48(sp)
200042b4:	02912a23          	sw	s1,52(sp)
200042b8:	03612c23          	sw	s6,56(sp)
200042bc:	86dff0ef          	jal	ra,20003b28 <_Z20Sphere_ray_intersectP6Sphere4vec3S1_Pf>
200042c0:	fa0506e3          	beqz	a0,2000426c <_Z15scene_intersect4vec3S_P6SphereiPS_S2_P8Material+0x9c>
200042c4:	05c12b83          	lw	s7,92(sp)
200042c8:	01012583          	lw	a1,16(sp)
200042cc:	000b8513          	mv	a0,s7
200042d0:	f4cfe0ef          	jal	ra,20002a1c <__lesf2>
200042d4:	f8055ce3          	bgez	a0,2000426c <_Z15scene_intersect4vec3S_P6SphereiPS_S2_P8Material+0x9c>
200042d8:	000a0593          	mv	a1,s4
200042dc:	000b8513          	mv	a0,s7
200042e0:	ff4fe0ef          	jal	ra,20002ad4 <__mulsf3>
200042e4:	00098593          	mv	a1,s3
200042e8:	ef5fd0ef          	jal	ra,200021dc <__addsf3>
200042ec:	00050693          	mv	a3,a0
200042f0:	00048593          	mv	a1,s1
200042f4:	000b8513          	mv	a0,s7
200042f8:	00d12823          	sw	a3,16(sp)
200042fc:	fd8fe0ef          	jal	ra,20002ad4 <__mulsf3>
20004300:	00090593          	mv	a1,s2
20004304:	ed9fd0ef          	jal	ra,200021dc <__addsf3>
20004308:	00050793          	mv	a5,a0
2000430c:	000b0593          	mv	a1,s6
20004310:	000b8513          	mv	a0,s7
20004314:	00f12c23          	sw	a5,24(sp)
20004318:	fbcfe0ef          	jal	ra,20002ad4 <__mulsf3>
2000431c:	000a8593          	mv	a1,s5
20004320:	ebdfd0ef          	jal	ra,200021dc <__addsf3>
20004324:	01812783          	lw	a5,24(sp)
20004328:	02412703          	lw	a4,36(sp)
2000432c:	01012683          	lw	a3,16(sp)
20004330:	00a12e23          	sw	a0,28(sp)
20004334:	00f72223          	sw	a5,4(a4)
20004338:	00d72023          	sw	a3,0(a4)
2000433c:	00a72423          	sw	a0,8(a4)
20004340:	000da583          	lw	a1,0(s11)
20004344:	00068513          	mv	a0,a3
20004348:	01712823          	sw	s7,16(sp)
2000434c:	ad1fe0ef          	jal	ra,20002e1c <__subsf3>
20004350:	00050693          	mv	a3,a0
20004354:	004da583          	lw	a1,4(s11)
20004358:	01812503          	lw	a0,24(sp)
2000435c:	00d12c23          	sw	a3,24(sp)
20004360:	00140413          	addi	s0,s0,1
20004364:	ab9fe0ef          	jal	ra,20002e1c <__subsf3>
20004368:	01c12603          	lw	a2,28(sp)
2000436c:	008da583          	lw	a1,8(s11)
20004370:	00050713          	mv	a4,a0
20004374:	00060513          	mv	a0,a2
20004378:	00e12e23          	sw	a4,28(sp)
2000437c:	aa1fe0ef          	jal	ra,20002e1c <__subsf3>
20004380:	01812683          	lw	a3,24(sp)
20004384:	00050b93          	mv	s7,a0
20004388:	034d8d93          	addi	s11,s11,52
2000438c:	00068593          	mv	a1,a3
20004390:	00068513          	mv	a0,a3
20004394:	02d12023          	sw	a3,32(sp)
20004398:	f3cfe0ef          	jal	ra,20002ad4 <__mulsf3>
2000439c:	01c12703          	lw	a4,28(sp)
200043a0:	00a12c23          	sw	a0,24(sp)
200043a4:	00070593          	mv	a1,a4
200043a8:	00070513          	mv	a0,a4
200043ac:	f28fe0ef          	jal	ra,20002ad4 <__mulsf3>
200043b0:	01812603          	lw	a2,24(sp)
200043b4:	00050593          	mv	a1,a0
200043b8:	00060513          	mv	a0,a2
200043bc:	e21fd0ef          	jal	ra,200021dc <__addsf3>
200043c0:	00a12c23          	sw	a0,24(sp)
200043c4:	000b8593          	mv	a1,s7
200043c8:	000b8513          	mv	a0,s7
200043cc:	f08fe0ef          	jal	ra,20002ad4 <__mulsf3>
200043d0:	01812603          	lw	a2,24(sp)
200043d4:	00050593          	mv	a1,a0
200043d8:	00060513          	mv	a0,a2
200043dc:	e01fd0ef          	jal	ra,200021dc <__addsf3>
200043e0:	208020ef          	jal	ra,200065e8 <sqrtf>
200043e4:	00005797          	auipc	a5,0x5
200043e8:	9fc78793          	addi	a5,a5,-1540 # 20008de0 <__clz_tab+0x178>
200043ec:	00050593          	mv	a1,a0
200043f0:	0007a503          	lw	a0,0(a5)
200043f4:	a3cfe0ef          	jal	ra,20002630 <__divsf3>
200043f8:	02012683          	lw	a3,32(sp)
200043fc:	00a12c23          	sw	a0,24(sp)
20004400:	00068593          	mv	a1,a3
20004404:	ed0fe0ef          	jal	ra,20002ad4 <__mulsf3>
20004408:	01c12703          	lw	a4,28(sp)
2000440c:	01412783          	lw	a5,20(sp)
20004410:	01812683          	lw	a3,24(sp)
20004414:	00070593          	mv	a1,a4
20004418:	00a7a023          	sw	a0,0(a5)
2000441c:	00068513          	mv	a0,a3
20004420:	eb4fe0ef          	jal	ra,20002ad4 <__mulsf3>
20004424:	01412783          	lw	a5,20(sp)
20004428:	01812683          	lw	a3,24(sp)
2000442c:	000b8593          	mv	a1,s7
20004430:	00a7a223          	sw	a0,4(a5)
20004434:	00068513          	mv	a0,a3
20004438:	e9cfe0ef          	jal	ra,20002ad4 <__mulsf3>
2000443c:	01412783          	lw	a5,20(sp)
20004440:	00a7a423          	sw	a0,8(a5)
20004444:	fdcdae03          	lw	t3,-36(s11)
20004448:	fe0da303          	lw	t1,-32(s11)
2000444c:	fe4da883          	lw	a7,-28(s11)
20004450:	fe8da803          	lw	a6,-24(s11)
20004454:	fecda503          	lw	a0,-20(s11)
20004458:	ff0da583          	lw	a1,-16(s11)
2000445c:	ff4da603          	lw	a2,-12(s11)
20004460:	ff8da683          	lw	a3,-8(s11)
20004464:	ffcda703          	lw	a4,-4(s11)
20004468:	02812783          	lw	a5,40(sp)
2000446c:	01c7a023          	sw	t3,0(a5)
20004470:	0067a223          	sw	t1,4(a5)
20004474:	0117a423          	sw	a7,8(a5)
20004478:	0107a623          	sw	a6,12(a5)
2000447c:	00a7a823          	sw	a0,16(a5)
20004480:	00b7aa23          	sw	a1,20(a5)
20004484:	00c7ac23          	sw	a2,24(a5)
20004488:	00d7ae23          	sw	a3,28(a5)
2000448c:	02e7a023          	sw	a4,32(a5)
20004490:	00412783          	lw	a5,4(sp)
20004494:	de8794e3          	bne	a5,s0,2000427c <_Z15scene_intersect4vec3S_P6SphereiPS_S2_P8Material+0xac>
20004498:	80000437          	lui	s0,0x80000
2000449c:	fff44c13          	not	s8,s0
200044a0:	009c7533          	and	a0,s8,s1
200044a4:	f5dfe0ef          	jal	ra,20003400 <__extendsfdf2>
200044a8:	00005797          	auipc	a5,0x5
200044ac:	9d878793          	addi	a5,a5,-1576 # 20008e80 <__clz_tab+0x218>
200044b0:	0007a603          	lw	a2,0(a5)
200044b4:	0047a683          	lw	a3,4(a5)
200044b8:	d1dfc0ef          	jal	ra,200011d4 <__gedf2>
200044bc:	04a05e63          	blez	a0,20004518 <_Z15scene_intersect4vec3S_P6SphereiPS_S2_P8Material+0x348>
200044c0:	00005597          	auipc	a1,0x5
200044c4:	9305a583          	lw	a1,-1744(a1) # 20008df0 <__clz_tab+0x188>
200044c8:	00090513          	mv	a0,s2
200044cc:	d11fd0ef          	jal	ra,200021dc <__addsf3>
200044d0:	00048593          	mv	a1,s1
200044d4:	00a44533          	xor	a0,s0,a0
200044d8:	958fe0ef          	jal	ra,20002630 <__divsf3>
200044dc:	00000593          	li	a1,0
200044e0:	00050413          	mv	s0,a0
200044e4:	c80fe0ef          	jal	ra,20002964 <__gesf2>
200044e8:	02a05863          	blez	a0,20004518 <_Z15scene_intersect4vec3S_P6SphereiPS_S2_P8Material+0x348>
200044ec:	000a0593          	mv	a1,s4
200044f0:	00040513          	mv	a0,s0
200044f4:	de0fe0ef          	jal	ra,20002ad4 <__mulsf3>
200044f8:	00098593          	mv	a1,s3
200044fc:	ce1fd0ef          	jal	ra,200021dc <__addsf3>
20004500:	00050993          	mv	s3,a0
20004504:	00005597          	auipc	a1,0x5
20004508:	8f05a583          	lw	a1,-1808(a1) # 20008df4 <__clz_tab+0x18c>
2000450c:	00ac7533          	and	a0,s8,a0
20004510:	d0cfe0ef          	jal	ra,20002a1c <__lesf2>
20004514:	06054863          	bltz	a0,20004584 <_Z15scene_intersect4vec3S_P6SphereiPS_S2_P8Material+0x3b4>
20004518:	02c12403          	lw	s0,44(sp)
2000451c:	01012483          	lw	s1,16(sp)
20004520:	00040513          	mv	a0,s0
20004524:	00048593          	mv	a1,s1
20004528:	cf4fe0ef          	jal	ra,20002a1c <__lesf2>
2000452c:	00a05463          	blez	a0,20004534 <_Z15scene_intersect4vec3S_P6SphereiPS_S2_P8Material+0x364>
20004530:	00048413          	mv	s0,s1
20004534:	00005597          	auipc	a1,0x5
20004538:	8d85a583          	lw	a1,-1832(a1) # 20008e0c <__clz_tab+0x1a4>
2000453c:	00040513          	mv	a0,s0
20004540:	cdcfe0ef          	jal	ra,20002a1c <__lesf2>
20004544:	09c12083          	lw	ra,156(sp)
20004548:	09812403          	lw	s0,152(sp)
2000454c:	09412483          	lw	s1,148(sp)
20004550:	09012903          	lw	s2,144(sp)
20004554:	08c12983          	lw	s3,140(sp)
20004558:	08812a03          	lw	s4,136(sp)
2000455c:	08412a83          	lw	s5,132(sp)
20004560:	08012b03          	lw	s6,128(sp)
20004564:	07c12b83          	lw	s7,124(sp)
20004568:	07812c03          	lw	s8,120(sp)
2000456c:	07412c83          	lw	s9,116(sp)
20004570:	07012d03          	lw	s10,112(sp)
20004574:	06c12d83          	lw	s11,108(sp)
20004578:	00052513          	slti	a0,a0,0
2000457c:	0a010113          	addi	sp,sp,160
20004580:	00008067          	ret
20004584:	000b0593          	mv	a1,s6
20004588:	00040513          	mv	a0,s0
2000458c:	d48fe0ef          	jal	ra,20002ad4 <__mulsf3>
20004590:	000a8593          	mv	a1,s5
20004594:	c49fd0ef          	jal	ra,200021dc <__addsf3>
20004598:	00005597          	auipc	a1,0x5
2000459c:	8605a583          	lw	a1,-1952(a1) # 20008df8 <__clz_tab+0x190>
200045a0:	00050a13          	mv	s4,a0
200045a4:	c78fe0ef          	jal	ra,20002a1c <__lesf2>
200045a8:	f60558e3          	bgez	a0,20004518 <_Z15scene_intersect4vec3S_P6SphereiPS_S2_P8Material+0x348>
200045ac:	00005597          	auipc	a1,0x5
200045b0:	8505a583          	lw	a1,-1968(a1) # 20008dfc <__clz_tab+0x194>
200045b4:	000a0513          	mv	a0,s4
200045b8:	bacfe0ef          	jal	ra,20002964 <__gesf2>
200045bc:	f4a05ee3          	blez	a0,20004518 <_Z15scene_intersect4vec3S_P6SphereiPS_S2_P8Material+0x348>
200045c0:	01012583          	lw	a1,16(sp)
200045c4:	00040513          	mv	a0,s0
200045c8:	c54fe0ef          	jal	ra,20002a1c <__lesf2>
200045cc:	f40556e3          	bgez	a0,20004518 <_Z15scene_intersect4vec3S_P6SphereiPS_S2_P8Material+0x348>
200045d0:	02412a83          	lw	s5,36(sp)
200045d4:	00040593          	mv	a1,s0
200045d8:	00048513          	mv	a0,s1
200045dc:	013aa023          	sw	s3,0(s5)
200045e0:	cf4fe0ef          	jal	ra,20002ad4 <__mulsf3>
200045e4:	00090593          	mv	a1,s2
200045e8:	bf5fd0ef          	jal	ra,200021dc <__addsf3>
200045ec:	01412703          	lw	a4,20(sp)
200045f0:	00aaa223          	sw	a0,4(s5)
200045f4:	014aa423          	sw	s4,8(s5)
200045f8:	00000693          	li	a3,0
200045fc:	00d72023          	sw	a3,0(a4)
20004600:	000aa503          	lw	a0,0(s5)
20004604:	00004797          	auipc	a5,0x4
20004608:	7dc7a783          	lw	a5,2012(a5) # 20008de0 <__clz_tab+0x178>
2000460c:	00f72223          	sw	a5,4(a4)
20004610:	00d72423          	sw	a3,8(a4)
20004614:	dedfe0ef          	jal	ra,20003400 <__extendsfdf2>
20004618:	00005917          	auipc	s2,0x5
2000461c:	87090913          	addi	s2,s2,-1936 # 20008e88 <__clz_tab+0x220>
20004620:	00092603          	lw	a2,0(s2)
20004624:	00492683          	lw	a3,4(s2)
20004628:	c91fc0ef          	jal	ra,200012b8 <__muldf3>
2000462c:	00005797          	auipc	a5,0x5
20004630:	86478793          	addi	a5,a5,-1948 # 20008e90 <__clz_tab+0x228>
20004634:	0007a603          	lw	a2,0(a5)
20004638:	0047a683          	lw	a3,4(a5)
2000463c:	ce1fb0ef          	jal	ra,2000031c <__adddf3>
20004640:	a75fd0ef          	jal	ra,200020b4 <__fixdfsi>
20004644:	00050493          	mv	s1,a0
20004648:	008aa503          	lw	a0,8(s5)
2000464c:	db5fe0ef          	jal	ra,20003400 <__extendsfdf2>
20004650:	00092603          	lw	a2,0(s2)
20004654:	00492683          	lw	a3,4(s2)
20004658:	c61fc0ef          	jal	ra,200012b8 <__muldf3>
2000465c:	a59fd0ef          	jal	ra,200020b4 <__fixdfsi>
20004660:	00a487b3          	add	a5,s1,a0
20004664:	0017f793          	andi	a5,a5,1
20004668:	02078a63          	beqz	a5,2000469c <_Z15scene_intersect4vec3S_P6SphereiPS_S2_P8Material+0x4cc>
2000466c:	02812703          	lw	a4,40(sp)
20004670:	00004797          	auipc	a5,0x4
20004674:	7907a783          	lw	a5,1936(a5) # 20008e00 <__clz_tab+0x198>
20004678:	00f72a23          	sw	a5,20(a4)
2000467c:	00f72c23          	sw	a5,24(a4)
20004680:	00f72e23          	sw	a5,28(a4)
20004684:	e99ff06f          	j	2000451c <_Z15scene_intersect4vec3S_P6SphereiPS_S2_P8Material+0x34c>
20004688:	00004797          	auipc	a5,0x4
2000468c:	7647a783          	lw	a5,1892(a5) # 20008dec <__clz_tab+0x184>
20004690:	02f12623          	sw	a5,44(sp)
20004694:	00f12823          	sw	a5,16(sp)
20004698:	e01ff06f          	j	20004498 <_Z15scene_intersect4vec3S_P6SphereiPS_S2_P8Material+0x2c8>
2000469c:	02812703          	lw	a4,40(sp)
200046a0:	00004797          	auipc	a5,0x4
200046a4:	7607a783          	lw	a5,1888(a5) # 20008e00 <__clz_tab+0x198>
200046a8:	00f72a23          	sw	a5,20(a4)
200046ac:	00004797          	auipc	a5,0x4
200046b0:	7587a783          	lw	a5,1880(a5) # 20008e04 <__clz_tab+0x19c>
200046b4:	00f72c23          	sw	a5,24(a4)
200046b8:	00004797          	auipc	a5,0x4
200046bc:	7507a783          	lw	a5,1872(a5) # 20008e08 <__clz_tab+0x1a0>
200046c0:	00f72e23          	sw	a5,28(a4)
200046c4:	e59ff06f          	j	2000451c <_Z15scene_intersect4vec3S_P6SphereiPS_S2_P8Material+0x34c>

200046c8 <_Z8cast_ray4vec3S_P6SphereiP5Lightii>:
200046c8:	e5010113          	addi	sp,sp,-432
200046cc:	19412c23          	sw	s4,408(sp)
200046d0:	00060a13          	mv	s4,a2
200046d4:	00462603          	lw	a2,4(a2)
200046d8:	19312e23          	sw	s3,412(sp)
200046dc:	12810993          	addi	s3,sp,296
200046e0:	19512a23          	sw	s5,404(sp)
200046e4:	00050a93          	mv	s5,a0
200046e8:	00098513          	mv	a0,s3
200046ec:	1a812423          	sw	s0,424(sp)
200046f0:	1a912223          	sw	s1,420(sp)
200046f4:	1b212023          	sw	s2,416(sp)
200046f8:	00078413          	mv	s0,a5
200046fc:	1a112623          	sw	ra,428(sp)
20004700:	19612823          	sw	s6,400(sp)
20004704:	19712623          	sw	s7,396(sp)
20004708:	19812423          	sw	s8,392(sp)
2000470c:	19912223          	sw	s9,388(sp)
20004710:	19a12023          	sw	s10,384(sp)
20004714:	17b12e23          	sw	s11,380(sp)
20004718:	00c12223          	sw	a2,4(sp)
2000471c:	00058913          	mv	s2,a1
20004720:	00d12423          	sw	a3,8(sp)
20004724:	00e12623          	sw	a4,12(sp)
20004728:	01012823          	sw	a6,16(sp)
2000472c:	00088493          	mv	s1,a7
20004730:	b4cff0ef          	jal	ra,20003a7c <_Z21make_Material_defaultv>
20004734:	00200793          	li	a5,2
20004738:	0c97d063          	bge	a5,s1,200047f8 <_Z8cast_ray4vec3S_P6SphereiP5Lightii+0x130>
2000473c:	00412503          	lw	a0,4(sp)
20004740:	cc1fe0ef          	jal	ra,20003400 <__extendsfdf2>
20004744:	00004797          	auipc	a5,0x4
20004748:	75478793          	addi	a5,a5,1876 # 20008e98 <__clz_tab+0x230>
2000474c:	0007a603          	lw	a2,0(a5)
20004750:	0047a683          	lw	a3,4(a5)
20004754:	bc9fb0ef          	jal	ra,2000031c <__adddf3>
20004758:	00004797          	auipc	a5,0x4
2000475c:	73078793          	addi	a5,a5,1840 # 20008e88 <__clz_tab+0x220>
20004760:	0007a603          	lw	a2,0(a5)
20004764:	0047a683          	lw	a3,4(a5)
20004768:	b51fc0ef          	jal	ra,200012b8 <__muldf3>
2000476c:	d71fe0ef          	jal	ra,200034dc <__truncdfsf2>
20004770:	00004597          	auipc	a1,0x4
20004774:	6945a583          	lw	a1,1684(a1) # 20008e04 <__clz_tab+0x19c>
20004778:	00050413          	mv	s0,a0
2000477c:	b58fe0ef          	jal	ra,20002ad4 <__mulsf3>
20004780:	00004597          	auipc	a1,0x4
20004784:	6905a583          	lw	a1,1680(a1) # 20008e10 <__clz_tab+0x1a8>
20004788:	00050493          	mv	s1,a0
2000478c:	00040513          	mv	a0,s0
20004790:	b44fe0ef          	jal	ra,20002ad4 <__mulsf3>
20004794:	00050793          	mv	a5,a0
20004798:	00004597          	auipc	a1,0x4
2000479c:	67c5a583          	lw	a1,1660(a1) # 20008e14 <__clz_tab+0x1ac>
200047a0:	00040513          	mv	a0,s0
200047a4:	00078413          	mv	s0,a5
200047a8:	b2cfe0ef          	jal	ra,20002ad4 <__mulsf3>
200047ac:	008aa223          	sw	s0,4(s5)
200047b0:	1ac12083          	lw	ra,428(sp)
200047b4:	1a812403          	lw	s0,424(sp)
200047b8:	009aa023          	sw	s1,0(s5)
200047bc:	00aaa423          	sw	a0,8(s5)
200047c0:	1a412483          	lw	s1,420(sp)
200047c4:	1a012903          	lw	s2,416(sp)
200047c8:	19c12983          	lw	s3,412(sp)
200047cc:	19812a03          	lw	s4,408(sp)
200047d0:	19012b03          	lw	s6,400(sp)
200047d4:	18c12b83          	lw	s7,396(sp)
200047d8:	18812c03          	lw	s8,392(sp)
200047dc:	18412c83          	lw	s9,388(sp)
200047e0:	18012d03          	lw	s10,384(sp)
200047e4:	17c12d83          	lw	s11,380(sp)
200047e8:	000a8513          	mv	a0,s5
200047ec:	19412a83          	lw	s5,404(sp)
200047f0:	1b010113          	addi	sp,sp,432
200047f4:	00008067          	ret
200047f8:	00092f83          	lw	t6,0(s2)
200047fc:	00492f03          	lw	t5,4(s2)
20004800:	00892e83          	lw	t4,8(s2)
20004804:	000a2e03          	lw	t3,0(s4)
20004808:	004a2303          	lw	t1,4(s4)
2000480c:	008a2883          	lw	a7,8(s4)
20004810:	00c12683          	lw	a3,12(sp)
20004814:	00812603          	lw	a2,8(sp)
20004818:	04010d93          	addi	s11,sp,64
2000481c:	05010d13          	addi	s10,sp,80
20004820:	00098813          	mv	a6,s3
20004824:	07410793          	addi	a5,sp,116
20004828:	06810713          	addi	a4,sp,104
2000482c:	000d8593          	mv	a1,s11
20004830:	000d0513          	mv	a0,s10
20004834:	05f12823          	sw	t6,80(sp)
20004838:	05e12a23          	sw	t5,84(sp)
2000483c:	05d12c23          	sw	t4,88(sp)
20004840:	05c12023          	sw	t3,64(sp)
20004844:	04612223          	sw	t1,68(sp)
20004848:	05112423          	sw	a7,72(sp)
2000484c:	985ff0ef          	jal	ra,200041d0 <_Z15scene_intersect4vec3S_P6SphereiPS_S2_P8Material>
20004850:	ee0506e3          	beqz	a0,2000473c <_Z8cast_ray4vec3S_P6SphereiP5Lightii+0x74>
20004854:	008a2783          	lw	a5,8(s4)
20004858:	000a2683          	lw	a3,0(s4)
2000485c:	004a2703          	lw	a4,4(s4)
20004860:	04f12c23          	sw	a5,88(sp)
20004864:	07412783          	lw	a5,116(sp)
20004868:	000d8613          	mv	a2,s11
2000486c:	000d0593          	mv	a1,s10
20004870:	04f12023          	sw	a5,64(sp)
20004874:	07812783          	lw	a5,120(sp)
20004878:	0f810513          	addi	a0,sp,248
2000487c:	04d12823          	sw	a3,80(sp)
20004880:	04f12223          	sw	a5,68(sp)
20004884:	07c12783          	lw	a5,124(sp)
20004888:	04e12a23          	sw	a4,84(sp)
2000488c:	04f12423          	sw	a5,72(sp)
20004890:	c54ff0ef          	jal	ra,20003ce4 <_Z7reflect4vec3S_>
20004894:	0f812b83          	lw	s7,248(sp)
20004898:	0fc12b03          	lw	s6,252(sp)
2000489c:	10012983          	lw	s3,256(sp)
200048a0:	000b8593          	mv	a1,s7
200048a4:	000b8513          	mv	a0,s7
200048a8:	a2cfe0ef          	jal	ra,20002ad4 <__mulsf3>
200048ac:	00050913          	mv	s2,a0
200048b0:	000b0593          	mv	a1,s6
200048b4:	000b0513          	mv	a0,s6
200048b8:	a1cfe0ef          	jal	ra,20002ad4 <__mulsf3>
200048bc:	00050593          	mv	a1,a0
200048c0:	00090513          	mv	a0,s2
200048c4:	919fd0ef          	jal	ra,200021dc <__addsf3>
200048c8:	00050913          	mv	s2,a0
200048cc:	00098593          	mv	a1,s3
200048d0:	00098513          	mv	a0,s3
200048d4:	a00fe0ef          	jal	ra,20002ad4 <__mulsf3>
200048d8:	00050593          	mv	a1,a0
200048dc:	00090513          	mv	a0,s2
200048e0:	8fdfd0ef          	jal	ra,200021dc <__addsf3>
200048e4:	505010ef          	jal	ra,200065e8 <sqrtf>
200048e8:	00050593          	mv	a1,a0
200048ec:	00004517          	auipc	a0,0x4
200048f0:	4f452503          	lw	a0,1268(a0) # 20008de0 <__clz_tab+0x178>
200048f4:	d3dfd0ef          	jal	ra,20002630 <__divsf3>
200048f8:	00050913          	mv	s2,a0
200048fc:	00050593          	mv	a1,a0
20004900:	000b8513          	mv	a0,s7
20004904:	9d0fe0ef          	jal	ra,20002ad4 <__mulsf3>
20004908:	00050793          	mv	a5,a0
2000490c:	00090593          	mv	a1,s2
20004910:	000b0513          	mv	a0,s6
20004914:	00f12e23          	sw	a5,28(sp)
20004918:	9bcfe0ef          	jal	ra,20002ad4 <__mulsf3>
2000491c:	00050793          	mv	a5,a0
20004920:	00090593          	mv	a1,s2
20004924:	00098513          	mv	a0,s3
20004928:	02f12023          	sw	a5,32(sp)
2000492c:	9a8fe0ef          	jal	ra,20002ad4 <__mulsf3>
20004930:	008a2783          	lw	a5,8(s4)
20004934:	000a2883          	lw	a7,0(s4)
20004938:	004a2803          	lw	a6,4(s4)
2000493c:	04f12c23          	sw	a5,88(sp)
20004940:	07412783          	lw	a5,116(sp)
20004944:	12812683          	lw	a3,296(sp)
20004948:	00004c17          	auipc	s8,0x4
2000494c:	498c2c03          	lw	s8,1176(s8) # 20008de0 <__clz_tab+0x178>
20004950:	04f12023          	sw	a5,64(sp)
20004954:	07812783          	lw	a5,120(sp)
20004958:	00050313          	mv	t1,a0
2000495c:	000c0713          	mv	a4,s8
20004960:	04f12223          	sw	a5,68(sp)
20004964:	07c12783          	lw	a5,124(sp)
20004968:	000d8613          	mv	a2,s11
2000496c:	000d0593          	mv	a1,s10
20004970:	10410513          	addi	a0,sp,260
20004974:	02612223          	sw	t1,36(sp)
20004978:	05112823          	sw	a7,80(sp)
2000497c:	04f12423          	sw	a5,72(sp)
20004980:	05012a23          	sw	a6,84(sp)
20004984:	c78ff0ef          	jal	ra,20003dfc <_Z7refract4vec3S_ff>
20004988:	10412903          	lw	s2,260(sp)
2000498c:	10812b03          	lw	s6,264(sp)
20004990:	10c12983          	lw	s3,268(sp)
20004994:	00090593          	mv	a1,s2
20004998:	00090513          	mv	a0,s2
2000499c:	938fe0ef          	jal	ra,20002ad4 <__mulsf3>
200049a0:	00050b93          	mv	s7,a0
200049a4:	000b0593          	mv	a1,s6
200049a8:	000b0513          	mv	a0,s6
200049ac:	928fe0ef          	jal	ra,20002ad4 <__mulsf3>
200049b0:	00050593          	mv	a1,a0
200049b4:	000b8513          	mv	a0,s7
200049b8:	825fd0ef          	jal	ra,200021dc <__addsf3>
200049bc:	00050b93          	mv	s7,a0
200049c0:	00098593          	mv	a1,s3
200049c4:	00098513          	mv	a0,s3
200049c8:	90cfe0ef          	jal	ra,20002ad4 <__mulsf3>
200049cc:	00050593          	mv	a1,a0
200049d0:	000b8513          	mv	a0,s7
200049d4:	809fd0ef          	jal	ra,200021dc <__addsf3>
200049d8:	411010ef          	jal	ra,200065e8 <sqrtf>
200049dc:	00050593          	mv	a1,a0
200049e0:	000c0513          	mv	a0,s8
200049e4:	c4dfd0ef          	jal	ra,20002630 <__divsf3>
200049e8:	00090593          	mv	a1,s2
200049ec:	00050913          	mv	s2,a0
200049f0:	8e4fe0ef          	jal	ra,20002ad4 <__mulsf3>
200049f4:	00090593          	mv	a1,s2
200049f8:	00050c93          	mv	s9,a0
200049fc:	000b0513          	mv	a0,s6
20004a00:	8d4fe0ef          	jal	ra,20002ad4 <__mulsf3>
20004a04:	00090593          	mv	a1,s2
20004a08:	00050c13          	mv	s8,a0
20004a0c:	00098513          	mv	a0,s3
20004a10:	8c4fe0ef          	jal	ra,20002ad4 <__mulsf3>
20004a14:	07412803          	lw	a6,116(sp)
20004a18:	01c12583          	lw	a1,28(sp)
20004a1c:	00050b93          	mv	s7,a0
20004a20:	00080513          	mv	a0,a6
20004a24:	01012a23          	sw	a6,20(sp)
20004a28:	07812983          	lw	s3,120(sp)
20004a2c:	8a8fe0ef          	jal	ra,20002ad4 <__mulsf3>
20004a30:	02012583          	lw	a1,32(sp)
20004a34:	00050b13          	mv	s6,a0
20004a38:	00098513          	mv	a0,s3
20004a3c:	898fe0ef          	jal	ra,20002ad4 <__mulsf3>
20004a40:	00050593          	mv	a1,a0
20004a44:	000b0513          	mv	a0,s6
20004a48:	f94fd0ef          	jal	ra,200021dc <__addsf3>
20004a4c:	07c12903          	lw	s2,124(sp)
20004a50:	02412583          	lw	a1,36(sp)
20004a54:	00050b13          	mv	s6,a0
20004a58:	00090513          	mv	a0,s2
20004a5c:	878fe0ef          	jal	ra,20002ad4 <__mulsf3>
20004a60:	00050593          	mv	a1,a0
20004a64:	000b0513          	mv	a0,s6
20004a68:	f74fd0ef          	jal	ra,200021dc <__addsf3>
20004a6c:	00000593          	li	a1,0
20004a70:	fadfd0ef          	jal	ra,20002a1c <__lesf2>
20004a74:	01412803          	lw	a6,20(sp)
20004a78:	00004597          	auipc	a1,0x4
20004a7c:	3a05a583          	lw	a1,928(a1) # 20008e18 <__clz_tab+0x1b0>
20004a80:	00054ee3          	bltz	a0,2000529c <_Z8cast_ray4vec3S_P6SphereiP5Lightii+0xbd4>
20004a84:	00080513          	mv	a0,a6
20004a88:	03012e23          	sw	a6,60(sp)
20004a8c:	848fe0ef          	jal	ra,20002ad4 <__mulsf3>
20004a90:	00050b13          	mv	s6,a0
20004a94:	00004597          	auipc	a1,0x4
20004a98:	3845a583          	lw	a1,900(a1) # 20008e18 <__clz_tab+0x1b0>
20004a9c:	00098513          	mv	a0,s3
20004aa0:	834fe0ef          	jal	ra,20002ad4 <__mulsf3>
20004aa4:	00050793          	mv	a5,a0
20004aa8:	00004597          	auipc	a1,0x4
20004aac:	3705a583          	lw	a1,880(a1) # 20008e18 <__clz_tab+0x1b0>
20004ab0:	00090513          	mv	a0,s2
20004ab4:	02f12423          	sw	a5,40(sp)
20004ab8:	81cfe0ef          	jal	ra,20002ad4 <__mulsf3>
20004abc:	06812603          	lw	a2,104(sp)
20004ac0:	06c12703          	lw	a4,108(sp)
20004ac4:	07012683          	lw	a3,112(sp)
20004ac8:	00050793          	mv	a5,a0
20004acc:	000b0593          	mv	a1,s6
20004ad0:	00060513          	mv	a0,a2
20004ad4:	02c12c23          	sw	a2,56(sp)
20004ad8:	02f12623          	sw	a5,44(sp)
20004adc:	00e12a23          	sw	a4,20(sp)
20004ae0:	00d12c23          	sw	a3,24(sp)
20004ae4:	ef8fd0ef          	jal	ra,200021dc <__addsf3>
20004ae8:	00050693          	mv	a3,a0
20004aec:	02812583          	lw	a1,40(sp)
20004af0:	01412503          	lw	a0,20(sp)
20004af4:	02d12a23          	sw	a3,52(sp)
20004af8:	ee4fd0ef          	jal	ra,200021dc <__addsf3>
20004afc:	00050713          	mv	a4,a0
20004b00:	02c12583          	lw	a1,44(sp)
20004b04:	01812503          	lw	a0,24(sp)
20004b08:	02e12823          	sw	a4,48(sp)
20004b0c:	ed0fd0ef          	jal	ra,200021dc <__addsf3>
20004b10:	03c12803          	lw	a6,60(sp)
20004b14:	03812603          	lw	a2,56(sp)
20004b18:	03412683          	lw	a3,52(sp)
20004b1c:	03012703          	lw	a4,48(sp)
20004b20:	00050793          	mv	a5,a0
20004b24:	00080513          	mv	a0,a6
20004b28:	000c8593          	mv	a1,s9
20004b2c:	02c12a23          	sw	a2,52(sp)
20004b30:	08d12c23          	sw	a3,152(sp)
20004b34:	08e12e23          	sw	a4,156(sp)
20004b38:	0af12023          	sw	a5,160(sp)
20004b3c:	f99fd0ef          	jal	ra,20002ad4 <__mulsf3>
20004b40:	02a12823          	sw	a0,48(sp)
20004b44:	000c0593          	mv	a1,s8
20004b48:	00098513          	mv	a0,s3
20004b4c:	f89fd0ef          	jal	ra,20002ad4 <__mulsf3>
20004b50:	03012783          	lw	a5,48(sp)
20004b54:	00050593          	mv	a1,a0
20004b58:	00078513          	mv	a0,a5
20004b5c:	e80fd0ef          	jal	ra,200021dc <__addsf3>
20004b60:	00050993          	mv	s3,a0
20004b64:	000b8593          	mv	a1,s7
20004b68:	00090513          	mv	a0,s2
20004b6c:	f69fd0ef          	jal	ra,20002ad4 <__mulsf3>
20004b70:	00050593          	mv	a1,a0
20004b74:	00098513          	mv	a0,s3
20004b78:	e64fd0ef          	jal	ra,200021dc <__addsf3>
20004b7c:	00000593          	li	a1,0
20004b80:	e9dfd0ef          	jal	ra,20002a1c <__lesf2>
20004b84:	03412603          	lw	a2,52(sp)
20004b88:	000b0593          	mv	a1,s6
20004b8c:	7a054a63          	bltz	a0,20005340 <_Z8cast_ray4vec3S_P6SphereiP5Lightii+0xc78>
20004b90:	00060513          	mv	a0,a2
20004b94:	e48fd0ef          	jal	ra,200021dc <__addsf3>
20004b98:	02812583          	lw	a1,40(sp)
20004b9c:	00050993          	mv	s3,a0
20004ba0:	01412503          	lw	a0,20(sp)
20004ba4:	e38fd0ef          	jal	ra,200021dc <__addsf3>
20004ba8:	02c12583          	lw	a1,44(sp)
20004bac:	00050913          	mv	s2,a0
20004bb0:	01812503          	lw	a0,24(sp)
20004bb4:	e28fd0ef          	jal	ra,200021dc <__addsf3>
20004bb8:	00050313          	mv	t1,a0
20004bbc:	0a612623          	sw	t1,172(sp)
20004bc0:	09812303          	lw	t1,152(sp)
20004bc4:	01012b03          	lw	s6,16(sp)
20004bc8:	01c12e03          	lw	t3,28(sp)
20004bcc:	04612823          	sw	t1,80(sp)
20004bd0:	09c12303          	lw	t1,156(sp)
20004bd4:	02012e83          	lw	t4,32(sp)
20004bd8:	02412f03          	lw	t5,36(sp)
20004bdc:	00c12703          	lw	a4,12(sp)
20004be0:	00812683          	lw	a3,8(sp)
20004be4:	04612a23          	sw	t1,84(sp)
20004be8:	0a012303          	lw	t1,160(sp)
20004bec:	00148493          	addi	s1,s1,1 # 80000001 <__global_pointer$+0x5fff5e61>
20004bf0:	00048893          	mv	a7,s1
20004bf4:	000b0813          	mv	a6,s6
20004bf8:	00040793          	mv	a5,s0
20004bfc:	000d8613          	mv	a2,s11
20004c00:	000d0593          	mv	a1,s10
20004c04:	0b010513          	addi	a0,sp,176
20004c08:	04612c23          	sw	t1,88(sp)
20004c0c:	0b312223          	sw	s3,164(sp)
20004c10:	0b212423          	sw	s2,168(sp)
20004c14:	09c12023          	sw	t3,128(sp)
20004c18:	09d12223          	sw	t4,132(sp)
20004c1c:	09e12423          	sw	t5,136(sp)
20004c20:	05c12023          	sw	t3,64(sp)
20004c24:	05d12223          	sw	t4,68(sp)
20004c28:	05e12423          	sw	t5,72(sp)
20004c2c:	a9dff0ef          	jal	ra,200046c8 <_Z8cast_ray4vec3S_P6SphereiP5Lightii>
20004c30:	0a412303          	lw	t1,164(sp)
20004c34:	00c12703          	lw	a4,12(sp)
20004c38:	00812683          	lw	a3,8(sp)
20004c3c:	04612823          	sw	t1,80(sp)
20004c40:	0a812303          	lw	t1,168(sp)
20004c44:	00048893          	mv	a7,s1
20004c48:	000b0813          	mv	a6,s6
20004c4c:	04612a23          	sw	t1,84(sp)
20004c50:	0ac12303          	lw	t1,172(sp)
20004c54:	00040793          	mv	a5,s0
20004c58:	000d8613          	mv	a2,s11
20004c5c:	000d0593          	mv	a1,s10
20004c60:	0bc10513          	addi	a0,sp,188
20004c64:	09912623          	sw	s9,140(sp)
20004c68:	09812823          	sw	s8,144(sp)
20004c6c:	09712a23          	sw	s7,148(sp)
20004c70:	04612c23          	sw	t1,88(sp)
20004c74:	05912023          	sw	s9,64(sp)
20004c78:	05812223          	sw	s8,68(sp)
20004c7c:	05712423          	sw	s7,72(sp)
20004c80:	a49ff0ef          	jal	ra,200046c8 <_Z8cast_ray4vec3S_P6SphereiP5Lightii>
20004c84:	6f605663          	blez	s6,20005370 <_Z8cast_ray4vec3S_P6SphereiP5Lightii+0xca8>
20004c88:	00000793          	li	a5,0
20004c8c:	02f12823          	sw	a5,48(sp)
20004c90:	00078b93          	mv	s7,a5
20004c94:	14c10793          	addi	a5,sp,332
20004c98:	00f12e23          	sw	a5,28(sp)
20004c9c:	0ec10793          	addi	a5,sp,236
20004ca0:	02f12223          	sw	a5,36(sp)
20004ca4:	0e010793          	addi	a5,sp,224
20004ca8:	02f12023          	sw	a5,32(sp)
20004cac:	11c10793          	addi	a5,sp,284
20004cb0:	00000c13          	li	s8,0
20004cb4:	00004c97          	auipc	s9,0x4
20004cb8:	164cac83          	lw	s9,356(s9) # 20008e18 <__clz_tab+0x1b0>
20004cbc:	02f12423          	sw	a5,40(sp)
20004cc0:	03512a23          	sw	s5,52(sp)
20004cc4:	03412623          	sw	s4,44(sp)
20004cc8:	2b40006f          	j	20004f7c <_Z8cast_ray4vec3S_P6SphereiP5Lightii+0x8b4>
20004ccc:	00070513          	mv	a0,a4
20004cd0:	e05fd0ef          	jal	ra,20002ad4 <__mulsf3>
20004cd4:	06812583          	lw	a1,104(sp)
20004cd8:	d04fd0ef          	jal	ra,200021dc <__addsf3>
20004cdc:	00050793          	mv	a5,a0
20004ce0:	000c8593          	mv	a1,s9
20004ce4:	000a8513          	mv	a0,s5
20004ce8:	00078a93          	mv	s5,a5
20004cec:	de9fd0ef          	jal	ra,20002ad4 <__mulsf3>
20004cf0:	06c12583          	lw	a1,108(sp)
20004cf4:	ce8fd0ef          	jal	ra,200021dc <__addsf3>
20004cf8:	00050793          	mv	a5,a0
20004cfc:	000c8593          	mv	a1,s9
20004d00:	000a0513          	mv	a0,s4
20004d04:	00078a13          	mv	s4,a5
20004d08:	dcdfd0ef          	jal	ra,20002ad4 <__mulsf3>
20004d0c:	07012583          	lw	a1,112(sp)
20004d10:	cccfd0ef          	jal	ra,200021dc <__addsf3>
20004d14:	00050b13          	mv	s6,a0
20004d18:	01c12803          	lw	a6,28(sp)
20004d1c:	02412783          	lw	a5,36(sp)
20004d20:	02012703          	lw	a4,32(sp)
20004d24:	00c12683          	lw	a3,12(sp)
20004d28:	00812603          	lw	a2,8(sp)
20004d2c:	000d8593          	mv	a1,s11
20004d30:	000d0513          	mv	a0,s10
20004d34:	0d512a23          	sw	s5,212(sp)
20004d38:	0d412c23          	sw	s4,216(sp)
20004d3c:	0d612e23          	sw	s6,220(sp)
20004d40:	0c912423          	sw	s1,200(sp)
20004d44:	0d212623          	sw	s2,204(sp)
20004d48:	0d312823          	sw	s3,208(sp)
20004d4c:	05512823          	sw	s5,80(sp)
20004d50:	05412a23          	sw	s4,84(sp)
20004d54:	05612c23          	sw	s6,88(sp)
20004d58:	04912023          	sw	s1,64(sp)
20004d5c:	05212223          	sw	s2,68(sp)
20004d60:	05312423          	sw	s3,72(sp)
20004d64:	c6cff0ef          	jal	ra,200041d0 <_Z15scene_intersect4vec3S_P6SphereiPS_S2_P8Material>
20004d68:	08050c63          	beqz	a0,20004e00 <_Z8cast_ray4vec3S_P6SphereiP5Lightii+0x738>
20004d6c:	0e012503          	lw	a0,224(sp)
20004d70:	000a8593          	mv	a1,s5
20004d74:	8a8fe0ef          	jal	ra,20002e1c <__subsf3>
20004d78:	00050793          	mv	a5,a0
20004d7c:	0e412503          	lw	a0,228(sp)
20004d80:	000a0593          	mv	a1,s4
20004d84:	00078a13          	mv	s4,a5
20004d88:	894fe0ef          	jal	ra,20002e1c <__subsf3>
20004d8c:	00050793          	mv	a5,a0
20004d90:	0e812503          	lw	a0,232(sp)
20004d94:	000b0593          	mv	a1,s6
20004d98:	00f12a23          	sw	a5,20(sp)
20004d9c:	880fe0ef          	jal	ra,20002e1c <__subsf3>
20004da0:	00050a93          	mv	s5,a0
20004da4:	000a0593          	mv	a1,s4
20004da8:	000a0513          	mv	a0,s4
20004dac:	d29fd0ef          	jal	ra,20002ad4 <__mulsf3>
20004db0:	01412783          	lw	a5,20(sp)
20004db4:	00050a13          	mv	s4,a0
20004db8:	00078593          	mv	a1,a5
20004dbc:	00078513          	mv	a0,a5
20004dc0:	d15fd0ef          	jal	ra,20002ad4 <__mulsf3>
20004dc4:	00050593          	mv	a1,a0
20004dc8:	000a0513          	mv	a0,s4
20004dcc:	c10fd0ef          	jal	ra,200021dc <__addsf3>
20004dd0:	00050a13          	mv	s4,a0
20004dd4:	000a8593          	mv	a1,s5
20004dd8:	000a8513          	mv	a0,s5
20004ddc:	cf9fd0ef          	jal	ra,20002ad4 <__mulsf3>
20004de0:	00050593          	mv	a1,a0
20004de4:	000a0513          	mv	a0,s4
20004de8:	bf4fd0ef          	jal	ra,200021dc <__addsf3>
20004dec:	7fc010ef          	jal	ra,200065e8 <sqrtf>
20004df0:	00050593          	mv	a1,a0
20004df4:	01812503          	lw	a0,24(sp)
20004df8:	b6dfd0ef          	jal	ra,20002964 <__gesf2>
20004dfc:	16a04863          	bgtz	a0,20004f6c <_Z8cast_ray4vec3S_P6SphereiP5Lightii+0x8a4>
20004e00:	07412583          	lw	a1,116(sp)
20004e04:	00048513          	mv	a0,s1
20004e08:	ccdfd0ef          	jal	ra,20002ad4 <__mulsf3>
20004e0c:	07812583          	lw	a1,120(sp)
20004e10:	00050a13          	mv	s4,a0
20004e14:	00090513          	mv	a0,s2
20004e18:	cbdfd0ef          	jal	ra,20002ad4 <__mulsf3>
20004e1c:	00050593          	mv	a1,a0
20004e20:	000a0513          	mv	a0,s4
20004e24:	bb8fd0ef          	jal	ra,200021dc <__addsf3>
20004e28:	07c12583          	lw	a1,124(sp)
20004e2c:	00050a13          	mv	s4,a0
20004e30:	00098513          	mv	a0,s3
20004e34:	ca1fd0ef          	jal	ra,20002ad4 <__mulsf3>
20004e38:	00050593          	mv	a1,a0
20004e3c:	000a0513          	mv	a0,s4
20004e40:	b9cfd0ef          	jal	ra,200021dc <__addsf3>
20004e44:	00000593          	li	a1,0
20004e48:	00050a13          	mv	s4,a0
20004e4c:	b19fd0ef          	jal	ra,20002964 <__gesf2>
20004e50:	00055463          	bgez	a0,20004e58 <_Z8cast_ray4vec3S_P6SphereiP5Lightii+0x790>
20004e54:	00000a13          	li	s4,0
20004e58:	00c42583          	lw	a1,12(s0) # 8000000c <__global_pointer$+0x5fff5e6c>
20004e5c:	000a0513          	mv	a0,s4
20004e60:	80000a37          	lui	s4,0x80000
20004e64:	c71fd0ef          	jal	ra,20002ad4 <__mulsf3>
20004e68:	00050593          	mv	a1,a0
20004e6c:	000b8513          	mv	a0,s7
20004e70:	b6cfd0ef          	jal	ra,200021dc <__addsf3>
20004e74:	07412783          	lw	a5,116(sp)
20004e78:	00050b93          	mv	s7,a0
20004e7c:	02812503          	lw	a0,40(sp)
20004e80:	04f12023          	sw	a5,64(sp)
20004e84:	07812783          	lw	a5,120(sp)
20004e88:	000d8613          	mv	a2,s11
20004e8c:	009a44b3          	xor	s1,s4,s1
20004e90:	04f12223          	sw	a5,68(sp)
20004e94:	07c12783          	lw	a5,124(sp)
20004e98:	012a4933          	xor	s2,s4,s2
20004e9c:	013a49b3          	xor	s3,s4,s3
20004ea0:	000d0593          	mv	a1,s10
20004ea4:	04f12423          	sw	a5,72(sp)
20004ea8:	10912823          	sw	s1,272(sp)
20004eac:	11212a23          	sw	s2,276(sp)
20004eb0:	04912823          	sw	s1,80(sp)
20004eb4:	05212a23          	sw	s2,84(sp)
20004eb8:	11312c23          	sw	s3,280(sp)
20004ebc:	05312c23          	sw	s3,88(sp)
20004ec0:	e25fe0ef          	jal	ra,20003ce4 <_Z7reflect4vec3S_>
20004ec4:	02c12903          	lw	s2,44(sp)
20004ec8:	11c12503          	lw	a0,284(sp)
20004ecc:	00092583          	lw	a1,0(s2)
20004ed0:	c05fd0ef          	jal	ra,20002ad4 <__mulsf3>
20004ed4:	00050493          	mv	s1,a0
20004ed8:	12012583          	lw	a1,288(sp)
20004edc:	00412503          	lw	a0,4(sp)
20004ee0:	bf5fd0ef          	jal	ra,20002ad4 <__mulsf3>
20004ee4:	00050593          	mv	a1,a0
20004ee8:	00048513          	mv	a0,s1
20004eec:	af0fd0ef          	jal	ra,200021dc <__addsf3>
20004ef0:	00892583          	lw	a1,8(s2)
20004ef4:	00050493          	mv	s1,a0
20004ef8:	12412503          	lw	a0,292(sp)
20004efc:	bd9fd0ef          	jal	ra,20002ad4 <__mulsf3>
20004f00:	00050593          	mv	a1,a0
20004f04:	00048513          	mv	a0,s1
20004f08:	ad4fd0ef          	jal	ra,200021dc <__addsf3>
20004f0c:	00aa4a33          	xor	s4,s4,a0
20004f10:	00000593          	li	a1,0
20004f14:	000a0513          	mv	a0,s4
20004f18:	a4dfd0ef          	jal	ra,20002964 <__gesf2>
20004f1c:	00055463          	bgez	a0,20004f24 <_Z8cast_ray4vec3S_P6SphereiP5Lightii+0x85c>
20004f20:	00000a13          	li	s4,0
20004f24:	00000593          	li	a1,0
20004f28:	000a0513          	mv	a0,s4
20004f2c:	a39fd0ef          	jal	ra,20002964 <__gesf2>
20004f30:	02a05e63          	blez	a0,20004f6c <_Z8cast_ray4vec3S_P6SphereiP5Lightii+0x8a4>
20004f34:	14812903          	lw	s2,328(sp)
20004f38:	00000593          	li	a1,0
20004f3c:	00090513          	mv	a0,s2
20004f40:	a25fd0ef          	jal	ra,20002964 <__gesf2>
20004f44:	02a05463          	blez	a0,20004f6c <_Z8cast_ray4vec3S_P6SphereiP5Lightii+0x8a4>
20004f48:	00090593          	mv	a1,s2
20004f4c:	000a0513          	mv	a0,s4
20004f50:	588010ef          	jal	ra,200064d8 <powf>
20004f54:	00c42583          	lw	a1,12(s0)
20004f58:	b7dfd0ef          	jal	ra,20002ad4 <__mulsf3>
20004f5c:	00050593          	mv	a1,a0
20004f60:	03012503          	lw	a0,48(sp)
20004f64:	a78fd0ef          	jal	ra,200021dc <__addsf3>
20004f68:	02a12823          	sw	a0,48(sp)
20004f6c:	01012783          	lw	a5,16(sp)
20004f70:	001c0c13          	addi	s8,s8,1
20004f74:	01040413          	addi	s0,s0,16
20004f78:	21878263          	beq	a5,s8,2000517c <_Z8cast_ray4vec3S_P6SphereiP5Lightii+0xab4>
20004f7c:	06812583          	lw	a1,104(sp)
20004f80:	00042503          	lw	a0,0(s0)
20004f84:	e99fd0ef          	jal	ra,20002e1c <__subsf3>
20004f88:	00050493          	mv	s1,a0
20004f8c:	06c12583          	lw	a1,108(sp)
20004f90:	00442503          	lw	a0,4(s0)
20004f94:	e89fd0ef          	jal	ra,20002e1c <__subsf3>
20004f98:	00050913          	mv	s2,a0
20004f9c:	07012583          	lw	a1,112(sp)
20004fa0:	00842503          	lw	a0,8(s0)
20004fa4:	e79fd0ef          	jal	ra,20002e1c <__subsf3>
20004fa8:	00050993          	mv	s3,a0
20004fac:	00048593          	mv	a1,s1
20004fb0:	00048513          	mv	a0,s1
20004fb4:	b21fd0ef          	jal	ra,20002ad4 <__mulsf3>
20004fb8:	00050a13          	mv	s4,a0
20004fbc:	00090593          	mv	a1,s2
20004fc0:	00090513          	mv	a0,s2
20004fc4:	b11fd0ef          	jal	ra,20002ad4 <__mulsf3>
20004fc8:	00050593          	mv	a1,a0
20004fcc:	000a0513          	mv	a0,s4
20004fd0:	a0cfd0ef          	jal	ra,200021dc <__addsf3>
20004fd4:	00050a13          	mv	s4,a0
20004fd8:	00098593          	mv	a1,s3
20004fdc:	00098513          	mv	a0,s3
20004fe0:	af5fd0ef          	jal	ra,20002ad4 <__mulsf3>
20004fe4:	00050593          	mv	a1,a0
20004fe8:	000a0513          	mv	a0,s4
20004fec:	9f0fd0ef          	jal	ra,200021dc <__addsf3>
20004ff0:	5f8010ef          	jal	ra,200065e8 <sqrtf>
20004ff4:	00004797          	auipc	a5,0x4
20004ff8:	dec78793          	addi	a5,a5,-532 # 20008de0 <__clz_tab+0x178>
20004ffc:	00050593          	mv	a1,a0
20005000:	0007a503          	lw	a0,0(a5)
20005004:	e2cfd0ef          	jal	ra,20002630 <__divsf3>
20005008:	00048593          	mv	a1,s1
2000500c:	00050a13          	mv	s4,a0
20005010:	ac5fd0ef          	jal	ra,20002ad4 <__mulsf3>
20005014:	00090593          	mv	a1,s2
20005018:	00050493          	mv	s1,a0
2000501c:	000a0513          	mv	a0,s4
20005020:	ab5fd0ef          	jal	ra,20002ad4 <__mulsf3>
20005024:	00098593          	mv	a1,s3
20005028:	00050913          	mv	s2,a0
2000502c:	000a0513          	mv	a0,s4
20005030:	aa5fd0ef          	jal	ra,20002ad4 <__mulsf3>
20005034:	06812583          	lw	a1,104(sp)
20005038:	00050993          	mv	s3,a0
2000503c:	00042503          	lw	a0,0(s0)
20005040:	dddfd0ef          	jal	ra,20002e1c <__subsf3>
20005044:	00050a13          	mv	s4,a0
20005048:	06c12583          	lw	a1,108(sp)
2000504c:	00442503          	lw	a0,4(s0)
20005050:	dcdfd0ef          	jal	ra,20002e1c <__subsf3>
20005054:	00050b13          	mv	s6,a0
20005058:	07012583          	lw	a1,112(sp)
2000505c:	00842503          	lw	a0,8(s0)
20005060:	dbdfd0ef          	jal	ra,20002e1c <__subsf3>
20005064:	00050a93          	mv	s5,a0
20005068:	000a0593          	mv	a1,s4
2000506c:	000a0513          	mv	a0,s4
20005070:	a65fd0ef          	jal	ra,20002ad4 <__mulsf3>
20005074:	00050a13          	mv	s4,a0
20005078:	000b0593          	mv	a1,s6
2000507c:	000b0513          	mv	a0,s6
20005080:	a55fd0ef          	jal	ra,20002ad4 <__mulsf3>
20005084:	00050593          	mv	a1,a0
20005088:	000a0513          	mv	a0,s4
2000508c:	950fd0ef          	jal	ra,200021dc <__addsf3>
20005090:	00050a13          	mv	s4,a0
20005094:	000a8593          	mv	a1,s5
20005098:	000a8513          	mv	a0,s5
2000509c:	a39fd0ef          	jal	ra,20002ad4 <__mulsf3>
200050a0:	00050593          	mv	a1,a0
200050a4:	000a0513          	mv	a0,s4
200050a8:	934fd0ef          	jal	ra,200021dc <__addsf3>
200050ac:	53c010ef          	jal	ra,200065e8 <sqrtf>
200050b0:	07412703          	lw	a4,116(sp)
200050b4:	07812a83          	lw	s5,120(sp)
200050b8:	00050b13          	mv	s6,a0
200050bc:	00070593          	mv	a1,a4
200050c0:	00048513          	mv	a0,s1
200050c4:	00e12a23          	sw	a4,20(sp)
200050c8:	01612c23          	sw	s6,24(sp)
200050cc:	a09fd0ef          	jal	ra,20002ad4 <__mulsf3>
200050d0:	00050b13          	mv	s6,a0
200050d4:	000a8593          	mv	a1,s5
200050d8:	00090513          	mv	a0,s2
200050dc:	9f9fd0ef          	jal	ra,20002ad4 <__mulsf3>
200050e0:	07c12a03          	lw	s4,124(sp)
200050e4:	00050593          	mv	a1,a0
200050e8:	000b0513          	mv	a0,s6
200050ec:	8f0fd0ef          	jal	ra,200021dc <__addsf3>
200050f0:	00050b13          	mv	s6,a0
200050f4:	000a0593          	mv	a1,s4
200050f8:	00098513          	mv	a0,s3
200050fc:	9d9fd0ef          	jal	ra,20002ad4 <__mulsf3>
20005100:	00050593          	mv	a1,a0
20005104:	000b0513          	mv	a0,s6
20005108:	8d4fd0ef          	jal	ra,200021dc <__addsf3>
2000510c:	00000593          	li	a1,0
20005110:	90dfd0ef          	jal	ra,20002a1c <__lesf2>
20005114:	01412703          	lw	a4,20(sp)
20005118:	000c8593          	mv	a1,s9
2000511c:	ba0558e3          	bgez	a0,20004ccc <_Z8cast_ray4vec3S_P6SphereiP5Lightii+0x604>
20005120:	00070513          	mv	a0,a4
20005124:	9b1fd0ef          	jal	ra,20002ad4 <__mulsf3>
20005128:	00050593          	mv	a1,a0
2000512c:	06812503          	lw	a0,104(sp)
20005130:	cedfd0ef          	jal	ra,20002e1c <__subsf3>
20005134:	00050793          	mv	a5,a0
20005138:	000c8593          	mv	a1,s9
2000513c:	000a8513          	mv	a0,s5
20005140:	00078a93          	mv	s5,a5
20005144:	991fd0ef          	jal	ra,20002ad4 <__mulsf3>
20005148:	00050593          	mv	a1,a0
2000514c:	06c12503          	lw	a0,108(sp)
20005150:	ccdfd0ef          	jal	ra,20002e1c <__subsf3>
20005154:	00050793          	mv	a5,a0
20005158:	000c8593          	mv	a1,s9
2000515c:	000a0513          	mv	a0,s4
20005160:	00078a13          	mv	s4,a5
20005164:	971fd0ef          	jal	ra,20002ad4 <__mulsf3>
20005168:	00050593          	mv	a1,a0
2000516c:	07012503          	lw	a0,112(sp)
20005170:	cadfd0ef          	jal	ra,20002e1c <__subsf3>
20005174:	00050b13          	mv	s6,a0
20005178:	ba1ff06f          	j	20004d18 <_Z8cast_ray4vec3S_P6SphereiP5Lightii+0x650>
2000517c:	03412a83          	lw	s5,52(sp)
20005180:	000b8793          	mv	a5,s7
20005184:	12c12583          	lw	a1,300(sp)
20005188:	00078513          	mv	a0,a5
2000518c:	949fd0ef          	jal	ra,20002ad4 <__mulsf3>
20005190:	00050913          	mv	s2,a0
20005194:	13012583          	lw	a1,304(sp)
20005198:	03012503          	lw	a0,48(sp)
2000519c:	939fd0ef          	jal	ra,20002ad4 <__mulsf3>
200051a0:	13812a03          	lw	s4,312(sp)
200051a4:	0bc12583          	lw	a1,188(sp)
200051a8:	00050993          	mv	s3,a0
200051ac:	000a0513          	mv	a0,s4
200051b0:	925fd0ef          	jal	ra,20002ad4 <__mulsf3>
200051b4:	13412b03          	lw	s6,308(sp)
200051b8:	0b012583          	lw	a1,176(sp)
200051bc:	00050413          	mv	s0,a0
200051c0:	000b0513          	mv	a0,s6
200051c4:	911fd0ef          	jal	ra,20002ad4 <__mulsf3>
200051c8:	00050593          	mv	a1,a0
200051cc:	00040513          	mv	a0,s0
200051d0:	80cfd0ef          	jal	ra,200021dc <__addsf3>
200051d4:	00098593          	mv	a1,s3
200051d8:	804fd0ef          	jal	ra,200021dc <__addsf3>
200051dc:	13c12583          	lw	a1,316(sp)
200051e0:	00050413          	mv	s0,a0
200051e4:	00090513          	mv	a0,s2
200051e8:	8edfd0ef          	jal	ra,20002ad4 <__mulsf3>
200051ec:	00050593          	mv	a1,a0
200051f0:	00040513          	mv	a0,s0
200051f4:	fe9fc0ef          	jal	ra,200021dc <__addsf3>
200051f8:	0c012583          	lw	a1,192(sp)
200051fc:	00050493          	mv	s1,a0
20005200:	000a0513          	mv	a0,s4
20005204:	8d1fd0ef          	jal	ra,20002ad4 <__mulsf3>
20005208:	0b412583          	lw	a1,180(sp)
2000520c:	00050413          	mv	s0,a0
20005210:	000b0513          	mv	a0,s6
20005214:	8c1fd0ef          	jal	ra,20002ad4 <__mulsf3>
20005218:	00050593          	mv	a1,a0
2000521c:	00040513          	mv	a0,s0
20005220:	fbdfc0ef          	jal	ra,200021dc <__addsf3>
20005224:	00098593          	mv	a1,s3
20005228:	fb5fc0ef          	jal	ra,200021dc <__addsf3>
2000522c:	14012583          	lw	a1,320(sp)
20005230:	00050413          	mv	s0,a0
20005234:	00090513          	mv	a0,s2
20005238:	89dfd0ef          	jal	ra,20002ad4 <__mulsf3>
2000523c:	00050593          	mv	a1,a0
20005240:	00040513          	mv	a0,s0
20005244:	f99fc0ef          	jal	ra,200021dc <__addsf3>
20005248:	0c412583          	lw	a1,196(sp)
2000524c:	00050413          	mv	s0,a0
20005250:	000a0513          	mv	a0,s4
20005254:	881fd0ef          	jal	ra,20002ad4 <__mulsf3>
20005258:	0b812583          	lw	a1,184(sp)
2000525c:	00050a13          	mv	s4,a0
20005260:	000b0513          	mv	a0,s6
20005264:	871fd0ef          	jal	ra,20002ad4 <__mulsf3>
20005268:	00050593          	mv	a1,a0
2000526c:	000a0513          	mv	a0,s4
20005270:	f6dfc0ef          	jal	ra,200021dc <__addsf3>
20005274:	00098593          	mv	a1,s3
20005278:	f65fc0ef          	jal	ra,200021dc <__addsf3>
2000527c:	14412583          	lw	a1,324(sp)
20005280:	00050993          	mv	s3,a0
20005284:	00090513          	mv	a0,s2
20005288:	84dfd0ef          	jal	ra,20002ad4 <__mulsf3>
2000528c:	00050593          	mv	a1,a0
20005290:	00098513          	mv	a0,s3
20005294:	f49fc0ef          	jal	ra,200021dc <__addsf3>
20005298:	d14ff06f          	j	200047ac <_Z8cast_ray4vec3S_P6SphereiP5Lightii+0xe4>
2000529c:	00080513          	mv	a0,a6
200052a0:	03012e23          	sw	a6,60(sp)
200052a4:	831fd0ef          	jal	ra,20002ad4 <__mulsf3>
200052a8:	00050b13          	mv	s6,a0
200052ac:	00004597          	auipc	a1,0x4
200052b0:	b6c5a583          	lw	a1,-1172(a1) # 20008e18 <__clz_tab+0x1b0>
200052b4:	00098513          	mv	a0,s3
200052b8:	81dfd0ef          	jal	ra,20002ad4 <__mulsf3>
200052bc:	00050793          	mv	a5,a0
200052c0:	00004597          	auipc	a1,0x4
200052c4:	b585a583          	lw	a1,-1192(a1) # 20008e18 <__clz_tab+0x1b0>
200052c8:	00090513          	mv	a0,s2
200052cc:	02f12423          	sw	a5,40(sp)
200052d0:	805fd0ef          	jal	ra,20002ad4 <__mulsf3>
200052d4:	06812603          	lw	a2,104(sp)
200052d8:	06c12703          	lw	a4,108(sp)
200052dc:	07012683          	lw	a3,112(sp)
200052e0:	00050793          	mv	a5,a0
200052e4:	000b0593          	mv	a1,s6
200052e8:	00060513          	mv	a0,a2
200052ec:	02c12c23          	sw	a2,56(sp)
200052f0:	02f12623          	sw	a5,44(sp)
200052f4:	00e12a23          	sw	a4,20(sp)
200052f8:	00d12c23          	sw	a3,24(sp)
200052fc:	b21fd0ef          	jal	ra,20002e1c <__subsf3>
20005300:	00050693          	mv	a3,a0
20005304:	02812583          	lw	a1,40(sp)
20005308:	01412503          	lw	a0,20(sp)
2000530c:	02d12a23          	sw	a3,52(sp)
20005310:	b0dfd0ef          	jal	ra,20002e1c <__subsf3>
20005314:	00050713          	mv	a4,a0
20005318:	02c12583          	lw	a1,44(sp)
2000531c:	01812503          	lw	a0,24(sp)
20005320:	02e12823          	sw	a4,48(sp)
20005324:	af9fd0ef          	jal	ra,20002e1c <__subsf3>
20005328:	03012703          	lw	a4,48(sp)
2000532c:	03412683          	lw	a3,52(sp)
20005330:	03812603          	lw	a2,56(sp)
20005334:	03c12803          	lw	a6,60(sp)
20005338:	00050793          	mv	a5,a0
2000533c:	fe8ff06f          	j	20004b24 <_Z8cast_ray4vec3S_P6SphereiP5Lightii+0x45c>
20005340:	00060513          	mv	a0,a2
20005344:	ad9fd0ef          	jal	ra,20002e1c <__subsf3>
20005348:	02812583          	lw	a1,40(sp)
2000534c:	00050993          	mv	s3,a0
20005350:	01412503          	lw	a0,20(sp)
20005354:	ac9fd0ef          	jal	ra,20002e1c <__subsf3>
20005358:	02c12583          	lw	a1,44(sp)
2000535c:	00050913          	mv	s2,a0
20005360:	01812503          	lw	a0,24(sp)
20005364:	ab9fd0ef          	jal	ra,20002e1c <__subsf3>
20005368:	00050313          	mv	t1,a0
2000536c:	851ff06f          	j	20004bbc <_Z8cast_ray4vec3S_P6SphereiP5Lightii+0x4f4>
20005370:	00000793          	li	a5,0
20005374:	02f12823          	sw	a5,48(sp)
20005378:	e0dff06f          	j	20005184 <_Z8cast_ray4vec3S_P6SphereiP5Lightii+0xabc>

2000537c <_Z6renderiP6SphereiP5Lighti>:
2000537c:	00251793          	slli	a5,a0,0x2
20005380:	00a787b3          	add	a5,a5,a0
20005384:	00479513          	slli	a0,a5,0x4
20005388:	00004797          	auipc	a5,0x4
2000538c:	b3078793          	addi	a5,a5,-1232 # 20008eb8 <__clz_tab+0x250>
20005390:	0047a803          	lw	a6,4(a5)
20005394:	0007a783          	lw	a5,0(a5)
20005398:	f4010113          	addi	sp,sp,-192
2000539c:	03012623          	sw	a6,44(sp)
200053a0:	02f12423          	sw	a5,40(sp)
200053a4:	00004797          	auipc	a5,0x4
200053a8:	afc78793          	addi	a5,a5,-1284 # 20008ea0 <__clz_tab+0x238>
200053ac:	0047a803          	lw	a6,4(a5)
200053b0:	0007a783          	lw	a5,0(a5)
200053b4:	0a812c23          	sw	s0,184(sp)
200053b8:	01012e23          	sw	a6,28(sp)
200053bc:	00f12c23          	sw	a5,24(sp)
200053c0:	00004797          	auipc	a5,0x4
200053c4:	ae878793          	addi	a5,a5,-1304 # 20008ea8 <__clz_tab+0x240>
200053c8:	0047a803          	lw	a6,4(a5)
200053cc:	0007a783          	lw	a5,0(a5)
200053d0:	0b612023          	sw	s6,160(sp)
200053d4:	09712e23          	sw	s7,156(sp)
200053d8:	00f12423          	sw	a5,8(sp)
200053dc:	05050793          	addi	a5,a0,80
200053e0:	09812c23          	sw	s8,152(sp)
200053e4:	09912a23          	sw	s9,148(sp)
200053e8:	09a12823          	sw	s10,144(sp)
200053ec:	0a112e23          	sw	ra,188(sp)
200053f0:	0a912a23          	sw	s1,180(sp)
200053f4:	0b212823          	sw	s2,176(sp)
200053f8:	0b312623          	sw	s3,172(sp)
200053fc:	0b412423          	sw	s4,168(sp)
20005400:	0b512223          	sw	s5,164(sp)
20005404:	09b12623          	sw	s11,140(sp)
20005408:	02a12223          	sw	a0,36(sp)
2000540c:	01012623          	sw	a6,12(sp)
20005410:	00058b13          	mv	s6,a1
20005414:	00d12223          	sw	a3,4(sp)
20005418:	00e12823          	sw	a4,16(sp)
2000541c:	00000413          	li	s0,0
20005420:	05c10d13          	addi	s10,sp,92
20005424:	03010c93          	addi	s9,sp,48
20005428:	04010c13          	addi	s8,sp,64
2000542c:	00f12a23          	sw	a5,20(sp)
20005430:	00004b97          	auipc	s7,0x4
20005434:	9b0bab83          	lw	s7,-1616(s7) # 20008de0 <__clz_tab+0x178>
20005438:	02c12023          	sw	a2,32(sp)
2000543c:	00040513          	mv	a0,s0
20005440:	cf5fc0ef          	jal	ra,20002134 <__floatsidf>
20005444:	00050613          	mv	a2,a0
20005448:	00058693          	mv	a3,a1
2000544c:	02812503          	lw	a0,40(sp)
20005450:	02c12583          	lw	a1,44(sp)
20005454:	c70fc0ef          	jal	ra,200018c4 <__subdf3>
20005458:	884fe0ef          	jal	ra,200034dc <__truncdfsf2>
2000545c:	00050593          	mv	a1,a0
20005460:	00050493          	mv	s1,a0
20005464:	e70fd0ef          	jal	ra,20002ad4 <__mulsf3>
20005468:	02412d83          	lw	s11,36(sp)
2000546c:	00050913          	mv	s2,a0
20005470:	00912023          	sw	s1,0(sp)
20005474:	000d8513          	mv	a0,s11
20005478:	cbdfc0ef          	jal	ra,20002134 <__floatsidf>
2000547c:	01812603          	lw	a2,24(sp)
20005480:	01c12683          	lw	a3,28(sp)
20005484:	c40fc0ef          	jal	ra,200018c4 <__subdf3>
20005488:	854fe0ef          	jal	ra,200034dc <__truncdfsf2>
2000548c:	00050993          	mv	s3,a0
20005490:	00c12583          	lw	a1,12(sp)
20005494:	00812503          	lw	a0,8(sp)
20005498:	7c5000ef          	jal	ra,2000645c <tan>
2000549c:	00004797          	auipc	a5,0x4
200054a0:	a1478793          	addi	a5,a5,-1516 # 20008eb0 <__clz_tab+0x248>
200054a4:	00050613          	mv	a2,a0
200054a8:	00058693          	mv	a3,a1
200054ac:	0007a503          	lw	a0,0(a5)
200054b0:	0047a583          	lw	a1,4(a5)
200054b4:	e44fb0ef          	jal	ra,20000af8 <__divdf3>
200054b8:	824fe0ef          	jal	ra,200034dc <__truncdfsf2>
200054bc:	00000793          	li	a5,0
200054c0:	00050593          	mv	a1,a0
200054c4:	06f12423          	sw	a5,104(sp)
200054c8:	06f12623          	sw	a5,108(sp)
200054cc:	06f12823          	sw	a5,112(sp)
200054d0:	00050a93          	mv	s5,a0
200054d4:	e00fd0ef          	jal	ra,20002ad4 <__mulsf3>
200054d8:	00090593          	mv	a1,s2
200054dc:	d01fc0ef          	jal	ra,200021dc <__addsf3>
200054e0:	00050493          	mv	s1,a0
200054e4:	00098593          	mv	a1,s3
200054e8:	00098513          	mv	a0,s3
200054ec:	de8fd0ef          	jal	ra,20002ad4 <__mulsf3>
200054f0:	00050593          	mv	a1,a0
200054f4:	00048513          	mv	a0,s1
200054f8:	ce5fc0ef          	jal	ra,200021dc <__addsf3>
200054fc:	0ec010ef          	jal	ra,200065e8 <sqrtf>
20005500:	00050593          	mv	a1,a0
20005504:	000b8513          	mv	a0,s7
20005508:	928fd0ef          	jal	ra,20002630 <__divsf3>
2000550c:	00050493          	mv	s1,a0
20005510:	00050593          	mv	a1,a0
20005514:	00098513          	mv	a0,s3
20005518:	dbcfd0ef          	jal	ra,20002ad4 <__mulsf3>
2000551c:	00050a13          	mv	s4,a0
20005520:	00012503          	lw	a0,0(sp)
20005524:	00048593          	mv	a1,s1
20005528:	dacfd0ef          	jal	ra,20002ad4 <__mulsf3>
2000552c:	00050993          	mv	s3,a0
20005530:	00048593          	mv	a1,s1
20005534:	000a8513          	mv	a0,s5
20005538:	d9cfd0ef          	jal	ra,20002ad4 <__mulsf3>
2000553c:	06812f83          	lw	t6,104(sp)
20005540:	00412783          	lw	a5,4(sp)
20005544:	01012803          	lw	a6,16(sp)
20005548:	05f12023          	sw	t6,64(sp)
2000554c:	06c12f83          	lw	t6,108(sp)
20005550:	02012703          	lw	a4,32(sp)
20005554:	00050f13          	mv	t5,a0
20005558:	05f12223          	sw	t6,68(sp)
2000555c:	07012f83          	lw	t6,112(sp)
20005560:	00000893          	li	a7,0
20005564:	000b0693          	mv	a3,s6
20005568:	000c8613          	mv	a2,s9
2000556c:	000c0593          	mv	a1,s8
20005570:	000d0513          	mv	a0,s10
20005574:	05f12423          	sw	t6,72(sp)
20005578:	03e12c23          	sw	t5,56(sp)
2000557c:	03412823          	sw	s4,48(sp)
20005580:	03312a23          	sw	s3,52(sp)
20005584:	944ff0ef          	jal	ra,200046c8 <_Z8cast_ray4vec3S_P6SphereiP5Lightii>
20005588:	06412703          	lw	a4,100(sp)
2000558c:	06012683          	lw	a3,96(sp)
20005590:	05c12603          	lw	a2,92(sp)
20005594:	000d8513          	mv	a0,s11
20005598:	00040593          	mv	a1,s0
2000559c:	a48fe0ef          	jal	ra,200037e4 <_Z18graphics_set_pixeliifff>
200055a0:	01412783          	lw	a5,20(sp)
200055a4:	001d8d93          	addi	s11,s11,1
200055a8:	ecfd96e3          	bne	s11,a5,20005474 <_Z6renderiP6SphereiP5Lighti+0xf8>
200055ac:	00140413          	addi	s0,s0,1
200055b0:	0f000793          	li	a5,240
200055b4:	e8f414e3          	bne	s0,a5,2000543c <_Z6renderiP6SphereiP5Lighti+0xc0>
200055b8:	0bc12083          	lw	ra,188(sp)
200055bc:	0b812403          	lw	s0,184(sp)
200055c0:	0b412483          	lw	s1,180(sp)
200055c4:	0b012903          	lw	s2,176(sp)
200055c8:	0ac12983          	lw	s3,172(sp)
200055cc:	0a812a03          	lw	s4,168(sp)
200055d0:	0a412a83          	lw	s5,164(sp)
200055d4:	0a012b03          	lw	s6,160(sp)
200055d8:	09c12b83          	lw	s7,156(sp)
200055dc:	09812c03          	lw	s8,152(sp)
200055e0:	09412c83          	lw	s9,148(sp)
200055e4:	09012d03          	lw	s10,144(sp)
200055e8:	08c12d83          	lw	s11,140(sp)
200055ec:	0c010113          	addi	sp,sp,192
200055f0:	00008067          	ret

200055f4 <_Z10init_scenev>:
200055f4:	dd010113          	addi	sp,sp,-560
200055f8:	23212023          	sw	s2,544(sp)
200055fc:	21312e23          	sw	s3,540(sp)
20005600:	08010913          	addi	s2,sp,128
20005604:	00003997          	auipc	s3,0x3
20005608:	7dc9a983          	lw	s3,2012(s3) # 20008de0 <__clz_tab+0x178>
2000560c:	21512a23          	sw	s5,532(sp)
20005610:	09010a93          	addi	s5,sp,144
20005614:	00004797          	auipc	a5,0x4
20005618:	80c7a783          	lw	a5,-2036(a5) # 20008e20 <__clz_tab+0x1b8>
2000561c:	000a8613          	mv	a2,s5
20005620:	00098593          	mv	a1,s3
20005624:	22812423          	sw	s0,552(sp)
20005628:	21612823          	sw	s6,528(sp)
2000562c:	00003417          	auipc	s0,0x3
20005630:	7dc42403          	lw	s0,2012(s0) # 20008e08 <__clz_tab+0x1a0>
20005634:	00003b17          	auipc	s6,0x3
20005638:	7ccb2b03          	lw	s6,1996(s6) # 20008e00 <__clz_tab+0x198>
2000563c:	21712623          	sw	s7,524(sp)
20005640:	21812423          	sw	s8,520(sp)
20005644:	00003b97          	auipc	s7,0x3
20005648:	7d8bab83          	lw	s7,2008(s7) # 20008e1c <__clz_tab+0x1b4>
2000564c:	00000c13          	li	s8,0
20005650:	00003717          	auipc	a4,0x3
20005654:	7d472703          	lw	a4,2004(a4) # 20008e24 <__clz_tab+0x1bc>
20005658:	00090693          	mv	a3,s2
2000565c:	17010513          	addi	a0,sp,368
20005660:	22112623          	sw	ra,556(sp)
20005664:	22912223          	sw	s1,548(sp)
20005668:	21412c23          	sw	s4,536(sp)
2000566c:	13712823          	sw	s7,304(sp)
20005670:	13612a23          	sw	s6,308(sp)
20005674:	12812c23          	sw	s0,312(sp)
20005678:	0af12623          	sw	a5,172(sp)
2000567c:	0af12823          	sw	a5,176(sp)
20005680:	0b612a23          	sw	s6,180(sp)
20005684:	09712823          	sw	s7,144(sp)
20005688:	09612a23          	sw	s6,148(sp)
2000568c:	08812c23          	sw	s0,152(sp)
20005690:	08f12023          	sw	a5,128(sp)
20005694:	08f12223          	sw	a5,132(sp)
20005698:	09612423          	sw	s6,136(sp)
2000569c:	13812e23          	sw	s8,316(sp)
200056a0:	08012e23          	sw	zero,156(sp)
200056a4:	b94fe0ef          	jal	ra,20003a38 <_Z13make_Materialf4vec44vec3f>
200056a8:	00003a17          	auipc	s4,0x3
200056ac:	78ca2a03          	lw	s4,1932(s4) # 20008e34 <__clz_tab+0x1cc>
200056b0:	00003497          	auipc	s1,0x3
200056b4:	77c4a483          	lw	s1,1916(s1) # 20008e2c <__clz_tab+0x1c4>
200056b8:	00003817          	auipc	a6,0x3
200056bc:	77082803          	lw	a6,1904(a6) # 20008e28 <__clz_tab+0x1c0>
200056c0:	00003797          	auipc	a5,0x3
200056c4:	7507a783          	lw	a5,1872(a5) # 20008e10 <__clz_tab+0x1a8>
200056c8:	000a8613          	mv	a2,s5
200056cc:	00003717          	auipc	a4,0x3
200056d0:	76472703          	lw	a4,1892(a4) # 20008e30 <__clz_tab+0x1c8>
200056d4:	00090693          	mv	a3,s2
200056d8:	000a0593          	mv	a1,s4
200056dc:	19410513          	addi	a0,sp,404
200056e0:	15012223          	sw	a6,324(sp)
200056e4:	09012a23          	sw	a6,148(sp)
200056e8:	14812423          	sw	s0,328(sp)
200056ec:	14912623          	sw	s1,332(sp)
200056f0:	0b712c23          	sw	s7,184(sp)
200056f4:	0af12e23          	sw	a5,188(sp)
200056f8:	0c912023          	sw	s1,192(sp)
200056fc:	08812c23          	sw	s0,152(sp)
20005700:	08912e23          	sw	s1,156(sp)
20005704:	09712023          	sw	s7,128(sp)
20005708:	08f12223          	sw	a5,132(sp)
2000570c:	08912423          	sw	s1,136(sp)
20005710:	15812023          	sw	s8,320(sp)
20005714:	08012823          	sw	zero,144(sp)
20005718:	b20fe0ef          	jal	ra,20003a38 <_Z13make_Materialf4vec44vec3f>
2000571c:	00003b97          	auipc	s7,0x3
20005720:	6d8bab83          	lw	s7,1752(s7) # 20008df4 <__clz_tab+0x18c>
20005724:	00003797          	auipc	a5,0x3
20005728:	7147a783          	lw	a5,1812(a5) # 20008e38 <__clz_tab+0x1d0>
2000572c:	000a8613          	mv	a2,s5
20005730:	00098593          	mv	a1,s3
20005734:	000b8713          	mv	a4,s7
20005738:	00090693          	mv	a3,s2
2000573c:	1b810513          	addi	a0,sp,440
20005740:	14f12823          	sw	a5,336(sp)
20005744:	14812a23          	sw	s0,340(sp)
20005748:	0d612223          	sw	s6,196(sp)
2000574c:	0c812423          	sw	s0,200(sp)
20005750:	0c812623          	sw	s0,204(sp)
20005754:	08f12823          	sw	a5,144(sp)
20005758:	08812a23          	sw	s0,148(sp)
2000575c:	09612023          	sw	s6,128(sp)
20005760:	08812223          	sw	s0,132(sp)
20005764:	08812423          	sw	s0,136(sp)
20005768:	15812c23          	sw	s8,344(sp)
2000576c:	15812e23          	sw	s8,348(sp)
20005770:	08012c23          	sw	zero,152(sp)
20005774:	08012e23          	sw	zero,156(sp)
20005778:	ac0fe0ef          	jal	ra,20003a38 <_Z13make_Materialf4vec44vec3f>
2000577c:	412007b7          	lui	a5,0x41200
20005780:	000a8613          	mv	a2,s5
20005784:	00098593          	mv	a1,s3
20005788:	00003717          	auipc	a4,0x3
2000578c:	6b472703          	lw	a4,1716(a4) # 20008e3c <__clz_tab+0x1d4>
20005790:	00090693          	mv	a3,s2
20005794:	1dc10513          	addi	a0,sp,476
20005798:	08f12a23          	sw	a5,148(sp)
2000579c:	3f8007b7          	lui	a5,0x3f800
200057a0:	16912423          	sw	s1,360(sp)
200057a4:	0d312823          	sw	s3,208(sp)
200057a8:	0d312a23          	sw	s3,212(sp)
200057ac:	0d312c23          	sw	s3,216(sp)
200057b0:	08912c23          	sw	s1,152(sp)
200057b4:	08f12023          	sw	a5,128(sp)
200057b8:	08f12223          	sw	a5,132(sp)
200057bc:	08f12423          	sw	a5,136(sp)
200057c0:	17812023          	sw	s8,352(sp)
200057c4:	17712223          	sw	s7,356(sp)
200057c8:	17812623          	sw	s8,364(sp)
200057cc:	08012823          	sw	zero,144(sp)
200057d0:	08012e23          	sw	zero,156(sp)
200057d4:	a64fe0ef          	jal	ra,20003a38 <_Z13make_Materialf4vec44vec3f>
200057d8:	00003797          	auipc	a5,0x3
200057dc:	66c7a783          	lw	a5,1644(a5) # 20008e44 <__clz_tab+0x1dc>
200057e0:	0ef12223          	sw	a5,228(sp)
200057e4:	08f12423          	sw	a5,136(sp)
200057e8:	17012783          	lw	a5,368(sp)
200057ec:	04010413          	addi	s0,sp,64
200057f0:	00003b17          	auipc	s6,0x3
200057f4:	6b8b2b03          	lw	s6,1720(s6) # 20008ea8 <__clz_tab+0x240>
200057f8:	00f12823          	sw	a5,16(sp)
200057fc:	17412783          	lw	a5,372(sp)
20005800:	01010a93          	addi	s5,sp,16
20005804:	00003717          	auipc	a4,0x3
20005808:	63c72703          	lw	a4,1596(a4) # 20008e40 <__clz_tab+0x1d8>
2000580c:	00f12a23          	sw	a5,20(sp)
20005810:	17812783          	lw	a5,376(sp)
20005814:	000a8693          	mv	a3,s5
20005818:	000b0613          	mv	a2,s6
2000581c:	00f12c23          	sw	a5,24(sp)
20005820:	17c12783          	lw	a5,380(sp)
20005824:	00090593          	mv	a1,s2
20005828:	00040513          	mv	a0,s0
2000582c:	00f12e23          	sw	a5,28(sp)
20005830:	18012783          	lw	a5,384(sp)
20005834:	0ce12e23          	sw	a4,220(sp)
20005838:	08e12023          	sw	a4,128(sp)
2000583c:	02f12023          	sw	a5,32(sp)
20005840:	18412783          	lw	a5,388(sp)
20005844:	00004497          	auipc	s1,0x4
20005848:	1304a483          	lw	s1,304(s1) # 20009974 <_GLOBAL_OFFSET_TABLE_+0x20>
2000584c:	0f812023          	sw	s8,224(sp)
20005850:	02f12223          	sw	a5,36(sp)
20005854:	18812783          	lw	a5,392(sp)
20005858:	08012223          	sw	zero,132(sp)
2000585c:	07010993          	addi	s3,sp,112
20005860:	02f12423          	sw	a5,40(sp)
20005864:	18c12783          	lw	a5,396(sp)
20005868:	02f12623          	sw	a5,44(sp)
2000586c:	19012783          	lw	a5,400(sp)
20005870:	02f12823          	sw	a5,48(sp)
20005874:	a3cfe0ef          	jal	ra,20003ab0 <_Z11make_Sphere4vec3f8Material>
20005878:	00040713          	mv	a4,s0
2000587c:	00048793          	mv	a5,s1
20005880:	00072503          	lw	a0,0(a4)
20005884:	00472583          	lw	a1,4(a4)
20005888:	00872603          	lw	a2,8(a4)
2000588c:	00c72683          	lw	a3,12(a4)
20005890:	00a7a023          	sw	a0,0(a5)
20005894:	00b7a223          	sw	a1,4(a5)
20005898:	00c7a423          	sw	a2,8(a5)
2000589c:	00d7a623          	sw	a3,12(a5)
200058a0:	01070713          	addi	a4,a4,16
200058a4:	01078793          	addi	a5,a5,16
200058a8:	fd371ce3          	bne	a4,s3,20005880 <_Z10init_scenev+0x28c>
200058ac:	0009a303          	lw	t1,0(s3)
200058b0:	00003717          	auipc	a4,0x3
200058b4:	59c72703          	lw	a4,1436(a4) # 20008e4c <__clz_tab+0x1e4>
200058b8:	00003897          	auipc	a7,0x3
200058bc:	5308a883          	lw	a7,1328(a7) # 20008de8 <__clz_tab+0x180>
200058c0:	0067a023          	sw	t1,0(a5)
200058c4:	19412783          	lw	a5,404(sp)
200058c8:	00003817          	auipc	a6,0x3
200058cc:	58082803          	lw	a6,1408(a6) # 20008e48 <__clz_tab+0x1e0>
200058d0:	000a8693          	mv	a3,s5
200058d4:	00f12823          	sw	a5,16(sp)
200058d8:	19812783          	lw	a5,408(sp)
200058dc:	000b0613          	mv	a2,s6
200058e0:	00090593          	mv	a1,s2
200058e4:	00f12a23          	sw	a5,20(sp)
200058e8:	19c12783          	lw	a5,412(sp)
200058ec:	00040513          	mv	a0,s0
200058f0:	0ee12823          	sw	a4,240(sp)
200058f4:	00f12c23          	sw	a5,24(sp)
200058f8:	1a012783          	lw	a5,416(sp)
200058fc:	08e12423          	sw	a4,136(sp)
20005900:	0f112423          	sw	a7,232(sp)
20005904:	00f12e23          	sw	a5,28(sp)
20005908:	1a412783          	lw	a5,420(sp)
2000590c:	0f012623          	sw	a6,236(sp)
20005910:	09112023          	sw	a7,128(sp)
20005914:	02f12023          	sw	a5,32(sp)
20005918:	1a812783          	lw	a5,424(sp)
2000591c:	09012223          	sw	a6,132(sp)
20005920:	02f12223          	sw	a5,36(sp)
20005924:	1ac12783          	lw	a5,428(sp)
20005928:	02f12423          	sw	a5,40(sp)
2000592c:	1b012783          	lw	a5,432(sp)
20005930:	02f12623          	sw	a5,44(sp)
20005934:	1b412783          	lw	a5,436(sp)
20005938:	02f12823          	sw	a5,48(sp)
2000593c:	974fe0ef          	jal	ra,20003ab0 <_Z11make_Sphere4vec3f8Material>
20005940:	00040713          	mv	a4,s0
20005944:	03448793          	addi	a5,s1,52
20005948:	00072503          	lw	a0,0(a4)
2000594c:	00472583          	lw	a1,4(a4)
20005950:	00872603          	lw	a2,8(a4)
20005954:	00c72683          	lw	a3,12(a4)
20005958:	00a7a023          	sw	a0,0(a5)
2000595c:	00b7a223          	sw	a1,4(a5)
20005960:	00c7a423          	sw	a2,8(a5)
20005964:	00d7a623          	sw	a3,12(a5)
20005968:	01070713          	addi	a4,a4,16
2000596c:	01078793          	addi	a5,a5,16
20005970:	fd371ce3          	bne	a4,s3,20005948 <_Z10init_scenev+0x354>
20005974:	0009a303          	lw	t1,0(s3)
20005978:	00003b17          	auipc	s6,0x3
2000597c:	4dcb0b13          	addi	s6,s6,1244 # 20008e54 <__clz_tab+0x1ec>
20005980:	000b2703          	lw	a4,0(s6)
20005984:	0067a023          	sw	t1,0(a5)
20005988:	1b812783          	lw	a5,440(sp)
2000598c:	00003897          	auipc	a7,0x3
20005990:	4a88a883          	lw	a7,1192(a7) # 20008e34 <__clz_tab+0x1cc>
20005994:	00003817          	auipc	a6,0x3
20005998:	4bc82803          	lw	a6,1212(a6) # 20008e50 <__clz_tab+0x1e8>
2000599c:	00f12823          	sw	a5,16(sp)
200059a0:	1bc12783          	lw	a5,444(sp)
200059a4:	000a8693          	mv	a3,s5
200059a8:	00003617          	auipc	a2,0x3
200059ac:	4b062603          	lw	a2,1200(a2) # 20008e58 <__clz_tab+0x1f0>
200059b0:	00f12a23          	sw	a5,20(sp)
200059b4:	1c012783          	lw	a5,448(sp)
200059b8:	00090593          	mv	a1,s2
200059bc:	00040513          	mv	a0,s0
200059c0:	00f12c23          	sw	a5,24(sp)
200059c4:	1c412783          	lw	a5,452(sp)
200059c8:	0ee12e23          	sw	a4,252(sp)
200059cc:	08e12423          	sw	a4,136(sp)
200059d0:	00f12e23          	sw	a5,28(sp)
200059d4:	1c812783          	lw	a5,456(sp)
200059d8:	0f112a23          	sw	a7,244(sp)
200059dc:	0f012c23          	sw	a6,248(sp)
200059e0:	02f12023          	sw	a5,32(sp)
200059e4:	1cc12783          	lw	a5,460(sp)
200059e8:	09112023          	sw	a7,128(sp)
200059ec:	09012223          	sw	a6,132(sp)
200059f0:	02f12223          	sw	a5,36(sp)
200059f4:	1d012783          	lw	a5,464(sp)
200059f8:	02f12423          	sw	a5,40(sp)
200059fc:	1d412783          	lw	a5,468(sp)
20005a00:	02f12623          	sw	a5,44(sp)
20005a04:	1d812783          	lw	a5,472(sp)
20005a08:	02f12823          	sw	a5,48(sp)
20005a0c:	8a4fe0ef          	jal	ra,20003ab0 <_Z11make_Sphere4vec3f8Material>
20005a10:	00040713          	mv	a4,s0
20005a14:	06848793          	addi	a5,s1,104
20005a18:	00072503          	lw	a0,0(a4)
20005a1c:	00472583          	lw	a1,4(a4)
20005a20:	00872603          	lw	a2,8(a4)
20005a24:	00c72683          	lw	a3,12(a4)
20005a28:	00a7a023          	sw	a0,0(a5)
20005a2c:	00b7a223          	sw	a1,4(a5)
20005a30:	00c7a423          	sw	a2,8(a5)
20005a34:	00d7a623          	sw	a3,12(a5)
20005a38:	01070713          	addi	a4,a4,16
20005a3c:	01078793          	addi	a5,a5,16
20005a40:	fd371ce3          	bne	a4,s3,20005a18 <_Z10init_scenev+0x424>
20005a44:	0009a303          	lw	t1,0(s3)
20005a48:	000b2703          	lw	a4,0(s6)
20005a4c:	00003897          	auipc	a7,0x3
20005a50:	4108a883          	lw	a7,1040(a7) # 20008e5c <__clz_tab+0x1f4>
20005a54:	0067a023          	sw	t1,0(a5)
20005a58:	1dc12783          	lw	a5,476(sp)
20005a5c:	00003817          	auipc	a6,0x3
20005a60:	40482803          	lw	a6,1028(a6) # 20008e60 <__clz_tab+0x1f8>
20005a64:	000a8693          	mv	a3,s5
20005a68:	00f12823          	sw	a5,16(sp)
20005a6c:	1e012783          	lw	a5,480(sp)
20005a70:	00003617          	auipc	a2,0x3
20005a74:	38062603          	lw	a2,896(a2) # 20008df0 <__clz_tab+0x188>
20005a78:	00090593          	mv	a1,s2
20005a7c:	00f12a23          	sw	a5,20(sp)
20005a80:	1e412783          	lw	a5,484(sp)
20005a84:	00040513          	mv	a0,s0
20005a88:	11112023          	sw	a7,256(sp)
20005a8c:	00f12c23          	sw	a5,24(sp)
20005a90:	1e812783          	lw	a5,488(sp)
20005a94:	11012223          	sw	a6,260(sp)
20005a98:	10e12423          	sw	a4,264(sp)
20005a9c:	00f12e23          	sw	a5,28(sp)
20005aa0:	1ec12783          	lw	a5,492(sp)
20005aa4:	09112023          	sw	a7,128(sp)
20005aa8:	09012223          	sw	a6,132(sp)
20005aac:	02f12023          	sw	a5,32(sp)
20005ab0:	1f012783          	lw	a5,496(sp)
20005ab4:	08e12423          	sw	a4,136(sp)
20005ab8:	02f12223          	sw	a5,36(sp)
20005abc:	1f412783          	lw	a5,500(sp)
20005ac0:	02f12423          	sw	a5,40(sp)
20005ac4:	1f812783          	lw	a5,504(sp)
20005ac8:	02f12623          	sw	a5,44(sp)
20005acc:	1fc12783          	lw	a5,508(sp)
20005ad0:	02f12823          	sw	a5,48(sp)
20005ad4:	fddfd0ef          	jal	ra,20003ab0 <_Z11make_Sphere4vec3f8Material>
20005ad8:	09c48793          	addi	a5,s1,156
20005adc:	00042583          	lw	a1,0(s0)
20005ae0:	00442603          	lw	a2,4(s0)
20005ae4:	00842683          	lw	a3,8(s0)
20005ae8:	00c42703          	lw	a4,12(s0)
20005aec:	00b7a023          	sw	a1,0(a5)
20005af0:	00c7a223          	sw	a2,4(a5)
20005af4:	00d7a423          	sw	a3,8(a5)
20005af8:	00e7a623          	sw	a4,12(a5)
20005afc:	01040413          	addi	s0,s0,16
20005b00:	01078793          	addi	a5,a5,16
20005b04:	fd341ce3          	bne	s0,s3,20005adc <_Z10init_scenev+0x4e8>
20005b08:	00042703          	lw	a4,0(s0)
20005b0c:	00010493          	mv	s1,sp
20005b10:	00003a97          	auipc	s5,0x3
20005b14:	358aaa83          	lw	s5,856(s5) # 20008e68 <__clz_tab+0x200>
20005b18:	00e7a023          	sw	a4,0(a5)
20005b1c:	000a0613          	mv	a2,s4
20005b20:	00090593          	mv	a1,s2
20005b24:	00048513          	mv	a0,s1
20005b28:	00003797          	auipc	a5,0x3
20005b2c:	33c7a783          	lw	a5,828(a5) # 20008e64 <__clz_tab+0x1fc>
20005b30:	08f12023          	sw	a5,128(sp)
20005b34:	09512223          	sw	s5,132(sp)
20005b38:	09512423          	sw	s5,136(sp)
20005b3c:	eddfd0ef          	jal	ra,20003a18 <_Z10make_Light4vec3f>
20005b40:	00012783          	lw	a5,0(sp)
20005b44:	00004417          	auipc	s0,0x4
20005b48:	e3842403          	lw	s0,-456(s0) # 2000997c <_GLOBAL_OFFSET_TABLE_+0x28>
20005b4c:	00003997          	auipc	s3,0x3
20005b50:	3209a983          	lw	s3,800(s3) # 20008e6c <__clz_tab+0x204>
20005b54:	00f42023          	sw	a5,0(s0)
20005b58:	00412783          	lw	a5,4(sp)
20005b5c:	00090593          	mv	a1,s2
20005b60:	00048513          	mv	a0,s1
20005b64:	00f42223          	sw	a5,4(s0)
20005b68:	00812783          	lw	a5,8(sp)
20005b6c:	00003617          	auipc	a2,0x3
20005b70:	30862603          	lw	a2,776(a2) # 20008e74 <__clz_tab+0x20c>
20005b74:	00f42423          	sw	a5,8(s0)
20005b78:	00c12783          	lw	a5,12(sp)
20005b7c:	00f42623          	sw	a5,12(s0)
20005b80:	00003797          	auipc	a5,0x3
20005b84:	2a47a783          	lw	a5,676(a5) # 20008e24 <__clz_tab+0x1bc>
20005b88:	08f12223          	sw	a5,132(sp)
20005b8c:	00003797          	auipc	a5,0x3
20005b90:	2e47a783          	lw	a5,740(a5) # 20008e70 <__clz_tab+0x208>
20005b94:	09312023          	sw	s3,128(sp)
20005b98:	08f12423          	sw	a5,136(sp)
20005b9c:	e7dfd0ef          	jal	ra,20003a18 <_Z10make_Light4vec3f>
20005ba0:	00012783          	lw	a5,0(sp)
20005ba4:	00090593          	mv	a1,s2
20005ba8:	00048513          	mv	a0,s1
20005bac:	00f42823          	sw	a5,16(s0)
20005bb0:	00412783          	lw	a5,4(sp)
20005bb4:	00003617          	auipc	a2,0x3
20005bb8:	2c462603          	lw	a2,708(a2) # 20008e78 <__clz_tab+0x210>
20005bbc:	00f42a23          	sw	a5,20(s0)
20005bc0:	00812783          	lw	a5,8(sp)
20005bc4:	00f42c23          	sw	a5,24(s0)
20005bc8:	00c12783          	lw	a5,12(sp)
20005bcc:	00f42e23          	sw	a5,28(s0)
20005bd0:	09312023          	sw	s3,128(sp)
20005bd4:	09512223          	sw	s5,132(sp)
20005bd8:	09312423          	sw	s3,136(sp)
20005bdc:	e3dfd0ef          	jal	ra,20003a18 <_Z10make_Light4vec3f>
20005be0:	00012783          	lw	a5,0(sp)
20005be4:	22c12083          	lw	ra,556(sp)
20005be8:	22412483          	lw	s1,548(sp)
20005bec:	02f42023          	sw	a5,32(s0)
20005bf0:	00412783          	lw	a5,4(sp)
20005bf4:	22012903          	lw	s2,544(sp)
20005bf8:	21c12983          	lw	s3,540(sp)
20005bfc:	02f42223          	sw	a5,36(s0)
20005c00:	00812783          	lw	a5,8(sp)
20005c04:	21812a03          	lw	s4,536(sp)
20005c08:	21412a83          	lw	s5,532(sp)
20005c0c:	02f42423          	sw	a5,40(s0)
20005c10:	00c12783          	lw	a5,12(sp)
20005c14:	21012b03          	lw	s6,528(sp)
20005c18:	20c12b83          	lw	s7,524(sp)
20005c1c:	02f42623          	sw	a5,44(s0)
20005c20:	22812403          	lw	s0,552(sp)
20005c24:	20812c03          	lw	s8,520(sp)
20005c28:	23010113          	addi	sp,sp,560
20005c2c:	00008067          	ret

20005c30 <_Z10workermainv>:
20005c30:	ff010113          	addi	sp,sp,-16
20005c34:	00112623          	sw	ra,12(sp)
20005c38:	00812423          	sw	s0,8(sp)
20005c3c:	f1402473          	csrr	s0,mhartid
20005c40:	00004797          	auipc	a5,0x4
20005c44:	d287a783          	lw	a5,-728(a5) # 20009968 <_GLOBAL_OFFSET_TABLE_+0x14>
20005c48:	0007a703          	lw	a4,0(a5)
20005c4c:	00100693          	li	a3,1
20005c50:	008696b3          	sll	a3,a3,s0
20005c54:	00072783          	lw	a5,0(a4)
20005c58:	00d7f7b3          	and	a5,a5,a3
20005c5c:	fe078ce3          	beqz	a5,20005c54 <_Z10workermainv+0x24>
20005c60:	00241793          	slli	a5,s0,0x2
20005c64:	00f70733          	add	a4,a4,a5
20005c68:	00072023          	sw	zero,0(a4)
20005c6c:	989ff0ef          	jal	ra,200055f4 <_Z10init_scenev>
20005c70:	00004797          	auipc	a5,0x4
20005c74:	d007a783          	lw	a5,-768(a5) # 20009970 <_GLOBAL_OFFSET_TABLE_+0x1c>
20005c78:	0007a703          	lw	a4,0(a5)
20005c7c:	00004797          	auipc	a5,0x4
20005c80:	ce07a783          	lw	a5,-800(a5) # 2000995c <_GLOBAL_OFFSET_TABLE_+0x8>
20005c84:	0007a603          	lw	a2,0(a5)
20005c88:	00004697          	auipc	a3,0x4
20005c8c:	cf46a683          	lw	a3,-780(a3) # 2000997c <_GLOBAL_OFFSET_TABLE_+0x28>
20005c90:	00004597          	auipc	a1,0x4
20005c94:	ce45a583          	lw	a1,-796(a1) # 20009974 <_GLOBAL_OFFSET_TABLE_+0x20>
20005c98:	00040513          	mv	a0,s0
20005c9c:	ee0ff0ef          	jal	ra,2000537c <_Z6renderiP6SphereiP5Lighti>
20005ca0:	0000006f          	j	20005ca0 <_Z10workermainv+0x70>

20005ca4 <main>:
20005ca4:	ff010113          	addi	sp,sp,-16
20005ca8:	00812423          	sw	s0,8(sp)
20005cac:	00004417          	auipc	s0,0x4
20005cb0:	cbc42403          	lw	s0,-836(s0) # 20009968 <_GLOBAL_OFFSET_TABLE_+0x14>
20005cb4:	00042783          	lw	a5,0(s0)
20005cb8:	00112623          	sw	ra,12(sp)
20005cbc:	00912223          	sw	s1,4(sp)
20005cc0:	fff00713          	li	a4,-1
20005cc4:	00e7a223          	sw	a4,4(a5)
20005cc8:	00e7a423          	sw	a4,8(a5)
20005ccc:	00e7a623          	sw	a4,12(a5)
20005cd0:	f14024f3          	csrr	s1,mhartid
20005cd4:	00003517          	auipc	a0,0x3
20005cd8:	09450513          	addi	a0,a0,148 # 20008d68 <__clz_tab+0x100>
20005cdc:	1dc000ef          	jal	ra,20005eb8 <_Z9UARTWritePKc>
20005ce0:	00048513          	mv	a0,s1
20005ce4:	430000ef          	jal	ra,20006114 <_Z16UARTWriteDecimall>
20005ce8:	00003517          	auipc	a0,0x3
20005cec:	09450513          	addi	a0,a0,148 # 20008d7c <__clz_tab+0x114>
20005cf0:	1c8000ef          	jal	ra,20005eb8 <_Z9UARTWritePKc>
20005cf4:	154000ef          	jal	ra,20005e48 <_Z9UARTFlushv>
20005cf8:	00004797          	auipc	a5,0x4
20005cfc:	c6c7a783          	lw	a5,-916(a5) # 20009964 <_GLOBAL_OFFSET_TABLE_+0x10>
20005d00:	0007a383          	lw	t2,0(a5)
20005d04:	00000593          	li	a1,0
20005d08:	000022b7          	lui	t0,0x2
20005d0c:	00004fb7          	lui	t6,0x4
20005d10:	00006f37          	lui	t5,0x6
20005d14:	00008eb7          	lui	t4,0x8
20005d18:	0000ae37          	lui	t3,0xa
20005d1c:	0000c337          	lui	t1,0xc
20005d20:	0000e8b7          	lui	a7,0xe
20005d24:	00200837          	lui	a6,0x200
20005d28:	01000537          	lui	a0,0x1000
20005d2c:	10000093          	li	ra,256
20005d30:	00038713          	mv	a4,t2
20005d34:	00000693          	li	a3,0
20005d38:	00b6e7b3          	or	a5,a3,a1
20005d3c:	00f72023          	sw	a5,0(a4)
20005d40:	0057e633          	or	a2,a5,t0
20005d44:	00c72223          	sw	a2,4(a4)
20005d48:	01f7e633          	or	a2,a5,t6
20005d4c:	00c72423          	sw	a2,8(a4)
20005d50:	01e7e633          	or	a2,a5,t5
20005d54:	00c72623          	sw	a2,12(a4)
20005d58:	01d7e633          	or	a2,a5,t4
20005d5c:	00c72823          	sw	a2,16(a4)
20005d60:	01c7e633          	or	a2,a5,t3
20005d64:	00c72a23          	sw	a2,20(a4)
20005d68:	0067e633          	or	a2,a5,t1
20005d6c:	00c72c23          	sw	a2,24(a4)
20005d70:	0117e7b3          	or	a5,a5,a7
20005d74:	00f72e23          	sw	a5,28(a4)
20005d78:	010686b3          	add	a3,a3,a6
20005d7c:	02070713          	addi	a4,a4,32
20005d80:	faa69ce3          	bne	a3,a0,20005d38 <main+0x94>
20005d84:	04058593          	addi	a1,a1,64
20005d88:	10038393          	addi	t2,t2,256
20005d8c:	fa1592e3          	bne	a1,ra,20005d30 <main+0x8c>
20005d90:	865ff0ef          	jal	ra,200055f4 <_Z10init_scenev>
20005d94:	00042703          	lw	a4,0(s0)
20005d98:	00e00793          	li	a5,14
20005d9c:	00f72023          	sw	a5,0(a4)
20005da0:	00472783          	lw	a5,4(a4)
20005da4:	fe079ee3          	bnez	a5,20005da0 <main+0xfc>
20005da8:	00003517          	auipc	a0,0x3
20005dac:	ff050513          	addi	a0,a0,-16 # 20008d98 <__clz_tab+0x130>
20005db0:	108000ef          	jal	ra,20005eb8 <_Z9UARTWritePKc>
20005db4:	00042703          	lw	a4,0(s0)
20005db8:	00872783          	lw	a5,8(a4)
20005dbc:	fe079ee3          	bnez	a5,20005db8 <main+0x114>
20005dc0:	00003517          	auipc	a0,0x3
20005dc4:	fe850513          	addi	a0,a0,-24 # 20008da8 <__clz_tab+0x140>
20005dc8:	0f0000ef          	jal	ra,20005eb8 <_Z9UARTWritePKc>
20005dcc:	00042703          	lw	a4,0(s0)
20005dd0:	00c72783          	lw	a5,12(a4)
20005dd4:	fe079ee3          	bnez	a5,20005dd0 <main+0x12c>
20005dd8:	00003517          	auipc	a0,0x3
20005ddc:	fe050513          	addi	a0,a0,-32 # 20008db8 <__clz_tab+0x150>
20005de0:	0d8000ef          	jal	ra,20005eb8 <_Z9UARTWritePKc>
20005de4:	00003517          	auipc	a0,0x3
20005de8:	fe450513          	addi	a0,a0,-28 # 20008dc8 <__clz_tab+0x160>
20005dec:	0cc000ef          	jal	ra,20005eb8 <_Z9UARTWritePKc>
20005df0:	00004797          	auipc	a5,0x4
20005df4:	b807a783          	lw	a5,-1152(a5) # 20009970 <_GLOBAL_OFFSET_TABLE_+0x1c>
20005df8:	0007a703          	lw	a4,0(a5)
20005dfc:	00004797          	auipc	a5,0x4
20005e00:	b607a783          	lw	a5,-1184(a5) # 2000995c <_GLOBAL_OFFSET_TABLE_+0x8>
20005e04:	0007a603          	lw	a2,0(a5)
20005e08:	00048513          	mv	a0,s1
20005e0c:	00004697          	auipc	a3,0x4
20005e10:	b706a683          	lw	a3,-1168(a3) # 2000997c <_GLOBAL_OFFSET_TABLE_+0x28>
20005e14:	00004597          	auipc	a1,0x4
20005e18:	b605a583          	lw	a1,-1184(a1) # 20009974 <_GLOBAL_OFFSET_TABLE_+0x20>
20005e1c:	d60ff0ef          	jal	ra,2000537c <_Z6renderiP6SphereiP5Lighti>
20005e20:	00003517          	auipc	a0,0x3
20005e24:	fb850513          	addi	a0,a0,-72 # 20008dd8 <__clz_tab+0x170>
20005e28:	090000ef          	jal	ra,20005eb8 <_Z9UARTWritePKc>
20005e2c:	0000006f          	j	20005e2c <main+0x188>

20005e30 <_Z11UARTHasDatav>:
20005e30:	00004797          	auipc	a5,0x4
20005e34:	b5c7a783          	lw	a5,-1188(a5) # 2000998c <_GLOBAL_OFFSET_TABLE_+0x38>
20005e38:	0007a783          	lw	a5,0(a5)
20005e3c:	0007a503          	lw	a0,0(a5)
20005e40:	00157513          	andi	a0,a0,1
20005e44:	00008067          	ret

20005e48 <_Z9UARTFlushv>:
20005e48:	ff010113          	addi	sp,sp,-16
20005e4c:	00112623          	sw	ra,12(sp)
20005e50:	0080006f          	j	20005e58 <_Z9UARTFlushv+0x10>
20005e54:	00000013          	nop
20005e58:	fd9ff0ef          	jal	ra,20005e30 <_Z11UARTHasDatav>
20005e5c:	fe051ce3          	bnez	a0,20005e54 <_Z9UARTFlushv+0xc>
20005e60:	00c12083          	lw	ra,12(sp)
20005e64:	01010113          	addi	sp,sp,16
20005e68:	00008067          	ret

20005e6c <_Z8UARTReadv>:
20005e6c:	ff010113          	addi	sp,sp,-16
20005e70:	00112623          	sw	ra,12(sp)
20005e74:	fbdff0ef          	jal	ra,20005e30 <_Z11UARTHasDatav>
20005e78:	00000793          	li	a5,0
20005e7c:	00050c63          	beqz	a0,20005e94 <_Z8UARTReadv+0x28>
20005e80:	00004797          	auipc	a5,0x4
20005e84:	b047a783          	lw	a5,-1276(a5) # 20009984 <_GLOBAL_OFFSET_TABLE_+0x30>
20005e88:	0007a783          	lw	a5,0(a5)
20005e8c:	0007a783          	lw	a5,0(a5)
20005e90:	0ff7f793          	zext.b	a5,a5
20005e94:	00c12083          	lw	ra,12(sp)
20005e98:	00078513          	mv	a0,a5
20005e9c:	01010113          	addi	sp,sp,16
20005ea0:	00008067          	ret

20005ea4 <_Z11UARTPutCharc>:
20005ea4:	00004797          	auipc	a5,0x4
20005ea8:	ae07a783          	lw	a5,-1312(a5) # 20009984 <_GLOBAL_OFFSET_TABLE_+0x30>
20005eac:	0007a783          	lw	a5,0(a5)
20005eb0:	00a7a023          	sw	a0,0(a5)
20005eb4:	00008067          	ret

20005eb8 <_Z9UARTWritePKc>:
20005eb8:	ff010113          	addi	sp,sp,-16
20005ebc:	00912223          	sw	s1,4(sp)
20005ec0:	00112623          	sw	ra,12(sp)
20005ec4:	00812423          	sw	s0,8(sp)
20005ec8:	01212023          	sw	s2,0(sp)
20005ecc:	00050493          	mv	s1,a0
20005ed0:	00054503          	lbu	a0,0(a0)
20005ed4:	02050a63          	beqz	a0,20005f08 <_Z9UARTWritePKc+0x50>
20005ed8:	fcdff0ef          	jal	ra,20005ea4 <_Z11UARTPutCharc>
20005edc:	0014c503          	lbu	a0,1(s1)
20005ee0:	00200413          	li	s0,2
20005ee4:	30000913          	li	s2,768
20005ee8:	02050063          	beqz	a0,20005f08 <_Z9UARTWritePKc+0x50>
20005eec:	00140413          	addi	s0,s0,1
20005ef0:	fb5ff0ef          	jal	ra,20005ea4 <_Z11UARTPutCharc>
20005ef4:	032467b3          	rem	a5,s0,s2
20005ef8:	00848733          	add	a4,s1,s0
20005efc:	02078263          	beqz	a5,20005f20 <_Z9UARTWritePKc+0x68>
20005f00:	fff74503          	lbu	a0,-1(a4)
20005f04:	fe0514e3          	bnez	a0,20005eec <_Z9UARTWritePKc+0x34>
20005f08:	00c12083          	lw	ra,12(sp)
20005f0c:	00812403          	lw	s0,8(sp)
20005f10:	00412483          	lw	s1,4(sp)
20005f14:	00012903          	lw	s2,0(sp)
20005f18:	01010113          	addi	sp,sp,16
20005f1c:	00008067          	ret
20005f20:	f29ff0ef          	jal	ra,20005e48 <_Z9UARTFlushv>
20005f24:	008487b3          	add	a5,s1,s0
20005f28:	fff7c503          	lbu	a0,-1(a5)
20005f2c:	fc0510e3          	bnez	a0,20005eec <_Z9UARTWritePKc+0x34>
20005f30:	00c12083          	lw	ra,12(sp)
20005f34:	00812403          	lw	s0,8(sp)
20005f38:	00412483          	lw	s1,4(sp)
20005f3c:	00012903          	lw	s2,0(sp)
20005f40:	01010113          	addi	sp,sp,16
20005f44:	00008067          	ret

20005f48 <_Z16UARTWriteHexByteh>:
20005f48:	00003797          	auipc	a5,0x3
20005f4c:	f8878793          	addi	a5,a5,-120 # 20008ed0 <_ZL6dither+0x10>
20005f50:	0087a603          	lw	a2,8(a5)
20005f54:	00c7a683          	lw	a3,12(a5)
20005f58:	0007a803          	lw	a6,0(a5)
20005f5c:	0047a583          	lw	a1,4(a5)
20005f60:	00f57713          	andi	a4,a0,15
20005f64:	fd010113          	addi	sp,sp,-48
20005f68:	02070713          	addi	a4,a4,32
20005f6c:	02112623          	sw	ra,44(sp)
20005f70:	00c12a23          	sw	a2,20(sp)
20005f74:	01012623          	sw	a6,12(sp)
20005f78:	00b12823          	sw	a1,16(sp)
20005f7c:	00d12c23          	sw	a3,24(sp)
20005f80:	00270733          	add	a4,a4,sp
20005f84:	00455513          	srli	a0,a0,0x4
20005f88:	fec74683          	lbu	a3,-20(a4)
20005f8c:	02050713          	addi	a4,a0,32
20005f90:	00270533          	add	a0,a4,sp
20005f94:	fec54703          	lbu	a4,-20(a0)
20005f98:	0107c603          	lbu	a2,16(a5)
20005f9c:	00869793          	slli	a5,a3,0x8
20005fa0:	00f767b3          	or	a5,a4,a5
20005fa4:	00810513          	addi	a0,sp,8
20005fa8:	00c10e23          	sb	a2,28(sp)
20005fac:	00010523          	sb	zero,10(sp)
20005fb0:	00f11423          	sh	a5,8(sp)
20005fb4:	f05ff0ef          	jal	ra,20005eb8 <_Z9UARTWritePKc>
20005fb8:	02c12083          	lw	ra,44(sp)
20005fbc:	03010113          	addi	sp,sp,48
20005fc0:	00008067          	ret

20005fc4 <_Z12UARTWriteHexm>:
20005fc4:	00003697          	auipc	a3,0x3
20005fc8:	f0c68693          	addi	a3,a3,-244 # 20008ed0 <_ZL6dither+0x10>
20005fcc:	0086a803          	lw	a6,8(a3)
20005fd0:	00c6a583          	lw	a1,12(a3)
20005fd4:	0006ae03          	lw	t3,0(a3)
20005fd8:	0046a303          	lw	t1,4(a3)
20005fdc:	01855613          	srli	a2,a0,0x18
20005fe0:	fd010113          	addi	sp,sp,-48
20005fe4:	01c55893          	srli	a7,a0,0x1c
20005fe8:	00f67613          	andi	a2,a2,15
20005fec:	01012a23          	sw	a6,20(sp)
20005ff0:	00b12c23          	sw	a1,24(sp)
20005ff4:	00c55793          	srli	a5,a0,0xc
20005ff8:	00855713          	srli	a4,a0,0x8
20005ffc:	00455813          	srli	a6,a0,0x4
20006000:	02088593          	addi	a1,a7,32 # e020 <_start-0x1fff1fe0>
20006004:	02060613          	addi	a2,a2,32
20006008:	02112623          	sw	ra,44(sp)
2000600c:	01c12623          	sw	t3,12(sp)
20006010:	00612823          	sw	t1,16(sp)
20006014:	002588b3          	add	a7,a1,sp
20006018:	00260633          	add	a2,a2,sp
2000601c:	01455593          	srli	a1,a0,0x14
20006020:	00f87813          	andi	a6,a6,15
20006024:	00f7f793          	andi	a5,a5,15
20006028:	00f77713          	andi	a4,a4,15
2000602c:	fec64e83          	lbu	t4,-20(a2)
20006030:	00f5f593          	andi	a1,a1,15
20006034:	02080613          	addi	a2,a6,32 # 200020 <_start-0x1fdfffe0>
20006038:	02078793          	addi	a5,a5,32
2000603c:	02070713          	addi	a4,a4,32
20006040:	00260833          	add	a6,a2,sp
20006044:	00270733          	add	a4,a4,sp
20006048:	002787b3          	add	a5,a5,sp
2000604c:	02058613          	addi	a2,a1,32
20006050:	002605b3          	add	a1,a2,sp
20006054:	fec74f03          	lbu	t5,-20(a4)
20006058:	fec7c783          	lbu	a5,-20(a5)
2000605c:	fec8c703          	lbu	a4,-20(a7)
20006060:	01055613          	srli	a2,a0,0x10
20006064:	ffff08b7          	lui	a7,0xffff0
20006068:	00f57513          	andi	a0,a0,15
2000606c:	00f67613          	andi	a2,a2,15
20006070:	fec5c303          	lbu	t1,-20(a1)
20006074:	fec84e03          	lbu	t3,-20(a6)
20006078:	0ff88893          	addi	a7,a7,255 # ffff00ff <__global_pointer$+0xdffe5f5f>
2000607c:	02050593          	addi	a1,a0,32
20006080:	02060613          	addi	a2,a2,32
20006084:	00258533          	add	a0,a1,sp
20006088:	00260633          	add	a2,a2,sp
2000608c:	008f1f13          	slli	t5,t5,0x8
20006090:	0117f7b3          	and	a5,a5,a7
20006094:	008e9e93          	slli	t4,t4,0x8
20006098:	01177733          	and	a4,a4,a7
2000609c:	ff0105b7          	lui	a1,0xff010
200060a0:	fec54803          	lbu	a6,-20(a0)
200060a4:	fff58593          	addi	a1,a1,-1 # ff00ffff <__global_pointer$+0xdf005e5f>
200060a8:	fec64503          	lbu	a0,-20(a2)
200060ac:	01e7e7b3          	or	a5,a5,t5
200060b0:	01d76733          	or	a4,a4,t4
200060b4:	01031893          	slli	a7,t1,0x10
200060b8:	010e1e13          	slli	t3,t3,0x10
200060bc:	00b7f7b3          	and	a5,a5,a1
200060c0:	00b77733          	and	a4,a4,a1
200060c4:	01000637          	lui	a2,0x1000
200060c8:	0106c303          	lbu	t1,16(a3)
200060cc:	fff60613          	addi	a2,a2,-1 # ffffff <_start-0x1f000001>
200060d0:	01c7e7b3          	or	a5,a5,t3
200060d4:	01176733          	or	a4,a4,a7
200060d8:	01851693          	slli	a3,a0,0x18
200060dc:	01881593          	slli	a1,a6,0x18
200060e0:	00c7f7b3          	and	a5,a5,a2
200060e4:	00c77733          	and	a4,a4,a2
200060e8:	00b7e7b3          	or	a5,a5,a1
200060ec:	00d76733          	or	a4,a4,a3
200060f0:	00010513          	mv	a0,sp
200060f4:	00610e23          	sb	t1,28(sp)
200060f8:	00010423          	sb	zero,8(sp)
200060fc:	00e12023          	sw	a4,0(sp)
20006100:	00f12223          	sw	a5,4(sp)
20006104:	db5ff0ef          	jal	ra,20005eb8 <_Z9UARTWritePKc>
20006108:	02c12083          	lw	ra,44(sp)
2000610c:	03010113          	addi	sp,sp,48
20006110:	00008067          	ret

20006114 <_Z16UARTWriteDecimall>:
20006114:	00003797          	auipc	a5,0x3
20006118:	dd078793          	addi	a5,a5,-560 # 20008ee4 <_ZL6dither+0x24>
2000611c:	00003717          	auipc	a4,0x3
20006120:	ddc70713          	addi	a4,a4,-548 # 20008ef8 <_ZL6dither+0x38>
20006124:	00072e03          	lw	t3,0(a4)
20006128:	00472303          	lw	t1,4(a4)
2000612c:	00875883          	lhu	a7,8(a4)
20006130:	00a74803          	lbu	a6,10(a4)
20006134:	0007a583          	lw	a1,0(a5)
20006138:	00c7a703          	lw	a4,12(a5)
2000613c:	0047a603          	lw	a2,4(a5)
20006140:	0087a683          	lw	a3,8(a5)
20006144:	0107a783          	lw	a5,16(a5)
20006148:	fd010113          	addi	sp,sp,-48
2000614c:	00e12c23          	sw	a4,24(sp)
20006150:	00f12e23          	sw	a5,28(sp)
20006154:	02112623          	sw	ra,44(sp)
20006158:	01c12023          	sw	t3,0(sp)
2000615c:	00612223          	sw	t1,4(sp)
20006160:	01111423          	sh	a7,8(sp)
20006164:	01010523          	sb	a6,10(sp)
20006168:	00b12623          	sw	a1,12(sp)
2000616c:	00c12823          	sw	a2,16(sp)
20006170:	00d12a23          	sw	a3,20(sp)
20006174:	02d00713          	li	a4,45
20006178:	00100793          	li	a5,1
2000617c:	00054663          	bltz	a0,20006188 <_Z16UARTWriteDecimall+0x74>
20006180:	02000713          	li	a4,32
20006184:	00000793          	li	a5,0
20006188:	3b9ad6b7          	lui	a3,0x3b9ad
2000618c:	a0068693          	addi	a3,a3,-1536 # 3b9aca00 <__global_pointer$+0x1b9a2860>
20006190:	02d546b3          	div	a3,a0,a3
20006194:	80000637          	lui	a2,0x80000
20006198:	fff64613          	not	a2,a2
2000619c:	00e10623          	sb	a4,12(sp)
200061a0:	05f5e737          	lui	a4,0x5f5e
200061a4:	10070713          	addi	a4,a4,256 # 5f5e100 <_start-0x1a0a1f00>
200061a8:	00c6f6b3          	and	a3,a3,a2
200061ac:	02e54733          	div	a4,a0,a4
200061b0:	0e069663          	bnez	a3,2000629c <_Z16UARTWriteDecimall+0x188>
200061b4:	00a00593          	li	a1,10
200061b8:	02b76733          	rem	a4,a4,a1
200061bc:	00c77733          	and	a4,a4,a2
200061c0:	10071263          	bnez	a4,200062c4 <_Z16UARTWriteDecimall+0x1b0>
200061c4:	009896b7          	lui	a3,0x989
200061c8:	68068693          	addi	a3,a3,1664 # 989680 <_start-0x1f676980>
200061cc:	02d546b3          	div	a3,a0,a3
200061d0:	02b6e6b3          	rem	a3,a3,a1
200061d4:	00c6f6b3          	and	a3,a3,a2
200061d8:	12069263          	bnez	a3,200062fc <_Z16UARTWriteDecimall+0x1e8>
200061dc:	000f4737          	lui	a4,0xf4
200061e0:	24070713          	addi	a4,a4,576 # f4240 <_start-0x1ff0bdc0>
200061e4:	02e54733          	div	a4,a0,a4
200061e8:	02b76733          	rem	a4,a4,a1
200061ec:	00c77733          	and	a4,a4,a2
200061f0:	14071263          	bnez	a4,20006334 <_Z16UARTWriteDecimall+0x220>
200061f4:	000186b7          	lui	a3,0x18
200061f8:	6a068693          	addi	a3,a3,1696 # 186a0 <_start-0x1ffe7960>
200061fc:	02d546b3          	div	a3,a0,a3
20006200:	02b6e6b3          	rem	a3,a3,a1
20006204:	00c6f6b3          	and	a3,a3,a2
20006208:	16069263          	bnez	a3,2000636c <_Z16UARTWriteDecimall+0x258>
2000620c:	00002737          	lui	a4,0x2
20006210:	71070713          	addi	a4,a4,1808 # 2710 <_start-0x1fffd8f0>
20006214:	02e54733          	div	a4,a0,a4
20006218:	02b76733          	rem	a4,a4,a1
2000621c:	00c77733          	and	a4,a4,a2
20006220:	18071263          	bnez	a4,200063a4 <_Z16UARTWriteDecimall+0x290>
20006224:	3e800693          	li	a3,1000
20006228:	02d546b3          	div	a3,a0,a3
2000622c:	02b6e6b3          	rem	a3,a3,a1
20006230:	00c6f6b3          	and	a3,a3,a2
20006234:	1a069263          	bnez	a3,200063d8 <_Z16UARTWriteDecimall+0x2c4>
20006238:	06400713          	li	a4,100
2000623c:	02e54733          	div	a4,a0,a4
20006240:	02b76733          	rem	a4,a4,a1
20006244:	00c77733          	and	a4,a4,a2
20006248:	1c071263          	bnez	a4,2000640c <_Z16UARTWriteDecimall+0x2f8>
2000624c:	02b54733          	div	a4,a0,a1
20006250:	02b76733          	rem	a4,a4,a1
20006254:	00c77733          	and	a4,a4,a2
20006258:	1e071263          	bnez	a4,2000643c <_Z16UARTWriteDecimall+0x328>
2000625c:	00a00713          	li	a4,10
20006260:	02e56733          	rem	a4,a0,a4
20006264:	02078793          	addi	a5,a5,32
20006268:	002787b3          	add	a5,a5,sp
2000626c:	00c10513          	addi	a0,sp,12
20006270:	fe0786a3          	sb	zero,-19(a5)
20006274:	00171713          	slli	a4,a4,0x1
20006278:	00175713          	srli	a4,a4,0x1
2000627c:	02070713          	addi	a4,a4,32
20006280:	00270733          	add	a4,a4,sp
20006284:	fe074703          	lbu	a4,-32(a4)
20006288:	fee78623          	sb	a4,-20(a5)
2000628c:	c2dff0ef          	jal	ra,20005eb8 <_Z9UARTWritePKc>
20006290:	02c12083          	lw	ra,44(sp)
20006294:	03010113          	addi	sp,sp,48
20006298:	00008067          	ret
2000629c:	02068693          	addi	a3,a3,32
200062a0:	002686b3          	add	a3,a3,sp
200062a4:	fe06c583          	lbu	a1,-32(a3)
200062a8:	02078693          	addi	a3,a5,32
200062ac:	002686b3          	add	a3,a3,sp
200062b0:	feb68623          	sb	a1,-20(a3)
200062b4:	00a00693          	li	a3,10
200062b8:	02d76733          	rem	a4,a4,a3
200062bc:	00178793          	addi	a5,a5,1
200062c0:	00c77733          	and	a4,a4,a2
200062c4:	009896b7          	lui	a3,0x989
200062c8:	68068693          	addi	a3,a3,1664 # 989680 <_start-0x1f676980>
200062cc:	02d546b3          	div	a3,a0,a3
200062d0:	02070713          	addi	a4,a4,32
200062d4:	00270733          	add	a4,a4,sp
200062d8:	fe074603          	lbu	a2,-32(a4)
200062dc:	02078713          	addi	a4,a5,32
200062e0:	00270733          	add	a4,a4,sp
200062e4:	fec70623          	sb	a2,-20(a4)
200062e8:	00a00713          	li	a4,10
200062ec:	00178793          	addi	a5,a5,1
200062f0:	02e6e6b3          	rem	a3,a3,a4
200062f4:	00169693          	slli	a3,a3,0x1
200062f8:	0016d693          	srli	a3,a3,0x1
200062fc:	000f4737          	lui	a4,0xf4
20006300:	24070713          	addi	a4,a4,576 # f4240 <_start-0x1ff0bdc0>
20006304:	02e54733          	div	a4,a0,a4
20006308:	02068693          	addi	a3,a3,32
2000630c:	002686b3          	add	a3,a3,sp
20006310:	fe06c603          	lbu	a2,-32(a3)
20006314:	02078693          	addi	a3,a5,32
20006318:	002686b3          	add	a3,a3,sp
2000631c:	fec68623          	sb	a2,-20(a3)
20006320:	00a00693          	li	a3,10
20006324:	00178793          	addi	a5,a5,1
20006328:	02d76733          	rem	a4,a4,a3
2000632c:	00171713          	slli	a4,a4,0x1
20006330:	00175713          	srli	a4,a4,0x1
20006334:	000186b7          	lui	a3,0x18
20006338:	6a068693          	addi	a3,a3,1696 # 186a0 <_start-0x1ffe7960>
2000633c:	02d546b3          	div	a3,a0,a3
20006340:	02070713          	addi	a4,a4,32
20006344:	00270733          	add	a4,a4,sp
20006348:	fe074603          	lbu	a2,-32(a4)
2000634c:	02078713          	addi	a4,a5,32
20006350:	00270733          	add	a4,a4,sp
20006354:	fec70623          	sb	a2,-20(a4)
20006358:	00a00713          	li	a4,10
2000635c:	00178793          	addi	a5,a5,1
20006360:	02e6e6b3          	rem	a3,a3,a4
20006364:	00169693          	slli	a3,a3,0x1
20006368:	0016d693          	srli	a3,a3,0x1
2000636c:	00002737          	lui	a4,0x2
20006370:	71070713          	addi	a4,a4,1808 # 2710 <_start-0x1fffd8f0>
20006374:	02e54733          	div	a4,a0,a4
20006378:	02068693          	addi	a3,a3,32
2000637c:	002686b3          	add	a3,a3,sp
20006380:	fe06c603          	lbu	a2,-32(a3)
20006384:	02078693          	addi	a3,a5,32
20006388:	002686b3          	add	a3,a3,sp
2000638c:	fec68623          	sb	a2,-20(a3)
20006390:	00a00693          	li	a3,10
20006394:	00178793          	addi	a5,a5,1
20006398:	02d76733          	rem	a4,a4,a3
2000639c:	00171713          	slli	a4,a4,0x1
200063a0:	00175713          	srli	a4,a4,0x1
200063a4:	3e800693          	li	a3,1000
200063a8:	02d546b3          	div	a3,a0,a3
200063ac:	02070713          	addi	a4,a4,32
200063b0:	00270733          	add	a4,a4,sp
200063b4:	fe074603          	lbu	a2,-32(a4)
200063b8:	02078713          	addi	a4,a5,32
200063bc:	00270733          	add	a4,a4,sp
200063c0:	fec70623          	sb	a2,-20(a4)
200063c4:	00a00713          	li	a4,10
200063c8:	00178793          	addi	a5,a5,1
200063cc:	02e6e6b3          	rem	a3,a3,a4
200063d0:	00169693          	slli	a3,a3,0x1
200063d4:	0016d693          	srli	a3,a3,0x1
200063d8:	06400713          	li	a4,100
200063dc:	02e54733          	div	a4,a0,a4
200063e0:	02068693          	addi	a3,a3,32
200063e4:	002686b3          	add	a3,a3,sp
200063e8:	fe06c603          	lbu	a2,-32(a3)
200063ec:	02078693          	addi	a3,a5,32
200063f0:	002686b3          	add	a3,a3,sp
200063f4:	fec68623          	sb	a2,-20(a3)
200063f8:	00a00693          	li	a3,10
200063fc:	00178793          	addi	a5,a5,1
20006400:	02d76733          	rem	a4,a4,a3
20006404:	00171713          	slli	a4,a4,0x1
20006408:	00175713          	srli	a4,a4,0x1
2000640c:	00a00613          	li	a2,10
20006410:	02c546b3          	div	a3,a0,a2
20006414:	02070713          	addi	a4,a4,32
20006418:	00270733          	add	a4,a4,sp
2000641c:	fe074583          	lbu	a1,-32(a4)
20006420:	02078713          	addi	a4,a5,32
20006424:	00270733          	add	a4,a4,sp
20006428:	feb70623          	sb	a1,-20(a4)
2000642c:	00178793          	addi	a5,a5,1
20006430:	02c6e733          	rem	a4,a3,a2
20006434:	00171713          	slli	a4,a4,0x1
20006438:	00175713          	srli	a4,a4,0x1
2000643c:	02070713          	addi	a4,a4,32
20006440:	00270733          	add	a4,a4,sp
20006444:	fe074683          	lbu	a3,-32(a4)
20006448:	02078713          	addi	a4,a5,32
2000644c:	00270733          	add	a4,a4,sp
20006450:	00178793          	addi	a5,a5,1
20006454:	fed70623          	sb	a3,-20(a4)
20006458:	e05ff06f          	j	2000625c <_Z16UARTWriteDecimall+0x148>

2000645c <tan>:
2000645c:	00159713          	slli	a4,a1,0x1
20006460:	3fe926b7          	lui	a3,0x3fe92
20006464:	00175713          	srli	a4,a4,0x1
20006468:	1fb68693          	addi	a3,a3,507 # 3fe921fb <__global_pointer$+0x1fe8805b>
2000646c:	00e6ca63          	blt	a3,a4,20006480 <tan+0x24>
20006470:	00100713          	li	a4,1
20006474:	00000613          	li	a2,0
20006478:	00000693          	li	a3,0
2000647c:	5350106f          	j	200081b0 <__kernel_tan>
20006480:	fe010113          	addi	sp,sp,-32
20006484:	00112e23          	sw	ra,28(sp)
20006488:	7ff006b7          	lui	a3,0x7ff00
2000648c:	00d74e63          	blt	a4,a3,200064a8 <tan+0x4c>
20006490:	00050613          	mv	a2,a0
20006494:	00058693          	mv	a3,a1
20006498:	c2cfb0ef          	jal	ra,200018c4 <__subdf3>
2000649c:	01c12083          	lw	ra,28(sp)
200064a0:	02010113          	addi	sp,sp,32
200064a4:	00008067          	ret
200064a8:	00010613          	mv	a2,sp
200064ac:	1ac000ef          	jal	ra,20006658 <__ieee754_rem_pio2>
200064b0:	00151513          	slli	a0,a0,0x1
200064b4:	00257513          	andi	a0,a0,2
200064b8:	00100713          	li	a4,1
200064bc:	40a70733          	sub	a4,a4,a0
200064c0:	00812603          	lw	a2,8(sp)
200064c4:	00c12683          	lw	a3,12(sp)
200064c8:	00012503          	lw	a0,0(sp)
200064cc:	00412583          	lw	a1,4(sp)
200064d0:	4e1010ef          	jal	ra,200081b0 <__kernel_tan>
200064d4:	fc9ff06f          	j	2000649c <tan+0x40>

200064d8 <powf>:
200064d8:	ff010113          	addi	sp,sp,-16
200064dc:	00812423          	sw	s0,8(sp)
200064e0:	00912223          	sw	s1,4(sp)
200064e4:	01212023          	sw	s2,0(sp)
200064e8:	00058413          	mv	s0,a1
200064ec:	00112623          	sw	ra,12(sp)
200064f0:	00050913          	mv	s2,a0
200064f4:	738000ef          	jal	ra,20006c2c <__ieee754_powf>
200064f8:	00050493          	mv	s1,a0
200064fc:	00040593          	mv	a1,s0
20006500:	00040513          	mv	a0,s0
20006504:	a9cfd0ef          	jal	ra,200037a0 <__unordsf2>
20006508:	0a051c63          	bnez	a0,200065c0 <powf+0xe8>
2000650c:	00000593          	li	a1,0
20006510:	00090513          	mv	a0,s2
20006514:	a24fd0ef          	jal	ra,20003738 <__eqsf2>
20006518:	02051e63          	bnez	a0,20006554 <powf+0x7c>
2000651c:	00000593          	li	a1,0
20006520:	00040513          	mv	a0,s0
20006524:	a14fd0ef          	jal	ra,20003738 <__eqsf2>
20006528:	0a050a63          	beqz	a0,200065dc <powf+0x104>
2000652c:	00040513          	mv	a0,s0
20006530:	5a4020ef          	jal	ra,20008ad4 <finitef>
20006534:	08050663          	beqz	a0,200065c0 <powf+0xe8>
20006538:	00000593          	li	a1,0
2000653c:	00040513          	mv	a0,s0
20006540:	cdcfc0ef          	jal	ra,20002a1c <__lesf2>
20006544:	06055e63          	bgez	a0,200065c0 <powf+0xe8>
20006548:	b59f90ef          	jal	ra,200000a0 <__errno>
2000654c:	02200793          	li	a5,34
20006550:	0400006f          	j	20006590 <powf+0xb8>
20006554:	00048513          	mv	a0,s1
20006558:	57c020ef          	jal	ra,20008ad4 <finitef>
2000655c:	02051e63          	bnez	a0,20006598 <powf+0xc0>
20006560:	00090513          	mv	a0,s2
20006564:	570020ef          	jal	ra,20008ad4 <finitef>
20006568:	02050863          	beqz	a0,20006598 <powf+0xc0>
2000656c:	00040513          	mv	a0,s0
20006570:	564020ef          	jal	ra,20008ad4 <finitef>
20006574:	02050263          	beqz	a0,20006598 <powf+0xc0>
20006578:	00048593          	mv	a1,s1
2000657c:	00048513          	mv	a0,s1
20006580:	a20fd0ef          	jal	ra,200037a0 <__unordsf2>
20006584:	fc0502e3          	beqz	a0,20006548 <powf+0x70>
20006588:	b19f90ef          	jal	ra,200000a0 <__errno>
2000658c:	02100793          	li	a5,33
20006590:	00f52023          	sw	a5,0(a0)
20006594:	02c0006f          	j	200065c0 <powf+0xe8>
20006598:	00000593          	li	a1,0
2000659c:	00048513          	mv	a0,s1
200065a0:	998fd0ef          	jal	ra,20003738 <__eqsf2>
200065a4:	00051e63          	bnez	a0,200065c0 <powf+0xe8>
200065a8:	00090513          	mv	a0,s2
200065ac:	528020ef          	jal	ra,20008ad4 <finitef>
200065b0:	00050863          	beqz	a0,200065c0 <powf+0xe8>
200065b4:	00040513          	mv	a0,s0
200065b8:	51c020ef          	jal	ra,20008ad4 <finitef>
200065bc:	f80516e3          	bnez	a0,20006548 <powf+0x70>
200065c0:	00c12083          	lw	ra,12(sp)
200065c4:	00812403          	lw	s0,8(sp)
200065c8:	00012903          	lw	s2,0(sp)
200065cc:	00048513          	mv	a0,s1
200065d0:	00412483          	lw	s1,4(sp)
200065d4:	01010113          	addi	sp,sp,16
200065d8:	00008067          	ret
200065dc:	2000a7b7          	lui	a5,0x2000a
200065e0:	99c7a483          	lw	s1,-1636(a5) # 2000999c <_impure_ptr+0x4>
200065e4:	fddff06f          	j	200065c0 <powf+0xe8>

200065e8 <sqrtf>:
200065e8:	ff010113          	addi	sp,sp,-16
200065ec:	00812423          	sw	s0,8(sp)
200065f0:	00912223          	sw	s1,4(sp)
200065f4:	00112623          	sw	ra,12(sp)
200065f8:	00050493          	mv	s1,a0
200065fc:	010010ef          	jal	ra,2000760c <__ieee754_sqrtf>
20006600:	00050413          	mv	s0,a0
20006604:	00048593          	mv	a1,s1
20006608:	00048513          	mv	a0,s1
2000660c:	994fd0ef          	jal	ra,200037a0 <__unordsf2>
20006610:	02051863          	bnez	a0,20006640 <sqrtf+0x58>
20006614:	00000593          	li	a1,0
20006618:	00048513          	mv	a0,s1
2000661c:	c00fc0ef          	jal	ra,20002a1c <__lesf2>
20006620:	02055063          	bgez	a0,20006640 <sqrtf+0x58>
20006624:	a7df90ef          	jal	ra,200000a0 <__errno>
20006628:	02100793          	li	a5,33
2000662c:	00000593          	li	a1,0
20006630:	00f52023          	sw	a5,0(a0)
20006634:	00058513          	mv	a0,a1
20006638:	ff9fb0ef          	jal	ra,20002630 <__divsf3>
2000663c:	00050413          	mv	s0,a0
20006640:	00c12083          	lw	ra,12(sp)
20006644:	00040513          	mv	a0,s0
20006648:	00812403          	lw	s0,8(sp)
2000664c:	00412483          	lw	s1,4(sp)
20006650:	01010113          	addi	sp,sp,16
20006654:	00008067          	ret

20006658 <__ieee754_rem_pio2>:
20006658:	fa010113          	addi	sp,sp,-96
2000665c:	05212823          	sw	s2,80(sp)
20006660:	3fe926b7          	lui	a3,0x3fe92
20006664:	00159913          	slli	s2,a1,0x1
20006668:	04812c23          	sw	s0,88(sp)
2000666c:	04112e23          	sw	ra,92(sp)
20006670:	04912a23          	sw	s1,84(sp)
20006674:	05312623          	sw	s3,76(sp)
20006678:	05412423          	sw	s4,72(sp)
2000667c:	05512223          	sw	s5,68(sp)
20006680:	05612023          	sw	s6,64(sp)
20006684:	03712e23          	sw	s7,60(sp)
20006688:	03812c23          	sw	s8,56(sp)
2000668c:	03912a23          	sw	s9,52(sp)
20006690:	03a12823          	sw	s10,48(sp)
20006694:	03b12623          	sw	s11,44(sp)
20006698:	00195913          	srli	s2,s2,0x1
2000669c:	1fb68693          	addi	a3,a3,507 # 3fe921fb <__global_pointer$+0x1fe8805b>
200066a0:	00060413          	mv	s0,a2
200066a4:	0126ce63          	blt	a3,s2,200066c0 <__ieee754_rem_pio2+0x68>
200066a8:	00a42023          	sw	a0,0(s0)
200066ac:	00b42223          	sw	a1,4(s0)
200066b0:	00042423          	sw	zero,8(s0)
200066b4:	00042623          	sw	zero,12(s0)
200066b8:	00000493          	li	s1,0
200066bc:	0740006f          	j	20006730 <__ieee754_rem_pio2+0xd8>
200066c0:	4002e6b7          	lui	a3,0x4002e
200066c4:	97b68693          	addi	a3,a3,-1669 # 4002d97b <__global_pointer$+0x200237db>
200066c8:	1926ce63          	blt	a3,s2,20006864 <__ieee754_rem_pio2+0x20c>
200066cc:	0eb05663          	blez	a1,200067b8 <__ieee754_rem_pio2+0x160>
200066d0:	8001a603          	lw	a2,-2048(gp) # 200099a0 <_impure_ptr+0x8>
200066d4:	8041a683          	lw	a3,-2044(gp) # 200099a4 <_impure_ptr+0xc>
200066d8:	9ecfb0ef          	jal	ra,200018c4 <__subdf3>
200066dc:	3ff927b7          	lui	a5,0x3ff92
200066e0:	1fb78793          	addi	a5,a5,507 # 3ff921fb <__global_pointer$+0x1ff8805b>
200066e4:	00050993          	mv	s3,a0
200066e8:	00058493          	mv	s1,a1
200066ec:	08f90263          	beq	s2,a5,20006770 <__ieee754_rem_pio2+0x118>
200066f0:	8081a603          	lw	a2,-2040(gp) # 200099a8 <_impure_ptr+0x10>
200066f4:	80c1a683          	lw	a3,-2036(gp) # 200099ac <_impure_ptr+0x14>
200066f8:	9ccfb0ef          	jal	ra,200018c4 <__subdf3>
200066fc:	00050613          	mv	a2,a0
20006700:	00058693          	mv	a3,a1
20006704:	00a42023          	sw	a0,0(s0)
20006708:	00b42223          	sw	a1,4(s0)
2000670c:	00098513          	mv	a0,s3
20006710:	00048593          	mv	a1,s1
20006714:	9b0fb0ef          	jal	ra,200018c4 <__subdf3>
20006718:	8081a603          	lw	a2,-2040(gp) # 200099a8 <_impure_ptr+0x10>
2000671c:	80c1a683          	lw	a3,-2036(gp) # 200099ac <_impure_ptr+0x14>
20006720:	9a4fb0ef          	jal	ra,200018c4 <__subdf3>
20006724:	00a42423          	sw	a0,8(s0)
20006728:	00b42623          	sw	a1,12(s0)
2000672c:	00100493          	li	s1,1
20006730:	05c12083          	lw	ra,92(sp)
20006734:	05812403          	lw	s0,88(sp)
20006738:	05012903          	lw	s2,80(sp)
2000673c:	04c12983          	lw	s3,76(sp)
20006740:	04812a03          	lw	s4,72(sp)
20006744:	04412a83          	lw	s5,68(sp)
20006748:	04012b03          	lw	s6,64(sp)
2000674c:	03c12b83          	lw	s7,60(sp)
20006750:	03812c03          	lw	s8,56(sp)
20006754:	03412c83          	lw	s9,52(sp)
20006758:	03012d03          	lw	s10,48(sp)
2000675c:	02c12d83          	lw	s11,44(sp)
20006760:	00048513          	mv	a0,s1
20006764:	05412483          	lw	s1,84(sp)
20006768:	06010113          	addi	sp,sp,96
2000676c:	00008067          	ret
20006770:	8101a603          	lw	a2,-2032(gp) # 200099b0 <_impure_ptr+0x18>
20006774:	8141a683          	lw	a3,-2028(gp) # 200099b4 <_impure_ptr+0x1c>
20006778:	94cfb0ef          	jal	ra,200018c4 <__subdf3>
2000677c:	8181a603          	lw	a2,-2024(gp) # 200099b8 <_impure_ptr+0x20>
20006780:	81c1a683          	lw	a3,-2020(gp) # 200099bc <_impure_ptr+0x24>
20006784:	00050913          	mv	s2,a0
20006788:	00058493          	mv	s1,a1
2000678c:	938fb0ef          	jal	ra,200018c4 <__subdf3>
20006790:	00050613          	mv	a2,a0
20006794:	00058693          	mv	a3,a1
20006798:	00a42023          	sw	a0,0(s0)
2000679c:	00b42223          	sw	a1,4(s0)
200067a0:	00090513          	mv	a0,s2
200067a4:	00048593          	mv	a1,s1
200067a8:	91cfb0ef          	jal	ra,200018c4 <__subdf3>
200067ac:	8181a603          	lw	a2,-2024(gp) # 200099b8 <_impure_ptr+0x20>
200067b0:	81c1a683          	lw	a3,-2020(gp) # 200099bc <_impure_ptr+0x24>
200067b4:	f6dff06f          	j	20006720 <__ieee754_rem_pio2+0xc8>
200067b8:	8001a603          	lw	a2,-2048(gp) # 200099a0 <_impure_ptr+0x8>
200067bc:	8041a683          	lw	a3,-2044(gp) # 200099a4 <_impure_ptr+0xc>
200067c0:	b5df90ef          	jal	ra,2000031c <__adddf3>
200067c4:	3ff927b7          	lui	a5,0x3ff92
200067c8:	1fb78793          	addi	a5,a5,507 # 3ff921fb <__global_pointer$+0x1ff8805b>
200067cc:	00050993          	mv	s3,a0
200067d0:	00058493          	mv	s1,a1
200067d4:	04f90463          	beq	s2,a5,2000681c <__ieee754_rem_pio2+0x1c4>
200067d8:	8081a603          	lw	a2,-2040(gp) # 200099a8 <_impure_ptr+0x10>
200067dc:	80c1a683          	lw	a3,-2036(gp) # 200099ac <_impure_ptr+0x14>
200067e0:	b3df90ef          	jal	ra,2000031c <__adddf3>
200067e4:	00050613          	mv	a2,a0
200067e8:	00058693          	mv	a3,a1
200067ec:	00a42023          	sw	a0,0(s0)
200067f0:	00b42223          	sw	a1,4(s0)
200067f4:	00098513          	mv	a0,s3
200067f8:	00048593          	mv	a1,s1
200067fc:	8c8fb0ef          	jal	ra,200018c4 <__subdf3>
20006800:	8081a603          	lw	a2,-2040(gp) # 200099a8 <_impure_ptr+0x10>
20006804:	80c1a683          	lw	a3,-2036(gp) # 200099ac <_impure_ptr+0x14>
20006808:	b15f90ef          	jal	ra,2000031c <__adddf3>
2000680c:	00a42423          	sw	a0,8(s0)
20006810:	00b42623          	sw	a1,12(s0)
20006814:	fff00493          	li	s1,-1
20006818:	f19ff06f          	j	20006730 <__ieee754_rem_pio2+0xd8>
2000681c:	8101a603          	lw	a2,-2032(gp) # 200099b0 <_impure_ptr+0x18>
20006820:	8141a683          	lw	a3,-2028(gp) # 200099b4 <_impure_ptr+0x1c>
20006824:	af9f90ef          	jal	ra,2000031c <__adddf3>
20006828:	8181a603          	lw	a2,-2024(gp) # 200099b8 <_impure_ptr+0x20>
2000682c:	81c1a683          	lw	a3,-2020(gp) # 200099bc <_impure_ptr+0x24>
20006830:	00050913          	mv	s2,a0
20006834:	00058493          	mv	s1,a1
20006838:	ae5f90ef          	jal	ra,2000031c <__adddf3>
2000683c:	00050613          	mv	a2,a0
20006840:	00058693          	mv	a3,a1
20006844:	00a42023          	sw	a0,0(s0)
20006848:	00b42223          	sw	a1,4(s0)
2000684c:	00090513          	mv	a0,s2
20006850:	00048593          	mv	a1,s1
20006854:	870fb0ef          	jal	ra,200018c4 <__subdf3>
20006858:	8181a603          	lw	a2,-2024(gp) # 200099b8 <_impure_ptr+0x20>
2000685c:	81c1a683          	lw	a3,-2020(gp) # 200099bc <_impure_ptr+0x24>
20006860:	fa9ff06f          	j	20006808 <__ieee754_rem_pio2+0x1b0>
20006864:	413926b7          	lui	a3,0x41392
20006868:	1fb68693          	addi	a3,a3,507 # 413921fb <__global_pointer$+0x2138805b>
2000686c:	00058c93          	mv	s9,a1
20006870:	2926cc63          	blt	a3,s2,20006b08 <__ieee754_rem_pio2+0x4b0>
20006874:	76d010ef          	jal	ra,200087e0 <fabs>
20006878:	8201a603          	lw	a2,-2016(gp) # 200099c0 <_impure_ptr+0x28>
2000687c:	8241a683          	lw	a3,-2012(gp) # 200099c4 <_impure_ptr+0x2c>
20006880:	00050a13          	mv	s4,a0
20006884:	00058993          	mv	s3,a1
20006888:	a31fa0ef          	jal	ra,200012b8 <__muldf3>
2000688c:	8281a603          	lw	a2,-2008(gp) # 200099c8 <_impure_ptr+0x30>
20006890:	82c1a683          	lw	a3,-2004(gp) # 200099cc <_impure_ptr+0x34>
20006894:	a89f90ef          	jal	ra,2000031c <__adddf3>
20006898:	81dfb0ef          	jal	ra,200020b4 <__fixdfsi>
2000689c:	00050493          	mv	s1,a0
200068a0:	895fb0ef          	jal	ra,20002134 <__floatsidf>
200068a4:	8001a603          	lw	a2,-2048(gp) # 200099a0 <_impure_ptr+0x8>
200068a8:	8041a683          	lw	a3,-2044(gp) # 200099a4 <_impure_ptr+0xc>
200068ac:	00050c13          	mv	s8,a0
200068b0:	00058b93          	mv	s7,a1
200068b4:	a05fa0ef          	jal	ra,200012b8 <__muldf3>
200068b8:	00050613          	mv	a2,a0
200068bc:	00058693          	mv	a3,a1
200068c0:	000a0513          	mv	a0,s4
200068c4:	00098593          	mv	a1,s3
200068c8:	ffdfa0ef          	jal	ra,200018c4 <__subdf3>
200068cc:	8081a603          	lw	a2,-2040(gp) # 200099a8 <_impure_ptr+0x10>
200068d0:	80c1a683          	lw	a3,-2036(gp) # 200099ac <_impure_ptr+0x14>
200068d4:	00050b13          	mv	s6,a0
200068d8:	00058a93          	mv	s5,a1
200068dc:	000c0513          	mv	a0,s8
200068e0:	000b8593          	mv	a1,s7
200068e4:	9d5fa0ef          	jal	ra,200012b8 <__muldf3>
200068e8:	01f00793          	li	a5,31
200068ec:	00050a13          	mv	s4,a0
200068f0:	00058993          	mv	s3,a1
200068f4:	00050613          	mv	a2,a0
200068f8:	00058693          	mv	a3,a1
200068fc:	000b0513          	mv	a0,s6
20006900:	000a8593          	mv	a1,s5
20006904:	0297c863          	blt	a5,s1,20006934 <__ieee754_rem_pio2+0x2dc>
20006908:	fff48713          	addi	a4,s1,-1
2000690c:	200097b7          	lui	a5,0x20009
20006910:	00271713          	slli	a4,a4,0x2
20006914:	f0478793          	addi	a5,a5,-252 # 20008f04 <npio2_hw>
20006918:	00e787b3          	add	a5,a5,a4
2000691c:	0007a783          	lw	a5,0(a5)
20006920:	01278a63          	beq	a5,s2,20006934 <__ieee754_rem_pio2+0x2dc>
20006924:	fa1fa0ef          	jal	ra,200018c4 <__subdf3>
20006928:	00a42023          	sw	a0,0(s0)
2000692c:	00b42223          	sw	a1,4(s0)
20006930:	0280006f          	j	20006958 <__ieee754_rem_pio2+0x300>
20006934:	f91fa0ef          	jal	ra,200018c4 <__subdf3>
20006938:	0145d793          	srli	a5,a1,0x14
2000693c:	41495913          	srai	s2,s2,0x14
20006940:	7ff7f793          	andi	a5,a5,2047
20006944:	40f907b3          	sub	a5,s2,a5
20006948:	01000713          	li	a4,16
2000694c:	04f74e63          	blt	a4,a5,200069a8 <__ieee754_rem_pio2+0x350>
20006950:	00a42023          	sw	a0,0(s0)
20006954:	00b42223          	sw	a1,4(s0)
20006958:	00042703          	lw	a4,0(s0)
2000695c:	00442903          	lw	s2,4(s0)
20006960:	000b0513          	mv	a0,s6
20006964:	00070613          	mv	a2,a4
20006968:	00090693          	mv	a3,s2
2000696c:	000a8593          	mv	a1,s5
20006970:	f55fa0ef          	jal	ra,200018c4 <__subdf3>
20006974:	000a0613          	mv	a2,s4
20006978:	00098693          	mv	a3,s3
2000697c:	f49fa0ef          	jal	ra,200018c4 <__subdf3>
20006980:	00a42423          	sw	a0,8(s0)
20006984:	00b42623          	sw	a1,12(s0)
20006988:	da0cd4e3          	bgez	s9,20006730 <__ieee754_rem_pio2+0xd8>
2000698c:	800007b7          	lui	a5,0x80000
20006990:	0127c933          	xor	s2,a5,s2
20006994:	01242223          	sw	s2,4(s0)
20006998:	00b7c7b3          	xor	a5,a5,a1
2000699c:	00f42623          	sw	a5,12(s0)
200069a0:	409004b3          	neg	s1,s1
200069a4:	d8dff06f          	j	20006730 <__ieee754_rem_pio2+0xd8>
200069a8:	8101a603          	lw	a2,-2032(gp) # 200099b0 <_impure_ptr+0x18>
200069ac:	8141a683          	lw	a3,-2028(gp) # 200099b4 <_impure_ptr+0x1c>
200069b0:	000c0513          	mv	a0,s8
200069b4:	000b8593          	mv	a1,s7
200069b8:	901fa0ef          	jal	ra,200012b8 <__muldf3>
200069bc:	00050a13          	mv	s4,a0
200069c0:	00058993          	mv	s3,a1
200069c4:	00050613          	mv	a2,a0
200069c8:	00058693          	mv	a3,a1
200069cc:	000b0513          	mv	a0,s6
200069d0:	000a8593          	mv	a1,s5
200069d4:	ef1fa0ef          	jal	ra,200018c4 <__subdf3>
200069d8:	00050613          	mv	a2,a0
200069dc:	00058693          	mv	a3,a1
200069e0:	00050d93          	mv	s11,a0
200069e4:	00058d13          	mv	s10,a1
200069e8:	000b0513          	mv	a0,s6
200069ec:	000a8593          	mv	a1,s5
200069f0:	ed5fa0ef          	jal	ra,200018c4 <__subdf3>
200069f4:	000a0613          	mv	a2,s4
200069f8:	00098693          	mv	a3,s3
200069fc:	ec9fa0ef          	jal	ra,200018c4 <__subdf3>
20006a00:	8181a603          	lw	a2,-2024(gp) # 200099b8 <_impure_ptr+0x20>
20006a04:	81c1a683          	lw	a3,-2020(gp) # 200099bc <_impure_ptr+0x24>
20006a08:	00050a13          	mv	s4,a0
20006a0c:	00058993          	mv	s3,a1
20006a10:	000c0513          	mv	a0,s8
20006a14:	000b8593          	mv	a1,s7
20006a18:	8a1fa0ef          	jal	ra,200012b8 <__muldf3>
20006a1c:	000a0613          	mv	a2,s4
20006a20:	00098693          	mv	a3,s3
20006a24:	ea1fa0ef          	jal	ra,200018c4 <__subdf3>
20006a28:	00050613          	mv	a2,a0
20006a2c:	00058693          	mv	a3,a1
20006a30:	00050a13          	mv	s4,a0
20006a34:	00058993          	mv	s3,a1
20006a38:	000d8513          	mv	a0,s11
20006a3c:	000d0593          	mv	a1,s10
20006a40:	e85fa0ef          	jal	ra,200018c4 <__subdf3>
20006a44:	0145d793          	srli	a5,a1,0x14
20006a48:	7ff7f793          	andi	a5,a5,2047
20006a4c:	40f90933          	sub	s2,s2,a5
20006a50:	03100793          	li	a5,49
20006a54:	0127cc63          	blt	a5,s2,20006a6c <__ieee754_rem_pio2+0x414>
20006a58:	00a42023          	sw	a0,0(s0)
20006a5c:	00b42223          	sw	a1,4(s0)
20006a60:	000d8b13          	mv	s6,s11
20006a64:	000d0a93          	mv	s5,s10
20006a68:	ef1ff06f          	j	20006958 <__ieee754_rem_pio2+0x300>
20006a6c:	8301a603          	lw	a2,-2000(gp) # 200099d0 <_impure_ptr+0x38>
20006a70:	8341a683          	lw	a3,-1996(gp) # 200099d4 <_impure_ptr+0x3c>
20006a74:	000c0513          	mv	a0,s8
20006a78:	000b8593          	mv	a1,s7
20006a7c:	83dfa0ef          	jal	ra,200012b8 <__muldf3>
20006a80:	00050993          	mv	s3,a0
20006a84:	00058913          	mv	s2,a1
20006a88:	00050613          	mv	a2,a0
20006a8c:	00058693          	mv	a3,a1
20006a90:	000d8513          	mv	a0,s11
20006a94:	000d0593          	mv	a1,s10
20006a98:	e2dfa0ef          	jal	ra,200018c4 <__subdf3>
20006a9c:	00050613          	mv	a2,a0
20006aa0:	00058693          	mv	a3,a1
20006aa4:	00050b13          	mv	s6,a0
20006aa8:	00058a93          	mv	s5,a1
20006aac:	000d8513          	mv	a0,s11
20006ab0:	000d0593          	mv	a1,s10
20006ab4:	e11fa0ef          	jal	ra,200018c4 <__subdf3>
20006ab8:	00098613          	mv	a2,s3
20006abc:	00090693          	mv	a3,s2
20006ac0:	e05fa0ef          	jal	ra,200018c4 <__subdf3>
20006ac4:	8381a603          	lw	a2,-1992(gp) # 200099d8 <_impure_ptr+0x40>
20006ac8:	83c1a683          	lw	a3,-1988(gp) # 200099dc <_impure_ptr+0x44>
20006acc:	00050993          	mv	s3,a0
20006ad0:	00058913          	mv	s2,a1
20006ad4:	000c0513          	mv	a0,s8
20006ad8:	000b8593          	mv	a1,s7
20006adc:	fdcfa0ef          	jal	ra,200012b8 <__muldf3>
20006ae0:	00098613          	mv	a2,s3
20006ae4:	00090693          	mv	a3,s2
20006ae8:	dddfa0ef          	jal	ra,200018c4 <__subdf3>
20006aec:	00050a13          	mv	s4,a0
20006af0:	00058993          	mv	s3,a1
20006af4:	00050613          	mv	a2,a0
20006af8:	00058693          	mv	a3,a1
20006afc:	000b0513          	mv	a0,s6
20006b00:	000a8593          	mv	a1,s5
20006b04:	e21ff06f          	j	20006924 <__ieee754_rem_pio2+0x2cc>
20006b08:	7ff006b7          	lui	a3,0x7ff00
20006b0c:	02d94263          	blt	s2,a3,20006b30 <__ieee754_rem_pio2+0x4d8>
20006b10:	00050613          	mv	a2,a0
20006b14:	00058693          	mv	a3,a1
20006b18:	dadfa0ef          	jal	ra,200018c4 <__subdf3>
20006b1c:	00a42423          	sw	a0,8(s0)
20006b20:	00b42623          	sw	a1,12(s0)
20006b24:	00a42023          	sw	a0,0(s0)
20006b28:	00b42223          	sw	a1,4(s0)
20006b2c:	b8dff06f          	j	200066b8 <__ieee754_rem_pio2+0x60>
20006b30:	41495493          	srai	s1,s2,0x14
20006b34:	bea48493          	addi	s1,s1,-1046
20006b38:	01449713          	slli	a4,s1,0x14
20006b3c:	40e909b3          	sub	s3,s2,a4
20006b40:	00098593          	mv	a1,s3
20006b44:	00050a13          	mv	s4,a0
20006b48:	d6cfb0ef          	jal	ra,200020b4 <__fixdfsi>
20006b4c:	de8fb0ef          	jal	ra,20002134 <__floatsidf>
20006b50:	00050613          	mv	a2,a0
20006b54:	00058693          	mv	a3,a1
20006b58:	00a12423          	sw	a0,8(sp)
20006b5c:	00b12623          	sw	a1,12(sp)
20006b60:	000a0513          	mv	a0,s4
20006b64:	00098593          	mv	a1,s3
20006b68:	d5dfa0ef          	jal	ra,200018c4 <__subdf3>
20006b6c:	8401a603          	lw	a2,-1984(gp) # 200099e0 <_impure_ptr+0x48>
20006b70:	8441a683          	lw	a3,-1980(gp) # 200099e4 <_impure_ptr+0x4c>
20006b74:	f44fa0ef          	jal	ra,200012b8 <__muldf3>
20006b78:	00058913          	mv	s2,a1
20006b7c:	00050993          	mv	s3,a0
20006b80:	d34fb0ef          	jal	ra,200020b4 <__fixdfsi>
20006b84:	db0fb0ef          	jal	ra,20002134 <__floatsidf>
20006b88:	00050613          	mv	a2,a0
20006b8c:	00058693          	mv	a3,a1
20006b90:	00a12823          	sw	a0,16(sp)
20006b94:	00b12a23          	sw	a1,20(sp)
20006b98:	00098513          	mv	a0,s3
20006b9c:	00090593          	mv	a1,s2
20006ba0:	d25fa0ef          	jal	ra,200018c4 <__subdf3>
20006ba4:	8401a603          	lw	a2,-1984(gp) # 200099e0 <_impure_ptr+0x48>
20006ba8:	8441a683          	lw	a3,-1980(gp) # 200099e4 <_impure_ptr+0x4c>
20006bac:	00810913          	addi	s2,sp,8
20006bb0:	00300993          	li	s3,3
20006bb4:	f04fa0ef          	jal	ra,200012b8 <__muldf3>
20006bb8:	00a12c23          	sw	a0,24(sp)
20006bbc:	00b12e23          	sw	a1,28(sp)
20006bc0:	00090a13          	mv	s4,s2
20006bc4:	01092503          	lw	a0,16(s2)
20006bc8:	01492583          	lw	a1,20(s2)
20006bcc:	00000613          	li	a2,0
20006bd0:	00000693          	li	a3,0
20006bd4:	ff890913          	addi	s2,s2,-8
20006bd8:	00098a93          	mv	s5,s3
20006bdc:	fff98993          	addi	s3,s3,-1
20006be0:	acdfc0ef          	jal	ra,200036ac <__eqdf2>
20006be4:	fe0500e3          	beqz	a0,20006bc4 <__ieee754_rem_pio2+0x56c>
20006be8:	200097b7          	lui	a5,0x20009
20006bec:	00048613          	mv	a2,s1
20006bf0:	f8478793          	addi	a5,a5,-124 # 20008f84 <two_over_pi>
20006bf4:	00200713          	li	a4,2
20006bf8:	000a8693          	mv	a3,s5
20006bfc:	00040593          	mv	a1,s0
20006c00:	000a0513          	mv	a0,s4
20006c04:	32d000ef          	jal	ra,20007730 <__kernel_rem_pio2>
20006c08:	00050493          	mv	s1,a0
20006c0c:	b20cd2e3          	bgez	s9,20006730 <__ieee754_rem_pio2+0xd8>
20006c10:	00442603          	lw	a2,4(s0)
20006c14:	800006b7          	lui	a3,0x80000
20006c18:	00d647b3          	xor	a5,a2,a3
20006c1c:	00c42603          	lw	a2,12(s0)
20006c20:	00f42223          	sw	a5,4(s0)
20006c24:	00d647b3          	xor	a5,a2,a3
20006c28:	d75ff06f          	j	2000699c <__ieee754_rem_pio2+0x344>

20006c2c <__ieee754_powf>:
20006c2c:	fb010113          	addi	sp,sp,-80
20006c30:	04812423          	sw	s0,72(sp)
20006c34:	80000437          	lui	s0,0x80000
20006c38:	fff44413          	not	s0,s0
20006c3c:	05212023          	sw	s2,64(sp)
20006c40:	03312e23          	sw	s3,60(sp)
20006c44:	03612823          	sw	s6,48(sp)
20006c48:	04112623          	sw	ra,76(sp)
20006c4c:	04912223          	sw	s1,68(sp)
20006c50:	03412c23          	sw	s4,56(sp)
20006c54:	03512a23          	sw	s5,52(sp)
20006c58:	03712623          	sw	s7,44(sp)
20006c5c:	03812423          	sw	s8,40(sp)
20006c60:	03912223          	sw	s9,36(sp)
20006c64:	03a12023          	sw	s10,32(sp)
20006c68:	01b12e23          	sw	s11,28(sp)
20006c6c:	00b479b3          	and	s3,s0,a1
20006c70:	00050b13          	mv	s6,a0
20006c74:	00058913          	mv	s2,a1
20006c78:	02099663          	bnez	s3,20006ca4 <__ieee754_powf+0x78>
20006c7c:	004007b7          	lui	a5,0x400
20006c80:	00a7c7b3          	xor	a5,a5,a0
20006c84:	00179793          	slli	a5,a5,0x1
20006c88:	ff800737          	lui	a4,0xff800
20006c8c:	16f77ae3          	bgeu	a4,a5,20007600 <__ieee754_powf+0x9d4>
20006c90:	00090593          	mv	a1,s2
20006c94:	000b0513          	mv	a0,s6
20006c98:	d44fb0ef          	jal	ra,200021dc <__addsf3>
20006c9c:	00050593          	mv	a1,a0
20006ca0:	0b00006f          	j	20006d50 <__ieee754_powf+0x124>
20006ca4:	00a47433          	and	s0,s0,a0
20006ca8:	7f8007b7          	lui	a5,0x7f800
20006cac:	00050a93          	mv	s5,a0
20006cb0:	fe87c0e3          	blt	a5,s0,20006c90 <__ieee754_powf+0x64>
20006cb4:	0137dc63          	bge	a5,s3,20006ccc <__ieee754_powf+0xa0>
20006cb8:	3f8007b7          	lui	a5,0x3f800
20006cbc:	fcf51ae3          	bne	a0,a5,20006c90 <__ieee754_powf+0x64>
20006cc0:	004007b7          	lui	a5,0x400
20006cc4:	00b7c7b3          	xor	a5,a5,a1
20006cc8:	fbdff06f          	j	20006c84 <__ieee754_powf+0x58>
20006ccc:	00058a13          	mv	s4,a1
20006cd0:	00000493          	li	s1,0
20006cd4:	04055e63          	bgez	a0,20006d30 <__ieee754_powf+0x104>
20006cd8:	4b8007b7          	lui	a5,0x4b800
20006cdc:	04f9d863          	bge	s3,a5,20006d2c <__ieee754_powf+0x100>
20006ce0:	3f8007b7          	lui	a5,0x3f800
20006ce4:	02f9c463          	blt	s3,a5,20006d0c <__ieee754_powf+0xe0>
20006ce8:	4179d713          	srai	a4,s3,0x17
20006cec:	09600793          	li	a5,150
20006cf0:	40e787b3          	sub	a5,a5,a4
20006cf4:	40f9d733          	sra	a4,s3,a5
20006cf8:	00f717b3          	sll	a5,a4,a5
20006cfc:	01379863          	bne	a5,s3,20006d0c <__ieee754_powf+0xe0>
20006d00:	00177713          	andi	a4,a4,1
20006d04:	00200493          	li	s1,2
20006d08:	40e484b3          	sub	s1,s1,a4
20006d0c:	3f8007b7          	lui	a5,0x3f800
20006d10:	08f99863          	bne	s3,a5,20006da0 <__ieee754_powf+0x174>
20006d14:	000b0593          	mv	a1,s6
20006d18:	020a5c63          	bgez	s4,20006d50 <__ieee754_powf+0x124>
20006d1c:	2000a7b7          	lui	a5,0x2000a
20006d20:	99c7a503          	lw	a0,-1636(a5) # 2000999c <_impure_ptr+0x4>
20006d24:	90dfb0ef          	jal	ra,20002630 <__divsf3>
20006d28:	f75ff06f          	j	20006c9c <__ieee754_powf+0x70>
20006d2c:	00200493          	li	s1,2
20006d30:	7f8007b7          	lui	a5,0x7f800
20006d34:	fcf99ce3          	bne	s3,a5,20006d0c <__ieee754_powf+0xe0>
20006d38:	3f8007b7          	lui	a5,0x3f800
20006d3c:	0cf402e3          	beq	s0,a5,20007600 <__ieee754_powf+0x9d4>
20006d40:	00000593          	li	a1,0
20006d44:	0487d663          	bge	a5,s0,20006d90 <__ieee754_powf+0x164>
20006d48:	000a4463          	bltz	s4,20006d50 <__ieee754_powf+0x124>
20006d4c:	00090593          	mv	a1,s2
20006d50:	04c12083          	lw	ra,76(sp)
20006d54:	04812403          	lw	s0,72(sp)
20006d58:	04412483          	lw	s1,68(sp)
20006d5c:	04012903          	lw	s2,64(sp)
20006d60:	03c12983          	lw	s3,60(sp)
20006d64:	03812a03          	lw	s4,56(sp)
20006d68:	03412a83          	lw	s5,52(sp)
20006d6c:	03012b03          	lw	s6,48(sp)
20006d70:	02c12b83          	lw	s7,44(sp)
20006d74:	02812c03          	lw	s8,40(sp)
20006d78:	02412c83          	lw	s9,36(sp)
20006d7c:	02012d03          	lw	s10,32(sp)
20006d80:	01c12d83          	lw	s11,28(sp)
20006d84:	00058513          	mv	a0,a1
20006d88:	05010113          	addi	sp,sp,80
20006d8c:	00008067          	ret
20006d90:	fc0a50e3          	bgez	s4,20006d50 <__ieee754_powf+0x124>
20006d94:	80000537          	lui	a0,0x80000
20006d98:	012545b3          	xor	a1,a0,s2
20006d9c:	fb5ff06f          	j	20006d50 <__ieee754_powf+0x124>
20006da0:	400007b7          	lui	a5,0x40000
20006da4:	00fa1a63          	bne	s4,a5,20006db8 <__ieee754_powf+0x18c>
20006da8:	000b0593          	mv	a1,s6
20006dac:	000b0513          	mv	a0,s6
20006db0:	d25fb0ef          	jal	ra,20002ad4 <__mulsf3>
20006db4:	ee9ff06f          	j	20006c9c <__ieee754_powf+0x70>
20006db8:	3f0007b7          	lui	a5,0x3f000
20006dbc:	000b0513          	mv	a0,s6
20006dc0:	04fa1263          	bne	s4,a5,20006e04 <__ieee754_powf+0x1d8>
20006dc4:	040ac063          	bltz	s5,20006e04 <__ieee754_powf+0x1d8>
20006dc8:	04812403          	lw	s0,72(sp)
20006dcc:	04c12083          	lw	ra,76(sp)
20006dd0:	04412483          	lw	s1,68(sp)
20006dd4:	04012903          	lw	s2,64(sp)
20006dd8:	03c12983          	lw	s3,60(sp)
20006ddc:	03812a03          	lw	s4,56(sp)
20006de0:	03412a83          	lw	s5,52(sp)
20006de4:	03012b03          	lw	s6,48(sp)
20006de8:	02c12b83          	lw	s7,44(sp)
20006dec:	02812c03          	lw	s8,40(sp)
20006df0:	02412c83          	lw	s9,36(sp)
20006df4:	02012d03          	lw	s10,32(sp)
20006df8:	01c12d83          	lw	s11,28(sp)
20006dfc:	05010113          	addi	sp,sp,80
20006e00:	00d0006f          	j	2000760c <__ieee754_sqrtf>
20006e04:	4c5010ef          	jal	ra,20008ac8 <fabsf>
20006e08:	00050593          	mv	a1,a0
20006e0c:	00040a63          	beqz	s0,20006e20 <__ieee754_powf+0x1f4>
20006e10:	002b1713          	slli	a4,s6,0x2
20006e14:	00275713          	srli	a4,a4,0x2
20006e18:	3f8007b7          	lui	a5,0x3f800
20006e1c:	04f71863          	bne	a4,a5,20006e6c <__ieee754_powf+0x240>
20006e20:	000a5a63          	bgez	s4,20006e34 <__ieee754_powf+0x208>
20006e24:	2000a7b7          	lui	a5,0x2000a
20006e28:	99c7a503          	lw	a0,-1636(a5) # 2000999c <_impure_ptr+0x4>
20006e2c:	805fb0ef          	jal	ra,20002630 <__divsf3>
20006e30:	00050593          	mv	a1,a0
20006e34:	f00adee3          	bgez	s5,20006d50 <__ieee754_powf+0x124>
20006e38:	c08007b7          	lui	a5,0xc0800
20006e3c:	00f407b3          	add	a5,s0,a5
20006e40:	0097e7b3          	or	a5,a5,s1
20006e44:	00079a63          	bnez	a5,20006e58 <__ieee754_powf+0x22c>
20006e48:	00058513          	mv	a0,a1
20006e4c:	fd1fb0ef          	jal	ra,20002e1c <__subsf3>
20006e50:	00050593          	mv	a1,a0
20006e54:	ed1ff06f          	j	20006d24 <__ieee754_powf+0xf8>
20006e58:	00100793          	li	a5,1
20006e5c:	eef49ae3          	bne	s1,a5,20006d50 <__ieee754_powf+0x124>
20006e60:	800007b7          	lui	a5,0x80000
20006e64:	00b7c5b3          	xor	a1,a5,a1
20006e68:	ee9ff06f          	j	20006d50 <__ieee754_powf+0x124>
20006e6c:	01fb5a93          	srli	s5,s6,0x1f
20006e70:	fffa8713          	addi	a4,s5,-1
20006e74:	00e12423          	sw	a4,8(sp)
20006e78:	00e4e733          	or	a4,s1,a4
20006e7c:	00071663          	bnez	a4,20006e88 <__ieee754_powf+0x25c>
20006e80:	000b0593          	mv	a1,s6
20006e84:	fc5ff06f          	j	20006e48 <__ieee754_powf+0x21c>
20006e88:	4d000737          	lui	a4,0x4d000
20006e8c:	1f375c63          	bge	a4,s3,20007084 <__ieee754_powf+0x458>
20006e90:	ff378713          	addi	a4,a5,-13 # 7ffffff3 <__global_pointer$+0x5fff5e53>
20006e94:	04874463          	blt	a4,s0,20006edc <__ieee754_powf+0x2b0>
20006e98:	040a5863          	bgez	s4,20006ee8 <__ieee754_powf+0x2bc>
20006e9c:	00000513          	li	a0,0
20006ea0:	04812403          	lw	s0,72(sp)
20006ea4:	04c12083          	lw	ra,76(sp)
20006ea8:	04412483          	lw	s1,68(sp)
20006eac:	04012903          	lw	s2,64(sp)
20006eb0:	03c12983          	lw	s3,60(sp)
20006eb4:	03812a03          	lw	s4,56(sp)
20006eb8:	03412a83          	lw	s5,52(sp)
20006ebc:	03012b03          	lw	s6,48(sp)
20006ec0:	02c12b83          	lw	s7,44(sp)
20006ec4:	02812c03          	lw	s8,40(sp)
20006ec8:	02412c83          	lw	s9,36(sp)
20006ecc:	02012d03          	lw	s10,32(sp)
20006ed0:	01c12d83          	lw	s11,28(sp)
20006ed4:	05010113          	addi	sp,sp,80
20006ed8:	1010106f          	j	200087d8 <__math_oflowf>
20006edc:	00778793          	addi	a5,a5,7
20006ee0:	0487d463          	bge	a5,s0,20006f28 <__ieee754_powf+0x2fc>
20006ee4:	fb404ce3          	bgtz	s4,20006e9c <__ieee754_powf+0x270>
20006ee8:	00000513          	li	a0,0
20006eec:	04812403          	lw	s0,72(sp)
20006ef0:	04c12083          	lw	ra,76(sp)
20006ef4:	04412483          	lw	s1,68(sp)
20006ef8:	04012903          	lw	s2,64(sp)
20006efc:	03c12983          	lw	s3,60(sp)
20006f00:	03812a03          	lw	s4,56(sp)
20006f04:	03412a83          	lw	s5,52(sp)
20006f08:	03012b03          	lw	s6,48(sp)
20006f0c:	02c12b83          	lw	s7,44(sp)
20006f10:	02812c03          	lw	s8,40(sp)
20006f14:	02412c83          	lw	s9,36(sp)
20006f18:	02012d03          	lw	s10,32(sp)
20006f1c:	01c12d83          	lw	s11,28(sp)
20006f20:	05010113          	addi	sp,sp,80
20006f24:	0ad0106f          	j	200087d0 <__math_uflowf>
20006f28:	2000a7b7          	lui	a5,0x2000a
20006f2c:	99c7a583          	lw	a1,-1636(a5) # 2000999c <_impure_ptr+0x4>
20006f30:	eedfb0ef          	jal	ra,20002e1c <__subsf3>
20006f34:	84c1a583          	lw	a1,-1972(gp) # 200099ec <_impure_ptr+0x54>
20006f38:	00050413          	mv	s0,a0
20006f3c:	b99fb0ef          	jal	ra,20002ad4 <__mulsf3>
20006f40:	8501a583          	lw	a1,-1968(gp) # 200099f0 <_impure_ptr+0x58>
20006f44:	00050a13          	mv	s4,a0
20006f48:	00040513          	mv	a0,s0
20006f4c:	b89fb0ef          	jal	ra,20002ad4 <__mulsf3>
20006f50:	8541a583          	lw	a1,-1964(gp) # 200099f4 <_impure_ptr+0x5c>
20006f54:	00050993          	mv	s3,a0
20006f58:	00040513          	mv	a0,s0
20006f5c:	b79fb0ef          	jal	ra,20002ad4 <__mulsf3>
20006f60:	00050593          	mv	a1,a0
20006f64:	8581a503          	lw	a0,-1960(gp) # 200099f8 <_impure_ptr+0x60>
20006f68:	eb5fb0ef          	jal	ra,20002e1c <__subsf3>
20006f6c:	00040593          	mv	a1,s0
20006f70:	b65fb0ef          	jal	ra,20002ad4 <__mulsf3>
20006f74:	00050593          	mv	a1,a0
20006f78:	85c1a503          	lw	a0,-1956(gp) # 200099fc <_impure_ptr+0x64>
20006f7c:	ea1fb0ef          	jal	ra,20002e1c <__subsf3>
20006f80:	00040593          	mv	a1,s0
20006f84:	00050b13          	mv	s6,a0
20006f88:	00040513          	mv	a0,s0
20006f8c:	b49fb0ef          	jal	ra,20002ad4 <__mulsf3>
20006f90:	00050593          	mv	a1,a0
20006f94:	000b0513          	mv	a0,s6
20006f98:	b3dfb0ef          	jal	ra,20002ad4 <__mulsf3>
20006f9c:	8601a583          	lw	a1,-1952(gp) # 20009a00 <_impure_ptr+0x68>
20006fa0:	b35fb0ef          	jal	ra,20002ad4 <__mulsf3>
20006fa4:	00050593          	mv	a1,a0
20006fa8:	00098513          	mv	a0,s3
20006fac:	e71fb0ef          	jal	ra,20002e1c <__subsf3>
20006fb0:	00050593          	mv	a1,a0
20006fb4:	00050413          	mv	s0,a0
20006fb8:	000a0513          	mv	a0,s4
20006fbc:	a20fb0ef          	jal	ra,200021dc <__addsf3>
20006fc0:	fffff7b7          	lui	a5,0xfffff
20006fc4:	00a7f533          	and	a0,a5,a0
20006fc8:	000a0593          	mv	a1,s4
20006fcc:	00050993          	mv	s3,a0
20006fd0:	e4dfb0ef          	jal	ra,20002e1c <__subsf3>
20006fd4:	00050593          	mv	a1,a0
20006fd8:	00040513          	mv	a0,s0
20006fdc:	e41fb0ef          	jal	ra,20002e1c <__subsf3>
20006fe0:	00812783          	lw	a5,8(sp)
20006fe4:	fff48493          	addi	s1,s1,-1
20006fe8:	00050413          	mv	s0,a0
20006fec:	00f4e4b3          	or	s1,s1,a5
20006ff0:	3a049a63          	bnez	s1,200073a4 <__ieee754_powf+0x778>
20006ff4:	8481a483          	lw	s1,-1976(gp) # 200099e8 <_impure_ptr+0x50>
20006ff8:	fffffa37          	lui	s4,0xfffff
20006ffc:	012a7a33          	and	s4,s4,s2
20007000:	000a0593          	mv	a1,s4
20007004:	00090513          	mv	a0,s2
20007008:	e15fb0ef          	jal	ra,20002e1c <__subsf3>
2000700c:	00098593          	mv	a1,s3
20007010:	ac5fb0ef          	jal	ra,20002ad4 <__mulsf3>
20007014:	00050a93          	mv	s5,a0
20007018:	00090593          	mv	a1,s2
2000701c:	00040513          	mv	a0,s0
20007020:	ab5fb0ef          	jal	ra,20002ad4 <__mulsf3>
20007024:	00050593          	mv	a1,a0
20007028:	000a8513          	mv	a0,s5
2000702c:	9b0fb0ef          	jal	ra,200021dc <__addsf3>
20007030:	000a0593          	mv	a1,s4
20007034:	00050913          	mv	s2,a0
20007038:	00098513          	mv	a0,s3
2000703c:	a99fb0ef          	jal	ra,20002ad4 <__mulsf3>
20007040:	00050593          	mv	a1,a0
20007044:	00050993          	mv	s3,a0
20007048:	00050a93          	mv	s5,a0
2000704c:	00090513          	mv	a0,s2
20007050:	98cfb0ef          	jal	ra,200021dc <__addsf3>
20007054:	00151413          	slli	s0,a0,0x1
20007058:	00050b93          	mv	s7,a0
2000705c:	00050a13          	mv	s4,a0
20007060:	00145413          	srli	s0,s0,0x1
20007064:	3ca05c63          	blez	a0,2000743c <__ieee754_powf+0x810>
20007068:	430007b7          	lui	a5,0x43000
2000706c:	3487d263          	bge	a5,s0,200073b0 <__ieee754_powf+0x784>
20007070:	00000593          	li	a1,0
20007074:	00048513          	mv	a0,s1
20007078:	9a5fb0ef          	jal	ra,20002a1c <__lesf2>
2000707c:	00052513          	slti	a0,a0,0
20007080:	e21ff06f          	j	20006ea0 <__ieee754_powf+0x274>
20007084:	7f8007b7          	lui	a5,0x7f800
20007088:	0167f7b3          	and	a5,a5,s6
2000708c:	00000713          	li	a4,0
20007090:	00079a63          	bnez	a5,200070a4 <__ieee754_powf+0x478>
20007094:	8641a583          	lw	a1,-1948(gp) # 20009a04 <_impure_ptr+0x6c>
20007098:	a3dfb0ef          	jal	ra,20002ad4 <__mulsf3>
2000709c:	00050413          	mv	s0,a0
200070a0:	fe800713          	li	a4,-24
200070a4:	41745a13          	srai	s4,s0,0x17
200070a8:	f81a0a13          	addi	s4,s4,-127 # ffffef81 <__global_pointer$+0xdfff4de1>
200070ac:	00ea0a33          	add	s4,s4,a4
200070b0:	00800737          	lui	a4,0x800
200070b4:	fff70793          	addi	a5,a4,-1 # 7fffff <_start-0x1f800001>
200070b8:	00f47433          	and	s0,s0,a5
200070bc:	001cc7b7          	lui	a5,0x1cc
200070c0:	3f800db7          	lui	s11,0x3f800
200070c4:	47178793          	addi	a5,a5,1137 # 1cc471 <_start-0x1fe33b8f>
200070c8:	01b46db3          	or	s11,s0,s11
200070cc:	00000b93          	li	s7,0
200070d0:	0287d063          	bge	a5,s0,200070f0 <__ieee754_powf+0x4c4>
200070d4:	005db7b7          	lui	a5,0x5db
200070d8:	3d678793          	addi	a5,a5,982 # 5db3d6 <_start-0x1fa24c2a>
200070dc:	00100b93          	li	s7,1
200070e0:	0087d863          	bge	a5,s0,200070f0 <__ieee754_powf+0x4c4>
200070e4:	001a0a13          	addi	s4,s4,1
200070e8:	40ed8db3          	sub	s11,s11,a4
200070ec:	00000b93          	li	s7,0
200070f0:	002b9c93          	slli	s9,s7,0x2
200070f4:	8b418793          	addi	a5,gp,-1868 # 20009a54 <bp>
200070f8:	019787b3          	add	a5,a5,s9
200070fc:	0007ac03          	lw	s8,0(a5)
20007100:	000d8513          	mv	a0,s11
20007104:	401dd413          	srai	s0,s11,0x1
20007108:	000c0593          	mv	a1,s8
2000710c:	d11fb0ef          	jal	ra,20002e1c <__subsf3>
20007110:	000d8593          	mv	a1,s11
20007114:	00a12623          	sw	a0,12(sp)
20007118:	000c0513          	mv	a0,s8
2000711c:	8c0fb0ef          	jal	ra,200021dc <__addsf3>
20007120:	2000a7b7          	lui	a5,0x2000a
20007124:	00050593          	mv	a1,a0
20007128:	99c7a503          	lw	a0,-1636(a5) # 2000999c <_impure_ptr+0x4>
2000712c:	fffff9b7          	lui	s3,0xfffff
20007130:	015b9b93          	slli	s7,s7,0x15
20007134:	cfcfb0ef          	jal	ra,20002630 <__divsf3>
20007138:	00050d13          	mv	s10,a0
2000713c:	00050593          	mv	a1,a0
20007140:	00c12503          	lw	a0,12(sp)
20007144:	991fb0ef          	jal	ra,20002ad4 <__mulsf3>
20007148:	200006b7          	lui	a3,0x20000
2000714c:	00d46433          	or	s0,s0,a3
20007150:	000406b7          	lui	a3,0x40
20007154:	00d40433          	add	s0,s0,a3
20007158:	00a9fb33          	and	s6,s3,a0
2000715c:	01740433          	add	s0,s0,s7
20007160:	00050a93          	mv	s5,a0
20007164:	00040593          	mv	a1,s0
20007168:	000b0513          	mv	a0,s6
2000716c:	969fb0ef          	jal	ra,20002ad4 <__mulsf3>
20007170:	00050593          	mv	a1,a0
20007174:	00c12503          	lw	a0,12(sp)
20007178:	ca5fb0ef          	jal	ra,20002e1c <__subsf3>
2000717c:	00050b93          	mv	s7,a0
20007180:	000c0593          	mv	a1,s8
20007184:	00040513          	mv	a0,s0
20007188:	c95fb0ef          	jal	ra,20002e1c <__subsf3>
2000718c:	00050593          	mv	a1,a0
20007190:	000d8513          	mv	a0,s11
20007194:	c89fb0ef          	jal	ra,20002e1c <__subsf3>
20007198:	000b0593          	mv	a1,s6
2000719c:	939fb0ef          	jal	ra,20002ad4 <__mulsf3>
200071a0:	00050593          	mv	a1,a0
200071a4:	000b8513          	mv	a0,s7
200071a8:	c75fb0ef          	jal	ra,20002e1c <__subsf3>
200071ac:	000d0593          	mv	a1,s10
200071b0:	925fb0ef          	jal	ra,20002ad4 <__mulsf3>
200071b4:	00050b93          	mv	s7,a0
200071b8:	000a8593          	mv	a1,s5
200071bc:	000a8513          	mv	a0,s5
200071c0:	915fb0ef          	jal	ra,20002ad4 <__mulsf3>
200071c4:	8681a583          	lw	a1,-1944(gp) # 20009a08 <_impure_ptr+0x70>
200071c8:	00050413          	mv	s0,a0
200071cc:	909fb0ef          	jal	ra,20002ad4 <__mulsf3>
200071d0:	86c1a583          	lw	a1,-1940(gp) # 20009a0c <_impure_ptr+0x74>
200071d4:	808fb0ef          	jal	ra,200021dc <__addsf3>
200071d8:	00040593          	mv	a1,s0
200071dc:	8f9fb0ef          	jal	ra,20002ad4 <__mulsf3>
200071e0:	8701a583          	lw	a1,-1936(gp) # 20009a10 <_impure_ptr+0x78>
200071e4:	ff9fa0ef          	jal	ra,200021dc <__addsf3>
200071e8:	00040593          	mv	a1,s0
200071ec:	8e9fb0ef          	jal	ra,20002ad4 <__mulsf3>
200071f0:	8581a583          	lw	a1,-1960(gp) # 200099f8 <_impure_ptr+0x60>
200071f4:	fe9fa0ef          	jal	ra,200021dc <__addsf3>
200071f8:	00040593          	mv	a1,s0
200071fc:	8d9fb0ef          	jal	ra,20002ad4 <__mulsf3>
20007200:	8741a583          	lw	a1,-1932(gp) # 20009a14 <_impure_ptr+0x7c>
20007204:	fd9fa0ef          	jal	ra,200021dc <__addsf3>
20007208:	00040593          	mv	a1,s0
2000720c:	8c9fb0ef          	jal	ra,20002ad4 <__mulsf3>
20007210:	8781a583          	lw	a1,-1928(gp) # 20009a18 <_impure_ptr+0x80>
20007214:	fc9fa0ef          	jal	ra,200021dc <__addsf3>
20007218:	00050c13          	mv	s8,a0
2000721c:	00040593          	mv	a1,s0
20007220:	00040513          	mv	a0,s0
20007224:	8b1fb0ef          	jal	ra,20002ad4 <__mulsf3>
20007228:	00050593          	mv	a1,a0
2000722c:	000c0513          	mv	a0,s8
20007230:	8a5fb0ef          	jal	ra,20002ad4 <__mulsf3>
20007234:	00050413          	mv	s0,a0
20007238:	000b0593          	mv	a1,s6
2000723c:	000a8513          	mv	a0,s5
20007240:	f9dfa0ef          	jal	ra,200021dc <__addsf3>
20007244:	000b8593          	mv	a1,s7
20007248:	88dfb0ef          	jal	ra,20002ad4 <__mulsf3>
2000724c:	00040593          	mv	a1,s0
20007250:	f8dfa0ef          	jal	ra,200021dc <__addsf3>
20007254:	00050d13          	mv	s10,a0
20007258:	000b0593          	mv	a1,s6
2000725c:	000b0513          	mv	a0,s6
20007260:	875fb0ef          	jal	ra,20002ad4 <__mulsf3>
20007264:	87c1a583          	lw	a1,-1924(gp) # 20009a1c <_impure_ptr+0x84>
20007268:	00050d93          	mv	s11,a0
2000726c:	f71fa0ef          	jal	ra,200021dc <__addsf3>
20007270:	000d0593          	mv	a1,s10
20007274:	f69fa0ef          	jal	ra,200021dc <__addsf3>
20007278:	00a9f433          	and	s0,s3,a0
2000727c:	00040593          	mv	a1,s0
20007280:	000b0513          	mv	a0,s6
20007284:	851fb0ef          	jal	ra,20002ad4 <__mulsf3>
20007288:	87c1a583          	lw	a1,-1924(gp) # 20009a1c <_impure_ptr+0x84>
2000728c:	00050c13          	mv	s8,a0
20007290:	00040513          	mv	a0,s0
20007294:	b89fb0ef          	jal	ra,20002e1c <__subsf3>
20007298:	000d8593          	mv	a1,s11
2000729c:	b81fb0ef          	jal	ra,20002e1c <__subsf3>
200072a0:	00050593          	mv	a1,a0
200072a4:	000d0513          	mv	a0,s10
200072a8:	b75fb0ef          	jal	ra,20002e1c <__subsf3>
200072ac:	000a8593          	mv	a1,s5
200072b0:	825fb0ef          	jal	ra,20002ad4 <__mulsf3>
200072b4:	00050b13          	mv	s6,a0
200072b8:	00040593          	mv	a1,s0
200072bc:	000b8513          	mv	a0,s7
200072c0:	815fb0ef          	jal	ra,20002ad4 <__mulsf3>
200072c4:	00050593          	mv	a1,a0
200072c8:	000b0513          	mv	a0,s6
200072cc:	f11fa0ef          	jal	ra,200021dc <__addsf3>
200072d0:	00050b93          	mv	s7,a0
200072d4:	00050593          	mv	a1,a0
200072d8:	000c0513          	mv	a0,s8
200072dc:	f01fa0ef          	jal	ra,200021dc <__addsf3>
200072e0:	8801a583          	lw	a1,-1920(gp) # 20009a20 <_impure_ptr+0x88>
200072e4:	00a9fb33          	and	s6,s3,a0
200072e8:	000b0513          	mv	a0,s6
200072ec:	fe8fb0ef          	jal	ra,20002ad4 <__mulsf3>
200072f0:	00050413          	mv	s0,a0
200072f4:	000c0593          	mv	a1,s8
200072f8:	000b0513          	mv	a0,s6
200072fc:	b21fb0ef          	jal	ra,20002e1c <__subsf3>
20007300:	00050593          	mv	a1,a0
20007304:	000b8513          	mv	a0,s7
20007308:	b15fb0ef          	jal	ra,20002e1c <__subsf3>
2000730c:	8841a583          	lw	a1,-1916(gp) # 20009a24 <_impure_ptr+0x8c>
20007310:	fc4fb0ef          	jal	ra,20002ad4 <__mulsf3>
20007314:	8881a583          	lw	a1,-1912(gp) # 20009a28 <_impure_ptr+0x90>
20007318:	00050b93          	mv	s7,a0
2000731c:	000b0513          	mv	a0,s6
20007320:	fb4fb0ef          	jal	ra,20002ad4 <__mulsf3>
20007324:	00050593          	mv	a1,a0
20007328:	000b8513          	mv	a0,s7
2000732c:	eb1fa0ef          	jal	ra,200021dc <__addsf3>
20007330:	8c418793          	addi	a5,gp,-1852 # 20009a64 <dp_l>
20007334:	019787b3          	add	a5,a5,s9
20007338:	0007a583          	lw	a1,0(a5)
2000733c:	ea1fa0ef          	jal	ra,200021dc <__addsf3>
20007340:	00050b13          	mv	s6,a0
20007344:	000a0513          	mv	a0,s4
20007348:	fa5fb0ef          	jal	ra,200032ec <__floatsisf>
2000734c:	8bc18793          	addi	a5,gp,-1860 # 20009a5c <dp_h>
20007350:	019787b3          	add	a5,a5,s9
20007354:	0007ab83          	lw	s7,0(a5)
20007358:	00050a13          	mv	s4,a0
2000735c:	000b0593          	mv	a1,s6
20007360:	00040513          	mv	a0,s0
20007364:	e79fa0ef          	jal	ra,200021dc <__addsf3>
20007368:	000b8593          	mv	a1,s7
2000736c:	e71fa0ef          	jal	ra,200021dc <__addsf3>
20007370:	000a0593          	mv	a1,s4
20007374:	e69fa0ef          	jal	ra,200021dc <__addsf3>
20007378:	00a9f533          	and	a0,s3,a0
2000737c:	000a0593          	mv	a1,s4
20007380:	00050993          	mv	s3,a0
20007384:	a99fb0ef          	jal	ra,20002e1c <__subsf3>
20007388:	000b8593          	mv	a1,s7
2000738c:	a91fb0ef          	jal	ra,20002e1c <__subsf3>
20007390:	00040593          	mv	a1,s0
20007394:	a89fb0ef          	jal	ra,20002e1c <__subsf3>
20007398:	00050593          	mv	a1,a0
2000739c:	000b0513          	mv	a0,s6
200073a0:	c3dff06f          	j	20006fdc <__ieee754_powf+0x3b0>
200073a4:	2000a7b7          	lui	a5,0x2000a
200073a8:	99c7a483          	lw	s1,-1636(a5) # 2000999c <_impure_ptr+0x4>
200073ac:	c4dff06f          	j	20006ff8 <__ieee754_powf+0x3cc>
200073b0:	0cf41263          	bne	s0,a5,20007474 <__ieee754_powf+0x848>
200073b4:	88c1a583          	lw	a1,-1908(gp) # 20009a2c <_impure_ptr+0x94>
200073b8:	00090513          	mv	a0,s2
200073bc:	e21fa0ef          	jal	ra,200021dc <__addsf3>
200073c0:	00050a93          	mv	s5,a0
200073c4:	00098593          	mv	a1,s3
200073c8:	000b8513          	mv	a0,s7
200073cc:	a51fb0ef          	jal	ra,20002e1c <__subsf3>
200073d0:	00050593          	mv	a1,a0
200073d4:	000a8513          	mv	a0,s5
200073d8:	d8cfb0ef          	jal	ra,20002964 <__gesf2>
200073dc:	c8a04ae3          	bgtz	a0,20007070 <__ieee754_powf+0x444>
200073e0:	41745413          	srai	s0,s0,0x17
200073e4:	00800737          	lui	a4,0x800
200073e8:	f8240413          	addi	s0,s0,-126 # 7fffff82 <__global_pointer$+0x5fff5de2>
200073ec:	40875433          	sra	s0,a4,s0
200073f0:	01740433          	add	s0,s0,s7
200073f4:	41745793          	srai	a5,s0,0x17
200073f8:	0ff7f793          	zext.b	a5,a5
200073fc:	f8178793          	addi	a5,a5,-127
20007400:	ff8005b7          	lui	a1,0xff800
20007404:	40f5d5b3          	sra	a1,a1,a5
20007408:	fff70693          	addi	a3,a4,-1 # 7fffff <_start-0x1f800001>
2000740c:	0085f5b3          	and	a1,a1,s0
20007410:	01700b13          	li	s6,23
20007414:	00d47433          	and	s0,s0,a3
20007418:	00e46433          	or	s0,s0,a4
2000741c:	40fb0b33          	sub	s6,s6,a5
20007420:	41645b33          	sra	s6,s0,s6
20007424:	000a5463          	bgez	s4,2000742c <__ieee754_powf+0x800>
20007428:	41600b33          	neg	s6,s6
2000742c:	00098513          	mv	a0,s3
20007430:	9edfb0ef          	jal	ra,20002e1c <__subsf3>
20007434:	00050a93          	mv	s5,a0
20007438:	0480006f          	j	20007480 <__ieee754_powf+0x854>
2000743c:	431607b7          	lui	a5,0x43160
20007440:	0087dc63          	bge	a5,s0,20007458 <__ieee754_powf+0x82c>
20007444:	00000593          	li	a1,0
20007448:	00048513          	mv	a0,s1
2000744c:	dd0fb0ef          	jal	ra,20002a1c <__lesf2>
20007450:	00052513          	slti	a0,a0,0
20007454:	a99ff06f          	j	20006eec <__ieee754_powf+0x2c0>
20007458:	00f41e63          	bne	s0,a5,20007474 <__ieee754_powf+0x848>
2000745c:	00098593          	mv	a1,s3
20007460:	9bdfb0ef          	jal	ra,20002e1c <__subsf3>
20007464:	00090593          	mv	a1,s2
20007468:	cfcfb0ef          	jal	ra,20002964 <__gesf2>
2000746c:	f6054ae3          	bltz	a0,200073e0 <__ieee754_powf+0x7b4>
20007470:	fd5ff06f          	j	20007444 <__ieee754_powf+0x818>
20007474:	3f0007b7          	lui	a5,0x3f000
20007478:	00000b13          	li	s6,0
2000747c:	f687c2e3          	blt	a5,s0,200073e0 <__ieee754_powf+0x7b4>
20007480:	00090593          	mv	a1,s2
20007484:	000a8513          	mv	a0,s5
20007488:	d55fa0ef          	jal	ra,200021dc <__addsf3>
2000748c:	8901a583          	lw	a1,-1904(gp) # 20009a30 <_impure_ptr+0x98>
20007490:	fffff437          	lui	s0,0xfffff
20007494:	00a47433          	and	s0,s0,a0
20007498:	00040513          	mv	a0,s0
2000749c:	e38fb0ef          	jal	ra,20002ad4 <__mulsf3>
200074a0:	00050993          	mv	s3,a0
200074a4:	000a8593          	mv	a1,s5
200074a8:	00040513          	mv	a0,s0
200074ac:	971fb0ef          	jal	ra,20002e1c <__subsf3>
200074b0:	00050593          	mv	a1,a0
200074b4:	00090513          	mv	a0,s2
200074b8:	965fb0ef          	jal	ra,20002e1c <__subsf3>
200074bc:	8941a583          	lw	a1,-1900(gp) # 20009a34 <_impure_ptr+0x9c>
200074c0:	e14fb0ef          	jal	ra,20002ad4 <__mulsf3>
200074c4:	8981a583          	lw	a1,-1896(gp) # 20009a38 <_impure_ptr+0xa0>
200074c8:	00050913          	mv	s2,a0
200074cc:	00040513          	mv	a0,s0
200074d0:	e04fb0ef          	jal	ra,20002ad4 <__mulsf3>
200074d4:	00050593          	mv	a1,a0
200074d8:	00090513          	mv	a0,s2
200074dc:	d01fa0ef          	jal	ra,200021dc <__addsf3>
200074e0:	00050413          	mv	s0,a0
200074e4:	00050593          	mv	a1,a0
200074e8:	00098513          	mv	a0,s3
200074ec:	cf1fa0ef          	jal	ra,200021dc <__addsf3>
200074f0:	00098593          	mv	a1,s3
200074f4:	00050a13          	mv	s4,a0
200074f8:	925fb0ef          	jal	ra,20002e1c <__subsf3>
200074fc:	00050593          	mv	a1,a0
20007500:	00040513          	mv	a0,s0
20007504:	919fb0ef          	jal	ra,20002e1c <__subsf3>
20007508:	00050913          	mv	s2,a0
2000750c:	000a0593          	mv	a1,s4
20007510:	000a0513          	mv	a0,s4
20007514:	dc0fb0ef          	jal	ra,20002ad4 <__mulsf3>
20007518:	89c1a583          	lw	a1,-1892(gp) # 20009a3c <_impure_ptr+0xa4>
2000751c:	00050413          	mv	s0,a0
20007520:	db4fb0ef          	jal	ra,20002ad4 <__mulsf3>
20007524:	8a01a583          	lw	a1,-1888(gp) # 20009a40 <_impure_ptr+0xa8>
20007528:	8f5fb0ef          	jal	ra,20002e1c <__subsf3>
2000752c:	00040593          	mv	a1,s0
20007530:	da4fb0ef          	jal	ra,20002ad4 <__mulsf3>
20007534:	8a41a583          	lw	a1,-1884(gp) # 20009a44 <_impure_ptr+0xac>
20007538:	ca5fa0ef          	jal	ra,200021dc <__addsf3>
2000753c:	00040593          	mv	a1,s0
20007540:	d94fb0ef          	jal	ra,20002ad4 <__mulsf3>
20007544:	8a81a583          	lw	a1,-1880(gp) # 20009a48 <_impure_ptr+0xb0>
20007548:	8d5fb0ef          	jal	ra,20002e1c <__subsf3>
2000754c:	00040593          	mv	a1,s0
20007550:	d84fb0ef          	jal	ra,20002ad4 <__mulsf3>
20007554:	8ac1a583          	lw	a1,-1876(gp) # 20009a4c <_impure_ptr+0xb4>
20007558:	c85fa0ef          	jal	ra,200021dc <__addsf3>
2000755c:	00040593          	mv	a1,s0
20007560:	d74fb0ef          	jal	ra,20002ad4 <__mulsf3>
20007564:	00050593          	mv	a1,a0
20007568:	000a0513          	mv	a0,s4
2000756c:	8b1fb0ef          	jal	ra,20002e1c <__subsf3>
20007570:	00050413          	mv	s0,a0
20007574:	00050593          	mv	a1,a0
20007578:	000a0513          	mv	a0,s4
2000757c:	d58fb0ef          	jal	ra,20002ad4 <__mulsf3>
20007580:	8b01a583          	lw	a1,-1872(gp) # 20009a50 <_impure_ptr+0xb8>
20007584:	00050993          	mv	s3,a0
20007588:	00040513          	mv	a0,s0
2000758c:	891fb0ef          	jal	ra,20002e1c <__subsf3>
20007590:	00050593          	mv	a1,a0
20007594:	00098513          	mv	a0,s3
20007598:	898fb0ef          	jal	ra,20002630 <__divsf3>
2000759c:	00050413          	mv	s0,a0
200075a0:	00090593          	mv	a1,s2
200075a4:	000a0513          	mv	a0,s4
200075a8:	d2cfb0ef          	jal	ra,20002ad4 <__mulsf3>
200075ac:	00090593          	mv	a1,s2
200075b0:	c2dfa0ef          	jal	ra,200021dc <__addsf3>
200075b4:	00050593          	mv	a1,a0
200075b8:	00040513          	mv	a0,s0
200075bc:	861fb0ef          	jal	ra,20002e1c <__subsf3>
200075c0:	000a0593          	mv	a1,s4
200075c4:	859fb0ef          	jal	ra,20002e1c <__subsf3>
200075c8:	2000a7b7          	lui	a5,0x2000a
200075cc:	00050593          	mv	a1,a0
200075d0:	99c7a503          	lw	a0,-1636(a5) # 2000999c <_impure_ptr+0x4>
200075d4:	849fb0ef          	jal	ra,20002e1c <__subsf3>
200075d8:	017b1793          	slli	a5,s6,0x17
200075dc:	00a787b3          	add	a5,a5,a0
200075e0:	4177d713          	srai	a4,a5,0x17
200075e4:	00e04863          	bgtz	a4,200075f4 <__ieee754_powf+0x9c8>
200075e8:	000b0593          	mv	a1,s6
200075ec:	4fc010ef          	jal	ra,20008ae8 <scalbnf>
200075f0:	00050793          	mv	a5,a0
200075f4:	00048593          	mv	a1,s1
200075f8:	00078513          	mv	a0,a5
200075fc:	fb4ff06f          	j	20006db0 <__ieee754_powf+0x184>
20007600:	2000a7b7          	lui	a5,0x2000a
20007604:	99c7a583          	lw	a1,-1636(a5) # 2000999c <_impure_ptr+0x4>
20007608:	f48ff06f          	j	20006d50 <__ieee754_powf+0x124>

2000760c <__ieee754_sqrtf>:
2000760c:	ff010113          	addi	sp,sp,-16
20007610:	00151793          	slli	a5,a0,0x1
20007614:	00812423          	sw	s0,8(sp)
20007618:	00112623          	sw	ra,12(sp)
2000761c:	0017d793          	srli	a5,a5,0x1
20007620:	7f800737          	lui	a4,0x7f800
20007624:	00050413          	mv	s0,a0
20007628:	02e7e863          	bltu	a5,a4,20007658 <__ieee754_sqrtf+0x4c>
2000762c:	00050593          	mv	a1,a0
20007630:	ca4fb0ef          	jal	ra,20002ad4 <__mulsf3>
20007634:	00050593          	mv	a1,a0
20007638:	00040513          	mv	a0,s0
2000763c:	ba1fa0ef          	jal	ra,200021dc <__addsf3>
20007640:	00050413          	mv	s0,a0
20007644:	00c12083          	lw	ra,12(sp)
20007648:	00040513          	mv	a0,s0
2000764c:	00812403          	lw	s0,8(sp)
20007650:	01010113          	addi	sp,sp,16
20007654:	00008067          	ret
20007658:	fe0786e3          	beqz	a5,20007644 <__ieee754_sqrtf+0x38>
2000765c:	00050793          	mv	a5,a0
20007660:	00055c63          	bgez	a0,20007678 <__ieee754_sqrtf+0x6c>
20007664:	00050593          	mv	a1,a0
20007668:	fb4fb0ef          	jal	ra,20002e1c <__subsf3>
2000766c:	00050593          	mv	a1,a0
20007670:	fc1fa0ef          	jal	ra,20002630 <__divsf3>
20007674:	fcdff06f          	j	20007640 <__ieee754_sqrtf+0x34>
20007678:	00a77733          	and	a4,a4,a0
2000767c:	41755693          	srai	a3,a0,0x17
20007680:	0a070263          	beqz	a4,20007724 <__ieee754_sqrtf+0x118>
20007684:	00800737          	lui	a4,0x800
20007688:	f8168413          	addi	s0,a3,-127 # 3ff81 <_start-0x1ffc007f>
2000768c:	fff70693          	addi	a3,a4,-1 # 7fffff <_start-0x1f800001>
20007690:	00d7f7b3          	and	a5,a5,a3
20007694:	00e7e7b3          	or	a5,a5,a4
20007698:	00147713          	andi	a4,s0,1
2000769c:	00070463          	beqz	a4,200076a4 <__ieee754_sqrtf+0x98>
200076a0:	00179793          	slli	a5,a5,0x1
200076a4:	40145413          	srai	s0,s0,0x1
200076a8:	00179793          	slli	a5,a5,0x1
200076ac:	01900593          	li	a1,25
200076b0:	00000713          	li	a4,0
200076b4:	00000813          	li	a6,0
200076b8:	01000637          	lui	a2,0x1000
200076bc:	00c80533          	add	a0,a6,a2
200076c0:	00078693          	mv	a3,a5
200076c4:	00a7c863          	blt	a5,a0,200076d4 <__ieee754_sqrtf+0xc8>
200076c8:	00c50833          	add	a6,a0,a2
200076cc:	40a786b3          	sub	a3,a5,a0
200076d0:	00c70733          	add	a4,a4,a2
200076d4:	fff58593          	addi	a1,a1,-1 # ff7fffff <__global_pointer$+0xdf7f5e5f>
200076d8:	00169793          	slli	a5,a3,0x1
200076dc:	00165613          	srli	a2,a2,0x1
200076e0:	fc059ee3          	bnez	a1,200076bc <__ieee754_sqrtf+0xb0>
200076e4:	00068663          	beqz	a3,200076f0 <__ieee754_sqrtf+0xe4>
200076e8:	00170713          	addi	a4,a4,1
200076ec:	ffe77713          	andi	a4,a4,-2
200076f0:	40175713          	srai	a4,a4,0x1
200076f4:	3f0007b7          	lui	a5,0x3f000
200076f8:	00f70733          	add	a4,a4,a5
200076fc:	01741413          	slli	s0,s0,0x17
20007700:	00e40433          	add	s0,s0,a4
20007704:	f41ff06f          	j	20007644 <__ieee754_sqrtf+0x38>
20007708:	00179793          	slli	a5,a5,0x1
2000770c:	00170713          	addi	a4,a4,1
20007710:	00b7f633          	and	a2,a5,a1
20007714:	fe060ae3          	beqz	a2,20007708 <__ieee754_sqrtf+0xfc>
20007718:	fff70713          	addi	a4,a4,-1
2000771c:	40e686b3          	sub	a3,a3,a4
20007720:	f65ff06f          	j	20007684 <__ieee754_sqrtf+0x78>
20007724:	00000713          	li	a4,0
20007728:	008005b7          	lui	a1,0x800
2000772c:	fe5ff06f          	j	20007710 <__ieee754_sqrtf+0x104>

20007730 <__kernel_rem_pio2>:
20007730:	d6010113          	addi	sp,sp,-672
20007734:	00f12423          	sw	a5,8(sp)
20007738:	200097b7          	lui	a5,0x20009
2000773c:	29512223          	sw	s5,644(sp)
20007740:	0d078793          	addi	a5,a5,208 # 200090d0 <init_jk>
20007744:	00070a93          	mv	s5,a4
20007748:	00271713          	slli	a4,a4,0x2
2000774c:	00e787b3          	add	a5,a5,a4
20007750:	28912a23          	sw	s1,660(sp)
20007754:	29612023          	sw	s6,640(sp)
20007758:	27712e23          	sw	s7,636(sp)
2000775c:	27812c23          	sw	s8,632(sp)
20007760:	27912a23          	sw	s9,628(sp)
20007764:	0007ac03          	lw	s8,0(a5)
20007768:	28112e23          	sw	ra,668(sp)
2000776c:	28812c23          	sw	s0,664(sp)
20007770:	29212823          	sw	s2,656(sp)
20007774:	29312623          	sw	s3,652(sp)
20007778:	29412423          	sw	s4,648(sp)
2000777c:	27a12823          	sw	s10,624(sp)
20007780:	27b12623          	sw	s11,620(sp)
20007784:	00a12223          	sw	a0,4(sp)
20007788:	fec00793          	li	a5,-20
2000778c:	00058493          	mv	s1,a1
20007790:	00068b93          	mv	s7,a3
20007794:	fff68c93          	addi	s9,a3,-1
20007798:	00000b13          	li	s6,0
2000779c:	00f64863          	blt	a2,a5,200077ac <__kernel_rem_pio2+0x7c>
200077a0:	ffd60b13          	addi	s6,a2,-3 # fffffd <_start-0x1f000003>
200077a4:	01800793          	li	a5,24
200077a8:	02fb4b33          	div	s6,s6,a5
200077ac:	001b0413          	addi	s0,s6,1
200077b0:	fe800793          	li	a5,-24
200077b4:	419b0a33          	sub	s4,s6,s9
200077b8:	019c0db3          	add	s11,s8,s9
200077bc:	08010993          	addi	s3,sp,128
200077c0:	000a0913          	mv	s2,s4
200077c4:	02f40433          	mul	s0,s0,a5
200077c8:	00c40433          	add	s0,s0,a2
200077cc:	414907b3          	sub	a5,s2,s4
200077d0:	02fdd863          	bge	s11,a5,20007800 <__kernel_rem_pio2+0xd0>
200077d4:	000b8d13          	mv	s10,s7
200077d8:	1c010713          	addi	a4,sp,448
200077dc:	417d06b3          	sub	a3,s10,s7
200077e0:	0adc4c63          	blt	s8,a3,20007898 <__kernel_rem_pio2+0x168>
200077e4:	003d1a13          	slli	s4,s10,0x3
200077e8:	08010793          	addi	a5,sp,128
200077ec:	00fa0a33          	add	s4,s4,a5
200077f0:	00000993          	li	s3,0
200077f4:	00000913          	li	s2,0
200077f8:	00000d93          	li	s11,0
200077fc:	0800006f          	j	2000787c <__kernel_rem_pio2+0x14c>
20007800:	00000513          	li	a0,0
20007804:	00000593          	li	a1,0
20007808:	00094c63          	bltz	s2,20007820 <__kernel_rem_pio2+0xf0>
2000780c:	00812703          	lw	a4,8(sp)
20007810:	00291793          	slli	a5,s2,0x2
20007814:	00f707b3          	add	a5,a4,a5
20007818:	0007a503          	lw	a0,0(a5)
2000781c:	919fa0ef          	jal	ra,20002134 <__floatsidf>
20007820:	00a9a023          	sw	a0,0(s3) # fffff000 <__global_pointer$+0xdfff4e60>
20007824:	00b9a223          	sw	a1,4(s3)
20007828:	00190913          	addi	s2,s2,1
2000782c:	00898993          	addi	s3,s3,8
20007830:	f9dff06f          	j	200077cc <__kernel_rem_pio2+0x9c>
20007834:	00412783          	lw	a5,4(sp)
20007838:	003d9593          	slli	a1,s11,0x3
2000783c:	000a2603          	lw	a2,0(s4)
20007840:	00b785b3          	add	a1,a5,a1
20007844:	004a2683          	lw	a3,4(s4)
20007848:	0005a503          	lw	a0,0(a1) # 800000 <_start-0x1f800000>
2000784c:	0045a583          	lw	a1,4(a1)
20007850:	00e12023          	sw	a4,0(sp)
20007854:	001d8d93          	addi	s11,s11,1 # 3f800001 <__global_pointer$+0x1f7f5e61>
20007858:	a61f90ef          	jal	ra,200012b8 <__muldf3>
2000785c:	00050613          	mv	a2,a0
20007860:	00058693          	mv	a3,a1
20007864:	00098513          	mv	a0,s3
20007868:	00090593          	mv	a1,s2
2000786c:	ab1f80ef          	jal	ra,2000031c <__adddf3>
20007870:	00012703          	lw	a4,0(sp)
20007874:	00050993          	mv	s3,a0
20007878:	00058913          	mv	s2,a1
2000787c:	ff8a0a13          	addi	s4,s4,-8
20007880:	fbbcdae3          	bge	s9,s11,20007834 <__kernel_rem_pio2+0x104>
20007884:	01372023          	sw	s3,0(a4)
20007888:	01272223          	sw	s2,4(a4)
2000788c:	001d0d13          	addi	s10,s10,1
20007890:	00870713          	addi	a4,a4,8
20007894:	f49ff06f          	j	200077dc <__kernel_rem_pio2+0xac>
20007898:	002c1793          	slli	a5,s8,0x2
2000789c:	03078793          	addi	a5,a5,48
200078a0:	002787b3          	add	a5,a5,sp
200078a4:	00f12623          	sw	a5,12(sp)
200078a8:	8d41a803          	lw	a6,-1836(gp) # 20009a74 <dp_l+0x10>
200078ac:	8d01a783          	lw	a5,-1840(gp) # 20009a70 <dp_l+0xc>
200078b0:	000c0993          	mv	s3,s8
200078b4:	01012a23          	sw	a6,20(sp)
200078b8:	00f12823          	sw	a5,16(sp)
200078bc:	8441a803          	lw	a6,-1980(gp) # 200099e4 <_impure_ptr+0x4c>
200078c0:	8401a783          	lw	a5,-1984(gp) # 200099e0 <_impure_ptr+0x48>
200078c4:	01012e23          	sw	a6,28(sp)
200078c8:	00f12c23          	sw	a5,24(sp)
200078cc:	82c1a803          	lw	a6,-2004(gp) # 200099cc <_impure_ptr+0x34>
200078d0:	8281a783          	lw	a5,-2008(gp) # 200099c8 <_impure_ptr+0x30>
200078d4:	03012223          	sw	a6,36(sp)
200078d8:	02f12023          	sw	a5,32(sp)
200078dc:	00399793          	slli	a5,s3,0x3
200078e0:	03010713          	addi	a4,sp,48
200078e4:	23078793          	addi	a5,a5,560
200078e8:	00e787b3          	add	a5,a5,a4
200078ec:	f607aa03          	lw	s4,-160(a5)
200078f0:	f647a903          	lw	s2,-156(a5)
200078f4:	00070d93          	mv	s11,a4
200078f8:	00070813          	mv	a6,a4
200078fc:	00098d13          	mv	s10,s3
20007900:	1fa04c63          	bgtz	s10,20007af8 <__kernel_rem_pio2+0x3c8>
20007904:	00040613          	mv	a2,s0
20007908:	000a0513          	mv	a0,s4
2000790c:	00090593          	mv	a1,s2
20007910:	090010ef          	jal	ra,200089a0 <scalbn>
20007914:	8d81a603          	lw	a2,-1832(gp) # 20009a78 <dp_l+0x14>
20007918:	8dc1a683          	lw	a3,-1828(gp) # 20009a7c <dp_l+0x18>
2000791c:	00050a13          	mv	s4,a0
20007920:	00058913          	mv	s2,a1
20007924:	995f90ef          	jal	ra,200012b8 <__muldf3>
20007928:	6d1000ef          	jal	ra,200087f8 <floor>
2000792c:	8e01a603          	lw	a2,-1824(gp) # 20009a80 <dp_l+0x1c>
20007930:	8e41a683          	lw	a3,-1820(gp) # 20009a84 <dp_l+0x20>
20007934:	985f90ef          	jal	ra,200012b8 <__muldf3>
20007938:	00050613          	mv	a2,a0
2000793c:	00058693          	mv	a3,a1
20007940:	000a0513          	mv	a0,s4
20007944:	00090593          	mv	a1,s2
20007948:	f7df90ef          	jal	ra,200018c4 <__subdf3>
2000794c:	00050a13          	mv	s4,a0
20007950:	00058913          	mv	s2,a1
20007954:	f60fa0ef          	jal	ra,200020b4 <__fixdfsi>
20007958:	00a12023          	sw	a0,0(sp)
2000795c:	fd8fa0ef          	jal	ra,20002134 <__floatsidf>
20007960:	00050613          	mv	a2,a0
20007964:	00058693          	mv	a3,a1
20007968:	000a0513          	mv	a0,s4
2000796c:	00090593          	mv	a1,s2
20007970:	f55f90ef          	jal	ra,200018c4 <__subdf3>
20007974:	00050d13          	mv	s10,a0
20007978:	00058a13          	mv	s4,a1
2000797c:	20805863          	blez	s0,20007b8c <__kernel_rem_pio2+0x45c>
20007980:	fff98693          	addi	a3,s3,-1
20007984:	00269693          	slli	a3,a3,0x2
20007988:	23068793          	addi	a5,a3,560
2000798c:	03010713          	addi	a4,sp,48
20007990:	00e786b3          	add	a3,a5,a4
20007994:	dd06a903          	lw	s2,-560(a3)
20007998:	00012783          	lw	a5,0(sp)
2000799c:	01800593          	li	a1,24
200079a0:	408585b3          	sub	a1,a1,s0
200079a4:	40b95633          	sra	a2,s2,a1
200079a8:	00c787b3          	add	a5,a5,a2
200079ac:	00b61633          	sll	a2,a2,a1
200079b0:	40c90933          	sub	s2,s2,a2
200079b4:	dd26a823          	sw	s2,-560(a3)
200079b8:	01700693          	li	a3,23
200079bc:	408686b3          	sub	a3,a3,s0
200079c0:	00f12023          	sw	a5,0(sp)
200079c4:	40d95933          	sra	s2,s2,a3
200079c8:	09205a63          	blez	s2,20007a5c <__kernel_rem_pio2+0x32c>
200079cc:	00012783          	lw	a5,0(sp)
200079d0:	010005b7          	lui	a1,0x1000
200079d4:	00000613          	li	a2,0
200079d8:	00178793          	addi	a5,a5,1
200079dc:	00f12023          	sw	a5,0(sp)
200079e0:	00000893          	li	a7,0
200079e4:	fff58513          	addi	a0,a1,-1 # ffffff <_start-0x1f000001>
200079e8:	1f364263          	blt	a2,s3,20007bcc <__kernel_rem_pio2+0x49c>
200079ec:	00805a63          	blez	s0,20007a00 <__kernel_rem_pio2+0x2d0>
200079f0:	00100793          	li	a5,1
200079f4:	20f40863          	beq	s0,a5,20007c04 <__kernel_rem_pio2+0x4d4>
200079f8:	00200793          	li	a5,2
200079fc:	22f40863          	beq	s0,a5,20007c2c <__kernel_rem_pio2+0x4fc>
20007a00:	00200793          	li	a5,2
20007a04:	04f91c63          	bne	s2,a5,20007a5c <__kernel_rem_pio2+0x32c>
20007a08:	8e81a503          	lw	a0,-1816(gp) # 20009a88 <dp_l+0x24>
20007a0c:	8ec1a583          	lw	a1,-1812(gp) # 20009a8c <dp_l+0x28>
20007a10:	000d0613          	mv	a2,s10
20007a14:	000a0693          	mv	a3,s4
20007a18:	03112423          	sw	a7,40(sp)
20007a1c:	ea9f90ef          	jal	ra,200018c4 <__subdf3>
20007a20:	02812883          	lw	a7,40(sp)
20007a24:	00050d13          	mv	s10,a0
20007a28:	00058a13          	mv	s4,a1
20007a2c:	02088863          	beqz	a7,20007a5c <__kernel_rem_pio2+0x32c>
20007a30:	8e81a503          	lw	a0,-1816(gp) # 20009a88 <dp_l+0x24>
20007a34:	8ec1a583          	lw	a1,-1812(gp) # 20009a8c <dp_l+0x28>
20007a38:	00040613          	mv	a2,s0
20007a3c:	765000ef          	jal	ra,200089a0 <scalbn>
20007a40:	00050613          	mv	a2,a0
20007a44:	00058693          	mv	a3,a1
20007a48:	000d0513          	mv	a0,s10
20007a4c:	000a0593          	mv	a1,s4
20007a50:	e75f90ef          	jal	ra,200018c4 <__subdf3>
20007a54:	00050d13          	mv	s10,a0
20007a58:	00058a13          	mv	s4,a1
20007a5c:	00000613          	li	a2,0
20007a60:	00000693          	li	a3,0
20007a64:	000d0513          	mv	a0,s10
20007a68:	000a0593          	mv	a1,s4
20007a6c:	c41fb0ef          	jal	ra,200036ac <__eqdf2>
20007a70:	2e051c63          	bnez	a0,20007d68 <__kernel_rem_pio2+0x638>
20007a74:	fff98a13          	addi	s4,s3,-1
20007a78:	000a0713          	mv	a4,s4
20007a7c:	00000693          	li	a3,0
20007a80:	1d875863          	bge	a4,s8,20007c50 <__kernel_rem_pio2+0x520>
20007a84:	20068e63          	beqz	a3,20007ca0 <__kernel_rem_pio2+0x570>
20007a88:	002a1713          	slli	a4,s4,0x2
20007a8c:	03070793          	addi	a5,a4,48
20007a90:	00278733          	add	a4,a5,sp
20007a94:	00072703          	lw	a4,0(a4)
20007a98:	fe840413          	addi	s0,s0,-24 # ffffefe8 <__global_pointer$+0xdfff4e48>
20007a9c:	2c070263          	beqz	a4,20007d60 <__kernel_rem_pio2+0x630>
20007aa0:	8e81a503          	lw	a0,-1816(gp) # 20009a88 <dp_l+0x24>
20007aa4:	8ec1a583          	lw	a1,-1812(gp) # 20009a8c <dp_l+0x28>
20007aa8:	00040613          	mv	a2,s0
20007aac:	000a0c93          	mv	s9,s4
20007ab0:	6f1000ef          	jal	ra,200089a0 <scalbn>
20007ab4:	8d01ab03          	lw	s6,-1840(gp) # 20009a70 <dp_l+0xc>
20007ab8:	8d41ab83          	lw	s7,-1836(gp) # 20009a74 <dp_l+0x10>
20007abc:	00050413          	mv	s0,a0
20007ac0:	00058993          	mv	s3,a1
20007ac4:	360cda63          	bgez	s9,20007e38 <__kernel_rem_pio2+0x708>
20007ac8:	000a0993          	mv	s3,s4
20007acc:	20009737          	lui	a4,0x20009
20007ad0:	4209c463          	bltz	s3,20007ef8 <__kernel_rem_pio2+0x7c8>
20007ad4:	00399c93          	slli	s9,s3,0x3
20007ad8:	1c010793          	addi	a5,sp,448
20007adc:	09070d93          	addi	s11,a4,144 # 20009090 <PIo2>
20007ae0:	00fc8cb3          	add	s9,s9,a5
20007ae4:	00000b93          	li	s7,0
20007ae8:	00000b13          	li	s6,0
20007aec:	00000d13          	li	s10,0
20007af0:	413a0433          	sub	s0,s4,s3
20007af4:	3dc0006f          	j	20007ed0 <__kernel_rem_pio2+0x7a0>
20007af8:	01012603          	lw	a2,16(sp)
20007afc:	01412683          	lw	a3,20(sp)
20007b00:	000a0513          	mv	a0,s4
20007b04:	00090593          	mv	a1,s2
20007b08:	01012023          	sw	a6,0(sp)
20007b0c:	facf90ef          	jal	ra,200012b8 <__muldf3>
20007b10:	da4fa0ef          	jal	ra,200020b4 <__fixdfsi>
20007b14:	e20fa0ef          	jal	ra,20002134 <__floatsidf>
20007b18:	01812603          	lw	a2,24(sp)
20007b1c:	01c12683          	lw	a3,28(sp)
20007b20:	02a12623          	sw	a0,44(sp)
20007b24:	02b12423          	sw	a1,40(sp)
20007b28:	f90f90ef          	jal	ra,200012b8 <__muldf3>
20007b2c:	00050613          	mv	a2,a0
20007b30:	00058693          	mv	a3,a1
20007b34:	000a0513          	mv	a0,s4
20007b38:	00090593          	mv	a1,s2
20007b3c:	d89f90ef          	jal	ra,200018c4 <__subdf3>
20007b40:	d74fa0ef          	jal	ra,200020b4 <__fixdfsi>
20007b44:	fffd0d13          	addi	s10,s10,-1
20007b48:	1c010793          	addi	a5,sp,448
20007b4c:	003d1693          	slli	a3,s10,0x3
20007b50:	00012803          	lw	a6,0(sp)
20007b54:	00d786b3          	add	a3,a5,a3
20007b58:	02c12303          	lw	t1,44(sp)
20007b5c:	02812883          	lw	a7,40(sp)
20007b60:	0006a603          	lw	a2,0(a3)
20007b64:	0046a683          	lw	a3,4(a3)
20007b68:	00a82023          	sw	a0,0(a6)
20007b6c:	00088593          	mv	a1,a7
20007b70:	00030513          	mv	a0,t1
20007b74:	fa8f80ef          	jal	ra,2000031c <__adddf3>
20007b78:	00012803          	lw	a6,0(sp)
20007b7c:	00050a13          	mv	s4,a0
20007b80:	00058913          	mv	s2,a1
20007b84:	00480813          	addi	a6,a6,4
20007b88:	d79ff06f          	j	20007900 <__kernel_rem_pio2+0x1d0>
20007b8c:	02041263          	bnez	s0,20007bb0 <__kernel_rem_pio2+0x480>
20007b90:	fff98693          	addi	a3,s3,-1
20007b94:	00269693          	slli	a3,a3,0x2
20007b98:	23068793          	addi	a5,a3,560
20007b9c:	03010713          	addi	a4,sp,48
20007ba0:	00e786b3          	add	a3,a5,a4
20007ba4:	dd06a903          	lw	s2,-560(a3)
20007ba8:	41795913          	srai	s2,s2,0x17
20007bac:	e1dff06f          	j	200079c8 <__kernel_rem_pio2+0x298>
20007bb0:	02012603          	lw	a2,32(sp)
20007bb4:	02412683          	lw	a3,36(sp)
20007bb8:	00000913          	li	s2,0
20007bbc:	e18f90ef          	jal	ra,200011d4 <__gedf2>
20007bc0:	e8054ee3          	bltz	a0,20007a5c <__kernel_rem_pio2+0x32c>
20007bc4:	00200913          	li	s2,2
20007bc8:	e05ff06f          	j	200079cc <__kernel_rem_pio2+0x29c>
20007bcc:	000da683          	lw	a3,0(s11)
20007bd0:	02089263          	bnez	a7,20007bf4 <__kernel_rem_pio2+0x4c4>
20007bd4:	00068863          	beqz	a3,20007be4 <__kernel_rem_pio2+0x4b4>
20007bd8:	40d586b3          	sub	a3,a1,a3
20007bdc:	00dda023          	sw	a3,0(s11)
20007be0:	00100693          	li	a3,1
20007be4:	00160613          	addi	a2,a2,1
20007be8:	004d8d93          	addi	s11,s11,4
20007bec:	00068893          	mv	a7,a3
20007bf0:	df9ff06f          	j	200079e8 <__kernel_rem_pio2+0x2b8>
20007bf4:	40d506b3          	sub	a3,a0,a3
20007bf8:	00dda023          	sw	a3,0(s11)
20007bfc:	00088693          	mv	a3,a7
20007c00:	fe5ff06f          	j	20007be4 <__kernel_rem_pio2+0x4b4>
20007c04:	fff98793          	addi	a5,s3,-1
20007c08:	00279793          	slli	a5,a5,0x2
20007c0c:	23078793          	addi	a5,a5,560
20007c10:	03010713          	addi	a4,sp,48
20007c14:	00e787b3          	add	a5,a5,a4
20007c18:	dd07a683          	lw	a3,-560(a5)
20007c1c:	00969693          	slli	a3,a3,0x9
20007c20:	0096d693          	srli	a3,a3,0x9
20007c24:	dcd7a823          	sw	a3,-560(a5)
20007c28:	dd9ff06f          	j	20007a00 <__kernel_rem_pio2+0x2d0>
20007c2c:	fff98793          	addi	a5,s3,-1
20007c30:	00279793          	slli	a5,a5,0x2
20007c34:	23078793          	addi	a5,a5,560
20007c38:	03010713          	addi	a4,sp,48
20007c3c:	00e787b3          	add	a5,a5,a4
20007c40:	dd07a683          	lw	a3,-560(a5)
20007c44:	00a69693          	slli	a3,a3,0xa
20007c48:	00a6d693          	srli	a3,a3,0xa
20007c4c:	fd9ff06f          	j	20007c24 <__kernel_rem_pio2+0x4f4>
20007c50:	00271613          	slli	a2,a4,0x2
20007c54:	03060793          	addi	a5,a2,48
20007c58:	00278633          	add	a2,a5,sp
20007c5c:	00062603          	lw	a2,0(a2)
20007c60:	fff70713          	addi	a4,a4,-1
20007c64:	00c6e6b3          	or	a3,a3,a2
20007c68:	e19ff06f          	j	20007a80 <__kernel_rem_pio2+0x350>
20007c6c:	00190913          	addi	s2,s2,1
20007c70:	ffc7a703          	lw	a4,-4(a5)
20007c74:	ffc78793          	addi	a5,a5,-4
20007c78:	fe070ae3          	beqz	a4,20007c6c <__kernel_rem_pio2+0x53c>
20007c7c:	01798a33          	add	s4,s3,s7
20007c80:	003a1a13          	slli	s4,s4,0x3
20007c84:	08010793          	addi	a5,sp,128
20007c88:	00198d13          	addi	s10,s3,1
20007c8c:	01478a33          	add	s4,a5,s4
20007c90:	01298933          	add	s2,s3,s2
20007c94:	01a95c63          	bge	s2,s10,20007cac <__kernel_rem_pio2+0x57c>
20007c98:	00090993          	mv	s3,s2
20007c9c:	c41ff06f          	j	200078dc <__kernel_rem_pio2+0x1ac>
20007ca0:	00c12783          	lw	a5,12(sp)
20007ca4:	00100913          	li	s2,1
20007ca8:	fc9ff06f          	j	20007c70 <__kernel_rem_pio2+0x540>
20007cac:	00812783          	lw	a5,8(sp)
20007cb0:	01ab0733          	add	a4,s6,s10
20007cb4:	00271713          	slli	a4,a4,0x2
20007cb8:	00e78733          	add	a4,a5,a4
20007cbc:	00072503          	lw	a0,0(a4)
20007cc0:	00000993          	li	s3,0
20007cc4:	c70fa0ef          	jal	ra,20002134 <__floatsidf>
20007cc8:	00aa2023          	sw	a0,0(s4)
20007ccc:	00ba2223          	sw	a1,4(s4)
20007cd0:	000a0893          	mv	a7,s4
20007cd4:	00000813          	li	a6,0
20007cd8:	00000713          	li	a4,0
20007cdc:	030cd263          	bge	s9,a6,20007d00 <__kernel_rem_pio2+0x5d0>
20007ce0:	003d1693          	slli	a3,s10,0x3
20007ce4:	1c010793          	addi	a5,sp,448
20007ce8:	00d786b3          	add	a3,a5,a3
20007cec:	00e6a023          	sw	a4,0(a3)
20007cf0:	0136a223          	sw	s3,4(a3)
20007cf4:	001d0d13          	addi	s10,s10,1
20007cf8:	008a0a13          	addi	s4,s4,8
20007cfc:	f99ff06f          	j	20007c94 <__kernel_rem_pio2+0x564>
20007d00:	00412783          	lw	a5,4(sp)
20007d04:	00381593          	slli	a1,a6,0x3
20007d08:	0008a603          	lw	a2,0(a7)
20007d0c:	00b785b3          	add	a1,a5,a1
20007d10:	0048a683          	lw	a3,4(a7)
20007d14:	0005a503          	lw	a0,0(a1)
20007d18:	0045a583          	lw	a1,4(a1)
20007d1c:	03012423          	sw	a6,40(sp)
20007d20:	01112023          	sw	a7,0(sp)
20007d24:	02e12623          	sw	a4,44(sp)
20007d28:	d90f90ef          	jal	ra,200012b8 <__muldf3>
20007d2c:	02c12703          	lw	a4,44(sp)
20007d30:	00050613          	mv	a2,a0
20007d34:	00058693          	mv	a3,a1
20007d38:	00070513          	mv	a0,a4
20007d3c:	00098593          	mv	a1,s3
20007d40:	ddcf80ef          	jal	ra,2000031c <__adddf3>
20007d44:	02812803          	lw	a6,40(sp)
20007d48:	00012883          	lw	a7,0(sp)
20007d4c:	00050713          	mv	a4,a0
20007d50:	00058993          	mv	s3,a1
20007d54:	00180813          	addi	a6,a6,1
20007d58:	ff888893          	addi	a7,a7,-8
20007d5c:	f81ff06f          	j	20007cdc <__kernel_rem_pio2+0x5ac>
20007d60:	fffa0a13          	addi	s4,s4,-1
20007d64:	d25ff06f          	j	20007a88 <__kernel_rem_pio2+0x358>
20007d68:	40800633          	neg	a2,s0
20007d6c:	000d0513          	mv	a0,s10
20007d70:	000a0593          	mv	a1,s4
20007d74:	42d000ef          	jal	ra,200089a0 <scalbn>
20007d78:	8401ab03          	lw	s6,-1984(gp) # 200099e0 <_impure_ptr+0x48>
20007d7c:	8441ab83          	lw	s7,-1980(gp) # 200099e4 <_impure_ptr+0x4c>
20007d80:	00050d93          	mv	s11,a0
20007d84:	000b0613          	mv	a2,s6
20007d88:	000b8693          	mv	a3,s7
20007d8c:	00058d13          	mv	s10,a1
20007d90:	c44f90ef          	jal	ra,200011d4 <__gedf2>
20007d94:	00299c93          	slli	s9,s3,0x2
20007d98:	06054e63          	bltz	a0,20007e14 <__kernel_rem_pio2+0x6e4>
20007d9c:	8d01a603          	lw	a2,-1840(gp) # 20009a70 <dp_l+0xc>
20007da0:	8d41a683          	lw	a3,-1836(gp) # 20009a74 <dp_l+0x10>
20007da4:	000d8513          	mv	a0,s11
20007da8:	000d0593          	mv	a1,s10
20007dac:	d0cf90ef          	jal	ra,200012b8 <__muldf3>
20007db0:	b04fa0ef          	jal	ra,200020b4 <__fixdfsi>
20007db4:	230c8793          	addi	a5,s9,560
20007db8:	03010713          	addi	a4,sp,48
20007dbc:	00e78cb3          	add	s9,a5,a4
20007dc0:	00a12223          	sw	a0,4(sp)
20007dc4:	b70fa0ef          	jal	ra,20002134 <__floatsidf>
20007dc8:	000b0613          	mv	a2,s6
20007dcc:	000b8693          	mv	a3,s7
20007dd0:	ce8f90ef          	jal	ra,200012b8 <__muldf3>
20007dd4:	00050613          	mv	a2,a0
20007dd8:	00058693          	mv	a3,a1
20007ddc:	000d8513          	mv	a0,s11
20007de0:	000d0593          	mv	a1,s10
20007de4:	ae1f90ef          	jal	ra,200018c4 <__subdf3>
20007de8:	accfa0ef          	jal	ra,200020b4 <__fixdfsi>
20007dec:	00198a13          	addi	s4,s3,1
20007df0:	002a1713          	slli	a4,s4,0x2
20007df4:	00412803          	lw	a6,4(sp)
20007df8:	23070793          	addi	a5,a4,560
20007dfc:	03010713          	addi	a4,sp,48
20007e00:	dcaca823          	sw	a0,-560(s9)
20007e04:	00e78733          	add	a4,a5,a4
20007e08:	01840413          	addi	s0,s0,24
20007e0c:	dd072823          	sw	a6,-560(a4)
20007e10:	c91ff06f          	j	20007aa0 <__kernel_rem_pio2+0x370>
20007e14:	230c8793          	addi	a5,s9,560
20007e18:	03010713          	addi	a4,sp,48
20007e1c:	000d8513          	mv	a0,s11
20007e20:	000d0593          	mv	a1,s10
20007e24:	00e78cb3          	add	s9,a5,a4
20007e28:	a8cfa0ef          	jal	ra,200020b4 <__fixdfsi>
20007e2c:	dcaca823          	sw	a0,-560(s9)
20007e30:	00098a13          	mv	s4,s3
20007e34:	c6dff06f          	j	20007aa0 <__kernel_rem_pio2+0x370>
20007e38:	002c9713          	slli	a4,s9,0x2
20007e3c:	003c9d13          	slli	s10,s9,0x3
20007e40:	1c010793          	addi	a5,sp,448
20007e44:	01a78d33          	add	s10,a5,s10
20007e48:	03070793          	addi	a5,a4,48
20007e4c:	00278733          	add	a4,a5,sp
20007e50:	00072503          	lw	a0,0(a4)
20007e54:	fffc8c93          	addi	s9,s9,-1
20007e58:	adcfa0ef          	jal	ra,20002134 <__floatsidf>
20007e5c:	00040613          	mv	a2,s0
20007e60:	00098693          	mv	a3,s3
20007e64:	c54f90ef          	jal	ra,200012b8 <__muldf3>
20007e68:	00ad2023          	sw	a0,0(s10)
20007e6c:	00bd2223          	sw	a1,4(s10)
20007e70:	00040513          	mv	a0,s0
20007e74:	00098593          	mv	a1,s3
20007e78:	000b0613          	mv	a2,s6
20007e7c:	000b8693          	mv	a3,s7
20007e80:	c38f90ef          	jal	ra,200012b8 <__muldf3>
20007e84:	00050413          	mv	s0,a0
20007e88:	00058993          	mv	s3,a1
20007e8c:	c39ff06f          	j	20007ac4 <__kernel_rem_pio2+0x394>
20007e90:	000ca603          	lw	a2,0(s9)
20007e94:	004ca683          	lw	a3,4(s9)
20007e98:	000da503          	lw	a0,0(s11)
20007e9c:	004da583          	lw	a1,4(s11)
20007ea0:	001d0d13          	addi	s10,s10,1
20007ea4:	008d8d93          	addi	s11,s11,8
20007ea8:	c10f90ef          	jal	ra,200012b8 <__muldf3>
20007eac:	00050613          	mv	a2,a0
20007eb0:	00058693          	mv	a3,a1
20007eb4:	000b8513          	mv	a0,s7
20007eb8:	000b0593          	mv	a1,s6
20007ebc:	c60f80ef          	jal	ra,2000031c <__adddf3>
20007ec0:	00050b93          	mv	s7,a0
20007ec4:	00058b13          	mv	s6,a1
20007ec8:	008c8c93          	addi	s9,s9,8
20007ecc:	20009737          	lui	a4,0x20009
20007ed0:	01ac4463          	blt	s8,s10,20007ed8 <__kernel_rem_pio2+0x7a8>
20007ed4:	fba45ee3          	bge	s0,s10,20007e90 <__kernel_rem_pio2+0x760>
20007ed8:	00341413          	slli	s0,s0,0x3
20007edc:	23040793          	addi	a5,s0,560
20007ee0:	03010693          	addi	a3,sp,48
20007ee4:	00d78433          	add	s0,a5,a3
20007ee8:	ed742023          	sw	s7,-320(s0)
20007eec:	ed642223          	sw	s6,-316(s0)
20007ef0:	fff98993          	addi	s3,s3,-1
20007ef4:	bddff06f          	j	20007ad0 <__kernel_rem_pio2+0x3a0>
20007ef8:	00200713          	li	a4,2
20007efc:	05574863          	blt	a4,s5,20007f4c <__kernel_rem_pio2+0x81c>
20007f00:	17504e63          	bgtz	s5,2000807c <__kernel_rem_pio2+0x94c>
20007f04:	0e0a8c63          	beqz	s5,20007ffc <__kernel_rem_pio2+0x8cc>
20007f08:	00012783          	lw	a5,0(sp)
20007f0c:	29c12083          	lw	ra,668(sp)
20007f10:	29812403          	lw	s0,664(sp)
20007f14:	29412483          	lw	s1,660(sp)
20007f18:	29012903          	lw	s2,656(sp)
20007f1c:	28c12983          	lw	s3,652(sp)
20007f20:	28812a03          	lw	s4,648(sp)
20007f24:	28412a83          	lw	s5,644(sp)
20007f28:	28012b03          	lw	s6,640(sp)
20007f2c:	27c12b83          	lw	s7,636(sp)
20007f30:	27812c03          	lw	s8,632(sp)
20007f34:	27412c83          	lw	s9,628(sp)
20007f38:	27012d03          	lw	s10,624(sp)
20007f3c:	26c12d83          	lw	s11,620(sp)
20007f40:	0077f513          	andi	a0,a5,7
20007f44:	2a010113          	addi	sp,sp,672
20007f48:	00008067          	ret
20007f4c:	00300713          	li	a4,3
20007f50:	faea9ce3          	bne	s5,a4,20007f08 <__kernel_rem_pio2+0x7d8>
20007f54:	003a1413          	slli	s0,s4,0x3
20007f58:	12010793          	addi	a5,sp,288
20007f5c:	00878433          	add	s0,a5,s0
20007f60:	00040993          	mv	s3,s0
20007f64:	000a0d93          	mv	s11,s4
20007f68:	ff898993          	addi	s3,s3,-8
20007f6c:	13b04a63          	bgtz	s11,200080a0 <__kernel_rem_pio2+0x970>
20007f70:	000a0d13          	mv	s10,s4
20007f74:	00100d93          	li	s11,1
20007f78:	ff840413          	addi	s0,s0,-8
20007f7c:	19adc463          	blt	s11,s10,20008104 <__kernel_rem_pio2+0x9d4>
20007f80:	00000513          	li	a0,0
20007f84:	00000593          	li	a1,0
20007f88:	00100413          	li	s0,1
20007f8c:	1d444e63          	blt	s0,s4,20008168 <__kernel_rem_pio2+0xa38>
20007f90:	12012783          	lw	a5,288(sp)
20007f94:	12412683          	lw	a3,292(sp)
20007f98:	12812603          	lw	a2,296(sp)
20007f9c:	12c12703          	lw	a4,300(sp)
20007fa0:	1e091463          	bnez	s2,20008188 <__kernel_rem_pio2+0xa58>
20007fa4:	00f4a023          	sw	a5,0(s1)
20007fa8:	00d4a223          	sw	a3,4(s1)
20007fac:	00c4a423          	sw	a2,8(s1)
20007fb0:	00e4a623          	sw	a4,12(s1)
20007fb4:	00058793          	mv	a5,a1
20007fb8:	00a4a823          	sw	a0,16(s1)
20007fbc:	00f4aa23          	sw	a5,20(s1)
20007fc0:	f49ff06f          	j	20007f08 <__kernel_rem_pio2+0x7d8>
20007fc4:	003a1713          	slli	a4,s4,0x3
20007fc8:	12010793          	addi	a5,sp,288
20007fcc:	00e78733          	add	a4,a5,a4
20007fd0:	00072603          	lw	a2,0(a4) # 20009000 <two_over_pi+0x7c>
20007fd4:	00472683          	lw	a3,4(a4)
20007fd8:	fffa0a13          	addi	s4,s4,-1
20007fdc:	b40f80ef          	jal	ra,2000031c <__adddf3>
20007fe0:	fe0a52e3          	bgez	s4,20007fc4 <__kernel_rem_pio2+0x894>
20007fe4:	00090663          	beqz	s2,20007ff0 <__kernel_rem_pio2+0x8c0>
20007fe8:	800007b7          	lui	a5,0x80000
20007fec:	00b7c5b3          	xor	a1,a5,a1
20007ff0:	00a4a023          	sw	a0,0(s1)
20007ff4:	00b4a223          	sw	a1,4(s1)
20007ff8:	f11ff06f          	j	20007f08 <__kernel_rem_pio2+0x7d8>
20007ffc:	00000513          	li	a0,0
20008000:	00000593          	li	a1,0
20008004:	fddff06f          	j	20007fe0 <__kernel_rem_pio2+0x8b0>
20008008:	00341713          	slli	a4,s0,0x3
2000800c:	12010793          	addi	a5,sp,288
20008010:	00e78733          	add	a4,a5,a4
20008014:	00072603          	lw	a2,0(a4)
20008018:	00472683          	lw	a3,4(a4)
2000801c:	fff40413          	addi	s0,s0,-1
20008020:	afcf80ef          	jal	ra,2000031c <__adddf3>
20008024:	fe0452e3          	bgez	s0,20008008 <__kernel_rem_pio2+0x8d8>
20008028:	00058713          	mv	a4,a1
2000802c:	00090663          	beqz	s2,20008038 <__kernel_rem_pio2+0x908>
20008030:	80000737          	lui	a4,0x80000
20008034:	00b74733          	xor	a4,a4,a1
20008038:	00a4a023          	sw	a0,0(s1)
2000803c:	00050613          	mv	a2,a0
20008040:	00058693          	mv	a3,a1
20008044:	12012503          	lw	a0,288(sp)
20008048:	12412583          	lw	a1,292(sp)
2000804c:	00e4a223          	sw	a4,4(s1)
20008050:	12010413          	addi	s0,sp,288
20008054:	871f90ef          	jal	ra,200018c4 <__subdf3>
20008058:	00100993          	li	s3,1
2000805c:	00840413          	addi	s0,s0,8
20008060:	033a5663          	bge	s4,s3,2000808c <__kernel_rem_pio2+0x95c>
20008064:	00090663          	beqz	s2,20008070 <__kernel_rem_pio2+0x940>
20008068:	800007b7          	lui	a5,0x80000
2000806c:	00b7c5b3          	xor	a1,a5,a1
20008070:	00a4a423          	sw	a0,8(s1)
20008074:	00b4a623          	sw	a1,12(s1)
20008078:	e91ff06f          	j	20007f08 <__kernel_rem_pio2+0x7d8>
2000807c:	000a0413          	mv	s0,s4
20008080:	00000513          	li	a0,0
20008084:	00000593          	li	a1,0
20008088:	f9dff06f          	j	20008024 <__kernel_rem_pio2+0x8f4>
2000808c:	00042603          	lw	a2,0(s0)
20008090:	00442683          	lw	a3,4(s0)
20008094:	00198993          	addi	s3,s3,1
20008098:	a84f80ef          	jal	ra,2000031c <__adddf3>
2000809c:	fc1ff06f          	j	2000805c <__kernel_rem_pio2+0x92c>
200080a0:	0009ac03          	lw	s8,0(s3)
200080a4:	0049ac83          	lw	s9,4(s3)
200080a8:	0089ab03          	lw	s6,8(s3)
200080ac:	00c9ab83          	lw	s7,12(s3)
200080b0:	000c0513          	mv	a0,s8
200080b4:	000b0613          	mv	a2,s6
200080b8:	000b8693          	mv	a3,s7
200080bc:	000c8593          	mv	a1,s9
200080c0:	a5cf80ef          	jal	ra,2000031c <__adddf3>
200080c4:	00050613          	mv	a2,a0
200080c8:	00058693          	mv	a3,a1
200080cc:	00050d13          	mv	s10,a0
200080d0:	00058a93          	mv	s5,a1
200080d4:	000c0513          	mv	a0,s8
200080d8:	000c8593          	mv	a1,s9
200080dc:	fe8f90ef          	jal	ra,200018c4 <__subdf3>
200080e0:	000b0613          	mv	a2,s6
200080e4:	000b8693          	mv	a3,s7
200080e8:	a34f80ef          	jal	ra,2000031c <__adddf3>
200080ec:	fffd8d93          	addi	s11,s11,-1
200080f0:	00a9a423          	sw	a0,8(s3)
200080f4:	00b9a623          	sw	a1,12(s3)
200080f8:	01a9a023          	sw	s10,0(s3)
200080fc:	0159a223          	sw	s5,4(s3)
20008100:	e69ff06f          	j	20007f68 <__kernel_rem_pio2+0x838>
20008104:	00042c03          	lw	s8,0(s0)
20008108:	00442c83          	lw	s9,4(s0)
2000810c:	00842b03          	lw	s6,8(s0)
20008110:	00c42b83          	lw	s7,12(s0)
20008114:	000c0513          	mv	a0,s8
20008118:	000b0613          	mv	a2,s6
2000811c:	000b8693          	mv	a3,s7
20008120:	000c8593          	mv	a1,s9
20008124:	9f8f80ef          	jal	ra,2000031c <__adddf3>
20008128:	00050613          	mv	a2,a0
2000812c:	00058693          	mv	a3,a1
20008130:	00050a93          	mv	s5,a0
20008134:	00058993          	mv	s3,a1
20008138:	000c0513          	mv	a0,s8
2000813c:	000c8593          	mv	a1,s9
20008140:	f84f90ef          	jal	ra,200018c4 <__subdf3>
20008144:	000b0613          	mv	a2,s6
20008148:	000b8693          	mv	a3,s7
2000814c:	9d0f80ef          	jal	ra,2000031c <__adddf3>
20008150:	fffd0d13          	addi	s10,s10,-1
20008154:	00a42423          	sw	a0,8(s0)
20008158:	00b42623          	sw	a1,12(s0)
2000815c:	01542023          	sw	s5,0(s0)
20008160:	01342223          	sw	s3,4(s0)
20008164:	e15ff06f          	j	20007f78 <__kernel_rem_pio2+0x848>
20008168:	003a1713          	slli	a4,s4,0x3
2000816c:	12010793          	addi	a5,sp,288
20008170:	00e78733          	add	a4,a5,a4
20008174:	00072603          	lw	a2,0(a4) # 80000000 <__global_pointer$+0x5fff5e60>
20008178:	00472683          	lw	a3,4(a4)
2000817c:	fffa0a13          	addi	s4,s4,-1
20008180:	99cf80ef          	jal	ra,2000031c <__adddf3>
20008184:	e09ff06f          	j	20007f8c <__kernel_rem_pio2+0x85c>
20008188:	00f4a023          	sw	a5,0(s1)
2000818c:	800007b7          	lui	a5,0x80000
20008190:	00d7c6b3          	xor	a3,a5,a3
20008194:	00e7c733          	xor	a4,a5,a4
20008198:	00d4a223          	sw	a3,4(s1)
2000819c:	00c4a423          	sw	a2,8(s1)
200081a0:	00e4a623          	sw	a4,12(s1)
200081a4:	00a4a823          	sw	a0,16(s1)
200081a8:	00b7c7b3          	xor	a5,a5,a1
200081ac:	e11ff06f          	j	20007fbc <__kernel_rem_pio2+0x88c>

200081b0 <__kernel_tan>:
200081b0:	fb010113          	addi	sp,sp,-80
200081b4:	800007b7          	lui	a5,0x80000
200081b8:	03512a23          	sw	s5,52(sp)
200081bc:	fff7ca93          	not	s5,a5
200081c0:	04812423          	sw	s0,72(sp)
200081c4:	04912223          	sw	s1,68(sp)
200081c8:	03412c23          	sw	s4,56(sp)
200081cc:	03812423          	sw	s8,40(sp)
200081d0:	03a12023          	sw	s10,32(sp)
200081d4:	00070a13          	mv	s4,a4
200081d8:	04112623          	sw	ra,76(sp)
200081dc:	05212023          	sw	s2,64(sp)
200081e0:	03312e23          	sw	s3,60(sp)
200081e4:	03612823          	sw	s6,48(sp)
200081e8:	03712623          	sw	s7,44(sp)
200081ec:	03912223          	sw	s9,36(sp)
200081f0:	01b12e23          	sw	s11,28(sp)
200081f4:	00b12223          	sw	a1,4(sp)
200081f8:	0155fab3          	and	s5,a1,s5
200081fc:	3e300737          	lui	a4,0x3e300
20008200:	00050d13          	mv	s10,a0
20008204:	00058413          	mv	s0,a1
20008208:	00060c13          	mv	s8,a2
2000820c:	00068493          	mv	s1,a3
20008210:	16ead063          	bge	s5,a4,20008370 <__kernel_tan+0x1c0>
20008214:	ea1f90ef          	jal	ra,200020b4 <__fixdfsi>
20008218:	1a051e63          	bnez	a0,200083d4 <__kernel_tan+0x224>
2000821c:	001a0793          	addi	a5,s4,1
20008220:	01a7e7b3          	or	a5,a5,s10
20008224:	0157e7b3          	or	a5,a5,s5
20008228:	06079863          	bnez	a5,20008298 <__kernel_tan+0xe8>
2000822c:	000d0513          	mv	a0,s10
20008230:	00040593          	mv	a1,s0
20008234:	5ac000ef          	jal	ra,200087e0 <fabs>
20008238:	00050613          	mv	a2,a0
2000823c:	00058693          	mv	a3,a1
20008240:	8e81a503          	lw	a0,-1816(gp) # 20009a88 <dp_l+0x24>
20008244:	8ec1a583          	lw	a1,-1812(gp) # 20009a8c <dp_l+0x28>
20008248:	8b1f80ef          	jal	ra,20000af8 <__divdf3>
2000824c:	00050d13          	mv	s10,a0
20008250:	00058413          	mv	s0,a1
20008254:	04c12083          	lw	ra,76(sp)
20008258:	00040593          	mv	a1,s0
2000825c:	04812403          	lw	s0,72(sp)
20008260:	04412483          	lw	s1,68(sp)
20008264:	04012903          	lw	s2,64(sp)
20008268:	03c12983          	lw	s3,60(sp)
2000826c:	03812a03          	lw	s4,56(sp)
20008270:	03412a83          	lw	s5,52(sp)
20008274:	03012b03          	lw	s6,48(sp)
20008278:	02c12b83          	lw	s7,44(sp)
2000827c:	02812c03          	lw	s8,40(sp)
20008280:	02412c83          	lw	s9,36(sp)
20008284:	01c12d83          	lw	s11,28(sp)
20008288:	000d0513          	mv	a0,s10
2000828c:	02012d03          	lw	s10,32(sp)
20008290:	05010113          	addi	sp,sp,80
20008294:	00008067          	ret
20008298:	00100793          	li	a5,1
2000829c:	fafa0ce3          	beq	s4,a5,20008254 <__kernel_tan+0xa4>
200082a0:	00048693          	mv	a3,s1
200082a4:	000c0613          	mv	a2,s8
200082a8:	000d0513          	mv	a0,s10
200082ac:	00040593          	mv	a1,s0
200082b0:	86cf80ef          	jal	ra,2000031c <__adddf3>
200082b4:	00058b13          	mv	s6,a1
200082b8:	00050613          	mv	a2,a0
200082bc:	00058693          	mv	a3,a1
200082c0:	8f01a503          	lw	a0,-1808(gp) # 20009a90 <dp_l+0x2c>
200082c4:	8f41a583          	lw	a1,-1804(gp) # 20009a94 <dp_l+0x30>
200082c8:	00000b93          	li	s7,0
200082cc:	00048a13          	mv	s4,s1
200082d0:	829f80ef          	jal	ra,20000af8 <__divdf3>
200082d4:	00058913          	mv	s2,a1
200082d8:	00050993          	mv	s3,a0
200082dc:	000d0613          	mv	a2,s10
200082e0:	00040693          	mv	a3,s0
200082e4:	000b8513          	mv	a0,s7
200082e8:	000b0593          	mv	a1,s6
200082ec:	dd8f90ef          	jal	ra,200018c4 <__subdf3>
200082f0:	000c0a93          	mv	s5,s8
200082f4:	00050613          	mv	a2,a0
200082f8:	00058693          	mv	a3,a1
200082fc:	000a8513          	mv	a0,s5
20008300:	000a0593          	mv	a1,s4
20008304:	dc0f90ef          	jal	ra,200018c4 <__subdf3>
20008308:	00000493          	li	s1,0
2000830c:	00048613          	mv	a2,s1
20008310:	00090693          	mv	a3,s2
20008314:	fa5f80ef          	jal	ra,200012b8 <__muldf3>
20008318:	00050a93          	mv	s5,a0
2000831c:	00058a13          	mv	s4,a1
20008320:	00048613          	mv	a2,s1
20008324:	00090693          	mv	a3,s2
20008328:	000b8513          	mv	a0,s7
2000832c:	000b0593          	mv	a1,s6
20008330:	f89f80ef          	jal	ra,200012b8 <__muldf3>
20008334:	8e81a603          	lw	a2,-1816(gp) # 20009a88 <dp_l+0x24>
20008338:	8ec1a683          	lw	a3,-1812(gp) # 20009a8c <dp_l+0x28>
2000833c:	fe1f70ef          	jal	ra,2000031c <__adddf3>
20008340:	00050613          	mv	a2,a0
20008344:	00058693          	mv	a3,a1
20008348:	000a8513          	mv	a0,s5
2000834c:	000a0593          	mv	a1,s4
20008350:	fcdf70ef          	jal	ra,2000031c <__adddf3>
20008354:	00098613          	mv	a2,s3
20008358:	00090693          	mv	a3,s2
2000835c:	f5df80ef          	jal	ra,200012b8 <__muldf3>
20008360:	00048613          	mv	a2,s1
20008364:	00090693          	mv	a3,s2
20008368:	fb5f70ef          	jal	ra,2000031c <__adddf3>
2000836c:	ee1ff06f          	j	2000824c <__kernel_tan+0x9c>
20008370:	3fe59737          	lui	a4,0x3fe59
20008374:	42770713          	addi	a4,a4,1063 # 3fe59427 <__global_pointer$+0x1fe4f287>
20008378:	05575e63          	bge	a4,s5,200083d4 <__kernel_tan+0x224>
2000837c:	0005d663          	bgez	a1,20008388 <__kernel_tan+0x1d8>
20008380:	00b7c433          	xor	s0,a5,a1
20008384:	00d7c4b3          	xor	s1,a5,a3
20008388:	8f81a503          	lw	a0,-1800(gp) # 20009a98 <dp_l+0x34>
2000838c:	8fc1a583          	lw	a1,-1796(gp) # 20009a9c <dp_l+0x38>
20008390:	000d0613          	mv	a2,s10
20008394:	00040693          	mv	a3,s0
20008398:	d2cf90ef          	jal	ra,200018c4 <__subdf3>
2000839c:	00058413          	mv	s0,a1
200083a0:	00050913          	mv	s2,a0
200083a4:	9041a583          	lw	a1,-1788(gp) # 20009aa4 <dp_l+0x40>
200083a8:	9001a503          	lw	a0,-1792(gp) # 20009aa0 <dp_l+0x3c>
200083ac:	000c0613          	mv	a2,s8
200083b0:	00048693          	mv	a3,s1
200083b4:	d10f90ef          	jal	ra,200018c4 <__subdf3>
200083b8:	00040693          	mv	a3,s0
200083bc:	00090613          	mv	a2,s2
200083c0:	f5df70ef          	jal	ra,2000031c <__adddf3>
200083c4:	00050d13          	mv	s10,a0
200083c8:	00058413          	mv	s0,a1
200083cc:	00000c13          	li	s8,0
200083d0:	00000493          	li	s1,0
200083d4:	000d0613          	mv	a2,s10
200083d8:	00040693          	mv	a3,s0
200083dc:	000d0513          	mv	a0,s10
200083e0:	00040593          	mv	a1,s0
200083e4:	ed5f80ef          	jal	ra,200012b8 <__muldf3>
200083e8:	00050613          	mv	a2,a0
200083ec:	00058693          	mv	a3,a1
200083f0:	00058b13          	mv	s6,a1
200083f4:	00050c93          	mv	s9,a0
200083f8:	ec1f80ef          	jal	ra,200012b8 <__muldf3>
200083fc:	00058913          	mv	s2,a1
20008400:	00050993          	mv	s3,a0
20008404:	000b0693          	mv	a3,s6
20008408:	000c8613          	mv	a2,s9
2000840c:	000d0513          	mv	a0,s10
20008410:	00040593          	mv	a1,s0
20008414:	ea5f80ef          	jal	ra,200012b8 <__muldf3>
20008418:	9081a603          	lw	a2,-1784(gp) # 20009aa8 <dp_l+0x44>
2000841c:	90c1a683          	lw	a3,-1780(gp) # 20009aac <dp_l+0x48>
20008420:	00050d93          	mv	s11,a0
20008424:	00058b93          	mv	s7,a1
20008428:	00098513          	mv	a0,s3
2000842c:	00090593          	mv	a1,s2
20008430:	e89f80ef          	jal	ra,200012b8 <__muldf3>
20008434:	9101a603          	lw	a2,-1776(gp) # 20009ab0 <dp_l+0x4c>
20008438:	9141a683          	lw	a3,-1772(gp) # 20009ab4 <dp_l+0x50>
2000843c:	ee1f70ef          	jal	ra,2000031c <__adddf3>
20008440:	00090693          	mv	a3,s2
20008444:	00098613          	mv	a2,s3
20008448:	e71f80ef          	jal	ra,200012b8 <__muldf3>
2000844c:	9181a603          	lw	a2,-1768(gp) # 20009ab8 <dp_l+0x54>
20008450:	91c1a683          	lw	a3,-1764(gp) # 20009abc <dp_l+0x58>
20008454:	ec9f70ef          	jal	ra,2000031c <__adddf3>
20008458:	00090693          	mv	a3,s2
2000845c:	00098613          	mv	a2,s3
20008460:	e59f80ef          	jal	ra,200012b8 <__muldf3>
20008464:	9201a603          	lw	a2,-1760(gp) # 20009ac0 <dp_l+0x5c>
20008468:	9241a683          	lw	a3,-1756(gp) # 20009ac4 <dp_l+0x60>
2000846c:	eb1f70ef          	jal	ra,2000031c <__adddf3>
20008470:	00090693          	mv	a3,s2
20008474:	00098613          	mv	a2,s3
20008478:	e41f80ef          	jal	ra,200012b8 <__muldf3>
2000847c:	9281a603          	lw	a2,-1752(gp) # 20009ac8 <dp_l+0x64>
20008480:	92c1a683          	lw	a3,-1748(gp) # 20009acc <dp_l+0x68>
20008484:	e99f70ef          	jal	ra,2000031c <__adddf3>
20008488:	00090693          	mv	a3,s2
2000848c:	00098613          	mv	a2,s3
20008490:	e29f80ef          	jal	ra,200012b8 <__muldf3>
20008494:	9301a603          	lw	a2,-1744(gp) # 20009ad0 <dp_l+0x6c>
20008498:	9341a683          	lw	a3,-1740(gp) # 20009ad4 <dp_l+0x70>
2000849c:	e81f70ef          	jal	ra,2000031c <__adddf3>
200084a0:	000b0693          	mv	a3,s6
200084a4:	000c8613          	mv	a2,s9
200084a8:	e11f80ef          	jal	ra,200012b8 <__muldf3>
200084ac:	9381a603          	lw	a2,-1736(gp) # 20009ad8 <dp_l+0x74>
200084b0:	93c1a683          	lw	a3,-1732(gp) # 20009adc <dp_l+0x78>
200084b4:	00a12623          	sw	a0,12(sp)
200084b8:	00b12423          	sw	a1,8(sp)
200084bc:	00098513          	mv	a0,s3
200084c0:	00090593          	mv	a1,s2
200084c4:	df5f80ef          	jal	ra,200012b8 <__muldf3>
200084c8:	9401a603          	lw	a2,-1728(gp) # 20009ae0 <dp_l+0x7c>
200084cc:	9441a683          	lw	a3,-1724(gp) # 20009ae4 <dp_l+0x80>
200084d0:	e4df70ef          	jal	ra,2000031c <__adddf3>
200084d4:	00090693          	mv	a3,s2
200084d8:	00098613          	mv	a2,s3
200084dc:	dddf80ef          	jal	ra,200012b8 <__muldf3>
200084e0:	9481a603          	lw	a2,-1720(gp) # 20009ae8 <dp_l+0x84>
200084e4:	94c1a683          	lw	a3,-1716(gp) # 20009aec <dp_l+0x88>
200084e8:	e35f70ef          	jal	ra,2000031c <__adddf3>
200084ec:	00090693          	mv	a3,s2
200084f0:	00098613          	mv	a2,s3
200084f4:	dc5f80ef          	jal	ra,200012b8 <__muldf3>
200084f8:	9501a603          	lw	a2,-1712(gp) # 20009af0 <dp_l+0x8c>
200084fc:	9541a683          	lw	a3,-1708(gp) # 20009af4 <dp_l+0x90>
20008500:	e1df70ef          	jal	ra,2000031c <__adddf3>
20008504:	00090693          	mv	a3,s2
20008508:	00098613          	mv	a2,s3
2000850c:	dadf80ef          	jal	ra,200012b8 <__muldf3>
20008510:	9581a603          	lw	a2,-1704(gp) # 20009af8 <dp_l+0x94>
20008514:	95c1a683          	lw	a3,-1700(gp) # 20009afc <dp_l+0x98>
20008518:	e05f70ef          	jal	ra,2000031c <__adddf3>
2000851c:	00090693          	mv	a3,s2
20008520:	00098613          	mv	a2,s3
20008524:	d95f80ef          	jal	ra,200012b8 <__muldf3>
20008528:	9601a603          	lw	a2,-1696(gp) # 20009b00 <dp_l+0x9c>
2000852c:	9641a683          	lw	a3,-1692(gp) # 20009b04 <dp_l+0xa0>
20008530:	dedf70ef          	jal	ra,2000031c <__adddf3>
20008534:	00c12703          	lw	a4,12(sp)
20008538:	00812783          	lw	a5,8(sp)
2000853c:	00050613          	mv	a2,a0
20008540:	00058693          	mv	a3,a1
20008544:	00070513          	mv	a0,a4
20008548:	00078593          	mv	a1,a5
2000854c:	dd1f70ef          	jal	ra,2000031c <__adddf3>
20008550:	000d8613          	mv	a2,s11
20008554:	000b8693          	mv	a3,s7
20008558:	d61f80ef          	jal	ra,200012b8 <__muldf3>
2000855c:	000c0613          	mv	a2,s8
20008560:	00048693          	mv	a3,s1
20008564:	db9f70ef          	jal	ra,2000031c <__adddf3>
20008568:	000b0693          	mv	a3,s6
2000856c:	000c8613          	mv	a2,s9
20008570:	d49f80ef          	jal	ra,200012b8 <__muldf3>
20008574:	000c0613          	mv	a2,s8
20008578:	00048693          	mv	a3,s1
2000857c:	da1f70ef          	jal	ra,2000031c <__adddf3>
20008580:	9681a603          	lw	a2,-1688(gp) # 20009b08 <dp_l+0xa4>
20008584:	96c1a683          	lw	a3,-1684(gp) # 20009b0c <dp_l+0xa8>
20008588:	00050913          	mv	s2,a0
2000858c:	00058493          	mv	s1,a1
20008590:	000d8513          	mv	a0,s11
20008594:	000b8593          	mv	a1,s7
20008598:	d21f80ef          	jal	ra,200012b8 <__muldf3>
2000859c:	00090613          	mv	a2,s2
200085a0:	00048693          	mv	a3,s1
200085a4:	d79f70ef          	jal	ra,2000031c <__adddf3>
200085a8:	00050613          	mv	a2,a0
200085ac:	00058693          	mv	a3,a1
200085b0:	00050c13          	mv	s8,a0
200085b4:	00058b13          	mv	s6,a1
200085b8:	000d0513          	mv	a0,s10
200085bc:	00040593          	mv	a1,s0
200085c0:	d5df70ef          	jal	ra,2000031c <__adddf3>
200085c4:	3fe597b7          	lui	a5,0x3fe59
200085c8:	42778793          	addi	a5,a5,1063 # 3fe59427 <__global_pointer$+0x1fe4f287>
200085cc:	00050913          	mv	s2,a0
200085d0:	00058493          	mv	s1,a1
200085d4:	0d57d863          	bge	a5,s5,200086a4 <__kernel_tan+0x4f4>
200085d8:	000a0513          	mv	a0,s4
200085dc:	b59f90ef          	jal	ra,20002134 <__floatsidf>
200085e0:	00050a13          	mv	s4,a0
200085e4:	00058993          	mv	s3,a1
200085e8:	00090613          	mv	a2,s2
200085ec:	00048693          	mv	a3,s1
200085f0:	00090513          	mv	a0,s2
200085f4:	00048593          	mv	a1,s1
200085f8:	cc1f80ef          	jal	ra,200012b8 <__muldf3>
200085fc:	00050c93          	mv	s9,a0
20008600:	00058a93          	mv	s5,a1
20008604:	000a0613          	mv	a2,s4
20008608:	00098693          	mv	a3,s3
2000860c:	00090513          	mv	a0,s2
20008610:	00048593          	mv	a1,s1
20008614:	d09f70ef          	jal	ra,2000031c <__adddf3>
20008618:	00050613          	mv	a2,a0
2000861c:	00058693          	mv	a3,a1
20008620:	000c8513          	mv	a0,s9
20008624:	000a8593          	mv	a1,s5
20008628:	cd0f80ef          	jal	ra,20000af8 <__divdf3>
2000862c:	000c0613          	mv	a2,s8
20008630:	000b0693          	mv	a3,s6
20008634:	a90f90ef          	jal	ra,200018c4 <__subdf3>
20008638:	00050613          	mv	a2,a0
2000863c:	00058693          	mv	a3,a1
20008640:	000d0513          	mv	a0,s10
20008644:	00040593          	mv	a1,s0
20008648:	a7cf90ef          	jal	ra,200018c4 <__subdf3>
2000864c:	00050613          	mv	a2,a0
20008650:	00058693          	mv	a3,a1
20008654:	cc9f70ef          	jal	ra,2000031c <__adddf3>
20008658:	00050613          	mv	a2,a0
2000865c:	00058693          	mv	a3,a1
20008660:	000a0513          	mv	a0,s4
20008664:	00098593          	mv	a1,s3
20008668:	a5cf90ef          	jal	ra,200018c4 <__subdf3>
2000866c:	00412783          	lw	a5,4(sp)
20008670:	00050493          	mv	s1,a0
20008674:	00100513          	li	a0,1
20008678:	41e7d793          	srai	a5,a5,0x1e
2000867c:	0027f793          	andi	a5,a5,2
20008680:	40f50533          	sub	a0,a0,a5
20008684:	00058413          	mv	s0,a1
20008688:	aadf90ef          	jal	ra,20002134 <__floatsidf>
2000868c:	00050613          	mv	a2,a0
20008690:	00058693          	mv	a3,a1
20008694:	00048513          	mv	a0,s1
20008698:	00040593          	mv	a1,s0
2000869c:	c1df80ef          	jal	ra,200012b8 <__muldf3>
200086a0:	badff06f          	j	2000824c <__kernel_tan+0x9c>
200086a4:	00100793          	li	a5,1
200086a8:	0afa0a63          	beq	s4,a5,2000875c <__kernel_tan+0x5ac>
200086ac:	00058a93          	mv	s5,a1
200086b0:	00050613          	mv	a2,a0
200086b4:	00058693          	mv	a3,a1
200086b8:	8f01a503          	lw	a0,-1808(gp) # 20009a90 <dp_l+0x2c>
200086bc:	8f41a583          	lw	a1,-1804(gp) # 20009a94 <dp_l+0x30>
200086c0:	00000b93          	li	s7,0
200086c4:	00000913          	li	s2,0
200086c8:	c30f80ef          	jal	ra,20000af8 <__divdf3>
200086cc:	00058993          	mv	s3,a1
200086d0:	00040693          	mv	a3,s0
200086d4:	00050a13          	mv	s4,a0
200086d8:	000d0613          	mv	a2,s10
200086dc:	000b8513          	mv	a0,s7
200086e0:	000a8593          	mv	a1,s5
200086e4:	9e0f90ef          	jal	ra,200018c4 <__subdf3>
200086e8:	00050613          	mv	a2,a0
200086ec:	00058693          	mv	a3,a1
200086f0:	000c0513          	mv	a0,s8
200086f4:	000b0593          	mv	a1,s6
200086f8:	9ccf90ef          	jal	ra,200018c4 <__subdf3>
200086fc:	00090613          	mv	a2,s2
20008700:	00098693          	mv	a3,s3
20008704:	bb5f80ef          	jal	ra,200012b8 <__muldf3>
20008708:	00050b13          	mv	s6,a0
2000870c:	00058413          	mv	s0,a1
20008710:	00090613          	mv	a2,s2
20008714:	00098693          	mv	a3,s3
20008718:	000b8513          	mv	a0,s7
2000871c:	000a8593          	mv	a1,s5
20008720:	b99f80ef          	jal	ra,200012b8 <__muldf3>
20008724:	8e81a603          	lw	a2,-1816(gp) # 20009a88 <dp_l+0x24>
20008728:	8ec1a683          	lw	a3,-1812(gp) # 20009a8c <dp_l+0x28>
2000872c:	bf1f70ef          	jal	ra,2000031c <__adddf3>
20008730:	00050613          	mv	a2,a0
20008734:	00058693          	mv	a3,a1
20008738:	000b0513          	mv	a0,s6
2000873c:	00040593          	mv	a1,s0
20008740:	bddf70ef          	jal	ra,2000031c <__adddf3>
20008744:	000a0613          	mv	a2,s4
20008748:	00098693          	mv	a3,s3
2000874c:	b6df80ef          	jal	ra,200012b8 <__muldf3>
20008750:	00090613          	mv	a2,s2
20008754:	00098693          	mv	a3,s3
20008758:	c11ff06f          	j	20008368 <__kernel_tan+0x1b8>
2000875c:	00050d13          	mv	s10,a0
20008760:	00058413          	mv	s0,a1
20008764:	af1ff06f          	j	20008254 <__kernel_tan+0xa4>

20008768 <with_errnof>:
20008768:	ff010113          	addi	sp,sp,-16
2000876c:	00812423          	sw	s0,8(sp)
20008770:	00912223          	sw	s1,4(sp)
20008774:	00112623          	sw	ra,12(sp)
20008778:	00050413          	mv	s0,a0
2000877c:	00058493          	mv	s1,a1
20008780:	921f70ef          	jal	ra,200000a0 <__errno>
20008784:	00952023          	sw	s1,0(a0) # 80000000 <__global_pointer$+0x5fff5e60>
20008788:	00c12083          	lw	ra,12(sp)
2000878c:	00040513          	mv	a0,s0
20008790:	00812403          	lw	s0,8(sp)
20008794:	00412483          	lw	s1,4(sp)
20008798:	01010113          	addi	sp,sp,16
2000879c:	00008067          	ret

200087a0 <xflowf>:
200087a0:	ff010113          	addi	sp,sp,-16
200087a4:	00112623          	sw	ra,12(sp)
200087a8:	02050063          	beqz	a0,200087c8 <xflowf+0x28>
200087ac:	80000537          	lui	a0,0x80000
200087b0:	00b54533          	xor	a0,a0,a1
200087b4:	b20fa0ef          	jal	ra,20002ad4 <__mulsf3>
200087b8:	00c12083          	lw	ra,12(sp)
200087bc:	02200593          	li	a1,34
200087c0:	01010113          	addi	sp,sp,16
200087c4:	fa5ff06f          	j	20008768 <with_errnof>
200087c8:	00058513          	mv	a0,a1
200087cc:	fe9ff06f          	j	200087b4 <xflowf+0x14>

200087d0 <__math_uflowf>:
200087d0:	9701a583          	lw	a1,-1680(gp) # 20009b10 <dp_l+0xac>
200087d4:	fcdff06f          	j	200087a0 <xflowf>

200087d8 <__math_oflowf>:
200087d8:	9741a583          	lw	a1,-1676(gp) # 20009b14 <dp_l+0xb0>
200087dc:	fc5ff06f          	j	200087a0 <xflowf>

200087e0 <fabs>:
200087e0:	00159593          	slli	a1,a1,0x1
200087e4:	00050713          	mv	a4,a0
200087e8:	0015d793          	srli	a5,a1,0x1
200087ec:	00070513          	mv	a0,a4
200087f0:	00078593          	mv	a1,a5
200087f4:	00008067          	ret

200087f8 <floor>:
200087f8:	4145d693          	srai	a3,a1,0x14
200087fc:	fe010113          	addi	sp,sp,-32
20008800:	7ff6f693          	andi	a3,a3,2047
20008804:	00812c23          	sw	s0,24(sp)
20008808:	00912a23          	sw	s1,20(sp)
2000880c:	01412423          	sw	s4,8(sp)
20008810:	01512223          	sw	s5,4(sp)
20008814:	00112e23          	sw	ra,28(sp)
20008818:	01212823          	sw	s2,16(sp)
2000881c:	01312623          	sw	s3,12(sp)
20008820:	c0168493          	addi	s1,a3,-1023
20008824:	01300613          	li	a2,19
20008828:	00050713          	mv	a4,a0
2000882c:	00058793          	mv	a5,a1
20008830:	00058413          	mv	s0,a1
20008834:	00050a93          	mv	s5,a0
20008838:	00050a13          	mv	s4,a0
2000883c:	0a964063          	blt	a2,s1,200088dc <floor+0xe4>
20008840:	0404d663          	bgez	s1,2000888c <floor+0x94>
20008844:	9781a603          	lw	a2,-1672(gp) # 20009b18 <dp_l+0xb4>
20008848:	97c1a683          	lw	a3,-1668(gp) # 20009b1c <dp_l+0xb8>
2000884c:	ad1f70ef          	jal	ra,2000031c <__adddf3>
20008850:	00000613          	li	a2,0
20008854:	00000693          	li	a3,0
20008858:	97df80ef          	jal	ra,200011d4 <__gedf2>
2000885c:	02a05263          	blez	a0,20008880 <floor+0x88>
20008860:	12045a63          	bgez	s0,20008994 <floor+0x19c>
20008864:	00141413          	slli	s0,s0,0x1
20008868:	00145413          	srli	s0,s0,0x1
2000886c:	008aea33          	or	s4,s5,s0
20008870:	80000437          	lui	s0,0x80000
20008874:	000a0663          	beqz	s4,20008880 <floor+0x88>
20008878:	00000a13          	li	s4,0
2000887c:	bff00437          	lui	s0,0xbff00
20008880:	000a0713          	mv	a4,s4
20008884:	00040793          	mv	a5,s0
20008888:	0780006f          	j	20008900 <floor+0x108>
2000888c:	001009b7          	lui	s3,0x100
20008890:	fff98913          	addi	s2,s3,-1 # fffff <_start-0x1ff00001>
20008894:	40995933          	sra	s2,s2,s1
20008898:	0125f6b3          	and	a3,a1,s2
2000889c:	00a6e6b3          	or	a3,a3,a0
200088a0:	06068063          	beqz	a3,20008900 <floor+0x108>
200088a4:	9781a603          	lw	a2,-1672(gp) # 20009b18 <dp_l+0xb4>
200088a8:	97c1a683          	lw	a3,-1668(gp) # 20009b1c <dp_l+0xb8>
200088ac:	a71f70ef          	jal	ra,2000031c <__adddf3>
200088b0:	00000613          	li	a2,0
200088b4:	00000693          	li	a3,0
200088b8:	91df80ef          	jal	ra,200011d4 <__gedf2>
200088bc:	fca052e3          	blez	a0,20008880 <floor+0x88>
200088c0:	00045663          	bgez	s0,200088cc <floor+0xd4>
200088c4:	4099d9b3          	sra	s3,s3,s1
200088c8:	01340433          	add	s0,s0,s3
200088cc:	fff94913          	not	s2,s2
200088d0:	01247433          	and	s0,s0,s2
200088d4:	00000a13          	li	s4,0
200088d8:	fa9ff06f          	j	20008880 <floor+0x88>
200088dc:	03300613          	li	a2,51
200088e0:	04965663          	bge	a2,s1,2000892c <floor+0x134>
200088e4:	40000693          	li	a3,1024
200088e8:	00d49c63          	bne	s1,a3,20008900 <floor+0x108>
200088ec:	00050613          	mv	a2,a0
200088f0:	00058693          	mv	a3,a1
200088f4:	a29f70ef          	jal	ra,2000031c <__adddf3>
200088f8:	00050713          	mv	a4,a0
200088fc:	00058793          	mv	a5,a1
20008900:	01c12083          	lw	ra,28(sp)
20008904:	01812403          	lw	s0,24(sp)
20008908:	01412483          	lw	s1,20(sp)
2000890c:	01012903          	lw	s2,16(sp)
20008910:	00c12983          	lw	s3,12(sp)
20008914:	00812a03          	lw	s4,8(sp)
20008918:	00412a83          	lw	s5,4(sp)
2000891c:	00070513          	mv	a0,a4
20008920:	00078593          	mv	a1,a5
20008924:	02010113          	addi	sp,sp,32
20008928:	00008067          	ret
2000892c:	bed68693          	addi	a3,a3,-1043
20008930:	fff00913          	li	s2,-1
20008934:	00d95933          	srl	s2,s2,a3
20008938:	012576b3          	and	a3,a0,s2
2000893c:	fc0682e3          	beqz	a3,20008900 <floor+0x108>
20008940:	9781a603          	lw	a2,-1672(gp) # 20009b18 <dp_l+0xb4>
20008944:	97c1a683          	lw	a3,-1668(gp) # 20009b1c <dp_l+0xb8>
20008948:	9d5f70ef          	jal	ra,2000031c <__adddf3>
2000894c:	00000613          	li	a2,0
20008950:	00000693          	li	a3,0
20008954:	881f80ef          	jal	ra,200011d4 <__gedf2>
20008958:	f2a054e3          	blez	a0,20008880 <floor+0x88>
2000895c:	02045663          	bgez	s0,20008988 <floor+0x190>
20008960:	01400793          	li	a5,20
20008964:	00f49663          	bne	s1,a5,20008970 <floor+0x178>
20008968:	00140413          	addi	s0,s0,1 # bff00001 <__global_pointer$+0x9fef5e61>
2000896c:	01c0006f          	j	20008988 <floor+0x190>
20008970:	03400713          	li	a4,52
20008974:	40970733          	sub	a4,a4,s1
20008978:	00100793          	li	a5,1
2000897c:	00e797b3          	sll	a5,a5,a4
20008980:	00fa8a33          	add	s4,s5,a5
20008984:	ff5a62e3          	bltu	s4,s5,20008968 <floor+0x170>
20008988:	fff94913          	not	s2,s2
2000898c:	012a7a33          	and	s4,s4,s2
20008990:	ef1ff06f          	j	20008880 <floor+0x88>
20008994:	00000a13          	li	s4,0
20008998:	00000413          	li	s0,0
2000899c:	ee5ff06f          	j	20008880 <floor+0x88>

200089a0 <scalbn>:
200089a0:	ff010113          	addi	sp,sp,-16
200089a4:	4145d793          	srai	a5,a1,0x14
200089a8:	00812423          	sw	s0,8(sp)
200089ac:	00112623          	sw	ra,12(sp)
200089b0:	7ff7f793          	andi	a5,a5,2047
200089b4:	00060413          	mv	s0,a2
200089b8:	02079e63          	bnez	a5,200089f4 <scalbn+0x54>
200089bc:	00159793          	slli	a5,a1,0x1
200089c0:	0017d793          	srli	a5,a5,0x1
200089c4:	00a7e7b3          	or	a5,a5,a0
200089c8:	04078263          	beqz	a5,20008a0c <scalbn+0x6c>
200089cc:	9841a683          	lw	a3,-1660(gp) # 20009b24 <dp_l+0xc0>
200089d0:	9801a603          	lw	a2,-1664(gp) # 20009b20 <dp_l+0xbc>
200089d4:	8e5f80ef          	jal	ra,200012b8 <__muldf3>
200089d8:	ffff46b7          	lui	a3,0xffff4
200089dc:	cb068693          	addi	a3,a3,-848 # ffff3cb0 <__global_pointer$+0xdffe9b10>
200089e0:	02d45e63          	bge	s0,a3,20008a1c <scalbn+0x7c>
200089e4:	9881a603          	lw	a2,-1656(gp) # 20009b28 <dp_l+0xc4>
200089e8:	98c1a683          	lw	a3,-1652(gp) # 20009b2c <dp_l+0xc8>
200089ec:	8cdf80ef          	jal	ra,200012b8 <__muldf3>
200089f0:	01c0006f          	j	20008a0c <scalbn+0x6c>
200089f4:	7ff00693          	li	a3,2047
200089f8:	00058713          	mv	a4,a1
200089fc:	02d79863          	bne	a5,a3,20008a2c <scalbn+0x8c>
20008a00:	00050613          	mv	a2,a0
20008a04:	00058693          	mv	a3,a1
20008a08:	915f70ef          	jal	ra,2000031c <__adddf3>
20008a0c:	00c12083          	lw	ra,12(sp)
20008a10:	00812403          	lw	s0,8(sp)
20008a14:	01010113          	addi	sp,sp,16
20008a18:	00008067          	ret
20008a1c:	4145d793          	srai	a5,a1,0x14
20008a20:	7ff7f793          	andi	a5,a5,2047
20008a24:	00058713          	mv	a4,a1
20008a28:	fca78793          	addi	a5,a5,-54
20008a2c:	00f40633          	add	a2,s0,a5
20008a30:	7fe00793          	li	a5,2046
20008a34:	02c7d663          	bge	a5,a2,20008a60 <scalbn+0xc0>
20008a38:	9781a703          	lw	a4,-1672(gp) # 20009b18 <dp_l+0xb4>
20008a3c:	97c1a783          	lw	a5,-1668(gp) # 20009b1c <dp_l+0xb8>
20008a40:	0005d663          	bgez	a1,20008a4c <scalbn+0xac>
20008a44:	9901a703          	lw	a4,-1648(gp) # 20009b30 <dp_l+0xcc>
20008a48:	9941a783          	lw	a5,-1644(gp) # 20009b34 <dp_l+0xd0>
20008a4c:	9781a603          	lw	a2,-1672(gp) # 20009b18 <dp_l+0xb4>
20008a50:	97c1a683          	lw	a3,-1668(gp) # 20009b1c <dp_l+0xb8>
20008a54:	00070513          	mv	a0,a4
20008a58:	00078593          	mv	a1,a5
20008a5c:	f91ff06f          	j	200089ec <scalbn+0x4c>
20008a60:	00c05e63          	blez	a2,20008a7c <scalbn+0xdc>
20008a64:	801007b7          	lui	a5,0x80100
20008a68:	fff78793          	addi	a5,a5,-1 # 800fffff <__global_pointer$+0x600f5e5f>
20008a6c:	00f77733          	and	a4,a4,a5
20008a70:	01461613          	slli	a2,a2,0x14
20008a74:	00c765b3          	or	a1,a4,a2
20008a78:	f95ff06f          	j	20008a0c <scalbn+0x6c>
20008a7c:	fcb00793          	li	a5,-53
20008a80:	02f65263          	bge	a2,a5,20008aa4 <scalbn+0x104>
20008a84:	9881a703          	lw	a4,-1656(gp) # 20009b28 <dp_l+0xc4>
20008a88:	98c1a783          	lw	a5,-1652(gp) # 20009b2c <dp_l+0xc8>
20008a8c:	0005d663          	bgez	a1,20008a98 <scalbn+0xf8>
20008a90:	9981a703          	lw	a4,-1640(gp) # 20009b38 <dp_l+0xd4>
20008a94:	99c1a783          	lw	a5,-1636(gp) # 20009b3c <dp_l+0xd8>
20008a98:	9881a603          	lw	a2,-1656(gp) # 20009b28 <dp_l+0xc4>
20008a9c:	98c1a683          	lw	a3,-1652(gp) # 20009b2c <dp_l+0xc8>
20008aa0:	fb5ff06f          	j	20008a54 <scalbn+0xb4>
20008aa4:	801007b7          	lui	a5,0x80100
20008aa8:	fff78793          	addi	a5,a5,-1 # 800fffff <__global_pointer$+0x600f5e5f>
20008aac:	03660613          	addi	a2,a2,54
20008ab0:	01461613          	slli	a2,a2,0x14
20008ab4:	00f77733          	and	a4,a4,a5
20008ab8:	00e667b3          	or	a5,a2,a4
20008abc:	9a01a603          	lw	a2,-1632(gp) # 20009b40 <dp_l+0xdc>
20008ac0:	9a41a683          	lw	a3,-1628(gp) # 20009b44 <dp_l+0xe0>
20008ac4:	f95ff06f          	j	20008a58 <scalbn+0xb8>

20008ac8 <fabsf>:
20008ac8:	00151513          	slli	a0,a0,0x1
20008acc:	00155513          	srli	a0,a0,0x1
20008ad0:	00008067          	ret

20008ad4 <finitef>:
20008ad4:	00151513          	slli	a0,a0,0x1
20008ad8:	7f8007b7          	lui	a5,0x7f800
20008adc:	00155513          	srli	a0,a0,0x1
20008ae0:	00f52533          	slt	a0,a0,a5
20008ae4:	00008067          	ret

20008ae8 <scalbnf>:
20008ae8:	00151613          	slli	a2,a0,0x1
20008aec:	00050793          	mv	a5,a0
20008af0:	0e060c63          	beqz	a2,20008be8 <scalbnf+0x100>
20008af4:	ff010113          	addi	sp,sp,-16
20008af8:	00165713          	srli	a4,a2,0x1
20008afc:	00112623          	sw	ra,12(sp)
20008b00:	00812423          	sw	s0,8(sp)
20008b04:	7f800637          	lui	a2,0x7f800
20008b08:	00c76a63          	bltu	a4,a2,20008b1c <scalbnf+0x34>
20008b0c:	00050593          	mv	a1,a0
20008b10:	eccf90ef          	jal	ra,200021dc <__addsf3>
20008b14:	00050793          	mv	a5,a0
20008b18:	0800006f          	j	20008b98 <scalbnf+0xb0>
20008b1c:	00c576b3          	and	a3,a0,a2
20008b20:	00058413          	mv	s0,a1
20008b24:	04069a63          	bnez	a3,20008b78 <scalbnf+0x90>
20008b28:	9a81a583          	lw	a1,-1624(gp) # 20009b48 <dp_l+0xe4>
20008b2c:	fa9f90ef          	jal	ra,20002ad4 <__mulsf3>
20008b30:	ffff4737          	lui	a4,0xffff4
20008b34:	cb070713          	addi	a4,a4,-848 # ffff3cb0 <__global_pointer$+0xdffe9b10>
20008b38:	00050793          	mv	a5,a0
20008b3c:	02e44863          	blt	s0,a4,20008b6c <scalbnf+0x84>
20008b40:	41755713          	srai	a4,a0,0x17
20008b44:	0ff77713          	zext.b	a4,a4
20008b48:	fe770713          	addi	a4,a4,-25
20008b4c:	008705b3          	add	a1,a4,s0
20008b50:	0fe00713          	li	a4,254
20008b54:	02b75663          	bge	a4,a1,20008b80 <scalbnf+0x98>
20008b58:	9b01a503          	lw	a0,-1616(gp) # 20009b50 <dp_l+0xec>
20008b5c:	0007d463          	bgez	a5,20008b64 <scalbnf+0x7c>
20008b60:	9b41a503          	lw	a0,-1612(gp) # 20009b54 <dp_l+0xf0>
20008b64:	9b01a583          	lw	a1,-1616(gp) # 20009b50 <dp_l+0xec>
20008b68:	0080006f          	j	20008b70 <scalbnf+0x88>
20008b6c:	9ac1a583          	lw	a1,-1620(gp) # 20009b4c <dp_l+0xe8>
20008b70:	f65f90ef          	jal	ra,20002ad4 <__mulsf3>
20008b74:	fa1ff06f          	j	20008b14 <scalbnf+0x2c>
20008b78:	01775713          	srli	a4,a4,0x17
20008b7c:	fd1ff06f          	j	20008b4c <scalbnf+0x64>
20008b80:	02b05663          	blez	a1,20008bac <scalbnf+0xc4>
20008b84:	808007b7          	lui	a5,0x80800
20008b88:	fff78793          	addi	a5,a5,-1 # 807fffff <__global_pointer$+0x607f5e5f>
20008b8c:	00f57533          	and	a0,a0,a5
20008b90:	01759593          	slli	a1,a1,0x17
20008b94:	00b567b3          	or	a5,a0,a1
20008b98:	00c12083          	lw	ra,12(sp)
20008b9c:	00812403          	lw	s0,8(sp)
20008ba0:	00078513          	mv	a0,a5
20008ba4:	01010113          	addi	sp,sp,16
20008ba8:	00008067          	ret
20008bac:	fea00713          	li	a4,-22
20008bb0:	00e5dc63          	bge	a1,a4,20008bc8 <scalbnf+0xe0>
20008bb4:	9ac1a503          	lw	a0,-1620(gp) # 20009b4c <dp_l+0xe8>
20008bb8:	0007d463          	bgez	a5,20008bc0 <scalbnf+0xd8>
20008bbc:	9b81a503          	lw	a0,-1608(gp) # 20009b58 <dp_l+0xf4>
20008bc0:	9ac1a583          	lw	a1,-1620(gp) # 20009b4c <dp_l+0xe8>
20008bc4:	fadff06f          	j	20008b70 <scalbnf+0x88>
20008bc8:	80800737          	lui	a4,0x80800
20008bcc:	01958593          	addi	a1,a1,25
20008bd0:	fff70713          	addi	a4,a4,-1 # 807fffff <__global_pointer$+0x607f5e5f>
20008bd4:	01759793          	slli	a5,a1,0x17
20008bd8:	00e57533          	and	a0,a0,a4
20008bdc:	9bc1a583          	lw	a1,-1604(gp) # 20009b5c <dp_l+0xf8>
20008be0:	00a7e533          	or	a0,a5,a0
20008be4:	f8dff06f          	j	20008b70 <scalbnf+0x88>
20008be8:	00008067          	ret

Disassembly of section .rodata:

20008bf0 <__clz_tab-0x78>:
20008bf0:	10b8                	addi	a4,sp,104
20008bf2:	2000                	fld	fs0,0(s0)
20008bf4:	1198                	addi	a4,sp,224
20008bf6:	2000                	fld	fs0,0(s0)
20008bf8:	10c8                	addi	a0,sp,100
20008bfa:	2000                	fld	fs0,0(s0)
20008bfc:	1198                	addi	a4,sp,224
20008bfe:	2000                	fld	fs0,0(s0)
20008c00:	11a4                	addi	s1,sp,232
20008c02:	2000                	fld	fs0,0(s0)
20008c04:	1198                	addi	a4,sp,224
20008c06:	2000                	fld	fs0,0(s0)
20008c08:	10c8                	addi	a0,sp,100
20008c0a:	2000                	fld	fs0,0(s0)
20008c0c:	10b8                	addi	a4,sp,104
20008c0e:	2000                	fld	fs0,0(s0)
20008c10:	10b8                	addi	a4,sp,104
20008c12:	2000                	fld	fs0,0(s0)
20008c14:	11a4                	addi	s1,sp,232
20008c16:	2000                	fld	fs0,0(s0)
20008c18:	10c8                	addi	a0,sp,100
20008c1a:	2000                	fld	fs0,0(s0)
20008c1c:	1090                	addi	a2,sp,96
20008c1e:	2000                	fld	fs0,0(s0)
20008c20:	1090                	addi	a2,sp,96
20008c22:	2000                	fld	fs0,0(s0)
20008c24:	1090                	addi	a2,sp,96
20008c26:	2000                	fld	fs0,0(s0)
20008c28:	10d0                	addi	a2,sp,100
20008c2a:	2000                	fld	fs0,0(s0)
20008c2c:	28cc                	fld	fa1,144(s1)
20008c2e:	2000                	fld	fs0,0(s0)
20008c30:	2958                	fld	fa4,144(a0)
20008c32:	2000                	fld	fs0,0(s0)
20008c34:	28d8                	fld	fa4,144(s1)
20008c36:	2000                	fld	fs0,0(s0)
20008c38:	2958                	fld	fa4,144(a0)
20008c3a:	2000                	fld	fs0,0(s0)
20008c3c:	2948                	fld	fa0,144(a0)
20008c3e:	2000                	fld	fs0,0(s0)
20008c40:	2958                	fld	fa4,144(a0)
20008c42:	2000                	fld	fs0,0(s0)
20008c44:	28d8                	fld	fa4,144(s1)
20008c46:	2000                	fld	fs0,0(s0)
20008c48:	28cc                	fld	fa1,144(s1)
20008c4a:	2000                	fld	fs0,0(s0)
20008c4c:	28cc                	fld	fa1,144(s1)
20008c4e:	2000                	fld	fs0,0(s0)
20008c50:	2948                	fld	fa0,144(a0)
20008c52:	2000                	fld	fs0,0(s0)
20008c54:	28d8                	fld	fa4,144(s1)
20008c56:	2000                	fld	fs0,0(s0)
20008c58:	28a8                	fld	fa0,80(s1)
20008c5a:	2000                	fld	fs0,0(s0)
20008c5c:	28a8                	fld	fa0,80(s1)
20008c5e:	2000                	fld	fs0,0(s0)
20008c60:	28a8                	fld	fa0,80(s1)
20008c62:	2000                	fld	fs0,0(s0)
20008c64:	28e0                	fld	fs0,208(s1)
20008c66:	2000                	fld	fs0,0(s0)

20008c68 <__clz_tab>:
20008c68:	0100                	addi	s0,sp,128
20008c6a:	0202                	c.slli64	tp
20008c6c:	03030303          	lb	t1,48(t1) # c030 <_start-0x1fff3fd0>
20008c70:	0404                	addi	s1,sp,512
20008c72:	0404                	addi	s1,sp,512
20008c74:	0404                	addi	s1,sp,512
20008c76:	0404                	addi	s1,sp,512
20008c78:	0505                	addi	a0,a0,1
20008c7a:	0505                	addi	a0,a0,1
20008c7c:	0505                	addi	a0,a0,1
20008c7e:	0505                	addi	a0,a0,1
20008c80:	0505                	addi	a0,a0,1
20008c82:	0505                	addi	a0,a0,1
20008c84:	0505                	addi	a0,a0,1
20008c86:	0505                	addi	a0,a0,1
20008c88:	0606                	slli	a2,a2,0x1
20008c8a:	0606                	slli	a2,a2,0x1
20008c8c:	0606                	slli	a2,a2,0x1
20008c8e:	0606                	slli	a2,a2,0x1
20008c90:	0606                	slli	a2,a2,0x1
20008c92:	0606                	slli	a2,a2,0x1
20008c94:	0606                	slli	a2,a2,0x1
20008c96:	0606                	slli	a2,a2,0x1
20008c98:	0606                	slli	a2,a2,0x1
20008c9a:	0606                	slli	a2,a2,0x1
20008c9c:	0606                	slli	a2,a2,0x1
20008c9e:	0606                	slli	a2,a2,0x1
20008ca0:	0606                	slli	a2,a2,0x1
20008ca2:	0606                	slli	a2,a2,0x1
20008ca4:	0606                	slli	a2,a2,0x1
20008ca6:	0606                	slli	a2,a2,0x1
20008ca8:	07070707          	0x7070707
20008cac:	07070707          	0x7070707
20008cb0:	07070707          	0x7070707
20008cb4:	07070707          	0x7070707
20008cb8:	07070707          	0x7070707
20008cbc:	07070707          	0x7070707
20008cc0:	07070707          	0x7070707
20008cc4:	07070707          	0x7070707
20008cc8:	07070707          	0x7070707
20008ccc:	07070707          	0x7070707
20008cd0:	07070707          	0x7070707
20008cd4:	07070707          	0x7070707
20008cd8:	07070707          	0x7070707
20008cdc:	07070707          	0x7070707
20008ce0:	07070707          	0x7070707
20008ce4:	07070707          	0x7070707
20008ce8:	0808                	addi	a0,sp,16
20008cea:	0808                	addi	a0,sp,16
20008cec:	0808                	addi	a0,sp,16
20008cee:	0808                	addi	a0,sp,16
20008cf0:	0808                	addi	a0,sp,16
20008cf2:	0808                	addi	a0,sp,16
20008cf4:	0808                	addi	a0,sp,16
20008cf6:	0808                	addi	a0,sp,16
20008cf8:	0808                	addi	a0,sp,16
20008cfa:	0808                	addi	a0,sp,16
20008cfc:	0808                	addi	a0,sp,16
20008cfe:	0808                	addi	a0,sp,16
20008d00:	0808                	addi	a0,sp,16
20008d02:	0808                	addi	a0,sp,16
20008d04:	0808                	addi	a0,sp,16
20008d06:	0808                	addi	a0,sp,16
20008d08:	0808                	addi	a0,sp,16
20008d0a:	0808                	addi	a0,sp,16
20008d0c:	0808                	addi	a0,sp,16
20008d0e:	0808                	addi	a0,sp,16
20008d10:	0808                	addi	a0,sp,16
20008d12:	0808                	addi	a0,sp,16
20008d14:	0808                	addi	a0,sp,16
20008d16:	0808                	addi	a0,sp,16
20008d18:	0808                	addi	a0,sp,16
20008d1a:	0808                	addi	a0,sp,16
20008d1c:	0808                	addi	a0,sp,16
20008d1e:	0808                	addi	a0,sp,16
20008d20:	0808                	addi	a0,sp,16
20008d22:	0808                	addi	a0,sp,16
20008d24:	0808                	addi	a0,sp,16
20008d26:	0808                	addi	a0,sp,16
20008d28:	0808                	addi	a0,sp,16
20008d2a:	0808                	addi	a0,sp,16
20008d2c:	0808                	addi	a0,sp,16
20008d2e:	0808                	addi	a0,sp,16
20008d30:	0808                	addi	a0,sp,16
20008d32:	0808                	addi	a0,sp,16
20008d34:	0808                	addi	a0,sp,16
20008d36:	0808                	addi	a0,sp,16
20008d38:	0808                	addi	a0,sp,16
20008d3a:	0808                	addi	a0,sp,16
20008d3c:	0808                	addi	a0,sp,16
20008d3e:	0808                	addi	a0,sp,16
20008d40:	0808                	addi	a0,sp,16
20008d42:	0808                	addi	a0,sp,16
20008d44:	0808                	addi	a0,sp,16
20008d46:	0808                	addi	a0,sp,16
20008d48:	0808                	addi	a0,sp,16
20008d4a:	0808                	addi	a0,sp,16
20008d4c:	0808                	addi	a0,sp,16
20008d4e:	0808                	addi	a0,sp,16
20008d50:	0808                	addi	a0,sp,16
20008d52:	0808                	addi	a0,sp,16
20008d54:	0808                	addi	a0,sp,16
20008d56:	0808                	addi	a0,sp,16
20008d58:	0808                	addi	a0,sp,16
20008d5a:	0808                	addi	a0,sp,16
20008d5c:	0808                	addi	a0,sp,16
20008d5e:	0808                	addi	a0,sp,16
20008d60:	0808                	addi	a0,sp,16
20008d62:	0808                	addi	a0,sp,16
20008d64:	0808                	addi	a0,sp,16
20008d66:	0808                	addi	a0,sp,16
20008d68:	6548                	flw	fa0,12(a0)
20008d6a:	6c6c                	flw	fa1,92(s0)
20008d6c:	7266206f          	j	2006b492 <__global_pointer$+0x612f2>
20008d70:	48206d6f          	jal	s10,2000f1f2 <__global_pointer$+0x5052>
20008d74:	5241                	li	tp,-16
20008d76:	2354                	fld	fa3,128(a4)
20008d78:	0000                	unimp
20008d7a:	0000                	unimp
20008d7c:	202c                	fld	fa1,64(s0)
20008d7e:	74696177          	0x74696177
20008d82:	6e69                	lui	t3,0x1a
20008d84:	6f662067          	0x6f662067
20008d88:	2072                	fld	ft0,280(sp)
20008d8a:	6568746f          	jal	s0,200903e0 <__global_pointer$+0x86240>
20008d8e:	2072                	fld	ft0,280(sp)
20008d90:	4148                	lw	a0,4(a0)
20008d92:	5452                	lw	s0,52(sp)
20008d94:	00000a73          	0xa73
20008d98:	4148                	lw	a0,4(a0)
20008d9a:	5452                	lw	s0,52(sp)
20008d9c:	61203123          	0x61203123
20008da0:	656b6177          	0x656b6177
20008da4:	000a                	c.slli	zero,0x2
20008da6:	0000                	unimp
20008da8:	4148                	lw	a0,4(a0)
20008daa:	5452                	lw	s0,52(sp)
20008dac:	61203223          	0x61203223
20008db0:	656b6177          	0x656b6177
20008db4:	000a                	c.slli	zero,0x2
20008db6:	0000                	unimp
20008db8:	4148                	lw	a0,4(a0)
20008dba:	5452                	lw	s0,52(sp)
20008dbc:	61203323          	0x61203323
20008dc0:	656b6177          	0x656b6177
20008dc4:	000a                	c.slli	zero,0x2
20008dc6:	0000                	unimp
20008dc8:	6552                	flw	fa0,20(sp)
20008dca:	646e                	flw	fs0,216(sp)
20008dcc:	7265                	lui	tp,0xffff9
20008dce:	6e69                	lui	t3,0x1a
20008dd0:	2e2e2e67          	0x2e2e2e67
20008dd4:	000a                	c.slli	zero,0x2
20008dd6:	0000                	unimp
20008dd8:	6f44                	flw	fs1,28(a4)
20008dda:	656e                	flw	fa0,216(sp)
20008ddc:	000a                	c.slli	zero,0x2
20008dde:	0000                	unimp
20008de0:	0000                	unimp
20008de2:	3f80                	fld	fs0,56(a5)
20008de4:	0000                	unimp
20008de6:	437f                	0x437f
20008de8:	0000                	unimp
20008dea:	bf80                	fsd	fs0,56(a5)
20008dec:	f2ca                	fsw	fs2,100(sp)
20008dee:	7149                	addi	sp,sp,-368
20008df0:	0000                	unimp
20008df2:	4080                	lw	s0,0(s1)
20008df4:	0000                	unimp
20008df6:	4120                	lw	s0,64(a0)
20008df8:	0000                	unimp
20008dfa:	c120                	sw	s0,64(a0)
20008dfc:	0000                	unimp
20008dfe:	c1f0                	sw	a2,68(a1)
20008e00:	999a                	add	s3,s3,t1
20008e02:	3e99                	jal	20008958 <floor+0x160>
20008e04:	cccd                	beqz	s1,20008ebe <__clz_tab+0x256>
20008e06:	3e4c                	fld	fa1,184(a2)
20008e08:	cccd                	beqz	s1,20008ec2 <_ZL6dither+0x2>
20008e0a:	3dcc                	fld	fa1,184(a1)
20008e0c:	0000                	unimp
20008e0e:	447a                	lw	s0,156(sp)
20008e10:	3f333333          	0x3f333333
20008e14:	6666                	flw	fa2,88(sp)
20008e16:	3fa6                	fld	ft11,104(sp)
20008e18:	3a83126f          	jal	tp,2003a1c0 <__global_pointer$+0x30020>
20008e1c:	999a                	add	s3,s3,t1
20008e1e:	3f19                	jal	20008d34 <__clz_tab+0xcc>
20008e20:	cccd                	beqz	s1,20008eda <_ZL6dither+0x1a>
20008e22:	3ecc                	fld	fa1,184(a3)
20008e24:	0000                	unimp
20008e26:	4248                	lw	a0,4(a2)
20008e28:	0000                	unimp
20008e2a:	3f00                	fld	fs0,56(a4)
20008e2c:	cccd                	beqz	s1,20008ee6 <_ZL6dither+0x26>
20008e2e:	3f4c                	fld	fa1,184(a4)
20008e30:	0000                	unimp
20008e32:	42fa                	lw	t0,156(sp)
20008e34:	0000                	unimp
20008e36:	3fc0                	fld	fs0,184(a5)
20008e38:	6666                	flw	fa2,88(sp)
20008e3a:	3f66                	fld	ft10,120(sp)
20008e3c:	0000                	unimp
20008e3e:	430e                	lw	t1,192(sp)
20008e40:	0000                	unimp
20008e42:	c040                	sw	s0,4(s0)
20008e44:	0000                	unimp
20008e46:	c180                	sw	s0,0(a1)
20008e48:	0000                	unimp
20008e4a:	bfc0                	fsd	fs0,184(a5)
20008e4c:	0000                	unimp
20008e4e:	c140                	sw	s0,4(a0)
20008e50:	0000                	unimp
20008e52:	bf00                	fsd	fs0,56(a4)
20008e54:	0000                	unimp
20008e56:	c190                	sw	a2,0(a1)
20008e58:	0000                	unimp
20008e5a:	4040                	lw	s0,4(s0)
20008e5c:	0000                	unimp
20008e5e:	40e0                	lw	s0,68(s1)
20008e60:	0000                	unimp
20008e62:	40a0                	lw	s0,64(s1)
20008e64:	0000                	unimp
20008e66:	c1a0                	sw	s0,64(a1)
20008e68:	0000                	unimp
20008e6a:	41a0                	lw	s0,64(a1)
20008e6c:	0000                	unimp
20008e6e:	41f0                	lw	a2,68(a1)
20008e70:	0000                	unimp
20008e72:	c1c8                	sw	a0,4(a1)
20008e74:	6666                	flw	fa2,88(sp)
20008e76:	3fe6                	fld	ft11,120(sp)
20008e78:	999a                	add	s3,s3,t1
20008e7a:	3fd9                	jal	20008e50 <__clz_tab+0x1e8>
20008e7c:	0000                	unimp
20008e7e:	0000                	unimp
20008e80:	a9fc                	fsd	fa5,208(a1)
20008e82:	d2f1                	beqz	a3,20008e46 <__clz_tab+0x1de>
20008e84:	624d                	lui	tp,0x13
20008e86:	3f50                	fld	fa2,184(a4)
20008e88:	0000                	unimp
20008e8a:	0000                	unimp
20008e8c:	0000                	unimp
20008e8e:	3fe0                	fld	fs0,248(a5)
20008e90:	0000                	unimp
20008e92:	0000                	unimp
20008e94:	4000                	lw	s0,0(s0)
20008e96:	0000408f          	0x408f
20008e9a:	0000                	unimp
20008e9c:	0000                	unimp
20008e9e:	3ff0                	fld	fa2,248(a5)
20008ea0:	0000                	unimp
20008ea2:	0000                	unimp
20008ea4:	f000                	fsw	fs0,32(s0)
20008ea6:	00004063          	bltz	zero,20008ea6 <__clz_tab+0x23e>
20008eaa:	4000                	lw	s0,0(s0)
20008eac:	c152                	sw	s4,128(sp)
20008eae:	3fe0                	fld	fs0,248(a5)
20008eb0:	0000                	unimp
20008eb2:	0000                	unimp
20008eb4:	0000                	unimp
20008eb6:	c05e                	sw	s7,0(sp)
20008eb8:	0000                	unimp
20008eba:	0000                	unimp
20008ebc:	e000                	fsw	fs0,0(s0)
20008ebe:	405d                	c.li	zero,23

20008ec0 <_ZL6dither>:
20008ec0:	0800                	addi	s0,sp,16
20008ec2:	0a02                	c.slli64	s4
20008ec4:	040c                	addi	a1,sp,512
20008ec6:	060e                	slli	a2,a2,0x3
20008ec8:	09010b03          	lb	s6,144(sp)
20008ecc:	050d070f          	0x50d070f
20008ed0:	3130                	fld	fa2,96(a0)
20008ed2:	3332                	fld	ft6,296(sp)
20008ed4:	3534                	fld	fa3,104(a0)
20008ed6:	3736                	fld	fa4,360(sp)
20008ed8:	3938                	fld	fa4,112(a0)
20008eda:	4241                	li	tp,16
20008edc:	46454443          	fmadd.q	fs0,fa0,ft4,fs0,rmm
20008ee0:	0000                	unimp
20008ee2:	0000                	unimp
20008ee4:	2020                	fld	fs0,64(s0)
20008ee6:	2020                	fld	fs0,64(s0)
20008ee8:	2020                	fld	fs0,64(s0)
20008eea:	2020                	fld	fs0,64(s0)
20008eec:	2020                	fld	fs0,64(s0)
20008eee:	2020                	fld	fs0,64(s0)
20008ef0:	2020                	fld	fs0,64(s0)
20008ef2:	2020                	fld	fs0,64(s0)
20008ef4:	2020                	fld	fs0,64(s0)
20008ef6:	0020                	addi	s0,sp,8
20008ef8:	3130                	fld	fa2,96(a0)
20008efa:	3332                	fld	ft6,296(sp)
20008efc:	3534                	fld	fa3,104(a0)
20008efe:	3736                	fld	fa4,360(sp)
20008f00:	3938                	fld	fa4,112(a0)
	...

20008f04 <npio2_hw>:
20008f04:	3ff921fb          	0x3ff921fb
20008f08:	400921fb          	0x400921fb
20008f0c:	d97c                	sw	a5,116(a0)
20008f0e:	4012                	0x4012
20008f10:	401921fb          	0x401921fb
20008f14:	6a7a                	flw	fs4,156(sp)
20008f16:	401f d97c 4022      	0x4022d97c401f
20008f1c:	4025fdbb          	0x4025fdbb
20008f20:	402921fb          	0x402921fb
20008f24:	463a                	lw	a2,140(sp)
20008f26:	402c                	lw	a1,64(s0)
20008f28:	6a7a                	flw	fs4,156(sp)
20008f2a:	475c402f          	0x475c402f
20008f2e:	4031                	c.li	zero,12
20008f30:	d97c                	sw	a5,116(a0)
20008f32:	4032                	0x4032
20008f34:	6b9c                	flw	fa5,16(a5)
20008f36:	4034                	lw	a3,64(s0)
20008f38:	4035fdbb          	0x4035fdbb
20008f3c:	40378fdb          	0x40378fdb
20008f40:	403921fb          	0x403921fb
20008f44:	403ab41b          	0x403ab41b
20008f48:	463a                	lw	a2,140(sp)
20008f4a:	403c                	lw	a5,64(s0)
20008f4c:	d85a                	sw	s6,48(sp)
20008f4e:	403d                	c.li	zero,15
20008f50:	6a7a                	flw	fs4,156(sp)
20008f52:	7e4c403f 475c4040 	0x475c40407e4c403f
20008f5a:	4041                	c.li	zero,16
20008f5c:	106c                	addi	a1,sp,44
20008f5e:	4042                	0x4042
20008f60:	d97c                	sw	a5,116(a0)
20008f62:	4042                	0x4042
20008f64:	a28c                	fsd	fa1,0(a3)
20008f66:	6b9c4043          	fmadd.d	ft0,fs8,fs9,fa3,rmm
20008f6a:	4044                	lw	s1,4(s0)
20008f6c:	34ac                	fld	fa1,104(s1)
20008f6e:	4045                	c.li	zero,17
20008f70:	4045fdbb          	0x4045fdbb
20008f74:	4046c6cb          	fnmsub.s	fa3,fa3,ft4,fs0,rmm
20008f78:	40478fdb          	0x40478fdb
20008f7c:	404858eb          	0x404858eb
20008f80:	404921fb          	0x404921fb

20008f84 <two_over_pi>:
20008f84:	00a2f983          	0xa2f983
20008f88:	4e44                	lw	s1,28(a2)
20008f8a:	006e                	c.slli	zero,0x1b
20008f8c:	29fc                	fld	fa5,208(a1)
20008f8e:	0015                	c.nop	5
20008f90:	57d1                	li	a5,-12
20008f92:	34dd0027          	0x34dd0027
20008f96:	00f5                	addi	ra,ra,29
20008f98:	db62                	sw	s8,180(sp)
20008f9a:	00c0                	addi	s0,sp,68
20008f9c:	993c                	0x993c
20008f9e:	0095                	addi	ra,ra,5
20008fa0:	9041                	srli	s0,s0,0x30
20008fa2:	51630043          	fmadd.s	ft0,ft6,fs6,fa0,rne
20008fa6:	00fe                	slli	ra,ra,0x1f
20008fa8:	00abdebb          	0xabdebb
20008fac:	00c561b7          	lui	gp,0xc56
20008fb0:	6e3a                	flw	ft8,140(sp)
20008fb2:	0024                	addi	s1,sp,8
20008fb4:	4dd2                	lw	s11,20(sp)
20008fb6:	0042                	c.slli	zero,0x10
20008fb8:	0649                	addi	a2,a2,18
20008fba:	00e0                	addi	s0,sp,76
20008fbc:	ea09                	bnez	a2,20008fce <two_over_pi+0x4a>
20008fbe:	002e                	c.slli	zero,0xb
20008fc0:	921c                	0x921c
20008fc2:	00d1                	addi	ra,ra,20
20008fc4:	00fe1deb          	0xfe1deb
20008fc8:	b129                	j	20008bd2 <scalbnf+0xea>
20008fca:	001c                	0x1c
20008fcc:	3ee8                	fld	fa0,248(a3)
20008fce:	35f500a7          	0x35f500a7
20008fd2:	0082                	c.slli64	ra
20008fd4:	bb44                	fsd	fs1,176(a4)
20008fd6:	002e                	c.slli	zero,0xb
20008fd8:	e99c                	fsw	fa5,16(a1)
20008fda:	0084                	addi	s1,sp,64
20008fdc:	26b4                	fld	fa3,72(a3)
20008fde:	0070                	addi	a2,sp,12
20008fe0:	7e41                	lui	t3,0xffff0
20008fe2:	005f 91d6 0039      	0x3991d6005f
20008fe8:	00398353          	fadd.s	ft6,fs3,ft3,rne
20008fec:	f49c                	fsw	fa5,40(s1)
20008fee:	0039                	c.nop	14
20008ff0:	00845f8b          	0x845f8b
20008ff4:	f928                	fsw	fa0,112(a0)
20008ff6:	00bd                	addi	ra,ra,15
20008ff8:	1ff8                	addi	a4,sp,1020
20008ffa:	ffde003b          	0xffde003b
20008ffe:	980f0097          	auipc	ra,0x980f0
20009002:	0005                	c.nop	1
20009004:	2f11                	jal	20009718 <impure_data+0x208>
20009006:	5a0a00ef          	jal	ra,200a95a6 <__global_pointer$+0x9f406>
2000900a:	1f6d008b          	0x1f6d008b
2000900e:	006d                	c.nop	27
20009010:	00367ecf          	fnmadd.s	ft9,fa2,ft3,ft0
20009014:	cb09                	beqz	a4,20009026 <two_over_pi+0xa2>
20009016:	4f460027          	0x4f460027
2000901a:	669e00b7          	lui	ra,0x669e0
2000901e:	ea2d003f 27ba005f 	0x27ba005fea2d003f
20009026:	0075                	c.nop	29
20009028:	ebe5                	bnez	a5,20009118 <_etext+0x38>
2000902a:	7b3d00c7          	fmsub.d	ft1,fs10,fs3,fa5,rne
2000902e:	00f1                	addi	ra,ra,28
20009030:	000739f7          	0x739f7
20009034:	5292                	lw	t0,36(sp)
20009036:	008a                	slli	ra,ra,0x2
20009038:	00ea6bfb          	0xea6bfb
2000903c:	b11f 005f 5d08      	0x5d08005fb11f
20009042:	008d                	addi	ra,ra,3
20009044:	0330                	addi	a2,sp,392
20009046:	0056                	c.slli	zero,0x15
20009048:	0046fc7b          	0x46fc7b
2000904c:	abf0                	fsd	fa2,208(a5)
2000904e:	bc20006b          	0xbc20006b
20009052:	f43600cf          	0xf43600cf
20009056:	009a                	slli	ra,ra,0x6
20009058:	001da9e3          	0x1da9e3
2000905c:	615e                	flw	ft2,212(sp)
2000905e:	0091                	addi	ra,ra,4
20009060:	1b08                	addi	a0,sp,432
20009062:	00e6                	slli	ra,ra,0x19
20009064:	9985                	andi	a1,a1,-31
20009066:	0065                	c.nop	25
20009068:	14a0                	addi	s0,sp,616
2000906a:	005f 408d 0068      	0x68408d005f
20009070:	d880                	sw	s0,48(s1)
20009072:	00ff                	0xff
20009074:	004d7327          	0x4d7327
20009078:	0606                	slli	a2,a2,0x1
2000907a:	0031                	c.nop	12
2000907c:	56ca                	lw	a3,176(sp)
2000907e:	0015                	c.nop	5
20009080:	a8c9                	j	20009152 <_etext+0x72>
20009082:	e27b0073          	0xe27b0073
20009086:	0060                	addi	s0,sp,12
20009088:	00c08c6b          	0xc08c6b
2000908c:	0000                	unimp
	...

20009090 <PIo2>:
20009090:	0000                	unimp
20009092:	4000                	lw	s0,0(s0)
20009094:	3ff921fb          	0x3ff921fb
20009098:	0000                	unimp
2000909a:	0000                	unimp
2000909c:	442d                	li	s0,11
2000909e:	3e74                	fld	fa3,248(a2)
200090a0:	0000                	unimp
200090a2:	8000                	0x8000
200090a4:	4698                	lw	a4,8(a3)
200090a6:	3cf8                	fld	fa4,248(s1)
200090a8:	0000                	unimp
200090aa:	6000                	flw	fs0,0(s0)
200090ac:	cc51                	beqz	s0,20009148 <_etext+0x68>
200090ae:	3b78                	fld	fa4,240(a4)
200090b0:	0000                	unimp
200090b2:	8000                	0x8000
200090b4:	39f01b83          	lh	s7,927(zero) # 39f <_start-0x1ffffc61>
200090b8:	0000                	unimp
200090ba:	4000                	lw	s0,0(s0)
200090bc:	2520                	fld	fs0,72(a0)
200090be:	387a                	fld	fa6,440(sp)
200090c0:	0000                	unimp
200090c2:	8000                	0x8000
200090c4:	8222                	mv	tp,s0
200090c6:	000036e3          	0x36e3
200090ca:	0000                	unimp
200090cc:	f31d                	bnez	a4,20008ff2 <two_over_pi+0x6e>
200090ce:	3569                	jal	20008f58 <npio2_hw+0x54>

200090d0 <init_jk>:
200090d0:	0002                	c.slli64	zero
200090d2:	0000                	unimp
200090d4:	00000003          	lb	zero,0(zero) # 0 <_start-0x20000000>
200090d8:	0004                	0x4
200090da:	0000                	unimp
200090dc:	0006                	c.slli	zero,0x1
	...

Disassembly of section .srodata:

200090e0 <_global_impure_ptr>:
200090e0:	9510                	0x9510
200090e2:	2000                	fld	fs0,0(s0)

Disassembly of section .eh_frame:

200090e4 <.eh_frame>:
200090e4:	0010                	0x10
200090e6:	0000                	unimp
200090e8:	0000                	unimp
200090ea:	0000                	unimp
200090ec:	00527a03          	0x527a03
200090f0:	7c01                	lui	s8,0xfffe0
200090f2:	0101                	addi	sp,sp,0
200090f4:	00020d1b          	0x20d1b
200090f8:	0010                	0x10
200090fa:	0000                	unimp
200090fc:	0018                	0x18
200090fe:	0000                	unimp
20009100:	6f00                	flw	fs0,24(a4)
20009102:	ffff                	0xffff
20009104:	008c                	addi	a1,sp,64
20009106:	0000                	unimp
20009108:	0000                	unimp
2000910a:	0000                	unimp
2000910c:	0010                	0x10
2000910e:	0000                	unimp
20009110:	002c                	addi	a1,sp,8
20009112:	0000                	unimp
20009114:	6f78                	flw	fa4,92(a4)
20009116:	ffff                	0xffff
	...
20009120:	0040                	addi	s0,sp,4
20009122:	0000                	unimp
20009124:	0040                	addi	s0,sp,4
20009126:	0000                	unimp
20009128:	a6bc                	fsd	fa5,72(a3)
2000912a:	ffff                	0xffff
2000912c:	0234                	addi	a3,sp,264
2000912e:	0000                	unimp
20009130:	4400                	lw	s0,8(s0)
20009132:	300e                	fld	ft0,224(sp)
20009134:	9448                	0x9448
20009136:	5c06                	lw	s8,96(sp)
20009138:	0288                	addi	a0,sp,320
2000913a:	0795                	addi	a5,a5,5
2000913c:	8958                	0x8958
2000913e:	04926003          	0x4926003
20009142:	09970593          	addi	a1,a4,153
20009146:	0181                	addi	gp,gp,0
20009148:	0896                	slli	a7,a7,0x5
2000914a:	c101ac03          	lw	s8,-1008(gp) # c55c10 <_start-0x1f3aa3f0>
2000914e:	c844                	sw	s1,20(s0)
20009150:	c944                	sw	s1,20(a0)
20009152:	d244                	sw	s1,36(a2)
20009154:	d344                	sw	s1,36(a4)
20009156:	d444                	sw	s1,44(s0)
20009158:	d544                	sw	s1,44(a0)
2000915a:	d644                	sw	s1,44(a2)
2000915c:	d744                	sw	s1,44(a4)
2000915e:	0e44                	addi	s1,sp,788
20009160:	0000                	unimp
20009162:	0000                	unimp
20009164:	0010                	0x10
20009166:	0000                	unimp
20009168:	0084                	addi	s1,sp,64
2000916a:	0000                	unimp
2000916c:	a8ac                	fsd	fa1,80(s1)
2000916e:	ffff                	0xffff
20009170:	0020                	addi	s0,sp,8
20009172:	0000                	unimp
20009174:	0000                	unimp
20009176:	0000                	unimp
20009178:	0010                	0x10
2000917a:	0000                	unimp
2000917c:	0098                	addi	a4,sp,64
2000917e:	0000                	unimp
20009180:	a8b8                	fsd	fa4,80(s1)
20009182:	ffff                	0xffff
20009184:	0044                	addi	s1,sp,4
20009186:	0000                	unimp
20009188:	0000                	unimp
2000918a:	0000                	unimp
2000918c:	0010                	0x10
2000918e:	0000                	unimp
20009190:	00ac                	addi	a1,sp,72
20009192:	0000                	unimp
20009194:	a8e8                	fsd	fa0,208(s1)
20009196:	ffff                	0xffff
20009198:	0034                	addi	a3,sp,8
2000919a:	0000                	unimp
2000919c:	0000                	unimp
2000919e:	0000                	unimp
200091a0:	0018                	0x18
200091a2:	0000                	unimp
200091a4:	00c0                	addi	s0,sp,68
200091a6:	0000                	unimp
200091a8:	a908                	fsd	fa0,16(a0)
200091aa:	ffff                	0xffff
200091ac:	0078                	addi	a4,sp,12
200091ae:	0000                	unimp
200091b0:	4400                	lw	s0,8(s0)
200091b2:	100e                	c.slli	zero,0x23
200091b4:	8844                	0x8844
200091b6:	7801                	lui	a6,0xfffe0
200091b8:	74c8                	flw	fa0,44(s1)
200091ba:	000e                	c.slli	zero,0x3
200091bc:	003c                	addi	a5,sp,8
200091be:	0000                	unimp
200091c0:	00dc                	addi	a5,sp,68
200091c2:	0000                	unimp
200091c4:	a964                	fsd	fs1,208(a0)
200091c6:	ffff                	0xffff
200091c8:	01bc                	addi	a5,sp,200
200091ca:	0000                	unimp
200091cc:	4400                	lw	s0,8(s0)
200091ce:	200e                	fld	ft0,192(sp)
200091d0:	8848                	0x8848
200091d2:	9202                	jalr	tp
200091d4:	5c04                	lw	s1,56(s0)
200091d6:	0181                	addi	gp,gp,0
200091d8:	0389                	addi	t2,t2,2
200091da:	94500593          	li	a1,-1723
200091de:	9506                	add	a0,a0,ra
200091e0:	03089607          	0x3089607
200091e4:	00fc                	addi	a5,sp,76
200091e6:	c10a                	sw	sp,128(sp)
200091e8:	c844                	sw	s1,20(s0)
200091ea:	c944                	sw	s1,20(a0)
200091ec:	d244                	sw	s1,36(a2)
200091ee:	d344                	sw	s1,36(a4)
200091f0:	d444                	sw	s1,44(s0)
200091f2:	d544                	sw	s1,44(a0)
200091f4:	d644                	sw	s1,44(a2)
200091f6:	0e44                	addi	s1,sp,788
200091f8:	4400                	lw	s0,8(s0)
200091fa:	003c000b          	0x3c000b
200091fe:	0000                	unimp
20009200:	011c                	addi	a5,sp,128
20009202:	0000                	unimp
20009204:	aae0                	fsd	fs0,208(a3)
20009206:	ffff                	0xffff
20009208:	0118                	addi	a4,sp,128
2000920a:	0000                	unimp
2000920c:	4400                	lw	s0,8(s0)
2000920e:	300e                	fld	ft0,224(sp)
20009210:	9648                	0x9648
20009212:	9708                	0x9708
20009214:	5009                	c.li	zero,-30
20009216:	0694                	addi	a3,sp,832
20009218:	0795                	addi	a5,a5,5
2000921a:	8854                	0x8854
2000921c:	5802                	lw	a6,32(sp)
2000921e:	0181                	addi	gp,gp,0
20009220:	0389                	addi	t2,t2,2
20009222:	0492                	slli	s1,s1,0x4
20009224:	a4020593          	addi	a1,tp,-1472 # 12a40 <_start-0x1ffed5c0>
20009228:	48c1                	li	a7,16
2000922a:	44c8                	lw	a0,12(s1)
2000922c:	44c9                	li	s1,18
2000922e:	44d2                	lw	s1,20(sp)
20009230:	44d444d3          	0x44d444d3
20009234:	44d5                	li	s1,21
20009236:	44d6                	lw	s1,84(sp)
20009238:	000e44d7          	0xe44d7
2000923c:	0054                	addi	a3,sp,4
2000923e:	0000                	unimp
20009240:	015c                	addi	a5,sp,132
20009242:	0000                	unimp
20009244:	abb8                	fsd	fa4,80(a5)
20009246:	ffff                	0xffff
20009248:	03d4                	addi	a3,sp,452
2000924a:	0000                	unimp
2000924c:	4400                	lw	s0,8(s0)
2000924e:	900e                	c.add	zero,gp
20009250:	4801                	li	a6,0
20009252:	0b990997          	auipc	s3,0xb990
20009256:	944c                	0x944c
20009258:	4806                	lw	a6,64(sp)
2000925a:	0896                	slli	a7,a7,0x5
2000925c:	8850                	0x8850
2000925e:	5802                	lw	a6,32(sp)
20009260:	0181                	addi	gp,gp,0
20009262:	0389                	addi	t2,t2,2
20009264:	0492                	slli	s1,s1,0x4
20009266:	95580593          	addi	a1,a6,-1707 # fffdf955 <__global_pointer$+0xdffd57b5>
2000926a:	9a0a9807          	0x9a0a9807
2000926e:	9b0c                	0x9b0c
20009270:	030d                	addi	t1,t1,3
20009272:	00fc                	addi	a5,sp,76
20009274:	c10a                	sw	sp,128(sp)
20009276:	c848                	sw	a0,20(s0)
20009278:	c944                	sw	s1,20(a0)
2000927a:	d244                	sw	s1,36(a2)
2000927c:	d344                	sw	s1,36(a4)
2000927e:	d444                	sw	s1,44(s0)
20009280:	d544                	sw	s1,44(a0)
20009282:	d644                	sw	s1,44(a2)
20009284:	d744                	sw	s1,44(a4)
20009286:	d844                	sw	s1,52(s0)
20009288:	d944                	sw	s1,52(a0)
2000928a:	da44                	sw	s1,52(a2)
2000928c:	db44                	sw	s1,52(a4)
2000928e:	0e44                	addi	s1,sp,788
20009290:	4400                	lw	s0,8(s0)
20009292:	0050000b          	0x50000b
20009296:	0000                	unimp
20009298:	01b4                	addi	a3,sp,200
2000929a:	0000                	unimp
2000929c:	af34                	fsd	fa3,88(a4)
2000929e:	ffff                	0xffff
200092a0:	04f8                	addi	a4,sp,588
200092a2:	0000                	unimp
200092a4:	4400                	lw	s0,8(s0)
200092a6:	a00e                	fsd	ft3,0(sp)
200092a8:	7401                	lui	s0,0xfffe0
200092aa:	0389                	addi	t2,t2,2
200092ac:	0492                	slli	s1,s1,0x4
200092ae:	06940593          	addi	a1,s0,105 # fffe0069 <__global_pointer$+0xdffd5ec9>
200092b2:	0795                	addi	a5,a5,5
200092b4:	0896                	slli	a7,a7,0x5
200092b6:	0181                	addi	gp,gp,0
200092b8:	0288                	addi	a0,sp,320
200092ba:	0a980997          	auipc	s3,0xa980
200092be:	0b99                	addi	s7,s7,6
200092c0:	0c9a                	slli	s9,s9,0x6
200092c2:	40030d9b          	0x40030d9b
200092c6:	44c10a03          	lb	s4,1100(sp)
200092ca:	44c8                	lw	a0,12(s1)
200092cc:	44c9                	li	s1,18
200092ce:	44d2                	lw	s1,20(sp)
200092d0:	44d444d3          	0x44d444d3
200092d4:	44d5                	li	s1,21
200092d6:	44d6                	lw	s1,84(sp)
200092d8:	44d844d7          	0x44d844d7
200092dc:	44d9                	li	s1,22
200092de:	44da                	lw	s1,148(sp)
200092e0:	000e48db          	0xe48db
200092e4:	0b44                	addi	s1,sp,404
200092e6:	0000                	unimp
200092e8:	0054                	addi	a3,sp,4
200092ea:	0000                	unimp
200092ec:	0208                	addi	a0,sp,256
200092ee:	0000                	unimp
200092f0:	b3d8                	fsd	fa4,160(a5)
200092f2:	ffff                	0xffff
200092f4:	0cb4                	addi	a3,sp,600
200092f6:	0000                	unimp
200092f8:	4400                	lw	s0,8(s0)
200092fa:	b00e                	fsd	ft3,32(sp)
200092fc:	06944403          	lbu	s0,105(s0)
20009300:	934c                	0x934c
20009302:	4805                	li	a6,1
20009304:	0795                	addi	a5,a5,5
20009306:	8854                	0x8854
20009308:	8902                	jr	s2
2000930a:	60049203          	lh	tp,1536(s1)
2000930e:	0181                	addi	gp,gp,0
20009310:	0896                	slli	a7,a7,0x5
20009312:	0a980997          	auipc	s3,0xa980
20009316:	0b99                	addi	s7,s7,6
20009318:	0c9a                	slli	s9,s9,0x6
2000931a:	9c020d9b          	0x9c020d9b
2000931e:	c10a                	sw	sp,128(sp)
20009320:	c844                	sw	s1,20(s0)
20009322:	c94c                	sw	a1,20(a0)
20009324:	d244                	sw	s1,36(a2)
20009326:	d344                	sw	s1,36(a4)
20009328:	d444                	sw	s1,44(s0)
2000932a:	d644                	sw	s1,44(a2)
2000932c:	d744                	sw	s1,44(a4)
2000932e:	d844                	sw	s1,52(s0)
20009330:	d944                	sw	s1,52(a0)
20009332:	da44                	sw	s1,52(a2)
20009334:	db44                	sw	s1,52(a4)
20009336:	d548                	sw	a0,44(a0)
20009338:	0e44                	addi	s1,sp,788
2000933a:	4400                	lw	s0,8(s0)
2000933c:	0000000b          	0xb
20009340:	004c                	addi	a1,sp,4
20009342:	0000                	unimp
20009344:	0260                	addi	s0,sp,268
20009346:	0000                	unimp
20009348:	c034                	sw	a3,64(s0)
2000934a:	ffff                	0xffff
2000934c:	0278                	addi	a4,sp,268
2000934e:	0000                	unimp
20009350:	6000                	flw	fs0,0(s0)
20009352:	c00e                	sw	gp,0(sp)
20009354:	0201                	addi	tp,tp,0
20009356:	886c                	0x886c
20009358:	9602                	jalr	a2
2000935a:	9708                	0x9708
2000935c:	9809                	andi	s0,s0,-30
2000935e:	990a                	add	s2,s2,sp
20009360:	810c9a0b          	0x810c9a0b
20009364:	8901                	andi	a0,a0,0
20009366:	93049203          	lh	tp,-1744(s1)
2000936a:	9405                	srai	s0,s0,0x21
2000936c:	9506                	add	a0,a0,ra
2000936e:	030d9b07          	0x30d9b07
20009372:	01b4                	addi	a3,sp,200
20009374:	44c1                	li	s1,16
20009376:	44c8                	lw	a0,12(s1)
20009378:	44c9                	li	s1,18
2000937a:	44d2                	lw	s1,20(sp)
2000937c:	44d444d3          	0x44d444d3
20009380:	44d5                	li	s1,21
20009382:	44d6                	lw	s1,84(sp)
20009384:	44d844d7          	0x44d844d7
20009388:	44d9                	li	s1,22
2000938a:	44da                	lw	s1,148(sp)
2000938c:	000e44db          	0xe44db
20009390:	0044                	addi	s1,sp,4
20009392:	0000                	unimp
20009394:	02b0                	addi	a2,sp,328
20009396:	0000                	unimp
20009398:	c25c                	sw	a5,4(a2)
2000939a:	ffff                	0xffff
2000939c:	063c                	addi	a5,sp,776
2000939e:	0000                	unimp
200093a0:	4400                	lw	s0,8(s0)
200093a2:	b00e                	fsd	ft3,32(sp)
200093a4:	4804                	lw	s1,16(s0)
200093a6:	0492                	slli	s1,s1,0x4
200093a8:	95500593          	li	a1,-1707
200093ac:	02885c07          	0x2885c07
200093b0:	0896                	slli	a7,a7,0x5
200093b2:	9758                	0x9758
200093b4:	9809                	andi	s0,s0,-30
200093b6:	680a                	flw	fa6,128(sp)
200093b8:	0181                	addi	gp,gp,0
200093ba:	0389                	addi	t2,t2,2
200093bc:	0694                	addi	a3,sp,832
200093be:	c1057c03          	0xc1057c03
200093c2:	c944                	sw	s1,20(a0)
200093c4:	d24c                	sw	a1,36(a2)
200093c6:	d344                	sw	s1,36(a4)
200093c8:	d44c                	sw	a1,44(s0)
200093ca:	d544                	sw	s1,44(a0)
200093cc:	d64c                	sw	a1,44(a2)
200093ce:	d744                	sw	s1,44(a4)
200093d0:	c848                	sw	a0,20(s0)
200093d2:	d844                	sw	s1,52(s0)
200093d4:	0e44                	addi	s1,sp,788
200093d6:	0000                	unimp
200093d8:	0018                	0x18
200093da:	0000                	unimp
200093dc:	02f8                	addi	a4,sp,332
200093de:	0000                	unimp
200093e0:	c850                	sw	a2,20(s0)
200093e2:	ffff                	0xffff
200093e4:	0074                	addi	a3,sp,12
200093e6:	0000                	unimp
200093e8:	4400                	lw	s0,8(s0)
200093ea:	100e                	c.slli	zero,0x23
200093ec:	8148                	0x8148
200093ee:	8801                	andi	s0,s0,0
200093f0:	0002                	c.slli64	zero
200093f2:	0000                	unimp
200093f4:	0018                	0x18
200093f6:	0000                	unimp
200093f8:	0314                	addi	a3,sp,384
200093fa:	0000                	unimp
200093fc:	c8a8                	sw	a0,80(s1)
200093fe:	ffff                	0xffff
20009400:	018c                	addi	a1,sp,192
20009402:	0000                	unimp
20009404:	4400                	lw	s0,8(s0)
20009406:	100e                	c.slli	zero,0x23
20009408:	8844                	0x8844
2000940a:	5402                	lw	s0,32(sp)
2000940c:	0181                	addi	gp,gp,0
2000940e:	0389                	addi	t2,t2,2
20009410:	0010                	0x10
20009412:	0000                	unimp
20009414:	0330                	addi	a2,sp,392
20009416:	0000                	unimp
20009418:	ca18                	sw	a4,16(a2)
2000941a:	ffff                	0xffff
2000941c:	0018                	0x18
2000941e:	0000                	unimp
20009420:	0000                	unimp
20009422:	0000                	unimp
20009424:	0018                	0x18
20009426:	0000                	unimp
20009428:	0344                	addi	s1,sp,388
2000942a:	0000                	unimp
2000942c:	ca1c                	sw	a5,16(a2)
2000942e:	ffff                	0xffff
20009430:	0024                	addi	s1,sp,8
20009432:	0000                	unimp
20009434:	4400                	lw	s0,8(s0)
20009436:	100e                	c.slli	zero,0x23
20009438:	8144                	0x8144
2000943a:	5401                	li	s0,-32
2000943c:	44c1                	li	s1,16
2000943e:	000e                	c.slli	zero,0x3
20009440:	0018                	0x18
20009442:	0000                	unimp
20009444:	0360                	addi	s0,sp,396
20009446:	0000                	unimp
20009448:	ca24                	sw	s1,80(a2)
2000944a:	ffff                	0xffff
2000944c:	0038                	addi	a4,sp,8
2000944e:	0000                	unimp
20009450:	4400                	lw	s0,8(s0)
20009452:	100e                	c.slli	zero,0x23
20009454:	8144                	0x8144
20009456:	6401                	0x6401
20009458:	48c1                	li	a7,16
2000945a:	000e                	c.slli	zero,0x3
2000945c:	0010                	0x10
2000945e:	0000                	unimp
20009460:	037c                	addi	a5,sp,396
20009462:	0000                	unimp
20009464:	ca40                	sw	s0,20(a2)
20009466:	ffff                	0xffff
20009468:	0014                	0x14
2000946a:	0000                	unimp
2000946c:	0000                	unimp
2000946e:	0000                	unimp
20009470:	0034                	addi	a3,sp,8
20009472:	0000                	unimp
20009474:	0390                	addi	a2,sp,448
20009476:	0000                	unimp
20009478:	ca40                	sw	s0,20(a2)
2000947a:	ffff                	0xffff
2000947c:	0090                	addi	a2,sp,64
2000947e:	0000                	unimp
20009480:	4400                	lw	s0,8(s0)
20009482:	100e                	c.slli	zero,0x23
20009484:	8950                	0x8950
20009486:	88018103          	lb	sp,-1920(gp) # 20009a20 <_impure_ptr+0x88>
2000948a:	9202                	jalr	tp
2000948c:	0204                	addi	s1,sp,256
2000948e:	0a40                	addi	s0,sp,276
20009490:	44c1                	li	s1,16
20009492:	44c8                	lw	a0,12(s1)
20009494:	44c9                	li	s1,18
20009496:	44d2                	lw	s1,20(sp)
20009498:	000e                	c.slli	zero,0x3
2000949a:	0b44                	addi	s1,sp,404
2000949c:	c154                	sw	a3,4(a0)
2000949e:	c844                	sw	s1,20(s0)
200094a0:	c944                	sw	s1,20(a0)
200094a2:	d244                	sw	s1,36(a2)
200094a4:	0e44                	addi	s1,sp,788
200094a6:	0000                	unimp
200094a8:	001c                	0x1c
200094aa:	0000                	unimp
200094ac:	03c8                	addi	a0,sp,452
200094ae:	0000                	unimp
200094b0:	ca98                	sw	a4,16(a3)
200094b2:	ffff                	0xffff
200094b4:	007c                	addi	a5,sp,12
200094b6:	0000                	unimp
200094b8:	6000                	flw	fs0,0(s0)
200094ba:	300e                	fld	ft0,224(sp)
200094bc:	8148                	0x8148
200094be:	0201                	addi	tp,tp,0
200094c0:	c14c                	sw	a1,4(a0)
200094c2:	0e44                	addi	s1,sp,788
200094c4:	0000                	unimp
200094c6:	0000                	unimp
200094c8:	001c                	0x1c
200094ca:	0000                	unimp
200094cc:	03e8                	addi	a0,sp,460
200094ce:	0000                	unimp
200094d0:	caf4                	sw	a3,84(a3)
200094d2:	ffff                	0xffff
200094d4:	0150                	addi	a2,sp,132
200094d6:	0000                	unimp
200094d8:	6000                	flw	fs0,0(s0)
200094da:	300e                	fld	ft0,224(sp)
200094dc:	8168                	0x8168
200094de:	0301                	addi	t1,t1,0
200094e0:	0100                	addi	s0,sp,128
200094e2:	44c1                	li	s1,16
200094e4:	000e                	c.slli	zero,0x3
200094e6:	0000                	unimp
200094e8:	0020                	addi	s0,sp,8
200094ea:	0000                	unimp
200094ec:	0408                	addi	a0,sp,512
200094ee:	0000                	unimp
200094f0:	cc24                	sw	s1,88(s0)
200094f2:	ffff                	0xffff
200094f4:	0348                	addi	a0,sp,388
200094f6:	0000                	unimp
200094f8:	7800                	flw	fs0,48(s0)
200094fa:	300e                	fld	ft0,224(sp)
200094fc:	814c                	0x814c
200094fe:	0301                	addi	t1,t1,0
20009500:	013c                	addi	a5,sp,136
20009502:	c10a                	sw	sp,128(sp)
20009504:	0e44                	addi	s1,sp,788
20009506:	4400                	lw	s0,8(s0)
20009508:	0000000b          	0xb

Disassembly of section .data:

20009510 <impure_data>:
20009510:	0000                	unimp
20009512:	0000                	unimp
20009514:	97fc                	0x97fc
20009516:	2000                	fld	fs0,0(s0)
20009518:	9864                	0x9864
2000951a:	2000                	fld	fs0,0(s0)
2000951c:	98cc                	0x98cc
2000951e:	2000                	fld	fs0,0(s0)
	...
200095b8:	0001                	nop
200095ba:	0000                	unimp
200095bc:	0000                	unimp
200095be:	0000                	unimp
200095c0:	330e                	fld	ft6,224(sp)
200095c2:	abcd                	j	20009bb4 <spheres+0x18>
200095c4:	1234                	addi	a3,sp,296
200095c6:	e66d                	bnez	a2,200096b0 <impure_data+0x1a0>
200095c8:	deec                	sw	a1,124(a3)
200095ca:	0005                	c.nop	1
200095cc:	0000000b          	0xb
	...

20009938 <mailbox>:
20009938:	0000                	unimp
2000993a:	8000                	0x8000

2000993c <nb_lights>:
2000993c:	00000003          	lb	zero,0(zero) # 0 <_start-0x20000000>

20009940 <nb_spheres>:
20009940:	0004                	0x4
	...

20009944 <IO_UARTStatus>:
20009944:	1008                	addi	a0,sp,32
20009946:	8000                	0x8000

20009948 <IO_UARTTX>:
20009948:	1004                	addi	s1,sp,32
2000994a:	8000                	0x8000

2000994c <GPUFB0>:
2000994c:	0000                	unimp
2000994e:	8100                	0x8100

20009950 <GPUPAL_32>:
20009950:	0000                	unimp
20009952:	8104                	0x8104

Disassembly of section .got:

20009954 <_GLOBAL_OFFSET_TABLE_>:
20009954:	0000                	unimp
20009956:	0000                	unimp
20009958:	a1a0                	fsd	fs0,64(a1)
2000995a:	2000                	fld	fs0,0(s0)
2000995c:	9940                	0x9940
2000995e:	2000                	fld	fs0,0(s0)
20009960:	994c                	0x994c
20009962:	2000                	fld	fs0,0(s0)
20009964:	9950                	0x9950
20009966:	2000                	fld	fs0,0(s0)
20009968:	9938                	0x9938
2000996a:	2000                	fld	fs0,0(s0)
2000996c:	00ac                	addi	a1,sp,72
2000996e:	2000                	fld	fs0,0(s0)
20009970:	993c                	0x993c
20009972:	2000                	fld	fs0,0(s0)
20009974:	9b9c                	0x9b9c
20009976:	2000                	fld	fs0,0(s0)
20009978:	9b60                	0x9b60
2000997a:	2000                	fld	fs0,0(s0)
2000997c:	9b6c                	0x9b6c
2000997e:	2000                	fld	fs0,0(s0)
20009980:	008c                	addi	a1,sp,64
20009982:	2000                	fld	fs0,0(s0)
20009984:	9948                	0x9948
20009986:	2000                	fld	fs0,0(s0)
20009988:	9c6c                	0x9c6c
2000998a:	2000                	fld	fs0,0(s0)
2000998c:	9944                	0x9944
2000998e:	2000                	fld	fs0,0(s0)

Disassembly of section .got.plt:

20009990 <.got.plt>:
20009990:	ffff                	0xffff
20009992:	ffff                	0xffff
20009994:	0000                	unimp
	...

Disassembly of section .sdata:

20009998 <_impure_ptr>:
20009998:	9510                	0x9510
2000999a:	2000                	fld	fs0,0(s0)
2000999c:	0000                	unimp
2000999e:	3f80                	fld	fs0,56(a5)
200099a0:	0000                	unimp
200099a2:	5440                	lw	s0,44(s0)
200099a4:	3ff921fb          	0x3ff921fb
200099a8:	6331                	lui	t1,0xc
200099aa:	1a62                	slli	s4,s4,0x38
200099ac:	b461                	j	20009434 <_global_impure_ptr+0x354>
200099ae:	3dd0                	fld	fa2,184(a1)
200099b0:	0000                	unimp
200099b2:	1a60                	addi	s0,sp,316
200099b4:	b461                	j	2000943c <_global_impure_ptr+0x35c>
200099b6:	3dd0                	fld	fa2,184(a1)
200099b8:	2e037073          	csrci	0x2e0,6
200099bc:	198a                	slli	s3,s3,0x22
200099be:	c8833ba3          	0xc8833ba3
200099c2:	6dc9                	lui	s11,0x12
200099c4:	5f30                	lw	a2,120(a4)
200099c6:	3fe4                	fld	fs1,248(a5)
200099c8:	0000                	unimp
200099ca:	0000                	unimp
200099cc:	0000                	unimp
200099ce:	3fe0                	fld	fs0,248(a5)
200099d0:	0000                	unimp
200099d2:	2e00                	fld	fs0,24(a2)
200099d4:	198a                	slli	s3,s3,0x22
200099d6:	49c13ba3          	0x49c13ba3
200099da:	2520                	fld	fs0,72(a0)
200099dc:	839a                	mv	t2,t1
200099de:	0000397b          	0x397b
200099e2:	0000                	unimp
200099e4:	0000                	unimp
200099e6:	4170                	lw	a2,68(a0)
200099e8:	0000                	unimp
200099ea:	bf80                	fsd	fs0,56(a5)
200099ec:	aa00                	fsd	fs0,16(a2)
200099ee:	3fb8                	fld	fa4,120(a5)
200099f0:	a570                	fsd	fa2,200(a0)
200099f2:	36ec                	fld	fa1,232(a3)
200099f4:	0000                	unimp
200099f6:	3e80                	fld	fs0,56(a3)
200099f8:	3eaaaaab          	0x3eaaaaab
200099fc:	0000                	unimp
200099fe:	3f00                	fld	fs0,56(a4)
20009a00:	3fb8aa3b          	0x3fb8aa3b
20009a04:	0000                	unimp
20009a06:	4b80                	lw	s0,16(a5)
20009a08:	f142                	fsw	fa6,160(sp)
20009a0a:	32553e53          	0x32553e53
20009a0e:	3e6c                	fld	fa1,248(a2)
20009a10:	a305                	j	20009f30 <_end+0x2c0>
20009a12:	6db73e8b          	0x6db73e8b
20009a16:	999a3edb          	0x999a3edb
20009a1a:	3f19                	jal	20009930 <impure_data+0x420>
20009a1c:	0000                	unimp
20009a1e:	4040                	lw	s0,4(s0)
20009a20:	3800                	fld	fs0,48(s0)
20009a22:	3f76                	fld	ft10,376(sp)
20009a24:	3f76384f          	fnmadd.q	fa6,fa2,fs7,ft7,rup
20009a28:	c3a0                	sw	s0,64(a5)
20009a2a:	369d                	jal	20009590 <impure_data+0x80>
20009a2c:	aa3c                	fsd	fa5,80(a2)
20009a2e:	3338                	fld	fa4,96(a4)
20009a30:	7200                	flw	fs0,32(a2)
20009a32:	3f31                	jal	2000994e <GPUFB0+0x2>
20009a34:	7218                	flw	fa4,32(a2)
20009a36:	3f31                	jal	20009952 <GPUPAL_32+0x2>
20009a38:	be8c                	fsd	fa1,56(a3)
20009a3a:	bb4c35bf ea0e3331 	0xea0e3331bb4c35bf
20009a42:	35dd                	jal	20009928 <impure_data+0x418>
20009a44:	b355                	j	200097e8 <impure_data+0x2d8>
20009a46:	388a                	fld	fa7,160(sp)
20009a48:	0b61                	addi	s6,s6,24
20009a4a:	3b36                	fld	fs6,360(sp)
20009a4c:	3e2aaaab          	0x3e2aaaab
20009a50:	0000                	unimp
20009a52:	4000                	lw	s0,0(s0)

20009a54 <bp>:
20009a54:	0000                	unimp
20009a56:	3f80                	fld	fs0,56(a5)
20009a58:	0000                	unimp
20009a5a:	3fc0                	fld	fs0,184(a5)

20009a5c <dp_h>:
20009a5c:	0000                	unimp
20009a5e:	0000                	unimp
20009a60:	c000                	sw	s0,0(s0)
20009a62:	3f15                	jal	20009996 <.got.plt+0x6>

20009a64 <dp_l>:
20009a64:	0000                	unimp
20009a66:	0000                	unimp
20009a68:	cfdc                	sw	a5,28(a5)
20009a6a:	35d1                	jal	2000992e <impure_data+0x41e>
	...
20009a74:	0000                	unimp
20009a76:	3e70                	fld	fa2,248(a2)
20009a78:	0000                	unimp
20009a7a:	0000                	unimp
20009a7c:	0000                	unimp
20009a7e:	3fc0                	fld	fs0,184(a5)
20009a80:	0000                	unimp
20009a82:	0000                	unimp
20009a84:	0000                	unimp
20009a86:	4020                	lw	s0,64(s0)
20009a88:	0000                	unimp
20009a8a:	0000                	unimp
20009a8c:	0000                	unimp
20009a8e:	3ff0                	fld	fa2,248(a5)
20009a90:	0000                	unimp
20009a92:	0000                	unimp
20009a94:	0000                	unimp
20009a96:	bff0                	fsd	fa2,248(a5)
20009a98:	2d18                	fld	fa4,24(a0)
20009a9a:	5444                	lw	s1,44(s0)
20009a9c:	3fe921fb          	0x3fe921fb
20009aa0:	33145c07          	0x33145c07
20009aa4:	a626                	fsd	fs1,264(sp)
20009aa6:	3c81                	jal	200094f6 <_global_impure_ptr+0x416>
20009aa8:	7ad4                	flw	fa3,52(a3)
20009aaa:	2a7074bf a7e93efb 	0xa7e93efb2a7074bf
20009ab2:	32f0                	fld	fa2,224(a3)
20009ab4:	3f12b80f          	0x3f12b80f
20009ab8:	1068                	addi	a0,sp,44
20009aba:	1a8d                	addi	s5,s5,-29
20009abc:	3f3026f7          	0x3f3026f7
20009ac0:	8315                	srli	a4,a4,0x5
20009ac2:	fee0                	fsw	fs0,124(a3)
20009ac4:	dbc8                	sw	a0,52(a5)
20009ac6:	84933f57          	0x84933f57
20009aca:	e96e                	fsw	fs11,144(sp)
20009acc:	3f8226e3          	0x3f8226e3
20009ad0:	41fe                	lw	gp,220(sp)
20009ad2:	a1ba1bb3          	0xa1ba1bb3
20009ad6:	53733fab          	0x53733fab
20009ada:	db60                	sw	s0,116(a4)
20009adc:	bef375cb          	fnmsub.q	fa1,ft6,fa5,fs7
20009ae0:	92a6                	add	t0,t0,s1
20009ae2:	7e88a037          	lui	zero,0x7e88a
20009ae6:	3f14                	fld	fa3,56(a4)
20009ae8:	6501                	0x6501
20009aea:	f2f2                	fsw	ft8,100(sp)
20009aec:	44d8                	lw	a4,12(s1)
20009aee:	03283f43          	fmadd.d	ft10,fa6,fs2,ft0,rup
20009af2:	c956                	sw	s5,144(sp)
20009af4:	6d22                	flw	fs10,8(sp)
20009af6:	3f6d                	jal	20009ab0 <dp_l+0x4c>
20009af8:	8406d637          	lui	a2,0x8406d
20009afc:	64f4                	flw	fa3,76(s1)
20009afe:	3f96                	fld	ft11,352(sp)
20009b00:	fe7a                	fsw	ft10,60(sp)
20009b02:	1110                	addi	a2,sp,160
20009b04:	1111                	addi	sp,sp,-28
20009b06:	3fc1                	jal	20009ad6 <dp_l+0x72>
20009b08:	55555563          	bge	a0,s5,2000a052 <_end+0x3e2>
20009b0c:	5555                	li	a0,-11
20009b0e:	3fd5                	jal	20009b02 <dp_l+0x9e>
20009b10:	0000                	unimp
20009b12:	1000                	addi	s0,sp,32
20009b14:	0000                	unimp
20009b16:	7000                	flw	fs0,32(s0)
20009b18:	759c                	flw	fa5,40(a1)
20009b1a:	8800                	0x8800
20009b1c:	e43c                	fsw	fa5,72(s0)
20009b1e:	00007e37          	lui	t3,0x7
20009b22:	0000                	unimp
20009b24:	0000                	unimp
20009b26:	4350                	lw	a2,4(a4)
20009b28:	f359                	bnez	a4,20009aae <dp_l+0x4a>
20009b2a:	c2f8                	sw	a4,68(a3)
20009b2c:	6e1f 01a5 759c      	0x759c01a56e1f
20009b32:	8800                	0x8800
20009b34:	e43c                	fsw	fa5,72(s0)
20009b36:	f359fe37          	lui	t3,0xf359f
20009b3a:	c2f8                	sw	a4,68(a3)
20009b3c:	6e1f 81a5 0000      	0x81a56e1f
20009b42:	0000                	unimp
20009b44:	0000                	unimp
20009b46:	3c90                	fld	fa2,56(s1)
20009b48:	0000                	unimp
20009b4a:	4c00                	lw	s0,24(s0)
20009b4c:	4260                	lw	s0,68(a2)
20009b4e:	0da2                	slli	s11,s11,0x8
20009b50:	f2ca                	fsw	fs2,100(sp)
20009b52:	7149                	addi	sp,sp,-368
20009b54:	f2ca                	fsw	fs2,100(sp)
20009b56:	f149                	bnez	a0,20009ad8 <dp_l+0x74>
20009b58:	4260                	lw	s0,68(a2)
20009b5a:	8da2                	mv	s11,s0
20009b5c:	0000                	unimp
20009b5e:	3300                	fld	fs0,32(a4)

Disassembly of section .sbss:

20009b60 <__malloc_max_total_mem>:
20009b60:	0000                	unimp
	...

20009b64 <__malloc_max_sbrked_mem>:
20009b64:	0000                	unimp
	...

20009b68 <__malloc_top_pad>:
20009b68:	0000                	unimp
	...

Disassembly of section .bss:

20009b6c <lights>:
	...

20009b9c <spheres>:
	...

Disassembly of section .comment:

00000000 <.comment>:
   0:	3a434347          	fmsub.d	ft6,ft6,ft4,ft7,rmm
   4:	2820                	fld	fs0,80(s0)
   6:	29554e47          	fmsub.s	ft8,fa0,fs5,ft5,rmm
   a:	3120                	fld	fs0,96(a0)
   c:	2e31                	jal	328 <_start-0x1ffffcd8>
   e:	2e31                	jal	32a <_start-0x1ffffcd6>
  10:	0030                	addi	a2,sp,8

Disassembly of section .riscv.attributes:

00000000 <.riscv.attributes>:
   0:	2441                	jal	280 <_start-0x1ffffd80>
   2:	0000                	unimp
   4:	7200                	flw	fs0,32(a2)
   6:	7369                	lui	t1,0xffffa
   8:	01007663          	bgeu	zero,a6,14 <_start-0x1fffffec>
   c:	001a                	c.slli	zero,0x6
   e:	0000                	unimp
  10:	1004                	addi	s1,sp,32
  12:	7205                	lui	tp,0xfffe1
  14:	3376                	fld	ft6,376(sp)
  16:	6932                	flw	fs2,12(sp)
  18:	7032                	flw	ft0,44(sp)
  1a:	5f30                	lw	a2,120(a4)
  1c:	326d                	jal	fffff9c6 <__global_pointer$+0xdfff5826>
  1e:	3070                	fld	fa2,224(s0)
  20:	0800                	addi	s0,sp,16
  22:	0a01                	addi	s4,s4,0
  24:	0b              	Address 0x0000000000000024 is out of bounds.

