
./ROMnekoichi.elf:     file format elf32-littleriscv
./ROMnekoichi.elf
architecture: riscv:rv32, flags 0x00000112:
EXEC_P, HAS_SYMS, D_PAGED
start address 0x20000000

Program Header:
    LOAD off    0x00001000 vaddr 0x20000000 paddr 0x20000000 align 2**12
         filesz 0x0000b020 memsz 0x0000b5b9 flags rwx

Sections:
Idx Name          Size      VMA       LMA       File off  Algn
  0 .boot         00000064  20000000  20000000  00001000  2**2
                  CONTENTS, ALLOC, LOAD, READONLY, CODE
  1 .text         000078e0  20000064  20000064  00001064  2**2
                  CONTENTS, ALLOC, LOAD, READONLY, CODE
  2 .rodata       000022f0  20007944  20007944  00008944  2**2
                  CONTENTS, ALLOC, LOAD, READONLY, DATA
  3 .srodata      00000004  20009c34  20009c34  0000ac34  2**2
                  CONTENTS, ALLOC, LOAD, READONLY, DATA
  4 .init_array   00000008  20009c38  20009c38  0000ac38  2**2
                  CONTENTS, ALLOC, LOAD, DATA
  5 .eh_frame     00000ab4  20009c40  20009c40  0000ac40  2**2
                  CONTENTS, ALLOC, LOAD, READONLY, DATA
  6 .data         000008b0  2000a6f8  2000a6f8  0000b6f8  2**3
                  CONTENTS, ALLOC, LOAD, DATA
  7 .got          00000064  2000afa8  2000afa8  0000bfa8  2**2
                  CONTENTS, ALLOC, LOAD, DATA
  8 .got.plt      00000008  2000b00c  2000b00c  0000c00c  2**2
                  CONTENTS, ALLOC, LOAD, DATA
  9 .sdata        0000000c  2000b014  2000b014  0000c014  2**2
                  CONTENTS, ALLOC, LOAD, DATA
 10 .sbss         00000010  2000b020  2000b020  0000c020  2**2
                  ALLOC
 11 .bss          00000589  2000b030  2000b030  0000c020  2**2
                  ALLOC
 12 .comment      00000012  00000000  00000000  0000c020  2**0
                  CONTENTS, READONLY
 13 .riscv.attributes 00000020  00000000  00000000  0000c032  2**0
                  CONTENTS, READONLY
SYMBOL TABLE:
20000000 l    d  .boot	00000000 .boot
20000064 l    d  .text	00000000 .text
20007944 l    d  .rodata	00000000 .rodata
20009c34 l    d  .srodata	00000000 .srodata
20009c38 l    d  .init_array	00000000 .init_array
20009c40 l    d  .eh_frame	00000000 .eh_frame
2000a6f8 l    d  .data	00000000 .data
2000afa8 l    d  .got	00000000 .got
2000b00c l    d  .got.plt	00000000 .got.plt
2000b014 l    d  .sdata	00000000 .sdata
2000b020 l    d  .sbss	00000000 .sbss
2000b030 l    d  .bss	00000000 .bss
00000000 l    d  .comment	00000000 .comment
00000000 l    d  .riscv.attributes	00000000 .riscv.attributes
00000000 l    df *ABS*	00000000 rom.cpp
2000004c l       .boot	00000000 noatexitfound
20002c50 l     F .text	00000020 _GLOBAL__sub_I_rom.cpp
00000000 l    df *ABS*	00000000 atexit.c
00000000 l    df *ABS*	00000000 errno.c
00000000 l    df *ABS*	00000000 fini.c
00000000 l    df *ABS*	00000000 init.c
00000000 l    df *ABS*	00000000 malloc.c
00000000 l    df *ABS*	00000000 mallocr.c
00000000 l    df *ABS*	00000000 memcmp.c
00000000 l    df *ABS*	00000000 memcpy.c
00000000 l    df *ABS*	00000000 mlock.c
00000000 l    df *ABS*	00000000 sbrkr.c
00000000 l    df *ABS*	00000000 strchr.c
00000000 l    df *ABS*	00000000 strlen.c
00000000 l    df *ABS*	00000000 strstr.c
20000df0 l     F .text	0000041c two_way_long_needle
00000000 l    df *ABS*	00000000 __atexit.c
00000000 l    df *ABS*	00000000 mallocr.c
00000000 l    df *ABS*	00000000 strnlen.c
00000000 l    df *ABS*	00000000 libgcc2.c
00000000 l    df *ABS*	00000000 sdcard.cpp
00000000 l    df *ABS*	00000000 uart.cpp
00000000 l    df *ABS*	00000000 core.cpp
2000af84 l     O .data	00000004 _ZL10heap_start
00000000 l    df *ABS*	00000000 gpu.cpp
200046fc l     F .text	0000001c _GLOBAL__sub_I_gpu.cpp
00000000 l    df *ABS*	00000000 ff.c
20004718 l     F .text	00000104 _ZL12get_ldnumberPPKc
2000481c l     F .text	000001fc _ZL8check_fsP5FATFSm
20004a18 l     F .text	00000464 _ZL12mount_volumePPKcPP5FATFSh.constprop.0
20004e7c l     F .text	00000208 _ZL7get_fatP7FFOBJIDm.isra.0
20005084 l     F .text	000002d0 _ZL7dir_sdiP3DIRm.constprop.0
20005354 l     F .text	00000a48 _ZL11follow_pathP3DIRPKc
2000b3a8 l     O .bss	00000002 _ZL4Fsid
2000b3ac l     O .bss	0000000c _ZL5FatFs
2000b3b8 l     O .bss	00000200 _ZL6LfnBuf
2000b5b8 l     O .bss	00000001 _ZL7CurrVol
2000af9c l     O .data	0000000c _ZL9VolumeStr
200097d0 l     O .rodata	00000080 _ZL5ExCvt
20009850 l     O .rodata	0000000d _ZL6LfnOfs
00000000 l    df *ABS*	00000000 ffunicode.c
20009884 l     O .rodata	00000100 _ZL5uc437
20009984 l     O .rodata	000001f2 _ZZ11ff_wtoupperE4cvt1
20009b78 l     O .rodata	000000bc _ZZ11ff_wtoupperE4cvt2
00000000 l    df *ABS*	00000000 diskio.c
00000000 l    df *ABS*	00000000 libgcc2.c
00000000 l    df *ABS*	00000000 impure.c
2000a6f8 l     O .data	00000428 impure_data
00000000 l    df *ABS*	00000000 debugger.cpp
00000000 l    df *ABS*	00000000 console.cpp
00000000 l    df *ABS*	00000000 memtest.c
00000000 l    df *ABS*	00000000 nanojpeg.c
00000000 l    df *ABS*	00000000 micromod.c
00000000 l    df *ABS*	00000000 spi.cpp
00000000 l    df *ABS*	00000000 switches.cpp
00000000 l    df *ABS*	00000000 
20009c34 l       .init_array	00000000 __fini_array_end
20009c34 l       .init_array	00000000 __fini_array_start
20009c40 l       .init_array	00000000 __init_array_end
20009c34 l       .init_array	00000000 __preinit_array_end
2000afa8 l     O .got	00000000 _GLOBAL_OFFSET_TABLE_
20009c38 l       .init_array	00000000 __init_array_start
20009c34 l       .init_array	00000000 __preinit_array_start
20002350 g     F .text	00000068 _Z13RunBinaryBlobv
2000b39c g     O .bss	00000004 selectedexecutable
2000af98 g     O .data	00000004 IO_SwitchState
2000b820 g       *ABS*	00000000 __global_pointer$
2000a700 g       .data	00000000 _fdata
20000bc4 g     F .text	00000004 __malloc_unlock
20003498 g     F .text	00000134 _Z17SDReadSingleBlockmPhS_
2000af94 g     O .data	00000004 IO_GPUCommandFIFO
2000af90 g     O .data	00000004 GraphicsFontStart
20002330 g     F .text	00000020 _Z9LaunchELFm
20000078 g     F .text	0000000c __errno
20003ab8 g     F .text	00000344 _Z8PrintDMAiiPKcb
2000b02c g     O .sbss	00000004 errno
20009c34 g       .rodata	00000000 _etext
2000b820 g       .sdata	00000000 _gp
2000af78 g     O .data	00000004 IO_UARTRX
20007770 g     F .text	00000158 ff_wtoupper
20000064 g       .boot	00000000 _boot
2000b3a4 g     O .bss	00000004 font
200009bc g     F .text	00000128 memcpy
200078d4 g     F .text	00000030 disk_initialize
2000017c g     F .text	00000010 malloc
20001fd0 g     F .text	00000048 .hidden __udivsi3
2000b394 g     O .bss	00000004 numexecutables
200062c8 g     F .text	000000c0 f_chdir
2000b030 g       .bss	00000000 _bss_start
2000b028 g     O .sbss	00000004 __malloc_top_pad
200078c8 g     F .text	0000000c disk_status
20000bc8 g     F .text	0000005c _sbrk_r
200035cc g     F .text	000000b4 _Z20SDReadMultipleBlocksPhmm
20006a1c g     F .text	00000070 f_closedir
2000b024 g     O .sbss	00000004 __malloc_max_sbrked_mem
2000af8c g     O .data	00000004 IO_SPIOutput
20009c34 g     O .srodata	00000004 _global_impure_ptr
2000207c g     F .text	000001a4 _Z14SubmitGPUFramev
200000e0 g     F .text	0000009c __libc_init_array
2000385c g     F .text	00000014 _Z9ReadClockv
20003870 g     F .text	00000024 _Z9ClockToMsy
200019cc g     F .text	000005d8 .hidden __udivdi3
20003a3c g     F .text	00000048 _sbrk
20001994 g     F .text	00000038 strnlen
2000b5b9 g       .bss	00000000 _bss_end
200076c0 g     F .text	00000078 ff_uni2oem
20000084 g     F .text	0000005c __libc_fini_array
2000b390 g     O .bss	00000004 hardwareswitchstates
2000b3a0 g     O .bss	00000004 vramPage
2000af88 g     O .data	00000004 IO_SPIInput
20002018 g     F .text	00000010 .hidden __umodsi3
2000628c g     F .text	0000003c f_chdrive
20002c70 g     F .text	00000004 _Z9SDStrobe8v
20003930 g     F .text	00000024 _chdir
20001684 g     F .text	00000310 _free_r
20003184 g     F .text	00000084 _Z6SDIdlev
20002690 g     F .text	000000b4 _Z13LoadAndRunELFi
2000621c g     F .text	00000070 f_close
20000064 g       .boot	00000000 _ftext
2000b398 g     O .bss	00000004 oldhardwareswitchstates
2000b018 g     O .sdata	00000004 __malloc_sbrk_base
20000000 g     F .boot	00000064 _start
20003a18 g     F .text	00000024 _wait
2000120c g     F .text	0000029c strstr
20003894 g     F .text	0000009c _Z12ClockMsToHMSmRmS_S_
2000b288 g     O .bss	00000100 executables
200014a8 g     F .text	0000009c __register_exitproc
20005f6c g     F .text	000002b0 f_read
20006a8c g     F .text	00000c34 f_readdir
20001fa4 g     F .text	00000024 .hidden __mulsi3
2000b030 g     O .bss	00000028 __malloc_current_mallinfo
20003414 g     F .text	00000084 _Z17SDSetBlockSize512v
20000944 g     F .text	00000078 memcmp
2000ab20 g     O .data	00000408 __malloc_av_
20000bc0 g     F .text	00000004 __malloc_lock
000001f0 g       *ABS*	00000000 _STACK_SIZE
20003a84 g     F .text	00000034 _Z8InitFontv
20000ae4 g     F .text	000000dc memset
20002888 g     F .text	000003c8 main
20002288 g     F .text	000000a8 _Z14LoadBinaryBlobv
2000b020 g     O .sbss	00000004 __malloc_max_total_mem
20003338 g     F .text	000000dc _Z10SDCardInitv
2000019c g     F .text	000007a8 _malloc_r
20005d9c g     F .text	000000a0 f_mount
20003720 g     F .text	0000013c _Z7EchoHexm
20006918 g     F .text	00000104 f_opendir
20001fc8 g     F .text	00000084 .hidden __divsi3
20001544 g     F .text	00000140 _malloc_trim_r
2000b388 g     O .bss	00000004 gpuSideSubmitCounter
20007738 g     F .text	00000038 ff_oem2uni
2000399c g     F .text	00000024 _openat
20006388 g     F .text	00000590 f_lseek
20009144 g     O .rodata	00000100 .hidden __clz_tab
20003680 g     F .text	00000074 _Z13SDCardStartupv
20002c74 g     F .text	00000510 _Z5SDCmd13SDCardCommandm
20000064 g     F .text	00000014 atexit
2000af80 g     O .data	00000004 IO_UARTTX
2000b014 g     O .sdata	00000004 _impure_ptr
20004198 g     F .text	000000f8 _Z11PrintDMAHexiim
20003978 g     F .text	00000024 _lstat
2000af7c g     O .data	00000004 IO_UARTRXByteCount
2000b5b9 g       .bss	00000000 __BSS_END__$
20003954 g     F .text	00000024 _getcwd
200036f4 g     F .text	0000002c _Z8EchoUARTPKc
20003dfc g     F .text	0000039c _Z8PrintDMAiiiPKcb
200039c0 g     F .text	00000058 _write
2000afa8 g       .data	00000000 _edata
2000b5c0 g       .bss	00000000 _end
2000b38c g     O .bss	00000004 gpuSubmitCounter
2000b01c g     O .sdata	00000004 __malloc_trim_threshold
20005e3c g     F .text	00000130 f_open
200023b8 g     F .text	000002d8 _Z29ParseELFHeaderAndLoadSectionsP3FILP16SElfFileHeader32Rm
2000204c g     F .text	00000030 .hidden __modsi3
20000064 g     F .boot	00000000 _exit
20003208 g     F .text	00000130 _Z19SDCheckVoltageRangePm
20000d64 g     F .text	0000008c strlen
20007904 g     F .text	00000040 disk_read
20002744 g     F .text	00000144 _Z7ListDirPKc
20000c24 g     F .text	00000140 strchr
2000af28 g     O .data	00000050 FRtoString
20004290 g     F .text	0000046c _Z15PrintDMADecimaliiib
2000b058 g     O .bss	00000230 Fs
2000b020 g       .sbss	00000000 _fbss
20002220 g     F .text	00000068 _Z22SubmitBlankFrameNoWaitv
2000018c g     F .text	00000010 free



Disassembly of section .boot:

20000000 <_start>:
20000000:	0000b197          	auipc	gp,0xb
20000004:	fb41a183          	lw	gp,-76(gp) # 2000afb4 <_GLOBAL_OFFSET_TABLE_+0xc>
20000008:	20010137          	lui	sp,0x20010
2000000c:	ff010113          	addi	sp,sp,-16 # 2000fff0 <__global_pointer$+0x47d0>
20000010:	00010413          	mv	s0,sp
20000014:	0000b517          	auipc	a0,0xb
20000018:	fd452503          	lw	a0,-44(a0) # 2000afe8 <_GLOBAL_OFFSET_TABLE_+0x40>
2000001c:	0000b617          	auipc	a2,0xb
20000020:	fe062603          	lw	a2,-32(a2) # 2000affc <_GLOBAL_OFFSET_TABLE_+0x54>
20000024:	40a60633          	sub	a2,a2,a0
20000028:	00000593          	li	a1,0
2000002c:	2b9000ef          	jal	ra,20000ae4 <memset>
20000030:	0000b517          	auipc	a0,0xb
20000034:	fc052503          	lw	a0,-64(a0) # 2000aff0 <_GLOBAL_OFFSET_TABLE_+0x48>
20000038:	00050a63          	beqz	a0,2000004c <noatexitfound>
2000003c:	00001517          	auipc	a0,0x1
20000040:	0000b517          	auipc	a0,0xb
20000044:	f9052503          	lw	a0,-112(a0) # 2000afd0 <_GLOBAL_OFFSET_TABLE_+0x28>
20000048:	01c000ef          	jal	ra,20000064 <_exit>

2000004c <noatexitfound>:
2000004c:	094000ef          	jal	ra,200000e0 <__libc_init_array>
20000050:	00012503          	lw	a0,0(sp)
20000054:	00410593          	addi	a1,sp,4
20000058:	00000613          	li	a2,0
2000005c:	02d0206f          	j	20002888 <main>
20000060:	00100073          	ebreak

Disassembly of section .text:

20000064 <atexit>:
20000064:	00050593          	mv	a1,a0
20000068:	00000693          	li	a3,0
2000006c:	00000613          	li	a2,0
20000070:	00000513          	li	a0,0
20000074:	4340106f          	j	200014a8 <__register_exitproc>

20000078 <__errno>:
20000078:	2000b7b7          	lui	a5,0x2000b
2000007c:	0147a503          	lw	a0,20(a5) # 2000b014 <_impure_ptr>
20000080:	00008067          	ret

20000084 <__libc_fini_array>:
20000084:	ff010113          	addi	sp,sp,-16
20000088:	00812423          	sw	s0,8(sp)
2000008c:	2000a7b7          	lui	a5,0x2000a
20000090:	2000a437          	lui	s0,0x2000a
20000094:	c3440413          	addi	s0,s0,-972 # 20009c34 <_global_impure_ptr>
20000098:	c3478793          	addi	a5,a5,-972 # 20009c34 <_global_impure_ptr>
2000009c:	408787b3          	sub	a5,a5,s0
200000a0:	00912223          	sw	s1,4(sp)
200000a4:	00112623          	sw	ra,12(sp)
200000a8:	4027d493          	srai	s1,a5,0x2
200000ac:	02048063          	beqz	s1,200000cc <__libc_fini_array+0x48>
200000b0:	ffc78793          	addi	a5,a5,-4
200000b4:	00878433          	add	s0,a5,s0
200000b8:	00042783          	lw	a5,0(s0)
200000bc:	fff48493          	addi	s1,s1,-1
200000c0:	ffc40413          	addi	s0,s0,-4
200000c4:	000780e7          	jalr	a5
200000c8:	fe0498e3          	bnez	s1,200000b8 <__libc_fini_array+0x34>
200000cc:	00c12083          	lw	ra,12(sp)
200000d0:	00812403          	lw	s0,8(sp)
200000d4:	00412483          	lw	s1,4(sp)
200000d8:	01010113          	addi	sp,sp,16
200000dc:	00008067          	ret

200000e0 <__libc_init_array>:
200000e0:	ff010113          	addi	sp,sp,-16
200000e4:	00812423          	sw	s0,8(sp)
200000e8:	01212023          	sw	s2,0(sp)
200000ec:	2000a437          	lui	s0,0x2000a
200000f0:	2000a937          	lui	s2,0x2000a
200000f4:	c3440793          	addi	a5,s0,-972 # 20009c34 <_global_impure_ptr>
200000f8:	c3490913          	addi	s2,s2,-972 # 20009c34 <_global_impure_ptr>
200000fc:	40f90933          	sub	s2,s2,a5
20000100:	00112623          	sw	ra,12(sp)
20000104:	00912223          	sw	s1,4(sp)
20000108:	40295913          	srai	s2,s2,0x2
2000010c:	02090063          	beqz	s2,2000012c <__libc_init_array+0x4c>
20000110:	c3440413          	addi	s0,s0,-972
20000114:	00000493          	li	s1,0
20000118:	00042783          	lw	a5,0(s0)
2000011c:	00148493          	addi	s1,s1,1
20000120:	00440413          	addi	s0,s0,4
20000124:	000780e7          	jalr	a5
20000128:	fe9918e3          	bne	s2,s1,20000118 <__libc_init_array+0x38>
2000012c:	2000a437          	lui	s0,0x2000a
20000130:	2000a937          	lui	s2,0x2000a
20000134:	c3840793          	addi	a5,s0,-968 # 20009c38 <__init_array_start>
20000138:	c4090913          	addi	s2,s2,-960 # 20009c40 <__init_array_end>
2000013c:	40f90933          	sub	s2,s2,a5
20000140:	40295913          	srai	s2,s2,0x2
20000144:	02090063          	beqz	s2,20000164 <__libc_init_array+0x84>
20000148:	c3840413          	addi	s0,s0,-968
2000014c:	00000493          	li	s1,0
20000150:	00042783          	lw	a5,0(s0)
20000154:	00148493          	addi	s1,s1,1
20000158:	00440413          	addi	s0,s0,4
2000015c:	000780e7          	jalr	a5
20000160:	fe9918e3          	bne	s2,s1,20000150 <__libc_init_array+0x70>
20000164:	00c12083          	lw	ra,12(sp)
20000168:	00812403          	lw	s0,8(sp)
2000016c:	00412483          	lw	s1,4(sp)
20000170:	00012903          	lw	s2,0(sp)
20000174:	01010113          	addi	sp,sp,16
20000178:	00008067          	ret

2000017c <malloc>:
2000017c:	2000b7b7          	lui	a5,0x2000b
20000180:	00050593          	mv	a1,a0
20000184:	0147a503          	lw	a0,20(a5) # 2000b014 <_impure_ptr>
20000188:	0140006f          	j	2000019c <_malloc_r>

2000018c <free>:
2000018c:	2000b7b7          	lui	a5,0x2000b
20000190:	00050593          	mv	a1,a0
20000194:	0147a503          	lw	a0,20(a5) # 2000b014 <_impure_ptr>
20000198:	4ec0106f          	j	20001684 <_free_r>

2000019c <_malloc_r>:
2000019c:	fd010113          	addi	sp,sp,-48
200001a0:	01312e23          	sw	s3,28(sp)
200001a4:	02112623          	sw	ra,44(sp)
200001a8:	02812423          	sw	s0,40(sp)
200001ac:	02912223          	sw	s1,36(sp)
200001b0:	03212023          	sw	s2,32(sp)
200001b4:	01412c23          	sw	s4,24(sp)
200001b8:	01512a23          	sw	s5,20(sp)
200001bc:	01612823          	sw	s6,16(sp)
200001c0:	01712623          	sw	s7,12(sp)
200001c4:	01812423          	sw	s8,8(sp)
200001c8:	01912223          	sw	s9,4(sp)
200001cc:	00b58793          	addi	a5,a1,11
200001d0:	01600713          	li	a4,22
200001d4:	00050993          	mv	s3,a0
200001d8:	06f76663          	bltu	a4,a5,20000244 <_malloc_r+0xa8>
200001dc:	01000793          	li	a5,16
200001e0:	1eb7e663          	bltu	a5,a1,200003cc <_malloc_r+0x230>
200001e4:	1dd000ef          	jal	ra,20000bc0 <__malloc_lock>
200001e8:	01000493          	li	s1,16
200001ec:	01800793          	li	a5,24
200001f0:	00200613          	li	a2,2
200001f4:	2000b937          	lui	s2,0x2000b
200001f8:	b2090913          	addi	s2,s2,-1248 # 2000ab20 <__malloc_av_>
200001fc:	00f907b3          	add	a5,s2,a5
20000200:	0047a403          	lw	s0,4(a5)
20000204:	ff878713          	addi	a4,a5,-8
20000208:	20e40a63          	beq	s0,a4,2000041c <_malloc_r+0x280>
2000020c:	00442783          	lw	a5,4(s0)
20000210:	00c42683          	lw	a3,12(s0)
20000214:	00842603          	lw	a2,8(s0)
20000218:	ffc7f793          	andi	a5,a5,-4
2000021c:	00f407b3          	add	a5,s0,a5
20000220:	0047a703          	lw	a4,4(a5)
20000224:	00d62623          	sw	a3,12(a2)
20000228:	00c6a423          	sw	a2,8(a3)
2000022c:	00176713          	ori	a4,a4,1
20000230:	00098513          	mv	a0,s3
20000234:	00e7a223          	sw	a4,4(a5)
20000238:	18d000ef          	jal	ra,20000bc4 <__malloc_unlock>
2000023c:	00840513          	addi	a0,s0,8
20000240:	1980006f          	j	200003d8 <_malloc_r+0x23c>
20000244:	ff87f493          	andi	s1,a5,-8
20000248:	1807c263          	bltz	a5,200003cc <_malloc_r+0x230>
2000024c:	18b4e063          	bltu	s1,a1,200003cc <_malloc_r+0x230>
20000250:	171000ef          	jal	ra,20000bc0 <__malloc_lock>
20000254:	1f700793          	li	a5,503
20000258:	4697f063          	bgeu	a5,s1,200006b8 <_malloc_r+0x51c>
2000025c:	0094d793          	srli	a5,s1,0x9
20000260:	1a078663          	beqz	a5,2000040c <_malloc_r+0x270>
20000264:	00400713          	li	a4,4
20000268:	3cf76663          	bltu	a4,a5,20000634 <_malloc_r+0x498>
2000026c:	0064d793          	srli	a5,s1,0x6
20000270:	03978613          	addi	a2,a5,57
20000274:	03878513          	addi	a0,a5,56
20000278:	00361693          	slli	a3,a2,0x3
2000027c:	2000b937          	lui	s2,0x2000b
20000280:	b2090913          	addi	s2,s2,-1248 # 2000ab20 <__malloc_av_>
20000284:	00d906b3          	add	a3,s2,a3
20000288:	0046a403          	lw	s0,4(a3)
2000028c:	ff868693          	addi	a3,a3,-8
20000290:	02868663          	beq	a3,s0,200002bc <_malloc_r+0x120>
20000294:	00f00593          	li	a1,15
20000298:	0100006f          	j	200002a8 <_malloc_r+0x10c>
2000029c:	32075663          	bgez	a4,200005c8 <_malloc_r+0x42c>
200002a0:	00c42403          	lw	s0,12(s0)
200002a4:	00868c63          	beq	a3,s0,200002bc <_malloc_r+0x120>
200002a8:	00442783          	lw	a5,4(s0)
200002ac:	ffc7f793          	andi	a5,a5,-4
200002b0:	40978733          	sub	a4,a5,s1
200002b4:	fee5d4e3          	bge	a1,a4,2000029c <_malloc_r+0x100>
200002b8:	00050613          	mv	a2,a0
200002bc:	01092403          	lw	s0,16(s2)
200002c0:	00890893          	addi	a7,s2,8
200002c4:	17140863          	beq	s0,a7,20000434 <_malloc_r+0x298>
200002c8:	00442503          	lw	a0,4(s0)
200002cc:	00f00693          	li	a3,15
200002d0:	ffc57513          	andi	a0,a0,-4
200002d4:	409507b3          	sub	a5,a0,s1
200002d8:	40f6c663          	blt	a3,a5,200006e4 <_malloc_r+0x548>
200002dc:	01192a23          	sw	a7,20(s2)
200002e0:	01192823          	sw	a7,16(s2)
200002e4:	3e07d063          	bgez	a5,200006c4 <_malloc_r+0x528>
200002e8:	1ff00793          	li	a5,511
200002ec:	2ea7e463          	bltu	a5,a0,200005d4 <_malloc_r+0x438>
200002f0:	ff857793          	andi	a5,a0,-8
200002f4:	00878793          	addi	a5,a5,8
200002f8:	00492583          	lw	a1,4(s2)
200002fc:	00f907b3          	add	a5,s2,a5
20000300:	0007a683          	lw	a3,0(a5)
20000304:	00555513          	srli	a0,a0,0x5
20000308:	00100713          	li	a4,1
2000030c:	00a71733          	sll	a4,a4,a0
20000310:	00b76733          	or	a4,a4,a1
20000314:	ff878593          	addi	a1,a5,-8
20000318:	00b42623          	sw	a1,12(s0)
2000031c:	00d42423          	sw	a3,8(s0)
20000320:	00e92223          	sw	a4,4(s2)
20000324:	0087a023          	sw	s0,0(a5)
20000328:	0086a623          	sw	s0,12(a3)
2000032c:	40265793          	srai	a5,a2,0x2
20000330:	00100593          	li	a1,1
20000334:	00f595b3          	sll	a1,a1,a5
20000338:	10b76863          	bltu	a4,a1,20000448 <_malloc_r+0x2ac>
2000033c:	00e5f7b3          	and	a5,a1,a4
20000340:	02079463          	bnez	a5,20000368 <_malloc_r+0x1cc>
20000344:	00159593          	slli	a1,a1,0x1
20000348:	ffc67613          	andi	a2,a2,-4
2000034c:	00e5f7b3          	and	a5,a1,a4
20000350:	00460613          	addi	a2,a2,4
20000354:	00079a63          	bnez	a5,20000368 <_malloc_r+0x1cc>
20000358:	00159593          	slli	a1,a1,0x1
2000035c:	00e5f7b3          	and	a5,a1,a4
20000360:	00460613          	addi	a2,a2,4
20000364:	fe078ae3          	beqz	a5,20000358 <_malloc_r+0x1bc>
20000368:	00f00813          	li	a6,15
2000036c:	00361313          	slli	t1,a2,0x3
20000370:	00690333          	add	t1,s2,t1
20000374:	00030513          	mv	a0,t1
20000378:	00c52783          	lw	a5,12(a0)
2000037c:	00060e13          	mv	t3,a2
20000380:	2cf50c63          	beq	a0,a5,20000658 <_malloc_r+0x4bc>
20000384:	0047a703          	lw	a4,4(a5)
20000388:	00078413          	mv	s0,a5
2000038c:	00c7a783          	lw	a5,12(a5)
20000390:	ffc77713          	andi	a4,a4,-4
20000394:	409706b3          	sub	a3,a4,s1
20000398:	2cd84c63          	blt	a6,a3,20000670 <_malloc_r+0x4d4>
2000039c:	fe06c2e3          	bltz	a3,20000380 <_malloc_r+0x1e4>
200003a0:	00e40733          	add	a4,s0,a4
200003a4:	00472683          	lw	a3,4(a4)
200003a8:	00842603          	lw	a2,8(s0)
200003ac:	00098513          	mv	a0,s3
200003b0:	0016e693          	ori	a3,a3,1
200003b4:	00d72223          	sw	a3,4(a4)
200003b8:	00f62623          	sw	a5,12(a2)
200003bc:	00c7a423          	sw	a2,8(a5)
200003c0:	005000ef          	jal	ra,20000bc4 <__malloc_unlock>
200003c4:	00840513          	addi	a0,s0,8
200003c8:	0100006f          	j	200003d8 <_malloc_r+0x23c>
200003cc:	00c00793          	li	a5,12
200003d0:	00f9a023          	sw	a5,0(s3)
200003d4:	00000513          	li	a0,0
200003d8:	02c12083          	lw	ra,44(sp)
200003dc:	02812403          	lw	s0,40(sp)
200003e0:	02412483          	lw	s1,36(sp)
200003e4:	02012903          	lw	s2,32(sp)
200003e8:	01c12983          	lw	s3,28(sp)
200003ec:	01812a03          	lw	s4,24(sp)
200003f0:	01412a83          	lw	s5,20(sp)
200003f4:	01012b03          	lw	s6,16(sp)
200003f8:	00c12b83          	lw	s7,12(sp)
200003fc:	00812c03          	lw	s8,8(sp)
20000400:	00412c83          	lw	s9,4(sp)
20000404:	03010113          	addi	sp,sp,48
20000408:	00008067          	ret
2000040c:	20000693          	li	a3,512
20000410:	04000613          	li	a2,64
20000414:	03f00513          	li	a0,63
20000418:	e65ff06f          	j	2000027c <_malloc_r+0xe0>
2000041c:	00c7a403          	lw	s0,12(a5)
20000420:	00260613          	addi	a2,a2,2
20000424:	de8794e3          	bne	a5,s0,2000020c <_malloc_r+0x70>
20000428:	01092403          	lw	s0,16(s2)
2000042c:	00890893          	addi	a7,s2,8
20000430:	e9141ce3          	bne	s0,a7,200002c8 <_malloc_r+0x12c>
20000434:	00492703          	lw	a4,4(s2)
20000438:	40265793          	srai	a5,a2,0x2
2000043c:	00100593          	li	a1,1
20000440:	00f595b3          	sll	a1,a1,a5
20000444:	eeb77ce3          	bgeu	a4,a1,2000033c <_malloc_r+0x1a0>
20000448:	00892403          	lw	s0,8(s2)
2000044c:	00442a83          	lw	s5,4(s0)
20000450:	ffcafb13          	andi	s6,s5,-4
20000454:	009b6863          	bltu	s6,s1,20000464 <_malloc_r+0x2c8>
20000458:	409b07b3          	sub	a5,s6,s1
2000045c:	00f00713          	li	a4,15
20000460:	14f74063          	blt	a4,a5,200005a0 <_malloc_r+0x404>
20000464:	2000bcb7          	lui	s9,0x2000b
20000468:	8081aa83          	lw	s5,-2040(gp) # 2000b028 <__malloc_top_pad>
2000046c:	018ca703          	lw	a4,24(s9) # 2000b018 <__malloc_sbrk_base>
20000470:	fff00793          	li	a5,-1
20000474:	01640a33          	add	s4,s0,s6
20000478:	01548ab3          	add	s5,s1,s5
2000047c:	34f70663          	beq	a4,a5,200007c8 <_malloc_r+0x62c>
20000480:	000017b7          	lui	a5,0x1
20000484:	00f78793          	addi	a5,a5,15 # 100f <_STACK_SIZE+0xe1f>
20000488:	00fa8ab3          	add	s5,s5,a5
2000048c:	fffff7b7          	lui	a5,0xfffff
20000490:	00fafab3          	and	s5,s5,a5
20000494:	000a8593          	mv	a1,s5
20000498:	00098513          	mv	a0,s3
2000049c:	72c000ef          	jal	ra,20000bc8 <_sbrk_r>
200004a0:	fff00793          	li	a5,-1
200004a4:	00050b93          	mv	s7,a0
200004a8:	28f50863          	beq	a0,a5,20000738 <_malloc_r+0x59c>
200004ac:	29456463          	bltu	a0,s4,20000734 <_malloc_r+0x598>
200004b0:	81018c13          	addi	s8,gp,-2032 # 2000b030 <__malloc_current_mallinfo>
200004b4:	000c2583          	lw	a1,0(s8)
200004b8:	00ba85b3          	add	a1,s5,a1
200004bc:	00bc2023          	sw	a1,0(s8)
200004c0:	00058793          	mv	a5,a1
200004c4:	3aaa0063          	beq	s4,a0,20000864 <_malloc_r+0x6c8>
200004c8:	018ca683          	lw	a3,24(s9)
200004cc:	fff00713          	li	a4,-1
200004d0:	3ae68863          	beq	a3,a4,20000880 <_malloc_r+0x6e4>
200004d4:	414b8a33          	sub	s4,s7,s4
200004d8:	00fa07b3          	add	a5,s4,a5
200004dc:	00fc2023          	sw	a5,0(s8)
200004e0:	007bfc93          	andi	s9,s7,7
200004e4:	300c8463          	beqz	s9,200007ec <_malloc_r+0x650>
200004e8:	000017b7          	lui	a5,0x1
200004ec:	419b8bb3          	sub	s7,s7,s9
200004f0:	00878593          	addi	a1,a5,8 # 1008 <_STACK_SIZE+0xe18>
200004f4:	008b8b93          	addi	s7,s7,8
200004f8:	419585b3          	sub	a1,a1,s9
200004fc:	015b8ab3          	add	s5,s7,s5
20000500:	fff78793          	addi	a5,a5,-1
20000504:	415585b3          	sub	a1,a1,s5
20000508:	00f5fa33          	and	s4,a1,a5
2000050c:	000a0593          	mv	a1,s4
20000510:	00098513          	mv	a0,s3
20000514:	6b4000ef          	jal	ra,20000bc8 <_sbrk_r>
20000518:	fff00793          	li	a5,-1
2000051c:	3af50c63          	beq	a0,a5,200008d4 <_malloc_r+0x738>
20000520:	41750533          	sub	a0,a0,s7
20000524:	01450ab3          	add	s5,a0,s4
20000528:	000c2583          	lw	a1,0(s8)
2000052c:	01792423          	sw	s7,8(s2)
20000530:	001aea93          	ori	s5,s5,1
20000534:	00ba05b3          	add	a1,s4,a1
20000538:	00bc2023          	sw	a1,0(s8)
2000053c:	015ba223          	sw	s5,4(s7)
20000540:	35240463          	beq	s0,s2,20000888 <_malloc_r+0x6ec>
20000544:	00f00693          	li	a3,15
20000548:	3566f463          	bgeu	a3,s6,20000890 <_malloc_r+0x6f4>
2000054c:	00442703          	lw	a4,4(s0)
20000550:	ff4b0793          	addi	a5,s6,-12
20000554:	ff87f793          	andi	a5,a5,-8
20000558:	00177713          	andi	a4,a4,1
2000055c:	00f76733          	or	a4,a4,a5
20000560:	00e42223          	sw	a4,4(s0)
20000564:	00500613          	li	a2,5
20000568:	00f40733          	add	a4,s0,a5
2000056c:	00c72223          	sw	a2,4(a4)
20000570:	00c72423          	sw	a2,8(a4)
20000574:	36f6ea63          	bltu	a3,a5,200008e8 <_malloc_r+0x74c>
20000578:	004baa83          	lw	s5,4(s7)
2000057c:	000b8413          	mv	s0,s7
20000580:	8041a703          	lw	a4,-2044(gp) # 2000b024 <__malloc_max_sbrked_mem>
20000584:	00b77463          	bgeu	a4,a1,2000058c <_malloc_r+0x3f0>
20000588:	80b1a223          	sw	a1,-2044(gp) # 2000b024 <__malloc_max_sbrked_mem>
2000058c:	2000b7b7          	lui	a5,0x2000b
20000590:	0207a703          	lw	a4,32(a5) # 2000b020 <__malloc_max_total_mem>
20000594:	1ab77663          	bgeu	a4,a1,20000740 <_malloc_r+0x5a4>
20000598:	02b7a023          	sw	a1,32(a5)
2000059c:	1a40006f          	j	20000740 <_malloc_r+0x5a4>
200005a0:	0014e713          	ori	a4,s1,1
200005a4:	00e42223          	sw	a4,4(s0)
200005a8:	009404b3          	add	s1,s0,s1
200005ac:	00992423          	sw	s1,8(s2)
200005b0:	0017e793          	ori	a5,a5,1
200005b4:	00098513          	mv	a0,s3
200005b8:	00f4a223          	sw	a5,4(s1)
200005bc:	608000ef          	jal	ra,20000bc4 <__malloc_unlock>
200005c0:	00840513          	addi	a0,s0,8
200005c4:	e15ff06f          	j	200003d8 <_malloc_r+0x23c>
200005c8:	00c42683          	lw	a3,12(s0)
200005cc:	00842603          	lw	a2,8(s0)
200005d0:	c4dff06f          	j	2000021c <_malloc_r+0x80>
200005d4:	00955793          	srli	a5,a0,0x9
200005d8:	00400713          	li	a4,4
200005dc:	14f77263          	bgeu	a4,a5,20000720 <_malloc_r+0x584>
200005e0:	01400713          	li	a4,20
200005e4:	22f76a63          	bltu	a4,a5,20000818 <_malloc_r+0x67c>
200005e8:	05c78693          	addi	a3,a5,92
200005ec:	05b78593          	addi	a1,a5,91
200005f0:	00369693          	slli	a3,a3,0x3
200005f4:	00d906b3          	add	a3,s2,a3
200005f8:	0006a783          	lw	a5,0(a3)
200005fc:	ff868693          	addi	a3,a3,-8
20000600:	1cf68863          	beq	a3,a5,200007d0 <_malloc_r+0x634>
20000604:	0047a703          	lw	a4,4(a5)
20000608:	ffc77713          	andi	a4,a4,-4
2000060c:	00e57663          	bgeu	a0,a4,20000618 <_malloc_r+0x47c>
20000610:	0087a783          	lw	a5,8(a5)
20000614:	fef698e3          	bne	a3,a5,20000604 <_malloc_r+0x468>
20000618:	00c7a683          	lw	a3,12(a5)
2000061c:	00492703          	lw	a4,4(s2)
20000620:	00d42623          	sw	a3,12(s0)
20000624:	00f42423          	sw	a5,8(s0)
20000628:	0086a423          	sw	s0,8(a3)
2000062c:	0087a623          	sw	s0,12(a5)
20000630:	cfdff06f          	j	2000032c <_malloc_r+0x190>
20000634:	01400713          	li	a4,20
20000638:	12f77663          	bgeu	a4,a5,20000764 <_malloc_r+0x5c8>
2000063c:	05400713          	li	a4,84
20000640:	1ef76a63          	bltu	a4,a5,20000834 <_malloc_r+0x698>
20000644:	00c4d793          	srli	a5,s1,0xc
20000648:	06f78613          	addi	a2,a5,111
2000064c:	06e78513          	addi	a0,a5,110
20000650:	00361693          	slli	a3,a2,0x3
20000654:	c29ff06f          	j	2000027c <_malloc_r+0xe0>
20000658:	001e0e13          	addi	t3,t3,1
2000065c:	003e7793          	andi	a5,t3,3
20000660:	00850513          	addi	a0,a0,8
20000664:	10078e63          	beqz	a5,20000780 <_malloc_r+0x5e4>
20000668:	00c52783          	lw	a5,12(a0)
2000066c:	d15ff06f          	j	20000380 <_malloc_r+0x1e4>
20000670:	00842603          	lw	a2,8(s0)
20000674:	0014e593          	ori	a1,s1,1
20000678:	00b42223          	sw	a1,4(s0)
2000067c:	00f62623          	sw	a5,12(a2)
20000680:	00c7a423          	sw	a2,8(a5)
20000684:	009404b3          	add	s1,s0,s1
20000688:	00992a23          	sw	s1,20(s2)
2000068c:	00992823          	sw	s1,16(s2)
20000690:	0016e793          	ori	a5,a3,1
20000694:	0114a623          	sw	a7,12(s1)
20000698:	0114a423          	sw	a7,8(s1)
2000069c:	00f4a223          	sw	a5,4(s1)
200006a0:	00e40733          	add	a4,s0,a4
200006a4:	00098513          	mv	a0,s3
200006a8:	00d72023          	sw	a3,0(a4)
200006ac:	518000ef          	jal	ra,20000bc4 <__malloc_unlock>
200006b0:	00840513          	addi	a0,s0,8
200006b4:	d25ff06f          	j	200003d8 <_malloc_r+0x23c>
200006b8:	0034d613          	srli	a2,s1,0x3
200006bc:	00848793          	addi	a5,s1,8
200006c0:	b35ff06f          	j	200001f4 <_malloc_r+0x58>
200006c4:	00a40733          	add	a4,s0,a0
200006c8:	00472783          	lw	a5,4(a4)
200006cc:	00098513          	mv	a0,s3
200006d0:	0017e793          	ori	a5,a5,1
200006d4:	00f72223          	sw	a5,4(a4)
200006d8:	4ec000ef          	jal	ra,20000bc4 <__malloc_unlock>
200006dc:	00840513          	addi	a0,s0,8
200006e0:	cf9ff06f          	j	200003d8 <_malloc_r+0x23c>
200006e4:	0014e713          	ori	a4,s1,1
200006e8:	00e42223          	sw	a4,4(s0)
200006ec:	009404b3          	add	s1,s0,s1
200006f0:	00992a23          	sw	s1,20(s2)
200006f4:	00992823          	sw	s1,16(s2)
200006f8:	0017e713          	ori	a4,a5,1
200006fc:	0114a623          	sw	a7,12(s1)
20000700:	0114a423          	sw	a7,8(s1)
20000704:	00e4a223          	sw	a4,4(s1)
20000708:	00a40533          	add	a0,s0,a0
2000070c:	00f52023          	sw	a5,0(a0)
20000710:	00098513          	mv	a0,s3
20000714:	4b0000ef          	jal	ra,20000bc4 <__malloc_unlock>
20000718:	00840513          	addi	a0,s0,8
2000071c:	cbdff06f          	j	200003d8 <_malloc_r+0x23c>
20000720:	00655793          	srli	a5,a0,0x6
20000724:	03978693          	addi	a3,a5,57
20000728:	03878593          	addi	a1,a5,56
2000072c:	00369693          	slli	a3,a3,0x3
20000730:	ec5ff06f          	j	200005f4 <_malloc_r+0x458>
20000734:	11240e63          	beq	s0,s2,20000850 <_malloc_r+0x6b4>
20000738:	00892403          	lw	s0,8(s2)
2000073c:	00442a83          	lw	s5,4(s0)
20000740:	ffcafa93          	andi	s5,s5,-4
20000744:	409a87b3          	sub	a5,s5,s1
20000748:	009ae663          	bltu	s5,s1,20000754 <_malloc_r+0x5b8>
2000074c:	00f00713          	li	a4,15
20000750:	e4f748e3          	blt	a4,a5,200005a0 <_malloc_r+0x404>
20000754:	00098513          	mv	a0,s3
20000758:	46c000ef          	jal	ra,20000bc4 <__malloc_unlock>
2000075c:	00000513          	li	a0,0
20000760:	c79ff06f          	j	200003d8 <_malloc_r+0x23c>
20000764:	05c78613          	addi	a2,a5,92
20000768:	05b78513          	addi	a0,a5,91
2000076c:	00361693          	slli	a3,a2,0x3
20000770:	b0dff06f          	j	2000027c <_malloc_r+0xe0>
20000774:	00832783          	lw	a5,8(t1)
20000778:	fff60613          	addi	a2,a2,-1
2000077c:	1c679063          	bne	a5,t1,2000093c <_malloc_r+0x7a0>
20000780:	00367793          	andi	a5,a2,3
20000784:	ff830313          	addi	t1,t1,-8
20000788:	fe0796e3          	bnez	a5,20000774 <_malloc_r+0x5d8>
2000078c:	00492703          	lw	a4,4(s2)
20000790:	fff5c793          	not	a5,a1
20000794:	00e7f7b3          	and	a5,a5,a4
20000798:	00f92223          	sw	a5,4(s2)
2000079c:	00159593          	slli	a1,a1,0x1
200007a0:	cab7e4e3          	bltu	a5,a1,20000448 <_malloc_r+0x2ac>
200007a4:	ca0582e3          	beqz	a1,20000448 <_malloc_r+0x2ac>
200007a8:	00f5f733          	and	a4,a1,a5
200007ac:	00071a63          	bnez	a4,200007c0 <_malloc_r+0x624>
200007b0:	00159593          	slli	a1,a1,0x1
200007b4:	00f5f733          	and	a4,a1,a5
200007b8:	004e0e13          	addi	t3,t3,4
200007bc:	fe070ae3          	beqz	a4,200007b0 <_malloc_r+0x614>
200007c0:	000e0613          	mv	a2,t3
200007c4:	ba9ff06f          	j	2000036c <_malloc_r+0x1d0>
200007c8:	010a8a93          	addi	s5,s5,16
200007cc:	cc9ff06f          	j	20000494 <_malloc_r+0x2f8>
200007d0:	00492503          	lw	a0,4(s2)
200007d4:	4025d593          	srai	a1,a1,0x2
200007d8:	00100713          	li	a4,1
200007dc:	00b71733          	sll	a4,a4,a1
200007e0:	00a76733          	or	a4,a4,a0
200007e4:	00e92223          	sw	a4,4(s2)
200007e8:	e39ff06f          	j	20000620 <_malloc_r+0x484>
200007ec:	015b85b3          	add	a1,s7,s5
200007f0:	40b005b3          	neg	a1,a1
200007f4:	01459593          	slli	a1,a1,0x14
200007f8:	0145da13          	srli	s4,a1,0x14
200007fc:	000a0593          	mv	a1,s4
20000800:	00098513          	mv	a0,s3
20000804:	3c4000ef          	jal	ra,20000bc8 <_sbrk_r>
20000808:	fff00793          	li	a5,-1
2000080c:	d0f51ae3          	bne	a0,a5,20000520 <_malloc_r+0x384>
20000810:	00000a13          	li	s4,0
20000814:	d15ff06f          	j	20000528 <_malloc_r+0x38c>
20000818:	05400713          	li	a4,84
2000081c:	08f76063          	bltu	a4,a5,2000089c <_malloc_r+0x700>
20000820:	00c55793          	srli	a5,a0,0xc
20000824:	06f78693          	addi	a3,a5,111
20000828:	06e78593          	addi	a1,a5,110
2000082c:	00369693          	slli	a3,a3,0x3
20000830:	dc5ff06f          	j	200005f4 <_malloc_r+0x458>
20000834:	15400713          	li	a4,340
20000838:	08f76063          	bltu	a4,a5,200008b8 <_malloc_r+0x71c>
2000083c:	00f4d793          	srli	a5,s1,0xf
20000840:	07878613          	addi	a2,a5,120
20000844:	07778513          	addi	a0,a5,119
20000848:	00361693          	slli	a3,a2,0x3
2000084c:	a31ff06f          	j	2000027c <_malloc_r+0xe0>
20000850:	81018c13          	addi	s8,gp,-2032 # 2000b030 <__malloc_current_mallinfo>
20000854:	000c2783          	lw	a5,0(s8)
20000858:	00fa87b3          	add	a5,s5,a5
2000085c:	00fc2023          	sw	a5,0(s8)
20000860:	c69ff06f          	j	200004c8 <_malloc_r+0x32c>
20000864:	014a1713          	slli	a4,s4,0x14
20000868:	c60710e3          	bnez	a4,200004c8 <_malloc_r+0x32c>
2000086c:	00892403          	lw	s0,8(s2)
20000870:	015b0ab3          	add	s5,s6,s5
20000874:	001aea93          	ori	s5,s5,1
20000878:	01542223          	sw	s5,4(s0)
2000087c:	d05ff06f          	j	20000580 <_malloc_r+0x3e4>
20000880:	017cac23          	sw	s7,24(s9)
20000884:	c5dff06f          	j	200004e0 <_malloc_r+0x344>
20000888:	000b8413          	mv	s0,s7
2000088c:	cf5ff06f          	j	20000580 <_malloc_r+0x3e4>
20000890:	00100793          	li	a5,1
20000894:	00fba223          	sw	a5,4(s7)
20000898:	ebdff06f          	j	20000754 <_malloc_r+0x5b8>
2000089c:	15400713          	li	a4,340
200008a0:	06f76263          	bltu	a4,a5,20000904 <_malloc_r+0x768>
200008a4:	00f55793          	srli	a5,a0,0xf
200008a8:	07878693          	addi	a3,a5,120
200008ac:	07778593          	addi	a1,a5,119
200008b0:	00369693          	slli	a3,a3,0x3
200008b4:	d41ff06f          	j	200005f4 <_malloc_r+0x458>
200008b8:	55400713          	li	a4,1364
200008bc:	06f76263          	bltu	a4,a5,20000920 <_malloc_r+0x784>
200008c0:	0124d793          	srli	a5,s1,0x12
200008c4:	07d78613          	addi	a2,a5,125
200008c8:	07c78513          	addi	a0,a5,124
200008cc:	00361693          	slli	a3,a2,0x3
200008d0:	9adff06f          	j	2000027c <_malloc_r+0xe0>
200008d4:	ff8c8c93          	addi	s9,s9,-8
200008d8:	019a8ab3          	add	s5,s5,s9
200008dc:	417a8ab3          	sub	s5,s5,s7
200008e0:	00000a13          	li	s4,0
200008e4:	c45ff06f          	j	20000528 <_malloc_r+0x38c>
200008e8:	00840593          	addi	a1,s0,8
200008ec:	00098513          	mv	a0,s3
200008f0:	595000ef          	jal	ra,20001684 <_free_r>
200008f4:	00892403          	lw	s0,8(s2)
200008f8:	000c2583          	lw	a1,0(s8)
200008fc:	00442a83          	lw	s5,4(s0)
20000900:	c81ff06f          	j	20000580 <_malloc_r+0x3e4>
20000904:	55400713          	li	a4,1364
20000908:	02f76463          	bltu	a4,a5,20000930 <_malloc_r+0x794>
2000090c:	01255793          	srli	a5,a0,0x12
20000910:	07d78693          	addi	a3,a5,125
20000914:	07c78593          	addi	a1,a5,124
20000918:	00369693          	slli	a3,a3,0x3
2000091c:	cd9ff06f          	j	200005f4 <_malloc_r+0x458>
20000920:	3f800693          	li	a3,1016
20000924:	07f00613          	li	a2,127
20000928:	07e00513          	li	a0,126
2000092c:	951ff06f          	j	2000027c <_malloc_r+0xe0>
20000930:	3f800693          	li	a3,1016
20000934:	07e00593          	li	a1,126
20000938:	cbdff06f          	j	200005f4 <_malloc_r+0x458>
2000093c:	00492783          	lw	a5,4(s2)
20000940:	e5dff06f          	j	2000079c <_malloc_r+0x600>

20000944 <memcmp>:
20000944:	00300793          	li	a5,3
20000948:	02c7f863          	bgeu	a5,a2,20000978 <memcmp+0x34>
2000094c:	00b567b3          	or	a5,a0,a1
20000950:	0037f793          	andi	a5,a5,3
20000954:	00300693          	li	a3,3
20000958:	04079e63          	bnez	a5,200009b4 <memcmp+0x70>
2000095c:	00052703          	lw	a4,0(a0)
20000960:	0005a783          	lw	a5,0(a1)
20000964:	04f71863          	bne	a4,a5,200009b4 <memcmp+0x70>
20000968:	ffc60613          	addi	a2,a2,-4
2000096c:	00450513          	addi	a0,a0,4
20000970:	00458593          	addi	a1,a1,4
20000974:	fec6e4e3          	bltu	a3,a2,2000095c <memcmp+0x18>
20000978:	fff60693          	addi	a3,a2,-1
2000097c:	02060863          	beqz	a2,200009ac <memcmp+0x68>
20000980:	00168693          	addi	a3,a3,1
20000984:	00d506b3          	add	a3,a0,a3
20000988:	0080006f          	j	20000990 <memcmp+0x4c>
2000098c:	02d50063          	beq	a0,a3,200009ac <memcmp+0x68>
20000990:	00054783          	lbu	a5,0(a0)
20000994:	0005c703          	lbu	a4,0(a1)
20000998:	00150513          	addi	a0,a0,1
2000099c:	00158593          	addi	a1,a1,1
200009a0:	fee786e3          	beq	a5,a4,2000098c <memcmp+0x48>
200009a4:	40e78533          	sub	a0,a5,a4
200009a8:	00008067          	ret
200009ac:	00000513          	li	a0,0
200009b0:	00008067          	ret
200009b4:	fff60693          	addi	a3,a2,-1
200009b8:	fc9ff06f          	j	20000980 <memcmp+0x3c>

200009bc <memcpy>:
200009bc:	00a5c7b3          	xor	a5,a1,a0
200009c0:	0037f793          	andi	a5,a5,3
200009c4:	00c508b3          	add	a7,a0,a2
200009c8:	06079663          	bnez	a5,20000a34 <memcpy+0x78>
200009cc:	00300793          	li	a5,3
200009d0:	06c7f263          	bgeu	a5,a2,20000a34 <memcpy+0x78>
200009d4:	00357793          	andi	a5,a0,3
200009d8:	00050713          	mv	a4,a0
200009dc:	0c079a63          	bnez	a5,20000ab0 <memcpy+0xf4>
200009e0:	ffc8f613          	andi	a2,a7,-4
200009e4:	40e606b3          	sub	a3,a2,a4
200009e8:	02000793          	li	a5,32
200009ec:	02000293          	li	t0,32
200009f0:	06d7c263          	blt	a5,a3,20000a54 <memcpy+0x98>
200009f4:	00058693          	mv	a3,a1
200009f8:	00070793          	mv	a5,a4
200009fc:	02c77863          	bgeu	a4,a2,20000a2c <memcpy+0x70>
20000a00:	0006a803          	lw	a6,0(a3)
20000a04:	00478793          	addi	a5,a5,4
20000a08:	00468693          	addi	a3,a3,4
20000a0c:	ff07ae23          	sw	a6,-4(a5)
20000a10:	fec7e8e3          	bltu	a5,a2,20000a00 <memcpy+0x44>
20000a14:	fff60793          	addi	a5,a2,-1
20000a18:	40e787b3          	sub	a5,a5,a4
20000a1c:	ffc7f793          	andi	a5,a5,-4
20000a20:	00478793          	addi	a5,a5,4
20000a24:	00f70733          	add	a4,a4,a5
20000a28:	00f585b3          	add	a1,a1,a5
20000a2c:	01176863          	bltu	a4,a7,20000a3c <memcpy+0x80>
20000a30:	00008067          	ret
20000a34:	00050713          	mv	a4,a0
20000a38:	ff157ce3          	bgeu	a0,a7,20000a30 <memcpy+0x74>
20000a3c:	0005c783          	lbu	a5,0(a1)
20000a40:	00170713          	addi	a4,a4,1
20000a44:	00158593          	addi	a1,a1,1
20000a48:	fef70fa3          	sb	a5,-1(a4)
20000a4c:	ff1768e3          	bltu	a4,a7,20000a3c <memcpy+0x80>
20000a50:	00008067          	ret
20000a54:	0045a683          	lw	a3,4(a1)
20000a58:	01c5a783          	lw	a5,28(a1)
20000a5c:	0005af83          	lw	t6,0(a1)
20000a60:	0085af03          	lw	t5,8(a1)
20000a64:	00c5ae83          	lw	t4,12(a1)
20000a68:	0105ae03          	lw	t3,16(a1)
20000a6c:	0145a303          	lw	t1,20(a1)
20000a70:	0185a803          	lw	a6,24(a1)
20000a74:	00d72223          	sw	a3,4(a4)
20000a78:	0205a683          	lw	a3,32(a1)
20000a7c:	01f72023          	sw	t6,0(a4)
20000a80:	01e72423          	sw	t5,8(a4)
20000a84:	01d72623          	sw	t4,12(a4)
20000a88:	01c72823          	sw	t3,16(a4)
20000a8c:	00672a23          	sw	t1,20(a4)
20000a90:	01072c23          	sw	a6,24(a4)
20000a94:	00f72e23          	sw	a5,28(a4)
20000a98:	02470713          	addi	a4,a4,36
20000a9c:	40e607b3          	sub	a5,a2,a4
20000aa0:	fed72e23          	sw	a3,-4(a4)
20000aa4:	02458593          	addi	a1,a1,36
20000aa8:	faf2c6e3          	blt	t0,a5,20000a54 <memcpy+0x98>
20000aac:	f49ff06f          	j	200009f4 <memcpy+0x38>
20000ab0:	0005c683          	lbu	a3,0(a1)
20000ab4:	00170713          	addi	a4,a4,1
20000ab8:	00377793          	andi	a5,a4,3
20000abc:	fed70fa3          	sb	a3,-1(a4)
20000ac0:	00158593          	addi	a1,a1,1
20000ac4:	f0078ee3          	beqz	a5,200009e0 <memcpy+0x24>
20000ac8:	0005c683          	lbu	a3,0(a1)
20000acc:	00170713          	addi	a4,a4,1
20000ad0:	00377793          	andi	a5,a4,3
20000ad4:	fed70fa3          	sb	a3,-1(a4)
20000ad8:	00158593          	addi	a1,a1,1
20000adc:	fc079ae3          	bnez	a5,20000ab0 <memcpy+0xf4>
20000ae0:	f01ff06f          	j	200009e0 <memcpy+0x24>

20000ae4 <memset>:
20000ae4:	00f00313          	li	t1,15
20000ae8:	00050713          	mv	a4,a0
20000aec:	02c37e63          	bgeu	t1,a2,20000b28 <memset+0x44>
20000af0:	00f77793          	andi	a5,a4,15
20000af4:	0a079063          	bnez	a5,20000b94 <memset+0xb0>
20000af8:	08059263          	bnez	a1,20000b7c <memset+0x98>
20000afc:	ff067693          	andi	a3,a2,-16
20000b00:	00f67613          	andi	a2,a2,15
20000b04:	00e686b3          	add	a3,a3,a4
20000b08:	00b72023          	sw	a1,0(a4)
20000b0c:	00b72223          	sw	a1,4(a4)
20000b10:	00b72423          	sw	a1,8(a4)
20000b14:	00b72623          	sw	a1,12(a4)
20000b18:	01070713          	addi	a4,a4,16
20000b1c:	fed766e3          	bltu	a4,a3,20000b08 <memset+0x24>
20000b20:	00061463          	bnez	a2,20000b28 <memset+0x44>
20000b24:	00008067          	ret
20000b28:	40c306b3          	sub	a3,t1,a2
20000b2c:	00269693          	slli	a3,a3,0x2
20000b30:	00000297          	auipc	t0,0x0
20000b34:	005686b3          	add	a3,a3,t0
20000b38:	00c68067          	jr	12(a3)
20000b3c:	00b70723          	sb	a1,14(a4)
20000b40:	00b706a3          	sb	a1,13(a4)
20000b44:	00b70623          	sb	a1,12(a4)
20000b48:	00b705a3          	sb	a1,11(a4)
20000b4c:	00b70523          	sb	a1,10(a4)
20000b50:	00b704a3          	sb	a1,9(a4)
20000b54:	00b70423          	sb	a1,8(a4)
20000b58:	00b703a3          	sb	a1,7(a4)
20000b5c:	00b70323          	sb	a1,6(a4)
20000b60:	00b702a3          	sb	a1,5(a4)
20000b64:	00b70223          	sb	a1,4(a4)
20000b68:	00b701a3          	sb	a1,3(a4)
20000b6c:	00b70123          	sb	a1,2(a4)
20000b70:	00b700a3          	sb	a1,1(a4)
20000b74:	00b70023          	sb	a1,0(a4)
20000b78:	00008067          	ret
20000b7c:	0ff5f593          	andi	a1,a1,255
20000b80:	00859693          	slli	a3,a1,0x8
20000b84:	00d5e5b3          	or	a1,a1,a3
20000b88:	01059693          	slli	a3,a1,0x10
20000b8c:	00d5e5b3          	or	a1,a1,a3
20000b90:	f6dff06f          	j	20000afc <memset+0x18>
20000b94:	00279693          	slli	a3,a5,0x2
20000b98:	00000297          	auipc	t0,0x0
20000b9c:	005686b3          	add	a3,a3,t0
20000ba0:	00008293          	mv	t0,ra
20000ba4:	fa0680e7          	jalr	-96(a3)
20000ba8:	00028093          	mv	ra,t0
20000bac:	ff078793          	addi	a5,a5,-16
20000bb0:	40f70733          	sub	a4,a4,a5
20000bb4:	00f60633          	add	a2,a2,a5
20000bb8:	f6c378e3          	bgeu	t1,a2,20000b28 <memset+0x44>
20000bbc:	f3dff06f          	j	20000af8 <memset+0x14>

20000bc0 <__malloc_lock>:
20000bc0:	00008067          	ret

20000bc4 <__malloc_unlock>:
20000bc4:	00008067          	ret

20000bc8 <_sbrk_r>:
20000bc8:	ff010113          	addi	sp,sp,-16
20000bcc:	00812423          	sw	s0,8(sp)
20000bd0:	00912223          	sw	s1,4(sp)
20000bd4:	00050413          	mv	s0,a0
20000bd8:	00058513          	mv	a0,a1
20000bdc:	00112623          	sw	ra,12(sp)
20000be0:	8001a623          	sw	zero,-2036(gp) # 2000b02c <errno>
20000be4:	659020ef          	jal	ra,20003a3c <_sbrk>
20000be8:	fff00793          	li	a5,-1
20000bec:	00f50c63          	beq	a0,a5,20000c04 <_sbrk_r+0x3c>
20000bf0:	00c12083          	lw	ra,12(sp)
20000bf4:	00812403          	lw	s0,8(sp)
20000bf8:	00412483          	lw	s1,4(sp)
20000bfc:	01010113          	addi	sp,sp,16
20000c00:	00008067          	ret
20000c04:	80c1a783          	lw	a5,-2036(gp) # 2000b02c <errno>
20000c08:	fe0784e3          	beqz	a5,20000bf0 <_sbrk_r+0x28>
20000c0c:	00c12083          	lw	ra,12(sp)
20000c10:	00f42023          	sw	a5,0(s0)
20000c14:	00812403          	lw	s0,8(sp)
20000c18:	00412483          	lw	s1,4(sp)
20000c1c:	01010113          	addi	sp,sp,16
20000c20:	00008067          	ret

20000c24 <strchr>:
20000c24:	0ff5f693          	andi	a3,a1,255
20000c28:	00357793          	andi	a5,a0,3
20000c2c:	0c068063          	beqz	a3,20000cec <strchr+0xc8>
20000c30:	00078e63          	beqz	a5,20000c4c <strchr+0x28>
20000c34:	00054783          	lbu	a5,0(a0)
20000c38:	0a078663          	beqz	a5,20000ce4 <strchr+0xc0>
20000c3c:	0ad78663          	beq	a5,a3,20000ce8 <strchr+0xc4>
20000c40:	00150513          	addi	a0,a0,1
20000c44:	00357793          	andi	a5,a0,3
20000c48:	fe0796e3          	bnez	a5,20000c34 <strchr+0x10>
20000c4c:	0ff5f593          	andi	a1,a1,255
20000c50:	00859793          	slli	a5,a1,0x8
20000c54:	00f5e5b3          	or	a1,a1,a5
20000c58:	00052703          	lw	a4,0(a0)
20000c5c:	01059313          	slli	t1,a1,0x10
20000c60:	00b36333          	or	t1,t1,a1
20000c64:	feff0837          	lui	a6,0xfeff0
20000c68:	00e34633          	xor	a2,t1,a4
20000c6c:	eff80813          	addi	a6,a6,-257 # fefefeff <__global_pointer$+0xdefe46df>
20000c70:	010607b3          	add	a5,a2,a6
20000c74:	010705b3          	add	a1,a4,a6
20000c78:	fff64613          	not	a2,a2
20000c7c:	fff74713          	not	a4,a4
20000c80:	00c7f7b3          	and	a5,a5,a2
20000c84:	00e5f733          	and	a4,a1,a4
20000c88:	808088b7          	lui	a7,0x80808
20000c8c:	00e7e7b3          	or	a5,a5,a4
20000c90:	08088893          	addi	a7,a7,128 # 80808080 <__global_pointer$+0x607fc860>
20000c94:	0117f7b3          	and	a5,a5,a7
20000c98:	02079a63          	bnez	a5,20000ccc <strchr+0xa8>
20000c9c:	00452703          	lw	a4,4(a0)
20000ca0:	00450513          	addi	a0,a0,4
20000ca4:	00674633          	xor	a2,a4,t1
20000ca8:	010707b3          	add	a5,a4,a6
20000cac:	010605b3          	add	a1,a2,a6
20000cb0:	fff74713          	not	a4,a4
20000cb4:	fff64613          	not	a2,a2
20000cb8:	00e7f7b3          	and	a5,a5,a4
20000cbc:	00c5f633          	and	a2,a1,a2
20000cc0:	00c7e7b3          	or	a5,a5,a2
20000cc4:	0117f7b3          	and	a5,a5,a7
20000cc8:	fc078ae3          	beqz	a5,20000c9c <strchr+0x78>
20000ccc:	00054783          	lbu	a5,0(a0)
20000cd0:	00078a63          	beqz	a5,20000ce4 <strchr+0xc0>
20000cd4:	08f68663          	beq	a3,a5,20000d60 <strchr+0x13c>
20000cd8:	00154783          	lbu	a5,1(a0)
20000cdc:	00150513          	addi	a0,a0,1
20000ce0:	fe079ae3          	bnez	a5,20000cd4 <strchr+0xb0>
20000ce4:	00000513          	li	a0,0
20000ce8:	00008067          	ret
20000cec:	00078c63          	beqz	a5,20000d04 <strchr+0xe0>
20000cf0:	00054783          	lbu	a5,0(a0)
20000cf4:	fe078ae3          	beqz	a5,20000ce8 <strchr+0xc4>
20000cf8:	00150513          	addi	a0,a0,1
20000cfc:	00357793          	andi	a5,a0,3
20000d00:	fe0798e3          	bnez	a5,20000cf0 <strchr+0xcc>
20000d04:	00052703          	lw	a4,0(a0)
20000d08:	feff0637          	lui	a2,0xfeff0
20000d0c:	eff60613          	addi	a2,a2,-257 # fefefeff <__global_pointer$+0xdefe46df>
20000d10:	00c707b3          	add	a5,a4,a2
20000d14:	808086b7          	lui	a3,0x80808
20000d18:	fff74713          	not	a4,a4
20000d1c:	00e7f7b3          	and	a5,a5,a4
20000d20:	08068693          	addi	a3,a3,128 # 80808080 <__global_pointer$+0x607fc860>
20000d24:	00d7f7b3          	and	a5,a5,a3
20000d28:	02079063          	bnez	a5,20000d48 <strchr+0x124>
20000d2c:	00452703          	lw	a4,4(a0)
20000d30:	00450513          	addi	a0,a0,4
20000d34:	00c707b3          	add	a5,a4,a2
20000d38:	fff74713          	not	a4,a4
20000d3c:	00e7f7b3          	and	a5,a5,a4
20000d40:	00d7f7b3          	and	a5,a5,a3
20000d44:	fe0784e3          	beqz	a5,20000d2c <strchr+0x108>
20000d48:	00054783          	lbu	a5,0(a0)
20000d4c:	f8078ee3          	beqz	a5,20000ce8 <strchr+0xc4>
20000d50:	00154783          	lbu	a5,1(a0)
20000d54:	00150513          	addi	a0,a0,1
20000d58:	fe079ce3          	bnez	a5,20000d50 <strchr+0x12c>
20000d5c:	00008067          	ret
20000d60:	00008067          	ret

20000d64 <strlen>:
20000d64:	00357793          	andi	a5,a0,3
20000d68:	00050713          	mv	a4,a0
20000d6c:	04079c63          	bnez	a5,20000dc4 <strlen+0x60>
20000d70:	7f7f86b7          	lui	a3,0x7f7f8
20000d74:	f7f68693          	addi	a3,a3,-129 # 7f7f7f7f <__global_pointer$+0x5f7ec75f>
20000d78:	fff00593          	li	a1,-1
20000d7c:	00072603          	lw	a2,0(a4)
20000d80:	00470713          	addi	a4,a4,4
20000d84:	00d677b3          	and	a5,a2,a3
20000d88:	00d787b3          	add	a5,a5,a3
20000d8c:	00c7e7b3          	or	a5,a5,a2
20000d90:	00d7e7b3          	or	a5,a5,a3
20000d94:	feb784e3          	beq	a5,a1,20000d7c <strlen+0x18>
20000d98:	ffc74683          	lbu	a3,-4(a4)
20000d9c:	ffd74603          	lbu	a2,-3(a4)
20000da0:	ffe74783          	lbu	a5,-2(a4)
20000da4:	40a70733          	sub	a4,a4,a0
20000da8:	04068063          	beqz	a3,20000de8 <strlen+0x84>
20000dac:	02060a63          	beqz	a2,20000de0 <strlen+0x7c>
20000db0:	00f03533          	snez	a0,a5
20000db4:	00e50533          	add	a0,a0,a4
20000db8:	ffe50513          	addi	a0,a0,-2
20000dbc:	00008067          	ret
20000dc0:	fa0688e3          	beqz	a3,20000d70 <strlen+0xc>
20000dc4:	00074783          	lbu	a5,0(a4)
20000dc8:	00170713          	addi	a4,a4,1
20000dcc:	00377693          	andi	a3,a4,3
20000dd0:	fe0798e3          	bnez	a5,20000dc0 <strlen+0x5c>
20000dd4:	40a70733          	sub	a4,a4,a0
20000dd8:	fff70513          	addi	a0,a4,-1
20000ddc:	00008067          	ret
20000de0:	ffd70513          	addi	a0,a4,-3
20000de4:	00008067          	ret
20000de8:	ffc70513          	addi	a0,a4,-4
20000dec:	00008067          	ret

20000df0 <two_way_long_needle>:
20000df0:	bb010113          	addi	sp,sp,-1104
20000df4:	44812423          	sw	s0,1096(sp)
20000df8:	44912223          	sw	s1,1092(sp)
20000dfc:	43312e23          	sw	s3,1084(sp)
20000e00:	43812423          	sw	s8,1064(sp)
20000e04:	44112623          	sw	ra,1100(sp)
20000e08:	45212023          	sw	s2,1088(sp)
20000e0c:	43412c23          	sw	s4,1080(sp)
20000e10:	43512a23          	sw	s5,1076(sp)
20000e14:	43612823          	sw	s6,1072(sp)
20000e18:	43712623          	sw	s7,1068(sp)
20000e1c:	43912223          	sw	s9,1060(sp)
20000e20:	43a12023          	sw	s10,1056(sp)
20000e24:	41b12e23          	sw	s11,1052(sp)
20000e28:	00100793          	li	a5,1
20000e2c:	00068993          	mv	s3,a3
20000e30:	00050413          	mv	s0,a0
20000e34:	00058c13          	mv	s8,a1
20000e38:	00060493          	mv	s1,a2
20000e3c:	3cd7f263          	bgeu	a5,a3,20001200 <two_way_long_needle+0x410>
20000e40:	00000613          	li	a2,0
20000e44:	00100d93          	li	s11,1
20000e48:	00100693          	li	a3,1
20000e4c:	fff00c93          	li	s9,-1
20000e50:	0180006f          	j	20000e68 <two_way_long_needle+0x78>
20000e54:	41978db3          	sub	s11,a5,s9
20000e58:	00078613          	mv	a2,a5
20000e5c:	00100693          	li	a3,1
20000e60:	00d607b3          	add	a5,a2,a3
20000e64:	0337fc63          	bgeu	a5,s3,20000e9c <two_way_long_needle+0xac>
20000e68:	01948733          	add	a4,s1,s9
20000e6c:	00d70733          	add	a4,a4,a3
20000e70:	00f485b3          	add	a1,s1,a5
20000e74:	0005c583          	lbu	a1,0(a1)
20000e78:	00074703          	lbu	a4,0(a4)
20000e7c:	fce5ece3          	bltu	a1,a4,20000e54 <two_way_long_needle+0x64>
20000e80:	1ae58463          	beq	a1,a4,20001028 <two_way_long_needle+0x238>
20000e84:	00060c93          	mv	s9,a2
20000e88:	00100693          	li	a3,1
20000e8c:	00160613          	addi	a2,a2,1
20000e90:	00d607b3          	add	a5,a2,a3
20000e94:	00100d93          	li	s11,1
20000e98:	fd37e8e3          	bltu	a5,s3,20000e68 <two_way_long_needle+0x78>
20000e9c:	00000593          	li	a1,0
20000ea0:	00100813          	li	a6,1
20000ea4:	00100613          	li	a2,1
20000ea8:	fff00513          	li	a0,-1
20000eac:	00100713          	li	a4,1
20000eb0:	0180006f          	j	20000ec8 <two_way_long_needle+0xd8>
20000eb4:	40a70833          	sub	a6,a4,a0
20000eb8:	00070593          	mv	a1,a4
20000ebc:	00100613          	li	a2,1
20000ec0:	00c58733          	add	a4,a1,a2
20000ec4:	03377c63          	bgeu	a4,s3,20000efc <two_way_long_needle+0x10c>
20000ec8:	00c487b3          	add	a5,s1,a2
20000ecc:	00e486b3          	add	a3,s1,a4
20000ed0:	00a787b3          	add	a5,a5,a0
20000ed4:	0006c683          	lbu	a3,0(a3)
20000ed8:	0007c783          	lbu	a5,0(a5)
20000edc:	fcd7ece3          	bltu	a5,a3,20000eb4 <two_way_long_needle+0xc4>
20000ee0:	14f68a63          	beq	a3,a5,20001034 <two_way_long_needle+0x244>
20000ee4:	00058513          	mv	a0,a1
20000ee8:	00100613          	li	a2,1
20000eec:	00158593          	addi	a1,a1,1
20000ef0:	00c58733          	add	a4,a1,a2
20000ef4:	00100813          	li	a6,1
20000ef8:	fd3768e3          	bltu	a4,s3,20000ec8 <two_way_long_needle+0xd8>
20000efc:	00150513          	addi	a0,a0,1
20000f00:	001c8c93          	addi	s9,s9,1
20000f04:	01956663          	bltu	a0,s9,20000f10 <two_way_long_needle+0x120>
20000f08:	00080d93          	mv	s11,a6
20000f0c:	00050c93          	mv	s9,a0
20000f10:	01010793          	addi	a5,sp,16
20000f14:	41010713          	addi	a4,sp,1040
20000f18:	0137a023          	sw	s3,0(a5)
20000f1c:	00478793          	addi	a5,a5,4
20000f20:	fef71ce3          	bne	a4,a5,20000f18 <two_way_long_needle+0x128>
20000f24:	fff98913          	addi	s2,s3,-1
20000f28:	009985b3          	add	a1,s3,s1
20000f2c:	00048713          	mv	a4,s1
20000f30:	01248633          	add	a2,s1,s2
20000f34:	02098263          	beqz	s3,20000f58 <two_way_long_needle+0x168>
20000f38:	00074783          	lbu	a5,0(a4)
20000f3c:	41010513          	addi	a0,sp,1040
20000f40:	40e606b3          	sub	a3,a2,a4
20000f44:	00279793          	slli	a5,a5,0x2
20000f48:	00f507b3          	add	a5,a0,a5
20000f4c:	00170713          	addi	a4,a4,1
20000f50:	c0d7a023          	sw	a3,-1024(a5)
20000f54:	fee592e3          	bne	a1,a4,20000f38 <two_way_long_needle+0x148>
20000f58:	000c8613          	mv	a2,s9
20000f5c:	01b485b3          	add	a1,s1,s11
20000f60:	00048513          	mv	a0,s1
20000f64:	9e1ff0ef          	jal	ra,20000944 <memcmp>
20000f68:	16051c63          	bnez	a0,200010e0 <two_way_long_needle+0x2f0>
20000f6c:	00001bb7          	lui	s7,0x1
20000f70:	00100a13          	li	s4,1
20000f74:	fffc8793          	addi	a5,s9,-1
20000f78:	800b8b93          	addi	s7,s7,-2048 # 800 <_STACK_SIZE+0x610>
20000f7c:	00000b13          	li	s6,0
20000f80:	00000d13          	li	s10,0
20000f84:	419a0a33          	sub	s4,s4,s9
20000f88:	00f12623          	sw	a5,12(sp)
20000f8c:	41b98ab3          	sub	s5,s3,s11
20000f90:	0179ebb3          	or	s7,s3,s7
20000f94:	01a405b3          	add	a1,s0,s10
20000f98:	012587b3          	add	a5,a1,s2
20000f9c:	0007c783          	lbu	a5,0(a5)
20000fa0:	41010713          	addi	a4,sp,1040
20000fa4:	00279793          	slli	a5,a5,0x2
20000fa8:	00f707b3          	add	a5,a4,a5
20000fac:	c007a783          	lw	a5,-1024(a5)
20000fb0:	08078863          	beqz	a5,20001040 <two_way_long_needle+0x250>
20000fb4:	000b0663          	beqz	s6,20000fc0 <two_way_long_needle+0x1d0>
20000fb8:	01b7f463          	bgeu	a5,s11,20000fc0 <two_way_long_needle+0x1d0>
20000fbc:	000a8793          	mv	a5,s5
20000fc0:	00fd0d33          	add	s10,s10,a5
20000fc4:	00000b13          	li	s6,0
20000fc8:	413c07b3          	sub	a5,s8,s3
20000fcc:	fda7f4e3          	bgeu	a5,s10,20000f94 <two_way_long_needle+0x1a4>
20000fd0:	01840533          	add	a0,s0,s8
20000fd4:	000b8593          	mv	a1,s7
20000fd8:	1bd000ef          	jal	ra,20001994 <strnlen>
20000fdc:	00ac0c33          	add	s8,s8,a0
20000fe0:	413c07b3          	sub	a5,s8,s3
20000fe4:	fba7f8e3          	bgeu	a5,s10,20000f94 <two_way_long_needle+0x1a4>
20000fe8:	00000513          	li	a0,0
20000fec:	44c12083          	lw	ra,1100(sp)
20000ff0:	44812403          	lw	s0,1096(sp)
20000ff4:	44412483          	lw	s1,1092(sp)
20000ff8:	44012903          	lw	s2,1088(sp)
20000ffc:	43c12983          	lw	s3,1084(sp)
20001000:	43812a03          	lw	s4,1080(sp)
20001004:	43412a83          	lw	s5,1076(sp)
20001008:	43012b03          	lw	s6,1072(sp)
2000100c:	42c12b83          	lw	s7,1068(sp)
20001010:	42812c03          	lw	s8,1064(sp)
20001014:	42412c83          	lw	s9,1060(sp)
20001018:	42012d03          	lw	s10,1056(sp)
2000101c:	41c12d83          	lw	s11,1052(sp)
20001020:	45010113          	addi	sp,sp,1104
20001024:	00008067          	ret
20001028:	1cdd8263          	beq	s11,a3,200011ec <two_way_long_needle+0x3fc>
2000102c:	00168693          	addi	a3,a3,1
20001030:	e31ff06f          	j	20000e60 <two_way_long_needle+0x70>
20001034:	1b060663          	beq	a2,a6,200011e0 <two_way_long_needle+0x3f0>
20001038:	00160613          	addi	a2,a2,1
2000103c:	e85ff06f          	j	20000ec0 <two_way_long_needle+0xd0>
20001040:	000c8713          	mv	a4,s9
20001044:	016cf463          	bgeu	s9,s6,2000104c <two_way_long_needle+0x25c>
20001048:	000b0713          	mv	a4,s6
2000104c:	03277263          	bgeu	a4,s2,20001070 <two_way_long_needle+0x280>
20001050:	01a707b3          	add	a5,a4,s10
20001054:	00e48833          	add	a6,s1,a4
20001058:	00f407b3          	add	a5,s0,a5
2000105c:	00084683          	lbu	a3,0(a6)
20001060:	0007c783          	lbu	a5,0(a5)
20001064:	04f69c63          	bne	a3,a5,200010bc <two_way_long_needle+0x2cc>
20001068:	00170713          	addi	a4,a4,1
2000106c:	ff2762e3          	bltu	a4,s2,20001050 <two_way_long_needle+0x260>
20001070:	00c12703          	lw	a4,12(sp)
20001074:	000c8813          	mv	a6,s9
20001078:	019b6863          	bltu	s6,s9,20001088 <two_way_long_needle+0x298>
2000107c:	02c0006f          	j	200010a8 <two_way_long_needle+0x2b8>
20001080:	05670663          	beq	a4,s6,200010cc <two_way_long_needle+0x2dc>
20001084:	00050713          	mv	a4,a0
20001088:	01a707b3          	add	a5,a4,s10
2000108c:	00e486b3          	add	a3,s1,a4
20001090:	00f407b3          	add	a5,s0,a5
20001094:	0006c683          	lbu	a3,0(a3)
20001098:	0007c783          	lbu	a5,0(a5)
2000109c:	00170813          	addi	a6,a4,1
200010a0:	fff70513          	addi	a0,a4,-1
200010a4:	fcf68ee3          	beq	a3,a5,20001080 <two_way_long_needle+0x290>
200010a8:	001b0613          	addi	a2,s6,1
200010ac:	02c86663          	bltu	a6,a2,200010d8 <two_way_long_needle+0x2e8>
200010b0:	01bd0d33          	add	s10,s10,s11
200010b4:	000a8b13          	mv	s6,s5
200010b8:	f11ff06f          	j	20000fc8 <two_way_long_needle+0x1d8>
200010bc:	01aa0d33          	add	s10,s4,s10
200010c0:	00ed0d33          	add	s10,s10,a4
200010c4:	00000b13          	li	s6,0
200010c8:	f01ff06f          	j	20000fc8 <two_way_long_needle+0x1d8>
200010cc:	000b0813          	mv	a6,s6
200010d0:	001b0613          	addi	a2,s6,1
200010d4:	fcc87ee3          	bgeu	a6,a2,200010b0 <two_way_long_needle+0x2c0>
200010d8:	00058513          	mv	a0,a1
200010dc:	f11ff06f          	j	20000fec <two_way_long_needle+0x1fc>
200010e0:	41998ab3          	sub	s5,s3,s9
200010e4:	0f9aea63          	bltu	s5,s9,200011d8 <two_way_long_needle+0x3e8>
200010e8:	00001b37          	lui	s6,0x1
200010ec:	00100a13          	li	s4,1
200010f0:	800b0b13          	addi	s6,s6,-2048 # 800 <_STACK_SIZE+0x610>
200010f4:	001a8a93          	addi	s5,s5,1
200010f8:	00000b93          	li	s7,0
200010fc:	419a0a33          	sub	s4,s4,s9
20001100:	fff00d13          	li	s10,-1
20001104:	0169eb33          	or	s6,s3,s6
20001108:	01740633          	add	a2,s0,s7
2000110c:	012607b3          	add	a5,a2,s2
20001110:	0007c783          	lbu	a5,0(a5)
20001114:	41010713          	addi	a4,sp,1040
20001118:	00279793          	slli	a5,a5,0x2
2000111c:	00f707b3          	add	a5,a4,a5
20001120:	c007a783          	lw	a5,-1024(a5)
20001124:	04078463          	beqz	a5,2000116c <two_way_long_needle+0x37c>
20001128:	00fb8bb3          	add	s7,s7,a5
2000112c:	413c07b3          	sub	a5,s8,s3
20001130:	fd77fce3          	bgeu	a5,s7,20001108 <two_way_long_needle+0x318>
20001134:	01840533          	add	a0,s0,s8
20001138:	000b0593          	mv	a1,s6
2000113c:	059000ef          	jal	ra,20001994 <strnlen>
20001140:	00ac0c33          	add	s8,s8,a0
20001144:	413c07b3          	sub	a5,s8,s3
20001148:	eb77e0e3          	bltu	a5,s7,20000fe8 <two_way_long_needle+0x1f8>
2000114c:	01740633          	add	a2,s0,s7
20001150:	012607b3          	add	a5,a2,s2
20001154:	0007c783          	lbu	a5,0(a5)
20001158:	41010713          	addi	a4,sp,1040
2000115c:	00279793          	slli	a5,a5,0x2
20001160:	00f707b3          	add	a5,a4,a5
20001164:	c007a783          	lw	a5,-1024(a5)
20001168:	fc0790e3          	bnez	a5,20001128 <two_way_long_needle+0x338>
2000116c:	000c8713          	mv	a4,s9
20001170:	012ce863          	bltu	s9,s2,20001180 <two_way_long_needle+0x390>
20001174:	0300006f          	j	200011a4 <two_way_long_needle+0x3b4>
20001178:	00170713          	addi	a4,a4,1
2000117c:	03277463          	bgeu	a4,s2,200011a4 <two_way_long_needle+0x3b4>
20001180:	017707b3          	add	a5,a4,s7
20001184:	00e48833          	add	a6,s1,a4
20001188:	00f407b3          	add	a5,s0,a5
2000118c:	00084683          	lbu	a3,0(a6)
20001190:	0007c783          	lbu	a5,0(a5)
20001194:	fef682e3          	beq	a3,a5,20001178 <two_way_long_needle+0x388>
20001198:	017a0bb3          	add	s7,s4,s7
2000119c:	01770bb3          	add	s7,a4,s7
200011a0:	f8dff06f          	j	2000112c <two_way_long_needle+0x33c>
200011a4:	fffc8793          	addi	a5,s9,-1
200011a8:	01a79663          	bne	a5,s10,200011b4 <two_way_long_needle+0x3c4>
200011ac:	04c0006f          	j	200011f8 <two_way_long_needle+0x408>
200011b0:	05a78463          	beq	a5,s10,200011f8 <two_way_long_needle+0x408>
200011b4:	01778733          	add	a4,a5,s7
200011b8:	00f486b3          	add	a3,s1,a5
200011bc:	00e40733          	add	a4,s0,a4
200011c0:	0006c683          	lbu	a3,0(a3)
200011c4:	00074703          	lbu	a4,0(a4)
200011c8:	fff78793          	addi	a5,a5,-1
200011cc:	fee682e3          	beq	a3,a4,200011b0 <two_way_long_needle+0x3c0>
200011d0:	015b8bb3          	add	s7,s7,s5
200011d4:	f59ff06f          	j	2000112c <two_way_long_needle+0x33c>
200011d8:	000c8a93          	mv	s5,s9
200011dc:	f0dff06f          	j	200010e8 <two_way_long_needle+0x2f8>
200011e0:	00c585b3          	add	a1,a1,a2
200011e4:	00100613          	li	a2,1
200011e8:	cd9ff06f          	j	20000ec0 <two_way_long_needle+0xd0>
200011ec:	01b60633          	add	a2,a2,s11
200011f0:	00100693          	li	a3,1
200011f4:	c6dff06f          	j	20000e60 <two_way_long_needle+0x70>
200011f8:	00060513          	mv	a0,a2
200011fc:	df1ff06f          	j	20000fec <two_way_long_needle+0x1fc>
20001200:	00100d93          	li	s11,1
20001204:	00000c93          	li	s9,0
20001208:	d09ff06f          	j	20000f10 <two_way_long_needle+0x120>

2000120c <strstr>:
2000120c:	fa010113          	addi	sp,sp,-96
20001210:	04812c23          	sw	s0,88(sp)
20001214:	04912a23          	sw	s1,84(sp)
20001218:	04112e23          	sw	ra,92(sp)
2000121c:	05212823          	sw	s2,80(sp)
20001220:	05312623          	sw	s3,76(sp)
20001224:	05412423          	sw	s4,72(sp)
20001228:	05512223          	sw	s5,68(sp)
2000122c:	00058493          	mv	s1,a1
20001230:	0005c583          	lbu	a1,0(a1)
20001234:	00050413          	mv	s0,a0
20001238:	0e058c63          	beqz	a1,20001330 <strstr+0x124>
2000123c:	0014c683          	lbu	a3,1(s1)
20001240:	1c068263          	beqz	a3,20001404 <strstr+0x1f8>
20001244:	0024c703          	lbu	a4,2(s1)
20001248:	10070863          	beqz	a4,20001358 <strstr+0x14c>
2000124c:	0034c603          	lbu	a2,3(s1)
20001250:	1e060063          	beqz	a2,20001430 <strstr+0x224>
20001254:	0044c783          	lbu	a5,4(s1)
20001258:	12078c63          	beqz	a5,20001390 <strstr+0x184>
2000125c:	00048513          	mv	a0,s1
20001260:	b05ff0ef          	jal	ra,20000d64 <strlen>
20001264:	00050913          	mv	s2,a0
20001268:	20056593          	ori	a1,a0,512
2000126c:	00040513          	mv	a0,s0
20001270:	724000ef          	jal	ra,20001994 <strnlen>
20001274:	17256263          	bltu	a0,s2,200013d8 <strstr+0x1cc>
20001278:	0fe00793          	li	a5,254
2000127c:	1f27ec63          	bltu	a5,s2,20001474 <strstr+0x268>
20001280:	412509b3          	sub	s3,a0,s2
20001284:	04000613          	li	a2,64
20001288:	00190593          	addi	a1,s2,1
2000128c:	00010513          	mv	a0,sp
20001290:	013409b3          	add	s3,s0,s3
20001294:	851ff0ef          	jal	ra,20000ae4 <memset>
20001298:	02090a63          	beqz	s2,200012cc <strstr+0xc0>
2000129c:	0ff97613          	andi	a2,s2,255
200012a0:	00048713          	mv	a4,s1
200012a4:	009905b3          	add	a1,s2,s1
200012a8:	00c48633          	add	a2,s1,a2
200012ac:	00074783          	lbu	a5,0(a4)
200012b0:	04010513          	addi	a0,sp,64
200012b4:	40e606b3          	sub	a3,a2,a4
200012b8:	03f7f793          	andi	a5,a5,63
200012bc:	00f507b3          	add	a5,a0,a5
200012c0:	00170713          	addi	a4,a4,1
200012c4:	fcd78023          	sb	a3,-64(a5)
200012c8:	fee592e3          	bne	a1,a4,200012ac <strstr+0xa0>
200012cc:	00001ab7          	lui	s5,0x1
200012d0:	800a8a93          	addi	s5,s5,-2048 # 800 <_STACK_SIZE+0x610>
200012d4:	fff40413          	addi	s0,s0,-1
200012d8:	012407b3          	add	a5,s0,s2
200012dc:	0007c783          	lbu	a5,0(a5)
200012e0:	04010713          	addi	a4,sp,64
200012e4:	03f7f793          	andi	a5,a5,63
200012e8:	00f707b3          	add	a5,a4,a5
200012ec:	fc07c503          	lbu	a0,-64(a5)
200012f0:	00a40433          	add	s0,s0,a0
200012f4:	0089f863          	bgeu	s3,s0,20001304 <strstr+0xf8>
200012f8:	0e80006f          	j	200013e0 <strstr+0x1d4>
200012fc:	01440433          	add	s0,s0,s4
20001300:	0e89e063          	bltu	s3,s0,200013e0 <strstr+0x1d4>
20001304:	012407b3          	add	a5,s0,s2
20001308:	0007c783          	lbu	a5,0(a5)
2000130c:	04010713          	addi	a4,sp,64
20001310:	00040513          	mv	a0,s0
20001314:	03f7f793          	andi	a5,a5,63
20001318:	00f707b3          	add	a5,a4,a5
2000131c:	00090613          	mv	a2,s2
20001320:	00048593          	mv	a1,s1
20001324:	fc07ca03          	lbu	s4,-64(a5)
20001328:	e1cff0ef          	jal	ra,20000944 <memcmp>
2000132c:	fc0518e3          	bnez	a0,200012fc <strstr+0xf0>
20001330:	05c12083          	lw	ra,92(sp)
20001334:	00040513          	mv	a0,s0
20001338:	05812403          	lw	s0,88(sp)
2000133c:	05412483          	lw	s1,84(sp)
20001340:	05012903          	lw	s2,80(sp)
20001344:	04c12983          	lw	s3,76(sp)
20001348:	04812a03          	lw	s4,72(sp)
2000134c:	04412a83          	lw	s5,68(sp)
20001350:	06010113          	addi	sp,sp,96
20001354:	00008067          	ret
20001358:	01059593          	slli	a1,a1,0x10
2000135c:	00054703          	lbu	a4,0(a0)
20001360:	00d5e5b3          	or	a1,a1,a3
20001364:	00000793          	li	a5,0
20001368:	0080006f          	j	20001370 <strstr+0x164>
2000136c:	00068413          	mv	s0,a3
20001370:	01079793          	slli	a5,a5,0x10
20001374:	00f767b3          	or	a5,a4,a5
20001378:	06070063          	beqz	a4,200013d8 <strstr+0x1cc>
2000137c:	00144703          	lbu	a4,1(s0)
20001380:	00140693          	addi	a3,s0,1
20001384:	fef594e3          	bne	a1,a5,2000136c <strstr+0x160>
20001388:	fff40413          	addi	s0,s0,-1
2000138c:	fa5ff06f          	j	20001330 <strstr+0x124>
20001390:	01069793          	slli	a5,a3,0x10
20001394:	01859593          	slli	a1,a1,0x18
20001398:	00054683          	lbu	a3,0(a0)
2000139c:	00f5e7b3          	or	a5,a1,a5
200013a0:	00c7e7b3          	or	a5,a5,a2
200013a4:	00871713          	slli	a4,a4,0x8
200013a8:	00e7e7b3          	or	a5,a5,a4
200013ac:	02068663          	beqz	a3,200013d8 <strstr+0x1cc>
200013b0:	00000713          	li	a4,0
200013b4:	0080006f          	j	200013bc <strstr+0x1b0>
200013b8:	06e78863          	beq	a5,a4,20001428 <strstr+0x21c>
200013bc:	00040613          	mv	a2,s0
200013c0:	00871713          	slli	a4,a4,0x8
200013c4:	00140413          	addi	s0,s0,1
200013c8:	00e6e733          	or	a4,a3,a4
200013cc:	00044683          	lbu	a3,0(s0)
200013d0:	fe0694e3          	bnez	a3,200013b8 <strstr+0x1ac>
200013d4:	04e78a63          	beq	a5,a4,20001428 <strstr+0x21c>
200013d8:	00000413          	li	s0,0
200013dc:	f55ff06f          	j	20001330 <strstr+0x124>
200013e0:	01298533          	add	a0,s3,s2
200013e4:	00054783          	lbu	a5,0(a0)
200013e8:	fe0788e3          	beqz	a5,200013d8 <strstr+0x1cc>
200013ec:	000a8593          	mv	a1,s5
200013f0:	5a4000ef          	jal	ra,20001994 <strnlen>
200013f4:	00a989b3          	add	s3,s3,a0
200013f8:	ec89fee3          	bgeu	s3,s0,200012d4 <strstr+0xc8>
200013fc:	00000413          	li	s0,0
20001400:	f31ff06f          	j	20001330 <strstr+0x124>
20001404:	05812403          	lw	s0,88(sp)
20001408:	05c12083          	lw	ra,92(sp)
2000140c:	05412483          	lw	s1,84(sp)
20001410:	05012903          	lw	s2,80(sp)
20001414:	04c12983          	lw	s3,76(sp)
20001418:	04812a03          	lw	s4,72(sp)
2000141c:	04412a83          	lw	s5,68(sp)
20001420:	06010113          	addi	sp,sp,96
20001424:	801ff06f          	j	20000c24 <strchr>
20001428:	ffd60413          	addi	s0,a2,-3
2000142c:	f05ff06f          	j	20001330 <strstr+0x124>
20001430:	01069793          	slli	a5,a3,0x10
20001434:	01859593          	slli	a1,a1,0x18
20001438:	00871713          	slli	a4,a4,0x8
2000143c:	00f5e7b3          	or	a5,a1,a5
20001440:	00e7e7b3          	or	a5,a5,a4
20001444:	00054683          	lbu	a3,0(a0)
20001448:	00000713          	li	a4,0
2000144c:	0080006f          	j	20001454 <strstr+0x248>
20001450:	00060413          	mv	s0,a2
20001454:	00e6e733          	or	a4,a3,a4
20001458:	00871713          	slli	a4,a4,0x8
2000145c:	f6068ee3          	beqz	a3,200013d8 <strstr+0x1cc>
20001460:	00144683          	lbu	a3,1(s0)
20001464:	00140613          	addi	a2,s0,1
20001468:	fee794e3          	bne	a5,a4,20001450 <strstr+0x244>
2000146c:	ffe40413          	addi	s0,s0,-2
20001470:	ec1ff06f          	j	20001330 <strstr+0x124>
20001474:	00050593          	mv	a1,a0
20001478:	00040513          	mv	a0,s0
2000147c:	05812403          	lw	s0,88(sp)
20001480:	05c12083          	lw	ra,92(sp)
20001484:	04c12983          	lw	s3,76(sp)
20001488:	04812a03          	lw	s4,72(sp)
2000148c:	04412a83          	lw	s5,68(sp)
20001490:	00090693          	mv	a3,s2
20001494:	00048613          	mv	a2,s1
20001498:	05012903          	lw	s2,80(sp)
2000149c:	05412483          	lw	s1,84(sp)
200014a0:	06010113          	addi	sp,sp,96
200014a4:	94dff06f          	j	20000df0 <two_way_long_needle>

200014a8 <__register_exitproc>:
200014a8:	2000a7b7          	lui	a5,0x2000a
200014ac:	c347a703          	lw	a4,-972(a5) # 20009c34 <_global_impure_ptr>
200014b0:	14872783          	lw	a5,328(a4)
200014b4:	04078c63          	beqz	a5,2000150c <__register_exitproc+0x64>
200014b8:	0047a703          	lw	a4,4(a5)
200014bc:	01f00813          	li	a6,31
200014c0:	06e84e63          	blt	a6,a4,2000153c <__register_exitproc+0x94>
200014c4:	00271813          	slli	a6,a4,0x2
200014c8:	02050663          	beqz	a0,200014f4 <__register_exitproc+0x4c>
200014cc:	01078333          	add	t1,a5,a6
200014d0:	08c32423          	sw	a2,136(t1)
200014d4:	1887a883          	lw	a7,392(a5)
200014d8:	00100613          	li	a2,1
200014dc:	00e61633          	sll	a2,a2,a4
200014e0:	00c8e8b3          	or	a7,a7,a2
200014e4:	1917a423          	sw	a7,392(a5)
200014e8:	10d32423          	sw	a3,264(t1)
200014ec:	00200693          	li	a3,2
200014f0:	02d50463          	beq	a0,a3,20001518 <__register_exitproc+0x70>
200014f4:	00170713          	addi	a4,a4,1
200014f8:	00e7a223          	sw	a4,4(a5)
200014fc:	010787b3          	add	a5,a5,a6
20001500:	00b7a423          	sw	a1,8(a5)
20001504:	00000513          	li	a0,0
20001508:	00008067          	ret
2000150c:	14c70793          	addi	a5,a4,332
20001510:	14f72423          	sw	a5,328(a4)
20001514:	fa5ff06f          	j	200014b8 <__register_exitproc+0x10>
20001518:	18c7a683          	lw	a3,396(a5)
2000151c:	00170713          	addi	a4,a4,1
20001520:	00e7a223          	sw	a4,4(a5)
20001524:	00c6e633          	or	a2,a3,a2
20001528:	18c7a623          	sw	a2,396(a5)
2000152c:	010787b3          	add	a5,a5,a6
20001530:	00b7a423          	sw	a1,8(a5)
20001534:	00000513          	li	a0,0
20001538:	00008067          	ret
2000153c:	fff00513          	li	a0,-1
20001540:	00008067          	ret

20001544 <_malloc_trim_r>:
20001544:	fe010113          	addi	sp,sp,-32
20001548:	01312623          	sw	s3,12(sp)
2000154c:	2000b9b7          	lui	s3,0x2000b
20001550:	00812c23          	sw	s0,24(sp)
20001554:	00912a23          	sw	s1,20(sp)
20001558:	01212823          	sw	s2,16(sp)
2000155c:	01412423          	sw	s4,8(sp)
20001560:	00112e23          	sw	ra,28(sp)
20001564:	00058a13          	mv	s4,a1
20001568:	00050913          	mv	s2,a0
2000156c:	b2098993          	addi	s3,s3,-1248 # 2000ab20 <__malloc_av_>
20001570:	e50ff0ef          	jal	ra,20000bc0 <__malloc_lock>
20001574:	0089a703          	lw	a4,8(s3)
20001578:	000017b7          	lui	a5,0x1
2000157c:	fef78413          	addi	s0,a5,-17 # fef <_STACK_SIZE+0xdff>
20001580:	00472483          	lw	s1,4(a4)
20001584:	41440433          	sub	s0,s0,s4
20001588:	ffc4f493          	andi	s1,s1,-4
2000158c:	00940433          	add	s0,s0,s1
20001590:	00c45413          	srli	s0,s0,0xc
20001594:	fff40413          	addi	s0,s0,-1
20001598:	00c41413          	slli	s0,s0,0xc
2000159c:	00f44e63          	blt	s0,a5,200015b8 <_malloc_trim_r+0x74>
200015a0:	00000593          	li	a1,0
200015a4:	00090513          	mv	a0,s2
200015a8:	e20ff0ef          	jal	ra,20000bc8 <_sbrk_r>
200015ac:	0089a783          	lw	a5,8(s3)
200015b0:	009787b3          	add	a5,a5,s1
200015b4:	02f50863          	beq	a0,a5,200015e4 <_malloc_trim_r+0xa0>
200015b8:	00090513          	mv	a0,s2
200015bc:	e08ff0ef          	jal	ra,20000bc4 <__malloc_unlock>
200015c0:	01c12083          	lw	ra,28(sp)
200015c4:	01812403          	lw	s0,24(sp)
200015c8:	01412483          	lw	s1,20(sp)
200015cc:	01012903          	lw	s2,16(sp)
200015d0:	00c12983          	lw	s3,12(sp)
200015d4:	00812a03          	lw	s4,8(sp)
200015d8:	00000513          	li	a0,0
200015dc:	02010113          	addi	sp,sp,32
200015e0:	00008067          	ret
200015e4:	408005b3          	neg	a1,s0
200015e8:	00090513          	mv	a0,s2
200015ec:	ddcff0ef          	jal	ra,20000bc8 <_sbrk_r>
200015f0:	fff00793          	li	a5,-1
200015f4:	04f50a63          	beq	a0,a5,20001648 <_malloc_trim_r+0x104>
200015f8:	2000b7b7          	lui	a5,0x2000b
200015fc:	03078793          	addi	a5,a5,48 # 2000b030 <__malloc_current_mallinfo>
20001600:	0007a703          	lw	a4,0(a5)
20001604:	0089a683          	lw	a3,8(s3)
20001608:	408484b3          	sub	s1,s1,s0
2000160c:	0014e493          	ori	s1,s1,1
20001610:	40870433          	sub	s0,a4,s0
20001614:	00090513          	mv	a0,s2
20001618:	0096a223          	sw	s1,4(a3)
2000161c:	0087a023          	sw	s0,0(a5)
20001620:	da4ff0ef          	jal	ra,20000bc4 <__malloc_unlock>
20001624:	01c12083          	lw	ra,28(sp)
20001628:	01812403          	lw	s0,24(sp)
2000162c:	01412483          	lw	s1,20(sp)
20001630:	01012903          	lw	s2,16(sp)
20001634:	00c12983          	lw	s3,12(sp)
20001638:	00812a03          	lw	s4,8(sp)
2000163c:	00100513          	li	a0,1
20001640:	02010113          	addi	sp,sp,32
20001644:	00008067          	ret
20001648:	00000593          	li	a1,0
2000164c:	00090513          	mv	a0,s2
20001650:	d78ff0ef          	jal	ra,20000bc8 <_sbrk_r>
20001654:	0089a703          	lw	a4,8(s3)
20001658:	00f00693          	li	a3,15
2000165c:	40e507b3          	sub	a5,a0,a4
20001660:	f4f6dce3          	bge	a3,a5,200015b8 <_malloc_trim_r+0x74>
20001664:	2000b6b7          	lui	a3,0x2000b
20001668:	0186a683          	lw	a3,24(a3) # 2000b018 <__malloc_sbrk_base>
2000166c:	0017e793          	ori	a5,a5,1
20001670:	00f72223          	sw	a5,4(a4)
20001674:	40d50533          	sub	a0,a0,a3
20001678:	2000b6b7          	lui	a3,0x2000b
2000167c:	02a6a823          	sw	a0,48(a3) # 2000b030 <__malloc_current_mallinfo>
20001680:	f39ff06f          	j	200015b8 <_malloc_trim_r+0x74>

20001684 <_free_r>:
20001684:	12058a63          	beqz	a1,200017b8 <_free_r+0x134>
20001688:	ff010113          	addi	sp,sp,-16
2000168c:	00812423          	sw	s0,8(sp)
20001690:	00912223          	sw	s1,4(sp)
20001694:	00058413          	mv	s0,a1
20001698:	00050493          	mv	s1,a0
2000169c:	00112623          	sw	ra,12(sp)
200016a0:	d20ff0ef          	jal	ra,20000bc0 <__malloc_lock>
200016a4:	ffc42803          	lw	a6,-4(s0)
200016a8:	ff840713          	addi	a4,s0,-8
200016ac:	2000b5b7          	lui	a1,0x2000b
200016b0:	ffe87793          	andi	a5,a6,-2
200016b4:	00f70633          	add	a2,a4,a5
200016b8:	b2058593          	addi	a1,a1,-1248 # 2000ab20 <__malloc_av_>
200016bc:	00462683          	lw	a3,4(a2)
200016c0:	0085a503          	lw	a0,8(a1)
200016c4:	ffc6f693          	andi	a3,a3,-4
200016c8:	1ac50a63          	beq	a0,a2,2000187c <_free_r+0x1f8>
200016cc:	00d62223          	sw	a3,4(a2)
200016d0:	00187813          	andi	a6,a6,1
200016d4:	00d60533          	add	a0,a2,a3
200016d8:	0a081063          	bnez	a6,20001778 <_free_r+0xf4>
200016dc:	ff842303          	lw	t1,-8(s0)
200016e0:	00452803          	lw	a6,4(a0)
200016e4:	2000b537          	lui	a0,0x2000b
200016e8:	40670733          	sub	a4,a4,t1
200016ec:	00872883          	lw	a7,8(a4)
200016f0:	b2850513          	addi	a0,a0,-1240 # 2000ab28 <__malloc_av_+0x8>
200016f4:	006787b3          	add	a5,a5,t1
200016f8:	00187813          	andi	a6,a6,1
200016fc:	14a88063          	beq	a7,a0,2000183c <_free_r+0x1b8>
20001700:	00c72303          	lw	t1,12(a4)
20001704:	0068a623          	sw	t1,12(a7)
20001708:	01132423          	sw	a7,8(t1)
2000170c:	1e080263          	beqz	a6,200018f0 <_free_r+0x26c>
20001710:	0017e693          	ori	a3,a5,1
20001714:	00d72223          	sw	a3,4(a4)
20001718:	00f62023          	sw	a5,0(a2)
2000171c:	1ff00693          	li	a3,511
20001720:	0af6e863          	bltu	a3,a5,200017d0 <_free_r+0x14c>
20001724:	ff87f693          	andi	a3,a5,-8
20001728:	00868693          	addi	a3,a3,8
2000172c:	0045a503          	lw	a0,4(a1)
20001730:	00d586b3          	add	a3,a1,a3
20001734:	0006a603          	lw	a2,0(a3)
20001738:	0057d813          	srli	a6,a5,0x5
2000173c:	00100793          	li	a5,1
20001740:	010797b3          	sll	a5,a5,a6
20001744:	00a7e7b3          	or	a5,a5,a0
20001748:	ff868513          	addi	a0,a3,-8
2000174c:	00a72623          	sw	a0,12(a4)
20001750:	00c72423          	sw	a2,8(a4)
20001754:	00f5a223          	sw	a5,4(a1)
20001758:	00e6a023          	sw	a4,0(a3)
2000175c:	00e62623          	sw	a4,12(a2)
20001760:	00812403          	lw	s0,8(sp)
20001764:	00c12083          	lw	ra,12(sp)
20001768:	00048513          	mv	a0,s1
2000176c:	00412483          	lw	s1,4(sp)
20001770:	01010113          	addi	sp,sp,16
20001774:	c50ff06f          	j	20000bc4 <__malloc_unlock>
20001778:	00452503          	lw	a0,4(a0)
2000177c:	00157513          	andi	a0,a0,1
20001780:	02051e63          	bnez	a0,200017bc <_free_r+0x138>
20001784:	2000b537          	lui	a0,0x2000b
20001788:	00d787b3          	add	a5,a5,a3
2000178c:	b2850513          	addi	a0,a0,-1240 # 2000ab28 <__malloc_av_+0x8>
20001790:	00862683          	lw	a3,8(a2)
20001794:	0017e893          	ori	a7,a5,1
20001798:	00f70833          	add	a6,a4,a5
2000179c:	16a68663          	beq	a3,a0,20001908 <_free_r+0x284>
200017a0:	00c62603          	lw	a2,12(a2)
200017a4:	00c6a623          	sw	a2,12(a3)
200017a8:	00d62423          	sw	a3,8(a2)
200017ac:	01172223          	sw	a7,4(a4)
200017b0:	00f82023          	sw	a5,0(a6)
200017b4:	f69ff06f          	j	2000171c <_free_r+0x98>
200017b8:	00008067          	ret
200017bc:	0017e693          	ori	a3,a5,1
200017c0:	fed42e23          	sw	a3,-4(s0)
200017c4:	00f62023          	sw	a5,0(a2)
200017c8:	1ff00693          	li	a3,511
200017cc:	f4f6fce3          	bgeu	a3,a5,20001724 <_free_r+0xa0>
200017d0:	0097d693          	srli	a3,a5,0x9
200017d4:	00400613          	li	a2,4
200017d8:	0ed66a63          	bltu	a2,a3,200018cc <_free_r+0x248>
200017dc:	0067d693          	srli	a3,a5,0x6
200017e0:	03968813          	addi	a6,a3,57
200017e4:	03868613          	addi	a2,a3,56
200017e8:	00381813          	slli	a6,a6,0x3
200017ec:	01058833          	add	a6,a1,a6
200017f0:	00082683          	lw	a3,0(a6)
200017f4:	ff880813          	addi	a6,a6,-8
200017f8:	12d80663          	beq	a6,a3,20001924 <_free_r+0x2a0>
200017fc:	0046a603          	lw	a2,4(a3)
20001800:	ffc67613          	andi	a2,a2,-4
20001804:	00c7f663          	bgeu	a5,a2,20001810 <_free_r+0x18c>
20001808:	0086a683          	lw	a3,8(a3)
2000180c:	fed818e3          	bne	a6,a3,200017fc <_free_r+0x178>
20001810:	00c6a803          	lw	a6,12(a3)
20001814:	01072623          	sw	a6,12(a4)
20001818:	00d72423          	sw	a3,8(a4)
2000181c:	00812403          	lw	s0,8(sp)
20001820:	00c12083          	lw	ra,12(sp)
20001824:	00e82423          	sw	a4,8(a6)
20001828:	00048513          	mv	a0,s1
2000182c:	00412483          	lw	s1,4(sp)
20001830:	00e6a623          	sw	a4,12(a3)
20001834:	01010113          	addi	sp,sp,16
20001838:	b8cff06f          	j	20000bc4 <__malloc_unlock>
2000183c:	14081463          	bnez	a6,20001984 <_free_r+0x300>
20001840:	00c62583          	lw	a1,12(a2)
20001844:	00862603          	lw	a2,8(a2)
20001848:	00f687b3          	add	a5,a3,a5
2000184c:	00812403          	lw	s0,8(sp)
20001850:	00b62623          	sw	a1,12(a2)
20001854:	00c5a423          	sw	a2,8(a1)
20001858:	0017e693          	ori	a3,a5,1
2000185c:	00c12083          	lw	ra,12(sp)
20001860:	00d72223          	sw	a3,4(a4)
20001864:	00048513          	mv	a0,s1
20001868:	00f70733          	add	a4,a4,a5
2000186c:	00412483          	lw	s1,4(sp)
20001870:	00f72023          	sw	a5,0(a4)
20001874:	01010113          	addi	sp,sp,16
20001878:	b4cff06f          	j	20000bc4 <__malloc_unlock>
2000187c:	00187813          	andi	a6,a6,1
20001880:	00d787b3          	add	a5,a5,a3
20001884:	02081063          	bnez	a6,200018a4 <_free_r+0x220>
20001888:	ff842503          	lw	a0,-8(s0)
2000188c:	40a70733          	sub	a4,a4,a0
20001890:	00c72683          	lw	a3,12(a4)
20001894:	00872603          	lw	a2,8(a4)
20001898:	00a787b3          	add	a5,a5,a0
2000189c:	00d62623          	sw	a3,12(a2)
200018a0:	00c6a423          	sw	a2,8(a3)
200018a4:	2000b6b7          	lui	a3,0x2000b
200018a8:	0017e613          	ori	a2,a5,1
200018ac:	01c6a683          	lw	a3,28(a3) # 2000b01c <__malloc_trim_threshold>
200018b0:	00c72223          	sw	a2,4(a4)
200018b4:	00e5a423          	sw	a4,8(a1)
200018b8:	ead7e4e3          	bltu	a5,a3,20001760 <_free_r+0xdc>
200018bc:	8081a583          	lw	a1,-2040(gp) # 2000b028 <__malloc_top_pad>
200018c0:	00048513          	mv	a0,s1
200018c4:	c81ff0ef          	jal	ra,20001544 <_malloc_trim_r>
200018c8:	e99ff06f          	j	20001760 <_free_r+0xdc>
200018cc:	01400613          	li	a2,20
200018d0:	02d67463          	bgeu	a2,a3,200018f8 <_free_r+0x274>
200018d4:	05400613          	li	a2,84
200018d8:	06d66463          	bltu	a2,a3,20001940 <_free_r+0x2bc>
200018dc:	00c7d693          	srli	a3,a5,0xc
200018e0:	06f68813          	addi	a6,a3,111
200018e4:	06e68613          	addi	a2,a3,110
200018e8:	00381813          	slli	a6,a6,0x3
200018ec:	f01ff06f          	j	200017ec <_free_r+0x168>
200018f0:	00d787b3          	add	a5,a5,a3
200018f4:	e9dff06f          	j	20001790 <_free_r+0x10c>
200018f8:	05c68813          	addi	a6,a3,92
200018fc:	05b68613          	addi	a2,a3,91
20001900:	00381813          	slli	a6,a6,0x3
20001904:	ee9ff06f          	j	200017ec <_free_r+0x168>
20001908:	00e5aa23          	sw	a4,20(a1)
2000190c:	00e5a823          	sw	a4,16(a1)
20001910:	00a72623          	sw	a0,12(a4)
20001914:	00a72423          	sw	a0,8(a4)
20001918:	01172223          	sw	a7,4(a4)
2000191c:	00f82023          	sw	a5,0(a6)
20001920:	e41ff06f          	j	20001760 <_free_r+0xdc>
20001924:	0045a503          	lw	a0,4(a1)
20001928:	40265613          	srai	a2,a2,0x2
2000192c:	00100793          	li	a5,1
20001930:	00c79633          	sll	a2,a5,a2
20001934:	00a66633          	or	a2,a2,a0
20001938:	00c5a223          	sw	a2,4(a1)
2000193c:	ed9ff06f          	j	20001814 <_free_r+0x190>
20001940:	15400613          	li	a2,340
20001944:	00d66c63          	bltu	a2,a3,2000195c <_free_r+0x2d8>
20001948:	00f7d693          	srli	a3,a5,0xf
2000194c:	07868813          	addi	a6,a3,120
20001950:	07768613          	addi	a2,a3,119
20001954:	00381813          	slli	a6,a6,0x3
20001958:	e95ff06f          	j	200017ec <_free_r+0x168>
2000195c:	55400613          	li	a2,1364
20001960:	00d66c63          	bltu	a2,a3,20001978 <_free_r+0x2f4>
20001964:	0127d693          	srli	a3,a5,0x12
20001968:	07d68813          	addi	a6,a3,125
2000196c:	07c68613          	addi	a2,a3,124
20001970:	00381813          	slli	a6,a6,0x3
20001974:	e79ff06f          	j	200017ec <_free_r+0x168>
20001978:	3f800813          	li	a6,1016
2000197c:	07e00613          	li	a2,126
20001980:	e6dff06f          	j	200017ec <_free_r+0x168>
20001984:	0017e693          	ori	a3,a5,1
20001988:	00d72223          	sw	a3,4(a4)
2000198c:	00f62023          	sw	a5,0(a2)
20001990:	dd1ff06f          	j	20001760 <_free_r+0xdc>

20001994 <strnlen>:
20001994:	00b506b3          	add	a3,a0,a1
20001998:	00050793          	mv	a5,a0
2000199c:	00059863          	bnez	a1,200019ac <strnlen+0x18>
200019a0:	0240006f          	j	200019c4 <strnlen+0x30>
200019a4:	00178793          	addi	a5,a5,1
200019a8:	00f68a63          	beq	a3,a5,200019bc <strnlen+0x28>
200019ac:	0007c703          	lbu	a4,0(a5)
200019b0:	fe071ae3          	bnez	a4,200019a4 <strnlen+0x10>
200019b4:	40a78533          	sub	a0,a5,a0
200019b8:	00008067          	ret
200019bc:	40a68533          	sub	a0,a3,a0
200019c0:	00008067          	ret
200019c4:	00000513          	li	a0,0
200019c8:	00008067          	ret

200019cc <__udivdi3>:
200019cc:	fd010113          	addi	sp,sp,-48
200019d0:	02812423          	sw	s0,40(sp)
200019d4:	01712623          	sw	s7,12(sp)
200019d8:	02112623          	sw	ra,44(sp)
200019dc:	02912223          	sw	s1,36(sp)
200019e0:	03212023          	sw	s2,32(sp)
200019e4:	01312e23          	sw	s3,28(sp)
200019e8:	01412c23          	sw	s4,24(sp)
200019ec:	01512a23          	sw	s5,20(sp)
200019f0:	01612823          	sw	s6,16(sp)
200019f4:	01812423          	sw	s8,8(sp)
200019f8:	01912223          	sw	s9,4(sp)
200019fc:	00050b93          	mv	s7,a0
20001a00:	00058413          	mv	s0,a1
20001a04:	38069c63          	bnez	a3,20001d9c <__udivdi3+0x3d0>
20001a08:	200094b7          	lui	s1,0x20009
20001a0c:	00060913          	mv	s2,a2
20001a10:	00050a13          	mv	s4,a0
20001a14:	14448493          	addi	s1,s1,324 # 20009144 <__clz_tab>
20001a18:	12c5f863          	bgeu	a1,a2,20001b48 <__udivdi3+0x17c>
20001a1c:	000107b7          	lui	a5,0x10
20001a20:	00058c13          	mv	s8,a1
20001a24:	10f67863          	bgeu	a2,a5,20001b34 <__udivdi3+0x168>
20001a28:	0ff00713          	li	a4,255
20001a2c:	00c73733          	sltu	a4,a4,a2
20001a30:	00371713          	slli	a4,a4,0x3
20001a34:	00e657b3          	srl	a5,a2,a4
20001a38:	00f484b3          	add	s1,s1,a5
20001a3c:	0004c683          	lbu	a3,0(s1)
20001a40:	00e68733          	add	a4,a3,a4
20001a44:	02000693          	li	a3,32
20001a48:	40e687b3          	sub	a5,a3,a4
20001a4c:	00e68c63          	beq	a3,a4,20001a64 <__udivdi3+0x98>
20001a50:	00f41433          	sll	s0,s0,a5
20001a54:	00ebd733          	srl	a4,s7,a4
20001a58:	00f61933          	sll	s2,a2,a5
20001a5c:	00876c33          	or	s8,a4,s0
20001a60:	00fb9a33          	sll	s4,s7,a5
20001a64:	01095b13          	srli	s6,s2,0x10
20001a68:	000b0593          	mv	a1,s6
20001a6c:	000c0513          	mv	a0,s8
20001a70:	5a8000ef          	jal	ra,20002018 <__umodsi3>
20001a74:	00050493          	mv	s1,a0
20001a78:	000b0593          	mv	a1,s6
20001a7c:	01091a93          	slli	s5,s2,0x10
20001a80:	000c0513          	mv	a0,s8
20001a84:	54c000ef          	jal	ra,20001fd0 <__udivsi3>
20001a88:	010ada93          	srli	s5,s5,0x10
20001a8c:	00050413          	mv	s0,a0
20001a90:	00050593          	mv	a1,a0
20001a94:	000a8513          	mv	a0,s5
20001a98:	50c000ef          	jal	ra,20001fa4 <__mulsi3>
20001a9c:	01049493          	slli	s1,s1,0x10
20001aa0:	010a5713          	srli	a4,s4,0x10
20001aa4:	00e4e733          	or	a4,s1,a4
20001aa8:	00040993          	mv	s3,s0
20001aac:	00a77e63          	bgeu	a4,a0,20001ac8 <__udivdi3+0xfc>
20001ab0:	01270733          	add	a4,a4,s2
20001ab4:	fff40993          	addi	s3,s0,-1
20001ab8:	01276863          	bltu	a4,s2,20001ac8 <__udivdi3+0xfc>
20001abc:	00a77663          	bgeu	a4,a0,20001ac8 <__udivdi3+0xfc>
20001ac0:	ffe40993          	addi	s3,s0,-2
20001ac4:	01270733          	add	a4,a4,s2
20001ac8:	40a70433          	sub	s0,a4,a0
20001acc:	000b0593          	mv	a1,s6
20001ad0:	00040513          	mv	a0,s0
20001ad4:	544000ef          	jal	ra,20002018 <__umodsi3>
20001ad8:	00050493          	mv	s1,a0
20001adc:	000b0593          	mv	a1,s6
20001ae0:	00040513          	mv	a0,s0
20001ae4:	4ec000ef          	jal	ra,20001fd0 <__udivsi3>
20001ae8:	010a1a13          	slli	s4,s4,0x10
20001aec:	00050413          	mv	s0,a0
20001af0:	00050593          	mv	a1,a0
20001af4:	01049493          	slli	s1,s1,0x10
20001af8:	000a8513          	mv	a0,s5
20001afc:	010a5a13          	srli	s4,s4,0x10
20001b00:	4a4000ef          	jal	ra,20001fa4 <__mulsi3>
20001b04:	0144ea33          	or	s4,s1,s4
20001b08:	00040613          	mv	a2,s0
20001b0c:	00aa7c63          	bgeu	s4,a0,20001b24 <__udivdi3+0x158>
20001b10:	01490a33          	add	s4,s2,s4
20001b14:	fff40613          	addi	a2,s0,-1
20001b18:	012a6663          	bltu	s4,s2,20001b24 <__udivdi3+0x158>
20001b1c:	00aa7463          	bgeu	s4,a0,20001b24 <__udivdi3+0x158>
20001b20:	ffe40613          	addi	a2,s0,-2
20001b24:	01099793          	slli	a5,s3,0x10
20001b28:	00c7e7b3          	or	a5,a5,a2
20001b2c:	00000493          	li	s1,0
20001b30:	1300006f          	j	20001c60 <__udivdi3+0x294>
20001b34:	010007b7          	lui	a5,0x1000
20001b38:	01000713          	li	a4,16
20001b3c:	eef66ce3          	bltu	a2,a5,20001a34 <__udivdi3+0x68>
20001b40:	01800713          	li	a4,24
20001b44:	ef1ff06f          	j	20001a34 <__udivdi3+0x68>
20001b48:	00068993          	mv	s3,a3
20001b4c:	00061a63          	bnez	a2,20001b60 <__udivdi3+0x194>
20001b50:	00000593          	li	a1,0
20001b54:	00100513          	li	a0,1
20001b58:	478000ef          	jal	ra,20001fd0 <__udivsi3>
20001b5c:	00050913          	mv	s2,a0
20001b60:	000107b7          	lui	a5,0x10
20001b64:	12f97c63          	bgeu	s2,a5,20001c9c <__udivdi3+0x2d0>
20001b68:	0ff00793          	li	a5,255
20001b6c:	0127f463          	bgeu	a5,s2,20001b74 <__udivdi3+0x1a8>
20001b70:	00800993          	li	s3,8
20001b74:	013957b3          	srl	a5,s2,s3
20001b78:	00f484b3          	add	s1,s1,a5
20001b7c:	0004c783          	lbu	a5,0(s1)
20001b80:	02000693          	li	a3,32
20001b84:	013787b3          	add	a5,a5,s3
20001b88:	40f68733          	sub	a4,a3,a5
20001b8c:	12f69263          	bne	a3,a5,20001cb0 <__udivdi3+0x2e4>
20001b90:	41240433          	sub	s0,s0,s2
20001b94:	00100493          	li	s1,1
20001b98:	01095a93          	srli	s5,s2,0x10
20001b9c:	000a8593          	mv	a1,s5
20001ba0:	00040513          	mv	a0,s0
20001ba4:	474000ef          	jal	ra,20002018 <__umodsi3>
20001ba8:	00050993          	mv	s3,a0
20001bac:	000a8593          	mv	a1,s5
20001bb0:	00040513          	mv	a0,s0
20001bb4:	01091b13          	slli	s6,s2,0x10
20001bb8:	418000ef          	jal	ra,20001fd0 <__udivsi3>
20001bbc:	010b5b13          	srli	s6,s6,0x10
20001bc0:	00050413          	mv	s0,a0
20001bc4:	00050593          	mv	a1,a0
20001bc8:	000b0513          	mv	a0,s6
20001bcc:	3d8000ef          	jal	ra,20001fa4 <__mulsi3>
20001bd0:	01099993          	slli	s3,s3,0x10
20001bd4:	010a5713          	srli	a4,s4,0x10
20001bd8:	00e9e733          	or	a4,s3,a4
20001bdc:	00040b93          	mv	s7,s0
20001be0:	00a77e63          	bgeu	a4,a0,20001bfc <__udivdi3+0x230>
20001be4:	01270733          	add	a4,a4,s2
20001be8:	fff40b93          	addi	s7,s0,-1
20001bec:	01276863          	bltu	a4,s2,20001bfc <__udivdi3+0x230>
20001bf0:	00a77663          	bgeu	a4,a0,20001bfc <__udivdi3+0x230>
20001bf4:	ffe40b93          	addi	s7,s0,-2
20001bf8:	01270733          	add	a4,a4,s2
20001bfc:	40a70433          	sub	s0,a4,a0
20001c00:	000a8593          	mv	a1,s5
20001c04:	00040513          	mv	a0,s0
20001c08:	410000ef          	jal	ra,20002018 <__umodsi3>
20001c0c:	00050993          	mv	s3,a0
20001c10:	000a8593          	mv	a1,s5
20001c14:	00040513          	mv	a0,s0
20001c18:	3b8000ef          	jal	ra,20001fd0 <__udivsi3>
20001c1c:	010a1a13          	slli	s4,s4,0x10
20001c20:	00050413          	mv	s0,a0
20001c24:	00050593          	mv	a1,a0
20001c28:	01099993          	slli	s3,s3,0x10
20001c2c:	000b0513          	mv	a0,s6
20001c30:	010a5a13          	srli	s4,s4,0x10
20001c34:	370000ef          	jal	ra,20001fa4 <__mulsi3>
20001c38:	0149ea33          	or	s4,s3,s4
20001c3c:	00040613          	mv	a2,s0
20001c40:	00aa7c63          	bgeu	s4,a0,20001c58 <__udivdi3+0x28c>
20001c44:	01490a33          	add	s4,s2,s4
20001c48:	fff40613          	addi	a2,s0,-1
20001c4c:	012a6663          	bltu	s4,s2,20001c58 <__udivdi3+0x28c>
20001c50:	00aa7463          	bgeu	s4,a0,20001c58 <__udivdi3+0x28c>
20001c54:	ffe40613          	addi	a2,s0,-2
20001c58:	010b9793          	slli	a5,s7,0x10
20001c5c:	00c7e7b3          	or	a5,a5,a2
20001c60:	00078513          	mv	a0,a5
20001c64:	00048593          	mv	a1,s1
20001c68:	02c12083          	lw	ra,44(sp)
20001c6c:	02812403          	lw	s0,40(sp)
20001c70:	02412483          	lw	s1,36(sp)
20001c74:	02012903          	lw	s2,32(sp)
20001c78:	01c12983          	lw	s3,28(sp)
20001c7c:	01812a03          	lw	s4,24(sp)
20001c80:	01412a83          	lw	s5,20(sp)
20001c84:	01012b03          	lw	s6,16(sp)
20001c88:	00c12b83          	lw	s7,12(sp)
20001c8c:	00812c03          	lw	s8,8(sp)
20001c90:	00412c83          	lw	s9,4(sp)
20001c94:	03010113          	addi	sp,sp,48
20001c98:	00008067          	ret
20001c9c:	010007b7          	lui	a5,0x1000
20001ca0:	01000993          	li	s3,16
20001ca4:	ecf968e3          	bltu	s2,a5,20001b74 <__udivdi3+0x1a8>
20001ca8:	01800993          	li	s3,24
20001cac:	ec9ff06f          	j	20001b74 <__udivdi3+0x1a8>
20001cb0:	00e91933          	sll	s2,s2,a4
20001cb4:	00f459b3          	srl	s3,s0,a5
20001cb8:	00fbd7b3          	srl	a5,s7,a5
20001cbc:	00e41433          	sll	s0,s0,a4
20001cc0:	0087eab3          	or	s5,a5,s0
20001cc4:	01095413          	srli	s0,s2,0x10
20001cc8:	00040593          	mv	a1,s0
20001ccc:	00098513          	mv	a0,s3
20001cd0:	00eb9a33          	sll	s4,s7,a4
20001cd4:	344000ef          	jal	ra,20002018 <__umodsi3>
20001cd8:	00050493          	mv	s1,a0
20001cdc:	00040593          	mv	a1,s0
20001ce0:	00098513          	mv	a0,s3
20001ce4:	01091b13          	slli	s6,s2,0x10
20001ce8:	2e8000ef          	jal	ra,20001fd0 <__udivsi3>
20001cec:	010b5b13          	srli	s6,s6,0x10
20001cf0:	00050993          	mv	s3,a0
20001cf4:	00050593          	mv	a1,a0
20001cf8:	000b0513          	mv	a0,s6
20001cfc:	2a8000ef          	jal	ra,20001fa4 <__mulsi3>
20001d00:	01049493          	slli	s1,s1,0x10
20001d04:	010ad793          	srli	a5,s5,0x10
20001d08:	00f4e7b3          	or	a5,s1,a5
20001d0c:	00098b93          	mv	s7,s3
20001d10:	00a7fe63          	bgeu	a5,a0,20001d2c <__udivdi3+0x360>
20001d14:	012787b3          	add	a5,a5,s2
20001d18:	fff98b93          	addi	s7,s3,-1
20001d1c:	0127e863          	bltu	a5,s2,20001d2c <__udivdi3+0x360>
20001d20:	00a7f663          	bgeu	a5,a0,20001d2c <__udivdi3+0x360>
20001d24:	ffe98b93          	addi	s7,s3,-2
20001d28:	012787b3          	add	a5,a5,s2
20001d2c:	40a789b3          	sub	s3,a5,a0
20001d30:	00040593          	mv	a1,s0
20001d34:	00098513          	mv	a0,s3
20001d38:	2e0000ef          	jal	ra,20002018 <__umodsi3>
20001d3c:	00040593          	mv	a1,s0
20001d40:	00050493          	mv	s1,a0
20001d44:	00098513          	mv	a0,s3
20001d48:	288000ef          	jal	ra,20001fd0 <__udivsi3>
20001d4c:	010a9413          	slli	s0,s5,0x10
20001d50:	00050993          	mv	s3,a0
20001d54:	00050593          	mv	a1,a0
20001d58:	01049493          	slli	s1,s1,0x10
20001d5c:	000b0513          	mv	a0,s6
20001d60:	01045413          	srli	s0,s0,0x10
20001d64:	240000ef          	jal	ra,20001fa4 <__mulsi3>
20001d68:	0084e433          	or	s0,s1,s0
20001d6c:	00098793          	mv	a5,s3
20001d70:	00a47e63          	bgeu	s0,a0,20001d8c <__udivdi3+0x3c0>
20001d74:	01240433          	add	s0,s0,s2
20001d78:	fff98793          	addi	a5,s3,-1
20001d7c:	01246863          	bltu	s0,s2,20001d8c <__udivdi3+0x3c0>
20001d80:	00a47663          	bgeu	s0,a0,20001d8c <__udivdi3+0x3c0>
20001d84:	ffe98793          	addi	a5,s3,-2
20001d88:	01240433          	add	s0,s0,s2
20001d8c:	010b9493          	slli	s1,s7,0x10
20001d90:	40a40433          	sub	s0,s0,a0
20001d94:	00f4e4b3          	or	s1,s1,a5
20001d98:	e01ff06f          	j	20001b98 <__udivdi3+0x1cc>
20001d9c:	1ed5ee63          	bltu	a1,a3,20001f98 <__udivdi3+0x5cc>
20001da0:	000107b7          	lui	a5,0x10
20001da4:	04f6f463          	bgeu	a3,a5,20001dec <__udivdi3+0x420>
20001da8:	0ff00a93          	li	s5,255
20001dac:	00dab733          	sltu	a4,s5,a3
20001db0:	00371713          	slli	a4,a4,0x3
20001db4:	200097b7          	lui	a5,0x20009
20001db8:	00e6d5b3          	srl	a1,a3,a4
20001dbc:	14478793          	addi	a5,a5,324 # 20009144 <__clz_tab>
20001dc0:	00b787b3          	add	a5,a5,a1
20001dc4:	0007ca83          	lbu	s5,0(a5)
20001dc8:	02000793          	li	a5,32
20001dcc:	00ea8ab3          	add	s5,s5,a4
20001dd0:	415784b3          	sub	s1,a5,s5
20001dd4:	03579663          	bne	a5,s5,20001e00 <__udivdi3+0x434>
20001dd8:	00100793          	li	a5,1
20001ddc:	e886e2e3          	bltu	a3,s0,20001c60 <__udivdi3+0x294>
20001de0:	00cbb633          	sltu	a2,s7,a2
20001de4:	00164793          	xori	a5,a2,1
20001de8:	e79ff06f          	j	20001c60 <__udivdi3+0x294>
20001dec:	010007b7          	lui	a5,0x1000
20001df0:	01000713          	li	a4,16
20001df4:	fcf6e0e3          	bltu	a3,a5,20001db4 <__udivdi3+0x3e8>
20001df8:	01800713          	li	a4,24
20001dfc:	fb9ff06f          	j	20001db4 <__udivdi3+0x3e8>
20001e00:	01565cb3          	srl	s9,a2,s5
20001e04:	009696b3          	sll	a3,a3,s1
20001e08:	00dcecb3          	or	s9,s9,a3
20001e0c:	015459b3          	srl	s3,s0,s5
20001e10:	00941433          	sll	s0,s0,s1
20001e14:	015bdab3          	srl	s5,s7,s5
20001e18:	008aeab3          	or	s5,s5,s0
20001e1c:	010cd413          	srli	s0,s9,0x10
20001e20:	00040593          	mv	a1,s0
20001e24:	00098513          	mv	a0,s3
20001e28:	00961933          	sll	s2,a2,s1
20001e2c:	1ec000ef          	jal	ra,20002018 <__umodsi3>
20001e30:	00050a13          	mv	s4,a0
20001e34:	00040593          	mv	a1,s0
20001e38:	00098513          	mv	a0,s3
20001e3c:	010c9b13          	slli	s6,s9,0x10
20001e40:	190000ef          	jal	ra,20001fd0 <__udivsi3>
20001e44:	010b5b13          	srli	s6,s6,0x10
20001e48:	00050993          	mv	s3,a0
20001e4c:	00050593          	mv	a1,a0
20001e50:	000b0513          	mv	a0,s6
20001e54:	150000ef          	jal	ra,20001fa4 <__mulsi3>
20001e58:	010a1a13          	slli	s4,s4,0x10
20001e5c:	010ad713          	srli	a4,s5,0x10
20001e60:	00ea6733          	or	a4,s4,a4
20001e64:	00098c13          	mv	s8,s3
20001e68:	00a77e63          	bgeu	a4,a0,20001e84 <__udivdi3+0x4b8>
20001e6c:	01970733          	add	a4,a4,s9
20001e70:	fff98c13          	addi	s8,s3,-1
20001e74:	01976863          	bltu	a4,s9,20001e84 <__udivdi3+0x4b8>
20001e78:	00a77663          	bgeu	a4,a0,20001e84 <__udivdi3+0x4b8>
20001e7c:	ffe98c13          	addi	s8,s3,-2
20001e80:	01970733          	add	a4,a4,s9
20001e84:	40a709b3          	sub	s3,a4,a0
20001e88:	00040593          	mv	a1,s0
20001e8c:	00098513          	mv	a0,s3
20001e90:	188000ef          	jal	ra,20002018 <__umodsi3>
20001e94:	00040593          	mv	a1,s0
20001e98:	00050a13          	mv	s4,a0
20001e9c:	00098513          	mv	a0,s3
20001ea0:	130000ef          	jal	ra,20001fd0 <__udivsi3>
20001ea4:	010a9413          	slli	s0,s5,0x10
20001ea8:	00050993          	mv	s3,a0
20001eac:	00050593          	mv	a1,a0
20001eb0:	010a1a13          	slli	s4,s4,0x10
20001eb4:	000b0513          	mv	a0,s6
20001eb8:	01045413          	srli	s0,s0,0x10
20001ebc:	0e8000ef          	jal	ra,20001fa4 <__mulsi3>
20001ec0:	008a6433          	or	s0,s4,s0
20001ec4:	00098613          	mv	a2,s3
20001ec8:	00a47e63          	bgeu	s0,a0,20001ee4 <__udivdi3+0x518>
20001ecc:	01940433          	add	s0,s0,s9
20001ed0:	fff98613          	addi	a2,s3,-1
20001ed4:	01946863          	bltu	s0,s9,20001ee4 <__udivdi3+0x518>
20001ed8:	00a47663          	bgeu	s0,a0,20001ee4 <__udivdi3+0x518>
20001edc:	ffe98613          	addi	a2,s3,-2
20001ee0:	01940433          	add	s0,s0,s9
20001ee4:	010c1793          	slli	a5,s8,0x10
20001ee8:	00010e37          	lui	t3,0x10
20001eec:	00c7e7b3          	or	a5,a5,a2
20001ef0:	fffe0313          	addi	t1,t3,-1 # ffff <_STACK_SIZE+0xfe0f>
20001ef4:	0067f8b3          	and	a7,a5,t1
20001ef8:	00697333          	and	t1,s2,t1
20001efc:	40a40433          	sub	s0,s0,a0
20001f00:	0107de93          	srli	t4,a5,0x10
20001f04:	01095913          	srli	s2,s2,0x10
20001f08:	00088513          	mv	a0,a7
20001f0c:	00030593          	mv	a1,t1
20001f10:	094000ef          	jal	ra,20001fa4 <__mulsi3>
20001f14:	00050813          	mv	a6,a0
20001f18:	00090593          	mv	a1,s2
20001f1c:	00088513          	mv	a0,a7
20001f20:	084000ef          	jal	ra,20001fa4 <__mulsi3>
20001f24:	00050893          	mv	a7,a0
20001f28:	00030593          	mv	a1,t1
20001f2c:	000e8513          	mv	a0,t4
20001f30:	074000ef          	jal	ra,20001fa4 <__mulsi3>
20001f34:	00050313          	mv	t1,a0
20001f38:	00090593          	mv	a1,s2
20001f3c:	000e8513          	mv	a0,t4
20001f40:	064000ef          	jal	ra,20001fa4 <__mulsi3>
20001f44:	01085713          	srli	a4,a6,0x10
20001f48:	006888b3          	add	a7,a7,t1
20001f4c:	01170733          	add	a4,a4,a7
20001f50:	00050693          	mv	a3,a0
20001f54:	00677463          	bgeu	a4,t1,20001f5c <__udivdi3+0x590>
20001f58:	01c506b3          	add	a3,a0,t3
20001f5c:	01075513          	srli	a0,a4,0x10
20001f60:	00d506b3          	add	a3,a0,a3
20001f64:	02d46663          	bltu	s0,a3,20001f90 <__udivdi3+0x5c4>
20001f68:	bcd412e3          	bne	s0,a3,20001b2c <__udivdi3+0x160>
20001f6c:	00010537          	lui	a0,0x10
20001f70:	fff50513          	addi	a0,a0,-1 # ffff <_STACK_SIZE+0xfe0f>
20001f74:	00a77733          	and	a4,a4,a0
20001f78:	01071713          	slli	a4,a4,0x10
20001f7c:	00a87833          	and	a6,a6,a0
20001f80:	009b9bb3          	sll	s7,s7,s1
20001f84:	01070733          	add	a4,a4,a6
20001f88:	00000493          	li	s1,0
20001f8c:	ccebfae3          	bgeu	s7,a4,20001c60 <__udivdi3+0x294>
20001f90:	fff78793          	addi	a5,a5,-1 # ffffff <_STACK_SIZE+0xfffe0f>
20001f94:	b99ff06f          	j	20001b2c <__udivdi3+0x160>
20001f98:	00000493          	li	s1,0
20001f9c:	00000793          	li	a5,0
20001fa0:	cc1ff06f          	j	20001c60 <__udivdi3+0x294>

20001fa4 <__mulsi3>:
20001fa4:	00050613          	mv	a2,a0
20001fa8:	00000513          	li	a0,0
20001fac:	0015f693          	andi	a3,a1,1
20001fb0:	00068463          	beqz	a3,20001fb8 <__mulsi3+0x14>
20001fb4:	00c50533          	add	a0,a0,a2
20001fb8:	0015d593          	srli	a1,a1,0x1
20001fbc:	00161613          	slli	a2,a2,0x1
20001fc0:	fe0596e3          	bnez	a1,20001fac <__mulsi3+0x8>
20001fc4:	00008067          	ret

20001fc8 <__divsi3>:
20001fc8:	06054063          	bltz	a0,20002028 <__umodsi3+0x10>
20001fcc:	0605c663          	bltz	a1,20002038 <__umodsi3+0x20>

20001fd0 <__udivsi3>:
20001fd0:	00058613          	mv	a2,a1
20001fd4:	00050593          	mv	a1,a0
20001fd8:	fff00513          	li	a0,-1
20001fdc:	02060c63          	beqz	a2,20002014 <__udivsi3+0x44>
20001fe0:	00100693          	li	a3,1
20001fe4:	00b67a63          	bgeu	a2,a1,20001ff8 <__udivsi3+0x28>
20001fe8:	00c05863          	blez	a2,20001ff8 <__udivsi3+0x28>
20001fec:	00161613          	slli	a2,a2,0x1
20001ff0:	00169693          	slli	a3,a3,0x1
20001ff4:	feb66ae3          	bltu	a2,a1,20001fe8 <__udivsi3+0x18>
20001ff8:	00000513          	li	a0,0
20001ffc:	00c5e663          	bltu	a1,a2,20002008 <__udivsi3+0x38>
20002000:	40c585b3          	sub	a1,a1,a2
20002004:	00d56533          	or	a0,a0,a3
20002008:	0016d693          	srli	a3,a3,0x1
2000200c:	00165613          	srli	a2,a2,0x1
20002010:	fe0696e3          	bnez	a3,20001ffc <__udivsi3+0x2c>
20002014:	00008067          	ret

20002018 <__umodsi3>:
20002018:	00008293          	mv	t0,ra
2000201c:	fb5ff0ef          	jal	ra,20001fd0 <__udivsi3>
20002020:	00058513          	mv	a0,a1
20002024:	00028067          	jr	t0 # 20000b98 <memset+0xb4>
20002028:	40a00533          	neg	a0,a0
2000202c:	00b04863          	bgtz	a1,2000203c <__umodsi3+0x24>
20002030:	40b005b3          	neg	a1,a1
20002034:	f9dff06f          	j	20001fd0 <__udivsi3>
20002038:	40b005b3          	neg	a1,a1
2000203c:	00008293          	mv	t0,ra
20002040:	f91ff0ef          	jal	ra,20001fd0 <__udivsi3>
20002044:	40a00533          	neg	a0,a0
20002048:	00028067          	jr	t0

2000204c <__modsi3>:
2000204c:	00008293          	mv	t0,ra
20002050:	0005ca63          	bltz	a1,20002064 <__modsi3+0x18>
20002054:	00054c63          	bltz	a0,2000206c <__modsi3+0x20>
20002058:	f79ff0ef          	jal	ra,20001fd0 <__udivsi3>
2000205c:	00058513          	mv	a0,a1
20002060:	00028067          	jr	t0
20002064:	40b005b3          	neg	a1,a1
20002068:	fe0558e3          	bgez	a0,20002058 <__modsi3+0xc>
2000206c:	40a00533          	neg	a0,a0
20002070:	f61ff0ef          	jal	ra,20001fd0 <__udivsi3>
20002074:	40b00533          	neg	a0,a1
20002078:	00028067          	jr	t0

2000207c <_Z14SubmitGPUFramev>:
2000207c:	fe010113          	addi	sp,sp,-32
20002080:	01312623          	sw	s3,12(sp)
20002084:	00009997          	auipc	s3,0x9
20002088:	f689a983          	lw	s3,-152(s3) # 2000afec <_GLOBAL_OFFSET_TABLE_+0x44>
2000208c:	0009a703          	lw	a4,0(s3)
20002090:	01212823          	sw	s2,16(sp)
20002094:	00009917          	auipc	s2,0x9
20002098:	f6c92903          	lw	s2,-148(s2) # 2000b000 <_GLOBAL_OFFSET_TABLE_+0x58>
2000209c:	00092783          	lw	a5,0(s2)
200020a0:	00072683          	lw	a3,0(a4)
200020a4:	00112e23          	sw	ra,28(sp)
200020a8:	00812c23          	sw	s0,24(sp)
200020ac:	00912a23          	sw	s1,20(sp)
200020b0:	01412423          	sw	s4,8(sp)
200020b4:	01512223          	sw	s5,4(sp)
200020b8:	01612023          	sw	s6,0(sp)
200020bc:	02f68663          	beq	a3,a5,200020e8 <_Z14SubmitGPUFramev+0x6c>
200020c0:	01c12083          	lw	ra,28(sp)
200020c4:	01812403          	lw	s0,24(sp)
200020c8:	01412483          	lw	s1,20(sp)
200020cc:	01012903          	lw	s2,16(sp)
200020d0:	00c12983          	lw	s3,12(sp)
200020d4:	00812a03          	lw	s4,8(sp)
200020d8:	00412a83          	lw	s5,4(sp)
200020dc:	00012b03          	lw	s6,0(sp)
200020e0:	02010113          	addi	sp,sp,32
200020e4:	00008067          	ret
200020e8:	00009a17          	auipc	s4,0x9
200020ec:	ed0a2a03          	lw	s4,-304(s4) # 2000afb8 <_GLOBAL_OFFSET_TABLE_+0x10>
200020f0:	000a2783          	lw	a5,0(s4)
200020f4:	00168693          	addi	a3,a3,1
200020f8:	00d92023          	sw	a3,0(s2)
200020fc:	585866b7          	lui	a3,0x58586
20002100:	88168693          	addi	a3,a3,-1919 # 58585881 <__global_pointer$+0x3857a061>
20002104:	00d7a023          	sw	a3,0(a5)
20002108:	00009a97          	auipc	s5,0x9
2000210c:	ec0aaa83          	lw	s5,-320(s5) # 2000afc8 <_GLOBAL_OFFSET_TABLE_+0x20>
20002110:	000166b7          	lui	a3,0x16
20002114:	000aa603          	lw	a2,0(s5)
20002118:	09168693          	addi	a3,a3,145 # 16091 <_STACK_SIZE+0x15ea1>
2000211c:	00d7a023          	sw	a3,0(a5)
20002120:	01300693          	li	a3,19
20002124:	00d7a023          	sw	a3,0(a5)
20002128:	0c060a63          	beqz	a2,200021fc <_Z14SubmitGPUFramev+0x180>
2000212c:	04c05663          	blez	a2,20002178 <_Z14SubmitGPUFramev+0xfc>
20002130:	00009497          	auipc	s1,0x9
20002134:	eb44a483          	lw	s1,-332(s1) # 2000afe4 <_GLOBAL_OFFSET_TABLE_+0x3c>
20002138:	00000413          	li	s0,0
2000213c:	00009b17          	auipc	s6,0x9
20002140:	e70b2b03          	lw	s6,-400(s6) # 2000afac <_GLOBAL_OFFSET_TABLE_+0x4>
20002144:	000b2683          	lw	a3,0(s6)
20002148:	0004a603          	lw	a2,0(s1)
2000214c:	00341593          	slli	a1,s0,0x3
20002150:	408686b3          	sub	a3,a3,s0
20002154:	00d036b3          	snez	a3,a3
20002158:	00800513          	li	a0,8
2000215c:	15d010ef          	jal	ra,20003ab8 <_Z8PrintDMAiiPKcb>
20002160:	000aa783          	lw	a5,0(s5)
20002164:	00140413          	addi	s0,s0,1
20002168:	00448493          	addi	s1,s1,4
2000216c:	fcf44ce3          	blt	s0,a5,20002144 <_Z14SubmitGPUFramev+0xc8>
20002170:	000a2783          	lw	a5,0(s4)
20002174:	0009a703          	lw	a4,0(s3)
20002178:	0007a023          	sw	zero,0(a5)
2000217c:	00009597          	auipc	a1,0x9
20002180:	e5c5a583          	lw	a1,-420(a1) # 2000afd8 <_GLOBAL_OFFSET_TABLE_+0x30>
20002184:	0005a683          	lw	a3,0(a1)
20002188:	00168693          	addi	a3,a3,1
2000218c:	0016f693          	andi	a3,a3,1
20002190:	00a69613          	slli	a2,a3,0xa
20002194:	00d5a023          	sw	a3,0(a1)
20002198:	10166693          	ori	a3,a2,257
2000219c:	00d7a023          	sw	a3,0(a5)
200021a0:	12100693          	li	a3,289
200021a4:	00d7a023          	sw	a3,0(a5)
200021a8:	00a71613          	slli	a2,a4,0xa
200021ac:	01675693          	srli	a3,a4,0x16
200021b0:	02700593          	li	a1,39
200021b4:	00b7a023          	sw	a1,0(a5)
200021b8:	18166613          	ori	a2,a2,385
200021bc:	00a69693          	slli	a3,a3,0xa
200021c0:	00c7a023          	sw	a2,0(a5)
200021c4:	1b16e693          	ori	a3,a3,433
200021c8:	00d7a023          	sw	a3,0(a5)
200021cc:	00092683          	lw	a3,0(s2)
200021d0:	00a69613          	slli	a2,a3,0xa
200021d4:	0166d693          	srli	a3,a3,0x16
200021d8:	10166613          	ori	a2,a2,257
200021dc:	00a69693          	slli	a3,a3,0xa
200021e0:	00c7a023          	sw	a2,0(a5)
200021e4:	1216e693          	ori	a3,a3,289
200021e8:	00d7a023          	sw	a3,0(a5)
200021ec:	1a600693          	li	a3,422
200021f0:	00d7a023          	sw	a3,0(a5)
200021f4:	00072023          	sw	zero,0(a4)
200021f8:	ec9ff06f          	j	200020c0 <_Z14SubmitGPUFramev+0x44>
200021fc:	00000693          	li	a3,0
20002200:	00007617          	auipc	a2,0x7
20002204:	04460613          	addi	a2,a2,68 # 20009244 <__clz_tab+0x100>
20002208:	05c00593          	li	a1,92
2000220c:	06000513          	li	a0,96
20002210:	0a9010ef          	jal	ra,20003ab8 <_Z8PrintDMAiiPKcb>
20002214:	000a2783          	lw	a5,0(s4)
20002218:	0009a703          	lw	a4,0(s3)
2000221c:	f5dff06f          	j	20002178 <_Z14SubmitGPUFramev+0xfc>

20002220 <_Z22SubmitBlankFrameNoWaitv>:
20002220:	00009797          	auipc	a5,0x9
20002224:	d987a783          	lw	a5,-616(a5) # 2000afb8 <_GLOBAL_OFFSET_TABLE_+0x10>
20002228:	0007a783          	lw	a5,0(a5)
2000222c:	40404737          	lui	a4,0x40404
20002230:	08170713          	addi	a4,a4,129 # 40404081 <__global_pointer$+0x203f8861>
20002234:	00e7a023          	sw	a4,0(a5)
20002238:	00010737          	lui	a4,0x10
2000223c:	09170713          	addi	a4,a4,145 # 10091 <_STACK_SIZE+0xfea1>
20002240:	00e7a023          	sw	a4,0(a5)
20002244:	01300713          	li	a4,19
20002248:	00e7a023          	sw	a4,0(a5)
2000224c:	0007a023          	sw	zero,0(a5)
20002250:	00009617          	auipc	a2,0x9
20002254:	d8862603          	lw	a2,-632(a2) # 2000afd8 <_GLOBAL_OFFSET_TABLE_+0x30>
20002258:	00062703          	lw	a4,0(a2)
2000225c:	00170713          	addi	a4,a4,1
20002260:	00177713          	andi	a4,a4,1
20002264:	00a71693          	slli	a3,a4,0xa
20002268:	00e62023          	sw	a4,0(a2)
2000226c:	1016e713          	ori	a4,a3,257
20002270:	00e7a023          	sw	a4,0(a5)
20002274:	12100713          	li	a4,289
20002278:	00e7a023          	sw	a4,0(a5)
2000227c:	02700713          	li	a4,39
20002280:	00e7a023          	sw	a4,0(a5)
20002284:	00008067          	ret

20002288 <_Z14LoadBinaryBlobv>:
20002288:	00009597          	auipc	a1,0x9
2000228c:	d705a583          	lw	a1,-656(a1) # 2000aff8 <_GLOBAL_OFFSET_TABLE_+0x50>
20002290:	00009517          	auipc	a0,0x9
20002294:	d3052503          	lw	a0,-720(a0) # 2000afc0 <_GLOBAL_OFFSET_TABLE_+0x18>
20002298:	fe010113          	addi	sp,sp,-32
2000229c:	0005a783          	lw	a5,0(a1)
200022a0:	00052803          	lw	a6,0(a0)
200022a4:	01c10613          	addi	a2,sp,28
200022a8:	02010713          	addi	a4,sp,32
200022ac:	00012c23          	sw	zero,24(sp)
200022b0:	00012e23          	sw	zero,28(sp)
200022b4:	00060693          	mv	a3,a2
200022b8:	00e12623          	sw	a4,12(sp)
200022bc:	0007a703          	lw	a4,0(a5)
200022c0:	fe070ee3          	beqz	a4,200022bc <_Z14LoadBinaryBlobv+0x34>
200022c4:	00084703          	lbu	a4,0(a6)
200022c8:	00168693          	addi	a3,a3,1
200022cc:	fee68fa3          	sb	a4,-1(a3)
200022d0:	00c12703          	lw	a4,12(sp)
200022d4:	fee694e3          	bne	a3,a4,200022bc <_Z14LoadBinaryBlobv+0x34>
200022d8:	01810693          	addi	a3,sp,24
200022dc:	0007a703          	lw	a4,0(a5)
200022e0:	fe070ee3          	beqz	a4,200022dc <_Z14LoadBinaryBlobv+0x54>
200022e4:	00084703          	lbu	a4,0(a6)
200022e8:	00168693          	addi	a3,a3,1
200022ec:	fee68fa3          	sb	a4,-1(a3)
200022f0:	fec696e3          	bne	a3,a2,200022dc <_Z14LoadBinaryBlobv+0x54>
200022f4:	01812703          	lw	a4,24(sp)
200022f8:	01c12683          	lw	a3,28(sp)
200022fc:	02070663          	beqz	a4,20002328 <_Z14LoadBinaryBlobv+0xa0>
20002300:	00e68633          	add	a2,a3,a4
20002304:	0007a703          	lw	a4,0(a5)
20002308:	fe070ee3          	beqz	a4,20002304 <_Z14LoadBinaryBlobv+0x7c>
2000230c:	00052783          	lw	a5,0(a0)
20002310:	00168693          	addi	a3,a3,1
20002314:	0007c783          	lbu	a5,0(a5)
20002318:	0ff7f793          	andi	a5,a5,255
2000231c:	fef68fa3          	sb	a5,-1(a3)
20002320:	0005a783          	lw	a5,0(a1)
20002324:	fed610e3          	bne	a2,a3,20002304 <_Z14LoadBinaryBlobv+0x7c>
20002328:	02010113          	addi	sp,sp,32
2000232c:	00008067          	ret

20002330 <_Z9LaunchELFm>:
20002330:	ff010113          	addi	sp,sp,-16
20002334:	00a12623          	sw	a0,12(sp)
20002338:	00c12083          	lw	ra,12(sp)
2000233c:	0ffff637          	lui	a2,0xffff
20002340:	00060113          	mv	sp,a2
20002344:	00008067          	ret
20002348:	01010113          	addi	sp,sp,16
2000234c:	00008067          	ret

20002350 <_Z13RunBinaryBlobv>:
20002350:	00009797          	auipc	a5,0x9
20002354:	ca87a783          	lw	a5,-856(a5) # 2000aff8 <_GLOBAL_OFFSET_TABLE_+0x50>
20002358:	fd010113          	addi	sp,sp,-48
2000235c:	0007a703          	lw	a4,0(a5)
20002360:	00009797          	auipc	a5,0x9
20002364:	c607a783          	lw	a5,-928(a5) # 2000afc0 <_GLOBAL_OFFSET_TABLE_+0x18>
20002368:	0007a603          	lw	a2,0(a5)
2000236c:	02010793          	addi	a5,sp,32
20002370:	02112623          	sw	ra,44(sp)
20002374:	00012e23          	sw	zero,28(sp)
20002378:	01c10693          	addi	a3,sp,28
2000237c:	00f12623          	sw	a5,12(sp)
20002380:	00072783          	lw	a5,0(a4)
20002384:	fe078ee3          	beqz	a5,20002380 <_Z13RunBinaryBlobv+0x30>
20002388:	00064783          	lbu	a5,0(a2) # ffff000 <_STACK_SIZE+0xfffee10>
2000238c:	00168693          	addi	a3,a3,1
20002390:	fef68fa3          	sb	a5,-1(a3)
20002394:	00c12783          	lw	a5,12(sp)
20002398:	fed794e3          	bne	a5,a3,20002380 <_Z13RunBinaryBlobv+0x30>
2000239c:	00007517          	auipc	a0,0x7
200023a0:	eb450513          	addi	a0,a0,-332 # 20009250 <__clz_tab+0x10c>
200023a4:	350010ef          	jal	ra,200036f4 <_Z8EchoUARTPKc>
200023a8:	01c12503          	lw	a0,28(sp)
200023ac:	02c12083          	lw	ra,44(sp)
200023b0:	03010113          	addi	sp,sp,48
200023b4:	f7dff06f          	j	20002330 <_Z9LaunchELFm>

200023b8 <_Z29ParseELFHeaderAndLoadSectionsP3FILP16SElfFileHeader32Rm>:
200023b8:	f5010113          	addi	sp,sp,-176
200023bc:	0a812423          	sw	s0,168(sp)
200023c0:	0a112623          	sw	ra,172(sp)
200023c4:	0a912223          	sw	s1,164(sp)
200023c8:	0b212023          	sw	s2,160(sp)
200023cc:	09312e23          	sw	s3,156(sp)
200023d0:	09412c23          	sw	s4,152(sp)
200023d4:	09512a23          	sw	s5,148(sp)
200023d8:	09612823          	sw	s6,144(sp)
200023dc:	09712623          	sw	s7,140(sp)
200023e0:	00058413          	mv	s0,a1
200023e4:	0015c683          	lbu	a3,1(a1)
200023e8:	00244703          	lbu	a4,2(s0)
200023ec:	0005c583          	lbu	a1,0(a1)
200023f0:	00344783          	lbu	a5,3(s0)
200023f4:	00869693          	slli	a3,a3,0x8
200023f8:	00b6e6b3          	or	a3,a3,a1
200023fc:	01071713          	slli	a4,a4,0x10
20002400:	00d76733          	or	a4,a4,a3
20002404:	01879793          	slli	a5,a5,0x18
20002408:	00e7e7b3          	or	a5,a5,a4
2000240c:	464c4737          	lui	a4,0x464c4
20002410:	57f70713          	addi	a4,a4,1407 # 464c457f <__global_pointer$+0x264b8d5f>
20002414:	02e78c63          	beq	a5,a4,2000244c <_Z29ParseELFHeaderAndLoadSectionsP3FILP16SElfFileHeader32Rm+0x94>
20002418:	0a812403          	lw	s0,168(sp)
2000241c:	0ac12083          	lw	ra,172(sp)
20002420:	0a412483          	lw	s1,164(sp)
20002424:	0a012903          	lw	s2,160(sp)
20002428:	09c12983          	lw	s3,156(sp)
2000242c:	09812a03          	lw	s4,152(sp)
20002430:	09412a83          	lw	s5,148(sp)
20002434:	09012b03          	lw	s6,144(sp)
20002438:	08c12b83          	lw	s7,140(sp)
2000243c:	00007517          	auipc	a0,0x7
20002440:	e2c50513          	addi	a0,a0,-468 # 20009268 <__clz_tab+0x124>
20002444:	0b010113          	addi	sp,sp,176
20002448:	2ac0106f          	j	200036f4 <_Z8EchoUARTPKc>
2000244c:	01944683          	lbu	a3,25(s0)
20002450:	01844583          	lbu	a1,24(s0)
20002454:	01a44703          	lbu	a4,26(s0)
20002458:	01b44783          	lbu	a5,27(s0)
2000245c:	00869693          	slli	a3,a3,0x8
20002460:	00b6e6b3          	or	a3,a3,a1
20002464:	01071713          	slli	a4,a4,0x10
20002468:	00d76733          	or	a4,a4,a3
2000246c:	01879793          	slli	a5,a5,0x18
20002470:	00e7e7b3          	or	a5,a5,a4
20002474:	00f62023          	sw	a5,0(a2)
20002478:	01d44583          	lbu	a1,29(s0)
2000247c:	01c44683          	lbu	a3,28(s0)
20002480:	01e44783          	lbu	a5,30(s0)
20002484:	01f44703          	lbu	a4,31(s0)
20002488:	00859593          	slli	a1,a1,0x8
2000248c:	00d5e5b3          	or	a1,a1,a3
20002490:	01079793          	slli	a5,a5,0x10
20002494:	00b7e7b3          	or	a5,a5,a1
20002498:	01871593          	slli	a1,a4,0x18
2000249c:	00f5e5b3          	or	a1,a1,a5
200024a0:	00050913          	mv	s2,a0
200024a4:	00c10993          	addi	s3,sp,12
200024a8:	6e1030ef          	jal	ra,20006388 <f_lseek>
200024ac:	02000613          	li	a2,32
200024b0:	00098693          	mv	a3,s3
200024b4:	01010593          	addi	a1,sp,16
200024b8:	00090513          	mv	a0,s2
200024bc:	2b1030ef          	jal	ra,20005f6c <f_read>
200024c0:	03344783          	lbu	a5,51(s0)
200024c4:	02f44703          	lbu	a4,47(s0)
200024c8:	03244503          	lbu	a0,50(s0)
200024cc:	02e44583          	lbu	a1,46(s0)
200024d0:	00879793          	slli	a5,a5,0x8
200024d4:	00871713          	slli	a4,a4,0x8
200024d8:	00b765b3          	or	a1,a4,a1
200024dc:	00a7e533          	or	a0,a5,a0
200024e0:	ac5ff0ef          	jal	ra,20001fa4 <__mulsi3>
200024e4:	02144683          	lbu	a3,33(s0)
200024e8:	02044583          	lbu	a1,32(s0)
200024ec:	02244703          	lbu	a4,34(s0)
200024f0:	02344783          	lbu	a5,35(s0)
200024f4:	00869693          	slli	a3,a3,0x8
200024f8:	00b6e6b3          	or	a3,a3,a1
200024fc:	01071713          	slli	a4,a4,0x10
20002500:	00d76733          	or	a4,a4,a3
20002504:	01879793          	slli	a5,a5,0x18
20002508:	00e7e7b3          	or	a5,a5,a4
2000250c:	00f505b3          	add	a1,a0,a5
20002510:	00090513          	mv	a0,s2
20002514:	675030ef          	jal	ra,20006388 <f_lseek>
20002518:	00098693          	mv	a3,s3
2000251c:	02800613          	li	a2,40
20002520:	03010593          	addi	a1,sp,48
20002524:	00090513          	mv	a0,s2
20002528:	245030ef          	jal	ra,20005f6c <f_read>
2000252c:	04412503          	lw	a0,68(sp)
20002530:	c4dfd0ef          	jal	ra,2000017c <malloc>
20002534:	04012583          	lw	a1,64(sp)
20002538:	00050a93          	mv	s5,a0
2000253c:	00090513          	mv	a0,s2
20002540:	649030ef          	jal	ra,20006388 <f_lseek>
20002544:	04412603          	lw	a2,68(sp)
20002548:	00098693          	mv	a3,s3
2000254c:	000a8593          	mv	a1,s5
20002550:	00090513          	mv	a0,s2
20002554:	219030ef          	jal	ra,20005f6c <f_read>
20002558:	03144783          	lbu	a5,49(s0)
2000255c:	03044703          	lbu	a4,48(s0)
20002560:	00879793          	slli	a5,a5,0x8
20002564:	00e7e7b3          	or	a5,a5,a4
20002568:	0e078c63          	beqz	a5,20002660 <_Z29ParseELFHeaderAndLoadSectionsP3FILP16SElfFileHeader32Rm+0x2a8>
2000256c:	00000493          	li	s1,0
20002570:	05810a13          	addi	s4,sp,88
20002574:	00007b17          	auipc	s6,0x7
20002578:	d14b0b13          	addi	s6,s6,-748 # 20009288 <__clz_tab+0x144>
2000257c:	0240006f          	j	200025a0 <_Z29ParseELFHeaderAndLoadSectionsP3FILP16SElfFileHeader32Rm+0x1e8>
20002580:	03144783          	lbu	a5,49(s0)
20002584:	03044703          	lbu	a4,48(s0)
20002588:	00148493          	addi	s1,s1,1
2000258c:	00879793          	slli	a5,a5,0x8
20002590:	01049493          	slli	s1,s1,0x10
20002594:	0104d493          	srli	s1,s1,0x10
20002598:	00e7e7b3          	or	a5,a5,a4
2000259c:	0cf4f263          	bgeu	s1,a5,20002660 <_Z29ParseELFHeaderAndLoadSectionsP3FILP16SElfFileHeader32Rm+0x2a8>
200025a0:	02f44783          	lbu	a5,47(s0)
200025a4:	02e44503          	lbu	a0,46(s0)
200025a8:	00048593          	mv	a1,s1
200025ac:	00879793          	slli	a5,a5,0x8
200025b0:	00a7e533          	or	a0,a5,a0
200025b4:	9f1ff0ef          	jal	ra,20001fa4 <__mulsi3>
200025b8:	02144683          	lbu	a3,33(s0)
200025bc:	02044583          	lbu	a1,32(s0)
200025c0:	02244703          	lbu	a4,34(s0)
200025c4:	02344783          	lbu	a5,35(s0)
200025c8:	00869693          	slli	a3,a3,0x8
200025cc:	00b6e6b3          	or	a3,a3,a1
200025d0:	01071713          	slli	a4,a4,0x10
200025d4:	00d76733          	or	a4,a4,a3
200025d8:	01879793          	slli	a5,a5,0x18
200025dc:	00e7e7b3          	or	a5,a5,a4
200025e0:	00f505b3          	add	a1,a0,a5
200025e4:	00090513          	mv	a0,s2
200025e8:	5a1030ef          	jal	ra,20006388 <f_lseek>
200025ec:	00098693          	mv	a3,s3
200025f0:	02800613          	li	a2,40
200025f4:	000a0593          	mv	a1,s4
200025f8:	00090513          	mv	a0,s2
200025fc:	171030ef          	jal	ra,20005f6c <f_read>
20002600:	06012783          	lw	a5,96(sp)
20002604:	0077f793          	andi	a5,a5,7
20002608:	f6078ce3          	beqz	a5,20002580 <_Z29ParseELFHeaderAndLoadSectionsP3FILP16SElfFileHeader32Rm+0x1c8>
2000260c:	06c12783          	lw	a5,108(sp)
20002610:	f60788e3          	beqz	a5,20002580 <_Z29ParseELFHeaderAndLoadSectionsP3FILP16SElfFileHeader32Rm+0x1c8>
20002614:	06812583          	lw	a1,104(sp)
20002618:	00090513          	mv	a0,s2
2000261c:	06412b83          	lw	s7,100(sp)
20002620:	569030ef          	jal	ra,20006388 <f_lseek>
20002624:	000b0513          	mv	a0,s6
20002628:	0cc010ef          	jal	ra,200036f4 <_Z8EchoUARTPKc>
2000262c:	06c12603          	lw	a2,108(sp)
20002630:	00098693          	mv	a3,s3
20002634:	000b8593          	mv	a1,s7
20002638:	00090513          	mv	a0,s2
2000263c:	131030ef          	jal	ra,20005f6c <f_read>
20002640:	03144783          	lbu	a5,49(s0)
20002644:	03044703          	lbu	a4,48(s0)
20002648:	00148493          	addi	s1,s1,1
2000264c:	00879793          	slli	a5,a5,0x8
20002650:	01049493          	slli	s1,s1,0x10
20002654:	0104d493          	srli	s1,s1,0x10
20002658:	00e7e7b3          	or	a5,a5,a4
2000265c:	f4f4e2e3          	bltu	s1,a5,200025a0 <_Z29ParseELFHeaderAndLoadSectionsP3FILP16SElfFileHeader32Rm+0x1e8>
20002660:	0a812403          	lw	s0,168(sp)
20002664:	0ac12083          	lw	ra,172(sp)
20002668:	0a412483          	lw	s1,164(sp)
2000266c:	0a012903          	lw	s2,160(sp)
20002670:	09c12983          	lw	s3,156(sp)
20002674:	09812a03          	lw	s4,152(sp)
20002678:	09012b03          	lw	s6,144(sp)
2000267c:	08c12b83          	lw	s7,140(sp)
20002680:	000a8513          	mv	a0,s5
20002684:	09412a83          	lw	s5,148(sp)
20002688:	0b010113          	addi	sp,sp,176
2000268c:	b01fd06f          	j	2000018c <free>

20002690 <_Z13LoadAndRunELFi>:
20002690:	00251793          	slli	a5,a0,0x2
20002694:	00009517          	auipc	a0,0x9
20002698:	95052503          	lw	a0,-1712(a0) # 2000afe4 <_GLOBAL_OFFSET_TABLE_+0x3c>
2000269c:	00f50533          	add	a0,a0,a5
200026a0:	d9010113          	addi	sp,sp,-624
200026a4:	00052583          	lw	a1,0(a0)
200026a8:	26812423          	sw	s0,616(sp)
200026ac:	03c10413          	addi	s0,sp,60
200026b0:	00100613          	li	a2,1
200026b4:	00040513          	mv	a0,s0
200026b8:	26112623          	sw	ra,620(sp)
200026bc:	26912223          	sw	s1,612(sp)
200026c0:	77c030ef          	jal	ra,20005e3c <f_open>
200026c4:	06051063          	bnez	a0,20002724 <_Z13LoadAndRunELFi+0x94>
200026c8:	00810493          	addi	s1,sp,8
200026cc:	00010693          	mv	a3,sp
200026d0:	03400613          	li	a2,52
200026d4:	00048593          	mv	a1,s1
200026d8:	00040513          	mv	a0,s0
200026dc:	091030ef          	jal	ra,20005f6c <f_read>
200026e0:	00410613          	addi	a2,sp,4
200026e4:	00048593          	mv	a1,s1
200026e8:	00040513          	mv	a0,s0
200026ec:	ccdff0ef          	jal	ra,200023b8 <_Z29ParseELFHeaderAndLoadSectionsP3FILP16SElfFileHeader32Rm>
200026f0:	00040513          	mv	a0,s0
200026f4:	329030ef          	jal	ra,2000621c <f_close>
200026f8:	00007517          	auipc	a0,0x7
200026fc:	b9450513          	addi	a0,a0,-1132 # 2000928c <__clz_tab+0x148>
20002700:	7f5000ef          	jal	ra,200036f4 <_Z8EchoUARTPKc>
20002704:	00412503          	lw	a0,4(sp)
20002708:	c29ff0ef          	jal	ra,20002330 <_Z9LaunchELFm>
2000270c:	00000513          	li	a0,0
20002710:	26c12083          	lw	ra,620(sp)
20002714:	26812403          	lw	s0,616(sp)
20002718:	26412483          	lw	s1,612(sp)
2000271c:	27010113          	addi	sp,sp,624
20002720:	00008067          	ret
20002724:	00009797          	auipc	a5,0x9
20002728:	8e07a783          	lw	a5,-1824(a5) # 2000b004 <_GLOBAL_OFFSET_TABLE_+0x5c>
2000272c:	00251513          	slli	a0,a0,0x2
20002730:	00a78533          	add	a0,a5,a0
20002734:	00052503          	lw	a0,0(a0)
20002738:	7bd000ef          	jal	ra,200036f4 <_Z8EchoUARTPKc>
2000273c:	fff00513          	li	a0,-1
20002740:	fd1ff06f          	j	20002710 <_Z13LoadAndRunELFi+0x80>

20002744 <_Z7ListDirPKc>:
20002744:	e8010113          	addi	sp,sp,-384
20002748:	16812c23          	sw	s0,376(sp)
2000274c:	00810413          	addi	s0,sp,8
20002750:	17512223          	sw	s5,356(sp)
20002754:	00050593          	mv	a1,a0
20002758:	00009a97          	auipc	s5,0x9
2000275c:	870aaa83          	lw	s5,-1936(s5) # 2000afc8 <_GLOBAL_OFFSET_TABLE_+0x20>
20002760:	00040513          	mv	a0,s0
20002764:	16112e23          	sw	ra,380(sp)
20002768:	16912a23          	sw	s1,372(sp)
2000276c:	17212823          	sw	s2,368(sp)
20002770:	17312623          	sw	s3,364(sp)
20002774:	17412423          	sw	s4,360(sp)
20002778:	17612023          	sw	s6,352(sp)
2000277c:	15712e23          	sw	s7,348(sp)
20002780:	15812c23          	sw	s8,344(sp)
20002784:	15912a23          	sw	s9,340(sp)
20002788:	000aa023          	sw	zero,0(s5)
2000278c:	18c040ef          	jal	ra,20006918 <f_opendir>
20002790:	0c051e63          	bnez	a0,2000286c <_Z7ListDirPKc+0x128>
20002794:	003a6b37          	lui	s6,0x3a6
20002798:	03810913          	addi	s2,sp,56
2000279c:	04e10993          	addi	s3,sp,78
200027a0:	00007a17          	auipc	s4,0x7
200027a4:	af8a0a13          	addi	s4,s4,-1288 # 20009298 <__clz_tab+0x154>
200027a8:	00009b97          	auipc	s7,0x9
200027ac:	83cbab83          	lw	s7,-1988(s7) # 2000afe4 <_GLOBAL_OFFSET_TABLE_+0x3c>
200027b0:	473b0b13          	addi	s6,s6,1139 # 3a6473 <_STACK_SIZE+0x3a6283>
200027b4:	00090593          	mv	a1,s2
200027b8:	00040513          	mv	a0,s0
200027bc:	2d0040ef          	jal	ra,20006a8c <f_readdir>
200027c0:	04050063          	beqz	a0,20002800 <_Z7ListDirPKc+0xbc>
200027c4:	00040513          	mv	a0,s0
200027c8:	254040ef          	jal	ra,20006a1c <f_closedir>
200027cc:	17c12083          	lw	ra,380(sp)
200027d0:	17812403          	lw	s0,376(sp)
200027d4:	17412483          	lw	s1,372(sp)
200027d8:	17012903          	lw	s2,368(sp)
200027dc:	16c12983          	lw	s3,364(sp)
200027e0:	16812a03          	lw	s4,360(sp)
200027e4:	16412a83          	lw	s5,356(sp)
200027e8:	16012b03          	lw	s6,352(sp)
200027ec:	15c12b83          	lw	s7,348(sp)
200027f0:	15812c03          	lw	s8,344(sp)
200027f4:	15412c83          	lw	s9,340(sp)
200027f8:	18010113          	addi	sp,sp,384
200027fc:	00008067          	ret
20002800:	02012783          	lw	a5,32(sp)
20002804:	000a0593          	mv	a1,s4
20002808:	00098513          	mv	a0,s3
2000280c:	fa078ce3          	beqz	a5,200027c4 <_Z7ListDirPKc+0x80>
20002810:	9fdfe0ef          	jal	ra,2000120c <strstr>
20002814:	00050793          	mv	a5,a0
20002818:	00098513          	mv	a0,s3
2000281c:	f8078ce3          	beqz	a5,200027b4 <_Z7ListDirPKc+0x70>
20002820:	d44fe0ef          	jal	ra,20000d64 <strlen>
20002824:	000aac83          	lw	s9,0(s5)
20002828:	00050c13          	mv	s8,a0
2000282c:	00450513          	addi	a0,a0,4
20002830:	94dfd0ef          	jal	ra,2000017c <malloc>
20002834:	002c9793          	slli	a5,s9,0x2
20002838:	00050493          	mv	s1,a0
2000283c:	00fb87b3          	add	a5,s7,a5
20002840:	0097a023          	sw	s1,0(a5)
20002844:	0164a023          	sw	s6,0(s1)
20002848:	001c0613          	addi	a2,s8,1
2000284c:	00098593          	mv	a1,s3
20002850:	00350513          	addi	a0,a0,3
20002854:	018484b3          	add	s1,s1,s8
20002858:	001c8c93          	addi	s9,s9,1
2000285c:	960fe0ef          	jal	ra,200009bc <memcpy>
20002860:	000481a3          	sb	zero,3(s1)
20002864:	019aa023          	sw	s9,0(s5)
20002868:	f4dff06f          	j	200027b4 <_Z7ListDirPKc+0x70>
2000286c:	00008797          	auipc	a5,0x8
20002870:	7987a783          	lw	a5,1944(a5) # 2000b004 <_GLOBAL_OFFSET_TABLE_+0x5c>
20002874:	00251513          	slli	a0,a0,0x2
20002878:	00a78533          	add	a0,a5,a0
2000287c:	00052503          	lw	a0,0(a0)
20002880:	675000ef          	jal	ra,200036f4 <_Z8EchoUARTPKc>
20002884:	f49ff06f          	j	200027cc <_Z7ListDirPKc+0x88>

20002888 <main>:
20002888:	fb010113          	addi	sp,sp,-80
2000288c:	00007517          	auipc	a0,0x7
20002890:	a1450513          	addi	a0,a0,-1516 # 200092a0 <__clz_tab+0x15c>
20002894:	04112623          	sw	ra,76(sp)
20002898:	04812423          	sw	s0,72(sp)
2000289c:	04912223          	sw	s1,68(sp)
200028a0:	05212023          	sw	s2,64(sp)
200028a4:	03312e23          	sw	s3,60(sp)
200028a8:	03612823          	sw	s6,48(sp)
200028ac:	03712623          	sw	s7,44(sp)
200028b0:	03412c23          	sw	s4,56(sp)
200028b4:	03512a23          	sw	s5,52(sp)
200028b8:	03812423          	sw	s8,40(sp)
200028bc:	03912223          	sw	s9,36(sp)
200028c0:	03a12023          	sw	s10,32(sp)
200028c4:	01b12e23          	sw	s11,28(sp)
200028c8:	62d000ef          	jal	ra,200036f4 <_Z8EchoUARTPKc>
200028cc:	791000ef          	jal	ra,2000385c <_Z9ReadClockv>
200028d0:	03fb0637          	lui	a2,0x3fb0
200028d4:	00050413          	mv	s0,a0
200028d8:	00058493          	mv	s1,a1
200028dc:	00040537          	lui	a0,0x40
200028e0:	00000593          	li	a1,0
200028e4:	a00fe0ef          	jal	ra,20000ae4 <memset>
200028e8:	775000ef          	jal	ra,2000385c <_Z9ReadClockv>
200028ec:	00050793          	mv	a5,a0
200028f0:	40850533          	sub	a0,a0,s0
200028f4:	00a7b7b3          	sltu	a5,a5,a0
200028f8:	409585b3          	sub	a1,a1,s1
200028fc:	40f585b3          	sub	a1,a1,a5
20002900:	771000ef          	jal	ra,20003870 <_Z9ClockToMsy>
20002904:	00050593          	mv	a1,a0
20002908:	04000537          	lui	a0,0x4000
2000290c:	ec4ff0ef          	jal	ra,20001fd0 <__udivsi3>
20002910:	611000ef          	jal	ra,20003720 <_Z7EchoHexm>
20002914:	00007517          	auipc	a0,0x7
20002918:	9a050513          	addi	a0,a0,-1632 # 200092b4 <__clz_tab+0x170>
2000291c:	5d9000ef          	jal	ra,200036f4 <_Z8EchoUARTPKc>
20002920:	00008b97          	auipc	s7,0x8
20002924:	690bab83          	lw	s7,1680(s7) # 2000afb0 <_GLOBAL_OFFSET_TABLE_+0x8>
20002928:	000ba783          	lw	a5,0(s7)
2000292c:	00007517          	auipc	a0,0x7
20002930:	99050513          	addi	a0,a0,-1648 # 200092bc <__clz_tab+0x178>
20002934:	00008917          	auipc	s2,0x8
20002938:	6ac92903          	lw	s2,1708(s2) # 2000afe0 <_GLOBAL_OFFSET_TABLE_+0x38>
2000293c:	0007c783          	lbu	a5,0(a5)
20002940:	00008b17          	auipc	s6,0x8
20002944:	694b2b03          	lw	s6,1684(s6) # 2000afd4 <_GLOBAL_OFFSET_TABLE_+0x2c>
20002948:	00100993          	li	s3,1
2000294c:	0ff7f793          	andi	a5,a5,255
20002950:	00f92023          	sw	a5,0(s2)
20002954:	00fb2023          	sw	a5,0(s6)
20002958:	59d000ef          	jal	ra,200036f4 <_Z8EchoUARTPKc>
2000295c:	00007517          	auipc	a0,0x7
20002960:	96850513          	addi	a0,a0,-1688 # 200092c4 <__clz_tab+0x180>
20002964:	591000ef          	jal	ra,200036f4 <_Z8EchoUARTPKc>
20002968:	00007517          	auipc	a0,0x7
2000296c:	97c50513          	addi	a0,a0,-1668 # 200092e4 <__clz_tab+0x1a0>
20002970:	585000ef          	jal	ra,200036f4 <_Z8EchoUARTPKc>
20002974:	00007517          	auipc	a0,0x7
20002978:	99050513          	addi	a0,a0,-1648 # 20009304 <__clz_tab+0x1c0>
2000297c:	579000ef          	jal	ra,200036f4 <_Z8EchoUARTPKc>
20002980:	00007517          	auipc	a0,0x7
20002984:	9a450513          	addi	a0,a0,-1628 # 20009324 <__clz_tab+0x1e0>
20002988:	56d000ef          	jal	ra,200036f4 <_Z8EchoUARTPKc>
2000298c:	00007517          	auipc	a0,0x7
20002990:	9b850513          	addi	a0,a0,-1608 # 20009344 <__clz_tab+0x200>
20002994:	561000ef          	jal	ra,200036f4 <_Z8EchoUARTPKc>
20002998:	00007517          	auipc	a0,0x7
2000299c:	9cc50513          	addi	a0,a0,-1588 # 20009364 <__clz_tab+0x220>
200029a0:	555000ef          	jal	ra,200036f4 <_Z8EchoUARTPKc>
200029a4:	00007517          	auipc	a0,0x7
200029a8:	9e050513          	addi	a0,a0,-1568 # 20009384 <__clz_tab+0x240>
200029ac:	549000ef          	jal	ra,200036f4 <_Z8EchoUARTPKc>
200029b0:	00007517          	auipc	a0,0x7
200029b4:	9f450513          	addi	a0,a0,-1548 # 200093a4 <__clz_tab+0x260>
200029b8:	53d000ef          	jal	ra,200036f4 <_Z8EchoUARTPKc>
200029bc:	00007517          	auipc	a0,0x7
200029c0:	a0850513          	addi	a0,a0,-1528 # 200093c4 <__clz_tab+0x280>
200029c4:	531000ef          	jal	ra,200036f4 <_Z8EchoUARTPKc>
200029c8:	00007517          	auipc	a0,0x7
200029cc:	a1c50513          	addi	a0,a0,-1508 # 200093e4 <__clz_tab+0x2a0>
200029d0:	525000ef          	jal	ra,200036f4 <_Z8EchoUARTPKc>
200029d4:	00007517          	auipc	a0,0x7
200029d8:	a3050513          	addi	a0,a0,-1488 # 20009404 <__clz_tab+0x2c0>
200029dc:	519000ef          	jal	ra,200036f4 <_Z8EchoUARTPKc>
200029e0:	00007517          	auipc	a0,0x7
200029e4:	8e450513          	addi	a0,a0,-1820 # 200092c4 <__clz_tab+0x180>
200029e8:	50d000ef          	jal	ra,200036f4 <_Z8EchoUARTPKc>
200029ec:	00007517          	auipc	a0,0x7
200029f0:	a3850513          	addi	a0,a0,-1480 # 20009424 <__clz_tab+0x2e0>
200029f4:	501000ef          	jal	ra,200036f4 <_Z8EchoUARTPKc>
200029f8:	00100613          	li	a2,1
200029fc:	00007597          	auipc	a1,0x7
20002a00:	a6458593          	addi	a1,a1,-1436 # 20009460 <__clz_tab+0x31c>
20002a04:	00008517          	auipc	a0,0x8
20002a08:	60452503          	lw	a0,1540(a0) # 2000b008 <_GLOBAL_OFFSET_TABLE_+0x60>
20002a0c:	390030ef          	jal	ra,20005d9c <f_mount>
20002a10:	20051c63          	bnez	a0,20002c28 <main+0x3a0>
20002a14:	00008797          	auipc	a5,0x8
20002a18:	5c47a783          	lw	a5,1476(a5) # 2000afd8 <_GLOBAL_OFFSET_TABLE_+0x30>
20002a1c:	0007a703          	lw	a4,0(a5)
20002a20:	00008797          	auipc	a5,0x8
20002a24:	5987a783          	lw	a5,1432(a5) # 2000afb8 <_GLOBAL_OFFSET_TABLE_+0x10>
20002a28:	0007a783          	lw	a5,0(a5)
20002a2c:	00a71693          	slli	a3,a4,0xa
20002a30:	1016e693          	ori	a3,a3,257
20002a34:	01675713          	srli	a4,a4,0x16
20002a38:	00d7a023          	sw	a3,0(a5)
20002a3c:	00a71713          	slli	a4,a4,0xa
20002a40:	00008697          	auipc	a3,0x8
20002a44:	5ac6a683          	lw	a3,1452(a3) # 2000afec <_GLOBAL_OFFSET_TABLE_+0x44>
20002a48:	0006a683          	lw	a3,0(a3)
20002a4c:	12176713          	ori	a4,a4,289
20002a50:	00e7a023          	sw	a4,0(a5)
20002a54:	02700713          	li	a4,39
20002a58:	00e7a023          	sw	a4,0(a5)
20002a5c:	0006a023          	sw	zero,0(a3)
20002a60:	00001737          	lui	a4,0x1
20002a64:	c8100693          	li	a3,-895
20002a68:	00d7a023          	sw	a3,0(a5)
20002a6c:	c9170693          	addi	a3,a4,-879 # c91 <_STACK_SIZE+0xaa1>
20002a70:	00d7a023          	sw	a3,0(a5)
20002a74:	020406b7          	lui	a3,0x2040
20002a78:	d0168693          	addi	a3,a3,-767 # 203fd01 <_STACK_SIZE+0x203fb11>
20002a7c:	00d7a023          	sw	a3,0(a5)
20002a80:	92170713          	addi	a4,a4,-1759
20002a84:	00e7a023          	sw	a4,0(a5)
20002a88:	00040737          	lui	a4,0x40
20002a8c:	c1270713          	addi	a4,a4,-1006 # 3fc12 <_STACK_SIZE+0x3fa22>
20002a90:	00e7a023          	sw	a4,0(a5)
20002a94:	02200713          	li	a4,34
20002a98:	00e7a023          	sw	a4,0(a5)
20002a9c:	5c1000ef          	jal	ra,2000385c <_Z9ReadClockv>
20002aa0:	5d1000ef          	jal	ra,20003870 <_Z9ClockToMsy>
20002aa4:	00a12623          	sw	a0,12(sp)
20002aa8:	00000493          	li	s1,0
20002aac:	7d9000ef          	jal	ra,20003a84 <_Z8InitFontv>
20002ab0:	0ff00a93          	li	s5,255
20002ab4:	00008a17          	auipc	s4,0x8
20002ab8:	544a2a03          	lw	s4,1348(s4) # 2000aff8 <_GLOBAL_OFFSET_TABLE_+0x50>
20002abc:	00008d97          	auipc	s11,0x8
20002ac0:	504dad83          	lw	s11,1284(s11) # 2000afc0 <_GLOBAL_OFFSET_TABLE_+0x18>
20002ac4:	00008417          	auipc	s0,0x8
20002ac8:	4e842403          	lw	s0,1256(s0) # 2000afac <_GLOBAL_OFFSET_TABLE_+0x4>
20002acc:	00008d17          	auipc	s10,0x8
20002ad0:	4fcd2d03          	lw	s10,1276(s10) # 2000afc8 <_GLOBAL_OFFSET_TABLE_+0x20>
20002ad4:	02000c93          	li	s9,32
20002ad8:	04000c13          	li	s8,64
20002adc:	01c0006f          	j	20002af8 <main+0x270>
20002ae0:	04049663          	bnez	s1,20002b2c <main+0x2a4>
20002ae4:	00c12783          	lw	a5,12(sp)
20002ae8:	40f50533          	sub	a0,a0,a5
20002aec:	5dc00793          	li	a5,1500
20002af0:	10a7e863          	bltu	a5,a0,20002c00 <main+0x378>
20002af4:	d88ff0ef          	jal	ra,2000207c <_Z14SubmitGPUFramev>
20002af8:	000a2783          	lw	a5,0(s4)
20002afc:	0007a783          	lw	a5,0(a5)
20002b00:	00078e63          	beqz	a5,20002b1c <main+0x294>
20002b04:	000da783          	lw	a5,0(s11)
20002b08:	00d00713          	li	a4,13
20002b0c:	0007c783          	lbu	a5,0(a5)
20002b10:	0ff7f793          	andi	a5,a5,255
20002b14:	08e78463          	beq	a5,a4,20002b9c <main+0x314>
20002b18:	00078a93          	mv	s5,a5
20002b1c:	541000ef          	jal	ra,2000385c <_Z9ReadClockv>
20002b20:	551000ef          	jal	ra,20003870 <_Z9ClockToMsy>
20002b24:	fa099ee3          	bnez	s3,20002ae0 <main+0x258>
20002b28:	fc0486e3          	beqz	s1,20002af4 <main+0x26c>
20002b2c:	000ba783          	lw	a5,0(s7)
20002b30:	00092703          	lw	a4,0(s2)
20002b34:	00042683          	lw	a3,0(s0)
20002b38:	0007c783          	lbu	a5,0(a5)
20002b3c:	0ff7f793          	andi	a5,a5,255
20002b40:	00fb2023          	sw	a5,0(s6)
20002b44:	00e7c733          	xor	a4,a5,a4
20002b48:	09970e63          	beq	a4,s9,20002be4 <main+0x35c>
20002b4c:	07870e63          	beq	a4,s8,20002bc8 <main+0x340>
20002b50:	01000613          	li	a2,16
20002b54:	06c70063          	beq	a4,a2,20002bb4 <main+0x32c>
20002b58:	00f92023          	sw	a5,0(s2)
20002b5c:	00000713          	li	a4,0
20002b60:	000d2783          	lw	a5,0(s10)
20002b64:	02f6c063          	blt	a3,a5,20002b84 <main+0x2fc>
20002b68:	00042023          	sw	zero,0(s0)
20002b6c:	02070463          	beqz	a4,20002b94 <main+0x30c>
20002b70:	eb0ff0ef          	jal	ra,20002220 <_Z22SubmitBlankFrameNoWaitv>
20002b74:	00042503          	lw	a0,0(s0)
20002b78:	00100493          	li	s1,1
20002b7c:	b15ff0ef          	jal	ra,20002690 <_Z13LoadAndRunELFi>
20002b80:	f75ff06f          	j	20002af4 <main+0x26c>
20002b84:	fe06d4e3          	bgez	a3,20002b6c <main+0x2e4>
20002b88:	fff78793          	addi	a5,a5,-1
20002b8c:	00f42023          	sw	a5,0(s0)
20002b90:	fe0710e3          	bnez	a4,20002b70 <main+0x2e8>
20002b94:	00100493          	li	s1,1
20002b98:	f5dff06f          	j	20002af4 <main+0x26c>
20002b9c:	04200793          	li	a5,66
20002ba0:	06fa8e63          	beq	s5,a5,20002c1c <main+0x394>
20002ba4:	05200793          	li	a5,82
20002ba8:	06fa8463          	beq	s5,a5,20002c10 <main+0x388>
20002bac:	00d00a93          	li	s5,13
20002bb0:	f6dff06f          	j	20002b1c <main+0x294>
20002bb4:	0047d713          	srli	a4,a5,0x4
20002bb8:	00174713          	xori	a4,a4,1
20002bbc:	00177713          	andi	a4,a4,1
20002bc0:	00f92023          	sw	a5,0(s2)
20002bc4:	f9dff06f          	j	20002b60 <main+0x2d8>
20002bc8:	00f92023          	sw	a5,0(s2)
20002bcc:	0407f793          	andi	a5,a5,64
20002bd0:	06079c63          	bnez	a5,20002c48 <main+0x3c0>
20002bd4:	fff68693          	addi	a3,a3,-1
20002bd8:	00d42023          	sw	a3,0(s0)
20002bdc:	00000713          	li	a4,0
20002be0:	f81ff06f          	j	20002b60 <main+0x2d8>
20002be4:	00f92023          	sw	a5,0(s2)
20002be8:	0207f793          	andi	a5,a5,32
20002bec:	04079e63          	bnez	a5,20002c48 <main+0x3c0>
20002bf0:	00168693          	addi	a3,a3,1
20002bf4:	00d42023          	sw	a3,0(s0)
20002bf8:	00000713          	li	a4,0
20002bfc:	f65ff06f          	j	20002b60 <main+0x2d8>
20002c00:	00007517          	auipc	a0,0x7
20002c04:	86050513          	addi	a0,a0,-1952 # 20009460 <__clz_tab+0x31c>
20002c08:	b3dff0ef          	jal	ra,20002744 <_Z7ListDirPKc>
20002c0c:	f21ff06f          	j	20002b2c <main+0x2a4>
20002c10:	f40ff0ef          	jal	ra,20002350 <_Z13RunBinaryBlobv>
20002c14:	00d00a93          	li	s5,13
20002c18:	f05ff06f          	j	20002b1c <main+0x294>
20002c1c:	e6cff0ef          	jal	ra,20002288 <_Z14LoadBinaryBlobv>
20002c20:	00d00a93          	li	s5,13
20002c24:	ef9ff06f          	j	20002b1c <main+0x294>
20002c28:	00008797          	auipc	a5,0x8
20002c2c:	3dc7a783          	lw	a5,988(a5) # 2000b004 <_GLOBAL_OFFSET_TABLE_+0x5c>
20002c30:	00251513          	slli	a0,a0,0x2
20002c34:	00a78533          	add	a0,a5,a0
20002c38:	00052503          	lw	a0,0(a0)
20002c3c:	00000993          	li	s3,0
20002c40:	2b5000ef          	jal	ra,200036f4 <_Z8EchoUARTPKc>
20002c44:	dd1ff06f          	j	20002a14 <main+0x18c>
20002c48:	00000713          	li	a4,0
20002c4c:	f15ff06f          	j	20002b60 <main+0x2d8>

20002c50 <_GLOBAL__sub_I_rom.cpp>:
20002c50:	00008797          	auipc	a5,0x8
20002c54:	36c7a783          	lw	a5,876(a5) # 2000afbc <_GLOBAL_OFFSET_TABLE_+0x14>
20002c58:	0007a783          	lw	a5,0(a5)
20002c5c:	00008717          	auipc	a4,0x8
20002c60:	39072703          	lw	a4,912(a4) # 2000afec <_GLOBAL_OFFSET_TABLE_+0x44>
20002c64:	fe078793          	addi	a5,a5,-32
20002c68:	00f72023          	sw	a5,0(a4)
20002c6c:	00008067          	ret

20002c70 <_Z9SDStrobe8v>:
20002c70:	00008067          	ret

20002c74 <_Z5SDCmd13SDCardCommandm>:
20002c74:	03f57613          	andi	a2,a0,63
20002c78:	01a61793          	slli	a5,a2,0x1a
20002c7c:	41f7d793          	srai	a5,a5,0x1f
20002c80:	0097f793          	andi	a5,a5,9
20002c84:	04066613          	ori	a2,a2,64
20002c88:	01278793          	addi	a5,a5,18
20002c8c:	00179793          	slli	a5,a5,0x1
20002c90:	00361713          	slli	a4,a2,0x3
20002c94:	00e7c733          	xor	a4,a5,a4
20002c98:	01871893          	slli	a7,a4,0x18
20002c9c:	0105d513          	srli	a0,a1,0x10
20002ca0:	0085d693          	srli	a3,a1,0x8
20002ca4:	4188d893          	srai	a7,a7,0x18
20002ca8:	0185d813          	srli	a6,a1,0x18
20002cac:	0ff57513          	andi	a0,a0,255
20002cb0:	0ff6f693          	andi	a3,a3,255
20002cb4:	0ff5f713          	andi	a4,a1,255
20002cb8:	0008d463          	bgez	a7,20002cc0 <_Z5SDCmd13SDCardCommandm+0x4c>
20002cbc:	0097c793          	xori	a5,a5,9
20002cc0:	00179793          	slli	a5,a5,0x1
20002cc4:	00461593          	slli	a1,a2,0x4
20002cc8:	00b7c5b3          	xor	a1,a5,a1
20002ccc:	01859593          	slli	a1,a1,0x18
20002cd0:	4185d593          	srai	a1,a1,0x18
20002cd4:	0005d663          	bgez	a1,20002ce0 <_Z5SDCmd13SDCardCommandm+0x6c>
20002cd8:	0097c793          	xori	a5,a5,9
20002cdc:	0ff7f793          	andi	a5,a5,255
20002ce0:	00179793          	slli	a5,a5,0x1
20002ce4:	0ff7f793          	andi	a5,a5,255
20002ce8:	00561593          	slli	a1,a2,0x5
20002cec:	00b7c5b3          	xor	a1,a5,a1
20002cf0:	01859593          	slli	a1,a1,0x18
20002cf4:	4185d593          	srai	a1,a1,0x18
20002cf8:	0005d463          	bgez	a1,20002d00 <_Z5SDCmd13SDCardCommandm+0x8c>
20002cfc:	0097c793          	xori	a5,a5,9
20002d00:	00179793          	slli	a5,a5,0x1
20002d04:	0ff7f793          	andi	a5,a5,255
20002d08:	00661593          	slli	a1,a2,0x6
20002d0c:	00b7c5b3          	xor	a1,a5,a1
20002d10:	01859593          	slli	a1,a1,0x18
20002d14:	4185d593          	srai	a1,a1,0x18
20002d18:	0005d463          	bgez	a1,20002d20 <_Z5SDCmd13SDCardCommandm+0xac>
20002d1c:	0097c793          	xori	a5,a5,9
20002d20:	00179793          	slli	a5,a5,0x1
20002d24:	0ff7f793          	andi	a5,a5,255
20002d28:	00761593          	slli	a1,a2,0x7
20002d2c:	00b7c5b3          	xor	a1,a5,a1
20002d30:	01859593          	slli	a1,a1,0x18
20002d34:	4185d593          	srai	a1,a1,0x18
20002d38:	0005d463          	bgez	a1,20002d40 <_Z5SDCmd13SDCardCommandm+0xcc>
20002d3c:	0097c793          	xori	a5,a5,9
20002d40:	00179793          	slli	a5,a5,0x1
20002d44:	0ff7f793          	andi	a5,a5,255
20002d48:	00f845b3          	xor	a1,a6,a5
20002d4c:	01859593          	slli	a1,a1,0x18
20002d50:	4185d593          	srai	a1,a1,0x18
20002d54:	0005d463          	bgez	a1,20002d5c <_Z5SDCmd13SDCardCommandm+0xe8>
20002d58:	0097c793          	xori	a5,a5,9
20002d5c:	00179793          	slli	a5,a5,0x1
20002d60:	0ff7f793          	andi	a5,a5,255
20002d64:	00181593          	slli	a1,a6,0x1
20002d68:	00b7c5b3          	xor	a1,a5,a1
20002d6c:	01859593          	slli	a1,a1,0x18
20002d70:	4185d593          	srai	a1,a1,0x18
20002d74:	0005d463          	bgez	a1,20002d7c <_Z5SDCmd13SDCardCommandm+0x108>
20002d78:	0097c793          	xori	a5,a5,9
20002d7c:	00179793          	slli	a5,a5,0x1
20002d80:	0ff7f793          	andi	a5,a5,255
20002d84:	00281593          	slli	a1,a6,0x2
20002d88:	00b7c5b3          	xor	a1,a5,a1
20002d8c:	01859593          	slli	a1,a1,0x18
20002d90:	4185d593          	srai	a1,a1,0x18
20002d94:	0005d463          	bgez	a1,20002d9c <_Z5SDCmd13SDCardCommandm+0x128>
20002d98:	0097c793          	xori	a5,a5,9
20002d9c:	00179793          	slli	a5,a5,0x1
20002da0:	0ff7f793          	andi	a5,a5,255
20002da4:	00381593          	slli	a1,a6,0x3
20002da8:	00b7c5b3          	xor	a1,a5,a1
20002dac:	01859593          	slli	a1,a1,0x18
20002db0:	4185d593          	srai	a1,a1,0x18
20002db4:	0005d463          	bgez	a1,20002dbc <_Z5SDCmd13SDCardCommandm+0x148>
20002db8:	0097c793          	xori	a5,a5,9
20002dbc:	00179793          	slli	a5,a5,0x1
20002dc0:	0ff7f793          	andi	a5,a5,255
20002dc4:	00481593          	slli	a1,a6,0x4
20002dc8:	00b7c5b3          	xor	a1,a5,a1
20002dcc:	01859593          	slli	a1,a1,0x18
20002dd0:	4185d593          	srai	a1,a1,0x18
20002dd4:	0005d463          	bgez	a1,20002ddc <_Z5SDCmd13SDCardCommandm+0x168>
20002dd8:	0097c793          	xori	a5,a5,9
20002ddc:	00179793          	slli	a5,a5,0x1
20002de0:	0ff7f793          	andi	a5,a5,255
20002de4:	00581593          	slli	a1,a6,0x5
20002de8:	00b7c5b3          	xor	a1,a5,a1
20002dec:	01859593          	slli	a1,a1,0x18
20002df0:	4185d593          	srai	a1,a1,0x18
20002df4:	0005d463          	bgez	a1,20002dfc <_Z5SDCmd13SDCardCommandm+0x188>
20002df8:	0097c793          	xori	a5,a5,9
20002dfc:	00179793          	slli	a5,a5,0x1
20002e00:	0ff7f793          	andi	a5,a5,255
20002e04:	00681593          	slli	a1,a6,0x6
20002e08:	00b7c5b3          	xor	a1,a5,a1
20002e0c:	01859593          	slli	a1,a1,0x18
20002e10:	4185d593          	srai	a1,a1,0x18
20002e14:	0005d463          	bgez	a1,20002e1c <_Z5SDCmd13SDCardCommandm+0x1a8>
20002e18:	0097c793          	xori	a5,a5,9
20002e1c:	00179793          	slli	a5,a5,0x1
20002e20:	0ff7f793          	andi	a5,a5,255
20002e24:	00781593          	slli	a1,a6,0x7
20002e28:	00b7c5b3          	xor	a1,a5,a1
20002e2c:	01859593          	slli	a1,a1,0x18
20002e30:	4185d593          	srai	a1,a1,0x18
20002e34:	0005d463          	bgez	a1,20002e3c <_Z5SDCmd13SDCardCommandm+0x1c8>
20002e38:	0097c793          	xori	a5,a5,9
20002e3c:	00179793          	slli	a5,a5,0x1
20002e40:	0ff7f793          	andi	a5,a5,255
20002e44:	00f545b3          	xor	a1,a0,a5
20002e48:	01859593          	slli	a1,a1,0x18
20002e4c:	4185d593          	srai	a1,a1,0x18
20002e50:	0005d463          	bgez	a1,20002e58 <_Z5SDCmd13SDCardCommandm+0x1e4>
20002e54:	0097c793          	xori	a5,a5,9
20002e58:	00179793          	slli	a5,a5,0x1
20002e5c:	0ff7f793          	andi	a5,a5,255
20002e60:	00151593          	slli	a1,a0,0x1
20002e64:	00b7c5b3          	xor	a1,a5,a1
20002e68:	01859593          	slli	a1,a1,0x18
20002e6c:	4185d593          	srai	a1,a1,0x18
20002e70:	0005d463          	bgez	a1,20002e78 <_Z5SDCmd13SDCardCommandm+0x204>
20002e74:	0097c793          	xori	a5,a5,9
20002e78:	00179793          	slli	a5,a5,0x1
20002e7c:	0ff7f793          	andi	a5,a5,255
20002e80:	00251593          	slli	a1,a0,0x2
20002e84:	00b7c5b3          	xor	a1,a5,a1
20002e88:	01859593          	slli	a1,a1,0x18
20002e8c:	4185d593          	srai	a1,a1,0x18
20002e90:	0005d463          	bgez	a1,20002e98 <_Z5SDCmd13SDCardCommandm+0x224>
20002e94:	0097c793          	xori	a5,a5,9
20002e98:	00179793          	slli	a5,a5,0x1
20002e9c:	0ff7f793          	andi	a5,a5,255
20002ea0:	00351593          	slli	a1,a0,0x3
20002ea4:	00b7c5b3          	xor	a1,a5,a1
20002ea8:	01859593          	slli	a1,a1,0x18
20002eac:	4185d593          	srai	a1,a1,0x18
20002eb0:	0005d463          	bgez	a1,20002eb8 <_Z5SDCmd13SDCardCommandm+0x244>
20002eb4:	0097c793          	xori	a5,a5,9
20002eb8:	00179793          	slli	a5,a5,0x1
20002ebc:	0ff7f793          	andi	a5,a5,255
20002ec0:	00451593          	slli	a1,a0,0x4
20002ec4:	00b7c5b3          	xor	a1,a5,a1
20002ec8:	01859593          	slli	a1,a1,0x18
20002ecc:	4185d593          	srai	a1,a1,0x18
20002ed0:	0005d463          	bgez	a1,20002ed8 <_Z5SDCmd13SDCardCommandm+0x264>
20002ed4:	0097c793          	xori	a5,a5,9
20002ed8:	00179793          	slli	a5,a5,0x1
20002edc:	0ff7f793          	andi	a5,a5,255
20002ee0:	00551593          	slli	a1,a0,0x5
20002ee4:	00b7c5b3          	xor	a1,a5,a1
20002ee8:	01859593          	slli	a1,a1,0x18
20002eec:	4185d593          	srai	a1,a1,0x18
20002ef0:	0005d463          	bgez	a1,20002ef8 <_Z5SDCmd13SDCardCommandm+0x284>
20002ef4:	0097c793          	xori	a5,a5,9
20002ef8:	00179793          	slli	a5,a5,0x1
20002efc:	0ff7f793          	andi	a5,a5,255
20002f00:	00651593          	slli	a1,a0,0x6
20002f04:	00b7c5b3          	xor	a1,a5,a1
20002f08:	01859593          	slli	a1,a1,0x18
20002f0c:	4185d593          	srai	a1,a1,0x18
20002f10:	0005d463          	bgez	a1,20002f18 <_Z5SDCmd13SDCardCommandm+0x2a4>
20002f14:	0097c793          	xori	a5,a5,9
20002f18:	00179793          	slli	a5,a5,0x1
20002f1c:	0ff7f793          	andi	a5,a5,255
20002f20:	00751593          	slli	a1,a0,0x7
20002f24:	00b7c5b3          	xor	a1,a5,a1
20002f28:	01859593          	slli	a1,a1,0x18
20002f2c:	4185d593          	srai	a1,a1,0x18
20002f30:	0005d463          	bgez	a1,20002f38 <_Z5SDCmd13SDCardCommandm+0x2c4>
20002f34:	0097c793          	xori	a5,a5,9
20002f38:	00179793          	slli	a5,a5,0x1
20002f3c:	0ff7f793          	andi	a5,a5,255
20002f40:	00f6c5b3          	xor	a1,a3,a5
20002f44:	01859593          	slli	a1,a1,0x18
20002f48:	4185d593          	srai	a1,a1,0x18
20002f4c:	0005d463          	bgez	a1,20002f54 <_Z5SDCmd13SDCardCommandm+0x2e0>
20002f50:	0097c793          	xori	a5,a5,9
20002f54:	00179793          	slli	a5,a5,0x1
20002f58:	0ff7f793          	andi	a5,a5,255
20002f5c:	00169593          	slli	a1,a3,0x1
20002f60:	00b7c5b3          	xor	a1,a5,a1
20002f64:	01859593          	slli	a1,a1,0x18
20002f68:	4185d593          	srai	a1,a1,0x18
20002f6c:	0005d463          	bgez	a1,20002f74 <_Z5SDCmd13SDCardCommandm+0x300>
20002f70:	0097c793          	xori	a5,a5,9
20002f74:	00179793          	slli	a5,a5,0x1
20002f78:	0ff7f793          	andi	a5,a5,255
20002f7c:	00269593          	slli	a1,a3,0x2
20002f80:	00b7c5b3          	xor	a1,a5,a1
20002f84:	01859593          	slli	a1,a1,0x18
20002f88:	4185d593          	srai	a1,a1,0x18
20002f8c:	0005d463          	bgez	a1,20002f94 <_Z5SDCmd13SDCardCommandm+0x320>
20002f90:	0097c793          	xori	a5,a5,9
20002f94:	00179793          	slli	a5,a5,0x1
20002f98:	0ff7f793          	andi	a5,a5,255
20002f9c:	00369593          	slli	a1,a3,0x3
20002fa0:	00b7c5b3          	xor	a1,a5,a1
20002fa4:	01859593          	slli	a1,a1,0x18
20002fa8:	4185d593          	srai	a1,a1,0x18
20002fac:	0005d463          	bgez	a1,20002fb4 <_Z5SDCmd13SDCardCommandm+0x340>
20002fb0:	0097c793          	xori	a5,a5,9
20002fb4:	00179793          	slli	a5,a5,0x1
20002fb8:	0ff7f793          	andi	a5,a5,255
20002fbc:	00469593          	slli	a1,a3,0x4
20002fc0:	00b7c5b3          	xor	a1,a5,a1
20002fc4:	01859593          	slli	a1,a1,0x18
20002fc8:	4185d593          	srai	a1,a1,0x18
20002fcc:	0005d463          	bgez	a1,20002fd4 <_Z5SDCmd13SDCardCommandm+0x360>
20002fd0:	0097c793          	xori	a5,a5,9
20002fd4:	00179793          	slli	a5,a5,0x1
20002fd8:	0ff7f793          	andi	a5,a5,255
20002fdc:	00569593          	slli	a1,a3,0x5
20002fe0:	00b7c5b3          	xor	a1,a5,a1
20002fe4:	01859593          	slli	a1,a1,0x18
20002fe8:	4185d593          	srai	a1,a1,0x18
20002fec:	0005d463          	bgez	a1,20002ff4 <_Z5SDCmd13SDCardCommandm+0x380>
20002ff0:	0097c793          	xori	a5,a5,9
20002ff4:	00179793          	slli	a5,a5,0x1
20002ff8:	0ff7f793          	andi	a5,a5,255
20002ffc:	00669593          	slli	a1,a3,0x6
20003000:	00b7c5b3          	xor	a1,a5,a1
20003004:	01859593          	slli	a1,a1,0x18
20003008:	4185d593          	srai	a1,a1,0x18
2000300c:	0005d463          	bgez	a1,20003014 <_Z5SDCmd13SDCardCommandm+0x3a0>
20003010:	0097c793          	xori	a5,a5,9
20003014:	00179793          	slli	a5,a5,0x1
20003018:	0ff7f793          	andi	a5,a5,255
2000301c:	00769593          	slli	a1,a3,0x7
20003020:	00b7c5b3          	xor	a1,a5,a1
20003024:	01859593          	slli	a1,a1,0x18
20003028:	4185d593          	srai	a1,a1,0x18
2000302c:	0005d463          	bgez	a1,20003034 <_Z5SDCmd13SDCardCommandm+0x3c0>
20003030:	0097c793          	xori	a5,a5,9
20003034:	00179793          	slli	a5,a5,0x1
20003038:	0ff7f793          	andi	a5,a5,255
2000303c:	00f745b3          	xor	a1,a4,a5
20003040:	01859593          	slli	a1,a1,0x18
20003044:	4185d593          	srai	a1,a1,0x18
20003048:	0005d463          	bgez	a1,20003050 <_Z5SDCmd13SDCardCommandm+0x3dc>
2000304c:	0097c793          	xori	a5,a5,9
20003050:	00179793          	slli	a5,a5,0x1
20003054:	0ff7f793          	andi	a5,a5,255
20003058:	00171593          	slli	a1,a4,0x1
2000305c:	00b7c5b3          	xor	a1,a5,a1
20003060:	01859593          	slli	a1,a1,0x18
20003064:	4185d593          	srai	a1,a1,0x18
20003068:	0005d463          	bgez	a1,20003070 <_Z5SDCmd13SDCardCommandm+0x3fc>
2000306c:	0097c793          	xori	a5,a5,9
20003070:	00179793          	slli	a5,a5,0x1
20003074:	0ff7f793          	andi	a5,a5,255
20003078:	00271593          	slli	a1,a4,0x2
2000307c:	00b7c5b3          	xor	a1,a5,a1
20003080:	01859593          	slli	a1,a1,0x18
20003084:	4185d593          	srai	a1,a1,0x18
20003088:	0005d463          	bgez	a1,20003090 <_Z5SDCmd13SDCardCommandm+0x41c>
2000308c:	0097c793          	xori	a5,a5,9
20003090:	00179793          	slli	a5,a5,0x1
20003094:	0ff7f793          	andi	a5,a5,255
20003098:	00371593          	slli	a1,a4,0x3
2000309c:	00b7c5b3          	xor	a1,a5,a1
200030a0:	01859593          	slli	a1,a1,0x18
200030a4:	4185d593          	srai	a1,a1,0x18
200030a8:	0005d463          	bgez	a1,200030b0 <_Z5SDCmd13SDCardCommandm+0x43c>
200030ac:	0097c793          	xori	a5,a5,9
200030b0:	00179793          	slli	a5,a5,0x1
200030b4:	0ff7f793          	andi	a5,a5,255
200030b8:	00471593          	slli	a1,a4,0x4
200030bc:	00b7c5b3          	xor	a1,a5,a1
200030c0:	01859593          	slli	a1,a1,0x18
200030c4:	4185d593          	srai	a1,a1,0x18
200030c8:	0005d463          	bgez	a1,200030d0 <_Z5SDCmd13SDCardCommandm+0x45c>
200030cc:	0097c793          	xori	a5,a5,9
200030d0:	00179793          	slli	a5,a5,0x1
200030d4:	0ff7f793          	andi	a5,a5,255
200030d8:	00571593          	slli	a1,a4,0x5
200030dc:	00b7c5b3          	xor	a1,a5,a1
200030e0:	01859593          	slli	a1,a1,0x18
200030e4:	4185d593          	srai	a1,a1,0x18
200030e8:	0005d463          	bgez	a1,200030f0 <_Z5SDCmd13SDCardCommandm+0x47c>
200030ec:	0097c793          	xori	a5,a5,9
200030f0:	00179793          	slli	a5,a5,0x1
200030f4:	0ff7f793          	andi	a5,a5,255
200030f8:	00671593          	slli	a1,a4,0x6
200030fc:	00b7c5b3          	xor	a1,a5,a1
20003100:	01859593          	slli	a1,a1,0x18
20003104:	4185d593          	srai	a1,a1,0x18
20003108:	0005d463          	bgez	a1,20003110 <_Z5SDCmd13SDCardCommandm+0x49c>
2000310c:	0097c793          	xori	a5,a5,9
20003110:	00179793          	slli	a5,a5,0x1
20003114:	0ff7f793          	andi	a5,a5,255
20003118:	00771593          	slli	a1,a4,0x7
2000311c:	00b7c5b3          	xor	a1,a5,a1
20003120:	01859593          	slli	a1,a1,0x18
20003124:	4185d593          	srai	a1,a1,0x18
20003128:	0005d463          	bgez	a1,20003130 <_Z5SDCmd13SDCardCommandm+0x4bc>
2000312c:	0097c793          	xori	a5,a5,9
20003130:	00008597          	auipc	a1,0x8
20003134:	e9c5a583          	lw	a1,-356(a1) # 2000afcc <_GLOBAL_OFFSET_TABLE_+0x24>
20003138:	0005a883          	lw	a7,0(a1)
2000313c:	fff00313          	li	t1,-1
20003140:	00179793          	slli	a5,a5,0x1
20003144:	00688023          	sb	t1,0(a7)
20003148:	0005a883          	lw	a7,0(a1)
2000314c:	0017e793          	ori	a5,a5,1
20003150:	0ff7f793          	andi	a5,a5,255
20003154:	00c88023          	sb	a2,0(a7)
20003158:	0005a603          	lw	a2,0(a1)
2000315c:	01060023          	sb	a6,0(a2) # 3fb0000 <_STACK_SIZE+0x3fafe10>
20003160:	0005a603          	lw	a2,0(a1)
20003164:	00a60023          	sb	a0,0(a2)
20003168:	0005a603          	lw	a2,0(a1)
2000316c:	00d60023          	sb	a3,0(a2)
20003170:	0005a683          	lw	a3,0(a1)
20003174:	00e68023          	sb	a4,0(a3)
20003178:	0005a703          	lw	a4,0(a1)
2000317c:	00f70023          	sb	a5,0(a4)
20003180:	00008067          	ret

20003184 <_Z6SDIdlev>:
20003184:	ff010113          	addi	sp,sp,-16
20003188:	00912223          	sw	s1,4(sp)
2000318c:	00112623          	sw	ra,12(sp)
20003190:	00812423          	sw	s0,8(sp)
20003194:	00000493          	li	s1,0
20003198:	304494f3          	csrrw	s1,mie,s1
2000319c:	00000593          	li	a1,0
200031a0:	00000513          	li	a0,0
200031a4:	ad1ff0ef          	jal	ra,20002c74 <_Z5SDCmd13SDCardCommandm>
200031a8:	000107b7          	lui	a5,0x10
200031ac:	00008517          	auipc	a0,0x8
200031b0:	e2052503          	lw	a0,-480(a0) # 2000afcc <_GLOBAL_OFFSET_TABLE_+0x24>
200031b4:	00008597          	auipc	a1,0x8
200031b8:	e285a583          	lw	a1,-472(a1) # 2000afdc <_GLOBAL_OFFSET_TABLE_+0x34>
200031bc:	fff00613          	li	a2,-1
200031c0:	0ff00693          	li	a3,255
200031c4:	0080006f          	j	200031cc <_Z6SDIdlev+0x48>
200031c8:	02078063          	beqz	a5,200031e8 <_Z6SDIdlev+0x64>
200031cc:	00052703          	lw	a4,0(a0)
200031d0:	fff78793          	addi	a5,a5,-1 # ffff <_STACK_SIZE+0xfe0f>
200031d4:	00c70023          	sb	a2,0(a4)
200031d8:	0005a703          	lw	a4,0(a1)
200031dc:	00074403          	lbu	s0,0(a4)
200031e0:	0ff47413          	andi	s0,s0,255
200031e4:	fed402e3          	beq	s0,a3,200031c8 <_Z6SDIdlev+0x44>
200031e8:	a89ff0ef          	jal	ra,20002c70 <_Z9SDStrobe8v>
200031ec:	30449073          	csrw	mie,s1
200031f0:	00c12083          	lw	ra,12(sp)
200031f4:	00040513          	mv	a0,s0
200031f8:	00812403          	lw	s0,8(sp)
200031fc:	00412483          	lw	s1,4(sp)
20003200:	01010113          	addi	sp,sp,16
20003204:	00008067          	ret

20003208 <_Z19SDCheckVoltageRangePm>:
20003208:	ff010113          	addi	sp,sp,-16
2000320c:	00912223          	sw	s1,4(sp)
20003210:	01212023          	sw	s2,0(sp)
20003214:	00112623          	sw	ra,12(sp)
20003218:	00812423          	sw	s0,8(sp)
2000321c:	00050493          	mv	s1,a0
20003220:	00000913          	li	s2,0
20003224:	30491973          	csrrw	s2,mie,s2
20003228:	1aa00593          	li	a1,426
2000322c:	00800513          	li	a0,8
20003230:	a45ff0ef          	jal	ra,20002c74 <_Z5SDCmd13SDCardCommandm>
20003234:	000107b7          	lui	a5,0x10
20003238:	00008617          	auipc	a2,0x8
2000323c:	d9462603          	lw	a2,-620(a2) # 2000afcc <_GLOBAL_OFFSET_TABLE_+0x24>
20003240:	00008697          	auipc	a3,0x8
20003244:	d9c6a683          	lw	a3,-612(a3) # 2000afdc <_GLOBAL_OFFSET_TABLE_+0x34>
20003248:	fff00813          	li	a6,-1
2000324c:	0ff00593          	li	a1,255
20003250:	0080006f          	j	20003258 <_Z19SDCheckVoltageRangePm+0x50>
20003254:	02078063          	beqz	a5,20003274 <_Z19SDCheckVoltageRangePm+0x6c>
20003258:	00062703          	lw	a4,0(a2)
2000325c:	fff78793          	addi	a5,a5,-1 # ffff <_STACK_SIZE+0xfe0f>
20003260:	01070023          	sb	a6,0(a4)
20003264:	0006a703          	lw	a4,0(a3)
20003268:	00074403          	lbu	s0,0(a4)
2000326c:	0ff47413          	andi	s0,s0,255
20003270:	feb402e3          	beq	s0,a1,20003254 <_Z19SDCheckVoltageRangePm+0x4c>
20003274:	00062783          	lw	a5,0(a2)
20003278:	fff00713          	li	a4,-1
2000327c:	0004a023          	sw	zero,0(s1)
20003280:	00e78023          	sb	a4,0(a5)
20003284:	0006a583          	lw	a1,0(a3)
20003288:	0004a783          	lw	a5,0(s1)
2000328c:	00062503          	lw	a0,0(a2)
20003290:	0005c583          	lbu	a1,0(a1)
20003294:	0ff5f593          	andi	a1,a1,255
20003298:	00b7e7b3          	or	a5,a5,a1
2000329c:	00f4a023          	sw	a5,0(s1)
200032a0:	00e50023          	sb	a4,0(a0)
200032a4:	0006a783          	lw	a5,0(a3)
200032a8:	0004a503          	lw	a0,0(s1)
200032ac:	00062803          	lw	a6,0(a2)
200032b0:	0007c783          	lbu	a5,0(a5)
200032b4:	00851593          	slli	a1,a0,0x8
200032b8:	0ff7f793          	andi	a5,a5,255
200032bc:	00a7e7b3          	or	a5,a5,a0
200032c0:	00f5e7b3          	or	a5,a1,a5
200032c4:	00f4a023          	sw	a5,0(s1)
200032c8:	00e80023          	sb	a4,0(a6)
200032cc:	0006a783          	lw	a5,0(a3)
200032d0:	0004a583          	lw	a1,0(s1)
200032d4:	00062503          	lw	a0,0(a2)
200032d8:	0007c783          	lbu	a5,0(a5)
200032dc:	00859613          	slli	a2,a1,0x8
200032e0:	0ff7f793          	andi	a5,a5,255
200032e4:	00b7e7b3          	or	a5,a5,a1
200032e8:	00f667b3          	or	a5,a2,a5
200032ec:	00f4a023          	sw	a5,0(s1)
200032f0:	00e50023          	sb	a4,0(a0)
200032f4:	0006a783          	lw	a5,0(a3)
200032f8:	0004a683          	lw	a3,0(s1)
200032fc:	0007c783          	lbu	a5,0(a5)
20003300:	00869713          	slli	a4,a3,0x8
20003304:	0ff7f793          	andi	a5,a5,255
20003308:	00d7e7b3          	or	a5,a5,a3
2000330c:	00f767b3          	or	a5,a4,a5
20003310:	00f4a023          	sw	a5,0(s1)
20003314:	95dff0ef          	jal	ra,20002c70 <_Z9SDStrobe8v>
20003318:	30491073          	csrw	mie,s2
2000331c:	00c12083          	lw	ra,12(sp)
20003320:	00040513          	mv	a0,s0
20003324:	00812403          	lw	s0,8(sp)
20003328:	00412483          	lw	s1,4(sp)
2000332c:	00012903          	lw	s2,0(sp)
20003330:	01010113          	addi	sp,sp,16
20003334:	00008067          	ret

20003338 <_Z10SDCardInitv>:
20003338:	fe010113          	addi	sp,sp,-32
2000333c:	01312623          	sw	s3,12(sp)
20003340:	00112e23          	sw	ra,28(sp)
20003344:	00812c23          	sw	s0,24(sp)
20003348:	00912a23          	sw	s1,20(sp)
2000334c:	01212823          	sw	s2,16(sp)
20003350:	00000993          	li	s3,0
20003354:	304999f3          	csrrw	s3,mie,s3
20003358:	00000593          	li	a1,0
2000335c:	03700513          	li	a0,55
20003360:	915ff0ef          	jal	ra,20002c74 <_Z5SDCmd13SDCardCommandm>
20003364:	00008497          	auipc	s1,0x8
20003368:	c684a483          	lw	s1,-920(s1) # 2000afcc <_GLOBAL_OFFSET_TABLE_+0x24>
2000336c:	00010737          	lui	a4,0x10
20003370:	00008917          	auipc	s2,0x8
20003374:	c6c92903          	lw	s2,-916(s2) # 2000afdc <_GLOBAL_OFFSET_TABLE_+0x34>
20003378:	fff00613          	li	a2,-1
2000337c:	0ff00693          	li	a3,255
20003380:	0080006f          	j	20003388 <_Z10SDCardInitv+0x50>
20003384:	02070063          	beqz	a4,200033a4 <_Z10SDCardInitv+0x6c>
20003388:	0004a783          	lw	a5,0(s1)
2000338c:	fff70713          	addi	a4,a4,-1 # ffff <_STACK_SIZE+0xfe0f>
20003390:	00c78023          	sb	a2,0(a5)
20003394:	00092783          	lw	a5,0(s2)
20003398:	0007c783          	lbu	a5,0(a5)
2000339c:	0ff7f793          	andi	a5,a5,255
200033a0:	fed782e3          	beq	a5,a3,20003384 <_Z10SDCardInitv+0x4c>
200033a4:	0004a783          	lw	a5,0(s1)
200033a8:	fff00713          	li	a4,-1
200033ac:	400005b7          	lui	a1,0x40000
200033b0:	00e78023          	sb	a4,0(a5)
200033b4:	02900513          	li	a0,41
200033b8:	8bdff0ef          	jal	ra,20002c74 <_Z5SDCmd13SDCardCommandm>
200033bc:	000107b7          	lui	a5,0x10
200033c0:	fff00613          	li	a2,-1
200033c4:	0ff00693          	li	a3,255
200033c8:	0080006f          	j	200033d0 <_Z10SDCardInitv+0x98>
200033cc:	02078063          	beqz	a5,200033ec <_Z10SDCardInitv+0xb4>
200033d0:	0004a703          	lw	a4,0(s1)
200033d4:	fff78793          	addi	a5,a5,-1 # ffff <_STACK_SIZE+0xfe0f>
200033d8:	00c70023          	sb	a2,0(a4)
200033dc:	00092703          	lw	a4,0(s2)
200033e0:	00074403          	lbu	s0,0(a4)
200033e4:	0ff47413          	andi	s0,s0,255
200033e8:	fed402e3          	beq	s0,a3,200033cc <_Z10SDCardInitv+0x94>
200033ec:	885ff0ef          	jal	ra,20002c70 <_Z9SDStrobe8v>
200033f0:	30499073          	csrw	mie,s3
200033f4:	01c12083          	lw	ra,28(sp)
200033f8:	00040513          	mv	a0,s0
200033fc:	01812403          	lw	s0,24(sp)
20003400:	01412483          	lw	s1,20(sp)
20003404:	01012903          	lw	s2,16(sp)
20003408:	00c12983          	lw	s3,12(sp)
2000340c:	02010113          	addi	sp,sp,32
20003410:	00008067          	ret

20003414 <_Z17SDSetBlockSize512v>:
20003414:	ff010113          	addi	sp,sp,-16
20003418:	00912223          	sw	s1,4(sp)
2000341c:	00112623          	sw	ra,12(sp)
20003420:	00812423          	sw	s0,8(sp)
20003424:	00000493          	li	s1,0
20003428:	304494f3          	csrrw	s1,mie,s1
2000342c:	20000593          	li	a1,512
20003430:	01000513          	li	a0,16
20003434:	841ff0ef          	jal	ra,20002c74 <_Z5SDCmd13SDCardCommandm>
20003438:	000107b7          	lui	a5,0x10
2000343c:	00008517          	auipc	a0,0x8
20003440:	b9052503          	lw	a0,-1136(a0) # 2000afcc <_GLOBAL_OFFSET_TABLE_+0x24>
20003444:	00008597          	auipc	a1,0x8
20003448:	b985a583          	lw	a1,-1128(a1) # 2000afdc <_GLOBAL_OFFSET_TABLE_+0x34>
2000344c:	fff00613          	li	a2,-1
20003450:	0ff00693          	li	a3,255
20003454:	0080006f          	j	2000345c <_Z17SDSetBlockSize512v+0x48>
20003458:	02078063          	beqz	a5,20003478 <_Z17SDSetBlockSize512v+0x64>
2000345c:	00052703          	lw	a4,0(a0)
20003460:	fff78793          	addi	a5,a5,-1 # ffff <_STACK_SIZE+0xfe0f>
20003464:	00c70023          	sb	a2,0(a4)
20003468:	0005a703          	lw	a4,0(a1)
2000346c:	00074403          	lbu	s0,0(a4)
20003470:	0ff47413          	andi	s0,s0,255
20003474:	fed402e3          	beq	s0,a3,20003458 <_Z17SDSetBlockSize512v+0x44>
20003478:	ff8ff0ef          	jal	ra,20002c70 <_Z9SDStrobe8v>
2000347c:	30449073          	csrw	mie,s1
20003480:	00c12083          	lw	ra,12(sp)
20003484:	00040513          	mv	a0,s0
20003488:	00812403          	lw	s0,8(sp)
2000348c:	00412483          	lw	s1,4(sp)
20003490:	01010113          	addi	sp,sp,16
20003494:	00008067          	ret

20003498 <_Z17SDReadSingleBlockmPhS_>:
20003498:	fe010113          	addi	sp,sp,-32
2000349c:	00812c23          	sw	s0,24(sp)
200034a0:	01212823          	sw	s2,16(sp)
200034a4:	01312623          	sw	s3,12(sp)
200034a8:	00112e23          	sw	ra,28(sp)
200034ac:	00912a23          	sw	s1,20(sp)
200034b0:	00050793          	mv	a5,a0
200034b4:	00058413          	mv	s0,a1
200034b8:	00060993          	mv	s3,a2
200034bc:	00000913          	li	s2,0
200034c0:	30491973          	csrrw	s2,mie,s2
200034c4:	01100513          	li	a0,17
200034c8:	00078593          	mv	a1,a5
200034cc:	fa8ff0ef          	jal	ra,20002c74 <_Z5SDCmd13SDCardCommandm>
200034d0:	00010737          	lui	a4,0x10
200034d4:	00008517          	auipc	a0,0x8
200034d8:	af852503          	lw	a0,-1288(a0) # 2000afcc <_GLOBAL_OFFSET_TABLE_+0x24>
200034dc:	00008697          	auipc	a3,0x8
200034e0:	b006a683          	lw	a3,-1280(a3) # 2000afdc <_GLOBAL_OFFSET_TABLE_+0x34>
200034e4:	fff00593          	li	a1,-1
200034e8:	0ff00613          	li	a2,255
200034ec:	0080006f          	j	200034f4 <_Z17SDReadSingleBlockmPhS_+0x5c>
200034f0:	08070063          	beqz	a4,20003570 <_Z17SDReadSingleBlockmPhS_+0xd8>
200034f4:	00052783          	lw	a5,0(a0)
200034f8:	fff70713          	addi	a4,a4,-1 # ffff <_STACK_SIZE+0xfe0f>
200034fc:	00b78023          	sb	a1,0(a5)
20003500:	0006a783          	lw	a5,0(a3)
20003504:	0007c783          	lbu	a5,0(a5)
20003508:	0ff7f793          	andi	a5,a5,255
2000350c:	fec782e3          	beq	a5,a2,200034f0 <_Z17SDReadSingleBlockmPhS_+0x58>
20003510:	000107b7          	lui	a5,0x10
20003514:	fff00593          	li	a1,-1
20003518:	0ff00613          	li	a2,255
2000351c:	0080006f          	j	20003524 <_Z17SDReadSingleBlockmPhS_+0x8c>
20003520:	04078863          	beqz	a5,20003570 <_Z17SDReadSingleBlockmPhS_+0xd8>
20003524:	00052703          	lw	a4,0(a0)
20003528:	fff78793          	addi	a5,a5,-1 # ffff <_STACK_SIZE+0xfe0f>
2000352c:	00b70023          	sb	a1,0(a4)
20003530:	0006a703          	lw	a4,0(a3)
20003534:	00074483          	lbu	s1,0(a4)
20003538:	0ff4f493          	andi	s1,s1,255
2000353c:	fec482e3          	beq	s1,a2,20003520 <_Z17SDReadSingleBlockmPhS_+0x88>
20003540:	0fe00793          	li	a5,254
20003544:	02f48a63          	beq	s1,a5,20003578 <_Z17SDReadSingleBlockmPhS_+0xe0>
20003548:	f28ff0ef          	jal	ra,20002c70 <_Z9SDStrobe8v>
2000354c:	30491073          	csrw	mie,s2
20003550:	01c12083          	lw	ra,28(sp)
20003554:	01812403          	lw	s0,24(sp)
20003558:	01012903          	lw	s2,16(sp)
2000355c:	00c12983          	lw	s3,12(sp)
20003560:	00048513          	mv	a0,s1
20003564:	01412483          	lw	s1,20(sp)
20003568:	02010113          	addi	sp,sp,32
2000356c:	00008067          	ret
20003570:	0ff00493          	li	s1,255
20003574:	fd5ff06f          	j	20003548 <_Z17SDReadSingleBlockmPhS_+0xb0>
20003578:	00040593          	mv	a1,s0
2000357c:	20040613          	addi	a2,s0,512
20003580:	fff00713          	li	a4,-1
20003584:	00052783          	lw	a5,0(a0)
20003588:	00158593          	addi	a1,a1,1
2000358c:	00e78023          	sb	a4,0(a5)
20003590:	0006a783          	lw	a5,0(a3)
20003594:	0007c783          	lbu	a5,0(a5)
20003598:	fef58fa3          	sb	a5,-1(a1)
2000359c:	fec594e3          	bne	a1,a2,20003584 <_Z17SDReadSingleBlockmPhS_+0xec>
200035a0:	00052783          	lw	a5,0(a0)
200035a4:	00e78023          	sb	a4,0(a5)
200035a8:	0006a783          	lw	a5,0(a3)
200035ac:	0007c783          	lbu	a5,0(a5)
200035b0:	00f98023          	sb	a5,0(s3)
200035b4:	00052783          	lw	a5,0(a0)
200035b8:	00e78023          	sb	a4,0(a5)
200035bc:	0006a783          	lw	a5,0(a3)
200035c0:	0007c783          	lbu	a5,0(a5)
200035c4:	00f980a3          	sb	a5,1(s3)
200035c8:	f81ff06f          	j	20003548 <_Z17SDReadSingleBlockmPhS_+0xb0>

200035cc <_Z20SDReadMultipleBlocksPhmm>:
200035cc:	0a058663          	beqz	a1,20003678 <_Z20SDReadMultipleBlocksPhmm+0xac>
200035d0:	dd010113          	addi	sp,sp,-560
200035d4:	22812423          	sw	s0,552(sp)
200035d8:	22912223          	sw	s1,548(sp)
200035dc:	23212023          	sw	s2,544(sp)
200035e0:	21312e23          	sw	s3,540(sp)
200035e4:	21412c23          	sw	s4,536(sp)
200035e8:	21512a23          	sw	s5,532(sp)
200035ec:	21612823          	sw	s6,528(sp)
200035f0:	22112623          	sw	ra,556(sp)
200035f4:	00050a13          	mv	s4,a0
200035f8:	00060413          	mv	s0,a2
200035fc:	00c589b3          	add	s3,a1,a2
20003600:	00000493          	li	s1,0
20003604:	00c10b13          	addi	s6,sp,12
20003608:	01010913          	addi	s2,sp,16
2000360c:	0fe00a93          	li	s5,254
20003610:	000b0613          	mv	a2,s6
20003614:	00090593          	mv	a1,s2
20003618:	00040513          	mv	a0,s0
2000361c:	e7dff0ef          	jal	ra,20003498 <_Z17SDReadSingleBlockmPhS_>
20003620:	00050793          	mv	a5,a0
20003624:	20000613          	li	a2,512
20003628:	009a0533          	add	a0,s4,s1
2000362c:	00090593          	mv	a1,s2
20003630:	00140413          	addi	s0,s0,1
20003634:	03579e63          	bne	a5,s5,20003670 <_Z20SDReadMultipleBlocksPhmm+0xa4>
20003638:	b84fd0ef          	jal	ra,200009bc <memcpy>
2000363c:	20048493          	addi	s1,s1,512
20003640:	fc8998e3          	bne	s3,s0,20003610 <_Z20SDReadMultipleBlocksPhmm+0x44>
20003644:	00048513          	mv	a0,s1
20003648:	22c12083          	lw	ra,556(sp)
2000364c:	22812403          	lw	s0,552(sp)
20003650:	22412483          	lw	s1,548(sp)
20003654:	22012903          	lw	s2,544(sp)
20003658:	21c12983          	lw	s3,540(sp)
2000365c:	21812a03          	lw	s4,536(sp)
20003660:	21412a83          	lw	s5,532(sp)
20003664:	21012b03          	lw	s6,528(sp)
20003668:	23010113          	addi	sp,sp,560
2000366c:	00008067          	ret
20003670:	fff00513          	li	a0,-1
20003674:	fd5ff06f          	j	20003648 <_Z20SDReadMultipleBlocksPhmm+0x7c>
20003678:	fff00513          	li	a0,-1
2000367c:	00008067          	ret

20003680 <_Z13SDCardStartupv>:
20003680:	fe010113          	addi	sp,sp,-32
20003684:	00112e23          	sw	ra,28(sp)
20003688:	00812c23          	sw	s0,24(sp)
2000368c:	00912a23          	sw	s1,20(sp)
20003690:	af5ff0ef          	jal	ra,20003184 <_Z6SDIdlev>
20003694:	00100793          	li	a5,1
20003698:	04f51a63          	bne	a0,a5,200036ec <_Z13SDCardStartupv+0x6c>
2000369c:	00050413          	mv	s0,a0
200036a0:	00c10513          	addi	a0,sp,12
200036a4:	b65ff0ef          	jal	ra,20003208 <_Z19SDCheckVoltageRangePm>
200036a8:	00050493          	mv	s1,a0
200036ac:	04851063          	bne	a0,s0,200036ec <_Z13SDCardStartupv+0x6c>
200036b0:	c89ff0ef          	jal	ra,20003338 <_Z10SDCardInitv>
200036b4:	00050793          	mv	a5,a0
200036b8:	00000513          	li	a0,0
200036bc:	00078e63          	beqz	a5,200036d8 <_Z13SDCardStartupv+0x58>
200036c0:	02979663          	bne	a5,s1,200036ec <_Z13SDCardStartupv+0x6c>
200036c4:	00100413          	li	s0,1
200036c8:	c71ff0ef          	jal	ra,20003338 <_Z10SDCardInitv>
200036cc:	fe850ee3          	beq	a0,s0,200036c8 <_Z13SDCardStartupv+0x48>
200036d0:	00a03533          	snez	a0,a0
200036d4:	40a00533          	neg	a0,a0
200036d8:	01c12083          	lw	ra,28(sp)
200036dc:	01812403          	lw	s0,24(sp)
200036e0:	01412483          	lw	s1,20(sp)
200036e4:	02010113          	addi	sp,sp,32
200036e8:	00008067          	ret
200036ec:	fff00513          	li	a0,-1
200036f0:	fe9ff06f          	j	200036d8 <_Z13SDCardStartupv+0x58>

200036f4 <_Z8EchoUARTPKc>:
200036f4:	00054783          	lbu	a5,0(a0)
200036f8:	02078263          	beqz	a5,2000371c <_Z8EchoUARTPKc+0x28>
200036fc:	00150513          	addi	a0,a0,1
20003700:	00008697          	auipc	a3,0x8
20003704:	8f46a683          	lw	a3,-1804(a3) # 2000aff4 <_GLOBAL_OFFSET_TABLE_+0x4c>
20003708:	0006a703          	lw	a4,0(a3)
2000370c:	00150513          	addi	a0,a0,1
20003710:	00f70023          	sb	a5,0(a4)
20003714:	fff54783          	lbu	a5,-1(a0)
20003718:	fe0798e3          	bnez	a5,20003708 <_Z8EchoUARTPKc+0x14>
2000371c:	00008067          	ret

20003720 <_Z7EchoHexm>:
20003720:	00006617          	auipc	a2,0x6
20003724:	05060613          	addi	a2,a2,80 # 20009770 <__clz_tab+0x62c>
20003728:	00c62803          	lw	a6,12(a2)
2000372c:	00062e03          	lw	t3,0(a2)
20003730:	00462303          	lw	t1,4(a2)
20003734:	00862883          	lw	a7,8(a2)
20003738:	fd010113          	addi	sp,sp,-48
2000373c:	00c55793          	srli	a5,a0,0xc
20003740:	00855693          	srli	a3,a0,0x8
20003744:	01855713          	srli	a4,a0,0x18
20003748:	01012c23          	sw	a6,24(sp)
2000374c:	01c55593          	srli	a1,a0,0x1c
20003750:	02010813          	addi	a6,sp,32
20003754:	00f7f793          	andi	a5,a5,15
20003758:	00f6f693          	andi	a3,a3,15
2000375c:	00f77713          	andi	a4,a4,15
20003760:	02112623          	sw	ra,44(sp)
20003764:	01112a23          	sw	a7,20(sp)
20003768:	01c12623          	sw	t3,12(sp)
2000376c:	00612823          	sw	t1,16(sp)
20003770:	00d806b3          	add	a3,a6,a3
20003774:	00b805b3          	add	a1,a6,a1
20003778:	00e80733          	add	a4,a6,a4
2000377c:	00f807b3          	add	a5,a6,a5
20003780:	00455893          	srli	a7,a0,0x4
20003784:	01455813          	srli	a6,a0,0x14
20003788:	fec6ce83          	lbu	t4,-20(a3)
2000378c:	fec74e03          	lbu	t3,-20(a4)
20003790:	fec5c683          	lbu	a3,-20(a1)
20003794:	02010713          	addi	a4,sp,32
20003798:	fec7c783          	lbu	a5,-20(a5)
2000379c:	00f8f893          	andi	a7,a7,15
200037a0:	00f87813          	andi	a6,a6,15
200037a4:	011708b3          	add	a7,a4,a7
200037a8:	01070833          	add	a6,a4,a6
200037ac:	01055593          	srli	a1,a0,0x10
200037b0:	ffff0737          	lui	a4,0xffff0
200037b4:	fec8c303          	lbu	t1,-20(a7)
200037b8:	0ff70713          	addi	a4,a4,255 # ffff00ff <__global_pointer$+0xdffe48df>
200037bc:	fec84883          	lbu	a7,-20(a6)
200037c0:	00f5f593          	andi	a1,a1,15
200037c4:	02010813          	addi	a6,sp,32
200037c8:	00f57513          	andi	a0,a0,15
200037cc:	008e9e93          	slli	t4,t4,0x8
200037d0:	00e7f7b3          	and	a5,a5,a4
200037d4:	00a80533          	add	a0,a6,a0
200037d8:	008e1e13          	slli	t3,t3,0x8
200037dc:	00e6f733          	and	a4,a3,a4
200037e0:	00b806b3          	add	a3,a6,a1
200037e4:	ff0105b7          	lui	a1,0xff010
200037e8:	fec54803          	lbu	a6,-20(a0)
200037ec:	fff58593          	addi	a1,a1,-1 # ff00ffff <__global_pointer$+0xdf0047df>
200037f0:	fec6c503          	lbu	a0,-20(a3)
200037f4:	01d7e7b3          	or	a5,a5,t4
200037f8:	01c76733          	or	a4,a4,t3
200037fc:	01031313          	slli	t1,t1,0x10
20003800:	00b7f7b3          	and	a5,a5,a1
20003804:	01089893          	slli	a7,a7,0x10
20003808:	00b77733          	and	a4,a4,a1
2000380c:	010006b7          	lui	a3,0x1000
20003810:	01064e03          	lbu	t3,16(a2)
20003814:	fff68693          	addi	a3,a3,-1 # ffffff <_STACK_SIZE+0xfffe0f>
20003818:	0067e7b3          	or	a5,a5,t1
2000381c:	01176733          	or	a4,a4,a7
20003820:	01851613          	slli	a2,a0,0x18
20003824:	01881593          	slli	a1,a6,0x18
20003828:	00d7f7b3          	and	a5,a5,a3
2000382c:	00d77733          	and	a4,a4,a3
20003830:	00b7e7b3          	or	a5,a5,a1
20003834:	00c76733          	or	a4,a4,a2
20003838:	00010513          	mv	a0,sp
2000383c:	01c10e23          	sb	t3,28(sp)
20003840:	00010423          	sb	zero,8(sp)
20003844:	00e12023          	sw	a4,0(sp)
20003848:	00f12223          	sw	a5,4(sp)
2000384c:	ea9ff0ef          	jal	ra,200036f4 <_Z8EchoUARTPKc>
20003850:	02c12083          	lw	ra,44(sp)
20003854:	03010113          	addi	sp,sp,48
20003858:	00008067          	ret

2000385c <_Z9ReadClockv>:
2000385c:	c81025f3          	rdtimeh	a1
20003860:	c0102573          	rdtime	a0
20003864:	c81027f3          	rdtimeh	a5
20003868:	fef59ae3          	bne	a1,a5,2000385c <_Z9ReadClockv>
2000386c:	00008067          	ret

20003870 <_Z9ClockToMsy>:
20003870:	00002637          	lui	a2,0x2
20003874:	ff010113          	addi	sp,sp,-16
20003878:	71060613          	addi	a2,a2,1808 # 2710 <_STACK_SIZE+0x2520>
2000387c:	00000693          	li	a3,0
20003880:	00112623          	sw	ra,12(sp)
20003884:	948fe0ef          	jal	ra,200019cc <__udivdi3>
20003888:	00c12083          	lw	ra,12(sp)
2000388c:	01010113          	addi	sp,sp,16
20003890:	00008067          	ret

20003894 <_Z12ClockMsToHMSmRmS_S_>:
20003894:	fe010113          	addi	sp,sp,-32
20003898:	01412423          	sw	s4,8(sp)
2000389c:	0036fa37          	lui	s4,0x36f
200038a0:	01312623          	sw	s3,12(sp)
200038a4:	00058993          	mv	s3,a1
200038a8:	e80a0593          	addi	a1,s4,-384 # 36ee80 <_STACK_SIZE+0x36ec90>
200038ac:	00112e23          	sw	ra,28(sp)
200038b0:	00812c23          	sw	s0,24(sp)
200038b4:	00912a23          	sw	s1,20(sp)
200038b8:	01212823          	sw	s2,16(sp)
200038bc:	00068493          	mv	s1,a3
200038c0:	00060913          	mv	s2,a2
200038c4:	00050413          	mv	s0,a0
200038c8:	f08fe0ef          	jal	ra,20001fd0 <__udivsi3>
200038cc:	e80a0593          	addi	a1,s4,-384
200038d0:	00a9a023          	sw	a0,0(s3)
200038d4:	00040513          	mv	a0,s0
200038d8:	f40fe0ef          	jal	ra,20002018 <__umodsi3>
200038dc:	0000f9b7          	lui	s3,0xf
200038e0:	a6098593          	addi	a1,s3,-1440 # ea60 <_STACK_SIZE+0xe870>
200038e4:	eecfe0ef          	jal	ra,20001fd0 <__udivsi3>
200038e8:	000585b7          	lui	a1,0x58
200038ec:	00a92023          	sw	a0,0(s2)
200038f0:	e4058593          	addi	a1,a1,-448 # 57e40 <_STACK_SIZE+0x57c50>
200038f4:	00040513          	mv	a0,s0
200038f8:	f20fe0ef          	jal	ra,20002018 <__umodsi3>
200038fc:	a6098593          	addi	a1,s3,-1440
20003900:	f18fe0ef          	jal	ra,20002018 <__umodsi3>
20003904:	3e800593          	li	a1,1000
20003908:	ec8fe0ef          	jal	ra,20001fd0 <__udivsi3>
2000390c:	01c12083          	lw	ra,28(sp)
20003910:	01812403          	lw	s0,24(sp)
20003914:	00a4a023          	sw	a0,0(s1)
20003918:	01012903          	lw	s2,16(sp)
2000391c:	01412483          	lw	s1,20(sp)
20003920:	00c12983          	lw	s3,12(sp)
20003924:	00812a03          	lw	s4,8(sp)
20003928:	02010113          	addi	sp,sp,32
2000392c:	00008067          	ret

20003930 <_chdir>:
20003930:	ff010113          	addi	sp,sp,-16
20003934:	00112623          	sw	ra,12(sp)
20003938:	f40fc0ef          	jal	ra,20000078 <__errno>
2000393c:	00c12083          	lw	ra,12(sp)
20003940:	05800793          	li	a5,88
20003944:	00f52023          	sw	a5,0(a0)
20003948:	fff00513          	li	a0,-1
2000394c:	01010113          	addi	sp,sp,16
20003950:	00008067          	ret

20003954 <_getcwd>:
20003954:	ff010113          	addi	sp,sp,-16
20003958:	00112623          	sw	ra,12(sp)
2000395c:	f1cfc0ef          	jal	ra,20000078 <__errno>
20003960:	00c12083          	lw	ra,12(sp)
20003964:	fa800793          	li	a5,-88
20003968:	00f52023          	sw	a5,0(a0)
2000396c:	00000513          	li	a0,0
20003970:	01010113          	addi	sp,sp,16
20003974:	00008067          	ret

20003978 <_lstat>:
20003978:	ff010113          	addi	sp,sp,-16
2000397c:	00112623          	sw	ra,12(sp)
20003980:	ef8fc0ef          	jal	ra,20000078 <__errno>
20003984:	00c12083          	lw	ra,12(sp)
20003988:	05800793          	li	a5,88
2000398c:	00f52023          	sw	a5,0(a0)
20003990:	fff00513          	li	a0,-1
20003994:	01010113          	addi	sp,sp,16
20003998:	00008067          	ret

2000399c <_openat>:
2000399c:	ff010113          	addi	sp,sp,-16
200039a0:	00112623          	sw	ra,12(sp)
200039a4:	ed4fc0ef          	jal	ra,20000078 <__errno>
200039a8:	00c12083          	lw	ra,12(sp)
200039ac:	05800793          	li	a5,88
200039b0:	00f52023          	sw	a5,0(a0)
200039b4:	fff00513          	li	a0,-1
200039b8:	01010113          	addi	sp,sp,16
200039bc:	00008067          	ret

200039c0 <_write>:
200039c0:	00100793          	li	a5,1
200039c4:	02f51863          	bne	a0,a5,200039f4 <_write+0x34>
200039c8:	00c586b3          	add	a3,a1,a2
200039cc:	02d58063          	beq	a1,a3,200039ec <_write+0x2c>
200039d0:	00007817          	auipc	a6,0x7
200039d4:	62482803          	lw	a6,1572(a6) # 2000aff4 <_GLOBAL_OFFSET_TABLE_+0x4c>
200039d8:	0005c703          	lbu	a4,0(a1)
200039dc:	00082783          	lw	a5,0(a6)
200039e0:	00158593          	addi	a1,a1,1
200039e4:	00e78023          	sb	a4,0(a5)
200039e8:	feb698e3          	bne	a3,a1,200039d8 <_write+0x18>
200039ec:	00060513          	mv	a0,a2
200039f0:	00008067          	ret
200039f4:	ff010113          	addi	sp,sp,-16
200039f8:	00112623          	sw	ra,12(sp)
200039fc:	e7cfc0ef          	jal	ra,20000078 <__errno>
20003a00:	00c12083          	lw	ra,12(sp)
20003a04:	05800793          	li	a5,88
20003a08:	00f52023          	sw	a5,0(a0)
20003a0c:	fff00513          	li	a0,-1
20003a10:	01010113          	addi	sp,sp,16
20003a14:	00008067          	ret

20003a18 <_wait>:
20003a18:	ff010113          	addi	sp,sp,-16
20003a1c:	00112623          	sw	ra,12(sp)
20003a20:	e58fc0ef          	jal	ra,20000078 <__errno>
20003a24:	00c12083          	lw	ra,12(sp)
20003a28:	00a00793          	li	a5,10
20003a2c:	00f52023          	sw	a5,0(a0)
20003a30:	fff00513          	li	a0,-1
20003a34:	01010113          	addi	sp,sp,16
20003a38:	00008067          	ret

20003a3c <_sbrk>:
20003a3c:	00007617          	auipc	a2,0x7
20003a40:	54860613          	addi	a2,a2,1352 # 2000af84 <_ZL10heap_start>
20003a44:	00062703          	lw	a4,0(a2)
20003a48:	070007b7          	lui	a5,0x7000
20003a4c:	fff78593          	addi	a1,a5,-1 # 6ffffff <_STACK_SIZE+0x6fffe0f>
20003a50:	02b70663          	beq	a4,a1,20003a7c <_sbrk+0x40>
20003a54:	00a706b3          	add	a3,a4,a0
20003a58:	ffe78793          	addi	a5,a5,-2
20003a5c:	00d7f863          	bgeu	a5,a3,20003a6c <_sbrk+0x30>
20003a60:	00b62023          	sw	a1,0(a2)
20003a64:	00070513          	mv	a0,a4
20003a68:	00008067          	ret
20003a6c:	00a68533          	add	a0,a3,a0
20003a70:	00a62023          	sw	a0,0(a2)
20003a74:	00070513          	mv	a0,a4
20003a78:	00008067          	ret
20003a7c:	00000713          	li	a4,0
20003a80:	fe5ff06f          	j	20003a64 <_sbrk+0x28>

20003a84 <_Z8InitFontv>:
20003a84:	00007797          	auipc	a5,0x7
20003a88:	5407a783          	lw	a5,1344(a5) # 2000afc4 <_GLOBAL_OFFSET_TABLE_+0x1c>
20003a8c:	0007a503          	lw	a0,0(a5)
20003a90:	00002637          	lui	a2,0x2
20003a94:	ff010113          	addi	sp,sp,-16
20003a98:	80060613          	addi	a2,a2,-2048 # 1800 <_STACK_SIZE+0x1610>
20003a9c:	00004597          	auipc	a1,0x4
20003aa0:	ea858593          	addi	a1,a1,-344 # 20007944 <disk_read+0x40>
20003aa4:	00112623          	sw	ra,12(sp)
20003aa8:	f15fc0ef          	jal	ra,200009bc <memcpy>
20003aac:	00c12083          	lw	ra,12(sp)
20003ab0:	01010113          	addi	sp,sp,16
20003ab4:	00008067          	ret

20003ab8 <_Z8PrintDMAiiPKcb>:
20003ab8:	00064703          	lbu	a4,0(a2)
20003abc:	32070e63          	beqz	a4,20003df8 <_Z8PrintDMAiiPKcb+0x340>
20003ac0:	00007797          	auipc	a5,0x7
20003ac4:	5047a783          	lw	a5,1284(a5) # 2000afc4 <_GLOBAL_OFFSET_TABLE_+0x1c>
20003ac8:	0007a303          	lw	t1,0(a5)
20003acc:	00007797          	auipc	a5,0x7
20003ad0:	4ec7a783          	lw	a5,1260(a5) # 2000afb8 <_GLOBAL_OFFSET_TABLE_+0x10>
20003ad4:	00001fb7          	lui	t6,0x1
20003ad8:	00d03833          	snez	a6,a3
20003adc:	0007a783          	lw	a5,0(a5)
20003ae0:	ac4f8893          	addi	a7,t6,-1340 # ac4 <_STACK_SIZE+0x8d4>
20003ae4:	01981813          	slli	a6,a6,0x19
20003ae8:	00959593          	slli	a1,a1,0x9
20003aec:	01186833          	or	a6,a6,a7
20003af0:	00a585b3          	add	a1,a1,a0
20003af4:	00160893          	addi	a7,a2,1
20003af8:	800f8f13          	addi	t5,t6,-2048
20003afc:	a00f8e93          	addi	t4,t6,-1536
20003b00:	c00f8e13          	addi	t3,t6,-1024
20003b04:	e00f8513          	addi	a0,t6,-512
20003b08:	fe070713          	addi	a4,a4,-32
20003b0c:	00068463          	beqz	a3,20003b14 <_Z8PrintDMAiiPKcb+0x5c>
20003b10:	2c070c63          	beqz	a4,20003de8 <_Z8PrintDMAiiPKcb+0x330>
20003b14:	2c074a63          	bltz	a4,20003de8 <_Z8PrintDMAiiPKcb+0x330>
20003b18:	ff010113          	addi	sp,sp,-16
20003b1c:	00812623          	sw	s0,12(sp)
20003b20:	40575393          	srai	t2,a4,0x5
20003b24:	01f77713          	andi	a4,a4,31
20003b28:	00371613          	slli	a2,a4,0x3
20003b2c:	00b39f93          	slli	t6,t2,0xb
20003b30:	00cf8fb3          	add	t6,t6,a2
20003b34:	01f30fb3          	add	t6,t1,t6
20003b38:	00af9413          	slli	s0,t6,0xa
20003b3c:	016fdf93          	srli	t6,t6,0x16
20003b40:	4025d293          	srai	t0,a1,0x2
20003b44:	20146413          	ori	s0,s0,513
20003b48:	00b39713          	slli	a4,t2,0xb
20003b4c:	00af9f93          	slli	t6,t6,0xa
20003b50:	0087a023          	sw	s0,0(a5)
20003b54:	10070713          	addi	a4,a4,256
20003b58:	241fef93          	ori	t6,t6,577
20003b5c:	00a29393          	slli	t2,t0,0xa
20003b60:	0162d293          	srli	t0,t0,0x16
20003b64:	01f7a023          	sw	t6,0(a5)
20003b68:	2813e393          	ori	t2,t2,641
20003b6c:	00e60fb3          	add	t6,a2,a4
20003b70:	00a29293          	slli	t0,t0,0xa
20003b74:	0077a023          	sw	t2,0(a5)
20003b78:	01f30fb3          	add	t6,t1,t6
20003b7c:	2d12e293          	ori	t0,t0,721
20003b80:	0057a023          	sw	t0,0(a5)
20003b84:	016fd393          	srli	t2,t6,0x16
20003b88:	00af9293          	slli	t0,t6,0xa
20003b8c:	20058f93          	addi	t6,a1,512
20003b90:	0107a023          	sw	a6,0(a5)
20003b94:	402fdf93          	srai	t6,t6,0x2
20003b98:	2012e293          	ori	t0,t0,513
20003b9c:	00a39393          	slli	t2,t2,0xa
20003ba0:	0057a023          	sw	t0,0(a5)
20003ba4:	00af9413          	slli	s0,t6,0xa
20003ba8:	2413e393          	ori	t2,t2,577
20003bac:	016fd293          	srli	t0,t6,0x16
20003bb0:	10070f93          	addi	t6,a4,256
20003bb4:	0077a023          	sw	t2,0(a5)
20003bb8:	00cf8fb3          	add	t6,t6,a2
20003bbc:	28146393          	ori	t2,s0,641
20003bc0:	00a29293          	slli	t0,t0,0xa
20003bc4:	0077a023          	sw	t2,0(a5)
20003bc8:	01f30fb3          	add	t6,t1,t6
20003bcc:	2d12e293          	ori	t0,t0,721
20003bd0:	0057a023          	sw	t0,0(a5)
20003bd4:	016fd393          	srli	t2,t6,0x16
20003bd8:	00af9293          	slli	t0,t6,0xa
20003bdc:	40058f93          	addi	t6,a1,1024
20003be0:	0107a023          	sw	a6,0(a5)
20003be4:	402fdf93          	srai	t6,t6,0x2
20003be8:	2012e293          	ori	t0,t0,513
20003bec:	00a39393          	slli	t2,t2,0xa
20003bf0:	0057a023          	sw	t0,0(a5)
20003bf4:	00af9413          	slli	s0,t6,0xa
20003bf8:	2413e393          	ori	t2,t2,577
20003bfc:	016fd293          	srli	t0,t6,0x16
20003c00:	20070f93          	addi	t6,a4,512
20003c04:	0077a023          	sw	t2,0(a5)
20003c08:	00cf8fb3          	add	t6,t6,a2
20003c0c:	28146393          	ori	t2,s0,641
20003c10:	00a29293          	slli	t0,t0,0xa
20003c14:	0077a023          	sw	t2,0(a5)
20003c18:	01f30fb3          	add	t6,t1,t6
20003c1c:	2d12e293          	ori	t0,t0,721
20003c20:	0057a023          	sw	t0,0(a5)
20003c24:	016fd393          	srli	t2,t6,0x16
20003c28:	00af9293          	slli	t0,t6,0xa
20003c2c:	60058f93          	addi	t6,a1,1536
20003c30:	0107a023          	sw	a6,0(a5)
20003c34:	402fdf93          	srai	t6,t6,0x2
20003c38:	2012e293          	ori	t0,t0,513
20003c3c:	00a39393          	slli	t2,t2,0xa
20003c40:	0057a023          	sw	t0,0(a5)
20003c44:	00af9413          	slli	s0,t6,0xa
20003c48:	2413e393          	ori	t2,t2,577
20003c4c:	016fd293          	srli	t0,t6,0x16
20003c50:	30070f93          	addi	t6,a4,768
20003c54:	0077a023          	sw	t2,0(a5)
20003c58:	00cf8fb3          	add	t6,t6,a2
20003c5c:	28146393          	ori	t2,s0,641
20003c60:	00a29293          	slli	t0,t0,0xa
20003c64:	0077a023          	sw	t2,0(a5)
20003c68:	01f30fb3          	add	t6,t1,t6
20003c6c:	2d12e293          	ori	t0,t0,721
20003c70:	0057a023          	sw	t0,0(a5)
20003c74:	016fd393          	srli	t2,t6,0x16
20003c78:	00af9293          	slli	t0,t6,0xa
20003c7c:	01e58fb3          	add	t6,a1,t5
20003c80:	0107a023          	sw	a6,0(a5)
20003c84:	402fdf93          	srai	t6,t6,0x2
20003c88:	2012e293          	ori	t0,t0,513
20003c8c:	00a39393          	slli	t2,t2,0xa
20003c90:	0057a023          	sw	t0,0(a5)
20003c94:	00af9413          	slli	s0,t6,0xa
20003c98:	2413e393          	ori	t2,t2,577
20003c9c:	016fd293          	srli	t0,t6,0x16
20003ca0:	40070f93          	addi	t6,a4,1024
20003ca4:	0077a023          	sw	t2,0(a5)
20003ca8:	00cf8fb3          	add	t6,t6,a2
20003cac:	28146393          	ori	t2,s0,641
20003cb0:	00a29293          	slli	t0,t0,0xa
20003cb4:	0077a023          	sw	t2,0(a5)
20003cb8:	01f30fb3          	add	t6,t1,t6
20003cbc:	2d12e293          	ori	t0,t0,721
20003cc0:	0057a023          	sw	t0,0(a5)
20003cc4:	016fd393          	srli	t2,t6,0x16
20003cc8:	00af9293          	slli	t0,t6,0xa
20003ccc:	01d58fb3          	add	t6,a1,t4
20003cd0:	0107a023          	sw	a6,0(a5)
20003cd4:	402fdf93          	srai	t6,t6,0x2
20003cd8:	2012e293          	ori	t0,t0,513
20003cdc:	00a39393          	slli	t2,t2,0xa
20003ce0:	0057a023          	sw	t0,0(a5)
20003ce4:	00af9413          	slli	s0,t6,0xa
20003ce8:	2413e393          	ori	t2,t2,577
20003cec:	016fd293          	srli	t0,t6,0x16
20003cf0:	50070f93          	addi	t6,a4,1280
20003cf4:	0077a023          	sw	t2,0(a5)
20003cf8:	00cf8fb3          	add	t6,t6,a2
20003cfc:	28146393          	ori	t2,s0,641
20003d00:	00a29293          	slli	t0,t0,0xa
20003d04:	0077a023          	sw	t2,0(a5)
20003d08:	01f30fb3          	add	t6,t1,t6
20003d0c:	2d12e293          	ori	t0,t0,721
20003d10:	01c583b3          	add	t2,a1,t3
20003d14:	0057a023          	sw	t0,0(a5)
20003d18:	00af9413          	slli	s0,t6,0xa
20003d1c:	4023d293          	srai	t0,t2,0x2
20003d20:	016fdf93          	srli	t6,t6,0x16
20003d24:	0107a023          	sw	a6,0(a5)
20003d28:	0162d393          	srli	t2,t0,0x16
20003d2c:	20146413          	ori	s0,s0,513
20003d30:	00af9f93          	slli	t6,t6,0xa
20003d34:	60070713          	addi	a4,a4,1536
20003d38:	0087a023          	sw	s0,0(a5)
20003d3c:	241fef93          	ori	t6,t6,577
20003d40:	00c70733          	add	a4,a4,a2
20003d44:	00a29293          	slli	t0,t0,0xa
20003d48:	00a39393          	slli	t2,t2,0xa
20003d4c:	00e30733          	add	a4,t1,a4
20003d50:	01f7a023          	sw	t6,0(a5)
20003d54:	2d13e613          	ori	a2,t2,721
20003d58:	2812e293          	ori	t0,t0,641
20003d5c:	0057a023          	sw	t0,0(a5)
20003d60:	00a71f93          	slli	t6,a4,0xa
20003d64:	00c7a023          	sw	a2,0(a5)
20003d68:	01675713          	srli	a4,a4,0x16
20003d6c:	00a58633          	add	a2,a1,a0
20003d70:	0107a023          	sw	a6,0(a5)
20003d74:	40265613          	srai	a2,a2,0x2
20003d78:	201fef93          	ori	t6,t6,513
20003d7c:	00a71713          	slli	a4,a4,0xa
20003d80:	01f7a023          	sw	t6,0(a5)
20003d84:	24176713          	ori	a4,a4,577
20003d88:	00a61f93          	slli	t6,a2,0xa
20003d8c:	01665613          	srli	a2,a2,0x16
20003d90:	00e7a023          	sw	a4,0(a5)
20003d94:	00a61613          	slli	a2,a2,0xa
20003d98:	281fe713          	ori	a4,t6,641
20003d9c:	00e7a023          	sw	a4,0(a5)
20003da0:	2d166613          	ori	a2,a2,721
20003da4:	00c7a023          	sw	a2,0(a5)
20003da8:	0107a023          	sw	a6,0(a5)
20003dac:	0008c703          	lbu	a4,0(a7)
20003db0:	00858593          	addi	a1,a1,8
20003db4:	00188893          	addi	a7,a7,1
20003db8:	02070263          	beqz	a4,20003ddc <_Z8PrintDMAiiPKcb+0x324>
20003dbc:	fe070713          	addi	a4,a4,-32
20003dc0:	00068463          	beqz	a3,20003dc8 <_Z8PrintDMAiiPKcb+0x310>
20003dc4:	fe0704e3          	beqz	a4,20003dac <_Z8PrintDMAiiPKcb+0x2f4>
20003dc8:	d4075ce3          	bgez	a4,20003b20 <_Z8PrintDMAiiPKcb+0x68>
20003dcc:	0008c703          	lbu	a4,0(a7)
20003dd0:	00858593          	addi	a1,a1,8
20003dd4:	00188893          	addi	a7,a7,1
20003dd8:	fe0712e3          	bnez	a4,20003dbc <_Z8PrintDMAiiPKcb+0x304>
20003ddc:	00c12403          	lw	s0,12(sp)
20003de0:	01010113          	addi	sp,sp,16
20003de4:	00008067          	ret
20003de8:	0008c703          	lbu	a4,0(a7)
20003dec:	00858593          	addi	a1,a1,8
20003df0:	00188893          	addi	a7,a7,1
20003df4:	d0071ae3          	bnez	a4,20003b08 <_Z8PrintDMAiiPKcb+0x50>
20003df8:	00008067          	ret

20003dfc <_Z8PrintDMAiiiPKcb>:
20003dfc:	38c05c63          	blez	a2,20004194 <_Z8PrintDMAiiiPKcb+0x398>
20003e00:	000012b7          	lui	t0,0x1
20003e04:	00007797          	auipc	a5,0x7
20003e08:	1c07a783          	lw	a5,448(a5) # 2000afc4 <_GLOBAL_OFFSET_TABLE_+0x1c>
20003e0c:	00e03833          	snez	a6,a4
20003e10:	ac428e13          	addi	t3,t0,-1340 # ac4 <_STACK_SIZE+0x8d4>
20003e14:	0007a883          	lw	a7,0(a5)
20003e18:	01981813          	slli	a6,a6,0x19
20003e1c:	00959593          	slli	a1,a1,0x9
20003e20:	00007797          	auipc	a5,0x7
20003e24:	1987a783          	lw	a5,408(a5) # 2000afb8 <_GLOBAL_OFFSET_TABLE_+0x10>
20003e28:	01c86833          	or	a6,a6,t3
20003e2c:	00a585b3          	add	a1,a1,a0
20003e30:	0007a783          	lw	a5,0(a5)
20003e34:	00068313          	mv	t1,a3
20003e38:	00c68633          	add	a2,a3,a2
20003e3c:	07f00f93          	li	t6,127
20003e40:	80028f13          	addi	t5,t0,-2048
20003e44:	a0028e93          	addi	t4,t0,-1536
20003e48:	c0028e13          	addi	t3,t0,-1024
20003e4c:	e0028513          	addi	a0,t0,-512
20003e50:	0100006f          	j	20003e60 <_Z8PrintDMAiiiPKcb+0x64>
20003e54:	00130313          	addi	t1,t1,1
20003e58:	00858593          	addi	a1,a1,8
20003e5c:	32c30c63          	beq	t1,a2,20004194 <_Z8PrintDMAiiiPKcb+0x398>
20003e60:	00034683          	lbu	a3,0(t1)
20003e64:	32068863          	beqz	a3,20004194 <_Z8PrintDMAiiiPKcb+0x398>
20003e68:	fe068693          	addi	a3,a3,-32
20003e6c:	00070463          	beqz	a4,20003e74 <_Z8PrintDMAiiiPKcb+0x78>
20003e70:	fe0682e3          	beqz	a3,20003e54 <_Z8PrintDMAiiiPKcb+0x58>
20003e74:	fe010113          	addi	sp,sp,-32
20003e78:	00812e23          	sw	s0,28(sp)
20003e7c:	00912c23          	sw	s1,24(sp)
20003e80:	01212a23          	sw	s2,20(sp)
20003e84:	01312823          	sw	s3,16(sp)
20003e88:	01412623          	sw	s4,12(sp)
20003e8c:	01512423          	sw	s5,8(sp)
20003e90:	01612223          	sw	s6,4(sp)
20003e94:	2cdfee63          	bltu	t6,a3,20004170 <_Z8PrintDMAiiiPKcb+0x374>
20003e98:	4056d393          	srai	t2,a3,0x5
20003e9c:	01f6f693          	andi	a3,a3,31
20003ea0:	00b39a13          	slli	s4,t2,0xb
20003ea4:	00369293          	slli	t0,a3,0x3
20003ea8:	005a06b3          	add	a3,s4,t0
20003eac:	200a0993          	addi	s3,s4,512
20003eb0:	300a0913          	addi	s2,s4,768
20003eb4:	400a0493          	addi	s1,s4,1024
20003eb8:	500a0413          	addi	s0,s4,1280
20003ebc:	600a0393          	addi	t2,s4,1536
20003ec0:	700a0a93          	addi	s5,s4,1792
20003ec4:	100a0a13          	addi	s4,s4,256
20003ec8:	01428a33          	add	s4,t0,s4
20003ecc:	005989b3          	add	s3,s3,t0
20003ed0:	00590933          	add	s2,s2,t0
20003ed4:	005484b3          	add	s1,s1,t0
20003ed8:	00540433          	add	s0,s0,t0
20003edc:	005383b3          	add	t2,t2,t0
20003ee0:	00d886b3          	add	a3,a7,a3
20003ee4:	005a82b3          	add	t0,s5,t0
20003ee8:	00a69b13          	slli	s6,a3,0xa
20003eec:	0166da93          	srli	s5,a3,0x16
20003ef0:	201b6b13          	ori	s6,s6,513
20003ef4:	4025d693          	srai	a3,a1,0x2
20003ef8:	00aa9a93          	slli	s5,s5,0xa
20003efc:	0167a023          	sw	s6,0(a5)
20003f00:	241aea93          	ori	s5,s5,577
20003f04:	00a69b13          	slli	s6,a3,0xa
20003f08:	0166d693          	srli	a3,a3,0x16
20003f0c:	0157a023          	sw	s5,0(a5)
20003f10:	00a69693          	slli	a3,a3,0xa
20003f14:	281b6a93          	ori	s5,s6,641
20003f18:	0157a023          	sw	s5,0(a5)
20003f1c:	01488a33          	add	s4,a7,s4
20003f20:	2d16e693          	ori	a3,a3,721
20003f24:	00d7a023          	sw	a3,0(a5)
20003f28:	00aa1a93          	slli	s5,s4,0xa
20003f2c:	20058693          	addi	a3,a1,512
20003f30:	016a5a13          	srli	s4,s4,0x16
20003f34:	0107a023          	sw	a6,0(a5)
20003f38:	4026d693          	srai	a3,a3,0x2
20003f3c:	201aea93          	ori	s5,s5,513
20003f40:	00aa1a13          	slli	s4,s4,0xa
20003f44:	0157a023          	sw	s5,0(a5)
20003f48:	241a6a13          	ori	s4,s4,577
20003f4c:	00a69a93          	slli	s5,a3,0xa
20003f50:	0166d693          	srli	a3,a3,0x16
20003f54:	0147a023          	sw	s4,0(a5)
20003f58:	00a69693          	slli	a3,a3,0xa
20003f5c:	281aea13          	ori	s4,s5,641
20003f60:	0147a023          	sw	s4,0(a5)
20003f64:	013889b3          	add	s3,a7,s3
20003f68:	2d16e693          	ori	a3,a3,721
20003f6c:	00d7a023          	sw	a3,0(a5)
20003f70:	00a99a13          	slli	s4,s3,0xa
20003f74:	40058693          	addi	a3,a1,1024
20003f78:	0169d993          	srli	s3,s3,0x16
20003f7c:	0107a023          	sw	a6,0(a5)
20003f80:	4026d693          	srai	a3,a3,0x2
20003f84:	201a6a13          	ori	s4,s4,513
20003f88:	00a99993          	slli	s3,s3,0xa
20003f8c:	0147a023          	sw	s4,0(a5)
20003f90:	2419e993          	ori	s3,s3,577
20003f94:	00a69a13          	slli	s4,a3,0xa
20003f98:	0166d693          	srli	a3,a3,0x16
20003f9c:	0137a023          	sw	s3,0(a5)
20003fa0:	00a69693          	slli	a3,a3,0xa
20003fa4:	281a6993          	ori	s3,s4,641
20003fa8:	0137a023          	sw	s3,0(a5)
20003fac:	01288933          	add	s2,a7,s2
20003fb0:	2d16e693          	ori	a3,a3,721
20003fb4:	00d7a023          	sw	a3,0(a5)
20003fb8:	00a91993          	slli	s3,s2,0xa
20003fbc:	60058693          	addi	a3,a1,1536
20003fc0:	01695913          	srli	s2,s2,0x16
20003fc4:	0107a023          	sw	a6,0(a5)
20003fc8:	4026d693          	srai	a3,a3,0x2
20003fcc:	2019e993          	ori	s3,s3,513
20003fd0:	00a91913          	slli	s2,s2,0xa
20003fd4:	0137a023          	sw	s3,0(a5)
20003fd8:	24196913          	ori	s2,s2,577
20003fdc:	00a69993          	slli	s3,a3,0xa
20003fe0:	0166d693          	srli	a3,a3,0x16
20003fe4:	0127a023          	sw	s2,0(a5)
20003fe8:	00a69693          	slli	a3,a3,0xa
20003fec:	2819e913          	ori	s2,s3,641
20003ff0:	0127a023          	sw	s2,0(a5)
20003ff4:	009884b3          	add	s1,a7,s1
20003ff8:	2d16e693          	ori	a3,a3,721
20003ffc:	00d7a023          	sw	a3,0(a5)
20004000:	00a49913          	slli	s2,s1,0xa
20004004:	01e586b3          	add	a3,a1,t5
20004008:	0164d493          	srli	s1,s1,0x16
2000400c:	0107a023          	sw	a6,0(a5)
20004010:	4026d693          	srai	a3,a3,0x2
20004014:	20196913          	ori	s2,s2,513
20004018:	00a49493          	slli	s1,s1,0xa
2000401c:	0127a023          	sw	s2,0(a5)
20004020:	2414e493          	ori	s1,s1,577
20004024:	00a69913          	slli	s2,a3,0xa
20004028:	0166d693          	srli	a3,a3,0x16
2000402c:	0097a023          	sw	s1,0(a5)
20004030:	00a69693          	slli	a3,a3,0xa
20004034:	28196493          	ori	s1,s2,641
20004038:	0097a023          	sw	s1,0(a5)
2000403c:	00888433          	add	s0,a7,s0
20004040:	2d16e693          	ori	a3,a3,721
20004044:	00d7a023          	sw	a3,0(a5)
20004048:	00a41493          	slli	s1,s0,0xa
2000404c:	01d586b3          	add	a3,a1,t4
20004050:	01645413          	srli	s0,s0,0x16
20004054:	0107a023          	sw	a6,0(a5)
20004058:	4026d693          	srai	a3,a3,0x2
2000405c:	2014e493          	ori	s1,s1,513
20004060:	00a41413          	slli	s0,s0,0xa
20004064:	0097a023          	sw	s1,0(a5)
20004068:	24146413          	ori	s0,s0,577
2000406c:	00a69493          	slli	s1,a3,0xa
20004070:	0166d693          	srli	a3,a3,0x16
20004074:	0087a023          	sw	s0,0(a5)
20004078:	00a69693          	slli	a3,a3,0xa
2000407c:	2814e413          	ori	s0,s1,641
20004080:	0087a023          	sw	s0,0(a5)
20004084:	007883b3          	add	t2,a7,t2
20004088:	01c58433          	add	s0,a1,t3
2000408c:	2d16e693          	ori	a3,a3,721
20004090:	00d7a023          	sw	a3,0(a5)
20004094:	00a39493          	slli	s1,t2,0xa
20004098:	40245693          	srai	a3,s0,0x2
2000409c:	0163d393          	srli	t2,t2,0x16
200040a0:	0107a023          	sw	a6,0(a5)
200040a4:	0166d413          	srli	s0,a3,0x16
200040a8:	2014e493          	ori	s1,s1,513
200040ac:	00a39393          	slli	t2,t2,0xa
200040b0:	0097a023          	sw	s1,0(a5)
200040b4:	2413e393          	ori	t2,t2,577
200040b8:	00a41413          	slli	s0,s0,0xa
200040bc:	00a69693          	slli	a3,a3,0xa
200040c0:	005882b3          	add	t0,a7,t0
200040c4:	0077a023          	sw	t2,0(a5)
200040c8:	2816e693          	ori	a3,a3,641
200040cc:	2d146393          	ori	t2,s0,721
200040d0:	00d7a023          	sw	a3,0(a5)
200040d4:	00a29413          	slli	s0,t0,0xa
200040d8:	0077a023          	sw	t2,0(a5)
200040dc:	00a586b3          	add	a3,a1,a0
200040e0:	0162d293          	srli	t0,t0,0x16
200040e4:	0107a023          	sw	a6,0(a5)
200040e8:	4026d693          	srai	a3,a3,0x2
200040ec:	20146393          	ori	t2,s0,513
200040f0:	00a29293          	slli	t0,t0,0xa
200040f4:	0077a023          	sw	t2,0(a5)
200040f8:	2412e293          	ori	t0,t0,577
200040fc:	00a69393          	slli	t2,a3,0xa
20004100:	0166d693          	srli	a3,a3,0x16
20004104:	0057a023          	sw	t0,0(a5)
20004108:	00a69693          	slli	a3,a3,0xa
2000410c:	2813e293          	ori	t0,t2,641
20004110:	0057a023          	sw	t0,0(a5)
20004114:	2d16e693          	ori	a3,a3,721
20004118:	00d7a023          	sw	a3,0(a5)
2000411c:	0107a023          	sw	a6,0(a5)
20004120:	00130313          	addi	t1,t1,1
20004124:	00858593          	addi	a1,a1,8
20004128:	02c30263          	beq	t1,a2,2000414c <_Z8PrintDMAiiiPKcb+0x350>
2000412c:	00034683          	lbu	a3,0(t1)
20004130:	00068e63          	beqz	a3,2000414c <_Z8PrintDMAiiiPKcb+0x350>
20004134:	fe068693          	addi	a3,a3,-32
20004138:	d4070ee3          	beqz	a4,20003e94 <_Z8PrintDMAiiiPKcb+0x98>
2000413c:	d4069ce3          	bnez	a3,20003e94 <_Z8PrintDMAiiiPKcb+0x98>
20004140:	00130313          	addi	t1,t1,1
20004144:	00858593          	addi	a1,a1,8
20004148:	fec312e3          	bne	t1,a2,2000412c <_Z8PrintDMAiiiPKcb+0x330>
2000414c:	01c12403          	lw	s0,28(sp)
20004150:	01812483          	lw	s1,24(sp)
20004154:	01412903          	lw	s2,20(sp)
20004158:	01012983          	lw	s3,16(sp)
2000415c:	00c12a03          	lw	s4,12(sp)
20004160:	00812a83          	lw	s5,8(sp)
20004164:	00412b03          	lw	s6,4(sp)
20004168:	02010113          	addi	sp,sp,32
2000416c:	00008067          	ret
20004170:	00088693          	mv	a3,a7
20004174:	70000293          	li	t0,1792
20004178:	60000393          	li	t2,1536
2000417c:	50000413          	li	s0,1280
20004180:	40000493          	li	s1,1024
20004184:	30000913          	li	s2,768
20004188:	20000993          	li	s3,512
2000418c:	10000a13          	li	s4,256
20004190:	d59ff06f          	j	20003ee8 <_Z8PrintDMAiiiPKcb+0xec>
20004194:	00008067          	ret

20004198 <_Z11PrintDMAHexiim>:
20004198:	00005e17          	auipc	t3,0x5
2000419c:	5d8e0e13          	addi	t3,t3,1496 # 20009770 <__clz_tab+0x62c>
200041a0:	00ce2f03          	lw	t5,12(t3)
200041a4:	008e2f83          	lw	t6,8(t3)
200041a8:	000e2383          	lw	t2,0(t3)
200041ac:	004e2283          	lw	t0,4(t3)
200041b0:	fd010113          	addi	sp,sp,-48
200041b4:	01865313          	srli	t1,a2,0x18
200041b8:	01465893          	srli	a7,a2,0x14
200041bc:	01065813          	srli	a6,a2,0x10
200041c0:	00c65693          	srli	a3,a2,0xc
200041c4:	00865713          	srli	a4,a2,0x8
200041c8:	00465793          	srli	a5,a2,0x4
200041cc:	01e12c23          	sw	t5,24(sp)
200041d0:	01c65e93          	srli	t4,a2,0x1c
200041d4:	02010f13          	addi	t5,sp,32
200041d8:	00f37313          	andi	t1,t1,15
200041dc:	00f8f893          	andi	a7,a7,15
200041e0:	00f87813          	andi	a6,a6,15
200041e4:	00f6f693          	andi	a3,a3,15
200041e8:	00f77713          	andi	a4,a4,15
200041ec:	00f7f793          	andi	a5,a5,15
200041f0:	00f67613          	andi	a2,a2,15
200041f4:	02112623          	sw	ra,44(sp)
200041f8:	01f12a23          	sw	t6,20(sp)
200041fc:	00712623          	sw	t2,12(sp)
20004200:	00512823          	sw	t0,16(sp)
20004204:	006f0333          	add	t1,t5,t1
20004208:	011f08b3          	add	a7,t5,a7
2000420c:	010f0833          	add	a6,t5,a6
20004210:	00df06b3          	add	a3,t5,a3
20004214:	00ef0733          	add	a4,t5,a4
20004218:	00ff07b3          	add	a5,t5,a5
2000421c:	00cf0633          	add	a2,t5,a2
20004220:	01df0eb3          	add	t4,t5,t4
20004224:	010e4f83          	lbu	t6,16(t3)
20004228:	fececf03          	lbu	t5,-20(t4)
2000422c:	fec8ce03          	lbu	t3,-20(a7)
20004230:	fec34e83          	lbu	t4,-20(t1)
20004234:	fec6c883          	lbu	a7,-20(a3)
20004238:	fec84303          	lbu	t1,-20(a6)
2000423c:	fec74803          	lbu	a6,-20(a4)
20004240:	fec7c703          	lbu	a4,-20(a5)
20004244:	fec64783          	lbu	a5,-20(a2)
20004248:	02e00693          	li	a3,46
2000424c:	00d11423          	sh	a3,8(sp)
20004250:	00010613          	mv	a2,sp
20004254:	00100693          	li	a3,1
20004258:	01f10e23          	sb	t6,28(sp)
2000425c:	01e10023          	sb	t5,0(sp)
20004260:	01d100a3          	sb	t4,1(sp)
20004264:	01c10123          	sb	t3,2(sp)
20004268:	006101a3          	sb	t1,3(sp)
2000426c:	01110223          	sb	a7,4(sp)
20004270:	010102a3          	sb	a6,5(sp)
20004274:	00e10323          	sb	a4,6(sp)
20004278:	00f103a3          	sb	a5,7(sp)
2000427c:	00010423          	sb	zero,8(sp)
20004280:	839ff0ef          	jal	ra,20003ab8 <_Z8PrintDMAiiPKcb>
20004284:	02c12083          	lw	ra,44(sp)
20004288:	03010113          	addi	sp,sp,48
2000428c:	00008067          	ret

20004290 <_Z15PrintDMADecimaliiib>:
20004290:	00005797          	auipc	a5,0x5
20004294:	4f478793          	addi	a5,a5,1268 # 20009784 <__clz_tab+0x640>
20004298:	00005717          	auipc	a4,0x5
2000429c:	50070713          	addi	a4,a4,1280 # 20009798 <__clz_tab+0x654>
200042a0:	00072f83          	lw	t6,0(a4)
200042a4:	00472f03          	lw	t5,4(a4)
200042a8:	00875e83          	lhu	t4,8(a4)
200042ac:	00a74e03          	lbu	t3,10(a4)
200042b0:	0007a303          	lw	t1,0(a5)
200042b4:	0047a883          	lw	a7,4(a5)
200042b8:	0087a803          	lw	a6,8(a5)
200042bc:	00c7a703          	lw	a4,12(a5)
200042c0:	0107a783          	lw	a5,16(a5)
200042c4:	fc010113          	addi	sp,sp,-64
200042c8:	02812c23          	sw	s0,56(sp)
200042cc:	02912a23          	sw	s1,52(sp)
200042d0:	03312623          	sw	s3,44(sp)
200042d4:	03412423          	sw	s4,40(sp)
200042d8:	03512223          	sw	s5,36(sp)
200042dc:	00f12e23          	sw	a5,28(sp)
200042e0:	02112e23          	sw	ra,60(sp)
200042e4:	03212823          	sw	s2,48(sp)
200042e8:	01f12023          	sw	t6,0(sp)
200042ec:	01e12223          	sw	t5,4(sp)
200042f0:	01d11423          	sh	t4,8(sp)
200042f4:	01c10523          	sb	t3,10(sp)
200042f8:	00612623          	sw	t1,12(sp)
200042fc:	01112823          	sw	a7,16(sp)
20004300:	01012a23          	sw	a6,20(sp)
20004304:	00e12c23          	sw	a4,24(sp)
20004308:	00060493          	mv	s1,a2
2000430c:	00050993          	mv	s3,a0
20004310:	00058a13          	mv	s4,a1
20004314:	00068a93          	mv	s5,a3
20004318:	02d00793          	li	a5,45
2000431c:	00100413          	li	s0,1
20004320:	00064663          	bltz	a2,2000432c <_Z15PrintDMADecimaliiib+0x9c>
20004324:	02000793          	li	a5,32
20004328:	00000413          	li	s0,0
2000432c:	3b9ad937          	lui	s2,0x3b9ad
20004330:	a0090593          	addi	a1,s2,-1536 # 3b9aca00 <__global_pointer$+0x1b9a11e0>
20004334:	00048513          	mv	a0,s1
20004338:	00f10623          	sb	a5,12(sp)
2000433c:	c8dfd0ef          	jal	ra,20001fc8 <__divsi3>
20004340:	41f55693          	srai	a3,a0,0x1f
20004344:	9ff90913          	addi	s2,s2,-1537
20004348:	77359737          	lui	a4,0x77359
2000434c:	00a6c7b3          	xor	a5,a3,a0
20004350:	01248933          	add	s2,s1,s2
20004354:	3fe70713          	addi	a4,a4,1022 # 773593fe <__global_pointer$+0x5734dbde>
20004358:	40d787b3          	sub	a5,a5,a3
2000435c:	1b276663          	bltu	a4,s2,20004508 <_Z15PrintDMADecimaliiib+0x278>
20004360:	05f5e5b7          	lui	a1,0x5f5e
20004364:	10058593          	addi	a1,a1,256 # 5f5e100 <_STACK_SIZE+0x5f5df10>
20004368:	00048513          	mv	a0,s1
2000436c:	c5dfd0ef          	jal	ra,20001fc8 <__divsi3>
20004370:	41f55793          	srai	a5,a0,0x1f
20004374:	00a7c533          	xor	a0,a5,a0
20004378:	00a00593          	li	a1,10
2000437c:	40f50533          	sub	a0,a0,a5
20004380:	ccdfd0ef          	jal	ra,2000204c <__modsi3>
20004384:	1c051263          	bnez	a0,20004548 <_Z15PrintDMADecimaliiib+0x2b8>
20004388:	009895b7          	lui	a1,0x989
2000438c:	68058593          	addi	a1,a1,1664 # 989680 <_STACK_SIZE+0x989490>
20004390:	00048513          	mv	a0,s1
20004394:	c35fd0ef          	jal	ra,20001fc8 <__divsi3>
20004398:	41f55793          	srai	a5,a0,0x1f
2000439c:	00a7c533          	xor	a0,a5,a0
200043a0:	00a00593          	li	a1,10
200043a4:	40f50533          	sub	a0,a0,a5
200043a8:	ca5fd0ef          	jal	ra,2000204c <__modsi3>
200043ac:	1c051c63          	bnez	a0,20004584 <_Z15PrintDMADecimaliiib+0x2f4>
200043b0:	000f45b7          	lui	a1,0xf4
200043b4:	24058593          	addi	a1,a1,576 # f4240 <_STACK_SIZE+0xf4050>
200043b8:	00048513          	mv	a0,s1
200043bc:	c0dfd0ef          	jal	ra,20001fc8 <__divsi3>
200043c0:	41f55793          	srai	a5,a0,0x1f
200043c4:	00a7c533          	xor	a0,a5,a0
200043c8:	00a00593          	li	a1,10
200043cc:	40f50533          	sub	a0,a0,a5
200043d0:	c7dfd0ef          	jal	ra,2000204c <__modsi3>
200043d4:	1e051663          	bnez	a0,200045c0 <_Z15PrintDMADecimaliiib+0x330>
200043d8:	000185b7          	lui	a1,0x18
200043dc:	6a058593          	addi	a1,a1,1696 # 186a0 <_STACK_SIZE+0x184b0>
200043e0:	00048513          	mv	a0,s1
200043e4:	be5fd0ef          	jal	ra,20001fc8 <__divsi3>
200043e8:	41f55793          	srai	a5,a0,0x1f
200043ec:	00a7c533          	xor	a0,a5,a0
200043f0:	00a00593          	li	a1,10
200043f4:	40f50533          	sub	a0,a0,a5
200043f8:	c55fd0ef          	jal	ra,2000204c <__modsi3>
200043fc:	20051063          	bnez	a0,200045fc <_Z15PrintDMADecimaliiib+0x36c>
20004400:	000025b7          	lui	a1,0x2
20004404:	71058593          	addi	a1,a1,1808 # 2710 <_STACK_SIZE+0x2520>
20004408:	00048513          	mv	a0,s1
2000440c:	bbdfd0ef          	jal	ra,20001fc8 <__divsi3>
20004410:	41f55793          	srai	a5,a0,0x1f
20004414:	00a7c533          	xor	a0,a5,a0
20004418:	00a00593          	li	a1,10
2000441c:	40f50533          	sub	a0,a0,a5
20004420:	c2dfd0ef          	jal	ra,2000204c <__modsi3>
20004424:	20051a63          	bnez	a0,20004638 <_Z15PrintDMADecimaliiib+0x3a8>
20004428:	3e800593          	li	a1,1000
2000442c:	00048513          	mv	a0,s1
20004430:	b99fd0ef          	jal	ra,20001fc8 <__divsi3>
20004434:	41f55793          	srai	a5,a0,0x1f
20004438:	00a7c533          	xor	a0,a5,a0
2000443c:	00a00593          	li	a1,10
20004440:	40f50533          	sub	a0,a0,a5
20004444:	c09fd0ef          	jal	ra,2000204c <__modsi3>
20004448:	22051463          	bnez	a0,20004670 <_Z15PrintDMADecimaliiib+0x3e0>
2000444c:	06400593          	li	a1,100
20004450:	00048513          	mv	a0,s1
20004454:	b75fd0ef          	jal	ra,20001fc8 <__divsi3>
20004458:	41f55793          	srai	a5,a0,0x1f
2000445c:	00a7c533          	xor	a0,a5,a0
20004460:	00a00593          	li	a1,10
20004464:	40f50533          	sub	a0,a0,a5
20004468:	be5fd0ef          	jal	ra,2000204c <__modsi3>
2000446c:	22051e63          	bnez	a0,200046a8 <_Z15PrintDMADecimaliiib+0x418>
20004470:	00a00593          	li	a1,10
20004474:	00048513          	mv	a0,s1
20004478:	b51fd0ef          	jal	ra,20001fc8 <__divsi3>
2000447c:	41f55793          	srai	a5,a0,0x1f
20004480:	00a7c533          	xor	a0,a5,a0
20004484:	00a00593          	li	a1,10
20004488:	40f50533          	sub	a0,a0,a5
2000448c:	bc1fd0ef          	jal	ra,2000204c <__modsi3>
20004490:	24051863          	bnez	a0,200046e0 <_Z15PrintDMADecimaliiib+0x450>
20004494:	41f4d513          	srai	a0,s1,0x1f
20004498:	009544b3          	xor	s1,a0,s1
2000449c:	00a00593          	li	a1,10
200044a0:	40a48533          	sub	a0,s1,a0
200044a4:	ba9fd0ef          	jal	ra,2000204c <__modsi3>
200044a8:	02010793          	addi	a5,sp,32
200044ac:	00a78533          	add	a0,a5,a0
200044b0:	fe054783          	lbu	a5,-32(a0)
200044b4:	02010713          	addi	a4,sp,32
200044b8:	00140493          	addi	s1,s0,1
200044bc:	00870433          	add	s0,a4,s0
200044c0:	fef40623          	sb	a5,-20(s0)
200044c4:	009707b3          	add	a5,a4,s1
200044c8:	00098513          	mv	a0,s3
200044cc:	000a8693          	mv	a3,s5
200044d0:	00c10613          	addi	a2,sp,12
200044d4:	000a0593          	mv	a1,s4
200044d8:	fe078623          	sb	zero,-20(a5)
200044dc:	ddcff0ef          	jal	ra,20003ab8 <_Z8PrintDMAiiPKcb>
200044e0:	03c12083          	lw	ra,60(sp)
200044e4:	03812403          	lw	s0,56(sp)
200044e8:	03012903          	lw	s2,48(sp)
200044ec:	02c12983          	lw	s3,44(sp)
200044f0:	02812a03          	lw	s4,40(sp)
200044f4:	02412a83          	lw	s5,36(sp)
200044f8:	00048513          	mv	a0,s1
200044fc:	03412483          	lw	s1,52(sp)
20004500:	04010113          	addi	sp,sp,64
20004504:	00008067          	ret
20004508:	02010713          	addi	a4,sp,32
2000450c:	00f707b3          	add	a5,a4,a5
20004510:	fe07c703          	lbu	a4,-32(a5)
20004514:	02010793          	addi	a5,sp,32
20004518:	008787b3          	add	a5,a5,s0
2000451c:	05f5e5b7          	lui	a1,0x5f5e
20004520:	fee78623          	sb	a4,-20(a5)
20004524:	10058593          	addi	a1,a1,256 # 5f5e100 <_STACK_SIZE+0x5f5df10>
20004528:	00048513          	mv	a0,s1
2000452c:	a9dfd0ef          	jal	ra,20001fc8 <__divsi3>
20004530:	41f55793          	srai	a5,a0,0x1f
20004534:	00a7c533          	xor	a0,a5,a0
20004538:	00a00593          	li	a1,10
2000453c:	40f50533          	sub	a0,a0,a5
20004540:	b0dfd0ef          	jal	ra,2000204c <__modsi3>
20004544:	00140413          	addi	s0,s0,1
20004548:	02010793          	addi	a5,sp,32
2000454c:	00a78533          	add	a0,a5,a0
20004550:	fe054703          	lbu	a4,-32(a0)
20004554:	008787b3          	add	a5,a5,s0
20004558:	009895b7          	lui	a1,0x989
2000455c:	fee78623          	sb	a4,-20(a5)
20004560:	68058593          	addi	a1,a1,1664 # 989680 <_STACK_SIZE+0x989490>
20004564:	00048513          	mv	a0,s1
20004568:	a61fd0ef          	jal	ra,20001fc8 <__divsi3>
2000456c:	41f55793          	srai	a5,a0,0x1f
20004570:	00a7c533          	xor	a0,a5,a0
20004574:	00a00593          	li	a1,10
20004578:	40f50533          	sub	a0,a0,a5
2000457c:	ad1fd0ef          	jal	ra,2000204c <__modsi3>
20004580:	00140413          	addi	s0,s0,1
20004584:	02010793          	addi	a5,sp,32
20004588:	00a78533          	add	a0,a5,a0
2000458c:	fe054703          	lbu	a4,-32(a0)
20004590:	008787b3          	add	a5,a5,s0
20004594:	000f45b7          	lui	a1,0xf4
20004598:	fee78623          	sb	a4,-20(a5)
2000459c:	24058593          	addi	a1,a1,576 # f4240 <_STACK_SIZE+0xf4050>
200045a0:	00048513          	mv	a0,s1
200045a4:	a25fd0ef          	jal	ra,20001fc8 <__divsi3>
200045a8:	41f55793          	srai	a5,a0,0x1f
200045ac:	00a7c533          	xor	a0,a5,a0
200045b0:	00a00593          	li	a1,10
200045b4:	40f50533          	sub	a0,a0,a5
200045b8:	a95fd0ef          	jal	ra,2000204c <__modsi3>
200045bc:	00140413          	addi	s0,s0,1
200045c0:	02010793          	addi	a5,sp,32
200045c4:	00a78533          	add	a0,a5,a0
200045c8:	fe054703          	lbu	a4,-32(a0)
200045cc:	008787b3          	add	a5,a5,s0
200045d0:	000185b7          	lui	a1,0x18
200045d4:	fee78623          	sb	a4,-20(a5)
200045d8:	6a058593          	addi	a1,a1,1696 # 186a0 <_STACK_SIZE+0x184b0>
200045dc:	00048513          	mv	a0,s1
200045e0:	9e9fd0ef          	jal	ra,20001fc8 <__divsi3>
200045e4:	41f55793          	srai	a5,a0,0x1f
200045e8:	00a7c533          	xor	a0,a5,a0
200045ec:	00a00593          	li	a1,10
200045f0:	40f50533          	sub	a0,a0,a5
200045f4:	a59fd0ef          	jal	ra,2000204c <__modsi3>
200045f8:	00140413          	addi	s0,s0,1
200045fc:	02010793          	addi	a5,sp,32
20004600:	00a78533          	add	a0,a5,a0
20004604:	fe054703          	lbu	a4,-32(a0)
20004608:	008787b3          	add	a5,a5,s0
2000460c:	000025b7          	lui	a1,0x2
20004610:	fee78623          	sb	a4,-20(a5)
20004614:	71058593          	addi	a1,a1,1808 # 2710 <_STACK_SIZE+0x2520>
20004618:	00048513          	mv	a0,s1
2000461c:	9adfd0ef          	jal	ra,20001fc8 <__divsi3>
20004620:	41f55793          	srai	a5,a0,0x1f
20004624:	00a7c533          	xor	a0,a5,a0
20004628:	00a00593          	li	a1,10
2000462c:	40f50533          	sub	a0,a0,a5
20004630:	a1dfd0ef          	jal	ra,2000204c <__modsi3>
20004634:	00140413          	addi	s0,s0,1
20004638:	02010793          	addi	a5,sp,32
2000463c:	00a78533          	add	a0,a5,a0
20004640:	fe054703          	lbu	a4,-32(a0)
20004644:	008787b3          	add	a5,a5,s0
20004648:	3e800593          	li	a1,1000
2000464c:	fee78623          	sb	a4,-20(a5)
20004650:	00048513          	mv	a0,s1
20004654:	975fd0ef          	jal	ra,20001fc8 <__divsi3>
20004658:	41f55793          	srai	a5,a0,0x1f
2000465c:	00a7c533          	xor	a0,a5,a0
20004660:	00a00593          	li	a1,10
20004664:	40f50533          	sub	a0,a0,a5
20004668:	9e5fd0ef          	jal	ra,2000204c <__modsi3>
2000466c:	00140413          	addi	s0,s0,1
20004670:	02010793          	addi	a5,sp,32
20004674:	00a78533          	add	a0,a5,a0
20004678:	fe054703          	lbu	a4,-32(a0)
2000467c:	008787b3          	add	a5,a5,s0
20004680:	06400593          	li	a1,100
20004684:	fee78623          	sb	a4,-20(a5)
20004688:	00048513          	mv	a0,s1
2000468c:	93dfd0ef          	jal	ra,20001fc8 <__divsi3>
20004690:	41f55793          	srai	a5,a0,0x1f
20004694:	00a7c533          	xor	a0,a5,a0
20004698:	00a00593          	li	a1,10
2000469c:	40f50533          	sub	a0,a0,a5
200046a0:	9adfd0ef          	jal	ra,2000204c <__modsi3>
200046a4:	00140413          	addi	s0,s0,1
200046a8:	02010793          	addi	a5,sp,32
200046ac:	00a78533          	add	a0,a5,a0
200046b0:	fe054703          	lbu	a4,-32(a0)
200046b4:	008787b3          	add	a5,a5,s0
200046b8:	00a00593          	li	a1,10
200046bc:	fee78623          	sb	a4,-20(a5)
200046c0:	00048513          	mv	a0,s1
200046c4:	905fd0ef          	jal	ra,20001fc8 <__divsi3>
200046c8:	41f55793          	srai	a5,a0,0x1f
200046cc:	00a7c533          	xor	a0,a5,a0
200046d0:	00a00593          	li	a1,10
200046d4:	40f50533          	sub	a0,a0,a5
200046d8:	975fd0ef          	jal	ra,2000204c <__modsi3>
200046dc:	00140413          	addi	s0,s0,1
200046e0:	02010793          	addi	a5,sp,32
200046e4:	00a78533          	add	a0,a5,a0
200046e8:	fe054703          	lbu	a4,-32(a0)
200046ec:	008787b3          	add	a5,a5,s0
200046f0:	00140413          	addi	s0,s0,1
200046f4:	fee78623          	sb	a4,-20(a5)
200046f8:	d9dff06f          	j	20004494 <_Z15PrintDMADecimaliiib+0x204>

200046fc <_GLOBAL__sub_I_gpu.cpp>:
200046fc:	00007797          	auipc	a5,0x7
20004700:	8c07a783          	lw	a5,-1856(a5) # 2000afbc <_GLOBAL_OFFSET_TABLE_+0x14>
20004704:	0007a703          	lw	a4,0(a5)
20004708:	00007797          	auipc	a5,0x7
2000470c:	8bc7a783          	lw	a5,-1860(a5) # 2000afc4 <_GLOBAL_OFFSET_TABLE_+0x1c>
20004710:	00e7a023          	sw	a4,0(a5)
20004714:	00008067          	ret

20004718 <_ZL12get_ldnumberPPKc>:
20004718:	00052f83          	lw	t6,0(a0)
2000471c:	0e0f8c63          	beqz	t6,20004814 <_ZL12get_ldnumberPPKc+0xfc>
20004720:	00050f13          	mv	t5,a0
20004724:	000f8793          	mv	a5,t6
20004728:	01f00693          	li	a3,31
2000472c:	03a00613          	li	a2,58
20004730:	0080006f          	j	20004738 <_ZL12get_ldnumberPPKc+0x20>
20004734:	00c70c63          	beq	a4,a2,2000474c <_ZL12get_ldnumberPPKc+0x34>
20004738:	0007c703          	lbu	a4,0(a5)
2000473c:	00178793          	addi	a5,a5,1
20004740:	fee6eae3          	bltu	a3,a4,20004734 <_ZL12get_ldnumberPPKc+0x1c>
20004744:	d981c503          	lbu	a0,-616(gp) # 2000b5b8 <_ZL7CurrVol>
20004748:	00008067          	ret
2000474c:	000fc383          	lbu	t2,0(t6)
20004750:	00900693          	li	a3,9
20004754:	fd038713          	addi	a4,t2,-48
20004758:	0ff77613          	andi	a2,a4,255
2000475c:	08c6fa63          	bgeu	a3,a2,200047f0 <_ZL12get_ldnumberPPKc+0xd8>
20004760:	ff010113          	addi	sp,sp,-16
20004764:	00812623          	sw	s0,12(sp)
20004768:	00007297          	auipc	t0,0x7
2000476c:	83428293          	addi	t0,t0,-1996 # 2000af9c <_ZL9VolumeStr>
20004770:	00000513          	li	a0,0
20004774:	01900313          	li	t1,25
20004778:	00300413          	li	s0,3
2000477c:	0002a803          	lw	a6,0(t0)
20004780:	00038613          	mv	a2,t2
20004784:	000f8893          	mv	a7,t6
20004788:	00084683          	lbu	a3,0(a6)
2000478c:	f9f60713          	addi	a4,a2,-97
20004790:	fe060e13          	addi	t3,a2,-32
20004794:	f9f68593          	addi	a1,a3,-97
20004798:	0ff5f593          	andi	a1,a1,255
2000479c:	fe068e93          	addi	t4,a3,-32
200047a0:	0ff77713          	andi	a4,a4,255
200047a4:	00180813          	addi	a6,a6,1
200047a8:	00188893          	addi	a7,a7,1
200047ac:	00b36c63          	bltu	t1,a1,200047c4 <_ZL12get_ldnumberPPKc+0xac>
200047b0:	0ffef693          	andi	a3,t4,255
200047b4:	00e37a63          	bgeu	t1,a4,200047c8 <_ZL12get_ldnumberPPKc+0xb0>
200047b8:	00c69e63          	bne	a3,a2,200047d4 <_ZL12get_ldnumberPPKc+0xbc>
200047bc:	0008c603          	lbu	a2,0(a7)
200047c0:	fc9ff06f          	j	20004788 <_ZL12get_ldnumberPPKc+0x70>
200047c4:	00e36463          	bltu	t1,a4,200047cc <_ZL12get_ldnumberPPKc+0xb4>
200047c8:	0ffe7613          	andi	a2,t3,255
200047cc:	fe0696e3          	bnez	a3,200047b8 <_ZL12get_ldnumberPPKc+0xa0>
200047d0:	03178e63          	beq	a5,a7,2000480c <_ZL12get_ldnumberPPKc+0xf4>
200047d4:	00150513          	addi	a0,a0,1
200047d8:	00428293          	addi	t0,t0,4
200047dc:	fa8510e3          	bne	a0,s0,2000477c <_ZL12get_ldnumberPPKc+0x64>
200047e0:	fff00513          	li	a0,-1
200047e4:	00c12403          	lw	s0,12(sp)
200047e8:	01010113          	addi	sp,sp,16
200047ec:	00008067          	ret
200047f0:	002f8693          	addi	a3,t6,2
200047f4:	f6d796e3          	bne	a5,a3,20004760 <_ZL12get_ldnumberPPKc+0x48>
200047f8:	00070513          	mv	a0,a4
200047fc:	00200713          	li	a4,2
20004800:	00a74a63          	blt	a4,a0,20004814 <_ZL12get_ldnumberPPKc+0xfc>
20004804:	00ff2023          	sw	a5,0(t5)
20004808:	00008067          	ret
2000480c:	00ff2023          	sw	a5,0(t5)
20004810:	fd5ff06f          	j	200047e4 <_ZL12get_ldnumberPPKc+0xcc>
20004814:	fff00513          	li	a0,-1
20004818:	00008067          	ret

2000481c <_ZL8check_fsP5FATFSm>:
2000481c:	ff010113          	addi	sp,sp,-16
20004820:	00812423          	sw	s0,8(sp)
20004824:	01212023          	sw	s2,0(sp)
20004828:	00112623          	sw	ra,12(sp)
2000482c:	00912223          	sw	s1,4(sp)
20004830:	fff00913          	li	s2,-1
20004834:	000501a3          	sb	zero,3(a0)
20004838:	03252623          	sw	s2,44(a0)
2000483c:	00050413          	mv	s0,a0
20004840:	19259a63          	bne	a1,s2,200049d4 <_ZL8check_fsP5FATFSm+0x1b8>
20004844:	22f44483          	lbu	s1,559(s0)
20004848:	22e44683          	lbu	a3,558(s0)
2000484c:	03044783          	lbu	a5,48(s0)
20004850:	00849493          	slli	s1,s1,0x8
20004854:	0eb00713          	li	a4,235
20004858:	00d4e4b3          	or	s1,s1,a3
2000485c:	04e78063          	beq	a5,a4,2000489c <_ZL8check_fsP5FATFSm+0x80>
20004860:	01878793          	addi	a5,a5,24
20004864:	0ff7f793          	andi	a5,a5,255
20004868:	00100713          	li	a4,1
2000486c:	02f77863          	bgeu	a4,a5,2000489c <_ZL8check_fsP5FATFSm+0x80>
20004870:	0000b537          	lui	a0,0xb
20004874:	a5550513          	addi	a0,a0,-1451 # aa55 <_STACK_SIZE+0xa865>
20004878:	40a48533          	sub	a0,s1,a0
2000487c:	00a03533          	snez	a0,a0
20004880:	00250513          	addi	a0,a0,2
20004884:	00c12083          	lw	ra,12(sp)
20004888:	00812403          	lw	s0,8(sp)
2000488c:	00412483          	lw	s1,4(sp)
20004890:	00012903          	lw	s2,0(sp)
20004894:	01010113          	addi	sp,sp,16
20004898:	00008067          	ret
2000489c:	0000b7b7          	lui	a5,0xb
200048a0:	a5578793          	addi	a5,a5,-1451 # aa55 <_STACK_SIZE+0xa865>
200048a4:	0ef48063          	beq	s1,a5,20004984 <_ZL8check_fsP5FATFSm+0x168>
200048a8:	03c44783          	lbu	a5,60(s0)
200048ac:	03b44703          	lbu	a4,59(s0)
200048b0:	03d44683          	lbu	a3,61(s0)
200048b4:	00879793          	slli	a5,a5,0x8
200048b8:	00e7e7b3          	or	a5,a5,a4
200048bc:	fff78713          	addi	a4,a5,-1
200048c0:	00f77733          	and	a4,a4,a5
200048c4:	00300513          	li	a0,3
200048c8:	fa071ee3          	bnez	a4,20004884 <_ZL8check_fsP5FATFSm+0x68>
200048cc:	20000713          	li	a4,512
200048d0:	00300513          	li	a0,3
200048d4:	fae798e3          	bne	a5,a4,20004884 <_ZL8check_fsP5FATFSm+0x68>
200048d8:	fa0686e3          	beqz	a3,20004884 <_ZL8check_fsP5FATFSm+0x68>
200048dc:	fff68793          	addi	a5,a3,-1
200048e0:	00d7f6b3          	and	a3,a5,a3
200048e4:	fa0690e3          	bnez	a3,20004884 <_ZL8check_fsP5FATFSm+0x68>
200048e8:	03f44783          	lbu	a5,63(s0)
200048ec:	03e44703          	lbu	a4,62(s0)
200048f0:	00879793          	slli	a5,a5,0x8
200048f4:	00e7e7b3          	or	a5,a5,a4
200048f8:	f6078ce3          	beqz	a5,20004870 <_ZL8check_fsP5FATFSm+0x54>
200048fc:	04044783          	lbu	a5,64(s0)
20004900:	00100713          	li	a4,1
20004904:	fff78793          	addi	a5,a5,-1
20004908:	f6f764e3          	bltu	a4,a5,20004870 <_ZL8check_fsP5FATFSm+0x54>
2000490c:	04244783          	lbu	a5,66(s0)
20004910:	04144703          	lbu	a4,65(s0)
20004914:	00879793          	slli	a5,a5,0x8
20004918:	00e7e7b3          	or	a5,a5,a4
2000491c:	f4078ae3          	beqz	a5,20004870 <_ZL8check_fsP5FATFSm+0x54>
20004920:	04444783          	lbu	a5,68(s0)
20004924:	04344683          	lbu	a3,67(s0)
20004928:	07f00713          	li	a4,127
2000492c:	00879793          	slli	a5,a5,0x8
20004930:	00d7e7b3          	or	a5,a5,a3
20004934:	02f76a63          	bltu	a4,a5,20004968 <_ZL8check_fsP5FATFSm+0x14c>
20004938:	05144683          	lbu	a3,81(s0)
2000493c:	05044603          	lbu	a2,80(s0)
20004940:	05244703          	lbu	a4,82(s0)
20004944:	05344783          	lbu	a5,83(s0)
20004948:	00869693          	slli	a3,a3,0x8
2000494c:	00c6e6b3          	or	a3,a3,a2
20004950:	01071713          	slli	a4,a4,0x10
20004954:	00d76733          	or	a4,a4,a3
20004958:	01879793          	slli	a5,a5,0x18
2000495c:	00e7e7b3          	or	a5,a5,a4
20004960:	00010737          	lui	a4,0x10
20004964:	f0e7e6e3          	bltu	a5,a4,20004870 <_ZL8check_fsP5FATFSm+0x54>
20004968:	04744783          	lbu	a5,71(s0)
2000496c:	04644703          	lbu	a4,70(s0)
20004970:	00879793          	slli	a5,a5,0x8
20004974:	00e7e7b3          	or	a5,a5,a4
20004978:	ee078ce3          	beqz	a5,20004870 <_ZL8check_fsP5FATFSm+0x54>
2000497c:	00000513          	li	a0,0
20004980:	f05ff06f          	j	20004884 <_ZL8check_fsP5FATFSm+0x68>
20004984:	00800613          	li	a2,8
20004988:	00005597          	auipc	a1,0x5
2000498c:	e1c58593          	addi	a1,a1,-484 # 200097a4 <__clz_tab+0x660>
20004990:	08240513          	addi	a0,s0,130
20004994:	fb1fb0ef          	jal	ra,20000944 <memcmp>
20004998:	00050793          	mv	a5,a0
2000499c:	00000513          	li	a0,0
200049a0:	ee0782e3          	beqz	a5,20004884 <_ZL8check_fsP5FATFSm+0x68>
200049a4:	03c44783          	lbu	a5,60(s0)
200049a8:	03b44703          	lbu	a4,59(s0)
200049ac:	00200513          	li	a0,2
200049b0:	00879793          	slli	a5,a5,0x8
200049b4:	00e7e7b3          	or	a5,a5,a4
200049b8:	fff78713          	addi	a4,a5,-1
200049bc:	00f77733          	and	a4,a4,a5
200049c0:	ec0712e3          	bnez	a4,20004884 <_ZL8check_fsP5FATFSm+0x68>
200049c4:	20000713          	li	a4,512
200049c8:	03d44683          	lbu	a3,61(s0)
200049cc:	eae79ce3          	bne	a5,a4,20004884 <_ZL8check_fsP5FATFSm+0x68>
200049d0:	f09ff06f          	j	200048d8 <_ZL8check_fsP5FATFSm+0xbc>
200049d4:	00154503          	lbu	a0,1(a0)
200049d8:	00058493          	mv	s1,a1
200049dc:	00058613          	mv	a2,a1
200049e0:	00100693          	li	a3,1
200049e4:	03040593          	addi	a1,s0,48
200049e8:	71d020ef          	jal	ra,20007904 <disk_read>
200049ec:	00051663          	bnez	a0,200049f8 <_ZL8check_fsP5FATFSm+0x1dc>
200049f0:	02942623          	sw	s1,44(s0)
200049f4:	e51ff06f          	j	20004844 <_ZL8check_fsP5FATFSm+0x28>
200049f8:	03242623          	sw	s2,44(s0)
200049fc:	00c12083          	lw	ra,12(sp)
20004a00:	00812403          	lw	s0,8(sp)
20004a04:	00412483          	lw	s1,4(sp)
20004a08:	00012903          	lw	s2,0(sp)
20004a0c:	00400513          	li	a0,4
20004a10:	01010113          	addi	sp,sp,16
20004a14:	00008067          	ret

20004a18 <_ZL12mount_volumePPKcPP5FATFSh.constprop.0>:
20004a18:	fd010113          	addi	sp,sp,-48
20004a1c:	03212023          	sw	s2,32(sp)
20004a20:	02112623          	sw	ra,44(sp)
20004a24:	02812423          	sw	s0,40(sp)
20004a28:	02912223          	sw	s1,36(sp)
20004a2c:	01312e23          	sw	s3,28(sp)
20004a30:	01412c23          	sw	s4,24(sp)
20004a34:	01512a23          	sw	s5,20(sp)
20004a38:	01612823          	sw	s6,16(sp)
20004a3c:	01712623          	sw	s7,12(sp)
20004a40:	01812423          	sw	s8,8(sp)
20004a44:	0005a023          	sw	zero,0(a1)
20004a48:	00058913          	mv	s2,a1
20004a4c:	ccdff0ef          	jal	ra,20004718 <_ZL12get_ldnumberPPKc>
20004a50:	32054c63          	bltz	a0,20004d88 <_ZL12mount_volumePPKcPP5FATFSh.constprop.0+0x370>
20004a54:	00251713          	slli	a4,a0,0x2
20004a58:	b8c18793          	addi	a5,gp,-1140 # 2000b3ac <_ZL5FatFs>
20004a5c:	00e787b3          	add	a5,a5,a4
20004a60:	0007a403          	lw	s0,0(a5)
20004a64:	00050493          	mv	s1,a0
20004a68:	32040463          	beqz	s0,20004d90 <_ZL12mount_volumePPKcPP5FATFSh.constprop.0+0x378>
20004a6c:	00892023          	sw	s0,0(s2)
20004a70:	00044783          	lbu	a5,0(s0)
20004a74:	00078c63          	beqz	a5,20004a8c <_ZL12mount_volumePPKcPP5FATFSh.constprop.0+0x74>
20004a78:	00144503          	lbu	a0,1(s0)
20004a7c:	64d020ef          	jal	ra,200078c8 <disk_status>
20004a80:	00157793          	andi	a5,a0,1
20004a84:	00000513          	li	a0,0
20004a88:	20078c63          	beqz	a5,20004ca0 <_ZL12mount_volumePPKcPP5FATFSh.constprop.0+0x288>
20004a8c:	0ff4f513          	andi	a0,s1,255
20004a90:	00040023          	sb	zero,0(s0)
20004a94:	00a400a3          	sb	a0,1(s0)
20004a98:	63d020ef          	jal	ra,200078d4 <disk_initialize>
20004a9c:	00157793          	andi	a5,a0,1
20004aa0:	00300513          	li	a0,3
20004aa4:	1e079e63          	bnez	a5,20004ca0 <_ZL12mount_volumePPKcPP5FATFSh.constprop.0+0x288>
20004aa8:	00000593          	li	a1,0
20004aac:	00040513          	mv	a0,s0
20004ab0:	d6dff0ef          	jal	ra,2000481c <_ZL8check_fsP5FATFSm>
20004ab4:	00200713          	li	a4,2
20004ab8:	00050793          	mv	a5,a0
20004abc:	20e50a63          	beq	a0,a4,20004cd0 <_ZL12mount_volumePPKcPP5FATFSh.constprop.0+0x2b8>
20004ac0:	00400713          	li	a4,4
20004ac4:	00100513          	li	a0,1
20004ac8:	1ce78c63          	beq	a5,a4,20004ca0 <_ZL12mount_volumePPKcPP5FATFSh.constprop.0+0x288>
20004acc:	2af56a63          	bltu	a0,a5,20004d80 <_ZL12mount_volumePPKcPP5FATFSh.constprop.0+0x368>
20004ad0:	03c44783          	lbu	a5,60(s0)
20004ad4:	03b44683          	lbu	a3,59(s0)
20004ad8:	20000713          	li	a4,512
20004adc:	00879793          	slli	a5,a5,0x8
20004ae0:	00d7e7b3          	or	a5,a5,a3
20004ae4:	28e79e63          	bne	a5,a4,20004d80 <_ZL12mount_volumePPKcPP5FATFSh.constprop.0+0x368>
20004ae8:	04744483          	lbu	s1,71(s0)
20004aec:	04644783          	lbu	a5,70(s0)
20004af0:	00849493          	slli	s1,s1,0x8
20004af4:	00f4e4b3          	or	s1,s1,a5
20004af8:	02049663          	bnez	s1,20004b24 <_ZL12mount_volumePPKcPP5FATFSh.constprop.0+0x10c>
20004afc:	05544483          	lbu	s1,85(s0)
20004b00:	05444683          	lbu	a3,84(s0)
20004b04:	05644783          	lbu	a5,86(s0)
20004b08:	05744703          	lbu	a4,87(s0)
20004b0c:	00849493          	slli	s1,s1,0x8
20004b10:	00d4e4b3          	or	s1,s1,a3
20004b14:	01079793          	slli	a5,a5,0x10
20004b18:	0097e7b3          	or	a5,a5,s1
20004b1c:	01871493          	slli	s1,a4,0x18
20004b20:	00f4e4b3          	or	s1,s1,a5
20004b24:	04044503          	lbu	a0,64(s0)
20004b28:	00942c23          	sw	s1,24(s0)
20004b2c:	00100713          	li	a4,1
20004b30:	fff50793          	addi	a5,a0,-1
20004b34:	00a40123          	sb	a0,2(s0)
20004b38:	0ff7f793          	andi	a5,a5,255
20004b3c:	02c42b03          	lw	s6,44(s0)
20004b40:	24f76063          	bltu	a4,a5,20004d80 <_ZL12mount_volumePPKcPP5FATFSh.constprop.0+0x368>
20004b44:	03d44b83          	lbu	s7,61(s0)
20004b48:	010b9793          	slli	a5,s7,0x10
20004b4c:	0107d793          	srli	a5,a5,0x10
20004b50:	00f41523          	sh	a5,10(s0)
20004b54:	22078663          	beqz	a5,20004d80 <_ZL12mount_volumePPKcPP5FATFSh.constprop.0+0x368>
20004b58:	fffb8793          	addi	a5,s7,-1
20004b5c:	0177f7b3          	and	a5,a5,s7
20004b60:	22079063          	bnez	a5,20004d80 <_ZL12mount_volumePPKcPP5FATFSh.constprop.0+0x368>
20004b64:	04244983          	lbu	s3,66(s0)
20004b68:	04144783          	lbu	a5,65(s0)
20004b6c:	00899993          	slli	s3,s3,0x8
20004b70:	00f9e9b3          	or	s3,s3,a5
20004b74:	01341423          	sh	s3,8(s0)
20004b78:	00f9f793          	andi	a5,s3,15
20004b7c:	20079263          	bnez	a5,20004d80 <_ZL12mount_volumePPKcPP5FATFSh.constprop.0+0x368>
20004b80:	04444903          	lbu	s2,68(s0)
20004b84:	04344783          	lbu	a5,67(s0)
20004b88:	00891913          	slli	s2,s2,0x8
20004b8c:	00f96933          	or	s2,s2,a5
20004b90:	02091663          	bnez	s2,20004bbc <_ZL12mount_volumePPKcPP5FATFSh.constprop.0+0x1a4>
20004b94:	05144703          	lbu	a4,81(s0)
20004b98:	05044683          	lbu	a3,80(s0)
20004b9c:	05244783          	lbu	a5,82(s0)
20004ba0:	05344903          	lbu	s2,83(s0)
20004ba4:	00871713          	slli	a4,a4,0x8
20004ba8:	00d76733          	or	a4,a4,a3
20004bac:	01079793          	slli	a5,a5,0x10
20004bb0:	00e7e7b3          	or	a5,a5,a4
20004bb4:	01891913          	slli	s2,s2,0x18
20004bb8:	00f96933          	or	s2,s2,a5
20004bbc:	03f44a03          	lbu	s4,63(s0)
20004bc0:	03e44783          	lbu	a5,62(s0)
20004bc4:	008a1a13          	slli	s4,s4,0x8
20004bc8:	00fa6a33          	or	s4,s4,a5
20004bcc:	1a0a0a63          	beqz	s4,20004d80 <_ZL12mount_volumePPKcPP5FATFSh.constprop.0+0x368>
20004bd0:	00048593          	mv	a1,s1
20004bd4:	0049da93          	srli	s5,s3,0x4
20004bd8:	bccfd0ef          	jal	ra,20001fa4 <__mulsi3>
20004bdc:	014a8ab3          	add	s5,s5,s4
20004be0:	00aa8ab3          	add	s5,s5,a0
20004be4:	00050c13          	mv	s8,a0
20004be8:	19596c63          	bltu	s2,s5,20004d80 <_ZL12mount_volumePPKcPP5FATFSh.constprop.0+0x368>
20004bec:	41590933          	sub	s2,s2,s5
20004bf0:	000b8593          	mv	a1,s7
20004bf4:	00090513          	mv	a0,s2
20004bf8:	bd8fd0ef          	jal	ra,20001fd0 <__udivsi3>
20004bfc:	19796263          	bltu	s2,s7,20004d80 <_ZL12mount_volumePPKcPP5FATFSh.constprop.0+0x368>
20004c00:	100007b7          	lui	a5,0x10000
20004c04:	ff578793          	addi	a5,a5,-11 # ffffff5 <_STACK_SIZE+0xffffe05>
20004c08:	16a7ec63          	bltu	a5,a0,20004d80 <_ZL12mount_volumePPKcPP5FATFSh.constprop.0+0x368>
20004c0c:	000107b7          	lui	a5,0x10
20004c10:	ff578793          	addi	a5,a5,-11 # fff5 <_STACK_SIZE+0xfe05>
20004c14:	00250713          	addi	a4,a0,2
20004c18:	014b0a33          	add	s4,s6,s4
20004c1c:	015b0ab3          	add	s5,s6,s5
20004c20:	1ea7e263          	bltu	a5,a0,20004e04 <_ZL12mount_volumePPKcPP5FATFSh.constprop.0+0x3ec>
20004c24:	000017b7          	lui	a5,0x1
20004c28:	ff578793          	addi	a5,a5,-11 # ff5 <_STACK_SIZE+0xe05>
20004c2c:	00e42a23          	sw	a4,20(s0)
20004c30:	01642e23          	sw	s6,28(s0)
20004c34:	03442023          	sw	s4,32(s0)
20004c38:	03542423          	sw	s5,40(s0)
20004c3c:	22a7e463          	bltu	a5,a0,20004e64 <_ZL12mount_volumePPKcPP5FATFSh.constprop.0+0x44c>
20004c40:	14098063          	beqz	s3,20004d80 <_ZL12mount_volumePPKcPP5FATFSh.constprop.0+0x368>
20004c44:	00171793          	slli	a5,a4,0x1
20004c48:	00e787b3          	add	a5,a5,a4
20004c4c:	014c0a33          	add	s4,s8,s4
20004c50:	0017d793          	srli	a5,a5,0x1
20004c54:	00177713          	andi	a4,a4,1
20004c58:	03442223          	sw	s4,36(s0)
20004c5c:	00e787b3          	add	a5,a5,a4
20004c60:	00100693          	li	a3,1
20004c64:	1ff78793          	addi	a5,a5,511
20004c68:	0097d793          	srli	a5,a5,0x9
20004c6c:	10f4ea63          	bltu	s1,a5,20004d80 <_ZL12mount_volumePPKcPP5FATFSh.constprop.0+0x368>
20004c70:	b8818713          	addi	a4,gp,-1144 # 2000b3a8 <_ZL4Fsid>
20004c74:	00075783          	lhu	a5,0(a4) # 10000 <_STACK_SIZE+0xfe10>
20004c78:	00d40023          	sb	a3,0(s0)
20004c7c:	00042823          	sw	zero,16(s0)
20004c80:	00178793          	addi	a5,a5,1
20004c84:	01079793          	slli	a5,a5,0x10
20004c88:	0107d793          	srli	a5,a5,0x10
20004c8c:	00f71023          	sh	a5,0(a4)
20004c90:	00f41323          	sh	a5,6(s0)
20004c94:	b9818793          	addi	a5,gp,-1128 # 2000b3b8 <_ZL6LfnBuf>
20004c98:	00f42623          	sw	a5,12(s0)
20004c9c:	00000513          	li	a0,0
20004ca0:	02c12083          	lw	ra,44(sp)
20004ca4:	02812403          	lw	s0,40(sp)
20004ca8:	02412483          	lw	s1,36(sp)
20004cac:	02012903          	lw	s2,32(sp)
20004cb0:	01c12983          	lw	s3,28(sp)
20004cb4:	01812a03          	lw	s4,24(sp)
20004cb8:	01412a83          	lw	s5,20(sp)
20004cbc:	01012b03          	lw	s6,16(sp)
20004cc0:	00c12b83          	lw	s7,12(sp)
20004cc4:	00812c03          	lw	s8,8(sp)
20004cc8:	03010113          	addi	sp,sp,48
20004ccc:	00008067          	ret
20004cd0:	1f744303          	lbu	t1,503(s0)
20004cd4:	1f644f83          	lbu	t6,502(s0)
20004cd8:	1f844603          	lbu	a2,504(s0)
20004cdc:	20744883          	lbu	a7,519(s0)
20004ce0:	21744803          	lbu	a6,535(s0)
20004ce4:	22744503          	lbu	a0,551(s0)
20004ce8:	1f944583          	lbu	a1,505(s0)
20004cec:	20644f03          	lbu	t5,518(s0)
20004cf0:	20844683          	lbu	a3,520(s0)
20004cf4:	21644e83          	lbu	t4,534(s0)
20004cf8:	21844703          	lbu	a4,536(s0)
20004cfc:	22644e03          	lbu	t3,550(s0)
20004d00:	22844783          	lbu	a5,552(s0)
20004d04:	20944483          	lbu	s1,521(s0)
20004d08:	21944903          	lbu	s2,537(s0)
20004d0c:	22944983          	lbu	s3,553(s0)
20004d10:	00831313          	slli	t1,t1,0x8
20004d14:	01f36333          	or	t1,t1,t6
20004d18:	01061613          	slli	a2,a2,0x10
20004d1c:	00889893          	slli	a7,a7,0x8
20004d20:	00881813          	slli	a6,a6,0x8
20004d24:	00851513          	slli	a0,a0,0x8
20004d28:	00666633          	or	a2,a2,t1
20004d2c:	01859593          	slli	a1,a1,0x18
20004d30:	01e8e8b3          	or	a7,a7,t5
20004d34:	01069693          	slli	a3,a3,0x10
20004d38:	01d86833          	or	a6,a6,t4
20004d3c:	01071713          	slli	a4,a4,0x10
20004d40:	01c56533          	or	a0,a0,t3
20004d44:	01079793          	slli	a5,a5,0x10
20004d48:	0116e6b3          	or	a3,a3,a7
20004d4c:	01849493          	slli	s1,s1,0x18
20004d50:	01076733          	or	a4,a4,a6
20004d54:	01891913          	slli	s2,s2,0x18
20004d58:	00a7e7b3          	or	a5,a5,a0
20004d5c:	01899993          	slli	s3,s3,0x18
20004d60:	00c5e5b3          	or	a1,a1,a2
20004d64:	00d4e4b3          	or	s1,s1,a3
20004d68:	00e96933          	or	s2,s2,a4
20004d6c:	00f9e9b3          	or	s3,s3,a5
20004d70:	02059463          	bnez	a1,20004d98 <_ZL12mount_volumePPKcPP5FATFSh.constprop.0+0x380>
20004d74:	02049c63          	bnez	s1,20004dac <_ZL12mount_volumePPKcPP5FATFSh.constprop.0+0x394>
20004d78:	04091663          	bnez	s2,20004dc4 <_ZL12mount_volumePPKcPP5FATFSh.constprop.0+0x3ac>
20004d7c:	06099063          	bnez	s3,20004ddc <_ZL12mount_volumePPKcPP5FATFSh.constprop.0+0x3c4>
20004d80:	00d00513          	li	a0,13
20004d84:	f1dff06f          	j	20004ca0 <_ZL12mount_volumePPKcPP5FATFSh.constprop.0+0x288>
20004d88:	00b00513          	li	a0,11
20004d8c:	f15ff06f          	j	20004ca0 <_ZL12mount_volumePPKcPP5FATFSh.constprop.0+0x288>
20004d90:	00c00513          	li	a0,12
20004d94:	f0dff06f          	j	20004ca0 <_ZL12mount_volumePPKcPP5FATFSh.constprop.0+0x288>
20004d98:	00040513          	mv	a0,s0
20004d9c:	a81ff0ef          	jal	ra,2000481c <_ZL8check_fsP5FATFSm>
20004da0:	00100793          	li	a5,1
20004da4:	d2a7f6e3          	bgeu	a5,a0,20004ad0 <_ZL12mount_volumePPKcPP5FATFSh.constprop.0+0xb8>
20004da8:	fc0488e3          	beqz	s1,20004d78 <_ZL12mount_volumePPKcPP5FATFSh.constprop.0+0x360>
20004dac:	00048593          	mv	a1,s1
20004db0:	00040513          	mv	a0,s0
20004db4:	a69ff0ef          	jal	ra,2000481c <_ZL8check_fsP5FATFSm>
20004db8:	00100793          	li	a5,1
20004dbc:	d0a7fae3          	bgeu	a5,a0,20004ad0 <_ZL12mount_volumePPKcPP5FATFSh.constprop.0+0xb8>
20004dc0:	fa090ee3          	beqz	s2,20004d7c <_ZL12mount_volumePPKcPP5FATFSh.constprop.0+0x364>
20004dc4:	00090593          	mv	a1,s2
20004dc8:	00040513          	mv	a0,s0
20004dcc:	a51ff0ef          	jal	ra,2000481c <_ZL8check_fsP5FATFSm>
20004dd0:	00100793          	li	a5,1
20004dd4:	cea7fee3          	bgeu	a5,a0,20004ad0 <_ZL12mount_volumePPKcPP5FATFSh.constprop.0+0xb8>
20004dd8:	fa0984e3          	beqz	s3,20004d80 <_ZL12mount_volumePPKcPP5FATFSh.constprop.0+0x368>
20004ddc:	00098593          	mv	a1,s3
20004de0:	00040513          	mv	a0,s0
20004de4:	a39ff0ef          	jal	ra,2000481c <_ZL8check_fsP5FATFSm>
20004de8:	00100713          	li	a4,1
20004dec:	00050793          	mv	a5,a0
20004df0:	cea770e3          	bgeu	a4,a0,20004ad0 <_ZL12mount_volumePPKcPP5FATFSh.constprop.0+0xb8>
20004df4:	00400713          	li	a4,4
20004df8:	00100513          	li	a0,1
20004dfc:	eae782e3          	beq	a5,a4,20004ca0 <_ZL12mount_volumePPKcPP5FATFSh.constprop.0+0x288>
20004e00:	f81ff06f          	j	20004d80 <_ZL12mount_volumePPKcPP5FATFSh.constprop.0+0x368>
20004e04:	05b44783          	lbu	a5,91(s0)
20004e08:	05a44683          	lbu	a3,90(s0)
20004e0c:	00e42a23          	sw	a4,20(s0)
20004e10:	00879793          	slli	a5,a5,0x8
20004e14:	00d7e7b3          	or	a5,a5,a3
20004e18:	01642e23          	sw	s6,28(s0)
20004e1c:	03442023          	sw	s4,32(s0)
20004e20:	03542423          	sw	s5,40(s0)
20004e24:	0137e9b3          	or	s3,a5,s3
20004e28:	f4099ce3          	bnez	s3,20004d80 <_ZL12mount_volumePPKcPP5FATFSh.constprop.0+0x368>
20004e2c:	05d44603          	lbu	a2,93(s0)
20004e30:	05c44583          	lbu	a1,92(s0)
20004e34:	05e44683          	lbu	a3,94(s0)
20004e38:	05f44783          	lbu	a5,95(s0)
20004e3c:	00861613          	slli	a2,a2,0x8
20004e40:	00b66633          	or	a2,a2,a1
20004e44:	01069693          	slli	a3,a3,0x10
20004e48:	00c6e6b3          	or	a3,a3,a2
20004e4c:	01879793          	slli	a5,a5,0x18
20004e50:	00d7e7b3          	or	a5,a5,a3
20004e54:	02f42223          	sw	a5,36(s0)
20004e58:	00300693          	li	a3,3
20004e5c:	00271793          	slli	a5,a4,0x2
20004e60:	e05ff06f          	j	20004c64 <_ZL12mount_volumePPKcPP5FATFSh.constprop.0+0x24c>
20004e64:	f0098ee3          	beqz	s3,20004d80 <_ZL12mount_volumePPKcPP5FATFSh.constprop.0+0x368>
20004e68:	014c0a33          	add	s4,s8,s4
20004e6c:	03442223          	sw	s4,36(s0)
20004e70:	00171793          	slli	a5,a4,0x1
20004e74:	00200693          	li	a3,2
20004e78:	dedff06f          	j	20004c64 <_ZL12mount_volumePPKcPP5FATFSh.constprop.0+0x24c>

20004e7c <_ZL7get_fatP7FFOBJIDm.isra.0>:
20004e7c:	00100793          	li	a5,1
20004e80:	06b7f663          	bgeu	a5,a1,20004eec <_ZL7get_fatP7FFOBJIDm.isra.0+0x70>
20004e84:	01452703          	lw	a4,20(a0)
20004e88:	fe010113          	addi	sp,sp,-32
20004e8c:	00812c23          	sw	s0,24(sp)
20004e90:	00912a23          	sw	s1,20(sp)
20004e94:	00112e23          	sw	ra,28(sp)
20004e98:	01212823          	sw	s2,16(sp)
20004e9c:	01312623          	sw	s3,12(sp)
20004ea0:	01412423          	sw	s4,8(sp)
20004ea4:	00050493          	mv	s1,a0
20004ea8:	00058413          	mv	s0,a1
20004eac:	00100513          	li	a0,1
20004eb0:	00e5fe63          	bgeu	a1,a4,20004ecc <_ZL7get_fatP7FFOBJIDm.isra.0+0x50>
20004eb4:	0004c703          	lbu	a4,0(s1)
20004eb8:	00200693          	li	a3,2
20004ebc:	0ed70663          	beq	a4,a3,20004fa8 <_ZL7get_fatP7FFOBJIDm.isra.0+0x12c>
20004ec0:	00300693          	li	a3,3
20004ec4:	08d70663          	beq	a4,a3,20004f50 <_ZL7get_fatP7FFOBJIDm.isra.0+0xd4>
20004ec8:	02f70663          	beq	a4,a5,20004ef4 <_ZL7get_fatP7FFOBJIDm.isra.0+0x78>
20004ecc:	01c12083          	lw	ra,28(sp)
20004ed0:	01812403          	lw	s0,24(sp)
20004ed4:	01412483          	lw	s1,20(sp)
20004ed8:	01012903          	lw	s2,16(sp)
20004edc:	00c12983          	lw	s3,12(sp)
20004ee0:	00812a03          	lw	s4,8(sp)
20004ee4:	02010113          	addi	sp,sp,32
20004ee8:	00008067          	ret
20004eec:	00100513          	li	a0,1
20004ef0:	00008067          	ret
20004ef4:	0204a603          	lw	a2,32(s1)
20004ef8:	0015d913          	srli	s2,a1,0x1
20004efc:	00b90933          	add	s2,s2,a1
20004f00:	02c4a783          	lw	a5,44(s1)
20004f04:	00995993          	srli	s3,s2,0x9
20004f08:	00c989b3          	add	s3,s3,a2
20004f0c:	10f99a63          	bne	s3,a5,20005020 <_ZL7get_fatP7FFOBJIDm.isra.0+0x1a4>
20004f10:	00190993          	addi	s3,s2,1
20004f14:	0099da13          	srli	s4,s3,0x9
20004f18:	1ff97913          	andi	s2,s2,511
20004f1c:	01248933          	add	s2,s1,s2
20004f20:	00ca0a33          	add	s4,s4,a2
20004f24:	03094903          	lbu	s2,48(s2)
20004f28:	12fa1063          	bne	s4,a5,20005048 <_ZL7get_fatP7FFOBJIDm.isra.0+0x1cc>
20004f2c:	1ff9f993          	andi	s3,s3,511
20004f30:	013484b3          	add	s1,s1,s3
20004f34:	0304c503          	lbu	a0,48(s1)
20004f38:	00147413          	andi	s0,s0,1
20004f3c:	00851513          	slli	a0,a0,0x8
20004f40:	01256533          	or	a0,a0,s2
20004f44:	12040263          	beqz	s0,20005068 <_ZL7get_fatP7FFOBJIDm.isra.0+0x1ec>
20004f48:	00455513          	srli	a0,a0,0x4
20004f4c:	f81ff06f          	j	20004ecc <_ZL7get_fatP7FFOBJIDm.isra.0+0x50>
20004f50:	0204a603          	lw	a2,32(s1)
20004f54:	02c4a783          	lw	a5,44(s1)
20004f58:	0075d993          	srli	s3,a1,0x7
20004f5c:	00c989b3          	add	s3,s3,a2
20004f60:	03048913          	addi	s2,s1,48
20004f64:	08f99e63          	bne	s3,a5,20005000 <_ZL7get_fatP7FFOBJIDm.isra.0+0x184>
20004f68:	00241413          	slli	s0,s0,0x2
20004f6c:	1fc47413          	andi	s0,s0,508
20004f70:	00890433          	add	s0,s2,s0
20004f74:	00144703          	lbu	a4,1(s0)
20004f78:	00044683          	lbu	a3,0(s0)
20004f7c:	00244783          	lbu	a5,2(s0)
20004f80:	00344503          	lbu	a0,3(s0)
20004f84:	00871713          	slli	a4,a4,0x8
20004f88:	00d76733          	or	a4,a4,a3
20004f8c:	01079793          	slli	a5,a5,0x10
20004f90:	00e7e7b3          	or	a5,a5,a4
20004f94:	01851513          	slli	a0,a0,0x18
20004f98:	00f56533          	or	a0,a0,a5
20004f9c:	00451513          	slli	a0,a0,0x4
20004fa0:	00455513          	srli	a0,a0,0x4
20004fa4:	f29ff06f          	j	20004ecc <_ZL7get_fatP7FFOBJIDm.isra.0+0x50>
20004fa8:	0204a603          	lw	a2,32(s1)
20004fac:	02c4a783          	lw	a5,44(s1)
20004fb0:	0085d993          	srli	s3,a1,0x8
20004fb4:	00c989b3          	add	s3,s3,a2
20004fb8:	03048913          	addi	s2,s1,48
20004fbc:	02f99263          	bne	s3,a5,20004fe0 <_ZL7get_fatP7FFOBJIDm.isra.0+0x164>
20004fc0:	00141593          	slli	a1,s0,0x1
20004fc4:	1fe5f593          	andi	a1,a1,510
20004fc8:	00b905b3          	add	a1,s2,a1
20004fcc:	0015c503          	lbu	a0,1(a1)
20004fd0:	0005c783          	lbu	a5,0(a1)
20004fd4:	00851513          	slli	a0,a0,0x8
20004fd8:	00f56533          	or	a0,a0,a5
20004fdc:	ef1ff06f          	j	20004ecc <_ZL7get_fatP7FFOBJIDm.isra.0+0x50>
20004fe0:	0014c503          	lbu	a0,1(s1)
20004fe4:	00100693          	li	a3,1
20004fe8:	00098613          	mv	a2,s3
20004fec:	00090593          	mv	a1,s2
20004ff0:	115020ef          	jal	ra,20007904 <disk_read>
20004ff4:	08051063          	bnez	a0,20005074 <_ZL7get_fatP7FFOBJIDm.isra.0+0x1f8>
20004ff8:	0334a623          	sw	s3,44(s1)
20004ffc:	fc5ff06f          	j	20004fc0 <_ZL7get_fatP7FFOBJIDm.isra.0+0x144>
20005000:	0014c503          	lbu	a0,1(s1)
20005004:	00100693          	li	a3,1
20005008:	00098613          	mv	a2,s3
2000500c:	00090593          	mv	a1,s2
20005010:	0f5020ef          	jal	ra,20007904 <disk_read>
20005014:	06051063          	bnez	a0,20005074 <_ZL7get_fatP7FFOBJIDm.isra.0+0x1f8>
20005018:	0334a623          	sw	s3,44(s1)
2000501c:	f4dff06f          	j	20004f68 <_ZL7get_fatP7FFOBJIDm.isra.0+0xec>
20005020:	0014c503          	lbu	a0,1(s1)
20005024:	00100693          	li	a3,1
20005028:	00098613          	mv	a2,s3
2000502c:	03048593          	addi	a1,s1,48
20005030:	0d5020ef          	jal	ra,20007904 <disk_read>
20005034:	04051063          	bnez	a0,20005074 <_ZL7get_fatP7FFOBJIDm.isra.0+0x1f8>
20005038:	0204a603          	lw	a2,32(s1)
2000503c:	0334a623          	sw	s3,44(s1)
20005040:	00098793          	mv	a5,s3
20005044:	ecdff06f          	j	20004f10 <_ZL7get_fatP7FFOBJIDm.isra.0+0x94>
20005048:	0014c503          	lbu	a0,1(s1)
2000504c:	00100693          	li	a3,1
20005050:	000a0613          	mv	a2,s4
20005054:	03048593          	addi	a1,s1,48
20005058:	0ad020ef          	jal	ra,20007904 <disk_read>
2000505c:	00051c63          	bnez	a0,20005074 <_ZL7get_fatP7FFOBJIDm.isra.0+0x1f8>
20005060:	0344a623          	sw	s4,44(s1)
20005064:	ec9ff06f          	j	20004f2c <_ZL7get_fatP7FFOBJIDm.isra.0+0xb0>
20005068:	01451513          	slli	a0,a0,0x14
2000506c:	01455513          	srli	a0,a0,0x14
20005070:	e5dff06f          	j	20004ecc <_ZL7get_fatP7FFOBJIDm.isra.0+0x50>
20005074:	fff00793          	li	a5,-1
20005078:	02f4a623          	sw	a5,44(s1)
2000507c:	fff00513          	li	a0,-1
20005080:	e4dff06f          	j	20004ecc <_ZL7get_fatP7FFOBJIDm.isra.0+0x50>

20005084 <_ZL7dir_sdiP3DIRm.constprop.0>:
20005084:	fc010113          	addi	sp,sp,-64
20005088:	02812c23          	sw	s0,56(sp)
2000508c:	00852403          	lw	s0,8(a0)
20005090:	03612023          	sw	s6,32(sp)
20005094:	01712e23          	sw	s7,28(sp)
20005098:	02112e23          	sw	ra,60(sp)
2000509c:	02912a23          	sw	s1,52(sp)
200050a0:	03212823          	sw	s2,48(sp)
200050a4:	03312623          	sw	s3,44(sp)
200050a8:	03412423          	sw	s4,40(sp)
200050ac:	03512223          	sw	s5,36(sp)
200050b0:	01812c23          	sw	s8,24(sp)
200050b4:	01912a23          	sw	s9,20(sp)
200050b8:	01a12823          	sw	s10,16(sp)
200050bc:	01b12623          	sw	s11,12(sp)
200050c0:	00052823          	sw	zero,16(a0)
200050c4:	00052b83          	lw	s7,0(a0)
200050c8:	00050b13          	mv	s6,a0
200050cc:	0c041263          	bnez	s0,20005190 <_ZL7dir_sdiP3DIRm.constprop.0+0x10c>
200050d0:	000bc703          	lbu	a4,0(s7)
200050d4:	00200793          	li	a5,2
200050d8:	0ae7e663          	bltu	a5,a4,20005184 <_ZL7dir_sdiP3DIRm.constprop.0+0x100>
200050dc:	008bd783          	lhu	a5,8(s7)
200050e0:	08078e63          	beqz	a5,2000517c <_ZL7dir_sdiP3DIRm.constprop.0+0xf8>
200050e4:	024ba503          	lw	a0,36(s7)
200050e8:	00ab2c23          	sw	a0,24(s6)
200050ec:	008b2a23          	sw	s0,20(s6)
200050f0:	08050663          	beqz	a0,2000517c <_ZL7dir_sdiP3DIRm.constprop.0+0xf8>
200050f4:	030b8793          	addi	a5,s7,48
200050f8:	00fb2e23          	sw	a5,28(s6)
200050fc:	00000513          	li	a0,0
20005100:	03c12083          	lw	ra,60(sp)
20005104:	03812403          	lw	s0,56(sp)
20005108:	03412483          	lw	s1,52(sp)
2000510c:	03012903          	lw	s2,48(sp)
20005110:	02c12983          	lw	s3,44(sp)
20005114:	02812a03          	lw	s4,40(sp)
20005118:	02412a83          	lw	s5,36(sp)
2000511c:	02012b03          	lw	s6,32(sp)
20005120:	01c12b83          	lw	s7,28(sp)
20005124:	01812c03          	lw	s8,24(sp)
20005128:	01412c83          	lw	s9,20(sp)
2000512c:	01012d03          	lw	s10,16(sp)
20005130:	00c12d83          	lw	s11,12(sp)
20005134:	04010113          	addi	sp,sp,64
20005138:	00008067          	ret
2000513c:	0204a603          	lw	a2,32(s1)
20005140:	02c4a783          	lw	a5,44(s1)
20005144:	00845a93          	srli	s5,s0,0x8
20005148:	00ca8ab3          	add	s5,s5,a2
2000514c:	03048913          	addi	s2,s1,48
20005150:	12fa9c63          	bne	s5,a5,20005288 <_ZL7dir_sdiP3DIRm.constprop.0+0x204>
20005154:	00141593          	slli	a1,s0,0x1
20005158:	1fe5f593          	andi	a1,a1,510
2000515c:	00b905b3          	add	a1,s2,a1
20005160:	0015c403          	lbu	s0,1(a1)
20005164:	0005c783          	lbu	a5,0(a1)
20005168:	00841413          	slli	s0,s0,0x8
2000516c:	00f46433          	or	s0,s0,a5
20005170:	008c7663          	bgeu	s8,s0,2000517c <_ZL7dir_sdiP3DIRm.constprop.0+0xf8>
20005174:	014ba703          	lw	a4,20(s7)
20005178:	02e46e63          	bltu	s0,a4,200051b4 <_ZL7dir_sdiP3DIRm.constprop.0+0x130>
2000517c:	00200513          	li	a0,2
20005180:	f81ff06f          	j	20005100 <_ZL7dir_sdiP3DIRm.constprop.0+0x7c>
20005184:	024ba783          	lw	a5,36(s7)
20005188:	f4078ae3          	beqz	a5,200050dc <_ZL7dir_sdiP3DIRm.constprop.0+0x58>
2000518c:	00078413          	mv	s0,a5
20005190:	00abd503          	lhu	a0,10(s7)
20005194:	100009b7          	lui	s3,0x10000
20005198:	00001a37          	lui	s4,0x1
2000519c:	00100c13          	li	s8,1
200051a0:	00200d13          	li	s10,2
200051a4:	00300c93          	li	s9,3
200051a8:	fff98993          	addi	s3,s3,-1 # fffffff <_STACK_SIZE+0xffffe0f>
200051ac:	fffa0a13          	addi	s4,s4,-1 # fff <_STACK_SIZE+0xe0f>
200051b0:	16051063          	bnez	a0,20005310 <_ZL7dir_sdiP3DIRm.constprop.0+0x28c>
200051b4:	fc8c74e3          	bgeu	s8,s0,2000517c <_ZL7dir_sdiP3DIRm.constprop.0+0xf8>
200051b8:	000b2483          	lw	s1,0(s6)
200051bc:	0144a703          	lw	a4,20(s1)
200051c0:	fae47ee3          	bgeu	s0,a4,2000517c <_ZL7dir_sdiP3DIRm.constprop.0+0xf8>
200051c4:	0004c703          	lbu	a4,0(s1)
200051c8:	f7a70ae3          	beq	a4,s10,2000513c <_ZL7dir_sdiP3DIRm.constprop.0+0xb8>
200051cc:	07970463          	beq	a4,s9,20005234 <_ZL7dir_sdiP3DIRm.constprop.0+0x1b0>
200051d0:	fb8716e3          	bne	a4,s8,2000517c <_ZL7dir_sdiP3DIRm.constprop.0+0xf8>
200051d4:	0204a603          	lw	a2,32(s1)
200051d8:	00145913          	srli	s2,s0,0x1
200051dc:	00890933          	add	s2,s2,s0
200051e0:	02c4a703          	lw	a4,44(s1)
200051e4:	00995a93          	srli	s5,s2,0x9
200051e8:	00ca8ab3          	add	s5,s5,a2
200051ec:	0cea9e63          	bne	s5,a4,200052c8 <_ZL7dir_sdiP3DIRm.constprop.0+0x244>
200051f0:	00190a93          	addi	s5,s2,1
200051f4:	009add93          	srli	s11,s5,0x9
200051f8:	1ff97913          	andi	s2,s2,511
200051fc:	01248933          	add	s2,s1,s2
20005200:	00cd8db3          	add	s11,s11,a2
20005204:	03094903          	lbu	s2,48(s2)
20005208:	0eed9463          	bne	s11,a4,200052f0 <_ZL7dir_sdiP3DIRm.constprop.0+0x26c>
2000520c:	1ffafa93          	andi	s5,s5,511
20005210:	015484b3          	add	s1,s1,s5
20005214:	0304c783          	lbu	a5,48(s1)
20005218:	00147713          	andi	a4,s0,1
2000521c:	00879793          	slli	a5,a5,0x8
20005220:	0127e7b3          	or	a5,a5,s2
20005224:	0147f433          	and	s0,a5,s4
20005228:	f40704e3          	beqz	a4,20005170 <_ZL7dir_sdiP3DIRm.constprop.0+0xec>
2000522c:	0047d413          	srli	s0,a5,0x4
20005230:	f41ff06f          	j	20005170 <_ZL7dir_sdiP3DIRm.constprop.0+0xec>
20005234:	0204a603          	lw	a2,32(s1)
20005238:	02c4a783          	lw	a5,44(s1)
2000523c:	00745a93          	srli	s5,s0,0x7
20005240:	00ca8ab3          	add	s5,s5,a2
20005244:	03048913          	addi	s2,s1,48
20005248:	06fa9063          	bne	s5,a5,200052a8 <_ZL7dir_sdiP3DIRm.constprop.0+0x224>
2000524c:	00241593          	slli	a1,s0,0x2
20005250:	1fc5f593          	andi	a1,a1,508
20005254:	00b905b3          	add	a1,s2,a1
20005258:	0015c703          	lbu	a4,1(a1)
2000525c:	0005c683          	lbu	a3,0(a1)
20005260:	0025c783          	lbu	a5,2(a1)
20005264:	0035c403          	lbu	s0,3(a1)
20005268:	00871713          	slli	a4,a4,0x8
2000526c:	00d76733          	or	a4,a4,a3
20005270:	01079793          	slli	a5,a5,0x10
20005274:	00e7e7b3          	or	a5,a5,a4
20005278:	01841413          	slli	s0,s0,0x18
2000527c:	00f46433          	or	s0,s0,a5
20005280:	01347433          	and	s0,s0,s3
20005284:	eedff06f          	j	20005170 <_ZL7dir_sdiP3DIRm.constprop.0+0xec>
20005288:	0014c503          	lbu	a0,1(s1)
2000528c:	00100693          	li	a3,1
20005290:	000a8613          	mv	a2,s5
20005294:	00090593          	mv	a1,s2
20005298:	66c020ef          	jal	ra,20007904 <disk_read>
2000529c:	08051c63          	bnez	a0,20005334 <_ZL7dir_sdiP3DIRm.constprop.0+0x2b0>
200052a0:	0354a623          	sw	s5,44(s1)
200052a4:	eb1ff06f          	j	20005154 <_ZL7dir_sdiP3DIRm.constprop.0+0xd0>
200052a8:	0014c503          	lbu	a0,1(s1)
200052ac:	00100693          	li	a3,1
200052b0:	000a8613          	mv	a2,s5
200052b4:	00090593          	mv	a1,s2
200052b8:	64c020ef          	jal	ra,20007904 <disk_read>
200052bc:	06051c63          	bnez	a0,20005334 <_ZL7dir_sdiP3DIRm.constprop.0+0x2b0>
200052c0:	0354a623          	sw	s5,44(s1)
200052c4:	f89ff06f          	j	2000524c <_ZL7dir_sdiP3DIRm.constprop.0+0x1c8>
200052c8:	0014c503          	lbu	a0,1(s1)
200052cc:	00100693          	li	a3,1
200052d0:	000a8613          	mv	a2,s5
200052d4:	03048593          	addi	a1,s1,48
200052d8:	62c020ef          	jal	ra,20007904 <disk_read>
200052dc:	04051c63          	bnez	a0,20005334 <_ZL7dir_sdiP3DIRm.constprop.0+0x2b0>
200052e0:	0204a603          	lw	a2,32(s1)
200052e4:	0354a623          	sw	s5,44(s1)
200052e8:	000a8713          	mv	a4,s5
200052ec:	f05ff06f          	j	200051f0 <_ZL7dir_sdiP3DIRm.constprop.0+0x16c>
200052f0:	0014c503          	lbu	a0,1(s1)
200052f4:	00100693          	li	a3,1
200052f8:	000d8613          	mv	a2,s11
200052fc:	03048593          	addi	a1,s1,48
20005300:	604020ef          	jal	ra,20007904 <disk_read>
20005304:	02051863          	bnez	a0,20005334 <_ZL7dir_sdiP3DIRm.constprop.0+0x2b0>
20005308:	03b4a623          	sw	s11,44(s1)
2000530c:	f01ff06f          	j	2000520c <_ZL7dir_sdiP3DIRm.constprop.0+0x188>
20005310:	014ba783          	lw	a5,20(s7)
20005314:	ffe40593          	addi	a1,s0,-2
20005318:	ffe78793          	addi	a5,a5,-2
2000531c:	02f5f463          	bgeu	a1,a5,20005344 <_ZL7dir_sdiP3DIRm.constprop.0+0x2c0>
20005320:	c85fc0ef          	jal	ra,20001fa4 <__mulsi3>
20005324:	028ba783          	lw	a5,40(s7)
20005328:	00f50533          	add	a0,a0,a5
2000532c:	00ab2c23          	sw	a0,24(s6)
20005330:	dbdff06f          	j	200050ec <_ZL7dir_sdiP3DIRm.constprop.0+0x68>
20005334:	fff00793          	li	a5,-1
20005338:	02f4a623          	sw	a5,44(s1)
2000533c:	00100513          	li	a0,1
20005340:	dc1ff06f          	j	20005100 <_ZL7dir_sdiP3DIRm.constprop.0+0x7c>
20005344:	000b2c23          	sw	zero,24(s6)
20005348:	008b2a23          	sw	s0,20(s6)
2000534c:	00200513          	li	a0,2
20005350:	db1ff06f          	j	20005100 <_ZL7dir_sdiP3DIRm.constprop.0+0x7c>

20005354 <_ZL11follow_pathP3DIRPKc>:
20005354:	fa010113          	addi	sp,sp,-96
20005358:	03812c23          	sw	s8,56(sp)
2000535c:	03a12823          	sw	s10,48(sp)
20005360:	00052783          	lw	a5,0(a0)
20005364:	04112e23          	sw	ra,92(sp)
20005368:	04812c23          	sw	s0,88(sp)
2000536c:	04912a23          	sw	s1,84(sp)
20005370:	05212823          	sw	s2,80(sp)
20005374:	05312623          	sw	s3,76(sp)
20005378:	05412423          	sw	s4,72(sp)
2000537c:	05512223          	sw	s5,68(sp)
20005380:	05612023          	sw	s6,64(sp)
20005384:	03712e23          	sw	s7,60(sp)
20005388:	03912a23          	sw	s9,52(sp)
2000538c:	03b12623          	sw	s11,44(sp)
20005390:	0005c683          	lbu	a3,0(a1)
20005394:	02f00613          	li	a2,47
20005398:	00f12623          	sw	a5,12(sp)
2000539c:	00058c13          	mv	s8,a1
200053a0:	00050d13          	mv	s10,a0
200053a4:	06c68663          	beq	a3,a2,20005410 <_ZL11follow_pathP3DIRPKc+0xbc>
200053a8:	05c00613          	li	a2,92
200053ac:	06c68263          	beq	a3,a2,20005410 <_ZL11follow_pathP3DIRPKc+0xbc>
200053b0:	0107a683          	lw	a3,16(a5)
200053b4:	01f00613          	li	a2,31
200053b8:	00d52423          	sw	a3,8(a0)
200053bc:	000c4583          	lbu	a1,0(s8)
200053c0:	00c12683          	lw	a3,12(sp)
200053c4:	06b66e63          	bltu	a2,a1,20005440 <_ZL11follow_pathP3DIRPKc+0xec>
200053c8:	f8000713          	li	a4,-128
200053cc:	02ed05a3          	sb	a4,43(s10)
200053d0:	05812403          	lw	s0,88(sp)
200053d4:	05c12083          	lw	ra,92(sp)
200053d8:	05412483          	lw	s1,84(sp)
200053dc:	05012903          	lw	s2,80(sp)
200053e0:	04c12983          	lw	s3,76(sp)
200053e4:	04812a03          	lw	s4,72(sp)
200053e8:	04412a83          	lw	s5,68(sp)
200053ec:	04012b03          	lw	s6,64(sp)
200053f0:	03c12b83          	lw	s7,60(sp)
200053f4:	03812c03          	lw	s8,56(sp)
200053f8:	03412c83          	lw	s9,52(sp)
200053fc:	02c12d83          	lw	s11,44(sp)
20005400:	000d0513          	mv	a0,s10
20005404:	03012d03          	lw	s10,48(sp)
20005408:	06010113          	addi	sp,sp,96
2000540c:	c79ff06f          	j	20005084 <_ZL7dir_sdiP3DIRm.constprop.0>
20005410:	02f00613          	li	a2,47
20005414:	05c00593          	li	a1,92
20005418:	000c4683          	lbu	a3,0(s8)
2000541c:	00c68463          	beq	a3,a2,20005424 <_ZL11follow_pathP3DIRPKc+0xd0>
20005420:	00b69663          	bne	a3,a1,2000542c <_ZL11follow_pathP3DIRPKc+0xd8>
20005424:	001c0c13          	addi	s8,s8,1
20005428:	ff1ff06f          	j	20005418 <_ZL11follow_pathP3DIRPKc+0xc4>
2000542c:	000d2423          	sw	zero,8(s10)
20005430:	000c4583          	lbu	a1,0(s8)
20005434:	01f00613          	li	a2,31
20005438:	00c12683          	lw	a3,12(sp)
2000543c:	f8b676e3          	bgeu	a2,a1,200053c8 <_ZL11follow_pathP3DIRPKc+0x74>
20005440:	00010ab7          	lui	s5,0x10
20005444:	fffa8793          	addi	a5,s5,-1 # ffff <_STACK_SIZE+0xfe0f>
20005448:	00f12823          	sw	a5,16(sp)
2000544c:	00c6ab83          	lw	s7,12(a3)
20005450:	00000c93          	li	s9,0
20005454:	01f00493          	li	s1,31
20005458:	000b8913          	mv	s2,s7
2000545c:	02f00413          	li	s0,47
20005460:	05c00993          	li	s3,92
20005464:	07f00a13          	li	s4,127
20005468:	00004a97          	auipc	s5,0x4
2000546c:	348a8a93          	addi	s5,s5,840 # 200097b0 <__clz_tab+0x66c>
20005470:	0ff00b13          	li	s6,255
20005474:	000c4503          	lbu	a0,0(s8)
20005478:	001c0c13          	addi	s8,s8,1
2000547c:	08051663          	bnez	a0,20005508 <_ZL11follow_pathP3DIRPKc+0x1b4>
20005480:	00100693          	li	a3,1
20005484:	00400413          	li	s0,4
20005488:	0edc8863          	beq	s9,a3,20005578 <_ZL11follow_pathP3DIRPKc+0x224>
2000548c:	00200693          	li	a3,2
20005490:	12dc8a63          	beq	s9,a3,200055c4 <_ZL11follow_pathP3DIRPKc+0x270>
20005494:	020c8663          	beqz	s9,200054c0 <_ZL11follow_pathP3DIRPKc+0x16c>
20005498:	001c9693          	slli	a3,s9,0x1
2000549c:	00db86b3          	add	a3,s7,a3
200054a0:	02000513          	li	a0,32
200054a4:	02e00813          	li	a6,46
200054a8:	ffe6d583          	lhu	a1,-2(a3)
200054ac:	ffe68693          	addi	a3,a3,-2
200054b0:	00a58463          	beq	a1,a0,200054b8 <_ZL11follow_pathP3DIRPKc+0x164>
200054b4:	13059c63          	bne	a1,a6,200055ec <_ZL11follow_pathP3DIRPKc+0x298>
200054b8:	fffc8c93          	addi	s9,s9,-1
200054bc:	fe0c96e3          	bnez	s9,200054a8 <_ZL11follow_pathP3DIRPKc+0x154>
200054c0:	000b9023          	sh	zero,0(s7)
200054c4:	00600413          	li	s0,6
200054c8:	05c12083          	lw	ra,92(sp)
200054cc:	00040513          	mv	a0,s0
200054d0:	05812403          	lw	s0,88(sp)
200054d4:	05412483          	lw	s1,84(sp)
200054d8:	05012903          	lw	s2,80(sp)
200054dc:	04c12983          	lw	s3,76(sp)
200054e0:	04812a03          	lw	s4,72(sp)
200054e4:	04412a83          	lw	s5,68(sp)
200054e8:	04012b03          	lw	s6,64(sp)
200054ec:	03c12b83          	lw	s7,60(sp)
200054f0:	03812c03          	lw	s8,56(sp)
200054f4:	03412c83          	lw	s9,52(sp)
200054f8:	03012d03          	lw	s10,48(sp)
200054fc:	02c12d83          	lw	s11,44(sp)
20005500:	06010113          	addi	sp,sp,96
20005504:	00008067          	ret
20005508:	1b500593          	li	a1,437
2000550c:	22c020ef          	jal	ra,20007738 <ff_oem2uni>
20005510:	00050d93          	mv	s11,a0
20005514:	fa0508e3          	beqz	a0,200054c4 <_ZL11follow_pathP3DIRPKc+0x170>
20005518:	00050593          	mv	a1,a0
2000551c:	000a8513          	mv	a0,s5
20005520:	f7b4f0e3          	bgeu	s1,s11,20005480 <_ZL11follow_pathP3DIRPKc+0x12c>
20005524:	028d8463          	beq	s11,s0,2000554c <_ZL11follow_pathP3DIRPKc+0x1f8>
20005528:	033d8263          	beq	s11,s3,2000554c <_ZL11follow_pathP3DIRPKc+0x1f8>
2000552c:	01ba6663          	bltu	s4,s11,20005538 <_ZL11follow_pathP3DIRPKc+0x1e4>
20005530:	ef4fb0ef          	jal	ra,20000c24 <strchr>
20005534:	f80518e3          	bnez	a0,200054c4 <_ZL11follow_pathP3DIRPKc+0x170>
20005538:	f96c86e3          	beq	s9,s6,200054c4 <_ZL11follow_pathP3DIRPKc+0x170>
2000553c:	01b91023          	sh	s11,0(s2)
20005540:	001c8c93          	addi	s9,s9,1
20005544:	00290913          	addi	s2,s2,2
20005548:	f2dff06f          	j	20005474 <_ZL11follow_pathP3DIRPKc+0x120>
2000554c:	02f00693          	li	a3,47
20005550:	05c00593          	li	a1,92
20005554:	000c4403          	lbu	s0,0(s8)
20005558:	00d40463          	beq	s0,a3,20005560 <_ZL11follow_pathP3DIRPKc+0x20c>
2000555c:	00b41663          	bne	s0,a1,20005568 <_ZL11follow_pathP3DIRPKc+0x214>
20005560:	001c0c13          	addi	s8,s8,1
20005564:	ff1ff06f          	j	20005554 <_ZL11follow_pathP3DIRPKc+0x200>
20005568:	02043413          	sltiu	s0,s0,32
2000556c:	00100693          	li	a3,1
20005570:	00241413          	slli	s0,s0,0x2
20005574:	f0dc9ce3          	bne	s9,a3,2000548c <_ZL11follow_pathP3DIRPKc+0x138>
20005578:	000bd583          	lhu	a1,0(s7)
2000557c:	02e00693          	li	a3,46
20005580:	f0d59ce3          	bne	a1,a3,20005498 <_ZL11follow_pathP3DIRPKc+0x144>
20005584:	000027b7          	lui	a5,0x2
20005588:	000b9123          	sh	zero,2(s7)
2000558c:	02e78693          	addi	a3,a5,46 # 202e <_STACK_SIZE+0x1e3e>
20005590:	02dd1023          	sh	a3,32(s10)
20005594:	202026b7          	lui	a3,0x20202
20005598:	02068693          	addi	a3,a3,32 # 20202020 <__global_pointer$+0x1f6800>
2000559c:	000027b7          	lui	a5,0x2
200055a0:	02078713          	addi	a4,a5,32 # 2020 <_STACK_SIZE+0x1e30>
200055a4:	02046413          	ori	s0,s0,32
200055a8:	02dd2223          	sw	a3,36(s10)
200055ac:	02000693          	li	a3,32
200055b0:	02ed1123          	sh	a4,34(s10)
200055b4:	02ed1423          	sh	a4,40(s10)
200055b8:	02dd0523          	sb	a3,42(s10)
200055bc:	028d05a3          	sb	s0,43(s10)
200055c0:	1900006f          	j	20005750 <_ZL11follow_pathP3DIRPKc+0x3fc>
200055c4:	002bd683          	lhu	a3,2(s7)
200055c8:	02e00593          	li	a1,46
200055cc:	ecb696e3          	bne	a3,a1,20005498 <_ZL11follow_pathP3DIRPKc+0x144>
200055d0:	000bd583          	lhu	a1,0(s7)
200055d4:	ecd592e3          	bne	a1,a3,20005498 <_ZL11follow_pathP3DIRPKc+0x144>
200055d8:	000036b7          	lui	a3,0x3
200055dc:	000b9223          	sh	zero,4(s7)
200055e0:	e2e68693          	addi	a3,a3,-466 # 2e2e <_STACK_SIZE+0x2c3e>
200055e4:	02dd1023          	sh	a3,32(s10)
200055e8:	fadff06f          	j	20005594 <_ZL11follow_pathP3DIRPKc+0x240>
200055ec:	001c9693          	slli	a3,s9,0x1
200055f0:	00db86b3          	add	a3,s7,a3
200055f4:	00069023          	sh	zero,0(a3)
200055f8:	000bd883          	lhu	a7,0(s7)
200055fc:	52a89063          	bne	a7,a0,20005b1c <_ZL11follow_pathP3DIRPKc+0x7c8>
20005600:	002b8813          	addi	a6,s7,2
20005604:	00000513          	li	a0,0
20005608:	02000e13          	li	t3,32
2000560c:	00085883          	lhu	a7,0(a6)
20005610:	00080593          	mv	a1,a6
20005614:	00050313          	mv	t1,a0
20005618:	00280813          	addi	a6,a6,2
2000561c:	00150513          	addi	a0,a0,1
20005620:	ffc886e3          	beq	a7,t3,2000560c <_ZL11follow_pathP3DIRPKc+0x2b8>
20005624:	00230993          	addi	s3,t1,2
20005628:	00346413          	ori	s0,s0,3
2000562c:	0ff47413          	andi	s0,s0,255
20005630:	02e00813          	li	a6,46
20005634:	ffe6d503          	lhu	a0,-2(a3)
20005638:	ffe68693          	addi	a3,a3,-2
2000563c:	01050663          	beq	a0,a6,20005648 <_ZL11follow_pathP3DIRPKc+0x2f4>
20005640:	fffc8c93          	addi	s9,s9,-1
20005644:	fe0c98e3          	bnez	s9,20005634 <_ZL11follow_pathP3DIRPKc+0x2e0>
20005648:	02000693          	li	a3,32
2000564c:	02dd0023          	sb	a3,32(s10)
20005650:	02dd00a3          	sb	a3,33(s10)
20005654:	02dd0123          	sb	a3,34(s10)
20005658:	02dd01a3          	sb	a3,35(s10)
2000565c:	02dd0223          	sb	a3,36(s10)
20005660:	02dd02a3          	sb	a3,37(s10)
20005664:	02dd0323          	sb	a3,38(s10)
20005668:	02dd03a3          	sb	a3,39(s10)
2000566c:	02dd0423          	sb	a3,40(s10)
20005670:	02dd04a3          	sb	a3,41(s10)
20005674:	02dd0523          	sb	a3,42(s10)
20005678:	0005d483          	lhu	s1,0(a1)
2000567c:	0c048863          	beqz	s1,2000574c <_ZL11follow_pathP3DIRPKc+0x3f8>
20005680:	00000a13          	li	s4,0
20005684:	00800b13          	li	s6,8
20005688:	00000e93          	li	t4,0
2000568c:	02000d93          	li	s11,32
20005690:	02e00813          	li	a6,46
20005694:	00b00893          	li	a7,11
20005698:	07f00a93          	li	s5,127
2000569c:	45b48063          	beq	s1,s11,20005adc <_ZL11follow_pathP3DIRPKc+0x788>
200056a0:	43048c63          	beq	s1,a6,20005ad8 <_ZL11follow_pathP3DIRPKc+0x784>
200056a4:	056efc63          	bgeu	t4,s6,200056fc <_ZL11follow_pathP3DIRPKc+0x3a8>
200056a8:	453c8c63          	beq	s9,s3,20005b00 <_ZL11follow_pathP3DIRPKc+0x7ac>
200056ac:	5a9ae463          	bltu	s5,s1,20005c54 <_ZL11follow_pathP3DIRPKc+0x900>
200056b0:	00048593          	mv	a1,s1
200056b4:	00004517          	auipc	a0,0x4
200056b8:	10850513          	addi	a0,a0,264 # 200097bc <__clz_tab+0x678>
200056bc:	01d12a23          	sw	t4,20(sp)
200056c0:	d64fb0ef          	jal	ra,20000c24 <strchr>
200056c4:	01412e83          	lw	t4,20(sp)
200056c8:	02e00813          	li	a6,46
200056cc:	00b00893          	li	a7,11
200056d0:	60050a63          	beqz	a0,20005ce4 <_ZL11follow_pathP3DIRPKc+0x990>
200056d4:	00040913          	mv	s2,s0
200056d8:	00396413          	ori	s0,s2,3
200056dc:	0ff47413          	andi	s0,s0,255
200056e0:	000e8693          	mv	a3,t4
200056e4:	05f00493          	li	s1,95
200056e8:	00dd05b3          	add	a1,s10,a3
200056ec:	00168e93          	addi	t4,a3,1
200056f0:	02958023          	sb	s1,32(a1)
200056f4:	00098313          	mv	t1,s3
200056f8:	3f00006f          	j	20005ae8 <_ZL11follow_pathP3DIRPKc+0x794>
200056fc:	631b0e63          	beq	s6,a7,20005d38 <_ZL11follow_pathP3DIRPKc+0x9e4>
20005700:	413c8263          	beq	s9,s3,20005b04 <_ZL11follow_pathP3DIRPKc+0x7b0>
20005704:	00346413          	ori	s0,s0,3
20005708:	0ff47413          	andi	s0,s0,255
2000570c:	3f3cfc63          	bgeu	s9,s3,20005b04 <_ZL11follow_pathP3DIRPKc+0x7b0>
20005710:	020d4603          	lbu	a2,32(s10)
20005714:	0e500693          	li	a3,229
20005718:	00d61663          	bne	a2,a3,20005724 <_ZL11follow_pathP3DIRPKc+0x3d0>
2000571c:	00500693          	li	a3,5
20005720:	02dd0023          	sb	a3,32(s10)
20005724:	00800693          	li	a3,8
20005728:	40db0263          	beq	s6,a3,20005b2c <_ZL11follow_pathP3DIRPKc+0x7d8>
2000572c:	00ca7693          	andi	a3,s4,12
20005730:	00c00613          	li	a2,12
20005734:	00c68863          	beq	a3,a2,20005744 <_ZL11follow_pathP3DIRPKc+0x3f0>
20005738:	003a7693          	andi	a3,s4,3
2000573c:	00300613          	li	a2,3
20005740:	40c69a63          	bne	a3,a2,20005b54 <_ZL11follow_pathP3DIRPKc+0x800>
20005744:	00246413          	ori	s0,s0,2
20005748:	0ff47413          	andi	s0,s0,255
2000574c:	028d05a3          	sb	s0,43(s10)
20005750:	000d0513          	mv	a0,s10
20005754:	000d2c83          	lw	s9,0(s10)
20005758:	92dff0ef          	jal	ra,20005084 <_ZL7dir_sdiP3DIRm.constprop.0>
2000575c:	00050413          	mv	s0,a0
20005760:	62051663          	bnez	a0,20005d8c <_ZL11follow_pathP3DIRPKc+0xa38>
20005764:	018d2b83          	lw	s7,24(s10)
20005768:	fff00693          	li	a3,-1
2000576c:	02dd2623          	sw	a3,44(s10)
20005770:	0ff00a13          	li	s4,255
20005774:	0ff00a93          	li	s5,255
20005778:	030c8493          	addi	s1,s9,48
2000577c:	020d0993          	addi	s3,s10,32
20005780:	02cca683          	lw	a3,44(s9)
20005784:	03768863          	beq	a3,s7,200057b4 <_ZL11follow_pathP3DIRPKc+0x460>
20005788:	001cc503          	lbu	a0,1(s9)
2000578c:	00100693          	li	a3,1
20005790:	000b8613          	mv	a2,s7
20005794:	00048593          	mv	a1,s1
20005798:	16c020ef          	jal	ra,20007904 <disk_read>
2000579c:	00050a63          	beqz	a0,200057b0 <_ZL11follow_pathP3DIRPKc+0x45c>
200057a0:	fff00793          	li	a5,-1
200057a4:	02fca623          	sw	a5,44(s9)
200057a8:	00100413          	li	s0,1
200057ac:	d1dff06f          	j	200054c8 <_ZL11follow_pathP3DIRPKc+0x174>
200057b0:	037ca623          	sw	s7,44(s9)
200057b4:	01cd2903          	lw	s2,28(s10)
200057b8:	00094683          	lbu	a3,0(s2)
200057bc:	04068463          	beqz	a3,20005804 <_ZL11follow_pathP3DIRPKc+0x4b0>
200057c0:	00b94d83          	lbu	s11,11(s2)
200057c4:	0e500593          	li	a1,229
200057c8:	03fdf613          	andi	a2,s11,63
200057cc:	00cd0323          	sb	a2,6(s10)
200057d0:	00b68a63          	beq	a3,a1,200057e4 <_ZL11follow_pathP3DIRPKc+0x490>
200057d4:	008df593          	andi	a1,s11,8
200057d8:	06058c63          	beqz	a1,20005850 <_ZL11follow_pathP3DIRPKc+0x4fc>
200057dc:	00f00593          	li	a1,15
200057e0:	16b60663          	beq	a2,a1,2000594c <_ZL11follow_pathP3DIRPKc+0x5f8>
200057e4:	fff00693          	li	a3,-1
200057e8:	02dd2623          	sw	a3,44(s10)
200057ec:	0ff00a93          	li	s5,255
200057f0:	010d2d83          	lw	s11,16(s10)
200057f4:	002006b7          	lui	a3,0x200
200057f8:	020d8d93          	addi	s11,s11,32
200057fc:	00dde863          	bltu	s11,a3,2000580c <_ZL11follow_pathP3DIRPKc+0x4b8>
20005800:	000d2c23          	sw	zero,24(s10)
20005804:	02bd4683          	lbu	a3,43(s10)
20005808:	2a40006f          	j	20005aac <_ZL11follow_pathP3DIRPKc+0x758>
2000580c:	018d2b83          	lw	s7,24(s10)
20005810:	fe0b8ae3          	beqz	s7,20005804 <_ZL11follow_pathP3DIRPKc+0x4b0>
20005814:	1ffdf913          	andi	s2,s11,511
20005818:	000d2b03          	lw	s6,0(s10)
2000581c:	02091063          	bnez	s2,2000583c <_ZL11follow_pathP3DIRPKc+0x4e8>
20005820:	014d2583          	lw	a1,20(s10)
20005824:	001b8b93          	addi	s7,s7,1
20005828:	017d2c23          	sw	s7,24(s10)
2000582c:	0a059e63          	bnez	a1,200058e8 <_ZL11follow_pathP3DIRPKc+0x594>
20005830:	008b5583          	lhu	a1,8(s6)
20005834:	005dd513          	srli	a0,s11,0x5
20005838:	26b57663          	bgeu	a0,a1,20005aa4 <_ZL11follow_pathP3DIRPKc+0x750>
2000583c:	030b0693          	addi	a3,s6,48
20005840:	012686b3          	add	a3,a3,s2
20005844:	01bd2823          	sw	s11,16(s10)
20005848:	00dd2e23          	sw	a3,28(s10)
2000584c:	f35ff06f          	j	20005780 <_ZL11follow_pathP3DIRPKc+0x42c>
20005850:	00f00593          	li	a1,15
20005854:	0eb60c63          	beq	a2,a1,2000594c <_ZL11follow_pathP3DIRPKc+0x5f8>
20005858:	120a8463          	beqz	s5,20005980 <_ZL11follow_pathP3DIRPKc+0x62c>
2000585c:	02bd4a83          	lbu	s5,43(s10)
20005860:	001af613          	andi	a2,s5,1
20005864:	f80610e3          	bnez	a2,200057e4 <_ZL11follow_pathP3DIRPKc+0x490>
20005868:	00b00613          	li	a2,11
2000586c:	00098593          	mv	a1,s3
20005870:	00090513          	mv	a0,s2
20005874:	8d0fb0ef          	jal	ra,20000944 <memcmp>
20005878:	f60516e3          	bnez	a0,200057e4 <_ZL11follow_pathP3DIRPKc+0x490>
2000587c:	004af693          	andi	a3,s5,4
20005880:	c40694e3          	bnez	a3,200054c8 <_ZL11follow_pathP3DIRPKc+0x174>
20005884:	010dfd93          	andi	s11,s11,16
20005888:	4c0d8c63          	beqz	s11,20005d60 <_ZL11follow_pathP3DIRPKc+0xa0c>
2000588c:	00c12783          	lw	a5,12(sp)
20005890:	010d2603          	lw	a2,16(s10)
20005894:	00300593          	li	a1,3
20005898:	03078693          	addi	a3,a5,48
2000589c:	1ff67613          	andi	a2,a2,511
200058a0:	00c686b3          	add	a3,a3,a2
200058a4:	01b6c603          	lbu	a2,27(a3) # 20001b <_STACK_SIZE+0x1ffe2b>
200058a8:	01a6c803          	lbu	a6,26(a3)
200058ac:	0007c503          	lbu	a0,0(a5)
200058b0:	00861613          	slli	a2,a2,0x8
200058b4:	01066633          	or	a2,a2,a6
200058b8:	00b50863          	beq	a0,a1,200058c8 <_ZL11follow_pathP3DIRPKc+0x574>
200058bc:	00cd2423          	sw	a2,8(s10)
200058c0:	000d2683          	lw	a3,0(s10)
200058c4:	b89ff06f          	j	2000544c <_ZL11follow_pathP3DIRPKc+0xf8>
200058c8:	0156c583          	lbu	a1,21(a3)
200058cc:	0146c503          	lbu	a0,20(a3)
200058d0:	00859693          	slli	a3,a1,0x8
200058d4:	00a6e6b3          	or	a3,a3,a0
200058d8:	01069693          	slli	a3,a3,0x10
200058dc:	00d66633          	or	a2,a2,a3
200058e0:	00cd2423          	sw	a2,8(s10)
200058e4:	fddff06f          	j	200058c0 <_ZL11follow_pathP3DIRPKc+0x56c>
200058e8:	00ab5e03          	lhu	t3,10(s6)
200058ec:	009dd513          	srli	a0,s11,0x9
200058f0:	fffe0e13          	addi	t3,t3,-1
200058f4:	00ae7533          	and	a0,t3,a0
200058f8:	f40512e3          	bnez	a0,2000583c <_ZL11follow_pathP3DIRPKc+0x4e8>
200058fc:	000b0513          	mv	a0,s6
20005900:	d7cff0ef          	jal	ra,20004e7c <_ZL7get_fatP7FFOBJIDm.isra.0>
20005904:	00100613          	li	a2,1
20005908:	34a67263          	bgeu	a2,a0,20005c4c <_ZL11follow_pathP3DIRPKc+0x8f8>
2000590c:	fff00613          	li	a2,-1
20005910:	22c50e63          	beq	a0,a2,20005b4c <_ZL11follow_pathP3DIRPKc+0x7f8>
20005914:	014b2603          	lw	a2,20(s6)
20005918:	18c57663          	bgeu	a0,a2,20005aa4 <_ZL11follow_pathP3DIRPKc+0x750>
2000591c:	00ad2a23          	sw	a0,20(s10)
20005920:	014b2e03          	lw	t3,20(s6)
20005924:	ffe50593          	addi	a1,a0,-2
20005928:	00000b93          	li	s7,0
2000592c:	ffee0513          	addi	a0,t3,-2
20005930:	00a5fa63          	bgeu	a1,a0,20005944 <_ZL11follow_pathP3DIRPKc+0x5f0>
20005934:	00ab5503          	lhu	a0,10(s6)
20005938:	e6cfc0ef          	jal	ra,20001fa4 <__mulsi3>
2000593c:	028b2603          	lw	a2,40(s6)
20005940:	00c50bb3          	add	s7,a0,a2
20005944:	017d2c23          	sw	s7,24(s10)
20005948:	ef5ff06f          	j	2000583c <_ZL11follow_pathP3DIRPKc+0x4e8>
2000594c:	02bd4603          	lbu	a2,43(s10)
20005950:	04067613          	andi	a2,a2,64
20005954:	e8061ee3          	bnez	a2,200057f0 <_ZL11follow_pathP3DIRPKc+0x49c>
20005958:	0406f613          	andi	a2,a3,64
2000595c:	16060863          	beqz	a2,20005acc <_ZL11follow_pathP3DIRPKc+0x778>
20005960:	010d2603          	lw	a2,16(s10)
20005964:	00d94a03          	lbu	s4,13(s2)
20005968:	0bf6fa93          	andi	s5,a3,191
2000596c:	02cd2623          	sw	a2,44(s10)
20005970:	00d94683          	lbu	a3,13(s2)
20005974:	21468663          	beq	a3,s4,20005b80 <_ZL11follow_pathP3DIRPKc+0x82c>
20005978:	0ff00a93          	li	s5,255
2000597c:	e75ff06f          	j	200057f0 <_ZL11follow_pathP3DIRPKc+0x49c>
20005980:	00094503          	lbu	a0,0(s2)
20005984:	00194603          	lbu	a2,1(s2)
20005988:	00294683          	lbu	a3,2(s2)
2000598c:	0ff57593          	andi	a1,a0,255
20005990:	0015d593          	srli	a1,a1,0x1
20005994:	00751513          	slli	a0,a0,0x7
20005998:	00a5e5b3          	or	a1,a1,a0
2000599c:	00c585b3          	add	a1,a1,a2
200059a0:	0ff5f613          	andi	a2,a1,255
200059a4:	00165613          	srli	a2,a2,0x1
200059a8:	00759593          	slli	a1,a1,0x7
200059ac:	00b66633          	or	a2,a2,a1
200059b0:	0ff67613          	andi	a2,a2,255
200059b4:	00d60633          	add	a2,a2,a3
200059b8:	0ff67693          	andi	a3,a2,255
200059bc:	00394583          	lbu	a1,3(s2)
200059c0:	00761613          	slli	a2,a2,0x7
200059c4:	0016d693          	srli	a3,a3,0x1
200059c8:	00c6e6b3          	or	a3,a3,a2
200059cc:	0ff6f693          	andi	a3,a3,255
200059d0:	00b686b3          	add	a3,a3,a1
200059d4:	0ff6f593          	andi	a1,a3,255
200059d8:	00494603          	lbu	a2,4(s2)
200059dc:	00769693          	slli	a3,a3,0x7
200059e0:	0015d593          	srli	a1,a1,0x1
200059e4:	00d5e5b3          	or	a1,a1,a3
200059e8:	0ff5f593          	andi	a1,a1,255
200059ec:	00c585b3          	add	a1,a1,a2
200059f0:	0ff5f613          	andi	a2,a1,255
200059f4:	00594683          	lbu	a3,5(s2)
200059f8:	00759593          	slli	a1,a1,0x7
200059fc:	00165613          	srli	a2,a2,0x1
20005a00:	00b66633          	or	a2,a2,a1
20005a04:	0ff67613          	andi	a2,a2,255
20005a08:	00d60633          	add	a2,a2,a3
20005a0c:	0ff67693          	andi	a3,a2,255
20005a10:	00694583          	lbu	a1,6(s2)
20005a14:	00761613          	slli	a2,a2,0x7
20005a18:	0016d693          	srli	a3,a3,0x1
20005a1c:	00c6e6b3          	or	a3,a3,a2
20005a20:	0ff6f693          	andi	a3,a3,255
20005a24:	00b686b3          	add	a3,a3,a1
20005a28:	0ff6f593          	andi	a1,a3,255
20005a2c:	00794603          	lbu	a2,7(s2)
20005a30:	00769693          	slli	a3,a3,0x7
20005a34:	0015d593          	srli	a1,a1,0x1
20005a38:	00d5e5b3          	or	a1,a1,a3
20005a3c:	0ff5f593          	andi	a1,a1,255
20005a40:	00c585b3          	add	a1,a1,a2
20005a44:	0ff5f613          	andi	a2,a1,255
20005a48:	00894683          	lbu	a3,8(s2)
20005a4c:	00759593          	slli	a1,a1,0x7
20005a50:	00165613          	srli	a2,a2,0x1
20005a54:	00b66633          	or	a2,a2,a1
20005a58:	0ff67613          	andi	a2,a2,255
20005a5c:	00d60633          	add	a2,a2,a3
20005a60:	0ff67693          	andi	a3,a2,255
20005a64:	00994583          	lbu	a1,9(s2)
20005a68:	00761613          	slli	a2,a2,0x7
20005a6c:	0016d693          	srli	a3,a3,0x1
20005a70:	00c6e6b3          	or	a3,a3,a2
20005a74:	0ff6f693          	andi	a3,a3,255
20005a78:	00b686b3          	add	a3,a3,a1
20005a7c:	0ff6f613          	andi	a2,a3,255
20005a80:	00a94583          	lbu	a1,10(s2)
20005a84:	00165613          	srli	a2,a2,0x1
20005a88:	00769693          	slli	a3,a3,0x7
20005a8c:	00d666b3          	or	a3,a2,a3
20005a90:	00b686b3          	add	a3,a3,a1
20005a94:	0ff6f693          	andi	a3,a3,255
20005a98:	dd4692e3          	bne	a3,s4,2000585c <_ZL11follow_pathP3DIRPKc+0x508>
20005a9c:	02bd4a83          	lbu	s5,43(s10)
20005aa0:	dddff06f          	j	2000587c <_ZL11follow_pathP3DIRPKc+0x528>
20005aa4:	02bd4683          	lbu	a3,43(s10)
20005aa8:	000d2c23          	sw	zero,24(s10)
20005aac:	0206f613          	andi	a2,a3,32
20005ab0:	0046f693          	andi	a3,a3,4
20005ab4:	2a060263          	beqz	a2,20005d58 <_ZL11follow_pathP3DIRPKc+0xa04>
20005ab8:	e00684e3          	beqz	a3,200058c0 <_ZL11follow_pathP3DIRPKc+0x56c>
20005abc:	f8000713          	li	a4,-128
20005ac0:	02ed05a3          	sb	a4,43(s10)
20005ac4:	00000413          	li	s0,0
20005ac8:	a01ff06f          	j	200054c8 <_ZL11follow_pathP3DIRPKc+0x174>
20005acc:	eb5682e3          	beq	a3,s5,20005970 <_ZL11follow_pathP3DIRPKc+0x61c>
20005ad0:	0ff00a93          	li	s5,255
20005ad4:	d1dff06f          	j	200057f0 <_ZL11follow_pathP3DIRPKc+0x49c>
20005ad8:	033c8463          	beq	s9,s3,20005b00 <_ZL11follow_pathP3DIRPKc+0x7ac>
20005adc:	00346413          	ori	s0,s0,3
20005ae0:	0ff47413          	andi	s0,s0,255
20005ae4:	00098313          	mv	t1,s3
20005ae8:	00131693          	slli	a3,t1,0x1
20005aec:	00db86b3          	add	a3,s7,a3
20005af0:	0006d483          	lhu	s1,0(a3)
20005af4:	00130993          	addi	s3,t1,1
20005af8:	ba0492e3          	bnez	s1,2000569c <_ZL11follow_pathP3DIRPKc+0x348>
20005afc:	c15ff06f          	j	20005710 <_ZL11follow_pathP3DIRPKc+0x3bc>
20005b00:	231b0c63          	beq	s6,a7,20005d38 <_ZL11follow_pathP3DIRPKc+0x9e4>
20005b04:	002a1a13          	slli	s4,s4,0x2
20005b08:	0ffa7a13          	andi	s4,s4,255
20005b0c:	000c8313          	mv	t1,s9
20005b10:	00b00b13          	li	s6,11
20005b14:	00800e93          	li	t4,8
20005b18:	fd1ff06f          	j	20005ae8 <_ZL11follow_pathP3DIRPKc+0x794>
20005b1c:	000b8593          	mv	a1,s7
20005b20:	00100993          	li	s3,1
20005b24:	b10896e3          	bne	a7,a6,20005630 <_ZL11follow_pathP3DIRPKc+0x2dc>
20005b28:	b01ff06f          	j	20005628 <_ZL11follow_pathP3DIRPKc+0x2d4>
20005b2c:	002a1a13          	slli	s4,s4,0x2
20005b30:	00ca7613          	andi	a2,s4,12
20005b34:	00c00693          	li	a3,12
20005b38:	0ffa7a13          	andi	s4,s4,255
20005b3c:	c0d604e3          	beq	a2,a3,20005744 <_ZL11follow_pathP3DIRPKc+0x3f0>
20005b40:	00247693          	andi	a3,s0,2
20005b44:	02068463          	beqz	a3,20005b6c <_ZL11follow_pathP3DIRPKc+0x818>
20005b48:	c05ff06f          	j	2000574c <_ZL11follow_pathP3DIRPKc+0x3f8>
20005b4c:	00100413          	li	s0,1
20005b50:	979ff06f          	j	200054c8 <_ZL11follow_pathP3DIRPKc+0x174>
20005b54:	00247693          	andi	a3,s0,2
20005b58:	be069ae3          	bnez	a3,2000574c <_ZL11follow_pathP3DIRPKc+0x3f8>
20005b5c:	001a7693          	andi	a3,s4,1
20005b60:	00068663          	beqz	a3,20005b6c <_ZL11follow_pathP3DIRPKc+0x818>
20005b64:	01046413          	ori	s0,s0,16
20005b68:	0ff47413          	andi	s0,s0,255
20005b6c:	004a7a13          	andi	s4,s4,4
20005b70:	bc0a0ee3          	beqz	s4,2000574c <_ZL11follow_pathP3DIRPKc+0x3f8>
20005b74:	00846413          	ori	s0,s0,8
20005b78:	0ff47413          	andi	s0,s0,255
20005b7c:	bd1ff06f          	j	2000574c <_ZL11follow_pathP3DIRPKc+0x3f8>
20005b80:	01b94683          	lbu	a3,27(s2)
20005b84:	01a94603          	lbu	a2,26(s2)
20005b88:	00869693          	slli	a3,a3,0x8
20005b8c:	00c6e6b3          	or	a3,a3,a2
20005b90:	de0694e3          	bnez	a3,20005978 <_ZL11follow_pathP3DIRPKc+0x624>
20005b94:	00094683          	lbu	a3,0(s2)
20005b98:	00cca783          	lw	a5,12(s9)
20005b9c:	00004b97          	auipc	s7,0x4
20005ba0:	cb4b8b93          	addi	s7,s7,-844 # 20009850 <_ZL6LfnOfs>
20005ba4:	03f6f693          	andi	a3,a3,63
20005ba8:	fff68693          	addi	a3,a3,-1
20005bac:	00169e13          	slli	t3,a3,0x1
20005bb0:	00de0e33          	add	t3,t3,a3
20005bb4:	002e1e13          	slli	t3,t3,0x2
20005bb8:	00f12e23          	sw	a5,28(sp)
20005bbc:	00de0b33          	add	s6,t3,a3
20005bc0:	00100f93          	li	t6,1
20005bc4:	0500006f          	j	20005c14 <_ZL11follow_pathP3DIRPKc+0x8c0>
20005bc8:	0ff00793          	li	a5,255
20005bcc:	db67e6e3          	bltu	a5,s6,20005978 <_ZL11follow_pathP3DIRPKc+0x624>
20005bd0:	3a1010ef          	jal	ra,20007770 <ff_wtoupper>
20005bd4:	01c12783          	lw	a5,28(sp)
20005bd8:	00050613          	mv	a2,a0
20005bdc:	001b1513          	slli	a0,s6,0x1
20005be0:	00a78533          	add	a0,a5,a0
20005be4:	01412f03          	lw	t5,20(sp)
20005be8:	00055503          	lhu	a0,0(a0)
20005bec:	00c12c23          	sw	a2,24(sp)
20005bf0:	000f0b13          	mv	s6,t5
20005bf4:	37d010ef          	jal	ra,20007770 <ff_wtoupper>
20005bf8:	01812603          	lw	a2,24(sp)
20005bfc:	d6a61ee3          	bne	a2,a0,20005978 <_ZL11follow_pathP3DIRPKc+0x624>
20005c00:	000d8f93          	mv	t6,s11
20005c04:	001b8b93          	addi	s7,s7,1
20005c08:	00004797          	auipc	a5,0x4
20005c0c:	c5578793          	addi	a5,a5,-939 # 2000985d <_ZL6LfnOfs+0xd>
20005c10:	0f778c63          	beq	a5,s7,20005d08 <_ZL11follow_pathP3DIRPKc+0x9b4>
20005c14:	000bc683          	lbu	a3,0(s7)
20005c18:	001b0f13          	addi	t5,s6,1
20005c1c:	01e12a23          	sw	t5,20(sp)
20005c20:	00d906b3          	add	a3,s2,a3
20005c24:	0016c603          	lbu	a2,1(a3)
20005c28:	0006c583          	lbu	a1,0(a3)
20005c2c:	00861693          	slli	a3,a2,0x8
20005c30:	00b6edb3          	or	s11,a3,a1
20005c34:	000d8513          	mv	a0,s11
20005c38:	f80f98e3          	bnez	t6,20005bc8 <_ZL11follow_pathP3DIRPKc+0x874>
20005c3c:	01012783          	lw	a5,16(sp)
20005c40:	fcfd82e3          	beq	s11,a5,20005c04 <_ZL11follow_pathP3DIRPKc+0x8b0>
20005c44:	0ff00a93          	li	s5,255
20005c48:	ba9ff06f          	j	200057f0 <_ZL11follow_pathP3DIRPKc+0x49c>
20005c4c:	00200413          	li	s0,2
20005c50:	879ff06f          	j	200054c8 <_ZL11follow_pathP3DIRPKc+0x174>
20005c54:	00048513          	mv	a0,s1
20005c58:	00246313          	ori	t1,s0,2
20005c5c:	1b500593          	li	a1,437
20005c60:	01d12a23          	sw	t4,20(sp)
20005c64:	0ff37913          	andi	s2,t1,255
20005c68:	259010ef          	jal	ra,200076c0 <ff_uni2oem>
20005c6c:	08057693          	andi	a3,a0,128
20005c70:	01412e83          	lw	t4,20(sp)
20005c74:	00050493          	mv	s1,a0
20005c78:	02e00813          	li	a6,46
20005c7c:	00b00893          	li	a7,11
20005c80:	02068263          	beqz	a3,20005ca4 <_ZL11follow_pathP3DIRPKc+0x950>
20005c84:	07f57693          	andi	a3,a0,127
20005c88:	00004797          	auipc	a5,0x4
20005c8c:	b4878793          	addi	a5,a5,-1208 # 200097d0 <_ZL5ExCvt>
20005c90:	00d786b3          	add	a3,a5,a3
20005c94:	0006c483          	lbu	s1,0(a3)
20005c98:	a40480e3          	beqz	s1,200056d8 <_ZL11follow_pathP3DIRPKc+0x384>
20005c9c:	00090413          	mv	s0,s2
20005ca0:	a11ff06f          	j	200056b0 <_ZL11follow_pathP3DIRPKc+0x35c>
20005ca4:	0ff00693          	li	a3,255
20005ca8:	fea6f8e3          	bgeu	a3,a0,20005c98 <_ZL11follow_pathP3DIRPKc+0x944>
20005cac:	fffb0693          	addi	a3,s6,-1
20005cb0:	02def063          	bgeu	t4,a3,20005cd0 <_ZL11follow_pathP3DIRPKc+0x97c>
20005cb4:	01dd05b3          	add	a1,s10,t4
20005cb8:	00855513          	srli	a0,a0,0x8
20005cbc:	001e8693          	addi	a3,t4,1
20005cc0:	02a58023          	sb	a0,32(a1)
20005cc4:	0ff4f493          	andi	s1,s1,255
20005cc8:	00090413          	mv	s0,s2
20005ccc:	a1dff06f          	j	200056e8 <_ZL11follow_pathP3DIRPKc+0x394>
20005cd0:	00346413          	ori	s0,s0,3
20005cd4:	0ff47413          	andi	s0,s0,255
20005cd8:	00098313          	mv	t1,s3
20005cdc:	000b0e93          	mv	t4,s6
20005ce0:	e09ff06f          	j	20005ae8 <_ZL11follow_pathP3DIRPKc+0x794>
20005ce4:	fbf48693          	addi	a3,s1,-65
20005ce8:	01069693          	slli	a3,a3,0x10
20005cec:	0106d693          	srli	a3,a3,0x10
20005cf0:	01900593          	li	a1,25
20005cf4:	06d5ea63          	bltu	a1,a3,20005d68 <_ZL11follow_pathP3DIRPKc+0xa14>
20005cf8:	002a6a13          	ori	s4,s4,2
20005cfc:	0ff4f493          	andi	s1,s1,255
20005d00:	000e8693          	mv	a3,t4
20005d04:	9e5ff06f          	j	200056e8 <_ZL11follow_pathP3DIRPKc+0x394>
20005d08:	00094683          	lbu	a3,0(s2)
20005d0c:	0406f693          	andi	a3,a3,64
20005d10:	00068e63          	beqz	a3,20005d2c <_ZL11follow_pathP3DIRPKc+0x9d8>
20005d14:	000f8c63          	beqz	t6,20005d2c <_ZL11follow_pathP3DIRPKc+0x9d8>
20005d18:	01c12783          	lw	a5,28(sp)
20005d1c:	001b1693          	slli	a3,s6,0x1
20005d20:	00d786b3          	add	a3,a5,a3
20005d24:	0006d683          	lhu	a3,0(a3)
20005d28:	c40698e3          	bnez	a3,20005978 <_ZL11follow_pathP3DIRPKc+0x624>
20005d2c:	fffa8313          	addi	t1,s5,-1
20005d30:	0ff37a93          	andi	s5,t1,255
20005d34:	abdff06f          	j	200057f0 <_ZL11follow_pathP3DIRPKc+0x49c>
20005d38:	020d4603          	lbu	a2,32(s10)
20005d3c:	00346413          	ori	s0,s0,3
20005d40:	0e500693          	li	a3,229
20005d44:	0ff47413          	andi	s0,s0,255
20005d48:	9ed612e3          	bne	a2,a3,2000572c <_ZL11follow_pathP3DIRPKc+0x3d8>
20005d4c:	00500693          	li	a3,5
20005d50:	02dd0023          	sb	a3,32(s10)
20005d54:	9d9ff06f          	j	2000572c <_ZL11follow_pathP3DIRPKc+0x3d8>
20005d58:	00400413          	li	s0,4
20005d5c:	f6069663          	bnez	a3,200054c8 <_ZL11follow_pathP3DIRPKc+0x174>
20005d60:	00500413          	li	s0,5
20005d64:	f64ff06f          	j	200054c8 <_ZL11follow_pathP3DIRPKc+0x174>
20005d68:	f9f48693          	addi	a3,s1,-97
20005d6c:	01069693          	slli	a3,a3,0x10
20005d70:	0106d693          	srli	a3,a3,0x10
20005d74:	00d5e663          	bltu	a1,a3,20005d80 <_ZL11follow_pathP3DIRPKc+0xa2c>
20005d78:	fe048493          	addi	s1,s1,-32
20005d7c:	001a6a13          	ori	s4,s4,1
20005d80:	0ff4f493          	andi	s1,s1,255
20005d84:	000e8693          	mv	a3,t4
20005d88:	961ff06f          	j	200056e8 <_ZL11follow_pathP3DIRPKc+0x394>
20005d8c:	00400613          	li	a2,4
20005d90:	02bd4683          	lbu	a3,43(s10)
20005d94:	d0c50ce3          	beq	a0,a2,20005aac <_ZL11follow_pathP3DIRPKc+0x758>
20005d98:	f30ff06f          	j	200054c8 <_ZL11follow_pathP3DIRPKc+0x174>

20005d9c <f_mount>:
20005d9c:	fd010113          	addi	sp,sp,-48
20005da0:	00a12623          	sw	a0,12(sp)
20005da4:	01c10513          	addi	a0,sp,28
20005da8:	02812423          	sw	s0,40(sp)
20005dac:	02112623          	sw	ra,44(sp)
20005db0:	00b12423          	sw	a1,8(sp)
20005db4:	00060413          	mv	s0,a2
20005db8:	00b12e23          	sw	a1,28(sp)
20005dbc:	95dfe0ef          	jal	ra,20004718 <_ZL12get_ldnumberPPKc>
20005dc0:	06054463          	bltz	a0,20005e28 <f_mount+0x8c>
20005dc4:	b8c18793          	addi	a5,gp,-1140 # 2000b3ac <_ZL5FatFs>
20005dc8:	00251513          	slli	a0,a0,0x2
20005dcc:	00a78733          	add	a4,a5,a0
20005dd0:	00072703          	lw	a4,0(a4)
20005dd4:	00070463          	beqz	a4,20005ddc <f_mount+0x40>
20005dd8:	00070023          	sb	zero,0(a4)
20005ddc:	00c12703          	lw	a4,12(sp)
20005de0:	00070663          	beqz	a4,20005dec <f_mount+0x50>
20005de4:	00070023          	sb	zero,0(a4)
20005de8:	00c12703          	lw	a4,12(sp)
20005dec:	00a78533          	add	a0,a5,a0
20005df0:	00e52023          	sw	a4,0(a0)
20005df4:	00000513          	li	a0,0
20005df8:	00041a63          	bnez	s0,20005e0c <f_mount+0x70>
20005dfc:	02c12083          	lw	ra,44(sp)
20005e00:	02812403          	lw	s0,40(sp)
20005e04:	03010113          	addi	sp,sp,48
20005e08:	00008067          	ret
20005e0c:	00c10593          	addi	a1,sp,12
20005e10:	00810513          	addi	a0,sp,8
20005e14:	c05fe0ef          	jal	ra,20004a18 <_ZL12mount_volumePPKcPP5FATFSh.constprop.0>
20005e18:	02c12083          	lw	ra,44(sp)
20005e1c:	02812403          	lw	s0,40(sp)
20005e20:	03010113          	addi	sp,sp,48
20005e24:	00008067          	ret
20005e28:	02c12083          	lw	ra,44(sp)
20005e2c:	02812403          	lw	s0,40(sp)
20005e30:	00b00513          	li	a0,11
20005e34:	03010113          	addi	sp,sp,48
20005e38:	00008067          	ret

20005e3c <f_open>:
20005e3c:	fa010113          	addi	sp,sp,-96
20005e40:	04112e23          	sw	ra,92(sp)
20005e44:	04812c23          	sw	s0,88(sp)
20005e48:	04912a23          	sw	s1,84(sp)
20005e4c:	00b12623          	sw	a1,12(sp)
20005e50:	0e050a63          	beqz	a0,20005f44 <f_open+0x108>
20005e54:	00050413          	mv	s0,a0
20005e58:	01c10593          	addi	a1,sp,28
20005e5c:	00c10513          	addi	a0,sp,12
20005e60:	00060493          	mv	s1,a2
20005e64:	bb5fe0ef          	jal	ra,20004a18 <_ZL12mount_volumePPKcPP5FATFSh.constprop.0>
20005e68:	00050e63          	beqz	a0,20005e84 <f_open+0x48>
20005e6c:	00042023          	sw	zero,0(s0)
20005e70:	05c12083          	lw	ra,92(sp)
20005e74:	05812403          	lw	s0,88(sp)
20005e78:	05412483          	lw	s1,84(sp)
20005e7c:	06010113          	addi	sp,sp,96
20005e80:	00008067          	ret
20005e84:	01c12783          	lw	a5,28(sp)
20005e88:	00c12583          	lw	a1,12(sp)
20005e8c:	02010513          	addi	a0,sp,32
20005e90:	02f12023          	sw	a5,32(sp)
20005e94:	cc0ff0ef          	jal	ra,20005354 <_ZL11follow_pathP3DIRPKc>
20005e98:	fc051ae3          	bnez	a0,20005e6c <f_open+0x30>
20005e9c:	04b10783          	lb	a5,75(sp)
20005ea0:	0a07ce63          	bltz	a5,20005f5c <f_open+0x120>
20005ea4:	02614783          	lbu	a5,38(sp)
20005ea8:	0107f793          	andi	a5,a5,16
20005eac:	0a079c63          	bnez	a5,20005f64 <f_open+0x128>
20005eb0:	03c12783          	lw	a5,60(sp)
20005eb4:	01c12583          	lw	a1,28(sp)
20005eb8:	00300693          	li	a3,3
20005ebc:	01b7c703          	lbu	a4,27(a5)
20005ec0:	01a7c803          	lbu	a6,26(a5)
20005ec4:	0005c603          	lbu	a2,0(a1)
20005ec8:	00871713          	slli	a4,a4,0x8
20005ecc:	01076733          	or	a4,a4,a6
20005ed0:	00d61e63          	bne	a2,a3,20005eec <f_open+0xb0>
20005ed4:	0157c683          	lbu	a3,21(a5)
20005ed8:	0147c603          	lbu	a2,20(a5)
20005edc:	00869693          	slli	a3,a3,0x8
20005ee0:	00c6e6b3          	or	a3,a3,a2
20005ee4:	01069693          	slli	a3,a3,0x10
20005ee8:	00d76733          	or	a4,a4,a3
20005eec:	00e42423          	sw	a4,8(s0)
20005ef0:	01d7c683          	lbu	a3,29(a5)
20005ef4:	01c7c603          	lbu	a2,28(a5)
20005ef8:	01e7c703          	lbu	a4,30(a5)
20005efc:	01f7c783          	lbu	a5,31(a5)
20005f00:	00869693          	slli	a3,a3,0x8
20005f04:	0065d803          	lhu	a6,6(a1)
20005f08:	00c6e6b3          	or	a3,a3,a2
20005f0c:	01071713          	slli	a4,a4,0x10
20005f10:	00d76733          	or	a4,a4,a3
20005f14:	01879793          	slli	a5,a5,0x18
20005f18:	00e7e7b3          	or	a5,a5,a4
20005f1c:	0014f613          	andi	a2,s1,1
20005f20:	00f42623          	sw	a5,12(s0)
20005f24:	02042023          	sw	zero,32(s0)
20005f28:	00b42023          	sw	a1,0(s0)
20005f2c:	01041223          	sh	a6,4(s0)
20005f30:	00c40823          	sb	a2,16(s0)
20005f34:	000408a3          	sb	zero,17(s0)
20005f38:	00042e23          	sw	zero,28(s0)
20005f3c:	00042a23          	sw	zero,20(s0)
20005f40:	f31ff06f          	j	20005e70 <f_open+0x34>
20005f44:	05c12083          	lw	ra,92(sp)
20005f48:	05812403          	lw	s0,88(sp)
20005f4c:	05412483          	lw	s1,84(sp)
20005f50:	00900513          	li	a0,9
20005f54:	06010113          	addi	sp,sp,96
20005f58:	00008067          	ret
20005f5c:	00600513          	li	a0,6
20005f60:	f0dff06f          	j	20005e6c <f_open+0x30>
20005f64:	00400513          	li	a0,4
20005f68:	f05ff06f          	j	20005e6c <f_open+0x30>

20005f6c <f_read>:
20005f6c:	fb010113          	addi	sp,sp,-80
20005f70:	04112623          	sw	ra,76(sp)
20005f74:	04812423          	sw	s0,72(sp)
20005f78:	04912223          	sw	s1,68(sp)
20005f7c:	05212023          	sw	s2,64(sp)
20005f80:	03312e23          	sw	s3,60(sp)
20005f84:	03412c23          	sw	s4,56(sp)
20005f88:	03512a23          	sw	s5,52(sp)
20005f8c:	03612823          	sw	s6,48(sp)
20005f90:	03712623          	sw	s7,44(sp)
20005f94:	03812423          	sw	s8,40(sp)
20005f98:	03912223          	sw	s9,36(sp)
20005f9c:	03a12023          	sw	s10,32(sp)
20005fa0:	01b12e23          	sw	s11,28(sp)
20005fa4:	0006a023          	sw	zero,0(a3)
20005fa8:	02050463          	beqz	a0,20005fd0 <f_read+0x64>
20005fac:	00052783          	lw	a5,0(a0)
20005fb0:	00050413          	mv	s0,a0
20005fb4:	00078e63          	beqz	a5,20005fd0 <f_read+0x64>
20005fb8:	0007c703          	lbu	a4,0(a5)
20005fbc:	00070a63          	beqz	a4,20005fd0 <f_read+0x64>
20005fc0:	00068913          	mv	s2,a3
20005fc4:	0067d703          	lhu	a4,6(a5)
20005fc8:	00455683          	lhu	a3,4(a0)
20005fcc:	04e68463          	beq	a3,a4,20006014 <f_read+0xa8>
20005fd0:	00900d13          	li	s10,9
20005fd4:	04c12083          	lw	ra,76(sp)
20005fd8:	04812403          	lw	s0,72(sp)
20005fdc:	04412483          	lw	s1,68(sp)
20005fe0:	04012903          	lw	s2,64(sp)
20005fe4:	03c12983          	lw	s3,60(sp)
20005fe8:	03812a03          	lw	s4,56(sp)
20005fec:	03412a83          	lw	s5,52(sp)
20005ff0:	03012b03          	lw	s6,48(sp)
20005ff4:	02c12b83          	lw	s7,44(sp)
20005ff8:	02812c03          	lw	s8,40(sp)
20005ffc:	02412c83          	lw	s9,36(sp)
20006000:	01c12d83          	lw	s11,28(sp)
20006004:	000d0513          	mv	a0,s10
20006008:	02012d03          	lw	s10,32(sp)
2000600c:	05010113          	addi	sp,sp,80
20006010:	00008067          	ret
20006014:	0017c503          	lbu	a0,1(a5)
20006018:	00058b93          	mv	s7,a1
2000601c:	00c12623          	sw	a2,12(sp)
20006020:	0a9010ef          	jal	ra,200078c8 <disk_status>
20006024:	00157513          	andi	a0,a0,1
20006028:	fa0514e3          	bnez	a0,20005fd0 <f_read+0x64>
2000602c:	01144d03          	lbu	s10,17(s0)
20006030:	fa0d12e3          	bnez	s10,20005fd4 <f_read+0x68>
20006034:	01044783          	lbu	a5,16(s0)
20006038:	0017f793          	andi	a5,a5,1
2000603c:	1a078e63          	beqz	a5,200061f8 <f_read+0x28c>
20006040:	01442783          	lw	a5,20(s0)
20006044:	00c42483          	lw	s1,12(s0)
20006048:	00c12603          	lw	a2,12(sp)
2000604c:	40f484b3          	sub	s1,s1,a5
20006050:	00967463          	bgeu	a2,s1,20006058 <f_read+0xec>
20006054:	00060493          	mv	s1,a2
20006058:	f6048ee3          	beqz	s1,20005fd4 <f_read+0x68>
2000605c:	1ff7f593          	andi	a1,a5,511
20006060:	00042d83          	lw	s11,0(s0)
20006064:	20000a13          	li	s4,512
20006068:	1ff00a93          	li	s5,511
2000606c:	02440993          	addi	s3,s0,36
20006070:	fff00b13          	li	s6,-1
20006074:	0a059263          	bnez	a1,20006118 <f_read+0x1ac>
20006078:	00addc83          	lhu	s9,10(s11)
2000607c:	0097d513          	srli	a0,a5,0x9
20006080:	fffc8c93          	addi	s9,s9,-1
20006084:	00acfcb3          	and	s9,s9,a0
20006088:	0a0c8a63          	beqz	s9,2000613c <f_read+0x1d0>
2000608c:	01842503          	lw	a0,24(s0)
20006090:	014da783          	lw	a5,20(s11)
20006094:	ffe50513          	addi	a0,a0,-2
20006098:	ffe78793          	addi	a5,a5,-2
2000609c:	0cf57463          	bgeu	a0,a5,20006164 <f_read+0x1f8>
200060a0:	00add583          	lhu	a1,10(s11)
200060a4:	00b12623          	sw	a1,12(sp)
200060a8:	efdfb0ef          	jal	ra,20001fa4 <__mulsi3>
200060ac:	028da603          	lw	a2,40(s11)
200060b0:	00c50533          	add	a0,a0,a2
200060b4:	0a050863          	beqz	a0,20006164 <f_read+0x1f8>
200060b8:	00ac8633          	add	a2,s9,a0
200060bc:	0a9afc63          	bgeu	s5,s1,20006174 <f_read+0x208>
200060c0:	00c12583          	lw	a1,12(sp)
200060c4:	0094dc13          	srli	s8,s1,0x9
200060c8:	018c87b3          	add	a5,s9,s8
200060cc:	00f5f463          	bgeu	a1,a5,200060d4 <f_read+0x168>
200060d0:	41958c33          	sub	s8,a1,s9
200060d4:	001dc503          	lbu	a0,1(s11)
200060d8:	000c0693          	mv	a3,s8
200060dc:	000b8593          	mv	a1,s7
200060e0:	025010ef          	jal	ra,20007904 <disk_read>
200060e4:	10051263          	bnez	a0,200061e8 <f_read+0x27c>
200060e8:	009c1c13          	slli	s8,s8,0x9
200060ec:	00092703          	lw	a4,0(s2)
200060f0:	01442783          	lw	a5,20(s0)
200060f4:	418484b3          	sub	s1,s1,s8
200060f8:	01870733          	add	a4,a4,s8
200060fc:	00e92023          	sw	a4,0(s2)
20006100:	00fc07b3          	add	a5,s8,a5
20006104:	00f42a23          	sw	a5,20(s0)
20006108:	018b8bb3          	add	s7,s7,s8
2000610c:	ec0484e3          	beqz	s1,20005fd4 <f_read+0x68>
20006110:	1ff7f593          	andi	a1,a5,511
20006114:	f60582e3          	beqz	a1,20006078 <f_read+0x10c>
20006118:	40ba07b3          	sub	a5,s4,a1
2000611c:	00048c13          	mv	s8,s1
20006120:	0097f463          	bgeu	a5,s1,20006128 <f_read+0x1bc>
20006124:	00078c13          	mv	s8,a5
20006128:	000c0613          	mv	a2,s8
2000612c:	00b985b3          	add	a1,s3,a1
20006130:	000b8513          	mv	a0,s7
20006134:	889fa0ef          	jal	ra,200009bc <memcpy>
20006138:	fb5ff06f          	j	200060ec <f_read+0x180>
2000613c:	06079663          	bnez	a5,200061a8 <f_read+0x23c>
20006140:	00842503          	lw	a0,8(s0)
20006144:	00100793          	li	a5,1
20006148:	00a7fe63          	bgeu	a5,a0,20006164 <f_read+0x1f8>
2000614c:	09650e63          	beq	a0,s6,200061e8 <f_read+0x27c>
20006150:	00a42c23          	sw	a0,24(s0)
20006154:	014da783          	lw	a5,20(s11)
20006158:	ffe50513          	addi	a0,a0,-2
2000615c:	ffe78793          	addi	a5,a5,-2
20006160:	f4f560e3          	bltu	a0,a5,200060a0 <f_read+0x134>
20006164:	00200793          	li	a5,2
20006168:	00f408a3          	sb	a5,17(s0)
2000616c:	00200d13          	li	s10,2
20006170:	e65ff06f          	j	20005fd4 <f_read+0x68>
20006174:	01c42783          	lw	a5,28(s0)
20006178:	02c78063          	beq	a5,a2,20006198 <f_read+0x22c>
2000617c:	001dc503          	lbu	a0,1(s11)
20006180:	00100693          	li	a3,1
20006184:	00098593          	mv	a1,s3
20006188:	00c12623          	sw	a2,12(sp)
2000618c:	778010ef          	jal	ra,20007904 <disk_read>
20006190:	00c12603          	lw	a2,12(sp)
20006194:	04051a63          	bnez	a0,200061e8 <f_read+0x27c>
20006198:	01442583          	lw	a1,20(s0)
2000619c:	00c42e23          	sw	a2,28(s0)
200061a0:	1ff5f593          	andi	a1,a1,511
200061a4:	f75ff06f          	j	20006118 <f_read+0x1ac>
200061a8:	02042783          	lw	a5,32(s0)
200061ac:	00042703          	lw	a4,0(s0)
200061b0:	04078863          	beqz	a5,20006200 <f_read+0x294>
200061b4:	00a75583          	lhu	a1,10(a4)
200061b8:	00478c13          	addi	s8,a5,4
200061bc:	00f12623          	sw	a5,12(sp)
200061c0:	e11fb0ef          	jal	ra,20001fd0 <__udivsi3>
200061c4:	00c12783          	lw	a5,12(sp)
200061c8:	0047a783          	lw	a5,4(a5)
200061cc:	f8078ce3          	beqz	a5,20006164 <f_read+0x1f8>
200061d0:	04f56063          	bltu	a0,a5,20006210 <f_read+0x2a4>
200061d4:	008c0c13          	addi	s8,s8,8
200061d8:	40f50533          	sub	a0,a0,a5
200061dc:	000c2783          	lw	a5,0(s8)
200061e0:	fe0798e3          	bnez	a5,200061d0 <f_read+0x264>
200061e4:	f81ff06f          	j	20006164 <f_read+0x1f8>
200061e8:	00100793          	li	a5,1
200061ec:	00f408a3          	sb	a5,17(s0)
200061f0:	00100d13          	li	s10,1
200061f4:	de1ff06f          	j	20005fd4 <f_read+0x68>
200061f8:	00700d13          	li	s10,7
200061fc:	dd9ff06f          	j	20005fd4 <f_read+0x68>
20006200:	01842583          	lw	a1,24(s0)
20006204:	00070513          	mv	a0,a4
20006208:	c75fe0ef          	jal	ra,20004e7c <_ZL7get_fatP7FFOBJIDm.isra.0>
2000620c:	f39ff06f          	j	20006144 <f_read+0x1d8>
20006210:	004c2783          	lw	a5,4(s8)
20006214:	00f50533          	add	a0,a0,a5
20006218:	f2dff06f          	j	20006144 <f_read+0x1d8>

2000621c <f_close>:
2000621c:	06050463          	beqz	a0,20006284 <f_close+0x68>
20006220:	00052783          	lw	a5,0(a0)
20006224:	ff010113          	addi	sp,sp,-16
20006228:	00812423          	sw	s0,8(sp)
2000622c:	00112623          	sw	ra,12(sp)
20006230:	00050413          	mv	s0,a0
20006234:	00078c63          	beqz	a5,2000624c <f_close+0x30>
20006238:	0007c703          	lbu	a4,0(a5)
2000623c:	00070863          	beqz	a4,2000624c <f_close+0x30>
20006240:	00455683          	lhu	a3,4(a0)
20006244:	0067d703          	lhu	a4,6(a5)
20006248:	00e68c63          	beq	a3,a4,20006260 <f_close+0x44>
2000624c:	00c12083          	lw	ra,12(sp)
20006250:	00812403          	lw	s0,8(sp)
20006254:	00900513          	li	a0,9
20006258:	01010113          	addi	sp,sp,16
2000625c:	00008067          	ret
20006260:	0017c503          	lbu	a0,1(a5)
20006264:	664010ef          	jal	ra,200078c8 <disk_status>
20006268:	00157513          	andi	a0,a0,1
2000626c:	fe0510e3          	bnez	a0,2000624c <f_close+0x30>
20006270:	00c12083          	lw	ra,12(sp)
20006274:	00042023          	sw	zero,0(s0)
20006278:	00812403          	lw	s0,8(sp)
2000627c:	01010113          	addi	sp,sp,16
20006280:	00008067          	ret
20006284:	00900513          	li	a0,9
20006288:	00008067          	ret

2000628c <f_chdrive>:
2000628c:	fe010113          	addi	sp,sp,-32
20006290:	00a12623          	sw	a0,12(sp)
20006294:	00c10513          	addi	a0,sp,12
20006298:	00112e23          	sw	ra,28(sp)
2000629c:	c7cfe0ef          	jal	ra,20004718 <_ZL12get_ldnumberPPKc>
200062a0:	00054c63          	bltz	a0,200062b8 <f_chdrive+0x2c>
200062a4:	01c12083          	lw	ra,28(sp)
200062a8:	d8a18c23          	sb	a0,-616(gp) # 2000b5b8 <_ZL7CurrVol>
200062ac:	00000513          	li	a0,0
200062b0:	02010113          	addi	sp,sp,32
200062b4:	00008067          	ret
200062b8:	01c12083          	lw	ra,28(sp)
200062bc:	00b00513          	li	a0,11
200062c0:	02010113          	addi	sp,sp,32
200062c4:	00008067          	ret

200062c8 <f_chdir>:
200062c8:	fa010113          	addi	sp,sp,-96
200062cc:	00a12623          	sw	a0,12(sp)
200062d0:	01c10593          	addi	a1,sp,28
200062d4:	00c10513          	addi	a0,sp,12
200062d8:	04112e23          	sw	ra,92(sp)
200062dc:	f3cfe0ef          	jal	ra,20004a18 <_ZL12mount_volumePPKcPP5FATFSh.constprop.0>
200062e0:	00050863          	beqz	a0,200062f0 <f_chdir+0x28>
200062e4:	05c12083          	lw	ra,92(sp)
200062e8:	06010113          	addi	sp,sp,96
200062ec:	00008067          	ret
200062f0:	01c12783          	lw	a5,28(sp)
200062f4:	00c12583          	lw	a1,12(sp)
200062f8:	02010513          	addi	a0,sp,32
200062fc:	02f12023          	sw	a5,32(sp)
20006300:	854ff0ef          	jal	ra,20005354 <_ZL11follow_pathP3DIRPKc>
20006304:	04051263          	bnez	a0,20006348 <f_chdir+0x80>
20006308:	04b10783          	lb	a5,75(sp)
2000630c:	0407c663          	bltz	a5,20006358 <f_chdir+0x90>
20006310:	02614783          	lbu	a5,38(sp)
20006314:	0107f793          	andi	a5,a5,16
20006318:	02078c63          	beqz	a5,20006350 <f_chdir+0x88>
2000631c:	03c12703          	lw	a4,60(sp)
20006320:	01c12683          	lw	a3,28(sp)
20006324:	00300613          	li	a2,3
20006328:	01b74783          	lbu	a5,27(a4)
2000632c:	01a74803          	lbu	a6,26(a4)
20006330:	0006c583          	lbu	a1,0(a3)
20006334:	00879793          	slli	a5,a5,0x8
20006338:	0107e7b3          	or	a5,a5,a6
2000633c:	02c58663          	beq	a1,a2,20006368 <f_chdir+0xa0>
20006340:	00f6a823          	sw	a5,16(a3)
20006344:	fa1ff06f          	j	200062e4 <f_chdir+0x1c>
20006348:	00400793          	li	a5,4
2000634c:	f8f51ce3          	bne	a0,a5,200062e4 <f_chdir+0x1c>
20006350:	00500513          	li	a0,5
20006354:	f91ff06f          	j	200062e4 <f_chdir+0x1c>
20006358:	01c12783          	lw	a5,28(sp)
2000635c:	02812703          	lw	a4,40(sp)
20006360:	00e7a823          	sw	a4,16(a5)
20006364:	f81ff06f          	j	200062e4 <f_chdir+0x1c>
20006368:	01574603          	lbu	a2,21(a4)
2000636c:	01474583          	lbu	a1,20(a4)
20006370:	00861713          	slli	a4,a2,0x8
20006374:	00b76733          	or	a4,a4,a1
20006378:	01071713          	slli	a4,a4,0x10
2000637c:	00e7e7b3          	or	a5,a5,a4
20006380:	00f6a823          	sw	a5,16(a3)
20006384:	f61ff06f          	j	200062e4 <f_chdir+0x1c>

20006388 <f_lseek>:
20006388:	fa010113          	addi	sp,sp,-96
2000638c:	04112e23          	sw	ra,92(sp)
20006390:	04812c23          	sw	s0,88(sp)
20006394:	04912a23          	sw	s1,84(sp)
20006398:	05212823          	sw	s2,80(sp)
2000639c:	05312623          	sw	s3,76(sp)
200063a0:	05412423          	sw	s4,72(sp)
200063a4:	05512223          	sw	s5,68(sp)
200063a8:	05612023          	sw	s6,64(sp)
200063ac:	03712e23          	sw	s7,60(sp)
200063b0:	03812c23          	sw	s8,56(sp)
200063b4:	03912a23          	sw	s9,52(sp)
200063b8:	03a12823          	sw	s10,48(sp)
200063bc:	03b12623          	sw	s11,44(sp)
200063c0:	02050263          	beqz	a0,200063e4 <f_lseek+0x5c>
200063c4:	00052783          	lw	a5,0(a0)
200063c8:	00050413          	mv	s0,a0
200063cc:	00078c63          	beqz	a5,200063e4 <f_lseek+0x5c>
200063d0:	0007c703          	lbu	a4,0(a5)
200063d4:	00070863          	beqz	a4,200063e4 <f_lseek+0x5c>
200063d8:	00455683          	lhu	a3,4(a0)
200063dc:	0067d703          	lhu	a4,6(a5)
200063e0:	04e68463          	beq	a3,a4,20006428 <f_lseek+0xa0>
200063e4:	00900993          	li	s3,9
200063e8:	05c12083          	lw	ra,92(sp)
200063ec:	05812403          	lw	s0,88(sp)
200063f0:	05412483          	lw	s1,84(sp)
200063f4:	05012903          	lw	s2,80(sp)
200063f8:	04812a03          	lw	s4,72(sp)
200063fc:	04412a83          	lw	s5,68(sp)
20006400:	04012b03          	lw	s6,64(sp)
20006404:	03c12b83          	lw	s7,60(sp)
20006408:	03812c03          	lw	s8,56(sp)
2000640c:	03412c83          	lw	s9,52(sp)
20006410:	03012d03          	lw	s10,48(sp)
20006414:	02c12d83          	lw	s11,44(sp)
20006418:	00098513          	mv	a0,s3
2000641c:	04c12983          	lw	s3,76(sp)
20006420:	06010113          	addi	sp,sp,96
20006424:	00008067          	ret
20006428:	0017c503          	lbu	a0,1(a5)
2000642c:	00b12623          	sw	a1,12(sp)
20006430:	498010ef          	jal	ra,200078c8 <disk_status>
20006434:	00157513          	andi	a0,a0,1
20006438:	fa0516e3          	bnez	a0,200063e4 <f_lseek+0x5c>
2000643c:	01144983          	lbu	s3,17(s0)
20006440:	00042c03          	lw	s8,0(s0)
20006444:	fa0992e3          	bnez	s3,200063e8 <f_lseek+0x60>
20006448:	02042483          	lw	s1,32(s0)
2000644c:	00c12583          	lw	a1,12(sp)
20006450:	0c048063          	beqz	s1,20006510 <f_lseek+0x188>
20006454:	fff00793          	li	a5,-1
20006458:	1af58e63          	beq	a1,a5,20006614 <f_lseek+0x28c>
2000645c:	00c42a03          	lw	s4,12(s0)
20006460:	0145f463          	bgeu	a1,s4,20006468 <f_lseek+0xe0>
20006464:	00058a13          	mv	s4,a1
20006468:	01442a23          	sw	s4,20(s0)
2000646c:	f60a0ee3          	beqz	s4,200063e8 <f_lseek+0x60>
20006470:	00ac5a83          	lhu	s5,10(s8)
20006474:	fffa0913          	addi	s2,s4,-1
20006478:	00995913          	srli	s2,s2,0x9
2000647c:	000a8593          	mv	a1,s5
20006480:	00090513          	mv	a0,s2
20006484:	b4dfb0ef          	jal	ra,20001fd0 <__udivsi3>
20006488:	0044a703          	lw	a4,4(s1)
2000648c:	00448793          	addi	a5,s1,4
20006490:	00070c63          	beqz	a4,200064a8 <f_lseek+0x120>
20006494:	30e56463          	bltu	a0,a4,2000679c <f_lseek+0x414>
20006498:	00878793          	addi	a5,a5,8
2000649c:	40e50533          	sub	a0,a0,a4
200064a0:	0007a703          	lw	a4,0(a5)
200064a4:	fe0718e3          	bnez	a4,20006494 <f_lseek+0x10c>
200064a8:	ffe00593          	li	a1,-2
200064ac:	00e42c23          	sw	a4,24(s0)
200064b0:	014c2783          	lw	a5,20(s8)
200064b4:	ffe78793          	addi	a5,a5,-2
200064b8:	1af5f863          	bgeu	a1,a5,20006668 <f_lseek+0x2e0>
200064bc:	000a8513          	mv	a0,s5
200064c0:	ae5fb0ef          	jal	ra,20001fa4 <__mulsi3>
200064c4:	028c2603          	lw	a2,40(s8)
200064c8:	00c50533          	add	a0,a0,a2
200064cc:	18050e63          	beqz	a0,20006668 <f_lseek+0x2e0>
200064d0:	1ffa7a13          	andi	s4,s4,511
200064d4:	f00a0ae3          	beqz	s4,200063e8 <f_lseek+0x60>
200064d8:	fffa8a93          	addi	s5,s5,-1
200064dc:	01c42783          	lw	a5,28(s0)
200064e0:	012af933          	and	s2,s5,s2
200064e4:	00a90933          	add	s2,s2,a0
200064e8:	f12780e3          	beq	a5,s2,200063e8 <f_lseek+0x60>
200064ec:	001c4503          	lbu	a0,1(s8)
200064f0:	00100693          	li	a3,1
200064f4:	00090613          	mv	a2,s2
200064f8:	02440593          	addi	a1,s0,36
200064fc:	408010ef          	jal	ra,20007904 <disk_read>
20006500:	00050993          	mv	s3,a0
20006504:	10051063          	bnez	a0,20006604 <f_lseek+0x27c>
20006508:	01242e23          	sw	s2,28(s0)
2000650c:	eddff06f          	j	200063e8 <f_lseek+0x60>
20006510:	00c42a83          	lw	s5,12(s0)
20006514:	0155f463          	bgeu	a1,s5,2000651c <f_lseek+0x194>
20006518:	00058a93          	mv	s5,a1
2000651c:	01442483          	lw	s1,20(s0)
20006520:	00042a23          	sw	zero,20(s0)
20006524:	ec0a82e3          	beqz	s5,200063e8 <f_lseek+0x60>
20006528:	00ac5903          	lhu	s2,10(s8)
2000652c:	00991913          	slli	s2,s2,0x9
20006530:	06048c63          	beqz	s1,200065a8 <f_lseek+0x220>
20006534:	00090593          	mv	a1,s2
20006538:	fffa8513          	addi	a0,s5,-1
2000653c:	a95fb0ef          	jal	ra,20001fd0 <__udivsi3>
20006540:	fff48a13          	addi	s4,s1,-1
20006544:	00090593          	mv	a1,s2
20006548:	00050493          	mv	s1,a0
2000654c:	000a0513          	mv	a0,s4
20006550:	a81fb0ef          	jal	ra,20001fd0 <__udivsi3>
20006554:	04a4ea63          	bltu	s1,a0,200065a8 <f_lseek+0x220>
20006558:	01842b03          	lw	s6,24(s0)
2000655c:	412004b3          	neg	s1,s2
20006560:	0144f4b3          	and	s1,s1,s4
20006564:	00942a23          	sw	s1,20(s0)
20006568:	409a8a33          	sub	s4,s5,s1
2000656c:	000b0593          	mv	a1,s6
20006570:	040b1663          	bnez	s6,200065bc <f_lseek+0x234>
20006574:	1ff4f493          	andi	s1,s1,511
20006578:	e60488e3          	beqz	s1,200063e8 <f_lseek+0x60>
2000657c:	01c42783          	lw	a5,28(s0)
20006580:	e76784e3          	beq	a5,s6,200063e8 <f_lseek+0x60>
20006584:	001c4503          	lbu	a0,1(s8)
20006588:	00100693          	li	a3,1
2000658c:	000b0613          	mv	a2,s6
20006590:	02440593          	addi	a1,s0,36
20006594:	370010ef          	jal	ra,20007904 <disk_read>
20006598:	00050993          	mv	s3,a0
2000659c:	06051463          	bnez	a0,20006604 <f_lseek+0x27c>
200065a0:	01642e23          	sw	s6,28(s0)
200065a4:	e45ff06f          	j	200063e8 <f_lseek+0x60>
200065a8:	00842583          	lw	a1,8(s0)
200065ac:	00b42c23          	sw	a1,24(s0)
200065b0:	e2058ce3          	beqz	a1,200063e8 <f_lseek+0x60>
200065b4:	00000493          	li	s1,0
200065b8:	000a8a13          	mv	s4,s5
200065bc:	35497a63          	bgeu	s2,s4,20006910 <f_lseek+0x588>
200065c0:	000c0513          	mv	a0,s8
200065c4:	fff00a93          	li	s5,-1
200065c8:	00100b13          	li	s6,1
200065cc:	0200006f          	j	200065ec <f_lseek+0x264>
200065d0:	08ab7c63          	bgeu	s6,a0,20006668 <f_lseek+0x2e0>
200065d4:	014c2783          	lw	a5,20(s8)
200065d8:	08f57863          	bgeu	a0,a5,20006668 <f_lseek+0x2e0>
200065dc:	00a42c23          	sw	a0,24(s0)
200065e0:	01442483          	lw	s1,20(s0)
200065e4:	2f497663          	bgeu	s2,s4,200068d0 <f_lseek+0x548>
200065e8:	00042503          	lw	a0,0(s0)
200065ec:	009904b3          	add	s1,s2,s1
200065f0:	00942a23          	sw	s1,20(s0)
200065f4:	889fe0ef          	jal	ra,20004e7c <_ZL7get_fatP7FFOBJIDm.isra.0>
200065f8:	00050593          	mv	a1,a0
200065fc:	412a0a33          	sub	s4,s4,s2
20006600:	fd5518e3          	bne	a0,s5,200065d0 <f_lseek+0x248>
20006604:	00100793          	li	a5,1
20006608:	00f408a3          	sb	a5,17(s0)
2000660c:	00100993          	li	s3,1
20006610:	dd9ff06f          	j	200063e8 <f_lseek+0x60>
20006614:	0004a783          	lw	a5,0(s1)
20006618:	00842d83          	lw	s11,8(s0)
2000661c:	00448a13          	addi	s4,s1,4
20006620:	00f12623          	sw	a5,12(sp)
20006624:	160d8263          	beqz	s11,20006788 <f_lseek+0x400>
20006628:	00001bb7          	lui	s7,0x1
2000662c:	10000ab7          	lui	s5,0x10000
20006630:	fffb8793          	addi	a5,s7,-1 # fff <_STACK_SIZE+0xe0f>
20006634:	000c0913          	mv	s2,s8
20006638:	00200b13          	li	s6,2
2000663c:	00200893          	li	a7,2
20006640:	fffa8a93          	addi	s5,s5,-1 # fffffff <_STACK_SIZE+0xffffe0f>
20006644:	00f12823          	sw	a5,16(sp)
20006648:	00000c93          	li	s9,0
2000664c:	000d8493          	mv	s1,s11
20006650:	00100d13          	li	s10,1
20006654:	00300b93          	li	s7,3
20006658:	001c8c93          	addi	s9,s9,1
2000665c:	009d7663          	bgeu	s10,s1,20006668 <f_lseek+0x2e0>
20006660:	01492783          	lw	a5,20(s2)
20006664:	00f4ea63          	bltu	s1,a5,20006678 <f_lseek+0x2f0>
20006668:	00200793          	li	a5,2
2000666c:	00f408a3          	sb	a5,17(s0)
20006670:	00200993          	li	s3,2
20006674:	d75ff06f          	j	200063e8 <f_lseek+0x60>
20006678:	00094783          	lbu	a5,0(s2)
2000667c:	0d178a63          	beq	a5,a7,20006750 <f_lseek+0x3c8>
20006680:	07778e63          	beq	a5,s7,200066fc <f_lseek+0x374>
20006684:	ffa792e3          	bne	a5,s10,20006668 <f_lseek+0x2e0>
20006688:	02092583          	lw	a1,32(s2)
2000668c:	0014d793          	srli	a5,s1,0x1
20006690:	009787b3          	add	a5,a5,s1
20006694:	02c92683          	lw	a3,44(s2)
20006698:	0097d613          	srli	a2,a5,0x9
2000669c:	00b60633          	add	a2,a2,a1
200066a0:	16d61263          	bne	a2,a3,20006804 <f_lseek+0x47c>
200066a4:	00178313          	addi	t1,a5,1
200066a8:	00935613          	srli	a2,t1,0x9
200066ac:	1ff7f793          	andi	a5,a5,511
200066b0:	00f907b3          	add	a5,s2,a5
200066b4:	00b60633          	add	a2,a2,a1
200066b8:	0307c783          	lbu	a5,48(a5)
200066bc:	18d61063          	bne	a2,a3,2000683c <f_lseek+0x4b4>
200066c0:	1ff37313          	andi	t1,t1,511
200066c4:	00690933          	add	s2,s2,t1
200066c8:	03094683          	lbu	a3,48(s2)
200066cc:	0014f613          	andi	a2,s1,1
200066d0:	00869693          	slli	a3,a3,0x8
200066d4:	00f6e6b3          	or	a3,a3,a5
200066d8:	01012783          	lw	a5,16(sp)
200066dc:	00f6f7b3          	and	a5,a3,a5
200066e0:	18061a63          	bnez	a2,20006874 <f_lseek+0x4ec>
200066e4:	f8fd72e3          	bgeu	s10,a5,20006668 <f_lseek+0x2e0>
200066e8:	00148493          	addi	s1,s1,1
200066ec:	18f49e63          	bne	s1,a5,20006888 <f_lseek+0x500>
200066f0:	00042903          	lw	s2,0(s0)
200066f4:	00078493          	mv	s1,a5
200066f8:	f61ff06f          	j	20006658 <f_lseek+0x2d0>
200066fc:	02092683          	lw	a3,32(s2)
20006700:	02c92783          	lw	a5,44(s2)
20006704:	0074d613          	srli	a2,s1,0x7
20006708:	00d60633          	add	a2,a2,a3
2000670c:	03090593          	addi	a1,s2,48
20006710:	0cf61463          	bne	a2,a5,200067d8 <f_lseek+0x450>
20006714:	00249793          	slli	a5,s1,0x2
20006718:	1fc7f793          	andi	a5,a5,508
2000671c:	00f585b3          	add	a1,a1,a5
20006720:	0015c603          	lbu	a2,1(a1)
20006724:	0005c503          	lbu	a0,0(a1)
20006728:	0025c683          	lbu	a3,2(a1)
2000672c:	0035c783          	lbu	a5,3(a1)
20006730:	00861613          	slli	a2,a2,0x8
20006734:	00a66633          	or	a2,a2,a0
20006738:	01069693          	slli	a3,a3,0x10
2000673c:	00c6e6b3          	or	a3,a3,a2
20006740:	01879793          	slli	a5,a5,0x18
20006744:	00d7e7b3          	or	a5,a5,a3
20006748:	0157f7b3          	and	a5,a5,s5
2000674c:	f99ff06f          	j	200066e4 <f_lseek+0x35c>
20006750:	02092683          	lw	a3,32(s2)
20006754:	02c92783          	lw	a5,44(s2)
20006758:	0084d613          	srli	a2,s1,0x8
2000675c:	00d60633          	add	a2,a2,a3
20006760:	03090593          	addi	a1,s2,48
20006764:	04f61463          	bne	a2,a5,200067ac <f_lseek+0x424>
20006768:	00149793          	slli	a5,s1,0x1
2000676c:	1fe7f793          	andi	a5,a5,510
20006770:	00f585b3          	add	a1,a1,a5
20006774:	0015c783          	lbu	a5,1(a1)
20006778:	0005c683          	lbu	a3,0(a1)
2000677c:	00879793          	slli	a5,a5,0x8
20006780:	00d7e7b3          	or	a5,a5,a3
20006784:	f61ff06f          	j	200066e4 <f_lseek+0x35c>
20006788:	00200b13          	li	s6,2
2000678c:	0164a023          	sw	s6,0(s1)
20006790:	1367e263          	bltu	a5,s6,200068b4 <f_lseek+0x52c>
20006794:	000a2023          	sw	zero,0(s4)
20006798:	c51ff06f          	j	200063e8 <f_lseek+0x60>
2000679c:	0047a703          	lw	a4,4(a5)
200067a0:	00e50733          	add	a4,a0,a4
200067a4:	ffe70593          	addi	a1,a4,-2
200067a8:	d05ff06f          	j	200064ac <f_lseek+0x124>
200067ac:	00194503          	lbu	a0,1(s2)
200067b0:	00100693          	li	a3,1
200067b4:	00c12c23          	sw	a2,24(sp)
200067b8:	00b12a23          	sw	a1,20(sp)
200067bc:	148010ef          	jal	ra,20007904 <disk_read>
200067c0:	01412583          	lw	a1,20(sp)
200067c4:	01812603          	lw	a2,24(sp)
200067c8:	00200893          	li	a7,2
200067cc:	0a051863          	bnez	a0,2000687c <f_lseek+0x4f4>
200067d0:	02c92623          	sw	a2,44(s2)
200067d4:	f95ff06f          	j	20006768 <f_lseek+0x3e0>
200067d8:	00194503          	lbu	a0,1(s2)
200067dc:	00100693          	li	a3,1
200067e0:	00c12c23          	sw	a2,24(sp)
200067e4:	00b12a23          	sw	a1,20(sp)
200067e8:	11c010ef          	jal	ra,20007904 <disk_read>
200067ec:	08051863          	bnez	a0,2000687c <f_lseek+0x4f4>
200067f0:	01812603          	lw	a2,24(sp)
200067f4:	01412583          	lw	a1,20(sp)
200067f8:	00200893          	li	a7,2
200067fc:	02c92623          	sw	a2,44(s2)
20006800:	f15ff06f          	j	20006714 <f_lseek+0x38c>
20006804:	00194503          	lbu	a0,1(s2)
20006808:	00100693          	li	a3,1
2000680c:	03090593          	addi	a1,s2,48
20006810:	00f12c23          	sw	a5,24(sp)
20006814:	00c12a23          	sw	a2,20(sp)
20006818:	0ec010ef          	jal	ra,20007904 <disk_read>
2000681c:	01412603          	lw	a2,20(sp)
20006820:	01812783          	lw	a5,24(sp)
20006824:	00200893          	li	a7,2
20006828:	04051a63          	bnez	a0,2000687c <f_lseek+0x4f4>
2000682c:	02092583          	lw	a1,32(s2)
20006830:	02c92623          	sw	a2,44(s2)
20006834:	00060693          	mv	a3,a2
20006838:	e6dff06f          	j	200066a4 <f_lseek+0x31c>
2000683c:	00194503          	lbu	a0,1(s2)
20006840:	00100693          	li	a3,1
20006844:	03090593          	addi	a1,s2,48
20006848:	00f12e23          	sw	a5,28(sp)
2000684c:	00612c23          	sw	t1,24(sp)
20006850:	00c12a23          	sw	a2,20(sp)
20006854:	0b0010ef          	jal	ra,20007904 <disk_read>
20006858:	01412603          	lw	a2,20(sp)
2000685c:	01812303          	lw	t1,24(sp)
20006860:	01c12783          	lw	a5,28(sp)
20006864:	00200893          	li	a7,2
20006868:	00051a63          	bnez	a0,2000687c <f_lseek+0x4f4>
2000686c:	02c92623          	sw	a2,44(s2)
20006870:	e51ff06f          	j	200066c0 <f_lseek+0x338>
20006874:	0046d793          	srli	a5,a3,0x4
20006878:	e6dff06f          	j	200066e4 <f_lseek+0x35c>
2000687c:	fff00793          	li	a5,-1
20006880:	02f92623          	sw	a5,44(s2)
20006884:	d81ff06f          	j	20006604 <f_lseek+0x27c>
20006888:	00c12703          	lw	a4,12(sp)
2000688c:	002b0b13          	addi	s6,s6,2
20006890:	03676663          	bltu	a4,s6,200068bc <f_lseek+0x534>
20006894:	019a2023          	sw	s9,0(s4)
20006898:	01ba2223          	sw	s11,4(s4)
2000689c:	014c2703          	lw	a4,20(s8)
200068a0:	008a0a13          	addi	s4,s4,8
200068a4:	02e7f063          	bgeu	a5,a4,200068c4 <f_lseek+0x53c>
200068a8:	00042903          	lw	s2,0(s0)
200068ac:	00078d93          	mv	s11,a5
200068b0:	d99ff06f          	j	20006648 <f_lseek+0x2c0>
200068b4:	01100993          	li	s3,17
200068b8:	b31ff06f          	j	200063e8 <f_lseek+0x60>
200068bc:	014c2703          	lw	a4,20(s8)
200068c0:	fee7e4e3          	bltu	a5,a4,200068a8 <f_lseek+0x520>
200068c4:	02042483          	lw	s1,32(s0)
200068c8:	00c12783          	lw	a5,12(sp)
200068cc:	ec1ff06f          	j	2000678c <f_lseek+0x404>
200068d0:	014484b3          	add	s1,s1,s4
200068d4:	00942a23          	sw	s1,20(s0)
200068d8:	1ffa7b13          	andi	s6,s4,511
200068dc:	c80b0ce3          	beqz	s6,20006574 <f_lseek+0x1ec>
200068e0:	014c2783          	lw	a5,20(s8)
200068e4:	ffe58593          	addi	a1,a1,-2
200068e8:	ffe78793          	addi	a5,a5,-2
200068ec:	d6f5fee3          	bgeu	a1,a5,20006668 <f_lseek+0x2e0>
200068f0:	00ac5503          	lhu	a0,10(s8)
200068f4:	eb0fb0ef          	jal	ra,20001fa4 <__mulsi3>
200068f8:	028c2b03          	lw	s6,40(s8)
200068fc:	01650b33          	add	s6,a0,s6
20006900:	d60b04e3          	beqz	s6,20006668 <f_lseek+0x2e0>
20006904:	009a5a13          	srli	s4,s4,0x9
20006908:	016a0b33          	add	s6,s4,s6
2000690c:	c69ff06f          	j	20006574 <f_lseek+0x1ec>
20006910:	000a8493          	mv	s1,s5
20006914:	fc1ff06f          	j	200068d4 <f_lseek+0x54c>

20006918 <f_opendir>:
20006918:	fd010113          	addi	sp,sp,-48
2000691c:	02112623          	sw	ra,44(sp)
20006920:	02812423          	sw	s0,40(sp)
20006924:	00b12623          	sw	a1,12(sp)
20006928:	0a050e63          	beqz	a0,200069e4 <f_opendir+0xcc>
2000692c:	00050413          	mv	s0,a0
20006930:	01c10593          	addi	a1,sp,28
20006934:	00c10513          	addi	a0,sp,12
20006938:	8e0fe0ef          	jal	ra,20004a18 <_ZL12mount_volumePPKcPP5FATFSh.constprop.0>
2000693c:	00050c63          	beqz	a0,20006954 <f_opendir+0x3c>
20006940:	02c12083          	lw	ra,44(sp)
20006944:	00042023          	sw	zero,0(s0)
20006948:	02812403          	lw	s0,40(sp)
2000694c:	03010113          	addi	sp,sp,48
20006950:	00008067          	ret
20006954:	01c12783          	lw	a5,28(sp)
20006958:	00c12583          	lw	a1,12(sp)
2000695c:	00040513          	mv	a0,s0
20006960:	00f42023          	sw	a5,0(s0)
20006964:	9f1fe0ef          	jal	ra,20005354 <_ZL11follow_pathP3DIRPKc>
20006968:	06051663          	bnez	a0,200069d4 <f_opendir+0xbc>
2000696c:	02b40783          	lb	a5,43(s0)
20006970:	0a07c263          	bltz	a5,20006a14 <f_opendir+0xfc>
20006974:	00644783          	lbu	a5,6(s0)
20006978:	0107f793          	andi	a5,a5,16
2000697c:	06078063          	beqz	a5,200069dc <f_opendir+0xc4>
20006980:	01c42683          	lw	a3,28(s0)
20006984:	01c12703          	lw	a4,28(sp)
20006988:	00300613          	li	a2,3
2000698c:	01b6c783          	lbu	a5,27(a3)
20006990:	01a6c503          	lbu	a0,26(a3)
20006994:	00074583          	lbu	a1,0(a4)
20006998:	00879793          	slli	a5,a5,0x8
2000699c:	00a7e7b3          	or	a5,a5,a0
200069a0:	04c58c63          	beq	a1,a2,200069f8 <f_opendir+0xe0>
200069a4:	00f42423          	sw	a5,8(s0)
200069a8:	00675783          	lhu	a5,6(a4)
200069ac:	00040513          	mv	a0,s0
200069b0:	00f41223          	sh	a5,4(s0)
200069b4:	ed0fe0ef          	jal	ra,20005084 <_ZL7dir_sdiP3DIRm.constprop.0>
200069b8:	00400793          	li	a5,4
200069bc:	02f50063          	beq	a0,a5,200069dc <f_opendir+0xc4>
200069c0:	f80510e3          	bnez	a0,20006940 <f_opendir+0x28>
200069c4:	02c12083          	lw	ra,44(sp)
200069c8:	02812403          	lw	s0,40(sp)
200069cc:	03010113          	addi	sp,sp,48
200069d0:	00008067          	ret
200069d4:	00400793          	li	a5,4
200069d8:	f6f514e3          	bne	a0,a5,20006940 <f_opendir+0x28>
200069dc:	00500513          	li	a0,5
200069e0:	f61ff06f          	j	20006940 <f_opendir+0x28>
200069e4:	02c12083          	lw	ra,44(sp)
200069e8:	02812403          	lw	s0,40(sp)
200069ec:	00900513          	li	a0,9
200069f0:	03010113          	addi	sp,sp,48
200069f4:	00008067          	ret
200069f8:	0156c603          	lbu	a2,21(a3)
200069fc:	0146c583          	lbu	a1,20(a3)
20006a00:	00861693          	slli	a3,a2,0x8
20006a04:	00b6e6b3          	or	a3,a3,a1
20006a08:	01069693          	slli	a3,a3,0x10
20006a0c:	00d7e7b3          	or	a5,a5,a3
20006a10:	f95ff06f          	j	200069a4 <f_opendir+0x8c>
20006a14:	01c12703          	lw	a4,28(sp)
20006a18:	f91ff06f          	j	200069a8 <f_opendir+0x90>

20006a1c <f_closedir>:
20006a1c:	06050463          	beqz	a0,20006a84 <f_closedir+0x68>
20006a20:	00052783          	lw	a5,0(a0)
20006a24:	ff010113          	addi	sp,sp,-16
20006a28:	00812423          	sw	s0,8(sp)
20006a2c:	00112623          	sw	ra,12(sp)
20006a30:	00050413          	mv	s0,a0
20006a34:	00078c63          	beqz	a5,20006a4c <f_closedir+0x30>
20006a38:	0007c703          	lbu	a4,0(a5)
20006a3c:	00070863          	beqz	a4,20006a4c <f_closedir+0x30>
20006a40:	00455683          	lhu	a3,4(a0)
20006a44:	0067d703          	lhu	a4,6(a5)
20006a48:	00e68c63          	beq	a3,a4,20006a60 <f_closedir+0x44>
20006a4c:	00c12083          	lw	ra,12(sp)
20006a50:	00812403          	lw	s0,8(sp)
20006a54:	00900513          	li	a0,9
20006a58:	01010113          	addi	sp,sp,16
20006a5c:	00008067          	ret
20006a60:	0017c503          	lbu	a0,1(a5)
20006a64:	665000ef          	jal	ra,200078c8 <disk_status>
20006a68:	00157513          	andi	a0,a0,1
20006a6c:	fe0510e3          	bnez	a0,20006a4c <f_closedir+0x30>
20006a70:	00c12083          	lw	ra,12(sp)
20006a74:	00042023          	sw	zero,0(s0)
20006a78:	00812403          	lw	s0,8(sp)
20006a7c:	01010113          	addi	sp,sp,16
20006a80:	00008067          	ret
20006a84:	00900513          	li	a0,9
20006a88:	00008067          	ret

20006a8c <f_readdir>:
20006a8c:	7e050063          	beqz	a0,2000726c <f_readdir+0x7e0>
20006a90:	00052783          	lw	a5,0(a0)
20006a94:	fb010113          	addi	sp,sp,-80
20006a98:	04812423          	sw	s0,72(sp)
20006a9c:	04112623          	sw	ra,76(sp)
20006aa0:	04912223          	sw	s1,68(sp)
20006aa4:	05212023          	sw	s2,64(sp)
20006aa8:	03312e23          	sw	s3,60(sp)
20006aac:	03412c23          	sw	s4,56(sp)
20006ab0:	03512a23          	sw	s5,52(sp)
20006ab4:	03612823          	sw	s6,48(sp)
20006ab8:	03712623          	sw	s7,44(sp)
20006abc:	03812423          	sw	s8,40(sp)
20006ac0:	03912223          	sw	s9,36(sp)
20006ac4:	03a12023          	sw	s10,32(sp)
20006ac8:	01b12e23          	sw	s11,28(sp)
20006acc:	00050413          	mv	s0,a0
20006ad0:	00078c63          	beqz	a5,20006ae8 <f_readdir+0x5c>
20006ad4:	0007c703          	lbu	a4,0(a5)
20006ad8:	00070863          	beqz	a4,20006ae8 <f_readdir+0x5c>
20006adc:	00455683          	lhu	a3,4(a0)
20006ae0:	0067d703          	lhu	a4,6(a5)
20006ae4:	04e68263          	beq	a3,a4,20006b28 <f_readdir+0x9c>
20006ae8:	00900513          	li	a0,9
20006aec:	04c12083          	lw	ra,76(sp)
20006af0:	04812403          	lw	s0,72(sp)
20006af4:	04412483          	lw	s1,68(sp)
20006af8:	04012903          	lw	s2,64(sp)
20006afc:	03c12983          	lw	s3,60(sp)
20006b00:	03812a03          	lw	s4,56(sp)
20006b04:	03412a83          	lw	s5,52(sp)
20006b08:	03012b03          	lw	s6,48(sp)
20006b0c:	02c12b83          	lw	s7,44(sp)
20006b10:	02812c03          	lw	s8,40(sp)
20006b14:	02412c83          	lw	s9,36(sp)
20006b18:	02012d03          	lw	s10,32(sp)
20006b1c:	01c12d83          	lw	s11,28(sp)
20006b20:	05010113          	addi	sp,sp,80
20006b24:	00008067          	ret
20006b28:	0017c503          	lbu	a0,1(a5)
20006b2c:	00058913          	mv	s2,a1
20006b30:	599000ef          	jal	ra,200078c8 <disk_status>
20006b34:	00157793          	andi	a5,a0,1
20006b38:	00f12623          	sw	a5,12(sp)
20006b3c:	fa0796e3          	bnez	a5,20006ae8 <f_readdir+0x5c>
20006b40:	72090a63          	beqz	s2,20007274 <f_readdir+0x7e8>
20006b44:	01842c03          	lw	s8,24(s0)
20006b48:	00042d03          	lw	s10,0(s0)
20006b4c:	340c0ee3          	beqz	s8,200076a8 <f_readdir+0xc1c>
20006b50:	0ff00793          	li	a5,255
20006b54:	00010bb7          	lui	s7,0x10
20006b58:	00f12423          	sw	a5,8(sp)
20006b5c:	0ff00c93          	li	s9,255
20006b60:	030d0b13          	addi	s6,s10,48
20006b64:	0e500993          	li	s3,229
20006b68:	02e00a13          	li	s4,46
20006b6c:	00800a93          	li	s5,8
20006b70:	fffb8b93          	addi	s7,s7,-1 # ffff <_STACK_SIZE+0xfe0f>
20006b74:	02cd2783          	lw	a5,44(s10)
20006b78:	03878a63          	beq	a5,s8,20006bac <f_readdir+0x120>
20006b7c:	001d4503          	lbu	a0,1(s10)
20006b80:	00100693          	li	a3,1
20006b84:	000c0613          	mv	a2,s8
20006b88:	000b0593          	mv	a1,s6
20006b8c:	579000ef          	jal	ra,20007904 <disk_read>
20006b90:	00050c63          	beqz	a0,20006ba8 <f_readdir+0x11c>
20006b94:	fff00793          	li	a5,-1
20006b98:	02fd2623          	sw	a5,44(s10)
20006b9c:	00042c23          	sw	zero,24(s0)
20006ba0:	00100513          	li	a0,1
20006ba4:	f49ff06f          	j	20006aec <f_readdir+0x60>
20006ba8:	038d2623          	sw	s8,44(s10)
20006bac:	01c42683          	lw	a3,28(s0)
20006bb0:	0006c703          	lbu	a4,0(a3)
20006bb4:	70070e63          	beqz	a4,200072d0 <f_readdir+0x844>
20006bb8:	00b6c783          	lbu	a5,11(a3)
20006bbc:	03f7f793          	andi	a5,a5,63
20006bc0:	00f40323          	sb	a5,6(s0)
20006bc4:	01370863          	beq	a4,s3,20006bd4 <f_readdir+0x148>
20006bc8:	01470663          	beq	a4,s4,20006bd4 <f_readdir+0x148>
20006bcc:	fdf7f613          	andi	a2,a5,-33
20006bd0:	4f561063          	bne	a2,s5,200070b0 <f_readdir+0x624>
20006bd4:	01042483          	lw	s1,16(s0)
20006bd8:	0ff00c93          	li	s9,255
20006bdc:	02048493          	addi	s1,s1,32
20006be0:	00200737          	lui	a4,0x200
20006be4:	00042d83          	lw	s11,0(s0)
20006be8:	3ce4ea63          	bltu	s1,a4,20006fbc <f_readdir+0x530>
20006bec:	00042c23          	sw	zero,24(s0)
20006bf0:	00090b23          	sb	zero,22(s2)
20006bf4:	01842703          	lw	a4,24(s0)
20006bf8:	6a070e63          	beqz	a4,200072b4 <f_readdir+0x828>
20006bfc:	02c42683          	lw	a3,44(s0)
20006c00:	fff00713          	li	a4,-1
20006c04:	06e68e63          	beq	a3,a4,20006c80 <f_readdir+0x1f4>
20006c08:	00cda603          	lw	a2,12(s11)
20006c0c:	00200493          	li	s1,2
20006c10:	00000b93          	li	s7,0
20006c14:	00065703          	lhu	a4,0(a2)
20006c18:	00000b13          	li	s6,0
20006c1c:	04070863          	beqz	a4,20006c6c <f_readdir+0x1e0>
20006c20:	000039b7          	lui	s3,0x3
20006c24:	0ff00c13          	li	s8,255
20006c28:	00100a93          	li	s5,1
20006c2c:	80098993          	addi	s3,s3,-2048 # 2800 <_STACK_SIZE+0x2610>
20006c30:	7ff00a13          	li	s4,2047
20006c34:	000b1a63          	bnez	s6,20006c48 <f_readdir+0x1bc>
20006c38:	013706b3          	add	a3,a4,s3
20006c3c:	01069693          	slli	a3,a3,0x10
20006c40:	0106d693          	srli	a3,a3,0x10
20006c44:	62da7063          	bgeu	s4,a3,20007264 <f_readdir+0x7d8>
20006c48:	010b1513          	slli	a0,s6,0x10
20006c4c:	00e56533          	or	a0,a0,a4
20006c50:	1b500593          	li	a1,437
20006c54:	26d000ef          	jal	ra,200076c0 <ff_uni2oem>
20006c58:	417c0733          	sub	a4,s8,s7
20006c5c:	5eac7863          	bgeu	s8,a0,2000724c <f_readdir+0x7c0>
20006c60:	3aeae063          	bltu	s5,a4,20007000 <f_readdir+0x574>
20006c64:	00000713          	li	a4,0
20006c68:	000b0463          	beqz	s6,20006c70 <f_readdir+0x1e4>
20006c6c:	00000713          	li	a4,0
20006c70:	00e90733          	add	a4,s2,a4
20006c74:	00070b23          	sb	zero,22(a4) # 200016 <_STACK_SIZE+0x1ffe26>
20006c78:	01694783          	lbu	a5,22(s2)
20006c7c:	00f12623          	sw	a5,12(sp)
20006c80:	01c42703          	lw	a4,28(s0)
20006c84:	02000693          	li	a3,32
20006c88:	00074783          	lbu	a5,0(a4)
20006c8c:	01079613          	slli	a2,a5,0x10
20006c90:	01065613          	srli	a2,a2,0x10
20006c94:	74d78063          	beq	a5,a3,200073d4 <f_readdir+0x948>
20006c98:	00500713          	li	a4,5
20006c9c:	00e61463          	bne	a2,a4,20006ca4 <f_readdir+0x218>
20006ca0:	0e500793          	li	a5,229
20006ca4:	00f904a3          	sb	a5,9(s2)
20006ca8:	01c42703          	lw	a4,28(s0)
20006cac:	00100793          	li	a5,1
20006cb0:	00174683          	lbu	a3,1(a4)
20006cb4:	02000613          	li	a2,32
20006cb8:	01069593          	slli	a1,a3,0x10
20006cbc:	0105d593          	srli	a1,a1,0x10
20006cc0:	02c68063          	beq	a3,a2,20006ce0 <f_readdir+0x254>
20006cc4:	00500713          	li	a4,5
20006cc8:	00e59463          	bne	a1,a4,20006cd0 <f_readdir+0x244>
20006ccc:	0e500693          	li	a3,229
20006cd0:	00f90733          	add	a4,s2,a5
20006cd4:	00d704a3          	sb	a3,9(a4)
20006cd8:	01c42703          	lw	a4,28(s0)
20006cdc:	00178793          	addi	a5,a5,1
20006ce0:	00274683          	lbu	a3,2(a4)
20006ce4:	02000613          	li	a2,32
20006ce8:	01069593          	slli	a1,a3,0x10
20006cec:	0105d593          	srli	a1,a1,0x10
20006cf0:	02c68063          	beq	a3,a2,20006d10 <f_readdir+0x284>
20006cf4:	00500713          	li	a4,5
20006cf8:	00e59463          	bne	a1,a4,20006d00 <f_readdir+0x274>
20006cfc:	0e500693          	li	a3,229
20006d00:	00f90733          	add	a4,s2,a5
20006d04:	00d704a3          	sb	a3,9(a4)
20006d08:	01c42703          	lw	a4,28(s0)
20006d0c:	00178793          	addi	a5,a5,1
20006d10:	00374683          	lbu	a3,3(a4)
20006d14:	02000613          	li	a2,32
20006d18:	01069593          	slli	a1,a3,0x10
20006d1c:	0105d593          	srli	a1,a1,0x10
20006d20:	02c68063          	beq	a3,a2,20006d40 <f_readdir+0x2b4>
20006d24:	00500713          	li	a4,5
20006d28:	00e59463          	bne	a1,a4,20006d30 <f_readdir+0x2a4>
20006d2c:	0e500693          	li	a3,229
20006d30:	00f90733          	add	a4,s2,a5
20006d34:	00d704a3          	sb	a3,9(a4)
20006d38:	01c42703          	lw	a4,28(s0)
20006d3c:	00178793          	addi	a5,a5,1
20006d40:	00474683          	lbu	a3,4(a4)
20006d44:	02000613          	li	a2,32
20006d48:	01069593          	slli	a1,a3,0x10
20006d4c:	0105d593          	srli	a1,a1,0x10
20006d50:	02c68063          	beq	a3,a2,20006d70 <f_readdir+0x2e4>
20006d54:	00500713          	li	a4,5
20006d58:	00e59463          	bne	a1,a4,20006d60 <f_readdir+0x2d4>
20006d5c:	0e500693          	li	a3,229
20006d60:	00f90733          	add	a4,s2,a5
20006d64:	00d704a3          	sb	a3,9(a4)
20006d68:	01c42703          	lw	a4,28(s0)
20006d6c:	00178793          	addi	a5,a5,1
20006d70:	00574683          	lbu	a3,5(a4)
20006d74:	02000613          	li	a2,32
20006d78:	01069593          	slli	a1,a3,0x10
20006d7c:	0105d593          	srli	a1,a1,0x10
20006d80:	02c68063          	beq	a3,a2,20006da0 <f_readdir+0x314>
20006d84:	00500713          	li	a4,5
20006d88:	00e59463          	bne	a1,a4,20006d90 <f_readdir+0x304>
20006d8c:	0e500693          	li	a3,229
20006d90:	00f90733          	add	a4,s2,a5
20006d94:	00d704a3          	sb	a3,9(a4)
20006d98:	01c42703          	lw	a4,28(s0)
20006d9c:	00178793          	addi	a5,a5,1
20006da0:	00674683          	lbu	a3,6(a4)
20006da4:	02000613          	li	a2,32
20006da8:	01069593          	slli	a1,a3,0x10
20006dac:	0105d593          	srli	a1,a1,0x10
20006db0:	02c68063          	beq	a3,a2,20006dd0 <f_readdir+0x344>
20006db4:	00500713          	li	a4,5
20006db8:	00e59463          	bne	a1,a4,20006dc0 <f_readdir+0x334>
20006dbc:	0e500693          	li	a3,229
20006dc0:	00f90733          	add	a4,s2,a5
20006dc4:	00d704a3          	sb	a3,9(a4)
20006dc8:	01c42703          	lw	a4,28(s0)
20006dcc:	00178793          	addi	a5,a5,1
20006dd0:	00774683          	lbu	a3,7(a4)
20006dd4:	02000613          	li	a2,32
20006dd8:	01069593          	slli	a1,a3,0x10
20006ddc:	0105d593          	srli	a1,a1,0x10
20006de0:	02c68063          	beq	a3,a2,20006e00 <f_readdir+0x374>
20006de4:	00500713          	li	a4,5
20006de8:	00e59463          	bne	a1,a4,20006df0 <f_readdir+0x364>
20006dec:	0e500693          	li	a3,229
20006df0:	00f90733          	add	a4,s2,a5
20006df4:	00d704a3          	sb	a3,9(a4)
20006df8:	01c42703          	lw	a4,28(s0)
20006dfc:	00178793          	addi	a5,a5,1
20006e00:	00874683          	lbu	a3,8(a4)
20006e04:	02000613          	li	a2,32
20006e08:	01069593          	slli	a1,a3,0x10
20006e0c:	0105d593          	srli	a1,a1,0x10
20006e10:	02c68863          	beq	a3,a2,20006e40 <f_readdir+0x3b4>
20006e14:	00500713          	li	a4,5
20006e18:	00e59463          	bne	a1,a4,20006e20 <f_readdir+0x394>
20006e1c:	0e500693          	li	a3,229
20006e20:	00178713          	addi	a4,a5,1
20006e24:	00f90633          	add	a2,s2,a5
20006e28:	02e00593          	li	a1,46
20006e2c:	00b604a3          	sb	a1,9(a2)
20006e30:	00e90733          	add	a4,s2,a4
20006e34:	00d704a3          	sb	a3,9(a4)
20006e38:	01c42703          	lw	a4,28(s0)
20006e3c:	00278793          	addi	a5,a5,2
20006e40:	00974683          	lbu	a3,9(a4)
20006e44:	02000613          	li	a2,32
20006e48:	01069593          	slli	a1,a3,0x10
20006e4c:	0105d593          	srli	a1,a1,0x10
20006e50:	02c68063          	beq	a3,a2,20006e70 <f_readdir+0x3e4>
20006e54:	00500713          	li	a4,5
20006e58:	00e59463          	bne	a1,a4,20006e60 <f_readdir+0x3d4>
20006e5c:	0e500693          	li	a3,229
20006e60:	00f90733          	add	a4,s2,a5
20006e64:	00d704a3          	sb	a3,9(a4)
20006e68:	01c42703          	lw	a4,28(s0)
20006e6c:	00178793          	addi	a5,a5,1
20006e70:	00a74703          	lbu	a4,10(a4)
20006e74:	02000693          	li	a3,32
20006e78:	01071613          	slli	a2,a4,0x10
20006e7c:	01065613          	srli	a2,a2,0x10
20006e80:	4cd70e63          	beq	a4,a3,2000735c <f_readdir+0x8d0>
20006e84:	00500693          	li	a3,5
20006e88:	00d61463          	bne	a2,a3,20006e90 <f_readdir+0x404>
20006e8c:	0e500713          	li	a4,229
20006e90:	00f907b3          	add	a5,s2,a5
20006e94:	00e784a3          	sb	a4,9(a5)
20006e98:	00078523          	sb	zero,10(a5)
20006e9c:	00c12783          	lw	a5,12(sp)
20006ea0:	44078463          	beqz	a5,200072e8 <f_readdir+0x85c>
20006ea4:	01c42783          	lw	a5,28(s0)
20006ea8:	00b7c783          	lbu	a5,11(a5)
20006eac:	002005b7          	lui	a1,0x200
20006eb0:	03f7f793          	andi	a5,a5,63
20006eb4:	00f90423          	sb	a5,8(s2)
20006eb8:	01c42783          	lw	a5,28(s0)
20006ebc:	00042483          	lw	s1,0(s0)
20006ec0:	01d7c603          	lbu	a2,29(a5)
20006ec4:	01c7c503          	lbu	a0,28(a5)
20006ec8:	01e7c683          	lbu	a3,30(a5)
20006ecc:	01f7c703          	lbu	a4,31(a5)
20006ed0:	00861613          	slli	a2,a2,0x8
20006ed4:	00a66633          	or	a2,a2,a0
20006ed8:	01069693          	slli	a3,a3,0x10
20006edc:	00c6e6b3          	or	a3,a3,a2
20006ee0:	01871713          	slli	a4,a4,0x18
20006ee4:	00d76733          	or	a4,a4,a3
20006ee8:	00e92023          	sw	a4,0(s2)
20006eec:	0177c703          	lbu	a4,23(a5)
20006ef0:	0167c683          	lbu	a3,22(a5)
20006ef4:	01042983          	lw	s3,16(s0)
20006ef8:	00871713          	slli	a4,a4,0x8
20006efc:	00d76733          	or	a4,a4,a3
20006f00:	00e91323          	sh	a4,6(s2)
20006f04:	0197c703          	lbu	a4,25(a5)
20006f08:	0187c683          	lbu	a3,24(a5)
20006f0c:	02098993          	addi	s3,s3,32
20006f10:	00871793          	slli	a5,a4,0x8
20006f14:	00d7e7b3          	or	a5,a5,a3
20006f18:	00f91223          	sh	a5,4(s2)
20006f1c:	3ab9f463          	bgeu	s3,a1,200072c4 <f_readdir+0x838>
20006f20:	01842783          	lw	a5,24(s0)
20006f24:	08078863          	beqz	a5,20006fb4 <f_readdir+0x528>
20006f28:	1ff9f913          	andi	s2,s3,511
20006f2c:	06091c63          	bnez	s2,20006fa4 <f_readdir+0x518>
20006f30:	01442583          	lw	a1,20(s0)
20006f34:	00178793          	addi	a5,a5,1
20006f38:	00f42c23          	sw	a5,24(s0)
20006f3c:	38058e63          	beqz	a1,200072d8 <f_readdir+0x84c>
20006f40:	00a4d783          	lhu	a5,10(s1)
20006f44:	0099da13          	srli	s4,s3,0x9
20006f48:	fff78793          	addi	a5,a5,-1
20006f4c:	0147fa33          	and	s4,a5,s4
20006f50:	040a1a63          	bnez	s4,20006fa4 <f_readdir+0x518>
20006f54:	00048513          	mv	a0,s1
20006f58:	f25fd0ef          	jal	ra,20004e7c <_ZL7get_fatP7FFOBJIDm.isra.0>
20006f5c:	00100713          	li	a4,1
20006f60:	00050793          	mv	a5,a0
20006f64:	74a77a63          	bgeu	a4,a0,200076b8 <f_readdir+0xc2c>
20006f68:	fff00713          	li	a4,-1
20006f6c:	00100513          	li	a0,1
20006f70:	b6e78ee3          	beq	a5,a4,20006aec <f_readdir+0x60>
20006f74:	0144a703          	lw	a4,20(s1)
20006f78:	34e7f663          	bgeu	a5,a4,200072c4 <f_readdir+0x838>
20006f7c:	00f42a23          	sw	a5,20(s0)
20006f80:	0144a703          	lw	a4,20(s1)
20006f84:	ffe78593          	addi	a1,a5,-2
20006f88:	ffe70793          	addi	a5,a4,-2
20006f8c:	00f5fa63          	bgeu	a1,a5,20006fa0 <f_readdir+0x514>
20006f90:	00a4d503          	lhu	a0,10(s1)
20006f94:	810fb0ef          	jal	ra,20001fa4 <__mulsi3>
20006f98:	0284aa03          	lw	s4,40(s1)
20006f9c:	01450a33          	add	s4,a0,s4
20006fa0:	01442c23          	sw	s4,24(s0)
20006fa4:	03048493          	addi	s1,s1,48
20006fa8:	012484b3          	add	s1,s1,s2
20006fac:	01342823          	sw	s3,16(s0)
20006fb0:	00942e23          	sw	s1,28(s0)
20006fb4:	00000513          	li	a0,0
20006fb8:	b35ff06f          	j	20006aec <f_readdir+0x60>
20006fbc:	01842c03          	lw	s8,24(s0)
20006fc0:	c20c06e3          	beqz	s8,20006bec <f_readdir+0x160>
20006fc4:	1ff4f713          	andi	a4,s1,511
20006fc8:	06071a63          	bnez	a4,2000703c <f_readdir+0x5b0>
20006fcc:	01442583          	lw	a1,20(s0)
20006fd0:	001c0c13          	addi	s8,s8,1
20006fd4:	01842c23          	sw	s8,24(s0)
20006fd8:	06059c63          	bnez	a1,20007050 <f_readdir+0x5c4>
20006fdc:	008dd703          	lhu	a4,8(s11)
20006fe0:	0054d693          	srli	a3,s1,0x5
20006fe4:	c0e6f4e3          	bgeu	a3,a4,20006bec <f_readdir+0x160>
20006fe8:	030d8793          	addi	a5,s11,48
20006fec:	00942823          	sw	s1,16(s0)
20006ff0:	00f42e23          	sw	a5,28(s0)
20006ff4:	b80c10e3          	bnez	s8,20006b74 <f_readdir+0xe8>
20006ff8:	00042d83          	lw	s11,0(s0)
20006ffc:	bf5ff06f          	j	20006bf0 <f_readdir+0x164>
20007000:	01790733          	add	a4,s2,s7
20007004:	00855693          	srli	a3,a0,0x8
20007008:	00d70b23          	sb	a3,22(a4)
2000700c:	00a70ba3          	sb	a0,23(a4)
20007010:	00200713          	li	a4,2
20007014:	00cda603          	lw	a2,12(s11)
20007018:	00eb8bb3          	add	s7,s7,a4
2000701c:	00000b13          	li	s6,0
20007020:	00960733          	add	a4,a2,s1
20007024:	00075703          	lhu	a4,0(a4)
20007028:	00248493          	addi	s1,s1,2
2000702c:	c00714e3          	bnez	a4,20006c34 <f_readdir+0x1a8>
20007030:	000b8713          	mv	a4,s7
20007034:	c20b1ce3          	bnez	s6,20006c6c <f_readdir+0x1e0>
20007038:	c39ff06f          	j	20006c70 <f_readdir+0x1e4>
2000703c:	030d8793          	addi	a5,s11,48
20007040:	00e78733          	add	a4,a5,a4
20007044:	00942823          	sw	s1,16(s0)
20007048:	00e42e23          	sw	a4,28(s0)
2000704c:	b29ff06f          	j	20006b74 <f_readdir+0xe8>
20007050:	00add683          	lhu	a3,10(s11)
20007054:	0094d713          	srli	a4,s1,0x9
20007058:	fff68693          	addi	a3,a3,-1
2000705c:	00e6f733          	and	a4,a3,a4
20007060:	f80714e3          	bnez	a4,20006fe8 <f_readdir+0x55c>
20007064:	000d8513          	mv	a0,s11
20007068:	e15fd0ef          	jal	ra,20004e7c <_ZL7get_fatP7FFOBJIDm.isra.0>
2000706c:	00100713          	li	a4,1
20007070:	34a77663          	bgeu	a4,a0,200073bc <f_readdir+0x930>
20007074:	fff00713          	li	a4,-1
20007078:	32e50c63          	beq	a0,a4,200073b0 <f_readdir+0x924>
2000707c:	014da703          	lw	a4,20(s11)
20007080:	34e57463          	bgeu	a0,a4,200073c8 <f_readdir+0x93c>
20007084:	00a42a23          	sw	a0,20(s0)
20007088:	014da703          	lw	a4,20(s11)
2000708c:	ffe50593          	addi	a1,a0,-2
20007090:	ffe70713          	addi	a4,a4,-2
20007094:	30e5f263          	bgeu	a1,a4,20007398 <f_readdir+0x90c>
20007098:	00add503          	lhu	a0,10(s11)
2000709c:	f09fa0ef          	jal	ra,20001fa4 <__mulsi3>
200070a0:	028da603          	lw	a2,40(s11)
200070a4:	00c50c33          	add	s8,a0,a2
200070a8:	01842c23          	sw	s8,24(s0)
200070ac:	f3dff06f          	j	20006fe8 <f_readdir+0x55c>
200070b0:	00f00613          	li	a2,15
200070b4:	32c79463          	bne	a5,a2,200073dc <f_readdir+0x950>
200070b8:	04077793          	andi	a5,a4,64
200070bc:	01042483          	lw	s1,16(s0)
200070c0:	18078063          	beqz	a5,20007240 <f_readdir+0x7b4>
200070c4:	00d6c783          	lbu	a5,13(a3)
200070c8:	0bf77c93          	andi	s9,a4,191
200070cc:	02942623          	sw	s1,44(s0)
200070d0:	00f12423          	sw	a5,8(sp)
200070d4:	00d6c783          	lbu	a5,13(a3)
200070d8:	00812703          	lw	a4,8(sp)
200070dc:	00e78663          	beq	a5,a4,200070e8 <f_readdir+0x65c>
200070e0:	0ff00c93          	li	s9,255
200070e4:	af9ff06f          	j	20006bdc <f_readdir+0x150>
200070e8:	01b6c783          	lbu	a5,27(a3)
200070ec:	01a6c703          	lbu	a4,26(a3)
200070f0:	00879793          	slli	a5,a5,0x8
200070f4:	00e7e7b3          	or	a5,a5,a4
200070f8:	fe0794e3          	bnez	a5,200070e0 <f_readdir+0x654>
200070fc:	0006c783          	lbu	a5,0(a3)
20007100:	0026c603          	lbu	a2,2(a3)
20007104:	0016c583          	lbu	a1,1(a3)
20007108:	fbf7f793          	andi	a5,a5,-65
2000710c:	fff78793          	addi	a5,a5,-1
20007110:	00179713          	slli	a4,a5,0x1
20007114:	00f70733          	add	a4,a4,a5
20007118:	00271713          	slli	a4,a4,0x2
2000711c:	00861613          	slli	a2,a2,0x8
20007120:	00f707b3          	add	a5,a4,a5
20007124:	0ff00713          	li	a4,255
20007128:	00b66633          	or	a2,a2,a1
2000712c:	faf76ae3          	bltu	a4,a5,200070e0 <f_readdir+0x654>
20007130:	00cd2703          	lw	a4,12(s10)
20007134:	00179513          	slli	a0,a5,0x1
20007138:	00a70533          	add	a0,a4,a0
2000713c:	00c51023          	sh	a2,0(a0)
20007140:	0046c583          	lbu	a1,4(a3)
20007144:	0036c303          	lbu	t1,3(a3)
20007148:	00859593          	slli	a1,a1,0x8
2000714c:	0065e5b3          	or	a1,a1,t1
20007150:	3c061063          	bnez	a2,20007510 <f_readdir+0xa84>
20007154:	f97596e3          	bne	a1,s7,200070e0 <f_readdir+0x654>
20007158:	0066c603          	lbu	a2,6(a3)
2000715c:	0056c783          	lbu	a5,5(a3)
20007160:	00861613          	slli	a2,a2,0x8
20007164:	00f66633          	or	a2,a2,a5
20007168:	f7761ce3          	bne	a2,s7,200070e0 <f_readdir+0x654>
2000716c:	0086c583          	lbu	a1,8(a3)
20007170:	0076c783          	lbu	a5,7(a3)
20007174:	00859593          	slli	a1,a1,0x8
20007178:	00f5e5b3          	or	a1,a1,a5
2000717c:	f77592e3          	bne	a1,s7,200070e0 <f_readdir+0x654>
20007180:	00a6c603          	lbu	a2,10(a3)
20007184:	0096c783          	lbu	a5,9(a3)
20007188:	00861613          	slli	a2,a2,0x8
2000718c:	00f66633          	or	a2,a2,a5
20007190:	f57618e3          	bne	a2,s7,200070e0 <f_readdir+0x654>
20007194:	00f6c583          	lbu	a1,15(a3)
20007198:	00e6c783          	lbu	a5,14(a3)
2000719c:	00859593          	slli	a1,a1,0x8
200071a0:	00f5e5b3          	or	a1,a1,a5
200071a4:	f3759ee3          	bne	a1,s7,200070e0 <f_readdir+0x654>
200071a8:	0116c603          	lbu	a2,17(a3)
200071ac:	0106c783          	lbu	a5,16(a3)
200071b0:	00861613          	slli	a2,a2,0x8
200071b4:	00f66633          	or	a2,a2,a5
200071b8:	f37614e3          	bne	a2,s7,200070e0 <f_readdir+0x654>
200071bc:	0136c583          	lbu	a1,19(a3)
200071c0:	0126c783          	lbu	a5,18(a3)
200071c4:	00859593          	slli	a1,a1,0x8
200071c8:	00f5e5b3          	or	a1,a1,a5
200071cc:	f1759ae3          	bne	a1,s7,200070e0 <f_readdir+0x654>
200071d0:	0156c303          	lbu	t1,21(a3)
200071d4:	0146c783          	lbu	a5,20(a3)
200071d8:	00831313          	slli	t1,t1,0x8
200071dc:	00f36333          	or	t1,t1,a5
200071e0:	f17310e3          	bne	t1,s7,200070e0 <f_readdir+0x654>
200071e4:	0176c603          	lbu	a2,23(a3)
200071e8:	0166c783          	lbu	a5,22(a3)
200071ec:	00861613          	slli	a2,a2,0x8
200071f0:	00f66633          	or	a2,a2,a5
200071f4:	ef7616e3          	bne	a2,s7,200070e0 <f_readdir+0x654>
200071f8:	0196c583          	lbu	a1,25(a3)
200071fc:	0186c783          	lbu	a5,24(a3)
20007200:	00859593          	slli	a1,a1,0x8
20007204:	00f5e5b3          	or	a1,a1,a5
20007208:	ed759ce3          	bne	a1,s7,200070e0 <f_readdir+0x654>
2000720c:	01d6c603          	lbu	a2,29(a3)
20007210:	01c6c783          	lbu	a5,28(a3)
20007214:	00861613          	slli	a2,a2,0x8
20007218:	00f66633          	or	a2,a2,a5
2000721c:	ed7612e3          	bne	a2,s7,200070e0 <f_readdir+0x654>
20007220:	01f6c583          	lbu	a1,31(a3)
20007224:	01e6c783          	lbu	a5,30(a3)
20007228:	00859593          	slli	a1,a1,0x8
2000722c:	00f5e5b3          	or	a1,a1,a5
20007230:	eb7598e3          	bne	a1,s7,200070e0 <f_readdir+0x654>
20007234:	fffc8893          	addi	a7,s9,-1
20007238:	0ff8fc93          	andi	s9,a7,255
2000723c:	9a1ff06f          	j	20006bdc <f_readdir+0x150>
20007240:	e9970ae3          	beq	a4,s9,200070d4 <f_readdir+0x648>
20007244:	0ff00c93          	li	s9,255
20007248:	995ff06f          	j	20006bdc <f_readdir+0x150>
2000724c:	a0050ce3          	beqz	a0,20006c64 <f_readdir+0x1d8>
20007250:	a0070ce3          	beqz	a4,20006c68 <f_readdir+0x1dc>
20007254:	01790733          	add	a4,s2,s7
20007258:	00a70b23          	sb	a0,22(a4)
2000725c:	00100713          	li	a4,1
20007260:	db5ff06f          	j	20007014 <f_readdir+0x588>
20007264:	00070b13          	mv	s6,a4
20007268:	db9ff06f          	j	20007020 <f_readdir+0x594>
2000726c:	00900513          	li	a0,9
20007270:	00008067          	ret
20007274:	00040513          	mv	a0,s0
20007278:	04812403          	lw	s0,72(sp)
2000727c:	04c12083          	lw	ra,76(sp)
20007280:	04412483          	lw	s1,68(sp)
20007284:	04012903          	lw	s2,64(sp)
20007288:	03c12983          	lw	s3,60(sp)
2000728c:	03812a03          	lw	s4,56(sp)
20007290:	03412a83          	lw	s5,52(sp)
20007294:	03012b03          	lw	s6,48(sp)
20007298:	02c12b83          	lw	s7,44(sp)
2000729c:	02812c03          	lw	s8,40(sp)
200072a0:	02412c83          	lw	s9,36(sp)
200072a4:	02012d03          	lw	s10,32(sp)
200072a8:	01c12d83          	lw	s11,28(sp)
200072ac:	05010113          	addi	sp,sp,80
200072b0:	dd5fd06f          	j	20005084 <_ZL7dir_sdiP3DIRm.constprop.0>
200072b4:	01042783          	lw	a5,16(s0)
200072b8:	00200737          	lui	a4,0x200
200072bc:	02078793          	addi	a5,a5,32
200072c0:	cee7eae3          	bltu	a5,a4,20006fb4 <f_readdir+0x528>
200072c4:	00042c23          	sw	zero,24(s0)
200072c8:	00000513          	li	a0,0
200072cc:	821ff06f          	j	20006aec <f_readdir+0x60>
200072d0:	00042d83          	lw	s11,0(s0)
200072d4:	919ff06f          	j	20006bec <f_readdir+0x160>
200072d8:	0084d783          	lhu	a5,8(s1)
200072dc:	0059d713          	srli	a4,s3,0x5
200072e0:	ccf762e3          	bltu	a4,a5,20006fa4 <f_readdir+0x518>
200072e4:	fe1ff06f          	j	200072c4 <f_readdir+0x838>
200072e8:	00994783          	lbu	a5,9(s2)
200072ec:	3c078263          	beqz	a5,200076b0 <f_readdir+0xc24>
200072f0:	ff700613          	li	a2,-9
200072f4:	00a90693          	addi	a3,s2,10
200072f8:	00800513          	li	a0,8
200072fc:	02e00593          	li	a1,46
20007300:	01900813          	li	a6,25
20007304:	41260633          	sub	a2,a2,s2
20007308:	0340006f          	j	2000733c <f_readdir+0x8b0>
2000730c:	00e86e63          	bltu	a6,a4,20007328 <f_readdir+0x89c>
20007310:	01c42703          	lw	a4,28(s0)
20007314:	02078893          	addi	a7,a5,32
20007318:	00c74703          	lbu	a4,12(a4) # 20000c <_STACK_SIZE+0x1ffe1c>
2000731c:	00e57733          	and	a4,a0,a4
20007320:	00070463          	beqz	a4,20007328 <f_readdir+0x89c>
20007324:	0ff8f793          	andi	a5,a7,255
20007328:	00f68623          	sb	a5,12(a3)
2000732c:	0006c783          	lbu	a5,0(a3)
20007330:	00d60733          	add	a4,a2,a3
20007334:	00168693          	addi	a3,a3,1
20007338:	04078263          	beqz	a5,2000737c <f_readdir+0x8f0>
2000733c:	01079713          	slli	a4,a5,0x10
20007340:	01075713          	srli	a4,a4,0x10
20007344:	fbf70713          	addi	a4,a4,-65
20007348:	01071713          	slli	a4,a4,0x10
2000734c:	01075713          	srli	a4,a4,0x10
20007350:	fab79ee3          	bne	a5,a1,2000730c <f_readdir+0x880>
20007354:	01000513          	li	a0,16
20007358:	fd1ff06f          	j	20007328 <f_readdir+0x89c>
2000735c:	00f90733          	add	a4,s2,a5
20007360:	000704a3          	sb	zero,9(a4)
20007364:	00c12703          	lw	a4,12(sp)
20007368:	b2071ee3          	bnez	a4,20006ea4 <f_readdir+0x418>
2000736c:	f6079ee3          	bnez	a5,200072e8 <f_readdir+0x85c>
20007370:	03f00793          	li	a5,63
20007374:	00f90b23          	sb	a5,22(s2)
20007378:	00100713          	li	a4,1
2000737c:	00e90733          	add	a4,s2,a4
20007380:	00070b23          	sb	zero,22(a4)
20007384:	01c42783          	lw	a5,28(s0)
20007388:	00c7c703          	lbu	a4,12(a5)
2000738c:	b0071ee3          	bnez	a4,20006ea8 <f_readdir+0x41c>
20007390:	000904a3          	sb	zero,9(s2)
20007394:	b11ff06f          	j	20006ea4 <f_readdir+0x418>
20007398:	030d8793          	addi	a5,s11,48
2000739c:	00042c23          	sw	zero,24(s0)
200073a0:	00042d83          	lw	s11,0(s0)
200073a4:	00942823          	sw	s1,16(s0)
200073a8:	00f42e23          	sw	a5,28(s0)
200073ac:	845ff06f          	j	20006bf0 <f_readdir+0x164>
200073b0:	00100513          	li	a0,1
200073b4:	00042c23          	sw	zero,24(s0)
200073b8:	f34ff06f          	j	20006aec <f_readdir+0x60>
200073bc:	00200513          	li	a0,2
200073c0:	00042c23          	sw	zero,24(s0)
200073c4:	f28ff06f          	j	20006aec <f_readdir+0x60>
200073c8:	00042d83          	lw	s11,0(s0)
200073cc:	00042c23          	sw	zero,24(s0)
200073d0:	821ff06f          	j	20006bf0 <f_readdir+0x164>
200073d4:	00000793          	li	a5,0
200073d8:	8d9ff06f          	j	20006cb0 <f_readdir+0x224>
200073dc:	120c9263          	bnez	s9,20007500 <f_readdir+0xa74>
200073e0:	0006c703          	lbu	a4,0(a3)
200073e4:	0016c583          	lbu	a1,1(a3)
200073e8:	0026c603          	lbu	a2,2(a3)
200073ec:	0ff77793          	andi	a5,a4,255
200073f0:	0017d793          	srli	a5,a5,0x1
200073f4:	00771713          	slli	a4,a4,0x7
200073f8:	00e7e7b3          	or	a5,a5,a4
200073fc:	00b787b3          	add	a5,a5,a1
20007400:	0ff7f713          	andi	a4,a5,255
20007404:	00175713          	srli	a4,a4,0x1
20007408:	00779793          	slli	a5,a5,0x7
2000740c:	00f76733          	or	a4,a4,a5
20007410:	0ff77713          	andi	a4,a4,255
20007414:	00c70733          	add	a4,a4,a2
20007418:	0ff77793          	andi	a5,a4,255
2000741c:	0036c603          	lbu	a2,3(a3)
20007420:	00771713          	slli	a4,a4,0x7
20007424:	0017d793          	srli	a5,a5,0x1
20007428:	00e7e7b3          	or	a5,a5,a4
2000742c:	0ff7f793          	andi	a5,a5,255
20007430:	00c787b3          	add	a5,a5,a2
20007434:	0ff7f713          	andi	a4,a5,255
20007438:	0046c603          	lbu	a2,4(a3)
2000743c:	00779793          	slli	a5,a5,0x7
20007440:	00175713          	srli	a4,a4,0x1
20007444:	00f76733          	or	a4,a4,a5
20007448:	0ff77713          	andi	a4,a4,255
2000744c:	00c70733          	add	a4,a4,a2
20007450:	0ff77793          	andi	a5,a4,255
20007454:	0056c603          	lbu	a2,5(a3)
20007458:	00771713          	slli	a4,a4,0x7
2000745c:	0017d793          	srli	a5,a5,0x1
20007460:	00e7e7b3          	or	a5,a5,a4
20007464:	0ff7f793          	andi	a5,a5,255
20007468:	00c787b3          	add	a5,a5,a2
2000746c:	0ff7f713          	andi	a4,a5,255
20007470:	0066c603          	lbu	a2,6(a3)
20007474:	00779793          	slli	a5,a5,0x7
20007478:	00175713          	srli	a4,a4,0x1
2000747c:	00f76733          	or	a4,a4,a5
20007480:	0ff77713          	andi	a4,a4,255
20007484:	00c70733          	add	a4,a4,a2
20007488:	0ff77793          	andi	a5,a4,255
2000748c:	0076c603          	lbu	a2,7(a3)
20007490:	00771713          	slli	a4,a4,0x7
20007494:	0017d793          	srli	a5,a5,0x1
20007498:	00e7e7b3          	or	a5,a5,a4
2000749c:	0ff7f793          	andi	a5,a5,255
200074a0:	00c787b3          	add	a5,a5,a2
200074a4:	0ff7f713          	andi	a4,a5,255
200074a8:	0086c603          	lbu	a2,8(a3)
200074ac:	00779793          	slli	a5,a5,0x7
200074b0:	00175713          	srli	a4,a4,0x1
200074b4:	00f76733          	or	a4,a4,a5
200074b8:	0ff77713          	andi	a4,a4,255
200074bc:	00c70733          	add	a4,a4,a2
200074c0:	0ff77793          	andi	a5,a4,255
200074c4:	0096c603          	lbu	a2,9(a3)
200074c8:	00771713          	slli	a4,a4,0x7
200074cc:	0017d793          	srli	a5,a5,0x1
200074d0:	00e7e7b3          	or	a5,a5,a4
200074d4:	0ff7f793          	andi	a5,a5,255
200074d8:	00c787b3          	add	a5,a5,a2
200074dc:	0ff7f713          	andi	a4,a5,255
200074e0:	00a6c683          	lbu	a3,10(a3)
200074e4:	00175713          	srli	a4,a4,0x1
200074e8:	00779793          	slli	a5,a5,0x7
200074ec:	00f767b3          	or	a5,a4,a5
200074f0:	00812703          	lw	a4,8(sp)
200074f4:	00d787b3          	add	a5,a5,a3
200074f8:	0ff7f793          	andi	a5,a5,255
200074fc:	aee78ee3          	beq	a5,a4,20006ff8 <f_readdir+0x56c>
20007500:	fff00713          	li	a4,-1
20007504:	00042d83          	lw	s11,0(s0)
20007508:	02e42623          	sw	a4,44(s0)
2000750c:	ee4ff06f          	j	20006bf0 <f_readdir+0x164>
20007510:	00178613          	addi	a2,a5,1
20007514:	10000313          	li	t1,256
20007518:	bc6604e3          	beq	a2,t1,200070e0 <f_readdir+0x654>
2000751c:	00161613          	slli	a2,a2,0x1
20007520:	00c70733          	add	a4,a4,a2
20007524:	00b71023          	sh	a1,0(a4)
20007528:	0066c603          	lbu	a2,6(a3)
2000752c:	0056c303          	lbu	t1,5(a3)
20007530:	00861613          	slli	a2,a2,0x8
20007534:	00666633          	or	a2,a2,t1
20007538:	c20588e3          	beqz	a1,20007168 <f_readdir+0x6dc>
2000753c:	0fe00593          	li	a1,254
20007540:	bab780e3          	beq	a5,a1,200070e0 <f_readdir+0x654>
20007544:	00c71123          	sh	a2,2(a4)
20007548:	0086c583          	lbu	a1,8(a3)
2000754c:	0076c303          	lbu	t1,7(a3)
20007550:	00859593          	slli	a1,a1,0x8
20007554:	0065e5b3          	or	a1,a1,t1
20007558:	c20602e3          	beqz	a2,2000717c <f_readdir+0x6f0>
2000755c:	0fd00613          	li	a2,253
20007560:	b8c780e3          	beq	a5,a2,200070e0 <f_readdir+0x654>
20007564:	00b71223          	sh	a1,4(a4)
20007568:	00a6c603          	lbu	a2,10(a3)
2000756c:	0096c303          	lbu	t1,9(a3)
20007570:	00861613          	slli	a2,a2,0x8
20007574:	00666633          	or	a2,a2,t1
20007578:	c0058ce3          	beqz	a1,20007190 <f_readdir+0x704>
2000757c:	0fc00593          	li	a1,252
20007580:	b6b780e3          	beq	a5,a1,200070e0 <f_readdir+0x654>
20007584:	00c71323          	sh	a2,6(a4)
20007588:	00f6c583          	lbu	a1,15(a3)
2000758c:	00e6c303          	lbu	t1,14(a3)
20007590:	00859593          	slli	a1,a1,0x8
20007594:	0065e5b3          	or	a1,a1,t1
20007598:	c00606e3          	beqz	a2,200071a4 <f_readdir+0x718>
2000759c:	0fb00613          	li	a2,251
200075a0:	b4c780e3          	beq	a5,a2,200070e0 <f_readdir+0x654>
200075a4:	00b71423          	sh	a1,8(a4)
200075a8:	0116c603          	lbu	a2,17(a3)
200075ac:	0106c303          	lbu	t1,16(a3)
200075b0:	00861613          	slli	a2,a2,0x8
200075b4:	00666633          	or	a2,a2,t1
200075b8:	c00580e3          	beqz	a1,200071b8 <f_readdir+0x72c>
200075bc:	0fa00593          	li	a1,250
200075c0:	b2b780e3          	beq	a5,a1,200070e0 <f_readdir+0x654>
200075c4:	00c71523          	sh	a2,10(a4)
200075c8:	0136c583          	lbu	a1,19(a3)
200075cc:	0126c303          	lbu	t1,18(a3)
200075d0:	00859593          	slli	a1,a1,0x8
200075d4:	0065e5b3          	or	a1,a1,t1
200075d8:	be060ae3          	beqz	a2,200071cc <f_readdir+0x740>
200075dc:	0f900613          	li	a2,249
200075e0:	b0c780e3          	beq	a5,a2,200070e0 <f_readdir+0x654>
200075e4:	00b71623          	sh	a1,12(a4)
200075e8:	0156c303          	lbu	t1,21(a3)
200075ec:	0146c603          	lbu	a2,20(a3)
200075f0:	00831313          	slli	t1,t1,0x8
200075f4:	00c36333          	or	t1,t1,a2
200075f8:	be0584e3          	beqz	a1,200071e0 <f_readdir+0x754>
200075fc:	0f800613          	li	a2,248
20007600:	aec780e3          	beq	a5,a2,200070e0 <f_readdir+0x654>
20007604:	00671723          	sh	t1,14(a4)
20007608:	0176c603          	lbu	a2,23(a3)
2000760c:	0166c583          	lbu	a1,22(a3)
20007610:	00861613          	slli	a2,a2,0x8
20007614:	00b66633          	or	a2,a2,a1
20007618:	bc030ee3          	beqz	t1,200071f4 <f_readdir+0x768>
2000761c:	0f700593          	li	a1,247
20007620:	acb780e3          	beq	a5,a1,200070e0 <f_readdir+0x654>
20007624:	00c71823          	sh	a2,16(a4)
20007628:	0196c583          	lbu	a1,25(a3)
2000762c:	0186c303          	lbu	t1,24(a3)
20007630:	00859593          	slli	a1,a1,0x8
20007634:	0065e5b3          	or	a1,a1,t1
20007638:	bc0608e3          	beqz	a2,20007208 <f_readdir+0x77c>
2000763c:	0f600613          	li	a2,246
20007640:	aac780e3          	beq	a5,a2,200070e0 <f_readdir+0x654>
20007644:	00b71923          	sh	a1,18(a4)
20007648:	01d6c603          	lbu	a2,29(a3)
2000764c:	01c6c303          	lbu	t1,28(a3)
20007650:	00861613          	slli	a2,a2,0x8
20007654:	00666633          	or	a2,a2,t1
20007658:	bc0582e3          	beqz	a1,2000721c <f_readdir+0x790>
2000765c:	0f500593          	li	a1,245
20007660:	a8b780e3          	beq	a5,a1,200070e0 <f_readdir+0x654>
20007664:	00c71a23          	sh	a2,20(a4)
20007668:	01f6c583          	lbu	a1,31(a3)
2000766c:	01e6c303          	lbu	t1,30(a3)
20007670:	00859593          	slli	a1,a1,0x8
20007674:	0065e5b3          	or	a1,a1,t1
20007678:	ba060ce3          	beqz	a2,20007230 <f_readdir+0x7a4>
2000767c:	0f400613          	li	a2,244
20007680:	a6c780e3          	beq	a5,a2,200070e0 <f_readdir+0x654>
20007684:	00b71b23          	sh	a1,22(a4)
20007688:	0006c703          	lbu	a4,0(a3)
2000768c:	04077713          	andi	a4,a4,64
20007690:	ba0702e3          	beqz	a4,20007234 <f_readdir+0x7a8>
20007694:	ba0580e3          	beqz	a1,20007234 <f_readdir+0x7a8>
20007698:	0f300713          	li	a4,243
2000769c:	a4e782e3          	beq	a5,a4,200070e0 <f_readdir+0x654>
200076a0:	00051d23          	sh	zero,26(a0)
200076a4:	b91ff06f          	j	20007234 <f_readdir+0x7a8>
200076a8:	000d0d93          	mv	s11,s10
200076ac:	d40ff06f          	j	20006bec <f_readdir+0x160>
200076b0:	00000713          	li	a4,0
200076b4:	cc9ff06f          	j	2000737c <f_readdir+0x8f0>
200076b8:	00200513          	li	a0,2
200076bc:	c30ff06f          	j	20006aec <f_readdir+0x60>

200076c0 <ff_uni2oem>:
200076c0:	07f00713          	li	a4,127
200076c4:	00050793          	mv	a5,a0
200076c8:	00a76863          	bltu	a4,a0,200076d8 <ff_uni2oem+0x18>
200076cc:	01051513          	slli	a0,a0,0x10
200076d0:	01055513          	srli	a0,a0,0x10
200076d4:	00008067          	ret
200076d8:	00010737          	lui	a4,0x10
200076dc:	00000513          	li	a0,0
200076e0:	00e7f663          	bgeu	a5,a4,200076ec <ff_uni2oem+0x2c>
200076e4:	1b500713          	li	a4,437
200076e8:	00e58463          	beq	a1,a4,200076f0 <ff_uni2oem+0x30>
200076ec:	00008067          	ret
200076f0:	00002697          	auipc	a3,0x2
200076f4:	19468693          	addi	a3,a3,404 # 20009884 <_ZL5uc437>
200076f8:	00000713          	li	a4,0
200076fc:	08000513          	li	a0,128
20007700:	0100006f          	j	20007710 <ff_uni2oem+0x50>
20007704:	01059713          	slli	a4,a1,0x10
20007708:	01075713          	srli	a4,a4,0x10
2000770c:	02a70263          	beq	a4,a0,20007730 <ff_uni2oem+0x70>
20007710:	0006d603          	lhu	a2,0(a3)
20007714:	00170593          	addi	a1,a4,1 # 10001 <_STACK_SIZE+0xfe11>
20007718:	00268693          	addi	a3,a3,2
2000771c:	fef614e3          	bne	a2,a5,20007704 <ff_uni2oem+0x44>
20007720:	08070713          	addi	a4,a4,128
20007724:	01071513          	slli	a0,a4,0x10
20007728:	01055513          	srli	a0,a0,0x10
2000772c:	00008067          	ret
20007730:	00000513          	li	a0,0
20007734:	00008067          	ret

20007738 <ff_oem2uni>:
20007738:	07f00793          	li	a5,127
2000773c:	00a7f863          	bgeu	a5,a0,2000774c <ff_oem2uni+0x14>
20007740:	1b500793          	li	a5,437
20007744:	00f58663          	beq	a1,a5,20007750 <ff_oem2uni+0x18>
20007748:	00000513          	li	a0,0
2000774c:	00008067          	ret
20007750:	0ff00793          	li	a5,255
20007754:	fea7eae3          	bltu	a5,a0,20007748 <ff_oem2uni+0x10>
20007758:	00002797          	auipc	a5,0x2
2000775c:	02c78793          	addi	a5,a5,44 # 20009784 <__clz_tab+0x640>
20007760:	00151513          	slli	a0,a0,0x1
20007764:	00f50533          	add	a0,a0,a5
20007768:	00055503          	lhu	a0,0(a0)
2000776c:	00008067          	ret

20007770 <ff_wtoupper>:
20007770:	000107b7          	lui	a5,0x10
20007774:	04f57c63          	bgeu	a0,a5,200077cc <ff_wtoupper+0x5c>
20007778:	01051813          	slli	a6,a0,0x10
2000777c:	000017b7          	lui	a5,0x1
20007780:	01085813          	srli	a6,a6,0x10
20007784:	00002717          	auipc	a4,0x2
20007788:	20070713          	addi	a4,a4,512 # 20009984 <_ZZ11ff_wtoupperE4cvt1>
2000778c:	02f56a63          	bltu	a0,a5,200077c0 <ff_wtoupper+0x50>
20007790:	00002717          	auipc	a4,0x2
20007794:	3e870713          	addi	a4,a4,1000 # 20009b78 <_ZZ11ff_wtoupperE4cvt2>
20007798:	00075683          	lhu	a3,0(a4)
2000779c:	02068663          	beqz	a3,200077c8 <ff_wtoupper+0x58>
200077a0:	02d86463          	bltu	a6,a3,200077c8 <ff_wtoupper+0x58>
200077a4:	00275783          	lhu	a5,2(a4)
200077a8:	00470713          	addi	a4,a4,4
200077ac:	0ff7f613          	andi	a2,a5,255
200077b0:	00d605b3          	add	a1,a2,a3
200077b4:	0087d793          	srli	a5,a5,0x8
200077b8:	00b54c63          	blt	a0,a1,200077d0 <ff_wtoupper+0x60>
200077bc:	02078c63          	beqz	a5,200077f4 <ff_wtoupper+0x84>
200077c0:	00075683          	lhu	a3,0(a4)
200077c4:	fc069ee3          	bnez	a3,200077a0 <ff_wtoupper+0x30>
200077c8:	00080513          	mv	a0,a6
200077cc:	00008067          	ret
200077d0:	00800613          	li	a2,8
200077d4:	fef66ae3          	bltu	a2,a5,200077c8 <ff_wtoupper+0x58>
200077d8:	00002617          	auipc	a2,0x2
200077dc:	08860613          	addi	a2,a2,136 # 20009860 <_ZL6LfnOfs+0x10>
200077e0:	00279793          	slli	a5,a5,0x2
200077e4:	00c787b3          	add	a5,a5,a2
200077e8:	0007a783          	lw	a5,0(a5) # 1000 <_STACK_SIZE+0xe10>
200077ec:	00c787b3          	add	a5,a5,a2
200077f0:	00078067          	jr	a5
200077f4:	00161613          	slli	a2,a2,0x1
200077f8:	00c70733          	add	a4,a4,a2
200077fc:	fc5ff06f          	j	200077c0 <ff_wtoupper+0x50>
20007800:	fb080813          	addi	a6,a6,-80
20007804:	01081813          	slli	a6,a6,0x10
20007808:	01085813          	srli	a6,a6,0x10
2000780c:	00080513          	mv	a0,a6
20007810:	fbdff06f          	j	200077cc <ff_wtoupper+0x5c>
20007814:	00880813          	addi	a6,a6,8
20007818:	01081813          	slli	a6,a6,0x10
2000781c:	01085813          	srli	a6,a6,0x10
20007820:	00080513          	mv	a0,a6
20007824:	fa9ff06f          	j	200077cc <ff_wtoupper+0x5c>
20007828:	fe680813          	addi	a6,a6,-26
2000782c:	01081813          	slli	a6,a6,0x10
20007830:	01085813          	srli	a6,a6,0x10
20007834:	00080513          	mv	a0,a6
20007838:	f95ff06f          	j	200077cc <ff_wtoupper+0x5c>
2000783c:	fd080813          	addi	a6,a6,-48
20007840:	01081813          	slli	a6,a6,0x10
20007844:	01085813          	srli	a6,a6,0x10
20007848:	00080513          	mv	a0,a6
2000784c:	f81ff06f          	j	200077cc <ff_wtoupper+0x5c>
20007850:	fe080813          	addi	a6,a6,-32
20007854:	01081813          	slli	a6,a6,0x10
20007858:	01085813          	srli	a6,a6,0x10
2000785c:	00080513          	mv	a0,a6
20007860:	f6dff06f          	j	200077cc <ff_wtoupper+0x5c>
20007864:	ff080813          	addi	a6,a6,-16
20007868:	01081813          	slli	a6,a6,0x10
2000786c:	01085813          	srli	a6,a6,0x10
20007870:	00080513          	mv	a0,a6
20007874:	f59ff06f          	j	200077cc <ff_wtoupper+0x5c>
20007878:	40d807b3          	sub	a5,a6,a3
2000787c:	0017f793          	andi	a5,a5,1
20007880:	40f80833          	sub	a6,a6,a5
20007884:	01081813          	slli	a6,a6,0x10
20007888:	01085813          	srli	a6,a6,0x10
2000788c:	00080513          	mv	a0,a6
20007890:	f3dff06f          	j	200077cc <ff_wtoupper+0x5c>
20007894:	40d507b3          	sub	a5,a0,a3
20007898:	00179793          	slli	a5,a5,0x1
2000789c:	00f70733          	add	a4,a4,a5
200078a0:	00075803          	lhu	a6,0(a4)
200078a4:	00080513          	mv	a0,a6
200078a8:	f25ff06f          	j	200077cc <ff_wtoupper+0x5c>
200078ac:	ffffe7b7          	lui	a5,0xffffe
200078b0:	3a078793          	addi	a5,a5,928 # ffffe3a0 <__global_pointer$+0xdfff2b80>
200078b4:	00f80833          	add	a6,a6,a5
200078b8:	01081813          	slli	a6,a6,0x10
200078bc:	01085813          	srli	a6,a6,0x10
200078c0:	00080513          	mv	a0,a6
200078c4:	f09ff06f          	j	200077cc <ff_wtoupper+0x5c>

200078c8 <disk_status>:
200078c8:	fff50513          	addi	a0,a0,-1
200078cc:	00a03533          	snez	a0,a0
200078d0:	00008067          	ret

200078d4 <disk_initialize>:
200078d4:	00100793          	li	a5,1
200078d8:	00f50663          	beq	a0,a5,200078e4 <disk_initialize+0x10>
200078dc:	00100513          	li	a0,1
200078e0:	00008067          	ret
200078e4:	ff010113          	addi	sp,sp,-16
200078e8:	00112623          	sw	ra,12(sp)
200078ec:	d95fb0ef          	jal	ra,20003680 <_Z13SDCardStartupv>
200078f0:	00c12083          	lw	ra,12(sp)
200078f4:	00150513          	addi	a0,a0,1
200078f8:	00153513          	seqz	a0,a0
200078fc:	01010113          	addi	sp,sp,16
20007900:	00008067          	ret

20007904 <disk_read>:
20007904:	00100713          	li	a4,1
20007908:	00e50a63          	beq	a0,a4,2000791c <disk_read+0x18>
2000790c:	0fd57513          	andi	a0,a0,253
20007910:	00a03533          	snez	a0,a0
20007914:	00350513          	addi	a0,a0,3
20007918:	00008067          	ret
2000791c:	ff010113          	addi	sp,sp,-16
20007920:	00058513          	mv	a0,a1
20007924:	00068593          	mv	a1,a3
20007928:	00112623          	sw	ra,12(sp)
2000792c:	ca1fb0ef          	jal	ra,200035cc <_Z20SDReadMultipleBlocksPhmm>
20007930:	00c12083          	lw	ra,12(sp)
20007934:	00150513          	addi	a0,a0,1
20007938:	00153513          	seqz	a0,a0
2000793c:	01010113          	addi	sp,sp,16
20007940:	00008067          	ret

Disassembly of section .rodata:

20007944 <__clz_tab-0x1800>:
	...
2000794c:	0000                	unimp
2000794e:	00ff                	0xff
20007950:	0000                	unimp
20007952:	0000                	unimp
20007954:	ff00                	fsw	fs0,56(a4)
20007956:	ff00                	fsw	fs0,56(a4)
20007958:	0000                	unimp
2000795a:	0000                	unimp
2000795c:	0000                	unimp
2000795e:	00ff                	0xff
20007960:	00ff                	0xff
20007962:	0000                	unimp
20007964:	ff00                	fsw	fs0,56(a4)
20007966:	ffff                	0xffff
20007968:	0000                	unimp
2000796a:	0000                	unimp
2000796c:	ff00                	fsw	fs0,56(a4)
2000796e:	ffff                	0xffff
20007970:	00ff                	0xff
20007972:	0000                	unimp
20007974:	0000                	unimp
20007976:	00ff                	0xff
20007978:	0000                	unimp
2000797a:	0000                	unimp
2000797c:	0000                	unimp
2000797e:	00ff                	0xff
20007980:	0000                	unimp
20007982:	0000                	unimp
20007984:	0000                	unimp
20007986:	ff00                	fsw	fs0,56(a4)
20007988:	0000                	unimp
2000798a:	0000                	unimp
2000798c:	ff00                	fsw	fs0,56(a4)
	...
20007996:	00ff                	0xff
	...
200079c0:	00ff                	0xff
200079c2:	0000                	unimp
200079c4:	ff00                	fsw	fs0,56(a4)
200079c6:	ffff                	0xffff
200079c8:	0000                	unimp
200079ca:	0000                	unimp
200079cc:	0000                	unimp
200079ce:	00ff                	0xff
200079d0:	0000                	unimp
200079d2:	0000                	unimp
200079d4:	ff00                	fsw	fs0,56(a4)
200079d6:	ffff                	0xffff
200079d8:	0000                	unimp
200079da:	0000                	unimp
200079dc:	ffff                	0xffff
200079de:	ffff                	0xffff
200079e0:	00ff                	0xff
200079e2:	0000                	unimp
200079e4:	0000                	unimp
200079e6:	ff00                	fsw	fs0,56(a4)
200079e8:	0000                	unimp
200079ea:	0000                	unimp
200079ec:	ffff                	0xffff
200079ee:	ffff                	0xffff
200079f0:	00ff                	0xff
200079f2:	0000                	unimp
200079f4:	0000                	unimp
200079f6:	ffff                	0xffff
200079f8:	0000                	unimp
200079fa:	0000                	unimp
200079fc:	ffff                	0xffff
200079fe:	ffff                	0xffff
20007a00:	00ff                	0xff
20007a02:	0000                	unimp
20007a04:	ff00                	fsw	fs0,56(a4)
20007a06:	ffff                	0xffff
20007a08:	0000                	unimp
20007a0a:	0000                	unimp
20007a0c:	ff00                	fsw	fs0,56(a4)
20007a0e:	ffff                	0xffff
	...
20007a3c:	0000                	unimp
20007a3e:	ffff                	0xffff
	...
20007a4c:	0000                	unimp
20007a4e:	00ff                	0xff
20007a50:	0000                	unimp
20007a52:	0000                	unimp
20007a54:	ff00                	fsw	fs0,56(a4)
20007a56:	ff00                	fsw	fs0,56(a4)
20007a58:	0000                	unimp
20007a5a:	0000                	unimp
20007a5c:	ffff                	0xffff
20007a5e:	ffff                	0xffff
20007a60:	00ff                	0xff
20007a62:	0000                	unimp
20007a64:	00ff                	0xff
20007a66:	00ff                	0xff
20007a68:	00ff                	0xff
20007a6a:	0000                	unimp
20007a6c:	00ff                	0xff
20007a6e:	00ff                	0xff
20007a70:	00ff                	0xff
20007a72:	0000                	unimp
20007a74:	ff00                	fsw	fs0,56(a4)
20007a76:	ff00                	fsw	fs0,56(a4)
20007a78:	0000                	unimp
20007a7a:	0000                	unimp
20007a7c:	0000                	unimp
20007a7e:	00ff                	0xff
20007a80:	0000                	unimp
20007a82:	0000                	unimp
20007a84:	0000                	unimp
20007a86:	00ff                	0xff
20007a88:	0000                	unimp
20007a8a:	0000                	unimp
20007a8c:	0000                	unimp
20007a8e:	00ff                	0xff
20007a90:	0000                	unimp
20007a92:	0000                	unimp
20007a94:	00ff                	0xff
20007a96:	00ff                	0xff
20007a98:	00ff                	0xff
20007a9a:	0000                	unimp
20007a9c:	0000                	unimp
20007a9e:	00ff                	0xff
	...
20007ac0:	00ff                	0xff
20007ac2:	0000                	unimp
20007ac4:	00ff                	0xff
20007ac6:	0000                	unimp
20007ac8:	00ff                	0xff
20007aca:	0000                	unimp
20007acc:	ff00                	fsw	fs0,56(a4)
20007ace:	00ff                	0xff
20007ad0:	0000                	unimp
20007ad2:	0000                	unimp
20007ad4:	00ff                	0xff
20007ad6:	0000                	unimp
20007ad8:	00ff                	0xff
20007ada:	0000                	unimp
20007adc:	0000                	unimp
20007ade:	ff00                	fsw	fs0,56(a4)
20007ae0:	0000                	unimp
20007ae2:	0000                	unimp
20007ae4:	0000                	unimp
20007ae6:	ffff                	0xffff
20007ae8:	0000                	unimp
20007aea:	0000                	unimp
20007aec:	00ff                	0xff
20007aee:	0000                	unimp
20007af0:	0000                	unimp
20007af2:	0000                	unimp
20007af4:	ff00                	fsw	fs0,56(a4)
	...
20007afe:	0000                	unimp
20007b00:	00ff                	0xff
20007b02:	0000                	unimp
20007b04:	00ff                	0xff
20007b06:	0000                	unimp
20007b08:	00ff                	0xff
20007b0a:	0000                	unimp
20007b0c:	00ff                	0xff
20007b0e:	0000                	unimp
20007b10:	00ff                	0xff
	...
20007b26:	ff00                	fsw	fs0,56(a4)
	...
20007b34:	ff00                	fsw	fs0,56(a4)
20007b36:	0000                	unimp
20007b38:	0000                	unimp
20007b3a:	0000                	unimp
20007b3c:	ff00                	fsw	fs0,56(a4)
20007b3e:	0000                	unimp
20007b40:	00ff                	0xff
	...
20007b4e:	00ff                	0xff
	...
20007b5c:	ff00                	fsw	fs0,56(a4)
20007b5e:	ff00                	fsw	fs0,56(a4)
20007b60:	0000                	unimp
20007b62:	0000                	unimp
20007b64:	00ff                	0xff
20007b66:	00ff                	0xff
20007b68:	0000                	unimp
20007b6a:	0000                	unimp
20007b6c:	00ff                	0xff
20007b6e:	ffff                	0xffff
20007b70:	0000                	unimp
20007b72:	0000                	unimp
20007b74:	0000                	unimp
20007b76:	00ff                	0xff
	...
20007b84:	ff00                	fsw	fs0,56(a4)
	...
20007b8e:	ff00                	fsw	fs0,56(a4)
20007b90:	0000                	unimp
20007b92:	0000                	unimp
20007b94:	ff00                	fsw	fs0,56(a4)
20007b96:	ffff                	0xffff
20007b98:	0000                	unimp
20007b9a:	0000                	unimp
20007b9c:	0000                	unimp
20007b9e:	00ff                	0xff
	...
20007bbc:	0000                	unimp
20007bbe:	ff00                	fsw	fs0,56(a4)
20007bc0:	0000                	unimp
20007bc2:	0000                	unimp
20007bc4:	00ff                	0xff
20007bc6:	ff00                	fsw	fs0,56(a4)
20007bc8:	00ff                	0xff
20007bca:	0000                	unimp
20007bcc:	0000                	unimp
20007bce:	00ff                	0xff
	...
20007bd8:	00ff                	0xff
20007bda:	0000                	unimp
20007bdc:	0000                	unimp
20007bde:	00ff                	0xff
20007be0:	0000                	unimp
20007be2:	0000                	unimp
20007be4:	ff00                	fsw	fs0,56(a4)
20007be6:	ff00                	fsw	fs0,56(a4)
20007be8:	0000                	unimp
20007bea:	0000                	unimp
20007bec:	ffff                	0xffff
20007bee:	ffff                	0xffff
20007bf0:	0000                	unimp
20007bf2:	0000                	unimp
20007bf4:	00ff                	0xff
	...
20007bfe:	ff00                	fsw	fs0,56(a4)
20007c00:	0000                	unimp
20007c02:	0000                	unimp
20007c04:	00ff                	0xff
20007c06:	0000                	unimp
20007c08:	00ff                	0xff
20007c0a:	0000                	unimp
20007c0c:	00ff                	0xff
20007c0e:	0000                	unimp
20007c10:	00ff                	0xff
20007c12:	0000                	unimp
20007c14:	0000                	unimp
20007c16:	00ff                	0xff
20007c18:	0000                	unimp
20007c1a:	0000                	unimp
20007c1c:	0000                	unimp
20007c1e:	00ff                	0xff
20007c20:	0000                	unimp
20007c22:	0000                	unimp
20007c24:	0000                	unimp
20007c26:	00ff                	0xff
20007c28:	0000                	unimp
20007c2a:	0000                	unimp
20007c2c:	ffff                	0xffff
20007c2e:	ffff                	0xffff
20007c30:	00ff                	0xff
20007c32:	0000                	unimp
20007c34:	0000                	unimp
20007c36:	00ff                	0xff
	...
20007c40:	00ff                	0xff
	...
20007c4e:	00ff                	0xff
	...
20007c5c:	ffff                	0xffff
20007c5e:	ffff                	0xffff
20007c60:	00ff                	0xff
20007c62:	0000                	unimp
20007c64:	ff00                	fsw	fs0,56(a4)
20007c66:	ffff                	0xffff
20007c68:	0000                	unimp
20007c6a:	0000                	unimp
20007c6c:	ff00                	fsw	fs0,56(a4)
20007c6e:	ffff                	0xffff
20007c70:	00ff                	0xff
20007c72:	0000                	unimp
20007c74:	ff00                	fsw	fs0,56(a4)
20007c76:	ff00                	fsw	fs0,56(a4)
20007c78:	ff00                	fsw	fs0,56(a4)
	...
20007c82:	0000                	unimp
20007c84:	ff00                	fsw	fs0,56(a4)
	...
20007c8e:	ff00                	fsw	fs0,56(a4)
20007c90:	0000                	unimp
20007c92:	0000                	unimp
20007c94:	ff00                	fsw	fs0,56(a4)
20007c96:	ff00                	fsw	fs0,56(a4)
20007c98:	0000                	unimp
20007c9a:	0000                	unimp
20007c9c:	ffff                	0xffff
20007c9e:	ffff                	0xffff
20007ca0:	00ff                	0xff
	...
20007caa:	0000                	unimp
20007cac:	ff00                	fsw	fs0,56(a4)
20007cae:	ffff                	0xffff
20007cb0:	00ff                	0xff
	...
20007cbe:	ff00                	fsw	fs0,56(a4)
20007cc0:	0000                	unimp
20007cc2:	0000                	unimp
20007cc4:	00ff                	0xff
20007cc6:	00ff                	0xff
20007cc8:	00ff                	0xff
20007cca:	0000                	unimp
20007ccc:	0000                	unimp
20007cce:	00ff                	0xff
20007cd0:	0000                	unimp
20007cd2:	0000                	unimp
20007cd4:	0000                	unimp
20007cd6:	ff00                	fsw	fs0,56(a4)
20007cd8:	0000                	unimp
20007cda:	0000                	unimp
20007cdc:	ff00                	fsw	fs0,56(a4)
20007cde:	ffff                	0xffff
20007ce0:	0000                	unimp
20007ce2:	0000                	unimp
20007ce4:	00ff                	0xff
20007ce6:	ff00                	fsw	fs0,56(a4)
	...
20007cf0:	00ff                	0xff
20007cf2:	0000                	unimp
20007cf4:	ffff                	0xffff
20007cf6:	ffff                	0xffff
20007cf8:	0000                	unimp
20007cfa:	0000                	unimp
20007cfc:	0000                	unimp
20007cfe:	ff00                	fsw	fs0,56(a4)
20007d00:	0000                	unimp
20007d02:	0000                	unimp
20007d04:	ff00                	fsw	fs0,56(a4)
20007d06:	ffff                	0xffff
20007d08:	0000                	unimp
20007d0a:	0000                	unimp
20007d0c:	ff00                	fsw	fs0,56(a4)
20007d0e:	ffff                	0xffff
20007d10:	00ff                	0xff
	...
20007d22:	0000                	unimp
20007d24:	ff00                	fsw	fs0,56(a4)
	...
20007d36:	ff00                	fsw	fs0,56(a4)
20007d38:	0000                	unimp
20007d3a:	0000                	unimp
20007d3c:	0000                	unimp
20007d3e:	ff00                	fsw	fs0,56(a4)
	...
20007d4c:	0000                	unimp
20007d4e:	00ff                	0xff
	...
20007d5c:	00ff                	0xff
20007d5e:	00ff                	0xff
20007d60:	0000                	unimp
20007d62:	0000                	unimp
20007d64:	0000                	unimp
20007d66:	00ff                	0xff
20007d68:	00ff                	0xff
20007d6a:	0000                	unimp
20007d6c:	0000                	unimp
20007d6e:	ffff                	0xffff
20007d70:	ff00                	fsw	fs0,56(a4)
20007d72:	0000                	unimp
20007d74:	00ff                	0xff
20007d76:	0000                	unimp
20007d78:	00ff                	0xff
	...
20007d82:	0000                	unimp
20007d84:	ff00                	fsw	fs0,56(a4)
	...
20007d8e:	ff00                	fsw	fs0,56(a4)
20007d90:	0000                	unimp
20007d92:	0000                	unimp
20007d94:	00ff                	0xff
20007d96:	0000                	unimp
20007d98:	00ff                	0xff
20007d9a:	0000                	unimp
20007d9c:	0000                	unimp
20007d9e:	00ff                	0xff
	...
20007dbc:	0000                	unimp
20007dbe:	00ff                	0xff
20007dc0:	0000                	unimp
20007dc2:	0000                	unimp
20007dc4:	ffff                	0xffff
20007dc6:	0000                	unimp
20007dc8:	00ff                	0xff
20007dca:	0000                	unimp
20007dcc:	0000                	unimp
20007dce:	00ff                	0xff
20007dd0:	0000                	unimp
20007dd2:	0000                	unimp
20007dd4:	0000                	unimp
20007dd6:	00ff                	0xff
	...
20007de0:	00ff                	0xff
20007de2:	0000                	unimp
20007de4:	ffff                	0xffff
20007de6:	ffff                	0xffff
20007de8:	00ff                	0xff
20007dea:	0000                	unimp
20007dec:	0000                	unimp
20007dee:	0000                	unimp
20007df0:	00ff                	0xff
20007df2:	0000                	unimp
20007df4:	00ff                	0xff
20007df6:	0000                	unimp
20007df8:	00ff                	0xff
20007dfa:	0000                	unimp
20007dfc:	0000                	unimp
20007dfe:	00ff                	0xff
20007e00:	0000                	unimp
20007e02:	0000                	unimp
20007e04:	00ff                	0xff
20007e06:	0000                	unimp
20007e08:	00ff                	0xff
20007e0a:	0000                	unimp
20007e0c:	0000                	unimp
20007e0e:	0000                	unimp
20007e10:	00ff                	0xff
	...
20007e26:	00ff                	0xff
20007e28:	0000                	unimp
20007e2a:	0000                	unimp
20007e2c:	ffff                	0xffff
20007e2e:	ffff                	0xffff
20007e30:	00ff                	0xff
20007e32:	0000                	unimp
20007e34:	0000                	unimp
20007e36:	00ff                	0xff
20007e38:	0000                	unimp
20007e3a:	0000                	unimp
20007e3c:	0000                	unimp
20007e3e:	00ff                	0xff
	...
20007e64:	00ff                	0xff
20007e66:	00ff                	0xff
20007e68:	00ff                	0xff
20007e6a:	0000                	unimp
20007e6c:	ff00                	fsw	fs0,56(a4)
20007e6e:	ff00                	fsw	fs0,56(a4)
20007e70:	ff00                	fsw	fs0,56(a4)
20007e72:	0000                	unimp
20007e74:	00ff                	0xff
20007e76:	0000                	unimp
20007e78:	00ff                	0xff
	...
20007e82:	0000                	unimp
20007e84:	ff00                	fsw	fs0,56(a4)
	...
20007e8e:	ff00                	fsw	fs0,56(a4)
	...
20007e9c:	0000                	unimp
20007e9e:	00ff                	0xff
20007ea0:	0000                	unimp
20007ea2:	0000                	unimp
20007ea4:	0000                	unimp
20007ea6:	00ff                	0xff
	...
20007ebc:	0000                	unimp
20007ebe:	00ff                	0xff
20007ec0:	0000                	unimp
20007ec2:	0000                	unimp
20007ec4:	00ff                	0xff
20007ec6:	0000                	unimp
20007ec8:	00ff                	0xff
20007eca:	0000                	unimp
20007ecc:	0000                	unimp
20007ece:	00ff                	0xff
20007ed0:	0000                	unimp
20007ed2:	0000                	unimp
20007ed4:	ff00                	fsw	fs0,56(a4)
20007ed6:	0000                	unimp
20007ed8:	0000                	unimp
20007eda:	0000                	unimp
20007edc:	00ff                	0xff
20007ede:	0000                	unimp
20007ee0:	00ff                	0xff
20007ee2:	0000                	unimp
20007ee4:	0000                	unimp
20007ee6:	ff00                	fsw	fs0,56(a4)
20007ee8:	0000                	unimp
20007eea:	0000                	unimp
20007eec:	00ff                	0xff
20007eee:	0000                	unimp
20007ef0:	00ff                	0xff
20007ef2:	0000                	unimp
20007ef4:	00ff                	0xff
20007ef6:	0000                	unimp
20007ef8:	00ff                	0xff
20007efa:	0000                	unimp
20007efc:	0000                	unimp
20007efe:	00ff                	0xff
20007f00:	0000                	unimp
20007f02:	0000                	unimp
20007f04:	00ff                	0xff
20007f06:	0000                	unimp
20007f08:	00ff                	0xff
20007f0a:	0000                	unimp
20007f0c:	0000                	unimp
20007f0e:	ff00                	fsw	fs0,56(a4)
	...
20007f1c:	0000                	unimp
20007f1e:	00ff                	0xff
20007f20:	0000                	unimp
20007f22:	0000                	unimp
20007f24:	0000                	unimp
20007f26:	ff00                	fsw	fs0,56(a4)
	...
20007f34:	ff00                	fsw	fs0,56(a4)
	...
20007f4e:	00ff                	0xff
	...
20007f64:	ff00                	fsw	fs0,56(a4)
20007f66:	ffff                	0xffff
20007f68:	0000                	unimp
20007f6a:	0000                	unimp
20007f6c:	ff00                	fsw	fs0,56(a4)
20007f6e:	0000                	unimp
20007f70:	00ff                	0xff
20007f72:	0000                	unimp
20007f74:	ff00                	fsw	fs0,56(a4)
20007f76:	ffff                	0xffff
20007f78:	ff00                	fsw	fs0,56(a4)
	...
20007f86:	00ff                	0xff
20007f88:	0000                	unimp
20007f8a:	0000                	unimp
20007f8c:	0000                	unimp
20007f8e:	00ff                	0xff
	...
20007fa4:	0000                	unimp
20007fa6:	00ff                	0xff
	...
20007fb4:	0000                	unimp
20007fb6:	00ff                	0xff
20007fb8:	0000                	unimp
20007fba:	0000                	unimp
20007fbc:	ff00                	fsw	fs0,56(a4)
20007fbe:	0000                	unimp
20007fc0:	0000                	unimp
20007fc2:	0000                	unimp
20007fc4:	ff00                	fsw	fs0,56(a4)
20007fc6:	ffff                	0xffff
20007fc8:	0000                	unimp
20007fca:	0000                	unimp
20007fcc:	0000                	unimp
20007fce:	00ff                	0xff
20007fd0:	0000                	unimp
20007fd2:	0000                	unimp
20007fd4:	ffff                	0xffff
20007fd6:	ffff                	0xffff
20007fd8:	00ff                	0xff
20007fda:	0000                	unimp
20007fdc:	ff00                	fsw	fs0,56(a4)
20007fde:	ffff                	0xffff
20007fe0:	0000                	unimp
20007fe2:	0000                	unimp
20007fe4:	0000                	unimp
20007fe6:	ff00                	fsw	fs0,56(a4)
20007fe8:	0000                	unimp
20007fea:	0000                	unimp
20007fec:	ff00                	fsw	fs0,56(a4)
20007fee:	ffff                	0xffff
20007ff0:	0000                	unimp
20007ff2:	0000                	unimp
20007ff4:	ff00                	fsw	fs0,56(a4)
20007ff6:	ffff                	0xffff
20007ff8:	0000                	unimp
20007ffa:	0000                	unimp
20007ffc:	0000                	unimp
20007ffe:	00ff                	0xff
20008000:	0000                	unimp
20008002:	0000                	unimp
20008004:	ff00                	fsw	fs0,56(a4)
20008006:	ffff                	0xffff
20008008:	0000                	unimp
2000800a:	0000                	unimp
2000800c:	ff00                	fsw	fs0,56(a4)
2000800e:	00ff                	0xff
20008010:	0000                	unimp
20008012:	0000                	unimp
20008014:	0000                	unimp
20008016:	00ff                	0xff
20008018:	0000                	unimp
2000801a:	0000                	unimp
2000801c:	0000                	unimp
2000801e:	00ff                	0xff
	...
2000803c:	0000                	unimp
2000803e:	00ff                	0xff
	...
20008064:	0000                	unimp
20008066:	00ff                	0xff
	...
20008084:	0000                	unimp
20008086:	ff00                	fsw	fs0,56(a4)
20008088:	0000                	unimp
2000808a:	0000                	unimp
2000808c:	ff00                	fsw	fs0,56(a4)
	...
200080a2:	0000                	unimp
200080a4:	ff00                	fsw	fs0,56(a4)
	...
200080ba:	0000                	unimp
200080bc:	ff00                	fsw	fs0,56(a4)
	...
2000811a:	0000                	unimp
2000811c:	ff00                	fsw	fs0,56(a4)
	...
20008146:	ffff                	0xffff
20008148:	0000                	unimp
2000814a:	0000                	unimp
2000814c:	0000                	unimp
2000814e:	00ff                	0xff
20008150:	0000                	unimp
20008152:	0000                	unimp
20008154:	ffff                	0xffff
20008156:	ffff                	0xffff
20008158:	0000                	unimp
2000815a:	0000                	unimp
2000815c:	ff00                	fsw	fs0,56(a4)
2000815e:	ffff                	0xffff
20008160:	0000                	unimp
20008162:	0000                	unimp
20008164:	ffff                	0xffff
20008166:	00ff                	0xff
20008168:	0000                	unimp
2000816a:	0000                	unimp
2000816c:	ff00                	fsw	fs0,56(a4)
2000816e:	ffff                	0xffff
20008170:	00ff                	0xff
20008172:	0000                	unimp
20008174:	ff00                	fsw	fs0,56(a4)
20008176:	ffff                	0xffff
20008178:	00ff                	0xff
2000817a:	0000                	unimp
2000817c:	ff00                	fsw	fs0,56(a4)
2000817e:	ffff                	0xffff
20008180:	0000                	unimp
20008182:	0000                	unimp
20008184:	00ff                	0xff
20008186:	0000                	unimp
20008188:	00ff                	0xff
2000818a:	0000                	unimp
2000818c:	0000                	unimp
2000818e:	00ff                	0xff
	...
20008198:	00ff                	0xff
2000819a:	0000                	unimp
2000819c:	00ff                	0xff
2000819e:	0000                	unimp
200081a0:	00ff                	0xff
200081a2:	0000                	unimp
200081a4:	ff00                	fsw	fs0,56(a4)
200081a6:	0000                	unimp
200081a8:	0000                	unimp
200081aa:	0000                	unimp
200081ac:	00ff                	0xff
200081ae:	0000                	unimp
200081b0:	00ff                	0xff
200081b2:	0000                	unimp
200081b4:	ffff                	0xffff
200081b6:	0000                	unimp
200081b8:	00ff                	0xff
200081ba:	0000                	unimp
200081bc:	ff00                	fsw	fs0,56(a4)
200081be:	ffff                	0xffff
200081c0:	0000                	unimp
200081c2:	0000                	unimp
200081c4:	ffff                	0xffff
200081c6:	ffff                	0xffff
200081c8:	0000                	unimp
200081ca:	0000                	unimp
200081cc:	ff00                	fsw	fs0,56(a4)
200081ce:	ffff                	0xffff
200081d0:	0000                	unimp
200081d2:	0000                	unimp
200081d4:	ffff                	0xffff
200081d6:	ffff                	0xffff
200081d8:	0000                	unimp
200081da:	0000                	unimp
200081dc:	ff00                	fsw	fs0,56(a4)
200081de:	ffff                	0xffff
200081e0:	0000                	unimp
200081e2:	0000                	unimp
200081e4:	ffff                	0xffff
200081e6:	ffff                	0xffff
200081e8:	00ff                	0xff
200081ea:	0000                	unimp
200081ec:	00ff                	0xff
200081ee:	0000                	unimp
200081f0:	00ff                	0xff
200081f2:	0000                	unimp
200081f4:	00ff                	0xff
200081f6:	0000                	unimp
200081f8:	00ff                	0xff
200081fa:	0000                	unimp
200081fc:	00ff                	0xff
200081fe:	0000                	unimp
20008200:	00ff                	0xff
20008202:	0000                	unimp
20008204:	00ff                	0xff
20008206:	0000                	unimp
20008208:	00ff                	0xff
2000820a:	0000                	unimp
2000820c:	00ff                	0xff
2000820e:	0000                	unimp
20008210:	00ff                	0xff
20008212:	0000                	unimp
20008214:	ff00                	fsw	fs0,56(a4)
20008216:	ffff                	0xffff
20008218:	00ff                	0xff
2000821a:	0000                	unimp
2000821c:	0000                	unimp
2000821e:	ffff                	0xffff
20008220:	0000                	unimp
20008222:	0000                	unimp
20008224:	ff00                	fsw	fs0,56(a4)
20008226:	0000                	unimp
20008228:	0000                	unimp
2000822a:	0000                	unimp
2000822c:	ff00                	fsw	fs0,56(a4)
2000822e:	00ff                	0xff
20008230:	0000                	unimp
20008232:	0000                	unimp
20008234:	0000                	unimp
20008236:	00ff                	0xff
	...
20008244:	ff00                	fsw	fs0,56(a4)
20008246:	0000                	unimp
20008248:	00ff                	0xff
2000824a:	0000                	unimp
2000824c:	0000                	unimp
2000824e:	00ff                	0xff
20008250:	0000                	unimp
20008252:	0000                	unimp
20008254:	00ff                	0xff
20008256:	0000                	unimp
20008258:	00ff                	0xff
2000825a:	0000                	unimp
2000825c:	00ff                	0xff
2000825e:	0000                	unimp
20008260:	00ff                	0xff
20008262:	0000                	unimp
20008264:	00ff                	0xff
20008266:	ff00                	fsw	fs0,56(a4)
20008268:	0000                	unimp
2000826a:	0000                	unimp
2000826c:	ff00                	fsw	fs0,56(a4)
2000826e:	0000                	unimp
20008270:	0000                	unimp
20008272:	0000                	unimp
20008274:	ff00                	fsw	fs0,56(a4)
20008276:	0000                	unimp
20008278:	0000                	unimp
2000827a:	0000                	unimp
2000827c:	00ff                	0xff
2000827e:	0000                	unimp
20008280:	00ff                	0xff
20008282:	0000                	unimp
20008284:	00ff                	0xff
20008286:	0000                	unimp
20008288:	00ff                	0xff
2000828a:	0000                	unimp
2000828c:	0000                	unimp
2000828e:	00ff                	0xff
	...
20008298:	00ff                	0xff
2000829a:	0000                	unimp
2000829c:	00ff                	0xff
2000829e:	ff00                	fsw	fs0,56(a4)
200082a0:	0000                	unimp
200082a2:	0000                	unimp
200082a4:	ff00                	fsw	fs0,56(a4)
200082a6:	0000                	unimp
200082a8:	0000                	unimp
200082aa:	0000                	unimp
200082ac:	ffff                	0xffff
200082ae:	ff00                	fsw	fs0,56(a4)
200082b0:	00ff                	0xff
200082b2:	0000                	unimp
200082b4:	ffff                	0xffff
200082b6:	0000                	unimp
200082b8:	00ff                	0xff
200082ba:	0000                	unimp
200082bc:	00ff                	0xff
200082be:	0000                	unimp
200082c0:	00ff                	0xff
200082c2:	0000                	unimp
200082c4:	00ff                	0xff
200082c6:	0000                	unimp
200082c8:	00ff                	0xff
200082ca:	0000                	unimp
200082cc:	00ff                	0xff
200082ce:	0000                	unimp
200082d0:	00ff                	0xff
200082d2:	0000                	unimp
200082d4:	00ff                	0xff
200082d6:	0000                	unimp
200082d8:	00ff                	0xff
200082da:	0000                	unimp
200082dc:	00ff                	0xff
200082de:	0000                	unimp
200082e0:	00ff                	0xff
200082e2:	0000                	unimp
200082e4:	0000                	unimp
200082e6:	00ff                	0xff
200082e8:	0000                	unimp
200082ea:	0000                	unimp
200082ec:	00ff                	0xff
200082ee:	0000                	unimp
200082f0:	00ff                	0xff
200082f2:	0000                	unimp
200082f4:	00ff                	0xff
200082f6:	0000                	unimp
200082f8:	00ff                	0xff
200082fa:	0000                	unimp
200082fc:	00ff                	0xff
200082fe:	0000                	unimp
20008300:	00ff                	0xff
20008302:	0000                	unimp
20008304:	00ff                	0xff
20008306:	0000                	unimp
20008308:	00ff                	0xff
2000830a:	0000                	unimp
2000830c:	00ff                	0xff
2000830e:	0000                	unimp
20008310:	00ff                	0xff
20008312:	0000                	unimp
20008314:	0000                	unimp
20008316:	0000                	unimp
20008318:	00ff                	0xff
2000831a:	0000                	unimp
2000831c:	0000                	unimp
2000831e:	00ff                	0xff
20008320:	0000                	unimp
20008322:	0000                	unimp
20008324:	ff00                	fsw	fs0,56(a4)
	...
2000832e:	00ff                	0xff
20008330:	0000                	unimp
20008332:	0000                	unimp
20008334:	ff00                	fsw	fs0,56(a4)
20008336:	ff00                	fsw	fs0,56(a4)
	...
20008344:	00ff                	0xff
20008346:	ffff                	0xffff
20008348:	ff00                	fsw	fs0,56(a4)
2000834a:	0000                	unimp
2000834c:	ff00                	fsw	fs0,56(a4)
2000834e:	ff00                	fsw	fs0,56(a4)
20008350:	0000                	unimp
20008352:	0000                	unimp
20008354:	00ff                	0xff
20008356:	0000                	unimp
20008358:	00ff                	0xff
2000835a:	0000                	unimp
2000835c:	00ff                	0xff
2000835e:	0000                	unimp
20008360:	0000                	unimp
20008362:	0000                	unimp
20008364:	00ff                	0xff
20008366:	0000                	unimp
20008368:	00ff                	0xff
2000836a:	0000                	unimp
2000836c:	ff00                	fsw	fs0,56(a4)
2000836e:	0000                	unimp
20008370:	0000                	unimp
20008372:	0000                	unimp
20008374:	ff00                	fsw	fs0,56(a4)
20008376:	0000                	unimp
20008378:	0000                	unimp
2000837a:	0000                	unimp
2000837c:	00ff                	0xff
2000837e:	0000                	unimp
20008380:	0000                	unimp
20008382:	0000                	unimp
20008384:	00ff                	0xff
20008386:	0000                	unimp
20008388:	00ff                	0xff
2000838a:	0000                	unimp
2000838c:	0000                	unimp
2000838e:	00ff                	0xff
	...
20008398:	00ff                	0xff
2000839a:	0000                	unimp
2000839c:	00ff                	0xff
2000839e:	00ff                	0xff
200083a0:	0000                	unimp
200083a2:	0000                	unimp
200083a4:	ff00                	fsw	fs0,56(a4)
200083a6:	0000                	unimp
200083a8:	0000                	unimp
200083aa:	0000                	unimp
200083ac:	00ff                	0xff
200083ae:	00ff                	0xff
200083b0:	00ff                	0xff
200083b2:	0000                	unimp
200083b4:	00ff                	0xff
200083b6:	00ff                	0xff
200083b8:	00ff                	0xff
200083ba:	0000                	unimp
200083bc:	00ff                	0xff
200083be:	0000                	unimp
200083c0:	00ff                	0xff
200083c2:	0000                	unimp
200083c4:	00ff                	0xff
200083c6:	0000                	unimp
200083c8:	00ff                	0xff
200083ca:	0000                	unimp
200083cc:	00ff                	0xff
200083ce:	0000                	unimp
200083d0:	00ff                	0xff
200083d2:	0000                	unimp
200083d4:	00ff                	0xff
200083d6:	0000                	unimp
200083d8:	00ff                	0xff
200083da:	0000                	unimp
200083dc:	00ff                	0xff
	...
200083e6:	00ff                	0xff
200083e8:	0000                	unimp
200083ea:	0000                	unimp
200083ec:	00ff                	0xff
200083ee:	0000                	unimp
200083f0:	00ff                	0xff
200083f2:	0000                	unimp
200083f4:	00ff                	0xff
200083f6:	0000                	unimp
200083f8:	00ff                	0xff
200083fa:	0000                	unimp
200083fc:	00ff                	0xff
200083fe:	00ff                	0xff
20008400:	00ff                	0xff
20008402:	0000                	unimp
20008404:	ff00                	fsw	fs0,56(a4)
20008406:	ff00                	fsw	fs0,56(a4)
20008408:	0000                	unimp
2000840a:	0000                	unimp
2000840c:	ff00                	fsw	fs0,56(a4)
2000840e:	ff00                	fsw	fs0,56(a4)
20008410:	0000                	unimp
20008412:	0000                	unimp
20008414:	0000                	unimp
20008416:	ff00                	fsw	fs0,56(a4)
20008418:	0000                	unimp
2000841a:	0000                	unimp
2000841c:	0000                	unimp
2000841e:	00ff                	0xff
20008420:	0000                	unimp
20008422:	0000                	unimp
20008424:	0000                	unimp
20008426:	00ff                	0xff
20008428:	0000                	unimp
2000842a:	0000                	unimp
2000842c:	0000                	unimp
2000842e:	00ff                	0xff
	...
20008444:	ffff                	0xffff
20008446:	ff00                	fsw	fs0,56(a4)
20008448:	ff00                	fsw	fs0,56(a4)
2000844a:	0000                	unimp
2000844c:	ff00                	fsw	fs0,56(a4)
2000844e:	ff00                	fsw	fs0,56(a4)
20008450:	0000                	unimp
20008452:	0000                	unimp
20008454:	ffff                	0xffff
20008456:	ffff                	0xffff
20008458:	0000                	unimp
2000845a:	0000                	unimp
2000845c:	00ff                	0xff
2000845e:	0000                	unimp
20008460:	0000                	unimp
20008462:	0000                	unimp
20008464:	00ff                	0xff
20008466:	0000                	unimp
20008468:	00ff                	0xff
2000846a:	0000                	unimp
2000846c:	ff00                	fsw	fs0,56(a4)
2000846e:	ffff                	0xffff
20008470:	0000                	unimp
20008472:	0000                	unimp
20008474:	ff00                	fsw	fs0,56(a4)
20008476:	ffff                	0xffff
20008478:	0000                	unimp
2000847a:	0000                	unimp
2000847c:	00ff                	0xff
2000847e:	ff00                	fsw	fs0,56(a4)
20008480:	00ff                	0xff
20008482:	0000                	unimp
20008484:	ffff                	0xffff
20008486:	ffff                	0xffff
20008488:	00ff                	0xff
2000848a:	0000                	unimp
2000848c:	0000                	unimp
2000848e:	00ff                	0xff
	...
20008498:	00ff                	0xff
2000849a:	0000                	unimp
2000849c:	ffff                	0xffff
2000849e:	0000                	unimp
200084a0:	0000                	unimp
200084a2:	0000                	unimp
200084a4:	ff00                	fsw	fs0,56(a4)
200084a6:	0000                	unimp
200084a8:	0000                	unimp
200084aa:	0000                	unimp
200084ac:	00ff                	0xff
200084ae:	0000                	unimp
200084b0:	00ff                	0xff
200084b2:	0000                	unimp
200084b4:	00ff                	0xff
200084b6:	00ff                	0xff
200084b8:	00ff                	0xff
200084ba:	0000                	unimp
200084bc:	00ff                	0xff
200084be:	0000                	unimp
200084c0:	00ff                	0xff
200084c2:	0000                	unimp
200084c4:	ffff                	0xffff
200084c6:	ffff                	0xffff
200084c8:	0000                	unimp
200084ca:	0000                	unimp
200084cc:	00ff                	0xff
200084ce:	0000                	unimp
200084d0:	00ff                	0xff
200084d2:	0000                	unimp
200084d4:	ffff                	0xffff
200084d6:	ffff                	0xffff
200084d8:	0000                	unimp
200084da:	0000                	unimp
200084dc:	ff00                	fsw	fs0,56(a4)
200084de:	ffff                	0xffff
200084e0:	0000                	unimp
200084e2:	0000                	unimp
200084e4:	0000                	unimp
200084e6:	00ff                	0xff
200084e8:	0000                	unimp
200084ea:	0000                	unimp
200084ec:	00ff                	0xff
200084ee:	0000                	unimp
200084f0:	00ff                	0xff
200084f2:	0000                	unimp
200084f4:	ff00                	fsw	fs0,56(a4)
200084f6:	ff00                	fsw	fs0,56(a4)
200084f8:	0000                	unimp
200084fa:	0000                	unimp
200084fc:	00ff                	0xff
200084fe:	00ff                	0xff
20008500:	00ff                	0xff
20008502:	0000                	unimp
20008504:	0000                	unimp
20008506:	00ff                	0xff
20008508:	0000                	unimp
2000850a:	0000                	unimp
2000850c:	0000                	unimp
2000850e:	00ff                	0xff
20008510:	0000                	unimp
20008512:	0000                	unimp
20008514:	0000                	unimp
20008516:	00ff                	0xff
20008518:	0000                	unimp
2000851a:	0000                	unimp
2000851c:	0000                	unimp
2000851e:	00ff                	0xff
20008520:	0000                	unimp
20008522:	0000                	unimp
20008524:	0000                	unimp
20008526:	00ff                	0xff
20008528:	0000                	unimp
2000852a:	0000                	unimp
2000852c:	0000                	unimp
2000852e:	00ff                	0xff
	...
20008544:	ffff                	0xffff
20008546:	ff00                	fsw	fs0,56(a4)
20008548:	ff00                	fsw	fs0,56(a4)
2000854a:	0000                	unimp
2000854c:	ffff                	0xffff
2000854e:	ffff                	0xffff
20008550:	00ff                	0xff
20008552:	0000                	unimp
20008554:	00ff                	0xff
20008556:	0000                	unimp
20008558:	00ff                	0xff
2000855a:	0000                	unimp
2000855c:	00ff                	0xff
2000855e:	0000                	unimp
20008560:	0000                	unimp
20008562:	0000                	unimp
20008564:	00ff                	0xff
20008566:	0000                	unimp
20008568:	00ff                	0xff
2000856a:	0000                	unimp
2000856c:	ff00                	fsw	fs0,56(a4)
2000856e:	0000                	unimp
20008570:	0000                	unimp
20008572:	0000                	unimp
20008574:	ff00                	fsw	fs0,56(a4)
20008576:	0000                	unimp
20008578:	0000                	unimp
2000857a:	0000                	unimp
2000857c:	00ff                	0xff
2000857e:	0000                	unimp
20008580:	00ff                	0xff
20008582:	0000                	unimp
20008584:	00ff                	0xff
20008586:	0000                	unimp
20008588:	00ff                	0xff
2000858a:	0000                	unimp
2000858c:	0000                	unimp
2000858e:	00ff                	0xff
20008590:	0000                	unimp
20008592:	0000                	unimp
20008594:	00ff                	0xff
20008596:	0000                	unimp
20008598:	00ff                	0xff
2000859a:	0000                	unimp
2000859c:	00ff                	0xff
2000859e:	00ff                	0xff
200085a0:	0000                	unimp
200085a2:	0000                	unimp
200085a4:	ff00                	fsw	fs0,56(a4)
200085a6:	0000                	unimp
200085a8:	0000                	unimp
200085aa:	0000                	unimp
200085ac:	00ff                	0xff
200085ae:	0000                	unimp
200085b0:	00ff                	0xff
200085b2:	0000                	unimp
200085b4:	00ff                	0xff
200085b6:	ff00                	fsw	fs0,56(a4)
200085b8:	00ff                	0xff
200085ba:	0000                	unimp
200085bc:	00ff                	0xff
200085be:	0000                	unimp
200085c0:	00ff                	0xff
200085c2:	0000                	unimp
200085c4:	00ff                	0xff
200085c6:	0000                	unimp
200085c8:	0000                	unimp
200085ca:	0000                	unimp
200085cc:	00ff                	0xff
200085ce:	0000                	unimp
200085d0:	00ff                	0xff
200085d2:	0000                	unimp
200085d4:	00ff                	0xff
200085d6:	00ff                	0xff
	...
200085e0:	00ff                	0xff
200085e2:	0000                	unimp
200085e4:	0000                	unimp
200085e6:	00ff                	0xff
200085e8:	0000                	unimp
200085ea:	0000                	unimp
200085ec:	00ff                	0xff
200085ee:	0000                	unimp
200085f0:	00ff                	0xff
200085f2:	0000                	unimp
200085f4:	ff00                	fsw	fs0,56(a4)
200085f6:	ff00                	fsw	fs0,56(a4)
200085f8:	0000                	unimp
200085fa:	0000                	unimp
200085fc:	ff00                	fsw	fs0,56(a4)
200085fe:	ff00                	fsw	fs0,56(a4)
20008600:	0000                	unimp
20008602:	0000                	unimp
20008604:	ff00                	fsw	fs0,56(a4)
20008606:	ff00                	fsw	fs0,56(a4)
20008608:	0000                	unimp
2000860a:	0000                	unimp
2000860c:	0000                	unimp
2000860e:	00ff                	0xff
20008610:	0000                	unimp
20008612:	0000                	unimp
20008614:	ff00                	fsw	fs0,56(a4)
	...
2000861e:	00ff                	0xff
20008620:	0000                	unimp
20008622:	0000                	unimp
20008624:	0000                	unimp
20008626:	ff00                	fsw	fs0,56(a4)
20008628:	0000                	unimp
2000862a:	0000                	unimp
2000862c:	0000                	unimp
2000862e:	00ff                	0xff
	...
20008644:	00ff                	0xff
20008646:	ffff                	0xffff
20008648:	00ff                	0xff
2000864a:	0000                	unimp
2000864c:	00ff                	0xff
2000864e:	0000                	unimp
20008650:	00ff                	0xff
20008652:	0000                	unimp
20008654:	00ff                	0xff
20008656:	0000                	unimp
20008658:	00ff                	0xff
2000865a:	0000                	unimp
2000865c:	00ff                	0xff
2000865e:	0000                	unimp
20008660:	00ff                	0xff
20008662:	0000                	unimp
20008664:	00ff                	0xff
20008666:	ff00                	fsw	fs0,56(a4)
20008668:	0000                	unimp
2000866a:	0000                	unimp
2000866c:	ff00                	fsw	fs0,56(a4)
2000866e:	0000                	unimp
20008670:	0000                	unimp
20008672:	0000                	unimp
20008674:	ff00                	fsw	fs0,56(a4)
20008676:	0000                	unimp
20008678:	0000                	unimp
2000867a:	0000                	unimp
2000867c:	00ff                	0xff
2000867e:	0000                	unimp
20008680:	00ff                	0xff
20008682:	0000                	unimp
20008684:	00ff                	0xff
20008686:	0000                	unimp
20008688:	00ff                	0xff
2000868a:	0000                	unimp
2000868c:	0000                	unimp
2000868e:	00ff                	0xff
20008690:	0000                	unimp
20008692:	0000                	unimp
20008694:	00ff                	0xff
20008696:	0000                	unimp
20008698:	00ff                	0xff
2000869a:	0000                	unimp
2000869c:	00ff                	0xff
2000869e:	ff00                	fsw	fs0,56(a4)
200086a0:	0000                	unimp
200086a2:	0000                	unimp
200086a4:	ff00                	fsw	fs0,56(a4)
200086a6:	0000                	unimp
200086a8:	0000                	unimp
200086aa:	0000                	unimp
200086ac:	00ff                	0xff
200086ae:	0000                	unimp
200086b0:	00ff                	0xff
200086b2:	0000                	unimp
200086b4:	00ff                	0xff
200086b6:	ff00                	fsw	fs0,56(a4)
200086b8:	00ff                	0xff
200086ba:	0000                	unimp
200086bc:	00ff                	0xff
200086be:	0000                	unimp
200086c0:	00ff                	0xff
200086c2:	0000                	unimp
200086c4:	00ff                	0xff
200086c6:	0000                	unimp
200086c8:	0000                	unimp
200086ca:	0000                	unimp
200086cc:	00ff                	0xff
200086ce:	00ff                	0xff
200086d0:	00ff                	0xff
200086d2:	0000                	unimp
200086d4:	00ff                	0xff
200086d6:	ff00                	fsw	fs0,56(a4)
200086d8:	0000                	unimp
200086da:	0000                	unimp
200086dc:	00ff                	0xff
200086de:	0000                	unimp
200086e0:	00ff                	0xff
200086e2:	0000                	unimp
200086e4:	0000                	unimp
200086e6:	00ff                	0xff
200086e8:	0000                	unimp
200086ea:	0000                	unimp
200086ec:	00ff                	0xff
200086ee:	0000                	unimp
200086f0:	00ff                	0xff
200086f2:	0000                	unimp
200086f4:	0000                	unimp
200086f6:	00ff                	0xff
200086f8:	0000                	unimp
200086fa:	0000                	unimp
200086fc:	ff00                	fsw	fs0,56(a4)
200086fe:	ff00                	fsw	fs0,56(a4)
20008700:	0000                	unimp
20008702:	0000                	unimp
20008704:	00ff                	0xff
20008706:	0000                	unimp
20008708:	00ff                	0xff
2000870a:	0000                	unimp
2000870c:	0000                	unimp
2000870e:	00ff                	0xff
20008710:	0000                	unimp
20008712:	0000                	unimp
20008714:	ff00                	fsw	fs0,56(a4)
	...
2000871e:	00ff                	0xff
20008720:	0000                	unimp
20008722:	0000                	unimp
20008724:	0000                	unimp
20008726:	ff00                	fsw	fs0,56(a4)
20008728:	0000                	unimp
2000872a:	0000                	unimp
2000872c:	0000                	unimp
2000872e:	00ff                	0xff
	...
20008744:	ff00                	fsw	fs0,56(a4)
20008746:	0000                	unimp
20008748:	0000                	unimp
2000874a:	0000                	unimp
2000874c:	00ff                	0xff
2000874e:	0000                	unimp
20008750:	00ff                	0xff
20008752:	0000                	unimp
20008754:	ffff                	0xffff
20008756:	ffff                	0xffff
20008758:	0000                	unimp
2000875a:	0000                	unimp
2000875c:	ff00                	fsw	fs0,56(a4)
2000875e:	ffff                	0xffff
20008760:	0000                	unimp
20008762:	0000                	unimp
20008764:	ffff                	0xffff
20008766:	00ff                	0xff
20008768:	0000                	unimp
2000876a:	0000                	unimp
2000876c:	ff00                	fsw	fs0,56(a4)
2000876e:	ffff                	0xffff
20008770:	00ff                	0xff
20008772:	0000                	unimp
20008774:	ff00                	fsw	fs0,56(a4)
20008776:	0000                	unimp
20008778:	0000                	unimp
2000877a:	0000                	unimp
2000877c:	ff00                	fsw	fs0,56(a4)
2000877e:	ffff                	0xffff
20008780:	0000                	unimp
20008782:	0000                	unimp
20008784:	00ff                	0xff
20008786:	0000                	unimp
20008788:	00ff                	0xff
2000878a:	0000                	unimp
2000878c:	0000                	unimp
2000878e:	00ff                	0xff
20008790:	0000                	unimp
20008792:	0000                	unimp
20008794:	ff00                	fsw	fs0,56(a4)
20008796:	ffff                	0xffff
20008798:	0000                	unimp
2000879a:	0000                	unimp
2000879c:	00ff                	0xff
2000879e:	0000                	unimp
200087a0:	00ff                	0xff
200087a2:	0000                	unimp
200087a4:	ff00                	fsw	fs0,56(a4)
200087a6:	ffff                	0xffff
200087a8:	00ff                	0xff
200087aa:	0000                	unimp
200087ac:	00ff                	0xff
200087ae:	0000                	unimp
200087b0:	00ff                	0xff
200087b2:	0000                	unimp
200087b4:	00ff                	0xff
200087b6:	0000                	unimp
200087b8:	00ff                	0xff
200087ba:	0000                	unimp
200087bc:	ff00                	fsw	fs0,56(a4)
200087be:	ffff                	0xffff
200087c0:	0000                	unimp
200087c2:	0000                	unimp
200087c4:	00ff                	0xff
200087c6:	0000                	unimp
200087c8:	0000                	unimp
200087ca:	0000                	unimp
200087cc:	ff00                	fsw	fs0,56(a4)
200087ce:	ffff                	0xffff
200087d0:	0000                	unimp
200087d2:	0000                	unimp
200087d4:	00ff                	0xff
200087d6:	0000                	unimp
200087d8:	00ff                	0xff
200087da:	0000                	unimp
200087dc:	ff00                	fsw	fs0,56(a4)
200087de:	ffff                	0xffff
200087e0:	0000                	unimp
200087e2:	0000                	unimp
200087e4:	0000                	unimp
200087e6:	00ff                	0xff
200087e8:	0000                	unimp
200087ea:	0000                	unimp
200087ec:	ff00                	fsw	fs0,56(a4)
200087ee:	ffff                	0xffff
200087f0:	0000                	unimp
200087f2:	0000                	unimp
200087f4:	0000                	unimp
200087f6:	00ff                	0xff
200087f8:	0000                	unimp
200087fa:	0000                	unimp
200087fc:	ff00                	fsw	fs0,56(a4)
200087fe:	ff00                	fsw	fs0,56(a4)
20008800:	0000                	unimp
20008802:	0000                	unimp
20008804:	00ff                	0xff
20008806:	0000                	unimp
20008808:	00ff                	0xff
2000880a:	0000                	unimp
2000880c:	0000                	unimp
2000880e:	00ff                	0xff
20008810:	0000                	unimp
20008812:	0000                	unimp
20008814:	ff00                	fsw	fs0,56(a4)
20008816:	ffff                	0xffff
20008818:	00ff                	0xff
2000881a:	0000                	unimp
2000881c:	0000                	unimp
2000881e:	00ff                	0xff
	...
20008828:	00ff                	0xff
2000882a:	0000                	unimp
2000882c:	0000                	unimp
2000882e:	00ff                	0xff
	...
20008844:	0000                	unimp
20008846:	ffff                	0xffff
	...
200088cc:	0000                	unimp
200088ce:	ff00                	fsw	fs0,56(a4)
	...
2000891c:	0000                	unimp
2000891e:	ffff                	0xffff
	...
20008928:	00ff                	0xff
2000892a:	0000                	unimp
2000892c:	ff00                	fsw	fs0,56(a4)
2000892e:	00ff                	0xff
	...
2000893c:	ffff                	0xffff
2000893e:	ffff                	0xffff
20008940:	ffff                	0xffff
20008942:	0000                	unimp
20008944:	0000                	unimp
20008946:	ffff                	0xffff
	...
20008954:	ff00                	fsw	fs0,56(a4)
	...
20008966:	0000                	unimp
20008968:	00ff                	0xff
	...
20008976:	ff00                	fsw	fs0,56(a4)
20008978:	00ff                	0xff
	...
20008982:	0000                	unimp
20008984:	ff00                	fsw	fs0,56(a4)
	...
2000898e:	00ff                	0xff
20008990:	0000                	unimp
20008992:	0000                	unimp
20008994:	0000                	unimp
20008996:	ff00                	fsw	fs0,56(a4)
20008998:	0000                	unimp
2000899a:	0000                	unimp
2000899c:	ff00                	fsw	fs0,56(a4)
	...
200089a6:	00ff                	0xff
	...
200089e4:	0000                	unimp
200089e6:	00ff                	0xff
	...
20008a1c:	0000                	unimp
20008a1e:	ff00                	fsw	fs0,56(a4)
20008a20:	0000                	unimp
20008a22:	0000                	unimp
20008a24:	0000                	unimp
20008a26:	00ff                	0xff
20008a28:	0000                	unimp
20008a2a:	0000                	unimp
20008a2c:	ff00                	fsw	fs0,56(a4)
20008a2e:	0000                	unimp
20008a30:	0000                	unimp
20008a32:	0000                	unimp
20008a34:	ff00                	fsw	fs0,56(a4)
20008a36:	00ff                	0xff
20008a38:	00ff                	0xff
20008a3a:	0000                	unimp
20008a3c:	0000                	unimp
20008a3e:	ffff                	0xffff
20008a40:	0000                	unimp
20008a42:	0000                	unimp
20008a44:	ff00                	fsw	fs0,56(a4)
	...
20008a52:	0000                	unimp
20008a54:	ff00                	fsw	fs0,56(a4)
	...
20008a66:	0000                	unimp
20008a68:	00ff                	0xff
	...
20008a76:	00ff                	0xff
	...
20008a84:	ff00                	fsw	fs0,56(a4)
	...
20008a9a:	0000                	unimp
20008a9c:	ff00                	fsw	fs0,56(a4)
	...
20008aa6:	00ff                	0xff
	...
20008ae4:	0000                	unimp
20008ae6:	00ff                	0xff
	...
20008b1c:	0000                	unimp
20008b1e:	00ff                	0xff
20008b20:	0000                	unimp
20008b22:	0000                	unimp
20008b24:	0000                	unimp
20008b26:	00ff                	0xff
20008b28:	0000                	unimp
20008b2a:	0000                	unimp
20008b2c:	0000                	unimp
20008b2e:	00ff                	0xff
20008b30:	0000                	unimp
20008b32:	0000                	unimp
20008b34:	00ff                	0xff
20008b36:	ffff                	0xffff
20008b38:	0000                	unimp
20008b3a:	0000                	unimp
20008b3c:	ff00                	fsw	fs0,56(a4)
20008b3e:	0000                	unimp
20008b40:	00ff                	0xff
20008b42:	0000                	unimp
20008b44:	ff00                	fsw	fs0,56(a4)
	...
20008b4e:	ffff                	0xffff
20008b50:	0000                	unimp
20008b52:	0000                	unimp
20008b54:	ff00                	fsw	fs0,56(a4)
20008b56:	ffff                	0xffff
20008b58:	0000                	unimp
20008b5a:	0000                	unimp
20008b5c:	0000                	unimp
20008b5e:	ffff                	0xffff
20008b60:	0000                	unimp
20008b62:	0000                	unimp
20008b64:	0000                	unimp
20008b66:	ffff                	0xffff
20008b68:	00ff                	0xff
20008b6a:	0000                	unimp
20008b6c:	0000                	unimp
20008b6e:	ffff                	0xffff
20008b70:	0000                	unimp
20008b72:	0000                	unimp
20008b74:	ff00                	fsw	fs0,56(a4)
20008b76:	ffff                	0xffff
20008b78:	0000                	unimp
20008b7a:	0000                	unimp
20008b7c:	0000                	unimp
20008b7e:	ffff                	0xffff
20008b80:	00ff                	0xff
20008b82:	0000                	unimp
20008b84:	ff00                	fsw	fs0,56(a4)
20008b86:	ffff                	0xffff
20008b88:	0000                	unimp
20008b8a:	0000                	unimp
20008b8c:	0000                	unimp
20008b8e:	00ff                	0xff
20008b90:	0000                	unimp
20008b92:	0000                	unimp
20008b94:	0000                	unimp
20008b96:	ff00                	fsw	fs0,56(a4)
20008b98:	0000                	unimp
20008b9a:	0000                	unimp
20008b9c:	ff00                	fsw	fs0,56(a4)
20008b9e:	0000                	unimp
20008ba0:	00ff                	0xff
20008ba2:	0000                	unimp
20008ba4:	0000                	unimp
20008ba6:	00ff                	0xff
20008ba8:	0000                	unimp
20008baa:	0000                	unimp
20008bac:	ffff                	0xffff
20008bae:	ff00                	fsw	fs0,56(a4)
20008bb0:	0000                	unimp
20008bb2:	0000                	unimp
20008bb4:	ff00                	fsw	fs0,56(a4)
20008bb6:	ffff                	0xffff
20008bb8:	0000                	unimp
20008bba:	0000                	unimp
20008bbc:	0000                	unimp
20008bbe:	ffff                	0xffff
20008bc0:	0000                	unimp
20008bc2:	0000                	unimp
20008bc4:	ff00                	fsw	fs0,56(a4)
20008bc6:	ffff                	0xffff
20008bc8:	0000                	unimp
20008bca:	0000                	unimp
20008bcc:	0000                	unimp
20008bce:	ffff                	0xffff
20008bd0:	00ff                	0xff
20008bd2:	0000                	unimp
20008bd4:	ff00                	fsw	fs0,56(a4)
20008bd6:	ff00                	fsw	fs0,56(a4)
20008bd8:	00ff                	0xff
20008bda:	0000                	unimp
20008bdc:	0000                	unimp
20008bde:	ffff                	0xffff
20008be0:	00ff                	0xff
20008be2:	0000                	unimp
20008be4:	ff00                	fsw	fs0,56(a4)
20008be6:	ffff                	0xffff
20008be8:	0000                	unimp
20008bea:	0000                	unimp
20008bec:	ff00                	fsw	fs0,56(a4)
20008bee:	0000                	unimp
20008bf0:	00ff                	0xff
20008bf2:	0000                	unimp
20008bf4:	00ff                	0xff
20008bf6:	0000                	unimp
20008bf8:	00ff                	0xff
20008bfa:	0000                	unimp
20008bfc:	00ff                	0xff
20008bfe:	0000                	unimp
20008c00:	00ff                	0xff
20008c02:	0000                	unimp
20008c04:	00ff                	0xff
20008c06:	0000                	unimp
20008c08:	00ff                	0xff
20008c0a:	0000                	unimp
20008c0c:	00ff                	0xff
20008c0e:	0000                	unimp
20008c10:	00ff                	0xff
20008c12:	0000                	unimp
20008c14:	ff00                	fsw	fs0,56(a4)
20008c16:	ffff                	0xffff
20008c18:	00ff                	0xff
20008c1a:	0000                	unimp
20008c1c:	0000                	unimp
20008c1e:	00ff                	0xff
20008c20:	0000                	unimp
20008c22:	0000                	unimp
20008c24:	0000                	unimp
20008c26:	00ff                	0xff
20008c28:	0000                	unimp
20008c2a:	0000                	unimp
20008c2c:	0000                	unimp
20008c2e:	00ff                	0xff
	...
20008c3c:	00ff                	0xff
20008c3e:	ffff                	0xffff
20008c40:	ff00                	fsw	fs0,56(a4)
20008c42:	0000                	unimp
20008c44:	ffff                	0xffff
20008c46:	00ff                	0xff
	...
20008c50:	00ff                	0xff
20008c52:	0000                	unimp
20008c54:	ff00                	fsw	fs0,56(a4)
20008c56:	0000                	unimp
20008c58:	00ff                	0xff
20008c5a:	0000                	unimp
20008c5c:	ff00                	fsw	fs0,56(a4)
20008c5e:	0000                	unimp
20008c60:	00ff                	0xff
20008c62:	0000                	unimp
20008c64:	ff00                	fsw	fs0,56(a4)
20008c66:	0000                	unimp
20008c68:	00ff                	0xff
20008c6a:	0000                	unimp
20008c6c:	ff00                	fsw	fs0,56(a4)
20008c6e:	0000                	unimp
20008c70:	00ff                	0xff
20008c72:	0000                	unimp
20008c74:	0000                	unimp
20008c76:	00ff                	0xff
20008c78:	0000                	unimp
20008c7a:	0000                	unimp
20008c7c:	ff00                	fsw	fs0,56(a4)
20008c7e:	0000                	unimp
20008c80:	00ff                	0xff
20008c82:	0000                	unimp
20008c84:	ff00                	fsw	fs0,56(a4)
20008c86:	0000                	unimp
20008c88:	00ff                	0xff
20008c8a:	0000                	unimp
20008c8c:	0000                	unimp
20008c8e:	00ff                	0xff
20008c90:	0000                	unimp
20008c92:	0000                	unimp
20008c94:	0000                	unimp
20008c96:	ff00                	fsw	fs0,56(a4)
20008c98:	0000                	unimp
20008c9a:	0000                	unimp
20008c9c:	ff00                	fsw	fs0,56(a4)
20008c9e:	ff00                	fsw	fs0,56(a4)
20008ca0:	0000                	unimp
20008ca2:	0000                	unimp
20008ca4:	0000                	unimp
20008ca6:	00ff                	0xff
20008ca8:	0000                	unimp
20008caa:	0000                	unimp
20008cac:	00ff                	0xff
20008cae:	00ff                	0xff
20008cb0:	00ff                	0xff
20008cb2:	0000                	unimp
20008cb4:	ff00                	fsw	fs0,56(a4)
20008cb6:	0000                	unimp
20008cb8:	00ff                	0xff
20008cba:	0000                	unimp
20008cbc:	ff00                	fsw	fs0,56(a4)
20008cbe:	0000                	unimp
20008cc0:	00ff                	0xff
20008cc2:	0000                	unimp
20008cc4:	ff00                	fsw	fs0,56(a4)
20008cc6:	0000                	unimp
20008cc8:	00ff                	0xff
20008cca:	0000                	unimp
20008ccc:	ff00                	fsw	fs0,56(a4)
20008cce:	0000                	unimp
20008cd0:	00ff                	0xff
20008cd2:	0000                	unimp
20008cd4:	ff00                	fsw	fs0,56(a4)
20008cd6:	00ff                	0xff
20008cd8:	0000                	unimp
20008cda:	0000                	unimp
20008cdc:	ff00                	fsw	fs0,56(a4)
	...
20008ce6:	00ff                	0xff
20008ce8:	0000                	unimp
20008cea:	0000                	unimp
20008cec:	ff00                	fsw	fs0,56(a4)
20008cee:	0000                	unimp
20008cf0:	00ff                	0xff
20008cf2:	0000                	unimp
20008cf4:	ff00                	fsw	fs0,56(a4)
20008cf6:	ff00                	fsw	fs0,56(a4)
20008cf8:	0000                	unimp
20008cfa:	0000                	unimp
20008cfc:	00ff                	0xff
20008cfe:	0000                	unimp
20008d00:	00ff                	0xff
20008d02:	0000                	unimp
20008d04:	ff00                	fsw	fs0,56(a4)
20008d06:	ff00                	fsw	fs0,56(a4)
20008d08:	0000                	unimp
20008d0a:	0000                	unimp
20008d0c:	ff00                	fsw	fs0,56(a4)
20008d0e:	ff00                	fsw	fs0,56(a4)
20008d10:	0000                	unimp
20008d12:	0000                	unimp
20008d14:	0000                	unimp
20008d16:	ff00                	fsw	fs0,56(a4)
20008d18:	0000                	unimp
20008d1a:	0000                	unimp
20008d1c:	ff00                	fsw	fs0,56(a4)
	...
20008d2e:	ff00                	fsw	fs0,56(a4)
	...
20008d3c:	ffff                	0xffff
20008d3e:	0000                	unimp
20008d40:	ff00                	fsw	fs0,56(a4)
20008d42:	0000                	unimp
20008d44:	ff00                	fsw	fs0,56(a4)
	...
20008d4e:	ffff                	0xffff
20008d50:	00ff                	0xff
20008d52:	0000                	unimp
20008d54:	ff00                	fsw	fs0,56(a4)
20008d56:	0000                	unimp
20008d58:	00ff                	0xff
20008d5a:	0000                	unimp
20008d5c:	ff00                	fsw	fs0,56(a4)
20008d5e:	0000                	unimp
20008d60:	0000                	unimp
20008d62:	0000                	unimp
20008d64:	ff00                	fsw	fs0,56(a4)
20008d66:	0000                	unimp
20008d68:	00ff                	0xff
20008d6a:	0000                	unimp
20008d6c:	ff00                	fsw	fs0,56(a4)
20008d6e:	ffff                	0xffff
20008d70:	00ff                	0xff
20008d72:	0000                	unimp
20008d74:	0000                	unimp
20008d76:	00ff                	0xff
20008d78:	0000                	unimp
20008d7a:	0000                	unimp
20008d7c:	ff00                	fsw	fs0,56(a4)
20008d7e:	0000                	unimp
20008d80:	00ff                	0xff
20008d82:	0000                	unimp
20008d84:	ff00                	fsw	fs0,56(a4)
20008d86:	0000                	unimp
20008d88:	00ff                	0xff
20008d8a:	0000                	unimp
20008d8c:	0000                	unimp
20008d8e:	00ff                	0xff
20008d90:	0000                	unimp
20008d92:	0000                	unimp
20008d94:	0000                	unimp
20008d96:	ff00                	fsw	fs0,56(a4)
20008d98:	0000                	unimp
20008d9a:	0000                	unimp
20008d9c:	ff00                	fsw	fs0,56(a4)
20008d9e:	00ff                	0xff
20008da0:	0000                	unimp
20008da2:	0000                	unimp
20008da4:	0000                	unimp
20008da6:	00ff                	0xff
20008da8:	0000                	unimp
20008daa:	0000                	unimp
20008dac:	00ff                	0xff
20008dae:	00ff                	0xff
20008db0:	00ff                	0xff
20008db2:	0000                	unimp
20008db4:	ff00                	fsw	fs0,56(a4)
20008db6:	0000                	unimp
20008db8:	00ff                	0xff
20008dba:	0000                	unimp
20008dbc:	ff00                	fsw	fs0,56(a4)
20008dbe:	0000                	unimp
20008dc0:	00ff                	0xff
20008dc2:	0000                	unimp
20008dc4:	ff00                	fsw	fs0,56(a4)
20008dc6:	0000                	unimp
20008dc8:	00ff                	0xff
20008dca:	0000                	unimp
20008dcc:	ff00                	fsw	fs0,56(a4)
20008dce:	0000                	unimp
20008dd0:	00ff                	0xff
20008dd2:	0000                	unimp
20008dd4:	ff00                	fsw	fs0,56(a4)
	...
20008dde:	ffff                	0xffff
20008de0:	0000                	unimp
20008de2:	0000                	unimp
20008de4:	0000                	unimp
20008de6:	00ff                	0xff
20008de8:	0000                	unimp
20008dea:	0000                	unimp
20008dec:	ff00                	fsw	fs0,56(a4)
20008dee:	0000                	unimp
20008df0:	00ff                	0xff
20008df2:	0000                	unimp
20008df4:	ff00                	fsw	fs0,56(a4)
20008df6:	ff00                	fsw	fs0,56(a4)
20008df8:	0000                	unimp
20008dfa:	0000                	unimp
20008dfc:	00ff                	0xff
20008dfe:	00ff                	0xff
20008e00:	00ff                	0xff
20008e02:	0000                	unimp
20008e04:	0000                	unimp
20008e06:	00ff                	0xff
20008e08:	0000                	unimp
20008e0a:	0000                	unimp
20008e0c:	ff00                	fsw	fs0,56(a4)
20008e0e:	ff00                	fsw	fs0,56(a4)
20008e10:	0000                	unimp
20008e12:	0000                	unimp
20008e14:	0000                	unimp
20008e16:	00ff                	0xff
20008e18:	0000                	unimp
20008e1a:	0000                	unimp
20008e1c:	0000                	unimp
20008e1e:	00ff                	0xff
	...
20008e2c:	0000                	unimp
20008e2e:	00ff                	0xff
	...
20008e3c:	ffff                	0xffff
20008e3e:	0000                	unimp
20008e40:	ff00                	fsw	fs0,56(a4)
20008e42:	0000                	unimp
20008e44:	ff00                	fsw	fs0,56(a4)
20008e46:	0000                	unimp
20008e48:	00ff                	0xff
20008e4a:	0000                	unimp
20008e4c:	ff00                	fsw	fs0,56(a4)
20008e4e:	0000                	unimp
20008e50:	00ff                	0xff
20008e52:	0000                	unimp
20008e54:	ff00                	fsw	fs0,56(a4)
20008e56:	0000                	unimp
20008e58:	00ff                	0xff
20008e5a:	0000                	unimp
20008e5c:	ff00                	fsw	fs0,56(a4)
20008e5e:	0000                	unimp
20008e60:	00ff                	0xff
20008e62:	0000                	unimp
20008e64:	ff00                	fsw	fs0,56(a4)
20008e66:	0000                	unimp
20008e68:	00ff                	0xff
20008e6a:	0000                	unimp
20008e6c:	ff00                	fsw	fs0,56(a4)
	...
20008e76:	00ff                	0xff
20008e78:	0000                	unimp
20008e7a:	0000                	unimp
20008e7c:	0000                	unimp
20008e7e:	ffff                	0xffff
20008e80:	00ff                	0xff
20008e82:	0000                	unimp
20008e84:	ff00                	fsw	fs0,56(a4)
20008e86:	0000                	unimp
20008e88:	00ff                	0xff
20008e8a:	0000                	unimp
20008e8c:	0000                	unimp
20008e8e:	00ff                	0xff
20008e90:	0000                	unimp
20008e92:	0000                	unimp
20008e94:	0000                	unimp
20008e96:	ff00                	fsw	fs0,56(a4)
20008e98:	0000                	unimp
20008e9a:	0000                	unimp
20008e9c:	ff00                	fsw	fs0,56(a4)
20008e9e:	ff00                	fsw	fs0,56(a4)
20008ea0:	0000                	unimp
20008ea2:	0000                	unimp
20008ea4:	0000                	unimp
20008ea6:	00ff                	0xff
20008ea8:	0000                	unimp
20008eaa:	0000                	unimp
20008eac:	00ff                	0xff
20008eae:	00ff                	0xff
20008eb0:	00ff                	0xff
20008eb2:	0000                	unimp
20008eb4:	ff00                	fsw	fs0,56(a4)
20008eb6:	0000                	unimp
20008eb8:	00ff                	0xff
20008eba:	0000                	unimp
20008ebc:	ff00                	fsw	fs0,56(a4)
20008ebe:	0000                	unimp
20008ec0:	00ff                	0xff
20008ec2:	0000                	unimp
20008ec4:	ff00                	fsw	fs0,56(a4)
20008ec6:	ffff                	0xffff
20008ec8:	0000                	unimp
20008eca:	0000                	unimp
20008ecc:	0000                	unimp
20008ece:	ffff                	0xffff
20008ed0:	00ff                	0xff
20008ed2:	0000                	unimp
20008ed4:	ff00                	fsw	fs0,56(a4)
	...
20008ede:	0000                	unimp
20008ee0:	00ff                	0xff
20008ee2:	0000                	unimp
20008ee4:	0000                	unimp
20008ee6:	00ff                	0xff
20008ee8:	0000                	unimp
20008eea:	0000                	unimp
20008eec:	ff00                	fsw	fs0,56(a4)
20008eee:	0000                	unimp
20008ef0:	00ff                	0xff
20008ef2:	0000                	unimp
20008ef4:	0000                	unimp
20008ef6:	00ff                	0xff
20008ef8:	0000                	unimp
20008efa:	0000                	unimp
20008efc:	ff00                	fsw	fs0,56(a4)
20008efe:	ff00                	fsw	fs0,56(a4)
20008f00:	0000                	unimp
20008f02:	0000                	unimp
20008f04:	ff00                	fsw	fs0,56(a4)
20008f06:	ff00                	fsw	fs0,56(a4)
20008f08:	0000                	unimp
20008f0a:	0000                	unimp
20008f0c:	0000                	unimp
20008f0e:	00ff                	0xff
20008f10:	0000                	unimp
20008f12:	0000                	unimp
20008f14:	ff00                	fsw	fs0,56(a4)
	...
20008f1e:	00ff                	0xff
20008f20:	0000                	unimp
20008f22:	0000                	unimp
20008f24:	0000                	unimp
20008f26:	00ff                	0xff
20008f28:	0000                	unimp
20008f2a:	0000                	unimp
20008f2c:	0000                	unimp
20008f2e:	00ff                	0xff
	...
20008f3c:	00ff                	0xff
20008f3e:	ffff                	0xffff
20008f40:	ff00                	fsw	fs0,56(a4)
20008f42:	0000                	unimp
20008f44:	ffff                	0xffff
20008f46:	ffff                	0xffff
20008f48:	0000                	unimp
20008f4a:	0000                	unimp
20008f4c:	0000                	unimp
20008f4e:	ffff                	0xffff
20008f50:	00ff                	0xff
20008f52:	0000                	unimp
20008f54:	ff00                	fsw	fs0,56(a4)
20008f56:	ffff                	0xffff
20008f58:	0000                	unimp
20008f5a:	0000                	unimp
20008f5c:	0000                	unimp
20008f5e:	ffff                	0xffff
20008f60:	0000                	unimp
20008f62:	0000                	unimp
20008f64:	0000                	unimp
20008f66:	ffff                	0xffff
20008f68:	00ff                	0xff
20008f6a:	0000                	unimp
20008f6c:	0000                	unimp
20008f6e:	ffff                	0xffff
20008f70:	0000                	unimp
20008f72:	0000                	unimp
20008f74:	0000                	unimp
20008f76:	00ff                	0xff
	...
20008f80:	00ff                	0xff
20008f82:	0000                	unimp
20008f84:	ff00                	fsw	fs0,56(a4)
20008f86:	0000                	unimp
20008f88:	00ff                	0xff
20008f8a:	0000                	unimp
20008f8c:	0000                	unimp
20008f8e:	00ff                	0xff
20008f90:	0000                	unimp
20008f92:	0000                	unimp
20008f94:	0000                	unimp
20008f96:	ff00                	fsw	fs0,56(a4)
20008f98:	0000                	unimp
20008f9a:	0000                	unimp
20008f9c:	ff00                	fsw	fs0,56(a4)
20008f9e:	0000                	unimp
20008fa0:	00ff                	0xff
20008fa2:	0000                	unimp
20008fa4:	0000                	unimp
20008fa6:	ff00                	fsw	fs0,56(a4)
20008fa8:	0000                	unimp
20008faa:	0000                	unimp
20008fac:	00ff                	0xff
20008fae:	00ff                	0xff
20008fb0:	00ff                	0xff
20008fb2:	0000                	unimp
20008fb4:	ff00                	fsw	fs0,56(a4)
20008fb6:	0000                	unimp
20008fb8:	00ff                	0xff
20008fba:	0000                	unimp
20008fbc:	0000                	unimp
20008fbe:	ffff                	0xffff
20008fc0:	0000                	unimp
20008fc2:	0000                	unimp
20008fc4:	ff00                	fsw	fs0,56(a4)
	...
20008fce:	0000                	unimp
20008fd0:	00ff                	0xff
20008fd2:	0000                	unimp
20008fd4:	ff00                	fsw	fs0,56(a4)
20008fd6:	0000                	unimp
20008fd8:	0000                	unimp
20008fda:	0000                	unimp
20008fdc:	ff00                	fsw	fs0,56(a4)
20008fde:	ffff                	0xffff
20008fe0:	0000                	unimp
20008fe2:	0000                	unimp
20008fe4:	0000                	unimp
20008fe6:	ff00                	fsw	fs0,56(a4)
20008fe8:	0000                	unimp
20008fea:	0000                	unimp
20008fec:	0000                	unimp
20008fee:	ffff                	0xffff
20008ff0:	0000                	unimp
20008ff2:	0000                	unimp
20008ff4:	0000                	unimp
20008ff6:	00ff                	0xff
20008ff8:	0000                	unimp
20008ffa:	0000                	unimp
20008ffc:	ff00                	fsw	fs0,56(a4)
20008ffe:	ff00                	fsw	fs0,56(a4)
20009000:	0000                	unimp
20009002:	0000                	unimp
20009004:	00ff                	0xff
20009006:	0000                	unimp
20009008:	00ff                	0xff
2000900a:	0000                	unimp
2000900c:	0000                	unimp
2000900e:	00ff                	0xff
20009010:	0000                	unimp
20009012:	0000                	unimp
20009014:	ff00                	fsw	fs0,56(a4)
20009016:	ffff                	0xffff
20009018:	00ff                	0xff
2000901a:	0000                	unimp
2000901c:	0000                	unimp
2000901e:	00ff                	0xff
20009020:	0000                	unimp
20009022:	0000                	unimp
20009024:	0000                	unimp
20009026:	00ff                	0xff
20009028:	0000                	unimp
2000902a:	0000                	unimp
2000902c:	0000                	unimp
2000902e:	00ff                	0xff
	...
2000903c:	ff00                	fsw	fs0,56(a4)
2000903e:	0000                	unimp
20009040:	00ff                	0xff
	...
2000907e:	ffff                	0xffff
	...
20009094:	ff00                	fsw	fs0,56(a4)
20009096:	00ff                	0xff
	...
200090c4:	ff00                	fsw	fs0,56(a4)
	...
200090ce:	0000                	unimp
200090d0:	00ff                	0xff
	...
2000910a:	0000                	unimp
2000910c:	ffff                	0xffff
	...
2000911e:	ff00                	fsw	fs0,56(a4)
20009120:	0000                	unimp
20009122:	0000                	unimp
20009124:	0000                	unimp
20009126:	00ff                	0xff
20009128:	0000                	unimp
2000912a:	0000                	unimp
2000912c:	ff00                	fsw	fs0,56(a4)
	...
2000913e:	ffff                	0xffff
20009140:	0000                	unimp
	...

20009144 <__clz_tab>:
20009144:	0100                	addi	s0,sp,128
20009146:	0202                	c.slli64	tp
20009148:	03030303          	lb	t1,48(t1)
2000914c:	0404                	addi	s1,sp,512
2000914e:	0404                	addi	s1,sp,512
20009150:	0404                	addi	s1,sp,512
20009152:	0404                	addi	s1,sp,512
20009154:	0505                	addi	a0,a0,1
20009156:	0505                	addi	a0,a0,1
20009158:	0505                	addi	a0,a0,1
2000915a:	0505                	addi	a0,a0,1
2000915c:	0505                	addi	a0,a0,1
2000915e:	0505                	addi	a0,a0,1
20009160:	0505                	addi	a0,a0,1
20009162:	0505                	addi	a0,a0,1
20009164:	0606                	slli	a2,a2,0x1
20009166:	0606                	slli	a2,a2,0x1
20009168:	0606                	slli	a2,a2,0x1
2000916a:	0606                	slli	a2,a2,0x1
2000916c:	0606                	slli	a2,a2,0x1
2000916e:	0606                	slli	a2,a2,0x1
20009170:	0606                	slli	a2,a2,0x1
20009172:	0606                	slli	a2,a2,0x1
20009174:	0606                	slli	a2,a2,0x1
20009176:	0606                	slli	a2,a2,0x1
20009178:	0606                	slli	a2,a2,0x1
2000917a:	0606                	slli	a2,a2,0x1
2000917c:	0606                	slli	a2,a2,0x1
2000917e:	0606                	slli	a2,a2,0x1
20009180:	0606                	slli	a2,a2,0x1
20009182:	0606                	slli	a2,a2,0x1
20009184:	07070707          	0x7070707
20009188:	07070707          	0x7070707
2000918c:	07070707          	0x7070707
20009190:	07070707          	0x7070707
20009194:	07070707          	0x7070707
20009198:	07070707          	0x7070707
2000919c:	07070707          	0x7070707
200091a0:	07070707          	0x7070707
200091a4:	07070707          	0x7070707
200091a8:	07070707          	0x7070707
200091ac:	07070707          	0x7070707
200091b0:	07070707          	0x7070707
200091b4:	07070707          	0x7070707
200091b8:	07070707          	0x7070707
200091bc:	07070707          	0x7070707
200091c0:	07070707          	0x7070707
200091c4:	0808                	addi	a0,sp,16
200091c6:	0808                	addi	a0,sp,16
200091c8:	0808                	addi	a0,sp,16
200091ca:	0808                	addi	a0,sp,16
200091cc:	0808                	addi	a0,sp,16
200091ce:	0808                	addi	a0,sp,16
200091d0:	0808                	addi	a0,sp,16
200091d2:	0808                	addi	a0,sp,16
200091d4:	0808                	addi	a0,sp,16
200091d6:	0808                	addi	a0,sp,16
200091d8:	0808                	addi	a0,sp,16
200091da:	0808                	addi	a0,sp,16
200091dc:	0808                	addi	a0,sp,16
200091de:	0808                	addi	a0,sp,16
200091e0:	0808                	addi	a0,sp,16
200091e2:	0808                	addi	a0,sp,16
200091e4:	0808                	addi	a0,sp,16
200091e6:	0808                	addi	a0,sp,16
200091e8:	0808                	addi	a0,sp,16
200091ea:	0808                	addi	a0,sp,16
200091ec:	0808                	addi	a0,sp,16
200091ee:	0808                	addi	a0,sp,16
200091f0:	0808                	addi	a0,sp,16
200091f2:	0808                	addi	a0,sp,16
200091f4:	0808                	addi	a0,sp,16
200091f6:	0808                	addi	a0,sp,16
200091f8:	0808                	addi	a0,sp,16
200091fa:	0808                	addi	a0,sp,16
200091fc:	0808                	addi	a0,sp,16
200091fe:	0808                	addi	a0,sp,16
20009200:	0808                	addi	a0,sp,16
20009202:	0808                	addi	a0,sp,16
20009204:	0808                	addi	a0,sp,16
20009206:	0808                	addi	a0,sp,16
20009208:	0808                	addi	a0,sp,16
2000920a:	0808                	addi	a0,sp,16
2000920c:	0808                	addi	a0,sp,16
2000920e:	0808                	addi	a0,sp,16
20009210:	0808                	addi	a0,sp,16
20009212:	0808                	addi	a0,sp,16
20009214:	0808                	addi	a0,sp,16
20009216:	0808                	addi	a0,sp,16
20009218:	0808                	addi	a0,sp,16
2000921a:	0808                	addi	a0,sp,16
2000921c:	0808                	addi	a0,sp,16
2000921e:	0808                	addi	a0,sp,16
20009220:	0808                	addi	a0,sp,16
20009222:	0808                	addi	a0,sp,16
20009224:	0808                	addi	a0,sp,16
20009226:	0808                	addi	a0,sp,16
20009228:	0808                	addi	a0,sp,16
2000922a:	0808                	addi	a0,sp,16
2000922c:	0808                	addi	a0,sp,16
2000922e:	0808                	addi	a0,sp,16
20009230:	0808                	addi	a0,sp,16
20009232:	0808                	addi	a0,sp,16
20009234:	0808                	addi	a0,sp,16
20009236:	0808                	addi	a0,sp,16
20009238:	0808                	addi	a0,sp,16
2000923a:	0808                	addi	a0,sp,16
2000923c:	0808                	addi	a0,sp,16
2000923e:	0808                	addi	a0,sp,16
20009240:	0808                	addi	a0,sp,16
20009242:	0808                	addi	a0,sp,16
20009244:	454e                	lw	a0,208(sp)
20009246:	43494f4b          	fnmsub.d	ft10,fs2,fs4,fs0,rmm
2000924a:	4948                	lw	a0,20(a0)
2000924c:	0000                	unimp
2000924e:	0000                	unimp
20009250:	6d657227          	0x6d657227
20009254:	2e65746f          	jal	s0,2006053a <__global_pointer$+0x54d1a>
20009258:	6c65                	lui	s8,0x19
2000925a:	2766                	fld	fa4,88(sp)
2000925c:	7320                	flw	fs0,96(a4)
2000925e:	6174                	flw	fa3,68(a0)
20009260:	7472                	flw	fs0,60(sp)
20009262:	6e69                	lui	t3,0x1a
20009264:	00000a67          	jalr	s4,zero # 0 <_STACK_SIZE-0x1f0>
20009268:	6620                	flw	fs0,72(a2)
2000926a:	6961                	lui	s2,0x18
2000926c:	656c                	flw	fa1,76(a0)
2000926e:	3a64                	fld	fs1,240(a2)
20009270:	6520                	flw	fs0,72(a0)
20009272:	7078                	flw	fa4,100(s0)
20009274:	6365                	lui	t1,0x19
20009276:	6974                	flw	fa3,84(a0)
20009278:	676e                	flw	fa4,216(sp)
2000927a:	3020                	fld	fs0,96(s0)
2000927c:	3778                	fld	fa4,232(a4)
2000927e:	2b46                	fld	fs6,80(sp)
20009280:	464c4527          	fsq	ft4,1130(s8) # 1946a <_STACK_SIZE+0x1927a>
20009284:	00000027          	0x27
20009288:	002e                	c.slli	zero,0xb
2000928a:	0000                	unimp
2000928c:	72617473          	csrrci	s0,0x726,2
20009290:	6974                	flw	fa3,84(a0)
20009292:	676e                	flw	fa4,216(sp)
20009294:	000a                	c.slli	zero,0x2
20009296:	0000                	unimp
20009298:	652e                	flw	fa0,200(sp)
2000929a:	666c                	flw	fa1,76(a2)
2000929c:	0000                	unimp
2000929e:	0000                	unimp
200092a0:	61656c43          	fmadd.s	fs8,fa0,fs6,fa2,unknown
200092a4:	6972                	flw	fs2,28(sp)
200092a6:	676e                	flw	fa4,216(sp)
200092a8:	3620                	fld	fs0,104(a2)
200092aa:	4d34                	lw	a3,88(a0)
200092ac:	7962                	flw	fs2,56(sp)
200092ae:	6574                	flw	fa3,76(a0)
200092b0:	00203a73          	csrrc	s4,frm,zero
200092b4:	6d20                	flw	fs0,88(a0)
200092b6:	00000a73          	0xa73
200092ba:	0000                	unimp
200092bc:	4a325b1b          	0x4a325b1b
200092c0:	0a0d                	addi	s4,s4,3
200092c2:	0000                	unimp
200092c4:	2d2d2d2b          	0x2d2d2d2b
200092c8:	2d2d                	jal	20009902 <_ZL5uc437+0x7e>
200092ca:	2d2d                	jal	20009904 <_ZL5uc437+0x80>
200092cc:	2d2d                	jal	20009906 <_ZL5uc437+0x82>
200092ce:	2d2d                	jal	20009908 <_ZL5uc437+0x84>
200092d0:	2d2d                	jal	2000990a <_ZL5uc437+0x86>
200092d2:	2d2d                	jal	2000990c <_ZL5uc437+0x88>
200092d4:	2d2d                	jal	2000990e <_ZL5uc437+0x8a>
200092d6:	2d2d                	jal	20009910 <_ZL5uc437+0x8c>
200092d8:	2d2d                	jal	20009912 <_ZL5uc437+0x8e>
200092da:	2d2d                	jal	20009914 <_ZL5uc437+0x90>
200092dc:	2d2d                	jal	20009916 <_ZL5uc437+0x92>
200092de:	000a0d2b          	0xa0d2b
200092e2:	0000                	unimp
200092e4:	207c                	fld	fa5,192(s0)
200092e6:	2020                	fld	fs0,64(s0)
200092e8:	2020                	fld	fs0,64(s0)
200092ea:	2020                	fld	fs0,64(s0)
200092ec:	2020                	fld	fs0,64(s0)
200092ee:	2a20                	fld	fs0,80(a2)
200092f0:	2a2a                	fld	fs4,136(sp)
200092f2:	2a2a                	fld	fs4,136(sp)
200092f4:	2a2a                	fld	fs4,136(sp)
200092f6:	2a2a                	fld	fs4,136(sp)
200092f8:	2a2a                	fld	fs4,136(sp)
200092fa:	2a2a                	fld	fs4,136(sp)
200092fc:	202a                	fld	ft0,136(sp)
200092fe:	0d7c                	addi	a5,sp,668
20009300:	000a                	c.slli	zero,0x2
20009302:	0000                	unimp
20009304:	207c                	fld	fa5,192(s0)
20009306:	23232323          	sw	s2,550(t1) # 19226 <_STACK_SIZE+0x19036>
2000930a:	23232323          	sw	s2,550(t1)
2000930e:	2020                	fld	fs0,64(s0)
20009310:	2a20                	fld	fs0,80(a2)
20009312:	2a2a                	fld	fs4,136(sp)
20009314:	2a2a                	fld	fs4,136(sp)
20009316:	2a2a                	fld	fs4,136(sp)
20009318:	2a2a                	fld	fs4,136(sp)
2000931a:	2a2a                	fld	fs4,136(sp)
2000931c:	202a                	fld	ft0,136(sp)
2000931e:	0d7c                	addi	a5,sp,668
20009320:	000a                	c.slli	zero,0x2
20009322:	0000                	unimp
20009324:	207c                	fld	fa5,192(s0)
20009326:	23232323          	sw	s2,550(t1)
2000932a:	23232323          	sw	s2,550(t1)
2000932e:	2a202023          	sw	sp,672(zero) # 2a0 <_STACK_SIZE+0xb0>
20009332:	2a2a                	fld	fs4,136(sp)
20009334:	2a2a                	fld	fs4,136(sp)
20009336:	2a2a                	fld	fs4,136(sp)
20009338:	2a2a                	fld	fs4,136(sp)
2000933a:	2a2a                	fld	fs4,136(sp)
2000933c:	202a                	fld	ft0,136(sp)
2000933e:	0d7c                	addi	a5,sp,668
20009340:	000a                	c.slli	zero,0x2
20009342:	0000                	unimp
20009344:	207c                	fld	fa5,192(s0)
20009346:	23232323          	sw	s2,550(t1)
2000934a:	23232323          	sw	s2,550(t1)
2000934e:	2020                	fld	fs0,64(s0)
20009350:	2a20                	fld	fs0,80(a2)
20009352:	2a2a                	fld	fs4,136(sp)
20009354:	2a2a                	fld	fs4,136(sp)
20009356:	2a2a                	fld	fs4,136(sp)
20009358:	2a2a                	fld	fs4,136(sp)
2000935a:	2a2a                	fld	fs4,136(sp)
2000935c:	2020                	fld	fs0,64(s0)
2000935e:	0d7c                	addi	a5,sp,668
20009360:	000a                	c.slli	zero,0x2
20009362:	0000                	unimp
20009364:	207c                	fld	fa5,192(s0)
20009366:	20202023          	sw	sp,512(zero) # 200 <_STACK_SIZE+0x10>
2000936a:	2020                	fld	fs0,64(s0)
2000936c:	2020                	fld	fs0,64(s0)
2000936e:	2a20                	fld	fs0,80(a2)
20009370:	2a2a                	fld	fs4,136(sp)
20009372:	2a2a                	fld	fs4,136(sp)
20009374:	2a2a                	fld	fs4,136(sp)
20009376:	2a2a                	fld	fs4,136(sp)
20009378:	2a2a                	fld	fs4,136(sp)
2000937a:	2020                	fld	fs0,64(s0)
2000937c:	2020                	fld	fs0,64(s0)
2000937e:	0d7c                	addi	a5,sp,668
20009380:	000a                	c.slli	zero,0x2
20009382:	0000                	unimp
20009384:	207c                	fld	fa5,192(s0)
20009386:	20202323          	sw	sp,518(zero) # 206 <_STACK_SIZE+0x16>
2000938a:	2a20                	fld	fs0,80(a2)
2000938c:	2a2a                	fld	fs4,136(sp)
2000938e:	2a2a                	fld	fs4,136(sp)
20009390:	2a2a                	fld	fs4,136(sp)
20009392:	2a2a                	fld	fs4,136(sp)
20009394:	2a2a                	fld	fs4,136(sp)
20009396:	2a2a                	fld	fs4,136(sp)
20009398:	2020                	fld	fs0,64(s0)
2000939a:	2320                	fld	fs0,64(a4)
2000939c:	0d7c2023          	sw	s7,192(s8)
200093a0:	000a                	c.slli	zero,0x2
200093a2:	0000                	unimp
200093a4:	207c                	fld	fa5,192(s0)
200093a6:	23232323          	sw	s2,550(t1)
200093aa:	2020                	fld	fs0,64(s0)
200093ac:	2a20                	fld	fs0,80(a2)
200093ae:	2a2a                	fld	fs4,136(sp)
200093b0:	2a2a                	fld	fs4,136(sp)
200093b2:	2a2a                	fld	fs4,136(sp)
200093b4:	2a2a                	fld	fs4,136(sp)
200093b6:	2020                	fld	fs0,64(s0)
200093b8:	2320                	fld	fs0,64(a4)
200093ba:	20232323          	sw	sp,518(t1)
200093be:	0d7c                	addi	a5,sp,668
200093c0:	000a                	c.slli	zero,0x2
200093c2:	0000                	unimp
200093c4:	207c                	fld	fa5,192(s0)
200093c6:	23232323          	sw	s2,550(t1)
200093ca:	20202323          	sw	sp,518(zero) # 206 <_STACK_SIZE+0x16>
200093ce:	2a20                	fld	fs0,80(a2)
200093d0:	2a2a                	fld	fs4,136(sp)
200093d2:	2a2a                	fld	fs4,136(sp)
200093d4:	2020                	fld	fs0,64(s0)
200093d6:	2320                	fld	fs0,64(a4)
200093d8:	23232323          	sw	s2,550(t1)
200093dc:	0d7c2023          	sw	s7,192(s8)
200093e0:	000a                	c.slli	zero,0x2
200093e2:	0000                	unimp
200093e4:	207c                	fld	fa5,192(s0)
200093e6:	23232323          	sw	s2,550(t1)
200093ea:	23232323          	sw	s2,550(t1)
200093ee:	2020                	fld	fs0,64(s0)
200093f0:	2a20                	fld	fs0,80(a2)
200093f2:	2020                	fld	fs0,64(s0)
200093f4:	2320                	fld	fs0,64(a4)
200093f6:	23232323          	sw	s2,550(t1)
200093fa:	20232323          	sw	sp,518(t1)
200093fe:	0d7c                	addi	a5,sp,668
20009400:	000a                	c.slli	zero,0x2
20009402:	0000                	unimp
20009404:	207c                	fld	fa5,192(s0)
20009406:	23232323          	sw	s2,550(t1)
2000940a:	23232323          	sw	s2,550(t1)
2000940e:	20202323          	sw	sp,518(zero) # 206 <_STACK_SIZE+0x16>
20009412:	2320                	fld	fs0,64(a4)
20009414:	23232323          	sw	s2,550(t1)
20009418:	23232323          	sw	s2,550(t1)
2000941c:	0d7c2023          	sw	s7,192(s8)
20009420:	000a                	c.slli	zero,0x2
20009422:	0000                	unimp
20009424:	4e0a                	lw	t3,128(sp)
20009426:	6b65                	lui	s6,0x19
20009428:	6863496f          	jal	s2,2003daae <__global_pointer$+0x3228e>
2000942c:	2069                	jal	200094b6 <__clz_tab+0x372>
2000942e:	3078305b          	0x3078305b
20009432:	3030                	fld	fa2,96(s0)
20009434:	5b205d43          	fmadd.d	fs10,ft0,fs2,fa1,unknown
20009438:	5652                	lw	a2,52(sp)
2000943a:	4d493233          	0x4d493233
2000943e:	5a46                	lw	s4,112(sp)
20009440:	6369                	lui	t1,0x1a
20009442:	0a5d7273          	csrrci	tp,0xa5,26
20009446:	a9c2                	fsd	fa6,208(sp)
20009448:	3220                	fld	fs0,96(a2)
2000944a:	3230                	fld	fa2,96(a2)
2000944c:	2031                	jal	20009458 <__clz_tab+0x314>
2000944e:	6e45                	lui	t3,0x11
20009450:	206e6967          	0x206e6967
20009454:	616c6943          	fmadd.s	fs2,fs8,fs6,fa2,unknown
20009458:	0a6e7573          	csrrci	a0,0xa6,28
2000945c:	0000                	unimp
2000945e:	0000                	unimp
20009460:	003a6473          	csrrsi	s0,fcsr,20
20009464:	63637553          	0x63637553
20009468:	6565                	lui	a0,0x19
2000946a:	6564                	flw	fs1,76(a0)
2000946c:	0a64                	addi	s1,sp,284
2000946e:	0000                	unimp
20009470:	2041                	jal	200094f0 <__clz_tab+0x3ac>
20009472:	6168                	flw	fa0,68(a0)
20009474:	6472                	flw	fs0,28(sp)
20009476:	6520                	flw	fs0,72(a0)
20009478:	7272                	flw	ft4,60(sp)
2000947a:	6f20726f          	jal	tp,20010b6c <__global_pointer$+0x534c>
2000947e:	72756363          	bltu	a0,t2,20009ba4 <_ZZ11ff_wtoupperE4cvt2+0x2c>
20009482:	6572                	flw	fa0,28(sp)
20009484:	2064                	fld	fs1,192(s0)
20009486:	6e69                	lui	t3,0x1a
20009488:	7420                	flw	fs0,104(s0)
2000948a:	6568                	flw	fa0,76(a0)
2000948c:	6c20                	flw	fs0,88(s0)
2000948e:	6c20776f          	jal	a4,20010b50 <__global_pointer$+0x5330>
20009492:	7665                	lui	a2,0xffff9
20009494:	6c65                	lui	s8,0x19
20009496:	6420                	flw	fs0,72(s0)
20009498:	7369                	lui	t1,0xffffa
2000949a:	2f49206b          	0x2f49206b
2000949e:	616c204f          	fnmadd.s	ft0,fs8,fs6,fa2,rdn
200094a2:	6579                	lui	a0,0x1e
200094a4:	0a72                	slli	s4,s4,0x1c
200094a6:	0000                	unimp
200094a8:	7341                	lui	t1,0xffff0
200094aa:	74726573          	csrrsi	a0,0x747,4
200094ae:	6f69                	lui	t5,0x1a
200094b0:	206e                	fld	ft0,216(sp)
200094b2:	6166                	flw	ft2,88(sp)
200094b4:	6c69                	lui	s8,0x1a
200094b6:	6465                	lui	s0,0x19
200094b8:	000a                	c.slli	zero,0x2
200094ba:	0000                	unimp
200094bc:	6854                	flw	fa3,20(s0)
200094be:	2065                	jal	20009566 <__clz_tab+0x422>
200094c0:	6870                	flw	fa2,84(s0)
200094c2:	7379                	lui	t1,0xffffe
200094c4:	6369                	lui	t1,0x1a
200094c6:	6c61                	lui	s8,0x18
200094c8:	6420                	flw	fs0,72(s0)
200094ca:	6972                	flw	fs2,28(sp)
200094cc:	6576                	flw	fa0,92(sp)
200094ce:	6320                	flw	fs0,64(a4)
200094d0:	6e61                	lui	t3,0x18
200094d2:	6f6e                	flw	ft10,216(sp)
200094d4:	2074                	fld	fa3,192(s0)
200094d6:	6b726f77          	0x6b726f77
200094da:	000a                	c.slli	zero,0x2
200094dc:	6c756f43          	0x6c756f43
200094e0:	2064                	fld	fs1,192(s0)
200094e2:	6f6e                	flw	ft10,216(sp)
200094e4:	2074                	fld	fa3,192(s0)
200094e6:	6966                	flw	fs2,88(sp)
200094e8:	646e                	flw	fs0,216(sp)
200094ea:	7420                	flw	fs0,104(s0)
200094ec:	6568                	flw	fa0,76(a0)
200094ee:	6620                	flw	fs0,72(a2)
200094f0:	6c69                	lui	s8,0x1a
200094f2:	0a65                	addi	s4,s4,25
200094f4:	0000                	unimp
200094f6:	0000                	unimp
200094f8:	6c756f43          	0x6c756f43
200094fc:	2064                	fld	fs1,192(s0)
200094fe:	6f6e                	flw	ft10,216(sp)
20009500:	2074                	fld	fa3,192(s0)
20009502:	6966                	flw	fs2,88(sp)
20009504:	646e                	flw	fs0,216(sp)
20009506:	7420                	flw	fs0,104(s0)
20009508:	6568                	flw	fa0,76(a0)
2000950a:	7020                	flw	fs0,96(s0)
2000950c:	7461                	lui	s0,0xffff8
2000950e:	0a68                	addi	a0,sp,284
20009510:	0000                	unimp
20009512:	0000                	unimp
20009514:	6854                	flw	fa3,20(s0)
20009516:	2065                	jal	200095be <__clz_tab+0x47a>
20009518:	6170                	flw	fa2,68(a0)
2000951a:	6874                	flw	fa3,84(s0)
2000951c:	6e20                	flw	fs0,88(a2)
2000951e:	6d61                	lui	s10,0x18
20009520:	2065                	jal	200095c8 <__clz_tab+0x484>
20009522:	6f66                	flw	ft10,88(sp)
20009524:	6d72                	flw	fs10,28(sp)
20009526:	7461                	lui	s0,0xffff8
20009528:	6920                	flw	fs0,80(a0)
2000952a:	6e692073          	csrs	0x6e6,s2
2000952e:	6176                	flw	ft2,92(sp)
20009530:	696c                	flw	fa1,84(a0)
20009532:	0a64                	addi	s1,sp,284
20009534:	0000                	unimp
20009536:	0000                	unimp
20009538:	6341                	lui	t1,0x10
2000953a:	73736563          	bltu	t1,s7,20009c64 <__init_array_end+0x24>
2000953e:	6420                	flw	fs0,72(s0)
20009540:	6e65                	lui	t3,0x19
20009542:	6569                	lui	a0,0x1a
20009544:	2064                	fld	fs1,192(s0)
20009546:	7564                	flw	fs1,108(a0)
20009548:	2065                	jal	200095f0 <__clz_tab+0x4ac>
2000954a:	6f74                	flw	fa3,92(a4)
2000954c:	7020                	flw	fs0,96(s0)
2000954e:	6f72                	flw	ft10,28(sp)
20009550:	6968                	flw	fa0,84(a0)
20009552:	6962                	flw	fs2,24(sp)
20009554:	6574                	flw	fa3,76(a0)
20009556:	2064                	fld	fs1,192(s0)
20009558:	6361                	lui	t1,0x18
2000955a:	73736563          	bltu	t1,s7,20009c84 <__init_array_end+0x44>
2000955e:	6f20                	flw	fs0,88(a4)
20009560:	2072                	fld	ft0,280(sp)
20009562:	6964                	flw	fs1,84(a0)
20009564:	6572                	flw	fa0,28(sp)
20009566:	726f7463          	bgeu	t5,t1,20009c8e <__init_array_end+0x4e>
2000956a:	2079                	jal	200095f8 <__clz_tab+0x4b4>
2000956c:	7566                	flw	fa0,120(sp)
2000956e:	6c6c                	flw	fa1,92(s0)
20009570:	000a                	c.slli	zero,0x2
20009572:	0000                	unimp
20009574:	6341                	lui	t1,0x10
20009576:	73736563          	bltu	t1,s7,20009ca0 <__init_array_end+0x60>
2000957a:	6420                	flw	fs0,72(s0)
2000957c:	6e65                	lui	t3,0x19
2000957e:	6569                	lui	a0,0x1a
20009580:	2064                	fld	fs1,192(s0)
20009582:	7564                	flw	fs1,108(a0)
20009584:	2065                	jal	2000962c <__clz_tab+0x4e8>
20009586:	6f74                	flw	fa3,92(a4)
20009588:	7020                	flw	fs0,96(s0)
2000958a:	6f72                	flw	ft10,28(sp)
2000958c:	6968                	flw	fa0,84(a0)
2000958e:	6962                	flw	fs2,24(sp)
20009590:	6574                	flw	fa3,76(a0)
20009592:	2064                	fld	fs1,192(s0)
20009594:	6361                	lui	t1,0x18
20009596:	73736563          	bltu	t1,s7,20009cc0 <__init_array_end+0x80>
2000959a:	000a                	c.slli	zero,0x2
2000959c:	6854                	flw	fa3,20(s0)
2000959e:	2065                	jal	20009646 <__clz_tab+0x502>
200095a0:	6966                	flw	fs2,88(sp)
200095a2:	656c                	flw	fa1,76(a0)
200095a4:	7269642f          	0x7269642f
200095a8:	6365                	lui	t1,0x19
200095aa:	6f74                	flw	fa3,92(a4)
200095ac:	7972                	flw	fs2,60(sp)
200095ae:	6f20                	flw	fs0,88(a4)
200095b0:	6a62                	flw	fs4,24(sp)
200095b2:	6365                	lui	t1,0x19
200095b4:	2074                	fld	fa3,192(s0)
200095b6:	7369                	lui	t1,0xffffa
200095b8:	6920                	flw	fs0,80(a0)
200095ba:	766e                	flw	fa2,248(sp)
200095bc:	6c61                	lui	s8,0x18
200095be:	6469                	lui	s0,0x1a
200095c0:	000a                	c.slli	zero,0x2
200095c2:	0000                	unimp
200095c4:	6854                	flw	fa3,20(s0)
200095c6:	2065                	jal	2000966e <__clz_tab+0x52a>
200095c8:	6870                	flw	fa2,84(s0)
200095ca:	7379                	lui	t1,0xffffe
200095cc:	6369                	lui	t1,0x1a
200095ce:	6c61                	lui	s8,0x18
200095d0:	6420                	flw	fs0,72(s0)
200095d2:	6972                	flw	fs2,28(sp)
200095d4:	6576                	flw	fa0,92(sp)
200095d6:	6920                	flw	fs0,80(a0)
200095d8:	72772073          	csrs	0x727,a4
200095dc:	7469                	lui	s0,0xffffa
200095de:	2065                	jal	20009686 <__clz_tab+0x542>
200095e0:	7270                	flw	fa2,100(a2)
200095e2:	6365746f          	jal	s0,20060c18 <__global_pointer$+0x553f8>
200095e6:	6574                	flw	fa3,76(a0)
200095e8:	0a64                	addi	s1,sp,284
200095ea:	0000                	unimp
200095ec:	6854                	flw	fa3,20(s0)
200095ee:	2065                	jal	20009696 <__clz_tab+0x552>
200095f0:	6f6c                	flw	fa1,92(a4)
200095f2:	61636967          	0x61636967
200095f6:	206c                	fld	fa1,192(s0)
200095f8:	7264                	flw	fs1,100(a2)
200095fa:	7669                	lui	a2,0xffffa
200095fc:	2065                	jal	200096a4 <__clz_tab+0x560>
200095fe:	756e                	flw	fa0,248(sp)
20009600:	626d                	lui	tp,0x1b
20009602:	7265                	lui	tp,0xffff9
20009604:	6920                	flw	fs0,80(a0)
20009606:	6e692073          	csrs	0x6e6,s2
2000960a:	6176                	flw	ft2,92(sp)
2000960c:	696c                	flw	fa1,84(a0)
2000960e:	0a64                	addi	s1,sp,284
20009610:	0000                	unimp
20009612:	0000                	unimp
20009614:	6854                	flw	fa3,20(s0)
20009616:	2065                	jal	200096be <__clz_tab+0x57a>
20009618:	6f76                	flw	ft10,92(sp)
2000961a:	756c                	flw	fa1,108(a0)
2000961c:	656d                	lui	a0,0x1b
2000961e:	6820                	flw	fs0,80(s0)
20009620:	7361                	lui	t1,0xffff8
20009622:	6e20                	flw	fs0,88(a2)
20009624:	6f77206f          	j	2007c51a <__global_pointer$+0x70cfa>
20009628:	6b72                	flw	fs6,28(sp)
2000962a:	6120                	flw	fs0,64(a0)
2000962c:	6572                	flw	fa0,28(sp)
2000962e:	0a61                	addi	s4,s4,24
20009630:	0000                	unimp
20009632:	0000                	unimp
20009634:	6854                	flw	fa3,20(s0)
20009636:	7265                	lui	tp,0xffff9
20009638:	2065                	jal	200096e0 <__clz_tab+0x59c>
2000963a:	7369                	lui	t1,0xffffa
2000963c:	6e20                	flw	fs0,88(a2)
2000963e:	6176206f          	j	2006c454 <__global_pointer$+0x60c34>
20009642:	696c                	flw	fa1,84(a0)
20009644:	2064                	fld	fs1,192(s0)
20009646:	4146                	lw	sp,80(sp)
20009648:	2054                	fld	fa3,128(s0)
2000964a:	6f76                	flw	ft10,92(sp)
2000964c:	756c                	flw	fa1,108(a0)
2000964e:	656d                	lui	a0,0x1b
20009650:	000a                	c.slli	zero,0x2
20009652:	0000                	unimp
20009654:	6854                	flw	fa3,20(s0)
20009656:	2065                	jal	200096fe <__clz_tab+0x5ba>
20009658:	5f66                	lw	t5,120(sp)
2000965a:	6b6d                	lui	s6,0x1b
2000965c:	7366                	flw	ft6,120(sp)
2000965e:	2928                	fld	fa0,80(a0)
20009660:	6120                	flw	fs0,64(a0)
20009662:	6f62                	flw	ft10,24(sp)
20009664:	7472                	flw	fs0,60(sp)
20009666:	6465                	lui	s0,0x19
20009668:	6420                	flw	fs0,72(s0)
2000966a:	6575                	lui	a0,0x1d
2000966c:	7420                	flw	fs0,104(s0)
2000966e:	6e61206f          	j	2001bd54 <__global_pointer$+0x10534>
20009672:	2079                	jal	20009700 <__clz_tab+0x5bc>
20009674:	7270                	flw	fa2,100(a2)
20009676:	656c626f          	jal	tp,200cfccc <__global_pointer$+0xc44ac>
2000967a:	0a6d                	addi	s4,s4,27
2000967c:	0000                	unimp
2000967e:	0000                	unimp
20009680:	6c756f43          	0x6c756f43
20009684:	2064                	fld	fs1,192(s0)
20009686:	6f6e                	flw	ft10,216(sp)
20009688:	2074                	fld	fa3,192(s0)
2000968a:	20746567          	0x20746567
2000968e:	2061                	jal	20009716 <__clz_tab+0x5d2>
20009690:	6e617267          	0x6e617267
20009694:	2074                	fld	fa3,192(s0)
20009696:	6f74                	flw	fa3,92(a4)
20009698:	6120                	flw	fs0,64(a0)
2000969a:	73656363          	bltu	a0,s6,20009dc0 <__init_array_end+0x180>
2000969e:	68742073          	csrs	0x687,s0
200096a2:	2065                	jal	2000974a <__clz_tab+0x606>
200096a4:	6f76                	flw	ft10,92(sp)
200096a6:	756c                	flw	fa1,108(a0)
200096a8:	656d                	lui	a0,0x1b
200096aa:	7720                	flw	fs0,104(a4)
200096ac:	7469                	lui	s0,0xffffa
200096ae:	6968                	flw	fa0,84(a0)
200096b0:	206e                	fld	ft0,216(sp)
200096b2:	6564                	flw	fs1,76(a0)
200096b4:	6966                	flw	fs2,88(sp)
200096b6:	656e                	flw	fa0,216(sp)
200096b8:	2064                	fld	fs1,192(s0)
200096ba:	6570                	flw	fa2,76(a0)
200096bc:	6972                	flw	fs2,28(sp)
200096be:	000a646f          	jal	s0,200af6be <__global_pointer$+0xa3e9e>
200096c2:	0000                	unimp
200096c4:	6854                	flw	fa3,20(s0)
200096c6:	2065                	jal	2000976e <__clz_tab+0x62a>
200096c8:	7265706f          	j	20060dee <__global_pointer$+0x555ce>
200096cc:	7461                	lui	s0,0xffff8
200096ce:	6f69                	lui	t5,0x1a
200096d0:	206e                	fld	ft0,216(sp)
200096d2:	7369                	lui	t1,0xffffa
200096d4:	7220                	flw	fs0,96(a2)
200096d6:	6a65                	lui	s4,0x19
200096d8:	6365                	lui	t1,0x19
200096da:	6574                	flw	fa3,76(a0)
200096dc:	2064                	fld	fs1,192(s0)
200096de:	6361                	lui	t1,0x18
200096e0:	64726f63          	bltu	tp,t2,20009d3e <__init_array_end+0xfe>
200096e4:	6e69                	lui	t3,0x1a
200096e6:	6f742067          	0x6f742067
200096ea:	7420                	flw	fs0,104(s0)
200096ec:	6568                	flw	fa0,76(a0)
200096ee:	6620                	flw	fs0,72(a2)
200096f0:	6c69                	lui	s8,0x1a
200096f2:	2065                	jal	2000979a <__clz_tab+0x656>
200096f4:	72616873          	csrrsi	a6,0x726,2
200096f8:	6e69                	lui	t3,0x1a
200096fa:	6f702067          	0x6f702067
200096fe:	696c                	flw	fa1,84(a0)
20009700:	000a7963          	bgeu	s4,zero,20009712 <__clz_tab+0x5ce>
20009704:	464c                	lw	a1,12(a2)
20009706:	204e                	fld	ft0,208(sp)
20009708:	6b726f77          	0x6b726f77
2000970c:	6e69                	lui	t3,0x1a
2000970e:	75622067          	0x75622067
20009712:	6666                	flw	fa2,88(sp)
20009714:	7265                	lui	tp,0xffff9
20009716:	6320                	flw	fs0,64(a4)
20009718:	646c756f          	jal	a0,200d0d5e <__global_pointer$+0xc553e>
2000971c:	6e20                	flw	fs0,88(a2)
2000971e:	6220746f          	jal	s0,20010d40 <__global_pointer$+0x5520>
20009722:	2065                	jal	200097ca <__clz_tab+0x686>
20009724:	6c61                	lui	s8,0x18
20009726:	6f6c                	flw	fa1,92(a4)
20009728:	65746163          	bltu	s0,s7,20009d6a <__init_array_end+0x12a>
2000972c:	0a64                	addi	s1,sp,284
2000972e:	0000                	unimp
20009730:	754e                	flw	fa0,240(sp)
20009732:	626d                	lui	tp,0x1b
20009734:	7265                	lui	tp,0xffff9
20009736:	6f20                	flw	fs0,88(a4)
20009738:	2066                	fld	ft0,88(sp)
2000973a:	6e65706f          	j	20060e20 <__global_pointer$+0x55600>
2000973e:	6620                	flw	fs0,72(a2)
20009740:	6c69                	lui	s8,0x1a
20009742:	7365                	lui	t1,0xffff9
20009744:	3e20                	fld	fs0,120(a2)
20009746:	4620                	lw	s0,72(a2)
20009748:	5f46                	lw	t5,112(sp)
2000974a:	5346                	lw	t1,112(sp)
2000974c:	4c5f 434f 0a4b      	0xa4b434f4c5f
20009752:	0000                	unimp
20009754:	65766947          	0x65766947
20009758:	206e                	fld	ft0,216(sp)
2000975a:	6170                	flw	fa2,68(a0)
2000975c:	6172                	flw	ft2,28(sp)
2000975e:	656d                	lui	a0,0x1b
20009760:	6574                	flw	fa3,76(a0)
20009762:	2072                	fld	ft0,280(sp)
20009764:	7369                	lui	t1,0xffffa
20009766:	6920                	flw	fs0,80(a0)
20009768:	766e                	flw	fa2,248(sp)
2000976a:	6c61                	lui	s8,0x18
2000976c:	6469                	lui	s0,0x1a
2000976e:	000a                	c.slli	zero,0x2
20009770:	3130                	fld	fa2,96(a0)
20009772:	3332                	fld	ft6,296(sp)
20009774:	3534                	fld	fa3,104(a0)
20009776:	3736                	fld	fa4,360(sp)
20009778:	3938                	fld	fa4,112(a0)
2000977a:	4241                	li	tp,16
2000977c:	46454443          	fmadd.q	fs0,fa0,ft4,fs0,rmm
20009780:	0000                	unimp
20009782:	0000                	unimp
20009784:	2020                	fld	fs0,64(s0)
20009786:	2020                	fld	fs0,64(s0)
20009788:	2020                	fld	fs0,64(s0)
2000978a:	2020                	fld	fs0,64(s0)
2000978c:	2020                	fld	fs0,64(s0)
2000978e:	2020                	fld	fs0,64(s0)
20009790:	2020                	fld	fs0,64(s0)
20009792:	2020                	fld	fs0,64(s0)
20009794:	2020                	fld	fs0,64(s0)
20009796:	0020                	addi	s0,sp,8
20009798:	3130                	fld	fa2,96(a0)
2000979a:	3332                	fld	ft6,296(sp)
2000979c:	3534                	fld	fa3,104(a0)
2000979e:	3736                	fld	fa4,360(sp)
200097a0:	3938                	fld	fa4,112(a0)
200097a2:	0000                	unimp
200097a4:	4146                	lw	sp,80(sp)
200097a6:	3354                	fld	fa3,160(a4)
200097a8:	2032                	fld	ft0,264(sp)
200097aa:	2020                	fld	fs0,64(s0)
200097ac:	0000                	unimp
200097ae:	0000                	unimp
200097b0:	3a2a                	fld	fs4,168(sp)
200097b2:	3e3c                	fld	fa5,120(a2)
200097b4:	227c                	fld	fa5,192(a2)
200097b6:	00007f3f 2c2b0000 	0x2c2b000000007f3f
200097be:	5d5b3d3b          	0x5d5b3d3b
200097c2:	0000                	unimp
200097c4:	4152                	lw	sp,20(sp)
200097c6:	004d                	c.nop	19
200097c8:	00004453          	fadd.s	fs0,ft0,ft0,rmm
200097cc:	5355                	li	t1,-11
200097ce:	0042                	c.slli	zero,0x10

200097d0 <_ZL5ExCvt>:
200097d0:	9a80                	0x9a80
200097d2:	4145                	li	sp,17
200097d4:	418e                	lw	gp,192(sp)
200097d6:	4545808f          	0x4545808f
200097da:	4945                	li	s2,17
200097dc:	4949                	li	s2,18
200097de:	8f8e                	mv	t6,gp
200097e0:	9290                	0x9290
200097e2:	4f92                	lw	t6,4(sp)
200097e4:	4f99                	li	t6,6
200097e6:	5555                	li	a0,-11
200097e8:	9959                	andi	a0,a0,-10
200097ea:	9b9a                	add	s7,s7,t1
200097ec:	9d9c                	0x9d9c
200097ee:	9f9e                	add	t6,t6,t2
200097f0:	4941                	li	s2,16
200097f2:	a5a5554f          	0xa5a5554f
200097f6:	a7a6                	fsd	fs1,456(sp)
200097f8:	a9a8                	fsd	fa0,80(a1)
200097fa:	abaa                	fsd	fa0,464(sp)
200097fc:	adac                	fsd	fa1,88(a1)
200097fe:	afae                	fsd	fa1,472(sp)
20009800:	b1b0                	fsd	fa2,96(a1)
20009802:	b3b2                	fsd	fa2,480(sp)
20009804:	b5b4                	fsd	fa3,104(a1)
20009806:	b7b6                	fsd	fa3,488(sp)
20009808:	b9b8                	fsd	fa4,112(a1)
2000980a:	bbba                	fsd	fa4,496(sp)
2000980c:	bdbc                	fsd	fa5,120(a1)
2000980e:	bfbe                	fsd	fa5,504(sp)
20009810:	c1c0                	sw	s0,4(a1)
20009812:	c3c2                	sw	a6,196(sp)
20009814:	c5c4                	sw	s1,12(a1)
20009816:	c7c6                	sw	a7,204(sp)
20009818:	c9c8                	sw	a0,20(a1)
2000981a:	cbca                	sw	s2,212(sp)
2000981c:	cdcc                	sw	a1,28(a1)
2000981e:	cfce                	sw	s3,220(sp)
20009820:	d1d0                	sw	a2,36(a1)
20009822:	d3d2                	sw	s4,228(sp)
20009824:	d5d4                	sw	a3,44(a1)
20009826:	d7d6                	sw	s5,236(sp)
20009828:	d9d8                	sw	a4,52(a1)
2000982a:	dbda                	sw	s6,244(sp)
2000982c:	dddc                	sw	a5,60(a1)
2000982e:	dfde                	sw	s7,252(sp)
20009830:	e1e0                	fsw	fs0,68(a1)
20009832:	e3e2                	fsw	fs8,196(sp)
20009834:	e5e4                	fsw	fs1,76(a1)
20009836:	e7e6                	fsw	fs9,204(sp)
20009838:	e9e8                	fsw	fa0,84(a1)
2000983a:	ebea                	fsw	fs10,212(sp)
2000983c:	edec                	fsw	fa1,92(a1)
2000983e:	efee                	fsw	fs11,220(sp)
20009840:	f1f0                	fsw	fa2,100(a1)
20009842:	f3f2                	fsw	ft8,228(sp)
20009844:	f5f4                	fsw	fa3,108(a1)
20009846:	f7f6                	fsw	ft9,236(sp)
20009848:	f9f8                	fsw	fa4,116(a1)
2000984a:	fbfa                	fsw	ft10,244(sp)
2000984c:	fdfc                	fsw	fa5,124(a1)
2000984e:	fffe                	fsw	ft11,252(sp)

20009850 <_ZL6LfnOfs>:
20009850:	0301                	addi	t1,t1,0
20009852:	0705                	addi	a4,a4,1
20009854:	0e09                	addi	t3,t3,2
20009856:	1210                	addi	a2,sp,288
20009858:	1614                	addi	a3,sp,800
2000985a:	1c18                	addi	a4,sp,560
2000985c:	001e                	c.slli	zero,0x7
2000985e:	0000                	unimp
20009860:	e034                	fsw	fa3,64(s0)
20009862:	ffff                	0xffff
20009864:	e018                	fsw	fa4,0(s0)
20009866:	ffff                	0xffff
20009868:	e004                	fsw	fs1,0(s0)
2000986a:	ffff                	0xffff
2000986c:	dff0                	sw	a2,124(a5)
2000986e:	ffff                	0xffff
20009870:	dfdc                	sw	a5,60(a5)
20009872:	ffff                	0xffff
20009874:	dfc8                	sw	a0,60(a5)
20009876:	ffff                	0xffff
20009878:	dfb4                	sw	a3,120(a5)
2000987a:	ffff                	0xffff
2000987c:	dfa0                	sw	s0,120(a5)
2000987e:	ffff                	0xffff
20009880:	e04c                	fsw	fa1,4(s0)
20009882:	ffff                	0xffff

20009884 <_ZL5uc437>:
20009884:	00fc00c7          	fmsub.s	ft1,fs8,fa5,ft0,rne
20009888:	00e9                	addi	ra,ra,26
2000988a:	00e2                	slli	ra,ra,0x18
2000988c:	00e4                	addi	s1,sp,76
2000988e:	00e0                	addi	s0,sp,76
20009890:	00e5                	addi	ra,ra,25
20009892:	00ea00e7          	jalr	14(s4) # 1900e <_STACK_SIZE+0x18e1e>
20009896:	00e800eb          	0xe800eb
2000989a:	00ee00ef          	jal	ra,200e98a8 <__global_pointer$+0xde088>
2000989e:	00ec                	addi	a1,sp,76
200098a0:	00c4                	addi	s1,sp,68
200098a2:	00c5                	addi	ra,ra,17
200098a4:	00c9                	addi	ra,ra,18
200098a6:	00e6                	slli	ra,ra,0x19
200098a8:	00c6                	slli	ra,ra,0x11
200098aa:	00f4                	addi	a3,sp,76
200098ac:	00f6                	slli	ra,ra,0x1d
200098ae:	00f2                	slli	ra,ra,0x1c
200098b0:	00f900fb          	0xf900fb
200098b4:	00ff                	0xff
200098b6:	00d6                	slli	ra,ra,0x15
200098b8:	00dc                	addi	a5,sp,68
200098ba:	00a2                	slli	ra,ra,0x8
200098bc:	00a500a3          	sb	a0,1(a0) # 1b001 <_STACK_SIZE+0x1ae11>
200098c0:	019220a7          	fsw	fs9,1(tp) # ffff9001 <__global_pointer$+0xdffed7e1>
200098c4:	00e1                	addi	ra,ra,24
200098c6:	00ed                	addi	ra,ra,27
200098c8:	00fa00f3          	0xfa00f3
200098cc:	00f1                	addi	ra,ra,28
200098ce:	00d1                	addi	ra,ra,20
200098d0:	00aa                	slli	ra,ra,0xa
200098d2:	00ba                	slli	ra,ra,0xe
200098d4:	231000bf 00bd00ac 	0xbd00ac231000bf
200098dc:	00bc                	addi	a5,sp,72
200098de:	00a1                	addi	ra,ra,8
200098e0:	00bb00ab          	0xbb00ab
200098e4:	2591                	jal	20009f28 <__init_array_end+0x2e8>
200098e6:	2592                	fld	fa1,256(sp)
200098e8:	25022593          	slti	a1,tp,592
200098ec:	2524                	fld	fs1,72(a0)
200098ee:	2561                	jal	20009f76 <__init_array_end+0x336>
200098f0:	2562                	fld	fa0,24(sp)
200098f2:	2556                	fld	fa0,336(sp)
200098f4:	2555                	jal	20009f98 <__init_array_end+0x358>
200098f6:	25512563          	0x25512563
200098fa:	255d2557          	0x255d2557
200098fe:	255c                	fld	fa5,136(a0)
20009900:	2510255b          	0x2510255b
20009904:	2514                	fld	fa3,8(a0)
20009906:	2534                	fld	fa3,72(a0)
20009908:	252c                	fld	fa1,72(a0)
2000990a:	251c                	fld	fa5,8(a0)
2000990c:	2500                	fld	fs0,8(a0)
2000990e:	253c                	fld	fa5,72(a0)
20009910:	255e                	fld	fa0,464(sp)
20009912:	255f 255a 2554      	0x2554255a255f
20009918:	2569                	jal	20009fa2 <__init_array_end+0x362>
2000991a:	2566                	fld	fa0,88(sp)
2000991c:	2560                	fld	fs0,200(a0)
2000991e:	2550                	fld	fa2,136(a0)
20009920:	256c                	fld	fa1,200(a0)
20009922:	25682567          	0x25682567
20009926:	2564                	fld	fs1,200(a0)
20009928:	2565                	jal	20009fd0 <__init_array_end+0x390>
2000992a:	2559                	jal	20009fb0 <__init_array_end+0x370>
2000992c:	2558                	fld	fa4,136(a0)
2000992e:	2552                	fld	fa0,272(sp)
20009930:	256b2553          	0x256b2553
20009934:	256a                	fld	fa0,152(sp)
20009936:	2518                	fld	fa4,8(a0)
20009938:	250c                	fld	fa1,8(a0)
2000993a:	2588                	fld	fa0,8(a1)
2000993c:	2584                	fld	fs1,8(a1)
2000993e:	258c                	fld	fa1,8(a1)
20009940:	2590                	fld	fa2,8(a1)
20009942:	2580                	fld	fs0,8(a1)
20009944:	03b1                	addi	t2,t2,12
20009946:	00df 0393 03c0      	0x3c0039300df
2000994c:	03c303a3          	sb	t3,39(t1) # ffffa027 <__global_pointer$+0xdffee807>
20009950:	00b5                	addi	ra,ra,13
20009952:	03c4                	addi	s1,sp,452
20009954:	03a6                	slli	t2,t2,0x9
20009956:	0398                	addi	a4,sp,448
20009958:	03a9                	addi	t2,t2,10
2000995a:	03b4                	addi	a3,sp,456
2000995c:	221e                	fld	ft4,448(sp)
2000995e:	03c6                	slli	t2,t2,0x11
20009960:	03b5                	addi	t2,t2,13
20009962:	2229                	jal	20009a6c <_ZZ11ff_wtoupperE4cvt1+0xe8>
20009964:	2261                	jal	20009aec <_ZZ11ff_wtoupperE4cvt1+0x168>
20009966:	00b1                	addi	ra,ra,12
20009968:	2265                	jal	20009b10 <_ZZ11ff_wtoupperE4cvt1+0x18c>
2000996a:	2264                	fld	fs1,192(a2)
2000996c:	2320                	fld	fs0,64(a4)
2000996e:	2321                	jal	20009e76 <__init_array_end+0x236>
20009970:	224800f7          	0x224800f7
20009974:	00b0                	addi	a2,sp,72
20009976:	2219                	jal	20009a7c <_ZZ11ff_wtoupperE4cvt1+0xf8>
20009978:	221a00b7          	lui	ra,0x221a0
2000997c:	207f                	0x207f
2000997e:	00b2                	slli	ra,ra,0xc
20009980:	25a0                	fld	fs0,72(a1)
20009982:	00a0                	addi	s0,sp,72

20009984 <_ZZ11ff_wtoupperE4cvt1>:
20009984:	0061                	c.nop	24
20009986:	031a                	slli	t1,t1,0x6
20009988:	00e0                	addi	s0,sp,76
2000998a:	00f80317          	auipc	t1,0xf80
2000998e:	00ff0307          	0xff0307
20009992:	0001                	nop
20009994:	0178                	addi	a4,sp,140
20009996:	0100                	addi	s0,sp,128
20009998:	0130                	addi	a2,sp,136
2000999a:	0132                	slli	sp,sp,0xc
2000999c:	0106                	slli	sp,sp,0x1
2000999e:	0139                	addi	sp,sp,14
200099a0:	0110                	addi	a2,sp,128
200099a2:	014a                	slli	sp,sp,0x12
200099a4:	012e                	slli	sp,sp,0xb
200099a6:	0179                	addi	sp,sp,30
200099a8:	0106                	slli	sp,sp,0x1
200099aa:	0180                	addi	s0,sp,192
200099ac:	004d                	c.nop	19
200099ae:	01810243          	fmadd.s	ft4,ft2,fs8,ft0,rne
200099b2:	0182                	c.slli64	gp
200099b4:	0182                	c.slli64	gp
200099b6:	0184                	addi	s1,sp,192
200099b8:	0184                	addi	s1,sp,192
200099ba:	0186                	slli	gp,gp,0x1
200099bc:	01870187          	0x1870187
200099c0:	0189                	addi	gp,gp,2
200099c2:	018a                	slli	gp,gp,0x2
200099c4:	018b018b          	0x18b018b
200099c8:	018d                	addi	gp,gp,3
200099ca:	018e                	slli	gp,gp,0x3
200099cc:	0190018f          	0x190018f
200099d0:	0191                	addi	gp,gp,4
200099d2:	0191                	addi	gp,gp,4
200099d4:	01940193          	addi	gp,s0,25 # 1a019 <_STACK_SIZE+0x19e29>
200099d8:	01f6                	slli	gp,gp,0x1d
200099da:	0196                	slli	gp,gp,0x5
200099dc:	01980197          	auipc	gp,0x1980
200099e0:	0198                	addi	a4,sp,192
200099e2:	023d                	addi	tp,tp,15
200099e4:	019c019b          	0x19c019b
200099e8:	019d                	addi	gp,gp,7
200099ea:	0220                	addi	s0,sp,264
200099ec:	019f 01a0 01a0      	0x1a001a0019f
200099f2:	01a2                	slli	gp,gp,0x8
200099f4:	01a2                	slli	gp,gp,0x8
200099f6:	01a4                	addi	s1,sp,200
200099f8:	01a4                	addi	s1,sp,200
200099fa:	01a6                	slli	gp,gp,0x9
200099fc:	01a701a7          	0x1a701a7
20009a00:	01a9                	addi	gp,gp,10
20009a02:	01aa                	slli	gp,gp,0xa
20009a04:	01ac01ab          	0x1ac01ab
20009a08:	01ac                	addi	a1,sp,200
20009a0a:	01ae                	slli	gp,gp,0xb
20009a0c:	01af01af          	0x1af01af
20009a10:	01b1                	addi	gp,gp,12
20009a12:	01b2                	slli	gp,gp,0xc
20009a14:	01b301b3          	add	gp,t1,s11
20009a18:	01b5                	addi	gp,gp,13
20009a1a:	01b5                	addi	gp,gp,13
20009a1c:	01b801b7          	lui	gp,0x1b80
20009a20:	01b8                	addi	a4,sp,200
20009a22:	01ba                	slli	gp,gp,0xe
20009a24:	01bc01bb          	0x1bc01bb
20009a28:	01bc                	addi	a5,sp,200
20009a2a:	01be                	slli	gp,gp,0xf
20009a2c:	01c001f7          	0x1c001f7
20009a30:	01c1                	addi	gp,gp,16
20009a32:	01c2                	slli	gp,gp,0x10
20009a34:	01c401c3          	fmadd.s	ft3,fs0,ft8,ft0,rne
20009a38:	01c5                	addi	gp,gp,17
20009a3a:	01c4                	addi	s1,sp,196
20009a3c:	01c801c7          	fmsub.s	ft3,fa6,ft8,ft0,rne
20009a40:	01ca01c7          	fmsub.s	ft3,fs4,ft8,ft0,rne
20009a44:	01ca01cb          	fnmsub.s	ft3,fs4,ft8,ft0,rne
20009a48:	01cd                	addi	gp,gp,19
20009a4a:	0110                	addi	a2,sp,128
20009a4c:	01dd                	addi	gp,gp,23
20009a4e:	0001                	nop
20009a50:	018e                	slli	gp,gp,0x3
20009a52:	01de                	slli	gp,gp,0x17
20009a54:	0112                	slli	sp,sp,0x4
20009a56:	000301f3          	0x301f3
20009a5a:	01f1                	addi	gp,gp,28
20009a5c:	01f4                	addi	a3,sp,204
20009a5e:	01f4                	addi	a3,sp,204
20009a60:	01f8                	addi	a4,sp,204
20009a62:	0128                	addi	a0,sp,136
20009a64:	0222                	slli	tp,tp,0x8
20009a66:	0112                	slli	sp,sp,0x4
20009a68:	023a                	slli	tp,tp,0xe
20009a6a:	0009                	c.nop	2
20009a6c:	2c65                	jal	20009d24 <__init_array_end+0xe4>
20009a6e:	023b023b          	0x23b023b
20009a72:	023d                	addi	tp,tp,15
20009a74:	2c66                	fld	fs8,88(sp)
20009a76:	0240023f 02410241 	0x24102410240023f
20009a7e:	0246                	slli	tp,tp,0x11
20009a80:	010a                	slli	sp,sp,0x2
20009a82:	00400253          	fadd.s	ft4,ft0,ft4,rne
20009a86:	0181                	addi	gp,gp,0
20009a88:	0186                	slli	gp,gp,0x1
20009a8a:	0255                	addi	tp,tp,21
20009a8c:	0189                	addi	gp,gp,2
20009a8e:	018a                	slli	gp,gp,0x2
20009a90:	0258                	addi	a4,sp,260
20009a92:	025a018f          	0x25a018f
20009a96:	0190                	addi	a2,sp,192
20009a98:	025c                	addi	a5,sp,260
20009a9a:	025d                	addi	tp,tp,23
20009a9c:	025e                	slli	tp,tp,0x17
20009a9e:	025f 0193 0261      	0x2610193025f
20009aa4:	0262                	slli	tp,tp,0x18
20009aa6:	0194                	addi	a3,sp,192
20009aa8:	0264                	addi	s1,sp,268
20009aaa:	0265                	addi	tp,tp,25
20009aac:	0266                	slli	tp,tp,0x19
20009aae:	01970267          	jalr	tp,25(a4)
20009ab2:	0196                	slli	gp,gp,0x5
20009ab4:	026a                	slli	tp,tp,0x1a
20009ab6:	2c62                	fld	fs8,24(sp)
20009ab8:	026c                	addi	a1,sp,268
20009aba:	026d                	addi	tp,tp,27
20009abc:	026e                	slli	tp,tp,0x1b
20009abe:	019c                	addi	a5,sp,192
20009ac0:	0270                	addi	a2,sp,268
20009ac2:	0271                	addi	tp,tp,28
20009ac4:	019d                	addi	gp,gp,7
20009ac6:	02740273          	0x2740273
20009aca:	019f 0276 0277      	0x2770276019f
20009ad0:	0278                	addi	a4,sp,268
20009ad2:	0279                	addi	tp,tp,30
20009ad4:	027a                	slli	tp,tp,0x1e
20009ad6:	027c027b          	0x27c027b
20009ada:	2c64                	fld	fs1,216(s0)
20009adc:	027e                	slli	tp,tp,0x1f
20009ade:	027f                	0x27f
20009ae0:	01a6                	slli	gp,gp,0x9
20009ae2:	0281                	addi	t0,t0,0
20009ae4:	0282                	c.slli64	t0
20009ae6:	01a9                	addi	gp,gp,10
20009ae8:	0284                	addi	s1,sp,320
20009aea:	0285                	addi	t0,t0,1
20009aec:	0286                	slli	t0,t0,0x1
20009aee:	01ae0287          	0x1ae0287
20009af2:	0244                	addi	s1,sp,260
20009af4:	01b1                	addi	gp,gp,12
20009af6:	01b2                	slli	gp,gp,0xc
20009af8:	0245                	addi	tp,tp,17
20009afa:	028d                	addi	t0,t0,3
20009afc:	028e                	slli	t0,t0,0x3
20009afe:	0290028f          	0x290028f
20009b02:	0291                	addi	t0,t0,4
20009b04:	037b01b7          	lui	gp,0x37b0
20009b08:	03fd0003          	lb	zero,63(s10) # 1803f <_STACK_SIZE+0x17e4f>
20009b0c:	03fe                	slli	t2,t2,0x1f
20009b0e:	03ff                	0x3ff
20009b10:	03ac                	addi	a1,sp,456
20009b12:	0004                	0x4
20009b14:	0386                	slli	t2,t2,0x1
20009b16:	0388                	addi	a0,sp,448
20009b18:	0389                	addi	t2,t2,2
20009b1a:	038a                	slli	t2,t2,0x2
20009b1c:	03b1                	addi	t2,t2,12
20009b1e:	0311                	addi	t1,t1,4
20009b20:	03c2                	slli	t2,t2,0x10
20009b22:	0002                	c.slli64	zero
20009b24:	03a303a3          	sb	s10,39(t1) # 20f899b1 <__global_pointer$+0xf7e191>
20009b28:	03c4                	addi	s1,sp,452
20009b2a:	0308                	addi	a0,sp,384
20009b2c:	03cc                	addi	a1,sp,452
20009b2e:	038c0003          	lb	zero,56(s8) # 18038 <_STACK_SIZE+0x17e48>
20009b32:	038e                	slli	t2,t2,0x3
20009b34:	03d8038f          	0x3d8038f
20009b38:	0118                	addi	a4,sp,128
20009b3a:	03f2                	slli	t2,t2,0x1c
20009b3c:	000a                	c.slli	zero,0x2
20009b3e:	03f9                	addi	t2,t2,30
20009b40:	03f403f3          	0x3f403f3
20009b44:	03f5                	addi	t2,t2,29
20009b46:	03f6                	slli	t2,t2,0x1d
20009b48:	03f703f7          	0x3f703f7
20009b4c:	03f9                	addi	t2,t2,30
20009b4e:	03fa                	slli	t2,t2,0x1e
20009b50:	03fa                	slli	t2,t2,0x1e
20009b52:	0430                	addi	a2,sp,520
20009b54:	0320                	addi	s0,sp,392
20009b56:	0450                	addi	a2,sp,516
20009b58:	0710                	addi	a2,sp,896
20009b5a:	0460                	addi	s0,sp,524
20009b5c:	0122                	slli	sp,sp,0x8
20009b5e:	048a                	slli	s1,s1,0x2
20009b60:	0136                	slli	sp,sp,0xd
20009b62:	04c1                	addi	s1,s1,16
20009b64:	010e                	slli	sp,sp,0x3
20009b66:	000104cf          	fnmadd.s	fs1,ft2,ft0,ft0,rne
20009b6a:	04c0                	addi	s0,sp,580
20009b6c:	04d0                	addi	a2,sp,580
20009b6e:	0144                	addi	s1,sp,132
20009b70:	0561                	addi	a0,a0,24
20009b72:	0426                	slli	s0,s0,0x9
20009b74:	0000                	unimp
	...

20009b78 <_ZZ11ff_wtoupperE4cvt2>:
20009b78:	1d7d                	addi	s10,s10,-1
20009b7a:	0001                	nop
20009b7c:	1e002c63          	0x1e002c63
20009b80:	0196                	slli	gp,gp,0x5
20009b82:	1ea0                	addi	s0,sp,888
20009b84:	015a                	slli	sp,sp,0x16
20009b86:	1f00                	addi	s0,sp,944
20009b88:	0608                	addi	a0,sp,768
20009b8a:	1f10                	addi	a2,sp,944
20009b8c:	0606                	slli	a2,a2,0x1
20009b8e:	1f20                	addi	s0,sp,952
20009b90:	0608                	addi	a0,sp,768
20009b92:	1f30                	addi	a2,sp,952
20009b94:	0608                	addi	a0,sp,768
20009b96:	1f40                	addi	s0,sp,948
20009b98:	0606                	slli	a2,a2,0x1
20009b9a:	1f51                	addi	t5,t5,-12
20009b9c:	1f590007          	0x1f590007
20009ba0:	1f52                	slli	t5,t5,0x34
20009ba2:	1f541f5b          	0x1f541f5b
20009ba6:	1f5d                	addi	t5,t5,-9
20009ba8:	1f56                	slli	t5,t5,0x35
20009baa:	1f5f 1f60 0608      	0x6081f601f5f
20009bb0:	1f70                	addi	a2,sp,956
20009bb2:	000e                	c.slli	zero,0x3
20009bb4:	1fba                	slli	t6,t6,0x2e
20009bb6:	1fc81fbb          	0x1fc81fbb
20009bba:	1fc9                	addi	t6,t6,-14
20009bbc:	1fca                	slli	t6,t6,0x32
20009bbe:	1fda1fcb          	fnmsub.q	ft11,fs4,ft9,ft3,rtz
20009bc2:	1ff81fdb          	0x1ff81fdb
20009bc6:	1ff9                	addi	t6,t6,-2
20009bc8:	1fea                	slli	t6,t6,0x3a
20009bca:	1ffa1feb          	0x1ffa1feb
20009bce:	1f801ffb          	0x1f801ffb
20009bd2:	0608                	addi	a0,sp,768
20009bd4:	1f90                	addi	a2,sp,1008
20009bd6:	0608                	addi	a0,sp,768
20009bd8:	1fa0                	addi	s0,sp,1016
20009bda:	0608                	addi	a0,sp,768
20009bdc:	1fb0                	addi	a2,sp,1016
20009bde:	0004                	0x4
20009be0:	1fb8                	addi	a4,sp,1016
20009be2:	1fb9                	addi	t6,t6,-18
20009be4:	1fb2                	slli	t6,t6,0x2c
20009be6:	1fbc                	addi	a5,sp,1016
20009be8:	1fcc                	addi	a1,sp,1012
20009bea:	0001                	nop
20009bec:	1fd01fc3          	fmadd.q	ft11,ft0,ft9,ft3,rtz
20009bf0:	0602                	c.slli64	a2
20009bf2:	1fe0                	addi	s0,sp,1020
20009bf4:	0602                	c.slli64	a2
20009bf6:	1fe5                	addi	t6,t6,-7
20009bf8:	0001                	nop
20009bfa:	1fec                	addi	a1,sp,1020
20009bfc:	00011ff3          	csrrw	t6,ustatus,sp
20009c00:	1ffc                	addi	a5,sp,1020
20009c02:	214e                	fld	ft2,208(sp)
20009c04:	0001                	nop
20009c06:	2132                	fld	ft2,264(sp)
20009c08:	2170                	fld	fa2,192(a0)
20009c0a:	0210                	addi	a2,sp,256
20009c0c:	2184                	fld	fs1,0(a1)
20009c0e:	0001                	nop
20009c10:	24d02183          	lw	gp,589(zero) # 24d <_STACK_SIZE+0x5d>
20009c14:	051a                	slli	a0,a0,0x6
20009c16:	2c30                	fld	fa2,88(s0)
20009c18:	2c60042f          	0x2c60042f
20009c1c:	0102                	c.slli64	sp
20009c1e:	01062c67          	0x1062c67
20009c22:	2c75                	jal	20009ede <__init_array_end+0x29e>
20009c24:	0102                	c.slli64	sp
20009c26:	2c80                	fld	fs0,24(s1)
20009c28:	0164                	addi	s1,sp,140
20009c2a:	2d00                	fld	fs0,24(a0)
20009c2c:	0826                	slli	a6,a6,0x9
20009c2e:	ff41                	bnez	a4,20009bc6 <_ZZ11ff_wtoupperE4cvt2+0x4e>
20009c30:	031a                	slli	t1,t1,0x6
	...

Disassembly of section .srodata:

20009c34 <_global_impure_ptr>:
20009c34:	a6f8                	fsd	fa4,200(a3)
20009c36:	2000                	fld	fs0,0(s0)

Disassembly of section .init_array:

20009c38 <__init_array_start>:
20009c38:	2c50                	fld	fa2,152(s0)
20009c3a:	2000                	fld	fs0,0(s0)
20009c3c:	46fc                	lw	a5,76(a3)
20009c3e:	2000                	fld	fs0,0(s0)

Disassembly of section .eh_frame:

20009c40 <.eh_frame>:
20009c40:	0010                	0x10
20009c42:	0000                	unimp
20009c44:	0000                	unimp
20009c46:	0000                	unimp
20009c48:	00527a03          	0x527a03
20009c4c:	7c01                	lui	s8,0xfffe0
20009c4e:	0101                	addi	sp,sp,0
20009c50:	00020d1b          	0x20d1b
20009c54:	0010                	0x10
20009c56:	0000                	unimp
20009c58:	0018                	0x18
20009c5a:	0000                	unimp
20009c5c:	63a4                	flw	fs1,64(a5)
20009c5e:	ffff                	0xffff
20009c60:	0064                	addi	s1,sp,12
20009c62:	0000                	unimp
20009c64:	0000                	unimp
20009c66:	0000                	unimp
20009c68:	0010                	0x10
20009c6a:	0000                	unimp
20009c6c:	002c                	addi	a1,sp,8
20009c6e:	0000                	unimp
20009c70:	63f4                	flw	fa3,68(a5)
20009c72:	ffff                	0xffff
	...
20009c7c:	003c                	addi	a5,sp,8
20009c7e:	0000                	unimp
20009c80:	0040                	addi	s0,sp,4
20009c82:	0000                	unimp
20009c84:	83f8                	0x83f8
20009c86:	ffff                	0xffff
20009c88:	01a4                	addi	s1,sp,200
20009c8a:	0000                	unimp
20009c8c:	4400                	lw	s0,8(s0)
20009c8e:	200e                	fld	ft0,192(sp)
20009c90:	9344                	0x9344
20009c92:	5005                	c.li	zero,-31
20009c94:	0492                	slli	s1,s1,0x4
20009c96:	8168                	0x8168
20009c98:	8801                	andi	s0,s0,0
20009c9a:	8902                	jr	s2
20009c9c:	95069403          	lh	s0,-1712(a3)
20009ca0:	48089607          	0x48089607
20009ca4:	c10a                	sw	sp,128(sp)
20009ca6:	c844                	sw	s1,20(s0)
20009ca8:	c944                	sw	s1,20(a0)
20009caa:	d244                	sw	s1,36(a2)
20009cac:	d344                	sw	s1,36(a4)
20009cae:	d444                	sw	s1,44(s0)
20009cb0:	d544                	sw	s1,44(a0)
20009cb2:	d644                	sw	s1,44(a2)
20009cb4:	0e44                	addi	s1,sp,788
20009cb6:	4400                	lw	s0,8(s0)
20009cb8:	0000000b          	0xb
20009cbc:	0010                	0x10
20009cbe:	0000                	unimp
20009cc0:	0080                	addi	s0,sp,64
20009cc2:	0000                	unimp
20009cc4:	855c                	0x855c
20009cc6:	ffff                	0xffff
20009cc8:	0068                	addi	a0,sp,12
20009cca:	0000                	unimp
20009ccc:	0000                	unimp
20009cce:	0000                	unimp
20009cd0:	0014                	0x14
20009cd2:	0000                	unimp
20009cd4:	0094                	addi	a3,sp,64
20009cd6:	0000                	unimp
20009cd8:	85b0                	0x85b0
20009cda:	ffff                	0xffff
20009cdc:	00a8                	addi	a0,sp,72
20009cde:	0000                	unimp
20009ce0:	5400                	lw	s0,40(s0)
20009ce2:	200e                	fld	ft0,192(sp)
20009ce4:	9002                	ebreak
20009ce6:	000e                	c.slli	zero,0x3
20009ce8:	0014                	0x14
20009cea:	0000                	unimp
20009cec:	00ac                	addi	a1,sp,72
20009cee:	0000                	unimp
20009cf0:	8640                	0x8640
20009cf2:	ffff                	0xffff
20009cf4:	0020                	addi	s0,sp,8
20009cf6:	0000                	unimp
20009cf8:	4400                	lw	s0,8(s0)
20009cfa:	100e                	c.slli	zero,0x23
20009cfc:	0e58                	addi	a4,sp,788
20009cfe:	0000                	unimp
20009d00:	001c                	0x1c
20009d02:	0000                	unimp
20009d04:	00c4                	addi	s1,sp,68
20009d06:	0000                	unimp
20009d08:	8648                	0x8648
20009d0a:	ffff                	0xffff
20009d0c:	0068                	addi	a0,sp,12
20009d0e:	0000                	unimp
20009d10:	4c00                	lw	s0,24(s0)
20009d12:	300e                	fld	ft0,224(sp)
20009d14:	8158                	0x8158
20009d16:	0201                	addi	tp,tp,0
20009d18:	c13c                	sw	a5,64(a0)
20009d1a:	0e44                	addi	s1,sp,788
20009d1c:	0000                	unimp
20009d1e:	0000                	unimp
20009d20:	0054                	addi	a3,sp,4
20009d22:	0000                	unimp
20009d24:	00e4                	addi	s1,sp,76
20009d26:	0000                	unimp
20009d28:	8690                	0x8690
20009d2a:	ffff                	0xffff
20009d2c:	02d8                	addi	a4,sp,324
20009d2e:	0000                	unimp
20009d30:	4400                	lw	s0,8(s0)
20009d32:	b00e                	fsd	ft3,32(sp)
20009d34:	6401                	0x6401
20009d36:	0288                	addi	a0,sp,320
20009d38:	0181                	addi	gp,gp,0
20009d3a:	0389                	addi	t2,t2,2
20009d3c:	0492                	slli	s1,s1,0x4
20009d3e:	06940593          	addi	a1,s0,105
20009d42:	0795                	addi	a5,a5,5
20009d44:	0896                	slli	a7,a7,0x5
20009d46:	0a7c0997          	auipc	s3,0xa7c0
20009d4a:	44c8                	lw	a0,12(s1)
20009d4c:	44c1                	li	s1,16
20009d4e:	44c9                	li	s1,18
20009d50:	44d2                	lw	s1,20(sp)
20009d52:	44d444d3          	0x44d444d3
20009d56:	44d5                	li	s1,21
20009d58:	44d6                	lw	s1,84(sp)
20009d5a:	000e4cd7          	0xe4cd7
20009d5e:	0b44                	addi	s1,sp,404
20009d60:	c8021803          	lh	a6,-896(tp) # fffffc80 <__global_pointer$+0xdfff4460>
20009d64:	c144                	sw	s1,4(a0)
20009d66:	c944                	sw	s1,20(a0)
20009d68:	d244                	sw	s1,36(a2)
20009d6a:	d344                	sw	s1,36(a4)
20009d6c:	d444                	sw	s1,44(s0)
20009d6e:	d644                	sw	s1,44(a2)
20009d70:	d744                	sw	s1,44(a4)
20009d72:	d548                	sw	a0,44(a0)
20009d74:	0e44                	addi	s1,sp,788
20009d76:	0000                	unimp
20009d78:	0028                	addi	a0,sp,8
20009d7a:	0000                	unimp
20009d7c:	013c                	addi	a5,sp,136
20009d7e:	0000                	unimp
20009d80:	8910                	0x8910
20009d82:	ffff                	0xffff
20009d84:	00b4                	addi	a3,sp,72
20009d86:	0000                	unimp
20009d88:	5400                	lw	s0,40(s0)
20009d8a:	f00e                	fsw	ft3,32(sp)
20009d8c:	4804                	lw	s1,16(s0)
20009d8e:	0288                	addi	a0,sp,320
20009d90:	8154                	0x8154
20009d92:	8901                	andi	a0,a0,0
20009d94:	0a540203          	lb	tp,165(s0)
20009d98:	44c1                	li	s1,16
20009d9a:	44c8                	lw	a0,12(s1)
20009d9c:	44c9                	li	s1,18
20009d9e:	000e                	c.slli	zero,0x3
20009da0:	0b44                	addi	s1,sp,404
20009da2:	0000                	unimp
20009da4:	0048                	addi	a0,sp,4
20009da6:	0000                	unimp
20009da8:	0168                	addi	a0,sp,140
20009daa:	0000                	unimp
20009dac:	8998                	0x8998
20009dae:	ffff                	0xffff
20009db0:	0144                	addi	s1,sp,132
20009db2:	0000                	unimp
20009db4:	4400                	lw	s0,8(s0)
20009db6:	800e                	c.mv	zero,gp
20009db8:	02884403          	lbu	s0,40(a6)
20009dbc:	954c                	0x954c
20009dbe:	01817007          	0x1817007
20009dc2:	0389                	addi	t2,t2,2
20009dc4:	0492                	slli	s1,s1,0x4
20009dc6:	06940593          	addi	a1,s0,105
20009dca:	0896                	slli	a7,a7,0x5
20009dcc:	0a980997          	auipc	s3,0xa980
20009dd0:	0b99                	addi	s7,s7,6
20009dd2:	4802                	lw	a6,0(sp)
20009dd4:	c10a                	sw	sp,128(sp)
20009dd6:	c844                	sw	s1,20(s0)
20009dd8:	c944                	sw	s1,20(a0)
20009dda:	d244                	sw	s1,36(a2)
20009ddc:	d344                	sw	s1,36(a4)
20009dde:	d444                	sw	s1,44(s0)
20009de0:	d544                	sw	s1,44(a0)
20009de2:	d644                	sw	s1,44(a2)
20009de4:	d744                	sw	s1,44(a4)
20009de6:	d844                	sw	s1,52(s0)
20009de8:	d944                	sw	s1,52(a0)
20009dea:	0e44                	addi	s1,sp,788
20009dec:	4400                	lw	s0,8(s0)
20009dee:	002c000b          	0x2c000b
20009df2:	0000                	unimp
20009df4:	01b4                	addi	a3,sp,200
20009df6:	0000                	unimp
20009df8:	8a90                	0x8a90
20009dfa:	ffff                	0xffff
20009dfc:	03c8                	addi	a0,sp,452
20009dfe:	0000                	unimp
20009e00:	4400                	lw	s0,8(s0)
20009e02:	500e                	0x500e
20009e04:	817c                	0x817c
20009e06:	8801                	andi	s0,s0,0
20009e08:	8902                	jr	s2
20009e0a:	93049203          	lh	tp,-1744(s1)
20009e0e:	9605                	srai	a2,a2,0x21
20009e10:	9708                	0x9708
20009e12:	9409                	srai	s0,s0,0x22
20009e14:	9506                	add	a0,a0,ra
20009e16:	990a9807          	0x990a9807
20009e1a:	9b0c9a0b          	0x9b0c9a0b
20009e1e:	000d                	c.nop	3
20009e20:	0010                	0x10
20009e22:	0000                	unimp
20009e24:	01e4                	addi	s1,sp,204
20009e26:	0000                	unimp
20009e28:	8e28                	0x8e28
20009e2a:	ffff                	0xffff
20009e2c:	0020                	addi	s0,sp,8
20009e2e:	0000                	unimp
20009e30:	0000                	unimp
20009e32:	0000                	unimp
20009e34:	0010                	0x10
20009e36:	0000                	unimp
20009e38:	01f8                	addi	a4,sp,204
20009e3a:	0000                	unimp
20009e3c:	8e34                	0x8e34
20009e3e:	ffff                	0xffff
20009e40:	0004                	0x4
20009e42:	0000                	unimp
20009e44:	0000                	unimp
20009e46:	0000                	unimp
20009e48:	0010                	0x10
20009e4a:	0000                	unimp
20009e4c:	020c                	addi	a1,sp,256
20009e4e:	0000                	unimp
20009e50:	8e24                	0x8e24
20009e52:	ffff                	0xffff
20009e54:	0510                	addi	a2,sp,640
20009e56:	0000                	unimp
20009e58:	0000                	unimp
20009e5a:	0000                	unimp
20009e5c:	0024                	addi	s1,sp,8
20009e5e:	0000                	unimp
20009e60:	0220                	addi	s0,sp,264
20009e62:	0000                	unimp
20009e64:	9320                	0x9320
20009e66:	ffff                	0xffff
20009e68:	0084                	addi	s1,sp,64
20009e6a:	0000                	unimp
20009e6c:	4400                	lw	s0,8(s0)
20009e6e:	100e                	c.slli	zero,0x23
20009e70:	894c                	0x894c
20009e72:	88018103          	lb	sp,-1920(gp) # 37af880 <_STACK_SIZE+0x37af690>
20009e76:	0202                	c.slli64	tp
20009e78:	c160                	sw	s0,68(a0)
20009e7a:	c848                	sw	a0,20(s0)
20009e7c:	c944                	sw	s1,20(a0)
20009e7e:	0e44                	addi	s1,sp,788
20009e80:	0000                	unimp
20009e82:	0000                	unimp
20009e84:	0028                	addi	a0,sp,8
20009e86:	0000                	unimp
20009e88:	0248                	addi	a0,sp,260
20009e8a:	0000                	unimp
20009e8c:	937c                	0x937c
20009e8e:	ffff                	0xffff
20009e90:	0130                	addi	a2,sp,136
20009e92:	0000                	unimp
20009e94:	4400                	lw	s0,8(s0)
20009e96:	100e                	c.slli	zero,0x23
20009e98:	8950                	0x8950
20009e9a:	81049203          	lh	tp,-2032(s1)
20009e9e:	8801                	andi	s0,s0,0
20009ea0:	0302                	c.slli64	t1
20009ea2:	0104                	addi	s1,sp,128
20009ea4:	48c1                	li	a7,16
20009ea6:	44c8                	lw	a0,12(s1)
20009ea8:	44c9                	li	s1,18
20009eaa:	44d2                	lw	s1,20(sp)
20009eac:	000e                	c.slli	zero,0x3
20009eae:	0000                	unimp
20009eb0:	002c                	addi	a1,sp,8
20009eb2:	0000                	unimp
20009eb4:	0274                	addi	a3,sp,268
20009eb6:	0000                	unimp
20009eb8:	9480                	0x9480
20009eba:	ffff                	0xffff
20009ebc:	00dc                	addi	a5,sp,68
20009ebe:	0000                	unimp
20009ec0:	4400                	lw	s0,8(s0)
20009ec2:	200e                	fld	ft0,192(sp)
20009ec4:	9354                	0x9354
20009ec6:	8105                	srli	a0,a0,0x1
20009ec8:	8801                	andi	s0,s0,0
20009eca:	8902                	jr	s2
20009ecc:	02049203          	lh	tp,32(s1)
20009ed0:	c1a8                	sw	a0,64(a1)
20009ed2:	c848                	sw	a0,20(s0)
20009ed4:	c944                	sw	s1,20(a0)
20009ed6:	d244                	sw	s1,36(a2)
20009ed8:	d344                	sw	s1,36(a4)
20009eda:	0e44                	addi	s1,sp,788
20009edc:	0000                	unimp
20009ede:	0000                	unimp
20009ee0:	0024                	addi	s1,sp,8
20009ee2:	0000                	unimp
20009ee4:	02a4                	addi	s1,sp,328
20009ee6:	0000                	unimp
20009ee8:	952c                	0x952c
20009eea:	ffff                	0xffff
20009eec:	0084                	addi	s1,sp,64
20009eee:	0000                	unimp
20009ef0:	4400                	lw	s0,8(s0)
20009ef2:	100e                	c.slli	zero,0x23
20009ef4:	894c                	0x894c
20009ef6:	88018103          	lb	sp,-1920(gp) # 2000b0a0 <Fs+0x48>
20009efa:	0202                	c.slli64	tp
20009efc:	c160                	sw	s0,68(a0)
20009efe:	c848                	sw	a0,20(s0)
20009f00:	c944                	sw	s1,20(a0)
20009f02:	0e44                	addi	s1,sp,788
20009f04:	0000                	unimp
20009f06:	0000                	unimp
20009f08:	002c                	addi	a1,sp,8
20009f0a:	0000                	unimp
20009f0c:	02cc                	addi	a1,sp,324
20009f0e:	0000                	unimp
20009f10:	9588                	0x9588
20009f12:	ffff                	0xffff
20009f14:	0134                	addi	a3,sp,136
20009f16:	0000                	unimp
20009f18:	4400                	lw	s0,8(s0)
20009f1a:	200e                	fld	ft0,192(sp)
20009f1c:	8854                	0x8854
20009f1e:	9202                	jalr	tp
20009f20:	9304                	0x9304
20009f22:	8105                	srli	a0,a0,0x1
20009f24:	8901                	andi	a0,a0,0
20009f26:	0aa40203          	lb	tp,170(s0)
20009f2a:	44c1                	li	s1,16
20009f2c:	44c8                	lw	a0,12(s1)
20009f2e:	44d2                	lw	s1,20(sp)
20009f30:	44c948d3          	0x44c948d3
20009f34:	000e                	c.slli	zero,0x3
20009f36:	0b44                	addi	s1,sp,404
20009f38:	0044                	addi	s1,sp,4
20009f3a:	0000                	unimp
20009f3c:	02fc                	addi	a5,sp,332
20009f3e:	0000                	unimp
20009f40:	968c                	0x968c
20009f42:	ffff                	0xffff
20009f44:	00b4                	addi	a3,sp,72
20009f46:	0000                	unimp
20009f48:	4800                	lw	s0,16(s0)
20009f4a:	b00e                	fsd	ft3,32(sp)
20009f4c:	6004                	flw	fs1,0(s0)
20009f4e:	0288                	addi	a0,sp,320
20009f50:	0389                	addi	t2,t2,2
20009f52:	0492                	slli	s1,s1,0x4
20009f54:	06940593          	addi	a1,s0,105
20009f58:	0795                	addi	a5,a5,5
20009f5a:	0896                	slli	a7,a7,0x5
20009f5c:	0181                	addi	gp,gp,0
20009f5e:	5802                	lw	a6,32(sp)
20009f60:	c10a                	sw	sp,128(sp)
20009f62:	c844                	sw	s1,20(s0)
20009f64:	c944                	sw	s1,20(a0)
20009f66:	d244                	sw	s1,36(a2)
20009f68:	d344                	sw	s1,36(a4)
20009f6a:	d444                	sw	s1,44(s0)
20009f6c:	d544                	sw	s1,44(a0)
20009f6e:	d644                	sw	s1,44(a2)
20009f70:	0e44                	addi	s1,sp,788
20009f72:	4400                	lw	s0,8(s0)
20009f74:	000e480b          	0xe480b
20009f78:	c8c1                	beqz	s1,2000a008 <__init_array_end+0x3c8>
20009f7a:	d2c9                	beqz	a3,20009efc <__init_array_end+0x2bc>
20009f7c:	d6d5d4d3          	0xd6d5d4d3
20009f80:	0024                	addi	s1,sp,8
20009f82:	0000                	unimp
20009f84:	0344                	addi	s1,sp,388
20009f86:	0000                	unimp
20009f88:	96f8                	0x96f8
20009f8a:	ffff                	0xffff
20009f8c:	0074                	addi	a3,sp,12
20009f8e:	0000                	unimp
20009f90:	4400                	lw	s0,8(s0)
20009f92:	200e                	fld	ft0,192(sp)
20009f94:	814c                	0x814c
20009f96:	8801                	andi	s0,s0,0
20009f98:	8902                	jr	s2
20009f9a:	0a4c0203          	lb	tp,164(s8) # fffe00a4 <__global_pointer$+0xdffd4884>
20009f9e:	44c1                	li	s1,16
20009fa0:	44c8                	lw	a0,12(s1)
20009fa2:	44c9                	li	s1,18
20009fa4:	000e                	c.slli	zero,0x3
20009fa6:	0b44                	addi	s1,sp,404
20009fa8:	0010                	0x10
20009faa:	0000                	unimp
20009fac:	036c                	addi	a1,sp,396
20009fae:	0000                	unimp
20009fb0:	9744                	0x9744
20009fb2:	ffff                	0xffff
20009fb4:	002c                	addi	a1,sp,8
20009fb6:	0000                	unimp
20009fb8:	0000                	unimp
20009fba:	0000                	unimp
20009fbc:	001c                	0x1c
20009fbe:	0000                	unimp
20009fc0:	0380                	addi	s0,sp,448
20009fc2:	0000                	unimp
20009fc4:	975c                	0x975c
20009fc6:	ffff                	0xffff
20009fc8:	013c                	addi	a5,sp,136
20009fca:	0000                	unimp
20009fcc:	5c00                	lw	s0,56(s0)
20009fce:	300e                	fld	ft0,224(sp)
20009fd0:	8168                	0x8168
20009fd2:	0201                	addi	tp,tp,0
20009fd4:	c1f0                	sw	a2,68(a1)
20009fd6:	0e44                	addi	s1,sp,788
20009fd8:	0000                	unimp
20009fda:	0000                	unimp
20009fdc:	0010                	0x10
20009fde:	0000                	unimp
20009fe0:	03a0                	addi	s0,sp,456
20009fe2:	0000                	unimp
20009fe4:	9878                	0x9878
20009fe6:	ffff                	0xffff
20009fe8:	0014                	0x14
20009fea:	0000                	unimp
20009fec:	0000                	unimp
20009fee:	0000                	unimp
20009ff0:	0018                	0x18
20009ff2:	0000                	unimp
20009ff4:	03b4                	addi	a3,sp,456
20009ff6:	0000                	unimp
20009ff8:	9878                	0x9878
20009ffa:	ffff                	0xffff
20009ffc:	0024                	addi	s1,sp,8
20009ffe:	0000                	unimp
2000a000:	4800                	lw	s0,16(s0)
2000a002:	100e                	c.slli	zero,0x23
2000a004:	814c                	0x814c
2000a006:	4801                	li	a6,0
2000a008:	44c1                	li	s1,16
2000a00a:	000e                	c.slli	zero,0x3
2000a00c:	0030                	addi	a2,sp,8
2000a00e:	0000                	unimp
2000a010:	03d0                	addi	a2,sp,452
2000a012:	0000                	unimp
2000a014:	9880                	0x9880
2000a016:	ffff                	0xffff
2000a018:	009c                	addi	a5,sp,64
2000a01a:	0000                	unimp
2000a01c:	4400                	lw	s0,8(s0)
2000a01e:	200e                	fld	ft0,192(sp)
2000a020:	9444                	0x9444
2000a022:	4806                	lw	a6,64(sp)
2000a024:	81580593          	addi	a1,a6,-2027
2000a028:	8801                	andi	s0,s0,0
2000a02a:	8902                	jr	s2
2000a02c:	02049203          	lh	tp,32(s1)
2000a030:	c154                	sw	a3,4(a0)
2000a032:	c844                	sw	s1,20(s0)
2000a034:	d248                	sw	a0,36(a2)
2000a036:	c944                	sw	s1,20(a0)
2000a038:	d344                	sw	s1,36(a4)
2000a03a:	d444                	sw	s1,44(s0)
2000a03c:	0e44                	addi	s1,sp,788
2000a03e:	0000                	unimp
2000a040:	0018                	0x18
2000a042:	0000                	unimp
2000a044:	0404                	addi	s1,sp,512
2000a046:	0000                	unimp
2000a048:	98e8                	0x98e8
2000a04a:	ffff                	0xffff
2000a04c:	0024                	addi	s1,sp,8
2000a04e:	0000                	unimp
2000a050:	4400                	lw	s0,8(s0)
2000a052:	100e                	c.slli	zero,0x23
2000a054:	8144                	0x8144
2000a056:	4801                	li	a6,0
2000a058:	50c1                	li	ra,-16
2000a05a:	000e                	c.slli	zero,0x3
2000a05c:	0018                	0x18
2000a05e:	0000                	unimp
2000a060:	0420                	addi	s0,sp,520
2000a062:	0000                	unimp
2000a064:	98f0                	0x98f0
2000a066:	ffff                	0xffff
2000a068:	0024                	addi	s1,sp,8
2000a06a:	0000                	unimp
2000a06c:	4400                	lw	s0,8(s0)
2000a06e:	100e                	c.slli	zero,0x23
2000a070:	8144                	0x8144
2000a072:	4801                	li	a6,0
2000a074:	50c1                	li	ra,-16
2000a076:	000e                	c.slli	zero,0x3
2000a078:	0018                	0x18
2000a07a:	0000                	unimp
2000a07c:	043c                	addi	a5,sp,520
2000a07e:	0000                	unimp
2000a080:	98f8                	0x98f8
2000a082:	ffff                	0xffff
2000a084:	0024                	addi	s1,sp,8
2000a086:	0000                	unimp
2000a088:	4400                	lw	s0,8(s0)
2000a08a:	100e                	c.slli	zero,0x23
2000a08c:	8144                	0x8144
2000a08e:	4801                	li	a6,0
2000a090:	50c1                	li	ra,-16
2000a092:	000e                	c.slli	zero,0x3
2000a094:	0018                	0x18
2000a096:	0000                	unimp
2000a098:	0458                	addi	a4,sp,516
2000a09a:	0000                	unimp
2000a09c:	9900                	0x9900
2000a09e:	ffff                	0xffff
2000a0a0:	0024                	addi	s1,sp,8
2000a0a2:	0000                	unimp
2000a0a4:	4400                	lw	s0,8(s0)
2000a0a6:	100e                	c.slli	zero,0x23
2000a0a8:	8144                	0x8144
2000a0aa:	4801                	li	a6,0
2000a0ac:	50c1                	li	ra,-16
2000a0ae:	000e                	c.slli	zero,0x3
2000a0b0:	0018                	0x18
2000a0b2:	0000                	unimp
2000a0b4:	0474                	addi	a3,sp,524
2000a0b6:	0000                	unimp
2000a0b8:	9908                	0x9908
2000a0ba:	ffff                	0xffff
2000a0bc:	0058                	addi	a4,sp,4
2000a0be:	0000                	unimp
2000a0c0:	7800                	flw	fs0,48(s0)
2000a0c2:	100e                	c.slli	zero,0x23
2000a0c4:	8144                	0x8144
2000a0c6:	4801                	li	a6,0
2000a0c8:	50c1                	li	ra,-16
2000a0ca:	000e                	c.slli	zero,0x3
2000a0cc:	0018                	0x18
2000a0ce:	0000                	unimp
2000a0d0:	0490                	addi	a2,sp,576
2000a0d2:	0000                	unimp
2000a0d4:	9944                	0x9944
2000a0d6:	ffff                	0xffff
2000a0d8:	0024                	addi	s1,sp,8
2000a0da:	0000                	unimp
2000a0dc:	4400                	lw	s0,8(s0)
2000a0de:	100e                	c.slli	zero,0x23
2000a0e0:	8144                	0x8144
2000a0e2:	4801                	li	a6,0
2000a0e4:	50c1                	li	ra,-16
2000a0e6:	000e                	c.slli	zero,0x3
2000a0e8:	0010                	0x10
2000a0ea:	0000                	unimp
2000a0ec:	04ac                	addi	a1,sp,584
2000a0ee:	0000                	unimp
2000a0f0:	994c                	0x994c
2000a0f2:	ffff                	0xffff
2000a0f4:	0048                	addi	a0,sp,4
2000a0f6:	0000                	unimp
2000a0f8:	0000                	unimp
2000a0fa:	0000                	unimp
2000a0fc:	0018                	0x18
2000a0fe:	0000                	unimp
2000a100:	04c0                	addi	s0,sp,580
2000a102:	0000                	unimp
2000a104:	9980                	0x9980
2000a106:	ffff                	0xffff
2000a108:	0034                	addi	a3,sp,8
2000a10a:	0000                	unimp
2000a10c:	5400                	lw	s0,40(s0)
2000a10e:	100e                	c.slli	zero,0x23
2000a110:	8150                	0x8150
2000a112:	4801                	li	a6,0
2000a114:	44c1                	li	s1,16
2000a116:	000e                	c.slli	zero,0x3
2000a118:	001c                	0x1c
2000a11a:	0000                	unimp
2000a11c:	04dc                	addi	a5,sp,580
2000a11e:	0000                	unimp
2000a120:	9998                	0x9998
2000a122:	ffff                	0xffff
2000a124:	0344                	addi	s1,sp,388
2000a126:	0000                	unimp
2000a128:	0200                	addi	s0,sp,256
2000a12a:	0e64                	addi	s1,sp,796
2000a12c:	4410                	lw	a2,8(s0)
2000a12e:	0188                	addi	a0,sp,192
2000a130:	c802c003          	lbu	zero,-896(t0)
2000a134:	0e44                	addi	s1,sp,788
2000a136:	0000                	unimp
2000a138:	0040                	addi	s0,sp,4
2000a13a:	0000                	unimp
2000a13c:	04fc                	addi	a5,sp,588
2000a13e:	0000                	unimp
2000a140:	9cbc                	0x9cbc
2000a142:	ffff                	0xffff
2000a144:	039c                	addi	a5,sp,448
2000a146:	0000                	unimp
2000a148:	0200                	addi	s0,sp,256
2000a14a:	0e7c                	addi	a5,sp,796
2000a14c:	5c20                	lw	s0,120(s0)
2000a14e:	0188                	addi	a0,sp,192
2000a150:	0289                	addi	t0,t0,2
2000a152:	0392                	slli	t2,t2,0x4
2000a154:	05940493          	addi	s1,s0,89
2000a158:	0695                	addi	a3,a3,5
2000a15a:	0796                	slli	a5,a5,0x5
2000a15c:	0a02bc03          	0xa02bc03
2000a160:	44c8                	lw	a0,12(s1)
2000a162:	44c9                	li	s1,18
2000a164:	44d2                	lw	s1,20(sp)
2000a166:	44d444d3          	0x44d444d3
2000a16a:	44d5                	li	s1,21
2000a16c:	44d6                	lw	s1,84(sp)
2000a16e:	000e                	c.slli	zero,0x3
2000a170:	0b44                	addi	s1,sp,404
2000a172:	0e64                	addi	s1,sp,796
2000a174:	c800                	sw	s0,16(s0)
2000a176:	d2c9                	beqz	a3,2000a0f8 <__init_array_end+0x4b8>
2000a178:	d6d5d4d3          	0xd6d5d4d3
2000a17c:	001c                	0x1c
2000a17e:	0000                	unimp
2000a180:	0540                	addi	s0,sp,644
2000a182:	0000                	unimp
2000a184:	a014                	fsd	fa3,0(s0)
2000a186:	ffff                	0xffff
2000a188:	00f8                	addi	a4,sp,76
2000a18a:	0000                	unimp
2000a18c:	5c00                	lw	s0,56(s0)
2000a18e:	300e                	fld	ft0,224(sp)
2000a190:	4402                	lw	s0,0(sp)
2000a192:	0181                	addi	gp,gp,0
2000a194:	9002                	ebreak
2000a196:	44c1                	li	s1,16
2000a198:	000e                	c.slli	zero,0x3
2000a19a:	0000                	unimp
2000a19c:	0038                	addi	a4,sp,8
2000a19e:	0000                	unimp
2000a1a0:	0560                	addi	s0,sp,652
2000a1a2:	0000                	unimp
2000a1a4:	a0ec                	fsd	fa1,192(s1)
2000a1a6:	ffff                	0xffff
2000a1a8:	046c                	addi	a1,sp,524
2000a1aa:	0000                	unimp
2000a1ac:	7800                	flw	fs0,48(s0)
2000a1ae:	400e                	0x400e
2000a1b0:	8860                	0x8860
2000a1b2:	8902                	jr	s2
2000a1b4:	94059303          	lh	t1,-1728(a1) # 1ff940 <_STACK_SIZE+0x1ff750>
2000a1b8:	9506                	add	a0,a0,ra
2000a1ba:	92018107          	0x92018107
2000a1be:	0304                	addi	s1,sp,384
2000a1c0:	01fc                	addi	a5,sp,204
2000a1c2:	c10a                	sw	sp,128(sp)
2000a1c4:	c844                	sw	s1,20(s0)
2000a1c6:	d244                	sw	s1,36(a2)
2000a1c8:	d344                	sw	s1,36(a4)
2000a1ca:	d444                	sw	s1,44(s0)
2000a1cc:	d544                	sw	s1,44(a0)
2000a1ce:	c948                	sw	a0,20(a0)
2000a1d0:	0e44                	addi	s1,sp,788
2000a1d2:	4400                	lw	s0,8(s0)
2000a1d4:	0000000b          	0xb
2000a1d8:	0010                	0x10
2000a1da:	0000                	unimp
2000a1dc:	059c                	addi	a5,sp,704
2000a1de:	0000                	unimp
2000a1e0:	a51c                	fsd	fa5,8(a0)
2000a1e2:	ffff                	0xffff
2000a1e4:	001c                	0x1c
2000a1e6:	0000                	unimp
2000a1e8:	0000                	unimp
2000a1ea:	0000                	unimp
2000a1ec:	0024                	addi	s1,sp,8
2000a1ee:	0000                	unimp
2000a1f0:	05b0                	addi	a2,sp,712
2000a1f2:	0000                	unimp
2000a1f4:	a524                	fsd	fs1,72(a0)
2000a1f6:	ffff                	0xffff
2000a1f8:	0104                	addi	s1,sp,128
2000a1fa:	0000                	unimp
2000a1fc:	0200                	addi	s0,sp,256
2000a1fe:	0e4c                	addi	a1,sp,788
2000a200:	4410                	lw	a2,8(s0)
2000a202:	0188                	addi	a0,sp,192
2000a204:	8002                	0x8002
2000a206:	44c8                	lw	a0,12(s1)
2000a208:	000e                	c.slli	zero,0x3
2000a20a:	0e60                	addi	s0,sp,796
2000a20c:	8810                	0x8810
2000a20e:	4801                	li	a6,0
2000a210:	000e                	c.slli	zero,0x3
2000a212:	00c8                	addi	a0,sp,68
2000a214:	0038                	addi	a4,sp,8
2000a216:	0000                	unimp
2000a218:	05d8                	addi	a4,sp,708
2000a21a:	0000                	unimp
2000a21c:	a600                	fsd	fs0,8(a2)
2000a21e:	ffff                	0xffff
2000a220:	01fc                	addi	a5,sp,204
2000a222:	0000                	unimp
2000a224:	4400                	lw	s0,8(s0)
2000a226:	100e                	c.slli	zero,0x23
2000a228:	8850                	0x8850
2000a22a:	9202                	jalr	tp
2000a22c:	8104                	0x8104
2000a22e:	8901                	andi	a0,a0,0
2000a230:	0a580203          	lb	tp,165(a6)
2000a234:	44c1                	li	s1,16
2000a236:	44c8                	lw	a0,12(s1)
2000a238:	44c9                	li	s1,18
2000a23a:	44d2                	lw	s1,20(sp)
2000a23c:	000e                	c.slli	zero,0x3
2000a23e:	0b44                	addi	s1,sp,404
2000a240:	c1016403          	0xc1016403
2000a244:	c844                	sw	s1,20(s0)
2000a246:	c944                	sw	s1,20(a0)
2000a248:	d244                	sw	s1,36(a2)
2000a24a:	0e48                	addi	a0,sp,788
2000a24c:	0000                	unimp
2000a24e:	0000                	unimp
2000a250:	0044                	addi	s1,sp,4
2000a252:	0000                	unimp
2000a254:	0614                	addi	a3,sp,768
2000a256:	0000                	unimp
2000a258:	a7c0                	fsd	fs0,136(a5)
2000a25a:	ffff                	0xffff
2000a25c:	0464                	addi	s1,sp,524
2000a25e:	0000                	unimp
2000a260:	4400                	lw	s0,8(s0)
2000a262:	300e                	fld	ft0,224(sp)
2000a264:	9268                	0x9268
2000a266:	8104                	0x8104
2000a268:	8801                	andi	s0,s0,0
2000a26a:	8902                	jr	s2
2000a26c:	94059303          	lh	t1,-1728(a1)
2000a270:	9506                	add	a0,a0,ra
2000a272:	97089607          	0x97089607
2000a276:	9809                	andi	s0,s0,-30
2000a278:	030a                	slli	t1,t1,0x2
2000a27a:	0260                	addi	s0,sp,268
2000a27c:	c10a                	sw	sp,128(sp)
2000a27e:	c844                	sw	s1,20(s0)
2000a280:	c944                	sw	s1,20(a0)
2000a282:	d244                	sw	s1,36(a2)
2000a284:	d344                	sw	s1,36(a4)
2000a286:	d444                	sw	s1,44(s0)
2000a288:	d544                	sw	s1,44(a0)
2000a28a:	d644                	sw	s1,44(a2)
2000a28c:	d744                	sw	s1,44(a4)
2000a28e:	d844                	sw	s1,52(s0)
2000a290:	0e44                	addi	s1,sp,788
2000a292:	4400                	lw	s0,8(s0)
2000a294:	0000000b          	0xb
2000a298:	003c                	addi	a5,sp,8
2000a29a:	0000                	unimp
2000a29c:	065c                	addi	a5,sp,772
2000a29e:	0000                	unimp
2000a2a0:	abdc                	fsd	fa5,144(a5)
2000a2a2:	ffff                	0xffff
2000a2a4:	0208                	addi	a0,sp,256
2000a2a6:	0000                	unimp
2000a2a8:	5000                	lw	s0,32(s0)
2000a2aa:	200e                	fld	ft0,192(sp)
2000a2ac:	8858                	0x8858
2000a2ae:	8902                	jr	s2
2000a2b0:	92018103          	lb	sp,-1760(gp) # 2000b140 <Fs+0xe8>
2000a2b4:	9304                	0x9304
2000a2b6:	9405                	srai	s0,s0,0x21
2000a2b8:	6c06                	flw	fs8,64(sp)
2000a2ba:	44c1                	li	s1,16
2000a2bc:	44c8                	lw	a0,12(s1)
2000a2be:	44c9                	li	s1,18
2000a2c0:	44d2                	lw	s1,20(sp)
2000a2c2:	44d444d3          	0x44d444d3
2000a2c6:	000e                	c.slli	zero,0x3
2000a2c8:	0e4c                	addi	a1,sp,788
2000a2ca:	8120                	0x8120
2000a2cc:	8801                	andi	s0,s0,0
2000a2ce:	8902                	jr	s2
2000a2d0:	93049203          	lh	tp,-1744(s1)
2000a2d4:	9405                	srai	s0,s0,0x21
2000a2d6:	0006                	c.slli	zero,0x1
2000a2d8:	0050                	addi	a2,sp,4
2000a2da:	0000                	unimp
2000a2dc:	069c                	addi	a5,sp,832
2000a2de:	0000                	unimp
2000a2e0:	ada4                	fsd	fs1,88(a1)
2000a2e2:	ffff                	0xffff
2000a2e4:	02d0                	addi	a2,sp,324
2000a2e6:	0000                	unimp
2000a2e8:	4400                	lw	s0,8(s0)
2000a2ea:	400e                	0x400e
2000a2ec:	8844                	0x8844
2000a2ee:	7402                	flw	fs0,32(sp)
2000a2f0:	0896                	slli	a7,a7,0x5
2000a2f2:	01810997          	auipc	s3,0x1810
2000a2f6:	0389                	addi	t2,t2,2
2000a2f8:	0492                	slli	s1,s1,0x4
2000a2fa:	06940593          	addi	a1,s0,105
2000a2fe:	0795                	addi	a5,a5,5
2000a300:	0a98                	addi	a4,sp,336
2000a302:	0b99                	addi	s7,s7,6
2000a304:	0c9a                	slli	s9,s9,0x6
2000a306:	44020d9b          	0x44020d9b
2000a30a:	c10a                	sw	sp,128(sp)
2000a30c:	c844                	sw	s1,20(s0)
2000a30e:	c944                	sw	s1,20(a0)
2000a310:	d244                	sw	s1,36(a2)
2000a312:	d344                	sw	s1,36(a4)
2000a314:	d444                	sw	s1,44(s0)
2000a316:	d544                	sw	s1,44(a0)
2000a318:	d644                	sw	s1,44(a2)
2000a31a:	d744                	sw	s1,44(a4)
2000a31c:	d844                	sw	s1,52(s0)
2000a31e:	d944                	sw	s1,52(a0)
2000a320:	da44                	sw	s1,52(a2)
2000a322:	db44                	sw	s1,52(a4)
2000a324:	0e44                	addi	s1,sp,788
2000a326:	4400                	lw	s0,8(s0)
2000a328:	0000000b          	0xb
2000a32c:	0070                	addi	a2,sp,12
2000a32e:	0000                	unimp
2000a330:	06f0                	addi	a2,sp,844
2000a332:	0000                	unimp
2000a334:	b020                	fsd	fs0,96(s0)
2000a336:	ffff                	0xffff
2000a338:	0a48                	addi	a0,sp,276
2000a33a:	0000                	unimp
2000a33c:	4400                	lw	s0,8(s0)
2000a33e:	600e                	flw	ft0,192(sp)
2000a340:	9878                	0x9878
2000a342:	9a0a                	add	s4,s4,sp
2000a344:	810c                	0x810c
2000a346:	8801                	andi	s0,s0,0
2000a348:	8902                	jr	s2
2000a34a:	93049203          	lh	tp,-1744(s1)
2000a34e:	9405                	srai	s0,s0,0x21
2000a350:	9506                	add	a0,a0,ra
2000a352:	97089607          	0x97089607
2000a356:	9909                	andi	a0,a0,-30
2000a358:	020d9b0b          	0x20d9b0b
2000a35c:	0a44                	addi	s1,sp,276
2000a35e:	44c8                	lw	a0,12(s1)
2000a360:	44c1                	li	s1,16
2000a362:	44c9                	li	s1,18
2000a364:	44d2                	lw	s1,20(sp)
2000a366:	44d444d3          	0x44d444d3
2000a36a:	44d5                	li	s1,21
2000a36c:	44d6                	lw	s1,84(sp)
2000a36e:	44d844d7          	0x44d844d7
2000a372:	44d9                	li	s1,22
2000a374:	44da48db          	0x44da48db
2000a378:	000e                	c.slli	zero,0x3
2000a37a:	0b44                	addi	s1,sp,404
2000a37c:	bc02                	fsd	ft0,56(sp)
2000a37e:	c10a                	sw	sp,128(sp)
2000a380:	c848                	sw	a0,20(s0)
2000a382:	c944                	sw	s1,20(a0)
2000a384:	d244                	sw	s1,36(a2)
2000a386:	d344                	sw	s1,36(a4)
2000a388:	d444                	sw	s1,44(s0)
2000a38a:	d544                	sw	s1,44(a0)
2000a38c:	d644                	sw	s1,44(a2)
2000a38e:	d744                	sw	s1,44(a4)
2000a390:	d844                	sw	s1,52(s0)
2000a392:	d944                	sw	s1,52(a0)
2000a394:	da44                	sw	s1,52(a2)
2000a396:	db44                	sw	s1,52(a4)
2000a398:	0e44                	addi	s1,sp,788
2000a39a:	4400                	lw	s0,8(s0)
2000a39c:	0000000b          	0xb
2000a3a0:	0034                	addi	a3,sp,8
2000a3a2:	0000                	unimp
2000a3a4:	0764                	addi	s1,sp,908
2000a3a6:	0000                	unimp
2000a3a8:	b9f4                	fsd	fa3,240(a1)
2000a3aa:	ffff                	0xffff
2000a3ac:	00a0                	addi	s0,sp,72
2000a3ae:	0000                	unimp
2000a3b0:	4400                	lw	s0,8(s0)
2000a3b2:	300e                	fld	ft0,224(sp)
2000a3b4:	8850                	0x8850
2000a3b6:	8102                	jr	sp
2000a3b8:	0201                	addi	tp,tp,0
2000a3ba:	0a50                	addi	a2,sp,276
2000a3bc:	44c1                	li	s1,16
2000a3be:	44c8                	lw	a0,12(s1)
2000a3c0:	000e                	c.slli	zero,0x3
2000a3c2:	0b44                	addi	s1,sp,404
2000a3c4:	0a50                	addi	a2,sp,276
2000a3c6:	44c1                	li	s1,16
2000a3c8:	44c8                	lw	a0,12(s1)
2000a3ca:	000e                	c.slli	zero,0x3
2000a3cc:	0b44                	addi	s1,sp,404
2000a3ce:	c144                	sw	s1,4(a0)
2000a3d0:	c844                	sw	s1,20(s0)
2000a3d2:	0e48                	addi	a0,sp,788
2000a3d4:	0000                	unimp
2000a3d6:	0000                	unimp
2000a3d8:	0030                	addi	a2,sp,8
2000a3da:	0000                	unimp
2000a3dc:	079c                	addi	a5,sp,960
2000a3de:	0000                	unimp
2000a3e0:	ba5c                	fsd	fa5,176(a2)
2000a3e2:	ffff                	0xffff
2000a3e4:	0130                	addi	a2,sp,136
2000a3e6:	0000                	unimp
2000a3e8:	4400                	lw	s0,8(s0)
2000a3ea:	600e                	flw	ft0,192(sp)
2000a3ec:	814c                	0x814c
2000a3ee:	8801                	andi	s0,s0,0
2000a3f0:	8902                	jr	s2
2000a3f2:	c10a6803          	0xc10a6803
2000a3f6:	c844                	sw	s1,20(s0)
2000a3f8:	c944                	sw	s1,20(a0)
2000a3fa:	0e44                	addi	s1,sp,788
2000a3fc:	4400                	lw	s0,8(s0)
2000a3fe:	0ac4020b          	0xac4020b
2000a402:	44c1                	li	s1,16
2000a404:	44c8                	lw	a0,12(s1)
2000a406:	48c9                	li	a7,18
2000a408:	000e                	c.slli	zero,0x3
2000a40a:	0b44                	addi	s1,sp,404
2000a40c:	004c                	addi	a1,sp,4
2000a40e:	0000                	unimp
2000a410:	07d0                	addi	a2,sp,964
2000a412:	0000                	unimp
2000a414:	bb58                	fsd	fa4,176(a4)
2000a416:	ffff                	0xffff
2000a418:	02b0                	addi	a2,sp,328
2000a41a:	0000                	unimp
2000a41c:	4400                	lw	s0,8(s0)
2000a41e:	500e                	0x500e
2000a420:	8174                	0x8174
2000a422:	8801                	andi	s0,s0,0
2000a424:	8902                	jr	s2
2000a426:	93049203          	lh	tp,-1744(s1)
2000a42a:	9405                	srai	s0,s0,0x21
2000a42c:	9506                	add	a0,a0,ra
2000a42e:	97089607          	0x97089607
2000a432:	9809                	andi	s0,s0,-30
2000a434:	990a                	add	s2,s2,sp
2000a436:	9b0c9a0b          	0x9b0c9a0b
2000a43a:	740d                	lui	s0,0xfffe3
2000a43c:	c10a                	sw	sp,128(sp)
2000a43e:	c844                	sw	s1,20(s0)
2000a440:	c944                	sw	s1,20(a0)
2000a442:	d244                	sw	s1,36(a2)
2000a444:	d344                	sw	s1,36(a4)
2000a446:	d444                	sw	s1,44(s0)
2000a448:	d544                	sw	s1,44(a0)
2000a44a:	d644                	sw	s1,44(a2)
2000a44c:	d744                	sw	s1,44(a4)
2000a44e:	d844                	sw	s1,52(s0)
2000a450:	d944                	sw	s1,52(a0)
2000a452:	db44                	sw	s1,52(a4)
2000a454:	da48                	sw	a0,52(a2)
2000a456:	0e44                	addi	s1,sp,788
2000a458:	4400                	lw	s0,8(s0)
2000a45a:	0028000b          	0x28000b
2000a45e:	0000                	unimp
2000a460:	0820                	addi	s0,sp,24
2000a462:	0000                	unimp
2000a464:	bdb8                	fsd	fa4,120(a1)
2000a466:	ffff                	0xffff
2000a468:	0070                	addi	a2,sp,12
2000a46a:	0000                	unimp
2000a46c:	4c00                	lw	s0,24(s0)
2000a46e:	100e                	c.slli	zero,0x23
2000a470:	8848                	0x8848
2000a472:	8102                	jr	sp
2000a474:	6001                	0x6001
2000a476:	c10a                	sw	sp,128(sp)
2000a478:	c844                	sw	s1,20(s0)
2000a47a:	0e48                	addi	a0,sp,788
2000a47c:	4400                	lw	s0,8(s0)
2000a47e:	48c1540b          	0x48c1540b
2000a482:	44c8                	lw	a0,12(s1)
2000a484:	000e                	c.slli	zero,0x3
2000a486:	0000                	unimp
2000a488:	0020                	addi	s0,sp,8
2000a48a:	0000                	unimp
2000a48c:	084c                	addi	a1,sp,20
2000a48e:	0000                	unimp
2000a490:	bdfc                	fsd	fa5,248(a1)
2000a492:	ffff                	0xffff
2000a494:	003c                	addi	a5,sp,8
2000a496:	0000                	unimp
2000a498:	4400                	lw	s0,8(s0)
2000a49a:	200e                	fld	ft0,192(sp)
2000a49c:	814c                	0x814c
2000a49e:	4c01                	li	s8,0
2000a4a0:	c10a                	sw	sp,128(sp)
2000a4a2:	0e4c                	addi	a1,sp,788
2000a4a4:	4400                	lw	s0,8(s0)
2000a4a6:	48c1440b          	0x48c1440b
2000a4aa:	000e                	c.slli	zero,0x3
2000a4ac:	001c                	0x1c
2000a4ae:	0000                	unimp
2000a4b0:	0870                	addi	a2,sp,28
2000a4b2:	0000                	unimp
2000a4b4:	be14                	fsd	fa3,56(a2)
2000a4b6:	ffff                	0xffff
2000a4b8:	00c0                	addi	s0,sp,68
2000a4ba:	0000                	unimp
2000a4bc:	4400                	lw	s0,8(s0)
2000a4be:	600e                	flw	ft0,192(sp)
2000a4c0:	8150                	0x8150
2000a4c2:	4c01                	li	s8,0
2000a4c4:	c10a                	sw	sp,128(sp)
2000a4c6:	0e44                	addi	s1,sp,788
2000a4c8:	4400                	lw	s0,8(s0)
2000a4ca:	004c000b          	0x4c000b
2000a4ce:	0000                	unimp
2000a4d0:	0890                	addi	a2,sp,80
2000a4d2:	0000                	unimp
2000a4d4:	beb4                	fsd	fa3,120(a3)
2000a4d6:	ffff                	0xffff
2000a4d8:	0590                	addi	a2,sp,704
2000a4da:	0000                	unimp
2000a4dc:	4400                	lw	s0,8(s0)
2000a4de:	600e                	flw	ft0,192(sp)
2000a4e0:	8174                	0x8174
2000a4e2:	8801                	andi	s0,s0,0
2000a4e4:	8902                	jr	s2
2000a4e6:	93049203          	lh	tp,-1744(s1)
2000a4ea:	9405                	srai	s0,s0,0x21
2000a4ec:	9506                	add	a0,a0,ra
2000a4ee:	97089607          	0x97089607
2000a4f2:	9809                	andi	s0,s0,-30
2000a4f4:	990a                	add	s2,s2,sp
2000a4f6:	9b0c9a0b          	0x9b0c9a0b
2000a4fa:	6c0d                	lui	s8,0x3
2000a4fc:	c10a                	sw	sp,128(sp)
2000a4fe:	c844                	sw	s1,20(s0)
2000a500:	c944                	sw	s1,20(a0)
2000a502:	d244                	sw	s1,36(a2)
2000a504:	d444                	sw	s1,44(s0)
2000a506:	d544                	sw	s1,44(a0)
2000a508:	d644                	sw	s1,44(a2)
2000a50a:	d744                	sw	s1,44(a4)
2000a50c:	d844                	sw	s1,52(s0)
2000a50e:	d944                	sw	s1,52(a0)
2000a510:	da44                	sw	s1,52(a2)
2000a512:	db44                	sw	s1,52(a4)
2000a514:	d348                	sw	a0,36(a4)
2000a516:	0e44                	addi	s1,sp,788
2000a518:	4400                	lw	s0,8(s0)
2000a51a:	0034000b          	0x34000b
2000a51e:	0000                	unimp
2000a520:	08e0                	addi	s0,sp,92
2000a522:	0000                	unimp
2000a524:	c3f4                	sw	a3,68(a5)
2000a526:	ffff                	0xffff
2000a528:	0104                	addi	s1,sp,128
2000a52a:	0000                	unimp
2000a52c:	4400                	lw	s0,8(s0)
2000a52e:	300e                	fld	ft0,224(sp)
2000a530:	8148                	0x8148
2000a532:	8801                	andi	s0,s0,0
2000a534:	6002                	flw	ft0,0(sp)
2000a536:	c10a                	sw	sp,128(sp)
2000a538:	c848                	sw	a0,20(s0)
2000a53a:	0e44                	addi	s1,sp,788
2000a53c:	4400                	lw	s0,8(s0)
2000a53e:	0a74020b          	0xa74020b
2000a542:	44c1                	li	s1,16
2000a544:	44c8                	lw	a0,12(s1)
2000a546:	000e                	c.slli	zero,0x3
2000a548:	0b44                	addi	s1,sp,404
2000a54a:	0a54                	addi	a3,sp,276
2000a54c:	44c1                	li	s1,16
2000a54e:	48c8                	lw	a0,20(s1)
2000a550:	000e                	c.slli	zero,0x3
2000a552:	0b44                	addi	s1,sp,404
2000a554:	0028                	addi	a0,sp,8
2000a556:	0000                	unimp
2000a558:	0918                	addi	a4,sp,144
2000a55a:	0000                	unimp
2000a55c:	c4c0                	sw	s0,12(s1)
2000a55e:	ffff                	0xffff
2000a560:	0070                	addi	a2,sp,12
2000a562:	0000                	unimp
2000a564:	4c00                	lw	s0,24(s0)
2000a566:	100e                	c.slli	zero,0x23
2000a568:	8848                	0x8848
2000a56a:	8102                	jr	sp
2000a56c:	6001                	0x6001
2000a56e:	c10a                	sw	sp,128(sp)
2000a570:	c844                	sw	s1,20(s0)
2000a572:	0e48                	addi	a0,sp,788
2000a574:	4400                	lw	s0,8(s0)
2000a576:	48c1540b          	0x48c1540b
2000a57a:	44c8                	lw	a0,12(s1)
2000a57c:	000e                	c.slli	zero,0x3
2000a57e:	0000                	unimp
2000a580:	009c                	addi	a5,sp,64
2000a582:	0000                	unimp
2000a584:	0944                	addi	s1,sp,148
2000a586:	0000                	unimp
2000a588:	c504                	sw	s1,8(a0)
2000a58a:	ffff                	0xffff
2000a58c:	0c34                	addi	a3,sp,536
2000a58e:	0000                	unimp
2000a590:	4c00                	lw	s0,24(s0)
2000a592:	500e                	0x500e
2000a594:	8874                	0x8874
2000a596:	8102                	jr	sp
2000a598:	8901                	andi	a0,a0,0
2000a59a:	93049203          	lh	tp,-1744(s1)
2000a59e:	9405                	srai	s0,s0,0x21
2000a5a0:	9506                	add	a0,a0,ra
2000a5a2:	97089607          	0x97089607
2000a5a6:	9809                	andi	s0,s0,-30
2000a5a8:	990a                	add	s2,s2,sp
2000a5aa:	9b0c9a0b          	0x9b0c9a0b
2000a5ae:	640d                	lui	s0,0x3
2000a5b0:	c10a                	sw	sp,128(sp)
2000a5b2:	c844                	sw	s1,20(s0)
2000a5b4:	c944                	sw	s1,20(a0)
2000a5b6:	d244                	sw	s1,36(a2)
2000a5b8:	d344                	sw	s1,36(a4)
2000a5ba:	d444                	sw	s1,44(s0)
2000a5bc:	d544                	sw	s1,44(a0)
2000a5be:	d644                	sw	s1,44(a2)
2000a5c0:	d744                	sw	s1,44(a4)
2000a5c2:	d844                	sw	s1,52(s0)
2000a5c4:	d944                	sw	s1,52(a0)
2000a5c6:	da44                	sw	s1,52(a2)
2000a5c8:	db44                	sw	s1,52(a4)
2000a5ca:	0e44                	addi	s1,sp,788
2000a5cc:	4400                	lw	s0,8(s0)
2000a5ce:	0744030b          	0x744030b
2000a5d2:	000e                	c.slli	zero,0x3
2000a5d4:	c8c1                	beqz	s1,2000a664 <__init_array_end+0xa24>
2000a5d6:	d2c9                	beqz	a3,2000a558 <__init_array_end+0x918>
2000a5d8:	d6d5d4d3          	0xd6d5d4d3
2000a5dc:	dad9d8d7          	0xdad9d8d7
2000a5e0:	500e48db          	0x500e48db
2000a5e4:	0181                	addi	gp,gp,0
2000a5e6:	0288                	addi	a0,sp,320
2000a5e8:	0389                	addi	t2,t2,2
2000a5ea:	0492                	slli	s1,s1,0x4
2000a5ec:	06940593          	addi	a1,s0,105 # 3069 <_STACK_SIZE+0x2e79>
2000a5f0:	0795                	addi	a5,a5,5
2000a5f2:	0896                	slli	a7,a7,0x5
2000a5f4:	0a980997          	auipc	s3,0xa980
2000a5f8:	0b99                	addi	s7,s7,6
2000a5fa:	0c9a                	slli	s9,s9,0x6
2000a5fc:	0a480d9b          	0xa480d9b
2000a600:	44c8                	lw	a0,12(s1)
2000a602:	44c1                	li	s1,16
2000a604:	44c9                	li	s1,18
2000a606:	44d2                	lw	s1,20(sp)
2000a608:	44d444d3          	0x44d444d3
2000a60c:	44d5                	li	s1,21
2000a60e:	44d6                	lw	s1,84(sp)
2000a610:	44d844d7          	0x44d844d7
2000a614:	44d9                	li	s1,22
2000a616:	44da                	lw	s1,148(sp)
2000a618:	000e44db          	0xe44db
2000a61c:	0b44                	addi	s1,sp,404
2000a61e:	0000                	unimp
2000a620:	0010                	0x10
2000a622:	0000                	unimp
2000a624:	09e4                	addi	s1,sp,220
2000a626:	0000                	unimp
2000a628:	d098                	sw	a4,32(s1)
2000a62a:	ffff                	0xffff
2000a62c:	0078                	addi	a4,sp,12
2000a62e:	0000                	unimp
2000a630:	0000                	unimp
2000a632:	0000                	unimp
2000a634:	0010                	0x10
2000a636:	0000                	unimp
2000a638:	09f8                	addi	a4,sp,220
2000a63a:	0000                	unimp
2000a63c:	d0fc                	sw	a5,100(s1)
2000a63e:	ffff                	0xffff
2000a640:	0038                	addi	a4,sp,8
2000a642:	0000                	unimp
2000a644:	0000                	unimp
2000a646:	0000                	unimp
2000a648:	0010                	0x10
2000a64a:	0000                	unimp
2000a64c:	0a0c                	addi	a1,sp,272
2000a64e:	0000                	unimp
2000a650:	d120                	sw	s0,96(a0)
2000a652:	ffff                	0xffff
2000a654:	0158                	addi	a4,sp,132
2000a656:	0000                	unimp
2000a658:	0000                	unimp
2000a65a:	0000                	unimp
2000a65c:	0010                	0x10
2000a65e:	0000                	unimp
2000a660:	0a20                	addi	s0,sp,280
2000a662:	0000                	unimp
2000a664:	d264                	sw	s1,100(a2)
2000a666:	ffff                	0xffff
2000a668:	000c                	0xc
2000a66a:	0000                	unimp
2000a66c:	0000                	unimp
2000a66e:	0000                	unimp
2000a670:	0018                	0x18
2000a672:	0000                	unimp
2000a674:	0a34                	addi	a3,sp,280
2000a676:	0000                	unimp
2000a678:	d25c                	sw	a5,36(a2)
2000a67a:	ffff                	0xffff
2000a67c:	0030                	addi	a2,sp,8
2000a67e:	0000                	unimp
2000a680:	5400                	lw	s0,40(s0)
2000a682:	100e                	c.slli	zero,0x23
2000a684:	8144                	0x8144
2000a686:	4801                	li	a6,0
2000a688:	4cc1                	li	s9,16
2000a68a:	000e                	c.slli	zero,0x3
2000a68c:	0018                	0x18
2000a68e:	0000                	unimp
2000a690:	0a50                	addi	a2,sp,276
2000a692:	0000                	unimp
2000a694:	d270                	sw	a2,100(a2)
2000a696:	ffff                	0xffff
2000a698:	0040                	addi	s0,sp,4
2000a69a:	0000                	unimp
2000a69c:	5c00                	lw	s0,56(s0)
2000a69e:	100e                	c.slli	zero,0x23
2000a6a0:	814c                	0x814c
2000a6a2:	4801                	li	a6,0
2000a6a4:	4cc1                	li	s9,16
2000a6a6:	000e                	c.slli	zero,0x3
2000a6a8:	0048                	addi	a0,sp,4
2000a6aa:	0000                	unimp
2000a6ac:	0a6c                	addi	a1,sp,284
2000a6ae:	0000                	unimp
2000a6b0:	731c                	flw	fa5,32(a4)
2000a6b2:	ffff                	0xffff
2000a6b4:	05d8                	addi	a4,sp,708
2000a6b6:	0000                	unimp
2000a6b8:	4400                	lw	s0,8(s0)
2000a6ba:	300e                	fld	ft0,224(sp)
2000a6bc:	886c                	0x886c
2000a6be:	9702                	jalr	a4
2000a6c0:	8109                	srli	a0,a0,0x2
2000a6c2:	8901                	andi	a0,a0,0
2000a6c4:	93049203          	lh	tp,-1744(s1)
2000a6c8:	9405                	srai	s0,s0,0x21
2000a6ca:	9506                	add	a0,a0,ra
2000a6cc:	98089607          	0x98089607
2000a6d0:	990a                	add	s2,s2,sp
2000a6d2:	0270030b          	0x270030b
2000a6d6:	c10a                	sw	sp,128(sp)
2000a6d8:	c844                	sw	s1,20(s0)
2000a6da:	c944                	sw	s1,20(a0)
2000a6dc:	d244                	sw	s1,36(a2)
2000a6de:	d344                	sw	s1,36(a4)
2000a6e0:	d444                	sw	s1,44(s0)
2000a6e2:	d544                	sw	s1,44(a0)
2000a6e4:	d644                	sw	s1,44(a2)
2000a6e6:	d744                	sw	s1,44(a4)
2000a6e8:	d844                	sw	s1,52(s0)
2000a6ea:	d944                	sw	s1,52(a0)
2000a6ec:	0e44                	addi	s1,sp,788
2000a6ee:	4400                	lw	s0,8(s0)
2000a6f0:	0000000b          	0xb

Disassembly of section .data:

2000a6f8 <impure_data>:
2000a6f8:	0000                	unimp
2000a6fa:	0000                	unimp
2000a6fc:	a9e4                	fsd	fs1,208(a1)
2000a6fe:	2000                	fld	fs0,0(s0)

2000a700 <_fdata>:
2000a700:	aa4c                	fsd	fa1,144(a2)
2000a702:	2000                	fld	fs0,0(s0)
2000a704:	aab4                	fsd	fa3,80(a3)
2000a706:	2000                	fld	fs0,0(s0)
	...
2000a7a0:	0001                	nop
2000a7a2:	0000                	unimp
2000a7a4:	0000                	unimp
2000a7a6:	0000                	unimp
2000a7a8:	330e                	fld	ft6,224(sp)
2000a7aa:	abcd                	j	2000ad9c <__malloc_av_+0x27c>
2000a7ac:	1234                	addi	a3,sp,296
2000a7ae:	e66d                	bnez	a2,2000a898 <_fdata+0x198>
2000a7b0:	deec                	sw	a1,124(a3)
2000a7b2:	0005                	c.nop	1
2000a7b4:	0000000b          	0xb
	...

2000ab20 <__malloc_av_>:
	...
2000ab28:	ab20                	fsd	fs0,80(a4)
2000ab2a:	2000                	fld	fs0,0(s0)
2000ab2c:	ab20                	fsd	fs0,80(a4)
2000ab2e:	2000                	fld	fs0,0(s0)
2000ab30:	ab28                	fsd	fa0,80(a4)
2000ab32:	2000                	fld	fs0,0(s0)
2000ab34:	ab28                	fsd	fa0,80(a4)
2000ab36:	2000                	fld	fs0,0(s0)
2000ab38:	ab30                	fsd	fa2,80(a4)
2000ab3a:	2000                	fld	fs0,0(s0)
2000ab3c:	ab30                	fsd	fa2,80(a4)
2000ab3e:	2000                	fld	fs0,0(s0)
2000ab40:	ab38                	fsd	fa4,80(a4)
2000ab42:	2000                	fld	fs0,0(s0)
2000ab44:	ab38                	fsd	fa4,80(a4)
2000ab46:	2000                	fld	fs0,0(s0)
2000ab48:	ab40                	fsd	fs0,144(a4)
2000ab4a:	2000                	fld	fs0,0(s0)
2000ab4c:	ab40                	fsd	fs0,144(a4)
2000ab4e:	2000                	fld	fs0,0(s0)
2000ab50:	ab48                	fsd	fa0,144(a4)
2000ab52:	2000                	fld	fs0,0(s0)
2000ab54:	ab48                	fsd	fa0,144(a4)
2000ab56:	2000                	fld	fs0,0(s0)
2000ab58:	ab50                	fsd	fa2,144(a4)
2000ab5a:	2000                	fld	fs0,0(s0)
2000ab5c:	ab50                	fsd	fa2,144(a4)
2000ab5e:	2000                	fld	fs0,0(s0)
2000ab60:	ab58                	fsd	fa4,144(a4)
2000ab62:	2000                	fld	fs0,0(s0)
2000ab64:	ab58                	fsd	fa4,144(a4)
2000ab66:	2000                	fld	fs0,0(s0)
2000ab68:	ab60                	fsd	fs0,208(a4)
2000ab6a:	2000                	fld	fs0,0(s0)
2000ab6c:	ab60                	fsd	fs0,208(a4)
2000ab6e:	2000                	fld	fs0,0(s0)
2000ab70:	ab68                	fsd	fa0,208(a4)
2000ab72:	2000                	fld	fs0,0(s0)
2000ab74:	ab68                	fsd	fa0,208(a4)
2000ab76:	2000                	fld	fs0,0(s0)
2000ab78:	ab70                	fsd	fa2,208(a4)
2000ab7a:	2000                	fld	fs0,0(s0)
2000ab7c:	ab70                	fsd	fa2,208(a4)
2000ab7e:	2000                	fld	fs0,0(s0)
2000ab80:	ab78                	fsd	fa4,208(a4)
2000ab82:	2000                	fld	fs0,0(s0)
2000ab84:	ab78                	fsd	fa4,208(a4)
2000ab86:	2000                	fld	fs0,0(s0)
2000ab88:	ab80                	fsd	fs0,16(a5)
2000ab8a:	2000                	fld	fs0,0(s0)
2000ab8c:	ab80                	fsd	fs0,16(a5)
2000ab8e:	2000                	fld	fs0,0(s0)
2000ab90:	ab88                	fsd	fa0,16(a5)
2000ab92:	2000                	fld	fs0,0(s0)
2000ab94:	ab88                	fsd	fa0,16(a5)
2000ab96:	2000                	fld	fs0,0(s0)
2000ab98:	ab90                	fsd	fa2,16(a5)
2000ab9a:	2000                	fld	fs0,0(s0)
2000ab9c:	ab90                	fsd	fa2,16(a5)
2000ab9e:	2000                	fld	fs0,0(s0)
2000aba0:	ab98                	fsd	fa4,16(a5)
2000aba2:	2000                	fld	fs0,0(s0)
2000aba4:	ab98                	fsd	fa4,16(a5)
2000aba6:	2000                	fld	fs0,0(s0)
2000aba8:	aba0                	fsd	fs0,80(a5)
2000abaa:	2000                	fld	fs0,0(s0)
2000abac:	aba0                	fsd	fs0,80(a5)
2000abae:	2000                	fld	fs0,0(s0)
2000abb0:	aba8                	fsd	fa0,80(a5)
2000abb2:	2000                	fld	fs0,0(s0)
2000abb4:	aba8                	fsd	fa0,80(a5)
2000abb6:	2000                	fld	fs0,0(s0)
2000abb8:	abb0                	fsd	fa2,80(a5)
2000abba:	2000                	fld	fs0,0(s0)
2000abbc:	abb0                	fsd	fa2,80(a5)
2000abbe:	2000                	fld	fs0,0(s0)
2000abc0:	abb8                	fsd	fa4,80(a5)
2000abc2:	2000                	fld	fs0,0(s0)
2000abc4:	abb8                	fsd	fa4,80(a5)
2000abc6:	2000                	fld	fs0,0(s0)
2000abc8:	abc0                	fsd	fs0,144(a5)
2000abca:	2000                	fld	fs0,0(s0)
2000abcc:	abc0                	fsd	fs0,144(a5)
2000abce:	2000                	fld	fs0,0(s0)
2000abd0:	abc8                	fsd	fa0,144(a5)
2000abd2:	2000                	fld	fs0,0(s0)
2000abd4:	abc8                	fsd	fa0,144(a5)
2000abd6:	2000                	fld	fs0,0(s0)
2000abd8:	abd0                	fsd	fa2,144(a5)
2000abda:	2000                	fld	fs0,0(s0)
2000abdc:	abd0                	fsd	fa2,144(a5)
2000abde:	2000                	fld	fs0,0(s0)
2000abe0:	abd8                	fsd	fa4,144(a5)
2000abe2:	2000                	fld	fs0,0(s0)
2000abe4:	abd8                	fsd	fa4,144(a5)
2000abe6:	2000                	fld	fs0,0(s0)
2000abe8:	abe0                	fsd	fs0,208(a5)
2000abea:	2000                	fld	fs0,0(s0)
2000abec:	abe0                	fsd	fs0,208(a5)
2000abee:	2000                	fld	fs0,0(s0)
2000abf0:	abe8                	fsd	fa0,208(a5)
2000abf2:	2000                	fld	fs0,0(s0)
2000abf4:	abe8                	fsd	fa0,208(a5)
2000abf6:	2000                	fld	fs0,0(s0)
2000abf8:	abf0                	fsd	fa2,208(a5)
2000abfa:	2000                	fld	fs0,0(s0)
2000abfc:	abf0                	fsd	fa2,208(a5)
2000abfe:	2000                	fld	fs0,0(s0)
2000ac00:	abf8                	fsd	fa4,208(a5)
2000ac02:	2000                	fld	fs0,0(s0)
2000ac04:	abf8                	fsd	fa4,208(a5)
2000ac06:	2000                	fld	fs0,0(s0)
2000ac08:	ac00                	fsd	fs0,24(s0)
2000ac0a:	2000                	fld	fs0,0(s0)
2000ac0c:	ac00                	fsd	fs0,24(s0)
2000ac0e:	2000                	fld	fs0,0(s0)
2000ac10:	ac08                	fsd	fa0,24(s0)
2000ac12:	2000                	fld	fs0,0(s0)
2000ac14:	ac08                	fsd	fa0,24(s0)
2000ac16:	2000                	fld	fs0,0(s0)
2000ac18:	ac10                	fsd	fa2,24(s0)
2000ac1a:	2000                	fld	fs0,0(s0)
2000ac1c:	ac10                	fsd	fa2,24(s0)
2000ac1e:	2000                	fld	fs0,0(s0)
2000ac20:	ac18                	fsd	fa4,24(s0)
2000ac22:	2000                	fld	fs0,0(s0)
2000ac24:	ac18                	fsd	fa4,24(s0)
2000ac26:	2000                	fld	fs0,0(s0)
2000ac28:	ac20                	fsd	fs0,88(s0)
2000ac2a:	2000                	fld	fs0,0(s0)
2000ac2c:	ac20                	fsd	fs0,88(s0)
2000ac2e:	2000                	fld	fs0,0(s0)
2000ac30:	ac28                	fsd	fa0,88(s0)
2000ac32:	2000                	fld	fs0,0(s0)
2000ac34:	ac28                	fsd	fa0,88(s0)
2000ac36:	2000                	fld	fs0,0(s0)
2000ac38:	ac30                	fsd	fa2,88(s0)
2000ac3a:	2000                	fld	fs0,0(s0)
2000ac3c:	ac30                	fsd	fa2,88(s0)
2000ac3e:	2000                	fld	fs0,0(s0)
2000ac40:	ac38                	fsd	fa4,88(s0)
2000ac42:	2000                	fld	fs0,0(s0)
2000ac44:	ac38                	fsd	fa4,88(s0)
2000ac46:	2000                	fld	fs0,0(s0)
2000ac48:	ac40                	fsd	fs0,152(s0)
2000ac4a:	2000                	fld	fs0,0(s0)
2000ac4c:	ac40                	fsd	fs0,152(s0)
2000ac4e:	2000                	fld	fs0,0(s0)
2000ac50:	ac48                	fsd	fa0,152(s0)
2000ac52:	2000                	fld	fs0,0(s0)
2000ac54:	ac48                	fsd	fa0,152(s0)
2000ac56:	2000                	fld	fs0,0(s0)
2000ac58:	ac50                	fsd	fa2,152(s0)
2000ac5a:	2000                	fld	fs0,0(s0)
2000ac5c:	ac50                	fsd	fa2,152(s0)
2000ac5e:	2000                	fld	fs0,0(s0)
2000ac60:	ac58                	fsd	fa4,152(s0)
2000ac62:	2000                	fld	fs0,0(s0)
2000ac64:	ac58                	fsd	fa4,152(s0)
2000ac66:	2000                	fld	fs0,0(s0)
2000ac68:	ac60                	fsd	fs0,216(s0)
2000ac6a:	2000                	fld	fs0,0(s0)
2000ac6c:	ac60                	fsd	fs0,216(s0)
2000ac6e:	2000                	fld	fs0,0(s0)
2000ac70:	ac68                	fsd	fa0,216(s0)
2000ac72:	2000                	fld	fs0,0(s0)
2000ac74:	ac68                	fsd	fa0,216(s0)
2000ac76:	2000                	fld	fs0,0(s0)
2000ac78:	ac70                	fsd	fa2,216(s0)
2000ac7a:	2000                	fld	fs0,0(s0)
2000ac7c:	ac70                	fsd	fa2,216(s0)
2000ac7e:	2000                	fld	fs0,0(s0)
2000ac80:	ac78                	fsd	fa4,216(s0)
2000ac82:	2000                	fld	fs0,0(s0)
2000ac84:	ac78                	fsd	fa4,216(s0)
2000ac86:	2000                	fld	fs0,0(s0)
2000ac88:	ac80                	fsd	fs0,24(s1)
2000ac8a:	2000                	fld	fs0,0(s0)
2000ac8c:	ac80                	fsd	fs0,24(s1)
2000ac8e:	2000                	fld	fs0,0(s0)
2000ac90:	ac88                	fsd	fa0,24(s1)
2000ac92:	2000                	fld	fs0,0(s0)
2000ac94:	ac88                	fsd	fa0,24(s1)
2000ac96:	2000                	fld	fs0,0(s0)
2000ac98:	ac90                	fsd	fa2,24(s1)
2000ac9a:	2000                	fld	fs0,0(s0)
2000ac9c:	ac90                	fsd	fa2,24(s1)
2000ac9e:	2000                	fld	fs0,0(s0)
2000aca0:	ac98                	fsd	fa4,24(s1)
2000aca2:	2000                	fld	fs0,0(s0)
2000aca4:	ac98                	fsd	fa4,24(s1)
2000aca6:	2000                	fld	fs0,0(s0)
2000aca8:	aca0                	fsd	fs0,88(s1)
2000acaa:	2000                	fld	fs0,0(s0)
2000acac:	aca0                	fsd	fs0,88(s1)
2000acae:	2000                	fld	fs0,0(s0)
2000acb0:	aca8                	fsd	fa0,88(s1)
2000acb2:	2000                	fld	fs0,0(s0)
2000acb4:	aca8                	fsd	fa0,88(s1)
2000acb6:	2000                	fld	fs0,0(s0)
2000acb8:	acb0                	fsd	fa2,88(s1)
2000acba:	2000                	fld	fs0,0(s0)
2000acbc:	acb0                	fsd	fa2,88(s1)
2000acbe:	2000                	fld	fs0,0(s0)
2000acc0:	acb8                	fsd	fa4,88(s1)
2000acc2:	2000                	fld	fs0,0(s0)
2000acc4:	acb8                	fsd	fa4,88(s1)
2000acc6:	2000                	fld	fs0,0(s0)
2000acc8:	acc0                	fsd	fs0,152(s1)
2000acca:	2000                	fld	fs0,0(s0)
2000accc:	acc0                	fsd	fs0,152(s1)
2000acce:	2000                	fld	fs0,0(s0)
2000acd0:	acc8                	fsd	fa0,152(s1)
2000acd2:	2000                	fld	fs0,0(s0)
2000acd4:	acc8                	fsd	fa0,152(s1)
2000acd6:	2000                	fld	fs0,0(s0)
2000acd8:	acd0                	fsd	fa2,152(s1)
2000acda:	2000                	fld	fs0,0(s0)
2000acdc:	acd0                	fsd	fa2,152(s1)
2000acde:	2000                	fld	fs0,0(s0)
2000ace0:	acd8                	fsd	fa4,152(s1)
2000ace2:	2000                	fld	fs0,0(s0)
2000ace4:	acd8                	fsd	fa4,152(s1)
2000ace6:	2000                	fld	fs0,0(s0)
2000ace8:	ace0                	fsd	fs0,216(s1)
2000acea:	2000                	fld	fs0,0(s0)
2000acec:	ace0                	fsd	fs0,216(s1)
2000acee:	2000                	fld	fs0,0(s0)
2000acf0:	ace8                	fsd	fa0,216(s1)
2000acf2:	2000                	fld	fs0,0(s0)
2000acf4:	ace8                	fsd	fa0,216(s1)
2000acf6:	2000                	fld	fs0,0(s0)
2000acf8:	acf0                	fsd	fa2,216(s1)
2000acfa:	2000                	fld	fs0,0(s0)
2000acfc:	acf0                	fsd	fa2,216(s1)
2000acfe:	2000                	fld	fs0,0(s0)
2000ad00:	acf8                	fsd	fa4,216(s1)
2000ad02:	2000                	fld	fs0,0(s0)
2000ad04:	acf8                	fsd	fa4,216(s1)
2000ad06:	2000                	fld	fs0,0(s0)
2000ad08:	ad00                	fsd	fs0,24(a0)
2000ad0a:	2000                	fld	fs0,0(s0)
2000ad0c:	ad00                	fsd	fs0,24(a0)
2000ad0e:	2000                	fld	fs0,0(s0)
2000ad10:	ad08                	fsd	fa0,24(a0)
2000ad12:	2000                	fld	fs0,0(s0)
2000ad14:	ad08                	fsd	fa0,24(a0)
2000ad16:	2000                	fld	fs0,0(s0)
2000ad18:	ad10                	fsd	fa2,24(a0)
2000ad1a:	2000                	fld	fs0,0(s0)
2000ad1c:	ad10                	fsd	fa2,24(a0)
2000ad1e:	2000                	fld	fs0,0(s0)
2000ad20:	ad18                	fsd	fa4,24(a0)
2000ad22:	2000                	fld	fs0,0(s0)
2000ad24:	ad18                	fsd	fa4,24(a0)
2000ad26:	2000                	fld	fs0,0(s0)
2000ad28:	ad20                	fsd	fs0,88(a0)
2000ad2a:	2000                	fld	fs0,0(s0)
2000ad2c:	ad20                	fsd	fs0,88(a0)
2000ad2e:	2000                	fld	fs0,0(s0)
2000ad30:	ad28                	fsd	fa0,88(a0)
2000ad32:	2000                	fld	fs0,0(s0)
2000ad34:	ad28                	fsd	fa0,88(a0)
2000ad36:	2000                	fld	fs0,0(s0)
2000ad38:	ad30                	fsd	fa2,88(a0)
2000ad3a:	2000                	fld	fs0,0(s0)
2000ad3c:	ad30                	fsd	fa2,88(a0)
2000ad3e:	2000                	fld	fs0,0(s0)
2000ad40:	ad38                	fsd	fa4,88(a0)
2000ad42:	2000                	fld	fs0,0(s0)
2000ad44:	ad38                	fsd	fa4,88(a0)
2000ad46:	2000                	fld	fs0,0(s0)
2000ad48:	ad40                	fsd	fs0,152(a0)
2000ad4a:	2000                	fld	fs0,0(s0)
2000ad4c:	ad40                	fsd	fs0,152(a0)
2000ad4e:	2000                	fld	fs0,0(s0)
2000ad50:	ad48                	fsd	fa0,152(a0)
2000ad52:	2000                	fld	fs0,0(s0)
2000ad54:	ad48                	fsd	fa0,152(a0)
2000ad56:	2000                	fld	fs0,0(s0)
2000ad58:	ad50                	fsd	fa2,152(a0)
2000ad5a:	2000                	fld	fs0,0(s0)
2000ad5c:	ad50                	fsd	fa2,152(a0)
2000ad5e:	2000                	fld	fs0,0(s0)
2000ad60:	ad58                	fsd	fa4,152(a0)
2000ad62:	2000                	fld	fs0,0(s0)
2000ad64:	ad58                	fsd	fa4,152(a0)
2000ad66:	2000                	fld	fs0,0(s0)
2000ad68:	ad60                	fsd	fs0,216(a0)
2000ad6a:	2000                	fld	fs0,0(s0)
2000ad6c:	ad60                	fsd	fs0,216(a0)
2000ad6e:	2000                	fld	fs0,0(s0)
2000ad70:	ad68                	fsd	fa0,216(a0)
2000ad72:	2000                	fld	fs0,0(s0)
2000ad74:	ad68                	fsd	fa0,216(a0)
2000ad76:	2000                	fld	fs0,0(s0)
2000ad78:	ad70                	fsd	fa2,216(a0)
2000ad7a:	2000                	fld	fs0,0(s0)
2000ad7c:	ad70                	fsd	fa2,216(a0)
2000ad7e:	2000                	fld	fs0,0(s0)
2000ad80:	ad78                	fsd	fa4,216(a0)
2000ad82:	2000                	fld	fs0,0(s0)
2000ad84:	ad78                	fsd	fa4,216(a0)
2000ad86:	2000                	fld	fs0,0(s0)
2000ad88:	ad80                	fsd	fs0,24(a1)
2000ad8a:	2000                	fld	fs0,0(s0)
2000ad8c:	ad80                	fsd	fs0,24(a1)
2000ad8e:	2000                	fld	fs0,0(s0)
2000ad90:	ad88                	fsd	fa0,24(a1)
2000ad92:	2000                	fld	fs0,0(s0)
2000ad94:	ad88                	fsd	fa0,24(a1)
2000ad96:	2000                	fld	fs0,0(s0)
2000ad98:	ad90                	fsd	fa2,24(a1)
2000ad9a:	2000                	fld	fs0,0(s0)
2000ad9c:	ad90                	fsd	fa2,24(a1)
2000ad9e:	2000                	fld	fs0,0(s0)
2000ada0:	ad98                	fsd	fa4,24(a1)
2000ada2:	2000                	fld	fs0,0(s0)
2000ada4:	ad98                	fsd	fa4,24(a1)
2000ada6:	2000                	fld	fs0,0(s0)
2000ada8:	ada0                	fsd	fs0,88(a1)
2000adaa:	2000                	fld	fs0,0(s0)
2000adac:	ada0                	fsd	fs0,88(a1)
2000adae:	2000                	fld	fs0,0(s0)
2000adb0:	ada8                	fsd	fa0,88(a1)
2000adb2:	2000                	fld	fs0,0(s0)
2000adb4:	ada8                	fsd	fa0,88(a1)
2000adb6:	2000                	fld	fs0,0(s0)
2000adb8:	adb0                	fsd	fa2,88(a1)
2000adba:	2000                	fld	fs0,0(s0)
2000adbc:	adb0                	fsd	fa2,88(a1)
2000adbe:	2000                	fld	fs0,0(s0)
2000adc0:	adb8                	fsd	fa4,88(a1)
2000adc2:	2000                	fld	fs0,0(s0)
2000adc4:	adb8                	fsd	fa4,88(a1)
2000adc6:	2000                	fld	fs0,0(s0)
2000adc8:	adc0                	fsd	fs0,152(a1)
2000adca:	2000                	fld	fs0,0(s0)
2000adcc:	adc0                	fsd	fs0,152(a1)
2000adce:	2000                	fld	fs0,0(s0)
2000add0:	adc8                	fsd	fa0,152(a1)
2000add2:	2000                	fld	fs0,0(s0)
2000add4:	adc8                	fsd	fa0,152(a1)
2000add6:	2000                	fld	fs0,0(s0)
2000add8:	add0                	fsd	fa2,152(a1)
2000adda:	2000                	fld	fs0,0(s0)
2000addc:	add0                	fsd	fa2,152(a1)
2000adde:	2000                	fld	fs0,0(s0)
2000ade0:	add8                	fsd	fa4,152(a1)
2000ade2:	2000                	fld	fs0,0(s0)
2000ade4:	add8                	fsd	fa4,152(a1)
2000ade6:	2000                	fld	fs0,0(s0)
2000ade8:	ade0                	fsd	fs0,216(a1)
2000adea:	2000                	fld	fs0,0(s0)
2000adec:	ade0                	fsd	fs0,216(a1)
2000adee:	2000                	fld	fs0,0(s0)
2000adf0:	ade8                	fsd	fa0,216(a1)
2000adf2:	2000                	fld	fs0,0(s0)
2000adf4:	ade8                	fsd	fa0,216(a1)
2000adf6:	2000                	fld	fs0,0(s0)
2000adf8:	adf0                	fsd	fa2,216(a1)
2000adfa:	2000                	fld	fs0,0(s0)
2000adfc:	adf0                	fsd	fa2,216(a1)
2000adfe:	2000                	fld	fs0,0(s0)
2000ae00:	adf8                	fsd	fa4,216(a1)
2000ae02:	2000                	fld	fs0,0(s0)
2000ae04:	adf8                	fsd	fa4,216(a1)
2000ae06:	2000                	fld	fs0,0(s0)
2000ae08:	ae00                	fsd	fs0,24(a2)
2000ae0a:	2000                	fld	fs0,0(s0)
2000ae0c:	ae00                	fsd	fs0,24(a2)
2000ae0e:	2000                	fld	fs0,0(s0)
2000ae10:	ae08                	fsd	fa0,24(a2)
2000ae12:	2000                	fld	fs0,0(s0)
2000ae14:	ae08                	fsd	fa0,24(a2)
2000ae16:	2000                	fld	fs0,0(s0)
2000ae18:	ae10                	fsd	fa2,24(a2)
2000ae1a:	2000                	fld	fs0,0(s0)
2000ae1c:	ae10                	fsd	fa2,24(a2)
2000ae1e:	2000                	fld	fs0,0(s0)
2000ae20:	ae18                	fsd	fa4,24(a2)
2000ae22:	2000                	fld	fs0,0(s0)
2000ae24:	ae18                	fsd	fa4,24(a2)
2000ae26:	2000                	fld	fs0,0(s0)
2000ae28:	ae20                	fsd	fs0,88(a2)
2000ae2a:	2000                	fld	fs0,0(s0)
2000ae2c:	ae20                	fsd	fs0,88(a2)
2000ae2e:	2000                	fld	fs0,0(s0)
2000ae30:	ae28                	fsd	fa0,88(a2)
2000ae32:	2000                	fld	fs0,0(s0)
2000ae34:	ae28                	fsd	fa0,88(a2)
2000ae36:	2000                	fld	fs0,0(s0)
2000ae38:	ae30                	fsd	fa2,88(a2)
2000ae3a:	2000                	fld	fs0,0(s0)
2000ae3c:	ae30                	fsd	fa2,88(a2)
2000ae3e:	2000                	fld	fs0,0(s0)
2000ae40:	ae38                	fsd	fa4,88(a2)
2000ae42:	2000                	fld	fs0,0(s0)
2000ae44:	ae38                	fsd	fa4,88(a2)
2000ae46:	2000                	fld	fs0,0(s0)
2000ae48:	ae40                	fsd	fs0,152(a2)
2000ae4a:	2000                	fld	fs0,0(s0)
2000ae4c:	ae40                	fsd	fs0,152(a2)
2000ae4e:	2000                	fld	fs0,0(s0)
2000ae50:	ae48                	fsd	fa0,152(a2)
2000ae52:	2000                	fld	fs0,0(s0)
2000ae54:	ae48                	fsd	fa0,152(a2)
2000ae56:	2000                	fld	fs0,0(s0)
2000ae58:	ae50                	fsd	fa2,152(a2)
2000ae5a:	2000                	fld	fs0,0(s0)
2000ae5c:	ae50                	fsd	fa2,152(a2)
2000ae5e:	2000                	fld	fs0,0(s0)
2000ae60:	ae58                	fsd	fa4,152(a2)
2000ae62:	2000                	fld	fs0,0(s0)
2000ae64:	ae58                	fsd	fa4,152(a2)
2000ae66:	2000                	fld	fs0,0(s0)
2000ae68:	ae60                	fsd	fs0,216(a2)
2000ae6a:	2000                	fld	fs0,0(s0)
2000ae6c:	ae60                	fsd	fs0,216(a2)
2000ae6e:	2000                	fld	fs0,0(s0)
2000ae70:	ae68                	fsd	fa0,216(a2)
2000ae72:	2000                	fld	fs0,0(s0)
2000ae74:	ae68                	fsd	fa0,216(a2)
2000ae76:	2000                	fld	fs0,0(s0)
2000ae78:	ae70                	fsd	fa2,216(a2)
2000ae7a:	2000                	fld	fs0,0(s0)
2000ae7c:	ae70                	fsd	fa2,216(a2)
2000ae7e:	2000                	fld	fs0,0(s0)
2000ae80:	ae78                	fsd	fa4,216(a2)
2000ae82:	2000                	fld	fs0,0(s0)
2000ae84:	ae78                	fsd	fa4,216(a2)
2000ae86:	2000                	fld	fs0,0(s0)
2000ae88:	ae80                	fsd	fs0,24(a3)
2000ae8a:	2000                	fld	fs0,0(s0)
2000ae8c:	ae80                	fsd	fs0,24(a3)
2000ae8e:	2000                	fld	fs0,0(s0)
2000ae90:	ae88                	fsd	fa0,24(a3)
2000ae92:	2000                	fld	fs0,0(s0)
2000ae94:	ae88                	fsd	fa0,24(a3)
2000ae96:	2000                	fld	fs0,0(s0)
2000ae98:	ae90                	fsd	fa2,24(a3)
2000ae9a:	2000                	fld	fs0,0(s0)
2000ae9c:	ae90                	fsd	fa2,24(a3)
2000ae9e:	2000                	fld	fs0,0(s0)
2000aea0:	ae98                	fsd	fa4,24(a3)
2000aea2:	2000                	fld	fs0,0(s0)
2000aea4:	ae98                	fsd	fa4,24(a3)
2000aea6:	2000                	fld	fs0,0(s0)
2000aea8:	aea0                	fsd	fs0,88(a3)
2000aeaa:	2000                	fld	fs0,0(s0)
2000aeac:	aea0                	fsd	fs0,88(a3)
2000aeae:	2000                	fld	fs0,0(s0)
2000aeb0:	aea8                	fsd	fa0,88(a3)
2000aeb2:	2000                	fld	fs0,0(s0)
2000aeb4:	aea8                	fsd	fa0,88(a3)
2000aeb6:	2000                	fld	fs0,0(s0)
2000aeb8:	aeb0                	fsd	fa2,88(a3)
2000aeba:	2000                	fld	fs0,0(s0)
2000aebc:	aeb0                	fsd	fa2,88(a3)
2000aebe:	2000                	fld	fs0,0(s0)
2000aec0:	aeb8                	fsd	fa4,88(a3)
2000aec2:	2000                	fld	fs0,0(s0)
2000aec4:	aeb8                	fsd	fa4,88(a3)
2000aec6:	2000                	fld	fs0,0(s0)
2000aec8:	aec0                	fsd	fs0,152(a3)
2000aeca:	2000                	fld	fs0,0(s0)
2000aecc:	aec0                	fsd	fs0,152(a3)
2000aece:	2000                	fld	fs0,0(s0)
2000aed0:	aec8                	fsd	fa0,152(a3)
2000aed2:	2000                	fld	fs0,0(s0)
2000aed4:	aec8                	fsd	fa0,152(a3)
2000aed6:	2000                	fld	fs0,0(s0)
2000aed8:	aed0                	fsd	fa2,152(a3)
2000aeda:	2000                	fld	fs0,0(s0)
2000aedc:	aed0                	fsd	fa2,152(a3)
2000aede:	2000                	fld	fs0,0(s0)
2000aee0:	aed8                	fsd	fa4,152(a3)
2000aee2:	2000                	fld	fs0,0(s0)
2000aee4:	aed8                	fsd	fa4,152(a3)
2000aee6:	2000                	fld	fs0,0(s0)
2000aee8:	aee0                	fsd	fs0,216(a3)
2000aeea:	2000                	fld	fs0,0(s0)
2000aeec:	aee0                	fsd	fs0,216(a3)
2000aeee:	2000                	fld	fs0,0(s0)
2000aef0:	aee8                	fsd	fa0,216(a3)
2000aef2:	2000                	fld	fs0,0(s0)
2000aef4:	aee8                	fsd	fa0,216(a3)
2000aef6:	2000                	fld	fs0,0(s0)
2000aef8:	aef0                	fsd	fa2,216(a3)
2000aefa:	2000                	fld	fs0,0(s0)
2000aefc:	aef0                	fsd	fa2,216(a3)
2000aefe:	2000                	fld	fs0,0(s0)
2000af00:	aef8                	fsd	fa4,216(a3)
2000af02:	2000                	fld	fs0,0(s0)
2000af04:	aef8                	fsd	fa4,216(a3)
2000af06:	2000                	fld	fs0,0(s0)
2000af08:	af00                	fsd	fs0,24(a4)
2000af0a:	2000                	fld	fs0,0(s0)
2000af0c:	af00                	fsd	fs0,24(a4)
2000af0e:	2000                	fld	fs0,0(s0)
2000af10:	af08                	fsd	fa0,24(a4)
2000af12:	2000                	fld	fs0,0(s0)
2000af14:	af08                	fsd	fa0,24(a4)
2000af16:	2000                	fld	fs0,0(s0)
2000af18:	af10                	fsd	fa2,24(a4)
2000af1a:	2000                	fld	fs0,0(s0)
2000af1c:	af10                	fsd	fa2,24(a4)
2000af1e:	2000                	fld	fs0,0(s0)
2000af20:	af18                	fsd	fa4,24(a4)
2000af22:	2000                	fld	fs0,0(s0)
2000af24:	af18                	fsd	fa4,24(a4)
2000af26:	2000                	fld	fs0,0(s0)

2000af28 <FRtoString>:
2000af28:	9464                	0x9464
2000af2a:	2000                	fld	fs0,0(s0)
2000af2c:	9470                	0x9470
2000af2e:	2000                	fld	fs0,0(s0)
2000af30:	94a8                	0x94a8
2000af32:	2000                	fld	fs0,0(s0)
2000af34:	94bc                	0x94bc
2000af36:	2000                	fld	fs0,0(s0)
2000af38:	94dc                	0x94dc
2000af3a:	2000                	fld	fs0,0(s0)
2000af3c:	94f8                	0x94f8
2000af3e:	2000                	fld	fs0,0(s0)
2000af40:	9514                	0x9514
2000af42:	2000                	fld	fs0,0(s0)
2000af44:	9538                	0x9538
2000af46:	2000                	fld	fs0,0(s0)
2000af48:	9574                	0x9574
2000af4a:	2000                	fld	fs0,0(s0)
2000af4c:	959c                	0x959c
2000af4e:	2000                	fld	fs0,0(s0)
2000af50:	95c4                	0x95c4
2000af52:	2000                	fld	fs0,0(s0)
2000af54:	95ec                	0x95ec
2000af56:	2000                	fld	fs0,0(s0)
2000af58:	9614                	0x9614
2000af5a:	2000                	fld	fs0,0(s0)
2000af5c:	9634                	0x9634
2000af5e:	2000                	fld	fs0,0(s0)
2000af60:	9654                	0x9654
2000af62:	2000                	fld	fs0,0(s0)
2000af64:	9680                	0x9680
2000af66:	2000                	fld	fs0,0(s0)
2000af68:	96c4                	0x96c4
2000af6a:	2000                	fld	fs0,0(s0)
2000af6c:	9704                	0x9704
2000af6e:	2000                	fld	fs0,0(s0)
2000af70:	9730                	0x9730
2000af72:	2000                	fld	fs0,0(s0)
2000af74:	9754                	0x9754
2000af76:	2000                	fld	fs0,0(s0)

2000af78 <IO_UARTRX>:
2000af78:	0008                	0x8
2000af7a:	8000                	0x8000

2000af7c <IO_UARTRXByteCount>:
2000af7c:	0004                	0x4
2000af7e:	8000                	0x8000

2000af80 <IO_UARTTX>:
2000af80:	000c                	0xc
2000af82:	8000                	0x8000

2000af84 <_ZL10heap_start>:
2000af84:	0000                	unimp
2000af86:	0100                	addi	s0,sp,128

2000af88 <IO_SPIInput>:
2000af88:	0010                	0x10
2000af8a:	8000                	0x8000

2000af8c <IO_SPIOutput>:
2000af8c:	0014                	0x14
2000af8e:	8000                	0x8000

2000af90 <GraphicsFontStart>:
2000af90:	e800                	fsw	fs0,16(s0)
2000af92:	1001                	c.nop	-32

2000af94 <IO_GPUCommandFIFO>:
2000af94:	0000                	unimp
2000af96:	8000                	0x8000

2000af98 <IO_SwitchState>:
2000af98:	0018                	0x18
2000af9a:	8000                	0x8000

2000af9c <_ZL9VolumeStr>:
2000af9c:	97c4                	0x97c4
2000af9e:	2000                	fld	fs0,0(s0)
2000afa0:	97c8                	0x97c8
2000afa2:	2000                	fld	fs0,0(s0)
2000afa4:	97cc                	0x97cc
2000afa6:	2000                	fld	fs0,0(s0)

Disassembly of section .got:

2000afa8 <_GLOBAL_OFFSET_TABLE_>:
2000afa8:	0000                	unimp
2000afaa:	0000                	unimp
2000afac:	b39c                	fsd	fa5,32(a5)
2000afae:	2000                	fld	fs0,0(s0)
2000afb0:	af98                	fsd	fa4,24(a5)
2000afb2:	2000                	fld	fs0,0(s0)
2000afb4:	b820                	fsd	fs0,112(s0)
2000afb6:	2000                	fld	fs0,0(s0)
2000afb8:	af94                	fsd	fa3,24(a5)
2000afba:	2000                	fld	fs0,0(s0)
2000afbc:	af90                	fsd	fa2,24(a5)
2000afbe:	2000                	fld	fs0,0(s0)
2000afc0:	af78                	fsd	fa4,216(a4)
2000afc2:	2000                	fld	fs0,0(s0)
2000afc4:	b3a4                	fsd	fs1,96(a5)
2000afc6:	2000                	fld	fs0,0(s0)
2000afc8:	b394                	fsd	fa3,32(a5)
2000afca:	2000                	fld	fs0,0(s0)
2000afcc:	af8c                	fsd	fa1,24(a5)
2000afce:	2000                	fld	fs0,0(s0)
2000afd0:	0084                	addi	s1,sp,64
2000afd2:	2000                	fld	fs0,0(s0)
2000afd4:	b390                	fsd	fa2,32(a5)
2000afd6:	2000                	fld	fs0,0(s0)
2000afd8:	b3a0                	fsd	fs0,96(a5)
2000afda:	2000                	fld	fs0,0(s0)
2000afdc:	af88                	fsd	fa0,24(a5)
2000afde:	2000                	fld	fs0,0(s0)
2000afe0:	b398                	fsd	fa4,32(a5)
2000afe2:	2000                	fld	fs0,0(s0)
2000afe4:	b288                	fsd	fa0,32(a3)
2000afe6:	2000                	fld	fs0,0(s0)
2000afe8:	b020                	fsd	fs0,96(s0)
2000afea:	2000                	fld	fs0,0(s0)
2000afec:	b388                	fsd	fa0,32(a5)
2000afee:	2000                	fld	fs0,0(s0)
2000aff0:	0064                	addi	s1,sp,12
2000aff2:	2000                	fld	fs0,0(s0)
2000aff4:	af80                	fsd	fs0,24(a5)
2000aff6:	2000                	fld	fs0,0(s0)
2000aff8:	af7c                	fsd	fa5,216(a4)
2000affa:	2000                	fld	fs0,0(s0)
2000affc:	b5b9                	j	2000ae4a <__malloc_av_+0x32a>
2000affe:	2000                	fld	fs0,0(s0)
2000b000:	b38c                	fsd	fa1,32(a5)
2000b002:	2000                	fld	fs0,0(s0)
2000b004:	af28                	fsd	fa0,88(a4)
2000b006:	2000                	fld	fs0,0(s0)
2000b008:	b058                	fsd	fa4,160(s0)
2000b00a:	2000                	fld	fs0,0(s0)

Disassembly of section .got.plt:

2000b00c <.got.plt>:
2000b00c:	ffff                	0xffff
2000b00e:	ffff                	0xffff
2000b010:	0000                	unimp
	...

Disassembly of section .sdata:

2000b014 <_impure_ptr>:
2000b014:	a6f8                	fsd	fa4,200(a3)
2000b016:	2000                	fld	fs0,0(s0)

2000b018 <__malloc_sbrk_base>:
2000b018:	ffff                	0xffff
2000b01a:	ffff                	0xffff

2000b01c <__malloc_trim_threshold>:
2000b01c:	0000                	unimp
2000b01e:	0002                	c.slli64	zero

Disassembly of section .sbss:

2000b020 <__malloc_max_total_mem>:
2000b020:	0000                	unimp
	...

2000b024 <__malloc_max_sbrked_mem>:
2000b024:	0000                	unimp
	...

2000b028 <__malloc_top_pad>:
2000b028:	0000                	unimp
	...

2000b02c <errno>:
2000b02c:	0000                	unimp
	...

Disassembly of section .bss:

2000b030 <__malloc_current_mallinfo>:
	...

2000b058 <Fs>:
	...

2000b288 <executables>:
	...

2000b388 <gpuSideSubmitCounter>:
2000b388:	0000                	unimp
	...

2000b38c <gpuSubmitCounter>:
2000b38c:	0000                	unimp
	...

2000b390 <hardwareswitchstates>:
2000b390:	0000                	unimp
	...

2000b394 <numexecutables>:
2000b394:	0000                	unimp
	...

2000b398 <oldhardwareswitchstates>:
2000b398:	0000                	unimp
	...

2000b39c <selectedexecutable>:
2000b39c:	0000                	unimp
	...

2000b3a0 <vramPage>:
2000b3a0:	0000                	unimp
	...

2000b3a4 <font>:
2000b3a4:	0000                	unimp
	...

2000b3a8 <_ZL4Fsid>:
2000b3a8:	0000                	unimp
	...

2000b3ac <_ZL5FatFs>:
	...

2000b3b8 <_ZL6LfnBuf>:
	...

2000b5b8 <_ZL7CurrVol>:
	...

Disassembly of section .comment:

00000000 <.comment>:
   0:	3a434347          	fmsub.d	ft6,ft6,ft4,ft7,rmm
   4:	2820                	fld	fs0,80(s0)
   6:	29554e47          	fmsub.s	ft8,fa0,fs5,ft5,rmm
   a:	3120                	fld	fs0,96(a0)
   c:	2e30                	fld	fa2,88(a2)
   e:	2e32                	fld	ft8,264(sp)
  10:	0030                	addi	a2,sp,8

Disassembly of section .riscv.attributes:

00000000 <.riscv.attributes>:
   0:	1f41                	addi	t5,t5,-16
   2:	0000                	unimp
   4:	7200                	flw	fs0,32(a2)
   6:	7369                	lui	t1,0xffffa
   8:	01007663          	bgeu	zero,a6,14 <_STACK_SIZE-0x1dc>
   c:	0015                	c.nop	5
   e:	0000                	unimp
  10:	1004                	addi	s1,sp,32
  12:	7205                	lui	tp,0xfffe1
  14:	3376                	fld	ft6,376(sp)
  16:	6932                	flw	fs2,12(sp)
  18:	7032                	flw	ft0,44(sp)
  1a:	0030                	addi	a2,sp,8
  1c:	0108                	addi	a0,sp,128
  1e:	0b0a                	slli	s6,s6,0x2
