
./mandelbrot.elf:     file format elf32-littleriscv
./mandelbrot.elf
architecture: riscv:rv32, flags 0x00000112:
EXEC_P, HAS_SYMS, D_PAGED
start address 0x00010224

Program Header:
    LOAD off    0x00000000 vaddr 0x00010000 paddr 0x00010000 align 2**12
         filesz 0x00009824 memsz 0x00009824 flags r-x
    LOAD off    0x0000a000 vaddr 0x0001a000 paddr 0x0001a000 align 2**12
         filesz 0x0000147c memsz 0x00005c70 flags rw-

Sections:
Idx Name          Size      VMA       LMA       File off  Algn
  0 .text         000077f0  00010074  00010074  00000074  2**2
                  CONTENTS, ALLOC, LOAD, READONLY, CODE
  1 .rodata       00001fc0  00017864  00017864  00007864  2**2
                  CONTENTS, ALLOC, LOAD, READONLY, DATA
  2 .eh_frame     00000b8c  0001a000  0001a000  0000a000  2**2
                  CONTENTS, ALLOC, LOAD, DATA
  3 .init_array   00000008  0001ab8c  0001ab8c  0000ab8c  2**2
                  CONTENTS, ALLOC, LOAD, DATA
  4 .fini_array   00000004  0001ab94  0001ab94  0000ab94  2**2
                  CONTENTS, ALLOC, LOAD, DATA
  5 .data.rel.ro  0000000c  0001ab98  0001ab98  0000ab98  2**2
                  CONTENTS, ALLOC, LOAD, DATA
  6 .data         00000850  0001aba8  0001aba8  0000aba8  2**3
                  CONTENTS, ALLOC, LOAD, DATA
  7 .got          00000030  0001b3f8  0001b3f8  0000b3f8  2**2
                  CONTENTS, ALLOC, LOAD, DATA
  8 .sdata        00000054  0001b428  0001b428  0000b428  2**2
                  CONTENTS, ALLOC, LOAD, DATA
  9 .sbss         00000010  0001b47c  0001b47c  0000b47c  2**2
                  ALLOC
 10 .bss          000047e4  0001b48c  0001b48c  0000b47c  2**2
                  ALLOC
 11 .comment      00000012  00000000  00000000  0000b47c  2**0
                  CONTENTS, READONLY
 12 .riscv.attributes 0000002a  00000000  00000000  0000b48e  2**0
                  CONTENTS, READONLY
 13 .debug_aranges 00000038  00000000  00000000  0000b4b8  2**0
                  CONTENTS, READONLY, DEBUGGING, OCTETS
 14 .debug_info   00000839  00000000  00000000  0000b4f0  2**0
                  CONTENTS, READONLY, DEBUGGING, OCTETS
 15 .debug_abbrev 00000216  00000000  00000000  0000bd29  2**0
                  CONTENTS, READONLY, DEBUGGING, OCTETS
 16 .debug_line   00000766  00000000  00000000  0000bf3f  2**0
                  CONTENTS, READONLY, DEBUGGING, OCTETS
 17 .debug_str    0000029c  00000000  00000000  0000c6a5  2**0
                  CONTENTS, READONLY, DEBUGGING, OCTETS
 18 .debug_line_str 000000ba  00000000  00000000  0000c941  2**0
                  CONTENTS, READONLY, DEBUGGING, OCTETS
 19 .debug_loclists 00000a99  00000000  00000000  0000c9fb  2**0
                  CONTENTS, READONLY, DEBUGGING, OCTETS
 20 .debug_rnglists 00000111  00000000  00000000  0000d494  2**0
                  CONTENTS, READONLY, DEBUGGING, OCTETS
SYMBOL TABLE:
00010074 l    d  .text	00000000 .text
00017864 l    d  .rodata	00000000 .rodata
0001a000 l    d  .eh_frame	00000000 .eh_frame
0001ab8c l    d  .init_array	00000000 .init_array
0001ab94 l    d  .fini_array	00000000 .fini_array
0001ab98 l    d  .data.rel.ro	00000000 .data.rel.ro
0001aba8 l    d  .data	00000000 .data
0001b3f8 l    d  .got	00000000 .got
0001b428 l    d  .sdata	00000000 .sdata
0001b47c l    d  .sbss	00000000 .sbss
0001b48c l    d  .bss	00000000 .bss
00000000 l    d  .comment	00000000 .comment
00000000 l    d  .riscv.attributes	00000000 .riscv.attributes
00000000 l    d  .debug_aranges	00000000 .debug_aranges
00000000 l    d  .debug_info	00000000 .debug_info
00000000 l    d  .debug_abbrev	00000000 .debug_abbrev
00000000 l    d  .debug_line	00000000 .debug_line
00000000 l    d  .debug_str	00000000 .debug_str
00000000 l    d  .debug_line_str	00000000 .debug_line_str
00000000 l    d  .debug_loclists	00000000 .debug_loclists
00000000 l    d  .debug_rnglists	00000000 .debug_rnglists
00000000 l    df *ABS*	00000000 mandelbrot.cpp
0001b4a8 l     O .bss	00000004 _ZL3row
00000000 l    df *ABS*	00000000 __call_atexit.c
0001020c l     F .text	00000018 register_fini
00000000 l    df *ABS*	00000000 crtstuff.c
0001a000 l     O .eh_frame	00000000 __EH_FRAME_BEGIN__
00010274 l     F .text	00000000 __do_global_dtors_aux
0001b48c l     O .bss	00000001 completed.1
0001ab94 l     O .fini_array	00000000 __do_global_dtors_aux_fini_array_entry
000102b8 l     F .text	00000000 frame_dummy
0001b490 l     O .bss	00000018 object.0
0001ab90 l     O .init_array	00000000 __frame_dummy_init_array_entry
00000000 l    df *ABS*	00000000 uart.c
00000000 l    df *ABS*	00000000 core.c
0001abb0 l     O .data	00000004 _ZL10heap_start
00000000 l    df *ABS*	00000000 gpu.c
000178d0 l     O .rodata	00001800 _ZL12residentfont
00000000 l    df *ABS*	00000000 sdcard.c
00000000 l    df *ABS*	00000000 ff.c
00011e60 l     F .text	00000108 _ZL12get_ldnumberPPKc
00011f68 l     F .text	000000c8 _ZL11move_windowP5FATFSm
00012030 l     F .text	00000210 _ZL7put_fatP5FATFSmm.part.0
00012240 l     F .text	00000190 _ZL7get_fatP7FFOBJIDm.isra.0
000123d0 l     F .text	000001f4 _ZL8check_fsP5FATFSm
000125c4 l     F .text	000005ac _ZL12mount_volumePPKcPP5FATFSh
00012b70 l     F .text	0000030c _ZL12create_chainP7FFOBJIDm.isra.0
00012e7c l     F .text	00000250 _ZL8dir_nextP3DIRi
000130cc l     F .text	000002ac _ZL7dir_sdiP3DIRm
00013378 l     F .text	000004d0 _ZL8dir_findP3DIR
00013848 l     F .text	00000660 _ZL11follow_pathP3DIRPKc
0001fa34 l     O .bss	00000002 _ZL4Fsid
0001fa38 l     O .bss	0000000c _ZL5FatFs
0001fa44 l     O .bss	00000200 _ZL6LfnBuf
0001fc44 l     O .bss	00000001 _ZL7CurrVol
0001ab98 l     O .data.rel.ro	0000000c _ZL9VolumeStr
000192c0 l     O .rodata	00000080 _ZL5ExCvt
00019340 l     O .rodata	0000000d _ZL6LfnOfs
00000000 l    df *ABS*	00000000 ffunicode.c
00019374 l     O .rodata	00000100 _ZL5uc437
00019474 l     O .rodata	000001f2 _ZZ11ff_wtoupperE4cvt1
00019668 l     O .rodata	000000bc _ZZ11ff_wtoupperE4cvt2
00000000 l    df *ABS*	00000000 diskio.c
00000000 l    df *ABS*	00000000 libgcc2.c
00000000 l    df *ABS*	00000000 wf_log.c
00000000 l    df *ABS*	00000000 ef_log.c
00000000 l    df *ABS*	00000000 sf_nan.c
00000000 l    df *ABS*	00000000 errno.c
00000000 l    df *ABS*	00000000 exit.c
00000000 l    df *ABS*	00000000 init.c
00000000 l    df *ABS*	00000000 malloc.c
00000000 l    df *ABS*	00000000 mallocr.c
00000000 l    df *ABS*	00000000 memcmp.c
00000000 l    df *ABS*	00000000 memcpy.c
00000000 l    df *ABS*	00000000 mlock.c
00000000 l    df *ABS*	00000000 sbrkr.c
00000000 l    df *ABS*	00000000 strchr.c
00000000 l    df *ABS*	00000000 atexit.c
00000000 l    df *ABS*	00000000 fini.c
00000000 l    df *ABS*	00000000 mallocr.c
00000000 l    df *ABS*	00000000 __atexit.c
00000000 l    df *ABS*	00000000 sys_exit.c
00000000 l    df *ABS*	00000000 libgcc2.c
00000000 l    df *ABS*	00000000 task.c
00000000 l    df *ABS*	00000000 leds.c
00000000 l    df *ABS*	00000000 console.c
00000000 l    df *ABS*	00000000 ringbuffer.c
00000000 l    df *ABS*	00000000 ps2.c
00000000 l    df *ABS*	00000000 debugger.c
00000000 l    df *ABS*	00000000 buttons.c
00000000 l    df *ABS*	00000000 memtest.c
00000000 l    df *ABS*	00000000 nanojpeg.c
00000000 l    df *ABS*	00000000 micromod.c
00000000 l    df *ABS*	00000000 crtstuff.c
0001ab88 l     O .eh_frame	00000000 __FRAME_END__
00000000 l    df *ABS*	00000000 spi.c
00000000 l    df *ABS*	00000000 impure.c
0001abc8 l     O .data	00000428 impure_data
0001ab98 l       .fini_array	00000000 __fini_array_end
0001ab94 l       .fini_array	00000000 __fini_array_start
0001ab94 l       .init_array	00000000 __init_array_end
0001ab8c l       .init_array	00000000 __preinit_array_end
0001b400 l     O .got	00000000 _GLOBAL_OFFSET_TABLE_
0001ab8c l       .init_array	00000000 __init_array_start
0001ab8c l       .init_array	00000000 __preinit_array_start
0001b4b0 g     O .bss	00004580 s_filehandles
0001bc28 g       *ABS*	00000000 __global_pointer$
000104dc g     F .text	00000024 _Z9UARTFlushv
0001037c g     F .text	00000148 _Z15mandelbrotFloatfff
00017024 g     F .text	00000004 __malloc_unlock
00011aa4 g     F .text	00000158 _Z17SDReadSingleBlockmPhS_
00016510 g     F .text	00000008 __errno
00016294 g     F .text	00000078 logf
0001b488 g     O .sbss	00000004 errno
0001abbc g     O .data	00000004 GPUPAL_32
00015c40 g     F .text	00000158 ff_wtoupper
0001b428 g       .sdata	00000000 __SDATA_BEGIN__
00010500 g     F .text	00000014 _Z11UARTPutCharc
00016e1c g     F .text	00000128 memcpy
00015da4 g     F .text	00000030 disk_initialize
0001630c g     F .text	000001fc __ieee754_logf
00011244 g     F .text	0000001c _Z7SPITxRxh
000165e4 g     F .text	0000000c malloc
00010780 g     F .text	00000024 _fstat
0001b484 g     O .sbss	00000004 __malloc_top_pad
00015d98 g     F .text	0000000c disk_status
0001fa30 g     O .bss	00000004 s_numhandles
00017028 g     F .text	0000005c _sbrk_r
00011ca0 g     F .text	000000b4 _Z20SDReadMultipleBlocksPhmm
00015e54 g     F .text	00000010 disk_ioctl
0001b480 g     O .sbss	00000004 __malloc_max_sbrked_mem
0001b4ac g     O .bss	00000004 mandelbuffer
0001b46c g     O .sdata	00000004 _global_impure_ptr
00016548 g     F .text	0000009c __libc_init_array
00010714 g     F .text	00000024 _Z9ClockToMsy
00015e64 g     F .text	00000430 .hidden __udivdi3
0001086c g     F .text	00000078 _open
00010a00 g     F .text	00000040 _sbrk
000104c4 g     F .text	00000018 _Z11UARTHasDatav
00015b90 g     F .text	00000078 ff_uni2oem
000102d8 g     F .text	000000a4 _Z10evalMandeliiifff
000172f8 g     F .text	0000005c __libc_fini_array
000117a4 g     F .text	00000040 _Z11SDResponse1v
00010ee4 g     F .text	00000360 _Z11DrawDecimaliil
0001abc0 g     O .data	00000004 IO_SPIRXTX
00010738 g     F .text	00000024 _chdir
00017490 g     F .text	0000030c _free_r
00011888 g     F .text	0000005c _Z6SDIdlev
00010cb8 g     F .text	0000022c _Z8DrawTextiiPKc
000171c4 g     F .text	00000120 __call_exitprocs
00015554 g     F .text	000000a0 f_close
0001b474 g     O .sdata	00000004 __malloc_sbrk_base
00010224 g     F .text	00000050 _start
00010708 g     F .text	0000000c _Z26E32ReadRetiredInstructionsv
000109dc g     F .text	00000024 _wait
000107d4 g     F .text	00000074 _lseek
0001779c g     F .text	00000098 __register_exitproc
00014f7c g     F .text	000002f0 f_read
0001fc48 g     O .bss	00000028 __malloc_current_mallinfo
00011a84 g     F .text	00000020 _Z17SDSetBlockSize512v
0001abb8 g     O .data	00000004 GPUFBWORD
00016da4 g     F .text	00000078 memcmp
0001fc70 g       .bss	00000000 __BSS_END__
0001aff0 g     O .data	00000408 __malloc_av_
00017020 g     F .text	00000004 __malloc_lock
0001b47c g       .sbss	00000000 __bss_start
00016f44 g     F .text	000000dc memset
00010074 g     F .text	00000198 main
0001b47c g     O .sbss	00000004 __malloc_max_total_mem
00010514 g     F .text	00000090 _Z9UARTWritePKc
0001526c g     F .text	000002e8 f_sync
00011970 g     F .text	00000114 _Z10SDCardInitv
000165fc g     F .text	000007a8 _malloc_r
00011bfc g     F .text	000000a4 _Z18SDWriteSingleBlockmPhS_
00017354 g     F .text	0000013c _malloc_trim_r
00015c08 g     F .text	00000038 ff_oem2uni
000108e4 g     F .text	00000024 _openat
000155f4 g     F .text	0000059c f_lseek
00019724 g     O .rodata	00000100 .hidden __clz_tab
00010a40 g     F .text	00000278 _Z11DrawTextLeniiiPKc
00011e04 g     F .text	0000005c _Z13SDCardStartupv
00011260 g     F .text	00000544 _Z5SDCmd13SDCardCommandm
000172e4 g     F .text	00000014 atexit
0001abac g     O .data	00000004 IO_UARTTX
000118e4 g     F .text	0000008c _Z19SDCheckVoltageRangev
00016508 g     F .text	00000008 nanf
0001b470 g     O .sdata	00000004 _impure_ptr
00010848 g     F .text	00000024 _lstat
000117e4 g     F .text	000000a4 _Z11SDResponse7Pm
0001075c g     F .text	00000024 _getcwd
0001aba8 g       .data	00000000 __DATA_BEGIN__
00010950 g     F .text	0000008c _write
0001b47c g       .sdata	00000000 _edata
0001fc70 g       .bss	00000000 _end
0001b478 g     O .sdata	00000004 __malloc_trim_threshold
00013ea8 g     F .text	000010d4 f_open
00015e14 g     F .text	00000040 disk_write
00016518 g     F .text	00000030 exit
00010908 g     F .text	00000048 _read
0001aba8 g     O .data	00000004 IO_UARTStatus
00017834 g     F .text	00000030 _exit
000106f4 g     F .text	00000014 _Z11E32ReadTimev
00015dd4 g     F .text	00000040 disk_read
0001abb4 g     O .data	00000004 GPUCTL
00017084 g     F .text	00000140 strchr
00011d54 g     F .text	000000b0 _Z21SDWriteMultipleBlocksPKhmm
000105a4 g     F .text	00000150 _Z12UARTWriteHexm
000107a4 g     F .text	00000030 _close
000165f0 g     F .text	0000000c free



Disassembly of section .text:

00010074 <main>:
   10074:	fb010113          	addi	sp,sp,-80
   10078:	0000b797          	auipc	a5,0xb
   1007c:	3907a783          	lw	a5,912(a5) # 1b408 <_GLOBAL_OFFSET_TABLE_+0x8>
   10080:	0007a683          	lw	a3,0(a5)
   10084:	04112623          	sw	ra,76(sp)
   10088:	04812423          	sw	s0,72(sp)
   1008c:	04912223          	sw	s1,68(sp)
   10090:	05212023          	sw	s2,64(sp)
   10094:	03312e23          	sw	s3,60(sp)
   10098:	03412c23          	sw	s4,56(sp)
   1009c:	03512a23          	sw	s5,52(sp)
   100a0:	03612823          	sw	s6,48(sp)
   100a4:	03712623          	sw	s7,44(sp)
   100a8:	03812423          	sw	s8,40(sp)
   100ac:	03912223          	sw	s9,36(sp)
   100b0:	03a12023          	sw	s10,32(sp)
   100b4:	01b12e23          	sw	s11,28(sp)
   100b8:	00812627          	fsw	fs0,12(sp)
   100bc:	00912427          	fsw	fs1,8(sp)
   100c0:	01212227          	fsw	fs2,4(sp)
   100c4:	01312027          	fsw	fs3,0(sp)
   100c8:	0ff00793          	li	a5,255
   100cc:	fff00593          	li	a1,-1
   100d0:	00879713          	slli	a4,a5,0x8
   100d4:	01079613          	slli	a2,a5,0x10
   100d8:	00c76733          	or	a4,a4,a2
   100dc:	00f76733          	or	a4,a4,a5
   100e0:	00e6a023          	sw	a4,0(a3)
   100e4:	fff78793          	addi	a5,a5,-1
   100e8:	00468693          	addi	a3,a3,4
   100ec:	feb792e3          	bne	a5,a1,100d0 <main+0x5c>
   100f0:	00013bb7          	lui	s7,0x13
   100f4:	c00b8513          	addi	a0,s7,-1024 # 12c00 <_ZL12create_chainP7FFOBJIDm.isra.0+0x90>
   100f8:	4ec060ef          	jal	ra,165e4 <malloc>
   100fc:	0000bc17          	auipc	s8,0xb
   10100:	314c2c03          	lw	s8,788(s8) # 1b410 <_GLOBAL_OFFSET_TABLE_+0x10>
   10104:	00ac2023          	sw	a0,0(s8)
   10108:	600000ef          	jal	ra,10708 <_Z26E32ReadRetiredInstructionsv>
   1010c:	00050a93          	mv	s5,a0
   10110:	5e4000ef          	jal	ra,106f4 <_Z11E32ReadTimev>
   10114:	600000ef          	jal	ra,10714 <_Z9ClockToMsy>
   10118:	00050413          	mv	s0,a0
   1011c:	00000b13          	li	s6,0
   10120:	00007797          	auipc	a5,0x7
   10124:	76c7a407          	flw	fs0,1900(a5) # 1788c <_exit+0x58>
   10128:	00000a13          	li	s4,0
   1012c:	00007797          	auipc	a5,0x7
   10130:	7647a907          	flw	fs2,1892(a5) # 17890 <_exit+0x5c>
   10134:	00007797          	auipc	a5,0x7
   10138:	7607a487          	flw	fs1,1888(a5) # 17894 <_exit+0x60>
   1013c:	88018493          	addi	s1,gp,-1920 # 1b4a8 <_ZL3row>
   10140:	0000bd17          	auipc	s10,0xb
   10144:	2e4d2d03          	lw	s10,740(s10) # 1b424 <_GLOBAL_OFFSET_TABLE_+0x24>
   10148:	00007797          	auipc	a5,0x7
   1014c:	7507a987          	flw	fs3,1872(a5) # 17898 <_exit+0x64>
   10150:	c00b8b93          	addi	s7,s7,-1024
   10154:	00007c97          	auipc	s9,0x7
   10158:	710c8c93          	addi	s9,s9,1808 # 17864 <_exit+0x30>
   1015c:	0ef00993          	li	s3,239
   10160:	3e800913          	li	s2,1000
   10164:	20840653          	fmv.s	fa2,fs0
   10168:	212905d3          	fmv.s	fa1,fs2
   1016c:	20948553          	fmv.s	fa0,fs1
   10170:	20c000ef          	jal	ra,1037c <_Z15mandelbrotFloatfff>
   10174:	580000ef          	jal	ra,106f4 <_Z11E32ReadTimev>
   10178:	59c000ef          	jal	ra,10714 <_Z9ClockToMsy>
   1017c:	0004a783          	lw	a5,0(s1)
   10180:	00050d93          	mv	s11,a0
   10184:	01f7f713          	andi	a4,a5,31
   10188:	02070463          	beqz	a4,101b0 <main+0x13c>
   1018c:	01379463          	bne	a5,s3,10194 <main+0x120>
   10190:	01347453          	fadd.s	fs0,fs0,fs3
   10194:	408d8833          	sub	a6,s11,s0
   10198:	fd0976e3          	bgeu	s2,a6,10164 <main+0xf0>
   1019c:	56c000ef          	jal	ra,10708 <_Z26E32ReadRetiredInstructionsv>
   101a0:	41550b33          	sub	s6,a0,s5
   101a4:	3e840413          	addi	s0,s0,1000
   101a8:	00050a93          	mv	s5,a0
   101ac:	fb9ff06f          	j	10164 <main+0xf0>
   101b0:	000c2783          	lw	a5,0(s8)
   101b4:	0000b717          	auipc	a4,0xb
   101b8:	26472703          	lw	a4,612(a4) # 1b418 <_GLOBAL_OFFSET_TABLE_+0x18>
   101bc:	00072703          	lw	a4,0(a4)
   101c0:	01778633          	add	a2,a5,s7
   101c4:	0007a683          	lw	a3,0(a5)
   101c8:	00478793          	addi	a5,a5,4
   101cc:	00470713          	addi	a4,a4,4
   101d0:	fed72e23          	sw	a3,-4(a4)
   101d4:	fef618e3          	bne	a2,a5,101c4 <main+0x150>
   101d8:	00000593          	li	a1,0
   101dc:	000c8613          	mv	a2,s9
   101e0:	00000513          	li	a0,0
   101e4:	2d5000ef          	jal	ra,10cb8 <_Z8DrawTextiiPKc>
   101e8:	000b0613          	mv	a2,s6
   101ec:	00800593          	li	a1,8
   101f0:	00000513          	li	a0,0
   101f4:	4f1000ef          	jal	ra,10ee4 <_Z11DrawDecimaliil>
   101f8:	000d2703          	lw	a4,0(s10)
   101fc:	0004a783          	lw	a5,0(s1)
   10200:	01472023          	sw	s4,0(a4)
   10204:	001a4a13          	xori	s4,s4,1
   10208:	f85ff06f          	j	1018c <main+0x118>

0001020c <register_fini>:
   1020c:	00000793          	li	a5,0
   10210:	00078863          	beqz	a5,10220 <register_fini+0x14>
   10214:	00017537          	lui	a0,0x17
   10218:	2f850513          	addi	a0,a0,760 # 172f8 <__libc_fini_array>
   1021c:	0c80706f          	j	172e4 <atexit>
   10220:	00008067          	ret

00010224 <_start>:
   10224:	0000c197          	auipc	gp,0xc
   10228:	a0418193          	addi	gp,gp,-1532 # 1bc28 <__global_pointer$>
   1022c:	85418513          	addi	a0,gp,-1964 # 1b47c <__malloc_max_total_mem>
   10230:	00010617          	auipc	a2,0x10
   10234:	a4060613          	addi	a2,a2,-1472 # 1fc70 <__BSS_END__>
   10238:	40a60633          	sub	a2,a2,a0
   1023c:	00000593          	li	a1,0
   10240:	505060ef          	jal	ra,16f44 <memset>
   10244:	00007517          	auipc	a0,0x7
   10248:	0a050513          	addi	a0,a0,160 # 172e4 <atexit>
   1024c:	00050863          	beqz	a0,1025c <_start+0x38>
   10250:	00007517          	auipc	a0,0x7
   10254:	0a850513          	addi	a0,a0,168 # 172f8 <__libc_fini_array>
   10258:	08c070ef          	jal	ra,172e4 <atexit>
   1025c:	2ec060ef          	jal	ra,16548 <__libc_init_array>
   10260:	00012503          	lw	a0,0(sp)
   10264:	00410593          	addi	a1,sp,4
   10268:	00000613          	li	a2,0
   1026c:	e09ff0ef          	jal	ra,10074 <main>
   10270:	2a80606f          	j	16518 <exit>

00010274 <__do_global_dtors_aux>:
   10274:	ff010113          	addi	sp,sp,-16
   10278:	00812423          	sw	s0,8(sp)
   1027c:	8641c783          	lbu	a5,-1948(gp) # 1b48c <completed.1>
   10280:	00112623          	sw	ra,12(sp)
   10284:	02079263          	bnez	a5,102a8 <__do_global_dtors_aux+0x34>
   10288:	00000793          	li	a5,0
   1028c:	00078a63          	beqz	a5,102a0 <__do_global_dtors_aux+0x2c>
   10290:	0001a537          	lui	a0,0x1a
   10294:	00050513          	mv	a0,a0
   10298:	00000097          	auipc	ra,0x0
   1029c:	000000e7          	jalr	zero # 0 <main-0x10074>
   102a0:	00100793          	li	a5,1
   102a4:	86f18223          	sb	a5,-1948(gp) # 1b48c <completed.1>
   102a8:	00c12083          	lw	ra,12(sp)
   102ac:	00812403          	lw	s0,8(sp)
   102b0:	01010113          	addi	sp,sp,16
   102b4:	00008067          	ret

000102b8 <frame_dummy>:
   102b8:	00000793          	li	a5,0
   102bc:	00078c63          	beqz	a5,102d4 <frame_dummy+0x1c>
   102c0:	0001a537          	lui	a0,0x1a
   102c4:	86818593          	addi	a1,gp,-1944 # 1b490 <object.0>
   102c8:	00050513          	mv	a0,a0
   102cc:	00000317          	auipc	t1,0x0
   102d0:	00000067          	jr	zero # 0 <main-0x10074>
   102d4:	00008067          	ret

000102d8 <_Z10evalMandeliiifff>:
   102d8:	d00677d3          	fcvt.s.w	fa5,a2
   102dc:	00007797          	auipc	a5,0x7
   102e0:	5987a707          	flw	fa4,1432(a5) # 17874 <_exit+0x40>
   102e4:	00007797          	auipc	a5,0x7
   102e8:	58c7a687          	flw	fa3,1420(a5) # 17870 <_exit+0x3c>
   102ec:	08e7f7d3          	fsub.s	fa5,fa5,fa4
   102f0:	d005f753          	fcvt.s.w	fa4,a1
   102f4:	00007797          	auipc	a5,0x7
   102f8:	5787a007          	flw	ft0,1400(a5) # 1786c <_exit+0x38>
   102fc:	00050713          	mv	a4,a0
   10300:	08077753          	fsub.s	fa4,fa4,ft0
   10304:	10c7f7d3          	fmul.s	fa5,fa5,fa2
   10308:	10d67053          	fmul.s	ft0,fa2,fa3
   1030c:	58d7f5c3          	fmadd.s	fa1,fa5,fa3,fa1
   10310:	50077543          	fmadd.s	fa0,fa4,ft0,fa0
   10314:	06a05063          	blez	a0,10374 <_Z10evalMandeliiifff+0x9c>
   10318:	f0000753          	fmv.w.x	fa4,zero
   1031c:	00000513          	li	a0,0
   10320:	00007797          	auipc	a5,0x7
   10324:	5587a107          	flw	ft2,1368(a5) # 17878 <_exit+0x44>
   10328:	20e70653          	fmv.s	fa2,fa4
   1032c:	20e707d3          	fmv.s	fa5,fa4
   10330:	20e706d3          	fmv.s	fa3,fa4
   10334:	00007797          	auipc	a5,0x7
   10338:	5487a087          	flw	ft1,1352(a5) # 1787c <_exit+0x48>
   1033c:	0080006f          	j	10344 <_Z10evalMandeliiifff+0x6c>
   10340:	02a70863          	beq	a4,a0,10370 <_Z10evalMandeliiifff+0x98>
   10344:	10f6f7d3          	fmul.s	fa5,fa3,fa5
   10348:	08e57753          	fsub.s	fa4,fa0,fa4
   1034c:	00150513          	addi	a0,a0,1 # 1a001 <__EH_FRAME_BEGIN__+0x1>
   10350:	5827f7c3          	fmadd.s	fa5,fa5,ft2,fa1
   10354:	00c776d3          	fadd.s	fa3,fa4,fa2
   10358:	10f7f753          	fmul.s	fa4,fa5,fa5
   1035c:	10d6f653          	fmul.s	fa2,fa3,fa3
   10360:	00e67053          	fadd.s	ft0,fa2,fa4
   10364:	a01017d3          	flt.s	a5,ft0,ft1
   10368:	fc079ce3          	bnez	a5,10340 <_Z10evalMandeliiifff+0x68>
   1036c:	00008067          	ret
   10370:	00008067          	ret
   10374:	00000513          	li	a0,0
   10378:	00008067          	ret

0001037c <_Z15mandelbrotFloatfff>:
   1037c:	fd010113          	addi	sp,sp,-48
   10380:	01212227          	fsw	fs2,4(sp)
   10384:	20a50953          	fmv.s	fs2,fa0
   10388:	20c60553          	fmv.s	fa0,fa2
   1038c:	02812423          	sw	s0,40(sp)
   10390:	02912223          	sw	s1,36(sp)
   10394:	03212023          	sw	s2,32(sp)
   10398:	01312e23          	sw	s3,28(sp)
   1039c:	01412c23          	sw	s4,24(sp)
   103a0:	01512a23          	sw	s5,20(sp)
   103a4:	00812627          	fsw	fs0,12(sp)
   103a8:	00912427          	fsw	fs1,8(sp)
   103ac:	01312027          	fsw	fs3,0(sp)
   103b0:	20c60453          	fmv.s	fs0,fa2
   103b4:	20b584d3          	fmv.s	fs1,fa1
   103b8:	02112623          	sw	ra,44(sp)
   103bc:	6d9050ef          	jal	ra,16294 <logf>
   103c0:	00007797          	auipc	a5,0x7
   103c4:	4c07a707          	flw	fa4,1216(a5) # 17880 <_exit+0x4c>
   103c8:	00007797          	auipc	a5,0x7
   103cc:	4bc7a787          	flw	fa5,1212(a5) # 17884 <_exit+0x50>
   103d0:	78e577cb          	fnmsub.s	fa5,fa0,fa4,fa5
   103d4:	00007797          	auipc	a5,0x7
   103d8:	4b47a987          	flw	fs3,1204(a5) # 17888 <_exit+0x54>
   103dc:	88018493          	addi	s1,gp,-1920 # 1b4a8 <_ZL3row>
   103e0:	0004a603          	lw	a2,0(s1)
   103e4:	00000413          	li	s0,0
   103e8:	c0079953          	fcvt.w.s	s2,fa5,rtz
   103ec:	0000ba97          	auipc	s5,0xb
   103f0:	024aaa83          	lw	s5,36(s5) # 1b410 <_GLOBAL_OFFSET_TABLE_+0x10>
   103f4:	00100993          	li	s3,1
   103f8:	d00977d3          	fcvt.s.w	fa5,s2
   103fc:	14000a13          	li	s4,320
   10400:	18f9f9d3          	fdiv.s	fs3,fs3,fa5
   10404:	20840653          	fmv.s	fa2,fs0
   10408:	209485d3          	fmv.s	fa1,fs1
   1040c:	21290553          	fmv.s	fa0,fs2
   10410:	00040593          	mv	a1,s0
   10414:	00090513          	mv	a0,s2
   10418:	ec1ff0ef          	jal	ra,102d8 <_Z10evalMandeliiifff>
   1041c:	d00577d3          	fcvt.s.w	fa5,a0
   10420:	0004a603          	lw	a2,0(s1)
   10424:	06a9dc63          	bge	s3,a0,1049c <_Z15mandelbrotFloatfff+0x120>
   10428:	1137f7d3          	fmul.s	fa5,fa5,fs3
   1042c:	000aa783          	lw	a5,0(s5)
   10430:	00261713          	slli	a4,a2,0x2
   10434:	00c70733          	add	a4,a4,a2
   10438:	00671713          	slli	a4,a4,0x6
   1043c:	c00796d3          	fcvt.w.s	a3,fa5,rtz
   10440:	00e787b3          	add	a5,a5,a4
   10444:	008787b3          	add	a5,a5,s0
   10448:	00d78023          	sb	a3,0(a5)
   1044c:	00140413          	addi	s0,s0,1
   10450:	fb441ae3          	bne	s0,s4,10404 <_Z15mandelbrotFloatfff+0x88>
   10454:	00160793          	addi	a5,a2,1
   10458:	0f000713          	li	a4,240
   1045c:	02e7e7b3          	rem	a5,a5,a4
   10460:	02c12083          	lw	ra,44(sp)
   10464:	02812403          	lw	s0,40(sp)
   10468:	02012903          	lw	s2,32(sp)
   1046c:	01c12983          	lw	s3,28(sp)
   10470:	01812a03          	lw	s4,24(sp)
   10474:	01412a83          	lw	s5,20(sp)
   10478:	00c12407          	flw	fs0,12(sp)
   1047c:	00812487          	flw	fs1,8(sp)
   10480:	00412907          	flw	fs2,4(sp)
   10484:	00012987          	flw	fs3,0(sp)
   10488:	00100513          	li	a0,1
   1048c:	00f4a023          	sw	a5,0(s1)
   10490:	02412483          	lw	s1,36(sp)
   10494:	03010113          	addi	sp,sp,48
   10498:	00008067          	ret
   1049c:	000aa783          	lw	a5,0(s5)
   104a0:	00261713          	slli	a4,a2,0x2
   104a4:	00c70733          	add	a4,a4,a2
   104a8:	00671713          	slli	a4,a4,0x6
   104ac:	00e787b3          	add	a5,a5,a4
   104b0:	008787b3          	add	a5,a5,s0
   104b4:	00078023          	sb	zero,0(a5)
   104b8:	00140413          	addi	s0,s0,1
   104bc:	f54414e3          	bne	s0,s4,10404 <_Z15mandelbrotFloatfff+0x88>
   104c0:	f95ff06f          	j	10454 <_Z15mandelbrotFloatfff+0xd8>

000104c4 <_Z11UARTHasDatav>:
   104c4:	0000b797          	auipc	a5,0xb
   104c8:	f5c7a783          	lw	a5,-164(a5) # 1b420 <_GLOBAL_OFFSET_TABLE_+0x20>
   104cc:	0007a783          	lw	a5,0(a5)
   104d0:	0007a503          	lw	a0,0(a5)
   104d4:	00157513          	andi	a0,a0,1
   104d8:	00008067          	ret

000104dc <_Z9UARTFlushv>:
   104dc:	ff010113          	addi	sp,sp,-16
   104e0:	00112623          	sw	ra,12(sp)
   104e4:	0080006f          	j	104ec <_Z9UARTFlushv+0x10>
   104e8:	00000013          	nop
   104ec:	fd9ff0ef          	jal	ra,104c4 <_Z11UARTHasDatav>
   104f0:	fe051ce3          	bnez	a0,104e8 <_Z9UARTFlushv+0xc>
   104f4:	00c12083          	lw	ra,12(sp)
   104f8:	01010113          	addi	sp,sp,16
   104fc:	00008067          	ret

00010500 <_Z11UARTPutCharc>:
   10500:	0000b797          	auipc	a5,0xb
   10504:	f1c7a783          	lw	a5,-228(a5) # 1b41c <_GLOBAL_OFFSET_TABLE_+0x1c>
   10508:	0007a783          	lw	a5,0(a5)
   1050c:	00a7a023          	sw	a0,0(a5)
   10510:	00008067          	ret

00010514 <_Z9UARTWritePKc>:
   10514:	ff010113          	addi	sp,sp,-16
   10518:	00912223          	sw	s1,4(sp)
   1051c:	00112623          	sw	ra,12(sp)
   10520:	00812423          	sw	s0,8(sp)
   10524:	01212023          	sw	s2,0(sp)
   10528:	00050493          	mv	s1,a0
   1052c:	00054503          	lbu	a0,0(a0)
   10530:	02050a63          	beqz	a0,10564 <_Z9UARTWritePKc+0x50>
   10534:	fcdff0ef          	jal	ra,10500 <_Z11UARTPutCharc>
   10538:	0014c503          	lbu	a0,1(s1)
   1053c:	00200413          	li	s0,2
   10540:	30000913          	li	s2,768
   10544:	02050063          	beqz	a0,10564 <_Z9UARTWritePKc+0x50>
   10548:	00140413          	addi	s0,s0,1
   1054c:	fb5ff0ef          	jal	ra,10500 <_Z11UARTPutCharc>
   10550:	032467b3          	rem	a5,s0,s2
   10554:	00848733          	add	a4,s1,s0
   10558:	02078263          	beqz	a5,1057c <_Z9UARTWritePKc+0x68>
   1055c:	fff74503          	lbu	a0,-1(a4)
   10560:	fe0514e3          	bnez	a0,10548 <_Z9UARTWritePKc+0x34>
   10564:	00c12083          	lw	ra,12(sp)
   10568:	00812403          	lw	s0,8(sp)
   1056c:	00412483          	lw	s1,4(sp)
   10570:	00012903          	lw	s2,0(sp)
   10574:	01010113          	addi	sp,sp,16
   10578:	00008067          	ret
   1057c:	f61ff0ef          	jal	ra,104dc <_Z9UARTFlushv>
   10580:	008487b3          	add	a5,s1,s0
   10584:	fff7c503          	lbu	a0,-1(a5)
   10588:	fc0510e3          	bnez	a0,10548 <_Z9UARTWritePKc+0x34>
   1058c:	00c12083          	lw	ra,12(sp)
   10590:	00812403          	lw	s0,8(sp)
   10594:	00412483          	lw	s1,4(sp)
   10598:	00012903          	lw	s2,0(sp)
   1059c:	01010113          	addi	sp,sp,16
   105a0:	00008067          	ret

000105a4 <_Z12UARTWriteHexm>:
   105a4:	00007697          	auipc	a3,0x7
   105a8:	2f868693          	addi	a3,a3,760 # 1789c <_exit+0x68>
   105ac:	0086a803          	lw	a6,8(a3)
   105b0:	00c6a583          	lw	a1,12(a3)
   105b4:	0006ae03          	lw	t3,0(a3)
   105b8:	0046a303          	lw	t1,4(a3)
   105bc:	01855613          	srli	a2,a0,0x18
   105c0:	fd010113          	addi	sp,sp,-48
   105c4:	01c55893          	srli	a7,a0,0x1c
   105c8:	00f67613          	andi	a2,a2,15
   105cc:	01012a23          	sw	a6,20(sp)
   105d0:	00b12c23          	sw	a1,24(sp)
   105d4:	00c55793          	srli	a5,a0,0xc
   105d8:	00855713          	srli	a4,a0,0x8
   105dc:	00455813          	srli	a6,a0,0x4
   105e0:	02088593          	addi	a1,a7,32
   105e4:	02060613          	addi	a2,a2,32
   105e8:	02112623          	sw	ra,44(sp)
   105ec:	01c12623          	sw	t3,12(sp)
   105f0:	00612823          	sw	t1,16(sp)
   105f4:	002588b3          	add	a7,a1,sp
   105f8:	00260633          	add	a2,a2,sp
   105fc:	01455593          	srli	a1,a0,0x14
   10600:	00f87813          	andi	a6,a6,15
   10604:	00f7f793          	andi	a5,a5,15
   10608:	00f77713          	andi	a4,a4,15
   1060c:	fec64e83          	lbu	t4,-20(a2)
   10610:	00f5f593          	andi	a1,a1,15
   10614:	02080613          	addi	a2,a6,32
   10618:	02078793          	addi	a5,a5,32
   1061c:	02070713          	addi	a4,a4,32
   10620:	00260833          	add	a6,a2,sp
   10624:	00270733          	add	a4,a4,sp
   10628:	002787b3          	add	a5,a5,sp
   1062c:	02058613          	addi	a2,a1,32
   10630:	002605b3          	add	a1,a2,sp
   10634:	fec74f03          	lbu	t5,-20(a4)
   10638:	fec7c783          	lbu	a5,-20(a5)
   1063c:	fec8c703          	lbu	a4,-20(a7)
   10640:	01055613          	srli	a2,a0,0x10
   10644:	ffff08b7          	lui	a7,0xffff0
   10648:	00f57513          	andi	a0,a0,15
   1064c:	00f67613          	andi	a2,a2,15
   10650:	fec5c303          	lbu	t1,-20(a1)
   10654:	fec84e03          	lbu	t3,-20(a6)
   10658:	0ff88893          	addi	a7,a7,255 # ffff00ff <__BSS_END__+0xfffd048f>
   1065c:	02050593          	addi	a1,a0,32
   10660:	02060613          	addi	a2,a2,32
   10664:	00258533          	add	a0,a1,sp
   10668:	00260633          	add	a2,a2,sp
   1066c:	008f1f13          	slli	t5,t5,0x8
   10670:	0117f7b3          	and	a5,a5,a7
   10674:	008e9e93          	slli	t4,t4,0x8
   10678:	01177733          	and	a4,a4,a7
   1067c:	ff0105b7          	lui	a1,0xff010
   10680:	fec54803          	lbu	a6,-20(a0)
   10684:	fff58593          	addi	a1,a1,-1 # ff00ffff <__BSS_END__+0xfeff038f>
   10688:	fec64503          	lbu	a0,-20(a2)
   1068c:	01e7e7b3          	or	a5,a5,t5
   10690:	01d76733          	or	a4,a4,t4
   10694:	01031893          	slli	a7,t1,0x10
   10698:	010e1e13          	slli	t3,t3,0x10
   1069c:	00b7f7b3          	and	a5,a5,a1
   106a0:	00b77733          	and	a4,a4,a1
   106a4:	01000637          	lui	a2,0x1000
   106a8:	0106c303          	lbu	t1,16(a3)
   106ac:	fff60613          	addi	a2,a2,-1 # ffffff <__BSS_END__+0xfe038f>
   106b0:	01c7e7b3          	or	a5,a5,t3
   106b4:	01176733          	or	a4,a4,a7
   106b8:	01851693          	slli	a3,a0,0x18
   106bc:	01881593          	slli	a1,a6,0x18
   106c0:	00c7f7b3          	and	a5,a5,a2
   106c4:	00c77733          	and	a4,a4,a2
   106c8:	00b7e7b3          	or	a5,a5,a1
   106cc:	00d76733          	or	a4,a4,a3
   106d0:	00010513          	mv	a0,sp
   106d4:	00610e23          	sb	t1,28(sp)
   106d8:	00010423          	sb	zero,8(sp)
   106dc:	00e12023          	sw	a4,0(sp)
   106e0:	00f12223          	sw	a5,4(sp)
   106e4:	e31ff0ef          	jal	ra,10514 <_Z9UARTWritePKc>
   106e8:	02c12083          	lw	ra,44(sp)
   106ec:	03010113          	addi	sp,sp,48
   106f0:	00008067          	ret

000106f4 <_Z11E32ReadTimev>:
   106f4:	c81025f3          	rdtimeh	a1
   106f8:	c0102573          	rdtime	a0
   106fc:	c81027f3          	rdtimeh	a5
   10700:	fef59ae3          	bne	a1,a5,106f4 <_Z11E32ReadTimev>
   10704:	00008067          	ret

00010708 <_Z26E32ReadRetiredInstructionsv>:
   10708:	c82025f3          	rdinstreth	a1
   1070c:	c0202573          	rdinstret	a0
   10710:	00008067          	ret

00010714 <_Z9ClockToMsy>:
   10714:	00002637          	lui	a2,0x2
   10718:	ff010113          	addi	sp,sp,-16
   1071c:	71060613          	addi	a2,a2,1808 # 2710 <main-0xd964>
   10720:	00000693          	li	a3,0
   10724:	00112623          	sw	ra,12(sp)
   10728:	73c050ef          	jal	ra,15e64 <__udivdi3>
   1072c:	00c12083          	lw	ra,12(sp)
   10730:	01010113          	addi	sp,sp,16
   10734:	00008067          	ret

00010738 <_chdir>:
   10738:	ff010113          	addi	sp,sp,-16
   1073c:	00112623          	sw	ra,12(sp)
   10740:	5d1050ef          	jal	ra,16510 <__errno>
   10744:	00c12083          	lw	ra,12(sp)
   10748:	05800793          	li	a5,88
   1074c:	00f52023          	sw	a5,0(a0)
   10750:	fff00513          	li	a0,-1
   10754:	01010113          	addi	sp,sp,16
   10758:	00008067          	ret

0001075c <_getcwd>:
   1075c:	ff010113          	addi	sp,sp,-16
   10760:	00112623          	sw	ra,12(sp)
   10764:	5ad050ef          	jal	ra,16510 <__errno>
   10768:	00c12083          	lw	ra,12(sp)
   1076c:	fa800793          	li	a5,-88
   10770:	00f52023          	sw	a5,0(a0)
   10774:	00000513          	li	a0,0
   10778:	01010113          	addi	sp,sp,16
   1077c:	00008067          	ret

00010780 <_fstat>:
   10780:	ff010113          	addi	sp,sp,-16
   10784:	00112623          	sw	ra,12(sp)
   10788:	589050ef          	jal	ra,16510 <__errno>
   1078c:	00c12083          	lw	ra,12(sp)
   10790:	05800793          	li	a5,88
   10794:	00f52023          	sw	a5,0(a0)
   10798:	fff00513          	li	a0,-1
   1079c:	01010113          	addi	sp,sp,16
   107a0:	00008067          	ret

000107a4 <_close>:
   107a4:	22c00793          	li	a5,556
   107a8:	02f50533          	mul	a0,a0,a5
   107ac:	0000b797          	auipc	a5,0xb
   107b0:	c587a783          	lw	a5,-936(a5) # 1b404 <_GLOBAL_OFFSET_TABLE_+0x4>
   107b4:	ff010113          	addi	sp,sp,-16
   107b8:	00112623          	sw	ra,12(sp)
   107bc:	00a78533          	add	a0,a5,a0
   107c0:	595040ef          	jal	ra,15554 <f_close>
   107c4:	00c12083          	lw	ra,12(sp)
   107c8:	00000513          	li	a0,0
   107cc:	01010113          	addi	sp,sp,16
   107d0:	00008067          	ret

000107d4 <_lseek>:
   107d4:	22c00793          	li	a5,556
   107d8:	02f507b3          	mul	a5,a0,a5
   107dc:	ff010113          	addi	sp,sp,-16
   107e0:	0000b717          	auipc	a4,0xb
   107e4:	c2472703          	lw	a4,-988(a4) # 1b404 <_GLOBAL_OFFSET_TABLE_+0x4>
   107e8:	00112623          	sw	ra,12(sp)
   107ec:	00812423          	sw	s0,8(sp)
   107f0:	00200693          	li	a3,2
   107f4:	00f707b3          	add	a5,a4,a5
   107f8:	0147a803          	lw	a6,20(a5)
   107fc:	04d60063          	beq	a2,a3,1083c <_lseek+0x68>
   10800:	00100793          	li	a5,1
   10804:	00058413          	mv	s0,a1
   10808:	02f60463          	beq	a2,a5,10830 <_lseek+0x5c>
   1080c:	22c00793          	li	a5,556
   10810:	02f50533          	mul	a0,a0,a5
   10814:	00a70533          	add	a0,a4,a0
   10818:	5dd040ef          	jal	ra,155f4 <f_lseek>
   1081c:	00c12083          	lw	ra,12(sp)
   10820:	00040513          	mv	a0,s0
   10824:	00812403          	lw	s0,8(sp)
   10828:	01010113          	addi	sp,sp,16
   1082c:	00008067          	ret
   10830:	010585b3          	add	a1,a1,a6
   10834:	00058413          	mv	s0,a1
   10838:	fd5ff06f          	j	1080c <_lseek+0x38>
   1083c:	00c7a583          	lw	a1,12(a5)
   10840:	00058413          	mv	s0,a1
   10844:	fc9ff06f          	j	1080c <_lseek+0x38>

00010848 <_lstat>:
   10848:	ff010113          	addi	sp,sp,-16
   1084c:	00112623          	sw	ra,12(sp)
   10850:	4c1050ef          	jal	ra,16510 <__errno>
   10854:	00c12083          	lw	ra,12(sp)
   10858:	05800793          	li	a5,88
   1085c:	00f52023          	sw	a5,0(a0)
   10860:	fff00513          	li	a0,-1
   10864:	01010113          	addi	sp,sp,16
   10868:	00008067          	ret

0001086c <_open>:
   1086c:	ff010113          	addi	sp,sp,-16
   10870:	00812423          	sw	s0,8(sp)
   10874:	0000b417          	auipc	s0,0xb
   10878:	b9842403          	lw	s0,-1128(s0) # 1b40c <_GLOBAL_OFFSET_TABLE_+0xc>
   1087c:	00912223          	sw	s1,4(sp)
   10880:	00042483          	lw	s1,0(s0)
   10884:	22c00793          	li	a5,556
   10888:	00050593          	mv	a1,a0
   1088c:	02f487b3          	mul	a5,s1,a5
   10890:	0000b517          	auipc	a0,0xb
   10894:	b7452503          	lw	a0,-1164(a0) # 1b404 <_GLOBAL_OFFSET_TABLE_+0x4>
   10898:	00100613          	li	a2,1
   1089c:	00112623          	sw	ra,12(sp)
   108a0:	00f50533          	add	a0,a0,a5
   108a4:	604030ef          	jal	ra,13ea8 <f_open>
   108a8:	02051463          	bnez	a0,108d0 <_open+0x64>
   108ac:	00042783          	lw	a5,0(s0)
   108b0:	00178793          	addi	a5,a5,1
   108b4:	00f42023          	sw	a5,0(s0)
   108b8:	00c12083          	lw	ra,12(sp)
   108bc:	00812403          	lw	s0,8(sp)
   108c0:	00048513          	mv	a0,s1
   108c4:	00412483          	lw	s1,4(sp)
   108c8:	01010113          	addi	sp,sp,16
   108cc:	00008067          	ret
   108d0:	441050ef          	jal	ra,16510 <__errno>
   108d4:	00200793          	li	a5,2
   108d8:	00f52023          	sw	a5,0(a0)
   108dc:	fff00493          	li	s1,-1
   108e0:	fd9ff06f          	j	108b8 <_open+0x4c>

000108e4 <_openat>:
   108e4:	ff010113          	addi	sp,sp,-16
   108e8:	00112623          	sw	ra,12(sp)
   108ec:	425050ef          	jal	ra,16510 <__errno>
   108f0:	00c12083          	lw	ra,12(sp)
   108f4:	05800793          	li	a5,88
   108f8:	00f52023          	sw	a5,0(a0)
   108fc:	fff00513          	li	a0,-1
   10900:	01010113          	addi	sp,sp,16
   10904:	00008067          	ret

00010908 <_read>:
   10908:	22c00793          	li	a5,556
   1090c:	02f50533          	mul	a0,a0,a5
   10910:	fe010113          	addi	sp,sp,-32
   10914:	0000b797          	auipc	a5,0xb
   10918:	af07a783          	lw	a5,-1296(a5) # 1b404 <_GLOBAL_OFFSET_TABLE_+0x4>
   1091c:	00c10693          	addi	a3,sp,12
   10920:	00112e23          	sw	ra,28(sp)
   10924:	00a78533          	add	a0,a5,a0
   10928:	654040ef          	jal	ra,14f7c <f_read>
   1092c:	00051a63          	bnez	a0,10940 <_read+0x38>
   10930:	01c12083          	lw	ra,28(sp)
   10934:	00c12503          	lw	a0,12(sp)
   10938:	02010113          	addi	sp,sp,32
   1093c:	00008067          	ret
   10940:	01c12083          	lw	ra,28(sp)
   10944:	00000513          	li	a0,0
   10948:	02010113          	addi	sp,sp,32
   1094c:	00008067          	ret

00010950 <_write>:
   10950:	00100793          	li	a5,1
   10954:	00f50663          	beq	a0,a5,10960 <_write+0x10>
   10958:	00000513          	li	a0,0
   1095c:	00008067          	ret
   10960:	fe010113          	addi	sp,sp,-32
   10964:	00812c23          	sw	s0,24(sp)
   10968:	01212823          	sw	s2,16(sp)
   1096c:	01312623          	sw	s3,12(sp)
   10970:	00112e23          	sw	ra,28(sp)
   10974:	00912a23          	sw	s1,20(sp)
   10978:	00c589b3          	add	s3,a1,a2
   1097c:	00058413          	mv	s0,a1
   10980:	00060913          	mv	s2,a2
   10984:	03358a63          	beq	a1,s3,109b8 <_write+0x68>
   10988:	00000493          	li	s1,0
   1098c:	00c0006f          	j	10998 <_write+0x48>
   10990:	00148493          	addi	s1,s1,1
   10994:	02898263          	beq	s3,s0,109b8 <_write+0x68>
   10998:	00044503          	lbu	a0,0(s0)
   1099c:	00140413          	addi	s0,s0,1
   109a0:	b61ff0ef          	jal	ra,10500 <_Z11UARTPutCharc>
   109a4:	07f4f793          	andi	a5,s1,127
   109a8:	fe0794e3          	bnez	a5,10990 <_write+0x40>
   109ac:	b31ff0ef          	jal	ra,104dc <_Z9UARTFlushv>
   109b0:	00148493          	addi	s1,s1,1
   109b4:	fe8992e3          	bne	s3,s0,10998 <_write+0x48>
   109b8:	b25ff0ef          	jal	ra,104dc <_Z9UARTFlushv>
   109bc:	01c12083          	lw	ra,28(sp)
   109c0:	01812403          	lw	s0,24(sp)
   109c4:	01412483          	lw	s1,20(sp)
   109c8:	00c12983          	lw	s3,12(sp)
   109cc:	00090513          	mv	a0,s2
   109d0:	01012903          	lw	s2,16(sp)
   109d4:	02010113          	addi	sp,sp,32
   109d8:	00008067          	ret

000109dc <_wait>:
   109dc:	ff010113          	addi	sp,sp,-16
   109e0:	00112623          	sw	ra,12(sp)
   109e4:	32d050ef          	jal	ra,16510 <__errno>
   109e8:	00c12083          	lw	ra,12(sp)
   109ec:	00a00793          	li	a5,10
   109f0:	00f52023          	sw	a5,0(a0)
   109f4:	fff00513          	li	a0,-1
   109f8:	01010113          	addi	sp,sp,16
   109fc:	00008067          	ret

00010a00 <_sbrk>:
   10a00:	0000a617          	auipc	a2,0xa
   10a04:	1b060613          	addi	a2,a2,432 # 1abb0 <_ZL10heap_start>
   10a08:	00062783          	lw	a5,0(a2)
   10a0c:	1ffe0737          	lui	a4,0x1ffe0
   10a10:	02e78463          	beq	a5,a4,10a38 <_sbrk+0x38>
   10a14:	00a786b3          	add	a3,a5,a0
   10a18:	00e6e863          	bltu	a3,a4,10a28 <_sbrk+0x28>
   10a1c:	00e62023          	sw	a4,0(a2)
   10a20:	00078513          	mv	a0,a5
   10a24:	00008067          	ret
   10a28:	00a686b3          	add	a3,a3,a0
   10a2c:	00d62023          	sw	a3,0(a2)
   10a30:	00078513          	mv	a0,a5
   10a34:	00008067          	ret
   10a38:	00000793          	li	a5,0
   10a3c:	fe5ff06f          	j	10a20 <_sbrk+0x20>

00010a40 <_Z11DrawTextLeniiiPKc>:
   10a40:	26c05a63          	blez	a2,10cb4 <_Z11DrawTextLeniiiPKc+0x274>
   10a44:	00259793          	slli	a5,a1,0x2
   10a48:	0000b717          	auipc	a4,0xb
   10a4c:	9d072703          	lw	a4,-1584(a4) # 1b418 <_GLOBAL_OFFSET_TABLE_+0x18>
   10a50:	00b787b3          	add	a5,a5,a1
   10a54:	00072e83          	lw	t4,0(a4)
   10a58:	00479793          	slli	a5,a5,0x4
   10a5c:	00150713          	addi	a4,a0,1
   10a60:	00a78e33          	add	t3,a5,a0
   10a64:	00f707b3          	add	a5,a4,a5
   10a68:	fc010113          	addi	sp,sp,-64
   10a6c:	00279793          	slli	a5,a5,0x2
   10a70:	002e1e13          	slli	t3,t3,0x2
   10a74:	03512423          	sw	s5,40(sp)
   10a78:	01ce8e33          	add	t3,t4,t3
   10a7c:	00001ab7          	lui	s5,0x1
   10a80:	00fe8eb3          	add	t4,t4,a5
   10a84:	00c687b3          	add	a5,a3,a2
   10a88:	03612223          	sw	s6,36(sp)
   10a8c:	02812e23          	sw	s0,60(sp)
   10a90:	02912c23          	sw	s1,56(sp)
   10a94:	03212a23          	sw	s2,52(sp)
   10a98:	03312823          	sw	s3,48(sp)
   10a9c:	03412623          	sw	s4,44(sp)
   10aa0:	03712023          	sw	s7,32(sp)
   10aa4:	01812e23          	sw	s8,28(sp)
   10aa8:	01912c23          	sw	s9,24(sp)
   10aac:	01a12a23          	sw	s10,20(sp)
   10ab0:	01b12823          	sw	s11,16(sp)
   10ab4:	00068f13          	mv	t5,a3
   10ab8:	00f12623          	sw	a5,12(sp)
   10abc:	3c000b13          	li	s6,960
   10ac0:	00007717          	auipc	a4,0x7
   10ac4:	e1070713          	addi	a4,a4,-496 # 178d0 <_ZL12residentfont>
   10ac8:	8c0a8a93          	addi	s5,s5,-1856 # 8c0 <main-0xf7b4>
   10acc:	09c0006f          	j	10b68 <_Z11DrawTextLeniiiPKc+0x128>
   10ad0:	080fc463          	bltz	t6,10b58 <_Z11DrawTextLeniiiPKc+0x118>
   10ad4:	0009af83          	lw	t6,0(s3)
   10ad8:	01fe2023          	sw	t6,0(t3)
   10adc:	00082803          	lw	a6,0(a6)
   10ae0:	010ea023          	sw	a6,0(t4)
   10ae4:	00092803          	lw	a6,0(s2)
   10ae8:	150e2023          	sw	a6,320(t3)
   10aec:	00032803          	lw	a6,0(t1) # 102cc <frame_dummy+0x14>
   10af0:	150ea023          	sw	a6,320(t4)
   10af4:	0004a803          	lw	a6,0(s1)
   10af8:	290e2023          	sw	a6,640(t3)
   10afc:	00052503          	lw	a0,0(a0)
   10b00:	28aea023          	sw	a0,640(t4)
   10b04:	00042503          	lw	a0,0(s0)
   10b08:	00ada023          	sw	a0,0(s11)
   10b0c:	0005a583          	lw	a1,0(a1)
   10b10:	00bd2023          	sw	a1,0(s10)
   10b14:	0003a583          	lw	a1,0(t2)
   10b18:	50be2023          	sw	a1,1280(t3)
   10b1c:	00062603          	lw	a2,0(a2)
   10b20:	50cea023          	sw	a2,1280(t4)
   10b24:	0002a603          	lw	a2,0(t0)
   10b28:	64ce2023          	sw	a2,1600(t3)
   10b2c:	00812603          	lw	a2,8(sp)
   10b30:	00062603          	lw	a2,0(a2)
   10b34:	64cea023          	sw	a2,1600(t4)
   10b38:	000ba603          	lw	a2,0(s7)
   10b3c:	78ce2023          	sw	a2,1920(t3)
   10b40:	0008a603          	lw	a2,0(a7)
   10b44:	78cea023          	sw	a2,1920(t4)
   10b48:	0006a683          	lw	a3,0(a3)
   10b4c:	00dca023          	sw	a3,0(s9)
   10b50:	0007a783          	lw	a5,0(a5)
   10b54:	00fc2023          	sw	a5,0(s8)
   10b58:	00c12783          	lw	a5,12(sp)
   10b5c:	008e0e13          	addi	t3,t3,8
   10b60:	008e8e93          	addi	t4,t4,8
   10b64:	10ff0c63          	beq	t5,a5,10c7c <_Z11DrawTextLeniiiPKc+0x23c>
   10b68:	000f4a03          	lbu	s4,0(t5)
   10b6c:	016e0db3          	add	s11,t3,s6
   10b70:	01db0d33          	add	s10,s6,t4
   10b74:	fe0a0f93          	addi	t6,s4,-32
   10b78:	405fd793          	srai	a5,t6,0x5
   10b7c:	00979813          	slli	a6,a5,0x9
   10b80:	00979793          	slli	a5,a5,0x9
   10b84:	04078793          	addi	a5,a5,64
   10b88:	01fff693          	andi	a3,t6,31
   10b8c:	00169693          	slli	a3,a3,0x1
   10b90:	10078893          	addi	a7,a5,256
   10b94:	00d888b3          	add	a7,a7,a3
   10b98:	00289293          	slli	t0,a7,0x2
   10b9c:	00188893          	addi	a7,a7,1
   10ba0:	00289893          	slli	a7,a7,0x2
   10ba4:	00e888b3          	add	a7,a7,a4
   10ba8:	00f68333          	add	t1,a3,a5
   10bac:	04078513          	addi	a0,a5,64
   10bb0:	08078593          	addi	a1,a5,128
   10bb4:	0c078613          	addi	a2,a5,192
   10bb8:	01112423          	sw	a7,8(sp)
   10bbc:	14078893          	addi	a7,a5,320
   10bc0:	18078793          	addi	a5,a5,384
   10bc4:	00d80833          	add	a6,a6,a3
   10bc8:	00d50533          	add	a0,a0,a3
   10bcc:	00d585b3          	add	a1,a1,a3
   10bd0:	00d60633          	add	a2,a2,a3
   10bd4:	00d888b3          	add	a7,a7,a3
   10bd8:	00d787b3          	add	a5,a5,a3
   10bdc:	00281993          	slli	s3,a6,0x2
   10be0:	00231913          	slli	s2,t1,0x2
   10be4:	00251493          	slli	s1,a0,0x2
   10be8:	00259413          	slli	s0,a1,0x2
   10bec:	00261393          	slli	t2,a2,0x2
   10bf0:	00289b93          	slli	s7,a7,0x2
   10bf4:	00279693          	slli	a3,a5,0x2
   10bf8:	00180813          	addi	a6,a6,1
   10bfc:	00130313          	addi	t1,t1,1
   10c00:	00150513          	addi	a0,a0,1
   10c04:	00158593          	addi	a1,a1,1
   10c08:	00160613          	addi	a2,a2,1
   10c0c:	00188893          	addi	a7,a7,1
   10c10:	00178793          	addi	a5,a5,1
   10c14:	00281813          	slli	a6,a6,0x2
   10c18:	00231313          	slli	t1,t1,0x2
   10c1c:	00251513          	slli	a0,a0,0x2
   10c20:	00259593          	slli	a1,a1,0x2
   10c24:	00261613          	slli	a2,a2,0x2
   10c28:	00289893          	slli	a7,a7,0x2
   10c2c:	00279793          	slli	a5,a5,0x2
   10c30:	015e0cb3          	add	s9,t3,s5
   10c34:	001f0f13          	addi	t5,t5,1
   10c38:	015e8c33          	add	s8,t4,s5
   10c3c:	00e989b3          	add	s3,s3,a4
   10c40:	00e80833          	add	a6,a6,a4
   10c44:	00e90933          	add	s2,s2,a4
   10c48:	00e30333          	add	t1,t1,a4
   10c4c:	00e484b3          	add	s1,s1,a4
   10c50:	00e50533          	add	a0,a0,a4
   10c54:	00e40433          	add	s0,s0,a4
   10c58:	00e585b3          	add	a1,a1,a4
   10c5c:	00e383b3          	add	t2,t2,a4
   10c60:	00e60633          	add	a2,a2,a4
   10c64:	00e282b3          	add	t0,t0,a4
   10c68:	00eb8bb3          	add	s7,s7,a4
   10c6c:	00e888b3          	add	a7,a7,a4
   10c70:	00e686b3          	add	a3,a3,a4
   10c74:	00e787b3          	add	a5,a5,a4
   10c78:	e40a1ce3          	bnez	s4,10ad0 <_Z11DrawTextLeniiiPKc+0x90>
   10c7c:	03c12403          	lw	s0,60(sp)
   10c80:	03812483          	lw	s1,56(sp)
   10c84:	03412903          	lw	s2,52(sp)
   10c88:	03012983          	lw	s3,48(sp)
   10c8c:	02c12a03          	lw	s4,44(sp)
   10c90:	02812a83          	lw	s5,40(sp)
   10c94:	02412b03          	lw	s6,36(sp)
   10c98:	02012b83          	lw	s7,32(sp)
   10c9c:	01c12c03          	lw	s8,28(sp)
   10ca0:	01812c83          	lw	s9,24(sp)
   10ca4:	01412d03          	lw	s10,20(sp)
   10ca8:	01012d83          	lw	s11,16(sp)
   10cac:	04010113          	addi	sp,sp,64
   10cb0:	00008067          	ret
   10cb4:	00008067          	ret

00010cb8 <_Z8DrawTextiiPKc>:
   10cb8:	00064703          	lbu	a4,0(a2)
   10cbc:	22070063          	beqz	a4,10edc <_Z8DrawTextiiPKc+0x224>
   10cc0:	00259793          	slli	a5,a1,0x2
   10cc4:	00b787b3          	add	a5,a5,a1
   10cc8:	0000a697          	auipc	a3,0xa
   10ccc:	7506a683          	lw	a3,1872(a3) # 1b418 <_GLOBAL_OFFSET_TABLE_+0x18>
   10cd0:	0006a803          	lw	a6,0(a3)
   10cd4:	00479793          	slli	a5,a5,0x4
   10cd8:	00150693          	addi	a3,a0,1
   10cdc:	00a785b3          	add	a1,a5,a0
   10ce0:	00f687b3          	add	a5,a3,a5
   10ce4:	00259593          	slli	a1,a1,0x2
   10ce8:	00279793          	slli	a5,a5,0x2
   10cec:	00001337          	lui	t1,0x1
   10cf0:	00b805b3          	add	a1,a6,a1
   10cf4:	14000e93          	li	t4,320
   10cf8:	00f80833          	add	a6,a6,a5
   10cfc:	28000e13          	li	t3,640
   10d00:	00000893          	li	a7,0
   10d04:	00007697          	auipc	a3,0x7
   10d08:	bcc68693          	addi	a3,a3,-1076 # 178d0 <_ZL12residentfont>
   10d0c:	8c030313          	addi	t1,t1,-1856 # 8c0 <main-0xf7b4>
   10d10:	fe070713          	addi	a4,a4,-32
   10d14:	00188893          	addi	a7,a7,1
   10d18:	1a074463          	bltz	a4,10ec0 <_Z8DrawTextiiPKc+0x208>
   10d1c:	40575793          	srai	a5,a4,0x5
   10d20:	01f77713          	andi	a4,a4,31
   10d24:	00171713          	slli	a4,a4,0x1
   10d28:	00979513          	slli	a0,a5,0x9
   10d2c:	00e50533          	add	a0,a0,a4
   10d30:	00251f13          	slli	t5,a0,0x2
   10d34:	00df0f33          	add	t5,t5,a3
   10d38:	000f2f03          	lw	t5,0(t5)
   10d3c:	00150513          	addi	a0,a0,1
   10d40:	00251513          	slli	a0,a0,0x2
   10d44:	01e5a023          	sw	t5,0(a1)
   10d48:	00d50533          	add	a0,a0,a3
   10d4c:	00979793          	slli	a5,a5,0x9
   10d50:	00052f83          	lw	t6,0(a0)
   10d54:	04078793          	addi	a5,a5,64
   10d58:	00f70533          	add	a0,a4,a5
   10d5c:	00251f13          	slli	t5,a0,0x2
   10d60:	01f82023          	sw	t6,0(a6)
   10d64:	00df0f33          	add	t5,t5,a3
   10d68:	000f2f83          	lw	t6,0(t5)
   10d6c:	00150513          	addi	a0,a0,1
   10d70:	01d58f33          	add	t5,a1,t4
   10d74:	00251513          	slli	a0,a0,0x2
   10d78:	01ff2023          	sw	t6,0(t5)
   10d7c:	00d50533          	add	a0,a0,a3
   10d80:	00052283          	lw	t0,0(a0)
   10d84:	04078513          	addi	a0,a5,64
   10d88:	00e50533          	add	a0,a0,a4
   10d8c:	010e8fb3          	add	t6,t4,a6
   10d90:	00251f13          	slli	t5,a0,0x2
   10d94:	005fa023          	sw	t0,0(t6)
   10d98:	00df0f33          	add	t5,t5,a3
   10d9c:	000f2f83          	lw	t6,0(t5)
   10da0:	00150513          	addi	a0,a0,1
   10da4:	01c58f33          	add	t5,a1,t3
   10da8:	00251513          	slli	a0,a0,0x2
   10dac:	01ff2023          	sw	t6,0(t5)
   10db0:	00d50533          	add	a0,a0,a3
   10db4:	00052283          	lw	t0,0(a0)
   10db8:	08078513          	addi	a0,a5,128
   10dbc:	00e50533          	add	a0,a0,a4
   10dc0:	010e0fb3          	add	t6,t3,a6
   10dc4:	00251f13          	slli	t5,a0,0x2
   10dc8:	005fa023          	sw	t0,0(t6)
   10dcc:	00df0f33          	add	t5,t5,a3
   10dd0:	000f2f03          	lw	t5,0(t5)
   10dd4:	00150513          	addi	a0,a0,1
   10dd8:	00251513          	slli	a0,a0,0x2
   10ddc:	3de5a023          	sw	t5,960(a1)
   10de0:	00d50533          	add	a0,a0,a3
   10de4:	00052f83          	lw	t6,0(a0)
   10de8:	0c078513          	addi	a0,a5,192
   10dec:	00e50533          	add	a0,a0,a4
   10df0:	00251f13          	slli	t5,a0,0x2
   10df4:	3df82023          	sw	t6,960(a6)
   10df8:	00df0f33          	add	t5,t5,a3
   10dfc:	000f2f03          	lw	t5,0(t5)
   10e00:	00150513          	addi	a0,a0,1
   10e04:	00251513          	slli	a0,a0,0x2
   10e08:	51e5a023          	sw	t5,1280(a1)
   10e0c:	00d50533          	add	a0,a0,a3
   10e10:	00052f83          	lw	t6,0(a0)
   10e14:	10078513          	addi	a0,a5,256
   10e18:	00e50533          	add	a0,a0,a4
   10e1c:	00251f13          	slli	t5,a0,0x2
   10e20:	51f82023          	sw	t6,1280(a6)
   10e24:	00df0f33          	add	t5,t5,a3
   10e28:	000f2f03          	lw	t5,0(t5)
   10e2c:	00150513          	addi	a0,a0,1
   10e30:	00251513          	slli	a0,a0,0x2
   10e34:	65e5a023          	sw	t5,1600(a1)
   10e38:	00d50533          	add	a0,a0,a3
   10e3c:	00052f83          	lw	t6,0(a0)
   10e40:	14078513          	addi	a0,a5,320
   10e44:	00e50533          	add	a0,a0,a4
   10e48:	00251f13          	slli	t5,a0,0x2
   10e4c:	65f82023          	sw	t6,1600(a6)
   10e50:	00df0f33          	add	t5,t5,a3
   10e54:	000f2f03          	lw	t5,0(t5)
   10e58:	00150513          	addi	a0,a0,1
   10e5c:	00251513          	slli	a0,a0,0x2
   10e60:	79e5a023          	sw	t5,1920(a1)
   10e64:	00d50533          	add	a0,a0,a3
   10e68:	00052503          	lw	a0,0(a0)
   10e6c:	18078793          	addi	a5,a5,384
   10e70:	00e787b3          	add	a5,a5,a4
   10e74:	00279713          	slli	a4,a5,0x2
   10e78:	78a82023          	sw	a0,1920(a6)
   10e7c:	00d70733          	add	a4,a4,a3
   10e80:	00072503          	lw	a0,0(a4)
   10e84:	00178793          	addi	a5,a5,1
   10e88:	00658733          	add	a4,a1,t1
   10e8c:	00279793          	slli	a5,a5,0x2
   10e90:	00a72023          	sw	a0,0(a4)
   10e94:	00d787b3          	add	a5,a5,a3
   10e98:	0007a503          	lw	a0,0(a5)
   10e9c:	00680733          	add	a4,a6,t1
   10ea0:	011607b3          	add	a5,a2,a7
   10ea4:	00a72023          	sw	a0,0(a4)
   10ea8:	0007c703          	lbu	a4,0(a5)
   10eac:	00088513          	mv	a0,a7
   10eb0:	00858593          	addi	a1,a1,8
   10eb4:	00880813          	addi	a6,a6,8
   10eb8:	e4071ce3          	bnez	a4,10d10 <_Z8DrawTextiiPKc+0x58>
   10ebc:	00008067          	ret
   10ec0:	011607b3          	add	a5,a2,a7
   10ec4:	0007c703          	lbu	a4,0(a5)
   10ec8:	00088513          	mv	a0,a7
   10ecc:	00858593          	addi	a1,a1,8
   10ed0:	00880813          	addi	a6,a6,8
   10ed4:	e2071ee3          	bnez	a4,10d10 <_Z8DrawTextiiPKc+0x58>
   10ed8:	00008067          	ret
   10edc:	00000513          	li	a0,0
   10ee0:	00008067          	ret

00010ee4 <_Z11DrawDecimaliil>:
   10ee4:	00007797          	auipc	a5,0x7
   10ee8:	9cc78793          	addi	a5,a5,-1588 # 178b0 <_exit+0x7c>
   10eec:	00007717          	auipc	a4,0x7
   10ef0:	9d870713          	addi	a4,a4,-1576 # 178c4 <_exit+0x90>
   10ef4:	00072f03          	lw	t5,0(a4)
   10ef8:	00472e83          	lw	t4,4(a4)
   10efc:	00875e03          	lhu	t3,8(a4)
   10f00:	00a74303          	lbu	t1,10(a4)
   10f04:	0007a883          	lw	a7,0(a5)
   10f08:	00c7a703          	lw	a4,12(a5)
   10f0c:	0047a803          	lw	a6,4(a5)
   10f10:	0087a683          	lw	a3,8(a5)
   10f14:	0107a783          	lw	a5,16(a5)
   10f18:	fd010113          	addi	sp,sp,-48
   10f1c:	00e12c23          	sw	a4,24(sp)
   10f20:	00f12e23          	sw	a5,28(sp)
   10f24:	02112623          	sw	ra,44(sp)
   10f28:	02812423          	sw	s0,40(sp)
   10f2c:	01e12023          	sw	t5,0(sp)
   10f30:	01d12223          	sw	t4,4(sp)
   10f34:	01c11423          	sh	t3,8(sp)
   10f38:	00610523          	sb	t1,10(sp)
   10f3c:	01112623          	sw	a7,12(sp)
   10f40:	01012823          	sw	a6,16(sp)
   10f44:	00d12a23          	sw	a3,20(sp)
   10f48:	02d00713          	li	a4,45
   10f4c:	00100793          	li	a5,1
   10f50:	00064663          	bltz	a2,10f5c <_Z11DrawDecimaliil+0x78>
   10f54:	02000713          	li	a4,32
   10f58:	00000793          	li	a5,0
   10f5c:	3b9ad6b7          	lui	a3,0x3b9ad
   10f60:	a0068693          	addi	a3,a3,-1536 # 3b9aca00 <__BSS_END__+0x3b98cd90>
   10f64:	02d646b3          	div	a3,a2,a3
   10f68:	80000837          	lui	a6,0x80000
   10f6c:	fff84813          	not	a6,a6
   10f70:	00e10623          	sb	a4,12(sp)
   10f74:	05f5e737          	lui	a4,0x5f5e
   10f78:	10070713          	addi	a4,a4,256 # 5f5e100 <__BSS_END__+0x5f3e490>
   10f7c:	0106f6b3          	and	a3,a3,a6
   10f80:	02e64733          	div	a4,a2,a4
   10f84:	10069063          	bnez	a3,11084 <_Z11DrawDecimaliil+0x1a0>
   10f88:	00a00893          	li	a7,10
   10f8c:	03176733          	rem	a4,a4,a7
   10f90:	01077733          	and	a4,a4,a6
   10f94:	10071c63          	bnez	a4,110ac <_Z11DrawDecimaliil+0x1c8>
   10f98:	009896b7          	lui	a3,0x989
   10f9c:	68068693          	addi	a3,a3,1664 # 989680 <__BSS_END__+0x969a10>
   10fa0:	02d646b3          	div	a3,a2,a3
   10fa4:	0316e6b3          	rem	a3,a3,a7
   10fa8:	0106f6b3          	and	a3,a3,a6
   10fac:	12069c63          	bnez	a3,110e4 <_Z11DrawDecimaliil+0x200>
   10fb0:	000f4737          	lui	a4,0xf4
   10fb4:	24070713          	addi	a4,a4,576 # f4240 <__BSS_END__+0xd45d0>
   10fb8:	02e64733          	div	a4,a2,a4
   10fbc:	03176733          	rem	a4,a4,a7
   10fc0:	01077733          	and	a4,a4,a6
   10fc4:	14071c63          	bnez	a4,1111c <_Z11DrawDecimaliil+0x238>
   10fc8:	000186b7          	lui	a3,0x18
   10fcc:	6a068693          	addi	a3,a3,1696 # 186a0 <_ZL12residentfont+0xdd0>
   10fd0:	02d646b3          	div	a3,a2,a3
   10fd4:	0316e6b3          	rem	a3,a3,a7
   10fd8:	0106f6b3          	and	a3,a3,a6
   10fdc:	16069c63          	bnez	a3,11154 <_Z11DrawDecimaliil+0x270>
   10fe0:	00002737          	lui	a4,0x2
   10fe4:	71070713          	addi	a4,a4,1808 # 2710 <main-0xd964>
   10fe8:	02e64733          	div	a4,a2,a4
   10fec:	03176733          	rem	a4,a4,a7
   10ff0:	01077733          	and	a4,a4,a6
   10ff4:	18071c63          	bnez	a4,1118c <_Z11DrawDecimaliil+0x2a8>
   10ff8:	3e800693          	li	a3,1000
   10ffc:	02d646b3          	div	a3,a2,a3
   11000:	0316e6b3          	rem	a3,a3,a7
   11004:	0106f6b3          	and	a3,a3,a6
   11008:	1a069c63          	bnez	a3,111c0 <_Z11DrawDecimaliil+0x2dc>
   1100c:	06400713          	li	a4,100
   11010:	02e64733          	div	a4,a2,a4
   11014:	03176733          	rem	a4,a4,a7
   11018:	01077733          	and	a4,a4,a6
   1101c:	1c071c63          	bnez	a4,111f4 <_Z11DrawDecimaliil+0x310>
   11020:	03164733          	div	a4,a2,a7
   11024:	03176733          	rem	a4,a4,a7
   11028:	01077733          	and	a4,a4,a6
   1102c:	1e071c63          	bnez	a4,11224 <_Z11DrawDecimaliil+0x340>
   11030:	00a00713          	li	a4,10
   11034:	02e66733          	rem	a4,a2,a4
   11038:	00178413          	addi	s0,a5,1
   1103c:	02078793          	addi	a5,a5,32
   11040:	002787b3          	add	a5,a5,sp
   11044:	02040693          	addi	a3,s0,32
   11048:	002686b3          	add	a3,a3,sp
   1104c:	00c10613          	addi	a2,sp,12
   11050:	00171713          	slli	a4,a4,0x1
   11054:	00175713          	srli	a4,a4,0x1
   11058:	02070713          	addi	a4,a4,32
   1105c:	00270733          	add	a4,a4,sp
   11060:	fe074703          	lbu	a4,-32(a4)
   11064:	fee78623          	sb	a4,-20(a5)
   11068:	fe068623          	sb	zero,-20(a3)
   1106c:	c4dff0ef          	jal	ra,10cb8 <_Z8DrawTextiiPKc>
   11070:	02c12083          	lw	ra,44(sp)
   11074:	00040513          	mv	a0,s0
   11078:	02812403          	lw	s0,40(sp)
   1107c:	03010113          	addi	sp,sp,48
   11080:	00008067          	ret
   11084:	02068693          	addi	a3,a3,32
   11088:	002686b3          	add	a3,a3,sp
   1108c:	fe06c883          	lbu	a7,-32(a3)
   11090:	02078693          	addi	a3,a5,32
   11094:	002686b3          	add	a3,a3,sp
   11098:	ff168623          	sb	a7,-20(a3)
   1109c:	00a00693          	li	a3,10
   110a0:	02d76733          	rem	a4,a4,a3
   110a4:	00178793          	addi	a5,a5,1
   110a8:	01077733          	and	a4,a4,a6
   110ac:	009896b7          	lui	a3,0x989
   110b0:	68068693          	addi	a3,a3,1664 # 989680 <__BSS_END__+0x969a10>
   110b4:	02d646b3          	div	a3,a2,a3
   110b8:	02070713          	addi	a4,a4,32
   110bc:	00270733          	add	a4,a4,sp
   110c0:	fe074803          	lbu	a6,-32(a4)
   110c4:	02078713          	addi	a4,a5,32
   110c8:	00270733          	add	a4,a4,sp
   110cc:	ff070623          	sb	a6,-20(a4)
   110d0:	00a00713          	li	a4,10
   110d4:	00178793          	addi	a5,a5,1
   110d8:	02e6e6b3          	rem	a3,a3,a4
   110dc:	00169693          	slli	a3,a3,0x1
   110e0:	0016d693          	srli	a3,a3,0x1
   110e4:	000f4737          	lui	a4,0xf4
   110e8:	24070713          	addi	a4,a4,576 # f4240 <__BSS_END__+0xd45d0>
   110ec:	02e64733          	div	a4,a2,a4
   110f0:	02068693          	addi	a3,a3,32
   110f4:	002686b3          	add	a3,a3,sp
   110f8:	fe06c803          	lbu	a6,-32(a3)
   110fc:	02078693          	addi	a3,a5,32
   11100:	002686b3          	add	a3,a3,sp
   11104:	ff068623          	sb	a6,-20(a3)
   11108:	00a00693          	li	a3,10
   1110c:	00178793          	addi	a5,a5,1
   11110:	02d76733          	rem	a4,a4,a3
   11114:	00171713          	slli	a4,a4,0x1
   11118:	00175713          	srli	a4,a4,0x1
   1111c:	000186b7          	lui	a3,0x18
   11120:	6a068693          	addi	a3,a3,1696 # 186a0 <_ZL12residentfont+0xdd0>
   11124:	02d646b3          	div	a3,a2,a3
   11128:	02070713          	addi	a4,a4,32
   1112c:	00270733          	add	a4,a4,sp
   11130:	fe074803          	lbu	a6,-32(a4)
   11134:	02078713          	addi	a4,a5,32
   11138:	00270733          	add	a4,a4,sp
   1113c:	ff070623          	sb	a6,-20(a4)
   11140:	00a00713          	li	a4,10
   11144:	00178793          	addi	a5,a5,1
   11148:	02e6e6b3          	rem	a3,a3,a4
   1114c:	00169693          	slli	a3,a3,0x1
   11150:	0016d693          	srli	a3,a3,0x1
   11154:	00002737          	lui	a4,0x2
   11158:	71070713          	addi	a4,a4,1808 # 2710 <main-0xd964>
   1115c:	02e64733          	div	a4,a2,a4
   11160:	02068693          	addi	a3,a3,32
   11164:	002686b3          	add	a3,a3,sp
   11168:	fe06c803          	lbu	a6,-32(a3)
   1116c:	02078693          	addi	a3,a5,32
   11170:	002686b3          	add	a3,a3,sp
   11174:	ff068623          	sb	a6,-20(a3)
   11178:	00a00693          	li	a3,10
   1117c:	00178793          	addi	a5,a5,1
   11180:	02d76733          	rem	a4,a4,a3
   11184:	00171713          	slli	a4,a4,0x1
   11188:	00175713          	srli	a4,a4,0x1
   1118c:	3e800693          	li	a3,1000
   11190:	02d646b3          	div	a3,a2,a3
   11194:	02070713          	addi	a4,a4,32
   11198:	00270733          	add	a4,a4,sp
   1119c:	fe074803          	lbu	a6,-32(a4)
   111a0:	02078713          	addi	a4,a5,32
   111a4:	00270733          	add	a4,a4,sp
   111a8:	ff070623          	sb	a6,-20(a4)
   111ac:	00a00713          	li	a4,10
   111b0:	00178793          	addi	a5,a5,1
   111b4:	02e6e6b3          	rem	a3,a3,a4
   111b8:	00169693          	slli	a3,a3,0x1
   111bc:	0016d693          	srli	a3,a3,0x1
   111c0:	06400713          	li	a4,100
   111c4:	02e64733          	div	a4,a2,a4
   111c8:	02068693          	addi	a3,a3,32
   111cc:	002686b3          	add	a3,a3,sp
   111d0:	fe06c803          	lbu	a6,-32(a3)
   111d4:	02078693          	addi	a3,a5,32
   111d8:	002686b3          	add	a3,a3,sp
   111dc:	ff068623          	sb	a6,-20(a3)
   111e0:	00a00693          	li	a3,10
   111e4:	00178793          	addi	a5,a5,1
   111e8:	02d76733          	rem	a4,a4,a3
   111ec:	00171713          	slli	a4,a4,0x1
   111f0:	00175713          	srli	a4,a4,0x1
   111f4:	00a00813          	li	a6,10
   111f8:	030646b3          	div	a3,a2,a6
   111fc:	02070713          	addi	a4,a4,32
   11200:	00270733          	add	a4,a4,sp
   11204:	fe074883          	lbu	a7,-32(a4)
   11208:	02078713          	addi	a4,a5,32
   1120c:	00270733          	add	a4,a4,sp
   11210:	ff170623          	sb	a7,-20(a4)
   11214:	00178793          	addi	a5,a5,1
   11218:	0306e733          	rem	a4,a3,a6
   1121c:	00171713          	slli	a4,a4,0x1
   11220:	00175713          	srli	a4,a4,0x1
   11224:	02070713          	addi	a4,a4,32
   11228:	00270733          	add	a4,a4,sp
   1122c:	fe074683          	lbu	a3,-32(a4)
   11230:	02078713          	addi	a4,a5,32
   11234:	00270733          	add	a4,a4,sp
   11238:	00178793          	addi	a5,a5,1
   1123c:	fed70623          	sb	a3,-20(a4)
   11240:	df1ff06f          	j	11030 <_Z11DrawDecimaliil+0x14c>

00011244 <_Z7SPITxRxh>:
   11244:	0000a797          	auipc	a5,0xa
   11248:	1d07a783          	lw	a5,464(a5) # 1b414 <_GLOBAL_OFFSET_TABLE_+0x14>
   1124c:	0007a703          	lw	a4,0(a5)
   11250:	00a70023          	sb	a0,0(a4)
   11254:	0007a783          	lw	a5,0(a5)
   11258:	0007c503          	lbu	a0,0(a5)
   1125c:	00008067          	ret

00011260 <_Z5SDCmd13SDCardCommandm>:
   11260:	03f57813          	andi	a6,a0,63
   11264:	04086813          	ori	a6,a6,64
   11268:	01a81793          	slli	a5,a6,0x1a
   1126c:	0185d513          	srli	a0,a1,0x18
   11270:	0105d613          	srli	a2,a1,0x10
   11274:	41f7d793          	srai	a5,a5,0x1f
   11278:	0ff67613          	zext.b	a2,a2
   1127c:	00851893          	slli	a7,a0,0x8
   11280:	0097f793          	andi	a5,a5,9
   11284:	0085d693          	srli	a3,a1,0x8
   11288:	01061313          	slli	t1,a2,0x10
   1128c:	011868b3          	or	a7,a6,a7
   11290:	01278793          	addi	a5,a5,18
   11294:	01869713          	slli	a4,a3,0x18
   11298:	0068e8b3          	or	a7,a7,t1
   1129c:	00179793          	slli	a5,a5,0x1
   112a0:	00381313          	slli	t1,a6,0x3
   112a4:	00e8e8b3          	or	a7,a7,a4
   112a8:	0ff5f713          	zext.b	a4,a1
   112ac:	0067c5b3          	xor	a1,a5,t1
   112b0:	fe010113          	addi	sp,sp,-32
   112b4:	01859593          	slli	a1,a1,0x18
   112b8:	00112e23          	sw	ra,28(sp)
   112bc:	00812c23          	sw	s0,24(sp)
   112c0:	00912a23          	sw	s1,20(sp)
   112c4:	01212823          	sw	s2,16(sp)
   112c8:	01112423          	sw	a7,8(sp)
   112cc:	00e10623          	sb	a4,12(sp)
   112d0:	4185d593          	srai	a1,a1,0x18
   112d4:	0ff6f693          	zext.b	a3,a3
   112d8:	0005d463          	bgez	a1,112e0 <_Z5SDCmd13SDCardCommandm+0x80>
   112dc:	0097c793          	xori	a5,a5,9
   112e0:	00179793          	slli	a5,a5,0x1
   112e4:	00481593          	slli	a1,a6,0x4
   112e8:	00b7c5b3          	xor	a1,a5,a1
   112ec:	01859593          	slli	a1,a1,0x18
   112f0:	4185d593          	srai	a1,a1,0x18
   112f4:	0005d663          	bgez	a1,11300 <_Z5SDCmd13SDCardCommandm+0xa0>
   112f8:	0097c793          	xori	a5,a5,9
   112fc:	0ff7f793          	zext.b	a5,a5
   11300:	00179793          	slli	a5,a5,0x1
   11304:	0ff7f793          	zext.b	a5,a5
   11308:	00581593          	slli	a1,a6,0x5
   1130c:	00b7c5b3          	xor	a1,a5,a1
   11310:	01859593          	slli	a1,a1,0x18
   11314:	4185d593          	srai	a1,a1,0x18
   11318:	0005d463          	bgez	a1,11320 <_Z5SDCmd13SDCardCommandm+0xc0>
   1131c:	0097c793          	xori	a5,a5,9
   11320:	00179793          	slli	a5,a5,0x1
   11324:	0ff7f793          	zext.b	a5,a5
   11328:	00681593          	slli	a1,a6,0x6
   1132c:	00b7c5b3          	xor	a1,a5,a1
   11330:	01859593          	slli	a1,a1,0x18
   11334:	4185d593          	srai	a1,a1,0x18
   11338:	0005d463          	bgez	a1,11340 <_Z5SDCmd13SDCardCommandm+0xe0>
   1133c:	0097c793          	xori	a5,a5,9
   11340:	00179793          	slli	a5,a5,0x1
   11344:	0ff7f793          	zext.b	a5,a5
   11348:	00781593          	slli	a1,a6,0x7
   1134c:	00b7c5b3          	xor	a1,a5,a1
   11350:	01859593          	slli	a1,a1,0x18
   11354:	4185d593          	srai	a1,a1,0x18
   11358:	0005d463          	bgez	a1,11360 <_Z5SDCmd13SDCardCommandm+0x100>
   1135c:	0097c793          	xori	a5,a5,9
   11360:	00179793          	slli	a5,a5,0x1
   11364:	0ff7f793          	zext.b	a5,a5
   11368:	00f545b3          	xor	a1,a0,a5
   1136c:	01859593          	slli	a1,a1,0x18
   11370:	4185d593          	srai	a1,a1,0x18
   11374:	0005d463          	bgez	a1,1137c <_Z5SDCmd13SDCardCommandm+0x11c>
   11378:	0097c793          	xori	a5,a5,9
   1137c:	00179793          	slli	a5,a5,0x1
   11380:	0ff7f793          	zext.b	a5,a5
   11384:	00151593          	slli	a1,a0,0x1
   11388:	00b7c5b3          	xor	a1,a5,a1
   1138c:	01859593          	slli	a1,a1,0x18
   11390:	4185d593          	srai	a1,a1,0x18
   11394:	0005d463          	bgez	a1,1139c <_Z5SDCmd13SDCardCommandm+0x13c>
   11398:	0097c793          	xori	a5,a5,9
   1139c:	00179793          	slli	a5,a5,0x1
   113a0:	0ff7f793          	zext.b	a5,a5
   113a4:	00251593          	slli	a1,a0,0x2
   113a8:	00b7c5b3          	xor	a1,a5,a1
   113ac:	01859593          	slli	a1,a1,0x18
   113b0:	4185d593          	srai	a1,a1,0x18
   113b4:	0005d463          	bgez	a1,113bc <_Z5SDCmd13SDCardCommandm+0x15c>
   113b8:	0097c793          	xori	a5,a5,9
   113bc:	00179793          	slli	a5,a5,0x1
   113c0:	0ff7f793          	zext.b	a5,a5
   113c4:	00351593          	slli	a1,a0,0x3
   113c8:	00b7c5b3          	xor	a1,a5,a1
   113cc:	01859593          	slli	a1,a1,0x18
   113d0:	4185d593          	srai	a1,a1,0x18
   113d4:	0005d463          	bgez	a1,113dc <_Z5SDCmd13SDCardCommandm+0x17c>
   113d8:	0097c793          	xori	a5,a5,9
   113dc:	00179793          	slli	a5,a5,0x1
   113e0:	0ff7f793          	zext.b	a5,a5
   113e4:	00451593          	slli	a1,a0,0x4
   113e8:	00b7c5b3          	xor	a1,a5,a1
   113ec:	01859593          	slli	a1,a1,0x18
   113f0:	4185d593          	srai	a1,a1,0x18
   113f4:	0005d463          	bgez	a1,113fc <_Z5SDCmd13SDCardCommandm+0x19c>
   113f8:	0097c793          	xori	a5,a5,9
   113fc:	00179793          	slli	a5,a5,0x1
   11400:	0ff7f793          	zext.b	a5,a5
   11404:	00551593          	slli	a1,a0,0x5
   11408:	00b7c5b3          	xor	a1,a5,a1
   1140c:	01859593          	slli	a1,a1,0x18
   11410:	4185d593          	srai	a1,a1,0x18
   11414:	0005d463          	bgez	a1,1141c <_Z5SDCmd13SDCardCommandm+0x1bc>
   11418:	0097c793          	xori	a5,a5,9
   1141c:	00179793          	slli	a5,a5,0x1
   11420:	0ff7f793          	zext.b	a5,a5
   11424:	00651593          	slli	a1,a0,0x6
   11428:	00b7c5b3          	xor	a1,a5,a1
   1142c:	01859593          	slli	a1,a1,0x18
   11430:	4185d593          	srai	a1,a1,0x18
   11434:	0005d463          	bgez	a1,1143c <_Z5SDCmd13SDCardCommandm+0x1dc>
   11438:	0097c793          	xori	a5,a5,9
   1143c:	00179793          	slli	a5,a5,0x1
   11440:	0ff7f793          	zext.b	a5,a5
   11444:	00751593          	slli	a1,a0,0x7
   11448:	00b7c5b3          	xor	a1,a5,a1
   1144c:	01859593          	slli	a1,a1,0x18
   11450:	4185d593          	srai	a1,a1,0x18
   11454:	0005d463          	bgez	a1,1145c <_Z5SDCmd13SDCardCommandm+0x1fc>
   11458:	0097c793          	xori	a5,a5,9
   1145c:	00179793          	slli	a5,a5,0x1
   11460:	0ff7f793          	zext.b	a5,a5
   11464:	00f645b3          	xor	a1,a2,a5
   11468:	01859593          	slli	a1,a1,0x18
   1146c:	4185d593          	srai	a1,a1,0x18
   11470:	0005d463          	bgez	a1,11478 <_Z5SDCmd13SDCardCommandm+0x218>
   11474:	0097c793          	xori	a5,a5,9
   11478:	00179793          	slli	a5,a5,0x1
   1147c:	0ff7f793          	zext.b	a5,a5
   11480:	00161593          	slli	a1,a2,0x1
   11484:	00b7c5b3          	xor	a1,a5,a1
   11488:	01859593          	slli	a1,a1,0x18
   1148c:	4185d593          	srai	a1,a1,0x18
   11490:	0005d463          	bgez	a1,11498 <_Z5SDCmd13SDCardCommandm+0x238>
   11494:	0097c793          	xori	a5,a5,9
   11498:	00179793          	slli	a5,a5,0x1
   1149c:	0ff7f793          	zext.b	a5,a5
   114a0:	00261593          	slli	a1,a2,0x2
   114a4:	00b7c5b3          	xor	a1,a5,a1
   114a8:	01859593          	slli	a1,a1,0x18
   114ac:	4185d593          	srai	a1,a1,0x18
   114b0:	0005d463          	bgez	a1,114b8 <_Z5SDCmd13SDCardCommandm+0x258>
   114b4:	0097c793          	xori	a5,a5,9
   114b8:	00179793          	slli	a5,a5,0x1
   114bc:	0ff7f793          	zext.b	a5,a5
   114c0:	00361593          	slli	a1,a2,0x3
   114c4:	00b7c5b3          	xor	a1,a5,a1
   114c8:	01859593          	slli	a1,a1,0x18
   114cc:	4185d593          	srai	a1,a1,0x18
   114d0:	0005d463          	bgez	a1,114d8 <_Z5SDCmd13SDCardCommandm+0x278>
   114d4:	0097c793          	xori	a5,a5,9
   114d8:	00179793          	slli	a5,a5,0x1
   114dc:	0ff7f793          	zext.b	a5,a5
   114e0:	00461593          	slli	a1,a2,0x4
   114e4:	00b7c5b3          	xor	a1,a5,a1
   114e8:	01859593          	slli	a1,a1,0x18
   114ec:	4185d593          	srai	a1,a1,0x18
   114f0:	0005d463          	bgez	a1,114f8 <_Z5SDCmd13SDCardCommandm+0x298>
   114f4:	0097c793          	xori	a5,a5,9
   114f8:	00179793          	slli	a5,a5,0x1
   114fc:	0ff7f793          	zext.b	a5,a5
   11500:	00561593          	slli	a1,a2,0x5
   11504:	00b7c5b3          	xor	a1,a5,a1
   11508:	01859593          	slli	a1,a1,0x18
   1150c:	4185d593          	srai	a1,a1,0x18
   11510:	0005d463          	bgez	a1,11518 <_Z5SDCmd13SDCardCommandm+0x2b8>
   11514:	0097c793          	xori	a5,a5,9
   11518:	00179793          	slli	a5,a5,0x1
   1151c:	0ff7f793          	zext.b	a5,a5
   11520:	00661593          	slli	a1,a2,0x6
   11524:	00b7c5b3          	xor	a1,a5,a1
   11528:	01859593          	slli	a1,a1,0x18
   1152c:	4185d593          	srai	a1,a1,0x18
   11530:	0005d463          	bgez	a1,11538 <_Z5SDCmd13SDCardCommandm+0x2d8>
   11534:	0097c793          	xori	a5,a5,9
   11538:	00179793          	slli	a5,a5,0x1
   1153c:	0ff7f793          	zext.b	a5,a5
   11540:	00761613          	slli	a2,a2,0x7
   11544:	00c7c633          	xor	a2,a5,a2
   11548:	01861613          	slli	a2,a2,0x18
   1154c:	41865613          	srai	a2,a2,0x18
   11550:	00065463          	bgez	a2,11558 <_Z5SDCmd13SDCardCommandm+0x2f8>
   11554:	0097c793          	xori	a5,a5,9
   11558:	00179793          	slli	a5,a5,0x1
   1155c:	0ff7f793          	zext.b	a5,a5
   11560:	00f6c633          	xor	a2,a3,a5
   11564:	01861613          	slli	a2,a2,0x18
   11568:	41865613          	srai	a2,a2,0x18
   1156c:	00065463          	bgez	a2,11574 <_Z5SDCmd13SDCardCommandm+0x314>
   11570:	0097c793          	xori	a5,a5,9
   11574:	00179793          	slli	a5,a5,0x1
   11578:	0ff7f793          	zext.b	a5,a5
   1157c:	00169613          	slli	a2,a3,0x1
   11580:	00c7c633          	xor	a2,a5,a2
   11584:	01861613          	slli	a2,a2,0x18
   11588:	41865613          	srai	a2,a2,0x18
   1158c:	00065463          	bgez	a2,11594 <_Z5SDCmd13SDCardCommandm+0x334>
   11590:	0097c793          	xori	a5,a5,9
   11594:	00179793          	slli	a5,a5,0x1
   11598:	0ff7f793          	zext.b	a5,a5
   1159c:	00269613          	slli	a2,a3,0x2
   115a0:	00c7c633          	xor	a2,a5,a2
   115a4:	01861613          	slli	a2,a2,0x18
   115a8:	41865613          	srai	a2,a2,0x18
   115ac:	00065463          	bgez	a2,115b4 <_Z5SDCmd13SDCardCommandm+0x354>
   115b0:	0097c793          	xori	a5,a5,9
   115b4:	00179793          	slli	a5,a5,0x1
   115b8:	0ff7f793          	zext.b	a5,a5
   115bc:	00369613          	slli	a2,a3,0x3
   115c0:	00c7c633          	xor	a2,a5,a2
   115c4:	01861613          	slli	a2,a2,0x18
   115c8:	41865613          	srai	a2,a2,0x18
   115cc:	00065463          	bgez	a2,115d4 <_Z5SDCmd13SDCardCommandm+0x374>
   115d0:	0097c793          	xori	a5,a5,9
   115d4:	00179793          	slli	a5,a5,0x1
   115d8:	0ff7f793          	zext.b	a5,a5
   115dc:	00469613          	slli	a2,a3,0x4
   115e0:	00c7c633          	xor	a2,a5,a2
   115e4:	01861613          	slli	a2,a2,0x18
   115e8:	41865613          	srai	a2,a2,0x18
   115ec:	00065463          	bgez	a2,115f4 <_Z5SDCmd13SDCardCommandm+0x394>
   115f0:	0097c793          	xori	a5,a5,9
   115f4:	00179793          	slli	a5,a5,0x1
   115f8:	0ff7f793          	zext.b	a5,a5
   115fc:	00569613          	slli	a2,a3,0x5
   11600:	00c7c633          	xor	a2,a5,a2
   11604:	01861613          	slli	a2,a2,0x18
   11608:	41865613          	srai	a2,a2,0x18
   1160c:	00065463          	bgez	a2,11614 <_Z5SDCmd13SDCardCommandm+0x3b4>
   11610:	0097c793          	xori	a5,a5,9
   11614:	00179793          	slli	a5,a5,0x1
   11618:	0ff7f793          	zext.b	a5,a5
   1161c:	00669613          	slli	a2,a3,0x6
   11620:	00c7c633          	xor	a2,a5,a2
   11624:	01861613          	slli	a2,a2,0x18
   11628:	41865613          	srai	a2,a2,0x18
   1162c:	00065463          	bgez	a2,11634 <_Z5SDCmd13SDCardCommandm+0x3d4>
   11630:	0097c793          	xori	a5,a5,9
   11634:	00179793          	slli	a5,a5,0x1
   11638:	0ff7f793          	zext.b	a5,a5
   1163c:	00769693          	slli	a3,a3,0x7
   11640:	00d7c6b3          	xor	a3,a5,a3
   11644:	01869693          	slli	a3,a3,0x18
   11648:	4186d693          	srai	a3,a3,0x18
   1164c:	0006d463          	bgez	a3,11654 <_Z5SDCmd13SDCardCommandm+0x3f4>
   11650:	0097c793          	xori	a5,a5,9
   11654:	00179793          	slli	a5,a5,0x1
   11658:	0ff7f793          	zext.b	a5,a5
   1165c:	00f746b3          	xor	a3,a4,a5
   11660:	01869693          	slli	a3,a3,0x18
   11664:	4186d693          	srai	a3,a3,0x18
   11668:	0006d463          	bgez	a3,11670 <_Z5SDCmd13SDCardCommandm+0x410>
   1166c:	0097c793          	xori	a5,a5,9
   11670:	00179793          	slli	a5,a5,0x1
   11674:	0ff7f793          	zext.b	a5,a5
   11678:	00171693          	slli	a3,a4,0x1
   1167c:	00d7c6b3          	xor	a3,a5,a3
   11680:	01869693          	slli	a3,a3,0x18
   11684:	4186d693          	srai	a3,a3,0x18
   11688:	0006d463          	bgez	a3,11690 <_Z5SDCmd13SDCardCommandm+0x430>
   1168c:	0097c793          	xori	a5,a5,9
   11690:	00179793          	slli	a5,a5,0x1
   11694:	0ff7f793          	zext.b	a5,a5
   11698:	00271693          	slli	a3,a4,0x2
   1169c:	00d7c6b3          	xor	a3,a5,a3
   116a0:	01869693          	slli	a3,a3,0x18
   116a4:	4186d693          	srai	a3,a3,0x18
   116a8:	0006d463          	bgez	a3,116b0 <_Z5SDCmd13SDCardCommandm+0x450>
   116ac:	0097c793          	xori	a5,a5,9
   116b0:	00179793          	slli	a5,a5,0x1
   116b4:	0ff7f793          	zext.b	a5,a5
   116b8:	00371693          	slli	a3,a4,0x3
   116bc:	00d7c6b3          	xor	a3,a5,a3
   116c0:	01869693          	slli	a3,a3,0x18
   116c4:	4186d693          	srai	a3,a3,0x18
   116c8:	0006d463          	bgez	a3,116d0 <_Z5SDCmd13SDCardCommandm+0x470>
   116cc:	0097c793          	xori	a5,a5,9
   116d0:	00179793          	slli	a5,a5,0x1
   116d4:	0ff7f793          	zext.b	a5,a5
   116d8:	00471693          	slli	a3,a4,0x4
   116dc:	00d7c6b3          	xor	a3,a5,a3
   116e0:	01869693          	slli	a3,a3,0x18
   116e4:	4186d693          	srai	a3,a3,0x18
   116e8:	0006d463          	bgez	a3,116f0 <_Z5SDCmd13SDCardCommandm+0x490>
   116ec:	0097c793          	xori	a5,a5,9
   116f0:	00179793          	slli	a5,a5,0x1
   116f4:	0ff7f793          	zext.b	a5,a5
   116f8:	00571693          	slli	a3,a4,0x5
   116fc:	00d7c6b3          	xor	a3,a5,a3
   11700:	01869693          	slli	a3,a3,0x18
   11704:	4186d693          	srai	a3,a3,0x18
   11708:	0006d463          	bgez	a3,11710 <_Z5SDCmd13SDCardCommandm+0x4b0>
   1170c:	0097c793          	xori	a5,a5,9
   11710:	00179793          	slli	a5,a5,0x1
   11714:	0ff7f793          	zext.b	a5,a5
   11718:	00671693          	slli	a3,a4,0x6
   1171c:	00d7c6b3          	xor	a3,a5,a3
   11720:	01869693          	slli	a3,a3,0x18
   11724:	4186d693          	srai	a3,a3,0x18
   11728:	0006d463          	bgez	a3,11730 <_Z5SDCmd13SDCardCommandm+0x4d0>
   1172c:	0097c793          	xori	a5,a5,9
   11730:	00179793          	slli	a5,a5,0x1
   11734:	0ff7f793          	zext.b	a5,a5
   11738:	00771713          	slli	a4,a4,0x7
   1173c:	00e7c733          	xor	a4,a5,a4
   11740:	01871713          	slli	a4,a4,0x18
   11744:	41875713          	srai	a4,a4,0x18
   11748:	00075463          	bgez	a4,11750 <_Z5SDCmd13SDCardCommandm+0x4f0>
   1174c:	0097c793          	xori	a5,a5,9
   11750:	00179793          	slli	a5,a5,0x1
   11754:	0017e793          	ori	a5,a5,1
   11758:	0ff00513          	li	a0,255
   1175c:	00f106a3          	sb	a5,13(sp)
   11760:	00810413          	addi	s0,sp,8
   11764:	ae1ff0ef          	jal	ra,11244 <_Z7SPITxRxh>
   11768:	00e10913          	addi	s2,sp,14
   1176c:	00044503          	lbu	a0,0(s0)
   11770:	00140413          	addi	s0,s0,1
   11774:	ad1ff0ef          	jal	ra,11244 <_Z7SPITxRxh>
   11778:	00050493          	mv	s1,a0
   1177c:	fe8918e3          	bne	s2,s0,1176c <_Z5SDCmd13SDCardCommandm+0x50c>
   11780:	0ff00513          	li	a0,255
   11784:	ac1ff0ef          	jal	ra,11244 <_Z7SPITxRxh>
   11788:	01c12083          	lw	ra,28(sp)
   1178c:	01812403          	lw	s0,24(sp)
   11790:	01012903          	lw	s2,16(sp)
   11794:	00048513          	mv	a0,s1
   11798:	01412483          	lw	s1,20(sp)
   1179c:	02010113          	addi	sp,sp,32
   117a0:	00008067          	ret

000117a4 <_Z11SDResponse1v>:
   117a4:	ff010113          	addi	sp,sp,-16
   117a8:	00812423          	sw	s0,8(sp)
   117ac:	00010437          	lui	s0,0x10
   117b0:	00112623          	sw	ra,12(sp)
   117b4:	00140413          	addi	s0,s0,1 # 10001 <main-0x73>
   117b8:	0080006f          	j	117c0 <_Z11SDResponse1v+0x1c>
   117bc:	00040c63          	beqz	s0,117d4 <_Z11SDResponse1v+0x30>
   117c0:	0ff00513          	li	a0,255
   117c4:	a81ff0ef          	jal	ra,11244 <_Z7SPITxRxh>
   117c8:	0ff00793          	li	a5,255
   117cc:	fff40413          	addi	s0,s0,-1
   117d0:	fef506e3          	beq	a0,a5,117bc <_Z11SDResponse1v+0x18>
   117d4:	00c12083          	lw	ra,12(sp)
   117d8:	00812403          	lw	s0,8(sp)
   117dc:	01010113          	addi	sp,sp,16
   117e0:	00008067          	ret

000117e4 <_Z11SDResponse7Pm>:
   117e4:	fe010113          	addi	sp,sp,-32
   117e8:	00912a23          	sw	s1,20(sp)
   117ec:	01212823          	sw	s2,16(sp)
   117f0:	00112e23          	sw	ra,28(sp)
   117f4:	00812c23          	sw	s0,24(sp)
   117f8:	01312623          	sw	s3,12(sp)
   117fc:	01412423          	sw	s4,8(sp)
   11800:	00052023          	sw	zero,0(a0)
   11804:	00050913          	mv	s2,a0
   11808:	f9dff0ef          	jal	ra,117a4 <_Z11SDResponse1v>
   1180c:	00100793          	li	a5,1
   11810:	0ff00493          	li	s1,255
   11814:	04a7e863          	bltu	a5,a0,11864 <_Z11SDResponse7Pm+0x80>
   11818:	00050493          	mv	s1,a0
   1181c:	0ff00513          	li	a0,255
   11820:	a25ff0ef          	jal	ra,11244 <_Z7SPITxRxh>
   11824:	00050413          	mv	s0,a0
   11828:	0ff00513          	li	a0,255
   1182c:	a19ff0ef          	jal	ra,11244 <_Z7SPITxRxh>
   11830:	00050a13          	mv	s4,a0
   11834:	0ff00513          	li	a0,255
   11838:	a0dff0ef          	jal	ra,11244 <_Z7SPITxRxh>
   1183c:	00050993          	mv	s3,a0
   11840:	01841413          	slli	s0,s0,0x18
   11844:	0ff00513          	li	a0,255
   11848:	010a1a13          	slli	s4,s4,0x10
   1184c:	9f9ff0ef          	jal	ra,11244 <_Z7SPITxRxh>
   11850:	01446433          	or	s0,s0,s4
   11854:	00a46433          	or	s0,s0,a0
   11858:	00899993          	slli	s3,s3,0x8
   1185c:	01346433          	or	s0,s0,s3
   11860:	00892023          	sw	s0,0(s2)
   11864:	01c12083          	lw	ra,28(sp)
   11868:	01812403          	lw	s0,24(sp)
   1186c:	01012903          	lw	s2,16(sp)
   11870:	00c12983          	lw	s3,12(sp)
   11874:	00812a03          	lw	s4,8(sp)
   11878:	00048513          	mv	a0,s1
   1187c:	01412483          	lw	s1,20(sp)
   11880:	02010113          	addi	sp,sp,32
   11884:	00008067          	ret

00011888 <_Z6SDIdlev>:
   11888:	ff010113          	addi	sp,sp,-16
   1188c:	00000593          	li	a1,0
   11890:	00000513          	li	a0,0
   11894:	00112623          	sw	ra,12(sp)
   11898:	00812423          	sw	s0,8(sp)
   1189c:	9c5ff0ef          	jal	ra,11260 <_Z5SDCmd13SDCardCommandm>
   118a0:	f05ff0ef          	jal	ra,117a4 <_Z11SDResponse1v>
   118a4:	00100793          	li	a5,1
   118a8:	00050413          	mv	s0,a0
   118ac:	02f50263          	beq	a0,a5,118d0 <_Z6SDIdlev+0x48>
   118b0:	00008517          	auipc	a0,0x8
   118b4:	82050513          	addi	a0,a0,-2016 # 190d0 <_ZL12residentfont+0x1800>
   118b8:	c5dfe0ef          	jal	ra,10514 <_Z9UARTWritePKc>
   118bc:	00040513          	mv	a0,s0
   118c0:	ce5fe0ef          	jal	ra,105a4 <_Z12UARTWriteHexm>
   118c4:	00008517          	auipc	a0,0x8
   118c8:	82c50513          	addi	a0,a0,-2004 # 190f0 <_ZL12residentfont+0x1820>
   118cc:	c49fe0ef          	jal	ra,10514 <_Z9UARTWritePKc>
   118d0:	00c12083          	lw	ra,12(sp)
   118d4:	00040513          	mv	a0,s0
   118d8:	00812403          	lw	s0,8(sp)
   118dc:	01010113          	addi	sp,sp,16
   118e0:	00008067          	ret

000118e4 <_Z19SDCheckVoltageRangev>:
   118e4:	fe010113          	addi	sp,sp,-32
   118e8:	1aa00593          	li	a1,426
   118ec:	00800513          	li	a0,8
   118f0:	00112e23          	sw	ra,28(sp)
   118f4:	00812c23          	sw	s0,24(sp)
   118f8:	969ff0ef          	jal	ra,11260 <_Z5SDCmd13SDCardCommandm>
   118fc:	00c10513          	addi	a0,sp,12
   11900:	ee5ff0ef          	jal	ra,117e4 <_Z11SDResponse7Pm>
   11904:	00100793          	li	a5,1
   11908:	00050413          	mv	s0,a0
   1190c:	02f50263          	beq	a0,a5,11930 <_Z19SDCheckVoltageRangev+0x4c>
   11910:	00007517          	auipc	a0,0x7
   11914:	7e450513          	addi	a0,a0,2020 # 190f4 <_ZL12residentfont+0x1824>
   11918:	bfdfe0ef          	jal	ra,10514 <_Z9UARTWritePKc>
   1191c:	00040513          	mv	a0,s0
   11920:	c85fe0ef          	jal	ra,105a4 <_Z12UARTWriteHexm>
   11924:	00007517          	auipc	a0,0x7
   11928:	7cc50513          	addi	a0,a0,1996 # 190f0 <_ZL12residentfont+0x1820>
   1192c:	be9fe0ef          	jal	ra,10514 <_Z9UARTWritePKc>
   11930:	00c12703          	lw	a4,12(sp)
   11934:	1aa00793          	li	a5,426
   11938:	02f70263          	beq	a4,a5,1195c <_Z19SDCheckVoltageRangev+0x78>
   1193c:	00007517          	auipc	a0,0x7
   11940:	7e450513          	addi	a0,a0,2020 # 19120 <_ZL12residentfont+0x1850>
   11944:	bd1fe0ef          	jal	ra,10514 <_Z9UARTWritePKc>
   11948:	00c12503          	lw	a0,12(sp)
   1194c:	c59fe0ef          	jal	ra,105a4 <_Z12UARTWriteHexm>
   11950:	00007517          	auipc	a0,0x7
   11954:	7a050513          	addi	a0,a0,1952 # 190f0 <_ZL12residentfont+0x1820>
   11958:	bbdfe0ef          	jal	ra,10514 <_Z9UARTWritePKc>
   1195c:	01c12083          	lw	ra,28(sp)
   11960:	00040513          	mv	a0,s0
   11964:	01812403          	lw	s0,24(sp)
   11968:	02010113          	addi	sp,sp,32
   1196c:	00008067          	ret

00011970 <_Z10SDCardInitv>:
   11970:	ff010113          	addi	sp,sp,-16
   11974:	01212023          	sw	s2,0(sp)
   11978:	00112623          	sw	ra,12(sp)
   1197c:	00812423          	sw	s0,8(sp)
   11980:	00912223          	sw	s1,4(sp)
   11984:	00010937          	lui	s2,0x10
   11988:	0080006f          	j	11990 <_Z10SDCardInitv+0x20>
   1198c:	08090a63          	beqz	s2,11a20 <_Z10SDCardInitv+0xb0>
   11990:	00000593          	li	a1,0
   11994:	03700513          	li	a0,55
   11998:	8c9ff0ef          	jal	ra,11260 <_Z5SDCmd13SDCardCommandm>
   1199c:	e09ff0ef          	jal	ra,117a4 <_Z11SDResponse1v>
   119a0:	400005b7          	lui	a1,0x40000
   119a4:	00050493          	mv	s1,a0
   119a8:	02900513          	li	a0,41
   119ac:	8b5ff0ef          	jal	ra,11260 <_Z5SDCmd13SDCardCommandm>
   119b0:	df5ff0ef          	jal	ra,117a4 <_Z11SDResponse1v>
   119b4:	00050413          	mv	s0,a0
   119b8:	fff90913          	addi	s2,s2,-1 # ffff <main-0x75>
   119bc:	fc0518e3          	bnez	a0,1198c <_Z10SDCardInitv+0x1c>
   119c0:	00100793          	li	a5,1
   119c4:	02f49063          	bne	s1,a5,119e4 <_Z10SDCardInitv+0x74>
   119c8:	00c12083          	lw	ra,12(sp)
   119cc:	00040513          	mv	a0,s0
   119d0:	00812403          	lw	s0,8(sp)
   119d4:	00412483          	lw	s1,4(sp)
   119d8:	00012903          	lw	s2,0(sp)
   119dc:	01010113          	addi	sp,sp,16
   119e0:	00008067          	ret
   119e4:	00007517          	auipc	a0,0x7
   119e8:	76c50513          	addi	a0,a0,1900 # 19150 <_ZL12residentfont+0x1880>
   119ec:	b29fe0ef          	jal	ra,10514 <_Z9UARTWritePKc>
   119f0:	00048513          	mv	a0,s1
   119f4:	bb1fe0ef          	jal	ra,105a4 <_Z12UARTWriteHexm>
   119f8:	00007517          	auipc	a0,0x7
   119fc:	6f850513          	addi	a0,a0,1784 # 190f0 <_ZL12residentfont+0x1820>
   11a00:	b15fe0ef          	jal	ra,10514 <_Z9UARTWritePKc>
   11a04:	00c12083          	lw	ra,12(sp)
   11a08:	00040513          	mv	a0,s0
   11a0c:	00812403          	lw	s0,8(sp)
   11a10:	00412483          	lw	s1,4(sp)
   11a14:	00012903          	lw	s2,0(sp)
   11a18:	01010113          	addi	sp,sp,16
   11a1c:	00008067          	ret
   11a20:	00100793          	li	a5,1
   11a24:	02f48263          	beq	s1,a5,11a48 <_Z10SDCardInitv+0xd8>
   11a28:	00007517          	auipc	a0,0x7
   11a2c:	72850513          	addi	a0,a0,1832 # 19150 <_ZL12residentfont+0x1880>
   11a30:	ae5fe0ef          	jal	ra,10514 <_Z9UARTWritePKc>
   11a34:	00048513          	mv	a0,s1
   11a38:	b6dfe0ef          	jal	ra,105a4 <_Z12UARTWriteHexm>
   11a3c:	00007517          	auipc	a0,0x7
   11a40:	6b450513          	addi	a0,a0,1716 # 190f0 <_ZL12residentfont+0x1820>
   11a44:	ad1fe0ef          	jal	ra,10514 <_Z9UARTWritePKc>
   11a48:	00007517          	auipc	a0,0x7
   11a4c:	72c50513          	addi	a0,a0,1836 # 19174 <_ZL12residentfont+0x18a4>
   11a50:	ac5fe0ef          	jal	ra,10514 <_Z9UARTWritePKc>
   11a54:	00040513          	mv	a0,s0
   11a58:	b4dfe0ef          	jal	ra,105a4 <_Z12UARTWriteHexm>
   11a5c:	00007517          	auipc	a0,0x7
   11a60:	69450513          	addi	a0,a0,1684 # 190f0 <_ZL12residentfont+0x1820>
   11a64:	ab1fe0ef          	jal	ra,10514 <_Z9UARTWritePKc>
   11a68:	00c12083          	lw	ra,12(sp)
   11a6c:	00040513          	mv	a0,s0
   11a70:	00812403          	lw	s0,8(sp)
   11a74:	00412483          	lw	s1,4(sp)
   11a78:	00012903          	lw	s2,0(sp)
   11a7c:	01010113          	addi	sp,sp,16
   11a80:	00008067          	ret

00011a84 <_Z17SDSetBlockSize512v>:
   11a84:	ff010113          	addi	sp,sp,-16
   11a88:	20000593          	li	a1,512
   11a8c:	01000513          	li	a0,16
   11a90:	00112623          	sw	ra,12(sp)
   11a94:	fccff0ef          	jal	ra,11260 <_Z5SDCmd13SDCardCommandm>
   11a98:	00c12083          	lw	ra,12(sp)
   11a9c:	01010113          	addi	sp,sp,16
   11aa0:	d05ff06f          	j	117a4 <_Z11SDResponse1v>

00011aa4 <_Z17SDReadSingleBlockmPhS_>:
   11aa4:	fe010113          	addi	sp,sp,-32
   11aa8:	00912a23          	sw	s1,20(sp)
   11aac:	00050493          	mv	s1,a0
   11ab0:	00812c23          	sw	s0,24(sp)
   11ab4:	01100513          	li	a0,17
   11ab8:	00058413          	mv	s0,a1
   11abc:	00048593          	mv	a1,s1
   11ac0:	00112e23          	sw	ra,28(sp)
   11ac4:	01212823          	sw	s2,16(sp)
   11ac8:	01312623          	sw	s3,12(sp)
   11acc:	00060993          	mv	s3,a2
   11ad0:	f90ff0ef          	jal	ra,11260 <_Z5SDCmd13SDCardCommandm>
   11ad4:	cd1ff0ef          	jal	ra,117a4 <_Z11SDResponse1v>
   11ad8:	0ff00793          	li	a5,255
   11adc:	00050913          	mv	s2,a0
   11ae0:	02f50e63          	beq	a0,a5,11b1c <_Z17SDReadSingleBlockmPhS_+0x78>
   11ae4:	cc1ff0ef          	jal	ra,117a4 <_Z11SDResponse1v>
   11ae8:	0fe00793          	li	a5,254
   11aec:	00050913          	mv	s2,a0
   11af0:	0af50e63          	beq	a0,a5,11bac <_Z17SDReadSingleBlockmPhS_+0x108>
   11af4:	0f057793          	andi	a5,a0,240
   11af8:	02079263          	bnez	a5,11b1c <_Z17SDReadSingleBlockmPhS_+0x78>
   11afc:	00157793          	andi	a5,a0,1
   11b00:	08079e63          	bnez	a5,11b9c <_Z17SDReadSingleBlockmPhS_+0xf8>
   11b04:	00297793          	andi	a5,s2,2
   11b08:	08079263          	bnez	a5,11b8c <_Z17SDReadSingleBlockmPhS_+0xe8>
   11b0c:	00497793          	andi	a5,s2,4
   11b10:	06079663          	bnez	a5,11b7c <_Z17SDReadSingleBlockmPhS_+0xd8>
   11b14:	00897793          	andi	a5,s2,8
   11b18:	02079263          	bnez	a5,11b3c <_Z17SDReadSingleBlockmPhS_+0x98>
   11b1c:	01c12083          	lw	ra,28(sp)
   11b20:	01812403          	lw	s0,24(sp)
   11b24:	01412483          	lw	s1,20(sp)
   11b28:	00c12983          	lw	s3,12(sp)
   11b2c:	00090513          	mv	a0,s2
   11b30:	01012903          	lw	s2,16(sp)
   11b34:	02010113          	addi	sp,sp,32
   11b38:	00008067          	ret
   11b3c:	00007517          	auipc	a0,0x7
   11b40:	6f450513          	addi	a0,a0,1780 # 19230 <_ZL12residentfont+0x1960>
   11b44:	9d1fe0ef          	jal	ra,10514 <_Z9UARTWritePKc>
   11b48:	00048513          	mv	a0,s1
   11b4c:	a59fe0ef          	jal	ra,105a4 <_Z12UARTWriteHexm>
   11b50:	00007517          	auipc	a0,0x7
   11b54:	5a050513          	addi	a0,a0,1440 # 190f0 <_ZL12residentfont+0x1820>
   11b58:	9bdfe0ef          	jal	ra,10514 <_Z9UARTWritePKc>
   11b5c:	01c12083          	lw	ra,28(sp)
   11b60:	01812403          	lw	s0,24(sp)
   11b64:	01412483          	lw	s1,20(sp)
   11b68:	00c12983          	lw	s3,12(sp)
   11b6c:	00090513          	mv	a0,s2
   11b70:	01012903          	lw	s2,16(sp)
   11b74:	02010113          	addi	sp,sp,32
   11b78:	00008067          	ret
   11b7c:	00007517          	auipc	a0,0x7
   11b80:	67c50513          	addi	a0,a0,1660 # 191f8 <_ZL12residentfont+0x1928>
   11b84:	991fe0ef          	jal	ra,10514 <_Z9UARTWritePKc>
   11b88:	f8dff06f          	j	11b14 <_Z17SDReadSingleBlockmPhS_+0x70>
   11b8c:	00007517          	auipc	a0,0x7
   11b90:	63c50513          	addi	a0,a0,1596 # 191c8 <_ZL12residentfont+0x18f8>
   11b94:	981fe0ef          	jal	ra,10514 <_Z9UARTWritePKc>
   11b98:	f75ff06f          	j	11b0c <_Z17SDReadSingleBlockmPhS_+0x68>
   11b9c:	00007517          	auipc	a0,0x7
   11ba0:	5fc50513          	addi	a0,a0,1532 # 19198 <_ZL12residentfont+0x18c8>
   11ba4:	971fe0ef          	jal	ra,10514 <_Z9UARTWritePKc>
   11ba8:	f5dff06f          	j	11b04 <_Z17SDReadSingleBlockmPhS_+0x60>
   11bac:	20040493          	addi	s1,s0,512
   11bb0:	0ff00513          	li	a0,255
   11bb4:	e90ff0ef          	jal	ra,11244 <_Z7SPITxRxh>
   11bb8:	00a40023          	sb	a0,0(s0)
   11bbc:	00140413          	addi	s0,s0,1
   11bc0:	fe8498e3          	bne	s1,s0,11bb0 <_Z17SDReadSingleBlockmPhS_+0x10c>
   11bc4:	0ff00513          	li	a0,255
   11bc8:	e7cff0ef          	jal	ra,11244 <_Z7SPITxRxh>
   11bcc:	00a98023          	sb	a0,0(s3)
   11bd0:	0ff00513          	li	a0,255
   11bd4:	e70ff0ef          	jal	ra,11244 <_Z7SPITxRxh>
   11bd8:	00a980a3          	sb	a0,1(s3)
   11bdc:	01c12083          	lw	ra,28(sp)
   11be0:	01812403          	lw	s0,24(sp)
   11be4:	01412483          	lw	s1,20(sp)
   11be8:	00c12983          	lw	s3,12(sp)
   11bec:	00090513          	mv	a0,s2
   11bf0:	01012903          	lw	s2,16(sp)
   11bf4:	02010113          	addi	sp,sp,32
   11bf8:	00008067          	ret

00011bfc <_Z18SDWriteSingleBlockmPhS_>:
   11bfc:	ff010113          	addi	sp,sp,-16
   11c00:	00050793          	mv	a5,a0
   11c04:	00812423          	sw	s0,8(sp)
   11c08:	01100513          	li	a0,17
   11c0c:	00058413          	mv	s0,a1
   11c10:	00078593          	mv	a1,a5
   11c14:	00112623          	sw	ra,12(sp)
   11c18:	00912223          	sw	s1,4(sp)
   11c1c:	e44ff0ef          	jal	ra,11260 <_Z5SDCmd13SDCardCommandm>
   11c20:	b85ff0ef          	jal	ra,117a4 <_Z11SDResponse1v>
   11c24:	00050c63          	beqz	a0,11c3c <_Z18SDWriteSingleBlockmPhS_+0x40>
   11c28:	00c12083          	lw	ra,12(sp)
   11c2c:	00812403          	lw	s0,8(sp)
   11c30:	00412483          	lw	s1,4(sp)
   11c34:	01010113          	addi	sp,sp,16
   11c38:	00008067          	ret
   11c3c:	0fe00513          	li	a0,254
   11c40:	e04ff0ef          	jal	ra,11244 <_Z7SPITxRxh>
   11c44:	20040493          	addi	s1,s0,512
   11c48:	00044503          	lbu	a0,0(s0)
   11c4c:	00140413          	addi	s0,s0,1
   11c50:	df4ff0ef          	jal	ra,11244 <_Z7SPITxRxh>
   11c54:	fe941ae3          	bne	s0,s1,11c48 <_Z18SDWriteSingleBlockmPhS_+0x4c>
   11c58:	b4dff0ef          	jal	ra,117a4 <_Z11SDResponse1v>
   11c5c:	01f57793          	andi	a5,a0,31
   11c60:	00500713          	li	a4,5
   11c64:	00e79c63          	bne	a5,a4,11c7c <_Z18SDWriteSingleBlockmPhS_+0x80>
   11c68:	00812403          	lw	s0,8(sp)
   11c6c:	00c12083          	lw	ra,12(sp)
   11c70:	00412483          	lw	s1,4(sp)
   11c74:	01010113          	addi	sp,sp,16
   11c78:	b2dff06f          	j	117a4 <_Z11SDResponse1v>
   11c7c:	00007517          	auipc	a0,0x7
   11c80:	5f450513          	addi	a0,a0,1524 # 19270 <_ZL12residentfont+0x19a0>
   11c84:	891fe0ef          	jal	ra,10514 <_Z9UARTWritePKc>
   11c88:	00c12083          	lw	ra,12(sp)
   11c8c:	00812403          	lw	s0,8(sp)
   11c90:	00412483          	lw	s1,4(sp)
   11c94:	0ff00513          	li	a0,255
   11c98:	01010113          	addi	sp,sp,16
   11c9c:	00008067          	ret

00011ca0 <_Z20SDReadMultipleBlocksPhmm>:
   11ca0:	0a058663          	beqz	a1,11d4c <_Z20SDReadMultipleBlocksPhmm+0xac>
   11ca4:	dd010113          	addi	sp,sp,-560
   11ca8:	22812423          	sw	s0,552(sp)
   11cac:	22912223          	sw	s1,548(sp)
   11cb0:	23212023          	sw	s2,544(sp)
   11cb4:	21312e23          	sw	s3,540(sp)
   11cb8:	21412c23          	sw	s4,536(sp)
   11cbc:	21512a23          	sw	s5,532(sp)
   11cc0:	21612823          	sw	s6,528(sp)
   11cc4:	22112623          	sw	ra,556(sp)
   11cc8:	00050a13          	mv	s4,a0
   11ccc:	00060413          	mv	s0,a2
   11cd0:	00c589b3          	add	s3,a1,a2
   11cd4:	00000493          	li	s1,0
   11cd8:	00c10b13          	addi	s6,sp,12
   11cdc:	01010913          	addi	s2,sp,16
   11ce0:	0fe00a93          	li	s5,254
   11ce4:	000b0613          	mv	a2,s6
   11ce8:	00090593          	mv	a1,s2
   11cec:	00040513          	mv	a0,s0
   11cf0:	db5ff0ef          	jal	ra,11aa4 <_Z17SDReadSingleBlockmPhS_>
   11cf4:	00050793          	mv	a5,a0
   11cf8:	20000613          	li	a2,512
   11cfc:	009a0533          	add	a0,s4,s1
   11d00:	00090593          	mv	a1,s2
   11d04:	00140413          	addi	s0,s0,1
   11d08:	03579e63          	bne	a5,s5,11d44 <_Z20SDReadMultipleBlocksPhmm+0xa4>
   11d0c:	110050ef          	jal	ra,16e1c <memcpy>
   11d10:	20048493          	addi	s1,s1,512
   11d14:	fc8998e3          	bne	s3,s0,11ce4 <_Z20SDReadMultipleBlocksPhmm+0x44>
   11d18:	00048513          	mv	a0,s1
   11d1c:	22c12083          	lw	ra,556(sp)
   11d20:	22812403          	lw	s0,552(sp)
   11d24:	22412483          	lw	s1,548(sp)
   11d28:	22012903          	lw	s2,544(sp)
   11d2c:	21c12983          	lw	s3,540(sp)
   11d30:	21812a03          	lw	s4,536(sp)
   11d34:	21412a83          	lw	s5,532(sp)
   11d38:	21012b03          	lw	s6,528(sp)
   11d3c:	23010113          	addi	sp,sp,560
   11d40:	00008067          	ret
   11d44:	fff00513          	li	a0,-1
   11d48:	fd5ff06f          	j	11d1c <_Z20SDReadMultipleBlocksPhmm+0x7c>
   11d4c:	fff00513          	li	a0,-1
   11d50:	00008067          	ret

00011d54 <_Z21SDWriteMultipleBlocksPKhmm>:
   11d54:	0a058463          	beqz	a1,11dfc <_Z21SDWriteMultipleBlocksPKhmm+0xa8>
   11d58:	dd010113          	addi	sp,sp,-560
   11d5c:	22812423          	sw	s0,552(sp)
   11d60:	22912223          	sw	s1,548(sp)
   11d64:	23212023          	sw	s2,544(sp)
   11d68:	21312e23          	sw	s3,540(sp)
   11d6c:	21412c23          	sw	s4,536(sp)
   11d70:	21512a23          	sw	s5,532(sp)
   11d74:	21612823          	sw	s6,528(sp)
   11d78:	22112623          	sw	ra,556(sp)
   11d7c:	00050a13          	mv	s4,a0
   11d80:	00060413          	mv	s0,a2
   11d84:	00c589b3          	add	s3,a1,a2
   11d88:	00000493          	li	s1,0
   11d8c:	01010913          	addi	s2,sp,16
   11d90:	00c10b13          	addi	s6,sp,12
   11d94:	0fe00a93          	li	s5,254
   11d98:	009a05b3          	add	a1,s4,s1
   11d9c:	20000613          	li	a2,512
   11da0:	00090513          	mv	a0,s2
   11da4:	078050ef          	jal	ra,16e1c <memcpy>
   11da8:	00040513          	mv	a0,s0
   11dac:	000b0613          	mv	a2,s6
   11db0:	00090593          	mv	a1,s2
   11db4:	e49ff0ef          	jal	ra,11bfc <_Z18SDWriteSingleBlockmPhS_>
   11db8:	00140413          	addi	s0,s0,1
   11dbc:	03551c63          	bne	a0,s5,11df4 <_Z21SDWriteMultipleBlocksPKhmm+0xa0>
   11dc0:	20048493          	addi	s1,s1,512
   11dc4:	fc899ae3          	bne	s3,s0,11d98 <_Z21SDWriteMultipleBlocksPKhmm+0x44>
   11dc8:	00048513          	mv	a0,s1
   11dcc:	22c12083          	lw	ra,556(sp)
   11dd0:	22812403          	lw	s0,552(sp)
   11dd4:	22412483          	lw	s1,548(sp)
   11dd8:	22012903          	lw	s2,544(sp)
   11ddc:	21c12983          	lw	s3,540(sp)
   11de0:	21812a03          	lw	s4,536(sp)
   11de4:	21412a83          	lw	s5,532(sp)
   11de8:	21012b03          	lw	s6,528(sp)
   11dec:	23010113          	addi	sp,sp,560
   11df0:	00008067          	ret
   11df4:	fff00513          	li	a0,-1
   11df8:	fd5ff06f          	j	11dcc <_Z21SDWriteMultipleBlocksPKhmm+0x78>
   11dfc:	fff00513          	li	a0,-1
   11e00:	00008067          	ret

00011e04 <_Z13SDCardStartupv>:
   11e04:	ff010113          	addi	sp,sp,-16
   11e08:	00812423          	sw	s0,8(sp)
   11e0c:	00112623          	sw	ra,12(sp)
   11e10:	00a00413          	li	s0,10
   11e14:	fff40413          	addi	s0,s0,-1
   11e18:	0ff00513          	li	a0,255
   11e1c:	c28ff0ef          	jal	ra,11244 <_Z7SPITxRxh>
   11e20:	fe041ae3          	bnez	s0,11e14 <_Z13SDCardStartupv+0x10>
   11e24:	a65ff0ef          	jal	ra,11888 <_Z6SDIdlev>
   11e28:	00100793          	li	a5,1
   11e2c:	00050413          	mv	s0,a0
   11e30:	02f51463          	bne	a0,a5,11e58 <_Z13SDCardStartupv+0x54>
   11e34:	ab1ff0ef          	jal	ra,118e4 <_Z19SDCheckVoltageRangev>
   11e38:	02851063          	bne	a0,s0,11e58 <_Z13SDCardStartupv+0x54>
   11e3c:	b35ff0ef          	jal	ra,11970 <_Z10SDCardInitv>
   11e40:	00a03533          	snez	a0,a0
   11e44:	40a00533          	neg	a0,a0
   11e48:	00c12083          	lw	ra,12(sp)
   11e4c:	00812403          	lw	s0,8(sp)
   11e50:	01010113          	addi	sp,sp,16
   11e54:	00008067          	ret
   11e58:	fff00513          	li	a0,-1
   11e5c:	fedff06f          	j	11e48 <_Z13SDCardStartupv+0x44>

00011e60 <_ZL12get_ldnumberPPKc>:
   11e60:	00052f83          	lw	t6,0(a0)
   11e64:	0e0f8e63          	beqz	t6,11f60 <_ZL12get_ldnumberPPKc+0x100>
   11e68:	00050f13          	mv	t5,a0
   11e6c:	000f8793          	mv	a5,t6
   11e70:	01f00693          	li	a3,31
   11e74:	03a00613          	li	a2,58
   11e78:	0080006f          	j	11e80 <_ZL12get_ldnumberPPKc+0x20>
   11e7c:	00c70e63          	beq	a4,a2,11e98 <_ZL12get_ldnumberPPKc+0x38>
   11e80:	0007c703          	lbu	a4,0(a5)
   11e84:	00178793          	addi	a5,a5,1
   11e88:	fee6eae3          	bltu	a3,a4,11e7c <_ZL12get_ldnumberPPKc+0x1c>
   11e8c:	0000e517          	auipc	a0,0xe
   11e90:	db854503          	lbu	a0,-584(a0) # 1fc44 <_ZL7CurrVol>
   11e94:	00008067          	ret
   11e98:	000fc383          	lbu	t2,0(t6)
   11e9c:	00900693          	li	a3,9
   11ea0:	fd038713          	addi	a4,t2,-48
   11ea4:	0ff77613          	zext.b	a2,a4
   11ea8:	08c6fa63          	bgeu	a3,a2,11f3c <_ZL12get_ldnumberPPKc+0xdc>
   11eac:	ff010113          	addi	sp,sp,-16
   11eb0:	00812623          	sw	s0,12(sp)
   11eb4:	00009297          	auipc	t0,0x9
   11eb8:	ce428293          	addi	t0,t0,-796 # 1ab98 <_ZL9VolumeStr>
   11ebc:	00000513          	li	a0,0
   11ec0:	01900313          	li	t1,25
   11ec4:	00300413          	li	s0,3
   11ec8:	0002a803          	lw	a6,0(t0)
   11ecc:	00038613          	mv	a2,t2
   11ed0:	000f8893          	mv	a7,t6
   11ed4:	00084683          	lbu	a3,0(a6) # 80000000 <__BSS_END__+0x7ffe0390>
   11ed8:	f9f60713          	addi	a4,a2,-97
   11edc:	fe060e13          	addi	t3,a2,-32
   11ee0:	f9f68593          	addi	a1,a3,-97
   11ee4:	0ff5f593          	zext.b	a1,a1
   11ee8:	fe068e93          	addi	t4,a3,-32
   11eec:	0ff77713          	zext.b	a4,a4
   11ef0:	00180813          	addi	a6,a6,1
   11ef4:	00188893          	addi	a7,a7,1
   11ef8:	00b36c63          	bltu	t1,a1,11f10 <_ZL12get_ldnumberPPKc+0xb0>
   11efc:	0ffef693          	zext.b	a3,t4
   11f00:	00e37a63          	bgeu	t1,a4,11f14 <_ZL12get_ldnumberPPKc+0xb4>
   11f04:	00c69e63          	bne	a3,a2,11f20 <_ZL12get_ldnumberPPKc+0xc0>
   11f08:	0008c603          	lbu	a2,0(a7)
   11f0c:	fc9ff06f          	j	11ed4 <_ZL12get_ldnumberPPKc+0x74>
   11f10:	00e36463          	bltu	t1,a4,11f18 <_ZL12get_ldnumberPPKc+0xb8>
   11f14:	0ffe7613          	zext.b	a2,t3
   11f18:	fe0696e3          	bnez	a3,11f04 <_ZL12get_ldnumberPPKc+0xa4>
   11f1c:	03178e63          	beq	a5,a7,11f58 <_ZL12get_ldnumberPPKc+0xf8>
   11f20:	00150513          	addi	a0,a0,1
   11f24:	00428293          	addi	t0,t0,4
   11f28:	fa8510e3          	bne	a0,s0,11ec8 <_ZL12get_ldnumberPPKc+0x68>
   11f2c:	fff00513          	li	a0,-1
   11f30:	00c12403          	lw	s0,12(sp)
   11f34:	01010113          	addi	sp,sp,16
   11f38:	00008067          	ret
   11f3c:	002f8693          	addi	a3,t6,2
   11f40:	f6d796e3          	bne	a5,a3,11eac <_ZL12get_ldnumberPPKc+0x4c>
   11f44:	00070513          	mv	a0,a4
   11f48:	00200713          	li	a4,2
   11f4c:	00a74a63          	blt	a4,a0,11f60 <_ZL12get_ldnumberPPKc+0x100>
   11f50:	00ff2023          	sw	a5,0(t5)
   11f54:	00008067          	ret
   11f58:	00ff2023          	sw	a5,0(t5)
   11f5c:	fd5ff06f          	j	11f30 <_ZL12get_ldnumberPPKc+0xd0>
   11f60:	fff00513          	li	a0,-1
   11f64:	00008067          	ret

00011f68 <_ZL11move_windowP5FATFSm>:
   11f68:	03452603          	lw	a2,52(a0)
   11f6c:	0ab60e63          	beq	a2,a1,12028 <_ZL11move_windowP5FATFSm+0xc0>
   11f70:	fe010113          	addi	sp,sp,-32
   11f74:	00812c23          	sw	s0,24(sp)
   11f78:	00912a23          	sw	s1,20(sp)
   11f7c:	00112e23          	sw	ra,28(sp)
   11f80:	00354783          	lbu	a5,3(a0)
   11f84:	00050413          	mv	s0,a0
   11f88:	00058493          	mv	s1,a1
   11f8c:	00154503          	lbu	a0,1(a0)
   11f90:	03840593          	addi	a1,s0,56
   11f94:	02079c63          	bnez	a5,11fcc <_ZL11move_windowP5FATFSm+0x64>
   11f98:	00100693          	li	a3,1
   11f9c:	00048613          	mv	a2,s1
   11fa0:	635030ef          	jal	ra,15dd4 <disk_read>
   11fa4:	00051e63          	bnez	a0,11fc0 <_ZL11move_windowP5FATFSm+0x58>
   11fa8:	02942a23          	sw	s1,52(s0)
   11fac:	01c12083          	lw	ra,28(sp)
   11fb0:	01812403          	lw	s0,24(sp)
   11fb4:	01412483          	lw	s1,20(sp)
   11fb8:	02010113          	addi	sp,sp,32
   11fbc:	00008067          	ret
   11fc0:	00100513          	li	a0,1
   11fc4:	fff00493          	li	s1,-1
   11fc8:	fe1ff06f          	j	11fa8 <_ZL11move_windowP5FATFSm+0x40>
   11fcc:	00100693          	li	a3,1
   11fd0:	00b12623          	sw	a1,12(sp)
   11fd4:	641030ef          	jal	ra,15e14 <disk_write>
   11fd8:	00050793          	mv	a5,a0
   11fdc:	00100513          	li	a0,1
   11fe0:	fc0796e3          	bnez	a5,11fac <_ZL11move_windowP5FATFSm+0x44>
   11fe4:	03442603          	lw	a2,52(s0)
   11fe8:	02842783          	lw	a5,40(s0)
   11fec:	02042703          	lw	a4,32(s0)
   11ff0:	000401a3          	sb	zero,3(s0)
   11ff4:	40f607b3          	sub	a5,a2,a5
   11ff8:	00144503          	lbu	a0,1(s0)
   11ffc:	00c12583          	lw	a1,12(sp)
   12000:	f8e7fce3          	bgeu	a5,a4,11f98 <_ZL11move_windowP5FATFSm+0x30>
   12004:	00244683          	lbu	a3,2(s0)
   12008:	00200793          	li	a5,2
   1200c:	f8f696e3          	bne	a3,a5,11f98 <_ZL11move_windowP5FATFSm+0x30>
   12010:	00100693          	li	a3,1
   12014:	00e60633          	add	a2,a2,a4
   12018:	5fd030ef          	jal	ra,15e14 <disk_write>
   1201c:	00144503          	lbu	a0,1(s0)
   12020:	00c12583          	lw	a1,12(sp)
   12024:	f75ff06f          	j	11f98 <_ZL11move_windowP5FATFSm+0x30>
   12028:	00000513          	li	a0,0
   1202c:	00008067          	ret

00012030 <_ZL7put_fatP5FATFSmm.part.0>:
   12030:	fd010113          	addi	sp,sp,-48
   12034:	02812423          	sw	s0,40(sp)
   12038:	02912223          	sw	s1,36(sp)
   1203c:	01312e23          	sw	s3,28(sp)
   12040:	02112623          	sw	ra,44(sp)
   12044:	03212023          	sw	s2,32(sp)
   12048:	01412c23          	sw	s4,24(sp)
   1204c:	01512a23          	sw	s5,20(sp)
   12050:	01612823          	sw	s6,16(sp)
   12054:	01712623          	sw	s7,12(sp)
   12058:	00054a03          	lbu	s4,0(a0)
   1205c:	00200793          	li	a5,2
   12060:	00050413          	mv	s0,a0
   12064:	00058493          	mv	s1,a1
   12068:	00060993          	mv	s3,a2
   1206c:	04fa0463          	beq	s4,a5,120b4 <_ZL7put_fatP5FATFSmm.part.0+0x84>
   12070:	00300793          	li	a5,3
   12074:	10fa0263          	beq	s4,a5,12178 <_ZL7put_fatP5FATFSmm.part.0+0x148>
   12078:	00100793          	li	a5,1
   1207c:	00200913          	li	s2,2
   12080:	06fa0e63          	beq	s4,a5,120fc <_ZL7put_fatP5FATFSmm.part.0+0xcc>
   12084:	02c12083          	lw	ra,44(sp)
   12088:	02812403          	lw	s0,40(sp)
   1208c:	02412483          	lw	s1,36(sp)
   12090:	01c12983          	lw	s3,28(sp)
   12094:	01812a03          	lw	s4,24(sp)
   12098:	01412a83          	lw	s5,20(sp)
   1209c:	01012b03          	lw	s6,16(sp)
   120a0:	00c12b83          	lw	s7,12(sp)
   120a4:	00090513          	mv	a0,s2
   120a8:	02012903          	lw	s2,32(sp)
   120ac:	03010113          	addi	sp,sp,48
   120b0:	00008067          	ret
   120b4:	02852783          	lw	a5,40(a0)
   120b8:	0085d593          	srli	a1,a1,0x8
   120bc:	00f585b3          	add	a1,a1,a5
   120c0:	ea9ff0ef          	jal	ra,11f68 <_ZL11move_windowP5FATFSm>
   120c4:	00050913          	mv	s2,a0
   120c8:	fa051ee3          	bnez	a0,12084 <_ZL7put_fatP5FATFSmm.part.0+0x54>
   120cc:	00149493          	slli	s1,s1,0x1
   120d0:	01099713          	slli	a4,s3,0x10
   120d4:	03840793          	addi	a5,s0,56
   120d8:	1fe4f493          	andi	s1,s1,510
   120dc:	01075713          	srli	a4,a4,0x10
   120e0:	009787b3          	add	a5,a5,s1
   120e4:	00875713          	srli	a4,a4,0x8
   120e8:	01378023          	sb	s3,0(a5)
   120ec:	00e780a3          	sb	a4,1(a5)
   120f0:	00100793          	li	a5,1
   120f4:	00f401a3          	sb	a5,3(s0)
   120f8:	f8dff06f          	j	12084 <_ZL7put_fatP5FATFSmm.part.0+0x54>
   120fc:	02852783          	lw	a5,40(a0)
   12100:	0015da93          	srli	s5,a1,0x1
   12104:	00ba8ab3          	add	s5,s5,a1
   12108:	009ad593          	srli	a1,s5,0x9
   1210c:	00f585b3          	add	a1,a1,a5
   12110:	e59ff0ef          	jal	ra,11f68 <_ZL11move_windowP5FATFSm>
   12114:	00050913          	mv	s2,a0
   12118:	f60516e3          	bnez	a0,12084 <_ZL7put_fatP5FATFSmm.part.0+0x54>
   1211c:	001a8b93          	addi	s7,s5,1
   12120:	03840b13          	addi	s6,s0,56
   12124:	1ffafa93          	andi	s5,s5,511
   12128:	0014f493          	andi	s1,s1,1
   1212c:	015b0ab3          	add	s5,s6,s5
   12130:	009bd693          	srli	a3,s7,0x9
   12134:	0a048863          	beqz	s1,121e4 <_ZL7put_fatP5FATFSmm.part.0+0x1b4>
   12138:	000ac783          	lbu	a5,0(s5)
   1213c:	00001637          	lui	a2,0x1
   12140:	00499713          	slli	a4,s3,0x4
   12144:	ff060613          	addi	a2,a2,-16 # ff0 <main-0xf084>
   12148:	00f7f793          	andi	a5,a5,15
   1214c:	00c77733          	and	a4,a4,a2
   12150:	00e7e7b3          	or	a5,a5,a4
   12154:	00fa8023          	sb	a5,0(s5)
   12158:	02842583          	lw	a1,40(s0)
   1215c:	014401a3          	sb	s4,3(s0)
   12160:	00040513          	mv	a0,s0
   12164:	00b685b3          	add	a1,a3,a1
   12168:	e01ff0ef          	jal	ra,11f68 <_ZL11move_windowP5FATFSm>
   1216c:	0c050063          	beqz	a0,1222c <_ZL7put_fatP5FATFSmm.part.0+0x1fc>
   12170:	00050913          	mv	s2,a0
   12174:	f11ff06f          	j	12084 <_ZL7put_fatP5FATFSmm.part.0+0x54>
   12178:	02852783          	lw	a5,40(a0)
   1217c:	0075d593          	srli	a1,a1,0x7
   12180:	00f585b3          	add	a1,a1,a5
   12184:	de5ff0ef          	jal	ra,11f68 <_ZL11move_windowP5FATFSm>
   12188:	00050913          	mv	s2,a0
   1218c:	ee051ce3          	bnez	a0,12084 <_ZL7put_fatP5FATFSmm.part.0+0x54>
   12190:	00249493          	slli	s1,s1,0x2
   12194:	03840713          	addi	a4,s0,56
   12198:	1fc4f493          	andi	s1,s1,508
   1219c:	00970733          	add	a4,a4,s1
   121a0:	00374783          	lbu	a5,3(a4)
   121a4:	f00006b7          	lui	a3,0xf0000
   121a8:	00499993          	slli	s3,s3,0x4
   121ac:	01879793          	slli	a5,a5,0x18
   121b0:	00d7f7b3          	and	a5,a5,a3
   121b4:	0049d993          	srli	s3,s3,0x4
   121b8:	0137e7b3          	or	a5,a5,s3
   121bc:	0087d593          	srli	a1,a5,0x8
   121c0:	0107d613          	srli	a2,a5,0x10
   121c4:	0187d693          	srli	a3,a5,0x18
   121c8:	00f70023          	sb	a5,0(a4)
   121cc:	00b700a3          	sb	a1,1(a4)
   121d0:	00c70123          	sb	a2,2(a4)
   121d4:	00d701a3          	sb	a3,3(a4)
   121d8:	00100793          	li	a5,1
   121dc:	00f401a3          	sb	a5,3(s0)
   121e0:	ea5ff06f          	j	12084 <_ZL7put_fatP5FATFSmm.part.0+0x54>
   121e4:	013a8023          	sb	s3,0(s5)
   121e8:	02842583          	lw	a1,40(s0)
   121ec:	014401a3          	sb	s4,3(s0)
   121f0:	00040513          	mv	a0,s0
   121f4:	00b685b3          	add	a1,a3,a1
   121f8:	d71ff0ef          	jal	ra,11f68 <_ZL11move_windowP5FATFSm>
   121fc:	f6051ae3          	bnez	a0,12170 <_ZL7put_fatP5FATFSmm.part.0+0x140>
   12200:	1ffbfb93          	andi	s7,s7,511
   12204:	017b0b33          	add	s6,s6,s7
   12208:	000b4783          	lbu	a5,0(s6)
   1220c:	0089d993          	srli	s3,s3,0x8
   12210:	00f9f993          	andi	s3,s3,15
   12214:	ff07f793          	andi	a5,a5,-16
   12218:	0137e7b3          	or	a5,a5,s3
   1221c:	00fb0023          	sb	a5,0(s6)
   12220:	00100793          	li	a5,1
   12224:	00f401a3          	sb	a5,3(s0)
   12228:	e5dff06f          	j	12084 <_ZL7put_fatP5FATFSmm.part.0+0x54>
   1222c:	1ffbfb93          	andi	s7,s7,511
   12230:	0049d793          	srli	a5,s3,0x4
   12234:	017b0b33          	add	s6,s6,s7
   12238:	0ff7f793          	zext.b	a5,a5
   1223c:	fe1ff06f          	j	1221c <_ZL7put_fatP5FATFSmm.part.0+0x1ec>

00012240 <_ZL7get_fatP7FFOBJIDm.isra.0>:
   12240:	00100713          	li	a4,1
   12244:	06b77463          	bgeu	a4,a1,122ac <_ZL7get_fatP7FFOBJIDm.isra.0+0x6c>
   12248:	01c52703          	lw	a4,28(a0)
   1224c:	fe010113          	addi	sp,sp,-32
   12250:	00812c23          	sw	s0,24(sp)
   12254:	01212823          	sw	s2,16(sp)
   12258:	00112e23          	sw	ra,28(sp)
   1225c:	00912a23          	sw	s1,20(sp)
   12260:	01312623          	sw	s3,12(sp)
   12264:	00058413          	mv	s0,a1
   12268:	00050913          	mv	s2,a0
   1226c:	00100793          	li	a5,1
   12270:	00e5fe63          	bgeu	a1,a4,1228c <_ZL7get_fatP7FFOBJIDm.isra.0+0x4c>
   12274:	00054703          	lbu	a4,0(a0)
   12278:	00200693          	li	a3,2
   1227c:	0cd70863          	beq	a4,a3,1234c <_ZL7get_fatP7FFOBJIDm.isra.0+0x10c>
   12280:	00300693          	li	a3,3
   12284:	06d70a63          	beq	a4,a3,122f8 <_ZL7get_fatP7FFOBJIDm.isra.0+0xb8>
   12288:	02f70863          	beq	a4,a5,122b8 <_ZL7get_fatP7FFOBJIDm.isra.0+0x78>
   1228c:	01c12083          	lw	ra,28(sp)
   12290:	01812403          	lw	s0,24(sp)
   12294:	01412483          	lw	s1,20(sp)
   12298:	01012903          	lw	s2,16(sp)
   1229c:	00c12983          	lw	s3,12(sp)
   122a0:	00078513          	mv	a0,a5
   122a4:	02010113          	addi	sp,sp,32
   122a8:	00008067          	ret
   122ac:	00100793          	li	a5,1
   122b0:	00078513          	mv	a0,a5
   122b4:	00008067          	ret
   122b8:	0015d493          	srli	s1,a1,0x1
   122bc:	02852783          	lw	a5,40(a0)
   122c0:	00b484b3          	add	s1,s1,a1
   122c4:	0094d593          	srli	a1,s1,0x9
   122c8:	00f585b3          	add	a1,a1,a5
   122cc:	c9dff0ef          	jal	ra,11f68 <_ZL11move_windowP5FATFSm>
   122d0:	0a050863          	beqz	a0,12380 <_ZL7get_fatP7FFOBJIDm.isra.0+0x140>
   122d4:	01c12083          	lw	ra,28(sp)
   122d8:	01812403          	lw	s0,24(sp)
   122dc:	fff00793          	li	a5,-1
   122e0:	01412483          	lw	s1,20(sp)
   122e4:	01012903          	lw	s2,16(sp)
   122e8:	00c12983          	lw	s3,12(sp)
   122ec:	00078513          	mv	a0,a5
   122f0:	02010113          	addi	sp,sp,32
   122f4:	00008067          	ret
   122f8:	02852783          	lw	a5,40(a0)
   122fc:	0075d593          	srli	a1,a1,0x7
   12300:	00f585b3          	add	a1,a1,a5
   12304:	c65ff0ef          	jal	ra,11f68 <_ZL11move_windowP5FATFSm>
   12308:	fc0516e3          	bnez	a0,122d4 <_ZL7get_fatP7FFOBJIDm.isra.0+0x94>
   1230c:	00241413          	slli	s0,s0,0x2
   12310:	1fc47413          	andi	s0,s0,508
   12314:	008907b3          	add	a5,s2,s0
   12318:	0397c683          	lbu	a3,57(a5)
   1231c:	0387c603          	lbu	a2,56(a5)
   12320:	03a7c703          	lbu	a4,58(a5)
   12324:	03b7c783          	lbu	a5,59(a5)
   12328:	00869693          	slli	a3,a3,0x8
   1232c:	00c6e6b3          	or	a3,a3,a2
   12330:	01071713          	slli	a4,a4,0x10
   12334:	00d76733          	or	a4,a4,a3
   12338:	01879793          	slli	a5,a5,0x18
   1233c:	00e7e7b3          	or	a5,a5,a4
   12340:	00479793          	slli	a5,a5,0x4
   12344:	0047d793          	srli	a5,a5,0x4
   12348:	f45ff06f          	j	1228c <_ZL7get_fatP7FFOBJIDm.isra.0+0x4c>
   1234c:	02852783          	lw	a5,40(a0)
   12350:	0085d593          	srli	a1,a1,0x8
   12354:	00f585b3          	add	a1,a1,a5
   12358:	c11ff0ef          	jal	ra,11f68 <_ZL11move_windowP5FATFSm>
   1235c:	f6051ce3          	bnez	a0,122d4 <_ZL7get_fatP7FFOBJIDm.isra.0+0x94>
   12360:	00141513          	slli	a0,s0,0x1
   12364:	1fe57513          	andi	a0,a0,510
   12368:	00a90533          	add	a0,s2,a0
   1236c:	03954783          	lbu	a5,57(a0)
   12370:	03854703          	lbu	a4,56(a0)
   12374:	00879793          	slli	a5,a5,0x8
   12378:	00e7e7b3          	or	a5,a5,a4
   1237c:	f11ff06f          	j	1228c <_ZL7get_fatP7FFOBJIDm.isra.0+0x4c>
   12380:	02892783          	lw	a5,40(s2)
   12384:	00148993          	addi	s3,s1,1
   12388:	0099d593          	srli	a1,s3,0x9
   1238c:	1ff4f493          	andi	s1,s1,511
   12390:	009904b3          	add	s1,s2,s1
   12394:	00f585b3          	add	a1,a1,a5
   12398:	00090513          	mv	a0,s2
   1239c:	0384c483          	lbu	s1,56(s1)
   123a0:	bc9ff0ef          	jal	ra,11f68 <_ZL11move_windowP5FATFSm>
   123a4:	f20518e3          	bnez	a0,122d4 <_ZL7get_fatP7FFOBJIDm.isra.0+0x94>
   123a8:	1ff9f993          	andi	s3,s3,511
   123ac:	013909b3          	add	s3,s2,s3
   123b0:	0389c783          	lbu	a5,56(s3)
   123b4:	00147413          	andi	s0,s0,1
   123b8:	00879793          	slli	a5,a5,0x8
   123bc:	0097e7b3          	or	a5,a5,s1
   123c0:	f80412e3          	bnez	s0,12344 <_ZL7get_fatP7FFOBJIDm.isra.0+0x104>
   123c4:	01479793          	slli	a5,a5,0x14
   123c8:	0147d793          	srli	a5,a5,0x14
   123cc:	ec1ff06f          	j	1228c <_ZL7get_fatP7FFOBJIDm.isra.0+0x4c>

000123d0 <_ZL8check_fsP5FATFSm>:
   123d0:	ff010113          	addi	sp,sp,-16
   123d4:	00812423          	sw	s0,8(sp)
   123d8:	01212023          	sw	s2,0(sp)
   123dc:	00112623          	sw	ra,12(sp)
   123e0:	00912223          	sw	s1,4(sp)
   123e4:	fff00913          	li	s2,-1
   123e8:	000501a3          	sb	zero,3(a0)
   123ec:	03252a23          	sw	s2,52(a0)
   123f0:	00050413          	mv	s0,a0
   123f4:	05258263          	beq	a1,s2,12438 <_ZL8check_fsP5FATFSm+0x68>
   123f8:	00154503          	lbu	a0,1(a0)
   123fc:	00058493          	mv	s1,a1
   12400:	00058613          	mv	a2,a1
   12404:	00100693          	li	a3,1
   12408:	03840593          	addi	a1,s0,56
   1240c:	1c9030ef          	jal	ra,15dd4 <disk_read>
   12410:	02050263          	beqz	a0,12434 <_ZL8check_fsP5FATFSm+0x64>
   12414:	03242a23          	sw	s2,52(s0)
   12418:	00400513          	li	a0,4
   1241c:	00c12083          	lw	ra,12(sp)
   12420:	00812403          	lw	s0,8(sp)
   12424:	00412483          	lw	s1,4(sp)
   12428:	00012903          	lw	s2,0(sp)
   1242c:	01010113          	addi	sp,sp,16
   12430:	00008067          	ret
   12434:	02942a23          	sw	s1,52(s0)
   12438:	23744483          	lbu	s1,567(s0)
   1243c:	23644683          	lbu	a3,566(s0)
   12440:	03844783          	lbu	a5,56(s0)
   12444:	00849493          	slli	s1,s1,0x8
   12448:	0eb00713          	li	a4,235
   1244c:	00d4e4b3          	or	s1,s1,a3
   12450:	04e78063          	beq	a5,a4,12490 <_ZL8check_fsP5FATFSm+0xc0>
   12454:	01878793          	addi	a5,a5,24
   12458:	0ff7f793          	zext.b	a5,a5
   1245c:	00100713          	li	a4,1
   12460:	02f77863          	bgeu	a4,a5,12490 <_ZL8check_fsP5FATFSm+0xc0>
   12464:	0000b537          	lui	a0,0xb
   12468:	00c12083          	lw	ra,12(sp)
   1246c:	00812403          	lw	s0,8(sp)
   12470:	a5550513          	addi	a0,a0,-1451 # aa55 <main-0x561f>
   12474:	40a48533          	sub	a0,s1,a0
   12478:	00a03533          	snez	a0,a0
   1247c:	00412483          	lw	s1,4(sp)
   12480:	00012903          	lw	s2,0(sp)
   12484:	00250513          	addi	a0,a0,2
   12488:	01010113          	addi	sp,sp,16
   1248c:	00008067          	ret
   12490:	0000b7b7          	lui	a5,0xb
   12494:	a5578793          	addi	a5,a5,-1451 # aa55 <main-0x561f>
   12498:	0ef48063          	beq	s1,a5,12578 <_ZL8check_fsP5FATFSm+0x1a8>
   1249c:	04444783          	lbu	a5,68(s0)
   124a0:	04344703          	lbu	a4,67(s0)
   124a4:	00300513          	li	a0,3
   124a8:	00879793          	slli	a5,a5,0x8
   124ac:	00e7e7b3          	or	a5,a5,a4
   124b0:	fff78713          	addi	a4,a5,-1
   124b4:	00f77733          	and	a4,a4,a5
   124b8:	f60712e3          	bnez	a4,1241c <_ZL8check_fsP5FATFSm+0x4c>
   124bc:	20000713          	li	a4,512
   124c0:	00300513          	li	a0,3
   124c4:	f4e79ce3          	bne	a5,a4,1241c <_ZL8check_fsP5FATFSm+0x4c>
   124c8:	04544783          	lbu	a5,69(s0)
   124cc:	f40788e3          	beqz	a5,1241c <_ZL8check_fsP5FATFSm+0x4c>
   124d0:	fff78713          	addi	a4,a5,-1
   124d4:	00f777b3          	and	a5,a4,a5
   124d8:	f40792e3          	bnez	a5,1241c <_ZL8check_fsP5FATFSm+0x4c>
   124dc:	04744783          	lbu	a5,71(s0)
   124e0:	04644703          	lbu	a4,70(s0)
   124e4:	00879793          	slli	a5,a5,0x8
   124e8:	00e7e7b3          	or	a5,a5,a4
   124ec:	f6078ce3          	beqz	a5,12464 <_ZL8check_fsP5FATFSm+0x94>
   124f0:	04844783          	lbu	a5,72(s0)
   124f4:	00100713          	li	a4,1
   124f8:	fff78793          	addi	a5,a5,-1
   124fc:	f6f764e3          	bltu	a4,a5,12464 <_ZL8check_fsP5FATFSm+0x94>
   12500:	04a44783          	lbu	a5,74(s0)
   12504:	04944703          	lbu	a4,73(s0)
   12508:	00879793          	slli	a5,a5,0x8
   1250c:	00e7e7b3          	or	a5,a5,a4
   12510:	f4078ae3          	beqz	a5,12464 <_ZL8check_fsP5FATFSm+0x94>
   12514:	04c44783          	lbu	a5,76(s0)
   12518:	04b44683          	lbu	a3,75(s0)
   1251c:	07f00713          	li	a4,127
   12520:	00879793          	slli	a5,a5,0x8
   12524:	00d7e7b3          	or	a5,a5,a3
   12528:	02f76a63          	bltu	a4,a5,1255c <_ZL8check_fsP5FATFSm+0x18c>
   1252c:	05944683          	lbu	a3,89(s0)
   12530:	05844603          	lbu	a2,88(s0)
   12534:	05a44703          	lbu	a4,90(s0)
   12538:	05b44783          	lbu	a5,91(s0)
   1253c:	00869693          	slli	a3,a3,0x8
   12540:	00c6e6b3          	or	a3,a3,a2
   12544:	01071713          	slli	a4,a4,0x10
   12548:	00d76733          	or	a4,a4,a3
   1254c:	01879793          	slli	a5,a5,0x18
   12550:	00e7e7b3          	or	a5,a5,a4
   12554:	00010737          	lui	a4,0x10
   12558:	f0e7e6e3          	bltu	a5,a4,12464 <_ZL8check_fsP5FATFSm+0x94>
   1255c:	04f44783          	lbu	a5,79(s0)
   12560:	04e44703          	lbu	a4,78(s0)
   12564:	00879793          	slli	a5,a5,0x8
   12568:	00e7e7b3          	or	a5,a5,a4
   1256c:	ee078ce3          	beqz	a5,12464 <_ZL8check_fsP5FATFSm+0x94>
   12570:	00000513          	li	a0,0
   12574:	ea9ff06f          	j	1241c <_ZL8check_fsP5FATFSm+0x4c>
   12578:	00800613          	li	a2,8
   1257c:	00007597          	auipc	a1,0x7
   12580:	d1858593          	addi	a1,a1,-744 # 19294 <_ZL12residentfont+0x19c4>
   12584:	08a40513          	addi	a0,s0,138
   12588:	01d040ef          	jal	ra,16da4 <memcmp>
   1258c:	00050793          	mv	a5,a0
   12590:	00000513          	li	a0,0
   12594:	e80784e3          	beqz	a5,1241c <_ZL8check_fsP5FATFSm+0x4c>
   12598:	04444783          	lbu	a5,68(s0)
   1259c:	04344703          	lbu	a4,67(s0)
   125a0:	00200513          	li	a0,2
   125a4:	00879793          	slli	a5,a5,0x8
   125a8:	00e7e7b3          	or	a5,a5,a4
   125ac:	fff78713          	addi	a4,a5,-1
   125b0:	00f77733          	and	a4,a4,a5
   125b4:	e60714e3          	bnez	a4,1241c <_ZL8check_fsP5FATFSm+0x4c>
   125b8:	20000713          	li	a4,512
   125bc:	e6e790e3          	bne	a5,a4,1241c <_ZL8check_fsP5FATFSm+0x4c>
   125c0:	f09ff06f          	j	124c8 <_ZL8check_fsP5FATFSm+0xf8>

000125c4 <_ZL12mount_volumePPKcPP5FATFSh>:
   125c4:	fe010113          	addi	sp,sp,-32
   125c8:	01212823          	sw	s2,16(sp)
   125cc:	01312623          	sw	s3,12(sp)
   125d0:	00112e23          	sw	ra,28(sp)
   125d4:	00812c23          	sw	s0,24(sp)
   125d8:	00912a23          	sw	s1,20(sp)
   125dc:	0005a023          	sw	zero,0(a1)
   125e0:	00058993          	mv	s3,a1
   125e4:	00060913          	mv	s2,a2
   125e8:	879ff0ef          	jal	ra,11e60 <_ZL12get_ldnumberPPKc>
   125ec:	38054a63          	bltz	a0,12980 <_ZL12mount_volumePPKcPP5FATFSh+0x3bc>
   125f0:	00251713          	slli	a4,a0,0x2
   125f4:	0000d797          	auipc	a5,0xd
   125f8:	44478793          	addi	a5,a5,1092 # 1fa38 <_ZL5FatFs>
   125fc:	00e787b3          	add	a5,a5,a4
   12600:	0007a403          	lw	s0,0(a5)
   12604:	00050493          	mv	s1,a0
   12608:	38040c63          	beqz	s0,129a0 <_ZL12mount_volumePPKcPP5FATFSh+0x3dc>
   1260c:	0089a023          	sw	s0,0(s3)
   12610:	00044783          	lbu	a5,0(s0)
   12614:	0fe97913          	andi	s2,s2,254
   12618:	04078263          	beqz	a5,1265c <_ZL12mount_volumePPKcPP5FATFSh+0x98>
   1261c:	00144503          	lbu	a0,1(s0)
   12620:	778030ef          	jal	ra,15d98 <disk_status>
   12624:	00157713          	andi	a4,a0,1
   12628:	00050793          	mv	a5,a0
   1262c:	02071863          	bnez	a4,1265c <_ZL12mount_volumePPKcPP5FATFSh+0x98>
   12630:	00000513          	li	a0,0
   12634:	00090663          	beqz	s2,12640 <_ZL12mount_volumePPKcPP5FATFSh+0x7c>
   12638:	0047f793          	andi	a5,a5,4
   1263c:	24079a63          	bnez	a5,12890 <_ZL12mount_volumePPKcPP5FATFSh+0x2cc>
   12640:	01c12083          	lw	ra,28(sp)
   12644:	01812403          	lw	s0,24(sp)
   12648:	01412483          	lw	s1,20(sp)
   1264c:	01012903          	lw	s2,16(sp)
   12650:	00c12983          	lw	s3,12(sp)
   12654:	02010113          	addi	sp,sp,32
   12658:	00008067          	ret
   1265c:	0ff4f513          	zext.b	a0,s1
   12660:	00040023          	sb	zero,0(s0)
   12664:	00a400a3          	sb	a0,1(s0)
   12668:	73c030ef          	jal	ra,15da4 <disk_initialize>
   1266c:	00157713          	andi	a4,a0,1
   12670:	00050793          	mv	a5,a0
   12674:	00300513          	li	a0,3
   12678:	fc0714e3          	bnez	a4,12640 <_ZL12mount_volumePPKcPP5FATFSh+0x7c>
   1267c:	00090663          	beqz	s2,12688 <_ZL12mount_volumePPKcPP5FATFSh+0xc4>
   12680:	0047f793          	andi	a5,a5,4
   12684:	20079663          	bnez	a5,12890 <_ZL12mount_volumePPKcPP5FATFSh+0x2cc>
   12688:	00000593          	li	a1,0
   1268c:	00040513          	mv	a0,s0
   12690:	d41ff0ef          	jal	ra,123d0 <_ZL8check_fsP5FATFSm>
   12694:	00200713          	li	a4,2
   12698:	00050793          	mv	a5,a0
   1269c:	20e50a63          	beq	a0,a4,128b0 <_ZL12mount_volumePPKcPP5FATFSh+0x2ec>
   126a0:	00400713          	li	a4,4
   126a4:	00100513          	li	a0,1
   126a8:	f8e78ce3          	beq	a5,a4,12640 <_ZL12mount_volumePPKcPP5FATFSh+0x7c>
   126ac:	2af56a63          	bltu	a0,a5,12960 <_ZL12mount_volumePPKcPP5FATFSh+0x39c>
   126b0:	04444783          	lbu	a5,68(s0)
   126b4:	04344683          	lbu	a3,67(s0)
   126b8:	20000713          	li	a4,512
   126bc:	00879793          	slli	a5,a5,0x8
   126c0:	00d7e7b3          	or	a5,a5,a3
   126c4:	03442583          	lw	a1,52(s0)
   126c8:	28e79c63          	bne	a5,a4,12960 <_ZL12mount_volumePPKcPP5FATFSh+0x39c>
   126cc:	04f44783          	lbu	a5,79(s0)
   126d0:	04e44703          	lbu	a4,78(s0)
   126d4:	00879793          	slli	a5,a5,0x8
   126d8:	00e7e7b3          	or	a5,a5,a4
   126dc:	02079663          	bnez	a5,12708 <_ZL12mount_volumePPKcPP5FATFSh+0x144>
   126e0:	05d44683          	lbu	a3,93(s0)
   126e4:	05c44603          	lbu	a2,92(s0)
   126e8:	05e44703          	lbu	a4,94(s0)
   126ec:	05f44783          	lbu	a5,95(s0)
   126f0:	00869693          	slli	a3,a3,0x8
   126f4:	00c6e6b3          	or	a3,a3,a2
   126f8:	01071713          	slli	a4,a4,0x10
   126fc:	00d76733          	or	a4,a4,a3
   12700:	01879793          	slli	a5,a5,0x18
   12704:	00e7e7b3          	or	a5,a5,a4
   12708:	04844683          	lbu	a3,72(s0)
   1270c:	02f42023          	sw	a5,32(s0)
   12710:	00100613          	li	a2,1
   12714:	fff68713          	addi	a4,a3,-1 # efffffff <__BSS_END__+0xeffe038f>
   12718:	00d40123          	sb	a3,2(s0)
   1271c:	0ff77713          	zext.b	a4,a4
   12720:	24e66063          	bltu	a2,a4,12960 <_ZL12mount_volumePPKcPP5FATFSh+0x39c>
   12724:	04544883          	lbu	a7,69(s0)
   12728:	01089713          	slli	a4,a7,0x10
   1272c:	01075713          	srli	a4,a4,0x10
   12730:	00e41523          	sh	a4,10(s0)
   12734:	22070663          	beqz	a4,12960 <_ZL12mount_volumePPKcPP5FATFSh+0x39c>
   12738:	fff88713          	addi	a4,a7,-1
   1273c:	01177733          	and	a4,a4,a7
   12740:	22071063          	bnez	a4,12960 <_ZL12mount_volumePPKcPP5FATFSh+0x39c>
   12744:	04a44603          	lbu	a2,74(s0)
   12748:	04944703          	lbu	a4,73(s0)
   1274c:	00861613          	slli	a2,a2,0x8
   12750:	00e66633          	or	a2,a2,a4
   12754:	00c41423          	sh	a2,8(s0)
   12758:	00f67713          	andi	a4,a2,15
   1275c:	20071263          	bnez	a4,12960 <_ZL12mount_volumePPKcPP5FATFSh+0x39c>
   12760:	04c44703          	lbu	a4,76(s0)
   12764:	04b44503          	lbu	a0,75(s0)
   12768:	00871713          	slli	a4,a4,0x8
   1276c:	00a76733          	or	a4,a4,a0
   12770:	02071663          	bnez	a4,1279c <_ZL12mount_volumePPKcPP5FATFSh+0x1d8>
   12774:	05944803          	lbu	a6,89(s0)
   12778:	05844303          	lbu	t1,88(s0)
   1277c:	05a44503          	lbu	a0,90(s0)
   12780:	05b44703          	lbu	a4,91(s0)
   12784:	00881813          	slli	a6,a6,0x8
   12788:	00686833          	or	a6,a6,t1
   1278c:	01051513          	slli	a0,a0,0x10
   12790:	01056533          	or	a0,a0,a6
   12794:	01871713          	slli	a4,a4,0x18
   12798:	00a76733          	or	a4,a4,a0
   1279c:	04744503          	lbu	a0,71(s0)
   127a0:	04644803          	lbu	a6,70(s0)
   127a4:	00851513          	slli	a0,a0,0x8
   127a8:	01056533          	or	a0,a0,a6
   127ac:	1a050a63          	beqz	a0,12960 <_ZL12mount_volumePPKcPP5FATFSh+0x39c>
   127b0:	02f686b3          	mul	a3,a3,a5
   127b4:	00465813          	srli	a6,a2,0x4
   127b8:	00a80833          	add	a6,a6,a0
   127bc:	00d80833          	add	a6,a6,a3
   127c0:	1b076063          	bltu	a4,a6,12960 <_ZL12mount_volumePPKcPP5FATFSh+0x39c>
   127c4:	41070733          	sub	a4,a4,a6
   127c8:	03175333          	divu	t1,a4,a7
   127cc:	19176a63          	bltu	a4,a7,12960 <_ZL12mount_volumePPKcPP5FATFSh+0x39c>
   127d0:	10000737          	lui	a4,0x10000
   127d4:	ff570713          	addi	a4,a4,-11 # ffffff5 <__BSS_END__+0xffe0385>
   127d8:	18676463          	bltu	a4,t1,12960 <_ZL12mount_volumePPKcPP5FATFSh+0x39c>
   127dc:	00010737          	lui	a4,0x10
   127e0:	ff570713          	addi	a4,a4,-11 # fff5 <main-0x7f>
   127e4:	00230893          	addi	a7,t1,2
   127e8:	00b50533          	add	a0,a0,a1
   127ec:	01058833          	add	a6,a1,a6
   127f0:	22676263          	bltu	a4,t1,12a14 <_ZL12mount_volumePPKcPP5FATFSh+0x450>
   127f4:	00001737          	lui	a4,0x1
   127f8:	ff570713          	addi	a4,a4,-11 # ff5 <main-0xf07f>
   127fc:	01142e23          	sw	a7,28(s0)
   12800:	02b42223          	sw	a1,36(s0)
   12804:	02a42423          	sw	a0,40(s0)
   12808:	03042823          	sw	a6,48(s0)
   1280c:	34676863          	bltu	a4,t1,12b5c <_ZL12mount_volumePPKcPP5FATFSh+0x598>
   12810:	14060863          	beqz	a2,12960 <_ZL12mount_volumePPKcPP5FATFSh+0x39c>
   12814:	00189713          	slli	a4,a7,0x1
   12818:	01170733          	add	a4,a4,a7
   1281c:	00175713          	srli	a4,a4,0x1
   12820:	0018f893          	andi	a7,a7,1
   12824:	00a686b3          	add	a3,a3,a0
   12828:	01170733          	add	a4,a4,a7
   1282c:	00100613          	li	a2,1
   12830:	1ff70713          	addi	a4,a4,511
   12834:	02d42623          	sw	a3,44(s0)
   12838:	00975713          	srli	a4,a4,0x9
   1283c:	12e7e263          	bltu	a5,a4,12960 <_ZL12mount_volumePPKcPP5FATFSh+0x39c>
   12840:	fff00793          	li	a5,-1
   12844:	00f42a23          	sw	a5,20(s0)
   12848:	00f42823          	sw	a5,16(s0)
   1284c:	f8000793          	li	a5,-128
   12850:	00f40223          	sb	a5,4(s0)
   12854:	0000d717          	auipc	a4,0xd
   12858:	1e070713          	addi	a4,a4,480 # 1fa34 <_ZL4Fsid>
   1285c:	00075783          	lhu	a5,0(a4)
   12860:	00c40023          	sb	a2,0(s0)
   12864:	00042c23          	sw	zero,24(s0)
   12868:	00178793          	addi	a5,a5,1
   1286c:	01079793          	slli	a5,a5,0x10
   12870:	0107d793          	srli	a5,a5,0x10
   12874:	00f71023          	sh	a5,0(a4)
   12878:	00f41323          	sh	a5,6(s0)
   1287c:	0000d797          	auipc	a5,0xd
   12880:	1c878793          	addi	a5,a5,456 # 1fa44 <_ZL6LfnBuf>
   12884:	00f42623          	sw	a5,12(s0)
   12888:	00000513          	li	a0,0
   1288c:	db5ff06f          	j	12640 <_ZL12mount_volumePPKcPP5FATFSh+0x7c>
   12890:	01c12083          	lw	ra,28(sp)
   12894:	01812403          	lw	s0,24(sp)
   12898:	01412483          	lw	s1,20(sp)
   1289c:	01012903          	lw	s2,16(sp)
   128a0:	00c12983          	lw	s3,12(sp)
   128a4:	00a00513          	li	a0,10
   128a8:	02010113          	addi	sp,sp,32
   128ac:	00008067          	ret
   128b0:	1ff44883          	lbu	a7,511(s0)
   128b4:	1fe44f83          	lbu	t6,510(s0)
   128b8:	20044303          	lbu	t1,512(s0)
   128bc:	20f44803          	lbu	a6,527(s0)
   128c0:	21f44503          	lbu	a0,543(s0)
   128c4:	22f44603          	lbu	a2,559(s0)
   128c8:	20144583          	lbu	a1,513(s0)
   128cc:	20e44f03          	lbu	t5,526(s0)
   128d0:	21044683          	lbu	a3,528(s0)
   128d4:	21e44e83          	lbu	t4,542(s0)
   128d8:	22044703          	lbu	a4,544(s0)
   128dc:	22e44e03          	lbu	t3,558(s0)
   128e0:	23044783          	lbu	a5,560(s0)
   128e4:	21144483          	lbu	s1,529(s0)
   128e8:	22144903          	lbu	s2,545(s0)
   128ec:	23144983          	lbu	s3,561(s0)
   128f0:	00889893          	slli	a7,a7,0x8
   128f4:	01f8e8b3          	or	a7,a7,t6
   128f8:	01031313          	slli	t1,t1,0x10
   128fc:	00881813          	slli	a6,a6,0x8
   12900:	00851513          	slli	a0,a0,0x8
   12904:	00861613          	slli	a2,a2,0x8
   12908:	01136333          	or	t1,t1,a7
   1290c:	01859593          	slli	a1,a1,0x18
   12910:	01e86833          	or	a6,a6,t5
   12914:	01069693          	slli	a3,a3,0x10
   12918:	01d56533          	or	a0,a0,t4
   1291c:	01071713          	slli	a4,a4,0x10
   12920:	01c66633          	or	a2,a2,t3
   12924:	01079793          	slli	a5,a5,0x10
   12928:	0106e6b3          	or	a3,a3,a6
   1292c:	01849493          	slli	s1,s1,0x18
   12930:	00a76733          	or	a4,a4,a0
   12934:	01891913          	slli	s2,s2,0x18
   12938:	00c7e7b3          	or	a5,a5,a2
   1293c:	01899993          	slli	s3,s3,0x18
   12940:	0065e5b3          	or	a1,a1,t1
   12944:	00d4e4b3          	or	s1,s1,a3
   12948:	00e96933          	or	s2,s2,a4
   1294c:	00f9e9b3          	or	s3,s3,a5
   12950:	04059c63          	bnez	a1,129a8 <_ZL12mount_volumePPKcPP5FATFSh+0x3e4>
   12954:	06049463          	bnez	s1,129bc <_ZL12mount_volumePPKcPP5FATFSh+0x3f8>
   12958:	06091e63          	bnez	s2,129d4 <_ZL12mount_volumePPKcPP5FATFSh+0x410>
   1295c:	08099863          	bnez	s3,129ec <_ZL12mount_volumePPKcPP5FATFSh+0x428>
   12960:	01c12083          	lw	ra,28(sp)
   12964:	01812403          	lw	s0,24(sp)
   12968:	01412483          	lw	s1,20(sp)
   1296c:	01012903          	lw	s2,16(sp)
   12970:	00c12983          	lw	s3,12(sp)
   12974:	00d00513          	li	a0,13
   12978:	02010113          	addi	sp,sp,32
   1297c:	00008067          	ret
   12980:	01c12083          	lw	ra,28(sp)
   12984:	01812403          	lw	s0,24(sp)
   12988:	01412483          	lw	s1,20(sp)
   1298c:	01012903          	lw	s2,16(sp)
   12990:	00c12983          	lw	s3,12(sp)
   12994:	00b00513          	li	a0,11
   12998:	02010113          	addi	sp,sp,32
   1299c:	00008067          	ret
   129a0:	00c00513          	li	a0,12
   129a4:	c9dff06f          	j	12640 <_ZL12mount_volumePPKcPP5FATFSh+0x7c>
   129a8:	00040513          	mv	a0,s0
   129ac:	a25ff0ef          	jal	ra,123d0 <_ZL8check_fsP5FATFSm>
   129b0:	00100793          	li	a5,1
   129b4:	cea7fee3          	bgeu	a5,a0,126b0 <_ZL12mount_volumePPKcPP5FATFSh+0xec>
   129b8:	fa0480e3          	beqz	s1,12958 <_ZL12mount_volumePPKcPP5FATFSh+0x394>
   129bc:	00048593          	mv	a1,s1
   129c0:	00040513          	mv	a0,s0
   129c4:	a0dff0ef          	jal	ra,123d0 <_ZL8check_fsP5FATFSm>
   129c8:	00100793          	li	a5,1
   129cc:	cea7f2e3          	bgeu	a5,a0,126b0 <_ZL12mount_volumePPKcPP5FATFSh+0xec>
   129d0:	f80906e3          	beqz	s2,1295c <_ZL12mount_volumePPKcPP5FATFSh+0x398>
   129d4:	00090593          	mv	a1,s2
   129d8:	00040513          	mv	a0,s0
   129dc:	9f5ff0ef          	jal	ra,123d0 <_ZL8check_fsP5FATFSm>
   129e0:	00100793          	li	a5,1
   129e4:	cca7f6e3          	bgeu	a5,a0,126b0 <_ZL12mount_volumePPKcPP5FATFSh+0xec>
   129e8:	f6098ce3          	beqz	s3,12960 <_ZL12mount_volumePPKcPP5FATFSh+0x39c>
   129ec:	00098593          	mv	a1,s3
   129f0:	00040513          	mv	a0,s0
   129f4:	9ddff0ef          	jal	ra,123d0 <_ZL8check_fsP5FATFSm>
   129f8:	00100713          	li	a4,1
   129fc:	00050793          	mv	a5,a0
   12a00:	caa778e3          	bgeu	a4,a0,126b0 <_ZL12mount_volumePPKcPP5FATFSh+0xec>
   12a04:	00400713          	li	a4,4
   12a08:	00100513          	li	a0,1
   12a0c:	c2e78ae3          	beq	a5,a4,12640 <_ZL12mount_volumePPKcPP5FATFSh+0x7c>
   12a10:	f51ff06f          	j	12960 <_ZL12mount_volumePPKcPP5FATFSh+0x39c>
   12a14:	06344703          	lbu	a4,99(s0)
   12a18:	06244683          	lbu	a3,98(s0)
   12a1c:	01142e23          	sw	a7,28(s0)
   12a20:	00871713          	slli	a4,a4,0x8
   12a24:	00d76733          	or	a4,a4,a3
   12a28:	02b42223          	sw	a1,36(s0)
   12a2c:	02a42423          	sw	a0,40(s0)
   12a30:	03042823          	sw	a6,48(s0)
   12a34:	00e66633          	or	a2,a2,a4
   12a38:	f20614e3          	bnez	a2,12960 <_ZL12mount_volumePPKcPP5FATFSh+0x39c>
   12a3c:	06544703          	lbu	a4,101(s0)
   12a40:	06444503          	lbu	a0,100(s0)
   12a44:	06644603          	lbu	a2,102(s0)
   12a48:	06744683          	lbu	a3,103(s0)
   12a4c:	00871713          	slli	a4,a4,0x8
   12a50:	00a76733          	or	a4,a4,a0
   12a54:	01061613          	slli	a2,a2,0x10
   12a58:	00e66633          	or	a2,a2,a4
   12a5c:	01869693          	slli	a3,a3,0x18
   12a60:	00289713          	slli	a4,a7,0x2
   12a64:	00c6e6b3          	or	a3,a3,a2
   12a68:	1ff70713          	addi	a4,a4,511
   12a6c:	02d42623          	sw	a3,44(s0)
   12a70:	00975713          	srli	a4,a4,0x9
   12a74:	eee7e6e3          	bltu	a5,a4,12960 <_ZL12mount_volumePPKcPP5FATFSh+0x39c>
   12a78:	06944783          	lbu	a5,105(s0)
   12a7c:	06844683          	lbu	a3,104(s0)
   12a80:	fff00713          	li	a4,-1
   12a84:	00879793          	slli	a5,a5,0x8
   12a88:	00e42a23          	sw	a4,20(s0)
   12a8c:	00e42823          	sw	a4,16(s0)
   12a90:	f8000713          	li	a4,-128
   12a94:	00e40223          	sb	a4,4(s0)
   12a98:	00d7e7b3          	or	a5,a5,a3
   12a9c:	00100713          	li	a4,1
   12aa0:	00e78663          	beq	a5,a4,12aac <_ZL12mount_volumePPKcPP5FATFSh+0x4e8>
   12aa4:	00300613          	li	a2,3
   12aa8:	dadff06f          	j	12854 <_ZL12mount_volumePPKcPP5FATFSh+0x290>
   12aac:	00158593          	addi	a1,a1,1
   12ab0:	00040513          	mv	a0,s0
   12ab4:	cb4ff0ef          	jal	ra,11f68 <_ZL11move_windowP5FATFSm>
   12ab8:	fe0516e3          	bnez	a0,12aa4 <_ZL12mount_volumePPKcPP5FATFSh+0x4e0>
   12abc:	23744783          	lbu	a5,567(s0)
   12ac0:	23644703          	lbu	a4,566(s0)
   12ac4:	00040223          	sb	zero,4(s0)
   12ac8:	00879793          	slli	a5,a5,0x8
   12acc:	00e7e7b3          	or	a5,a5,a4
   12ad0:	0000b737          	lui	a4,0xb
   12ad4:	a5570713          	addi	a4,a4,-1451 # aa55 <main-0x561f>
   12ad8:	fce796e3          	bne	a5,a4,12aa4 <_ZL12mount_volumePPKcPP5FATFSh+0x4e0>
   12adc:	03944683          	lbu	a3,57(s0)
   12ae0:	03844603          	lbu	a2,56(s0)
   12ae4:	03a44703          	lbu	a4,58(s0)
   12ae8:	03b44783          	lbu	a5,59(s0)
   12aec:	00869693          	slli	a3,a3,0x8
   12af0:	00c6e6b3          	or	a3,a3,a2
   12af4:	01071713          	slli	a4,a4,0x10
   12af8:	00d76733          	or	a4,a4,a3
   12afc:	01879793          	slli	a5,a5,0x18
   12b00:	00e7e7b3          	or	a5,a5,a4
   12b04:	41615737          	lui	a4,0x41615
   12b08:	25270713          	addi	a4,a4,594 # 41615252 <__BSS_END__+0x415f55e2>
   12b0c:	f8e79ce3          	bne	a5,a4,12aa4 <_ZL12mount_volumePPKcPP5FATFSh+0x4e0>
   12b10:	21d44683          	lbu	a3,541(s0)
   12b14:	21c44603          	lbu	a2,540(s0)
   12b18:	21e44703          	lbu	a4,542(s0)
   12b1c:	21f44783          	lbu	a5,543(s0)
   12b20:	00869693          	slli	a3,a3,0x8
   12b24:	00c6e6b3          	or	a3,a3,a2
   12b28:	01071713          	slli	a4,a4,0x10
   12b2c:	00d76733          	or	a4,a4,a3
   12b30:	01879793          	slli	a5,a5,0x18
   12b34:	00e7e7b3          	or	a5,a5,a4
   12b38:	61417737          	lui	a4,0x61417
   12b3c:	27270713          	addi	a4,a4,626 # 61417272 <__BSS_END__+0x613f7602>
   12b40:	f6e792e3          	bne	a5,a4,12aa4 <_ZL12mount_volumePPKcPP5FATFSh+0x4e0>
   12b44:	22042703          	lw	a4,544(s0)
   12b48:	22442783          	lw	a5,548(s0)
   12b4c:	00300613          	li	a2,3
   12b50:	00e42a23          	sw	a4,20(s0)
   12b54:	00f42823          	sw	a5,16(s0)
   12b58:	cfdff06f          	j	12854 <_ZL12mount_volumePPKcPP5FATFSh+0x290>
   12b5c:	e00602e3          	beqz	a2,12960 <_ZL12mount_volumePPKcPP5FATFSh+0x39c>
   12b60:	00a686b3          	add	a3,a3,a0
   12b64:	00189713          	slli	a4,a7,0x1
   12b68:	00200613          	li	a2,2
   12b6c:	cc5ff06f          	j	12830 <_ZL12mount_volumePPKcPP5FATFSh+0x26c>

00012b70 <_ZL12create_chainP7FFOBJIDm.isra.0>:
   12b70:	fd010113          	addi	sp,sp,-48
   12b74:	02912223          	sw	s1,36(sp)
   12b78:	01412c23          	sw	s4,24(sp)
   12b7c:	02112623          	sw	ra,44(sp)
   12b80:	02812423          	sw	s0,40(sp)
   12b84:	03212023          	sw	s2,32(sp)
   12b88:	01312e23          	sw	s3,28(sp)
   12b8c:	01512a23          	sw	s5,20(sp)
   12b90:	01612823          	sw	s6,16(sp)
   12b94:	01712623          	sw	s7,12(sp)
   12b98:	01812423          	sw	s8,8(sp)
   12b9c:	01912223          	sw	s9,4(sp)
   12ba0:	01a12023          	sw	s10,0(sp)
   12ba4:	00058a13          	mv	s4,a1
   12ba8:	00050493          	mv	s1,a0
   12bac:	0e059463          	bnez	a1,12c94 <_ZL12create_chainP7FFOBJIDm.isra.0+0x124>
   12bb0:	01052903          	lw	s2,16(a0)
   12bb4:	0c091463          	bnez	s2,12c7c <_ZL12create_chainP7FFOBJIDm.isra.0+0x10c>
   12bb8:	00100913          	li	s2,1
   12bbc:	0144a783          	lw	a5,20(s1)
   12bc0:	04078063          	beqz	a5,12c00 <_ZL12create_chainP7FFOBJIDm.isra.0+0x90>
   12bc4:	01c4a783          	lw	a5,28(s1)
   12bc8:	10000b37          	lui	s6,0x10000
   12bcc:	00001bb7          	lui	s7,0x1
   12bd0:	00090413          	mv	s0,s2
   12bd4:	00100993          	li	s3,1
   12bd8:	00200c13          	li	s8,2
   12bdc:	00300a93          	li	s5,3
   12be0:	fffb0b13          	addi	s6,s6,-1 # fffffff <__BSS_END__+0xffe038f>
   12be4:	fffb8b93          	addi	s7,s7,-1 # fff <main-0xf075>
   12be8:	00140413          	addi	s0,s0,1
   12bec:	08f46e63          	bltu	s0,a5,12c88 <_ZL12create_chainP7FFOBJIDm.isra.0+0x118>
   12bf0:	01390863          	beq	s2,s3,12c00 <_ZL12create_chainP7FFOBJIDm.isra.0+0x90>
   12bf4:	04fc6663          	bltu	s8,a5,12c40 <_ZL12create_chainP7FFOBJIDm.isra.0+0xd0>
   12bf8:	00100413          	li	s0,1
   12bfc:	0080006f          	j	12c04 <_ZL12create_chainP7FFOBJIDm.isra.0+0x94>
   12c00:	00000413          	li	s0,0
   12c04:	02c12083          	lw	ra,44(sp)
   12c08:	00040513          	mv	a0,s0
   12c0c:	02812403          	lw	s0,40(sp)
   12c10:	02412483          	lw	s1,36(sp)
   12c14:	02012903          	lw	s2,32(sp)
   12c18:	01c12983          	lw	s3,28(sp)
   12c1c:	01812a03          	lw	s4,24(sp)
   12c20:	01412a83          	lw	s5,20(sp)
   12c24:	01012b03          	lw	s6,16(sp)
   12c28:	00c12b83          	lw	s7,12(sp)
   12c2c:	00812c03          	lw	s8,8(sp)
   12c30:	00412c83          	lw	s9,4(sp)
   12c34:	00012d03          	lw	s10,0(sp)
   12c38:	03010113          	addi	sp,sp,48
   12c3c:	00008067          	ret
   12c40:	00200413          	li	s0,2
   12c44:	0004c783          	lbu	a5,0(s1)
   12c48:	11878e63          	beq	a5,s8,12d64 <_ZL12create_chainP7FFOBJIDm.isra.0+0x1f4>
   12c4c:	0b578a63          	beq	a5,s5,12d00 <_ZL12create_chainP7FFOBJIDm.isra.0+0x190>
   12c50:	fb3794e3          	bne	a5,s3,12bf8 <_ZL12create_chainP7FFOBJIDm.isra.0+0x88>
   12c54:	0284a783          	lw	a5,40(s1)
   12c58:	00145c93          	srli	s9,s0,0x1
   12c5c:	008c8cb3          	add	s9,s9,s0
   12c60:	009cd593          	srli	a1,s9,0x9
   12c64:	00f585b3          	add	a1,a1,a5
   12c68:	00048513          	mv	a0,s1
   12c6c:	afcff0ef          	jal	ra,11f68 <_ZL11move_windowP5FATFSm>
   12c70:	12050663          	beqz	a0,12d9c <_ZL12create_chainP7FFOBJIDm.isra.0+0x22c>
   12c74:	fff00413          	li	s0,-1
   12c78:	f8dff06f          	j	12c04 <_ZL12create_chainP7FFOBJIDm.isra.0+0x94>
   12c7c:	01c52783          	lw	a5,28(a0)
   12c80:	f2f96ee3          	bltu	s2,a5,12bbc <_ZL12create_chainP7FFOBJIDm.isra.0+0x4c>
   12c84:	f35ff06f          	j	12bb8 <_ZL12create_chainP7FFOBJIDm.isra.0+0x48>
   12c88:	fa89eee3          	bltu	s3,s0,12c44 <_ZL12create_chainP7FFOBJIDm.isra.0+0xd4>
   12c8c:	00100413          	li	s0,1
   12c90:	f75ff06f          	j	12c04 <_ZL12create_chainP7FFOBJIDm.isra.0+0x94>
   12c94:	dacff0ef          	jal	ra,12240 <_ZL7get_fatP7FFOBJIDm.isra.0>
   12c98:	00100793          	li	a5,1
   12c9c:	00050413          	mv	s0,a0
   12ca0:	f4a7fce3          	bgeu	a5,a0,12bf8 <_ZL12create_chainP7FFOBJIDm.isra.0+0x88>
   12ca4:	fff00793          	li	a5,-1
   12ca8:	fcf506e3          	beq	a0,a5,12c74 <_ZL12create_chainP7FFOBJIDm.isra.0+0x104>
   12cac:	01c4a783          	lw	a5,28(s1)
   12cb0:	f4f56ae3          	bltu	a0,a5,12c04 <_ZL12create_chainP7FFOBJIDm.isra.0+0x94>
   12cb4:	0144a703          	lw	a4,20(s1)
   12cb8:	f40704e3          	beqz	a4,12c00 <_ZL12create_chainP7FFOBJIDm.isra.0+0x90>
   12cbc:	001a0413          	addi	s0,s4,1
   12cc0:	00f46463          	bltu	s0,a5,12cc8 <_ZL12create_chainP7FFOBJIDm.isra.0+0x158>
   12cc4:	00200413          	li	s0,2
   12cc8:	00040593          	mv	a1,s0
   12ccc:	00048513          	mv	a0,s1
   12cd0:	d70ff0ef          	jal	ra,12240 <_ZL7get_fatP7FFOBJIDm.isra.0>
   12cd4:	00100713          	li	a4,1
   12cd8:	f2e500e3          	beq	a0,a4,12bf8 <_ZL12create_chainP7FFOBJIDm.isra.0+0x88>
   12cdc:	fff00793          	li	a5,-1
   12ce0:	f8f50ae3          	beq	a0,a5,12c74 <_ZL12create_chainP7FFOBJIDm.isra.0+0x104>
   12ce4:	10050463          	beqz	a0,12dec <_ZL12create_chainP7FFOBJIDm.isra.0+0x27c>
   12ce8:	0104a903          	lw	s2,16(s1)
   12cec:	01c4a783          	lw	a5,28(s1)
   12cf0:	01277463          	bgeu	a4,s2,12cf8 <_ZL12create_chainP7FFOBJIDm.isra.0+0x188>
   12cf4:	ecf96ae3          	bltu	s2,a5,12bc8 <_ZL12create_chainP7FFOBJIDm.isra.0+0x58>
   12cf8:	000a0913          	mv	s2,s4
   12cfc:	ecdff06f          	j	12bc8 <_ZL12create_chainP7FFOBJIDm.isra.0+0x58>
   12d00:	0284a783          	lw	a5,40(s1)
   12d04:	00745593          	srli	a1,s0,0x7
   12d08:	00048513          	mv	a0,s1
   12d0c:	00f585b3          	add	a1,a1,a5
   12d10:	a58ff0ef          	jal	ra,11f68 <_ZL11move_windowP5FATFSm>
   12d14:	f60510e3          	bnez	a0,12c74 <_ZL12create_chainP7FFOBJIDm.isra.0+0x104>
   12d18:	00241793          	slli	a5,s0,0x2
   12d1c:	1fc7f793          	andi	a5,a5,508
   12d20:	00f487b3          	add	a5,s1,a5
   12d24:	0397c683          	lbu	a3,57(a5)
   12d28:	0387c603          	lbu	a2,56(a5)
   12d2c:	03a7c703          	lbu	a4,58(a5)
   12d30:	03b7c783          	lbu	a5,59(a5)
   12d34:	00869693          	slli	a3,a3,0x8
   12d38:	00c6e6b3          	or	a3,a3,a2
   12d3c:	01071713          	slli	a4,a4,0x10
   12d40:	00d76733          	or	a4,a4,a3
   12d44:	01879793          	slli	a5,a5,0x18
   12d48:	00e7e7b3          	or	a5,a5,a4
   12d4c:	0167f7b3          	and	a5,a5,s6
   12d50:	0a078063          	beqz	a5,12df0 <_ZL12create_chainP7FFOBJIDm.isra.0+0x280>
   12d54:	eb3782e3          	beq	a5,s3,12bf8 <_ZL12create_chainP7FFOBJIDm.isra.0+0x88>
   12d58:	ea8904e3          	beq	s2,s0,12c00 <_ZL12create_chainP7FFOBJIDm.isra.0+0x90>
   12d5c:	01c4a783          	lw	a5,28(s1)
   12d60:	e89ff06f          	j	12be8 <_ZL12create_chainP7FFOBJIDm.isra.0+0x78>
   12d64:	0284a783          	lw	a5,40(s1)
   12d68:	00845593          	srli	a1,s0,0x8
   12d6c:	00048513          	mv	a0,s1
   12d70:	00f585b3          	add	a1,a1,a5
   12d74:	9f4ff0ef          	jal	ra,11f68 <_ZL11move_windowP5FATFSm>
   12d78:	ee051ee3          	bnez	a0,12c74 <_ZL12create_chainP7FFOBJIDm.isra.0+0x104>
   12d7c:	00141713          	slli	a4,s0,0x1
   12d80:	1fe77713          	andi	a4,a4,510
   12d84:	00e48733          	add	a4,s1,a4
   12d88:	03974783          	lbu	a5,57(a4)
   12d8c:	03874703          	lbu	a4,56(a4)
   12d90:	00879793          	slli	a5,a5,0x8
   12d94:	00e7e7b3          	or	a5,a5,a4
   12d98:	fb9ff06f          	j	12d50 <_ZL12create_chainP7FFOBJIDm.isra.0+0x1e0>
   12d9c:	0284a783          	lw	a5,40(s1)
   12da0:	001c8d13          	addi	s10,s9,1
   12da4:	009d5593          	srli	a1,s10,0x9
   12da8:	1ffcfc93          	andi	s9,s9,511
   12dac:	01948cb3          	add	s9,s1,s9
   12db0:	00f585b3          	add	a1,a1,a5
   12db4:	00048513          	mv	a0,s1
   12db8:	038ccc83          	lbu	s9,56(s9)
   12dbc:	9acff0ef          	jal	ra,11f68 <_ZL11move_windowP5FATFSm>
   12dc0:	ea051ae3          	bnez	a0,12c74 <_ZL12create_chainP7FFOBJIDm.isra.0+0x104>
   12dc4:	1ffd7d13          	andi	s10,s10,511
   12dc8:	01a48d33          	add	s10,s1,s10
   12dcc:	038d4703          	lbu	a4,56(s10)
   12dd0:	00147693          	andi	a3,s0,1
   12dd4:	00871713          	slli	a4,a4,0x8
   12dd8:	01976733          	or	a4,a4,s9
   12ddc:	017777b3          	and	a5,a4,s7
   12de0:	f60688e3          	beqz	a3,12d50 <_ZL12create_chainP7FFOBJIDm.isra.0+0x1e0>
   12de4:	00475793          	srli	a5,a4,0x4
   12de8:	f69ff06f          	j	12d50 <_ZL12create_chainP7FFOBJIDm.isra.0+0x1e0>
   12dec:	08040263          	beqz	s0,12e70 <_ZL12create_chainP7FFOBJIDm.isra.0+0x300>
   12df0:	01c4a783          	lw	a5,28(s1)
   12df4:	e0f472e3          	bgeu	s0,a5,12bf8 <_ZL12create_chainP7FFOBJIDm.isra.0+0x88>
   12df8:	fff00613          	li	a2,-1
   12dfc:	00040593          	mv	a1,s0
   12e00:	00048513          	mv	a0,s1
   12e04:	a2cff0ef          	jal	ra,12030 <_ZL7put_fatP5FATFSmm.part.0>
   12e08:	04051c63          	bnez	a0,12e60 <_ZL12create_chainP7FFOBJIDm.isra.0+0x2f0>
   12e0c:	020a0463          	beqz	s4,12e34 <_ZL12create_chainP7FFOBJIDm.isra.0+0x2c4>
   12e10:	00100793          	li	a5,1
   12e14:	defa02e3          	beq	s4,a5,12bf8 <_ZL12create_chainP7FFOBJIDm.isra.0+0x88>
   12e18:	01c4a783          	lw	a5,28(s1)
   12e1c:	dcfa7ee3          	bgeu	s4,a5,12bf8 <_ZL12create_chainP7FFOBJIDm.isra.0+0x88>
   12e20:	00040613          	mv	a2,s0
   12e24:	000a0593          	mv	a1,s4
   12e28:	00048513          	mv	a0,s1
   12e2c:	a04ff0ef          	jal	ra,12030 <_ZL7put_fatP5FATFSmm.part.0>
   12e30:	02051863          	bnez	a0,12e60 <_ZL12create_chainP7FFOBJIDm.isra.0+0x2f0>
   12e34:	01c4a783          	lw	a5,28(s1)
   12e38:	0144a703          	lw	a4,20(s1)
   12e3c:	0084a823          	sw	s0,16(s1)
   12e40:	ffe78793          	addi	a5,a5,-2
   12e44:	00e7e663          	bltu	a5,a4,12e50 <_ZL12create_chainP7FFOBJIDm.isra.0+0x2e0>
   12e48:	fff70713          	addi	a4,a4,-1
   12e4c:	00e4aa23          	sw	a4,20(s1)
   12e50:	0044c783          	lbu	a5,4(s1)
   12e54:	0017e793          	ori	a5,a5,1
   12e58:	00f48223          	sb	a5,4(s1)
   12e5c:	da9ff06f          	j	12c04 <_ZL12create_chainP7FFOBJIDm.isra.0+0x94>
   12e60:	00100793          	li	a5,1
   12e64:	d8f51ae3          	bne	a0,a5,12bf8 <_ZL12create_chainP7FFOBJIDm.isra.0+0x88>
   12e68:	fff00413          	li	s0,-1
   12e6c:	d99ff06f          	j	12c04 <_ZL12create_chainP7FFOBJIDm.isra.0+0x94>
   12e70:	01c4a783          	lw	a5,28(s1)
   12e74:	000a0913          	mv	s2,s4
   12e78:	d51ff06f          	j	12bc8 <_ZL12create_chainP7FFOBJIDm.isra.0+0x58>

00012e7c <_ZL8dir_nextP3DIRi>:
   12e7c:	fd010113          	addi	sp,sp,-48
   12e80:	02912223          	sw	s1,36(sp)
   12e84:	01052483          	lw	s1,16(a0)
   12e88:	02812423          	sw	s0,40(sp)
   12e8c:	01312e23          	sw	s3,28(sp)
   12e90:	02112623          	sw	ra,44(sp)
   12e94:	03212023          	sw	s2,32(sp)
   12e98:	01412c23          	sw	s4,24(sp)
   12e9c:	01512a23          	sw	s5,20(sp)
   12ea0:	01612823          	sw	s6,16(sp)
   12ea4:	01712623          	sw	s7,12(sp)
   12ea8:	01812423          	sw	s8,8(sp)
   12eac:	01912223          	sw	s9,4(sp)
   12eb0:	002007b7          	lui	a5,0x200
   12eb4:	02048493          	addi	s1,s1,32
   12eb8:	00052983          	lw	s3,0(a0)
   12ebc:	00050413          	mv	s0,a0
   12ec0:	04f4e063          	bltu	s1,a5,12f00 <_ZL8dir_nextP3DIRi+0x84>
   12ec4:	00042c23          	sw	zero,24(s0)
   12ec8:	00400513          	li	a0,4
   12ecc:	02c12083          	lw	ra,44(sp)
   12ed0:	02812403          	lw	s0,40(sp)
   12ed4:	02412483          	lw	s1,36(sp)
   12ed8:	02012903          	lw	s2,32(sp)
   12edc:	01c12983          	lw	s3,28(sp)
   12ee0:	01812a03          	lw	s4,24(sp)
   12ee4:	01412a83          	lw	s5,20(sp)
   12ee8:	01012b03          	lw	s6,16(sp)
   12eec:	00c12b83          	lw	s7,12(sp)
   12ef0:	00812c03          	lw	s8,8(sp)
   12ef4:	00412c83          	lw	s9,4(sp)
   12ef8:	03010113          	addi	sp,sp,48
   12efc:	00008067          	ret
   12f00:	01852783          	lw	a5,24(a0)
   12f04:	1c078063          	beqz	a5,130c4 <_ZL8dir_nextP3DIRi+0x248>
   12f08:	1ff4fa13          	andi	s4,s1,511
   12f0c:	000a0e63          	beqz	s4,12f28 <_ZL8dir_nextP3DIRi+0xac>
   12f10:	03898913          	addi	s2,s3,56
   12f14:	01490933          	add	s2,s2,s4
   12f18:	00942823          	sw	s1,16(s0)
   12f1c:	01242e23          	sw	s2,28(s0)
   12f20:	00000513          	li	a0,0
   12f24:	fa9ff06f          	j	12ecc <_ZL8dir_nextP3DIRi+0x50>
   12f28:	00058913          	mv	s2,a1
   12f2c:	01452583          	lw	a1,20(a0)
   12f30:	00178793          	addi	a5,a5,1 # 200001 <__BSS_END__+0x1e0391>
   12f34:	00f52c23          	sw	a5,24(a0)
   12f38:	10058663          	beqz	a1,13044 <_ZL8dir_nextP3DIRi+0x1c8>
   12f3c:	00a9da83          	lhu	s5,10(s3)
   12f40:	0094d793          	srli	a5,s1,0x9
   12f44:	fffa8a93          	addi	s5,s5,-1
   12f48:	00fafab3          	and	s5,s5,a5
   12f4c:	fc0a92e3          	bnez	s5,12f10 <_ZL8dir_nextP3DIRi+0x94>
   12f50:	00098513          	mv	a0,s3
   12f54:	aecff0ef          	jal	ra,12240 <_ZL7get_fatP7FFOBJIDm.isra.0>
   12f58:	00100793          	li	a5,1
   12f5c:	00050b13          	mv	s6,a0
   12f60:	10a7f463          	bgeu	a5,a0,13068 <_ZL8dir_nextP3DIRi+0x1ec>
   12f64:	fff00793          	li	a5,-1
   12f68:	0ef50663          	beq	a0,a5,13054 <_ZL8dir_nextP3DIRi+0x1d8>
   12f6c:	01c9a783          	lw	a5,28(s3)
   12f70:	0ef56663          	bltu	a0,a5,1305c <_ZL8dir_nextP3DIRi+0x1e0>
   12f74:	f40908e3          	beqz	s2,12ec4 <_ZL8dir_nextP3DIRi+0x48>
   12f78:	01442583          	lw	a1,20(s0)
   12f7c:	00042503          	lw	a0,0(s0)
   12f80:	bf1ff0ef          	jal	ra,12b70 <_ZL12create_chainP7FFOBJIDm.isra.0>
   12f84:	00050b13          	mv	s6,a0
   12f88:	00700513          	li	a0,7
   12f8c:	f40b00e3          	beqz	s6,12ecc <_ZL8dir_nextP3DIRi+0x50>
   12f90:	00100793          	li	a5,1
   12f94:	0cfb0a63          	beq	s6,a5,13068 <_ZL8dir_nextP3DIRi+0x1ec>
   12f98:	fff00793          	li	a5,-1
   12f9c:	0afb0c63          	beq	s6,a5,13054 <_ZL8dir_nextP3DIRi+0x1d8>
   12fa0:	0039c783          	lbu	a5,3(s3)
   12fa4:	03898913          	addi	s2,s3,56
   12fa8:	0c079463          	bnez	a5,13070 <_ZL8dir_nextP3DIRi+0x1f4>
   12fac:	01c9a783          	lw	a5,28(s3)
   12fb0:	ffeb0c13          	addi	s8,s6,-2
   12fb4:	00000c93          	li	s9,0
   12fb8:	ffe78793          	addi	a5,a5,-2
   12fbc:	00fc7a63          	bgeu	s8,a5,12fd0 <_ZL8dir_nextP3DIRi+0x154>
   12fc0:	00a9dc83          	lhu	s9,10(s3)
   12fc4:	0309a783          	lw	a5,48(s3)
   12fc8:	038c8cb3          	mul	s9,s9,s8
   12fcc:	00fc8cb3          	add	s9,s9,a5
   12fd0:	0399aa23          	sw	s9,52(s3)
   12fd4:	20000613          	li	a2,512
   12fd8:	00000593          	li	a1,0
   12fdc:	00090513          	mv	a0,s2
   12fe0:	765030ef          	jal	ra,16f44 <memset>
   12fe4:	00a9d783          	lhu	a5,10(s3)
   12fe8:	02078a63          	beqz	a5,1301c <_ZL8dir_nextP3DIRi+0x1a0>
   12fec:	00000b93          	li	s7,0
   12ff0:	00c0006f          	j	12ffc <_ZL8dir_nextP3DIRi+0x180>
   12ff4:	001b8b93          	addi	s7,s7,1
   12ff8:	02fbf063          	bgeu	s7,a5,13018 <_ZL8dir_nextP3DIRi+0x19c>
   12ffc:	0019c503          	lbu	a0,1(s3)
   13000:	017c8633          	add	a2,s9,s7
   13004:	00100693          	li	a3,1
   13008:	00090593          	mv	a1,s2
   1300c:	609020ef          	jal	ra,15e14 <disk_write>
   13010:	00a9d783          	lhu	a5,10(s3)
   13014:	fe0500e3          	beqz	a0,12ff4 <_ZL8dir_nextP3DIRi+0x178>
   13018:	03779e63          	bne	a5,s7,13054 <_ZL8dir_nextP3DIRi+0x1d8>
   1301c:	01642a23          	sw	s6,20(s0)
   13020:	01c9a783          	lw	a5,28(s3)
   13024:	ffe78793          	addi	a5,a5,-2
   13028:	00fc7a63          	bgeu	s8,a5,1303c <_ZL8dir_nextP3DIRi+0x1c0>
   1302c:	00a9da83          	lhu	s5,10(s3)
   13030:	0309a783          	lw	a5,48(s3)
   13034:	038a8ab3          	mul	s5,s5,s8
   13038:	00fa8ab3          	add	s5,s5,a5
   1303c:	01542c23          	sw	s5,24(s0)
   13040:	ed5ff06f          	j	12f14 <_ZL8dir_nextP3DIRi+0x98>
   13044:	0089d783          	lhu	a5,8(s3)
   13048:	0054d713          	srli	a4,s1,0x5
   1304c:	ecf762e3          	bltu	a4,a5,12f10 <_ZL8dir_nextP3DIRi+0x94>
   13050:	e75ff06f          	j	12ec4 <_ZL8dir_nextP3DIRi+0x48>
   13054:	00100513          	li	a0,1
   13058:	e75ff06f          	j	12ecc <_ZL8dir_nextP3DIRi+0x50>
   1305c:	03898913          	addi	s2,s3,56
   13060:	ffe50c13          	addi	s8,a0,-2
   13064:	fb9ff06f          	j	1301c <_ZL8dir_nextP3DIRi+0x1a0>
   13068:	00200513          	li	a0,2
   1306c:	e61ff06f          	j	12ecc <_ZL8dir_nextP3DIRi+0x50>
   13070:	0349a603          	lw	a2,52(s3)
   13074:	0019c503          	lbu	a0,1(s3)
   13078:	00100693          	li	a3,1
   1307c:	00090593          	mv	a1,s2
   13080:	595020ef          	jal	ra,15e14 <disk_write>
   13084:	fc0518e3          	bnez	a0,13054 <_ZL8dir_nextP3DIRi+0x1d8>
   13088:	0349a603          	lw	a2,52(s3)
   1308c:	0289a783          	lw	a5,40(s3)
   13090:	0209a703          	lw	a4,32(s3)
   13094:	000981a3          	sb	zero,3(s3)
   13098:	40f607b3          	sub	a5,a2,a5
   1309c:	f0e7f8e3          	bgeu	a5,a4,12fac <_ZL8dir_nextP3DIRi+0x130>
   130a0:	0029c683          	lbu	a3,2(s3)
   130a4:	00200793          	li	a5,2
   130a8:	f0f692e3          	bne	a3,a5,12fac <_ZL8dir_nextP3DIRi+0x130>
   130ac:	0019c503          	lbu	a0,1(s3)
   130b0:	00100693          	li	a3,1
   130b4:	00e60633          	add	a2,a2,a4
   130b8:	00090593          	mv	a1,s2
   130bc:	559020ef          	jal	ra,15e14 <disk_write>
   130c0:	eedff06f          	j	12fac <_ZL8dir_nextP3DIRi+0x130>
   130c4:	00400513          	li	a0,4
   130c8:	e05ff06f          	j	12ecc <_ZL8dir_nextP3DIRi+0x50>

000130cc <_ZL7dir_sdiP3DIRm>:
   130cc:	fb010113          	addi	sp,sp,-80
   130d0:	03a12023          	sw	s10,32(sp)
   130d4:	04112623          	sw	ra,76(sp)
   130d8:	04812423          	sw	s0,72(sp)
   130dc:	04912223          	sw	s1,68(sp)
   130e0:	05212023          	sw	s2,64(sp)
   130e4:	03312e23          	sw	s3,60(sp)
   130e8:	03412c23          	sw	s4,56(sp)
   130ec:	03512a23          	sw	s5,52(sp)
   130f0:	03612823          	sw	s6,48(sp)
   130f4:	03712623          	sw	s7,44(sp)
   130f8:	03812423          	sw	s8,40(sp)
   130fc:	03912223          	sw	s9,36(sp)
   13100:	01b12e23          	sw	s11,28(sp)
   13104:	00200737          	lui	a4,0x200
   13108:	00052d03          	lw	s10,0(a0)
   1310c:	10e5f063          	bgeu	a1,a4,1320c <_ZL7dir_sdiP3DIRm+0x140>
   13110:	01f5fc93          	andi	s9,a1,31
   13114:	00058413          	mv	s0,a1
   13118:	0e0c9a63          	bnez	s9,1320c <_ZL7dir_sdiP3DIRm+0x140>
   1311c:	00852483          	lw	s1,8(a0)
   13120:	00b52823          	sw	a1,16(a0)
   13124:	00050c13          	mv	s8,a0
   13128:	12048463          	beqz	s1,13250 <_ZL7dir_sdiP3DIRm+0x184>
   1312c:	00ad5d83          	lhu	s11,10(s10)
   13130:	009d9d93          	slli	s11,s11,0x9
   13134:	21b46663          	bltu	s0,s11,13340 <_ZL7dir_sdiP3DIRm+0x274>
   13138:	00100793          	li	a5,1
   1313c:	0cf48863          	beq	s1,a5,1320c <_ZL7dir_sdiP3DIRm+0x140>
   13140:	000d0913          	mv	s2,s10
   13144:	10000b37          	lui	s6,0x10000
   13148:	01c92703          	lw	a4,28(s2)
   1314c:	fffb0793          	addi	a5,s6,-1 # fffffff <__BSS_END__+0xffe038f>
   13150:	00001bb7          	lui	s7,0x1
   13154:	00f12423          	sw	a5,8(sp)
   13158:	00200a93          	li	s5,2
   1315c:	00300a13          	li	s4,3
   13160:	00100b13          	li	s6,1
   13164:	fffb8b93          	addi	s7,s7,-1 # fff <main-0xf075>
   13168:	0ae4f263          	bgeu	s1,a4,1320c <_ZL7dir_sdiP3DIRm+0x140>
   1316c:	00094703          	lbu	a4,0(s2)
   13170:	19570c63          	beq	a4,s5,13308 <_ZL7dir_sdiP3DIRm+0x23c>
   13174:	13470e63          	beq	a4,s4,132b0 <_ZL7dir_sdiP3DIRm+0x1e4>
   13178:	09671a63          	bne	a4,s6,1320c <_ZL7dir_sdiP3DIRm+0x140>
   1317c:	02892783          	lw	a5,40(s2)
   13180:	0014d993          	srli	s3,s1,0x1
   13184:	009989b3          	add	s3,s3,s1
   13188:	0099d593          	srli	a1,s3,0x9
   1318c:	00f585b3          	add	a1,a1,a5
   13190:	00090513          	mv	a0,s2
   13194:	dd5fe0ef          	jal	ra,11f68 <_ZL11move_windowP5FATFSm>
   13198:	10051863          	bnez	a0,132a8 <_ZL7dir_sdiP3DIRm+0x1dc>
   1319c:	02892703          	lw	a4,40(s2)
   131a0:	00198793          	addi	a5,s3,1
   131a4:	0097d593          	srli	a1,a5,0x9
   131a8:	1ff9f993          	andi	s3,s3,511
   131ac:	013909b3          	add	s3,s2,s3
   131b0:	00e585b3          	add	a1,a1,a4
   131b4:	00090513          	mv	a0,s2
   131b8:	0389c983          	lbu	s3,56(s3)
   131bc:	00f12623          	sw	a5,12(sp)
   131c0:	da9fe0ef          	jal	ra,11f68 <_ZL11move_windowP5FATFSm>
   131c4:	0e051263          	bnez	a0,132a8 <_ZL7dir_sdiP3DIRm+0x1dc>
   131c8:	00c12783          	lw	a5,12(sp)
   131cc:	0014f713          	andi	a4,s1,1
   131d0:	1ff7f793          	andi	a5,a5,511
   131d4:	00f907b3          	add	a5,s2,a5
   131d8:	0387c783          	lbu	a5,56(a5)
   131dc:	00879793          	slli	a5,a5,0x8
   131e0:	0137e7b3          	or	a5,a5,s3
   131e4:	0177f4b3          	and	s1,a5,s7
   131e8:	16071e63          	bnez	a4,13364 <_ZL7dir_sdiP3DIRm+0x298>
   131ec:	029b7063          	bgeu	s6,s1,1320c <_ZL7dir_sdiP3DIRm+0x140>
   131f0:	01cd2703          	lw	a4,28(s10)
   131f4:	00e4fc63          	bgeu	s1,a4,1320c <_ZL7dir_sdiP3DIRm+0x140>
   131f8:	41b40433          	sub	s0,s0,s11
   131fc:	15b46463          	bltu	s0,s11,13344 <_ZL7dir_sdiP3DIRm+0x278>
   13200:	000c2903          	lw	s2,0(s8)
   13204:	01c92703          	lw	a4,28(s2)
   13208:	f6e4e2e3          	bltu	s1,a4,1316c <_ZL7dir_sdiP3DIRm+0xa0>
   1320c:	00200c93          	li	s9,2
   13210:	04c12083          	lw	ra,76(sp)
   13214:	04812403          	lw	s0,72(sp)
   13218:	04412483          	lw	s1,68(sp)
   1321c:	04012903          	lw	s2,64(sp)
   13220:	03c12983          	lw	s3,60(sp)
   13224:	03812a03          	lw	s4,56(sp)
   13228:	03412a83          	lw	s5,52(sp)
   1322c:	03012b03          	lw	s6,48(sp)
   13230:	02c12b83          	lw	s7,44(sp)
   13234:	02812c03          	lw	s8,40(sp)
   13238:	02012d03          	lw	s10,32(sp)
   1323c:	01c12d83          	lw	s11,28(sp)
   13240:	000c8513          	mv	a0,s9
   13244:	02412c83          	lw	s9,36(sp)
   13248:	05010113          	addi	sp,sp,80
   1324c:	00008067          	ret
   13250:	000d4703          	lbu	a4,0(s10)
   13254:	00200793          	li	a5,2
   13258:	04e7e063          	bltu	a5,a4,13298 <_ZL7dir_sdiP3DIRm+0x1cc>
   1325c:	008d5783          	lhu	a5,8(s10)
   13260:	00545713          	srli	a4,s0,0x5
   13264:	faf774e3          	bgeu	a4,a5,1320c <_ZL7dir_sdiP3DIRm+0x140>
   13268:	02cd2703          	lw	a4,44(s10)
   1326c:	00ec2c23          	sw	a4,24(s8)
   13270:	009c2a23          	sw	s1,20(s8)
   13274:	f8070ce3          	beqz	a4,1320c <_ZL7dir_sdiP3DIRm+0x140>
   13278:	00945693          	srli	a3,s0,0x9
   1327c:	038d0793          	addi	a5,s10,56
   13280:	1ff47413          	andi	s0,s0,511
   13284:	00e68733          	add	a4,a3,a4
   13288:	008787b3          	add	a5,a5,s0
   1328c:	00ec2c23          	sw	a4,24(s8)
   13290:	00fc2e23          	sw	a5,28(s8)
   13294:	f7dff06f          	j	13210 <_ZL7dir_sdiP3DIRm+0x144>
   13298:	02cd2783          	lw	a5,44(s10)
   1329c:	fc0780e3          	beqz	a5,1325c <_ZL7dir_sdiP3DIRm+0x190>
   132a0:	00078493          	mv	s1,a5
   132a4:	e89ff06f          	j	1312c <_ZL7dir_sdiP3DIRm+0x60>
   132a8:	00100c93          	li	s9,1
   132ac:	f65ff06f          	j	13210 <_ZL7dir_sdiP3DIRm+0x144>
   132b0:	02892783          	lw	a5,40(s2)
   132b4:	0074d593          	srli	a1,s1,0x7
   132b8:	00090513          	mv	a0,s2
   132bc:	00f585b3          	add	a1,a1,a5
   132c0:	ca9fe0ef          	jal	ra,11f68 <_ZL11move_windowP5FATFSm>
   132c4:	fe0512e3          	bnez	a0,132a8 <_ZL7dir_sdiP3DIRm+0x1dc>
   132c8:	00249713          	slli	a4,s1,0x2
   132cc:	1fc77713          	andi	a4,a4,508
   132d0:	00e90733          	add	a4,s2,a4
   132d4:	03974603          	lbu	a2,57(a4) # 200039 <__BSS_END__+0x1e03c9>
   132d8:	03874583          	lbu	a1,56(a4)
   132dc:	03a74783          	lbu	a5,58(a4)
   132e0:	03b74483          	lbu	s1,59(a4)
   132e4:	00861713          	slli	a4,a2,0x8
   132e8:	00b76733          	or	a4,a4,a1
   132ec:	01079793          	slli	a5,a5,0x10
   132f0:	00e7e7b3          	or	a5,a5,a4
   132f4:	01849493          	slli	s1,s1,0x18
   132f8:	00f4e4b3          	or	s1,s1,a5
   132fc:	00812783          	lw	a5,8(sp)
   13300:	00f4f4b3          	and	s1,s1,a5
   13304:	ee9ff06f          	j	131ec <_ZL7dir_sdiP3DIRm+0x120>
   13308:	02892783          	lw	a5,40(s2)
   1330c:	0084d593          	srli	a1,s1,0x8
   13310:	00090513          	mv	a0,s2
   13314:	00f585b3          	add	a1,a1,a5
   13318:	c51fe0ef          	jal	ra,11f68 <_ZL11move_windowP5FATFSm>
   1331c:	f80516e3          	bnez	a0,132a8 <_ZL7dir_sdiP3DIRm+0x1dc>
   13320:	00149793          	slli	a5,s1,0x1
   13324:	1fe7f793          	andi	a5,a5,510
   13328:	00f907b3          	add	a5,s2,a5
   1332c:	0397c703          	lbu	a4,57(a5)
   13330:	0387c483          	lbu	s1,56(a5)
   13334:	00871793          	slli	a5,a4,0x8
   13338:	0097e4b3          	or	s1,a5,s1
   1333c:	eb1ff06f          	j	131ec <_ZL7dir_sdiP3DIRm+0x120>
   13340:	01cd2703          	lw	a4,28(s10)
   13344:	ffe48793          	addi	a5,s1,-2
   13348:	ffe70713          	addi	a4,a4,-2
   1334c:	02e7f063          	bgeu	a5,a4,1336c <_ZL7dir_sdiP3DIRm+0x2a0>
   13350:	00ad5703          	lhu	a4,10(s10)
   13354:	030d2683          	lw	a3,48(s10)
   13358:	02f70733          	mul	a4,a4,a5
   1335c:	00d70733          	add	a4,a4,a3
   13360:	f0dff06f          	j	1326c <_ZL7dir_sdiP3DIRm+0x1a0>
   13364:	0047d493          	srli	s1,a5,0x4
   13368:	e85ff06f          	j	131ec <_ZL7dir_sdiP3DIRm+0x120>
   1336c:	000c2c23          	sw	zero,24(s8)
   13370:	009c2a23          	sw	s1,20(s8)
   13374:	e99ff06f          	j	1320c <_ZL7dir_sdiP3DIRm+0x140>

00013378 <_ZL8dir_findP3DIR>:
   13378:	fb010113          	addi	sp,sp,-80
   1337c:	00000593          	li	a1,0
   13380:	04812423          	sw	s0,72(sp)
   13384:	03312e23          	sw	s3,60(sp)
   13388:	01b12e23          	sw	s11,28(sp)
   1338c:	04112623          	sw	ra,76(sp)
   13390:	00052d83          	lw	s11,0(a0)
   13394:	04912223          	sw	s1,68(sp)
   13398:	05212023          	sw	s2,64(sp)
   1339c:	03412c23          	sw	s4,56(sp)
   133a0:	03512a23          	sw	s5,52(sp)
   133a4:	03612823          	sw	s6,48(sp)
   133a8:	03712623          	sw	s7,44(sp)
   133ac:	03812423          	sw	s8,40(sp)
   133b0:	03912223          	sw	s9,36(sp)
   133b4:	03a12023          	sw	s10,32(sp)
   133b8:	00050413          	mv	s0,a0
   133bc:	d11ff0ef          	jal	ra,130cc <_ZL7dir_sdiP3DIRm>
   133c0:	00050993          	mv	s3,a0
   133c4:	06051463          	bnez	a0,1342c <_ZL8dir_findP3DIR+0xb4>
   133c8:	fff00793          	li	a5,-1
   133cc:	00010b37          	lui	s6,0x10
   133d0:	01842d03          	lw	s10,24(s0)
   133d4:	02f42623          	sw	a5,44(s0)
   133d8:	fffb0793          	addi	a5,s6,-1 # ffff <main-0x75>
   133dc:	0ff00c13          	li	s8,255
   133e0:	0ff00a13          	li	s4,255
   133e4:	038d8a93          	addi	s5,s11,56
   133e8:	00006c97          	auipc	s9,0x6
   133ec:	f65c8c93          	addi	s9,s9,-155 # 1934d <_ZL6LfnOfs+0xd>
   133f0:	00f12023          	sw	a5,0(sp)
   133f4:	02040b93          	addi	s7,s0,32
   133f8:	034da603          	lw	a2,52(s11)
   133fc:	07a60a63          	beq	a2,s10,13470 <_ZL8dir_findP3DIR+0xf8>
   13400:	003dc783          	lbu	a5,3(s11)
   13404:	001dc503          	lbu	a0,1(s11)
   13408:	16079463          	bnez	a5,13570 <_ZL8dir_findP3DIR+0x1f8>
   1340c:	00100693          	li	a3,1
   13410:	000d0613          	mv	a2,s10
   13414:	000a8593          	mv	a1,s5
   13418:	1bd020ef          	jal	ra,15dd4 <disk_read>
   1341c:	04050863          	beqz	a0,1346c <_ZL8dir_findP3DIR+0xf4>
   13420:	fff00793          	li	a5,-1
   13424:	02fdaa23          	sw	a5,52(s11)
   13428:	00100993          	li	s3,1
   1342c:	04c12083          	lw	ra,76(sp)
   13430:	04812403          	lw	s0,72(sp)
   13434:	04412483          	lw	s1,68(sp)
   13438:	04012903          	lw	s2,64(sp)
   1343c:	03812a03          	lw	s4,56(sp)
   13440:	03412a83          	lw	s5,52(sp)
   13444:	03012b03          	lw	s6,48(sp)
   13448:	02c12b83          	lw	s7,44(sp)
   1344c:	02812c03          	lw	s8,40(sp)
   13450:	02412c83          	lw	s9,36(sp)
   13454:	02012d03          	lw	s10,32(sp)
   13458:	01c12d83          	lw	s11,28(sp)
   1345c:	00098513          	mv	a0,s3
   13460:	03c12983          	lw	s3,60(sp)
   13464:	05010113          	addi	sp,sp,80
   13468:	00008067          	ret
   1346c:	03adaa23          	sw	s10,52(s11)
   13470:	01c42903          	lw	s2,28(s0)
   13474:	00094483          	lbu	s1,0(s2)
   13478:	0c048063          	beqz	s1,13538 <_ZL8dir_findP3DIR+0x1c0>
   1347c:	00b94783          	lbu	a5,11(s2)
   13480:	0e500693          	li	a3,229
   13484:	03f7f713          	andi	a4,a5,63
   13488:	00e40323          	sb	a4,6(s0)
   1348c:	00d48a63          	beq	s1,a3,134a0 <_ZL8dir_findP3DIR+0x128>
   13490:	0087f793          	andi	a5,a5,8
   13494:	0a078663          	beqz	a5,13540 <_ZL8dir_findP3DIR+0x1c8>
   13498:	00f00793          	li	a5,15
   1349c:	12f70263          	beq	a4,a5,135c0 <_ZL8dir_findP3DIR+0x248>
   134a0:	fff00793          	li	a5,-1
   134a4:	02f42623          	sw	a5,44(s0)
   134a8:	0ff00a13          	li	s4,255
   134ac:	01042483          	lw	s1,16(s0)
   134b0:	002007b7          	lui	a5,0x200
   134b4:	00042903          	lw	s2,0(s0)
   134b8:	02048493          	addi	s1,s1,32
   134bc:	06f4fc63          	bgeu	s1,a5,13534 <_ZL8dir_findP3DIR+0x1bc>
   134c0:	01842d03          	lw	s10,24(s0)
   134c4:	060d0a63          	beqz	s10,13538 <_ZL8dir_findP3DIR+0x1c0>
   134c8:	1ff4fb13          	andi	s6,s1,511
   134cc:	020b1063          	bnez	s6,134ec <_ZL8dir_findP3DIR+0x174>
   134d0:	01442583          	lw	a1,20(s0)
   134d4:	001d0d13          	addi	s10,s10,1
   134d8:	01a42c23          	sw	s10,24(s0)
   134dc:	02059263          	bnez	a1,13500 <_ZL8dir_findP3DIR+0x188>
   134e0:	00895683          	lhu	a3,8(s2)
   134e4:	0054d613          	srli	a2,s1,0x5
   134e8:	04d67663          	bgeu	a2,a3,13534 <_ZL8dir_findP3DIR+0x1bc>
   134ec:	03890913          	addi	s2,s2,56
   134f0:	01690933          	add	s2,s2,s6
   134f4:	00942823          	sw	s1,16(s0)
   134f8:	01242e23          	sw	s2,28(s0)
   134fc:	efdff06f          	j	133f8 <_ZL8dir_findP3DIR+0x80>
   13500:	00a95683          	lhu	a3,10(s2)
   13504:	0094d613          	srli	a2,s1,0x9
   13508:	fff68693          	addi	a3,a3,-1
   1350c:	00c6f6b3          	and	a3,a3,a2
   13510:	fc069ee3          	bnez	a3,134ec <_ZL8dir_findP3DIR+0x174>
   13514:	00090513          	mv	a0,s2
   13518:	d29fe0ef          	jal	ra,12240 <_ZL7get_fatP7FFOBJIDm.isra.0>
   1351c:	00100713          	li	a4,1
   13520:	2ea77663          	bgeu	a4,a0,1380c <_ZL8dir_findP3DIR+0x494>
   13524:	fff00713          	li	a4,-1
   13528:	f0e500e3          	beq	a0,a4,13428 <_ZL8dir_findP3DIR+0xb0>
   1352c:	01c92703          	lw	a4,28(s2)
   13530:	2ae56663          	bltu	a0,a4,137dc <_ZL8dir_findP3DIR+0x464>
   13534:	00042c23          	sw	zero,24(s0)
   13538:	00400993          	li	s3,4
   1353c:	ef1ff06f          	j	1342c <_ZL8dir_findP3DIR+0xb4>
   13540:	00f00793          	li	a5,15
   13544:	06f70e63          	beq	a4,a5,135c0 <_ZL8dir_findP3DIR+0x248>
   13548:	160a0663          	beqz	s4,136b4 <_ZL8dir_findP3DIR+0x33c>
   1354c:	02b44783          	lbu	a5,43(s0)
   13550:	0017f793          	andi	a5,a5,1
   13554:	f40796e3          	bnez	a5,134a0 <_ZL8dir_findP3DIR+0x128>
   13558:	00b00613          	li	a2,11
   1355c:	000b8593          	mv	a1,s7
   13560:	00090513          	mv	a0,s2
   13564:	041030ef          	jal	ra,16da4 <memcmp>
   13568:	f2051ce3          	bnez	a0,134a0 <_ZL8dir_findP3DIR+0x128>
   1356c:	ec1ff06f          	j	1342c <_ZL8dir_findP3DIR+0xb4>
   13570:	00100693          	li	a3,1
   13574:	000a8593          	mv	a1,s5
   13578:	09d020ef          	jal	ra,15e14 <disk_write>
   1357c:	ea0516e3          	bnez	a0,13428 <_ZL8dir_findP3DIR+0xb0>
   13580:	034da583          	lw	a1,52(s11)
   13584:	028da783          	lw	a5,40(s11)
   13588:	020da603          	lw	a2,32(s11)
   1358c:	000d81a3          	sb	zero,3(s11)
   13590:	40f587b3          	sub	a5,a1,a5
   13594:	001dc503          	lbu	a0,1(s11)
   13598:	e6c7fae3          	bgeu	a5,a2,1340c <_ZL8dir_findP3DIR+0x94>
   1359c:	002dc683          	lbu	a3,2(s11)
   135a0:	00200793          	li	a5,2
   135a4:	e6f694e3          	bne	a3,a5,1340c <_ZL8dir_findP3DIR+0x94>
   135a8:	00c58633          	add	a2,a1,a2
   135ac:	00100693          	li	a3,1
   135b0:	000a8593          	mv	a1,s5
   135b4:	061020ef          	jal	ra,15e14 <disk_write>
   135b8:	001dc503          	lbu	a0,1(s11)
   135bc:	e51ff06f          	j	1340c <_ZL8dir_findP3DIR+0x94>
   135c0:	02b44783          	lbu	a5,43(s0)
   135c4:	0407f793          	andi	a5,a5,64
   135c8:	ee0792e3          	bnez	a5,134ac <_ZL8dir_findP3DIR+0x134>
   135cc:	0404f793          	andi	a5,s1,64
   135d0:	20078063          	beqz	a5,137d0 <_ZL8dir_findP3DIR+0x458>
   135d4:	01042783          	lw	a5,16(s0)
   135d8:	00d94c03          	lbu	s8,13(s2)
   135dc:	0bf4f493          	andi	s1,s1,191
   135e0:	02f42623          	sw	a5,44(s0)
   135e4:	00d94783          	lbu	a5,13(s2)
   135e8:	0ff00a13          	li	s4,255
   135ec:	ed8790e3          	bne	a5,s8,134ac <_ZL8dir_findP3DIR+0x134>
   135f0:	01b94783          	lbu	a5,27(s2)
   135f4:	01a94703          	lbu	a4,26(s2)
   135f8:	00879793          	slli	a5,a5,0x8
   135fc:	00e7e7b3          	or	a5,a5,a4
   13600:	ea0796e3          	bnez	a5,134ac <_ZL8dir_findP3DIR+0x134>
   13604:	00094783          	lbu	a5,0(s2)
   13608:	00cda703          	lw	a4,12(s11)
   1360c:	00006d17          	auipc	s10,0x6
   13610:	d34d0d13          	addi	s10,s10,-716 # 19340 <_ZL6LfnOfs>
   13614:	03f7f793          	andi	a5,a5,63
   13618:	fff78793          	addi	a5,a5,-1 # 1fffff <__BSS_END__+0x1e038f>
   1361c:	00e12623          	sw	a4,12(sp)
   13620:	00179713          	slli	a4,a5,0x1
   13624:	00f70733          	add	a4,a4,a5
   13628:	00271713          	slli	a4,a4,0x2
   1362c:	00f70b33          	add	s6,a4,a5
   13630:	00100593          	li	a1,1
   13634:	0480006f          	j	1367c <_ZL8dir_findP3DIR+0x304>
   13638:	0ff00793          	li	a5,255
   1363c:	0767e863          	bltu	a5,s6,136ac <_ZL8dir_findP3DIR+0x334>
   13640:	600020ef          	jal	ra,15c40 <ff_wtoupper>
   13644:	00c12783          	lw	a5,12(sp)
   13648:	001b1713          	slli	a4,s6,0x1
   1364c:	00050693          	mv	a3,a0
   13650:	00e78733          	add	a4,a5,a4
   13654:	00412803          	lw	a6,4(sp)
   13658:	00075503          	lhu	a0,0(a4)
   1365c:	00d12423          	sw	a3,8(sp)
   13660:	00080b13          	mv	s6,a6
   13664:	5dc020ef          	jal	ra,15c40 <ff_wtoupper>
   13668:	00812683          	lw	a3,8(sp)
   1366c:	04a69063          	bne	a3,a0,136ac <_ZL8dir_findP3DIR+0x334>
   13670:	000a0593          	mv	a1,s4
   13674:	001d0d13          	addi	s10,s10,1
   13678:	199d0e63          	beq	s10,s9,13814 <_ZL8dir_findP3DIR+0x49c>
   1367c:	000d4683          	lbu	a3,0(s10)
   13680:	001b0813          	addi	a6,s6,1
   13684:	01012223          	sw	a6,4(sp)
   13688:	00d906b3          	add	a3,s2,a3
   1368c:	0016c783          	lbu	a5,1(a3)
   13690:	0006c683          	lbu	a3,0(a3)
   13694:	00879793          	slli	a5,a5,0x8
   13698:	00d7ea33          	or	s4,a5,a3
   1369c:	000a0513          	mv	a0,s4
   136a0:	f8059ce3          	bnez	a1,13638 <_ZL8dir_findP3DIR+0x2c0>
   136a4:	00012783          	lw	a5,0(sp)
   136a8:	fcfa06e3          	beq	s4,a5,13674 <_ZL8dir_findP3DIR+0x2fc>
   136ac:	0ff00a13          	li	s4,255
   136b0:	dfdff06f          	j	134ac <_ZL8dir_findP3DIR+0x134>
   136b4:	00094703          	lbu	a4,0(s2)
   136b8:	00194603          	lbu	a2,1(s2)
   136bc:	00294683          	lbu	a3,2(s2)
   136c0:	00175793          	srli	a5,a4,0x1
   136c4:	00771713          	slli	a4,a4,0x7
   136c8:	00e7e7b3          	or	a5,a5,a4
   136cc:	00c787b3          	add	a5,a5,a2
   136d0:	0ff7f713          	zext.b	a4,a5
   136d4:	00175713          	srli	a4,a4,0x1
   136d8:	00779793          	slli	a5,a5,0x7
   136dc:	00f76733          	or	a4,a4,a5
   136e0:	0ff77713          	zext.b	a4,a4
   136e4:	00d70733          	add	a4,a4,a3
   136e8:	0ff77793          	zext.b	a5,a4
   136ec:	00394683          	lbu	a3,3(s2)
   136f0:	00771713          	slli	a4,a4,0x7
   136f4:	0017d793          	srli	a5,a5,0x1
   136f8:	00e7e7b3          	or	a5,a5,a4
   136fc:	0ff7f793          	zext.b	a5,a5
   13700:	00d787b3          	add	a5,a5,a3
   13704:	0ff7f713          	zext.b	a4,a5
   13708:	00494683          	lbu	a3,4(s2)
   1370c:	00779793          	slli	a5,a5,0x7
   13710:	00175713          	srli	a4,a4,0x1
   13714:	00f76733          	or	a4,a4,a5
   13718:	0ff77713          	zext.b	a4,a4
   1371c:	00d70733          	add	a4,a4,a3
   13720:	0ff77793          	zext.b	a5,a4
   13724:	00594683          	lbu	a3,5(s2)
   13728:	00771713          	slli	a4,a4,0x7
   1372c:	0017d793          	srli	a5,a5,0x1
   13730:	00e7e7b3          	or	a5,a5,a4
   13734:	0ff7f793          	zext.b	a5,a5
   13738:	00d787b3          	add	a5,a5,a3
   1373c:	0ff7f713          	zext.b	a4,a5
   13740:	00694683          	lbu	a3,6(s2)
   13744:	00779793          	slli	a5,a5,0x7
   13748:	00175713          	srli	a4,a4,0x1
   1374c:	00f76733          	or	a4,a4,a5
   13750:	0ff77713          	zext.b	a4,a4
   13754:	00d70733          	add	a4,a4,a3
   13758:	0ff77793          	zext.b	a5,a4
   1375c:	00794683          	lbu	a3,7(s2)
   13760:	00771713          	slli	a4,a4,0x7
   13764:	0017d793          	srli	a5,a5,0x1
   13768:	00e7e7b3          	or	a5,a5,a4
   1376c:	0ff7f793          	zext.b	a5,a5
   13770:	00d787b3          	add	a5,a5,a3
   13774:	0ff7f713          	zext.b	a4,a5
   13778:	00894683          	lbu	a3,8(s2)
   1377c:	00779793          	slli	a5,a5,0x7
   13780:	00175713          	srli	a4,a4,0x1
   13784:	00f76733          	or	a4,a4,a5
   13788:	0ff77713          	zext.b	a4,a4
   1378c:	00d70733          	add	a4,a4,a3
   13790:	0ff77793          	zext.b	a5,a4
   13794:	00994683          	lbu	a3,9(s2)
   13798:	00771713          	slli	a4,a4,0x7
   1379c:	0017d793          	srli	a5,a5,0x1
   137a0:	00e7e7b3          	or	a5,a5,a4
   137a4:	0ff7f793          	zext.b	a5,a5
   137a8:	00d787b3          	add	a5,a5,a3
   137ac:	0ff7f713          	zext.b	a4,a5
   137b0:	00a94683          	lbu	a3,10(s2)
   137b4:	00175713          	srli	a4,a4,0x1
   137b8:	00779793          	slli	a5,a5,0x7
   137bc:	00f767b3          	or	a5,a4,a5
   137c0:	00d787b3          	add	a5,a5,a3
   137c4:	0ff7f793          	zext.b	a5,a5
   137c8:	d8fc12e3          	bne	s8,a5,1354c <_ZL8dir_findP3DIR+0x1d4>
   137cc:	c61ff06f          	j	1342c <_ZL8dir_findP3DIR+0xb4>
   137d0:	e09a0ae3          	beq	s4,s1,135e4 <_ZL8dir_findP3DIR+0x26c>
   137d4:	0ff00a13          	li	s4,255
   137d8:	cd5ff06f          	j	134ac <_ZL8dir_findP3DIR+0x134>
   137dc:	00a42a23          	sw	a0,20(s0)
   137e0:	01c92683          	lw	a3,28(s2)
   137e4:	ffe50513          	addi	a0,a0,-2
   137e8:	00000d13          	li	s10,0
   137ec:	ffe68693          	addi	a3,a3,-2
   137f0:	00d57a63          	bgeu	a0,a3,13804 <_ZL8dir_findP3DIR+0x48c>
   137f4:	00a95703          	lhu	a4,10(s2)
   137f8:	03092683          	lw	a3,48(s2)
   137fc:	02a70733          	mul	a4,a4,a0
   13800:	00d70d33          	add	s10,a4,a3
   13804:	01a42c23          	sw	s10,24(s0)
   13808:	ce5ff06f          	j	134ec <_ZL8dir_findP3DIR+0x174>
   1380c:	00200993          	li	s3,2
   13810:	c1dff06f          	j	1342c <_ZL8dir_findP3DIR+0xb4>
   13814:	00094783          	lbu	a5,0(s2)
   13818:	0407f793          	andi	a5,a5,64
   1381c:	02078063          	beqz	a5,1383c <_ZL8dir_findP3DIR+0x4c4>
   13820:	00058e63          	beqz	a1,1383c <_ZL8dir_findP3DIR+0x4c4>
   13824:	00c12783          	lw	a5,12(sp)
   13828:	001b1713          	slli	a4,s6,0x1
   1382c:	00e78a33          	add	s4,a5,a4
   13830:	000a5783          	lhu	a5,0(s4)
   13834:	0ff00a13          	li	s4,255
   13838:	c6079ae3          	bnez	a5,134ac <_ZL8dir_findP3DIR+0x134>
   1383c:	fff48493          	addi	s1,s1,-1
   13840:	0ff4fa13          	zext.b	s4,s1
   13844:	c69ff06f          	j	134ac <_ZL8dir_findP3DIR+0x134>

00013848 <_ZL11follow_pathP3DIRPKc>:
   13848:	fa010113          	addi	sp,sp,-96
   1384c:	04812c23          	sw	s0,88(sp)
   13850:	03b12623          	sw	s11,44(sp)
   13854:	00052683          	lw	a3,0(a0)
   13858:	04112e23          	sw	ra,92(sp)
   1385c:	04912a23          	sw	s1,84(sp)
   13860:	05212823          	sw	s2,80(sp)
   13864:	05312623          	sw	s3,76(sp)
   13868:	05412423          	sw	s4,72(sp)
   1386c:	05512223          	sw	s5,68(sp)
   13870:	05612023          	sw	s6,64(sp)
   13874:	03712e23          	sw	s7,60(sp)
   13878:	03812c23          	sw	s8,56(sp)
   1387c:	03912a23          	sw	s9,52(sp)
   13880:	03a12823          	sw	s10,48(sp)
   13884:	0005c783          	lbu	a5,0(a1)
   13888:	02f00713          	li	a4,47
   1388c:	00d12623          	sw	a3,12(sp)
   13890:	00058d93          	mv	s11,a1
   13894:	00050413          	mv	s0,a0
   13898:	06e78a63          	beq	a5,a4,1390c <_ZL11follow_pathP3DIRPKc+0xc4>
   1389c:	05c00713          	li	a4,92
   138a0:	06e78663          	beq	a5,a4,1390c <_ZL11follow_pathP3DIRPKc+0xc4>
   138a4:	0186a783          	lw	a5,24(a3)
   138a8:	00c12683          	lw	a3,12(sp)
   138ac:	01f00713          	li	a4,31
   138b0:	00f42423          	sw	a5,8(s0)
   138b4:	000dc603          	lbu	a2,0(s11)
   138b8:	00068793          	mv	a5,a3
   138bc:	08c76463          	bltu	a4,a2,13944 <_ZL11follow_pathP3DIRPKc+0xfc>
   138c0:	f8000793          	li	a5,-128
   138c4:	02f405a3          	sb	a5,43(s0)
   138c8:	00040513          	mv	a0,s0
   138cc:	05812403          	lw	s0,88(sp)
   138d0:	05c12083          	lw	ra,92(sp)
   138d4:	05412483          	lw	s1,84(sp)
   138d8:	05012903          	lw	s2,80(sp)
   138dc:	04c12983          	lw	s3,76(sp)
   138e0:	04812a03          	lw	s4,72(sp)
   138e4:	04412a83          	lw	s5,68(sp)
   138e8:	04012b03          	lw	s6,64(sp)
   138ec:	03c12b83          	lw	s7,60(sp)
   138f0:	03812c03          	lw	s8,56(sp)
   138f4:	03412c83          	lw	s9,52(sp)
   138f8:	03012d03          	lw	s10,48(sp)
   138fc:	02c12d83          	lw	s11,44(sp)
   13900:	00000593          	li	a1,0
   13904:	06010113          	addi	sp,sp,96
   13908:	fc4ff06f          	j	130cc <_ZL7dir_sdiP3DIRm>
   1390c:	02f00713          	li	a4,47
   13910:	05c00613          	li	a2,92
   13914:	000dc783          	lbu	a5,0(s11)
   13918:	00e78463          	beq	a5,a4,13920 <_ZL11follow_pathP3DIRPKc+0xd8>
   1391c:	00c79663          	bne	a5,a2,13928 <_ZL11follow_pathP3DIRPKc+0xe0>
   13920:	001d8d93          	addi	s11,s11,1
   13924:	ff1ff06f          	j	13914 <_ZL11follow_pathP3DIRPKc+0xcc>
   13928:	00000793          	li	a5,0
   1392c:	00f42423          	sw	a5,8(s0)
   13930:	00c12683          	lw	a3,12(sp)
   13934:	000dc603          	lbu	a2,0(s11)
   13938:	01f00713          	li	a4,31
   1393c:	00068793          	mv	a5,a3
   13940:	f8c770e3          	bgeu	a4,a2,138c0 <_ZL11follow_pathP3DIRPKc+0x78>
   13944:	00002cb7          	lui	s9,0x2
   13948:	020c8713          	addi	a4,s9,32 # 2020 <main-0xe054>
   1394c:	20202d37          	lui	s10,0x20202
   13950:	00e12a23          	sw	a4,20(sp)
   13954:	020d0713          	addi	a4,s10,32 # 20202020 <__BSS_END__+0x201e23b0>
   13958:	00e12c23          	sw	a4,24(sp)
   1395c:	03868713          	addi	a4,a3,56
   13960:	00006b17          	auipc	s6,0x6
   13964:	940b0b13          	addi	s6,s6,-1728 # 192a0 <_ZL12residentfont+0x19d0>
   13968:	00e12823          	sw	a4,16(sp)
   1396c:	00c7ab83          	lw	s7,12(a5)
   13970:	00000d13          	li	s10,0
   13974:	01f00913          	li	s2,31
   13978:	000b8c93          	mv	s9,s7
   1397c:	02f00493          	li	s1,47
   13980:	05c00993          	li	s3,92
   13984:	07f00a13          	li	s4,127
   13988:	0ff00a93          	li	s5,255
   1398c:	000dc503          	lbu	a0,0(s11)
   13990:	001d8d93          	addi	s11,s11,1
   13994:	08051463          	bnez	a0,13a1c <_ZL11follow_pathP3DIRPKc+0x1d4>
   13998:	00100793          	li	a5,1
   1399c:	00400493          	li	s1,4
   139a0:	0efd0663          	beq	s10,a5,13a8c <_ZL11follow_pathP3DIRPKc+0x244>
   139a4:	00200793          	li	a5,2
   139a8:	16fd0263          	beq	s10,a5,13b0c <_ZL11follow_pathP3DIRPKc+0x2c4>
   139ac:	020d0663          	beqz	s10,139d8 <_ZL11follow_pathP3DIRPKc+0x190>
   139b0:	001d1793          	slli	a5,s10,0x1
   139b4:	00fb87b3          	add	a5,s7,a5
   139b8:	02000813          	li	a6,32
   139bc:	02e00893          	li	a7,46
   139c0:	ffe7d603          	lhu	a2,-2(a5)
   139c4:	ffe78793          	addi	a5,a5,-2
   139c8:	01060463          	beq	a2,a6,139d0 <_ZL11follow_pathP3DIRPKc+0x188>
   139cc:	17161063          	bne	a2,a7,13b2c <_ZL11follow_pathP3DIRPKc+0x2e4>
   139d0:	fffd0d13          	addi	s10,s10,-1
   139d4:	fe0d16e3          	bnez	s10,139c0 <_ZL11follow_pathP3DIRPKc+0x178>
   139d8:	000b9023          	sh	zero,0(s7)
   139dc:	00600513          	li	a0,6
   139e0:	05c12083          	lw	ra,92(sp)
   139e4:	05812403          	lw	s0,88(sp)
   139e8:	05412483          	lw	s1,84(sp)
   139ec:	05012903          	lw	s2,80(sp)
   139f0:	04c12983          	lw	s3,76(sp)
   139f4:	04812a03          	lw	s4,72(sp)
   139f8:	04412a83          	lw	s5,68(sp)
   139fc:	04012b03          	lw	s6,64(sp)
   13a00:	03c12b83          	lw	s7,60(sp)
   13a04:	03812c03          	lw	s8,56(sp)
   13a08:	03412c83          	lw	s9,52(sp)
   13a0c:	03012d03          	lw	s10,48(sp)
   13a10:	02c12d83          	lw	s11,44(sp)
   13a14:	06010113          	addi	sp,sp,96
   13a18:	00008067          	ret
   13a1c:	1b500593          	li	a1,437
   13a20:	1e8020ef          	jal	ra,15c08 <ff_oem2uni>
   13a24:	00050c13          	mv	s8,a0
   13a28:	fa050ae3          	beqz	a0,139dc <_ZL11follow_pathP3DIRPKc+0x194>
   13a2c:	00050593          	mv	a1,a0
   13a30:	000b0513          	mv	a0,s6
   13a34:	f78972e3          	bgeu	s2,s8,13998 <_ZL11follow_pathP3DIRPKc+0x150>
   13a38:	029c0463          	beq	s8,s1,13a60 <_ZL11follow_pathP3DIRPKc+0x218>
   13a3c:	033c0263          	beq	s8,s3,13a60 <_ZL11follow_pathP3DIRPKc+0x218>
   13a40:	018a6663          	bltu	s4,s8,13a4c <_ZL11follow_pathP3DIRPKc+0x204>
   13a44:	640030ef          	jal	ra,17084 <strchr>
   13a48:	f8051ae3          	bnez	a0,139dc <_ZL11follow_pathP3DIRPKc+0x194>
   13a4c:	f95d08e3          	beq	s10,s5,139dc <_ZL11follow_pathP3DIRPKc+0x194>
   13a50:	018c9023          	sh	s8,0(s9)
   13a54:	001d0d13          	addi	s10,s10,1
   13a58:	002c8c93          	addi	s9,s9,2
   13a5c:	f31ff06f          	j	1398c <_ZL11follow_pathP3DIRPKc+0x144>
   13a60:	02f00793          	li	a5,47
   13a64:	05c00613          	li	a2,92
   13a68:	000dc483          	lbu	s1,0(s11)
   13a6c:	00f48463          	beq	s1,a5,13a74 <_ZL11follow_pathP3DIRPKc+0x22c>
   13a70:	00c49663          	bne	s1,a2,13a7c <_ZL11follow_pathP3DIRPKc+0x234>
   13a74:	001d8d93          	addi	s11,s11,1
   13a78:	ff1ff06f          	j	13a68 <_ZL11follow_pathP3DIRPKc+0x220>
   13a7c:	0204b493          	sltiu	s1,s1,32
   13a80:	00100793          	li	a5,1
   13a84:	00249493          	slli	s1,s1,0x2
   13a88:	f0fd1ee3          	bne	s10,a5,139a4 <_ZL11follow_pathP3DIRPKc+0x15c>
   13a8c:	000bd603          	lhu	a2,0(s7)
   13a90:	02e00793          	li	a5,46
   13a94:	f0f61ee3          	bne	a2,a5,139b0 <_ZL11follow_pathP3DIRPKc+0x168>
   13a98:	000b9123          	sh	zero,2(s7)
   13a9c:	02000713          	li	a4,32
   13aa0:	02e00793          	li	a5,46
   13aa4:	02f40023          	sb	a5,32(s0)
   13aa8:	01412783          	lw	a5,20(sp)
   13aac:	02e400a3          	sb	a4,33(s0)
   13ab0:	01812703          	lw	a4,24(sp)
   13ab4:	0204e493          	ori	s1,s1,32
   13ab8:	02f41123          	sh	a5,34(s0)
   13abc:	02f41423          	sh	a5,40(s0)
   13ac0:	02000793          	li	a5,32
   13ac4:	02e42223          	sw	a4,36(s0)
   13ac8:	02f40523          	sb	a5,42(s0)
   13acc:	0ff4f493          	zext.b	s1,s1
   13ad0:	029405a3          	sb	s1,43(s0)
   13ad4:	00040513          	mv	a0,s0
   13ad8:	8a1ff0ef          	jal	ra,13378 <_ZL8dir_findP3DIR>
   13adc:	02b44783          	lbu	a5,43(s0)
   13ae0:	16050063          	beqz	a0,13c40 <_ZL11follow_pathP3DIRPKc+0x3f8>
   13ae4:	00400713          	li	a4,4
   13ae8:	eee51ce3          	bne	a0,a4,139e0 <_ZL11follow_pathP3DIRPKc+0x198>
   13aec:	0207f713          	andi	a4,a5,32
   13af0:	0047f793          	andi	a5,a5,4
   13af4:	38070463          	beqz	a4,13e7c <_ZL11follow_pathP3DIRPKc+0x634>
   13af8:	18078863          	beqz	a5,13c88 <_ZL11follow_pathP3DIRPKc+0x440>
   13afc:	f8000793          	li	a5,-128
   13b00:	02f405a3          	sb	a5,43(s0)
   13b04:	00000513          	li	a0,0
   13b08:	ed9ff06f          	j	139e0 <_ZL11follow_pathP3DIRPKc+0x198>
   13b0c:	002bd783          	lhu	a5,2(s7)
   13b10:	02e00613          	li	a2,46
   13b14:	e8c79ee3          	bne	a5,a2,139b0 <_ZL11follow_pathP3DIRPKc+0x168>
   13b18:	000bd603          	lhu	a2,0(s7)
   13b1c:	e8f61ae3          	bne	a2,a5,139b0 <_ZL11follow_pathP3DIRPKc+0x168>
   13b20:	000b9223          	sh	zero,4(s7)
   13b24:	02e00713          	li	a4,46
   13b28:	f79ff06f          	j	13aa0 <_ZL11follow_pathP3DIRPKc+0x258>
   13b2c:	001d1793          	slli	a5,s10,0x1
   13b30:	00fb87b3          	add	a5,s7,a5
   13b34:	00079023          	sh	zero,0(a5)
   13b38:	000bde03          	lhu	t3,0(s7)
   13b3c:	002b8513          	addi	a0,s7,2
   13b40:	00000593          	li	a1,0
   13b44:	02000313          	li	t1,32
   13b48:	210e1063          	bne	t3,a6,13d48 <_ZL11follow_pathP3DIRPKc+0x500>
   13b4c:	00055803          	lhu	a6,0(a0)
   13b50:	00050613          	mv	a2,a0
   13b54:	00058893          	mv	a7,a1
   13b58:	00250513          	addi	a0,a0,2
   13b5c:	00158593          	addi	a1,a1,1
   13b60:	fe6806e3          	beq	a6,t1,13b4c <_ZL11follow_pathP3DIRPKc+0x304>
   13b64:	00288993          	addi	s3,a7,2
   13b68:	0034e493          	ori	s1,s1,3
   13b6c:	0ff4f493          	zext.b	s1,s1
   13b70:	02e00513          	li	a0,46
   13b74:	ffe7d583          	lhu	a1,-2(a5)
   13b78:	ffe78793          	addi	a5,a5,-2
   13b7c:	00a58663          	beq	a1,a0,13b88 <_ZL11follow_pathP3DIRPKc+0x340>
   13b80:	fffd0d13          	addi	s10,s10,-1
   13b84:	fe0d18e3          	bnez	s10,13b74 <_ZL11follow_pathP3DIRPKc+0x32c>
   13b88:	02000793          	li	a5,32
   13b8c:	02f40023          	sb	a5,32(s0)
   13b90:	02f400a3          	sb	a5,33(s0)
   13b94:	02f40123          	sb	a5,34(s0)
   13b98:	02f401a3          	sb	a5,35(s0)
   13b9c:	02f40223          	sb	a5,36(s0)
   13ba0:	02f402a3          	sb	a5,37(s0)
   13ba4:	02f40323          	sb	a5,38(s0)
   13ba8:	02f403a3          	sb	a5,39(s0)
   13bac:	02f40423          	sb	a5,40(s0)
   13bb0:	02f404a3          	sb	a5,41(s0)
   13bb4:	02f40523          	sb	a5,42(s0)
   13bb8:	00065903          	lhu	s2,0(a2)
   13bbc:	f0090ae3          	beqz	s2,13ad0 <_ZL11follow_pathP3DIRPKc+0x288>
   13bc0:	00000a13          	li	s4,0
   13bc4:	00800613          	li	a2,8
   13bc8:	00000a93          	li	s5,0
   13bcc:	02000813          	li	a6,32
   13bd0:	02e00313          	li	t1,46
   13bd4:	00b00e13          	li	t3,11
   13bd8:	07f00e93          	li	t4,127
   13bdc:	0d090c63          	beq	s2,a6,13cb4 <_ZL11follow_pathP3DIRPKc+0x46c>
   13be0:	0c690863          	beq	s2,t1,13cb0 <_ZL11follow_pathP3DIRPKc+0x468>
   13be4:	14caf663          	bgeu	s5,a2,13d30 <_ZL11follow_pathP3DIRPKc+0x4e8>
   13be8:	133d0663          	beq	s10,s3,13d14 <_ZL11follow_pathP3DIRPKc+0x4cc>
   13bec:	1b2eec63          	bltu	t4,s2,13da4 <_ZL11follow_pathP3DIRPKc+0x55c>
   13bf0:	00090593          	mv	a1,s2
   13bf4:	00005517          	auipc	a0,0x5
   13bf8:	6b850513          	addi	a0,a0,1720 # 192ac <_ZL12residentfont+0x19dc>
   13bfc:	00c12e23          	sw	a2,28(sp)
   13c00:	484030ef          	jal	ra,17084 <strchr>
   13c04:	01c12603          	lw	a2,28(sp)
   13c08:	02000813          	li	a6,32
   13c0c:	02e00313          	li	t1,46
   13c10:	00b00e13          	li	t3,11
   13c14:	07f00e93          	li	t4,127
   13c18:	22050263          	beqz	a0,13e3c <_ZL11follow_pathP3DIRPKc+0x5f4>
   13c1c:	00048c93          	mv	s9,s1
   13c20:	003ce793          	ori	a5,s9,3
   13c24:	0ff7f493          	zext.b	s1,a5
   13c28:	05f00913          	li	s2,95
   13c2c:	015407b3          	add	a5,s0,s5
   13c30:	03278023          	sb	s2,32(a5)
   13c34:	001a8a93          	addi	s5,s5,1
   13c38:	00098893          	mv	a7,s3
   13c3c:	0840006f          	j	13cc0 <_ZL11follow_pathP3DIRPKc+0x478>
   13c40:	0047f793          	andi	a5,a5,4
   13c44:	d8079ee3          	bnez	a5,139e0 <_ZL11follow_pathP3DIRPKc+0x198>
   13c48:	00644783          	lbu	a5,6(s0)
   13c4c:	0107f793          	andi	a5,a5,16
   13c50:	22078863          	beqz	a5,13e80 <_ZL11follow_pathP3DIRPKc+0x638>
   13c54:	00c12703          	lw	a4,12(sp)
   13c58:	01042783          	lw	a5,16(s0)
   13c5c:	00300613          	li	a2,3
   13c60:	00074583          	lbu	a1,0(a4)
   13c64:	01012703          	lw	a4,16(sp)
   13c68:	1ff7f793          	andi	a5,a5,511
   13c6c:	00f707b3          	add	a5,a4,a5
   13c70:	01b7c703          	lbu	a4,27(a5)
   13c74:	01a7c503          	lbu	a0,26(a5)
   13c78:	00871713          	slli	a4,a4,0x8
   13c7c:	00a76733          	or	a4,a4,a0
   13c80:	00c58863          	beq	a1,a2,13c90 <_ZL11follow_pathP3DIRPKc+0x448>
   13c84:	00e42423          	sw	a4,8(s0)
   13c88:	00042783          	lw	a5,0(s0)
   13c8c:	ce1ff06f          	j	1396c <_ZL11follow_pathP3DIRPKc+0x124>
   13c90:	0157c603          	lbu	a2,21(a5)
   13c94:	0147c583          	lbu	a1,20(a5)
   13c98:	00861793          	slli	a5,a2,0x8
   13c9c:	00b7e7b3          	or	a5,a5,a1
   13ca0:	01079793          	slli	a5,a5,0x10
   13ca4:	00f76733          	or	a4,a4,a5
   13ca8:	00e42423          	sw	a4,8(s0)
   13cac:	fddff06f          	j	13c88 <_ZL11follow_pathP3DIRPKc+0x440>
   13cb0:	073d0263          	beq	s10,s3,13d14 <_ZL11follow_pathP3DIRPKc+0x4cc>
   13cb4:	0034e493          	ori	s1,s1,3
   13cb8:	0ff4f493          	zext.b	s1,s1
   13cbc:	00098893          	mv	a7,s3
   13cc0:	00189793          	slli	a5,a7,0x1
   13cc4:	00fb87b3          	add	a5,s7,a5
   13cc8:	0007d903          	lhu	s2,0(a5)
   13ccc:	00188993          	addi	s3,a7,1
   13cd0:	f00916e3          	bnez	s2,13bdc <_ZL11follow_pathP3DIRPKc+0x394>
   13cd4:	02044703          	lbu	a4,32(s0)
   13cd8:	0e500793          	li	a5,229
   13cdc:	00f71663          	bne	a4,a5,13ce8 <_ZL11follow_pathP3DIRPKc+0x4a0>
   13ce0:	00500793          	li	a5,5
   13ce4:	02f40023          	sb	a5,32(s0)
   13ce8:	00800793          	li	a5,8
   13cec:	06f60663          	beq	a2,a5,13d58 <_ZL11follow_pathP3DIRPKc+0x510>
   13cf0:	00ca7793          	andi	a5,s4,12
   13cf4:	00c00713          	li	a4,12
   13cf8:	00e78863          	beq	a5,a4,13d08 <_ZL11follow_pathP3DIRPKc+0x4c0>
   13cfc:	003a7793          	andi	a5,s4,3
   13d00:	00300713          	li	a4,3
   13d04:	06e79a63          	bne	a5,a4,13d78 <_ZL11follow_pathP3DIRPKc+0x530>
   13d08:	0024e493          	ori	s1,s1,2
   13d0c:	0ff4f493          	zext.b	s1,s1
   13d10:	dc1ff06f          	j	13ad0 <_ZL11follow_pathP3DIRPKc+0x288>
   13d14:	15c60463          	beq	a2,t3,13e5c <_ZL11follow_pathP3DIRPKc+0x614>
   13d18:	002a1a13          	slli	s4,s4,0x2
   13d1c:	0ffa7a13          	zext.b	s4,s4
   13d20:	000d0893          	mv	a7,s10
   13d24:	00b00613          	li	a2,11
   13d28:	00800a93          	li	s5,8
   13d2c:	f95ff06f          	j	13cc0 <_ZL11follow_pathP3DIRPKc+0x478>
   13d30:	13c60663          	beq	a2,t3,13e5c <_ZL11follow_pathP3DIRPKc+0x614>
   13d34:	ff3d02e3          	beq	s10,s3,13d18 <_ZL11follow_pathP3DIRPKc+0x4d0>
   13d38:	0034e493          	ori	s1,s1,3
   13d3c:	0ff4f493          	zext.b	s1,s1
   13d40:	f93d6ae3          	bltu	s10,s3,13cd4 <_ZL11follow_pathP3DIRPKc+0x48c>
   13d44:	fd5ff06f          	j	13d18 <_ZL11follow_pathP3DIRPKc+0x4d0>
   13d48:	000b8613          	mv	a2,s7
   13d4c:	00100993          	li	s3,1
   13d50:	e31e10e3          	bne	t3,a7,13b70 <_ZL11follow_pathP3DIRPKc+0x328>
   13d54:	e15ff06f          	j	13b68 <_ZL11follow_pathP3DIRPKc+0x320>
   13d58:	002a1a13          	slli	s4,s4,0x2
   13d5c:	00ca7713          	andi	a4,s4,12
   13d60:	00c00793          	li	a5,12
   13d64:	0ffa7a13          	zext.b	s4,s4
   13d68:	faf700e3          	beq	a4,a5,13d08 <_ZL11follow_pathP3DIRPKc+0x4c0>
   13d6c:	0024f793          	andi	a5,s1,2
   13d70:	02078063          	beqz	a5,13d90 <_ZL11follow_pathP3DIRPKc+0x548>
   13d74:	d5dff06f          	j	13ad0 <_ZL11follow_pathP3DIRPKc+0x288>
   13d78:	0024f793          	andi	a5,s1,2
   13d7c:	d4079ae3          	bnez	a5,13ad0 <_ZL11follow_pathP3DIRPKc+0x288>
   13d80:	001a7793          	andi	a5,s4,1
   13d84:	00078663          	beqz	a5,13d90 <_ZL11follow_pathP3DIRPKc+0x548>
   13d88:	0104e493          	ori	s1,s1,16
   13d8c:	0ff4f493          	zext.b	s1,s1
   13d90:	004a7a13          	andi	s4,s4,4
   13d94:	d20a0ee3          	beqz	s4,13ad0 <_ZL11follow_pathP3DIRPKc+0x288>
   13d98:	0084e493          	ori	s1,s1,8
   13d9c:	0ff4f493          	zext.b	s1,s1
   13da0:	d31ff06f          	j	13ad0 <_ZL11follow_pathP3DIRPKc+0x288>
   13da4:	00090513          	mv	a0,s2
   13da8:	0024e793          	ori	a5,s1,2
   13dac:	1b500593          	li	a1,437
   13db0:	00c12e23          	sw	a2,28(sp)
   13db4:	0ff7fc93          	zext.b	s9,a5
   13db8:	5d9010ef          	jal	ra,15b90 <ff_uni2oem>
   13dbc:	08057593          	andi	a1,a0,128
   13dc0:	01c12603          	lw	a2,28(sp)
   13dc4:	00050913          	mv	s2,a0
   13dc8:	02000813          	li	a6,32
   13dcc:	02e00313          	li	t1,46
   13dd0:	00b00e13          	li	t3,11
   13dd4:	07f00e93          	li	t4,127
   13dd8:	02058263          	beqz	a1,13dfc <_ZL11follow_pathP3DIRPKc+0x5b4>
   13ddc:	07f57593          	andi	a1,a0,127
   13de0:	00005797          	auipc	a5,0x5
   13de4:	4e078793          	addi	a5,a5,1248 # 192c0 <_ZL5ExCvt>
   13de8:	00b785b3          	add	a1,a5,a1
   13dec:	0005c903          	lbu	s2,0(a1)
   13df0:	e20908e3          	beqz	s2,13c20 <_ZL11follow_pathP3DIRPKc+0x3d8>
   13df4:	000c8493          	mv	s1,s9
   13df8:	df9ff06f          	j	13bf0 <_ZL11follow_pathP3DIRPKc+0x3a8>
   13dfc:	0ff00593          	li	a1,255
   13e00:	fea5f8e3          	bgeu	a1,a0,13df0 <_ZL11follow_pathP3DIRPKc+0x5a8>
   13e04:	fff60593          	addi	a1,a2,-1
   13e08:	02baf063          	bgeu	s5,a1,13e28 <_ZL11follow_pathP3DIRPKc+0x5e0>
   13e0c:	015405b3          	add	a1,s0,s5
   13e10:	00855513          	srli	a0,a0,0x8
   13e14:	001a8a93          	addi	s5,s5,1
   13e18:	02a58023          	sb	a0,32(a1)
   13e1c:	0ff97913          	zext.b	s2,s2
   13e20:	000c8493          	mv	s1,s9
   13e24:	e09ff06f          	j	13c2c <_ZL11follow_pathP3DIRPKc+0x3e4>
   13e28:	0034e493          	ori	s1,s1,3
   13e2c:	0ff4f493          	zext.b	s1,s1
   13e30:	00098893          	mv	a7,s3
   13e34:	00060a93          	mv	s5,a2
   13e38:	e89ff06f          	j	13cc0 <_ZL11follow_pathP3DIRPKc+0x478>
   13e3c:	fbf90793          	addi	a5,s2,-65
   13e40:	01079793          	slli	a5,a5,0x10
   13e44:	0107d793          	srli	a5,a5,0x10
   13e48:	01900593          	li	a1,25
   13e4c:	02f5ee63          	bltu	a1,a5,13e88 <_ZL11follow_pathP3DIRPKc+0x640>
   13e50:	002a6a13          	ori	s4,s4,2
   13e54:	0ff97913          	zext.b	s2,s2
   13e58:	dd5ff06f          	j	13c2c <_ZL11follow_pathP3DIRPKc+0x3e4>
   13e5c:	02044703          	lbu	a4,32(s0)
   13e60:	0034e493          	ori	s1,s1,3
   13e64:	0e500793          	li	a5,229
   13e68:	0ff4f493          	zext.b	s1,s1
   13e6c:	e8f712e3          	bne	a4,a5,13cf0 <_ZL11follow_pathP3DIRPKc+0x4a8>
   13e70:	00500793          	li	a5,5
   13e74:	02f40023          	sb	a5,32(s0)
   13e78:	e79ff06f          	j	13cf0 <_ZL11follow_pathP3DIRPKc+0x4a8>
   13e7c:	b60792e3          	bnez	a5,139e0 <_ZL11follow_pathP3DIRPKc+0x198>
   13e80:	00500513          	li	a0,5
   13e84:	b5dff06f          	j	139e0 <_ZL11follow_pathP3DIRPKc+0x198>
   13e88:	f9f90793          	addi	a5,s2,-97
   13e8c:	01079793          	slli	a5,a5,0x10
   13e90:	0107d793          	srli	a5,a5,0x10
   13e94:	00f5e663          	bltu	a1,a5,13ea0 <_ZL11follow_pathP3DIRPKc+0x658>
   13e98:	fe090913          	addi	s2,s2,-32
   13e9c:	001a6a13          	ori	s4,s4,1
   13ea0:	0ff97913          	zext.b	s2,s2
   13ea4:	d89ff06f          	j	13c2c <_ZL11follow_pathP3DIRPKc+0x3e4>

00013ea8 <f_open>:
   13ea8:	f5010113          	addi	sp,sp,-176
   13eac:	0a112623          	sw	ra,172(sp)
   13eb0:	0a812423          	sw	s0,168(sp)
   13eb4:	0a912223          	sw	s1,164(sp)
   13eb8:	0b212023          	sw	s2,160(sp)
   13ebc:	09312e23          	sw	s3,156(sp)
   13ec0:	09412c23          	sw	s4,152(sp)
   13ec4:	09512a23          	sw	s5,148(sp)
   13ec8:	09612823          	sw	s6,144(sp)
   13ecc:	09712623          	sw	s7,140(sp)
   13ed0:	09812423          	sw	s8,136(sp)
   13ed4:	09912223          	sw	s9,132(sp)
   13ed8:	09a12023          	sw	s10,128(sp)
   13edc:	07b12e23          	sw	s11,124(sp)
   13ee0:	00b12e23          	sw	a1,28(sp)
   13ee4:	1e050863          	beqz	a0,140d4 <f_open+0x22c>
   13ee8:	03f67993          	andi	s3,a2,63
   13eec:	00050413          	mv	s0,a0
   13ef0:	00060493          	mv	s1,a2
   13ef4:	02810593          	addi	a1,sp,40
   13ef8:	00098613          	mv	a2,s3
   13efc:	01c10513          	addi	a0,sp,28
   13f00:	ec4fe0ef          	jal	ra,125c4 <_ZL12mount_volumePPKcPP5FATFSh>
   13f04:	00050913          	mv	s2,a0
   13f08:	04050463          	beqz	a0,13f50 <f_open+0xa8>
   13f0c:	00042023          	sw	zero,0(s0)
   13f10:	0ac12083          	lw	ra,172(sp)
   13f14:	0a812403          	lw	s0,168(sp)
   13f18:	0a412483          	lw	s1,164(sp)
   13f1c:	09c12983          	lw	s3,156(sp)
   13f20:	09812a03          	lw	s4,152(sp)
   13f24:	09412a83          	lw	s5,148(sp)
   13f28:	09012b03          	lw	s6,144(sp)
   13f2c:	08c12b83          	lw	s7,140(sp)
   13f30:	08812c03          	lw	s8,136(sp)
   13f34:	08412c83          	lw	s9,132(sp)
   13f38:	08012d03          	lw	s10,128(sp)
   13f3c:	07c12d83          	lw	s11,124(sp)
   13f40:	00090513          	mv	a0,s2
   13f44:	0a012903          	lw	s2,160(sp)
   13f48:	0b010113          	addi	sp,sp,176
   13f4c:	00008067          	ret
   13f50:	02812a03          	lw	s4,40(sp)
   13f54:	01c12583          	lw	a1,28(sp)
   13f58:	04010c93          	addi	s9,sp,64
   13f5c:	000c8513          	mv	a0,s9
   13f60:	05412023          	sw	s4,64(sp)
   13f64:	8e5ff0ef          	jal	ra,13848 <_ZL11follow_pathP3DIRPKc>
   13f68:	00050c13          	mv	s8,a0
   13f6c:	02051863          	bnez	a0,13f9c <f_open+0xf4>
   13f70:	06b10783          	lb	a5,107(sp)
   13f74:	1607c463          	bltz	a5,140dc <f_open+0x234>
   13f78:	01c4f713          	andi	a4,s1,28
   13f7c:	04614783          	lbu	a5,70(sp)
   13f80:	02070a63          	beqz	a4,13fb4 <f_open+0x10c>
   13f84:	0117f793          	andi	a5,a5,17
   13f88:	16079463          	bnez	a5,140f0 <f_open+0x248>
   13f8c:	0044f793          	andi	a5,s1,4
   13f90:	6e078063          	beqz	a5,14670 <f_open+0x7c8>
   13f94:	00800913          	li	s2,8
   13f98:	f75ff06f          	j	13f0c <f_open+0x64>
   13f9c:	01c4f493          	andi	s1,s1,28
   13fa0:	00048663          	beqz	s1,13fac <f_open+0x104>
   13fa4:	00400793          	li	a5,4
   13fa8:	14f50c63          	beq	a0,a5,14100 <f_open+0x258>
   13fac:	000c0913          	mv	s2,s8
   13fb0:	f5dff06f          	j	13f0c <f_open+0x64>
   13fb4:	0107f713          	andi	a4,a5,16
   13fb8:	14071063          	bnez	a4,140f8 <f_open+0x250>
   13fbc:	0024f713          	andi	a4,s1,2
   13fc0:	00070663          	beqz	a4,13fcc <f_open+0x124>
   13fc4:	0017f793          	andi	a5,a5,1
   13fc8:	12079463          	bnez	a5,140f0 <f_open+0x248>
   13fcc:	0084f493          	andi	s1,s1,8
   13fd0:	05c12a83          	lw	s5,92(sp)
   13fd4:	5e049663          	bnez	s1,145c0 <f_open+0x718>
   13fd8:	034a2703          	lw	a4,52(s4)
   13fdc:	03542223          	sw	s5,36(s0)
   13fe0:	00300793          	li	a5,3
   13fe4:	02e42023          	sw	a4,32(s0)
   13fe8:	01bacb03          	lbu	s6,27(s5)
   13fec:	01aac683          	lbu	a3,26(s5)
   13ff0:	000a4703          	lbu	a4,0(s4)
   13ff4:	008b1b13          	slli	s6,s6,0x8
   13ff8:	00db6b33          	or	s6,s6,a3
   13ffc:	00f71e63          	bne	a4,a5,14018 <f_open+0x170>
   14000:	015ac783          	lbu	a5,21(s5)
   14004:	014ac703          	lbu	a4,20(s5)
   14008:	00879793          	slli	a5,a5,0x8
   1400c:	00e7e7b3          	or	a5,a5,a4
   14010:	01079793          	slli	a5,a5,0x10
   14014:	00fb6b33          	or	s6,s6,a5
   14018:	01642423          	sw	s6,8(s0)
   1401c:	01dac703          	lbu	a4,29(s5)
   14020:	01cac603          	lbu	a2,28(s5)
   14024:	01eac783          	lbu	a5,30(s5)
   14028:	01fac483          	lbu	s1,31(s5)
   1402c:	00871713          	slli	a4,a4,0x8
   14030:	006a5683          	lhu	a3,6(s4)
   14034:	00c76733          	or	a4,a4,a2
   14038:	01079793          	slli	a5,a5,0x10
   1403c:	00e7e7b3          	or	a5,a5,a4
   14040:	01849493          	slli	s1,s1,0x18
   14044:	00f4e4b3          	or	s1,s1,a5
   14048:	02c40a93          	addi	s5,s0,44
   1404c:	01340823          	sb	s3,16(s0)
   14050:	00942623          	sw	s1,12(s0)
   14054:	02042423          	sw	zero,40(s0)
   14058:	01442023          	sw	s4,0(s0)
   1405c:	00d41223          	sh	a3,4(s0)
   14060:	000408a3          	sb	zero,17(s0)
   14064:	00042e23          	sw	zero,28(s0)
   14068:	00042a23          	sw	zero,20(s0)
   1406c:	20000613          	li	a2,512
   14070:	00000593          	li	a1,0
   14074:	000a8513          	mv	a0,s5
   14078:	0209f993          	andi	s3,s3,32
   1407c:	6c9020ef          	jal	ra,16f44 <memset>
   14080:	e80988e3          	beqz	s3,13f10 <f_open+0x68>
   14084:	e80486e3          	beqz	s1,13f10 <f_open+0x68>
   14088:	00aa5983          	lhu	s3,10(s4)
   1408c:	00942a23          	sw	s1,20(s0)
   14090:	00999993          	slli	s3,s3,0x9
   14094:	7499fa63          	bgeu	s3,s1,147e8 <f_open+0x940>
   14098:	000a0513          	mv	a0,s4
   1409c:	00100b93          	li	s7,1
   140a0:	fff00c13          	li	s8,-1
   140a4:	0140006f          	j	140b8 <f_open+0x210>
   140a8:	413484b3          	sub	s1,s1,s3
   140ac:	51850e63          	beq	a0,s8,145c8 <f_open+0x720>
   140b0:	7299fc63          	bgeu	s3,s1,147e8 <f_open+0x940>
   140b4:	00042503          	lw	a0,0(s0)
   140b8:	000b0593          	mv	a1,s6
   140bc:	984fe0ef          	jal	ra,12240 <_ZL7get_fatP7FFOBJIDm.isra.0>
   140c0:	00050b13          	mv	s6,a0
   140c4:	feabe2e3          	bltu	s7,a0,140a8 <f_open+0x200>
   140c8:	00200913          	li	s2,2
   140cc:	01642c23          	sw	s6,24(s0)
   140d0:	e3dff06f          	j	13f0c <f_open+0x64>
   140d4:	00900913          	li	s2,9
   140d8:	e39ff06f          	j	13f10 <f_open+0x68>
   140dc:	00600913          	li	s2,6
   140e0:	e2dff06f          	j	13f0c <f_open+0x64>
   140e4:	00070b13          	mv	s6,a4
   140e8:	00400713          	li	a4,4
   140ec:	7eeb1863          	bne	s6,a4,148dc <f_open+0xa34>
   140f0:	00700913          	li	s2,7
   140f4:	e19ff06f          	j	13f0c <f_open+0x64>
   140f8:	00400913          	li	s2,4
   140fc:	e11ff06f          	j	13f0c <f_open+0x64>
   14100:	06b14783          	lbu	a5,107(sp)
   14104:	04012703          	lw	a4,64(sp)
   14108:	00f12c23          	sw	a5,24(sp)
   1410c:	00e12a23          	sw	a4,20(sp)
   14110:	0a07f793          	andi	a5,a5,160
   14114:	fc0794e3          	bnez	a5,140dc <f_open+0x234>
   14118:	00c72783          	lw	a5,12(a4)
   1411c:	0007d703          	lhu	a4,0(a5)
   14120:	420706e3          	beqz	a4,14d4c <f_open+0xea4>
   14124:	00278793          	addi	a5,a5,2
   14128:	00000a93          	li	s5,0
   1412c:	0007d703          	lhu	a4,0(a5)
   14130:	001a8a93          	addi	s5,s5,1
   14134:	00278793          	addi	a5,a5,2
   14138:	fe071ae3          	bnez	a4,1412c <f_open+0x284>
   1413c:	06012783          	lw	a5,96(sp)
   14140:	02f12a23          	sw	a5,52(sp)
   14144:	06412783          	lw	a5,100(sp)
   14148:	02f12c23          	sw	a5,56(sp)
   1414c:	06812783          	lw	a5,104(sp)
   14150:	02f12e23          	sw	a5,60(sp)
   14154:	01812783          	lw	a5,24(sp)
   14158:	0017f793          	andi	a5,a5,1
   1415c:	6e078663          	beqz	a5,14848 <f_open+0x9a0>
   14160:	03c15683          	lhu	a3,60(sp)
   14164:	03e14783          	lbu	a5,62(sp)
   14168:	04000713          	li	a4,64
   1416c:	06e105a3          	sb	a4,107(sp)
   14170:	00011bb7          	lui	s7,0x11
   14174:	06010893          	addi	a7,sp,96
   14178:	03410e13          	addi	t3,sp,52
   1417c:	00100813          	li	a6,1
   14180:	00100713          	li	a4,1
   14184:	03900d13          	li	s10,57
   14188:	00f00d93          	li	s11,15
   1418c:	02000313          	li	t1,32
   14190:	000104b7          	lui	s1,0x10
   14194:	021b8b93          	addi	s7,s7,33 # 11021 <_Z11DrawDecimaliil+0x13d>
   14198:	00d89423          	sh	a3,8(a7)
   1419c:	00f88523          	sb	a5,10(a7)
   141a0:	00f77613          	andi	a2,a4,15
   141a4:	03060793          	addi	a5,a2,48
   141a8:	00475693          	srli	a3,a4,0x4
   141ac:	00fd7463          	bgeu	s10,a5,141b4 <f_open+0x30c>
   141b0:	03760793          	addi	a5,a2,55
   141b4:	02f109a3          	sb	a5,51(sp)
   141b8:	02edf4e3          	bgeu	s11,a4,149e0 <f_open+0xb38>
   141bc:	00f6f593          	andi	a1,a3,15
   141c0:	03058793          	addi	a5,a1,48
   141c4:	00875613          	srli	a2,a4,0x8
   141c8:	00fd7463          	bgeu	s10,a5,141d0 <f_open+0x328>
   141cc:	03758793          	addi	a5,a1,55
   141d0:	02f10923          	sb	a5,50(sp)
   141d4:	7addfc63          	bgeu	s11,a3,1498c <f_open+0xae4>
   141d8:	00f67593          	andi	a1,a2,15
   141dc:	03058793          	addi	a5,a1,48
   141e0:	00c75693          	srli	a3,a4,0xc
   141e4:	00fd7463          	bgeu	s10,a5,141ec <f_open+0x344>
   141e8:	03758793          	addi	a5,a1,55
   141ec:	02f108a3          	sb	a5,49(sp)
   141f0:	36cdf6e3          	bgeu	s11,a2,14d5c <f_open+0xeb4>
   141f4:	00f6f593          	andi	a1,a3,15
   141f8:	03058793          	addi	a5,a1,48
   141fc:	01075613          	srli	a2,a4,0x10
   14200:	00fd7463          	bgeu	s10,a5,14208 <f_open+0x360>
   14204:	03758793          	addi	a5,a1,55
   14208:	02f10823          	sb	a5,48(sp)
   1420c:	06ddf2e3          	bgeu	s11,a3,14a70 <f_open+0xbc8>
   14210:	00f67693          	andi	a3,a2,15
   14214:	03068793          	addi	a5,a3,48
   14218:	01475593          	srli	a1,a4,0x14
   1421c:	00fd7463          	bgeu	s10,a5,14224 <f_open+0x37c>
   14220:	03768793          	addi	a5,a3,55
   14224:	02f107a3          	sb	a5,47(sp)
   14228:	7ecdf863          	bgeu	s11,a2,14a18 <f_open+0xb70>
   1422c:	00f5f613          	andi	a2,a1,15
   14230:	03060693          	addi	a3,a2,48
   14234:	01875793          	srli	a5,a4,0x18
   14238:	00dd7463          	bgeu	s10,a3,14240 <f_open+0x398>
   1423c:	03760693          	addi	a3,a2,55
   14240:	02d10723          	sb	a3,46(sp)
   14244:	04bdfee3          	bgeu	s11,a1,14aa0 <f_open+0xbf8>
   14248:	00f7f793          	andi	a5,a5,15
   1424c:	03078713          	addi	a4,a5,48
   14250:	00ed7463          	bgeu	s10,a4,14258 <f_open+0x3b0>
   14254:	03778713          	addi	a4,a5,55
   14258:	07e00793          	li	a5,126
   1425c:	02e106a3          	sb	a4,45(sp)
   14260:	02f10623          	sb	a5,44(sp)
   14264:	02c15683          	lhu	a3,44(sp)
   14268:	00200713          	li	a4,2
   1426c:	00200793          	li	a5,2
   14270:	06d11023          	sh	a3,96(sp)
   14274:	00800693          	li	a3,8
   14278:	34d70e63          	beq	a4,a3,145d4 <f_open+0x72c>
   1427c:	01010593          	addi	a1,sp,16
   14280:	06070613          	addi	a2,a4,96
   14284:	00b60633          	add	a2,a2,a1
   14288:	fbc64503          	lbu	a0,-68(a2)
   1428c:	06078593          	addi	a1,a5,96
   14290:	01010e93          	addi	t4,sp,16
   14294:	01d585b3          	add	a1,a1,t4
   14298:	fea58823          	sb	a0,-16(a1)
   1429c:	00178613          	addi	a2,a5,1
   142a0:	00170593          	addi	a1,a4,1
   142a4:	0ad60a63          	beq	a2,a3,14358 <f_open+0x4b0>
   142a8:	36d58a63          	beq	a1,a3,1461c <f_open+0x774>
   142ac:	06058593          	addi	a1,a1,96
   142b0:	01d585b3          	add	a1,a1,t4
   142b4:	fbc5c503          	lbu	a0,-68(a1)
   142b8:	06060613          	addi	a2,a2,96
   142bc:	01d60633          	add	a2,a2,t4
   142c0:	fea60823          	sb	a0,-16(a2)
   142c4:	00278593          	addi	a1,a5,2
   142c8:	00270613          	addi	a2,a4,2
   142cc:	08d58663          	beq	a1,a3,14358 <f_open+0x4b0>
   142d0:	36d60463          	beq	a2,a3,14638 <f_open+0x790>
   142d4:	06060613          	addi	a2,a2,96
   142d8:	01d60633          	add	a2,a2,t4
   142dc:	fbc64503          	lbu	a0,-68(a2)
   142e0:	06058613          	addi	a2,a1,96
   142e4:	01d605b3          	add	a1,a2,t4
   142e8:	fea58823          	sb	a0,-16(a1)
   142ec:	00378613          	addi	a2,a5,3
   142f0:	00370593          	addi	a1,a4,3
   142f4:	06d60263          	beq	a2,a3,14358 <f_open+0x4b0>
   142f8:	34d58e63          	beq	a1,a3,14654 <f_open+0x7ac>
   142fc:	06058593          	addi	a1,a1,96
   14300:	01d585b3          	add	a1,a1,t4
   14304:	fbc5c503          	lbu	a0,-68(a1)
   14308:	06060613          	addi	a2,a2,96
   1430c:	01d60633          	add	a2,a2,t4
   14310:	fea60823          	sb	a0,-16(a2)
   14314:	00478593          	addi	a1,a5,4
   14318:	00470613          	addi	a2,a4,4
   1431c:	02d58e63          	beq	a1,a3,14358 <f_open+0x4b0>
   14320:	4ad60463          	beq	a2,a3,147c8 <f_open+0x920>
   14324:	06470793          	addi	a5,a4,100
   14328:	01d78633          	add	a2,a5,t4
   1432c:	fbc64603          	lbu	a2,-68(a2)
   14330:	06058793          	addi	a5,a1,96
   14334:	01d786b3          	add	a3,a5,t4
   14338:	fec68823          	sb	a2,-16(a3)
   1433c:	00600793          	li	a5,6
   14340:	00f59c63          	bne	a1,a5,14358 <f_open+0x4b0>
   14344:	00200693          	li	a3,2
   14348:	02000793          	li	a5,32
   1434c:	00d71463          	bne	a4,a3,14354 <f_open+0x4ac>
   14350:	03314783          	lbu	a5,51(sp)
   14354:	06f103a3          	sb	a5,103(sp)
   14358:	000c8513          	mv	a0,s9
   1435c:	01c12823          	sw	t3,16(sp)
   14360:	01112623          	sw	a7,12(sp)
   14364:	01012423          	sw	a6,8(sp)
   14368:	810ff0ef          	jal	ra,13378 <_ZL8dir_findP3DIR>
   1436c:	00050b13          	mv	s6,a0
   14370:	60051263          	bnez	a0,14974 <f_open+0xacc>
   14374:	00812803          	lw	a6,8(sp)
   14378:	06400793          	li	a5,100
   1437c:	00c12883          	lw	a7,12(sp)
   14380:	00180813          	addi	a6,a6,1
   14384:	01012e03          	lw	t3,16(sp)
   14388:	02000313          	li	t1,32
   1438c:	d6f802e3          	beq	a6,a5,140f0 <f_open+0x248>
   14390:	008e5703          	lhu	a4,8(t3)
   14394:	000e2603          	lw	a2,0(t3)
   14398:	00ae4783          	lbu	a5,10(t3)
   1439c:	004e2683          	lw	a3,4(t3)
   143a0:	00e89423          	sh	a4,8(a7)
   143a4:	01412703          	lw	a4,20(sp)
   143a8:	00c8a023          	sw	a2,0(a7)
   143ac:	00f88523          	sb	a5,10(a7)
   143b0:	00d8a223          	sw	a3,4(a7)
   143b4:	00500793          	li	a5,5
   143b8:	00c72603          	lw	a2,12(a4)
   143bc:	00080713          	mv	a4,a6
   143c0:	df07f0e3          	bgeu	a5,a6,141a0 <f_open+0x2f8>
   143c4:	00065783          	lhu	a5,0(a2)
   143c8:	dc078ce3          	beqz	a5,141a0 <f_open+0x2f8>
   143cc:	0017f713          	andi	a4,a5,1
   143d0:	00181693          	slli	a3,a6,0x1
   143d4:	00e686b3          	add	a3,a3,a4
   143d8:	00260613          	addi	a2,a2,2
   143dc:	0017d713          	srli	a4,a5,0x1
   143e0:	00169693          	slli	a3,a3,0x1
   143e4:	00177713          	andi	a4,a4,1
   143e8:	00d70733          	add	a4,a4,a3
   143ec:	009775b3          	and	a1,a4,s1
   143f0:	0027d693          	srli	a3,a5,0x2
   143f4:	00058463          	beqz	a1,143fc <f_open+0x554>
   143f8:	01774733          	xor	a4,a4,s7
   143fc:	00171713          	slli	a4,a4,0x1
   14400:	0016f693          	andi	a3,a3,1
   14404:	00e686b3          	add	a3,a3,a4
   14408:	0096f5b3          	and	a1,a3,s1
   1440c:	0037d713          	srli	a4,a5,0x3
   14410:	00058463          	beqz	a1,14418 <f_open+0x570>
   14414:	0176c6b3          	xor	a3,a3,s7
   14418:	00169693          	slli	a3,a3,0x1
   1441c:	00177713          	andi	a4,a4,1
   14420:	00d70733          	add	a4,a4,a3
   14424:	009775b3          	and	a1,a4,s1
   14428:	0047d693          	srli	a3,a5,0x4
   1442c:	00058463          	beqz	a1,14434 <f_open+0x58c>
   14430:	01774733          	xor	a4,a4,s7
   14434:	00171713          	slli	a4,a4,0x1
   14438:	0016f693          	andi	a3,a3,1
   1443c:	00e686b3          	add	a3,a3,a4
   14440:	0096f5b3          	and	a1,a3,s1
   14444:	0057d713          	srli	a4,a5,0x5
   14448:	00058463          	beqz	a1,14450 <f_open+0x5a8>
   1444c:	0176c6b3          	xor	a3,a3,s7
   14450:	00169693          	slli	a3,a3,0x1
   14454:	00177713          	andi	a4,a4,1
   14458:	00d70733          	add	a4,a4,a3
   1445c:	009775b3          	and	a1,a4,s1
   14460:	0067d693          	srli	a3,a5,0x6
   14464:	00058463          	beqz	a1,1446c <f_open+0x5c4>
   14468:	01774733          	xor	a4,a4,s7
   1446c:	00171713          	slli	a4,a4,0x1
   14470:	0016f693          	andi	a3,a3,1
   14474:	00e686b3          	add	a3,a3,a4
   14478:	0096f5b3          	and	a1,a3,s1
   1447c:	0077d713          	srli	a4,a5,0x7
   14480:	00058463          	beqz	a1,14488 <f_open+0x5e0>
   14484:	0176c6b3          	xor	a3,a3,s7
   14488:	00169693          	slli	a3,a3,0x1
   1448c:	00177713          	andi	a4,a4,1
   14490:	00d70733          	add	a4,a4,a3
   14494:	009775b3          	and	a1,a4,s1
   14498:	0087d693          	srli	a3,a5,0x8
   1449c:	00058463          	beqz	a1,144a4 <f_open+0x5fc>
   144a0:	01774733          	xor	a4,a4,s7
   144a4:	00171713          	slli	a4,a4,0x1
   144a8:	0016f693          	andi	a3,a3,1
   144ac:	00e686b3          	add	a3,a3,a4
   144b0:	0096f5b3          	and	a1,a3,s1
   144b4:	0097d713          	srli	a4,a5,0x9
   144b8:	00058463          	beqz	a1,144c0 <f_open+0x618>
   144bc:	0176c6b3          	xor	a3,a3,s7
   144c0:	00169693          	slli	a3,a3,0x1
   144c4:	00177713          	andi	a4,a4,1
   144c8:	00d70733          	add	a4,a4,a3
   144cc:	009775b3          	and	a1,a4,s1
   144d0:	00a7d693          	srli	a3,a5,0xa
   144d4:	00058463          	beqz	a1,144dc <f_open+0x634>
   144d8:	01774733          	xor	a4,a4,s7
   144dc:	00171713          	slli	a4,a4,0x1
   144e0:	0016f693          	andi	a3,a3,1
   144e4:	00e686b3          	add	a3,a3,a4
   144e8:	0096f5b3          	and	a1,a3,s1
   144ec:	00b7d713          	srli	a4,a5,0xb
   144f0:	00058463          	beqz	a1,144f8 <f_open+0x650>
   144f4:	0176c6b3          	xor	a3,a3,s7
   144f8:	00169693          	slli	a3,a3,0x1
   144fc:	00177713          	andi	a4,a4,1
   14500:	00d70733          	add	a4,a4,a3
   14504:	009775b3          	and	a1,a4,s1
   14508:	00c7d693          	srli	a3,a5,0xc
   1450c:	00058463          	beqz	a1,14514 <f_open+0x66c>
   14510:	01774733          	xor	a4,a4,s7
   14514:	00171713          	slli	a4,a4,0x1
   14518:	0016f693          	andi	a3,a3,1
   1451c:	00e686b3          	add	a3,a3,a4
   14520:	0096f5b3          	and	a1,a3,s1
   14524:	00d7d713          	srli	a4,a5,0xd
   14528:	00058463          	beqz	a1,14530 <f_open+0x688>
   1452c:	0176c6b3          	xor	a3,a3,s7
   14530:	00169693          	slli	a3,a3,0x1
   14534:	00177713          	andi	a4,a4,1
   14538:	00d70733          	add	a4,a4,a3
   1453c:	009775b3          	and	a1,a4,s1
   14540:	00e7d693          	srli	a3,a5,0xe
   14544:	00058463          	beqz	a1,1454c <f_open+0x6a4>
   14548:	01774733          	xor	a4,a4,s7
   1454c:	00171713          	slli	a4,a4,0x1
   14550:	0016f693          	andi	a3,a3,1
   14554:	00e686b3          	add	a3,a3,a4
   14558:	0096f5b3          	and	a1,a3,s1
   1455c:	00f7d713          	srli	a4,a5,0xf
   14560:	00058463          	beqz	a1,14568 <f_open+0x6c0>
   14564:	0176c6b3          	xor	a3,a3,s7
   14568:	00169693          	slli	a3,a3,0x1
   1456c:	00d70733          	add	a4,a4,a3
   14570:	009777b3          	and	a5,a4,s1
   14574:	00078463          	beqz	a5,1457c <f_open+0x6d4>
   14578:	01774733          	xor	a4,a4,s7
   1457c:	00065783          	lhu	a5,0(a2)
   14580:	c20780e3          	beqz	a5,141a0 <f_open+0x2f8>
   14584:	00171713          	slli	a4,a4,0x1
   14588:	0017f693          	andi	a3,a5,1
   1458c:	00e686b3          	add	a3,a3,a4
   14590:	0096f5b3          	and	a1,a3,s1
   14594:	00260613          	addi	a2,a2,2
   14598:	0017d713          	srli	a4,a5,0x1
   1459c:	e40582e3          	beqz	a1,143e0 <f_open+0x538>
   145a0:	0176c6b3          	xor	a3,a3,s7
   145a4:	00169693          	slli	a3,a3,0x1
   145a8:	00177713          	andi	a4,a4,1
   145ac:	00d70733          	add	a4,a4,a3
   145b0:	009775b3          	and	a1,a4,s1
   145b4:	0027d693          	srli	a3,a5,0x2
   145b8:	e40582e3          	beqz	a1,143fc <f_open+0x554>
   145bc:	e3dff06f          	j	143f8 <f_open+0x550>
   145c0:	0409e993          	ori	s3,s3,64
   145c4:	a15ff06f          	j	13fd8 <f_open+0x130>
   145c8:	00100913          	li	s2,1
   145cc:	01642c23          	sw	s6,24(s0)
   145d0:	93dff06f          	j	13f0c <f_open+0x64>
   145d4:	06078693          	addi	a3,a5,96
   145d8:	01010613          	addi	a2,sp,16
   145dc:	00c686b3          	add	a3,a3,a2
   145e0:	00178513          	addi	a0,a5,1
   145e4:	fe668823          	sb	t1,-16(a3)
   145e8:	d6e508e3          	beq	a0,a4,14358 <f_open+0x4b0>
   145ec:	00800613          	li	a2,8
   145f0:	40a60633          	sub	a2,a2,a0
   145f4:	02000593          	li	a1,32
   145f8:	00a88533          	add	a0,a7,a0
   145fc:	01c12823          	sw	t3,16(sp)
   14600:	01012623          	sw	a6,12(sp)
   14604:	01112423          	sw	a7,8(sp)
   14608:	13d020ef          	jal	ra,16f44 <memset>
   1460c:	01012e03          	lw	t3,16(sp)
   14610:	00c12803          	lw	a6,12(sp)
   14614:	00812883          	lw	a7,8(sp)
   14618:	d41ff06f          	j	14358 <f_open+0x4b0>
   1461c:	06060713          	addi	a4,a2,96
   14620:	01010693          	addi	a3,sp,16
   14624:	00d70633          	add	a2,a4,a3
   14628:	00278513          	addi	a0,a5,2
   1462c:	fe660823          	sb	t1,-16(a2)
   14630:	fab51ee3          	bne	a0,a1,145ec <f_open+0x744>
   14634:	d25ff06f          	j	14358 <f_open+0x4b0>
   14638:	06058713          	addi	a4,a1,96
   1463c:	01010693          	addi	a3,sp,16
   14640:	00d705b3          	add	a1,a4,a3
   14644:	00378513          	addi	a0,a5,3
   14648:	fe658823          	sb	t1,-16(a1)
   1464c:	fac510e3          	bne	a0,a2,145ec <f_open+0x744>
   14650:	d09ff06f          	j	14358 <f_open+0x4b0>
   14654:	06060713          	addi	a4,a2,96
   14658:	01010693          	addi	a3,sp,16
   1465c:	00d70633          	add	a2,a4,a3
   14660:	00478513          	addi	a0,a5,4
   14664:	fe660823          	sb	t1,-16(a2)
   14668:	f8b512e3          	bne	a0,a1,145ec <f_open+0x744>
   1466c:	cedff06f          	j	14358 <f_open+0x4b0>
   14670:	05c12783          	lw	a5,92(sp)
   14674:	0084f493          	andi	s1,s1,8
   14678:	00078a93          	mv	s5,a5
   1467c:	94048ee3          	beqz	s1,13fd8 <f_open+0x130>
   14680:	02100693          	li	a3,33
   14684:	05200713          	li	a4,82
   14688:	00e788a3          	sb	a4,17(a5)
   1468c:	00e78ca3          	sb	a4,25(a5)
   14690:	01b7c483          	lbu	s1,27(a5)
   14694:	00078723          	sb	zero,14(a5)
   14698:	000787a3          	sb	zero,15(a5)
   1469c:	00d78823          	sb	a3,16(a5)
   146a0:	00078b23          	sb	zero,22(a5)
   146a4:	00078ba3          	sb	zero,23(a5)
   146a8:	00d78c23          	sb	a3,24(a5)
   146ac:	01a7c603          	lbu	a2,26(a5)
   146b0:	000a4683          	lbu	a3,0(s4)
   146b4:	00849493          	slli	s1,s1,0x8
   146b8:	00300713          	li	a4,3
   146bc:	00078a93          	mv	s5,a5
   146c0:	00c4e4b3          	or	s1,s1,a2
   146c4:	00e69e63          	bne	a3,a4,146e0 <f_open+0x838>
   146c8:	0157c703          	lbu	a4,21(a5)
   146cc:	0147c683          	lbu	a3,20(a5)
   146d0:	00871713          	slli	a4,a4,0x8
   146d4:	00d76733          	or	a4,a4,a3
   146d8:	01071713          	slli	a4,a4,0x10
   146dc:	00e4e4b3          	or	s1,s1,a4
   146e0:	02000713          	li	a4,32
   146e4:	00e785a3          	sb	a4,11(a5)
   146e8:	00078d23          	sb	zero,26(a5)
   146ec:	00078da3          	sb	zero,27(a5)
   146f0:	000a4683          	lbu	a3,0(s4)
   146f4:	00300713          	li	a4,3
   146f8:	00e69663          	bne	a3,a4,14704 <f_open+0x85c>
   146fc:	00078a23          	sb	zero,20(a5)
   14700:	00078aa3          	sb	zero,21(a5)
   14704:	00078e23          	sb	zero,28(a5)
   14708:	00078ea3          	sb	zero,29(a5)
   1470c:	00078f23          	sb	zero,30(a5)
   14710:	00078fa3          	sb	zero,31(a5)
   14714:	00100793          	li	a5,1
   14718:	00fa01a3          	sb	a5,3(s4)
   1471c:	ea0482e3          	beqz	s1,145c0 <f_open+0x718>
   14720:	034a2c03          	lw	s8,52(s4)
   14724:	04012b83          	lw	s7,64(sp)
   14728:	0ef48863          	beq	s1,a5,14818 <f_open+0x970>
   1472c:	01cba783          	lw	a5,28(s7)
   14730:	0ef4f463          	bgeu	s1,a5,14818 <f_open+0x970>
   14734:	00048b13          	mv	s6,s1
   14738:	00100d13          	li	s10,1
   1473c:	fff00c93          	li	s9,-1
   14740:	000b0593          	mv	a1,s6
   14744:	000b8513          	mv	a0,s7
   14748:	af9fd0ef          	jal	ra,12240 <_ZL7get_fatP7FFOBJIDm.isra.0>
   1474c:	00050713          	mv	a4,a0
   14750:	000b0793          	mv	a5,s6
   14754:	000b0593          	mv	a1,s6
   14758:	00000613          	li	a2,0
   1475c:	000b8513          	mv	a0,s7
   14760:	00070b13          	mv	s6,a4
   14764:	04070263          	beqz	a4,147a8 <f_open+0x900>
   14768:	0ba70863          	beq	a4,s10,14818 <f_open+0x970>
   1476c:	0d970a63          	beq	a4,s9,14840 <f_open+0x998>
   14770:	01cba703          	lw	a4,28(s7)
   14774:	0ae7f263          	bgeu	a5,a4,14818 <f_open+0x970>
   14778:	8b9fd0ef          	jal	ra,12030 <_ZL7put_fatP5FATFSmm.part.0>
   1477c:	78051663          	bnez	a0,14f08 <f_open+0x1060>
   14780:	01cba703          	lw	a4,28(s7)
   14784:	014ba783          	lw	a5,20(s7)
   14788:	ffe70613          	addi	a2,a4,-2
   1478c:	00178693          	addi	a3,a5,1
   14790:	00c7fa63          	bgeu	a5,a2,147a4 <f_open+0x8fc>
   14794:	004bc783          	lbu	a5,4(s7)
   14798:	00dbaa23          	sw	a3,20(s7)
   1479c:	0017e793          	ori	a5,a5,1
   147a0:	00fb8223          	sb	a5,4(s7)
   147a4:	f8eb6ee3          	bltu	s6,a4,14740 <f_open+0x898>
   147a8:	000c0593          	mv	a1,s8
   147ac:	000a0513          	mv	a0,s4
   147b0:	fff48493          	addi	s1,s1,-1 # ffff <main-0x75>
   147b4:	fb4fd0ef          	jal	ra,11f68 <_ZL11move_windowP5FATFSm>
   147b8:	009a2823          	sw	s1,16(s4)
   147bc:	e00502e3          	beqz	a0,145c0 <f_open+0x718>
   147c0:	00050913          	mv	s2,a0
   147c4:	f48ff06f          	j	13f0c <f_open+0x64>
   147c8:	06058713          	addi	a4,a1,96
   147cc:	01010693          	addi	a3,sp,16
   147d0:	00d705b3          	add	a1,a4,a3
   147d4:	fe658823          	sb	t1,-16(a1)
   147d8:	00300713          	li	a4,3
   147dc:	00700513          	li	a0,7
   147e0:	e0e796e3          	bne	a5,a4,145ec <f_open+0x744>
   147e4:	b75ff06f          	j	14358 <f_open+0x4b0>
   147e8:	01642c23          	sw	s6,24(s0)
   147ec:	1ff4f793          	andi	a5,s1,511
   147f0:	f2078063          	beqz	a5,13f10 <f_open+0x68>
   147f4:	01ca2783          	lw	a5,28(s4)
   147f8:	ffeb0b13          	addi	s6,s6,-2
   147fc:	ffe78793          	addi	a5,a5,-2
   14800:	00fb7c63          	bgeu	s6,a5,14818 <f_open+0x970>
   14804:	00aa5783          	lhu	a5,10(s4)
   14808:	030a2703          	lw	a4,48(s4)
   1480c:	036787b3          	mul	a5,a5,s6
   14810:	00e787b3          	add	a5,a5,a4
   14814:	00079663          	bnez	a5,14820 <f_open+0x978>
   14818:	00200913          	li	s2,2
   1481c:	ef0ff06f          	j	13f0c <f_open+0x64>
   14820:	0094d613          	srli	a2,s1,0x9
   14824:	00f60633          	add	a2,a2,a5
   14828:	00c42e23          	sw	a2,28(s0)
   1482c:	001a4503          	lbu	a0,1(s4)
   14830:	00100693          	li	a3,1
   14834:	000a8593          	mv	a1,s5
   14838:	59c010ef          	jal	ra,15dd4 <disk_read>
   1483c:	ec050a63          	beqz	a0,13f10 <f_open+0x68>
   14840:	00100913          	li	s2,1
   14844:	ec8ff06f          	j	13f0c <f_open+0x64>
   14848:	01412b83          	lw	s7,20(sp)
   1484c:	01812783          	lw	a5,24(sp)
   14850:	0027fb13          	andi	s6,a5,2
   14854:	1a0b0c63          	beqz	s6,14a0c <f_open+0xb64>
   14858:	00ca8e93          	addi	t4,s5,12
   1485c:	00d00793          	li	a5,13
   14860:	02fed4b3          	divu	s1,t4,a5
   14864:	00148c13          	addi	s8,s1,1
   14868:	00000593          	li	a1,0
   1486c:	000c8513          	mv	a0,s9
   14870:	85dfe0ef          	jal	ra,130cc <_ZL7dir_sdiP3DIRm>
   14874:	00050b13          	mv	s6,a0
   14878:	860518e3          	bnez	a0,140e8 <f_open+0x240>
   1487c:	0e500a93          	li	s5,229
   14880:	0140006f          	j	14894 <f_open+0x9ec>
   14884:	02070e63          	beqz	a4,148c0 <f_open+0xa18>
   14888:	00000b13          	li	s6,0
   1488c:	df0fe0ef          	jal	ra,12e7c <_ZL8dir_nextP3DIRi>
   14890:	4c051263          	bnez	a0,14d54 <f_open+0xeac>
   14894:	05812583          	lw	a1,88(sp)
   14898:	000b8513          	mv	a0,s7
   1489c:	001b0b13          	addi	s6,s6,1
   148a0:	ec8fd0ef          	jal	ra,11f68 <_ZL11move_windowP5FATFSm>
   148a4:	00050713          	mv	a4,a0
   148a8:	00100593          	li	a1,1
   148ac:	000c8513          	mv	a0,s9
   148b0:	82071ae3          	bnez	a4,140e4 <f_open+0x23c>
   148b4:	05c12703          	lw	a4,92(sp)
   148b8:	00074703          	lbu	a4,0(a4)
   148bc:	fd5714e3          	bne	a4,s5,14884 <f_open+0x9dc>
   148c0:	fd6c16e3          	bne	s8,s6,1488c <f_open+0x9e4>
   148c4:	20049a63          	bnez	s1,14ad8 <f_open+0xc30>
   148c8:	05812583          	lw	a1,88(sp)
   148cc:	01412503          	lw	a0,20(sp)
   148d0:	e98fd0ef          	jal	ra,11f68 <_ZL11move_windowP5FATFSm>
   148d4:	00050b13          	mv	s6,a0
   148d8:	00050663          	beqz	a0,148e4 <f_open+0xa3c>
   148dc:	000b0913          	mv	s2,s6
   148e0:	e2cff06f          	j	13f0c <f_open+0x64>
   148e4:	05c12483          	lw	s1,92(sp)
   148e8:	01800613          	li	a2,24
   148ec:	00000593          	li	a1,0
   148f0:	00848513          	addi	a0,s1,8
   148f4:	650020ef          	jal	ra,16f44 <memset>
   148f8:	06914683          	lbu	a3,105(sp)
   148fc:	06b14783          	lbu	a5,107(sp)
   14900:	06a14703          	lbu	a4,106(sp)
   14904:	06014f03          	lbu	t5,96(sp)
   14908:	06114e83          	lbu	t4,97(sp)
   1490c:	06214e03          	lbu	t3,98(sp)
   14910:	06314303          	lbu	t1,99(sp)
   14914:	06414883          	lbu	a7,100(sp)
   14918:	06514803          	lbu	a6,101(sp)
   1491c:	06614503          	lbu	a0,102(sp)
   14920:	06714583          	lbu	a1,103(sp)
   14924:	06814603          	lbu	a2,104(sp)
   14928:	00d484a3          	sb	a3,9(s1)
   1492c:	01412683          	lw	a3,20(sp)
   14930:	0187f793          	andi	a5,a5,24
   14934:	00e48523          	sb	a4,10(s1)
   14938:	00f48623          	sb	a5,12(s1)
   1493c:	01e48023          	sb	t5,0(s1)
   14940:	01d480a3          	sb	t4,1(s1)
   14944:	01c48123          	sb	t3,2(s1)
   14948:	006481a3          	sb	t1,3(s1)
   1494c:	01148223          	sb	a7,4(s1)
   14950:	010482a3          	sb	a6,5(s1)
   14954:	00a48323          	sb	a0,6(s1)
   14958:	00b483a3          	sb	a1,7(s1)
   1495c:	00c48423          	sb	a2,8(s1)
   14960:	00100713          	li	a4,1
   14964:	05c12783          	lw	a5,92(sp)
   14968:	00e681a3          	sb	a4,3(a3)
   1496c:	0089e993          	ori	s3,s3,8
   14970:	d11ff06f          	j	14680 <f_open+0x7d8>
   14974:	00400713          	li	a4,4
   14978:	f6e512e3          	bne	a0,a4,148dc <f_open+0xa34>
   1497c:	01812783          	lw	a5,24(sp)
   14980:	04012b83          	lw	s7,64(sp)
   14984:	06f105a3          	sb	a5,107(sp)
   14988:	ec5ff06f          	j	1484c <f_open+0x9a4>
   1498c:	06014783          	lbu	a5,96(sp)
   14990:	07e00713          	li	a4,126
   14994:	02e108a3          	sb	a4,49(sp)
   14998:	58678e63          	beq	a5,t1,14f34 <f_open+0x108c>
   1499c:	06114783          	lbu	a5,97(sp)
   149a0:	58678463          	beq	a5,t1,14f28 <f_open+0x1080>
   149a4:	06214783          	lbu	a5,98(sp)
   149a8:	00500713          	li	a4,5
   149ac:	04678c63          	beq	a5,t1,14a04 <f_open+0xb5c>
   149b0:	06314783          	lbu	a5,99(sp)
   149b4:	3c678c63          	beq	a5,t1,14d8c <f_open+0xee4>
   149b8:	06414783          	lbu	a5,100(sp)
   149bc:	10678663          	beq	a5,t1,14ac8 <f_open+0xc20>
   149c0:	00600793          	li	a5,6
   149c4:	0ef71c63          	bne	a4,a5,14abc <f_open+0xc14>
   149c8:	06514783          	lbu	a5,101(sp)
   149cc:	10678263          	beq	a5,t1,14ad0 <f_open+0xc28>
   149d0:	03214703          	lbu	a4,50(sp)
   149d4:	03314783          	lbu	a5,51(sp)
   149d8:	06e10323          	sb	a4,102(sp)
   149dc:	979ff06f          	j	14354 <f_open+0x4ac>
   149e0:	06014783          	lbu	a5,96(sp)
   149e4:	07e00713          	li	a4,126
   149e8:	02e10923          	sb	a4,50(sp)
   149ec:	56678063          	beq	a5,t1,14f4c <f_open+0x10a4>
   149f0:	06114783          	lbu	a5,97(sp)
   149f4:	54678663          	beq	a5,t1,14f40 <f_open+0x1098>
   149f8:	06214783          	lbu	a5,98(sp)
   149fc:	00600713          	li	a4,6
   14a00:	fa6798e3          	bne	a5,t1,149b0 <f_open+0xb08>
   14a04:	00200793          	li	a5,2
   14a08:	0340006f          	j	14a3c <f_open+0xb94>
   14a0c:	00000493          	li	s1,0
   14a10:	00100c13          	li	s8,1
   14a14:	e55ff06f          	j	14868 <f_open+0x9c0>
   14a18:	06014783          	lbu	a5,96(sp)
   14a1c:	07e00713          	li	a4,126
   14a20:	02e10723          	sb	a4,46(sp)
   14a24:	36678863          	beq	a5,t1,14d94 <f_open+0xeec>
   14a28:	06114783          	lbu	a5,97(sp)
   14a2c:	00200713          	li	a4,2
   14a30:	406787b3          	sub	a5,a5,t1
   14a34:	00f037b3          	snez	a5,a5
   14a38:	00178793          	addi	a5,a5,1
   14a3c:	06070693          	addi	a3,a4,96
   14a40:	01010613          	addi	a2,sp,16
   14a44:	00c686b3          	add	a3,a3,a2
   14a48:	fbc6c583          	lbu	a1,-68(a3)
   14a4c:	fbd6c603          	lbu	a2,-67(a3)
   14a50:	01010513          	addi	a0,sp,16
   14a54:	06078693          	addi	a3,a5,96
   14a58:	00a686b3          	add	a3,a3,a0
   14a5c:	feb68823          	sb	a1,-16(a3)
   14a60:	00270713          	addi	a4,a4,2
   14a64:	00278793          	addi	a5,a5,2
   14a68:	fec688a3          	sb	a2,-15(a3)
   14a6c:	809ff06f          	j	14274 <f_open+0x3cc>
   14a70:	06014783          	lbu	a5,96(sp)
   14a74:	07e00713          	li	a4,126
   14a78:	02e107a3          	sb	a4,47(sp)
   14a7c:	4a678063          	beq	a5,t1,14f1c <f_open+0x1074>
   14a80:	06114783          	lbu	a5,97(sp)
   14a84:	48678663          	beq	a5,t1,14f10 <f_open+0x1068>
   14a88:	06214783          	lbu	a5,98(sp)
   14a8c:	00300713          	li	a4,3
   14a90:	406787b3          	sub	a5,a5,t1
   14a94:	00f037b3          	snez	a5,a5
   14a98:	00278793          	addi	a5,a5,2
   14a9c:	fa1ff06f          	j	14a3c <f_open+0xb94>
   14aa0:	06014783          	lbu	a5,96(sp)
   14aa4:	07e00713          	li	a4,126
   14aa8:	02e106a3          	sb	a4,45(sp)
   14aac:	fe078793          	addi	a5,a5,-32
   14ab0:	00f037b3          	snez	a5,a5
   14ab4:	00100713          	li	a4,1
   14ab8:	f85ff06f          	j	14a3c <f_open+0xb94>
   14abc:	00500793          	li	a5,5
   14ac0:	00500713          	li	a4,5
   14ac4:	f79ff06f          	j	14a3c <f_open+0xb94>
   14ac8:	000c0793          	mv	a5,s8
   14acc:	f71ff06f          	j	14a3c <f_open+0xb94>
   14ad0:	00500793          	li	a5,5
   14ad4:	f69ff06f          	j	14a3c <f_open+0xb94>
   14ad8:	05012583          	lw	a1,80(sp)
   14adc:	00549793          	slli	a5,s1,0x5
   14ae0:	000c8513          	mv	a0,s9
   14ae4:	40f585b3          	sub	a1,a1,a5
   14ae8:	de4fe0ef          	jal	ra,130cc <_ZL7dir_sdiP3DIRm>
   14aec:	00050b13          	mv	s6,a0
   14af0:	de0516e3          	bnez	a0,148dc <f_open+0xa34>
   14af4:	06014703          	lbu	a4,96(sp)
   14af8:	06114603          	lbu	a2,97(sp)
   14afc:	06214683          	lbu	a3,98(sp)
   14b00:	00175793          	srli	a5,a4,0x1
   14b04:	00771713          	slli	a4,a4,0x7
   14b08:	00e7e7b3          	or	a5,a5,a4
   14b0c:	00c787b3          	add	a5,a5,a2
   14b10:	0ff7f713          	zext.b	a4,a5
   14b14:	00175713          	srli	a4,a4,0x1
   14b18:	00779793          	slli	a5,a5,0x7
   14b1c:	00f76733          	or	a4,a4,a5
   14b20:	0ff77713          	zext.b	a4,a4
   14b24:	00d70733          	add	a4,a4,a3
   14b28:	0ff77793          	zext.b	a5,a4
   14b2c:	06314683          	lbu	a3,99(sp)
   14b30:	00771713          	slli	a4,a4,0x7
   14b34:	0017d793          	srli	a5,a5,0x1
   14b38:	00e7e7b3          	or	a5,a5,a4
   14b3c:	0ff7f793          	zext.b	a5,a5
   14b40:	00d787b3          	add	a5,a5,a3
   14b44:	0ff7f713          	zext.b	a4,a5
   14b48:	06414683          	lbu	a3,100(sp)
   14b4c:	00779793          	slli	a5,a5,0x7
   14b50:	00175713          	srli	a4,a4,0x1
   14b54:	00f76733          	or	a4,a4,a5
   14b58:	0ff77713          	zext.b	a4,a4
   14b5c:	00d70733          	add	a4,a4,a3
   14b60:	0ff77793          	zext.b	a5,a4
   14b64:	06514683          	lbu	a3,101(sp)
   14b68:	00771713          	slli	a4,a4,0x7
   14b6c:	0017d793          	srli	a5,a5,0x1
   14b70:	00e7e7b3          	or	a5,a5,a4
   14b74:	0ff7f793          	zext.b	a5,a5
   14b78:	00d787b3          	add	a5,a5,a3
   14b7c:	0ff7f713          	zext.b	a4,a5
   14b80:	06614683          	lbu	a3,102(sp)
   14b84:	00779793          	slli	a5,a5,0x7
   14b88:	00175713          	srli	a4,a4,0x1
   14b8c:	00f76733          	or	a4,a4,a5
   14b90:	0ff77713          	zext.b	a4,a4
   14b94:	00d70733          	add	a4,a4,a3
   14b98:	0ff77793          	zext.b	a5,a4
   14b9c:	06714683          	lbu	a3,103(sp)
   14ba0:	00771713          	slli	a4,a4,0x7
   14ba4:	0017d793          	srli	a5,a5,0x1
   14ba8:	00e7e7b3          	or	a5,a5,a4
   14bac:	0ff7f793          	zext.b	a5,a5
   14bb0:	00d787b3          	add	a5,a5,a3
   14bb4:	0ff7f713          	zext.b	a4,a5
   14bb8:	06814683          	lbu	a3,104(sp)
   14bbc:	00779793          	slli	a5,a5,0x7
   14bc0:	00175713          	srli	a4,a4,0x1
   14bc4:	00f76733          	or	a4,a4,a5
   14bc8:	0ff77713          	zext.b	a4,a4
   14bcc:	00d70733          	add	a4,a4,a3
   14bd0:	0ff77793          	zext.b	a5,a4
   14bd4:	06914683          	lbu	a3,105(sp)
   14bd8:	00771713          	slli	a4,a4,0x7
   14bdc:	0017d793          	srli	a5,a5,0x1
   14be0:	00e7e7b3          	or	a5,a5,a4
   14be4:	0ff7f793          	zext.b	a5,a5
   14be8:	00d787b3          	add	a5,a5,a3
   14bec:	0ff7fb13          	zext.b	s6,a5
   14bf0:	06a14703          	lbu	a4,106(sp)
   14bf4:	00779793          	slli	a5,a5,0x7
   14bf8:	001b5b13          	srli	s6,s6,0x1
   14bfc:	00fb6b33          	or	s6,s6,a5
   14c00:	00eb0b33          	add	s6,s6,a4
   14c04:	00010db7          	lui	s11,0x10
   14c08:	0ffb7793          	zext.b	a5,s6
   14c0c:	fffd8a93          	addi	s5,s11,-1 # ffff <main-0x75>
   14c10:	00f12423          	sw	a5,8(sp)
   14c14:	00f00c13          	li	s8,15
   14c18:	fff00d13          	li	s10,-1
   14c1c:	ffdd8d93          	addi	s11,s11,-3
   14c20:	00100b93          	li	s7,1
   14c24:	05812583          	lw	a1,88(sp)
   14c28:	01412503          	lw	a0,20(sp)
   14c2c:	b3cfd0ef          	jal	ra,11f68 <_ZL11move_windowP5FATFSm>
   14c30:	00050b13          	mv	s6,a0
   14c34:	ca0514e3          	bnez	a0,148dc <f_open+0xa34>
   14c38:	0ff4f613          	zext.b	a2,s1
   14c3c:	fff60613          	addi	a2,a2,-1
   14c40:	01412783          	lw	a5,20(sp)
   14c44:	00161693          	slli	a3,a2,0x1
   14c48:	00c686b3          	add	a3,a3,a2
   14c4c:	00c7a703          	lw	a4,12(a5)
   14c50:	00812583          	lw	a1,8(sp)
   14c54:	05c12783          	lw	a5,92(sp)
   14c58:	00269693          	slli	a3,a3,0x2
   14c5c:	00c686b3          	add	a3,a3,a2
   14c60:	00169613          	slli	a2,a3,0x1
   14c64:	00b786a3          	sb	a1,13(a5)
   14c68:	018785a3          	sb	s8,11(a5)
   14c6c:	00078623          	sb	zero,12(a5)
   14c70:	00078d23          	sb	zero,26(a5)
   14c74:	00078da3          	sb	zero,27(a5)
   14c78:	00c70633          	add	a2,a4,a2
   14c7c:	00065583          	lhu	a1,0(a2)
   14c80:	0ff4f513          	zext.b	a0,s1
   14c84:	0085d893          	srli	a7,a1,0x8
   14c88:	00b780a3          	sb	a1,1(a5)
   14c8c:	01178123          	sb	a7,2(a5)
   14c90:	0a058863          	beqz	a1,14d40 <f_open+0xe98>
   14c94:	0b558663          	beq	a1,s5,14d40 <f_open+0xe98>
   14c98:	00168693          	addi	a3,a3,1
   14c9c:	00169693          	slli	a3,a3,0x1
   14ca0:	00d70733          	add	a4,a4,a3
   14ca4:	00075683          	lhu	a3,0(a4)
   14ca8:	0086d593          	srli	a1,a3,0x8
   14cac:	00d781a3          	sb	a3,3(a5)
   14cb0:	00b78223          	sb	a1,4(a5)
   14cb4:	0e069663          	bnez	a3,14da0 <f_open+0xef8>
   14cb8:	01a782a3          	sb	s10,5(a5)
   14cbc:	01a78323          	sb	s10,6(a5)
   14cc0:	01a783a3          	sb	s10,7(a5)
   14cc4:	01a78423          	sb	s10,8(a5)
   14cc8:	01a784a3          	sb	s10,9(a5)
   14ccc:	01a78523          	sb	s10,10(a5)
   14cd0:	01a78723          	sb	s10,14(a5)
   14cd4:	01a787a3          	sb	s10,15(a5)
   14cd8:	01a78823          	sb	s10,16(a5)
   14cdc:	01a788a3          	sb	s10,17(a5)
   14ce0:	01a78923          	sb	s10,18(a5)
   14ce4:	01a789a3          	sb	s10,19(a5)
   14ce8:	01a78a23          	sb	s10,20(a5)
   14cec:	01a78aa3          	sb	s10,21(a5)
   14cf0:	01a78b23          	sb	s10,22(a5)
   14cf4:	01a78ba3          	sb	s10,23(a5)
   14cf8:	01a78c23          	sb	s10,24(a5)
   14cfc:	01a78ca3          	sb	s10,25(a5)
   14d00:	01a78e23          	sb	s10,28(a5)
   14d04:	01a78ea3          	sb	s10,29(a5)
   14d08:	01a78f23          	sb	s10,30(a5)
   14d0c:	01a78fa3          	sb	s10,31(a5)
   14d10:	04056513          	ori	a0,a0,64
   14d14:	00a78023          	sb	a0,0(a5)
   14d18:	01412783          	lw	a5,20(sp)
   14d1c:	00000593          	li	a1,0
   14d20:	000c8513          	mv	a0,s9
   14d24:	017781a3          	sb	s7,3(a5)
   14d28:	954fe0ef          	jal	ra,12e7c <_ZL8dir_nextP3DIRi>
   14d2c:	00050b13          	mv	s6,a0
   14d30:	ba0516e3          	bnez	a0,148dc <f_open+0xa34>
   14d34:	fff48493          	addi	s1,s1,-1
   14d38:	ee0496e3          	bnez	s1,14c24 <f_open+0xd7c>
   14d3c:	b8dff06f          	j	148c8 <f_open+0xa20>
   14d40:	01a781a3          	sb	s10,3(a5)
   14d44:	01a78223          	sb	s10,4(a5)
   14d48:	f71ff06f          	j	14cb8 <f_open+0xe10>
   14d4c:	00000a93          	li	s5,0
   14d50:	becff06f          	j	1413c <f_open+0x294>
   14d54:	00050b13          	mv	s6,a0
   14d58:	b90ff06f          	j	140e8 <f_open+0x240>
   14d5c:	06014783          	lbu	a5,96(sp)
   14d60:	07e00713          	li	a4,126
   14d64:	02e10823          	sb	a4,48(sp)
   14d68:	20678463          	beq	a5,t1,14f70 <f_open+0x10c8>
   14d6c:	06114783          	lbu	a5,97(sp)
   14d70:	1e678a63          	beq	a5,t1,14f64 <f_open+0x10bc>
   14d74:	06214783          	lbu	a5,98(sp)
   14d78:	1e678063          	beq	a5,t1,14f58 <f_open+0x10b0>
   14d7c:	06314683          	lbu	a3,99(sp)
   14d80:	000c0793          	mv	a5,s8
   14d84:	000c0713          	mv	a4,s8
   14d88:	ca669ae3          	bne	a3,t1,14a3c <f_open+0xb94>
   14d8c:	00300793          	li	a5,3
   14d90:	cadff06f          	j	14a3c <f_open+0xb94>
   14d94:	00000793          	li	a5,0
   14d98:	00200713          	li	a4,2
   14d9c:	ca1ff06f          	j	14a3c <f_open+0xb94>
   14da0:	f1568ce3          	beq	a3,s5,14cb8 <f_open+0xe10>
   14da4:	00275683          	lhu	a3,2(a4)
   14da8:	0086d593          	srli	a1,a3,0x8
   14dac:	00d782a3          	sb	a3,5(a5)
   14db0:	00b78323          	sb	a1,6(a5)
   14db4:	f00686e3          	beqz	a3,14cc0 <f_open+0xe18>
   14db8:	f15684e3          	beq	a3,s5,14cc0 <f_open+0xe18>
   14dbc:	00475583          	lhu	a1,4(a4)
   14dc0:	fff58693          	addi	a3,a1,-1
   14dc4:	0085d893          	srli	a7,a1,0x8
   14dc8:	01069693          	slli	a3,a3,0x10
   14dcc:	00b783a3          	sb	a1,7(a5)
   14dd0:	01178423          	sb	a7,8(a5)
   14dd4:	0106d693          	srli	a3,a3,0x10
   14dd8:	eedde8e3          	bltu	s11,a3,14cc8 <f_open+0xe20>
   14ddc:	00675583          	lhu	a1,6(a4)
   14de0:	fff58693          	addi	a3,a1,-1
   14de4:	0085d893          	srli	a7,a1,0x8
   14de8:	01069693          	slli	a3,a3,0x10
   14dec:	00b784a3          	sb	a1,9(a5)
   14df0:	01178523          	sb	a7,10(a5)
   14df4:	0106d693          	srli	a3,a3,0x10
   14df8:	ecddece3          	bltu	s11,a3,14cd0 <f_open+0xe28>
   14dfc:	00875583          	lhu	a1,8(a4)
   14e00:	fff58693          	addi	a3,a1,-1
   14e04:	0085d893          	srli	a7,a1,0x8
   14e08:	01069693          	slli	a3,a3,0x10
   14e0c:	00b78723          	sb	a1,14(a5)
   14e10:	011787a3          	sb	a7,15(a5)
   14e14:	0106d693          	srli	a3,a3,0x10
   14e18:	ecdde0e3          	bltu	s11,a3,14cd8 <f_open+0xe30>
   14e1c:	00a75583          	lhu	a1,10(a4)
   14e20:	fff58693          	addi	a3,a1,-1
   14e24:	0085d893          	srli	a7,a1,0x8
   14e28:	01069693          	slli	a3,a3,0x10
   14e2c:	00b78823          	sb	a1,16(a5)
   14e30:	011788a3          	sb	a7,17(a5)
   14e34:	0106d693          	srli	a3,a3,0x10
   14e38:	eadde4e3          	bltu	s11,a3,14ce0 <f_open+0xe38>
   14e3c:	00c75583          	lhu	a1,12(a4)
   14e40:	fff58693          	addi	a3,a1,-1
   14e44:	0085d893          	srli	a7,a1,0x8
   14e48:	01069693          	slli	a3,a3,0x10
   14e4c:	00b78923          	sb	a1,18(a5)
   14e50:	011789a3          	sb	a7,19(a5)
   14e54:	0106d693          	srli	a3,a3,0x10
   14e58:	e8dde8e3          	bltu	s11,a3,14ce8 <f_open+0xe40>
   14e5c:	00e75583          	lhu	a1,14(a4)
   14e60:	fff58693          	addi	a3,a1,-1
   14e64:	0085d893          	srli	a7,a1,0x8
   14e68:	01069693          	slli	a3,a3,0x10
   14e6c:	00b78a23          	sb	a1,20(a5)
   14e70:	01178aa3          	sb	a7,21(a5)
   14e74:	0106d693          	srli	a3,a3,0x10
   14e78:	e6ddece3          	bltu	s11,a3,14cf0 <f_open+0xe48>
   14e7c:	01075583          	lhu	a1,16(a4)
   14e80:	fff58693          	addi	a3,a1,-1
   14e84:	0085d893          	srli	a7,a1,0x8
   14e88:	01069693          	slli	a3,a3,0x10
   14e8c:	00b78b23          	sb	a1,22(a5)
   14e90:	01178ba3          	sb	a7,23(a5)
   14e94:	0106d693          	srli	a3,a3,0x10
   14e98:	e6dde0e3          	bltu	s11,a3,14cf8 <f_open+0xe50>
   14e9c:	01275583          	lhu	a1,18(a4)
   14ea0:	fff58693          	addi	a3,a1,-1
   14ea4:	0085d893          	srli	a7,a1,0x8
   14ea8:	01069693          	slli	a3,a3,0x10
   14eac:	00b78c23          	sb	a1,24(a5)
   14eb0:	01178ca3          	sb	a7,25(a5)
   14eb4:	0106d693          	srli	a3,a3,0x10
   14eb8:	e4dde4e3          	bltu	s11,a3,14d00 <f_open+0xe58>
   14ebc:	01475583          	lhu	a1,20(a4)
   14ec0:	fff58693          	addi	a3,a1,-1
   14ec4:	0085d893          	srli	a7,a1,0x8
   14ec8:	01069693          	slli	a3,a3,0x10
   14ecc:	00b78e23          	sb	a1,28(a5)
   14ed0:	01178ea3          	sb	a7,29(a5)
   14ed4:	0106d693          	srli	a3,a3,0x10
   14ed8:	e2dde8e3          	bltu	s11,a3,14d08 <f_open+0xe60>
   14edc:	01675683          	lhu	a3,22(a4)
   14ee0:	fff68713          	addi	a4,a3,-1
   14ee4:	0086d593          	srli	a1,a3,0x8
   14ee8:	01071713          	slli	a4,a4,0x10
   14eec:	00d78f23          	sb	a3,30(a5)
   14ef0:	00b78fa3          	sb	a1,31(a5)
   14ef4:	01075713          	srli	a4,a4,0x10
   14ef8:	e0edece3          	bltu	s11,a4,14d10 <f_open+0xe68>
   14efc:	01a65703          	lhu	a4,26(a2)
   14f00:	e0071ae3          	bnez	a4,14d14 <f_open+0xe6c>
   14f04:	e0dff06f          	j	14d10 <f_open+0xe68>
   14f08:	00050913          	mv	s2,a0
   14f0c:	800ff06f          	j	13f0c <f_open+0x64>
   14f10:	00100793          	li	a5,1
   14f14:	00300713          	li	a4,3
   14f18:	b25ff06f          	j	14a3c <f_open+0xb94>
   14f1c:	00000793          	li	a5,0
   14f20:	00300713          	li	a4,3
   14f24:	b19ff06f          	j	14a3c <f_open+0xb94>
   14f28:	00100793          	li	a5,1
   14f2c:	00500713          	li	a4,5
   14f30:	b0dff06f          	j	14a3c <f_open+0xb94>
   14f34:	00000793          	li	a5,0
   14f38:	00500713          	li	a4,5
   14f3c:	b01ff06f          	j	14a3c <f_open+0xb94>
   14f40:	00100793          	li	a5,1
   14f44:	00600713          	li	a4,6
   14f48:	af5ff06f          	j	14a3c <f_open+0xb94>
   14f4c:	00000793          	li	a5,0
   14f50:	00600713          	li	a4,6
   14f54:	ae9ff06f          	j	14a3c <f_open+0xb94>
   14f58:	000c0713          	mv	a4,s8
   14f5c:	00200793          	li	a5,2
   14f60:	addff06f          	j	14a3c <f_open+0xb94>
   14f64:	000c0713          	mv	a4,s8
   14f68:	00100793          	li	a5,1
   14f6c:	ad1ff06f          	j	14a3c <f_open+0xb94>
   14f70:	00000793          	li	a5,0
   14f74:	000c0713          	mv	a4,s8
   14f78:	ac5ff06f          	j	14a3c <f_open+0xb94>

00014f7c <f_read>:
   14f7c:	fb010113          	addi	sp,sp,-80
   14f80:	04112623          	sw	ra,76(sp)
   14f84:	04812423          	sw	s0,72(sp)
   14f88:	04912223          	sw	s1,68(sp)
   14f8c:	05212023          	sw	s2,64(sp)
   14f90:	03312e23          	sw	s3,60(sp)
   14f94:	03412c23          	sw	s4,56(sp)
   14f98:	03512a23          	sw	s5,52(sp)
   14f9c:	03612823          	sw	s6,48(sp)
   14fa0:	03712623          	sw	s7,44(sp)
   14fa4:	03812423          	sw	s8,40(sp)
   14fa8:	03912223          	sw	s9,36(sp)
   14fac:	03a12023          	sw	s10,32(sp)
   14fb0:	01b12e23          	sw	s11,28(sp)
   14fb4:	0006a023          	sw	zero,0(a3)
   14fb8:	02050463          	beqz	a0,14fe0 <f_read+0x64>
   14fbc:	00052783          	lw	a5,0(a0)
   14fc0:	00050413          	mv	s0,a0
   14fc4:	00078e63          	beqz	a5,14fe0 <f_read+0x64>
   14fc8:	0007c703          	lbu	a4,0(a5)
   14fcc:	00070a63          	beqz	a4,14fe0 <f_read+0x64>
   14fd0:	00068b13          	mv	s6,a3
   14fd4:	0067d703          	lhu	a4,6(a5)
   14fd8:	00455683          	lhu	a3,4(a0)
   14fdc:	04e68463          	beq	a3,a4,15024 <f_read+0xa8>
   14fe0:	00900d93          	li	s11,9
   14fe4:	04c12083          	lw	ra,76(sp)
   14fe8:	04812403          	lw	s0,72(sp)
   14fec:	04412483          	lw	s1,68(sp)
   14ff0:	04012903          	lw	s2,64(sp)
   14ff4:	03c12983          	lw	s3,60(sp)
   14ff8:	03812a03          	lw	s4,56(sp)
   14ffc:	03412a83          	lw	s5,52(sp)
   15000:	03012b03          	lw	s6,48(sp)
   15004:	02c12b83          	lw	s7,44(sp)
   15008:	02812c03          	lw	s8,40(sp)
   1500c:	02412c83          	lw	s9,36(sp)
   15010:	02012d03          	lw	s10,32(sp)
   15014:	000d8513          	mv	a0,s11
   15018:	01c12d83          	lw	s11,28(sp)
   1501c:	05010113          	addi	sp,sp,80
   15020:	00008067          	ret
   15024:	0017c503          	lbu	a0,1(a5)
   15028:	00058c93          	mv	s9,a1
   1502c:	00c12623          	sw	a2,12(sp)
   15030:	569000ef          	jal	ra,15d98 <disk_status>
   15034:	00157513          	andi	a0,a0,1
   15038:	fa0514e3          	bnez	a0,14fe0 <f_read+0x64>
   1503c:	01144d83          	lbu	s11,17(s0)
   15040:	fa0d92e3          	bnez	s11,14fe4 <f_read+0x68>
   15044:	01044783          	lbu	a5,16(s0)
   15048:	0017f793          	andi	a5,a5,1
   1504c:	1a078c63          	beqz	a5,15204 <f_read+0x288>
   15050:	01442703          	lw	a4,20(s0)
   15054:	00c42b83          	lw	s7,12(s0)
   15058:	00c12603          	lw	a2,12(sp)
   1505c:	00042a83          	lw	s5,0(s0)
   15060:	40eb8bb3          	sub	s7,s7,a4
   15064:	01767463          	bgeu	a2,s7,1506c <f_read+0xf0>
   15068:	00060b93          	mv	s7,a2
   1506c:	f60b8ce3          	beqz	s7,14fe4 <f_read+0x68>
   15070:	1ff77593          	andi	a1,a4,511
   15074:	20000993          	li	s3,512
   15078:	1ff00a13          	li	s4,511
   1507c:	02c40913          	addi	s2,s0,44
   15080:	0a059463          	bnez	a1,15128 <f_read+0x1ac>
   15084:	00aadd03          	lhu	s10,10(s5)
   15088:	00975793          	srli	a5,a4,0x9
   1508c:	fffd0d13          	addi	s10,s10,-1
   15090:	00fd7d33          	and	s10,s10,a5
   15094:	0a0d0a63          	beqz	s10,15148 <f_read+0x1cc>
   15098:	01842503          	lw	a0,24(s0)
   1509c:	01caa703          	lw	a4,28(s5)
   150a0:	ffe50793          	addi	a5,a0,-2
   150a4:	ffe70713          	addi	a4,a4,-2
   150a8:	0ce7f663          	bgeu	a5,a4,15174 <f_read+0x1f8>
   150ac:	00aad703          	lhu	a4,10(s5)
   150b0:	030aa683          	lw	a3,48(s5)
   150b4:	02e787b3          	mul	a5,a5,a4
   150b8:	00d787b3          	add	a5,a5,a3
   150bc:	0a078c63          	beqz	a5,15174 <f_read+0x1f8>
   150c0:	00fd04b3          	add	s1,s10,a5
   150c4:	0d7a7063          	bgeu	s4,s7,15184 <f_read+0x208>
   150c8:	009bdc13          	srli	s8,s7,0x9
   150cc:	018d07b3          	add	a5,s10,s8
   150d0:	00f77463          	bgeu	a4,a5,150d8 <f_read+0x15c>
   150d4:	41a70c33          	sub	s8,a4,s10
   150d8:	001ac503          	lbu	a0,1(s5)
   150dc:	000c0693          	mv	a3,s8
   150e0:	00048613          	mv	a2,s1
   150e4:	000c8593          	mv	a1,s9
   150e8:	4ed000ef          	jal	ra,15dd4 <disk_read>
   150ec:	10051463          	bnez	a0,151f4 <f_read+0x278>
   150f0:	01040783          	lb	a5,16(s0)
   150f4:	1407c463          	bltz	a5,1523c <f_read+0x2c0>
   150f8:	009c1c13          	slli	s8,s8,0x9
   150fc:	000b2783          	lw	a5,0(s6)
   15100:	01442703          	lw	a4,20(s0)
   15104:	418b8bb3          	sub	s7,s7,s8
   15108:	018787b3          	add	a5,a5,s8
   1510c:	00fb2023          	sw	a5,0(s6)
   15110:	00ec0733          	add	a4,s8,a4
   15114:	00e42a23          	sw	a4,20(s0)
   15118:	018c8cb3          	add	s9,s9,s8
   1511c:	ec0b84e3          	beqz	s7,14fe4 <f_read+0x68>
   15120:	1ff77593          	andi	a1,a4,511
   15124:	f60580e3          	beqz	a1,15084 <f_read+0x108>
   15128:	40b98c33          	sub	s8,s3,a1
   1512c:	018bf463          	bgeu	s7,s8,15134 <f_read+0x1b8>
   15130:	000b8c13          	mv	s8,s7
   15134:	000c0613          	mv	a2,s8
   15138:	00b905b3          	add	a1,s2,a1
   1513c:	000c8513          	mv	a0,s9
   15140:	4dd010ef          	jal	ra,16e1c <memcpy>
   15144:	fb9ff06f          	j	150fc <f_read+0x180>
   15148:	06071a63          	bnez	a4,151bc <f_read+0x240>
   1514c:	00842503          	lw	a0,8(s0)
   15150:	00100793          	li	a5,1
   15154:	02a7f063          	bgeu	a5,a0,15174 <f_read+0x1f8>
   15158:	fff00793          	li	a5,-1
   1515c:	08f50c63          	beq	a0,a5,151f4 <f_read+0x278>
   15160:	00a42c23          	sw	a0,24(s0)
   15164:	01caa703          	lw	a4,28(s5)
   15168:	ffe50793          	addi	a5,a0,-2
   1516c:	ffe70713          	addi	a4,a4,-2
   15170:	f2e7eee3          	bltu	a5,a4,150ac <f_read+0x130>
   15174:	00200793          	li	a5,2
   15178:	00f408a3          	sb	a5,17(s0)
   1517c:	00200d93          	li	s11,2
   15180:	e65ff06f          	j	14fe4 <f_read+0x68>
   15184:	01c42603          	lw	a2,28(s0)
   15188:	02960263          	beq	a2,s1,151ac <f_read+0x230>
   1518c:	01040783          	lb	a5,16(s0)
   15190:	001ac503          	lbu	a0,1(s5)
   15194:	0807c263          	bltz	a5,15218 <f_read+0x29c>
   15198:	00100693          	li	a3,1
   1519c:	00048613          	mv	a2,s1
   151a0:	00090593          	mv	a1,s2
   151a4:	431000ef          	jal	ra,15dd4 <disk_read>
   151a8:	04051663          	bnez	a0,151f4 <f_read+0x278>
   151ac:	01442583          	lw	a1,20(s0)
   151b0:	00942e23          	sw	s1,28(s0)
   151b4:	1ff5f593          	andi	a1,a1,511
   151b8:	f71ff06f          	j	15128 <f_read+0x1ac>
   151bc:	02842683          	lw	a3,40(s0)
   151c0:	00042503          	lw	a0,0(s0)
   151c4:	04068463          	beqz	a3,1520c <f_read+0x290>
   151c8:	00a55603          	lhu	a2,10(a0)
   151cc:	0046a703          	lw	a4,4(a3)
   151d0:	00468693          	addi	a3,a3,4
   151d4:	02c7d7b3          	divu	a5,a5,a2
   151d8:	f8070ee3          	beqz	a4,15174 <f_read+0x1f8>
   151dc:	08e7e263          	bltu	a5,a4,15260 <f_read+0x2e4>
   151e0:	00868693          	addi	a3,a3,8
   151e4:	40e787b3          	sub	a5,a5,a4
   151e8:	0006a703          	lw	a4,0(a3)
   151ec:	fe0718e3          	bnez	a4,151dc <f_read+0x260>
   151f0:	f85ff06f          	j	15174 <f_read+0x1f8>
   151f4:	00100793          	li	a5,1
   151f8:	00f408a3          	sb	a5,17(s0)
   151fc:	00100d93          	li	s11,1
   15200:	de5ff06f          	j	14fe4 <f_read+0x68>
   15204:	00700d93          	li	s11,7
   15208:	dddff06f          	j	14fe4 <f_read+0x68>
   1520c:	01842583          	lw	a1,24(s0)
   15210:	830fd0ef          	jal	ra,12240 <_ZL7get_fatP7FFOBJIDm.isra.0>
   15214:	f3dff06f          	j	15150 <f_read+0x1d4>
   15218:	00100693          	li	a3,1
   1521c:	00090593          	mv	a1,s2
   15220:	3f5000ef          	jal	ra,15e14 <disk_write>
   15224:	fc0518e3          	bnez	a0,151f4 <f_read+0x278>
   15228:	01044783          	lbu	a5,16(s0)
   1522c:	07f7f793          	andi	a5,a5,127
   15230:	00f40823          	sb	a5,16(s0)
   15234:	001ac503          	lbu	a0,1(s5)
   15238:	f61ff06f          	j	15198 <f_read+0x21c>
   1523c:	01c42783          	lw	a5,28(s0)
   15240:	409787b3          	sub	a5,a5,s1
   15244:	eb87fae3          	bgeu	a5,s8,150f8 <f_read+0x17c>
   15248:	00979793          	slli	a5,a5,0x9
   1524c:	20000613          	li	a2,512
   15250:	00090593          	mv	a1,s2
   15254:	00fc8533          	add	a0,s9,a5
   15258:	3c5010ef          	jal	ra,16e1c <memcpy>
   1525c:	e9dff06f          	j	150f8 <f_read+0x17c>
   15260:	0046a703          	lw	a4,4(a3)
   15264:	00e78533          	add	a0,a5,a4
   15268:	ee9ff06f          	j	15150 <f_read+0x1d4>

0001526c <f_sync>:
   1526c:	1a050063          	beqz	a0,1540c <f_sync+0x1a0>
   15270:	00052783          	lw	a5,0(a0)
   15274:	ff010113          	addi	sp,sp,-16
   15278:	00812423          	sw	s0,8(sp)
   1527c:	00112623          	sw	ra,12(sp)
   15280:	00912223          	sw	s1,4(sp)
   15284:	01212023          	sw	s2,0(sp)
   15288:	00050413          	mv	s0,a0
   1528c:	00078c63          	beqz	a5,152a4 <f_sync+0x38>
   15290:	0007c703          	lbu	a4,0(a5)
   15294:	00070863          	beqz	a4,152a4 <f_sync+0x38>
   15298:	00455683          	lhu	a3,4(a0)
   1529c:	0067d703          	lhu	a4,6(a5)
   152a0:	02e68063          	beq	a3,a4,152c0 <f_sync+0x54>
   152a4:	00900513          	li	a0,9
   152a8:	00c12083          	lw	ra,12(sp)
   152ac:	00812403          	lw	s0,8(sp)
   152b0:	00412483          	lw	s1,4(sp)
   152b4:	00012903          	lw	s2,0(sp)
   152b8:	01010113          	addi	sp,sp,16
   152bc:	00008067          	ret
   152c0:	0017c503          	lbu	a0,1(a5)
   152c4:	2d5000ef          	jal	ra,15d98 <disk_status>
   152c8:	00157513          	andi	a0,a0,1
   152cc:	fc051ce3          	bnez	a0,152a4 <f_sync+0x38>
   152d0:	01044783          	lbu	a5,16(s0)
   152d4:	0407f713          	andi	a4,a5,64
   152d8:	fc0708e3          	beqz	a4,152a8 <f_sync+0x3c>
   152dc:	01879793          	slli	a5,a5,0x18
   152e0:	4187d793          	srai	a5,a5,0x18
   152e4:	00042483          	lw	s1,0(s0)
   152e8:	1207c663          	bltz	a5,15414 <f_sync+0x1a8>
   152ec:	02042583          	lw	a1,32(s0)
   152f0:	00048513          	mv	a0,s1
   152f4:	c75fc0ef          	jal	ra,11f68 <_ZL11move_windowP5FATFSm>
   152f8:	fa0518e3          	bnez	a0,152a8 <f_sync+0x3c>
   152fc:	02442783          	lw	a5,36(s0)
   15300:	00300613          	li	a2,3
   15304:	00b7c703          	lbu	a4,11(a5)
   15308:	02076713          	ori	a4,a4,32
   1530c:	00e785a3          	sb	a4,11(a5)
   15310:	00842703          	lw	a4,8(s0)
   15314:	00042583          	lw	a1,0(s0)
   15318:	01071693          	slli	a3,a4,0x10
   1531c:	0106d693          	srli	a3,a3,0x10
   15320:	0086d693          	srli	a3,a3,0x8
   15324:	00e78d23          	sb	a4,26(a5)
   15328:	00d78da3          	sb	a3,27(a5)
   1532c:	0005c683          	lbu	a3,0(a1)
   15330:	00c69a63          	bne	a3,a2,15344 <f_sync+0xd8>
   15334:	01075713          	srli	a4,a4,0x10
   15338:	00875693          	srli	a3,a4,0x8
   1533c:	00e78a23          	sb	a4,20(a5)
   15340:	00d78aa3          	sb	a3,21(a5)
   15344:	00c42703          	lw	a4,12(s0)
   15348:	00078b23          	sb	zero,22(a5)
   1534c:	00078ba3          	sb	zero,23(a5)
   15350:	00e78e23          	sb	a4,28(a5)
   15354:	00875593          	srli	a1,a4,0x8
   15358:	01075613          	srli	a2,a4,0x10
   1535c:	01875693          	srli	a3,a4,0x18
   15360:	02100713          	li	a4,33
   15364:	00e78c23          	sb	a4,24(a5)
   15368:	05200713          	li	a4,82
   1536c:	00b78ea3          	sb	a1,29(a5)
   15370:	00d78fa3          	sb	a3,31(a5)
   15374:	00c78f23          	sb	a2,30(a5)
   15378:	00e78ca3          	sb	a4,25(a5)
   1537c:	00078923          	sb	zero,18(a5)
   15380:	000789a3          	sb	zero,19(a5)
   15384:	0344a603          	lw	a2,52(s1)
   15388:	0014c503          	lbu	a0,1(s1)
   1538c:	00100793          	li	a5,1
   15390:	03848913          	addi	s2,s1,56
   15394:	00f481a3          	sb	a5,3(s1)
   15398:	00100693          	li	a3,1
   1539c:	00090593          	mv	a1,s2
   153a0:	275000ef          	jal	ra,15e14 <disk_write>
   153a4:	00050793          	mv	a5,a0
   153a8:	00100513          	li	a0,1
   153ac:	02079e63          	bnez	a5,153e8 <f_sync+0x17c>
   153b0:	0344a603          	lw	a2,52(s1)
   153b4:	0284a783          	lw	a5,40(s1)
   153b8:	0204a703          	lw	a4,32(s1)
   153bc:	000481a3          	sb	zero,3(s1)
   153c0:	40f607b3          	sub	a5,a2,a5
   153c4:	08e7e063          	bltu	a5,a4,15444 <f_sync+0x1d8>
   153c8:	0004c703          	lbu	a4,0(s1)
   153cc:	00300793          	li	a5,3
   153d0:	08f70c63          	beq	a4,a5,15468 <f_sync+0x1fc>
   153d4:	0014c503          	lbu	a0,1(s1)
   153d8:	00000613          	li	a2,0
   153dc:	00000593          	li	a1,0
   153e0:	275000ef          	jal	ra,15e54 <disk_ioctl>
   153e4:	00a03533          	snez	a0,a0
   153e8:	01044783          	lbu	a5,16(s0)
   153ec:	fbf7f793          	andi	a5,a5,-65
   153f0:	00f40823          	sb	a5,16(s0)
   153f4:	00c12083          	lw	ra,12(sp)
   153f8:	00812403          	lw	s0,8(sp)
   153fc:	00412483          	lw	s1,4(sp)
   15400:	00012903          	lw	s2,0(sp)
   15404:	01010113          	addi	sp,sp,16
   15408:	00008067          	ret
   1540c:	00900513          	li	a0,9
   15410:	00008067          	ret
   15414:	01c42603          	lw	a2,28(s0)
   15418:	0014c503          	lbu	a0,1(s1)
   1541c:	00100693          	li	a3,1
   15420:	02c40593          	addi	a1,s0,44
   15424:	1f1000ef          	jal	ra,15e14 <disk_write>
   15428:	00050793          	mv	a5,a0
   1542c:	00100513          	li	a0,1
   15430:	e6079ce3          	bnez	a5,152a8 <f_sync+0x3c>
   15434:	01044783          	lbu	a5,16(s0)
   15438:	07f7f793          	andi	a5,a5,127
   1543c:	00f40823          	sb	a5,16(s0)
   15440:	eadff06f          	j	152ec <f_sync+0x80>
   15444:	0024c683          	lbu	a3,2(s1)
   15448:	00200793          	li	a5,2
   1544c:	f6f69ee3          	bne	a3,a5,153c8 <f_sync+0x15c>
   15450:	0014c503          	lbu	a0,1(s1)
   15454:	00100693          	li	a3,1
   15458:	00e60633          	add	a2,a2,a4
   1545c:	00090593          	mv	a1,s2
   15460:	1b5000ef          	jal	ra,15e14 <disk_write>
   15464:	f65ff06f          	j	153c8 <f_sync+0x15c>
   15468:	0044c703          	lbu	a4,4(s1)
   1546c:	00100793          	li	a5,1
   15470:	f6f712e3          	bne	a4,a5,153d4 <f_sync+0x168>
   15474:	20000613          	li	a2,512
   15478:	00000593          	li	a1,0
   1547c:	00090513          	mv	a0,s2
   15480:	2c5010ef          	jal	ra,16f44 <memset>
   15484:	0104a683          	lw	a3,16(s1)
   15488:	0144a603          	lw	a2,20(s1)
   1548c:	ff0108b7          	lui	a7,0xff010
   15490:	0086d593          	srli	a1,a3,0x8
   15494:	00865513          	srli	a0,a2,0x8
   15498:	0ff5f593          	zext.b	a1,a1
   1549c:	00859593          	slli	a1,a1,0x8
   154a0:	0ff6f793          	zext.b	a5,a3
   154a4:	0ff57513          	zext.b	a0,a0
   154a8:	fff88893          	addi	a7,a7,-1 # ff00ffff <__BSS_END__+0xfeff038f>
   154ac:	00851513          	slli	a0,a0,0x8
   154b0:	0ff67713          	zext.b	a4,a2
   154b4:	00b7e7b3          	or	a5,a5,a1
   154b8:	00ff05b7          	lui	a1,0xff0
   154bc:	00b6f5b3          	and	a1,a3,a1
   154c0:	00a76733          	or	a4,a4,a0
   154c4:	0117f7b3          	and	a5,a5,a7
   154c8:	01000537          	lui	a0,0x1000
   154cc:	fff50513          	addi	a0,a0,-1 # ffffff <__BSS_END__+0xfe038f>
   154d0:	00b7e7b3          	or	a5,a5,a1
   154d4:	0186d693          	srli	a3,a3,0x18
   154d8:	01869693          	slli	a3,a3,0x18
   154dc:	00a7f7b3          	and	a5,a5,a0
   154e0:	00d7e7b3          	or	a5,a5,a3
   154e4:	ffffb6b7          	lui	a3,0xffffb
   154e8:	a5568693          	addi	a3,a3,-1451 # ffffaa55 <__BSS_END__+0xfffdade5>
   154ec:	00ff0337          	lui	t1,0xff0
   154f0:	00667333          	and	t1,a2,t1
   154f4:	0244a803          	lw	a6,36(s1)
   154f8:	01177733          	and	a4,a4,a7
   154fc:	22d49b23          	sh	a3,566(s1)
   15500:	416156b7          	lui	a3,0x41615
   15504:	00676733          	or	a4,a4,t1
   15508:	01865613          	srli	a2,a2,0x18
   1550c:	25268693          	addi	a3,a3,594 # 41615252 <__BSS_END__+0x415f55e2>
   15510:	01861593          	slli	a1,a2,0x18
   15514:	00a77733          	and	a4,a4,a0
   15518:	02d4ac23          	sw	a3,56(s1)
   1551c:	0014c503          	lbu	a0,1(s1)
   15520:	614176b7          	lui	a3,0x61417
   15524:	00b76733          	or	a4,a4,a1
   15528:	00180613          	addi	a2,a6,1
   1552c:	27268693          	addi	a3,a3,626 # 61417272 <__BSS_END__+0x613f7602>
   15530:	20d4ae23          	sw	a3,540(s1)
   15534:	22e4a023          	sw	a4,544(s1)
   15538:	22f4a223          	sw	a5,548(s1)
   1553c:	02c4aa23          	sw	a2,52(s1)
   15540:	00100693          	li	a3,1
   15544:	00090593          	mv	a1,s2
   15548:	0cd000ef          	jal	ra,15e14 <disk_write>
   1554c:	00048223          	sb	zero,4(s1)
   15550:	e85ff06f          	j	153d4 <f_sync+0x168>

00015554 <f_close>:
   15554:	ff010113          	addi	sp,sp,-16
   15558:	00812423          	sw	s0,8(sp)
   1555c:	00912223          	sw	s1,4(sp)
   15560:	00112623          	sw	ra,12(sp)
   15564:	00050493          	mv	s1,a0
   15568:	d05ff0ef          	jal	ra,1526c <f_sync>
   1556c:	00050413          	mv	s0,a0
   15570:	00050e63          	beqz	a0,1558c <f_close+0x38>
   15574:	00c12083          	lw	ra,12(sp)
   15578:	00040513          	mv	a0,s0
   1557c:	00812403          	lw	s0,8(sp)
   15580:	00412483          	lw	s1,4(sp)
   15584:	01010113          	addi	sp,sp,16
   15588:	00008067          	ret
   1558c:	02048063          	beqz	s1,155ac <f_close+0x58>
   15590:	0004a783          	lw	a5,0(s1)
   15594:	00078c63          	beqz	a5,155ac <f_close+0x58>
   15598:	0007c703          	lbu	a4,0(a5)
   1559c:	00070863          	beqz	a4,155ac <f_close+0x58>
   155a0:	0044d683          	lhu	a3,4(s1)
   155a4:	0067d703          	lhu	a4,6(a5)
   155a8:	02e68063          	beq	a3,a4,155c8 <f_close+0x74>
   155ac:	00900413          	li	s0,9
   155b0:	00c12083          	lw	ra,12(sp)
   155b4:	00040513          	mv	a0,s0
   155b8:	00812403          	lw	s0,8(sp)
   155bc:	00412483          	lw	s1,4(sp)
   155c0:	01010113          	addi	sp,sp,16
   155c4:	00008067          	ret
   155c8:	0017c503          	lbu	a0,1(a5)
   155cc:	7cc000ef          	jal	ra,15d98 <disk_status>
   155d0:	00157513          	andi	a0,a0,1
   155d4:	fc051ce3          	bnez	a0,155ac <f_close+0x58>
   155d8:	00c12083          	lw	ra,12(sp)
   155dc:	00040513          	mv	a0,s0
   155e0:	00812403          	lw	s0,8(sp)
   155e4:	0004a023          	sw	zero,0(s1)
   155e8:	00412483          	lw	s1,4(sp)
   155ec:	01010113          	addi	sp,sp,16
   155f0:	00008067          	ret

000155f4 <f_lseek>:
   155f4:	fa010113          	addi	sp,sp,-96
   155f8:	04112e23          	sw	ra,92(sp)
   155fc:	04812c23          	sw	s0,88(sp)
   15600:	04912a23          	sw	s1,84(sp)
   15604:	05212823          	sw	s2,80(sp)
   15608:	05312623          	sw	s3,76(sp)
   1560c:	05412423          	sw	s4,72(sp)
   15610:	05512223          	sw	s5,68(sp)
   15614:	05612023          	sw	s6,64(sp)
   15618:	03712e23          	sw	s7,60(sp)
   1561c:	03812c23          	sw	s8,56(sp)
   15620:	03912a23          	sw	s9,52(sp)
   15624:	03a12823          	sw	s10,48(sp)
   15628:	03b12623          	sw	s11,44(sp)
   1562c:	02050263          	beqz	a0,15650 <f_lseek+0x5c>
   15630:	00052783          	lw	a5,0(a0)
   15634:	00050413          	mv	s0,a0
   15638:	00078c63          	beqz	a5,15650 <f_lseek+0x5c>
   1563c:	0007c703          	lbu	a4,0(a5)
   15640:	00070863          	beqz	a4,15650 <f_lseek+0x5c>
   15644:	00455683          	lhu	a3,4(a0)
   15648:	0067d703          	lhu	a4,6(a5)
   1564c:	04e68463          	beq	a3,a4,15694 <f_lseek+0xa0>
   15650:	00900993          	li	s3,9
   15654:	05c12083          	lw	ra,92(sp)
   15658:	05812403          	lw	s0,88(sp)
   1565c:	05412483          	lw	s1,84(sp)
   15660:	05012903          	lw	s2,80(sp)
   15664:	04812a03          	lw	s4,72(sp)
   15668:	04412a83          	lw	s5,68(sp)
   1566c:	04012b03          	lw	s6,64(sp)
   15670:	03c12b83          	lw	s7,60(sp)
   15674:	03812c03          	lw	s8,56(sp)
   15678:	03412c83          	lw	s9,52(sp)
   1567c:	03012d03          	lw	s10,48(sp)
   15680:	02c12d83          	lw	s11,44(sp)
   15684:	00098513          	mv	a0,s3
   15688:	04c12983          	lw	s3,76(sp)
   1568c:	06010113          	addi	sp,sp,96
   15690:	00008067          	ret
   15694:	0017c503          	lbu	a0,1(a5)
   15698:	00058493          	mv	s1,a1
   1569c:	6fc000ef          	jal	ra,15d98 <disk_status>
   156a0:	00157513          	andi	a0,a0,1
   156a4:	fa0516e3          	bnez	a0,15650 <f_lseek+0x5c>
   156a8:	01144983          	lbu	s3,17(s0)
   156ac:	00042d03          	lw	s10,0(s0)
   156b0:	fa0992e3          	bnez	s3,15654 <f_lseek+0x60>
   156b4:	02842783          	lw	a5,40(s0)
   156b8:	0a078e63          	beqz	a5,15774 <f_lseek+0x180>
   156bc:	fff00713          	li	a4,-1
   156c0:	20e48463          	beq	s1,a4,158c8 <f_lseek+0x2d4>
   156c4:	00c42603          	lw	a2,12(s0)
   156c8:	00c4f463          	bgeu	s1,a2,156d0 <f_lseek+0xdc>
   156cc:	00048613          	mv	a2,s1
   156d0:	00c42a23          	sw	a2,20(s0)
   156d4:	f80600e3          	beqz	a2,15654 <f_lseek+0x60>
   156d8:	00ad5583          	lhu	a1,10(s10)
   156dc:	0047a703          	lw	a4,4(a5)
   156e0:	fff60513          	addi	a0,a2,-1
   156e4:	00955513          	srli	a0,a0,0x9
   156e8:	02b556b3          	divu	a3,a0,a1
   156ec:	00478793          	addi	a5,a5,4
   156f0:	00070c63          	beqz	a4,15708 <f_lseek+0x114>
   156f4:	34e6e063          	bltu	a3,a4,15a34 <f_lseek+0x440>
   156f8:	00878793          	addi	a5,a5,8
   156fc:	40e686b3          	sub	a3,a3,a4
   15700:	0007a703          	lw	a4,0(a5)
   15704:	fe0718e3          	bnez	a4,156f4 <f_lseek+0x100>
   15708:	ffe00793          	li	a5,-2
   1570c:	00e42c23          	sw	a4,24(s0)
   15710:	01cd2703          	lw	a4,28(s10)
   15714:	ffe70713          	addi	a4,a4,-2
   15718:	20e7f663          	bgeu	a5,a4,15924 <f_lseek+0x330>
   1571c:	02f587b3          	mul	a5,a1,a5
   15720:	030d2703          	lw	a4,48(s10)
   15724:	00e787b3          	add	a5,a5,a4
   15728:	1e078e63          	beqz	a5,15924 <f_lseek+0x330>
   1572c:	1ff67613          	andi	a2,a2,511
   15730:	f20602e3          	beqz	a2,15654 <f_lseek+0x60>
   15734:	fff58493          	addi	s1,a1,-1 # feffff <__BSS_END__+0xfd038f>
   15738:	01c42603          	lw	a2,28(s0)
   1573c:	00a4f4b3          	and	s1,s1,a0
   15740:	00f484b3          	add	s1,s1,a5
   15744:	f09608e3          	beq	a2,s1,15654 <f_lseek+0x60>
   15748:	01040783          	lb	a5,16(s0)
   1574c:	001d4503          	lbu	a0,1(s10)
   15750:	02c40593          	addi	a1,s0,44
   15754:	4007c663          	bltz	a5,15b60 <f_lseek+0x56c>
   15758:	00100693          	li	a3,1
   1575c:	00048613          	mv	a2,s1
   15760:	674000ef          	jal	ra,15dd4 <disk_read>
   15764:	00050993          	mv	s3,a0
   15768:	1e051e63          	bnez	a0,15964 <f_lseek+0x370>
   1576c:	00942e23          	sw	s1,28(s0)
   15770:	ee5ff06f          	j	15654 <f_lseek+0x60>
   15774:	00c42783          	lw	a5,12(s0)
   15778:	0097f863          	bgeu	a5,s1,15788 <f_lseek+0x194>
   1577c:	01044703          	lbu	a4,16(s0)
   15780:	00277713          	andi	a4,a4,2
   15784:	2c070063          	beqz	a4,15a44 <f_lseek+0x450>
   15788:	01442783          	lw	a5,20(s0)
   1578c:	00042a23          	sw	zero,20(s0)
   15790:	ec0482e3          	beqz	s1,15654 <f_lseek+0x60>
   15794:	00ad5a03          	lhu	s4,10(s10)
   15798:	009a1a13          	slli	s4,s4,0x9
   1579c:	10078a63          	beqz	a5,158b0 <f_lseek+0x2bc>
   157a0:	fff78713          	addi	a4,a5,-1
   157a4:	fff48793          	addi	a5,s1,-1
   157a8:	0347d7b3          	divu	a5,a5,s4
   157ac:	034756b3          	divu	a3,a4,s4
   157b0:	10d7e063          	bltu	a5,a3,158b0 <f_lseek+0x2bc>
   157b4:	414007b3          	neg	a5,s4
   157b8:	01842903          	lw	s2,24(s0)
   157bc:	00e7f7b3          	and	a5,a5,a4
   157c0:	00f42a23          	sw	a5,20(s0)
   157c4:	40f484b3          	sub	s1,s1,a5
   157c8:	08090a63          	beqz	s2,1585c <f_lseek+0x268>
   157cc:	049a7a63          	bgeu	s4,s1,15820 <f_lseek+0x22c>
   157d0:	fff00a93          	li	s5,-1
   157d4:	00100b13          	li	s6,1
   157d8:	01044703          	lbu	a4,16(s0)
   157dc:	00fa07b3          	add	a5,s4,a5
   157e0:	00f42a23          	sw	a5,20(s0)
   157e4:	00277793          	andi	a5,a4,2
   157e8:	00042503          	lw	a0,0(s0)
   157ec:	00090593          	mv	a1,s2
   157f0:	414484b3          	sub	s1,s1,s4
   157f4:	30078a63          	beqz	a5,15b08 <f_lseek+0x514>
   157f8:	b78fd0ef          	jal	ra,12b70 <_ZL12create_chainP7FFOBJIDm.isra.0>
   157fc:	00050913          	mv	s2,a0
   15800:	30050063          	beqz	a0,15b00 <f_lseek+0x50c>
   15804:	17590063          	beq	s2,s5,15964 <f_lseek+0x370>
   15808:	112b7e63          	bgeu	s6,s2,15924 <f_lseek+0x330>
   1580c:	01cd2783          	lw	a5,28(s10)
   15810:	10f97a63          	bgeu	s2,a5,15924 <f_lseek+0x330>
   15814:	01242c23          	sw	s2,24(s0)
   15818:	01442783          	lw	a5,20(s0)
   1581c:	fa9a6ee3          	bltu	s4,s1,157d8 <f_lseek+0x1e4>
   15820:	009787b3          	add	a5,a5,s1
   15824:	00f42a23          	sw	a5,20(s0)
   15828:	1ff4f713          	andi	a4,s1,511
   1582c:	34070e63          	beqz	a4,15b88 <f_lseek+0x594>
   15830:	01cd2703          	lw	a4,28(s10)
   15834:	ffe90693          	addi	a3,s2,-2
   15838:	ffe70713          	addi	a4,a4,-2
   1583c:	0ee6f463          	bgeu	a3,a4,15924 <f_lseek+0x330>
   15840:	00ad5903          	lhu	s2,10(s10)
   15844:	030d2703          	lw	a4,48(s10)
   15848:	02d90933          	mul	s2,s2,a3
   1584c:	00e90933          	add	s2,s2,a4
   15850:	0c090a63          	beqz	s2,15924 <f_lseek+0x330>
   15854:	0094d493          	srli	s1,s1,0x9
   15858:	01248933          	add	s2,s1,s2
   1585c:	00c42703          	lw	a4,12(s0)
   15860:	1ff7f693          	andi	a3,a5,511
   15864:	00f77a63          	bgeu	a4,a5,15878 <f_lseek+0x284>
   15868:	01044703          	lbu	a4,16(s0)
   1586c:	00f42623          	sw	a5,12(s0)
   15870:	04076793          	ori	a5,a4,64
   15874:	00f40823          	sb	a5,16(s0)
   15878:	dc068ee3          	beqz	a3,15654 <f_lseek+0x60>
   1587c:	01c42603          	lw	a2,28(s0)
   15880:	dd260ae3          	beq	a2,s2,15654 <f_lseek+0x60>
   15884:	01040783          	lb	a5,16(s0)
   15888:	001d4503          	lbu	a0,1(s10)
   1588c:	02c40593          	addi	a1,s0,44
   15890:	2407c463          	bltz	a5,15ad8 <f_lseek+0x4e4>
   15894:	00100693          	li	a3,1
   15898:	00090613          	mv	a2,s2
   1589c:	538000ef          	jal	ra,15dd4 <disk_read>
   158a0:	00050993          	mv	s3,a0
   158a4:	0c051063          	bnez	a0,15964 <f_lseek+0x370>
   158a8:	01242e23          	sw	s2,28(s0)
   158ac:	da9ff06f          	j	15654 <f_lseek+0x60>
   158b0:	00842903          	lw	s2,8(s0)
   158b4:	00000793          	li	a5,0
   158b8:	1e090863          	beqz	s2,15aa8 <f_lseek+0x4b4>
   158bc:	01242c23          	sw	s2,24(s0)
   158c0:	f8090ee3          	beqz	s2,1585c <f_lseek+0x268>
   158c4:	f09ff06f          	j	157cc <f_lseek+0x1d8>
   158c8:	0007a703          	lw	a4,0(a5)
   158cc:	00842903          	lw	s2,8(s0)
   158d0:	00e12623          	sw	a4,12(sp)
   158d4:	00478713          	addi	a4,a5,4
   158d8:	00e12823          	sw	a4,16(sp)
   158dc:	12090e63          	beqz	s2,15a18 <f_lseek+0x424>
   158e0:	10000c37          	lui	s8,0x10000
   158e4:	fffc0793          	addi	a5,s8,-1 # fffffff <__BSS_END__+0xffe038f>
   158e8:	00f12a23          	sw	a5,20(sp)
   158ec:	000017b7          	lui	a5,0x1
   158f0:	fff78793          	addi	a5,a5,-1 # fff <main-0xf075>
   158f4:	000d0c93          	mv	s9,s10
   158f8:	00200a93          	li	s5,2
   158fc:	00200b13          	li	s6,2
   15900:	00f12c23          	sw	a5,24(sp)
   15904:	00000c13          	li	s8,0
   15908:	00090493          	mv	s1,s2
   1590c:	00100b93          	li	s7,1
   15910:	00300a13          	li	s4,3
   15914:	001c0c13          	addi	s8,s8,1
   15918:	009bf663          	bgeu	s7,s1,15924 <f_lseek+0x330>
   1591c:	01cca783          	lw	a5,28(s9)
   15920:	00f4ea63          	bltu	s1,a5,15934 <f_lseek+0x340>
   15924:	00200793          	li	a5,2
   15928:	00f408a3          	sb	a5,17(s0)
   1592c:	00200993          	li	s3,2
   15930:	d25ff06f          	j	15654 <f_lseek+0x60>
   15934:	000cc783          	lbu	a5,0(s9)
   15938:	0b678463          	beq	a5,s6,159e0 <f_lseek+0x3ec>
   1593c:	03478c63          	beq	a5,s4,15974 <f_lseek+0x380>
   15940:	ff7792e3          	bne	a5,s7,15924 <f_lseek+0x330>
   15944:	028ca783          	lw	a5,40(s9)
   15948:	0014dd93          	srli	s11,s1,0x1
   1594c:	009d8db3          	add	s11,s11,s1
   15950:	009dd593          	srli	a1,s11,0x9
   15954:	00f585b3          	add	a1,a1,a5
   15958:	000c8513          	mv	a0,s9
   1595c:	e0cfc0ef          	jal	ra,11f68 <_ZL11move_windowP5FATFSm>
   15960:	0e050663          	beqz	a0,15a4c <f_lseek+0x458>
   15964:	00100793          	li	a5,1
   15968:	00f408a3          	sb	a5,17(s0)
   1596c:	00100993          	li	s3,1
   15970:	ce5ff06f          	j	15654 <f_lseek+0x60>
   15974:	028ca783          	lw	a5,40(s9)
   15978:	0074d593          	srli	a1,s1,0x7
   1597c:	000c8513          	mv	a0,s9
   15980:	00f585b3          	add	a1,a1,a5
   15984:	de4fc0ef          	jal	ra,11f68 <_ZL11move_windowP5FATFSm>
   15988:	fc051ee3          	bnez	a0,15964 <f_lseek+0x370>
   1598c:	00249793          	slli	a5,s1,0x2
   15990:	1fc7f793          	andi	a5,a5,508
   15994:	00fc87b3          	add	a5,s9,a5
   15998:	0397c583          	lbu	a1,57(a5)
   1599c:	0387c503          	lbu	a0,56(a5)
   159a0:	03a7c603          	lbu	a2,58(a5)
   159a4:	03b7c783          	lbu	a5,59(a5)
   159a8:	00859593          	slli	a1,a1,0x8
   159ac:	01412703          	lw	a4,20(sp)
   159b0:	00a5e5b3          	or	a1,a1,a0
   159b4:	01061613          	slli	a2,a2,0x10
   159b8:	00b66633          	or	a2,a2,a1
   159bc:	01879793          	slli	a5,a5,0x18
   159c0:	00c7e7b3          	or	a5,a5,a2
   159c4:	00e7f7b3          	and	a5,a5,a4
   159c8:	f4fbfee3          	bgeu	s7,a5,15924 <f_lseek+0x330>
   159cc:	00148493          	addi	s1,s1,1
   159d0:	14f49263          	bne	s1,a5,15b14 <f_lseek+0x520>
   159d4:	00042c83          	lw	s9,0(s0)
   159d8:	00078493          	mv	s1,a5
   159dc:	f39ff06f          	j	15914 <f_lseek+0x320>
   159e0:	028ca783          	lw	a5,40(s9)
   159e4:	0084d593          	srli	a1,s1,0x8
   159e8:	000c8513          	mv	a0,s9
   159ec:	00f585b3          	add	a1,a1,a5
   159f0:	d78fc0ef          	jal	ra,11f68 <_ZL11move_windowP5FATFSm>
   159f4:	f60518e3          	bnez	a0,15964 <f_lseek+0x370>
   159f8:	00149793          	slli	a5,s1,0x1
   159fc:	1fe7f793          	andi	a5,a5,510
   15a00:	00fc8633          	add	a2,s9,a5
   15a04:	03964783          	lbu	a5,57(a2)
   15a08:	03864603          	lbu	a2,56(a2)
   15a0c:	00879793          	slli	a5,a5,0x8
   15a10:	00c7e7b3          	or	a5,a5,a2
   15a14:	fb5ff06f          	j	159c8 <f_lseek+0x3d4>
   15a18:	00200a93          	li	s5,2
   15a1c:	0157a023          	sw	s5,0(a5)
   15a20:	00c12783          	lw	a5,12(sp)
   15a24:	1357e263          	bltu	a5,s5,15b48 <f_lseek+0x554>
   15a28:	01012783          	lw	a5,16(sp)
   15a2c:	0007a023          	sw	zero,0(a5)
   15a30:	c25ff06f          	j	15654 <f_lseek+0x60>
   15a34:	0047a703          	lw	a4,4(a5)
   15a38:	00e68733          	add	a4,a3,a4
   15a3c:	ffe70793          	addi	a5,a4,-2
   15a40:	ccdff06f          	j	1570c <f_lseek+0x118>
   15a44:	00078493          	mv	s1,a5
   15a48:	d41ff06f          	j	15788 <f_lseek+0x194>
   15a4c:	028ca583          	lw	a1,40(s9)
   15a50:	001d8793          	addi	a5,s11,1
   15a54:	0097d513          	srli	a0,a5,0x9
   15a58:	1ffdfd93          	andi	s11,s11,511
   15a5c:	01bc8db3          	add	s11,s9,s11
   15a60:	00b505b3          	add	a1,a0,a1
   15a64:	000c8513          	mv	a0,s9
   15a68:	038dcd83          	lbu	s11,56(s11)
   15a6c:	00f12e23          	sw	a5,28(sp)
   15a70:	cf8fc0ef          	jal	ra,11f68 <_ZL11move_windowP5FATFSm>
   15a74:	ee0518e3          	bnez	a0,15964 <f_lseek+0x370>
   15a78:	01c12783          	lw	a5,28(sp)
   15a7c:	0014f593          	andi	a1,s1,1
   15a80:	1ff7f793          	andi	a5,a5,511
   15a84:	00fc87b3          	add	a5,s9,a5
   15a88:	0387c603          	lbu	a2,56(a5)
   15a8c:	01812783          	lw	a5,24(sp)
   15a90:	00861613          	slli	a2,a2,0x8
   15a94:	01b66633          	or	a2,a2,s11
   15a98:	00f677b3          	and	a5,a2,a5
   15a9c:	f20586e3          	beqz	a1,159c8 <f_lseek+0x3d4>
   15aa0:	00465793          	srli	a5,a2,0x4
   15aa4:	f25ff06f          	j	159c8 <f_lseek+0x3d4>
   15aa8:	00000593          	li	a1,0
   15aac:	000d0513          	mv	a0,s10
   15ab0:	8c0fd0ef          	jal	ra,12b70 <_ZL12create_chainP7FFOBJIDm.isra.0>
   15ab4:	00100793          	li	a5,1
   15ab8:	00050913          	mv	s2,a0
   15abc:	e6f504e3          	beq	a0,a5,15924 <f_lseek+0x330>
   15ac0:	fff00793          	li	a5,-1
   15ac4:	eaf500e3          	beq	a0,a5,15964 <f_lseek+0x370>
   15ac8:	01442783          	lw	a5,20(s0)
   15acc:	00a42423          	sw	a0,8(s0)
   15ad0:	01242c23          	sw	s2,24(s0)
   15ad4:	dedff06f          	j	158c0 <f_lseek+0x2cc>
   15ad8:	00100693          	li	a3,1
   15adc:	00b12623          	sw	a1,12(sp)
   15ae0:	334000ef          	jal	ra,15e14 <disk_write>
   15ae4:	e80510e3          	bnez	a0,15964 <f_lseek+0x370>
   15ae8:	01044783          	lbu	a5,16(s0)
   15aec:	00c12583          	lw	a1,12(sp)
   15af0:	07f7f793          	andi	a5,a5,127
   15af4:	00f40823          	sb	a5,16(s0)
   15af8:	001d4503          	lbu	a0,1(s10)
   15afc:	d99ff06f          	j	15894 <f_lseek+0x2a0>
   15b00:	01442783          	lw	a5,20(s0)
   15b04:	d59ff06f          	j	1585c <f_lseek+0x268>
   15b08:	f38fc0ef          	jal	ra,12240 <_ZL7get_fatP7FFOBJIDm.isra.0>
   15b0c:	00050913          	mv	s2,a0
   15b10:	cf5ff06f          	j	15804 <f_lseek+0x210>
   15b14:	00c12703          	lw	a4,12(sp)
   15b18:	002a8a93          	addi	s5,s5,2
   15b1c:	03576a63          	bltu	a4,s5,15b50 <f_lseek+0x55c>
   15b20:	01012683          	lw	a3,16(sp)
   15b24:	0186a023          	sw	s8,0(a3)
   15b28:	0126a223          	sw	s2,4(a3)
   15b2c:	01cd2703          	lw	a4,28(s10)
   15b30:	00868b93          	addi	s7,a3,8
   15b34:	01712823          	sw	s7,16(sp)
   15b38:	02e7f063          	bgeu	a5,a4,15b58 <f_lseek+0x564>
   15b3c:	00042c83          	lw	s9,0(s0)
   15b40:	00078913          	mv	s2,a5
   15b44:	dc1ff06f          	j	15904 <f_lseek+0x310>
   15b48:	01100993          	li	s3,17
   15b4c:	b09ff06f          	j	15654 <f_lseek+0x60>
   15b50:	01cd2703          	lw	a4,28(s10)
   15b54:	fee7e4e3          	bltu	a5,a4,15b3c <f_lseek+0x548>
   15b58:	02842783          	lw	a5,40(s0)
   15b5c:	ec1ff06f          	j	15a1c <f_lseek+0x428>
   15b60:	00100693          	li	a3,1
   15b64:	00b12623          	sw	a1,12(sp)
   15b68:	2ac000ef          	jal	ra,15e14 <disk_write>
   15b6c:	de051ce3          	bnez	a0,15964 <f_lseek+0x370>
   15b70:	01044783          	lbu	a5,16(s0)
   15b74:	00c12583          	lw	a1,12(sp)
   15b78:	07f7f793          	andi	a5,a5,127
   15b7c:	00f40823          	sb	a5,16(s0)
   15b80:	001d4503          	lbu	a0,1(s10)
   15b84:	bd5ff06f          	j	15758 <f_lseek+0x164>
   15b88:	00000913          	li	s2,0
   15b8c:	cd1ff06f          	j	1585c <f_lseek+0x268>

00015b90 <ff_uni2oem>:
   15b90:	07f00713          	li	a4,127
   15b94:	00050793          	mv	a5,a0
   15b98:	00a76863          	bltu	a4,a0,15ba8 <ff_uni2oem+0x18>
   15b9c:	01051513          	slli	a0,a0,0x10
   15ba0:	01055513          	srli	a0,a0,0x10
   15ba4:	00008067          	ret
   15ba8:	00010737          	lui	a4,0x10
   15bac:	00000513          	li	a0,0
   15bb0:	00e7f663          	bgeu	a5,a4,15bbc <ff_uni2oem+0x2c>
   15bb4:	1b500713          	li	a4,437
   15bb8:	00e58463          	beq	a1,a4,15bc0 <ff_uni2oem+0x30>
   15bbc:	00008067          	ret
   15bc0:	00003697          	auipc	a3,0x3
   15bc4:	7b468693          	addi	a3,a3,1972 # 19374 <_ZL5uc437>
   15bc8:	00000713          	li	a4,0
   15bcc:	08000513          	li	a0,128
   15bd0:	0100006f          	j	15be0 <ff_uni2oem+0x50>
   15bd4:	01059713          	slli	a4,a1,0x10
   15bd8:	01075713          	srli	a4,a4,0x10
   15bdc:	02a70263          	beq	a4,a0,15c00 <ff_uni2oem+0x70>
   15be0:	0006d603          	lhu	a2,0(a3)
   15be4:	00170593          	addi	a1,a4,1 # 10001 <main-0x73>
   15be8:	00268693          	addi	a3,a3,2
   15bec:	fef614e3          	bne	a2,a5,15bd4 <ff_uni2oem+0x44>
   15bf0:	08070713          	addi	a4,a4,128
   15bf4:	01071513          	slli	a0,a4,0x10
   15bf8:	01055513          	srli	a0,a0,0x10
   15bfc:	00008067          	ret
   15c00:	00000513          	li	a0,0
   15c04:	00008067          	ret

00015c08 <ff_oem2uni>:
   15c08:	07f00793          	li	a5,127
   15c0c:	00a7f863          	bgeu	a5,a0,15c1c <ff_oem2uni+0x14>
   15c10:	1b500793          	li	a5,437
   15c14:	00f58663          	beq	a1,a5,15c20 <ff_oem2uni+0x18>
   15c18:	00000513          	li	a0,0
   15c1c:	00008067          	ret
   15c20:	0ff00793          	li	a5,255
   15c24:	fea7eae3          	bltu	a5,a0,15c18 <ff_oem2uni+0x10>
   15c28:	00003797          	auipc	a5,0x3
   15c2c:	64c78793          	addi	a5,a5,1612 # 19274 <_ZL12residentfont+0x19a4>
   15c30:	00151513          	slli	a0,a0,0x1
   15c34:	00f50533          	add	a0,a0,a5
   15c38:	00055503          	lhu	a0,0(a0)
   15c3c:	00008067          	ret

00015c40 <ff_wtoupper>:
   15c40:	000107b7          	lui	a5,0x10
   15c44:	04f57c63          	bgeu	a0,a5,15c9c <ff_wtoupper+0x5c>
   15c48:	01051813          	slli	a6,a0,0x10
   15c4c:	000017b7          	lui	a5,0x1
   15c50:	01085813          	srli	a6,a6,0x10
   15c54:	00004717          	auipc	a4,0x4
   15c58:	82070713          	addi	a4,a4,-2016 # 19474 <_ZZ11ff_wtoupperE4cvt1>
   15c5c:	02f56a63          	bltu	a0,a5,15c90 <ff_wtoupper+0x50>
   15c60:	00004717          	auipc	a4,0x4
   15c64:	a0870713          	addi	a4,a4,-1528 # 19668 <_ZZ11ff_wtoupperE4cvt2>
   15c68:	00075683          	lhu	a3,0(a4)
   15c6c:	02068663          	beqz	a3,15c98 <ff_wtoupper+0x58>
   15c70:	02d86463          	bltu	a6,a3,15c98 <ff_wtoupper+0x58>
   15c74:	00275783          	lhu	a5,2(a4)
   15c78:	00470713          	addi	a4,a4,4
   15c7c:	0ff7f613          	zext.b	a2,a5
   15c80:	00d605b3          	add	a1,a2,a3
   15c84:	0087d793          	srli	a5,a5,0x8
   15c88:	00b54c63          	blt	a0,a1,15ca0 <ff_wtoupper+0x60>
   15c8c:	02078c63          	beqz	a5,15cc4 <ff_wtoupper+0x84>
   15c90:	00075683          	lhu	a3,0(a4)
   15c94:	fc069ee3          	bnez	a3,15c70 <ff_wtoupper+0x30>
   15c98:	00080513          	mv	a0,a6
   15c9c:	00008067          	ret
   15ca0:	00800613          	li	a2,8
   15ca4:	fef66ae3          	bltu	a2,a5,15c98 <ff_wtoupper+0x58>
   15ca8:	00003617          	auipc	a2,0x3
   15cac:	6a860613          	addi	a2,a2,1704 # 19350 <_ZL6LfnOfs+0x10>
   15cb0:	00279793          	slli	a5,a5,0x2
   15cb4:	00c787b3          	add	a5,a5,a2
   15cb8:	0007a783          	lw	a5,0(a5) # 1000 <main-0xf074>
   15cbc:	00c787b3          	add	a5,a5,a2
   15cc0:	00078067          	jr	a5
   15cc4:	00161613          	slli	a2,a2,0x1
   15cc8:	00c70733          	add	a4,a4,a2
   15ccc:	fc5ff06f          	j	15c90 <ff_wtoupper+0x50>
   15cd0:	fb080813          	addi	a6,a6,-80
   15cd4:	01081813          	slli	a6,a6,0x10
   15cd8:	01085813          	srli	a6,a6,0x10
   15cdc:	00080513          	mv	a0,a6
   15ce0:	fbdff06f          	j	15c9c <ff_wtoupper+0x5c>
   15ce4:	00880813          	addi	a6,a6,8
   15ce8:	01081813          	slli	a6,a6,0x10
   15cec:	01085813          	srli	a6,a6,0x10
   15cf0:	00080513          	mv	a0,a6
   15cf4:	fa9ff06f          	j	15c9c <ff_wtoupper+0x5c>
   15cf8:	fe680813          	addi	a6,a6,-26
   15cfc:	01081813          	slli	a6,a6,0x10
   15d00:	01085813          	srli	a6,a6,0x10
   15d04:	00080513          	mv	a0,a6
   15d08:	f95ff06f          	j	15c9c <ff_wtoupper+0x5c>
   15d0c:	fd080813          	addi	a6,a6,-48
   15d10:	01081813          	slli	a6,a6,0x10
   15d14:	01085813          	srli	a6,a6,0x10
   15d18:	00080513          	mv	a0,a6
   15d1c:	f81ff06f          	j	15c9c <ff_wtoupper+0x5c>
   15d20:	fe080813          	addi	a6,a6,-32
   15d24:	01081813          	slli	a6,a6,0x10
   15d28:	01085813          	srli	a6,a6,0x10
   15d2c:	00080513          	mv	a0,a6
   15d30:	f6dff06f          	j	15c9c <ff_wtoupper+0x5c>
   15d34:	ff080813          	addi	a6,a6,-16
   15d38:	01081813          	slli	a6,a6,0x10
   15d3c:	01085813          	srli	a6,a6,0x10
   15d40:	00080513          	mv	a0,a6
   15d44:	f59ff06f          	j	15c9c <ff_wtoupper+0x5c>
   15d48:	40d807b3          	sub	a5,a6,a3
   15d4c:	0017f793          	andi	a5,a5,1
   15d50:	40f80833          	sub	a6,a6,a5
   15d54:	01081813          	slli	a6,a6,0x10
   15d58:	01085813          	srli	a6,a6,0x10
   15d5c:	00080513          	mv	a0,a6
   15d60:	f3dff06f          	j	15c9c <ff_wtoupper+0x5c>
   15d64:	40d507b3          	sub	a5,a0,a3
   15d68:	00179793          	slli	a5,a5,0x1
   15d6c:	00f70733          	add	a4,a4,a5
   15d70:	00075803          	lhu	a6,0(a4)
   15d74:	00080513          	mv	a0,a6
   15d78:	f25ff06f          	j	15c9c <ff_wtoupper+0x5c>
   15d7c:	ffffe7b7          	lui	a5,0xffffe
   15d80:	3a078793          	addi	a5,a5,928 # ffffe3a0 <__BSS_END__+0xfffde730>
   15d84:	00f80833          	add	a6,a6,a5
   15d88:	01081813          	slli	a6,a6,0x10
   15d8c:	01085813          	srli	a6,a6,0x10
   15d90:	00080513          	mv	a0,a6
   15d94:	f09ff06f          	j	15c9c <ff_wtoupper+0x5c>

00015d98 <disk_status>:
   15d98:	fff50513          	addi	a0,a0,-1
   15d9c:	00a03533          	snez	a0,a0
   15da0:	00008067          	ret

00015da4 <disk_initialize>:
   15da4:	00100793          	li	a5,1
   15da8:	00f50663          	beq	a0,a5,15db4 <disk_initialize+0x10>
   15dac:	00100513          	li	a0,1
   15db0:	00008067          	ret
   15db4:	ff010113          	addi	sp,sp,-16
   15db8:	00112623          	sw	ra,12(sp)
   15dbc:	848fc0ef          	jal	ra,11e04 <_Z13SDCardStartupv>
   15dc0:	00c12083          	lw	ra,12(sp)
   15dc4:	00150513          	addi	a0,a0,1
   15dc8:	00153513          	seqz	a0,a0
   15dcc:	01010113          	addi	sp,sp,16
   15dd0:	00008067          	ret

00015dd4 <disk_read>:
   15dd4:	00100713          	li	a4,1
   15dd8:	00e50a63          	beq	a0,a4,15dec <disk_read+0x18>
   15ddc:	0fd57513          	andi	a0,a0,253
   15de0:	00a03533          	snez	a0,a0
   15de4:	00350513          	addi	a0,a0,3
   15de8:	00008067          	ret
   15dec:	ff010113          	addi	sp,sp,-16
   15df0:	00058513          	mv	a0,a1
   15df4:	00068593          	mv	a1,a3
   15df8:	00112623          	sw	ra,12(sp)
   15dfc:	ea5fb0ef          	jal	ra,11ca0 <_Z20SDReadMultipleBlocksPhmm>
   15e00:	00c12083          	lw	ra,12(sp)
   15e04:	00150513          	addi	a0,a0,1
   15e08:	00153513          	seqz	a0,a0
   15e0c:	01010113          	addi	sp,sp,16
   15e10:	00008067          	ret

00015e14 <disk_write>:
   15e14:	00100713          	li	a4,1
   15e18:	00e50a63          	beq	a0,a4,15e2c <disk_write+0x18>
   15e1c:	0fd57513          	andi	a0,a0,253
   15e20:	00a03533          	snez	a0,a0
   15e24:	00350513          	addi	a0,a0,3
   15e28:	00008067          	ret
   15e2c:	ff010113          	addi	sp,sp,-16
   15e30:	00058513          	mv	a0,a1
   15e34:	00068593          	mv	a1,a3
   15e38:	00112623          	sw	ra,12(sp)
   15e3c:	f19fb0ef          	jal	ra,11d54 <_Z21SDWriteMultipleBlocksPKhmm>
   15e40:	00c12083          	lw	ra,12(sp)
   15e44:	00150513          	addi	a0,a0,1
   15e48:	00153513          	seqz	a0,a0
   15e4c:	01010113          	addi	sp,sp,16
   15e50:	00008067          	ret

00015e54 <disk_ioctl>:
   15e54:	00353513          	sltiu	a0,a0,3
   15e58:	00154513          	xori	a0,a0,1
   15e5c:	00251513          	slli	a0,a0,0x2
   15e60:	00008067          	ret

00015e64 <__udivdi3>:
#endif

#ifdef L_udivdi3
UDWtype
__udivdi3 (UDWtype n, UDWtype d)
{
   15e64:	00050313          	mv	t1,a0
   15e68:	00058893          	mv	a7,a1
  d0 = dd.s.low;
   15e6c:	00060713          	mv	a4,a2
  n0 = nn.s.low;
   15e70:	00050813          	mv	a6,a0
  n1 = nn.s.high;
   15e74:	00058793          	mv	a5,a1
  if (d1 == 0)
   15e78:	28069263          	bnez	a3,160fc <__udivdi3+0x298>
      if (d0 > n1)
   15e7c:	000195b7          	lui	a1,0x19
   15e80:	72458593          	addi	a1,a1,1828 # 19724 <__clz_tab>
   15e84:	0ec8f663          	bgeu	a7,a2,15f70 <__udivdi3+0x10c>
	  count_leading_zeros (bm, d0);
   15e88:	000106b7          	lui	a3,0x10
   15e8c:	0cd67863          	bgeu	a2,a3,15f5c <__udivdi3+0xf8>
   15e90:	10063693          	sltiu	a3,a2,256
   15e94:	0016c693          	xori	a3,a3,1
   15e98:	00369693          	slli	a3,a3,0x3
   15e9c:	00d65533          	srl	a0,a2,a3
   15ea0:	00a585b3          	add	a1,a1,a0
   15ea4:	0005c583          	lbu	a1,0(a1)
   15ea8:	02000513          	li	a0,32
   15eac:	00d586b3          	add	a3,a1,a3
   15eb0:	40d505b3          	sub	a1,a0,a3
	  if (bm != 0)
   15eb4:	00d50c63          	beq	a0,a3,15ecc <__udivdi3+0x68>
	      n1 = (n1 << bm) | (n0 >> (W_TYPE_SIZE - bm));
   15eb8:	00b897b3          	sll	a5,a7,a1
   15ebc:	00d356b3          	srl	a3,t1,a3
	      d0 = d0 << bm;
   15ec0:	00b61733          	sll	a4,a2,a1
	      n1 = (n1 << bm) | (n0 >> (W_TYPE_SIZE - bm));
   15ec4:	00f6e7b3          	or	a5,a3,a5
	      n0 = n0 << bm;
   15ec8:	00b31833          	sll	a6,t1,a1
	  udiv_qrnnd (q0, n0, n1, n0, d0);
   15ecc:	01075593          	srli	a1,a4,0x10
   15ed0:	02b7d333          	divu	t1,a5,a1
   15ed4:	01071613          	slli	a2,a4,0x10
   15ed8:	01065613          	srli	a2,a2,0x10
   15edc:	02b7f7b3          	remu	a5,a5,a1
   15ee0:	00030513          	mv	a0,t1
   15ee4:	026608b3          	mul	a7,a2,t1
   15ee8:	01079693          	slli	a3,a5,0x10
   15eec:	01085793          	srli	a5,a6,0x10
   15ef0:	00d7e7b3          	or	a5,a5,a3
   15ef4:	0117fe63          	bgeu	a5,a7,15f10 <__udivdi3+0xac>
   15ef8:	00e787b3          	add	a5,a5,a4
   15efc:	fff30513          	addi	a0,t1,-1 # feffff <__BSS_END__+0xfd038f>
   15f00:	00e7e863          	bltu	a5,a4,15f10 <__udivdi3+0xac>
   15f04:	0117f663          	bgeu	a5,a7,15f10 <__udivdi3+0xac>
   15f08:	ffe30513          	addi	a0,t1,-2
   15f0c:	00e787b3          	add	a5,a5,a4
   15f10:	411787b3          	sub	a5,a5,a7
   15f14:	02b7d8b3          	divu	a7,a5,a1
   15f18:	01081813          	slli	a6,a6,0x10
   15f1c:	01085813          	srli	a6,a6,0x10
   15f20:	02b7f7b3          	remu	a5,a5,a1
   15f24:	031606b3          	mul	a3,a2,a7
   15f28:	01079793          	slli	a5,a5,0x10
   15f2c:	00f86833          	or	a6,a6,a5
   15f30:	00088793          	mv	a5,a7
   15f34:	00d87c63          	bgeu	a6,a3,15f4c <__udivdi3+0xe8>
   15f38:	01070833          	add	a6,a4,a6
   15f3c:	fff88793          	addi	a5,a7,-1
   15f40:	00e86663          	bltu	a6,a4,15f4c <__udivdi3+0xe8>
   15f44:	00d87463          	bgeu	a6,a3,15f4c <__udivdi3+0xe8>
   15f48:	ffe88793          	addi	a5,a7,-2
   15f4c:	01051513          	slli	a0,a0,0x10
   15f50:	00f56533          	or	a0,a0,a5
	      q1 = 0;
   15f54:	00000593          	li	a1,0
  return __udivmoddi4 (n, d, (UDWtype *) 0);
}
   15f58:	00008067          	ret
	  count_leading_zeros (bm, d0);
   15f5c:	01000537          	lui	a0,0x1000
   15f60:	01000693          	li	a3,16
   15f64:	f2a66ce3          	bltu	a2,a0,15e9c <__udivdi3+0x38>
   15f68:	01800693          	li	a3,24
   15f6c:	f31ff06f          	j	15e9c <__udivdi3+0x38>
	  if (d0 == 0)
   15f70:	00061463          	bnez	a2,15f78 <__udivdi3+0x114>
	    d0 = 1 / d0;	/* Divide intentionally by zero.  */
   15f74:	00100073          	ebreak
	  count_leading_zeros (bm, d0);
   15f78:	000107b7          	lui	a5,0x10
   15f7c:	0cf67063          	bgeu	a2,a5,1603c <__udivdi3+0x1d8>
   15f80:	10063693          	sltiu	a3,a2,256
   15f84:	0016c693          	xori	a3,a3,1
   15f88:	00369693          	slli	a3,a3,0x3
   15f8c:	00d657b3          	srl	a5,a2,a3
   15f90:	00f585b3          	add	a1,a1,a5
   15f94:	0005c783          	lbu	a5,0(a1)
   15f98:	00d787b3          	add	a5,a5,a3
   15f9c:	02000693          	li	a3,32
   15fa0:	40f685b3          	sub	a1,a3,a5
	  if (bm == 0)
   15fa4:	0af69663          	bne	a3,a5,16050 <__udivdi3+0x1ec>
	      n1 -= d0;
   15fa8:	40c887b3          	sub	a5,a7,a2
	      q1 = 1;
   15fac:	00100593          	li	a1,1
	  udiv_qrnnd (q0, n0, n1, n0, d0);
   15fb0:	01075893          	srli	a7,a4,0x10
   15fb4:	0317de33          	divu	t3,a5,a7
   15fb8:	01071613          	slli	a2,a4,0x10
   15fbc:	01065613          	srli	a2,a2,0x10
   15fc0:	01085693          	srli	a3,a6,0x10
   15fc4:	0317f7b3          	remu	a5,a5,a7
   15fc8:	000e0513          	mv	a0,t3
   15fcc:	03c60333          	mul	t1,a2,t3
   15fd0:	01079793          	slli	a5,a5,0x10
   15fd4:	00f6e7b3          	or	a5,a3,a5
   15fd8:	0067fe63          	bgeu	a5,t1,15ff4 <__udivdi3+0x190>
   15fdc:	00e787b3          	add	a5,a5,a4
   15fe0:	fffe0513          	addi	a0,t3,-1
   15fe4:	00e7e863          	bltu	a5,a4,15ff4 <__udivdi3+0x190>
   15fe8:	0067f663          	bgeu	a5,t1,15ff4 <__udivdi3+0x190>
   15fec:	ffee0513          	addi	a0,t3,-2
   15ff0:	00e787b3          	add	a5,a5,a4
   15ff4:	406787b3          	sub	a5,a5,t1
   15ff8:	0317d333          	divu	t1,a5,a7
   15ffc:	01081813          	slli	a6,a6,0x10
   16000:	01085813          	srli	a6,a6,0x10
   16004:	0317f7b3          	remu	a5,a5,a7
   16008:	026606b3          	mul	a3,a2,t1
   1600c:	01079793          	slli	a5,a5,0x10
   16010:	00f86833          	or	a6,a6,a5
   16014:	00030793          	mv	a5,t1
   16018:	00d87c63          	bgeu	a6,a3,16030 <__udivdi3+0x1cc>
   1601c:	01070833          	add	a6,a4,a6
   16020:	fff30793          	addi	a5,t1,-1
   16024:	00e86663          	bltu	a6,a4,16030 <__udivdi3+0x1cc>
   16028:	00d87463          	bgeu	a6,a3,16030 <__udivdi3+0x1cc>
   1602c:	ffe30793          	addi	a5,t1,-2
   16030:	01051513          	slli	a0,a0,0x10
   16034:	00f56533          	or	a0,a0,a5
   16038:	00008067          	ret
	  count_leading_zeros (bm, d0);
   1603c:	010007b7          	lui	a5,0x1000
   16040:	01000693          	li	a3,16
   16044:	f4f664e3          	bltu	a2,a5,15f8c <__udivdi3+0x128>
   16048:	01800693          	li	a3,24
   1604c:	f41ff06f          	j	15f8c <__udivdi3+0x128>
	      d0 = d0 << bm;
   16050:	00b61733          	sll	a4,a2,a1
	      n2 = n1 >> b;
   16054:	00f8d6b3          	srl	a3,a7,a5
	      udiv_qrnnd (q1, n1, n2, n1, d0);
   16058:	01075513          	srli	a0,a4,0x10
	      n1 = (n1 << bm) | (n0 >> b);
   1605c:	00f357b3          	srl	a5,t1,a5
	      n0 = n0 << bm;
   16060:	00b31833          	sll	a6,t1,a1
	      udiv_qrnnd (q1, n1, n2, n1, d0);
   16064:	02a6d333          	divu	t1,a3,a0
   16068:	01071613          	slli	a2,a4,0x10
	      n1 = (n1 << bm) | (n0 >> b);
   1606c:	00b898b3          	sll	a7,a7,a1
	      udiv_qrnnd (q1, n1, n2, n1, d0);
   16070:	01065613          	srli	a2,a2,0x10
	      n1 = (n1 << bm) | (n0 >> b);
   16074:	0117e7b3          	or	a5,a5,a7
	      udiv_qrnnd (q1, n1, n2, n1, d0);
   16078:	02a6f6b3          	remu	a3,a3,a0
   1607c:	026608b3          	mul	a7,a2,t1
   16080:	01069593          	slli	a1,a3,0x10
   16084:	0107d693          	srli	a3,a5,0x10
   16088:	00b6e6b3          	or	a3,a3,a1
   1608c:	00030593          	mv	a1,t1
   16090:	0116fe63          	bgeu	a3,a7,160ac <__udivdi3+0x248>
   16094:	00e686b3          	add	a3,a3,a4
   16098:	fff30593          	addi	a1,t1,-1
   1609c:	00e6e863          	bltu	a3,a4,160ac <__udivdi3+0x248>
   160a0:	0116f663          	bgeu	a3,a7,160ac <__udivdi3+0x248>
   160a4:	ffe30593          	addi	a1,t1,-2
   160a8:	00e686b3          	add	a3,a3,a4
   160ac:	411686b3          	sub	a3,a3,a7
   160b0:	02a6d8b3          	divu	a7,a3,a0
   160b4:	01079793          	slli	a5,a5,0x10
   160b8:	0107d793          	srli	a5,a5,0x10
   160bc:	02a6f6b3          	remu	a3,a3,a0
   160c0:	03160633          	mul	a2,a2,a7
   160c4:	01069693          	slli	a3,a3,0x10
   160c8:	00d7e7b3          	or	a5,a5,a3
   160cc:	00088693          	mv	a3,a7
   160d0:	00c7fe63          	bgeu	a5,a2,160ec <__udivdi3+0x288>
   160d4:	00e787b3          	add	a5,a5,a4
   160d8:	fff88693          	addi	a3,a7,-1
   160dc:	00e7e863          	bltu	a5,a4,160ec <__udivdi3+0x288>
   160e0:	00c7f663          	bgeu	a5,a2,160ec <__udivdi3+0x288>
   160e4:	ffe88693          	addi	a3,a7,-2
   160e8:	00e787b3          	add	a5,a5,a4
   160ec:	01059593          	slli	a1,a1,0x10
   160f0:	40c787b3          	sub	a5,a5,a2
   160f4:	00d5e5b3          	or	a1,a1,a3
   160f8:	eb9ff06f          	j	15fb0 <__udivdi3+0x14c>
      if (d1 > n1)
   160fc:	18d5e663          	bltu	a1,a3,16288 <__udivdi3+0x424>
	  count_leading_zeros (bm, d1);
   16100:	000107b7          	lui	a5,0x10
   16104:	04f6f463          	bgeu	a3,a5,1614c <__udivdi3+0x2e8>
   16108:	1006b713          	sltiu	a4,a3,256
   1610c:	00174713          	xori	a4,a4,1
   16110:	00371713          	slli	a4,a4,0x3
   16114:	000197b7          	lui	a5,0x19
   16118:	00e6d5b3          	srl	a1,a3,a4
   1611c:	72478793          	addi	a5,a5,1828 # 19724 <__clz_tab>
   16120:	00b787b3          	add	a5,a5,a1
   16124:	0007c783          	lbu	a5,0(a5)
   16128:	00e787b3          	add	a5,a5,a4
   1612c:	02000713          	li	a4,32
   16130:	40f705b3          	sub	a1,a4,a5
	  if (bm == 0)
   16134:	02f71663          	bne	a4,a5,16160 <__udivdi3+0x2fc>
		  q0 = 1;
   16138:	00100513          	li	a0,1
	      if (n1 > d1 || n0 >= d0)
   1613c:	e116eee3          	bltu	a3,a7,15f58 <__udivdi3+0xf4>
   16140:	00c33533          	sltu	a0,t1,a2
   16144:	00154513          	xori	a0,a0,1
   16148:	00008067          	ret
	  count_leading_zeros (bm, d1);
   1614c:	010007b7          	lui	a5,0x1000
   16150:	01000713          	li	a4,16
   16154:	fcf6e0e3          	bltu	a3,a5,16114 <__udivdi3+0x2b0>
   16158:	01800713          	li	a4,24
   1615c:	fb9ff06f          	j	16114 <__udivdi3+0x2b0>
	      d1 = (d1 << bm) | (d0 >> b);
   16160:	00f65733          	srl	a4,a2,a5
   16164:	00b696b3          	sll	a3,a3,a1
   16168:	00d766b3          	or	a3,a4,a3
	      n2 = n1 >> b;
   1616c:	00f8d733          	srl	a4,a7,a5
	      n1 = (n1 << bm) | (n0 >> b);
   16170:	00b898b3          	sll	a7,a7,a1
   16174:	00f357b3          	srl	a5,t1,a5
   16178:	0117e7b3          	or	a5,a5,a7
	      udiv_qrnnd (q0, n1, n2, n1, d1);
   1617c:	0106d893          	srli	a7,a3,0x10
   16180:	03175eb3          	divu	t4,a4,a7
   16184:	01069813          	slli	a6,a3,0x10
   16188:	01085813          	srli	a6,a6,0x10
	      d0 = d0 << bm;
   1618c:	00b61633          	sll	a2,a2,a1
	      udiv_qrnnd (q0, n1, n2, n1, d1);
   16190:	03177733          	remu	a4,a4,a7
   16194:	03d80e33          	mul	t3,a6,t4
   16198:	01071513          	slli	a0,a4,0x10
   1619c:	0107d713          	srli	a4,a5,0x10
   161a0:	00a76733          	or	a4,a4,a0
   161a4:	000e8513          	mv	a0,t4
   161a8:	01c77e63          	bgeu	a4,t3,161c4 <__udivdi3+0x360>
   161ac:	00d70733          	add	a4,a4,a3
   161b0:	fffe8513          	addi	a0,t4,-1
   161b4:	00d76863          	bltu	a4,a3,161c4 <__udivdi3+0x360>
   161b8:	01c77663          	bgeu	a4,t3,161c4 <__udivdi3+0x360>
   161bc:	ffee8513          	addi	a0,t4,-2
   161c0:	00d70733          	add	a4,a4,a3
   161c4:	41c70733          	sub	a4,a4,t3
   161c8:	03175e33          	divu	t3,a4,a7
   161cc:	01079793          	slli	a5,a5,0x10
   161d0:	0107d793          	srli	a5,a5,0x10
   161d4:	03177733          	remu	a4,a4,a7
   161d8:	03c80833          	mul	a6,a6,t3
   161dc:	01071713          	slli	a4,a4,0x10
   161e0:	00e7e7b3          	or	a5,a5,a4
   161e4:	000e0713          	mv	a4,t3
   161e8:	0107fe63          	bgeu	a5,a6,16204 <__udivdi3+0x3a0>
   161ec:	00d787b3          	add	a5,a5,a3
   161f0:	fffe0713          	addi	a4,t3,-1
   161f4:	00d7e863          	bltu	a5,a3,16204 <__udivdi3+0x3a0>
   161f8:	0107f663          	bgeu	a5,a6,16204 <__udivdi3+0x3a0>
   161fc:	ffee0713          	addi	a4,t3,-2
   16200:	00d787b3          	add	a5,a5,a3
   16204:	01051513          	slli	a0,a0,0x10
	      umul_ppmm (m1, m0, q0, d0);
   16208:	00010e37          	lui	t3,0x10
	      udiv_qrnnd (q0, n1, n2, n1, d1);
   1620c:	00e56533          	or	a0,a0,a4
	      umul_ppmm (m1, m0, q0, d0);
   16210:	fffe0693          	addi	a3,t3,-1 # ffff <main-0x75>
   16214:	00d57733          	and	a4,a0,a3
	      udiv_qrnnd (q0, n1, n2, n1, d1);
   16218:	410787b3          	sub	a5,a5,a6
	      umul_ppmm (m1, m0, q0, d0);
   1621c:	00d676b3          	and	a3,a2,a3
   16220:	01055813          	srli	a6,a0,0x10
   16224:	01065613          	srli	a2,a2,0x10
   16228:	02d708b3          	mul	a7,a4,a3
   1622c:	02d806b3          	mul	a3,a6,a3
   16230:	02c70733          	mul	a4,a4,a2
   16234:	02c80833          	mul	a6,a6,a2
   16238:	00d70633          	add	a2,a4,a3
   1623c:	0108d713          	srli	a4,a7,0x10
   16240:	00c70733          	add	a4,a4,a2
   16244:	00d77463          	bgeu	a4,a3,1624c <__udivdi3+0x3e8>
   16248:	01c80833          	add	a6,a6,t3
   1624c:	01075693          	srli	a3,a4,0x10
   16250:	010686b3          	add	a3,a3,a6
	      if (m1 > n1 || (m1 == n1 && m0 > n0))
   16254:	02d7e663          	bltu	a5,a3,16280 <__udivdi3+0x41c>
   16258:	ced79ee3          	bne	a5,a3,15f54 <__udivdi3+0xf0>
	      umul_ppmm (m1, m0, q0, d0);
   1625c:	000107b7          	lui	a5,0x10
   16260:	fff78793          	addi	a5,a5,-1 # ffff <main-0x75>
   16264:	00f77733          	and	a4,a4,a5
   16268:	01071713          	slli	a4,a4,0x10
   1626c:	00f8f8b3          	and	a7,a7,a5
	      n0 = n0 << bm;
   16270:	00b31333          	sll	t1,t1,a1
	      umul_ppmm (m1, m0, q0, d0);
   16274:	01170733          	add	a4,a4,a7
	      q1 = 0;
   16278:	00000593          	li	a1,0
	      if (m1 > n1 || (m1 == n1 && m0 > n0))
   1627c:	cce37ee3          	bgeu	t1,a4,15f58 <__udivdi3+0xf4>
		  q0--;
   16280:	fff50513          	addi	a0,a0,-1 # ffffff <__BSS_END__+0xfe038f>
		  sub_ddmmss (m1, m0, m1, m0, d1, d0);
   16284:	cd1ff06f          	j	15f54 <__udivdi3+0xf0>
	  q1 = 0;
   16288:	00000593          	li	a1,0
	  q0 = 0;
   1628c:	00000513          	li	a0,0
   16290:	00008067          	ret

00016294 <logf>:
   16294:	fe010113          	addi	sp,sp,-32
   16298:	00812627          	fsw	fs0,12(sp)
   1629c:	20a50453          	fmv.s	fs0,fa0
   162a0:	00112e23          	sw	ra,28(sp)
   162a4:	068000ef          	jal	ra,1630c <__ieee754_logf>
   162a8:	a08427d3          	feq.s	a5,fs0,fs0
   162ac:	02078663          	beqz	a5,162d8 <logf+0x44>
   162b0:	f00007d3          	fmv.w.x	fa5,zero
   162b4:	a08797d3          	flt.s	a5,fa5,fs0
   162b8:	02079063          	bnez	a5,162d8 <logf+0x44>
   162bc:	a0f427d3          	feq.s	a5,fs0,fa5
   162c0:	02078463          	beqz	a5,162e8 <logf+0x54>
   162c4:	24c000ef          	jal	ra,16510 <__errno>
   162c8:	0001b7b7          	lui	a5,0x1b
   162cc:	4287a507          	flw	fa0,1064(a5) # 1b428 <__SDATA_BEGIN__>
   162d0:	02200793          	li	a5,34
   162d4:	00f52023          	sw	a5,0(a0)
   162d8:	01c12083          	lw	ra,28(sp)
   162dc:	00c12407          	flw	fs0,12(sp)
   162e0:	02010113          	addi	sp,sp,32
   162e4:	00008067          	ret
   162e8:	228000ef          	jal	ra,16510 <__errno>
   162ec:	01c12083          	lw	ra,28(sp)
   162f0:	00c12407          	flw	fs0,12(sp)
   162f4:	02100793          	li	a5,33
   162f8:	00f52023          	sw	a5,0(a0)
   162fc:	00019537          	lui	a0,0x19
   16300:	1c450513          	addi	a0,a0,452 # 191c4 <_ZL12residentfont+0x18f4>
   16304:	02010113          	addi	sp,sp,32
   16308:	2000006f          	j	16508 <nanf>

0001630c <__ieee754_logf>:
   1630c:	e00507d3          	fmv.x.w	a5,fa0
   16310:	00179693          	slli	a3,a5,0x1
   16314:	00078713          	mv	a4,a5
   16318:	08068e63          	beqz	a3,163b4 <__ieee754_logf+0xa8>
   1631c:	0a07c663          	bltz	a5,163c8 <__ieee754_logf+0xbc>
   16320:	7f8006b7          	lui	a3,0x7f800
   16324:	14d7d463          	bge	a5,a3,1646c <__ieee754_logf+0x160>
   16328:	008006b7          	lui	a3,0x800
   1632c:	00000813          	li	a6,0
   16330:	00d7da63          	bge	a5,a3,16344 <__ieee754_logf+0x38>
   16334:	8081a787          	flw	fa5,-2040(gp) # 1b430 <__SDATA_BEGIN__+0x8>
   16338:	fe700813          	li	a6,-25
   1633c:	10f577d3          	fmul.s	fa5,fa0,fa5
   16340:	e0078753          	fmv.x.w	a4,fa5
   16344:	008005b7          	lui	a1,0x800
   16348:	fff58613          	addi	a2,a1,-1 # 7fffff <__BSS_END__+0x7e038f>
   1634c:	004b06b7          	lui	a3,0x4b0
   16350:	00c77633          	and	a2,a4,a2
   16354:	b2068693          	addi	a3,a3,-1248 # 4afb20 <__BSS_END__+0x48feb0>
   16358:	00d606b3          	add	a3,a2,a3
   1635c:	00b6f6b3          	and	a3,a3,a1
   16360:	3f8007b7          	lui	a5,0x3f800
   16364:	00f6c7b3          	xor	a5,a3,a5
   16368:	00f60513          	addi	a0,a2,15
   1636c:	ff058593          	addi	a1,a1,-16
   16370:	00c7e7b3          	or	a5,a5,a2
   16374:	00b575b3          	and	a1,a0,a1
   16378:	80c1a507          	flw	fa0,-2036(gp) # 1b434 <__SDATA_BEGIN__+0xc>
   1637c:	f00787d3          	fmv.w.x	fa5,a5
   16380:	41775713          	srai	a4,a4,0x17
   16384:	f8170713          	addi	a4,a4,-127
   16388:	01070733          	add	a4,a4,a6
   1638c:	4176d693          	srai	a3,a3,0x17
   16390:	08a7f553          	fsub.s	fa0,fa5,fa0
   16394:	00e686b3          	add	a3,a3,a4
   16398:	04059063          	bnez	a1,163d8 <__ieee754_logf+0xcc>
   1639c:	f00007d3          	fmv.w.x	fa5,zero
   163a0:	a0f527d3          	feq.s	a5,fa0,fa5
   163a4:	0c078863          	beqz	a5,16474 <__ieee754_logf+0x168>
   163a8:	20f78553          	fmv.s	fa0,fa5
   163ac:	14069263          	bnez	a3,164f0 <__ieee754_logf+0x1e4>
   163b0:	00008067          	ret
   163b4:	0001b7b7          	lui	a5,0x1b
   163b8:	f00007d3          	fmv.w.x	fa5,zero
   163bc:	42c7a507          	flw	fa0,1068(a5) # 1b42c <__SDATA_BEGIN__+0x4>
   163c0:	18f57553          	fdiv.s	fa0,fa0,fa5
   163c4:	00008067          	ret
   163c8:	08a57553          	fsub.s	fa0,fa0,fa0
   163cc:	f00007d3          	fmv.w.x	fa5,zero
   163d0:	18f57553          	fdiv.s	fa0,fa0,fa5
   163d4:	00008067          	ret
   163d8:	8201a687          	flw	fa3,-2016(gp) # 1b448 <__SDATA_BEGIN__+0x20>
   163dc:	ffcf6737          	lui	a4,0xffcf6
   163e0:	0035c7b7          	lui	a5,0x35c
   163e4:	00d576d3          	fadd.s	fa3,fa0,fa3
   163e8:	c3070713          	addi	a4,a4,-976 # ffcf5c30 <__BSS_END__+0xffcd5fc0>
   163ec:	28878793          	addi	a5,a5,648 # 35c288 <__BSS_END__+0x33c618>
   163f0:	00e60733          	add	a4,a2,a4
   163f4:	40c787b3          	sub	a5,a5,a2
   163f8:	18d576d3          	fdiv.s	fa3,fa0,fa3
   163fc:	00e7e7b3          	or	a5,a5,a4
   16400:	8301a707          	flw	fa4,-2000(gp) # 1b458 <__SDATA_BEGIN__+0x30>
   16404:	8341a787          	flw	fa5,-1996(gp) # 1b45c <__SDATA_BEGIN__+0x34>
   16408:	d006f0d3          	fcvt.s.w	ft1,a3
   1640c:	10d6f5d3          	fmul.s	fa1,fa3,fa3
   16410:	10b5f653          	fmul.s	fa2,fa1,fa1
   16414:	78e67743          	fmadd.s	fa4,fa2,fa4,fa5
   16418:	8241a787          	flw	fa5,-2012(gp) # 1b44c <__SDATA_BEGIN__+0x24>
   1641c:	8281a007          	flw	ft0,-2008(gp) # 1b450 <__SDATA_BEGIN__+0x28>
   16420:	00f677c3          	fmadd.s	fa5,fa2,fa5,ft0
   16424:	8381a007          	flw	ft0,-1992(gp) # 1b460 <__SDATA_BEGIN__+0x38>
   16428:	00c77743          	fmadd.s	fa4,fa4,fa2,ft0
   1642c:	82c1a007          	flw	ft0,-2004(gp) # 1b454 <__SDATA_BEGIN__+0x2c>
   16430:	00c7f7c3          	fmadd.s	fa5,fa5,fa2,ft0
   16434:	83c1a007          	flw	ft0,-1988(gp) # 1b464 <__SDATA_BEGIN__+0x3c>
   16438:	00c77743          	fmadd.s	fa4,fa4,fa2,ft0
   1643c:	10b77753          	fmul.s	fa4,fa4,fa1
   16440:	70c7f7c3          	fmadd.s	fa5,fa5,fa2,fa4
   16444:	04f05863          	blez	a5,16494 <__ieee754_logf+0x188>
   16448:	81c1a707          	flw	fa4,-2020(gp) # 1b444 <__SDATA_BEGIN__+0x1c>
   1644c:	10e57753          	fmul.s	fa4,fa0,fa4
   16450:	10a77753          	fmul.s	fa4,fa4,fa0
   16454:	00e7f7d3          	fadd.s	fa5,fa5,fa4
   16458:	10d7f7d3          	fmul.s	fa5,fa5,fa3
   1645c:	04069e63          	bnez	a3,164b8 <__ieee754_logf+0x1ac>
   16460:	08f77753          	fsub.s	fa4,fa4,fa5
   16464:	08e57553          	fsub.s	fa0,fa0,fa4
   16468:	00008067          	ret
   1646c:	00a57553          	fadd.s	fa0,fa0,fa0
   16470:	00008067          	ret
   16474:	8181a707          	flw	fa4,-2024(gp) # 1b440 <__SDATA_BEGIN__+0x18>
   16478:	81c1a687          	flw	fa3,-2020(gp) # 1b444 <__SDATA_BEGIN__+0x1c>
   1647c:	10a577d3          	fmul.s	fa5,fa0,fa0
   16480:	68e5774b          	fnmsub.s	fa4,fa0,fa4,fa3
   16484:	10e7f7d3          	fmul.s	fa5,fa5,fa4
   16488:	04069663          	bnez	a3,164d4 <__ieee754_logf+0x1c8>
   1648c:	08f57553          	fsub.s	fa0,fa0,fa5
   16490:	00008067          	ret
   16494:	08f577d3          	fsub.s	fa5,fa0,fa5
   16498:	10d7f7d3          	fmul.s	fa5,fa5,fa3
   1649c:	fe0688e3          	beqz	a3,1648c <__ieee754_logf+0x180>
   164a0:	8101a707          	flw	fa4,-2032(gp) # 1b438 <__SDATA_BEGIN__+0x10>
   164a4:	78e0f7cb          	fnmsub.s	fa5,ft1,fa4,fa5
   164a8:	08a7f7d3          	fsub.s	fa5,fa5,fa0
   164ac:	8141a507          	flw	fa0,-2028(gp) # 1b43c <__SDATA_BEGIN__+0x14>
   164b0:	78a0f547          	fmsub.s	fa0,ft1,fa0,fa5
   164b4:	00008067          	ret
   164b8:	8101a687          	flw	fa3,-2032(gp) # 1b438 <__SDATA_BEGIN__+0x10>
   164bc:	78d0f7c3          	fmadd.s	fa5,ft1,fa3,fa5
   164c0:	08f77753          	fsub.s	fa4,fa4,fa5
   164c4:	08a77753          	fsub.s	fa4,fa4,fa0
   164c8:	8141a507          	flw	fa0,-2028(gp) # 1b43c <__SDATA_BEGIN__+0x14>
   164cc:	70a0f547          	fmsub.s	fa0,ft1,fa0,fa4
   164d0:	00008067          	ret
   164d4:	d006f6d3          	fcvt.s.w	fa3,a3
   164d8:	8101a707          	flw	fa4,-2032(gp) # 1b438 <__SDATA_BEGIN__+0x10>
   164dc:	78e6f7cb          	fnmsub.s	fa5,fa3,fa4,fa5
   164e0:	08a7f7d3          	fsub.s	fa5,fa5,fa0
   164e4:	8141a507          	flw	fa0,-2028(gp) # 1b43c <__SDATA_BEGIN__+0x14>
   164e8:	78a6f547          	fmsub.s	fa0,fa3,fa0,fa5
   164ec:	00008067          	ret
   164f0:	d006f553          	fcvt.s.w	fa0,a3
   164f4:	8101a787          	flw	fa5,-2032(gp) # 1b438 <__SDATA_BEGIN__+0x10>
   164f8:	8141a707          	flw	fa4,-2028(gp) # 1b43c <__SDATA_BEGIN__+0x14>
   164fc:	10f577d3          	fmul.s	fa5,fa0,fa5
   16500:	78e57543          	fmadd.s	fa0,fa0,fa4,fa5
   16504:	00008067          	ret

00016508 <nanf>:
   16508:	8401a507          	flw	fa0,-1984(gp) # 1b468 <__SDATA_BEGIN__+0x40>
   1650c:	00008067          	ret

00016510 <__errno>:
   16510:	8481a503          	lw	a0,-1976(gp) # 1b470 <_impure_ptr>
   16514:	00008067          	ret

00016518 <exit>:
   16518:	ff010113          	addi	sp,sp,-16
   1651c:	00000593          	li	a1,0
   16520:	00812423          	sw	s0,8(sp)
   16524:	00112623          	sw	ra,12(sp)
   16528:	00050413          	mv	s0,a0
   1652c:	499000ef          	jal	ra,171c4 <__call_exitprocs>
   16530:	8441a503          	lw	a0,-1980(gp) # 1b46c <_global_impure_ptr>
   16534:	03c52783          	lw	a5,60(a0)
   16538:	00078463          	beqz	a5,16540 <exit+0x28>
   1653c:	000780e7          	jalr	a5
   16540:	00040513          	mv	a0,s0
   16544:	2f0010ef          	jal	ra,17834 <_exit>

00016548 <__libc_init_array>:
   16548:	ff010113          	addi	sp,sp,-16
   1654c:	00812423          	sw	s0,8(sp)
   16550:	01212023          	sw	s2,0(sp)
   16554:	0001b437          	lui	s0,0x1b
   16558:	0001b937          	lui	s2,0x1b
   1655c:	b8c40793          	addi	a5,s0,-1140 # 1ab8c <__init_array_start>
   16560:	b8c90913          	addi	s2,s2,-1140 # 1ab8c <__init_array_start>
   16564:	40f90933          	sub	s2,s2,a5
   16568:	00112623          	sw	ra,12(sp)
   1656c:	00912223          	sw	s1,4(sp)
   16570:	40295913          	srai	s2,s2,0x2
   16574:	02090063          	beqz	s2,16594 <__libc_init_array+0x4c>
   16578:	b8c40413          	addi	s0,s0,-1140
   1657c:	00000493          	li	s1,0
   16580:	00042783          	lw	a5,0(s0)
   16584:	00148493          	addi	s1,s1,1
   16588:	00440413          	addi	s0,s0,4
   1658c:	000780e7          	jalr	a5
   16590:	fe9918e3          	bne	s2,s1,16580 <__libc_init_array+0x38>
   16594:	0001b437          	lui	s0,0x1b
   16598:	0001b937          	lui	s2,0x1b
   1659c:	b8c40793          	addi	a5,s0,-1140 # 1ab8c <__init_array_start>
   165a0:	b9490913          	addi	s2,s2,-1132 # 1ab94 <__do_global_dtors_aux_fini_array_entry>
   165a4:	40f90933          	sub	s2,s2,a5
   165a8:	40295913          	srai	s2,s2,0x2
   165ac:	02090063          	beqz	s2,165cc <__libc_init_array+0x84>
   165b0:	b8c40413          	addi	s0,s0,-1140
   165b4:	00000493          	li	s1,0
   165b8:	00042783          	lw	a5,0(s0)
   165bc:	00148493          	addi	s1,s1,1
   165c0:	00440413          	addi	s0,s0,4
   165c4:	000780e7          	jalr	a5
   165c8:	fe9918e3          	bne	s2,s1,165b8 <__libc_init_array+0x70>
   165cc:	00c12083          	lw	ra,12(sp)
   165d0:	00812403          	lw	s0,8(sp)
   165d4:	00412483          	lw	s1,4(sp)
   165d8:	00012903          	lw	s2,0(sp)
   165dc:	01010113          	addi	sp,sp,16
   165e0:	00008067          	ret

000165e4 <malloc>:
   165e4:	00050593          	mv	a1,a0
   165e8:	8481a503          	lw	a0,-1976(gp) # 1b470 <_impure_ptr>
   165ec:	0100006f          	j	165fc <_malloc_r>

000165f0 <free>:
   165f0:	00050593          	mv	a1,a0
   165f4:	8481a503          	lw	a0,-1976(gp) # 1b470 <_impure_ptr>
   165f8:	6990006f          	j	17490 <_free_r>

000165fc <_malloc_r>:
   165fc:	fd010113          	addi	sp,sp,-48
   16600:	01312e23          	sw	s3,28(sp)
   16604:	02112623          	sw	ra,44(sp)
   16608:	02812423          	sw	s0,40(sp)
   1660c:	02912223          	sw	s1,36(sp)
   16610:	03212023          	sw	s2,32(sp)
   16614:	01412c23          	sw	s4,24(sp)
   16618:	01512a23          	sw	s5,20(sp)
   1661c:	01612823          	sw	s6,16(sp)
   16620:	01712623          	sw	s7,12(sp)
   16624:	01812423          	sw	s8,8(sp)
   16628:	01912223          	sw	s9,4(sp)
   1662c:	00b58793          	addi	a5,a1,11
   16630:	01600713          	li	a4,22
   16634:	00050993          	mv	s3,a0
   16638:	06f76663          	bltu	a4,a5,166a4 <_malloc_r+0xa8>
   1663c:	01000793          	li	a5,16
   16640:	1eb7e663          	bltu	a5,a1,1682c <_malloc_r+0x230>
   16644:	1dd000ef          	jal	ra,17020 <__malloc_lock>
   16648:	01000493          	li	s1,16
   1664c:	01800793          	li	a5,24
   16650:	00200613          	li	a2,2
   16654:	0001b937          	lui	s2,0x1b
   16658:	ff090913          	addi	s2,s2,-16 # 1aff0 <__malloc_av_>
   1665c:	00f907b3          	add	a5,s2,a5
   16660:	0047a403          	lw	s0,4(a5)
   16664:	ff878713          	addi	a4,a5,-8
   16668:	20e40a63          	beq	s0,a4,1687c <_malloc_r+0x280>
   1666c:	00442783          	lw	a5,4(s0)
   16670:	00c42683          	lw	a3,12(s0)
   16674:	00842603          	lw	a2,8(s0)
   16678:	ffc7f793          	andi	a5,a5,-4
   1667c:	00f407b3          	add	a5,s0,a5
   16680:	0047a703          	lw	a4,4(a5)
   16684:	00d62623          	sw	a3,12(a2)
   16688:	00c6a423          	sw	a2,8(a3)
   1668c:	00176713          	ori	a4,a4,1
   16690:	00098513          	mv	a0,s3
   16694:	00e7a223          	sw	a4,4(a5)
   16698:	18d000ef          	jal	ra,17024 <__malloc_unlock>
   1669c:	00840513          	addi	a0,s0,8
   166a0:	1980006f          	j	16838 <_malloc_r+0x23c>
   166a4:	ff87f493          	andi	s1,a5,-8
   166a8:	1807c263          	bltz	a5,1682c <_malloc_r+0x230>
   166ac:	18b4e063          	bltu	s1,a1,1682c <_malloc_r+0x230>
   166b0:	171000ef          	jal	ra,17020 <__malloc_lock>
   166b4:	1f700793          	li	a5,503
   166b8:	4497fe63          	bgeu	a5,s1,16b14 <_malloc_r+0x518>
   166bc:	0094d793          	srli	a5,s1,0x9
   166c0:	1a078663          	beqz	a5,1686c <_malloc_r+0x270>
   166c4:	00400713          	li	a4,4
   166c8:	3cf76463          	bltu	a4,a5,16a90 <_malloc_r+0x494>
   166cc:	0064d793          	srli	a5,s1,0x6
   166d0:	03978613          	addi	a2,a5,57
   166d4:	03878513          	addi	a0,a5,56
   166d8:	00361693          	slli	a3,a2,0x3
   166dc:	0001b937          	lui	s2,0x1b
   166e0:	ff090913          	addi	s2,s2,-16 # 1aff0 <__malloc_av_>
   166e4:	00d906b3          	add	a3,s2,a3
   166e8:	0046a403          	lw	s0,4(a3)
   166ec:	ff868693          	addi	a3,a3,-8
   166f0:	02868663          	beq	a3,s0,1671c <_malloc_r+0x120>
   166f4:	00f00593          	li	a1,15
   166f8:	0100006f          	j	16708 <_malloc_r+0x10c>
   166fc:	32075463          	bgez	a4,16a24 <_malloc_r+0x428>
   16700:	00c42403          	lw	s0,12(s0)
   16704:	00868c63          	beq	a3,s0,1671c <_malloc_r+0x120>
   16708:	00442783          	lw	a5,4(s0)
   1670c:	ffc7f793          	andi	a5,a5,-4
   16710:	40978733          	sub	a4,a5,s1
   16714:	fee5d4e3          	bge	a1,a4,166fc <_malloc_r+0x100>
   16718:	00050613          	mv	a2,a0
   1671c:	01092403          	lw	s0,16(s2)
   16720:	00890893          	addi	a7,s2,8
   16724:	17140863          	beq	s0,a7,16894 <_malloc_r+0x298>
   16728:	00442583          	lw	a1,4(s0)
   1672c:	00f00713          	li	a4,15
   16730:	ffc5f593          	andi	a1,a1,-4
   16734:	409587b3          	sub	a5,a1,s1
   16738:	40f74463          	blt	a4,a5,16b40 <_malloc_r+0x544>
   1673c:	01192a23          	sw	a7,20(s2)
   16740:	01192823          	sw	a7,16(s2)
   16744:	3c07de63          	bgez	a5,16b20 <_malloc_r+0x524>
   16748:	1ff00793          	li	a5,511
   1674c:	2eb7e263          	bltu	a5,a1,16a30 <_malloc_r+0x434>
   16750:	ff85f793          	andi	a5,a1,-8
   16754:	00878793          	addi	a5,a5,8
   16758:	00492503          	lw	a0,4(s2)
   1675c:	00f907b3          	add	a5,s2,a5
   16760:	0007a683          	lw	a3,0(a5)
   16764:	0055d593          	srli	a1,a1,0x5
   16768:	00100713          	li	a4,1
   1676c:	00b71733          	sll	a4,a4,a1
   16770:	00a76733          	or	a4,a4,a0
   16774:	ff878593          	addi	a1,a5,-8
   16778:	00b42623          	sw	a1,12(s0)
   1677c:	00d42423          	sw	a3,8(s0)
   16780:	00e92223          	sw	a4,4(s2)
   16784:	0087a023          	sw	s0,0(a5)
   16788:	0086a623          	sw	s0,12(a3)
   1678c:	40265793          	srai	a5,a2,0x2
   16790:	00100593          	li	a1,1
   16794:	00f595b3          	sll	a1,a1,a5
   16798:	10b76863          	bltu	a4,a1,168a8 <_malloc_r+0x2ac>
   1679c:	00e5f7b3          	and	a5,a1,a4
   167a0:	02079463          	bnez	a5,167c8 <_malloc_r+0x1cc>
   167a4:	00159593          	slli	a1,a1,0x1
   167a8:	ffc67613          	andi	a2,a2,-4
   167ac:	00e5f7b3          	and	a5,a1,a4
   167b0:	00460613          	addi	a2,a2,4
   167b4:	00079a63          	bnez	a5,167c8 <_malloc_r+0x1cc>
   167b8:	00159593          	slli	a1,a1,0x1
   167bc:	00e5f7b3          	and	a5,a1,a4
   167c0:	00460613          	addi	a2,a2,4
   167c4:	fe078ae3          	beqz	a5,167b8 <_malloc_r+0x1bc>
   167c8:	00f00813          	li	a6,15
   167cc:	00361313          	slli	t1,a2,0x3
   167d0:	00690333          	add	t1,s2,t1
   167d4:	00030513          	mv	a0,t1
   167d8:	00c52783          	lw	a5,12(a0)
   167dc:	00060e13          	mv	t3,a2
   167e0:	2cf50a63          	beq	a0,a5,16ab4 <_malloc_r+0x4b8>
   167e4:	0047a703          	lw	a4,4(a5)
   167e8:	00078413          	mv	s0,a5
   167ec:	00c7a783          	lw	a5,12(a5)
   167f0:	ffc77713          	andi	a4,a4,-4
   167f4:	409706b3          	sub	a3,a4,s1
   167f8:	2cd84a63          	blt	a6,a3,16acc <_malloc_r+0x4d0>
   167fc:	fe06c2e3          	bltz	a3,167e0 <_malloc_r+0x1e4>
   16800:	00e40733          	add	a4,s0,a4
   16804:	00472683          	lw	a3,4(a4)
   16808:	00842603          	lw	a2,8(s0)
   1680c:	00098513          	mv	a0,s3
   16810:	0016e693          	ori	a3,a3,1
   16814:	00d72223          	sw	a3,4(a4)
   16818:	00f62623          	sw	a5,12(a2)
   1681c:	00c7a423          	sw	a2,8(a5)
   16820:	005000ef          	jal	ra,17024 <__malloc_unlock>
   16824:	00840513          	addi	a0,s0,8
   16828:	0100006f          	j	16838 <_malloc_r+0x23c>
   1682c:	00c00793          	li	a5,12
   16830:	00f9a023          	sw	a5,0(s3)
   16834:	00000513          	li	a0,0
   16838:	02c12083          	lw	ra,44(sp)
   1683c:	02812403          	lw	s0,40(sp)
   16840:	02412483          	lw	s1,36(sp)
   16844:	02012903          	lw	s2,32(sp)
   16848:	01c12983          	lw	s3,28(sp)
   1684c:	01812a03          	lw	s4,24(sp)
   16850:	01412a83          	lw	s5,20(sp)
   16854:	01012b03          	lw	s6,16(sp)
   16858:	00c12b83          	lw	s7,12(sp)
   1685c:	00812c03          	lw	s8,8(sp)
   16860:	00412c83          	lw	s9,4(sp)
   16864:	03010113          	addi	sp,sp,48
   16868:	00008067          	ret
   1686c:	20000693          	li	a3,512
   16870:	04000613          	li	a2,64
   16874:	03f00513          	li	a0,63
   16878:	e65ff06f          	j	166dc <_malloc_r+0xe0>
   1687c:	00c7a403          	lw	s0,12(a5)
   16880:	00260613          	addi	a2,a2,2
   16884:	de8794e3          	bne	a5,s0,1666c <_malloc_r+0x70>
   16888:	01092403          	lw	s0,16(s2)
   1688c:	00890893          	addi	a7,s2,8
   16890:	e9141ce3          	bne	s0,a7,16728 <_malloc_r+0x12c>
   16894:	00492703          	lw	a4,4(s2)
   16898:	40265793          	srai	a5,a2,0x2
   1689c:	00100593          	li	a1,1
   168a0:	00f595b3          	sll	a1,a1,a5
   168a4:	eeb77ce3          	bgeu	a4,a1,1679c <_malloc_r+0x1a0>
   168a8:	00892403          	lw	s0,8(s2)
   168ac:	00442b03          	lw	s6,4(s0)
   168b0:	ffcb7b13          	andi	s6,s6,-4
   168b4:	009b6863          	bltu	s6,s1,168c4 <_malloc_r+0x2c8>
   168b8:	409b07b3          	sub	a5,s6,s1
   168bc:	00f00713          	li	a4,15
   168c0:	12f74e63          	blt	a4,a5,169fc <_malloc_r+0x400>
   168c4:	85c1aa83          	lw	s5,-1956(gp) # 1b484 <__malloc_top_pad>
   168c8:	84c1a703          	lw	a4,-1972(gp) # 1b474 <__malloc_sbrk_base>
   168cc:	fff00793          	li	a5,-1
   168d0:	01640a33          	add	s4,s0,s6
   168d4:	01548ab3          	add	s5,s1,s5
   168d8:	34f70663          	beq	a4,a5,16c24 <_malloc_r+0x628>
   168dc:	000017b7          	lui	a5,0x1
   168e0:	00f78793          	addi	a5,a5,15 # 100f <main-0xf065>
   168e4:	00fa8ab3          	add	s5,s5,a5
   168e8:	fffff7b7          	lui	a5,0xfffff
   168ec:	00fafab3          	and	s5,s5,a5
   168f0:	000a8593          	mv	a1,s5
   168f4:	00098513          	mv	a0,s3
   168f8:	730000ef          	jal	ra,17028 <_sbrk_r>
   168fc:	fff00793          	li	a5,-1
   16900:	00050b93          	mv	s7,a0
   16904:	28f50863          	beq	a0,a5,16b94 <_malloc_r+0x598>
   16908:	29456463          	bltu	a0,s4,16b90 <_malloc_r+0x594>
   1690c:	00020c37          	lui	s8,0x20
   16910:	c48c0c13          	addi	s8,s8,-952 # 1fc48 <__malloc_current_mallinfo>
   16914:	000c2583          	lw	a1,0(s8)
   16918:	00ba85b3          	add	a1,s5,a1
   1691c:	00bc2023          	sw	a1,0(s8)
   16920:	00058793          	mv	a5,a1
   16924:	3aaa0063          	beq	s4,a0,16cc4 <_malloc_r+0x6c8>
   16928:	84c1a683          	lw	a3,-1972(gp) # 1b474 <__malloc_sbrk_base>
   1692c:	fff00713          	li	a4,-1
   16930:	3ae68863          	beq	a3,a4,16ce0 <_malloc_r+0x6e4>
   16934:	414b8a33          	sub	s4,s7,s4
   16938:	00fa07b3          	add	a5,s4,a5
   1693c:	00fc2023          	sw	a5,0(s8)
   16940:	007bfc93          	andi	s9,s7,7
   16944:	300c8263          	beqz	s9,16c48 <_malloc_r+0x64c>
   16948:	000017b7          	lui	a5,0x1
   1694c:	419b8bb3          	sub	s7,s7,s9
   16950:	00878593          	addi	a1,a5,8 # 1008 <main-0xf06c>
   16954:	008b8b93          	addi	s7,s7,8
   16958:	419585b3          	sub	a1,a1,s9
   1695c:	015b8ab3          	add	s5,s7,s5
   16960:	fff78793          	addi	a5,a5,-1
   16964:	415585b3          	sub	a1,a1,s5
   16968:	00f5fa33          	and	s4,a1,a5
   1696c:	000a0593          	mv	a1,s4
   16970:	00098513          	mv	a0,s3
   16974:	6b4000ef          	jal	ra,17028 <_sbrk_r>
   16978:	fff00793          	li	a5,-1
   1697c:	3af50c63          	beq	a0,a5,16d34 <_malloc_r+0x738>
   16980:	41750533          	sub	a0,a0,s7
   16984:	01450ab3          	add	s5,a0,s4
   16988:	000c2783          	lw	a5,0(s8)
   1698c:	01792423          	sw	s7,8(s2)
   16990:	001aea93          	ori	s5,s5,1
   16994:	00fa05b3          	add	a1,s4,a5
   16998:	00bc2023          	sw	a1,0(s8)
   1699c:	015ba223          	sw	s5,4(s7)
   169a0:	35240463          	beq	s0,s2,16ce8 <_malloc_r+0x6ec>
   169a4:	00f00693          	li	a3,15
   169a8:	3566f463          	bgeu	a3,s6,16cf0 <_malloc_r+0x6f4>
   169ac:	00442703          	lw	a4,4(s0)
   169b0:	ff4b0793          	addi	a5,s6,-12
   169b4:	ff87f793          	andi	a5,a5,-8
   169b8:	00177713          	andi	a4,a4,1
   169bc:	00f76733          	or	a4,a4,a5
   169c0:	00e42223          	sw	a4,4(s0)
   169c4:	00500613          	li	a2,5
   169c8:	00f40733          	add	a4,s0,a5
   169cc:	00c72223          	sw	a2,4(a4)
   169d0:	00c72423          	sw	a2,8(a4)
   169d4:	36f6ea63          	bltu	a3,a5,16d48 <_malloc_r+0x74c>
   169d8:	004baa83          	lw	s5,4(s7)
   169dc:	000b8413          	mv	s0,s7
   169e0:	8581a703          	lw	a4,-1960(gp) # 1b480 <__malloc_max_sbrked_mem>
   169e4:	00b77463          	bgeu	a4,a1,169ec <_malloc_r+0x3f0>
   169e8:	84b1ac23          	sw	a1,-1960(gp) # 1b480 <__malloc_max_sbrked_mem>
   169ec:	8541a703          	lw	a4,-1964(gp) # 1b47c <__malloc_max_total_mem>
   169f0:	1ab77663          	bgeu	a4,a1,16b9c <_malloc_r+0x5a0>
   169f4:	84b1aa23          	sw	a1,-1964(gp) # 1b47c <__malloc_max_total_mem>
   169f8:	1a40006f          	j	16b9c <_malloc_r+0x5a0>
   169fc:	0014e713          	ori	a4,s1,1
   16a00:	00e42223          	sw	a4,4(s0)
   16a04:	009404b3          	add	s1,s0,s1
   16a08:	00992423          	sw	s1,8(s2)
   16a0c:	0017e793          	ori	a5,a5,1
   16a10:	00098513          	mv	a0,s3
   16a14:	00f4a223          	sw	a5,4(s1)
   16a18:	60c000ef          	jal	ra,17024 <__malloc_unlock>
   16a1c:	00840513          	addi	a0,s0,8
   16a20:	e19ff06f          	j	16838 <_malloc_r+0x23c>
   16a24:	00c42683          	lw	a3,12(s0)
   16a28:	00842603          	lw	a2,8(s0)
   16a2c:	c51ff06f          	j	1667c <_malloc_r+0x80>
   16a30:	0095d793          	srli	a5,a1,0x9
   16a34:	00400713          	li	a4,4
   16a38:	14f77263          	bgeu	a4,a5,16b7c <_malloc_r+0x580>
   16a3c:	01400713          	li	a4,20
   16a40:	22f76a63          	bltu	a4,a5,16c74 <_malloc_r+0x678>
   16a44:	05c78693          	addi	a3,a5,92
   16a48:	05b78713          	addi	a4,a5,91
   16a4c:	00369693          	slli	a3,a3,0x3
   16a50:	00d906b3          	add	a3,s2,a3
   16a54:	0006a783          	lw	a5,0(a3)
   16a58:	ff868693          	addi	a3,a3,-8
   16a5c:	1cf68863          	beq	a3,a5,16c2c <_malloc_r+0x630>
   16a60:	0047a703          	lw	a4,4(a5)
   16a64:	ffc77713          	andi	a4,a4,-4
   16a68:	00e5f663          	bgeu	a1,a4,16a74 <_malloc_r+0x478>
   16a6c:	0087a783          	lw	a5,8(a5)
   16a70:	fef698e3          	bne	a3,a5,16a60 <_malloc_r+0x464>
   16a74:	00c7a683          	lw	a3,12(a5)
   16a78:	00492703          	lw	a4,4(s2)
   16a7c:	00d42623          	sw	a3,12(s0)
   16a80:	00f42423          	sw	a5,8(s0)
   16a84:	0086a423          	sw	s0,8(a3)
   16a88:	0087a623          	sw	s0,12(a5)
   16a8c:	d01ff06f          	j	1678c <_malloc_r+0x190>
   16a90:	01400713          	li	a4,20
   16a94:	12f77663          	bgeu	a4,a5,16bc0 <_malloc_r+0x5c4>
   16a98:	05400713          	li	a4,84
   16a9c:	1ef76a63          	bltu	a4,a5,16c90 <_malloc_r+0x694>
   16aa0:	00c4d793          	srli	a5,s1,0xc
   16aa4:	06f78613          	addi	a2,a5,111
   16aa8:	06e78513          	addi	a0,a5,110
   16aac:	00361693          	slli	a3,a2,0x3
   16ab0:	c2dff06f          	j	166dc <_malloc_r+0xe0>
   16ab4:	001e0e13          	addi	t3,t3,1
   16ab8:	003e7793          	andi	a5,t3,3
   16abc:	00850513          	addi	a0,a0,8
   16ac0:	10078e63          	beqz	a5,16bdc <_malloc_r+0x5e0>
   16ac4:	00c52783          	lw	a5,12(a0)
   16ac8:	d19ff06f          	j	167e0 <_malloc_r+0x1e4>
   16acc:	00842603          	lw	a2,8(s0)
   16ad0:	0014e593          	ori	a1,s1,1
   16ad4:	00b42223          	sw	a1,4(s0)
   16ad8:	00f62623          	sw	a5,12(a2)
   16adc:	00c7a423          	sw	a2,8(a5)
   16ae0:	009404b3          	add	s1,s0,s1
   16ae4:	00992a23          	sw	s1,20(s2)
   16ae8:	00992823          	sw	s1,16(s2)
   16aec:	0016e793          	ori	a5,a3,1
   16af0:	0114a623          	sw	a7,12(s1)
   16af4:	0114a423          	sw	a7,8(s1)
   16af8:	00f4a223          	sw	a5,4(s1)
   16afc:	00e40733          	add	a4,s0,a4
   16b00:	00098513          	mv	a0,s3
   16b04:	00d72023          	sw	a3,0(a4)
   16b08:	51c000ef          	jal	ra,17024 <__malloc_unlock>
   16b0c:	00840513          	addi	a0,s0,8
   16b10:	d29ff06f          	j	16838 <_malloc_r+0x23c>
   16b14:	0034d613          	srli	a2,s1,0x3
   16b18:	00848793          	addi	a5,s1,8
   16b1c:	b39ff06f          	j	16654 <_malloc_r+0x58>
   16b20:	00b405b3          	add	a1,s0,a1
   16b24:	0045a783          	lw	a5,4(a1)
   16b28:	00098513          	mv	a0,s3
   16b2c:	0017e793          	ori	a5,a5,1
   16b30:	00f5a223          	sw	a5,4(a1)
   16b34:	4f0000ef          	jal	ra,17024 <__malloc_unlock>
   16b38:	00840513          	addi	a0,s0,8
   16b3c:	cfdff06f          	j	16838 <_malloc_r+0x23c>
   16b40:	0014e713          	ori	a4,s1,1
   16b44:	00e42223          	sw	a4,4(s0)
   16b48:	009404b3          	add	s1,s0,s1
   16b4c:	00992a23          	sw	s1,20(s2)
   16b50:	00992823          	sw	s1,16(s2)
   16b54:	0017e713          	ori	a4,a5,1
   16b58:	0114a623          	sw	a7,12(s1)
   16b5c:	0114a423          	sw	a7,8(s1)
   16b60:	00e4a223          	sw	a4,4(s1)
   16b64:	00b405b3          	add	a1,s0,a1
   16b68:	00098513          	mv	a0,s3
   16b6c:	00f5a023          	sw	a5,0(a1)
   16b70:	4b4000ef          	jal	ra,17024 <__malloc_unlock>
   16b74:	00840513          	addi	a0,s0,8
   16b78:	cc1ff06f          	j	16838 <_malloc_r+0x23c>
   16b7c:	0065d793          	srli	a5,a1,0x6
   16b80:	03978693          	addi	a3,a5,57
   16b84:	03878713          	addi	a4,a5,56
   16b88:	00369693          	slli	a3,a3,0x3
   16b8c:	ec5ff06f          	j	16a50 <_malloc_r+0x454>
   16b90:	11240e63          	beq	s0,s2,16cac <_malloc_r+0x6b0>
   16b94:	00892403          	lw	s0,8(s2)
   16b98:	00442a83          	lw	s5,4(s0)
   16b9c:	ffcafa93          	andi	s5,s5,-4
   16ba0:	409a87b3          	sub	a5,s5,s1
   16ba4:	009ae663          	bltu	s5,s1,16bb0 <_malloc_r+0x5b4>
   16ba8:	00f00713          	li	a4,15
   16bac:	e4f748e3          	blt	a4,a5,169fc <_malloc_r+0x400>
   16bb0:	00098513          	mv	a0,s3
   16bb4:	470000ef          	jal	ra,17024 <__malloc_unlock>
   16bb8:	00000513          	li	a0,0
   16bbc:	c7dff06f          	j	16838 <_malloc_r+0x23c>
   16bc0:	05c78613          	addi	a2,a5,92
   16bc4:	05b78513          	addi	a0,a5,91
   16bc8:	00361693          	slli	a3,a2,0x3
   16bcc:	b11ff06f          	j	166dc <_malloc_r+0xe0>
   16bd0:	00832783          	lw	a5,8(t1)
   16bd4:	fff60613          	addi	a2,a2,-1
   16bd8:	1c679263          	bne	a5,t1,16d9c <_malloc_r+0x7a0>
   16bdc:	00367793          	andi	a5,a2,3
   16be0:	ff830313          	addi	t1,t1,-8
   16be4:	fe0796e3          	bnez	a5,16bd0 <_malloc_r+0x5d4>
   16be8:	00492703          	lw	a4,4(s2)
   16bec:	fff5c793          	not	a5,a1
   16bf0:	00e7f7b3          	and	a5,a5,a4
   16bf4:	00f92223          	sw	a5,4(s2)
   16bf8:	00159593          	slli	a1,a1,0x1
   16bfc:	cab7e6e3          	bltu	a5,a1,168a8 <_malloc_r+0x2ac>
   16c00:	ca0584e3          	beqz	a1,168a8 <_malloc_r+0x2ac>
   16c04:	00f5f733          	and	a4,a1,a5
   16c08:	00071a63          	bnez	a4,16c1c <_malloc_r+0x620>
   16c0c:	00159593          	slli	a1,a1,0x1
   16c10:	00f5f733          	and	a4,a1,a5
   16c14:	004e0e13          	addi	t3,t3,4
   16c18:	fe070ae3          	beqz	a4,16c0c <_malloc_r+0x610>
   16c1c:	000e0613          	mv	a2,t3
   16c20:	badff06f          	j	167cc <_malloc_r+0x1d0>
   16c24:	010a8a93          	addi	s5,s5,16
   16c28:	cc9ff06f          	j	168f0 <_malloc_r+0x2f4>
   16c2c:	00492503          	lw	a0,4(s2)
   16c30:	40275593          	srai	a1,a4,0x2
   16c34:	00100713          	li	a4,1
   16c38:	00b71733          	sll	a4,a4,a1
   16c3c:	00a76733          	or	a4,a4,a0
   16c40:	00e92223          	sw	a4,4(s2)
   16c44:	e39ff06f          	j	16a7c <_malloc_r+0x480>
   16c48:	015b85b3          	add	a1,s7,s5
   16c4c:	40b005b3          	neg	a1,a1
   16c50:	01459593          	slli	a1,a1,0x14
   16c54:	0145da13          	srli	s4,a1,0x14
   16c58:	000a0593          	mv	a1,s4
   16c5c:	00098513          	mv	a0,s3
   16c60:	3c8000ef          	jal	ra,17028 <_sbrk_r>
   16c64:	fff00793          	li	a5,-1
   16c68:	d0f51ce3          	bne	a0,a5,16980 <_malloc_r+0x384>
   16c6c:	00000a13          	li	s4,0
   16c70:	d19ff06f          	j	16988 <_malloc_r+0x38c>
   16c74:	05400713          	li	a4,84
   16c78:	08f76263          	bltu	a4,a5,16cfc <_malloc_r+0x700>
   16c7c:	00c5d793          	srli	a5,a1,0xc
   16c80:	06f78693          	addi	a3,a5,111
   16c84:	06e78713          	addi	a4,a5,110
   16c88:	00369693          	slli	a3,a3,0x3
   16c8c:	dc5ff06f          	j	16a50 <_malloc_r+0x454>
   16c90:	15400713          	li	a4,340
   16c94:	08f76263          	bltu	a4,a5,16d18 <_malloc_r+0x71c>
   16c98:	00f4d793          	srli	a5,s1,0xf
   16c9c:	07878613          	addi	a2,a5,120
   16ca0:	07778513          	addi	a0,a5,119
   16ca4:	00361693          	slli	a3,a2,0x3
   16ca8:	a35ff06f          	j	166dc <_malloc_r+0xe0>
   16cac:	00020c37          	lui	s8,0x20
   16cb0:	c48c0c13          	addi	s8,s8,-952 # 1fc48 <__malloc_current_mallinfo>
   16cb4:	000c2783          	lw	a5,0(s8)
   16cb8:	00fa87b3          	add	a5,s5,a5
   16cbc:	00fc2023          	sw	a5,0(s8)
   16cc0:	c69ff06f          	j	16928 <_malloc_r+0x32c>
   16cc4:	014a1713          	slli	a4,s4,0x14
   16cc8:	c60710e3          	bnez	a4,16928 <_malloc_r+0x32c>
   16ccc:	00892403          	lw	s0,8(s2)
   16cd0:	015b0ab3          	add	s5,s6,s5
   16cd4:	001aea93          	ori	s5,s5,1
   16cd8:	01542223          	sw	s5,4(s0)
   16cdc:	d05ff06f          	j	169e0 <_malloc_r+0x3e4>
   16ce0:	8571a623          	sw	s7,-1972(gp) # 1b474 <__malloc_sbrk_base>
   16ce4:	c5dff06f          	j	16940 <_malloc_r+0x344>
   16ce8:	000b8413          	mv	s0,s7
   16cec:	cf5ff06f          	j	169e0 <_malloc_r+0x3e4>
   16cf0:	00100793          	li	a5,1
   16cf4:	00fba223          	sw	a5,4(s7)
   16cf8:	eb9ff06f          	j	16bb0 <_malloc_r+0x5b4>
   16cfc:	15400713          	li	a4,340
   16d00:	06f76263          	bltu	a4,a5,16d64 <_malloc_r+0x768>
   16d04:	00f5d793          	srli	a5,a1,0xf
   16d08:	07878693          	addi	a3,a5,120
   16d0c:	07778713          	addi	a4,a5,119
   16d10:	00369693          	slli	a3,a3,0x3
   16d14:	d3dff06f          	j	16a50 <_malloc_r+0x454>
   16d18:	55400713          	li	a4,1364
   16d1c:	06f76263          	bltu	a4,a5,16d80 <_malloc_r+0x784>
   16d20:	0124d793          	srli	a5,s1,0x12
   16d24:	07d78613          	addi	a2,a5,125
   16d28:	07c78513          	addi	a0,a5,124
   16d2c:	00361693          	slli	a3,a2,0x3
   16d30:	9adff06f          	j	166dc <_malloc_r+0xe0>
   16d34:	ff8c8c93          	addi	s9,s9,-8
   16d38:	019a8ab3          	add	s5,s5,s9
   16d3c:	417a8ab3          	sub	s5,s5,s7
   16d40:	00000a13          	li	s4,0
   16d44:	c45ff06f          	j	16988 <_malloc_r+0x38c>
   16d48:	00840593          	addi	a1,s0,8
   16d4c:	00098513          	mv	a0,s3
   16d50:	740000ef          	jal	ra,17490 <_free_r>
   16d54:	00892403          	lw	s0,8(s2)
   16d58:	000c2583          	lw	a1,0(s8)
   16d5c:	00442a83          	lw	s5,4(s0)
   16d60:	c81ff06f          	j	169e0 <_malloc_r+0x3e4>
   16d64:	55400713          	li	a4,1364
   16d68:	02f76463          	bltu	a4,a5,16d90 <_malloc_r+0x794>
   16d6c:	0125d793          	srli	a5,a1,0x12
   16d70:	07d78693          	addi	a3,a5,125
   16d74:	07c78713          	addi	a4,a5,124
   16d78:	00369693          	slli	a3,a3,0x3
   16d7c:	cd5ff06f          	j	16a50 <_malloc_r+0x454>
   16d80:	3f800693          	li	a3,1016
   16d84:	07f00613          	li	a2,127
   16d88:	07e00513          	li	a0,126
   16d8c:	951ff06f          	j	166dc <_malloc_r+0xe0>
   16d90:	3f800693          	li	a3,1016
   16d94:	07e00713          	li	a4,126
   16d98:	cb9ff06f          	j	16a50 <_malloc_r+0x454>
   16d9c:	00492783          	lw	a5,4(s2)
   16da0:	e59ff06f          	j	16bf8 <_malloc_r+0x5fc>

00016da4 <memcmp>:
   16da4:	00300793          	li	a5,3
   16da8:	02c7f863          	bgeu	a5,a2,16dd8 <memcmp+0x34>
   16dac:	00b567b3          	or	a5,a0,a1
   16db0:	0037f793          	andi	a5,a5,3
   16db4:	00300693          	li	a3,3
   16db8:	04079e63          	bnez	a5,16e14 <memcmp+0x70>
   16dbc:	00052703          	lw	a4,0(a0)
   16dc0:	0005a783          	lw	a5,0(a1)
   16dc4:	04f71863          	bne	a4,a5,16e14 <memcmp+0x70>
   16dc8:	ffc60613          	addi	a2,a2,-4
   16dcc:	00450513          	addi	a0,a0,4
   16dd0:	00458593          	addi	a1,a1,4
   16dd4:	fec6e4e3          	bltu	a3,a2,16dbc <memcmp+0x18>
   16dd8:	fff60693          	addi	a3,a2,-1
   16ddc:	02060863          	beqz	a2,16e0c <memcmp+0x68>
   16de0:	00168693          	addi	a3,a3,1
   16de4:	00d506b3          	add	a3,a0,a3
   16de8:	0080006f          	j	16df0 <memcmp+0x4c>
   16dec:	02d50063          	beq	a0,a3,16e0c <memcmp+0x68>
   16df0:	00054783          	lbu	a5,0(a0)
   16df4:	0005c703          	lbu	a4,0(a1)
   16df8:	00150513          	addi	a0,a0,1
   16dfc:	00158593          	addi	a1,a1,1
   16e00:	fee786e3          	beq	a5,a4,16dec <memcmp+0x48>
   16e04:	40e78533          	sub	a0,a5,a4
   16e08:	00008067          	ret
   16e0c:	00000513          	li	a0,0
   16e10:	00008067          	ret
   16e14:	fff60693          	addi	a3,a2,-1
   16e18:	fc9ff06f          	j	16de0 <memcmp+0x3c>

00016e1c <memcpy>:
   16e1c:	00b547b3          	xor	a5,a0,a1
   16e20:	0037f793          	andi	a5,a5,3
   16e24:	00c508b3          	add	a7,a0,a2
   16e28:	06079663          	bnez	a5,16e94 <memcpy+0x78>
   16e2c:	00300793          	li	a5,3
   16e30:	06c7f263          	bgeu	a5,a2,16e94 <memcpy+0x78>
   16e34:	00357793          	andi	a5,a0,3
   16e38:	00050713          	mv	a4,a0
   16e3c:	0c079a63          	bnez	a5,16f10 <memcpy+0xf4>
   16e40:	ffc8f613          	andi	a2,a7,-4
   16e44:	40e606b3          	sub	a3,a2,a4
   16e48:	02000793          	li	a5,32
   16e4c:	02000293          	li	t0,32
   16e50:	06d7c263          	blt	a5,a3,16eb4 <memcpy+0x98>
   16e54:	00058693          	mv	a3,a1
   16e58:	00070793          	mv	a5,a4
   16e5c:	02c77863          	bgeu	a4,a2,16e8c <memcpy+0x70>
   16e60:	0006a803          	lw	a6,0(a3)
   16e64:	00478793          	addi	a5,a5,4
   16e68:	00468693          	addi	a3,a3,4
   16e6c:	ff07ae23          	sw	a6,-4(a5)
   16e70:	fec7e8e3          	bltu	a5,a2,16e60 <memcpy+0x44>
   16e74:	fff60793          	addi	a5,a2,-1
   16e78:	40e787b3          	sub	a5,a5,a4
   16e7c:	ffc7f793          	andi	a5,a5,-4
   16e80:	00478793          	addi	a5,a5,4
   16e84:	00f70733          	add	a4,a4,a5
   16e88:	00f585b3          	add	a1,a1,a5
   16e8c:	01176863          	bltu	a4,a7,16e9c <memcpy+0x80>
   16e90:	00008067          	ret
   16e94:	00050713          	mv	a4,a0
   16e98:	ff157ce3          	bgeu	a0,a7,16e90 <memcpy+0x74>
   16e9c:	0005c783          	lbu	a5,0(a1)
   16ea0:	00170713          	addi	a4,a4,1
   16ea4:	00158593          	addi	a1,a1,1
   16ea8:	fef70fa3          	sb	a5,-1(a4)
   16eac:	ff1768e3          	bltu	a4,a7,16e9c <memcpy+0x80>
   16eb0:	00008067          	ret
   16eb4:	0045a683          	lw	a3,4(a1)
   16eb8:	01c5a783          	lw	a5,28(a1)
   16ebc:	0005af83          	lw	t6,0(a1)
   16ec0:	0085af03          	lw	t5,8(a1)
   16ec4:	00c5ae83          	lw	t4,12(a1)
   16ec8:	0105ae03          	lw	t3,16(a1)
   16ecc:	0145a303          	lw	t1,20(a1)
   16ed0:	0185a803          	lw	a6,24(a1)
   16ed4:	00d72223          	sw	a3,4(a4)
   16ed8:	0205a683          	lw	a3,32(a1)
   16edc:	01f72023          	sw	t6,0(a4)
   16ee0:	01e72423          	sw	t5,8(a4)
   16ee4:	01d72623          	sw	t4,12(a4)
   16ee8:	01c72823          	sw	t3,16(a4)
   16eec:	00672a23          	sw	t1,20(a4)
   16ef0:	01072c23          	sw	a6,24(a4)
   16ef4:	00f72e23          	sw	a5,28(a4)
   16ef8:	02470713          	addi	a4,a4,36
   16efc:	40e607b3          	sub	a5,a2,a4
   16f00:	fed72e23          	sw	a3,-4(a4)
   16f04:	02458593          	addi	a1,a1,36
   16f08:	faf2c6e3          	blt	t0,a5,16eb4 <memcpy+0x98>
   16f0c:	f49ff06f          	j	16e54 <memcpy+0x38>
   16f10:	0005c683          	lbu	a3,0(a1)
   16f14:	00170713          	addi	a4,a4,1
   16f18:	00377793          	andi	a5,a4,3
   16f1c:	fed70fa3          	sb	a3,-1(a4)
   16f20:	00158593          	addi	a1,a1,1
   16f24:	f0078ee3          	beqz	a5,16e40 <memcpy+0x24>
   16f28:	0005c683          	lbu	a3,0(a1)
   16f2c:	00170713          	addi	a4,a4,1
   16f30:	00377793          	andi	a5,a4,3
   16f34:	fed70fa3          	sb	a3,-1(a4)
   16f38:	00158593          	addi	a1,a1,1
   16f3c:	fc079ae3          	bnez	a5,16f10 <memcpy+0xf4>
   16f40:	f01ff06f          	j	16e40 <memcpy+0x24>

00016f44 <memset>:
   16f44:	00f00313          	li	t1,15
   16f48:	00050713          	mv	a4,a0
   16f4c:	02c37e63          	bgeu	t1,a2,16f88 <memset+0x44>
   16f50:	00f77793          	andi	a5,a4,15
   16f54:	0a079063          	bnez	a5,16ff4 <memset+0xb0>
   16f58:	08059263          	bnez	a1,16fdc <memset+0x98>
   16f5c:	ff067693          	andi	a3,a2,-16
   16f60:	00f67613          	andi	a2,a2,15
   16f64:	00e686b3          	add	a3,a3,a4
   16f68:	00b72023          	sw	a1,0(a4)
   16f6c:	00b72223          	sw	a1,4(a4)
   16f70:	00b72423          	sw	a1,8(a4)
   16f74:	00b72623          	sw	a1,12(a4)
   16f78:	01070713          	addi	a4,a4,16
   16f7c:	fed766e3          	bltu	a4,a3,16f68 <memset+0x24>
   16f80:	00061463          	bnez	a2,16f88 <memset+0x44>
   16f84:	00008067          	ret
   16f88:	40c306b3          	sub	a3,t1,a2
   16f8c:	00269693          	slli	a3,a3,0x2
   16f90:	00000297          	auipc	t0,0x0
   16f94:	005686b3          	add	a3,a3,t0
   16f98:	00c68067          	jr	12(a3)
   16f9c:	00b70723          	sb	a1,14(a4)
   16fa0:	00b706a3          	sb	a1,13(a4)
   16fa4:	00b70623          	sb	a1,12(a4)
   16fa8:	00b705a3          	sb	a1,11(a4)
   16fac:	00b70523          	sb	a1,10(a4)
   16fb0:	00b704a3          	sb	a1,9(a4)
   16fb4:	00b70423          	sb	a1,8(a4)
   16fb8:	00b703a3          	sb	a1,7(a4)
   16fbc:	00b70323          	sb	a1,6(a4)
   16fc0:	00b702a3          	sb	a1,5(a4)
   16fc4:	00b70223          	sb	a1,4(a4)
   16fc8:	00b701a3          	sb	a1,3(a4)
   16fcc:	00b70123          	sb	a1,2(a4)
   16fd0:	00b700a3          	sb	a1,1(a4)
   16fd4:	00b70023          	sb	a1,0(a4)
   16fd8:	00008067          	ret
   16fdc:	0ff5f593          	zext.b	a1,a1
   16fe0:	00859693          	slli	a3,a1,0x8
   16fe4:	00d5e5b3          	or	a1,a1,a3
   16fe8:	01059693          	slli	a3,a1,0x10
   16fec:	00d5e5b3          	or	a1,a1,a3
   16ff0:	f6dff06f          	j	16f5c <memset+0x18>
   16ff4:	00279693          	slli	a3,a5,0x2
   16ff8:	00000297          	auipc	t0,0x0
   16ffc:	005686b3          	add	a3,a3,t0
   17000:	00008293          	mv	t0,ra
   17004:	fa0680e7          	jalr	-96(a3)
   17008:	00028093          	mv	ra,t0
   1700c:	ff078793          	addi	a5,a5,-16
   17010:	40f70733          	sub	a4,a4,a5
   17014:	00f60633          	add	a2,a2,a5
   17018:	f6c378e3          	bgeu	t1,a2,16f88 <memset+0x44>
   1701c:	f3dff06f          	j	16f58 <memset+0x14>

00017020 <__malloc_lock>:
   17020:	00008067          	ret

00017024 <__malloc_unlock>:
   17024:	00008067          	ret

00017028 <_sbrk_r>:
   17028:	ff010113          	addi	sp,sp,-16
   1702c:	00812423          	sw	s0,8(sp)
   17030:	00912223          	sw	s1,4(sp)
   17034:	00050413          	mv	s0,a0
   17038:	00058513          	mv	a0,a1
   1703c:	00112623          	sw	ra,12(sp)
   17040:	8601a023          	sw	zero,-1952(gp) # 1b488 <errno>
   17044:	9bdf90ef          	jal	ra,10a00 <_sbrk>
   17048:	fff00793          	li	a5,-1
   1704c:	00f50c63          	beq	a0,a5,17064 <_sbrk_r+0x3c>
   17050:	00c12083          	lw	ra,12(sp)
   17054:	00812403          	lw	s0,8(sp)
   17058:	00412483          	lw	s1,4(sp)
   1705c:	01010113          	addi	sp,sp,16
   17060:	00008067          	ret
   17064:	8601a783          	lw	a5,-1952(gp) # 1b488 <errno>
   17068:	fe0784e3          	beqz	a5,17050 <_sbrk_r+0x28>
   1706c:	00c12083          	lw	ra,12(sp)
   17070:	00f42023          	sw	a5,0(s0)
   17074:	00812403          	lw	s0,8(sp)
   17078:	00412483          	lw	s1,4(sp)
   1707c:	01010113          	addi	sp,sp,16
   17080:	00008067          	ret

00017084 <strchr>:
   17084:	0ff5f693          	zext.b	a3,a1
   17088:	00357793          	andi	a5,a0,3
   1708c:	0c068063          	beqz	a3,1714c <strchr+0xc8>
   17090:	00078e63          	beqz	a5,170ac <strchr+0x28>
   17094:	00054783          	lbu	a5,0(a0)
   17098:	0a078663          	beqz	a5,17144 <strchr+0xc0>
   1709c:	0ad78663          	beq	a5,a3,17148 <strchr+0xc4>
   170a0:	00150513          	addi	a0,a0,1
   170a4:	00357793          	andi	a5,a0,3
   170a8:	fe0796e3          	bnez	a5,17094 <strchr+0x10>
   170ac:	0ff5f593          	zext.b	a1,a1
   170b0:	00859793          	slli	a5,a1,0x8
   170b4:	00f5e5b3          	or	a1,a1,a5
   170b8:	00052703          	lw	a4,0(a0)
   170bc:	01059313          	slli	t1,a1,0x10
   170c0:	00b36333          	or	t1,t1,a1
   170c4:	feff0837          	lui	a6,0xfeff0
   170c8:	00e34633          	xor	a2,t1,a4
   170cc:	eff80813          	addi	a6,a6,-257 # fefefeff <__BSS_END__+0xfefd028f>
   170d0:	010607b3          	add	a5,a2,a6
   170d4:	010705b3          	add	a1,a4,a6
   170d8:	fff64613          	not	a2,a2
   170dc:	fff74713          	not	a4,a4
   170e0:	00c7f7b3          	and	a5,a5,a2
   170e4:	00e5f733          	and	a4,a1,a4
   170e8:	808088b7          	lui	a7,0x80808
   170ec:	00e7e7b3          	or	a5,a5,a4
   170f0:	08088893          	addi	a7,a7,128 # 80808080 <__BSS_END__+0x807e8410>
   170f4:	0117f7b3          	and	a5,a5,a7
   170f8:	02079a63          	bnez	a5,1712c <strchr+0xa8>
   170fc:	00452703          	lw	a4,4(a0)
   17100:	00450513          	addi	a0,a0,4
   17104:	00674633          	xor	a2,a4,t1
   17108:	010707b3          	add	a5,a4,a6
   1710c:	010605b3          	add	a1,a2,a6
   17110:	fff74713          	not	a4,a4
   17114:	fff64613          	not	a2,a2
   17118:	00e7f7b3          	and	a5,a5,a4
   1711c:	00c5f733          	and	a4,a1,a2
   17120:	00e7e7b3          	or	a5,a5,a4
   17124:	0117f7b3          	and	a5,a5,a7
   17128:	fc078ae3          	beqz	a5,170fc <strchr+0x78>
   1712c:	00054783          	lbu	a5,0(a0)
   17130:	00078a63          	beqz	a5,17144 <strchr+0xc0>
   17134:	08f68663          	beq	a3,a5,171c0 <strchr+0x13c>
   17138:	00154783          	lbu	a5,1(a0)
   1713c:	00150513          	addi	a0,a0,1
   17140:	fe079ae3          	bnez	a5,17134 <strchr+0xb0>
   17144:	00000513          	li	a0,0
   17148:	00008067          	ret
   1714c:	00078c63          	beqz	a5,17164 <strchr+0xe0>
   17150:	00054783          	lbu	a5,0(a0)
   17154:	fe078ae3          	beqz	a5,17148 <strchr+0xc4>
   17158:	00150513          	addi	a0,a0,1
   1715c:	00357793          	andi	a5,a0,3
   17160:	fe0798e3          	bnez	a5,17150 <strchr+0xcc>
   17164:	00052703          	lw	a4,0(a0)
   17168:	feff0637          	lui	a2,0xfeff0
   1716c:	eff60613          	addi	a2,a2,-257 # fefefeff <__BSS_END__+0xfefd028f>
   17170:	00c707b3          	add	a5,a4,a2
   17174:	808086b7          	lui	a3,0x80808
   17178:	fff74713          	not	a4,a4
   1717c:	00e7f7b3          	and	a5,a5,a4
   17180:	08068693          	addi	a3,a3,128 # 80808080 <__BSS_END__+0x807e8410>
   17184:	00d7f7b3          	and	a5,a5,a3
   17188:	02079063          	bnez	a5,171a8 <strchr+0x124>
   1718c:	00452703          	lw	a4,4(a0)
   17190:	00450513          	addi	a0,a0,4
   17194:	00c707b3          	add	a5,a4,a2
   17198:	fff74713          	not	a4,a4
   1719c:	00e7f7b3          	and	a5,a5,a4
   171a0:	00d7f7b3          	and	a5,a5,a3
   171a4:	fe0784e3          	beqz	a5,1718c <strchr+0x108>
   171a8:	00054783          	lbu	a5,0(a0)
   171ac:	f8078ee3          	beqz	a5,17148 <strchr+0xc4>
   171b0:	00154783          	lbu	a5,1(a0)
   171b4:	00150513          	addi	a0,a0,1
   171b8:	fe079ce3          	bnez	a5,171b0 <strchr+0x12c>
   171bc:	00008067          	ret
   171c0:	00008067          	ret

000171c4 <__call_exitprocs>:
   171c4:	fd010113          	addi	sp,sp,-48
   171c8:	01412c23          	sw	s4,24(sp)
   171cc:	8441aa03          	lw	s4,-1980(gp) # 1b46c <_global_impure_ptr>
   171d0:	03212023          	sw	s2,32(sp)
   171d4:	02112623          	sw	ra,44(sp)
   171d8:	148a2903          	lw	s2,328(s4)
   171dc:	02812423          	sw	s0,40(sp)
   171e0:	02912223          	sw	s1,36(sp)
   171e4:	01312e23          	sw	s3,28(sp)
   171e8:	01512a23          	sw	s5,20(sp)
   171ec:	01612823          	sw	s6,16(sp)
   171f0:	01712623          	sw	s7,12(sp)
   171f4:	01812423          	sw	s8,8(sp)
   171f8:	04090063          	beqz	s2,17238 <__call_exitprocs+0x74>
   171fc:	00050b13          	mv	s6,a0
   17200:	00058b93          	mv	s7,a1
   17204:	00100a93          	li	s5,1
   17208:	fff00993          	li	s3,-1
   1720c:	00492483          	lw	s1,4(s2)
   17210:	fff48413          	addi	s0,s1,-1
   17214:	02044263          	bltz	s0,17238 <__call_exitprocs+0x74>
   17218:	00249493          	slli	s1,s1,0x2
   1721c:	009904b3          	add	s1,s2,s1
   17220:	040b8463          	beqz	s7,17268 <__call_exitprocs+0xa4>
   17224:	1044a783          	lw	a5,260(s1)
   17228:	05778063          	beq	a5,s7,17268 <__call_exitprocs+0xa4>
   1722c:	fff40413          	addi	s0,s0,-1
   17230:	ffc48493          	addi	s1,s1,-4
   17234:	ff3416e3          	bne	s0,s3,17220 <__call_exitprocs+0x5c>
   17238:	02c12083          	lw	ra,44(sp)
   1723c:	02812403          	lw	s0,40(sp)
   17240:	02412483          	lw	s1,36(sp)
   17244:	02012903          	lw	s2,32(sp)
   17248:	01c12983          	lw	s3,28(sp)
   1724c:	01812a03          	lw	s4,24(sp)
   17250:	01412a83          	lw	s5,20(sp)
   17254:	01012b03          	lw	s6,16(sp)
   17258:	00c12b83          	lw	s7,12(sp)
   1725c:	00812c03          	lw	s8,8(sp)
   17260:	03010113          	addi	sp,sp,48
   17264:	00008067          	ret
   17268:	00492783          	lw	a5,4(s2)
   1726c:	0044a683          	lw	a3,4(s1)
   17270:	fff78793          	addi	a5,a5,-1
   17274:	04878e63          	beq	a5,s0,172d0 <__call_exitprocs+0x10c>
   17278:	0004a223          	sw	zero,4(s1)
   1727c:	fa0688e3          	beqz	a3,1722c <__call_exitprocs+0x68>
   17280:	18892783          	lw	a5,392(s2)
   17284:	008a9733          	sll	a4,s5,s0
   17288:	00492c03          	lw	s8,4(s2)
   1728c:	00f777b3          	and	a5,a4,a5
   17290:	02079263          	bnez	a5,172b4 <__call_exitprocs+0xf0>
   17294:	000680e7          	jalr	a3
   17298:	00492703          	lw	a4,4(s2)
   1729c:	148a2783          	lw	a5,328(s4)
   172a0:	01871463          	bne	a4,s8,172a8 <__call_exitprocs+0xe4>
   172a4:	f92784e3          	beq	a5,s2,1722c <__call_exitprocs+0x68>
   172a8:	f80788e3          	beqz	a5,17238 <__call_exitprocs+0x74>
   172ac:	00078913          	mv	s2,a5
   172b0:	f5dff06f          	j	1720c <__call_exitprocs+0x48>
   172b4:	18c92783          	lw	a5,396(s2)
   172b8:	0844a583          	lw	a1,132(s1)
   172bc:	00f77733          	and	a4,a4,a5
   172c0:	00071c63          	bnez	a4,172d8 <__call_exitprocs+0x114>
   172c4:	000b0513          	mv	a0,s6
   172c8:	000680e7          	jalr	a3
   172cc:	fcdff06f          	j	17298 <__call_exitprocs+0xd4>
   172d0:	00892223          	sw	s0,4(s2)
   172d4:	fa9ff06f          	j	1727c <__call_exitprocs+0xb8>
   172d8:	00058513          	mv	a0,a1
   172dc:	000680e7          	jalr	a3
   172e0:	fb9ff06f          	j	17298 <__call_exitprocs+0xd4>

000172e4 <atexit>:
   172e4:	00050593          	mv	a1,a0
   172e8:	00000693          	li	a3,0
   172ec:	00000613          	li	a2,0
   172f0:	00000513          	li	a0,0
   172f4:	4a80006f          	j	1779c <__register_exitproc>

000172f8 <__libc_fini_array>:
   172f8:	ff010113          	addi	sp,sp,-16
   172fc:	00812423          	sw	s0,8(sp)
   17300:	0001b7b7          	lui	a5,0x1b
   17304:	0001b437          	lui	s0,0x1b
   17308:	b9478793          	addi	a5,a5,-1132 # 1ab94 <__do_global_dtors_aux_fini_array_entry>
   1730c:	b9840413          	addi	s0,s0,-1128 # 1ab98 <_ZL9VolumeStr>
   17310:	40f40433          	sub	s0,s0,a5
   17314:	00912223          	sw	s1,4(sp)
   17318:	00112623          	sw	ra,12(sp)
   1731c:	40245493          	srai	s1,s0,0x2
   17320:	02048063          	beqz	s1,17340 <__libc_fini_array+0x48>
   17324:	ffc40413          	addi	s0,s0,-4
   17328:	00f40433          	add	s0,s0,a5
   1732c:	00042783          	lw	a5,0(s0)
   17330:	fff48493          	addi	s1,s1,-1
   17334:	ffc40413          	addi	s0,s0,-4
   17338:	000780e7          	jalr	a5
   1733c:	fe0498e3          	bnez	s1,1732c <__libc_fini_array+0x34>
   17340:	00c12083          	lw	ra,12(sp)
   17344:	00812403          	lw	s0,8(sp)
   17348:	00412483          	lw	s1,4(sp)
   1734c:	01010113          	addi	sp,sp,16
   17350:	00008067          	ret

00017354 <_malloc_trim_r>:
   17354:	fe010113          	addi	sp,sp,-32
   17358:	01312623          	sw	s3,12(sp)
   1735c:	0001b9b7          	lui	s3,0x1b
   17360:	00812c23          	sw	s0,24(sp)
   17364:	00912a23          	sw	s1,20(sp)
   17368:	01212823          	sw	s2,16(sp)
   1736c:	01412423          	sw	s4,8(sp)
   17370:	00112e23          	sw	ra,28(sp)
   17374:	00058a13          	mv	s4,a1
   17378:	00050913          	mv	s2,a0
   1737c:	ff098993          	addi	s3,s3,-16 # 1aff0 <__malloc_av_>
   17380:	ca1ff0ef          	jal	ra,17020 <__malloc_lock>
   17384:	0089a703          	lw	a4,8(s3)
   17388:	000017b7          	lui	a5,0x1
   1738c:	fef78413          	addi	s0,a5,-17 # fef <main-0xf085>
   17390:	00472483          	lw	s1,4(a4)
   17394:	41440433          	sub	s0,s0,s4
   17398:	ffc4f493          	andi	s1,s1,-4
   1739c:	00940433          	add	s0,s0,s1
   173a0:	00c45413          	srli	s0,s0,0xc
   173a4:	fff40413          	addi	s0,s0,-1
   173a8:	00c41413          	slli	s0,s0,0xc
   173ac:	00f44e63          	blt	s0,a5,173c8 <_malloc_trim_r+0x74>
   173b0:	00000593          	li	a1,0
   173b4:	00090513          	mv	a0,s2
   173b8:	c71ff0ef          	jal	ra,17028 <_sbrk_r>
   173bc:	0089a783          	lw	a5,8(s3)
   173c0:	009787b3          	add	a5,a5,s1
   173c4:	02f50863          	beq	a0,a5,173f4 <_malloc_trim_r+0xa0>
   173c8:	00090513          	mv	a0,s2
   173cc:	c59ff0ef          	jal	ra,17024 <__malloc_unlock>
   173d0:	01c12083          	lw	ra,28(sp)
   173d4:	01812403          	lw	s0,24(sp)
   173d8:	01412483          	lw	s1,20(sp)
   173dc:	01012903          	lw	s2,16(sp)
   173e0:	00c12983          	lw	s3,12(sp)
   173e4:	00812a03          	lw	s4,8(sp)
   173e8:	00000513          	li	a0,0
   173ec:	02010113          	addi	sp,sp,32
   173f0:	00008067          	ret
   173f4:	408005b3          	neg	a1,s0
   173f8:	00090513          	mv	a0,s2
   173fc:	c2dff0ef          	jal	ra,17028 <_sbrk_r>
   17400:	fff00793          	li	a5,-1
   17404:	04f50a63          	beq	a0,a5,17458 <_malloc_trim_r+0x104>
   17408:	000207b7          	lui	a5,0x20
   1740c:	c4878793          	addi	a5,a5,-952 # 1fc48 <__malloc_current_mallinfo>
   17410:	0007a703          	lw	a4,0(a5)
   17414:	0089a683          	lw	a3,8(s3)
   17418:	408484b3          	sub	s1,s1,s0
   1741c:	0014e493          	ori	s1,s1,1
   17420:	40870733          	sub	a4,a4,s0
   17424:	00090513          	mv	a0,s2
   17428:	0096a223          	sw	s1,4(a3)
   1742c:	00e7a023          	sw	a4,0(a5)
   17430:	bf5ff0ef          	jal	ra,17024 <__malloc_unlock>
   17434:	01c12083          	lw	ra,28(sp)
   17438:	01812403          	lw	s0,24(sp)
   1743c:	01412483          	lw	s1,20(sp)
   17440:	01012903          	lw	s2,16(sp)
   17444:	00c12983          	lw	s3,12(sp)
   17448:	00812a03          	lw	s4,8(sp)
   1744c:	00100513          	li	a0,1
   17450:	02010113          	addi	sp,sp,32
   17454:	00008067          	ret
   17458:	00000593          	li	a1,0
   1745c:	00090513          	mv	a0,s2
   17460:	bc9ff0ef          	jal	ra,17028 <_sbrk_r>
   17464:	0089a703          	lw	a4,8(s3)
   17468:	00f00693          	li	a3,15
   1746c:	40e507b3          	sub	a5,a0,a4
   17470:	f4f6dce3          	bge	a3,a5,173c8 <_malloc_trim_r+0x74>
   17474:	84c1a683          	lw	a3,-1972(gp) # 1b474 <__malloc_sbrk_base>
   17478:	0017e793          	ori	a5,a5,1
   1747c:	00f72223          	sw	a5,4(a4)
   17480:	40d50533          	sub	a0,a0,a3
   17484:	000206b7          	lui	a3,0x20
   17488:	c4a6a423          	sw	a0,-952(a3) # 1fc48 <__malloc_current_mallinfo>
   1748c:	f3dff06f          	j	173c8 <_malloc_trim_r+0x74>

00017490 <_free_r>:
   17490:	12058a63          	beqz	a1,175c4 <_free_r+0x134>
   17494:	ff010113          	addi	sp,sp,-16
   17498:	00812423          	sw	s0,8(sp)
   1749c:	00912223          	sw	s1,4(sp)
   174a0:	00058413          	mv	s0,a1
   174a4:	00050493          	mv	s1,a0
   174a8:	00112623          	sw	ra,12(sp)
   174ac:	b75ff0ef          	jal	ra,17020 <__malloc_lock>
   174b0:	ffc42803          	lw	a6,-4(s0)
   174b4:	ff840713          	addi	a4,s0,-8
   174b8:	0001b5b7          	lui	a1,0x1b
   174bc:	ffe87793          	andi	a5,a6,-2
   174c0:	00f70633          	add	a2,a4,a5
   174c4:	ff058593          	addi	a1,a1,-16 # 1aff0 <__malloc_av_>
   174c8:	00462683          	lw	a3,4(a2)
   174cc:	0085a503          	lw	a0,8(a1)
   174d0:	ffc6f693          	andi	a3,a3,-4
   174d4:	1ac50a63          	beq	a0,a2,17688 <_free_r+0x1f8>
   174d8:	00d62223          	sw	a3,4(a2)
   174dc:	00187813          	andi	a6,a6,1
   174e0:	00d60533          	add	a0,a2,a3
   174e4:	0a081063          	bnez	a6,17584 <_free_r+0xf4>
   174e8:	ff842303          	lw	t1,-8(s0)
   174ec:	00452803          	lw	a6,4(a0)
   174f0:	0001b537          	lui	a0,0x1b
   174f4:	40670733          	sub	a4,a4,t1
   174f8:	00872883          	lw	a7,8(a4)
   174fc:	ff850513          	addi	a0,a0,-8 # 1aff8 <__malloc_av_+0x8>
   17500:	006787b3          	add	a5,a5,t1
   17504:	00187813          	andi	a6,a6,1
   17508:	14a88063          	beq	a7,a0,17648 <_free_r+0x1b8>
   1750c:	00c72303          	lw	t1,12(a4)
   17510:	0068a623          	sw	t1,12(a7)
   17514:	01132423          	sw	a7,8(t1)
   17518:	1e080063          	beqz	a6,176f8 <_free_r+0x268>
   1751c:	0017e693          	ori	a3,a5,1
   17520:	00d72223          	sw	a3,4(a4)
   17524:	00f62023          	sw	a5,0(a2)
   17528:	1ff00693          	li	a3,511
   1752c:	0af6e863          	bltu	a3,a5,175dc <_free_r+0x14c>
   17530:	ff87f693          	andi	a3,a5,-8
   17534:	00868693          	addi	a3,a3,8
   17538:	0045a503          	lw	a0,4(a1)
   1753c:	00d586b3          	add	a3,a1,a3
   17540:	0006a603          	lw	a2,0(a3)
   17544:	0057d813          	srli	a6,a5,0x5
   17548:	00100793          	li	a5,1
   1754c:	010797b3          	sll	a5,a5,a6
   17550:	00a7e7b3          	or	a5,a5,a0
   17554:	ff868513          	addi	a0,a3,-8
   17558:	00a72623          	sw	a0,12(a4)
   1755c:	00c72423          	sw	a2,8(a4)
   17560:	00f5a223          	sw	a5,4(a1)
   17564:	00e6a023          	sw	a4,0(a3)
   17568:	00e62623          	sw	a4,12(a2)
   1756c:	00812403          	lw	s0,8(sp)
   17570:	00c12083          	lw	ra,12(sp)
   17574:	00048513          	mv	a0,s1
   17578:	00412483          	lw	s1,4(sp)
   1757c:	01010113          	addi	sp,sp,16
   17580:	aa5ff06f          	j	17024 <__malloc_unlock>
   17584:	00452503          	lw	a0,4(a0)
   17588:	00157513          	andi	a0,a0,1
   1758c:	02051e63          	bnez	a0,175c8 <_free_r+0x138>
   17590:	0001b537          	lui	a0,0x1b
   17594:	00d787b3          	add	a5,a5,a3
   17598:	ff850513          	addi	a0,a0,-8 # 1aff8 <__malloc_av_+0x8>
   1759c:	00862683          	lw	a3,8(a2)
   175a0:	0017e893          	ori	a7,a5,1
   175a4:	00f70833          	add	a6,a4,a5
   175a8:	16a68463          	beq	a3,a0,17710 <_free_r+0x280>
   175ac:	00c62603          	lw	a2,12(a2)
   175b0:	00c6a623          	sw	a2,12(a3)
   175b4:	00d62423          	sw	a3,8(a2)
   175b8:	01172223          	sw	a7,4(a4)
   175bc:	00f82023          	sw	a5,0(a6)
   175c0:	f69ff06f          	j	17528 <_free_r+0x98>
   175c4:	00008067          	ret
   175c8:	0017e693          	ori	a3,a5,1
   175cc:	fed42e23          	sw	a3,-4(s0)
   175d0:	00f62023          	sw	a5,0(a2)
   175d4:	1ff00693          	li	a3,511
   175d8:	f4f6fce3          	bgeu	a3,a5,17530 <_free_r+0xa0>
   175dc:	0097d693          	srli	a3,a5,0x9
   175e0:	00400613          	li	a2,4
   175e4:	0ed66863          	bltu	a2,a3,176d4 <_free_r+0x244>
   175e8:	0067d693          	srli	a3,a5,0x6
   175ec:	03968813          	addi	a6,a3,57
   175f0:	03868613          	addi	a2,a3,56
   175f4:	00381813          	slli	a6,a6,0x3
   175f8:	01058833          	add	a6,a1,a6
   175fc:	00082683          	lw	a3,0(a6)
   17600:	ff880813          	addi	a6,a6,-8
   17604:	12d80463          	beq	a6,a3,1772c <_free_r+0x29c>
   17608:	0046a603          	lw	a2,4(a3)
   1760c:	ffc67613          	andi	a2,a2,-4
   17610:	00c7f663          	bgeu	a5,a2,1761c <_free_r+0x18c>
   17614:	0086a683          	lw	a3,8(a3)
   17618:	fed818e3          	bne	a6,a3,17608 <_free_r+0x178>
   1761c:	00c6a803          	lw	a6,12(a3)
   17620:	01072623          	sw	a6,12(a4)
   17624:	00d72423          	sw	a3,8(a4)
   17628:	00812403          	lw	s0,8(sp)
   1762c:	00c12083          	lw	ra,12(sp)
   17630:	00e82423          	sw	a4,8(a6)
   17634:	00048513          	mv	a0,s1
   17638:	00412483          	lw	s1,4(sp)
   1763c:	00e6a623          	sw	a4,12(a3)
   17640:	01010113          	addi	sp,sp,16
   17644:	9e1ff06f          	j	17024 <__malloc_unlock>
   17648:	14081263          	bnez	a6,1778c <_free_r+0x2fc>
   1764c:	00c62583          	lw	a1,12(a2)
   17650:	00862603          	lw	a2,8(a2)
   17654:	00f686b3          	add	a3,a3,a5
   17658:	00812403          	lw	s0,8(sp)
   1765c:	00b62623          	sw	a1,12(a2)
   17660:	00c5a423          	sw	a2,8(a1)
   17664:	0016e793          	ori	a5,a3,1
   17668:	00c12083          	lw	ra,12(sp)
   1766c:	00f72223          	sw	a5,4(a4)
   17670:	00048513          	mv	a0,s1
   17674:	00d70733          	add	a4,a4,a3
   17678:	00412483          	lw	s1,4(sp)
   1767c:	00d72023          	sw	a3,0(a4)
   17680:	01010113          	addi	sp,sp,16
   17684:	9a1ff06f          	j	17024 <__malloc_unlock>
   17688:	00187813          	andi	a6,a6,1
   1768c:	00d786b3          	add	a3,a5,a3
   17690:	02081063          	bnez	a6,176b0 <_free_r+0x220>
   17694:	ff842503          	lw	a0,-8(s0)
   17698:	40a70733          	sub	a4,a4,a0
   1769c:	00c72783          	lw	a5,12(a4)
   176a0:	00872603          	lw	a2,8(a4)
   176a4:	00a686b3          	add	a3,a3,a0
   176a8:	00f62623          	sw	a5,12(a2)
   176ac:	00c7a423          	sw	a2,8(a5)
   176b0:	0016e613          	ori	a2,a3,1
   176b4:	8501a783          	lw	a5,-1968(gp) # 1b478 <__malloc_trim_threshold>
   176b8:	00c72223          	sw	a2,4(a4)
   176bc:	00e5a423          	sw	a4,8(a1)
   176c0:	eaf6e6e3          	bltu	a3,a5,1756c <_free_r+0xdc>
   176c4:	85c1a583          	lw	a1,-1956(gp) # 1b484 <__malloc_top_pad>
   176c8:	00048513          	mv	a0,s1
   176cc:	c89ff0ef          	jal	ra,17354 <_malloc_trim_r>
   176d0:	e9dff06f          	j	1756c <_free_r+0xdc>
   176d4:	01400613          	li	a2,20
   176d8:	02d67463          	bgeu	a2,a3,17700 <_free_r+0x270>
   176dc:	05400613          	li	a2,84
   176e0:	06d66463          	bltu	a2,a3,17748 <_free_r+0x2b8>
   176e4:	00c7d693          	srli	a3,a5,0xc
   176e8:	06f68813          	addi	a6,a3,111
   176ec:	06e68613          	addi	a2,a3,110
   176f0:	00381813          	slli	a6,a6,0x3
   176f4:	f05ff06f          	j	175f8 <_free_r+0x168>
   176f8:	00d787b3          	add	a5,a5,a3
   176fc:	ea1ff06f          	j	1759c <_free_r+0x10c>
   17700:	05c68813          	addi	a6,a3,92
   17704:	05b68613          	addi	a2,a3,91
   17708:	00381813          	slli	a6,a6,0x3
   1770c:	eedff06f          	j	175f8 <_free_r+0x168>
   17710:	00e5aa23          	sw	a4,20(a1)
   17714:	00e5a823          	sw	a4,16(a1)
   17718:	00a72623          	sw	a0,12(a4)
   1771c:	00a72423          	sw	a0,8(a4)
   17720:	01172223          	sw	a7,4(a4)
   17724:	00f82023          	sw	a5,0(a6)
   17728:	e45ff06f          	j	1756c <_free_r+0xdc>
   1772c:	0045a503          	lw	a0,4(a1)
   17730:	40265613          	srai	a2,a2,0x2
   17734:	00100793          	li	a5,1
   17738:	00c797b3          	sll	a5,a5,a2
   1773c:	00a7e7b3          	or	a5,a5,a0
   17740:	00f5a223          	sw	a5,4(a1)
   17744:	eddff06f          	j	17620 <_free_r+0x190>
   17748:	15400613          	li	a2,340
   1774c:	00d66c63          	bltu	a2,a3,17764 <_free_r+0x2d4>
   17750:	00f7d693          	srli	a3,a5,0xf
   17754:	07868813          	addi	a6,a3,120
   17758:	07768613          	addi	a2,a3,119
   1775c:	00381813          	slli	a6,a6,0x3
   17760:	e99ff06f          	j	175f8 <_free_r+0x168>
   17764:	55400613          	li	a2,1364
   17768:	00d66c63          	bltu	a2,a3,17780 <_free_r+0x2f0>
   1776c:	0127d693          	srli	a3,a5,0x12
   17770:	07d68813          	addi	a6,a3,125
   17774:	07c68613          	addi	a2,a3,124
   17778:	00381813          	slli	a6,a6,0x3
   1777c:	e7dff06f          	j	175f8 <_free_r+0x168>
   17780:	3f800813          	li	a6,1016
   17784:	07e00613          	li	a2,126
   17788:	e71ff06f          	j	175f8 <_free_r+0x168>
   1778c:	0017e693          	ori	a3,a5,1
   17790:	00d72223          	sw	a3,4(a4)
   17794:	00f62023          	sw	a5,0(a2)
   17798:	dd5ff06f          	j	1756c <_free_r+0xdc>

0001779c <__register_exitproc>:
   1779c:	8441a703          	lw	a4,-1980(gp) # 1b46c <_global_impure_ptr>
   177a0:	14872783          	lw	a5,328(a4)
   177a4:	04078c63          	beqz	a5,177fc <__register_exitproc+0x60>
   177a8:	0047a703          	lw	a4,4(a5)
   177ac:	01f00813          	li	a6,31
   177b0:	06e84e63          	blt	a6,a4,1782c <__register_exitproc+0x90>
   177b4:	00271813          	slli	a6,a4,0x2
   177b8:	02050663          	beqz	a0,177e4 <__register_exitproc+0x48>
   177bc:	01078333          	add	t1,a5,a6
   177c0:	08c32423          	sw	a2,136(t1)
   177c4:	1887a883          	lw	a7,392(a5)
   177c8:	00100613          	li	a2,1
   177cc:	00e61633          	sll	a2,a2,a4
   177d0:	00c8e8b3          	or	a7,a7,a2
   177d4:	1917a423          	sw	a7,392(a5)
   177d8:	10d32423          	sw	a3,264(t1)
   177dc:	00200693          	li	a3,2
   177e0:	02d50463          	beq	a0,a3,17808 <__register_exitproc+0x6c>
   177e4:	00170713          	addi	a4,a4,1
   177e8:	00e7a223          	sw	a4,4(a5)
   177ec:	010787b3          	add	a5,a5,a6
   177f0:	00b7a423          	sw	a1,8(a5)
   177f4:	00000513          	li	a0,0
   177f8:	00008067          	ret
   177fc:	14c70793          	addi	a5,a4,332
   17800:	14f72423          	sw	a5,328(a4)
   17804:	fa5ff06f          	j	177a8 <__register_exitproc+0xc>
   17808:	18c7a683          	lw	a3,396(a5)
   1780c:	00170713          	addi	a4,a4,1
   17810:	00e7a223          	sw	a4,4(a5)
   17814:	00c6e6b3          	or	a3,a3,a2
   17818:	18d7a623          	sw	a3,396(a5)
   1781c:	010787b3          	add	a5,a5,a6
   17820:	00b7a423          	sw	a1,8(a5)
   17824:	00000513          	li	a0,0
   17828:	00008067          	ret
   1782c:	fff00513          	li	a0,-1
   17830:	00008067          	ret

00017834 <_exit>:
   17834:	05d00893          	li	a7,93
   17838:	00000073          	ecall
   1783c:	00054463          	bltz	a0,17844 <_exit+0x10>
   17840:	0000006f          	j	17840 <_exit+0xc>
   17844:	ff010113          	addi	sp,sp,-16
   17848:	00812423          	sw	s0,8(sp)
   1784c:	00050413          	mv	s0,a0
   17850:	00112623          	sw	ra,12(sp)
   17854:	40800433          	neg	s0,s0
   17858:	cb9fe0ef          	jal	ra,16510 <__errno>
   1785c:	00852023          	sw	s0,0(a0)
   17860:	0000006f          	j	17860 <_exit+0x2c>

Disassembly of section .rodata:

00017864 <_ZL12residentfont-0x6c>:
   17864:	5049                	c.li	zero,-14
   17866:	00003a53          	fadd.s	fs4,ft0,ft0,rup
   1786a:	0000                	unimp
   1786c:	0000                	unimp
   1786e:	4320                	lw	s0,64(a4)
   17870:	d70a                	sw	sp,172(sp)
   17872:	00003ba3          	0x3ba3
   17876:	42c8                	lw	a0,4(a3)
   17878:	0000                	unimp
   1787a:	4000                	lw	s0,0(s0)
   1787c:	0000                	unimp
   1787e:	4080                	lw	s0,0(s1)
   17880:	fdf4                	fsw	fa3,124(a1)
   17882:	40a4                	lw	s1,64(s1)
   17884:	ae14                	fsd	fa3,24(a2)
   17886:	41dd                	li	gp,23
   17888:	0000                	unimp
   1788a:	437f                	0x437f
   1788c:	7ed0                	flw	fa2,60(a3)
   1788e:	3c24                	fld	fs1,120(s0)
   17890:	c45d                	beqz	s0,1793e <_ZL12residentfont+0x6e>
   17892:	c49c3f53          	0xc49c3f53
   17896:	be70                	fsd	fa2,248(a2)
   17898:	3a83126f          	jal	tp,48c40 <__BSS_END__+0x28fd0>
   1789c:	3130                	fld	fa2,96(a0)
   1789e:	3332                	fld	ft6,296(sp)
   178a0:	3534                	fld	fa3,104(a0)
   178a2:	3736                	fld	fa4,360(sp)
   178a4:	3938                	fld	fa4,112(a0)
   178a6:	4241                	li	tp,16
   178a8:	46454443          	fmadd.q	fs0,fa0,ft4,fs0,rmm
   178ac:	0000                	unimp
   178ae:	0000                	unimp
   178b0:	2020                	fld	fs0,64(s0)
   178b2:	2020                	fld	fs0,64(s0)
   178b4:	2020                	fld	fs0,64(s0)
   178b6:	2020                	fld	fs0,64(s0)
   178b8:	2020                	fld	fs0,64(s0)
   178ba:	2020                	fld	fs0,64(s0)
   178bc:	2020                	fld	fs0,64(s0)
   178be:	2020                	fld	fs0,64(s0)
   178c0:	2020                	fld	fs0,64(s0)
   178c2:	0020                	addi	s0,sp,8
   178c4:	3130                	fld	fa2,96(a0)
   178c6:	3332                	fld	ft6,296(sp)
   178c8:	3534                	fld	fa3,104(a0)
   178ca:	3736                	fld	fa4,360(sp)
   178cc:	3938                	fld	fa4,112(a0)
	...

000178d0 <_ZL12residentfont>:
	...
   178d8:	0000                	unimp
   178da:	0000000f          	fence	unknown,unknown
   178de:	0000                	unimp
   178e0:	0f00                	addi	s0,sp,912
   178e2:	0f00                	addi	s0,sp,912
   178e4:	0000                	unimp
   178e6:	0000                	unimp
   178e8:	0000                	unimp
   178ea:	000f000f          	0xf000f
   178ee:	0000                	unimp
   178f0:	0f00                	addi	s0,sp,912
   178f2:	00000f0f          	0xf0f
   178f6:	0000                	unimp
   178f8:	0f00                	addi	s0,sp,912
   178fa:	000f0f0f          	0xf0f0f
   178fe:	0000                	unimp
   17900:	0000                	unimp
   17902:	0000000f          	fence	unknown,unknown
   17906:	0000                	unimp
   17908:	0000                	unimp
   1790a:	0000000f          	fence	unknown,unknown
   1790e:	0000                	unimp
   17910:	0000                	unimp
   17912:	0f00                	addi	s0,sp,912
   17914:	0000                	unimp
   17916:	0000                	unimp
   17918:	0f00                	addi	s0,sp,912
	...
   17922:	0000000f          	fence	unknown,unknown
	...
   1794a:	0000                	unimp
   1794c:	0000000f          	fence	unknown,unknown
   17950:	0f00                	addi	s0,sp,912
   17952:	00000f0f          	0xf0f
   17956:	0000                	unimp
   17958:	0000                	unimp
   1795a:	0000000f          	fence	unknown,unknown
   1795e:	0000                	unimp
   17960:	0f00                	addi	s0,sp,912
   17962:	00000f0f          	0xf0f
   17966:	0000                	unimp
   17968:	0f0f0f0f          	0xf0f0f0f
   1796c:	0000000f          	fence	unknown,unknown
   17970:	0000                	unimp
   17972:	0f00                	addi	s0,sp,912
   17974:	0000                	unimp
   17976:	0000                	unimp
   17978:	0f0f0f0f          	0xf0f0f0f
   1797c:	0000000f          	fence	unknown,unknown
   17980:	0000                	unimp
   17982:	00000f0f          	0xf0f
   17986:	0000                	unimp
   17988:	0f0f0f0f          	0xf0f0f0f
   1798c:	0000000f          	fence	unknown,unknown
   17990:	0f00                	addi	s0,sp,912
   17992:	00000f0f          	0xf0f
   17996:	0000                	unimp
   17998:	0f00                	addi	s0,sp,912
   1799a:	00000f0f          	0xf0f
	...
   179ca:	00000f0f          	0xf0f
	...
   179da:	0000000f          	fence	unknown,unknown
   179de:	0000                	unimp
   179e0:	0f00                	addi	s0,sp,912
   179e2:	0f00                	addi	s0,sp,912
   179e4:	0000                	unimp
   179e6:	0000                	unimp
   179e8:	0f0f0f0f          	0xf0f0f0f
   179ec:	0000000f          	fence	unknown,unknown
   179f0:	000f000f          	0xf000f
   179f4:	0000000f          	fence	unknown,unknown
   179f8:	000f000f          	0xf000f
   179fc:	0000000f          	fence	unknown,unknown
   17a00:	0f00                	addi	s0,sp,912
   17a02:	0f00                	addi	s0,sp,912
   17a04:	0000                	unimp
   17a06:	0000                	unimp
   17a08:	0000                	unimp
   17a0a:	0000000f          	fence	unknown,unknown
   17a0e:	0000                	unimp
   17a10:	0000                	unimp
   17a12:	0000000f          	fence	unknown,unknown
   17a16:	0000                	unimp
   17a18:	0000                	unimp
   17a1a:	0000000f          	fence	unknown,unknown
   17a1e:	0000                	unimp
   17a20:	000f000f          	0xf000f
   17a24:	0000000f          	fence	unknown,unknown
   17a28:	0000                	unimp
   17a2a:	0000000f          	fence	unknown,unknown
	...
   17a4a:	0000                	unimp
   17a4c:	0000000f          	fence	unknown,unknown
   17a50:	0000000f          	fence	unknown,unknown
   17a54:	0000000f          	fence	unknown,unknown
   17a58:	0f00                	addi	s0,sp,912
   17a5a:	0000000f          	fence	unknown,unknown
   17a5e:	0000                	unimp
   17a60:	0000000f          	fence	unknown,unknown
   17a64:	0000000f          	fence	unknown,unknown
   17a68:	0000                	unimp
   17a6a:	0f00                	addi	s0,sp,912
   17a6c:	0000                	unimp
   17a6e:	0000                	unimp
   17a70:	0000                	unimp
   17a72:	00000f0f          	0xf0f
   17a76:	0000                	unimp
   17a78:	0000000f          	fence	unknown,unknown
   17a7c:	0000                	unimp
   17a7e:	0000                	unimp
   17a80:	0f00                	addi	s0,sp,912
	...
   17a8a:	0000                	unimp
   17a8c:	0000000f          	fence	unknown,unknown
   17a90:	0000000f          	fence	unknown,unknown
   17a94:	0000000f          	fence	unknown,unknown
   17a98:	0000000f          	fence	unknown,unknown
   17a9c:	0000000f          	fence	unknown,unknown
	...
   17ab0:	0000                	unimp
   17ab2:	0f00                	addi	s0,sp,912
	...
   17ac0:	0f00                	addi	s0,sp,912
   17ac2:	0000                	unimp
   17ac4:	0000                	unimp
   17ac6:	0000                	unimp
   17ac8:	0f00                	addi	s0,sp,912
   17aca:	0000                	unimp
   17acc:	0000000f          	fence	unknown,unknown
	...
   17ad8:	0000                	unimp
   17ada:	0000000f          	fence	unknown,unknown
	...
   17ae6:	0000                	unimp
   17ae8:	0f00                	addi	s0,sp,912
   17aea:	0f00                	addi	s0,sp,912
   17aec:	0000                	unimp
   17aee:	0000                	unimp
   17af0:	000f000f          	0xf000f
   17af4:	0000                	unimp
   17af6:	0000                	unimp
   17af8:	0f0f000f          	0xf0f000f
   17afc:	0000                	unimp
   17afe:	0000                	unimp
   17b00:	0000                	unimp
   17b02:	0000000f          	fence	unknown,unknown
	...
   17b0e:	0000                	unimp
   17b10:	0f00                	addi	s0,sp,912
	...
   17b1a:	0f00                	addi	s0,sp,912
   17b1c:	0000                	unimp
   17b1e:	0000                	unimp
   17b20:	0f00                	addi	s0,sp,912
   17b22:	00000f0f          	0xf0f
   17b26:	0000                	unimp
   17b28:	0000                	unimp
   17b2a:	0000000f          	fence	unknown,unknown
	...
   17b4a:	0f00                	addi	s0,sp,912
   17b4c:	0000                	unimp
   17b4e:	0000                	unimp
   17b50:	0f00000f          	fence	iorw,unknown
   17b54:	0000000f          	fence	unknown,unknown
   17b58:	0000                	unimp
   17b5a:	0000000f          	fence	unknown,unknown
   17b5e:	0000                	unimp
   17b60:	0000                	unimp
   17b62:	0000                	unimp
   17b64:	0000000f          	fence	unknown,unknown
   17b68:	0000                	unimp
   17b6a:	0000000f          	fence	unknown,unknown
   17b6e:	0000                	unimp
   17b70:	0f00                	addi	s0,sp,912
   17b72:	0f00                	addi	s0,sp,912
   17b74:	0000                	unimp
   17b76:	0000                	unimp
   17b78:	0f0f0f0f          	0xf0f0f0f
   17b7c:	0000                	unimp
   17b7e:	0000                	unimp
   17b80:	0000000f          	fence	unknown,unknown
   17b84:	0000                	unimp
   17b86:	0000                	unimp
   17b88:	0000                	unimp
   17b8a:	0f00                	addi	s0,sp,912
   17b8c:	0000                	unimp
   17b8e:	0000                	unimp
   17b90:	0000000f          	fence	unknown,unknown
   17b94:	0000000f          	fence	unknown,unknown
   17b98:	0000000f          	fence	unknown,unknown
   17b9c:	0000000f          	fence	unknown,unknown
   17ba0:	0000                	unimp
   17ba2:	0000000f          	fence	unknown,unknown
   17ba6:	0000                	unimp
   17ba8:	0000                	unimp
   17baa:	0000000f          	fence	unknown,unknown
   17bae:	0000                	unimp
   17bb0:	0000                	unimp
   17bb2:	0000000f          	fence	unknown,unknown
   17bb6:	0000                	unimp
   17bb8:	0f0f0f0f          	0xf0f0f0f
   17bbc:	0000000f          	fence	unknown,unknown
   17bc0:	0000                	unimp
   17bc2:	0000000f          	fence	unknown,unknown
   17bc6:	0000                	unimp
   17bc8:	0000                	unimp
   17bca:	0000                	unimp
   17bcc:	0000000f          	fence	unknown,unknown
	...
   17bd8:	0000                	unimp
   17bda:	0000000f          	fence	unknown,unknown
	...
   17be6:	0000                	unimp
   17be8:	0f0f0f0f          	0xf0f0f0f
   17bec:	0000000f          	fence	unknown,unknown
   17bf0:	0f00                	addi	s0,sp,912
   17bf2:	00000f0f          	0xf0f
   17bf6:	0000                	unimp
   17bf8:	0f00                	addi	s0,sp,912
   17bfa:	000f0f0f          	0xf0f0f
   17bfe:	0000                	unimp
   17c00:	0f00                	addi	s0,sp,912
   17c02:	0f00                	addi	s0,sp,912
   17c04:	0f00                	addi	s0,sp,912
	...
   17c0e:	0000                	unimp
   17c10:	0f00                	addi	s0,sp,912
	...
   17c1a:	0f00                	addi	s0,sp,912
   17c1c:	0000                	unimp
   17c1e:	0000                	unimp
   17c20:	0f00                	addi	s0,sp,912
   17c22:	0f00                	addi	s0,sp,912
   17c24:	0000                	unimp
   17c26:	0000                	unimp
   17c28:	0f0f0f0f          	0xf0f0f0f
   17c2c:	0000000f          	fence	unknown,unknown
	...
   17c38:	0f00                	addi	s0,sp,912
   17c3a:	000f0f0f          	0xf0f0f
	...
   17c4a:	0f00                	addi	s0,sp,912
   17c4c:	0000                	unimp
   17c4e:	0000                	unimp
   17c50:	000f000f          	0xf000f
   17c54:	0000000f          	fence	unknown,unknown
   17c58:	0000                	unimp
   17c5a:	0000000f          	fence	unknown,unknown
   17c5e:	0000                	unimp
   17c60:	0000                	unimp
   17c62:	0f00                	addi	s0,sp,912
   17c64:	0000                	unimp
   17c66:	0000                	unimp
   17c68:	0f00                	addi	s0,sp,912
   17c6a:	00000f0f          	0xf0f
   17c6e:	0000                	unimp
   17c70:	0f00000f          	fence	iorw,unknown
	...
   17c7c:	0000000f          	fence	unknown,unknown
   17c80:	0f0f0f0f          	0xf0f0f0f
   17c84:	0000                	unimp
   17c86:	0000                	unimp
   17c88:	0000                	unimp
   17c8a:	0f00                	addi	s0,sp,912
   17c8c:	0000                	unimp
   17c8e:	0000                	unimp
   17c90:	0f00                	addi	s0,sp,912
   17c92:	00000f0f          	0xf0f
   17c96:	0000                	unimp
   17c98:	0f00                	addi	s0,sp,912
   17c9a:	000f0f0f          	0xf0f0f
	...
   17cae:	0000                	unimp
   17cb0:	0f00                	addi	s0,sp,912
	...
   17cc2:	0f00                	addi	s0,sp,912
   17cc4:	0000                	unimp
   17cc6:	0000                	unimp
   17cc8:	0000                	unimp
   17cca:	0f00                	addi	s0,sp,912
	...
   17cd8:	0000                	unimp
   17cda:	0000000f          	fence	unknown,unknown
	...
   17ce6:	0000                	unimp
   17ce8:	000f000f          	0xf000f
   17cec:	0000                	unimp
   17cee:	0000                	unimp
   17cf0:	0000                	unimp
   17cf2:	000f000f          	0xf000f
   17cf6:	0000                	unimp
   17cf8:	0000                	unimp
   17cfa:	0f000f0f          	0xf000f0f
   17cfe:	0000                	unimp
   17d00:	0000000f          	fence	unknown,unknown
   17d04:	0000000f          	fence	unknown,unknown
	...
   17d10:	0f00                	addi	s0,sp,912
	...
   17d1a:	0f00                	addi	s0,sp,912
   17d1c:	0000                	unimp
   17d1e:	0000                	unimp
   17d20:	0000000f          	fence	unknown,unknown
   17d24:	0000000f          	fence	unknown,unknown
   17d28:	0000                	unimp
   17d2a:	0000000f          	fence	unknown,unknown
	...
   17d4a:	0000000f          	fence	unknown,unknown
   17d4e:	0000                	unimp
   17d50:	00000f0f          	0xf0f
   17d54:	0000000f          	fence	unknown,unknown
   17d58:	0000                	unimp
   17d5a:	0000000f          	fence	unknown,unknown
   17d5e:	0000                	unimp
   17d60:	0000                	unimp
   17d62:	0000000f          	fence	unknown,unknown
   17d66:	0000                	unimp
   17d68:	0000                	unimp
   17d6a:	0000                	unimp
   17d6c:	0000000f          	fence	unknown,unknown
   17d70:	0f0f0f0f          	0xf0f0f0f
   17d74:	0000000f          	fence	unknown,unknown
   17d78:	0000                	unimp
   17d7a:	0000                	unimp
   17d7c:	0000000f          	fence	unknown,unknown
   17d80:	0000000f          	fence	unknown,unknown
   17d84:	0000000f          	fence	unknown,unknown
   17d88:	0000                	unimp
   17d8a:	0000000f          	fence	unknown,unknown
   17d8e:	0000                	unimp
   17d90:	0000000f          	fence	unknown,unknown
   17d94:	0000000f          	fence	unknown,unknown
   17d98:	0000                	unimp
   17d9a:	0000                	unimp
   17d9c:	0000000f          	fence	unknown,unknown
	...
   17db0:	0000                	unimp
   17db2:	0000000f          	fence	unknown,unknown
   17db6:	0000                	unimp
   17db8:	0f0f0f0f          	0xf0f0f0f
   17dbc:	0000000f          	fence	unknown,unknown
   17dc0:	0000                	unimp
   17dc2:	0000000f          	fence	unknown,unknown
   17dc6:	0000                	unimp
   17dc8:	0000                	unimp
   17dca:	0000000f          	fence	unknown,unknown
	...
   17dee:	0000                	unimp
   17df0:	000f000f          	0xf000f
   17df4:	0000000f          	fence	unknown,unknown
   17df8:	0f00                	addi	s0,sp,912
   17dfa:	0f00                	addi	s0,sp,912
   17dfc:	0f00                	addi	s0,sp,912
   17dfe:	0000                	unimp
   17e00:	0000000f          	fence	unknown,unknown
   17e04:	0000000f          	fence	unknown,unknown
	...
   17e10:	0f00                	addi	s0,sp,912
	...
   17e1a:	0f00                	addi	s0,sp,912
	...
   17e28:	0000                	unimp
   17e2a:	0000000f          	fence	unknown,unknown
   17e2e:	0000                	unimp
   17e30:	0000                	unimp
   17e32:	0000000f          	fence	unknown,unknown
	...
   17e4a:	0000000f          	fence	unknown,unknown
   17e4e:	0000                	unimp
   17e50:	0000000f          	fence	unknown,unknown
   17e54:	0000000f          	fence	unknown,unknown
   17e58:	0000                	unimp
   17e5a:	0000000f          	fence	unknown,unknown
   17e5e:	0000                	unimp
   17e60:	0f00                	addi	s0,sp,912
   17e62:	0000                	unimp
   17e64:	0000                	unimp
   17e66:	0000                	unimp
   17e68:	0000000f          	fence	unknown,unknown
   17e6c:	0000000f          	fence	unknown,unknown
   17e70:	0000                	unimp
   17e72:	0f00                	addi	s0,sp,912
   17e74:	0000                	unimp
   17e76:	0000                	unimp
   17e78:	0000000f          	fence	unknown,unknown
   17e7c:	0000000f          	fence	unknown,unknown
   17e80:	0000000f          	fence	unknown,unknown
   17e84:	0000000f          	fence	unknown,unknown
   17e88:	0000                	unimp
   17e8a:	0000000f          	fence	unknown,unknown
   17e8e:	0000                	unimp
   17e90:	0000000f          	fence	unknown,unknown
   17e94:	0000000f          	fence	unknown,unknown
   17e98:	0000                	unimp
   17e9a:	0f00                	addi	s0,sp,912
	...
   17ea8:	0000                	unimp
   17eaa:	0000000f          	fence	unknown,unknown
   17eae:	0000                	unimp
   17eb0:	0000                	unimp
   17eb2:	0f00                	addi	s0,sp,912
	...
   17ec0:	0f00                	addi	s0,sp,912
	...
   17eda:	0000000f          	fence	unknown,unknown
	...
   17eee:	0000                	unimp
   17ef0:	0f00                	addi	s0,sp,912
   17ef2:	00000f0f          	0xf0f
   17ef6:	0000                	unimp
   17ef8:	0f00                	addi	s0,sp,912
   17efa:	0000                	unimp
   17efc:	0000000f          	fence	unknown,unknown
   17f00:	0f00                	addi	s0,sp,912
   17f02:	0f000f0f          	0xf000f0f
	...
   17f12:	0000000f          	fence	unknown,unknown
   17f16:	0000                	unimp
   17f18:	0000                	unimp
   17f1a:	0000000f          	fence	unknown,unknown
	...
   17f32:	0000000f          	fence	unknown,unknown
	...
   17f42:	0000000f          	fence	unknown,unknown
   17f46:	0000                	unimp
   17f48:	0f00                	addi	s0,sp,912
   17f4a:	0000                	unimp
   17f4c:	0000                	unimp
   17f4e:	0000                	unimp
   17f50:	0f00                	addi	s0,sp,912
   17f52:	00000f0f          	0xf0f
   17f56:	0000                	unimp
   17f58:	0000                	unimp
   17f5a:	0000000f          	fence	unknown,unknown
   17f5e:	0000                	unimp
   17f60:	0f0f0f0f          	0xf0f0f0f
   17f64:	0000000f          	fence	unknown,unknown
   17f68:	0f00                	addi	s0,sp,912
   17f6a:	00000f0f          	0xf0f
   17f6e:	0000                	unimp
   17f70:	0000                	unimp
   17f72:	0f00                	addi	s0,sp,912
   17f74:	0000                	unimp
   17f76:	0000                	unimp
   17f78:	0f00                	addi	s0,sp,912
   17f7a:	00000f0f          	0xf0f
   17f7e:	0000                	unimp
   17f80:	0f00                	addi	s0,sp,912
   17f82:	00000f0f          	0xf0f
   17f86:	0000                	unimp
   17f88:	0000                	unimp
   17f8a:	0000000f          	fence	unknown,unknown
   17f8e:	0000                	unimp
   17f90:	0f00                	addi	s0,sp,912
   17f92:	00000f0f          	0xf0f
   17f96:	0000                	unimp
   17f98:	0f00                	addi	s0,sp,912
   17f9a:	0000000f          	fence	unknown,unknown
   17f9e:	0000                	unimp
   17fa0:	0000                	unimp
   17fa2:	0000000f          	fence	unknown,unknown
   17fa6:	0000                	unimp
   17fa8:	0000                	unimp
   17faa:	0000000f          	fence	unknown,unknown
	...
   17fca:	0000000f          	fence	unknown,unknown
	...
   17ff2:	0000000f          	fence	unknown,unknown
	...
   18012:	0f00                	addi	s0,sp,912
   18014:	0000                	unimp
   18016:	0000                	unimp
   18018:	0f00                	addi	s0,sp,912
	...
   1802e:	0000                	unimp
   18030:	0f00                	addi	s0,sp,912
	...
   18046:	0000                	unimp
   18048:	0f00                	addi	s0,sp,912
	...
   180a6:	0000                	unimp
   180a8:	0f00                	addi	s0,sp,912
	...
   180d2:	00000f0f          	0xf0f
   180d6:	0000                	unimp
   180d8:	0000                	unimp
   180da:	0000000f          	fence	unknown,unknown
   180de:	0000                	unimp
   180e0:	0f0f0f0f          	0xf0f0f0f
   180e4:	0000                	unimp
   180e6:	0000                	unimp
   180e8:	0f00                	addi	s0,sp,912
   180ea:	00000f0f          	0xf0f
   180ee:	0000                	unimp
   180f0:	000f0f0f          	0xf0f0f
   180f4:	0000                	unimp
   180f6:	0000                	unimp
   180f8:	0f00                	addi	s0,sp,912
   180fa:	000f0f0f          	0xf0f0f
   180fe:	0000                	unimp
   18100:	0f00                	addi	s0,sp,912
   18102:	000f0f0f          	0xf0f0f
   18106:	0000                	unimp
   18108:	0f00                	addi	s0,sp,912
   1810a:	00000f0f          	0xf0f
   1810e:	0000                	unimp
   18110:	0000000f          	fence	unknown,unknown
   18114:	0000000f          	fence	unknown,unknown
   18118:	0000                	unimp
   1811a:	0000000f          	fence	unknown,unknown
   1811e:	0000                	unimp
   18120:	0000                	unimp
   18122:	0000                	unimp
   18124:	0000000f          	fence	unknown,unknown
   18128:	0000000f          	fence	unknown,unknown
   1812c:	0000000f          	fence	unknown,unknown
   18130:	0f00                	addi	s0,sp,912
   18132:	0000                	unimp
   18134:	0000                	unimp
   18136:	0000                	unimp
   18138:	0000000f          	fence	unknown,unknown
   1813c:	0000000f          	fence	unknown,unknown
   18140:	00000f0f          	0xf0f
   18144:	0000000f          	fence	unknown,unknown
   18148:	0f00                	addi	s0,sp,912
   1814a:	00000f0f          	0xf0f
   1814e:	0000                	unimp
   18150:	0f0f0f0f          	0xf0f0f0f
   18154:	0000                	unimp
   18156:	0000                	unimp
   18158:	0f00                	addi	s0,sp,912
   1815a:	00000f0f          	0xf0f
   1815e:	0000                	unimp
   18160:	0f0f0f0f          	0xf0f0f0f
   18164:	0000                	unimp
   18166:	0000                	unimp
   18168:	0f00                	addi	s0,sp,912
   1816a:	00000f0f          	0xf0f
   1816e:	0000                	unimp
   18170:	0f0f0f0f          	0xf0f0f0f
   18174:	0000000f          	fence	unknown,unknown
   18178:	0000000f          	fence	unknown,unknown
   1817c:	0000000f          	fence	unknown,unknown
   18180:	0000000f          	fence	unknown,unknown
   18184:	0000000f          	fence	unknown,unknown
   18188:	0000000f          	fence	unknown,unknown
   1818c:	0000000f          	fence	unknown,unknown
   18190:	0000000f          	fence	unknown,unknown
   18194:	0000000f          	fence	unknown,unknown
   18198:	0000000f          	fence	unknown,unknown
   1819c:	0000000f          	fence	unknown,unknown
   181a0:	0f00                	addi	s0,sp,912
   181a2:	000f0f0f          	0xf0f0f
   181a6:	0000                	unimp
   181a8:	0000                	unimp
   181aa:	00000f0f          	0xf0f
   181ae:	0000                	unimp
   181b0:	0f00                	addi	s0,sp,912
   181b2:	0000                	unimp
   181b4:	0000                	unimp
   181b6:	0000                	unimp
   181b8:	0f00                	addi	s0,sp,912
   181ba:	0000000f          	fence	unknown,unknown
   181be:	0000                	unimp
   181c0:	0000                	unimp
   181c2:	0000000f          	fence	unknown,unknown
	...
   181ce:	0000                	unimp
   181d0:	0f00                	addi	s0,sp,912
   181d2:	0000                	unimp
   181d4:	0000000f          	fence	unknown,unknown
   181d8:	0000                	unimp
   181da:	0000000f          	fence	unknown,unknown
   181de:	0000                	unimp
   181e0:	0000000f          	fence	unknown,unknown
   181e4:	0000000f          	fence	unknown,unknown
   181e8:	0000000f          	fence	unknown,unknown
   181ec:	0000000f          	fence	unknown,unknown
   181f0:	0f00000f          	fence	iorw,unknown
   181f4:	0000                	unimp
   181f6:	0000                	unimp
   181f8:	0f00                	addi	s0,sp,912
   181fa:	0000                	unimp
   181fc:	0000                	unimp
   181fe:	0000                	unimp
   18200:	0f00                	addi	s0,sp,912
   18202:	0000                	unimp
   18204:	0000                	unimp
   18206:	0000                	unimp
   18208:	0000000f          	fence	unknown,unknown
   1820c:	0000000f          	fence	unknown,unknown
   18210:	0000000f          	fence	unknown,unknown
   18214:	0000000f          	fence	unknown,unknown
   18218:	0000                	unimp
   1821a:	0000000f          	fence	unknown,unknown
   1821e:	0000                	unimp
   18220:	0000                	unimp
   18222:	0000                	unimp
   18224:	0000000f          	fence	unknown,unknown
   18228:	0f00000f          	fence	iorw,unknown
   1822c:	0000                	unimp
   1822e:	0000                	unimp
   18230:	0f00                	addi	s0,sp,912
   18232:	0000                	unimp
   18234:	0000                	unimp
   18236:	0000                	unimp
   18238:	0f000f0f          	0xf000f0f
   1823c:	0000000f          	fence	unknown,unknown
   18240:	00000f0f          	0xf0f
   18244:	0000000f          	fence	unknown,unknown
   18248:	0000000f          	fence	unknown,unknown
   1824c:	0000000f          	fence	unknown,unknown
   18250:	0000000f          	fence	unknown,unknown
   18254:	0000000f          	fence	unknown,unknown
   18258:	0000000f          	fence	unknown,unknown
   1825c:	0000000f          	fence	unknown,unknown
   18260:	0000000f          	fence	unknown,unknown
   18264:	0000000f          	fence	unknown,unknown
   18268:	0000000f          	fence	unknown,unknown
   1826c:	0000000f          	fence	unknown,unknown
   18270:	0000                	unimp
   18272:	0000000f          	fence	unknown,unknown
   18276:	0000                	unimp
   18278:	0000000f          	fence	unknown,unknown
   1827c:	0000000f          	fence	unknown,unknown
   18280:	0000000f          	fence	unknown,unknown
   18284:	0000000f          	fence	unknown,unknown
   18288:	0000000f          	fence	unknown,unknown
   1828c:	0000000f          	fence	unknown,unknown
   18290:	0000000f          	fence	unknown,unknown
   18294:	0000000f          	fence	unknown,unknown
   18298:	0000000f          	fence	unknown,unknown
   1829c:	0000000f          	fence	unknown,unknown
   182a0:	0000                	unimp
   182a2:	0000                	unimp
   182a4:	0000000f          	fence	unknown,unknown
   182a8:	0000                	unimp
   182aa:	0000000f          	fence	unknown,unknown
   182ae:	0000                	unimp
   182b0:	0f00                	addi	s0,sp,912
	...
   182ba:	0000000f          	fence	unknown,unknown
   182be:	0000                	unimp
   182c0:	0f00                	addi	s0,sp,912
   182c2:	0f00                	addi	s0,sp,912
	...
   182d0:	0f0f000f          	0xf0f000f
   182d4:	0f00                	addi	s0,sp,912
   182d6:	0000                	unimp
   182d8:	0f00                	addi	s0,sp,912
   182da:	0f00                	addi	s0,sp,912
   182dc:	0000                	unimp
   182de:	0000                	unimp
   182e0:	0000000f          	fence	unknown,unknown
   182e4:	0000000f          	fence	unknown,unknown
   182e8:	0000000f          	fence	unknown,unknown
   182ec:	0000                	unimp
   182ee:	0000                	unimp
   182f0:	0000000f          	fence	unknown,unknown
   182f4:	0000000f          	fence	unknown,unknown
   182f8:	0f00                	addi	s0,sp,912
   182fa:	0000                	unimp
   182fc:	0000                	unimp
   182fe:	0000                	unimp
   18300:	0f00                	addi	s0,sp,912
   18302:	0000                	unimp
   18304:	0000                	unimp
   18306:	0000                	unimp
   18308:	0000000f          	fence	unknown,unknown
   1830c:	0000                	unimp
   1830e:	0000                	unimp
   18310:	0000000f          	fence	unknown,unknown
   18314:	0000000f          	fence	unknown,unknown
   18318:	0000                	unimp
   1831a:	0000000f          	fence	unknown,unknown
   1831e:	0000                	unimp
   18320:	0000                	unimp
   18322:	0000                	unimp
   18324:	0000000f          	fence	unknown,unknown
   18328:	000f000f          	0xf000f
   1832c:	0000                	unimp
   1832e:	0000                	unimp
   18330:	0f00                	addi	s0,sp,912
   18332:	0000                	unimp
   18334:	0000                	unimp
   18336:	0000                	unimp
   18338:	000f000f          	0xf000f
   1833c:	0000000f          	fence	unknown,unknown
   18340:	000f000f          	0xf000f
   18344:	0000000f          	fence	unknown,unknown
   18348:	0000000f          	fence	unknown,unknown
   1834c:	0000000f          	fence	unknown,unknown
   18350:	0000000f          	fence	unknown,unknown
   18354:	0000000f          	fence	unknown,unknown
   18358:	0000000f          	fence	unknown,unknown
   1835c:	0000000f          	fence	unknown,unknown
   18360:	0000000f          	fence	unknown,unknown
   18364:	0000000f          	fence	unknown,unknown
   18368:	0000000f          	fence	unknown,unknown
   1836c:	0000                	unimp
   1836e:	0000                	unimp
   18370:	0000                	unimp
   18372:	0000000f          	fence	unknown,unknown
   18376:	0000                	unimp
   18378:	0000000f          	fence	unknown,unknown
   1837c:	0000000f          	fence	unknown,unknown
   18380:	0000000f          	fence	unknown,unknown
   18384:	0000000f          	fence	unknown,unknown
   18388:	000f000f          	0xf000f
   1838c:	0000000f          	fence	unknown,unknown
   18390:	0f00                	addi	s0,sp,912
   18392:	0f00                	addi	s0,sp,912
   18394:	0000                	unimp
   18396:	0000                	unimp
   18398:	0f00                	addi	s0,sp,912
   1839a:	0f00                	addi	s0,sp,912
   1839c:	0000                	unimp
   1839e:	0000                	unimp
   183a0:	0000                	unimp
   183a2:	0f00                	addi	s0,sp,912
   183a4:	0000                	unimp
   183a6:	0000                	unimp
   183a8:	0000                	unimp
   183aa:	0000000f          	fence	unknown,unknown
   183ae:	0000                	unimp
   183b0:	0000                	unimp
   183b2:	0000000f          	fence	unknown,unknown
   183b6:	0000                	unimp
   183b8:	0000                	unimp
   183ba:	0000000f          	fence	unknown,unknown
	...
   183ce:	0000                	unimp
   183d0:	0f000f0f          	0xf000f0f
   183d4:	0f00                	addi	s0,sp,912
   183d6:	0000                	unimp
   183d8:	0f00                	addi	s0,sp,912
   183da:	0f00                	addi	s0,sp,912
   183dc:	0000                	unimp
   183de:	0000                	unimp
   183e0:	0f0f0f0f          	0xf0f0f0f
   183e4:	0000                	unimp
   183e6:	0000                	unimp
   183e8:	0000000f          	fence	unknown,unknown
   183ec:	0000                	unimp
   183ee:	0000                	unimp
   183f0:	0000000f          	fence	unknown,unknown
   183f4:	0000000f          	fence	unknown,unknown
   183f8:	0f00                	addi	s0,sp,912
   183fa:	00000f0f          	0xf0f
   183fe:	0000                	unimp
   18400:	0f00                	addi	s0,sp,912
   18402:	00000f0f          	0xf0f
   18406:	0000                	unimp
   18408:	0f00000f          	fence	iorw,unknown
   1840c:	0000000f          	fence	unknown,unknown
   18410:	0f0f0f0f          	0xf0f0f0f
   18414:	0000000f          	fence	unknown,unknown
   18418:	0000                	unimp
   1841a:	0000000f          	fence	unknown,unknown
   1841e:	0000                	unimp
   18420:	0000                	unimp
   18422:	0000                	unimp
   18424:	0000000f          	fence	unknown,unknown
   18428:	00000f0f          	0xf0f
   1842c:	0000                	unimp
   1842e:	0000                	unimp
   18430:	0f00                	addi	s0,sp,912
   18432:	0000                	unimp
   18434:	0000                	unimp
   18436:	0000                	unimp
   18438:	0000000f          	fence	unknown,unknown
   1843c:	0000000f          	fence	unknown,unknown
   18440:	000f000f          	0xf000f
   18444:	0000000f          	fence	unknown,unknown
   18448:	0000000f          	fence	unknown,unknown
   1844c:	0000000f          	fence	unknown,unknown
   18450:	0f0f0f0f          	0xf0f0f0f
   18454:	0000                	unimp
   18456:	0000                	unimp
   18458:	0000000f          	fence	unknown,unknown
   1845c:	0000000f          	fence	unknown,unknown
   18460:	0f0f0f0f          	0xf0f0f0f
   18464:	0000                	unimp
   18466:	0000                	unimp
   18468:	0f00                	addi	s0,sp,912
   1846a:	00000f0f          	0xf0f
   1846e:	0000                	unimp
   18470:	0000                	unimp
   18472:	0000000f          	fence	unknown,unknown
   18476:	0000                	unimp
   18478:	0000000f          	fence	unknown,unknown
   1847c:	0000000f          	fence	unknown,unknown
   18480:	0f00                	addi	s0,sp,912
   18482:	0f00                	addi	s0,sp,912
   18484:	0000                	unimp
   18486:	0000                	unimp
   18488:	000f000f          	0xf000f
   1848c:	0000000f          	fence	unknown,unknown
   18490:	0000                	unimp
   18492:	0000000f          	fence	unknown,unknown
   18496:	0000                	unimp
   18498:	0000                	unimp
   1849a:	0000000f          	fence	unknown,unknown
   1849e:	0000                	unimp
   184a0:	0000                	unimp
   184a2:	0000000f          	fence	unknown,unknown
   184a6:	0000                	unimp
   184a8:	0000                	unimp
   184aa:	0000000f          	fence	unknown,unknown
   184ae:	0000                	unimp
   184b0:	0000                	unimp
   184b2:	0000000f          	fence	unknown,unknown
   184b6:	0000                	unimp
   184b8:	0000                	unimp
   184ba:	0000000f          	fence	unknown,unknown
	...
   184ce:	0000                	unimp
   184d0:	0f000f0f          	0xf000f0f
   184d4:	0f00                	addi	s0,sp,912
   184d6:	0000                	unimp
   184d8:	0f0f0f0f          	0xf0f0f0f
   184dc:	0000000f          	fence	unknown,unknown
   184e0:	0000000f          	fence	unknown,unknown
   184e4:	0000000f          	fence	unknown,unknown
   184e8:	0000000f          	fence	unknown,unknown
   184ec:	0000                	unimp
   184ee:	0000                	unimp
   184f0:	0000000f          	fence	unknown,unknown
   184f4:	0000000f          	fence	unknown,unknown
   184f8:	0f00                	addi	s0,sp,912
   184fa:	0000                	unimp
   184fc:	0000                	unimp
   184fe:	0000                	unimp
   18500:	0f00                	addi	s0,sp,912
   18502:	0000                	unimp
   18504:	0000                	unimp
   18506:	0000                	unimp
   18508:	0000000f          	fence	unknown,unknown
   1850c:	0000000f          	fence	unknown,unknown
   18510:	0000000f          	fence	unknown,unknown
   18514:	0000000f          	fence	unknown,unknown
   18518:	0000                	unimp
   1851a:	0000000f          	fence	unknown,unknown
   1851e:	0000                	unimp
   18520:	0000000f          	fence	unknown,unknown
   18524:	0000000f          	fence	unknown,unknown
   18528:	000f000f          	0xf000f
   1852c:	0000                	unimp
   1852e:	0000                	unimp
   18530:	0f00                	addi	s0,sp,912
   18532:	0000                	unimp
   18534:	0000                	unimp
   18536:	0000                	unimp
   18538:	0000000f          	fence	unknown,unknown
   1853c:	0000000f          	fence	unknown,unknown
   18540:	0f00000f          	fence	iorw,unknown
   18544:	0000000f          	fence	unknown,unknown
   18548:	0000000f          	fence	unknown,unknown
   1854c:	0000000f          	fence	unknown,unknown
   18550:	0000000f          	fence	unknown,unknown
   18554:	0000                	unimp
   18556:	0000                	unimp
   18558:	0000000f          	fence	unknown,unknown
   1855c:	0000000f          	fence	unknown,unknown
   18560:	000f000f          	0xf000f
	...
   1856c:	0000000f          	fence	unknown,unknown
   18570:	0000                	unimp
   18572:	0000000f          	fence	unknown,unknown
   18576:	0000                	unimp
   18578:	0000000f          	fence	unknown,unknown
   1857c:	0000000f          	fence	unknown,unknown
   18580:	0f00                	addi	s0,sp,912
   18582:	0f00                	addi	s0,sp,912
   18584:	0000                	unimp
   18586:	0000                	unimp
   18588:	0f00                	addi	s0,sp,912
   1858a:	0f00                	addi	s0,sp,912
   1858c:	0000                	unimp
   1858e:	0000                	unimp
   18590:	0f00                	addi	s0,sp,912
   18592:	0f00                	addi	s0,sp,912
   18594:	0000                	unimp
   18596:	0000                	unimp
   18598:	0000                	unimp
   1859a:	0000000f          	fence	unknown,unknown
   1859e:	0000                	unimp
   185a0:	0f00                	addi	s0,sp,912
	...
   185aa:	0000000f          	fence	unknown,unknown
   185ae:	0000                	unimp
   185b0:	0000                	unimp
   185b2:	0f00                	addi	s0,sp,912
   185b4:	0000                	unimp
   185b6:	0000                	unimp
   185b8:	0000                	unimp
   185ba:	0000000f          	fence	unknown,unknown
	...
   185ce:	0000                	unimp
   185d0:	0f0f000f          	0xf0f000f
   185d4:	0000000f          	fence	unknown,unknown
   185d8:	0000000f          	fence	unknown,unknown
   185dc:	0000000f          	fence	unknown,unknown
   185e0:	0000000f          	fence	unknown,unknown
   185e4:	0000000f          	fence	unknown,unknown
   185e8:	0000000f          	fence	unknown,unknown
   185ec:	0000000f          	fence	unknown,unknown
   185f0:	0f00000f          	fence	iorw,unknown
   185f4:	0000                	unimp
   185f6:	0000                	unimp
   185f8:	0f00                	addi	s0,sp,912
   185fa:	0000                	unimp
   185fc:	0000                	unimp
   185fe:	0000                	unimp
   18600:	0f00                	addi	s0,sp,912
   18602:	0000                	unimp
   18604:	0000                	unimp
   18606:	0000                	unimp
   18608:	0000000f          	fence	unknown,unknown
   1860c:	0000000f          	fence	unknown,unknown
   18610:	0000000f          	fence	unknown,unknown
   18614:	0000000f          	fence	unknown,unknown
   18618:	0000                	unimp
   1861a:	0000000f          	fence	unknown,unknown
   1861e:	0000                	unimp
   18620:	0000000f          	fence	unknown,unknown
   18624:	0000000f          	fence	unknown,unknown
   18628:	0f00000f          	fence	iorw,unknown
   1862c:	0000                	unimp
   1862e:	0000                	unimp
   18630:	0f00                	addi	s0,sp,912
   18632:	0000                	unimp
   18634:	0000                	unimp
   18636:	0000                	unimp
   18638:	0000000f          	fence	unknown,unknown
   1863c:	0000000f          	fence	unknown,unknown
   18640:	0f00000f          	fence	iorw,unknown
   18644:	0000000f          	fence	unknown,unknown
   18648:	0000000f          	fence	unknown,unknown
   1864c:	0000000f          	fence	unknown,unknown
   18650:	0000000f          	fence	unknown,unknown
   18654:	0000                	unimp
   18656:	0000                	unimp
   18658:	000f000f          	0xf000f
   1865c:	0000000f          	fence	unknown,unknown
   18660:	0f00000f          	fence	iorw,unknown
   18664:	0000                	unimp
   18666:	0000                	unimp
   18668:	0000000f          	fence	unknown,unknown
   1866c:	0000000f          	fence	unknown,unknown
   18670:	0000                	unimp
   18672:	0000000f          	fence	unknown,unknown
   18676:	0000                	unimp
   18678:	0000000f          	fence	unknown,unknown
   1867c:	0000000f          	fence	unknown,unknown
   18680:	0000                	unimp
   18682:	0000000f          	fence	unknown,unknown
   18686:	0000                	unimp
   18688:	0f00                	addi	s0,sp,912
   1868a:	0f00                	addi	s0,sp,912
   1868c:	0000                	unimp
   1868e:	0000                	unimp
   18690:	0000000f          	fence	unknown,unknown
   18694:	0000000f          	fence	unknown,unknown
   18698:	0000                	unimp
   1869a:	0000000f          	fence	unknown,unknown
   1869e:	0000                	unimp
   186a0:	0f00                	addi	s0,sp,912
	...
   186aa:	0000000f          	fence	unknown,unknown
   186ae:	0000                	unimp
   186b0:	0000                	unimp
   186b2:	0f00                	addi	s0,sp,912
   186b4:	0000                	unimp
   186b6:	0000                	unimp
   186b8:	0000                	unimp
   186ba:	0000000f          	fence	unknown,unknown
	...
   186ce:	0000                	unimp
   186d0:	0f00                	addi	s0,sp,912
   186d2:	0000                	unimp
   186d4:	0000                	unimp
   186d6:	0000                	unimp
   186d8:	0000000f          	fence	unknown,unknown
   186dc:	0000000f          	fence	unknown,unknown
   186e0:	0f0f0f0f          	0xf0f0f0f
   186e4:	0000                	unimp
   186e6:	0000                	unimp
   186e8:	0f00                	addi	s0,sp,912
   186ea:	00000f0f          	0xf0f
   186ee:	0000                	unimp
   186f0:	000f0f0f          	0xf0f0f
   186f4:	0000                	unimp
   186f6:	0000                	unimp
   186f8:	0f00                	addi	s0,sp,912
   186fa:	000f0f0f          	0xf0f0f
   186fe:	0000                	unimp
   18700:	0f00                	addi	s0,sp,912
   18702:	0000                	unimp
   18704:	0000                	unimp
   18706:	0000                	unimp
   18708:	0f00                	addi	s0,sp,912
   1870a:	00000f0f          	0xf0f
   1870e:	0000                	unimp
   18710:	0000000f          	fence	unknown,unknown
   18714:	0000000f          	fence	unknown,unknown
   18718:	0000                	unimp
   1871a:	0000000f          	fence	unknown,unknown
   1871e:	0000                	unimp
   18720:	0f00                	addi	s0,sp,912
   18722:	00000f0f          	0xf0f
   18726:	0000                	unimp
   18728:	0000000f          	fence	unknown,unknown
   1872c:	0000000f          	fence	unknown,unknown
   18730:	0f00                	addi	s0,sp,912
   18732:	000f0f0f          	0xf0f0f
   18736:	0000                	unimp
   18738:	0000000f          	fence	unknown,unknown
   1873c:	0000000f          	fence	unknown,unknown
   18740:	0000000f          	fence	unknown,unknown
   18744:	0000000f          	fence	unknown,unknown
   18748:	0f00                	addi	s0,sp,912
   1874a:	00000f0f          	0xf0f
   1874e:	0000                	unimp
   18750:	0000000f          	fence	unknown,unknown
   18754:	0000                	unimp
   18756:	0000                	unimp
   18758:	0f00                	addi	s0,sp,912
   1875a:	00000f0f          	0xf0f
   1875e:	0000                	unimp
   18760:	0000000f          	fence	unknown,unknown
   18764:	0000000f          	fence	unknown,unknown
   18768:	0f00                	addi	s0,sp,912
   1876a:	00000f0f          	0xf0f
   1876e:	0000                	unimp
   18770:	0000                	unimp
   18772:	0000000f          	fence	unknown,unknown
   18776:	0000                	unimp
   18778:	0f00                	addi	s0,sp,912
   1877a:	00000f0f          	0xf0f
   1877e:	0000                	unimp
   18780:	0000                	unimp
   18782:	0000000f          	fence	unknown,unknown
   18786:	0000                	unimp
   18788:	0f00                	addi	s0,sp,912
   1878a:	0f00                	addi	s0,sp,912
   1878c:	0000                	unimp
   1878e:	0000                	unimp
   18790:	0000000f          	fence	unknown,unknown
   18794:	0000000f          	fence	unknown,unknown
   18798:	0000                	unimp
   1879a:	0000000f          	fence	unknown,unknown
   1879e:	0000                	unimp
   187a0:	0f00                	addi	s0,sp,912
   187a2:	000f0f0f          	0xf0f0f
   187a6:	0000                	unimp
   187a8:	0000                	unimp
   187aa:	0000000f          	fence	unknown,unknown
   187ae:	0000                	unimp
   187b0:	0000                	unimp
   187b2:	0000                	unimp
   187b4:	0000000f          	fence	unknown,unknown
   187b8:	0000                	unimp
   187ba:	0000000f          	fence	unknown,unknown
	...
   187d2:	00000f0f          	0xf0f
	...
   1885a:	0f00                	addi	s0,sp,912
	...
   188a8:	0000                	unimp
   188aa:	00000f0f          	0xf0f
   188ae:	0000                	unimp
   188b0:	0000                	unimp
   188b2:	0000                	unimp
   188b4:	0000000f          	fence	unknown,unknown
   188b8:	0f00                	addi	s0,sp,912
   188ba:	0000000f          	fence	unknown,unknown
	...
   188c6:	0000                	unimp
   188c8:	0f0f0f0f          	0xf0f0f0f
   188cc:	00000f0f          	0xf0f
   188d0:	0000                	unimp
   188d2:	00000f0f          	0xf0f
	...
   188de:	0000                	unimp
   188e0:	0f00                	addi	s0,sp,912
	...
   188f2:	0000                	unimp
   188f4:	0000000f          	fence	unknown,unknown
	...
   18900:	0000                	unimp
   18902:	0f00                	addi	s0,sp,912
   18904:	0000000f          	fence	unknown,unknown
	...
   18910:	0f00                	addi	s0,sp,912
	...
   1891a:	0000000f          	fence	unknown,unknown
   1891e:	0000                	unimp
   18920:	0000                	unimp
   18922:	0f00                	addi	s0,sp,912
   18924:	0000                	unimp
   18926:	0000                	unimp
   18928:	0f00                	addi	s0,sp,912
	...
   18932:	0000000f          	fence	unknown,unknown
	...
   18972:	0000000f          	fence	unknown,unknown
	...
   189aa:	0f00                	addi	s0,sp,912
   189ac:	0000                	unimp
   189ae:	0000                	unimp
   189b0:	0000                	unimp
   189b2:	0000000f          	fence	unknown,unknown
   189b6:	0000                	unimp
   189b8:	0f00                	addi	s0,sp,912
   189ba:	0000                	unimp
   189bc:	0000                	unimp
   189be:	0000                	unimp
   189c0:	0f00                	addi	s0,sp,912
   189c2:	000f000f          	0xf000f
   189c6:	0000                	unimp
   189c8:	0000                	unimp
   189ca:	00000f0f          	0xf0f
   189ce:	0000                	unimp
   189d0:	0f00                	addi	s0,sp,912
	...
   189de:	0000                	unimp
   189e0:	0f00                	addi	s0,sp,912
	...
   189f2:	0000                	unimp
   189f4:	0000000f          	fence	unknown,unknown
	...
   18a00:	0000                	unimp
   18a02:	0000000f          	fence	unknown,unknown
	...
   18a0e:	0000                	unimp
   18a10:	0f00                	addi	s0,sp,912
	...
   18a26:	0000                	unimp
   18a28:	0f00                	addi	s0,sp,912
	...
   18a32:	0000000f          	fence	unknown,unknown
	...
   18a72:	0000000f          	fence	unknown,unknown
	...
   18aaa:	0000000f          	fence	unknown,unknown
   18aae:	0000                	unimp
   18ab0:	0000                	unimp
   18ab2:	0000000f          	fence	unknown,unknown
   18ab6:	0000                	unimp
   18ab8:	0000                	unimp
   18aba:	0000000f          	fence	unknown,unknown
   18abe:	0000                	unimp
   18ac0:	0f0f000f          	0xf0f000f
   18ac4:	0000                	unimp
   18ac6:	0000                	unimp
   18ac8:	0f00                	addi	s0,sp,912
   18aca:	0000                	unimp
   18acc:	0000000f          	fence	unknown,unknown
   18ad0:	0f00                	addi	s0,sp,912
	...
   18ada:	00000f0f          	0xf0f
   18ade:	0000                	unimp
   18ae0:	0f00                	addi	s0,sp,912
   18ae2:	00000f0f          	0xf0f
   18ae6:	0000                	unimp
   18ae8:	0000                	unimp
   18aea:	00000f0f          	0xf0f
   18aee:	0000                	unimp
   18af0:	0000                	unimp
   18af2:	000f0f0f          	0xf0f0f
   18af6:	0000                	unimp
   18af8:	0000                	unimp
   18afa:	00000f0f          	0xf0f
   18afe:	0000                	unimp
   18b00:	0f00                	addi	s0,sp,912
   18b02:	00000f0f          	0xf0f
   18b06:	0000                	unimp
   18b08:	0000                	unimp
   18b0a:	000f0f0f          	0xf0f0f
   18b0e:	0000                	unimp
   18b10:	0f00                	addi	s0,sp,912
   18b12:	00000f0f          	0xf0f
   18b16:	0000                	unimp
   18b18:	0000                	unimp
   18b1a:	0000000f          	fence	unknown,unknown
   18b1e:	0000                	unimp
   18b20:	0000                	unimp
   18b22:	0f00                	addi	s0,sp,912
   18b24:	0000                	unimp
   18b26:	0000                	unimp
   18b28:	0f00                	addi	s0,sp,912
   18b2a:	0000                	unimp
   18b2c:	0000000f          	fence	unknown,unknown
   18b30:	0000                	unimp
   18b32:	0000000f          	fence	unknown,unknown
   18b36:	0000                	unimp
   18b38:	0f000f0f          	0xf000f0f
   18b3c:	0000                	unimp
   18b3e:	0000                	unimp
   18b40:	0f00                	addi	s0,sp,912
   18b42:	00000f0f          	0xf0f
   18b46:	0000                	unimp
   18b48:	0000                	unimp
   18b4a:	00000f0f          	0xf0f
   18b4e:	0000                	unimp
   18b50:	0f00                	addi	s0,sp,912
   18b52:	00000f0f          	0xf0f
   18b56:	0000                	unimp
   18b58:	0000                	unimp
   18b5a:	000f0f0f          	0xf0f0f
   18b5e:	0000                	unimp
   18b60:	0f00                	addi	s0,sp,912
   18b62:	0f00                	addi	s0,sp,912
   18b64:	0000000f          	fence	unknown,unknown
   18b68:	0000                	unimp
   18b6a:	000f0f0f          	0xf0f0f
   18b6e:	0000                	unimp
   18b70:	0f00                	addi	s0,sp,912
   18b72:	00000f0f          	0xf0f
   18b76:	0000                	unimp
   18b78:	0f00                	addi	s0,sp,912
   18b7a:	0000                	unimp
   18b7c:	0000000f          	fence	unknown,unknown
   18b80:	0000000f          	fence	unknown,unknown
   18b84:	0000000f          	fence	unknown,unknown
   18b88:	0000000f          	fence	unknown,unknown
   18b8c:	0000000f          	fence	unknown,unknown
   18b90:	0000000f          	fence	unknown,unknown
   18b94:	0000000f          	fence	unknown,unknown
   18b98:	0000000f          	fence	unknown,unknown
   18b9c:	0000000f          	fence	unknown,unknown
   18ba0:	0f00                	addi	s0,sp,912
   18ba2:	000f0f0f          	0xf0f0f
   18ba6:	0000                	unimp
   18ba8:	0000                	unimp
   18baa:	0000000f          	fence	unknown,unknown
   18bae:	0000                	unimp
   18bb0:	0000                	unimp
   18bb2:	0000000f          	fence	unknown,unknown
   18bb6:	0000                	unimp
   18bb8:	0000                	unimp
   18bba:	0000000f          	fence	unknown,unknown
	...
   18bc6:	0000                	unimp
   18bc8:	0f0f000f          	0xf0f000f
   18bcc:	0f00                	addi	s0,sp,912
   18bce:	0000                	unimp
   18bd0:	000f0f0f          	0xf0f0f
	...
   18bdc:	0000000f          	fence	unknown,unknown
   18be0:	0f00                	addi	s0,sp,912
   18be2:	0000                	unimp
   18be4:	0000000f          	fence	unknown,unknown
   18be8:	0f00                	addi	s0,sp,912
   18bea:	0000                	unimp
   18bec:	0000000f          	fence	unknown,unknown
   18bf0:	0f00                	addi	s0,sp,912
   18bf2:	0000                	unimp
   18bf4:	0000000f          	fence	unknown,unknown
   18bf8:	0f00                	addi	s0,sp,912
   18bfa:	0000                	unimp
   18bfc:	0000000f          	fence	unknown,unknown
   18c00:	0000                	unimp
   18c02:	0000000f          	fence	unknown,unknown
   18c06:	0000                	unimp
   18c08:	0f00                	addi	s0,sp,912
   18c0a:	0000                	unimp
   18c0c:	0000000f          	fence	unknown,unknown
   18c10:	0f00                	addi	s0,sp,912
   18c12:	0000                	unimp
   18c14:	0000000f          	fence	unknown,unknown
   18c18:	0000                	unimp
   18c1a:	0000000f          	fence	unknown,unknown
   18c1e:	0000                	unimp
   18c20:	0000                	unimp
   18c22:	0f00                	addi	s0,sp,912
   18c24:	0000                	unimp
   18c26:	0000                	unimp
   18c28:	0f00                	addi	s0,sp,912
   18c2a:	0f00                	addi	s0,sp,912
   18c2c:	0000                	unimp
   18c2e:	0000                	unimp
   18c30:	0000                	unimp
   18c32:	0000000f          	fence	unknown,unknown
   18c36:	0000                	unimp
   18c38:	000f000f          	0xf000f
   18c3c:	0000000f          	fence	unknown,unknown
   18c40:	0f00                	addi	s0,sp,912
   18c42:	0000                	unimp
   18c44:	0000000f          	fence	unknown,unknown
   18c48:	0f00                	addi	s0,sp,912
   18c4a:	0000                	unimp
   18c4c:	0000000f          	fence	unknown,unknown
   18c50:	0f00                	addi	s0,sp,912
   18c52:	0000                	unimp
   18c54:	0000000f          	fence	unknown,unknown
   18c58:	0f00                	addi	s0,sp,912
   18c5a:	0000                	unimp
   18c5c:	0000000f          	fence	unknown,unknown
   18c60:	0f00                	addi	s0,sp,912
   18c62:	0000000f          	fence	unknown,unknown
   18c66:	0000                	unimp
   18c68:	0f00                	addi	s0,sp,912
	...
   18c72:	0000000f          	fence	unknown,unknown
   18c76:	0000                	unimp
   18c78:	0f00                	addi	s0,sp,912
   18c7a:	0000                	unimp
   18c7c:	0000000f          	fence	unknown,unknown
   18c80:	0f00                	addi	s0,sp,912
   18c82:	0f00                	addi	s0,sp,912
   18c84:	0000                	unimp
   18c86:	0000                	unimp
   18c88:	0000000f          	fence	unknown,unknown
   18c8c:	0000000f          	fence	unknown,unknown
   18c90:	0f00                	addi	s0,sp,912
   18c92:	0f00                	addi	s0,sp,912
   18c94:	0000                	unimp
   18c96:	0000                	unimp
   18c98:	0f00                	addi	s0,sp,912
   18c9a:	0f00                	addi	s0,sp,912
   18c9c:	0000                	unimp
   18c9e:	0000                	unimp
   18ca0:	0000                	unimp
   18ca2:	0f00                	addi	s0,sp,912
   18ca4:	0000                	unimp
   18ca6:	0000                	unimp
   18ca8:	0f00                	addi	s0,sp,912
	...
   18cba:	0f00                	addi	s0,sp,912
	...
   18cc8:	00000f0f          	0xf0f
   18ccc:	0f00                	addi	s0,sp,912
   18cce:	0000                	unimp
   18cd0:	0f00                	addi	s0,sp,912
	...
   18cda:	000f0f0f          	0xf0f0f
   18cde:	0000                	unimp
   18ce0:	0f00                	addi	s0,sp,912
   18ce2:	0000                	unimp
   18ce4:	0000000f          	fence	unknown,unknown
   18ce8:	0f00                	addi	s0,sp,912
   18cea:	0000                	unimp
   18cec:	0000                	unimp
   18cee:	0000                	unimp
   18cf0:	0f00                	addi	s0,sp,912
   18cf2:	0000                	unimp
   18cf4:	0000000f          	fence	unknown,unknown
   18cf8:	0f00                	addi	s0,sp,912
   18cfa:	000f0f0f          	0xf0f0f
   18cfe:	0000                	unimp
   18d00:	0000                	unimp
   18d02:	0000000f          	fence	unknown,unknown
   18d06:	0000                	unimp
   18d08:	0f00                	addi	s0,sp,912
   18d0a:	0000                	unimp
   18d0c:	0000000f          	fence	unknown,unknown
   18d10:	0f00                	addi	s0,sp,912
   18d12:	0000                	unimp
   18d14:	0000000f          	fence	unknown,unknown
   18d18:	0000                	unimp
   18d1a:	0000000f          	fence	unknown,unknown
   18d1e:	0000                	unimp
   18d20:	0000                	unimp
   18d22:	0f00                	addi	s0,sp,912
   18d24:	0000                	unimp
   18d26:	0000                	unimp
   18d28:	0f00                	addi	s0,sp,912
   18d2a:	0000000f          	fence	unknown,unknown
   18d2e:	0000                	unimp
   18d30:	0000                	unimp
   18d32:	0000000f          	fence	unknown,unknown
   18d36:	0000                	unimp
   18d38:	000f000f          	0xf000f
   18d3c:	0000000f          	fence	unknown,unknown
   18d40:	0f00                	addi	s0,sp,912
   18d42:	0000                	unimp
   18d44:	0000000f          	fence	unknown,unknown
   18d48:	0f00                	addi	s0,sp,912
   18d4a:	0000                	unimp
   18d4c:	0000000f          	fence	unknown,unknown
   18d50:	0f00                	addi	s0,sp,912
   18d52:	0000                	unimp
   18d54:	0000000f          	fence	unknown,unknown
   18d58:	0f00                	addi	s0,sp,912
   18d5a:	0000                	unimp
   18d5c:	0000000f          	fence	unknown,unknown
   18d60:	0f00                	addi	s0,sp,912
	...
   18d6a:	00000f0f          	0xf0f
   18d6e:	0000                	unimp
   18d70:	0000                	unimp
   18d72:	0000000f          	fence	unknown,unknown
   18d76:	0000                	unimp
   18d78:	0f00                	addi	s0,sp,912
   18d7a:	0000                	unimp
   18d7c:	0000000f          	fence	unknown,unknown
   18d80:	0f00                	addi	s0,sp,912
   18d82:	0f00                	addi	s0,sp,912
   18d84:	0000                	unimp
   18d86:	0000                	unimp
   18d88:	000f000f          	0xf000f
   18d8c:	0000000f          	fence	unknown,unknown
   18d90:	0000                	unimp
   18d92:	0000000f          	fence	unknown,unknown
   18d96:	0000                	unimp
   18d98:	0f00                	addi	s0,sp,912
   18d9a:	0f00                	addi	s0,sp,912
   18d9c:	0000                	unimp
   18d9e:	0000                	unimp
   18da0:	0000                	unimp
   18da2:	0000000f          	fence	unknown,unknown
   18da6:	0000                	unimp
   18da8:	0000                	unimp
   18daa:	0000000f          	fence	unknown,unknown
	...
   18dba:	0000000f          	fence	unknown,unknown
	...
   18dc6:	0000                	unimp
   18dc8:	00000f0f          	0xf0f
   18dcc:	0f00                	addi	s0,sp,912
   18dce:	0000                	unimp
   18dd0:	0f00                	addi	s0,sp,912
   18dd2:	0000                	unimp
   18dd4:	0000000f          	fence	unknown,unknown
   18dd8:	0f00                	addi	s0,sp,912
   18dda:	0000                	unimp
   18ddc:	0000000f          	fence	unknown,unknown
   18de0:	0f00                	addi	s0,sp,912
   18de2:	0000                	unimp
   18de4:	0000000f          	fence	unknown,unknown
   18de8:	0f00                	addi	s0,sp,912
   18dea:	0000                	unimp
   18dec:	0000000f          	fence	unknown,unknown
   18df0:	0f00                	addi	s0,sp,912
   18df2:	0000                	unimp
   18df4:	0000000f          	fence	unknown,unknown
   18df8:	0f00                	addi	s0,sp,912
	...
   18e02:	0000000f          	fence	unknown,unknown
   18e06:	0000                	unimp
   18e08:	0000                	unimp
   18e0a:	000f0f0f          	0xf0f0f
   18e0e:	0000                	unimp
   18e10:	0f00                	addi	s0,sp,912
   18e12:	0000                	unimp
   18e14:	0000000f          	fence	unknown,unknown
   18e18:	0000                	unimp
   18e1a:	0000000f          	fence	unknown,unknown
   18e1e:	0000                	unimp
   18e20:	0000                	unimp
   18e22:	0f00                	addi	s0,sp,912
   18e24:	0000                	unimp
   18e26:	0000                	unimp
   18e28:	0f00                	addi	s0,sp,912
   18e2a:	0f00                	addi	s0,sp,912
   18e2c:	0000                	unimp
   18e2e:	0000                	unimp
   18e30:	0000                	unimp
   18e32:	0000000f          	fence	unknown,unknown
   18e36:	0000                	unimp
   18e38:	000f000f          	0xf000f
   18e3c:	0000000f          	fence	unknown,unknown
   18e40:	0f00                	addi	s0,sp,912
   18e42:	0000                	unimp
   18e44:	0000000f          	fence	unknown,unknown
   18e48:	0f00                	addi	s0,sp,912
   18e4a:	0000                	unimp
   18e4c:	0000000f          	fence	unknown,unknown
   18e50:	0f00                	addi	s0,sp,912
   18e52:	00000f0f          	0xf0f
   18e56:	0000                	unimp
   18e58:	0000                	unimp
   18e5a:	000f0f0f          	0xf0f0f
   18e5e:	0000                	unimp
   18e60:	0f00                	addi	s0,sp,912
	...
   18e6a:	0000                	unimp
   18e6c:	0000000f          	fence	unknown,unknown
   18e70:	0000                	unimp
   18e72:	0000000f          	fence	unknown,unknown
   18e76:	0000                	unimp
   18e78:	0f00                	addi	s0,sp,912
   18e7a:	0000                	unimp
   18e7c:	0000000f          	fence	unknown,unknown
   18e80:	0000                	unimp
   18e82:	0000000f          	fence	unknown,unknown
   18e86:	0000                	unimp
   18e88:	0f00                	addi	s0,sp,912
   18e8a:	0f00                	addi	s0,sp,912
   18e8c:	0000                	unimp
   18e8e:	0000                	unimp
   18e90:	0f00                	addi	s0,sp,912
   18e92:	0f00                	addi	s0,sp,912
   18e94:	0000                	unimp
   18e96:	0000                	unimp
   18e98:	0000                	unimp
   18e9a:	0000000f          	fence	unknown,unknown
   18e9e:	0000                	unimp
   18ea0:	0f00                	addi	s0,sp,912
	...
   18eaa:	0000000f          	fence	unknown,unknown
   18eae:	0000                	unimp
   18eb0:	0000                	unimp
   18eb2:	0000000f          	fence	unknown,unknown
   18eb6:	0000                	unimp
   18eb8:	0000                	unimp
   18eba:	0000000f          	fence	unknown,unknown
	...
   18ec6:	0000                	unimp
   18ec8:	0f0f000f          	0xf0f000f
   18ecc:	0f00                	addi	s0,sp,912
   18ece:	0000                	unimp
   18ed0:	0f0f0f0f          	0xf0f0f0f
   18ed4:	0000                	unimp
   18ed6:	0000                	unimp
   18ed8:	0000                	unimp
   18eda:	000f0f0f          	0xf0f0f
   18ede:	0000                	unimp
   18ee0:	0f00                	addi	s0,sp,912
   18ee2:	00000f0f          	0xf0f
   18ee6:	0000                	unimp
   18ee8:	0000                	unimp
   18eea:	00000f0f          	0xf0f
   18eee:	0000                	unimp
   18ef0:	0000                	unimp
   18ef2:	000f0f0f          	0xf0f0f
   18ef6:	0000                	unimp
   18ef8:	0000                	unimp
   18efa:	00000f0f          	0xf0f
   18efe:	0000                	unimp
   18f00:	0000                	unimp
   18f02:	0000000f          	fence	unknown,unknown
   18f06:	0000                	unimp
   18f08:	0000                	unimp
   18f0a:	0000                	unimp
   18f0c:	0000000f          	fence	unknown,unknown
   18f10:	0f00                	addi	s0,sp,912
   18f12:	0000                	unimp
   18f14:	0000000f          	fence	unknown,unknown
   18f18:	0000                	unimp
   18f1a:	0000000f          	fence	unknown,unknown
   18f1e:	0000                	unimp
   18f20:	0000                	unimp
   18f22:	0f00                	addi	s0,sp,912
   18f24:	0000                	unimp
   18f26:	0000                	unimp
   18f28:	0f00                	addi	s0,sp,912
   18f2a:	0000                	unimp
   18f2c:	0000000f          	fence	unknown,unknown
   18f30:	0000                	unimp
   18f32:	0f00                	addi	s0,sp,912
   18f34:	0000                	unimp
   18f36:	0000                	unimp
   18f38:	000f000f          	0xf000f
   18f3c:	0000000f          	fence	unknown,unknown
   18f40:	0f00                	addi	s0,sp,912
   18f42:	0000                	unimp
   18f44:	0000000f          	fence	unknown,unknown
   18f48:	0000                	unimp
   18f4a:	00000f0f          	0xf0f
   18f4e:	0000                	unimp
   18f50:	0f00                	addi	s0,sp,912
	...
   18f5a:	0000                	unimp
   18f5c:	0000000f          	fence	unknown,unknown
   18f60:	0f00                	addi	s0,sp,912
   18f62:	0000                	unimp
   18f64:	0000                	unimp
   18f66:	0000                	unimp
   18f68:	0f00                	addi	s0,sp,912
   18f6a:	00000f0f          	0xf0f
   18f6e:	0000                	unimp
   18f70:	0000                	unimp
   18f72:	0f00                	addi	s0,sp,912
   18f74:	0000                	unimp
   18f76:	0000                	unimp
   18f78:	0000                	unimp
   18f7a:	00000f0f          	0xf0f
   18f7e:	0000                	unimp
   18f80:	0000                	unimp
   18f82:	0000000f          	fence	unknown,unknown
   18f86:	0000                	unimp
   18f88:	0f00                	addi	s0,sp,912
   18f8a:	0f00                	addi	s0,sp,912
   18f8c:	0000                	unimp
   18f8e:	0000                	unimp
   18f90:	0000000f          	fence	unknown,unknown
   18f94:	0000000f          	fence	unknown,unknown
   18f98:	0000                	unimp
   18f9a:	0000000f          	fence	unknown,unknown
   18f9e:	0000                	unimp
   18fa0:	0f00                	addi	s0,sp,912
   18fa2:	000f0f0f          	0xf0f0f
   18fa6:	0000                	unimp
   18fa8:	0000                	unimp
   18faa:	0000000f          	fence	unknown,unknown
   18fae:	0000                	unimp
   18fb0:	0000                	unimp
   18fb2:	0000000f          	fence	unknown,unknown
   18fb6:	0000                	unimp
   18fb8:	0000                	unimp
   18fba:	0000000f          	fence	unknown,unknown
	...
   18fc6:	0000                	unimp
   18fc8:	0f00                	addi	s0,sp,912
   18fca:	0000                	unimp
   18fcc:	0000000f          	fence	unknown,unknown
	...
   19008:	0000                	unimp
   1900a:	00000f0f          	0xf0f
	...
   1901e:	0000                	unimp
   19020:	0f00                	addi	s0,sp,912
   19022:	0000000f          	fence	unknown,unknown
	...
   1904e:	0000                	unimp
   19050:	0f00                	addi	s0,sp,912
	...
   1905a:	0000                	unimp
   1905c:	0000000f          	fence	unknown,unknown
	...
   19098:	00000f0f          	0xf0f
	...
   190a8:	0000                	unimp
   190aa:	0f00                	addi	s0,sp,912
   190ac:	0000                	unimp
   190ae:	0000                	unimp
   190b0:	0000                	unimp
   190b2:	0000000f          	fence	unknown,unknown
   190b6:	0000                	unimp
   190b8:	0f00                	addi	s0,sp,912
	...
   190ca:	00000f0f          	0xf0f
   190ce:	0000                	unimp
   190d0:	64494453          	0x64494453
   190d4:	656c                	flw	fa1,76(a0)
   190d6:	6520                	flw	fs0,72(a0)
   190d8:	7078                	flw	fa4,100(s0)
   190da:	6365                	lui	t1,0x19
   190dc:	6574                	flw	fa3,76(a0)
   190de:	2064                	fld	fs1,192(s0)
   190e0:	7830                	flw	fa2,112(s0)
   190e2:	3130                	fld	fa2,96(a0)
   190e4:	202c                	fld	fa1,64(s0)
   190e6:	20746f67          	0x20746f67
   190ea:	7830                	flw	fa2,112(s0)
   190ec:	0000                	unimp
   190ee:	0000                	unimp
   190f0:	000a                	c.slli	zero,0x2
   190f2:	0000                	unimp
   190f4:	68434453          	0x68434453
   190f8:	6365                	lui	t1,0x19
   190fa:	6c6f566b          	0x6c6f566b
   190fe:	6174                	flw	fa3,68(a0)
   19100:	61526567          	0x61526567
   19104:	676e                	flw	fa4,216(sp)
   19106:	2065                	jal	191ae <_ZL12residentfont+0x18de>
   19108:	7865                	lui	a6,0xffff9
   1910a:	6570                	flw	fa2,76(a0)
   1910c:	64657463          	bgeu	a0,t1,19754 <__clz_tab+0x30>
   19110:	3020                	fld	fs0,96(s0)
   19112:	3078                	fld	fa4,224(s0)
   19114:	2c31                	jal	19330 <_ZL5ExCvt+0x70>
   19116:	6720                	flw	fs0,72(a4)
   19118:	3020746f          	jal	s0,2041a <__BSS_END__+0x7aa>
   1911c:	0078                	addi	a4,sp,12
   1911e:	0000                	unimp
   19120:	68434453          	0x68434453
   19124:	6365                	lui	t1,0x19
   19126:	6c6f566b          	0x6c6f566b
   1912a:	6174                	flw	fa3,68(a0)
   1912c:	61526567          	0x61526567
   19130:	676e                	flw	fa4,216(sp)
   19132:	2065                	jal	191da <_ZL12residentfont+0x190a>
   19134:	7865                	lui	a6,0xffff9
   19136:	6570                	flw	fa2,76(a0)
   19138:	64657463          	bgeu	a0,t1,19780 <__clz_tab+0x5c>
   1913c:	3020                	fld	fs0,96(s0)
   1913e:	3078                	fld	fa4,224(s0)
   19140:	3030                	fld	fa2,96(s0)
   19142:	3030                	fld	fa2,96(s0)
   19144:	4131                	li	sp,12
   19146:	2c41                	jal	193d6 <_ZL5uc437+0x62>
   19148:	6720                	flw	fs0,72(a4)
   1914a:	3020746f          	jal	s0,2044c <__BSS_END__+0x7dc>
   1914e:	0078                	addi	a4,sp,12
   19150:	61434453          	0x61434453
   19154:	6472                	flw	fs0,28(sp)
   19156:	6e49                	lui	t3,0x12
   19158:	7469                	lui	s0,0xffffa
   1915a:	6520                	flw	fs0,72(a0)
   1915c:	7078                	flw	fa4,100(s0)
   1915e:	6365                	lui	t1,0x19
   19160:	6574                	flw	fa3,76(a0)
   19162:	2064                	fld	fs1,192(s0)
   19164:	7830                	flw	fa2,112(s0)
   19166:	3130                	fld	fa2,96(a0)
   19168:	202c                	fld	fa1,64(s0)
   1916a:	20746f67          	0x20746f67
   1916e:	7830                	flw	fa2,112(s0)
   19170:	0000                	unimp
   19172:	0000                	unimp
   19174:	61434453          	0x61434453
   19178:	6472                	flw	fs0,28(sp)
   1917a:	6e49                	lui	t3,0x12
   1917c:	7469                	lui	s0,0xffffa
   1917e:	6520                	flw	fs0,72(a0)
   19180:	7078                	flw	fa4,100(s0)
   19182:	6365                	lui	t1,0x19
   19184:	6574                	flw	fa3,76(a0)
   19186:	2064                	fld	fs1,192(s0)
   19188:	7830                	flw	fa2,112(s0)
   1918a:	3030                	fld	fa2,96(s0)
   1918c:	202c                	fld	fa1,64(s0)
   1918e:	20746f67          	0x20746f67
   19192:	7830                	flw	fa2,112(s0)
   19194:	0000                	unimp
   19196:	0000                	unimp
   19198:	65524453          	0x65524453
   1919c:	6461                	lui	s0,0x18
   1919e:	676e6953          	0x676e6953
   191a2:	656c                	flw	fa1,76(a0)
   191a4:	6c42                	flw	fs8,16(sp)
   191a6:	3a6b636f          	jal	t1,cf54c <__BSS_END__+0xaf8dc>
   191aa:	6520                	flw	fs0,72(a0)
   191ac:	7272                	flw	ft4,60(sp)
   191ae:	7220726f          	jal	tp,208d0 <__BSS_END__+0xc60>
   191b2:	7365                	lui	t1,0xffff9
   191b4:	6f70                	flw	fa2,92(a4)
   191b6:	736e                	flw	ft6,248(sp)
   191b8:	2065                	jal	19260 <_ZL12residentfont+0x1990>
   191ba:	203d                	jal	191e8 <_ZL12residentfont+0x1918>
   191bc:	72726527          	0x72726527
   191c0:	0a27726f          	jal	tp,90262 <__BSS_END__+0x705f2>
   191c4:	0000                	unimp
   191c6:	0000                	unimp
   191c8:	65524453          	0x65524453
   191cc:	6461                	lui	s0,0x18
   191ce:	676e6953          	0x676e6953
   191d2:	656c                	flw	fa1,76(a0)
   191d4:	6c42                	flw	fs8,16(sp)
   191d6:	3a6b636f          	jal	t1,cf57c <__BSS_END__+0xaf90c>
   191da:	6520                	flw	fs0,72(a0)
   191dc:	7272                	flw	ft4,60(sp)
   191de:	7220726f          	jal	tp,20900 <__BSS_END__+0xc90>
   191e2:	7365                	lui	t1,0xffff9
   191e4:	6f70                	flw	fa2,92(a4)
   191e6:	736e                	flw	ft6,248(sp)
   191e8:	2065                	jal	19290 <_ZL12residentfont+0x19c0>
   191ea:	203d                	jal	19218 <_ZL12residentfont+0x1948>
   191ec:	20434327          	fsq	ft4,518(t1) # ffff9206 <__BSS_END__+0xfffd9596>
   191f0:	7265                	lui	tp,0xffff9
   191f2:	6f72                	flw	ft10,28(sp)
   191f4:	2772                	fld	fa4,280(sp)
   191f6:	000a                	c.slli	zero,0x2
   191f8:	65524453          	0x65524453
   191fc:	6461                	lui	s0,0x18
   191fe:	676e6953          	0x676e6953
   19202:	656c                	flw	fa1,76(a0)
   19204:	6c42                	flw	fs8,16(sp)
   19206:	3a6b636f          	jal	t1,cf5ac <__BSS_END__+0xaf93c>
   1920a:	6520                	flw	fs0,72(a0)
   1920c:	7272                	flw	ft4,60(sp)
   1920e:	7220726f          	jal	tp,20930 <__BSS_END__+0xcc0>
   19212:	7365                	lui	t1,0xffff9
   19214:	6f70                	flw	fa2,92(a4)
   19216:	736e                	flw	ft6,248(sp)
   19218:	2065                	jal	192c0 <_ZL5ExCvt>
   1921a:	203d                	jal	19248 <_ZL12residentfont+0x1978>
   1921c:	72614327          	fsq	ft6,1830(sp)
   19220:	2064                	fld	fs1,192(s0)
   19222:	4345                	li	t1,17
   19224:	61662043          	fmadd.s	ft0,fa2,fs6,fa2,rdn
   19228:	6c69                	lui	s8,0x1a
   1922a:	6465                	lui	s0,0x19
   1922c:	00000a27          	0xa27
   19230:	65524453          	0x65524453
   19234:	6461                	lui	s0,0x18
   19236:	676e6953          	0x676e6953
   1923a:	656c                	flw	fa1,76(a0)
   1923c:	6c42                	flw	fs8,16(sp)
   1923e:	3a6b636f          	jal	t1,cf5e4 <__BSS_END__+0xaf974>
   19242:	6520                	flw	fs0,72(a0)
   19244:	7272                	flw	ft4,60(sp)
   19246:	7220726f          	jal	tp,20968 <__BSS_END__+0xcf8>
   1924a:	7365                	lui	t1,0xffff9
   1924c:	6f70                	flw	fa2,92(a4)
   1924e:	736e                	flw	ft6,248(sp)
   19250:	2065                	jal	192f8 <_ZL5ExCvt+0x38>
   19252:	203d                	jal	19280 <_ZL12residentfont+0x19b0>
   19254:	74754f27          	fsq	ft7,1886(a0)
   19258:	6f20                	flw	fs0,88(a4)
   1925a:	2066                	fld	ft0,88(sp)
   1925c:	6172                	flw	ft2,28(sp)
   1925e:	676e                	flw	fa4,216(sp)
   19260:	2765                	jal	19a08 <__clz_tab+0x2e4>
   19262:	7320                	flw	fs0,96(a4)
   19264:	6365                	lui	t1,0x19
   19266:	6f74                	flw	fa3,92(a4)
   19268:	3a72                	fld	fs4,312(sp)
   1926a:	3020                	fld	fs0,96(s0)
   1926c:	0078                	addi	a4,sp,12
   1926e:	0000                	unimp
   19270:	72574453          	0x72574453
   19274:	7469                	lui	s0,0xffffa
   19276:	5365                	li	t1,-7
   19278:	6e69                	lui	t3,0x1a
   1927a:	42656c67          	0x42656c67
   1927e:	6f6c                	flw	fa1,92(a4)
   19280:	203a6b63          	bltu	s4,gp,19496 <_ZZ11ff_wtoupperE4cvt1+0x22>
   19284:	74697277          	0x74697277
   19288:	2065                	jal	19330 <_ZL5ExCvt+0x70>
   1928a:	7265                	lui	tp,0xffff9
   1928c:	6f72                	flw	ft10,28(sp)
   1928e:	0a72                	slli	s4,s4,0x1c
   19290:	0000                	unimp
   19292:	0000                	unimp
   19294:	4146                	lw	sp,80(sp)
   19296:	3354                	fld	fa3,160(a4)
   19298:	2032                	fld	ft0,264(sp)
   1929a:	2020                	fld	fs0,64(s0)
   1929c:	0000                	unimp
   1929e:	0000                	unimp
   192a0:	3a2a                	fld	fs4,168(sp)
   192a2:	3e3c                	fld	fa5,120(a2)
   192a4:	227c                	fld	fa5,192(a2)
   192a6:	00007f3f 2c2b0000 	0x2c2b000000007f3f
   192ae:	5d5b3d3b          	0x5d5b3d3b
   192b2:	0000                	unimp
   192b4:	4152                	lw	sp,20(sp)
   192b6:	004d                	c.nop	19
   192b8:	00004453          	fadd.s	fs0,ft0,ft0,rmm
   192bc:	5355                	li	t1,-11
   192be:	0042                	c.slli	zero,0x10

000192c0 <_ZL5ExCvt>:
   192c0:	9a80                	0x9a80
   192c2:	4145                	li	sp,17
   192c4:	418e                	lw	gp,192(sp)
   192c6:	4545808f          	0x4545808f
   192ca:	4945                	li	s2,17
   192cc:	4949                	li	s2,18
   192ce:	8f8e                	mv	t6,gp
   192d0:	9290                	0x9290
   192d2:	4f92                	lw	t6,4(sp)
   192d4:	4f99                	li	t6,6
   192d6:	5555                	li	a0,-11
   192d8:	9959                	andi	a0,a0,-10
   192da:	9b9a                	add	s7,s7,t1
   192dc:	9d9c                	0x9d9c
   192de:	9f9e                	add	t6,t6,t2
   192e0:	4941                	li	s2,16
   192e2:	a5a5554f          	0xa5a5554f
   192e6:	a7a6                	fsd	fs1,456(sp)
   192e8:	a9a8                	fsd	fa0,80(a1)
   192ea:	abaa                	fsd	fa0,464(sp)
   192ec:	adac                	fsd	fa1,88(a1)
   192ee:	afae                	fsd	fa1,472(sp)
   192f0:	b1b0                	fsd	fa2,96(a1)
   192f2:	b3b2                	fsd	fa2,480(sp)
   192f4:	b5b4                	fsd	fa3,104(a1)
   192f6:	b7b6                	fsd	fa3,488(sp)
   192f8:	b9b8                	fsd	fa4,112(a1)
   192fa:	bbba                	fsd	fa4,496(sp)
   192fc:	bdbc                	fsd	fa5,120(a1)
   192fe:	bfbe                	fsd	fa5,504(sp)
   19300:	c1c0                	sw	s0,4(a1)
   19302:	c3c2                	sw	a6,196(sp)
   19304:	c5c4                	sw	s1,12(a1)
   19306:	c7c6                	sw	a7,204(sp)
   19308:	c9c8                	sw	a0,20(a1)
   1930a:	cbca                	sw	s2,212(sp)
   1930c:	cdcc                	sw	a1,28(a1)
   1930e:	cfce                	sw	s3,220(sp)
   19310:	d1d0                	sw	a2,36(a1)
   19312:	d3d2                	sw	s4,228(sp)
   19314:	d5d4                	sw	a3,44(a1)
   19316:	d7d6                	sw	s5,236(sp)
   19318:	d9d8                	sw	a4,52(a1)
   1931a:	dbda                	sw	s6,244(sp)
   1931c:	dddc                	sw	a5,60(a1)
   1931e:	dfde                	sw	s7,252(sp)
   19320:	e1e0                	fsw	fs0,68(a1)
   19322:	e3e2                	fsw	fs8,196(sp)
   19324:	e5e4                	fsw	fs1,76(a1)
   19326:	e7e6                	fsw	fs9,204(sp)
   19328:	e9e8                	fsw	fa0,84(a1)
   1932a:	ebea                	fsw	fs10,212(sp)
   1932c:	edec                	fsw	fa1,92(a1)
   1932e:	efee                	fsw	fs11,220(sp)
   19330:	f1f0                	fsw	fa2,100(a1)
   19332:	f3f2                	fsw	ft8,228(sp)
   19334:	f5f4                	fsw	fa3,108(a1)
   19336:	f7f6                	fsw	ft9,236(sp)
   19338:	f9f8                	fsw	fa4,116(a1)
   1933a:	fbfa                	fsw	ft10,244(sp)
   1933c:	fdfc                	fsw	fa5,124(a1)
   1933e:	fffe                	fsw	ft11,252(sp)

00019340 <_ZL6LfnOfs>:
   19340:	0301                	addi	t1,t1,0
   19342:	0705                	addi	a4,a4,1
   19344:	0e09                	addi	t3,t3,2
   19346:	1210                	addi	a2,sp,288
   19348:	1614                	addi	a3,sp,800
   1934a:	1c18                	addi	a4,sp,560
   1934c:	001e                	c.slli	zero,0x7
   1934e:	0000                	unimp
   19350:	ca14                	sw	a3,16(a2)
   19352:	ffff                	0xffff
   19354:	c9f8                	sw	a4,84(a1)
   19356:	ffff                	0xffff
   19358:	c9e4                	sw	s1,84(a1)
   1935a:	ffff                	0xffff
   1935c:	c9d0                	sw	a2,20(a1)
   1935e:	ffff                	0xffff
   19360:	c9bc                	sw	a5,80(a1)
   19362:	ffff                	0xffff
   19364:	c9a8                	sw	a0,80(a1)
   19366:	ffff                	0xffff
   19368:	c994                	sw	a3,16(a1)
   1936a:	ffff                	0xffff
   1936c:	c980                	sw	s0,16(a1)
   1936e:	ffff                	0xffff
   19370:	ca2c                	sw	a1,80(a2)
   19372:	ffff                	0xffff

00019374 <_ZL5uc437>:
   19374:	00fc00c7          	fmsub.s	ft1,fs8,fa5,ft0,rne
   19378:	00e9                	addi	ra,ra,26
   1937a:	00e2                	slli	ra,ra,0x18
   1937c:	00e4                	addi	s1,sp,76
   1937e:	00e0                	addi	s0,sp,76
   19380:	00e5                	addi	ra,ra,25
   19382:	00ea00e7          	jalr	14(s4)
   19386:	00e800eb          	0xe800eb
   1938a:	00ee00ef          	jal	ra,f9398 <__BSS_END__+0xd9728>
   1938e:	00ec                	addi	a1,sp,76
   19390:	00c4                	addi	s1,sp,68
   19392:	00c5                	addi	ra,ra,17
   19394:	00c9                	addi	ra,ra,18
   19396:	00e6                	slli	ra,ra,0x19
   19398:	00c6                	slli	ra,ra,0x11
   1939a:	00f4                	addi	a3,sp,76
   1939c:	00f6                	slli	ra,ra,0x1d
   1939e:	00f2                	slli	ra,ra,0x1c
   193a0:	00f900fb          	0xf900fb
   193a4:	00ff                	0xff
   193a6:	00d6                	slli	ra,ra,0x15
   193a8:	00dc                	addi	a5,sp,68
   193aa:	00a2                	slli	ra,ra,0x8
   193ac:	00a500a3          	sb	a0,1(a0)
   193b0:	019220a7          	fsw	fs9,1(tp) # ffff9001 <__BSS_END__+0xfffd9391>
   193b4:	00e1                	addi	ra,ra,24
   193b6:	00ed                	addi	ra,ra,27
   193b8:	00fa00f3          	0xfa00f3
   193bc:	00f1                	addi	ra,ra,28
   193be:	00d1                	addi	ra,ra,20
   193c0:	00aa                	slli	ra,ra,0xa
   193c2:	00ba                	slli	ra,ra,0xe
   193c4:	231000bf 00bd00ac 	0xbd00ac231000bf
   193cc:	00bc                	addi	a5,sp,72
   193ce:	00a1                	addi	ra,ra,8
   193d0:	00bb00ab          	0xbb00ab
   193d4:	2591                	jal	19a18 <__clz_tab+0x2f4>
   193d6:	2592                	fld	fa1,256(sp)
   193d8:	25022593          	slti	a1,tp,592
   193dc:	2524                	fld	fs1,72(a0)
   193de:	2561                	jal	19a66 <__clz_tab+0x342>
   193e0:	2562                	fld	fa0,24(sp)
   193e2:	2556                	fld	fa0,336(sp)
   193e4:	2555                	jal	19a88 <__clz_tab+0x364>
   193e6:	25512563          	0x25512563
   193ea:	255d2557          	0x255d2557
   193ee:	255c                	fld	fa5,136(a0)
   193f0:	2510255b          	0x2510255b
   193f4:	2514                	fld	fa3,8(a0)
   193f6:	2534                	fld	fa3,72(a0)
   193f8:	252c                	fld	fa1,72(a0)
   193fa:	251c                	fld	fa5,8(a0)
   193fc:	2500                	fld	fs0,8(a0)
   193fe:	253c                	fld	fa5,72(a0)
   19400:	255e                	fld	fa0,464(sp)
   19402:	255f 255a 2554      	0x2554255a255f
   19408:	2569                	jal	19a92 <__clz_tab+0x36e>
   1940a:	2566                	fld	fa0,88(sp)
   1940c:	2560                	fld	fs0,200(a0)
   1940e:	2550                	fld	fa2,136(a0)
   19410:	256c                	fld	fa1,200(a0)
   19412:	25682567          	0x25682567
   19416:	2564                	fld	fs1,200(a0)
   19418:	2565                	jal	19ac0 <__clz_tab+0x39c>
   1941a:	2559                	jal	19aa0 <__clz_tab+0x37c>
   1941c:	2558                	fld	fa4,136(a0)
   1941e:	2552                	fld	fa0,272(sp)
   19420:	256b2553          	0x256b2553
   19424:	256a                	fld	fa0,152(sp)
   19426:	2518                	fld	fa4,8(a0)
   19428:	250c                	fld	fa1,8(a0)
   1942a:	2588                	fld	fa0,8(a1)
   1942c:	2584                	fld	fs1,8(a1)
   1942e:	258c                	fld	fa1,8(a1)
   19430:	2590                	fld	fa2,8(a1)
   19432:	2580                	fld	fs0,8(a1)
   19434:	03b1                	addi	t2,t2,12
   19436:	00df 0393 03c0      	0x3c0039300df
   1943c:	03c303a3          	sb	t3,39(t1) # 19027 <_ZL12residentfont+0x1757>
   19440:	00b5                	addi	ra,ra,13
   19442:	03c4                	addi	s1,sp,452
   19444:	03a6                	slli	t2,t2,0x9
   19446:	0398                	addi	a4,sp,448
   19448:	03a9                	addi	t2,t2,10
   1944a:	03b4                	addi	a3,sp,456
   1944c:	221e                	fld	ft4,448(sp)
   1944e:	03c6                	slli	t2,t2,0x11
   19450:	03b5                	addi	t2,t2,13
   19452:	2229                	jal	1955c <_ZZ11ff_wtoupperE4cvt1+0xe8>
   19454:	2261                	jal	195dc <_ZZ11ff_wtoupperE4cvt1+0x168>
   19456:	00b1                	addi	ra,ra,12
   19458:	2265                	jal	19600 <_ZZ11ff_wtoupperE4cvt1+0x18c>
   1945a:	2264                	fld	fs1,192(a2)
   1945c:	2320                	fld	fs0,64(a4)
   1945e:	2321                	jal	19966 <__clz_tab+0x242>
   19460:	224800f7          	0x224800f7
   19464:	00b0                	addi	a2,sp,72
   19466:	2219                	jal	1956c <_ZZ11ff_wtoupperE4cvt1+0xf8>
   19468:	221a00b7          	lui	ra,0x221a0
   1946c:	207f                	0x207f
   1946e:	00b2                	slli	ra,ra,0xc
   19470:	25a0                	fld	fs0,72(a1)
   19472:	00a0                	addi	s0,sp,72

00019474 <_ZZ11ff_wtoupperE4cvt1>:
   19474:	0061                	c.nop	24
   19476:	031a                	slli	t1,t1,0x6
   19478:	00e0                	addi	s0,sp,76
   1947a:	00f80317          	auipc	t1,0xf80
   1947e:	00ff0307          	0xff0307
   19482:	0001                	nop
   19484:	0178                	addi	a4,sp,140
   19486:	0100                	addi	s0,sp,128
   19488:	0130                	addi	a2,sp,136
   1948a:	0132                	slli	sp,sp,0xc
   1948c:	0106                	slli	sp,sp,0x1
   1948e:	0139                	addi	sp,sp,14
   19490:	0110                	addi	a2,sp,128
   19492:	014a                	slli	sp,sp,0x12
   19494:	012e                	slli	sp,sp,0xb
   19496:	0179                	addi	sp,sp,30
   19498:	0106                	slli	sp,sp,0x1
   1949a:	0180                	addi	s0,sp,192
   1949c:	004d                	c.nop	19
   1949e:	01810243          	fmadd.s	ft4,ft2,fs8,ft0,rne
   194a2:	0182                	c.slli64	gp
   194a4:	0182                	c.slli64	gp
   194a6:	0184                	addi	s1,sp,192
   194a8:	0184                	addi	s1,sp,192
   194aa:	0186                	slli	gp,gp,0x1
   194ac:	01870187          	0x1870187
   194b0:	0189                	addi	gp,gp,2
   194b2:	018a                	slli	gp,gp,0x2
   194b4:	018b018b          	0x18b018b
   194b8:	018d                	addi	gp,gp,3
   194ba:	018e                	slli	gp,gp,0x3
   194bc:	0190018f          	0x190018f
   194c0:	0191                	addi	gp,gp,4
   194c2:	0191                	addi	gp,gp,4
   194c4:	01940193          	addi	gp,s0,25 # ffffa019 <__BSS_END__+0xfffda3a9>
   194c8:	01f6                	slli	gp,gp,0x1d
   194ca:	0196                	slli	gp,gp,0x5
   194cc:	01980197          	auipc	gp,0x1980
   194d0:	0198                	addi	a4,sp,192
   194d2:	023d                	addi	tp,tp,15
   194d4:	019c019b          	0x19c019b
   194d8:	019d                	addi	gp,gp,7
   194da:	0220                	addi	s0,sp,264
   194dc:	019f 01a0 01a0      	0x1a001a0019f
   194e2:	01a2                	slli	gp,gp,0x8
   194e4:	01a2                	slli	gp,gp,0x8
   194e6:	01a4                	addi	s1,sp,200
   194e8:	01a4                	addi	s1,sp,200
   194ea:	01a6                	slli	gp,gp,0x9
   194ec:	01a701a7          	0x1a701a7
   194f0:	01a9                	addi	gp,gp,10
   194f2:	01aa                	slli	gp,gp,0xa
   194f4:	01ac01ab          	0x1ac01ab
   194f8:	01ac                	addi	a1,sp,200
   194fa:	01ae                	slli	gp,gp,0xb
   194fc:	01af01af          	0x1af01af
   19500:	01b1                	addi	gp,gp,12
   19502:	01b2                	slli	gp,gp,0xc
   19504:	01b301b3          	add	gp,t1,s11
   19508:	01b5                	addi	gp,gp,13
   1950a:	01b5                	addi	gp,gp,13
   1950c:	01b801b7          	lui	gp,0x1b80
   19510:	01b8                	addi	a4,sp,200
   19512:	01ba                	slli	gp,gp,0xe
   19514:	01bc01bb          	0x1bc01bb
   19518:	01bc                	addi	a5,sp,200
   1951a:	01be                	slli	gp,gp,0xf
   1951c:	01c001f7          	0x1c001f7
   19520:	01c1                	addi	gp,gp,16
   19522:	01c2                	slli	gp,gp,0x10
   19524:	01c401c3          	fmadd.s	ft3,fs0,ft8,ft0,rne
   19528:	01c5                	addi	gp,gp,17
   1952a:	01c4                	addi	s1,sp,196
   1952c:	01c801c7          	fmsub.s	ft3,fa6,ft8,ft0,rne
   19530:	01ca01c7          	fmsub.s	ft3,fs4,ft8,ft0,rne
   19534:	01ca01cb          	fnmsub.s	ft3,fs4,ft8,ft0,rne
   19538:	01cd                	addi	gp,gp,19
   1953a:	0110                	addi	a2,sp,128
   1953c:	01dd                	addi	gp,gp,23
   1953e:	0001                	nop
   19540:	018e                	slli	gp,gp,0x3
   19542:	01de                	slli	gp,gp,0x17
   19544:	0112                	slli	sp,sp,0x4
   19546:	000301f3          	0x301f3
   1954a:	01f1                	addi	gp,gp,28
   1954c:	01f4                	addi	a3,sp,204
   1954e:	01f4                	addi	a3,sp,204
   19550:	01f8                	addi	a4,sp,204
   19552:	0128                	addi	a0,sp,136
   19554:	0222                	slli	tp,tp,0x8
   19556:	0112                	slli	sp,sp,0x4
   19558:	023a                	slli	tp,tp,0xe
   1955a:	0009                	c.nop	2
   1955c:	2c65                	jal	19814 <__clz_tab+0xf0>
   1955e:	023b023b          	0x23b023b
   19562:	023d                	addi	tp,tp,15
   19564:	2c66                	fld	fs8,88(sp)
   19566:	0240023f 02410241 	0x24102410240023f
   1956e:	0246                	slli	tp,tp,0x11
   19570:	010a                	slli	sp,sp,0x2
   19572:	00400253          	fadd.s	ft4,ft0,ft4,rne
   19576:	0181                	addi	gp,gp,0
   19578:	0186                	slli	gp,gp,0x1
   1957a:	0255                	addi	tp,tp,21
   1957c:	0189                	addi	gp,gp,2
   1957e:	018a                	slli	gp,gp,0x2
   19580:	0258                	addi	a4,sp,260
   19582:	025a018f          	0x25a018f
   19586:	0190                	addi	a2,sp,192
   19588:	025c                	addi	a5,sp,260
   1958a:	025d                	addi	tp,tp,23
   1958c:	025e                	slli	tp,tp,0x17
   1958e:	025f 0193 0261      	0x2610193025f
   19594:	0262                	slli	tp,tp,0x18
   19596:	0194                	addi	a3,sp,192
   19598:	0264                	addi	s1,sp,268
   1959a:	0265                	addi	tp,tp,25
   1959c:	0266                	slli	tp,tp,0x19
   1959e:	01970267          	jalr	tp,25(a4)
   195a2:	0196                	slli	gp,gp,0x5
   195a4:	026a                	slli	tp,tp,0x1a
   195a6:	2c62                	fld	fs8,24(sp)
   195a8:	026c                	addi	a1,sp,268
   195aa:	026d                	addi	tp,tp,27
   195ac:	026e                	slli	tp,tp,0x1b
   195ae:	019c                	addi	a5,sp,192
   195b0:	0270                	addi	a2,sp,268
   195b2:	0271                	addi	tp,tp,28
   195b4:	019d                	addi	gp,gp,7
   195b6:	02740273          	0x2740273
   195ba:	019f 0276 0277      	0x2770276019f
   195c0:	0278                	addi	a4,sp,268
   195c2:	0279                	addi	tp,tp,30
   195c4:	027a                	slli	tp,tp,0x1e
   195c6:	027c027b          	0x27c027b
   195ca:	2c64                	fld	fs1,216(s0)
   195cc:	027e                	slli	tp,tp,0x1f
   195ce:	027f                	0x27f
   195d0:	01a6                	slli	gp,gp,0x9
   195d2:	0281                	addi	t0,t0,0
   195d4:	0282                	c.slli64	t0
   195d6:	01a9                	addi	gp,gp,10
   195d8:	0284                	addi	s1,sp,320
   195da:	0285                	addi	t0,t0,1
   195dc:	0286                	slli	t0,t0,0x1
   195de:	01ae0287          	0x1ae0287
   195e2:	0244                	addi	s1,sp,260
   195e4:	01b1                	addi	gp,gp,12
   195e6:	01b2                	slli	gp,gp,0xc
   195e8:	0245                	addi	tp,tp,17
   195ea:	028d                	addi	t0,t0,3
   195ec:	028e                	slli	t0,t0,0x3
   195ee:	0290028f          	0x290028f
   195f2:	0291                	addi	t0,t0,4
   195f4:	037b01b7          	lui	gp,0x37b0
   195f8:	03fd0003          	lb	zero,63(s10)
   195fc:	03fe                	slli	t2,t2,0x1f
   195fe:	03ff                	0x3ff
   19600:	03ac                	addi	a1,sp,456
   19602:	0004                	0x4
   19604:	0386                	slli	t2,t2,0x1
   19606:	0388                	addi	a0,sp,448
   19608:	0389                	addi	t2,t2,2
   1960a:	038a                	slli	t2,t2,0x2
   1960c:	03b1                	addi	t2,t2,12
   1960e:	0311                	addi	t1,t1,4
   19610:	03c2                	slli	t2,t2,0x10
   19612:	0002                	c.slli64	zero
   19614:	03a303a3          	sb	s10,39(t1) # f994a1 <__BSS_END__+0xf79831>
   19618:	03c4                	addi	s1,sp,452
   1961a:	0308                	addi	a0,sp,384
   1961c:	03cc                	addi	a1,sp,452
   1961e:	038c0003          	lb	zero,56(s8) # 1a038 <__EH_FRAME_BEGIN__+0x38>
   19622:	038e                	slli	t2,t2,0x3
   19624:	03d8038f          	0x3d8038f
   19628:	0118                	addi	a4,sp,128
   1962a:	03f2                	slli	t2,t2,0x1c
   1962c:	000a                	c.slli	zero,0x2
   1962e:	03f9                	addi	t2,t2,30
   19630:	03f403f3          	0x3f403f3
   19634:	03f5                	addi	t2,t2,29
   19636:	03f6                	slli	t2,t2,0x1d
   19638:	03f703f7          	0x3f703f7
   1963c:	03f9                	addi	t2,t2,30
   1963e:	03fa                	slli	t2,t2,0x1e
   19640:	03fa                	slli	t2,t2,0x1e
   19642:	0430                	addi	a2,sp,520
   19644:	0320                	addi	s0,sp,392
   19646:	0450                	addi	a2,sp,516
   19648:	0710                	addi	a2,sp,896
   1964a:	0460                	addi	s0,sp,524
   1964c:	0122                	slli	sp,sp,0x8
   1964e:	048a                	slli	s1,s1,0x2
   19650:	0136                	slli	sp,sp,0xd
   19652:	04c1                	addi	s1,s1,16
   19654:	010e                	slli	sp,sp,0x3
   19656:	000104cf          	fnmadd.s	fs1,ft2,ft0,ft0,rne
   1965a:	04c0                	addi	s0,sp,580
   1965c:	04d0                	addi	a2,sp,580
   1965e:	0144                	addi	s1,sp,132
   19660:	0561                	addi	a0,a0,24
   19662:	0426                	slli	s0,s0,0x9
   19664:	0000                	unimp
	...

00019668 <_ZZ11ff_wtoupperE4cvt2>:
   19668:	1d7d                	addi	s10,s10,-1
   1966a:	0001                	nop
   1966c:	1e002c63          	0x1e002c63
   19670:	0196                	slli	gp,gp,0x5
   19672:	1ea0                	addi	s0,sp,888
   19674:	015a                	slli	sp,sp,0x16
   19676:	1f00                	addi	s0,sp,944
   19678:	0608                	addi	a0,sp,768
   1967a:	1f10                	addi	a2,sp,944
   1967c:	0606                	slli	a2,a2,0x1
   1967e:	1f20                	addi	s0,sp,952
   19680:	0608                	addi	a0,sp,768
   19682:	1f30                	addi	a2,sp,952
   19684:	0608                	addi	a0,sp,768
   19686:	1f40                	addi	s0,sp,948
   19688:	0606                	slli	a2,a2,0x1
   1968a:	1f51                	addi	t5,t5,-12
   1968c:	1f590007          	0x1f590007
   19690:	1f52                	slli	t5,t5,0x34
   19692:	1f541f5b          	0x1f541f5b
   19696:	1f5d                	addi	t5,t5,-9
   19698:	1f56                	slli	t5,t5,0x35
   1969a:	1f5f 1f60 0608      	0x6081f601f5f
   196a0:	1f70                	addi	a2,sp,956
   196a2:	000e                	c.slli	zero,0x3
   196a4:	1fba                	slli	t6,t6,0x2e
   196a6:	1fc81fbb          	0x1fc81fbb
   196aa:	1fc9                	addi	t6,t6,-14
   196ac:	1fca                	slli	t6,t6,0x32
   196ae:	1fda1fcb          	fnmsub.q	ft11,fs4,ft9,ft3,rtz
   196b2:	1ff81fdb          	0x1ff81fdb
   196b6:	1ff9                	addi	t6,t6,-2
   196b8:	1fea                	slli	t6,t6,0x3a
   196ba:	1ffa1feb          	0x1ffa1feb
   196be:	1f801ffb          	0x1f801ffb
   196c2:	0608                	addi	a0,sp,768
   196c4:	1f90                	addi	a2,sp,1008
   196c6:	0608                	addi	a0,sp,768
   196c8:	1fa0                	addi	s0,sp,1016
   196ca:	0608                	addi	a0,sp,768
   196cc:	1fb0                	addi	a2,sp,1016
   196ce:	0004                	0x4
   196d0:	1fb8                	addi	a4,sp,1016
   196d2:	1fb9                	addi	t6,t6,-18
   196d4:	1fb2                	slli	t6,t6,0x2c
   196d6:	1fbc                	addi	a5,sp,1016
   196d8:	1fcc                	addi	a1,sp,1012
   196da:	0001                	nop
   196dc:	1fd01fc3          	fmadd.q	ft11,ft0,ft9,ft3,rtz
   196e0:	0602                	c.slli64	a2
   196e2:	1fe0                	addi	s0,sp,1020
   196e4:	0602                	c.slli64	a2
   196e6:	1fe5                	addi	t6,t6,-7
   196e8:	0001                	nop
   196ea:	1fec                	addi	a1,sp,1020
   196ec:	00011ff3          	csrrw	t6,ustatus,sp
   196f0:	1ffc                	addi	a5,sp,1020
   196f2:	214e                	fld	ft2,208(sp)
   196f4:	0001                	nop
   196f6:	2132                	fld	ft2,264(sp)
   196f8:	2170                	fld	fa2,192(a0)
   196fa:	0210                	addi	a2,sp,256
   196fc:	2184                	fld	fs1,0(a1)
   196fe:	0001                	nop
   19700:	24d02183          	lw	gp,589(zero) # 24d <main-0xfe27>
   19704:	051a                	slli	a0,a0,0x6
   19706:	2c30                	fld	fa2,88(s0)
   19708:	2c60042f          	0x2c60042f
   1970c:	0102                	c.slli64	sp
   1970e:	01062c67          	0x1062c67
   19712:	2c75                	jal	199ce <__clz_tab+0x2aa>
   19714:	0102                	c.slli64	sp
   19716:	2c80                	fld	fs0,24(s1)
   19718:	0164                	addi	s1,sp,140
   1971a:	2d00                	fld	fs0,24(a0)
   1971c:	0826                	slli	a6,a6,0x9
   1971e:	ff41                	bnez	a4,196b6 <_ZZ11ff_wtoupperE4cvt2+0x4e>
   19720:	031a                	slli	t1,t1,0x6
	...

00019724 <__clz_tab>:
const UQItype __clz_tab[256] =
   19724:	0100                	addi	s0,sp,128
   19726:	0202                	c.slli64	tp
   19728:	03030303          	lb	t1,48(t1)
   1972c:	0404                	addi	s1,sp,512
   1972e:	0404                	addi	s1,sp,512
   19730:	0404                	addi	s1,sp,512
   19732:	0404                	addi	s1,sp,512
   19734:	0505                	addi	a0,a0,1
   19736:	0505                	addi	a0,a0,1
   19738:	0505                	addi	a0,a0,1
   1973a:	0505                	addi	a0,a0,1
   1973c:	0505                	addi	a0,a0,1
   1973e:	0505                	addi	a0,a0,1
   19740:	0505                	addi	a0,a0,1
   19742:	0505                	addi	a0,a0,1
   19744:	0606                	slli	a2,a2,0x1
   19746:	0606                	slli	a2,a2,0x1
   19748:	0606                	slli	a2,a2,0x1
   1974a:	0606                	slli	a2,a2,0x1
   1974c:	0606                	slli	a2,a2,0x1
   1974e:	0606                	slli	a2,a2,0x1
   19750:	0606                	slli	a2,a2,0x1
   19752:	0606                	slli	a2,a2,0x1
   19754:	0606                	slli	a2,a2,0x1
   19756:	0606                	slli	a2,a2,0x1
   19758:	0606                	slli	a2,a2,0x1
   1975a:	0606                	slli	a2,a2,0x1
   1975c:	0606                	slli	a2,a2,0x1
   1975e:	0606                	slli	a2,a2,0x1
   19760:	0606                	slli	a2,a2,0x1
   19762:	0606                	slli	a2,a2,0x1
   19764:	07070707          	0x7070707
   19768:	07070707          	0x7070707
   1976c:	07070707          	0x7070707
   19770:	07070707          	0x7070707
   19774:	07070707          	0x7070707
   19778:	07070707          	0x7070707
   1977c:	07070707          	0x7070707
   19780:	07070707          	0x7070707
   19784:	07070707          	0x7070707
   19788:	07070707          	0x7070707
   1978c:	07070707          	0x7070707
   19790:	07070707          	0x7070707
   19794:	07070707          	0x7070707
   19798:	07070707          	0x7070707
   1979c:	07070707          	0x7070707
   197a0:	07070707          	0x7070707
   197a4:	0808                	addi	a0,sp,16
   197a6:	0808                	addi	a0,sp,16
   197a8:	0808                	addi	a0,sp,16
   197aa:	0808                	addi	a0,sp,16
   197ac:	0808                	addi	a0,sp,16
   197ae:	0808                	addi	a0,sp,16
   197b0:	0808                	addi	a0,sp,16
   197b2:	0808                	addi	a0,sp,16
   197b4:	0808                	addi	a0,sp,16
   197b6:	0808                	addi	a0,sp,16
   197b8:	0808                	addi	a0,sp,16
   197ba:	0808                	addi	a0,sp,16
   197bc:	0808                	addi	a0,sp,16
   197be:	0808                	addi	a0,sp,16
   197c0:	0808                	addi	a0,sp,16
   197c2:	0808                	addi	a0,sp,16
   197c4:	0808                	addi	a0,sp,16
   197c6:	0808                	addi	a0,sp,16
   197c8:	0808                	addi	a0,sp,16
   197ca:	0808                	addi	a0,sp,16
   197cc:	0808                	addi	a0,sp,16
   197ce:	0808                	addi	a0,sp,16
   197d0:	0808                	addi	a0,sp,16
   197d2:	0808                	addi	a0,sp,16
   197d4:	0808                	addi	a0,sp,16
   197d6:	0808                	addi	a0,sp,16
   197d8:	0808                	addi	a0,sp,16
   197da:	0808                	addi	a0,sp,16
   197dc:	0808                	addi	a0,sp,16
   197de:	0808                	addi	a0,sp,16
   197e0:	0808                	addi	a0,sp,16
   197e2:	0808                	addi	a0,sp,16
   197e4:	0808                	addi	a0,sp,16
   197e6:	0808                	addi	a0,sp,16
   197e8:	0808                	addi	a0,sp,16
   197ea:	0808                	addi	a0,sp,16
   197ec:	0808                	addi	a0,sp,16
   197ee:	0808                	addi	a0,sp,16
   197f0:	0808                	addi	a0,sp,16
   197f2:	0808                	addi	a0,sp,16
   197f4:	0808                	addi	a0,sp,16
   197f6:	0808                	addi	a0,sp,16
   197f8:	0808                	addi	a0,sp,16
   197fa:	0808                	addi	a0,sp,16
   197fc:	0808                	addi	a0,sp,16
   197fe:	0808                	addi	a0,sp,16
   19800:	0808                	addi	a0,sp,16
   19802:	0808                	addi	a0,sp,16
   19804:	0808                	addi	a0,sp,16
   19806:	0808                	addi	a0,sp,16
   19808:	0808                	addi	a0,sp,16
   1980a:	0808                	addi	a0,sp,16
   1980c:	0808                	addi	a0,sp,16
   1980e:	0808                	addi	a0,sp,16
   19810:	0808                	addi	a0,sp,16
   19812:	0808                	addi	a0,sp,16
   19814:	0808                	addi	a0,sp,16
   19816:	0808                	addi	a0,sp,16
   19818:	0808                	addi	a0,sp,16
   1981a:	0808                	addi	a0,sp,16
   1981c:	0808                	addi	a0,sp,16
   1981e:	0808                	addi	a0,sp,16
   19820:	0808                	addi	a0,sp,16
   19822:	0808                	addi	a0,sp,16

Disassembly of section .eh_frame:

0001a000 <__EH_FRAME_BEGIN__>:
   1a000:	0010                	0x10
   1a002:	0000                	unimp
   1a004:	0000                	unimp
   1a006:	0000                	unimp
   1a008:	00527a03          	0x527a03
   1a00c:	7c01                	lui	s8,0xfffe0
   1a00e:	0101                	addi	sp,sp,0
   1a010:	00020d1b          	0x20d1b
   1a014:	0010                	0x10
   1a016:	0000                	unimp
   1a018:	0018                	0x18
   1a01a:	0000                	unimp
   1a01c:	62bc                	flw	fa5,64(a3)
   1a01e:	ffff                	0xffff
   1a020:	00a4                	addi	s1,sp,72
   1a022:	0000                	unimp
   1a024:	0000                	unimp
   1a026:	0000                	unimp
   1a028:	0048                	addi	a0,sp,4
   1a02a:	0000                	unimp
   1a02c:	002c                	addi	a1,sp,8
   1a02e:	0000                	unimp
   1a030:	634c                	flw	fa1,4(a4)
   1a032:	ffff                	0xffff
   1a034:	0148                	addi	a0,sp,132
   1a036:	0000                	unimp
   1a038:	4400                	lw	s0,8(s0)
   1a03a:	300e                	fld	ft0,224(sp)
   1a03c:	b244                	fsd	fs1,160(a2)
   1a03e:	02886c0b          	0x2886c0b
   1a042:	0389                	addi	t2,t2,2
   1a044:	0492                	slli	s1,s1,0x4
   1a046:	06940593          	addi	a1,s0,105
   1a04a:	0795                	addi	a5,a5,5
   1a04c:	09a8                	addi	a0,sp,216
   1a04e:	0aa9                	addi	s5,s5,10
   1a050:	814c0cb3          	0x814c0cb3
   1a054:	0201                	addi	tp,tp,0
   1a056:	0aa8                	addi	a0,sp,344
   1a058:	44c1                	li	s1,16
   1a05a:	44c8                	lw	a0,12(s1)
   1a05c:	44d2                	lw	s1,20(sp)
   1a05e:	44d444d3          	0x44d444d3
   1a062:	44d5                	li	s1,21
   1a064:	44e8                	lw	a0,76(s1)
   1a066:	44e9                	li	s1,26
   1a068:	44f2                	lw	s1,28(sp)
   1a06a:	44c94cf3          	0x44c94cf3
   1a06e:	000e                	c.slli	zero,0x3
   1a070:	0b44                	addi	s1,sp,404
   1a072:	0000                	unimp
   1a074:	0034                	addi	a3,sp,8
   1a076:	0000                	unimp
   1a078:	0078                	addi	a4,sp,12
   1a07a:	0000                	unimp
   1a07c:	5ff8                	lw	a4,124(a5)
   1a07e:	ffff                	0xffff
   1a080:	0198                	addi	a4,sp,192
   1a082:	0000                	unimp
   1a084:	4400                	lw	s0,8(s0)
   1a086:	500e                	0x500e
   1a088:	5002                	0x5002
   1a08a:	0181                	addi	gp,gp,0
   1a08c:	0288                	addi	a0,sp,320
   1a08e:	0389                	addi	t2,t2,2
   1a090:	0492                	slli	s1,s1,0x4
   1a092:	06940593          	addi	a1,s0,105
   1a096:	0795                	addi	a5,a5,5
   1a098:	0896                	slli	a7,a7,0x5
   1a09a:	0a980997          	auipc	s3,0xa980
   1a09e:	0b99                	addi	s7,s7,6
   1a0a0:	0c9a                	slli	s9,s9,0x6
   1a0a2:	11a80d9b          	0x11a80d9b
   1a0a6:	12a9                	addi	t0,t0,-22
   1a0a8:	13b2                	slli	t2,t2,0x2c
   1a0aa:	001014b3          	sll	s1,zero,ra
   1a0ae:	0000                	unimp
   1a0b0:	00b0                	addi	a2,sp,72
   1a0b2:	0000                	unimp
   1a0b4:	6410                	flw	fa2,8(s0)
   1a0b6:	ffff                	0xffff
   1a0b8:	0018                	0x18
   1a0ba:	0000                	unimp
   1a0bc:	0000                	unimp
   1a0be:	0000                	unimp
   1a0c0:	0018                	0x18
   1a0c2:	0000                	unimp
   1a0c4:	00c4                	addi	s1,sp,68
   1a0c6:	0000                	unimp
   1a0c8:	6414                	flw	fa3,8(s0)
   1a0ca:	ffff                	0xffff
   1a0cc:	0024                	addi	s1,sp,8
   1a0ce:	0000                	unimp
   1a0d0:	4400                	lw	s0,8(s0)
   1a0d2:	100e                	c.slli	zero,0x23
   1a0d4:	8144                	0x8144
   1a0d6:	5401                	li	s0,-32
   1a0d8:	44c1                	li	s1,16
   1a0da:	000e                	c.slli	zero,0x3
   1a0dc:	0010                	0x10
   1a0de:	0000                	unimp
   1a0e0:	00e0                	addi	s0,sp,76
   1a0e2:	0000                	unimp
   1a0e4:	641c                	flw	fa5,8(s0)
   1a0e6:	ffff                	0xffff
   1a0e8:	0014                	0x14
   1a0ea:	0000                	unimp
   1a0ec:	0000                	unimp
   1a0ee:	0000                	unimp
   1a0f0:	0034                	addi	a3,sp,8
   1a0f2:	0000                	unimp
   1a0f4:	00f4                	addi	a3,sp,76
   1a0f6:	0000                	unimp
   1a0f8:	641c                	flw	fa5,8(s0)
   1a0fa:	ffff                	0xffff
   1a0fc:	0090                	addi	a2,sp,64
   1a0fe:	0000                	unimp
   1a100:	4400                	lw	s0,8(s0)
   1a102:	100e                	c.slli	zero,0x23
   1a104:	8950                	0x8950
   1a106:	88018103          	lb	sp,-1920(gp) # 37af880 <__BSS_END__+0x378fc10>
   1a10a:	9202                	jalr	tp
   1a10c:	0204                	addi	s1,sp,256
   1a10e:	0a40                	addi	s0,sp,276
   1a110:	44c1                	li	s1,16
   1a112:	44c8                	lw	a0,12(s1)
   1a114:	44c9                	li	s1,18
   1a116:	44d2                	lw	s1,20(sp)
   1a118:	000e                	c.slli	zero,0x3
   1a11a:	0b44                	addi	s1,sp,404
   1a11c:	c154                	sw	a3,4(a0)
   1a11e:	c844                	sw	s1,20(s0)
   1a120:	c944                	sw	s1,20(a0)
   1a122:	d244                	sw	s1,36(a2)
   1a124:	0e44                	addi	s1,sp,788
   1a126:	0000                	unimp
   1a128:	001c                	0x1c
   1a12a:	0000                	unimp
   1a12c:	012c                	addi	a1,sp,136
   1a12e:	0000                	unimp
   1a130:	6474                	flw	fa3,76(s0)
   1a132:	ffff                	0xffff
   1a134:	0150                	addi	a2,sp,132
   1a136:	0000                	unimp
   1a138:	6000                	flw	fs0,0(s0)
   1a13a:	300e                	fld	ft0,224(sp)
   1a13c:	8168                	0x8168
   1a13e:	0301                	addi	t1,t1,0
   1a140:	0100                	addi	s0,sp,128
   1a142:	44c1                	li	s1,16
   1a144:	000e                	c.slli	zero,0x3
   1a146:	0000                	unimp
   1a148:	0010                	0x10
   1a14a:	0000                	unimp
   1a14c:	014c                	addi	a1,sp,132
   1a14e:	0000                	unimp
   1a150:	65a4                	flw	fs1,72(a1)
   1a152:	ffff                	0xffff
   1a154:	0014                	0x14
   1a156:	0000                	unimp
   1a158:	0000                	unimp
   1a15a:	0000                	unimp
   1a15c:	0010                	0x10
   1a15e:	0000                	unimp
   1a160:	0160                	addi	s0,sp,140
   1a162:	0000                	unimp
   1a164:	65a4                	flw	fs1,72(a1)
   1a166:	ffff                	0xffff
   1a168:	000c                	0xc
   1a16a:	0000                	unimp
   1a16c:	0000                	unimp
   1a16e:	0000                	unimp
   1a170:	0018                	0x18
   1a172:	0000                	unimp
   1a174:	0174                	addi	a3,sp,140
   1a176:	0000                	unimp
   1a178:	659c                	flw	fa5,8(a1)
   1a17a:	ffff                	0xffff
   1a17c:	0024                	addi	s1,sp,8
   1a17e:	0000                	unimp
   1a180:	4800                	lw	s0,16(s0)
   1a182:	100e                	c.slli	zero,0x23
   1a184:	814c                	0x814c
   1a186:	4801                	li	a6,0
   1a188:	44c1                	li	s1,16
   1a18a:	000e                	c.slli	zero,0x3
   1a18c:	0018                	0x18
   1a18e:	0000                	unimp
   1a190:	0190                	addi	a2,sp,192
   1a192:	0000                	unimp
   1a194:	65a4                	flw	fs1,72(a1)
   1a196:	ffff                	0xffff
   1a198:	0024                	addi	s1,sp,8
   1a19a:	0000                	unimp
   1a19c:	4400                	lw	s0,8(s0)
   1a19e:	100e                	c.slli	zero,0x23
   1a1a0:	8144                	0x8144
   1a1a2:	4801                	li	a6,0
   1a1a4:	50c1                	li	ra,-16
   1a1a6:	000e                	c.slli	zero,0x3
   1a1a8:	0018                	0x18
   1a1aa:	0000                	unimp
   1a1ac:	01ac                	addi	a1,sp,200
   1a1ae:	0000                	unimp
   1a1b0:	65ac                	flw	fa1,72(a1)
   1a1b2:	ffff                	0xffff
   1a1b4:	0024                	addi	s1,sp,8
   1a1b6:	0000                	unimp
   1a1b8:	4400                	lw	s0,8(s0)
   1a1ba:	100e                	c.slli	zero,0x23
   1a1bc:	8144                	0x8144
   1a1be:	4801                	li	a6,0
   1a1c0:	50c1                	li	ra,-16
   1a1c2:	000e                	c.slli	zero,0x3
   1a1c4:	0018                	0x18
   1a1c6:	0000                	unimp
   1a1c8:	01c8                	addi	a0,sp,196
   1a1ca:	0000                	unimp
   1a1cc:	65b4                	flw	fa3,72(a1)
   1a1ce:	ffff                	0xffff
   1a1d0:	0024                	addi	s1,sp,8
   1a1d2:	0000                	unimp
   1a1d4:	4400                	lw	s0,8(s0)
   1a1d6:	100e                	c.slli	zero,0x23
   1a1d8:	8144                	0x8144
   1a1da:	4801                	li	a6,0
   1a1dc:	50c1                	li	ra,-16
   1a1de:	000e                	c.slli	zero,0x3
   1a1e0:	0018                	0x18
   1a1e2:	0000                	unimp
   1a1e4:	01e4                	addi	s1,sp,204
   1a1e6:	0000                	unimp
   1a1e8:	65bc                	flw	fa5,72(a1)
   1a1ea:	ffff                	0xffff
   1a1ec:	0030                	addi	a2,sp,8
   1a1ee:	0000                	unimp
   1a1f0:	5400                	lw	s0,40(s0)
   1a1f2:	100e                	c.slli	zero,0x23
   1a1f4:	8144                	0x8144
   1a1f6:	4c01                	li	s8,0
   1a1f8:	48c1                	li	a7,16
   1a1fa:	000e                	c.slli	zero,0x3
   1a1fc:	0020                	addi	s0,sp,8
   1a1fe:	0000                	unimp
   1a200:	0200                	addi	s0,sp,256
   1a202:	0000                	unimp
   1a204:	65d0                	flw	fa2,12(a1)
   1a206:	ffff                	0xffff
   1a208:	0074                	addi	a3,sp,12
   1a20a:	0000                	unimp
   1a20c:	4c00                	lw	s0,24(s0)
   1a20e:	100e                	c.slli	zero,0x23
   1a210:	8150                	0x8150
   1a212:	8801                	andi	s0,s0,0
   1a214:	7002                	flw	ft0,32(sp)
   1a216:	c10a                	sw	sp,128(sp)
   1a218:	c848                	sw	a0,20(s0)
   1a21a:	0e44                	addi	s1,sp,788
   1a21c:	4400                	lw	s0,8(s0)
   1a21e:	0018000b          	0x18000b
   1a222:	0000                	unimp
   1a224:	0224                	addi	s1,sp,264
   1a226:	0000                	unimp
   1a228:	6620                	flw	fs0,72(a2)
   1a22a:	ffff                	0xffff
   1a22c:	0024                	addi	s1,sp,8
   1a22e:	0000                	unimp
   1a230:	4400                	lw	s0,8(s0)
   1a232:	100e                	c.slli	zero,0x23
   1a234:	8144                	0x8144
   1a236:	4801                	li	a6,0
   1a238:	50c1                	li	ra,-16
   1a23a:	000e                	c.slli	zero,0x3
   1a23c:	0028                	addi	a0,sp,8
   1a23e:	0000                	unimp
   1a240:	0240                	addi	s0,sp,260
   1a242:	0000                	unimp
   1a244:	6628                	flw	fa0,72(a2)
   1a246:	ffff                	0xffff
   1a248:	0078                	addi	a4,sp,12
   1a24a:	0000                	unimp
   1a24c:	4400                	lw	s0,8(s0)
   1a24e:	100e                	c.slli	zero,0x23
   1a250:	8844                	0x8844
   1a252:	4c02                	lw	s8,0(sp)
   1a254:	0389                	addi	t2,t2,2
   1a256:	8160                	0x8160
   1a258:	5c01                	li	s8,-32
   1a25a:	c10a                	sw	sp,128(sp)
   1a25c:	c844                	sw	s1,20(s0)
   1a25e:	c948                	sw	a0,20(a0)
   1a260:	0e44                	addi	s1,sp,788
   1a262:	4400                	lw	s0,8(s0)
   1a264:	0000000b          	0xb
   1a268:	0018                	0x18
   1a26a:	0000                	unimp
   1a26c:	026c                	addi	a1,sp,268
   1a26e:	0000                	unimp
   1a270:	6674                	flw	fa3,76(a2)
   1a272:	ffff                	0xffff
   1a274:	0024                	addi	s1,sp,8
   1a276:	0000                	unimp
   1a278:	4400                	lw	s0,8(s0)
   1a27a:	100e                	c.slli	zero,0x23
   1a27c:	8144                	0x8144
   1a27e:	4801                	li	a6,0
   1a280:	50c1                	li	ra,-16
   1a282:	000e                	c.slli	zero,0x3
   1a284:	0020                	addi	s0,sp,8
   1a286:	0000                	unimp
   1a288:	0288                	addi	a0,sp,320
   1a28a:	0000                	unimp
   1a28c:	667c                	flw	fa5,76(a2)
   1a28e:	ffff                	0xffff
   1a290:	0048                	addi	a0,sp,4
   1a292:	0000                	unimp
   1a294:	4c00                	lw	s0,24(s0)
   1a296:	200e                	fld	ft0,192(sp)
   1a298:	8150                	0x8150
   1a29a:	5001                	c.li	zero,-32
   1a29c:	c10a                	sw	sp,128(sp)
   1a29e:	0e48                	addi	a0,sp,788
   1a2a0:	4400                	lw	s0,8(s0)
   1a2a2:	48c1440b          	0x48c1440b
   1a2a6:	000e                	c.slli	zero,0x3
   1a2a8:	002c                	addi	a1,sp,8
   1a2aa:	0000                	unimp
   1a2ac:	02ac                	addi	a1,sp,328
   1a2ae:	0000                	unimp
   1a2b0:	66a0                	flw	fs0,72(a3)
   1a2b2:	ffff                	0xffff
   1a2b4:	008c                	addi	a1,sp,64
   1a2b6:	0000                	unimp
   1a2b8:	5400                	lw	s0,40(s0)
   1a2ba:	200e                	fld	ft0,192(sp)
   1a2bc:	8854                	0x8854
   1a2be:	9202                	jalr	tp
   1a2c0:	9304                	0x9304
   1a2c2:	8105                	srli	a0,a0,0x1
   1a2c4:	8901                	andi	a0,a0,0
   1a2c6:	c1480203          	lb	tp,-1004(a6) # ffff8c14 <__BSS_END__+0xfffd8fa4>
   1a2ca:	c844                	sw	s1,20(s0)
   1a2cc:	c944                	sw	s1,20(a0)
   1a2ce:	d344                	sw	s1,36(a4)
   1a2d0:	d248                	sw	a0,36(a2)
   1a2d2:	0e44                	addi	s1,sp,788
   1a2d4:	0000                	unimp
   1a2d6:	0000                	unimp
   1a2d8:	0018                	0x18
   1a2da:	0000                	unimp
   1a2dc:	02dc                	addi	a5,sp,324
   1a2de:	0000                	unimp
   1a2e0:	66fc                	flw	fa5,76(a3)
   1a2e2:	ffff                	0xffff
   1a2e4:	0024                	addi	s1,sp,8
   1a2e6:	0000                	unimp
   1a2e8:	4400                	lw	s0,8(s0)
   1a2ea:	100e                	c.slli	zero,0x23
   1a2ec:	8144                	0x8144
   1a2ee:	4801                	li	a6,0
   1a2f0:	50c1                	li	ra,-16
   1a2f2:	000e                	c.slli	zero,0x3
   1a2f4:	0010                	0x10
   1a2f6:	0000                	unimp
   1a2f8:	02f8                	addi	a4,sp,332
   1a2fa:	0000                	unimp
   1a2fc:	6704                	flw	fs1,8(a4)
   1a2fe:	ffff                	0xffff
   1a300:	0040                	addi	s0,sp,4
   1a302:	0000                	unimp
   1a304:	0000                	unimp
   1a306:	0000                	unimp
   1a308:	0048                	addi	a0,sp,4
   1a30a:	0000                	unimp
   1a30c:	030c                	addi	a1,sp,384
   1a30e:	0000                	unimp
   1a310:	6730                	flw	fa2,72(a4)
   1a312:	ffff                	0xffff
   1a314:	0278                	addi	a4,sp,268
   1a316:	0000                	unimp
   1a318:	6c00                	flw	fs0,24(s0)
   1a31a:	400e                	0x400e
   1a31c:	9550                	0x9550
   1a31e:	7806                	flw	fa6,96(sp)
   1a320:	0796                	slli	a5,a5,0x5
   1a322:	0188                	addi	a0,sp,192
   1a324:	0289                	addi	t0,t0,2
   1a326:	0392                	slli	t2,t2,0x4
   1a328:	05940493          	addi	s1,s0,89
   1a32c:	09980897          	auipc	a7,0x9980
   1a330:	0a99                	addi	s5,s5,6
   1a332:	0b9a                	slli	s7,s7,0x6
   1a334:	cc030c9b          	0xcc030c9b
   1a338:	c801                	beqz	s0,1a348 <__EH_FRAME_BEGIN__+0x348>
   1a33a:	c944                	sw	s1,20(a0)
   1a33c:	d244                	sw	s1,36(a2)
   1a33e:	d344                	sw	s1,36(a4)
   1a340:	d444                	sw	s1,44(s0)
   1a342:	d544                	sw	s1,44(a0)
   1a344:	d644                	sw	s1,44(a2)
   1a346:	d744                	sw	s1,44(a4)
   1a348:	d844                	sw	s1,52(s0)
   1a34a:	d944                	sw	s1,52(a0)
   1a34c:	da44                	sw	s1,52(a2)
   1a34e:	db44                	sw	s1,52(a4)
   1a350:	0e44                	addi	s1,sp,788
   1a352:	0000                	unimp
   1a354:	0010                	0x10
   1a356:	0000                	unimp
   1a358:	0358                	addi	a4,sp,388
   1a35a:	0000                	unimp
   1a35c:	695c                	flw	fa5,20(a0)
   1a35e:	ffff                	0xffff
   1a360:	022c                	addi	a1,sp,264
   1a362:	0000                	unimp
   1a364:	0000                	unimp
   1a366:	0000                	unimp
   1a368:	0024                	addi	s1,sp,8
   1a36a:	0000                	unimp
   1a36c:	036c                	addi	a1,sp,396
   1a36e:	0000                	unimp
   1a370:	6b74                	flw	fa3,84(a4)
   1a372:	ffff                	0xffff
   1a374:	0360                	addi	s0,sp,396
   1a376:	0000                	unimp
   1a378:	7800                	flw	fs0,48(s0)
   1a37a:	300e                	fld	ft0,224(sp)
   1a37c:	8150                	0x8150
   1a37e:	8801                	andi	s0,s0,0
   1a380:	0302                	c.slli64	t1
   1a382:	0148                	addi	a0,sp,132
   1a384:	c10a                	sw	sp,128(sp)
   1a386:	c848                	sw	a0,20(s0)
   1a388:	0e44                	addi	s1,sp,788
   1a38a:	4400                	lw	s0,8(s0)
   1a38c:	0000000b          	0xb
   1a390:	0010                	0x10
   1a392:	0000                	unimp
   1a394:	0394                	addi	a3,sp,448
   1a396:	0000                	unimp
   1a398:	6eac                	flw	fa1,88(a3)
   1a39a:	ffff                	0xffff
   1a39c:	001c                	0x1c
   1a39e:	0000                	unimp
   1a3a0:	0000                	unimp
   1a3a2:	0000                	unimp
   1a3a4:	0028                	addi	a0,sp,8
   1a3a6:	0000                	unimp
   1a3a8:	03a8                	addi	a0,sp,456
   1a3aa:	0000                	unimp
   1a3ac:	6eb4                	flw	fa3,88(a3)
   1a3ae:	ffff                	0xffff
   1a3b0:	0544                	addi	s1,sp,644
   1a3b2:	0000                	unimp
   1a3b4:	0200                	addi	s0,sp,256
   1a3b6:	0e54                	addi	a3,sp,788
   1a3b8:	5420                	lw	s0,104(s0)
   1a3ba:	0181                	addi	gp,gp,0
   1a3bc:	0288                	addi	a0,sp,320
   1a3be:	0389                	addi	t2,t2,2
   1a3c0:	0492                	slli	s1,s1,0x4
   1a3c2:	c104c403          	lbu	s0,-1008(s1)
   1a3c6:	c844                	sw	s1,20(s0)
   1a3c8:	d244                	sw	s1,36(a2)
   1a3ca:	c948                	sw	a0,20(a0)
   1a3cc:	0e44                	addi	s1,sp,788
   1a3ce:	0000                	unimp
   1a3d0:	0020                	addi	s0,sp,8
   1a3d2:	0000                	unimp
   1a3d4:	03d4                	addi	a3,sp,452
   1a3d6:	0000                	unimp
   1a3d8:	73cc                	flw	fa1,36(a5)
   1a3da:	ffff                	0xffff
   1a3dc:	0040                	addi	s0,sp,4
   1a3de:	0000                	unimp
   1a3e0:	4400                	lw	s0,8(s0)
   1a3e2:	100e                	c.slli	zero,0x23
   1a3e4:	8844                	0x8844
   1a3e6:	4802                	lw	a6,0(sp)
   1a3e8:	0181                	addi	gp,gp,0
   1a3ea:	c164                	sw	s1,68(a0)
   1a3ec:	c844                	sw	s1,20(s0)
   1a3ee:	0e44                	addi	s1,sp,788
   1a3f0:	0000                	unimp
   1a3f2:	0000                	unimp
   1a3f4:	0030                	addi	a2,sp,8
   1a3f6:	0000                	unimp
   1a3f8:	03f8                	addi	a4,sp,460
   1a3fa:	0000                	unimp
   1a3fc:	73e8                	flw	fa0,100(a5)
   1a3fe:	ffff                	0xffff
   1a400:	00a4                	addi	s1,sp,72
   1a402:	0000                	unimp
   1a404:	4400                	lw	s0,8(s0)
   1a406:	200e                	fld	ft0,192(sp)
   1a408:	8958                	0x8958
   1a40a:	81049203          	lh	tp,-2032(s1)
   1a40e:	8801                	andi	s0,s0,0
   1a410:	9302                	jalr	t1
   1a412:	9405                	srai	s0,s0,0x21
   1a414:	0206                	slli	tp,tp,0x1
   1a416:	c168                	sw	a0,68(a0)
   1a418:	c844                	sw	s1,20(s0)
   1a41a:	d244                	sw	s1,36(a2)
   1a41c:	d344                	sw	s1,36(a4)
   1a41e:	d444                	sw	s1,44(s0)
   1a420:	c948                	sw	a0,20(a0)
   1a422:	0e44                	addi	s1,sp,788
   1a424:	0000                	unimp
   1a426:	0000                	unimp
   1a428:	0020                	addi	s0,sp,8
   1a42a:	0000                	unimp
   1a42c:	042c                	addi	a1,sp,520
   1a42e:	0000                	unimp
   1a430:	7458                	flw	fa4,44(s0)
   1a432:	ffff                	0xffff
   1a434:	005c                	addi	a5,sp,4
   1a436:	0000                	unimp
   1a438:	4400                	lw	s0,8(s0)
   1a43a:	100e                	c.slli	zero,0x23
   1a43c:	8150                	0x8150
   1a43e:	8801                	andi	s0,s0,0
   1a440:	0202                	c.slli64	tp
   1a442:	c138                	sw	a4,64(a0)
   1a444:	c848                	sw	a0,20(s0)
   1a446:	0e44                	addi	s1,sp,788
   1a448:	0000                	unimp
   1a44a:	0000                	unimp
   1a44c:	0020                	addi	s0,sp,8
   1a44e:	0000                	unimp
   1a450:	0450                	addi	a2,sp,516
   1a452:	0000                	unimp
   1a454:	7490                	flw	fa2,40(s1)
   1a456:	ffff                	0xffff
   1a458:	008c                	addi	a1,sp,64
   1a45a:	0000                	unimp
   1a45c:	4400                	lw	s0,8(s0)
   1a45e:	200e                	fld	ft0,192(sp)
   1a460:	8150                	0x8150
   1a462:	8801                	andi	s0,s0,0
   1a464:	0202                	c.slli64	tp
   1a466:	c168                	sw	a0,68(a0)
   1a468:	c848                	sw	a0,20(s0)
   1a46a:	0e44                	addi	s1,sp,788
   1a46c:	0000                	unimp
   1a46e:	0000                	unimp
   1a470:	0044                	addi	s1,sp,4
   1a472:	0000                	unimp
   1a474:	0474                	addi	a3,sp,524
   1a476:	0000                	unimp
   1a478:	74f8                	flw	fa4,108(s1)
   1a47a:	ffff                	0xffff
   1a47c:	0114                	addi	a3,sp,128
   1a47e:	0000                	unimp
   1a480:	4400                	lw	s0,8(s0)
   1a482:	100e                	c.slli	zero,0x23
   1a484:	9250                	0x9250
   1a486:	8104                	0x8104
   1a488:	8801                	andi	s0,s0,0
   1a48a:	8902                	jr	s2
   1a48c:	0a480203          	lb	tp,164(a6)
   1a490:	48c1                	li	a7,16
   1a492:	44c8                	lw	a0,12(s1)
   1a494:	44c9                	li	s1,18
   1a496:	44d2                	lw	s1,20(sp)
   1a498:	000e                	c.slli	zero,0x3
   1a49a:	0b44                	addi	s1,sp,404
   1a49c:	0a64                	addi	s1,sp,284
   1a49e:	48c1                	li	a7,16
   1a4a0:	44c8                	lw	a0,12(s1)
   1a4a2:	44c9                	li	s1,18
   1a4a4:	44d2                	lw	s1,20(sp)
   1a4a6:	000e                	c.slli	zero,0x3
   1a4a8:	0b44                	addi	s1,sp,404
   1a4aa:	4c02                	lw	s8,0(sp)
   1a4ac:	48c1                	li	a7,16
   1a4ae:	44c8                	lw	a0,12(s1)
   1a4b0:	44c9                	li	s1,18
   1a4b2:	44d2                	lw	s1,20(sp)
   1a4b4:	000e                	c.slli	zero,0x3
   1a4b6:	0000                	unimp
   1a4b8:	0018                	0x18
   1a4ba:	0000                	unimp
   1a4bc:	04bc                	addi	a5,sp,584
   1a4be:	0000                	unimp
   1a4c0:	75c4                	flw	fs1,44(a1)
   1a4c2:	ffff                	0xffff
   1a4c4:	0020                	addi	s0,sp,8
   1a4c6:	0000                	unimp
   1a4c8:	4400                	lw	s0,8(s0)
   1a4ca:	100e                	c.slli	zero,0x23
   1a4cc:	814c                	0x814c
   1a4ce:	4801                	li	a6,0
   1a4d0:	44c1                	li	s1,16
   1a4d2:	000e                	c.slli	zero,0x3
   1a4d4:	004c                	addi	a1,sp,4
   1a4d6:	0000                	unimp
   1a4d8:	04d8                	addi	a4,sp,580
   1a4da:	0000                	unimp
   1a4dc:	75c8                	flw	fa0,44(a1)
   1a4de:	ffff                	0xffff
   1a4e0:	0158                	addi	a4,sp,132
   1a4e2:	0000                	unimp
   1a4e4:	4400                	lw	s0,8(s0)
   1a4e6:	200e                	fld	ft0,192(sp)
   1a4e8:	8944                	0x8944
   1a4ea:	02884c03          	lbu	s8,40(a6)
   1a4ee:	8154                	0x8154
   1a4f0:	9201                	srli	a2,a2,0x20
   1a4f2:	9304                	0x9304
   1a4f4:	0205                	addi	tp,tp,1
   1a4f6:	0a54                	addi	a3,sp,276
   1a4f8:	44c1                	li	s1,16
   1a4fa:	44c8                	lw	a0,12(s1)
   1a4fc:	44c9                	li	s1,18
   1a4fe:	44d248d3          	0x44d248d3
   1a502:	000e                	c.slli	zero,0x3
   1a504:	0b44                	addi	s1,sp,404
   1a506:	0a64                	addi	s1,sp,284
   1a508:	44c1                	li	s1,16
   1a50a:	44c8                	lw	a0,12(s1)
   1a50c:	44c9                	li	s1,18
   1a50e:	44d248d3          	0x44d248d3
   1a512:	000e                	c.slli	zero,0x3
   1a514:	0b44                	addi	s1,sp,404
   1a516:	6402                	flw	fs0,0(sp)
   1a518:	44c1                	li	s1,16
   1a51a:	44c8                	lw	a0,12(s1)
   1a51c:	44c9                	li	s1,18
   1a51e:	44d248d3          	0x44d248d3
   1a522:	000e                	c.slli	zero,0x3
   1a524:	003c                	addi	a5,sp,8
   1a526:	0000                	unimp
   1a528:	0528                	addi	a0,sp,648
   1a52a:	0000                	unimp
   1a52c:	76d0                	flw	fa2,44(a3)
   1a52e:	ffff                	0xffff
   1a530:	00a4                	addi	s1,sp,72
   1a532:	0000                	unimp
   1a534:	4400                	lw	s0,8(s0)
   1a536:	100e                	c.slli	zero,0x23
   1a538:	884c                	0x884c
   1a53a:	5002                	0x5002
   1a53c:	0181                	addi	gp,gp,0
   1a53e:	0389                	addi	t2,t2,2
   1a540:	0a50                	addi	a2,sp,276
   1a542:	44c1                	li	s1,16
   1a544:	44c8                	lw	a0,12(s1)
   1a546:	44c9                	li	s1,18
   1a548:	000e                	c.slli	zero,0x3
   1a54a:	0b44                	addi	s1,sp,404
   1a54c:	0a70                	addi	a2,sp,284
   1a54e:	44c8                	lw	a0,12(s1)
   1a550:	44c1                	li	s1,16
   1a552:	44c9                	li	s1,18
   1a554:	000e                	c.slli	zero,0x3
   1a556:	0b44                	addi	s1,sp,404
   1a558:	c150                	sw	a2,4(a0)
   1a55a:	c844                	sw	s1,20(s0)
   1a55c:	c944                	sw	s1,20(a0)
   1a55e:	0e48                	addi	a0,sp,788
   1a560:	0000                	unimp
   1a562:	0000                	unimp
   1a564:	0044                	addi	s1,sp,4
   1a566:	0000                	unimp
   1a568:	0568                	addi	a0,sp,652
   1a56a:	0000                	unimp
   1a56c:	7734                	flw	fa3,104(a4)
   1a56e:	ffff                	0xffff
   1a570:	00b4                	addi	a3,sp,72
   1a572:	0000                	unimp
   1a574:	4800                	lw	s0,16(s0)
   1a576:	b00e                	fsd	ft3,32(sp)
   1a578:	6004                	flw	fs1,0(s0)
   1a57a:	0288                	addi	a0,sp,320
   1a57c:	0389                	addi	t2,t2,2
   1a57e:	0492                	slli	s1,s1,0x4
   1a580:	06940593          	addi	a1,s0,105
   1a584:	0795                	addi	a5,a5,5
   1a586:	0896                	slli	a7,a7,0x5
   1a588:	0181                	addi	gp,gp,0
   1a58a:	5802                	lw	a6,32(sp)
   1a58c:	c10a                	sw	sp,128(sp)
   1a58e:	c844                	sw	s1,20(s0)
   1a590:	c944                	sw	s1,20(a0)
   1a592:	d244                	sw	s1,36(a2)
   1a594:	d344                	sw	s1,36(a4)
   1a596:	d444                	sw	s1,44(s0)
   1a598:	d544                	sw	s1,44(a0)
   1a59a:	d644                	sw	s1,44(a2)
   1a59c:	0e44                	addi	s1,sp,788
   1a59e:	4400                	lw	s0,8(s0)
   1a5a0:	000e480b          	0xe480b
   1a5a4:	c8c1                	beqz	s1,1a634 <__EH_FRAME_BEGIN__+0x634>
   1a5a6:	d2c9                	beqz	a3,1a528 <__EH_FRAME_BEGIN__+0x528>
   1a5a8:	d6d5d4d3          	0xd6d5d4d3
   1a5ac:	0044                	addi	s1,sp,4
   1a5ae:	0000                	unimp
   1a5b0:	05b0                	addi	a2,sp,712
   1a5b2:	0000                	unimp
   1a5b4:	77a0                	flw	fs0,104(a5)
   1a5b6:	ffff                	0xffff
   1a5b8:	00b0                	addi	a2,sp,72
   1a5ba:	0000                	unimp
   1a5bc:	4800                	lw	s0,16(s0)
   1a5be:	b00e                	fsd	ft3,32(sp)
   1a5c0:	6004                	flw	fs1,0(s0)
   1a5c2:	0288                	addi	a0,sp,320
   1a5c4:	0389                	addi	t2,t2,2
   1a5c6:	0492                	slli	s1,s1,0x4
   1a5c8:	06940593          	addi	a1,s0,105
   1a5cc:	0795                	addi	a5,a5,5
   1a5ce:	0896                	slli	a7,a7,0x5
   1a5d0:	0181                	addi	gp,gp,0
   1a5d2:	5402                	lw	s0,32(sp)
   1a5d4:	c10a                	sw	sp,128(sp)
   1a5d6:	c844                	sw	s1,20(s0)
   1a5d8:	c944                	sw	s1,20(a0)
   1a5da:	d244                	sw	s1,36(a2)
   1a5dc:	d344                	sw	s1,36(a4)
   1a5de:	d444                	sw	s1,44(s0)
   1a5e0:	d544                	sw	s1,44(a0)
   1a5e2:	d644                	sw	s1,44(a2)
   1a5e4:	0e44                	addi	s1,sp,788
   1a5e6:	4400                	lw	s0,8(s0)
   1a5e8:	000e480b          	0xe480b
   1a5ec:	c8c1                	beqz	s1,1a67c <__EH_FRAME_BEGIN__+0x67c>
   1a5ee:	d2c9                	beqz	a3,1a570 <__EH_FRAME_BEGIN__+0x570>
   1a5f0:	d6d5d4d3          	0xd6d5d4d3
   1a5f4:	0020                	addi	s0,sp,8
   1a5f6:	0000                	unimp
   1a5f8:	05f8                	addi	a4,sp,716
   1a5fa:	0000                	unimp
   1a5fc:	7808                	flw	fa0,48(s0)
   1a5fe:	ffff                	0xffff
   1a600:	005c                	addi	a5,sp,4
   1a602:	0000                	unimp
   1a604:	4400                	lw	s0,8(s0)
   1a606:	100e                	c.slli	zero,0x23
   1a608:	8848                	0x8848
   1a60a:	8102                	jr	sp
   1a60c:	0201                	addi	tp,tp,0
   1a60e:	0a3c                	addi	a5,sp,280
   1a610:	44c1                	li	s1,16
   1a612:	44c8                	lw	a0,12(s1)
   1a614:	000e                	c.slli	zero,0x3
   1a616:	0b44                	addi	s1,sp,404
   1a618:	0024                	addi	s1,sp,8
   1a61a:	0000                	unimp
   1a61c:	061c                	addi	a5,sp,768
   1a61e:	0000                	unimp
   1a620:	7840                	flw	fs0,52(s0)
   1a622:	ffff                	0xffff
   1a624:	0108                	addi	a0,sp,128
   1a626:	0000                	unimp
   1a628:	0200                	addi	s0,sp,256
   1a62a:	0e50                	addi	a2,sp,788
   1a62c:	4410                	lw	a2,8(s0)
   1a62e:	0188                	addi	a0,sp,192
   1a630:	8002                	0x8002
   1a632:	44c8                	lw	a0,12(s1)
   1a634:	000e                	c.slli	zero,0x3
   1a636:	0e60                	addi	s0,sp,796
   1a638:	8810                	0x8810
   1a63a:	4801                	li	a6,0
   1a63c:	000e                	c.slli	zero,0x3
   1a63e:	00c8                	addi	a0,sp,68
   1a640:	002c                	addi	a1,sp,8
   1a642:	0000                	unimp
   1a644:	0644                	addi	s1,sp,772
   1a646:	0000                	unimp
   1a648:	7920                	flw	fs0,112(a0)
   1a64a:	ffff                	0xffff
   1a64c:	00c8                	addi	a0,sp,68
   1a64e:	0000                	unimp
   1a650:	4c00                	lw	s0,24(s0)
   1a652:	200e                	fld	ft0,192(sp)
   1a654:	884c                	0x884c
   1a656:	8902                	jr	s2
   1a658:	70018103          	lb	sp,1792(gp) # 1c328 <__global_pointer$+0x700>
   1a65c:	c10a                	sw	sp,128(sp)
   1a65e:	c844                	sw	s1,20(s0)
   1a660:	c944                	sw	s1,20(a0)
   1a662:	0e44                	addi	s1,sp,788
   1a664:	4400                	lw	s0,8(s0)
   1a666:	0e68020b          	0xe68020b
   1a66a:	c100                	sw	s0,0(a0)
   1a66c:	c9c8                	sw	a0,20(a1)
   1a66e:	0000                	unimp
   1a670:	003c                	addi	a5,sp,8
   1a672:	0000                	unimp
   1a674:	0674                	addi	a3,sp,780
   1a676:	0000                	unimp
   1a678:	79b8                	flw	fa4,112(a1)
   1a67a:	ffff                	0xffff
   1a67c:	0210                	addi	a2,sp,256
   1a67e:	0000                	unimp
   1a680:	4400                	lw	s0,8(s0)
   1a682:	300e                	fld	ft0,224(sp)
   1a684:	8864                	0x8864
   1a686:	8902                	jr	s2
   1a688:	81059303          	lh	t1,-2032(a1)
   1a68c:	9201                	srli	a2,a2,0x20
   1a68e:	9404                	0x9404
   1a690:	9506                	add	a0,a0,ra
   1a692:	97089607          	0x97089607
   1a696:	7009                	c.lui	zero,0xfffe2
   1a698:	c10a                	sw	sp,128(sp)
   1a69a:	c844                	sw	s1,20(s0)
   1a69c:	c944                	sw	s1,20(a0)
   1a69e:	d344                	sw	s1,36(a4)
   1a6a0:	d444                	sw	s1,44(s0)
   1a6a2:	d544                	sw	s1,44(a0)
   1a6a4:	d644                	sw	s1,44(a2)
   1a6a6:	d744                	sw	s1,44(a4)
   1a6a8:	d248                	sw	a0,36(a2)
   1a6aa:	0e44                	addi	s1,sp,788
   1a6ac:	4400                	lw	s0,8(s0)
   1a6ae:	0048000b          	0x48000b
   1a6b2:	0000                	unimp
   1a6b4:	06b4                	addi	a3,sp,840
   1a6b6:	0000                	unimp
   1a6b8:	7b88                	flw	fa0,48(a5)
   1a6ba:	ffff                	0xffff
   1a6bc:	0190                	addi	a2,sp,192
   1a6be:	0000                	unimp
   1a6c0:	5000                	lw	s0,32(s0)
   1a6c2:	200e                	fld	ft0,192(sp)
   1a6c4:	8854                	0x8854
   1a6c6:	9202                	jalr	tp
   1a6c8:	8104                	0x8104
   1a6ca:	8901                	andi	a0,a0,0
   1a6cc:	6c059303          	lh	t1,1728(a1)
   1a6d0:	44c1                	li	s1,16
   1a6d2:	44c8                	lw	a0,12(s1)
   1a6d4:	44c9                	li	s1,18
   1a6d6:	44d2                	lw	s1,20(sp)
   1a6d8:	000e48d3          	fadd.s	fa7,ft8,ft0,rmm
   1a6dc:	0e50                	addi	a2,sp,788
   1a6de:	8120                	0x8120
   1a6e0:	8801                	andi	s0,s0,0
   1a6e2:	8902                	jr	s2
   1a6e4:	93049203          	lh	tp,-1744(s1)
   1a6e8:	6005                	c.lui	zero,0x1
   1a6ea:	c10a                	sw	sp,128(sp)
   1a6ec:	c844                	sw	s1,20(s0)
   1a6ee:	c948                	sw	a0,20(a0)
   1a6f0:	d244                	sw	s1,36(a2)
   1a6f2:	d344                	sw	s1,36(a4)
   1a6f4:	0e48                	addi	a0,sp,788
   1a6f6:	4400                	lw	s0,8(s0)
   1a6f8:	0000000b          	0xb
   1a6fc:	0038                	addi	a4,sp,8
   1a6fe:	0000                	unimp
   1a700:	0700                	addi	s0,sp,896
   1a702:	0000                	unimp
   1a704:	7ccc                	flw	fa1,60(s1)
   1a706:	ffff                	0xffff
   1a708:	01f4                	addi	a3,sp,204
   1a70a:	0000                	unimp
   1a70c:	4400                	lw	s0,8(s0)
   1a70e:	100e                	c.slli	zero,0x23
   1a710:	8850                	0x8850
   1a712:	9202                	jalr	tp
   1a714:	8104                	0x8104
   1a716:	8901                	andi	a0,a0,0
   1a718:	0a3c0203          	lb	tp,163(s8) # fffe00a3 <__BSS_END__+0xfffc0433>
   1a71c:	44c1                	li	s1,16
   1a71e:	44c8                	lw	a0,12(s1)
   1a720:	44c9                	li	s1,18
   1a722:	44d2                	lw	s1,20(sp)
   1a724:	000e                	c.slli	zero,0x3
   1a726:	0b44                	addi	s1,sp,404
   1a728:	0a78                	addi	a4,sp,284
   1a72a:	44c1                	li	s1,16
   1a72c:	50c8                	lw	a0,36(s1)
   1a72e:	44c9                	li	s1,18
   1a730:	48d2                	lw	a7,20(sp)
   1a732:	000e                	c.slli	zero,0x3
   1a734:	0b44                	addi	s1,sp,404
   1a736:	0000                	unimp
   1a738:	0060                	addi	s0,sp,12
   1a73a:	0000                	unimp
   1a73c:	073c                	addi	a5,sp,904
   1a73e:	0000                	unimp
   1a740:	7e84                	flw	fs1,56(a3)
   1a742:	ffff                	0xffff
   1a744:	05ac                	addi	a1,sp,712
   1a746:	0000                	unimp
   1a748:	4400                	lw	s0,8(s0)
   1a74a:	200e                	fld	ft0,192(sp)
   1a74c:	9254                	0x9254
   1a74e:	9304                	0x9304
   1a750:	8105                	srli	a0,a0,0x1
   1a752:	8801                	andi	s0,s0,0
   1a754:	8902                	jr	s2
   1a756:	0a680203          	lb	tp,166(a6)
   1a75a:	44c1                	li	s1,16
   1a75c:	44c8                	lw	a0,12(s1)
   1a75e:	44c9                	li	s1,18
   1a760:	44d2                	lw	s1,20(sp)
   1a762:	000e44d3          	fadd.s	fs1,ft8,ft0,rmm
   1a766:	0b44                	addi	s1,sp,404
   1a768:	0a023803          	0xa023803
   1a76c:	44c1                	li	s1,16
   1a76e:	44c8                	lw	a0,12(s1)
   1a770:	44c9                	li	s1,18
   1a772:	44d2                	lw	s1,20(sp)
   1a774:	000e48d3          	fadd.s	fa7,ft8,ft0,rmm
   1a778:	0b44                	addi	s1,sp,404
   1a77a:	b402                	fsd	ft0,40(sp)
   1a77c:	c10a                	sw	sp,128(sp)
   1a77e:	c844                	sw	s1,20(s0)
   1a780:	c944                	sw	s1,20(a0)
   1a782:	d244                	sw	s1,36(a2)
   1a784:	d344                	sw	s1,36(a4)
   1a786:	0e48                	addi	a0,sp,788
   1a788:	4400                	lw	s0,8(s0)
   1a78a:	c10a440b          	0xc10a440b
   1a78e:	c844                	sw	s1,20(s0)
   1a790:	c944                	sw	s1,20(a0)
   1a792:	d244                	sw	s1,36(a2)
   1a794:	d344                	sw	s1,36(a4)
   1a796:	0e48                	addi	a0,sp,788
   1a798:	4400                	lw	s0,8(s0)
   1a79a:	0048000b          	0x48000b
   1a79e:	0000                	unimp
   1a7a0:	07a0                	addi	s0,sp,968
   1a7a2:	0000                	unimp
   1a7a4:	83cc                	0x83cc
   1a7a6:	ffff                	0xffff
   1a7a8:	030c                	addi	a1,sp,384
   1a7aa:	0000                	unimp
   1a7ac:	4400                	lw	s0,8(s0)
   1a7ae:	300e                	fld	ft0,224(sp)
   1a7b0:	8970                	0x8970
   1a7b2:	81069403          	lh	s0,-2032(a3)
   1a7b6:	8801                	andi	s0,s0,0
   1a7b8:	9202                	jalr	tp
   1a7ba:	9304                	0x9304
   1a7bc:	9505                	srai	a0,a0,0x21
   1a7be:	97089607          	0x97089607
   1a7c2:	9809                	andi	s0,s0,-30
   1a7c4:	990a                	add	s2,s2,sp
   1a7c6:	020c9a0b          	0x20c9a0b
   1a7ca:	0a64                	addi	s1,sp,284
   1a7cc:	48c1                	li	a7,16
   1a7ce:	44c8                	lw	a0,12(s1)
   1a7d0:	44c9                	li	s1,18
   1a7d2:	44d2                	lw	s1,20(sp)
   1a7d4:	44d444d3          	0x44d444d3
   1a7d8:	44d5                	li	s1,21
   1a7da:	44d6                	lw	s1,84(sp)
   1a7dc:	44d844d7          	0x44d844d7
   1a7e0:	44d9                	li	s1,22
   1a7e2:	44da                	lw	s1,148(sp)
   1a7e4:	000e                	c.slli	zero,0x3
   1a7e6:	0b44                	addi	s1,sp,404
   1a7e8:	0044                	addi	s1,sp,4
   1a7ea:	0000                	unimp
   1a7ec:	07ec                	addi	a1,sp,972
   1a7ee:	0000                	unimp
   1a7f0:	868c                	0x868c
   1a7f2:	ffff                	0xffff
   1a7f4:	0250                	addi	a2,sp,260
   1a7f6:	0000                	unimp
   1a7f8:	4400                	lw	s0,8(s0)
   1a7fa:	300e                	fld	ft0,224(sp)
   1a7fc:	8944                	0x8944
   1a7fe:	02886c03          	0x2886c03
   1a802:	01810593          	addi	a1,sp,24
   1a806:	0492                	slli	s1,s1,0x4
   1a808:	0694                	addi	a3,sp,832
   1a80a:	0795                	addi	a5,a5,5
   1a80c:	0896                	slli	a7,a7,0x5
   1a80e:	0a980997          	auipc	s3,0xa980
   1a812:	0b99                	addi	s7,s7,6
   1a814:	0a60                	addi	s0,sp,284
   1a816:	44c1                	li	s1,16
   1a818:	44c8                	lw	a0,12(s1)
   1a81a:	44c9                	li	s1,18
   1a81c:	44d2                	lw	s1,20(sp)
   1a81e:	44d444d3          	0x44d444d3
   1a822:	44d5                	li	s1,21
   1a824:	44d6                	lw	s1,84(sp)
   1a826:	44d844d7          	0x44d844d7
   1a82a:	44d9                	li	s1,22
   1a82c:	000e                	c.slli	zero,0x3
   1a82e:	0b44                	addi	s1,sp,404
   1a830:	0050                	addi	a2,sp,4
   1a832:	0000                	unimp
   1a834:	0834                	addi	a3,sp,24
   1a836:	0000                	unimp
   1a838:	8894                	0x8894
   1a83a:	ffff                	0xffff
   1a83c:	02ac                	addi	a1,sp,328
   1a83e:	0000                	unimp
   1a840:	4400                	lw	s0,8(s0)
   1a842:	500e                	0x500e
   1a844:	9a74                	0x9a74
   1a846:	810c                	0x810c
   1a848:	8801                	andi	s0,s0,0
   1a84a:	8902                	jr	s2
   1a84c:	93049203          	lh	tp,-1744(s1)
   1a850:	9405                	srai	s0,s0,0x21
   1a852:	9506                	add	a0,a0,ra
   1a854:	97089607          	0x97089607
   1a858:	9809                	andi	s0,s0,-30
   1a85a:	990a                	add	s2,s2,sp
   1a85c:	030d9b0b          	0x30d9b0b
   1a860:	0110                	addi	a2,sp,128
   1a862:	c10a                	sw	sp,128(sp)
   1a864:	c844                	sw	s1,20(s0)
   1a866:	c944                	sw	s1,20(a0)
   1a868:	d244                	sw	s1,36(a2)
   1a86a:	d344                	sw	s1,36(a4)
   1a86c:	d444                	sw	s1,44(s0)
   1a86e:	d544                	sw	s1,44(a0)
   1a870:	d644                	sw	s1,44(a2)
   1a872:	d744                	sw	s1,44(a4)
   1a874:	d844                	sw	s1,52(s0)
   1a876:	da44                	sw	s1,52(a2)
   1a878:	db44                	sw	s1,52(a4)
   1a87a:	d948                	sw	a0,52(a0)
   1a87c:	0e44                	addi	s1,sp,788
   1a87e:	4400                	lw	s0,8(s0)
   1a880:	0000000b          	0xb
   1a884:	0050                	addi	a2,sp,4
   1a886:	0000                	unimp
   1a888:	0888                	addi	a0,sp,80
   1a88a:	0000                	unimp
   1a88c:	8aec                	0x8aec
   1a88e:	ffff                	0xffff
   1a890:	04d0                	addi	a2,sp,580
   1a892:	0000                	unimp
   1a894:	4400                	lw	s0,8(s0)
   1a896:	500e                	0x500e
   1a898:	8854                	0x8854
   1a89a:	9302                	jalr	t1
   1a89c:	9b05                	andi	a4,a4,-31
   1a89e:	810d                	srli	a0,a0,0x3
   1a8a0:	6801                	0x6801
   1a8a2:	0389                	addi	t2,t2,2
   1a8a4:	0492                	slli	s1,s1,0x4
   1a8a6:	0694                	addi	a3,sp,832
   1a8a8:	0795                	addi	a5,a5,5
   1a8aa:	0896                	slli	a7,a7,0x5
   1a8ac:	0a980997          	auipc	s3,0xa980
   1a8b0:	0b99                	addi	s7,s7,6
   1a8b2:	0c9a                	slli	s9,s9,0x6
   1a8b4:	7802                	flw	fa6,32(sp)
   1a8b6:	c10a                	sw	sp,128(sp)
   1a8b8:	c844                	sw	s1,20(s0)
   1a8ba:	c944                	sw	s1,20(a0)
   1a8bc:	d244                	sw	s1,36(a2)
   1a8be:	d444                	sw	s1,44(s0)
   1a8c0:	d544                	sw	s1,44(a0)
   1a8c2:	d644                	sw	s1,44(a2)
   1a8c4:	d744                	sw	s1,44(a4)
   1a8c6:	d844                	sw	s1,52(s0)
   1a8c8:	d944                	sw	s1,52(a0)
   1a8ca:	da44                	sw	s1,52(a2)
   1a8cc:	db44                	sw	s1,52(a4)
   1a8ce:	d348                	sw	a0,36(a4)
   1a8d0:	0e44                	addi	s1,sp,788
   1a8d2:	4400                	lw	s0,8(s0)
   1a8d4:	0000000b          	0xb
   1a8d8:	0070                	addi	a2,sp,12
   1a8da:	0000                	unimp
   1a8dc:	08dc                	addi	a5,sp,84
   1a8de:	0000                	unimp
   1a8e0:	8f68                	0x8f68
   1a8e2:	ffff                	0xffff
   1a8e4:	0660                	addi	s0,sp,780
   1a8e6:	0000                	unimp
   1a8e8:	4400                	lw	s0,8(s0)
   1a8ea:	600e                	flw	ft0,192(sp)
   1a8ec:	8878                	0x8878
   1a8ee:	9b02                	jalr	s6
   1a8f0:	810d                	srli	a0,a0,0x3
   1a8f2:	8901                	andi	a0,a0,0
   1a8f4:	93049203          	lh	tp,-1744(s1)
   1a8f8:	9405                	srai	s0,s0,0x21
   1a8fa:	9506                	add	a0,a0,ra
   1a8fc:	97089607          	0x97089607
   1a900:	9809                	andi	s0,s0,-30
   1a902:	990a                	add	s2,s2,sp
   1a904:	020c9a0b          	0x20c9a0b
   1a908:	0a4c                	addi	a1,sp,276
   1a90a:	44c8                	lw	a0,12(s1)
   1a90c:	44c1                	li	s1,16
   1a90e:	44c9                	li	s1,18
   1a910:	44d2                	lw	s1,20(sp)
   1a912:	44d444d3          	0x44d444d3
   1a916:	44d5                	li	s1,21
   1a918:	44d6                	lw	s1,84(sp)
   1a91a:	44d844d7          	0x44d844d7
   1a91e:	44d9                	li	s1,22
   1a920:	44da                	lw	s1,148(sp)
   1a922:	000e48db          	0xe48db
   1a926:	0b44                	addi	s1,sp,404
   1a928:	d802                	sw	zero,48(sp)
   1a92a:	c10a                	sw	sp,128(sp)
   1a92c:	c844                	sw	s1,20(s0)
   1a92e:	c944                	sw	s1,20(a0)
   1a930:	d244                	sw	s1,36(a2)
   1a932:	d344                	sw	s1,36(a4)
   1a934:	d444                	sw	s1,44(s0)
   1a936:	d544                	sw	s1,44(a0)
   1a938:	d644                	sw	s1,44(a2)
   1a93a:	d744                	sw	s1,44(a4)
   1a93c:	d844                	sw	s1,52(s0)
   1a93e:	d944                	sw	s1,52(a0)
   1a940:	da44                	sw	s1,52(a2)
   1a942:	db44                	sw	s1,52(a4)
   1a944:	0e44                	addi	s1,sp,788
   1a946:	4400                	lw	s0,8(s0)
   1a948:	0000000b          	0xb
   1a94c:	004c                	addi	a1,sp,4
   1a94e:	0000                	unimp
   1a950:	0950                	addi	a2,sp,148
   1a952:	0000                	unimp
   1a954:	9554                	0x9554
   1a956:	ffff                	0xffff
   1a958:	10d4                	addi	a3,sp,100
   1a95a:	0000                	unimp
   1a95c:	4400                	lw	s0,8(s0)
   1a95e:	b00e                	fsd	ft3,32(sp)
   1a960:	7401                	lui	s0,0xfffe0
   1a962:	0181                	addi	gp,gp,0
   1a964:	0288                	addi	a0,sp,320
   1a966:	0389                	addi	t2,t2,2
   1a968:	0492                	slli	s1,s1,0x4
   1a96a:	06940593          	addi	a1,s0,105 # fffe0069 <__BSS_END__+0xfffc03f9>
   1a96e:	0795                	addi	a5,a5,5
   1a970:	0896                	slli	a7,a7,0x5
   1a972:	0a980997          	auipc	s3,0xa980
   1a976:	0b99                	addi	s7,s7,6
   1a978:	0c9a                	slli	s9,s9,0x6
   1a97a:	0a740d9b          	0xa740d9b
   1a97e:	44c1                	li	s1,16
   1a980:	44c8                	lw	a0,12(s1)
   1a982:	44c9                	li	s1,18
   1a984:	44d444d3          	0x44d444d3
   1a988:	44d5                	li	s1,21
   1a98a:	44d6                	lw	s1,84(sp)
   1a98c:	44d844d7          	0x44d844d7
   1a990:	44d9                	li	s1,22
   1a992:	44da                	lw	s1,148(sp)
   1a994:	44d248db          	0x44d248db
   1a998:	000e                	c.slli	zero,0x3
   1a99a:	0b44                	addi	s1,sp,404
   1a99c:	004c                	addi	a1,sp,4
   1a99e:	0000                	unimp
   1a9a0:	09a0                	addi	s0,sp,216
   1a9a2:	0000                	unimp
   1a9a4:	a5d8                	fsd	fa4,136(a1)
   1a9a6:	ffff                	0xffff
   1a9a8:	02f0                	addi	a2,sp,332
   1a9aa:	0000                	unimp
   1a9ac:	4400                	lw	s0,8(s0)
   1a9ae:	500e                	0x500e
   1a9b0:	8174                	0x8174
   1a9b2:	8801                	andi	s0,s0,0
   1a9b4:	8902                	jr	s2
   1a9b6:	93049203          	lh	tp,-1744(s1)
   1a9ba:	9405                	srai	s0,s0,0x21
   1a9bc:	9506                	add	a0,a0,ra
   1a9be:	97089607          	0x97089607
   1a9c2:	9809                	andi	s0,s0,-30
   1a9c4:	990a                	add	s2,s2,sp
   1a9c6:	9b0c9a0b          	0x9b0c9a0b
   1a9ca:	740d                	lui	s0,0xfffe3
   1a9cc:	c10a                	sw	sp,128(sp)
   1a9ce:	c844                	sw	s1,20(s0)
   1a9d0:	c944                	sw	s1,20(a0)
   1a9d2:	d244                	sw	s1,36(a2)
   1a9d4:	d344                	sw	s1,36(a4)
   1a9d6:	d444                	sw	s1,44(s0)
   1a9d8:	d544                	sw	s1,44(a0)
   1a9da:	d644                	sw	s1,44(a2)
   1a9dc:	d744                	sw	s1,44(a4)
   1a9de:	d844                	sw	s1,52(s0)
   1a9e0:	d944                	sw	s1,52(a0)
   1a9e2:	da44                	sw	s1,52(a2)
   1a9e4:	db48                	sw	a0,52(a4)
   1a9e6:	0e44                	addi	s1,sp,788
   1a9e8:	4400                	lw	s0,8(s0)
   1a9ea:	0040000b          	0x40000b
   1a9ee:	0000                	unimp
   1a9f0:	09f0                	addi	a2,sp,220
   1a9f2:	0000                	unimp
   1a9f4:	a878                	fsd	fa4,208(s0)
   1a9f6:	ffff                	0xffff
   1a9f8:	02e8                	addi	a0,sp,332
   1a9fa:	0000                	unimp
   1a9fc:	4c00                	lw	s0,24(s0)
   1a9fe:	100e                	c.slli	zero,0x23
   1aa00:	8850                	0x8850
   1aa02:	8102                	jr	sp
   1aa04:	8901                	andi	a0,a0,0
   1aa06:	64049203          	lh	tp,1600(s1)
   1aa0a:	c10a                	sw	sp,128(sp)
   1aa0c:	c844                	sw	s1,20(s0)
   1aa0e:	c944                	sw	s1,20(a0)
   1aa10:	d244                	sw	s1,36(a2)
   1aa12:	0e44                	addi	s1,sp,788
   1aa14:	4400                	lw	s0,8(s0)
   1aa16:	0138030b          	0x138030b
   1aa1a:	44c1                	li	s1,16
   1aa1c:	44c8                	lw	a0,12(s1)
   1aa1e:	44c9                	li	s1,18
   1aa20:	44d2                	lw	s1,20(sp)
   1aa22:	000e                	c.slli	zero,0x3
   1aa24:	0e4c                	addi	a1,sp,788
   1aa26:	8110                	0x8110
   1aa28:	8801                	andi	s0,s0,0
   1aa2a:	8902                	jr	s2
   1aa2c:	00049203          	lh	tp,0(s1)
   1aa30:	0038                	addi	a4,sp,8
   1aa32:	0000                	unimp
   1aa34:	0a34                	addi	a3,sp,280
   1aa36:	0000                	unimp
   1aa38:	ab1c                	fsd	fa5,16(a4)
   1aa3a:	ffff                	0xffff
   1aa3c:	00a0                	addi	s0,sp,72
   1aa3e:	0000                	unimp
   1aa40:	4400                	lw	s0,8(s0)
   1aa42:	100e                	c.slli	zero,0x23
   1aa44:	884c                	0x884c
   1aa46:	8902                	jr	s2
   1aa48:	54018103          	lb	sp,1344(gp) # 1c168 <__global_pointer$+0x540>
   1aa4c:	c10a                	sw	sp,128(sp)
   1aa4e:	c848                	sw	a0,20(s0)
   1aa50:	c944                	sw	s1,20(a0)
   1aa52:	0e44                	addi	s1,sp,788
   1aa54:	4400                	lw	s0,8(s0)
   1aa56:	c10a680b          	0xc10a680b
   1aa5a:	c848                	sw	a0,20(s0)
   1aa5c:	c944                	sw	s1,20(a0)
   1aa5e:	0e44                	addi	s1,sp,788
   1aa60:	4400                	lw	s0,8(s0)
   1aa62:	48c1540b          	0x48c1540b
   1aa66:	48c8                	lw	a0,20(s1)
   1aa68:	44c9                	li	s1,18
   1aa6a:	000e                	c.slli	zero,0x3
   1aa6c:	004c                	addi	a1,sp,4
   1aa6e:	0000                	unimp
   1aa70:	0a70                	addi	a2,sp,284
   1aa72:	0000                	unimp
   1aa74:	ab80                	fsd	fs0,16(a5)
   1aa76:	ffff                	0xffff
   1aa78:	059c                	addi	a5,sp,704
   1aa7a:	0000                	unimp
   1aa7c:	4400                	lw	s0,8(s0)
   1aa7e:	600e                	flw	ft0,192(sp)
   1aa80:	8174                	0x8174
   1aa82:	8801                	andi	s0,s0,0
   1aa84:	8902                	jr	s2
   1aa86:	93049203          	lh	tp,-1744(s1)
   1aa8a:	9405                	srai	s0,s0,0x21
   1aa8c:	9506                	add	a0,a0,ra
   1aa8e:	97089607          	0x97089607
   1aa92:	9809                	andi	s0,s0,-30
   1aa94:	990a                	add	s2,s2,sp
   1aa96:	9b0c9a0b          	0x9b0c9a0b
   1aa9a:	6c0d                	lui	s8,0x3
   1aa9c:	c10a                	sw	sp,128(sp)
   1aa9e:	c844                	sw	s1,20(s0)
   1aaa0:	c944                	sw	s1,20(a0)
   1aaa2:	d244                	sw	s1,36(a2)
   1aaa4:	d444                	sw	s1,44(s0)
   1aaa6:	d544                	sw	s1,44(a0)
   1aaa8:	d644                	sw	s1,44(a2)
   1aaaa:	d744                	sw	s1,44(a4)
   1aaac:	d844                	sw	s1,52(s0)
   1aaae:	d944                	sw	s1,52(a0)
   1aab0:	da44                	sw	s1,52(a2)
   1aab2:	db44                	sw	s1,52(a4)
   1aab4:	d348                	sw	a0,36(a4)
   1aab6:	0e44                	addi	s1,sp,788
   1aab8:	4400                	lw	s0,8(s0)
   1aaba:	0010000b          	0x10000b
   1aabe:	0000                	unimp
   1aac0:	0ac0                	addi	s0,sp,340
   1aac2:	0000                	unimp
   1aac4:	b0cc                	fsd	fa1,160(s1)
   1aac6:	ffff                	0xffff
   1aac8:	0078                	addi	a4,sp,12
   1aaca:	0000                	unimp
   1aacc:	0000                	unimp
   1aace:	0000                	unimp
   1aad0:	0010                	0x10
   1aad2:	0000                	unimp
   1aad4:	0ad4                	addi	a3,sp,340
   1aad6:	0000                	unimp
   1aad8:	b130                	fsd	fa2,96(a0)
   1aada:	ffff                	0xffff
   1aadc:	0038                	addi	a4,sp,8
   1aade:	0000                	unimp
   1aae0:	0000                	unimp
   1aae2:	0000                	unimp
   1aae4:	0010                	0x10
   1aae6:	0000                	unimp
   1aae8:	0ae8                	addi	a0,sp,348
   1aaea:	0000                	unimp
   1aaec:	b154                	fsd	fa3,160(a0)
   1aaee:	ffff                	0xffff
   1aaf0:	0158                	addi	a4,sp,132
   1aaf2:	0000                	unimp
   1aaf4:	0000                	unimp
   1aaf6:	0000                	unimp
   1aaf8:	0010                	0x10
   1aafa:	0000                	unimp
   1aafc:	0afc                	addi	a5,sp,348
   1aafe:	0000                	unimp
   1ab00:	b298                	fsd	fa4,32(a3)
   1ab02:	ffff                	0xffff
   1ab04:	000c                	0xc
   1ab06:	0000                	unimp
   1ab08:	0000                	unimp
   1ab0a:	0000                	unimp
   1ab0c:	0018                	0x18
   1ab0e:	0000                	unimp
   1ab10:	0b10                	addi	a2,sp,400
   1ab12:	0000                	unimp
   1ab14:	b290                	fsd	fa2,32(a3)
   1ab16:	ffff                	0xffff
   1ab18:	0030                	addi	a2,sp,8
   1ab1a:	0000                	unimp
   1ab1c:	5400                	lw	s0,40(s0)
   1ab1e:	100e                	c.slli	zero,0x23
   1ab20:	8144                	0x8144
   1ab22:	4801                	li	a6,0
   1ab24:	4cc1                	li	s9,16
   1ab26:	000e                	c.slli	zero,0x3
   1ab28:	0018                	0x18
   1ab2a:	0000                	unimp
   1ab2c:	0b2c                	addi	a1,sp,408
   1ab2e:	0000                	unimp
   1ab30:	b2a4                	fsd	fs1,96(a3)
   1ab32:	ffff                	0xffff
   1ab34:	0040                	addi	s0,sp,4
   1ab36:	0000                	unimp
   1ab38:	5c00                	lw	s0,56(s0)
   1ab3a:	100e                	c.slli	zero,0x23
   1ab3c:	814c                	0x814c
   1ab3e:	4801                	li	a6,0
   1ab40:	4cc1                	li	s9,16
   1ab42:	000e                	c.slli	zero,0x3
   1ab44:	0018                	0x18
   1ab46:	0000                	unimp
   1ab48:	0b48                	addi	a0,sp,404
   1ab4a:	0000                	unimp
   1ab4c:	b2c8                	fsd	fa0,160(a3)
   1ab4e:	ffff                	0xffff
   1ab50:	0040                	addi	s0,sp,4
   1ab52:	0000                	unimp
   1ab54:	5c00                	lw	s0,56(s0)
   1ab56:	100e                	c.slli	zero,0x23
   1ab58:	814c                	0x814c
   1ab5a:	4801                	li	a6,0
   1ab5c:	4cc1                	li	s9,16
   1ab5e:	000e                	c.slli	zero,0x3
   1ab60:	0010                	0x10
   1ab62:	0000                	unimp
   1ab64:	0b64                	addi	s1,sp,412
   1ab66:	0000                	unimp
   1ab68:	b2ec                	fsd	fa1,224(a3)
   1ab6a:	ffff                	0xffff
   1ab6c:	0010                	0x10
   1ab6e:	0000                	unimp
   1ab70:	0000                	unimp
   1ab72:	0000                	unimp
   1ab74:	0010                	0x10
   1ab76:	0000                	unimp
   1ab78:	0b78                	addi	a4,sp,412
   1ab7a:	0000                	unimp
   1ab7c:	b2e8                	fsd	fa0,224(a3)
   1ab7e:	ffff                	0xffff
   1ab80:	0430                	addi	a2,sp,520
   1ab82:	0000                	unimp
   1ab84:	0000                	unimp
	...

0001ab88 <__FRAME_END__>:
   1ab88:	0000                	unimp
	...

Disassembly of section .init_array:

0001ab8c <__init_array_start>:
   1ab8c:	020c                	addi	a1,sp,256
   1ab8e:	0001                	nop

0001ab90 <__frame_dummy_init_array_entry>:
   1ab90:	02b8                	addi	a4,sp,328
   1ab92:	0001                	nop

Disassembly of section .fini_array:

0001ab94 <__do_global_dtors_aux_fini_array_entry>:
   1ab94:	0274                	addi	a3,sp,268
   1ab96:	0001                	nop

Disassembly of section .data.rel.ro:

0001ab98 <_ZL9VolumeStr>:
   1ab98:	92b4                	0x92b4
   1ab9a:	0001                	nop
   1ab9c:	92b8                	0x92b8
   1ab9e:	0001                	nop
   1aba0:	92bc                	0x92bc
   1aba2:	0001                	nop

Disassembly of section .data:

0001aba8 <IO_UARTStatus>:
   1aba8:	1008                	addi	a0,sp,32
   1abaa:	8000                	0x8000

0001abac <IO_UARTTX>:
   1abac:	1004                	addi	s1,sp,32
   1abae:	8000                	0x8000

0001abb0 <_ZL10heap_start>:
   1abb0:	0000                	unimp
   1abb2:	0400                	addi	s0,sp,512

0001abb4 <GPUCTL>:
   1abb4:	0000                	unimp
   1abb6:	8104                	0x8104

0001abb8 <GPUFBWORD>:
   1abb8:	0000                	unimp
   1abba:	8100                	0x8100

0001abbc <GPUPAL_32>:
   1abbc:	0000                	unimp
   1abbe:	8102                	jr	sp

0001abc0 <IO_SPIRXTX>:
   1abc0:	1010                	addi	a2,sp,32
   1abc2:	8000                	0x8000
   1abc4:	0000                	unimp
	...

0001abc8 <impure_data>:
   1abc8:	0000                	unimp
   1abca:	0000                	unimp
   1abcc:	aeb4                	fsd	fa3,88(a3)
   1abce:	0001                	nop
   1abd0:	af1c                	fsd	fa5,24(a4)
   1abd2:	0001                	nop
   1abd4:	af84                	fsd	fs1,24(a5)
   1abd6:	0001                	nop
	...
   1ac70:	0001                	nop
   1ac72:	0000                	unimp
   1ac74:	0000                	unimp
   1ac76:	0000                	unimp
   1ac78:	330e                	fld	ft6,224(sp)
   1ac7a:	abcd                	j	1b26c <__malloc_av_+0x27c>
   1ac7c:	1234                	addi	a3,sp,296
   1ac7e:	e66d                	bnez	a2,1ad68 <impure_data+0x1a0>
   1ac80:	deec                	sw	a1,124(a3)
   1ac82:	0005                	c.nop	1
   1ac84:	0000000b          	0xb
	...

0001aff0 <__malloc_av_>:
	...
   1aff8:	aff0                	fsd	fa2,216(a5)
   1affa:	0001                	nop
   1affc:	aff0                	fsd	fa2,216(a5)
   1affe:	0001                	nop
   1b000:	aff8                	fsd	fa4,216(a5)
   1b002:	0001                	nop
   1b004:	aff8                	fsd	fa4,216(a5)
   1b006:	0001                	nop
   1b008:	b000                	fsd	fs0,32(s0)
   1b00a:	0001                	nop
   1b00c:	b000                	fsd	fs0,32(s0)
   1b00e:	0001                	nop
   1b010:	b008                	fsd	fa0,32(s0)
   1b012:	0001                	nop
   1b014:	b008                	fsd	fa0,32(s0)
   1b016:	0001                	nop
   1b018:	b010                	fsd	fa2,32(s0)
   1b01a:	0001                	nop
   1b01c:	b010                	fsd	fa2,32(s0)
   1b01e:	0001                	nop
   1b020:	b018                	fsd	fa4,32(s0)
   1b022:	0001                	nop
   1b024:	b018                	fsd	fa4,32(s0)
   1b026:	0001                	nop
   1b028:	b020                	fsd	fs0,96(s0)
   1b02a:	0001                	nop
   1b02c:	b020                	fsd	fs0,96(s0)
   1b02e:	0001                	nop
   1b030:	b028                	fsd	fa0,96(s0)
   1b032:	0001                	nop
   1b034:	b028                	fsd	fa0,96(s0)
   1b036:	0001                	nop
   1b038:	b030                	fsd	fa2,96(s0)
   1b03a:	0001                	nop
   1b03c:	b030                	fsd	fa2,96(s0)
   1b03e:	0001                	nop
   1b040:	b038                	fsd	fa4,96(s0)
   1b042:	0001                	nop
   1b044:	b038                	fsd	fa4,96(s0)
   1b046:	0001                	nop
   1b048:	b040                	fsd	fs0,160(s0)
   1b04a:	0001                	nop
   1b04c:	b040                	fsd	fs0,160(s0)
   1b04e:	0001                	nop
   1b050:	b048                	fsd	fa0,160(s0)
   1b052:	0001                	nop
   1b054:	b048                	fsd	fa0,160(s0)
   1b056:	0001                	nop
   1b058:	b050                	fsd	fa2,160(s0)
   1b05a:	0001                	nop
   1b05c:	b050                	fsd	fa2,160(s0)
   1b05e:	0001                	nop
   1b060:	b058                	fsd	fa4,160(s0)
   1b062:	0001                	nop
   1b064:	b058                	fsd	fa4,160(s0)
   1b066:	0001                	nop
   1b068:	b060                	fsd	fs0,224(s0)
   1b06a:	0001                	nop
   1b06c:	b060                	fsd	fs0,224(s0)
   1b06e:	0001                	nop
   1b070:	b068                	fsd	fa0,224(s0)
   1b072:	0001                	nop
   1b074:	b068                	fsd	fa0,224(s0)
   1b076:	0001                	nop
   1b078:	b070                	fsd	fa2,224(s0)
   1b07a:	0001                	nop
   1b07c:	b070                	fsd	fa2,224(s0)
   1b07e:	0001                	nop
   1b080:	b078                	fsd	fa4,224(s0)
   1b082:	0001                	nop
   1b084:	b078                	fsd	fa4,224(s0)
   1b086:	0001                	nop
   1b088:	b080                	fsd	fs0,32(s1)
   1b08a:	0001                	nop
   1b08c:	b080                	fsd	fs0,32(s1)
   1b08e:	0001                	nop
   1b090:	b088                	fsd	fa0,32(s1)
   1b092:	0001                	nop
   1b094:	b088                	fsd	fa0,32(s1)
   1b096:	0001                	nop
   1b098:	b090                	fsd	fa2,32(s1)
   1b09a:	0001                	nop
   1b09c:	b090                	fsd	fa2,32(s1)
   1b09e:	0001                	nop
   1b0a0:	b098                	fsd	fa4,32(s1)
   1b0a2:	0001                	nop
   1b0a4:	b098                	fsd	fa4,32(s1)
   1b0a6:	0001                	nop
   1b0a8:	b0a0                	fsd	fs0,96(s1)
   1b0aa:	0001                	nop
   1b0ac:	b0a0                	fsd	fs0,96(s1)
   1b0ae:	0001                	nop
   1b0b0:	b0a8                	fsd	fa0,96(s1)
   1b0b2:	0001                	nop
   1b0b4:	b0a8                	fsd	fa0,96(s1)
   1b0b6:	0001                	nop
   1b0b8:	b0b0                	fsd	fa2,96(s1)
   1b0ba:	0001                	nop
   1b0bc:	b0b0                	fsd	fa2,96(s1)
   1b0be:	0001                	nop
   1b0c0:	b0b8                	fsd	fa4,96(s1)
   1b0c2:	0001                	nop
   1b0c4:	b0b8                	fsd	fa4,96(s1)
   1b0c6:	0001                	nop
   1b0c8:	b0c0                	fsd	fs0,160(s1)
   1b0ca:	0001                	nop
   1b0cc:	b0c0                	fsd	fs0,160(s1)
   1b0ce:	0001                	nop
   1b0d0:	b0c8                	fsd	fa0,160(s1)
   1b0d2:	0001                	nop
   1b0d4:	b0c8                	fsd	fa0,160(s1)
   1b0d6:	0001                	nop
   1b0d8:	b0d0                	fsd	fa2,160(s1)
   1b0da:	0001                	nop
   1b0dc:	b0d0                	fsd	fa2,160(s1)
   1b0de:	0001                	nop
   1b0e0:	b0d8                	fsd	fa4,160(s1)
   1b0e2:	0001                	nop
   1b0e4:	b0d8                	fsd	fa4,160(s1)
   1b0e6:	0001                	nop
   1b0e8:	b0e0                	fsd	fs0,224(s1)
   1b0ea:	0001                	nop
   1b0ec:	b0e0                	fsd	fs0,224(s1)
   1b0ee:	0001                	nop
   1b0f0:	b0e8                	fsd	fa0,224(s1)
   1b0f2:	0001                	nop
   1b0f4:	b0e8                	fsd	fa0,224(s1)
   1b0f6:	0001                	nop
   1b0f8:	b0f0                	fsd	fa2,224(s1)
   1b0fa:	0001                	nop
   1b0fc:	b0f0                	fsd	fa2,224(s1)
   1b0fe:	0001                	nop
   1b100:	b0f8                	fsd	fa4,224(s1)
   1b102:	0001                	nop
   1b104:	b0f8                	fsd	fa4,224(s1)
   1b106:	0001                	nop
   1b108:	b100                	fsd	fs0,32(a0)
   1b10a:	0001                	nop
   1b10c:	b100                	fsd	fs0,32(a0)
   1b10e:	0001                	nop
   1b110:	b108                	fsd	fa0,32(a0)
   1b112:	0001                	nop
   1b114:	b108                	fsd	fa0,32(a0)
   1b116:	0001                	nop
   1b118:	b110                	fsd	fa2,32(a0)
   1b11a:	0001                	nop
   1b11c:	b110                	fsd	fa2,32(a0)
   1b11e:	0001                	nop
   1b120:	b118                	fsd	fa4,32(a0)
   1b122:	0001                	nop
   1b124:	b118                	fsd	fa4,32(a0)
   1b126:	0001                	nop
   1b128:	b120                	fsd	fs0,96(a0)
   1b12a:	0001                	nop
   1b12c:	b120                	fsd	fs0,96(a0)
   1b12e:	0001                	nop
   1b130:	b128                	fsd	fa0,96(a0)
   1b132:	0001                	nop
   1b134:	b128                	fsd	fa0,96(a0)
   1b136:	0001                	nop
   1b138:	b130                	fsd	fa2,96(a0)
   1b13a:	0001                	nop
   1b13c:	b130                	fsd	fa2,96(a0)
   1b13e:	0001                	nop
   1b140:	b138                	fsd	fa4,96(a0)
   1b142:	0001                	nop
   1b144:	b138                	fsd	fa4,96(a0)
   1b146:	0001                	nop
   1b148:	b140                	fsd	fs0,160(a0)
   1b14a:	0001                	nop
   1b14c:	b140                	fsd	fs0,160(a0)
   1b14e:	0001                	nop
   1b150:	b148                	fsd	fa0,160(a0)
   1b152:	0001                	nop
   1b154:	b148                	fsd	fa0,160(a0)
   1b156:	0001                	nop
   1b158:	b150                	fsd	fa2,160(a0)
   1b15a:	0001                	nop
   1b15c:	b150                	fsd	fa2,160(a0)
   1b15e:	0001                	nop
   1b160:	b158                	fsd	fa4,160(a0)
   1b162:	0001                	nop
   1b164:	b158                	fsd	fa4,160(a0)
   1b166:	0001                	nop
   1b168:	b160                	fsd	fs0,224(a0)
   1b16a:	0001                	nop
   1b16c:	b160                	fsd	fs0,224(a0)
   1b16e:	0001                	nop
   1b170:	b168                	fsd	fa0,224(a0)
   1b172:	0001                	nop
   1b174:	b168                	fsd	fa0,224(a0)
   1b176:	0001                	nop
   1b178:	b170                	fsd	fa2,224(a0)
   1b17a:	0001                	nop
   1b17c:	b170                	fsd	fa2,224(a0)
   1b17e:	0001                	nop
   1b180:	b178                	fsd	fa4,224(a0)
   1b182:	0001                	nop
   1b184:	b178                	fsd	fa4,224(a0)
   1b186:	0001                	nop
   1b188:	b180                	fsd	fs0,32(a1)
   1b18a:	0001                	nop
   1b18c:	b180                	fsd	fs0,32(a1)
   1b18e:	0001                	nop
   1b190:	b188                	fsd	fa0,32(a1)
   1b192:	0001                	nop
   1b194:	b188                	fsd	fa0,32(a1)
   1b196:	0001                	nop
   1b198:	b190                	fsd	fa2,32(a1)
   1b19a:	0001                	nop
   1b19c:	b190                	fsd	fa2,32(a1)
   1b19e:	0001                	nop
   1b1a0:	b198                	fsd	fa4,32(a1)
   1b1a2:	0001                	nop
   1b1a4:	b198                	fsd	fa4,32(a1)
   1b1a6:	0001                	nop
   1b1a8:	b1a0                	fsd	fs0,96(a1)
   1b1aa:	0001                	nop
   1b1ac:	b1a0                	fsd	fs0,96(a1)
   1b1ae:	0001                	nop
   1b1b0:	b1a8                	fsd	fa0,96(a1)
   1b1b2:	0001                	nop
   1b1b4:	b1a8                	fsd	fa0,96(a1)
   1b1b6:	0001                	nop
   1b1b8:	b1b0                	fsd	fa2,96(a1)
   1b1ba:	0001                	nop
   1b1bc:	b1b0                	fsd	fa2,96(a1)
   1b1be:	0001                	nop
   1b1c0:	b1b8                	fsd	fa4,96(a1)
   1b1c2:	0001                	nop
   1b1c4:	b1b8                	fsd	fa4,96(a1)
   1b1c6:	0001                	nop
   1b1c8:	b1c0                	fsd	fs0,160(a1)
   1b1ca:	0001                	nop
   1b1cc:	b1c0                	fsd	fs0,160(a1)
   1b1ce:	0001                	nop
   1b1d0:	b1c8                	fsd	fa0,160(a1)
   1b1d2:	0001                	nop
   1b1d4:	b1c8                	fsd	fa0,160(a1)
   1b1d6:	0001                	nop
   1b1d8:	b1d0                	fsd	fa2,160(a1)
   1b1da:	0001                	nop
   1b1dc:	b1d0                	fsd	fa2,160(a1)
   1b1de:	0001                	nop
   1b1e0:	b1d8                	fsd	fa4,160(a1)
   1b1e2:	0001                	nop
   1b1e4:	b1d8                	fsd	fa4,160(a1)
   1b1e6:	0001                	nop
   1b1e8:	b1e0                	fsd	fs0,224(a1)
   1b1ea:	0001                	nop
   1b1ec:	b1e0                	fsd	fs0,224(a1)
   1b1ee:	0001                	nop
   1b1f0:	b1e8                	fsd	fa0,224(a1)
   1b1f2:	0001                	nop
   1b1f4:	b1e8                	fsd	fa0,224(a1)
   1b1f6:	0001                	nop
   1b1f8:	b1f0                	fsd	fa2,224(a1)
   1b1fa:	0001                	nop
   1b1fc:	b1f0                	fsd	fa2,224(a1)
   1b1fe:	0001                	nop
   1b200:	b1f8                	fsd	fa4,224(a1)
   1b202:	0001                	nop
   1b204:	b1f8                	fsd	fa4,224(a1)
   1b206:	0001                	nop
   1b208:	b200                	fsd	fs0,32(a2)
   1b20a:	0001                	nop
   1b20c:	b200                	fsd	fs0,32(a2)
   1b20e:	0001                	nop
   1b210:	b208                	fsd	fa0,32(a2)
   1b212:	0001                	nop
   1b214:	b208                	fsd	fa0,32(a2)
   1b216:	0001                	nop
   1b218:	b210                	fsd	fa2,32(a2)
   1b21a:	0001                	nop
   1b21c:	b210                	fsd	fa2,32(a2)
   1b21e:	0001                	nop
   1b220:	b218                	fsd	fa4,32(a2)
   1b222:	0001                	nop
   1b224:	b218                	fsd	fa4,32(a2)
   1b226:	0001                	nop
   1b228:	b220                	fsd	fs0,96(a2)
   1b22a:	0001                	nop
   1b22c:	b220                	fsd	fs0,96(a2)
   1b22e:	0001                	nop
   1b230:	b228                	fsd	fa0,96(a2)
   1b232:	0001                	nop
   1b234:	b228                	fsd	fa0,96(a2)
   1b236:	0001                	nop
   1b238:	b230                	fsd	fa2,96(a2)
   1b23a:	0001                	nop
   1b23c:	b230                	fsd	fa2,96(a2)
   1b23e:	0001                	nop
   1b240:	b238                	fsd	fa4,96(a2)
   1b242:	0001                	nop
   1b244:	b238                	fsd	fa4,96(a2)
   1b246:	0001                	nop
   1b248:	b240                	fsd	fs0,160(a2)
   1b24a:	0001                	nop
   1b24c:	b240                	fsd	fs0,160(a2)
   1b24e:	0001                	nop
   1b250:	b248                	fsd	fa0,160(a2)
   1b252:	0001                	nop
   1b254:	b248                	fsd	fa0,160(a2)
   1b256:	0001                	nop
   1b258:	b250                	fsd	fa2,160(a2)
   1b25a:	0001                	nop
   1b25c:	b250                	fsd	fa2,160(a2)
   1b25e:	0001                	nop
   1b260:	b258                	fsd	fa4,160(a2)
   1b262:	0001                	nop
   1b264:	b258                	fsd	fa4,160(a2)
   1b266:	0001                	nop
   1b268:	b260                	fsd	fs0,224(a2)
   1b26a:	0001                	nop
   1b26c:	b260                	fsd	fs0,224(a2)
   1b26e:	0001                	nop
   1b270:	b268                	fsd	fa0,224(a2)
   1b272:	0001                	nop
   1b274:	b268                	fsd	fa0,224(a2)
   1b276:	0001                	nop
   1b278:	b270                	fsd	fa2,224(a2)
   1b27a:	0001                	nop
   1b27c:	b270                	fsd	fa2,224(a2)
   1b27e:	0001                	nop
   1b280:	b278                	fsd	fa4,224(a2)
   1b282:	0001                	nop
   1b284:	b278                	fsd	fa4,224(a2)
   1b286:	0001                	nop
   1b288:	b280                	fsd	fs0,32(a3)
   1b28a:	0001                	nop
   1b28c:	b280                	fsd	fs0,32(a3)
   1b28e:	0001                	nop
   1b290:	b288                	fsd	fa0,32(a3)
   1b292:	0001                	nop
   1b294:	b288                	fsd	fa0,32(a3)
   1b296:	0001                	nop
   1b298:	b290                	fsd	fa2,32(a3)
   1b29a:	0001                	nop
   1b29c:	b290                	fsd	fa2,32(a3)
   1b29e:	0001                	nop
   1b2a0:	b298                	fsd	fa4,32(a3)
   1b2a2:	0001                	nop
   1b2a4:	b298                	fsd	fa4,32(a3)
   1b2a6:	0001                	nop
   1b2a8:	b2a0                	fsd	fs0,96(a3)
   1b2aa:	0001                	nop
   1b2ac:	b2a0                	fsd	fs0,96(a3)
   1b2ae:	0001                	nop
   1b2b0:	b2a8                	fsd	fa0,96(a3)
   1b2b2:	0001                	nop
   1b2b4:	b2a8                	fsd	fa0,96(a3)
   1b2b6:	0001                	nop
   1b2b8:	b2b0                	fsd	fa2,96(a3)
   1b2ba:	0001                	nop
   1b2bc:	b2b0                	fsd	fa2,96(a3)
   1b2be:	0001                	nop
   1b2c0:	b2b8                	fsd	fa4,96(a3)
   1b2c2:	0001                	nop
   1b2c4:	b2b8                	fsd	fa4,96(a3)
   1b2c6:	0001                	nop
   1b2c8:	b2c0                	fsd	fs0,160(a3)
   1b2ca:	0001                	nop
   1b2cc:	b2c0                	fsd	fs0,160(a3)
   1b2ce:	0001                	nop
   1b2d0:	b2c8                	fsd	fa0,160(a3)
   1b2d2:	0001                	nop
   1b2d4:	b2c8                	fsd	fa0,160(a3)
   1b2d6:	0001                	nop
   1b2d8:	b2d0                	fsd	fa2,160(a3)
   1b2da:	0001                	nop
   1b2dc:	b2d0                	fsd	fa2,160(a3)
   1b2de:	0001                	nop
   1b2e0:	b2d8                	fsd	fa4,160(a3)
   1b2e2:	0001                	nop
   1b2e4:	b2d8                	fsd	fa4,160(a3)
   1b2e6:	0001                	nop
   1b2e8:	b2e0                	fsd	fs0,224(a3)
   1b2ea:	0001                	nop
   1b2ec:	b2e0                	fsd	fs0,224(a3)
   1b2ee:	0001                	nop
   1b2f0:	b2e8                	fsd	fa0,224(a3)
   1b2f2:	0001                	nop
   1b2f4:	b2e8                	fsd	fa0,224(a3)
   1b2f6:	0001                	nop
   1b2f8:	b2f0                	fsd	fa2,224(a3)
   1b2fa:	0001                	nop
   1b2fc:	b2f0                	fsd	fa2,224(a3)
   1b2fe:	0001                	nop
   1b300:	b2f8                	fsd	fa4,224(a3)
   1b302:	0001                	nop
   1b304:	b2f8                	fsd	fa4,224(a3)
   1b306:	0001                	nop
   1b308:	b300                	fsd	fs0,32(a4)
   1b30a:	0001                	nop
   1b30c:	b300                	fsd	fs0,32(a4)
   1b30e:	0001                	nop
   1b310:	b308                	fsd	fa0,32(a4)
   1b312:	0001                	nop
   1b314:	b308                	fsd	fa0,32(a4)
   1b316:	0001                	nop
   1b318:	b310                	fsd	fa2,32(a4)
   1b31a:	0001                	nop
   1b31c:	b310                	fsd	fa2,32(a4)
   1b31e:	0001                	nop
   1b320:	b318                	fsd	fa4,32(a4)
   1b322:	0001                	nop
   1b324:	b318                	fsd	fa4,32(a4)
   1b326:	0001                	nop
   1b328:	b320                	fsd	fs0,96(a4)
   1b32a:	0001                	nop
   1b32c:	b320                	fsd	fs0,96(a4)
   1b32e:	0001                	nop
   1b330:	b328                	fsd	fa0,96(a4)
   1b332:	0001                	nop
   1b334:	b328                	fsd	fa0,96(a4)
   1b336:	0001                	nop
   1b338:	b330                	fsd	fa2,96(a4)
   1b33a:	0001                	nop
   1b33c:	b330                	fsd	fa2,96(a4)
   1b33e:	0001                	nop
   1b340:	b338                	fsd	fa4,96(a4)
   1b342:	0001                	nop
   1b344:	b338                	fsd	fa4,96(a4)
   1b346:	0001                	nop
   1b348:	b340                	fsd	fs0,160(a4)
   1b34a:	0001                	nop
   1b34c:	b340                	fsd	fs0,160(a4)
   1b34e:	0001                	nop
   1b350:	b348                	fsd	fa0,160(a4)
   1b352:	0001                	nop
   1b354:	b348                	fsd	fa0,160(a4)
   1b356:	0001                	nop
   1b358:	b350                	fsd	fa2,160(a4)
   1b35a:	0001                	nop
   1b35c:	b350                	fsd	fa2,160(a4)
   1b35e:	0001                	nop
   1b360:	b358                	fsd	fa4,160(a4)
   1b362:	0001                	nop
   1b364:	b358                	fsd	fa4,160(a4)
   1b366:	0001                	nop
   1b368:	b360                	fsd	fs0,224(a4)
   1b36a:	0001                	nop
   1b36c:	b360                	fsd	fs0,224(a4)
   1b36e:	0001                	nop
   1b370:	b368                	fsd	fa0,224(a4)
   1b372:	0001                	nop
   1b374:	b368                	fsd	fa0,224(a4)
   1b376:	0001                	nop
   1b378:	b370                	fsd	fa2,224(a4)
   1b37a:	0001                	nop
   1b37c:	b370                	fsd	fa2,224(a4)
   1b37e:	0001                	nop
   1b380:	b378                	fsd	fa4,224(a4)
   1b382:	0001                	nop
   1b384:	b378                	fsd	fa4,224(a4)
   1b386:	0001                	nop
   1b388:	b380                	fsd	fs0,32(a5)
   1b38a:	0001                	nop
   1b38c:	b380                	fsd	fs0,32(a5)
   1b38e:	0001                	nop
   1b390:	b388                	fsd	fa0,32(a5)
   1b392:	0001                	nop
   1b394:	b388                	fsd	fa0,32(a5)
   1b396:	0001                	nop
   1b398:	b390                	fsd	fa2,32(a5)
   1b39a:	0001                	nop
   1b39c:	b390                	fsd	fa2,32(a5)
   1b39e:	0001                	nop
   1b3a0:	b398                	fsd	fa4,32(a5)
   1b3a2:	0001                	nop
   1b3a4:	b398                	fsd	fa4,32(a5)
   1b3a6:	0001                	nop
   1b3a8:	b3a0                	fsd	fs0,96(a5)
   1b3aa:	0001                	nop
   1b3ac:	b3a0                	fsd	fs0,96(a5)
   1b3ae:	0001                	nop
   1b3b0:	b3a8                	fsd	fa0,96(a5)
   1b3b2:	0001                	nop
   1b3b4:	b3a8                	fsd	fa0,96(a5)
   1b3b6:	0001                	nop
   1b3b8:	b3b0                	fsd	fa2,96(a5)
   1b3ba:	0001                	nop
   1b3bc:	b3b0                	fsd	fa2,96(a5)
   1b3be:	0001                	nop
   1b3c0:	b3b8                	fsd	fa4,96(a5)
   1b3c2:	0001                	nop
   1b3c4:	b3b8                	fsd	fa4,96(a5)
   1b3c6:	0001                	nop
   1b3c8:	b3c0                	fsd	fs0,160(a5)
   1b3ca:	0001                	nop
   1b3cc:	b3c0                	fsd	fs0,160(a5)
   1b3ce:	0001                	nop
   1b3d0:	b3c8                	fsd	fa0,160(a5)
   1b3d2:	0001                	nop
   1b3d4:	b3c8                	fsd	fa0,160(a5)
   1b3d6:	0001                	nop
   1b3d8:	b3d0                	fsd	fa2,160(a5)
   1b3da:	0001                	nop
   1b3dc:	b3d0                	fsd	fa2,160(a5)
   1b3de:	0001                	nop
   1b3e0:	b3d8                	fsd	fa4,160(a5)
   1b3e2:	0001                	nop
   1b3e4:	b3d8                	fsd	fa4,160(a5)
   1b3e6:	0001                	nop
   1b3e8:	b3e0                	fsd	fs0,224(a5)
   1b3ea:	0001                	nop
   1b3ec:	b3e0                	fsd	fs0,224(a5)
   1b3ee:	0001                	nop
   1b3f0:	b3e8                	fsd	fa0,224(a5)
   1b3f2:	0001                	nop
   1b3f4:	b3e8                	fsd	fa0,224(a5)
   1b3f6:	0001                	nop

Disassembly of section .got:

0001b3f8 <.got>:
   1b3f8:	ffff                	0xffff
   1b3fa:	ffff                	0xffff
   1b3fc:	0000                	unimp
	...

0001b400 <_GLOBAL_OFFSET_TABLE_>:
   1b400:	0000                	unimp
   1b402:	0000                	unimp
   1b404:	b4b0                	fsd	fa2,104(s1)
   1b406:	0001                	nop
   1b408:	abbc                	fsd	fa5,80(a5)
   1b40a:	0001                	nop
   1b40c:	fa30                	fsw	fa2,112(a2)
   1b40e:	0001                	nop
   1b410:	b4ac                	fsd	fa1,104(s1)
   1b412:	0001                	nop
   1b414:	abc0                	fsd	fs0,144(a5)
   1b416:	0001                	nop
   1b418:	abb8                	fsd	fa4,80(a5)
   1b41a:	0001                	nop
   1b41c:	abac                	fsd	fa1,80(a5)
   1b41e:	0001                	nop
   1b420:	aba8                	fsd	fa0,80(a5)
   1b422:	0001                	nop
   1b424:	abb4                	fsd	fa3,80(a5)
   1b426:	0001                	nop

Disassembly of section .sdata:

0001b428 <__SDATA_BEGIN__>:
   1b428:	0000                	unimp
   1b42a:	ff80                	fsw	fs0,56(a5)
   1b42c:	0000                	unimp
   1b42e:	cc00                	sw	s0,24(s0)
   1b430:	0000                	unimp
   1b432:	4c00                	lw	s0,24(s0)
   1b434:	0000                	unimp
   1b436:	3f80                	fld	fs0,56(a5)
   1b438:	f7d1                	bnez	a5,1b3c4 <__malloc_av_+0x3d4>
   1b43a:	71803717          	auipc	a4,0x71803
   1b43e:	3f31                	jal	1b35a <__malloc_av_+0x36a>
   1b440:	3eaaaaab          	0x3eaaaaab
   1b444:	0000                	unimp
   1b446:	3f00                	fld	fs0,56(a4)
   1b448:	0000                	unimp
   1b44a:	4000                	lw	s0,0(s0)
   1b44c:	3e1cd04f          	fnmadd.q	ft0,fs9,ft1,ft7,unknown
   1b450:	8e29                	xor	a2,a2,a0
   1b452:	cccd3e63          	0xcccd3e63
   1b456:	3ecc                	fld	fa1,184(a3)
   1b458:	3e178897          	auipc	a7,0x3e178
   1b45c:	3325                	jal	1b184 <__malloc_av_+0x194>
   1b45e:	3e3a                	fld	ft8,424(sp)
   1b460:	4925                	li	s2,9
   1b462:	3e92                	fld	ft9,288(sp)
   1b464:	3f2aaaab          	0x3f2aaaab
   1b468:	0000                	unimp
   1b46a:	7fc0                	flw	fs0,60(a5)

0001b46c <_global_impure_ptr>:
   1b46c:	abc8                	fsd	fa0,144(a5)
   1b46e:	0001                	nop

0001b470 <_impure_ptr>:
   1b470:	abc8                	fsd	fa0,144(a5)
   1b472:	0001                	nop

0001b474 <__malloc_sbrk_base>:
   1b474:	ffff                	0xffff
   1b476:	ffff                	0xffff

0001b478 <__malloc_trim_threshold>:
   1b478:	0000                	unimp
   1b47a:	0002                	c.slli64	zero

Disassembly of section .sbss:

0001b47c <__malloc_max_total_mem>:
   1b47c:	0000                	unimp
	...

0001b480 <__malloc_max_sbrked_mem>:
   1b480:	0000                	unimp
	...

0001b484 <__malloc_top_pad>:
   1b484:	0000                	unimp
	...

0001b488 <errno>:
   1b488:	0000                	unimp
	...

Disassembly of section .bss:

0001b48c <completed.1>:
   1b48c:	0000                	unimp
	...

0001b490 <object.0>:
	...

0001b4a8 <_ZL3row>:
   1b4a8:	0000                	unimp
	...

0001b4ac <mandelbuffer>:
   1b4ac:	0000                	unimp
	...

0001b4b0 <s_filehandles>:
	...

0001fa30 <s_numhandles>:
   1fa30:	0000                	unimp
	...

0001fa34 <_ZL4Fsid>:
   1fa34:	0000                	unimp
	...

0001fa38 <_ZL5FatFs>:
	...

0001fa44 <_ZL6LfnBuf>:
	...

0001fc44 <_ZL7CurrVol>:
   1fc44:	0000                	unimp
	...

0001fc48 <__malloc_current_mallinfo>:
	...

Disassembly of section .comment:

00000000 <.comment>:
   0:	3a434347          	fmsub.d	ft6,ft6,ft4,ft7,rmm
   4:	2820                	fld	fs0,80(s0)
   6:	29554e47          	fmsub.s	ft8,fa0,fs5,ft5,rmm
   a:	3120                	fld	fs0,96(a0)
   c:	2e31                	jal	328 <main-0xfd4c>
   e:	2e31                	jal	32a <main-0xfd4a>
  10:	0030                	addi	a2,sp,8

Disassembly of section .riscv.attributes:

00000000 <.riscv.attributes>:
   0:	2941                	jal	490 <main-0xfbe4>
   2:	0000                	unimp
   4:	7200                	flw	fs0,32(a2)
   6:	7369                	lui	t1,0xffffa
   8:	01007663          	bgeu	zero,a6,14 <main-0x10060>
   c:	001f 0000 1004      	0x10040000001f
  12:	7205                	lui	tp,0xfffe1
  14:	3376                	fld	ft6,376(sp)
  16:	6932                	flw	fs2,12(sp)
  18:	7032                	flw	ft0,44(sp)
  1a:	5f30                	lw	a2,120(a4)
  1c:	326d                	jal	fffff9c6 <__BSS_END__+0xfffdfd56>
  1e:	3070                	fld	fa2,224(s0)
  20:	665f 7032 0030      	0x307032665f
  26:	0108                	addi	a0,sp,128
  28:	0b0a                	slli	s6,s6,0x2

Disassembly of section .debug_aranges:

00000000 <.debug_aranges>:
   0:	001c                	0x1c
   2:	0000                	unimp
   4:	0002                	c.slli64	zero
   6:	0000                	unimp
   8:	0000                	unimp
   a:	0004                	0x4
   c:	0000                	unimp
   e:	0000                	unimp
  10:	5e64                	lw	s1,124(a2)
  12:	0001                	nop
  14:	0430                	addi	a2,sp,520
	...
  1e:	0000                	unimp
  20:	0014                	0x14
  22:	0000                	unimp
  24:	0002                	c.slli64	zero
  26:	0761                	addi	a4,a4,24
  28:	0000                	unimp
  2a:	0004                	0x4
	...

Disassembly of section .debug_info:

00000000 <.debug_info>:
   0:	075d                	addi	a4,a4,23
   2:	0000                	unimp
   4:	0005                	c.nop	1
   6:	0401                	addi	s0,s0,0
   8:	0000                	unimp
   a:	0000                	unimp
   c:	2a11                	jal	120 <main-0xff54>
   e:	0000                	unimp
  10:	1d00                	addi	s0,sp,688
  12:	0000                	unimp
  14:	0000                	unimp
  16:	002c                	addi	a1,sp,8
  18:	0000                	unimp
  1a:	5e64                	lw	s1,124(a2)
  1c:	0001                	nop
  1e:	0430                	addi	a2,sp,520
  20:	0000                	unimp
  22:	0000                	unimp
  24:	0000                	unimp
  26:	0804                	addi	s1,sp,16
  28:	00011b07          	0x11b07
  2c:	1200                	addi	s0,sp,288
  2e:	0504                	addi	s1,sp,640
  30:	6e69                	lui	t3,0x1a
  32:	0074                	addi	a3,sp,12
  34:	0404                	addi	s1,sp,512
  36:	00012507          	flw	fa0,0(sp)
  3a:	0400                	addi	s0,sp,512
  3c:	0508                	addi	a0,sp,640
  3e:	010d                	addi	sp,sp,3
  40:	0000                	unimp
  42:	1004                	addi	s1,sp,32
  44:	c204                	sw	s1,0(a2)
  46:	0001                	nop
  48:	0400                	addi	s0,sp,512
  4a:	0601                	addi	a2,a2,0
  4c:	00000143          	fmadd.s	ft2,ft0,ft0,ft0,rne
  50:	0104                	addi	s1,sp,128
  52:	4108                	lw	a0,0(a0)
  54:	0001                	nop
  56:	0400                	addi	s0,sp,512
  58:	0502                	c.slli64	a0
  5a:	0020                	addi	s0,sp,8
  5c:	0000                	unimp
  5e:	0204                	addi	s1,sp,256
  60:	00017407          	0x17407
  64:	0400                	addi	s0,sp,512
  66:	0504                	addi	s1,sp,640
  68:	0112                	slli	sp,sp,0x4
  6a:	0000                	unimp
  6c:	0404                	addi	s1,sp,512
  6e:	00012007          	flw	ft0,0(sp)
  72:	0400                	addi	s0,sp,512
  74:	0801                	addi	a6,a6,0
  76:	014a                	slli	sp,sp,0x12
  78:	0000                	unimp
  7a:	6306                	flw	ft6,64(sp)
  7c:	0001                	nop
  7e:	7b00                	flw	fs0,48(a4)
  80:	5016                	0x5016
  82:	0000                	unimp
  84:	0900                	addi	s0,sp,144
  86:	007a                	c.slli	zero,0x1e
  88:	0000                	unimp
  8a:	cf06                	sw	ra,156(sp)
  8c:	0001                	nop
  8e:	8000                	0x8000
  90:	00002d0f          	0x2d0f
  94:	0600                	addi	s0,sp,768
  96:	01ce                	slli	gp,gp,0x13
  98:	0000                	unimp
  9a:	1681                	addi	a3,a3,-32
  9c:	0034                	addi	a3,sp,8
  9e:	0000                	unimp
  a0:	8806                	mv	a6,ra
  a2:	0001                	nop
  a4:	8400                	0x8400
  a6:	00003b0f          	0x3b0f
  aa:	0600                	addi	s0,sp,768
  ac:	00000187          	0x187
  b0:	1685                	addi	a3,a3,-31
  b2:	0026                	c.slli	zero,0x9
  b4:	0000                	unimp
  b6:	0404                	addi	s1,sp,512
  b8:	1a04                	addi	s1,sp,304
  ba:	0000                	unimp
  bc:	0400                	addi	s0,sp,512
  be:	0308                	addi	a0,sp,384
  c0:	0012                	c.slli	zero,0x4
  c2:	0000                	unimp
  c4:	0804                	addi	s1,sp,16
  c6:	c704                	sw	s1,8(a4)
  c8:	0001                	nop
  ca:	0400                	addi	s0,sp,512
  cc:	0310                	addi	a2,sp,384
  ce:	0199                	addi	gp,gp,6
  d0:	0000                	unimp
  d2:	2004                	fld	fs1,0(s0)
  d4:	0001ba03          	0x1ba03
  d8:	1300                	addi	s0,sp,416
  da:	0000016b          	0x16b
  de:	0208                	addi	a0,sp,256
  e0:	01ed                	addi	gp,gp,27
  e2:	040a                	slli	s0,s0,0x2
  e4:	0001                	nop
  e6:	1400                	addi	s0,sp,544
  e8:	6f6c                	flw	fa1,92(a4)
  ea:	ed020077          	0xed020077
  ee:	1a01                	addi	s4,s4,-32
  f0:	008a                	slli	ra,ra,0x2
  f2:	0000                	unimp
  f4:	1500                	addi	s0,sp,672
  f6:	0132                	slli	sp,sp,0xc
  f8:	0000                	unimp
  fa:	ed02                	fsw	ft0,152(sp)
  fc:	1f01                	addi	t5,t5,-32
  fe:	008a                	slli	ra,ra,0x2
 100:	0000                	unimp
 102:	0004                	0x4
 104:	0816                	slli	a6,a6,0x5
 106:	f402                	fsw	ft0,40(sp)
 108:	0901                	addi	s2,s2,0
 10a:	0124                	addi	s1,sp,136
 10c:	0000                	unimp
 10e:	730c                	flw	fa1,32(a4)
 110:	f600                	fsw	fs0,40(a2)
 112:	1301                	addi	t1,t1,-32
 114:	00d9                	addi	ra,ra,22
 116:	0000                	unimp
 118:	6c0c                	flw	fa1,24(s0)
 11a:	006c                	addi	a1,sp,12
 11c:	a00a01f7          	0xa00a01f7
 120:	0000                	unimp
 122:	0000                	unimp
 124:	00000017          	auipc	zero,0x0
 128:	0200                	addi	s0,sp,256
 12a:	01f8                	addi	a4,sp,204
 12c:	00010403          	lb	s0,0(sp)
 130:	0900                	addi	s0,sp,144
 132:	0124                	addi	s1,sp,136
 134:	0000                	unimp
 136:	8518                	0x8518
 138:	0000                	unimp
 13a:	4600                	lw	s0,8(a2)
 13c:	0001                	nop
 13e:	1900                	addi	s0,sp,176
 140:	0034                	addi	a3,sp,8
 142:	0000                	unimp
 144:	00ff                	0xff
 146:	3609                	jal	fffffc48 <__BSS_END__+0xfffdffd8>
 148:	0001                	nop
 14a:	1a00                	addi	s0,sp,304
 14c:	00000137          	lui	sp,0x0
 150:	0202                	c.slli64	tp
 152:	1602                	slli	a2,a2,0x20
 154:	0146                	slli	sp,sp,0x11
 156:	0000                	unimp
 158:	0000081b          	0x81b
 15c:	0100                	addi	s0,sp,128
 15e:	0512                	slli	a0,a0,0x4
 160:	ab01                	j	670 <main-0xfa04>
 162:	0000                	unimp
 164:	6400                	flw	fs0,8(s0)
 166:	015e                	slli	sp,sp,0x17
 168:	3000                	fld	fs0,32(s0)
 16a:	0004                	0x4
 16c:	0100                	addi	s0,sp,128
 16e:	2e9c                	fld	fa5,24(a3)
 170:	0004                	0x4
 172:	0d00                	addi	s0,sp,656
 174:	006e                	c.slli	zero,0x1b
 176:	ab14                	fsd	fa3,16(a4)
 178:	0000                	unimp
 17a:	0c00                	addi	s0,sp,528
 17c:	0000                	unimp
 17e:	0d00                	addi	s0,sp,656
 180:	0064                	addi	s1,sp,12
 182:	ab1f 0000 ed00      	0xed000000ab1f
 188:	0000                	unimp
 18a:	1c00                	addi	s0,sp,560
 18c:	042e                	slli	s0,s0,0xb
 18e:	0000                	unimp
 190:	5e64                	lw	s1,124(a2)
 192:	0001                	nop
 194:	000c                	0xc
 196:	0000                	unimp
 198:	1401                	addi	s0,s0,-32
 19a:	0a05                	addi	s4,s4,1
 19c:	500a                	0x500a
 19e:	0004                	0x4
 1a0:	7e00                	flw	fs0,56(a2)
 1a2:	0001                	nop
 1a4:	0a00                	addi	s0,sp,272
 1a6:	0448                	addi	a0,sp,516
 1a8:	0000                	unimp
 1aa:	00000197          	auipc	gp,0x0
 1ae:	400a                	0x400a
 1b0:	0004                	0x4
 1b2:	e800                	fsw	fs0,16(s0)
 1b4:	0001                	nop
 1b6:	1d00                	addi	s0,sp,688
 1b8:	0028                	addi	a0,sp,8
 1ba:	0000                	unimp
 1bc:	5908                	lw	a0,48(a0)
 1be:	0004                	0x4
 1c0:	0800                	addi	s0,sp,16
 1c2:	0464                	addi	s1,sp,524
 1c4:	0000                	unimp
 1c6:	6f08                	flw	fa0,24(a4)
 1c8:	0004                	0x4
 1ca:	0100                	addi	s0,sp,128
 1cc:	047a                	slli	s0,s0,0x1e
 1ce:	0000                	unimp
 1d0:	02b9                	addi	t0,t0,14
 1d2:	0000                	unimp
 1d4:	8501                	c.srai64	a0
 1d6:	0004                	0x4
 1d8:	3800                	fld	fs0,48(s0)
 1da:	01000003          	lb	zero,16(zero) # 10 <main-0x10064>
 1de:	0490                	addi	a2,sp,576
 1e0:	0000                	unimp
 1e2:	0000037b          	0x37b
 1e6:	9b01                	andi	a4,a4,-32
 1e8:	0004                	0x4
 1ea:	ef00                	fsw	fs0,24(a4)
 1ec:	01000003          	lb	zero,16(zero) # 10 <main-0x10064>
 1f0:	04a6                	slli	s1,s1,0x9
 1f2:	0000                	unimp
 1f4:	04b6                	slli	s1,s1,0xd
 1f6:	0000                	unimp
 1f8:	b101                	j	fffffdf8 <__BSS_END__+0xfffe0188>
 1fa:	0004                	0x4
 1fc:	cd00                	sw	s0,24(a0)
 1fe:	0004                	0x4
 200:	0100                	addi	s0,sp,128
 202:	04bc                	addi	a5,sp,584
 204:	0000                	unimp
 206:	000004ef          	jal	s1,206 <main-0xfe6e>
 20a:	c701                	beqz	a4,212 <main-0xfe62>
 20c:	0004                	0x4
 20e:	1200                	addi	s0,sp,288
 210:	0005                	c.nop	1
 212:	0100                	addi	s0,sp,128
 214:	04d1                	addi	s1,s1,20
 216:	0000                	unimp
 218:	0529                	addi	a0,a0,10
 21a:	0000                	unimp
 21c:	dc08                	sw	a0,56(s0)
 21e:	0004                	0x4
 220:	0700                	addi	s0,sp,896
 222:	000004e7          	jalr	s1,zero # 0 <main-0x10074>
 226:	004d                	c.nop	19
 228:	0000                	unimp
 22a:	0241                	addi	tp,tp,16
 22c:	0000                	unimp
 22e:	ec01                	bnez	s0,246 <main-0xfe2e>
 230:	0004                	0x4
 232:	6100                	flw	fs0,0(a0)
 234:	0005                	c.nop	1
 236:	0100                	addi	s0,sp,128
 238:	04f8                	addi	a4,sp,588
 23a:	0000                	unimp
 23c:	0596                	slli	a1,a1,0x5
 23e:	0000                	unimp
 240:	0e00                	addi	s0,sp,784
 242:	0505                	addi	a0,a0,1
 244:	0000                	unimp
 246:	5ecc                	lw	a1,60(a3)
 248:	0001                	nop
 24a:	0088                	addi	a0,sp,64
 24c:	0000                	unimp
 24e:	0292                	slli	t0,t0,0x4
 250:	0000                	unimp
 252:	0a01                	addi	s4,s4,0
 254:	0005                	c.nop	1
 256:	a200                	fsd	fs0,0(a2)
 258:	0005                	c.nop	1
 25a:	0100                	addi	s0,sp,128
 25c:	0516                	slli	a0,a0,0x5
 25e:	0000                	unimp
 260:	05ae                	slli	a1,a1,0xb
 262:	0000                	unimp
 264:	2201                	jal	364 <main-0xfd10>
 266:	0005                	c.nop	1
 268:	ba00                	fsd	fs0,48(a2)
 26a:	0005                	c.nop	1
 26c:	0100                	addi	s0,sp,128
 26e:	052e                	slli	a0,a0,0xb
 270:	0000                	unimp
 272:	05d1                	addi	a1,a1,20
 274:	0000                	unimp
 276:	3a01                	jal	fffffb86 <__BSS_END__+0xfffdff16>
 278:	0005                	c.nop	1
 27a:	e800                	fsw	fs0,16(s0)
 27c:	0005                	c.nop	1
 27e:	0100                	addi	s0,sp,128
 280:	0546                	slli	a0,a0,0x11
 282:	0000                	unimp
 284:	062c                	addi	a1,sp,776
 286:	0000                	unimp
 288:	5201                	li	tp,-32
 28a:	0005                	c.nop	1
 28c:	5300                	lw	s0,32(a4)
 28e:	0006                	c.slli	zero,0x1
 290:	0000                	unimp
 292:	00066107          	0x66107
 296:	6000                	flw	fs0,0(s0)
 298:	0000                	unimp
 29a:	5100                	lw	s0,32(a0)
 29c:	01000003          	lb	zero,16(zero) # 10 <main-0x10064>
 2a0:	0662                	slli	a2,a2,0x18
 2a2:	0000                	unimp
 2a4:	067a                	slli	a2,a2,0x1e
 2a6:	0000                	unimp
 2a8:	6d01                	0x6d01
 2aa:	0006                	c.slli	zero,0x1
 2ac:	8600                	0x8600
 2ae:	0006                	c.slli	zero,0x1
 2b0:	0700                	addi	s0,sp,896
 2b2:	0678                	addi	a4,sp,780
 2b4:	0000                	unimp
 2b6:	00000073          	ecall
 2ba:	02fe                	slli	t0,t0,0x1f
 2bc:	0000                	unimp
 2be:	7d01                	lui	s10,0xfffe0
 2c0:	0006                	c.slli	zero,0x1
 2c2:	c000                	sw	s0,0(s0)
 2c4:	0006                	c.slli	zero,0x1
 2c6:	0100                	addi	s0,sp,128
 2c8:	0689                	addi	a3,a3,2
 2ca:	0000                	unimp
 2cc:	06cc                	addi	a1,sp,836
 2ce:	0000                	unimp
 2d0:	9501                	srai	a0,a0,0x20
 2d2:	0006                	c.slli	zero,0x1
 2d4:	e900                	fsw	fs0,16(a0)
 2d6:	0006                	c.slli	zero,0x1
 2d8:	0100                	addi	s0,sp,128
 2da:	06a1                	addi	a3,a3,8
 2dc:	0000                	unimp
 2de:	0700                	addi	s0,sp,896
 2e0:	0000                	unimp
 2e2:	ad01                	j	8f2 <main-0xf782>
 2e4:	0006                	c.slli	zero,0x1
 2e6:	1700                	addi	s0,sp,928
 2e8:	01000007          	0x1000007
 2ec:	06b9                	addi	a3,a3,14
 2ee:	0000                	unimp
 2f0:	0749                	addi	a4,a4,18
 2f2:	0000                	unimp
 2f4:	c501                	beqz	a0,2fc <main-0xfd78>
 2f6:	0006                	c.slli	zero,0x1
 2f8:	7b00                	flw	fs0,48(a4)
 2fa:	00000007          	0x7
 2fe:	0006d20f          	0x6d20f
 302:	9800                	0x9800
 304:	0000                	unimp
 306:	0100                	addi	s0,sp,128
 308:	000006d7          	0x6d7
 30c:	07a2                	slli	a5,a5,0x8
 30e:	0000                	unimp
 310:	e301                	bnez	a4,310 <main-0xfd64>
 312:	0006                	c.slli	zero,0x1
 314:	ae00                	fsd	fs0,24(a2)
 316:	01000007          	0x1000007
 31a:	000006ef          	jal	a3,31a <main-0xfd5a>
 31e:	000007e7          	jalr	a5,zero # 0 <main-0x10074>
 322:	fb01                	bnez	a4,232 <main-0xfe42>
 324:	0006                	c.slli	zero,0x1
 326:	f300                	fsw	fs0,32(a4)
 328:	01000007          	0x1000007
 32c:	00000707          	0x707
 330:	07ff                	0x7ff
 332:	0000                	unimp
 334:	1301                	addi	t1,t1,-32
 336:	4b000007          	0x4b000007
 33a:	0008                	0x8
 33c:	0100                	addi	s0,sp,128
 33e:	071f 0000 0857      	0x8570000071f
 344:	0000                	unimp
 346:	2b01                	jal	856 <main-0xf81e>
 348:	81000007          	0x81000007
 34c:	0008                	0x8
 34e:	0000                	unimp
 350:	0700                	addi	s0,sp,896
 352:	055f 0000 00c6      	0xc60000055f
 358:	0000                	unimp
 35a:	0371                	addi	t1,t1,28
 35c:	0000                	unimp
 35e:	6401                	0x6401
 360:	0005                	c.nop	1
 362:	8d00                	0x8d00
 364:	0008                	0x8
 366:	0100                	addi	s0,sp,128
 368:	0570                	addi	a2,sp,652
 36a:	0000                	unimp
 36c:	08cd                	addi	a7,a7,19
 36e:	0000                	unimp
 370:	0e00                	addi	s0,sp,784
 372:	000005d7          	0x5d7
 376:	5fb0                	lw	a2,120(a5)
 378:	0001                	nop
 37a:	008c                	addi	a1,sp,64
 37c:	0000                	unimp
 37e:	03c2                	slli	t2,t2,0x10
 380:	0000                	unimp
 382:	dc01                	beqz	s0,29a <main-0xfdda>
 384:	0005                	c.nop	1
 386:	d900                	sw	s0,48(a0)
 388:	0008                	0x8
 38a:	0100                	addi	s0,sp,128
 38c:	05e8                	addi	a0,sp,716
 38e:	0000                	unimp
 390:	08e5                	addi	a7,a7,25
 392:	0000                	unimp
 394:	f401                	bnez	s0,29c <main-0xfdd8>
 396:	0005                	c.nop	1
 398:	f100                	fsw	fs0,32(a0)
 39a:	0008                	0x8
 39c:	0100                	addi	s0,sp,128
 39e:	0600                	addi	s0,sp,768
 3a0:	0000                	unimp
 3a2:	0908                	addi	a0,sp,144
 3a4:	0000                	unimp
 3a6:	0c01                	addi	s8,s8,0
 3a8:	0006                	c.slli	zero,0x1
 3aa:	1f00                	addi	s0,sp,944
 3ac:	0009                	c.nop	2
 3ae:	0100                	addi	s0,sp,128
 3b0:	0618                	addi	a4,sp,768
 3b2:	0000                	unimp
 3b4:	0951                	addi	s2,s2,20
 3b6:	0000                	unimp
 3b8:	2401                	jal	5b8 <main-0xfabc>
 3ba:	0006                	c.slli	zero,0x1
 3bc:	7800                	flw	fs0,48(s0)
 3be:	0009                	c.nop	2
 3c0:	0000                	unimp
 3c2:	00057d07          	0x57d07
 3c6:	d900                	sw	s0,48(a0)
 3c8:	0000                	unimp
 3ca:	0f00                	addi	s0,sp,912
 3cc:	0004                	0x4
 3ce:	0100                	addi	s0,sp,128
 3d0:	0582                	c.slli64	a1
 3d2:	0000                	unimp
 3d4:	099f 0000 8e01      	0x8e010000099f
 3da:	0005                	c.nop	1
 3dc:	ab00                	fsd	fs0,16(a4)
 3de:	0009                	c.nop	2
 3e0:	0100                	addi	s0,sp,128
 3e2:	059a                	slli	a1,a1,0x6
 3e4:	0000                	unimp
 3e6:	09c8                	addi	a0,sp,212
 3e8:	0000                	unimp
 3ea:	a601                	j	6ea <main-0xf98a>
 3ec:	0005                	c.nop	1
 3ee:	df00                	sw	s0,56(a4)
 3f0:	0009                	c.nop	2
 3f2:	0100                	addi	s0,sp,128
 3f4:	05b2                	slli	a1,a1,0xc
 3f6:	0000                	unimp
 3f8:	09f6                	slli	s3,s3,0x1d
 3fa:	0000                	unimp
 3fc:	be01                	j	ffffff0c <__BSS_END__+0xfffe029c>
 3fe:	0005                	c.nop	1
 400:	2800                	fld	fs0,16(s0)
 402:	000a                	c.slli	zero,0x2
 404:	0100                	addi	s0,sp,128
 406:	05ca                	slli	a1,a1,0x12
 408:	0000                	unimp
 40a:	0a5a                	slli	s4,s4,0x16
 40c:	0000                	unimp
 40e:	0f00                	addi	s0,sp,912
 410:	0631                	addi	a2,a2,12
 412:	0000                	unimp
 414:	00fe                	slli	ra,ra,0x1f
 416:	0000                	unimp
 418:	3601                	jal	ffffff18 <__BSS_END__+0xfffe02a8>
 41a:	0006                	c.slli	zero,0x1
 41c:	8100                	0x8100
 41e:	000a                	c.slli	zero,0x2
 420:	0100                	addi	s0,sp,128
 422:	0642                	slli	a2,a2,0x10
 424:	0000                	unimp
 426:	0a8d                	addi	s5,s5,3
 428:	0000                	unimp
 42a:	0000                	unimp
 42c:	0000                	unimp
 42e:	ad1e                	fsd	ft7,152(sp)
 430:	0001                	nop
 432:	0100                	addi	s0,sp,128
 434:	ab0103e3          	beq	sp,a6,fffffeda <__BSS_END__+0xfffe026a>
 438:	0000                	unimp
 43a:	0300                	addi	s0,sp,384
 43c:	075a                	slli	a4,a4,0x16
 43e:	0000                	unimp
 440:	17006e0b          	0x17006e0b
 444:	000000ab          	0xab
 448:	2200640b          	0x2200640b
 44c:	000000ab          	0xab
 450:	0070720b          	0x70720b
 454:	5a2e                	lw	s4,232(sp)
 456:	03000007          	0x3000007
 45a:	6e6e                	flw	ft8,216(sp)
 45c:	e500                	fsw	fs0,8(a0)
 45e:	01311103          	lh	sp,19(sp) # 13 <main-0x10061>
 462:	0000                	unimp
 464:	00646403          	0x646403
 468:	03e6                	slli	t2,t2,0x19
 46a:	3111                	jal	6e <main-0x10006>
 46c:	0001                	nop
 46e:	0300                	addi	s0,sp,384
 470:	7272                	flw	ft4,60(sp)
 472:	e700                	fsw	fs0,8(a4)
 474:	01240b03          	lb	s6,18(s0) # fffe3012 <__BSS_END__+0xfffc33a2>
 478:	0000                	unimp
 47a:	00306403          	0x306403
 47e:	03e8                	addi	a0,sp,460
 480:	950a                	add	a0,a0,sp
 482:	0000                	unimp
 484:	0300                	addi	s0,sp,384
 486:	3164                	fld	fs1,224(a0)
 488:	e800                	fsw	fs0,16(s0)
 48a:	00950e03          	lb	t3,9(a0)
 48e:	0000                	unimp
 490:	00306e03          	0x306e03
 494:	03e8                	addi	a0,sp,460
 496:	9512                	add	a0,a0,tp
 498:	0000                	unimp
 49a:	0300                	addi	s0,sp,384
 49c:	316e                	fld	ft2,248(sp)
 49e:	e800                	fsw	fs0,16(s0)
 4a0:	00951603          	lh	a2,9(a0)
 4a4:	0000                	unimp
 4a6:	00326e03          	0x326e03
 4aa:	03e8                	addi	a0,sp,460
 4ac:	951a                	add	a0,a0,t1
 4ae:	0000                	unimp
 4b0:	0300                	addi	s0,sp,384
 4b2:	3071                	jal	fffffd3e <__BSS_END__+0xfffe00ce>
 4b4:	e900                	fsw	fs0,16(a0)
 4b6:	00950a03          	lb	s4,9(a0)
 4ba:	0000                	unimp
 4bc:	00317103          	0x317103
 4c0:	03e9                	addi	t2,t2,26
 4c2:	950e                	add	a0,a0,gp
 4c4:	0000                	unimp
 4c6:	0300                	addi	s0,sp,384
 4c8:	0062                	c.slli	zero,0x18
 4ca:	03ea                	slli	t2,t2,0x1a
 4cc:	950a                	add	a0,a0,sp
 4ce:	0000                	unimp
 4d0:	0300                	addi	s0,sp,384
 4d2:	6d62                	flw	fs10,24(sp)
 4d4:	ea00                	fsw	fs0,16(a2)
 4d6:	00950d03          	lb	s10,9(a0)
 4da:	0000                	unimp
 4dc:	00777703          	0x777703
 4e0:	311104b3          	0x311104b3
 4e4:	0001                	nop
 4e6:	0500                	addi	s0,sp,640
 4e8:	0505                	addi	a0,a0,1
 4ea:	0000                	unimp
 4ec:	a802                	fsd	ft0,16(sp)
 4ee:	0001                	nop
 4f0:	1a00                	addi	s0,sp,304
 4f2:	0404                	addi	s1,sp,512
 4f4:	0095                	addi	ra,ra,5
 4f6:	0000                	unimp
 4f8:	615f5f03          	lhu	t5,1557(t5)
 4fc:	1a00                	addi	s0,sp,304
 4fe:	0404                	addi	s1,sp,512
 500:	0095                	addi	ra,ra,5
 502:	0000                	unimp
 504:	0500                	addi	s0,sp,640
 506:	055f 0000 fe02      	0xfe020000055f
 50c:	0000                	unimp
 50e:	2600                	fld	fs0,8(a2)
 510:	0404                	addi	s1,sp,512
 512:	0095                	addi	ra,ra,5
 514:	0000                	unimp
 516:	f902                	fsw	ft0,176(sp)
 518:	0000                	unimp
 51a:	2600                	fld	fs0,8(a2)
 51c:	0404                	addi	s1,sp,512
 51e:	0095                	addi	ra,ra,5
 520:	0000                	unimp
 522:	9402                	jalr	s0
 524:	0001                	nop
 526:	2600                	fld	fs0,8(a2)
 528:	0404                	addi	s1,sp,512
 52a:	0095                	addi	ra,ra,5
 52c:	0000                	unimp
 52e:	8f02                	jr	t5
 530:	0001                	nop
 532:	2600                	fld	fs0,8(a2)
 534:	0404                	addi	s1,sp,512
 536:	0095                	addi	ra,ra,5
 538:	0000                	unimp
 53a:	db02                	sw	zero,180(sp)
 53c:	0001                	nop
 53e:	2600                	fld	fs0,8(a2)
 540:	0404                	addi	s1,sp,512
 542:	0095                	addi	ra,ra,5
 544:	0000                	unimp
 546:	d602                	sw	zero,44(sp)
 548:	0001                	nop
 54a:	2600                	fld	fs0,8(a2)
 54c:	0404                	addi	s1,sp,512
 54e:	0095                	addi	ra,ra,5
 550:	0000                	unimp
 552:	6d5f5f03          	lhu	t5,1749(t5)
 556:	2600                	fld	fs0,8(a2)
 558:	0404                	addi	s1,sp,512
 55a:	0095                	addi	ra,ra,5
 55c:	0000                	unimp
 55e:	0500                	addi	s0,sp,640
 560:	057d                	addi	a0,a0,31
 562:	0000                	unimp
 564:	a802                	fsd	ft0,16(sp)
 566:	0001                	nop
 568:	3200                	fld	fs0,32(a2)
 56a:	0404                	addi	s1,sp,512
 56c:	0095                	addi	ra,ra,5
 56e:	0000                	unimp
 570:	615f5f03          	lhu	t5,1557(t5)
 574:	3200                	fld	fs0,32(a2)
 576:	0404                	addi	s1,sp,512
 578:	0095                	addi	ra,ra,5
 57a:	0000                	unimp
 57c:	0500                	addi	s0,sp,640
 57e:	000005d7          	0x5d7
 582:	fe02                	fsw	ft0,60(sp)
 584:	0000                	unimp
 586:	4b00                	lw	s0,16(a4)
 588:	0804                	addi	s1,sp,16
 58a:	0095                	addi	ra,ra,5
 58c:	0000                	unimp
 58e:	f902                	fsw	ft0,176(sp)
 590:	0000                	unimp
 592:	4b00                	lw	s0,16(a4)
 594:	0804                	addi	s1,sp,16
 596:	0095                	addi	ra,ra,5
 598:	0000                	unimp
 59a:	9402                	jalr	s0
 59c:	0001                	nop
 59e:	4b00                	lw	s0,16(a4)
 5a0:	0804                	addi	s1,sp,16
 5a2:	0095                	addi	ra,ra,5
 5a4:	0000                	unimp
 5a6:	8f02                	jr	t5
 5a8:	0001                	nop
 5aa:	4b00                	lw	s0,16(a4)
 5ac:	0804                	addi	s1,sp,16
 5ae:	0095                	addi	ra,ra,5
 5b0:	0000                	unimp
 5b2:	db02                	sw	zero,180(sp)
 5b4:	0001                	nop
 5b6:	4b00                	lw	s0,16(a4)
 5b8:	0804                	addi	s1,sp,16
 5ba:	0095                	addi	ra,ra,5
 5bc:	0000                	unimp
 5be:	d602                	sw	zero,44(sp)
 5c0:	0001                	nop
 5c2:	4b00                	lw	s0,16(a4)
 5c4:	0804                	addi	s1,sp,16
 5c6:	0095                	addi	ra,ra,5
 5c8:	0000                	unimp
 5ca:	6d5f5f03          	lhu	t5,1749(t5)
 5ce:	4b00                	lw	s0,16(a4)
 5d0:	0804                	addi	s1,sp,16
 5d2:	0095                	addi	ra,ra,5
 5d4:	0000                	unimp
 5d6:	0500                	addi	s0,sp,640
 5d8:	0631                	addi	a2,a2,12
 5da:	0000                	unimp
 5dc:	fe02                	fsw	ft0,60(sp)
 5de:	0000                	unimp
 5e0:	5000                	lw	s0,32(s0)
 5e2:	0404                	addi	s1,sp,512
 5e4:	0095                	addi	ra,ra,5
 5e6:	0000                	unimp
 5e8:	f902                	fsw	ft0,176(sp)
 5ea:	0000                	unimp
 5ec:	5000                	lw	s0,32(s0)
 5ee:	0404                	addi	s1,sp,512
 5f0:	0095                	addi	ra,ra,5
 5f2:	0000                	unimp
 5f4:	9402                	jalr	s0
 5f6:	0001                	nop
 5f8:	5000                	lw	s0,32(s0)
 5fa:	0404                	addi	s1,sp,512
 5fc:	0095                	addi	ra,ra,5
 5fe:	0000                	unimp
 600:	8f02                	jr	t5
 602:	0001                	nop
 604:	5000                	lw	s0,32(s0)
 606:	0404                	addi	s1,sp,512
 608:	0095                	addi	ra,ra,5
 60a:	0000                	unimp
 60c:	db02                	sw	zero,180(sp)
 60e:	0001                	nop
 610:	5000                	lw	s0,32(s0)
 612:	0404                	addi	s1,sp,512
 614:	0095                	addi	ra,ra,5
 616:	0000                	unimp
 618:	d602                	sw	zero,44(sp)
 61a:	0001                	nop
 61c:	5000                	lw	s0,32(s0)
 61e:	0404                	addi	s1,sp,512
 620:	0095                	addi	ra,ra,5
 622:	0000                	unimp
 624:	6d5f5f03          	lhu	t5,1749(t5)
 628:	5000                	lw	s0,32(s0)
 62a:	0404                	addi	s1,sp,512
 62c:	0095                	addi	ra,ra,5
 62e:	0000                	unimp
 630:	0500                	addi	s0,sp,640
 632:	0000064f          	fnmadd.s	fa2,ft0,ft0,ft0,rne
 636:	a802                	fsd	ft0,16(sp)
 638:	0001                	nop
 63a:	7300                	flw	fs0,32(a4)
 63c:	0404                	addi	s1,sp,512
 63e:	0095                	addi	ra,ra,5
 640:	0000                	unimp
 642:	615f5f03          	lhu	t5,1557(t5)
 646:	7300                	flw	fs0,32(a4)
 648:	0404                	addi	s1,sp,512
 64a:	0095                	addi	ra,ra,5
 64c:	0000                	unimp
 64e:	0500                	addi	s0,sp,640
 650:	0661                	addi	a2,a2,24
 652:	0000                	unimp
 654:	785f5f03          	lhu	t5,1925(t5)
 658:	8100                	0x8100
 65a:	0504                	addi	s1,sp,640
 65c:	0095                	addi	ra,ra,5
 65e:	0000                	unimp
 660:	1000                	addi	s0,sp,32
 662:	00316d03          	0x316d03
 666:	0491                	addi	s1,s1,4
 668:	0000950f          	0x950f
 66c:	0300                	addi	s0,sp,384
 66e:	306d                	jal	ffffff18 <__BSS_END__+0xfffe02a8>
 670:	9100                	0x9100
 672:	1304                	addi	s1,sp,416
 674:	0095                	addi	ra,ra,5
 676:	0000                	unimp
 678:	d205                	beqz	a2,598 <main-0xfadc>
 67a:	0006                	c.slli	zero,0x1
 67c:	0200                	addi	s0,sp,256
 67e:	00fe                	slli	ra,ra,0x1f
 680:	0000                	unimp
 682:	049c                	addi	a5,sp,576
 684:	9508                	0x9508
 686:	0000                	unimp
 688:	0200                	addi	s0,sp,256
 68a:	00f9                	addi	ra,ra,30
 68c:	0000                	unimp
 68e:	049c                	addi	a5,sp,576
 690:	9508                	0x9508
 692:	0000                	unimp
 694:	0200                	addi	s0,sp,256
 696:	0194                	addi	a3,sp,192
 698:	0000                	unimp
 69a:	049c                	addi	a5,sp,576
 69c:	9508                	0x9508
 69e:	0000                	unimp
 6a0:	0200                	addi	s0,sp,256
 6a2:	0000018f          	0x18f
 6a6:	049c                	addi	a5,sp,576
 6a8:	9508                	0x9508
 6aa:	0000                	unimp
 6ac:	0200                	addi	s0,sp,256
 6ae:	000001db          	0x1db
 6b2:	049c                	addi	a5,sp,576
 6b4:	9508                	0x9508
 6b6:	0000                	unimp
 6b8:	0200                	addi	s0,sp,256
 6ba:	01d6                	slli	gp,gp,0x15
 6bc:	0000                	unimp
 6be:	049c                	addi	a5,sp,576
 6c0:	9508                	0x9508
 6c2:	0000                	unimp
 6c4:	0300                	addi	s0,sp,384
 6c6:	5f5f 006d 049c      	0x49c006d5f5f
 6cc:	9508                	0x9508
 6ce:	0000                	unimp
 6d0:	0000                	unimp
 6d2:	3805                	jal	ffffff02 <__BSS_END__+0xfffe0292>
 6d4:	02000007          	0x2000007
 6d8:	0000014f          	fnmadd.s	ft2,ft0,ft0,ft0,rne
 6dc:	049d                	addi	s1,s1,7
 6de:	9508                	0x9508
 6e0:	0000                	unimp
 6e2:	0200                	addi	s0,sp,256
 6e4:	0154                	addi	a3,sp,132
 6e6:	0000                	unimp
 6e8:	049d                	addi	s1,s1,7
 6ea:	9508                	0x9508
 6ec:	0000                	unimp
 6ee:	0200                	addi	s0,sp,256
 6f0:	0159                	addi	sp,sp,22
 6f2:	0000                	unimp
 6f4:	049d                	addi	s1,s1,7
 6f6:	9508                	0x9508
 6f8:	0000                	unimp
 6fa:	0200                	addi	s0,sp,256
 6fc:	015e                	slli	sp,sp,0x17
 6fe:	0000                	unimp
 700:	049d                	addi	s1,s1,7
 702:	9508                	0x9508
 704:	0000                	unimp
 706:	0200                	addi	s0,sp,256
 708:	01e5                	addi	gp,gp,25
 70a:	0000                	unimp
 70c:	049d                	addi	s1,s1,7
 70e:	9508                	0x9508
 710:	0000                	unimp
 712:	0200                	addi	s0,sp,256
 714:	0108                	addi	a0,sp,128
 716:	0000                	unimp
 718:	049d                	addi	s1,s1,7
 71a:	9508                	0x9508
 71c:	0000                	unimp
 71e:	0200                	addi	s0,sp,256
 720:	01e0                	addi	s0,sp,204
 722:	0000                	unimp
 724:	049d                	addi	s1,s1,7
 726:	9508                	0x9508
 728:	0000                	unimp
 72a:	0200                	addi	s0,sp,256
 72c:	00000103          	lb	sp,0(zero) # 0 <main-0x10074>
 730:	049d                	addi	s1,s1,7
 732:	9508                	0x9508
 734:	0000                	unimp
 736:	0000                	unimp
 738:	4a05                	li	s4,1
 73a:	03000007          	0x3000007
 73e:	5f5f 0078 04a2      	0x4a200785f5f
 744:	9505                	srai	a0,a0,0x21
 746:	0000                	unimp
 748:	0000                	unimp
 74a:	0310                	addi	a2,sp,384
 74c:	5f5f 0078 04aa      	0x4aa00785f5f
 752:	9505                	srai	a0,a0,0x21
 754:	0000                	unimp
 756:	0000                	unimp
 758:	0000                	unimp
 75a:	041f 00ab 0000      	0xab041f
 760:	d400                	sw	s0,40(s0)
 762:	0000                	unimp
 764:	0500                	addi	s0,sp,640
 766:	0100                	addi	s0,sp,128
 768:	a604                	fsd	fs1,8(a2)
 76a:	0001                	nop
 76c:	0300                	addi	s0,sp,384
 76e:	01ea                	slli	gp,gp,0x1a
 770:	0000                	unimp
 772:	001d                	c.nop	7
 774:	0000                	unimp
 776:	2c00                	fld	fs0,24(s0)
 778:	0000                	unimp
 77a:	2700                	fld	fs0,8(a4)
 77c:	04000007          	0x4000007
 780:	0504                	addi	s1,sp,640
 782:	6e69                	lui	t3,0x1a
 784:	0074                	addi	a3,sp,12
 786:	0401                	addi	s0,s0,0
 788:	00012507          	flw	fa0,0(sp)
 78c:	0100                	addi	s0,sp,128
 78e:	0508                	addi	a0,sp,640
 790:	010d                	addi	sp,sp,3
 792:	0000                	unimp
 794:	1001                	c.nop	-32
 796:	c204                	sw	s1,0(a2)
 798:	0001                	nop
 79a:	0100                	addi	s0,sp,128
 79c:	0601                	addi	a2,a2,0
 79e:	00000143          	fmadd.s	ft2,ft0,ft0,ft0,rne
 7a2:	0101                	addi	sp,sp,0
 7a4:	4108                	lw	a0,0(a0)
 7a6:	0001                	nop
 7a8:	0100                	addi	s0,sp,128
 7aa:	0502                	c.slli64	a0
 7ac:	0020                	addi	s0,sp,8
 7ae:	0000                	unimp
 7b0:	0201                	addi	tp,tp,0
 7b2:	00017407          	0x17407
 7b6:	0100                	addi	s0,sp,128
 7b8:	0504                	addi	s1,sp,640
 7ba:	0112                	slli	sp,sp,0x4
 7bc:	0000                	unimp
 7be:	0401                	addi	s0,s0,0
 7c0:	00012007          	flw	ft0,0(sp)
 7c4:	0100                	addi	s0,sp,128
 7c6:	0708                	addi	a0,sp,896
 7c8:	0000011b          	0x11b
 7cc:	0101                	addi	sp,sp,0
 7ce:	4a08                	lw	a0,16(a2)
 7d0:	0001                	nop
 7d2:	0500                	addi	s0,sp,640
 7d4:	00000163          	beqz	zero,7d6 <main-0xf89e>
 7d8:	7b01                	lui	s6,0xfffe0
 7da:	4116                	lw	sp,68(sp)
 7dc:	0000                	unimp
 7de:	0200                	addi	s0,sp,256
 7e0:	0072                	c.slli	zero,0x1c
 7e2:	0000                	unimp
 7e4:	0401                	addi	s0,s0,0
 7e6:	1a04                	addi	s1,sp,304
 7e8:	0000                	unimp
 7ea:	0100                	addi	s0,sp,128
 7ec:	0308                	addi	a0,sp,384
 7ee:	0012                	c.slli	zero,0x4
 7f0:	0000                	unimp
 7f2:	0801                	addi	a6,a6,0
 7f4:	c704                	sw	s1,8(a4)
 7f6:	0001                	nop
 7f8:	0100                	addi	s0,sp,128
 7fa:	0310                	addi	a2,sp,384
 7fc:	0199                	addi	gp,gp,6
 7fe:	0000                	unimp
 800:	2001                	jal	800 <main-0xf874>
 802:	0001ba03          	0x1ba03
 806:	0600                	addi	s0,sp,768
 808:	007e                	c.slli	zero,0x1f
 80a:	0000                	unimp
 80c:	00b6                	slli	ra,ra,0xd
 80e:	0000                	unimp
 810:	00002507          	flw	fa0,0(zero) # 0 <main-0x10074>
 814:	ff00                	fsw	fs0,56(a4)
 816:	0200                	addi	s0,sp,256
 818:	00a6                	slli	ra,ra,0x9
 81a:	0000                	unimp
 81c:	3708                	fld	fa0,40(a4)
 81e:	0001                	nop
 820:	0100                	addi	s0,sp,128
 822:	0202                	c.slli64	tp
 824:	b616                	fsd	ft5,296(sp)
 826:	0000                	unimp
 828:	0900                	addi	s0,sp,144
 82a:	000000bb          	0xbb
 82e:	9e02                	jalr	t3
 830:	0f02                	c.slli64	t5
 832:	0305                	addi	t1,t1,1
 834:	9724                	0x9724
 836:	0001                	nop
	...

Disassembly of section .debug_abbrev:

00000000 <.debug_abbrev>:
   0:	3401                	jal	fffffa00 <__BSS_END__+0xfffdfd90>
   2:	3100                	fld	fs0,32(a0)
   4:	00170213          	addi	tp,a4,1 # 7181e43b <__BSS_END__+0x717fe7cb>
   8:	0200                	addi	s0,sp,256
   a:	0034                	addi	a3,sp,8
   c:	213a0e03          	lb	t3,531(s4)
  10:	3b01                	jal	fffffd20 <__BSS_END__+0xfffe00b0>
  12:	3905                	jal	fffffc42 <__BSS_END__+0xfffdffd2>
  14:	0013490b          	0x13490b
  18:	0300                	addi	s0,sp,384
  1a:	0034                	addi	a3,sp,8
  1c:	213a0803          	lb	a6,531(s4)
  20:	3b01                	jal	fffffd30 <__BSS_END__+0xfffe00c0>
  22:	3905                	jal	fffffc52 <__BSS_END__+0xfffdffe2>
  24:	0013490b          	0x13490b
  28:	0400                	addi	s0,sp,512
  2a:	0024                	addi	s1,sp,8
  2c:	0b3e0b0b          	0xb3e0b0b
  30:	00000e03          	lb	t3,0(zero) # 0 <main-0x10074>
  34:	0b05                	addi	s6,s6,1
  36:	0101                	addi	sp,sp,0
  38:	06000013          	li	zero,96
  3c:	0016                	c.slli	zero,0x5
  3e:	213a0e03          	lb	t3,531(s4)
  42:	3b02                	fld	fs6,32(sp)
  44:	490b390b          	0x490b390b
  48:	07000013          	li	zero,112
  4c:	1331010b          	0x1331010b
  50:	1755                	addi	a4,a4,-11
  52:	1301                	addi	t1,t1,-32
  54:	0000                	unimp
  56:	3408                	fld	fa0,40(s0)
  58:	3100                	fld	fs0,32(a0)
  5a:	09000013          	li	zero,144
  5e:	0026                	c.slli	zero,0x9
  60:	1349                	addi	t1,t1,-14
  62:	0000                	unimp
  64:	050a                	slli	a0,a0,0x2
  66:	3100                	fld	fs0,32(a0)
  68:	00170213          	addi	tp,a4,1
  6c:	0b00                	addi	s0,sp,400
  6e:	0005                	c.nop	1
  70:	213a0803          	lb	a6,531(s4)
  74:	3b01                	jal	fffffd84 <__BSS_END__+0xfffe0114>
  76:	e321                	bnez	a4,b6 <main-0xffbe>
  78:	490b3907          	fld	fs2,1168(s6) # fffe0490 <__BSS_END__+0xfffc0820>
  7c:	0c000013          	li	zero,192
  80:	000d                	c.nop	3
  82:	213a0803          	lb	a6,531(s4)
  86:	3b02                	fld	fs6,32(sp)
  88:	3905                	jal	fffffcb8 <__BSS_END__+0xfffe0048>
  8a:	0013490b          	0x13490b
  8e:	0d00                	addi	s0,sp,656
  90:	0005                	c.nop	1
  92:	213a0803          	lb	a6,531(s4)
  96:	3b01                	jal	fffffda6 <__BSS_END__+0xfffe0136>
  98:	9221                	srli	a2,a2,0x28
  9a:	390a                	fld	fs2,160(sp)
  9c:	0213490b          	0x213490b
  a0:	0e000017          	auipc	zero,0xe000
  a4:	1331010b          	0x1331010b
  a8:	0111                	addi	sp,sp,4
  aa:	0612                	slli	a2,a2,0x4
  ac:	1301                	addi	t1,t1,-32
  ae:	0000                	unimp
  b0:	31010b0f          	0x31010b0f
  b4:	00175513          	srli	a0,a4,0x1
  b8:	1000                	addi	s0,sp,32
  ba:	0000010b          	0x10b
  be:	1111                	addi	sp,sp,-28
  c0:	2501                	jal	6c0 <main-0xf9b4>
  c2:	130e                	slli	t1,t1,0x23
  c4:	1b1f030b          	0x1b1f030b
  c8:	111f 1201 1006      	0x10061201111f
  ce:	12000017          	auipc	zero,0x12000
  d2:	0024                	addi	s1,sp,8
  d4:	0b3e0b0b          	0xb3e0b0b
  d8:	00000803          	lb	a6,0(zero) # 0 <main-0x10074>
  dc:	03011313          	slli	t1,sp,0x30
  e0:	0b0e                	slli	s6,s6,0x3
  e2:	3b0b3a0b          	0x3b0b3a0b
  e6:	3905                	jal	fffffd16 <__BSS_END__+0xfffe00a6>
  e8:	0013010b          	0x13010b
  ec:	1400                	addi	s0,sp,544
  ee:	000d                	c.nop	3
  f0:	0b3a0803          	lb	a6,179(s4)
  f4:	0b39053b          	0xb39053b
  f8:	1349                	addi	t1,t1,-14
  fa:	0b38                	addi	a4,sp,408
  fc:	0000                	unimp
  fe:	0d15                	addi	s10,s10,5
 100:	0300                	addi	s0,sp,384
 102:	3a0e                	fld	fs4,224(sp)
 104:	39053b0b          	0x39053b0b
 108:	3813490b          	0x3813490b
 10c:	1600000b          	0x1600000b
 110:	0b0b0117          	auipc	sp,0xb0b0
 114:	0b3a                	slli	s6,s6,0xe
 116:	0b39053b          	0xb39053b
 11a:	1301                	addi	t1,t1,-32
 11c:	0000                	unimp
 11e:	03001617          	auipc	a2,0x3001
 122:	3a0e                	fld	fs4,224(sp)
 124:	39053b0b          	0x39053b0b
 128:	0013490b          	0x13490b
 12c:	1800                	addi	s0,sp,48
 12e:	0101                	addi	sp,sp,0
 130:	1349                	addi	t1,t1,-14
 132:	1301                	addi	t1,t1,-32
 134:	0000                	unimp
 136:	2119                	jal	53c <main-0xfb38>
 138:	4900                	lw	s0,16(a0)
 13a:	000b2f13          	slti	t5,s6,0
 13e:	1a00                	addi	s0,sp,304
 140:	0034                	addi	a3,sp,8
 142:	0b3a0e03          	lb	t3,179(s4)
 146:	0b39053b          	0xb39053b
 14a:	1349                	addi	t1,t1,-14
 14c:	193c193f 2e1b0000 	0x2e1b0000193c193f
 154:	3f01                	jal	64 <main-0x10010>
 156:	0319                	addi	t1,t1,6
 158:	3a0e                	fld	fs4,224(sp)
 15a:	39053b0b          	0x39053b0b
 15e:	4919270b          	0x4919270b
 162:	12011113          	0x12011113
 166:	4006                	0x4006
 168:	7a18                	flw	fa4,48(a2)
 16a:	0119                	addi	sp,sp,6
 16c:	1c000013          	li	zero,448
 170:	011d                	addi	sp,sp,7
 172:	1331                	addi	t1,t1,-20
 174:	0152                	slli	sp,sp,0x14
 176:	1755                	addi	a4,a4,-11
 178:	0b58                	addi	a4,sp,404
 17a:	0559                	addi	a0,a0,22
 17c:	00000b57          	0xb57
 180:	0b1d                	addi	s6,s6,7
 182:	5501                	li	a0,-32
 184:	1e000017          	auipc	zero,0x1e000
 188:	012e                	slli	sp,sp,0xb
 18a:	0b3a0e03          	lb	t3,179(s4)
 18e:	0b39053b          	0xb39053b
 192:	13491927          	0x13491927
 196:	0b20                	addi	s0,sp,408
 198:	1301                	addi	t1,t1,-32
 19a:	0000                	unimp
 19c:	0f1f 0b00 490b      	0x490b0b000f1f
 1a2:	00000013          	nop
 1a6:	2401                	jal	3a6 <main-0xfcce>
 1a8:	0b00                	addi	s0,sp,400
 1aa:	030b3e0b          	0x30b3e0b
 1ae:	000e                	c.slli	zero,0x3
 1b0:	0200                	addi	s0,sp,256
 1b2:	0026                	c.slli	zero,0x9
 1b4:	1349                	addi	t1,t1,-14
 1b6:	0000                	unimp
 1b8:	25011103          	lh	sp,592(sp) # b0b0360 <__BSS_END__+0xb0906f0>
 1bc:	130e                	slli	t1,t1,0x23
 1be:	1b1f030b          	0x1b1f030b
 1c2:	101f 0017 0400      	0x4000017101f
 1c8:	0024                	addi	s1,sp,8
 1ca:	0b3e0b0b          	0xb3e0b0b
 1ce:	00000803          	lb	a6,0(zero) # 0 <main-0x10074>
 1d2:	1605                	addi	a2,a2,-31
 1d4:	0300                	addi	s0,sp,384
 1d6:	3a0e                	fld	fs4,224(sp)
 1d8:	390b3b0b          	0x390b3b0b
 1dc:	0013490b          	0x13490b
 1e0:	0600                	addi	s0,sp,768
 1e2:	0101                	addi	sp,sp,0
 1e4:	1349                	addi	t1,t1,-14
 1e6:	1301                	addi	t1,t1,-32
 1e8:	0000                	unimp
 1ea:	49002107          	flw	ft2,1168(zero) # 490 <main-0xfbe4>
 1ee:	000b2f13          	slti	t5,s6,0
 1f2:	0800                	addi	s0,sp,16
 1f4:	0034                	addi	a3,sp,8
 1f6:	0b3a0e03          	lb	t3,179(s4)
 1fa:	0b39053b          	0xb39053b
 1fe:	1349                	addi	t1,t1,-14
 200:	193c193f 34090000 	0x34090000193c193f
 208:	4700                	lw	s0,8(a4)
 20a:	3b0b3a13          	sltiu	s4,s6,944
 20e:	3905                	jal	fffffe3e <__BSS_END__+0xfffe01ce>
 210:	0018020b          	0x18020b
	...

Disassembly of section .debug_line:

00000000 <.debug_line>:
   0:	00000723          	sb	zero,14(zero) # e <main-0x10066>
   4:	0005                	c.nop	1
   6:	0004                	0x4
   8:	00000033          	add	zero,zero,zero
   c:	0101                	addi	sp,sp,0
   e:	fb01                	bnez	a4,ffffff1e <__BSS_END__+0xfffe02ae>
  10:	0d0e                	slli	s10,s10,0x3
  12:	0100                	addi	s0,sp,128
  14:	0101                	addi	sp,sp,0
  16:	0001                	nop
  18:	0000                	unimp
  1a:	0001                	nop
  1c:	0100                	addi	s0,sp,128
  1e:	0101                	addi	sp,sp,0
  20:	021f 002c 0000      	0x2c021f
  26:	008e                	slli	ra,ra,0x3
  28:	0000                	unimp
  2a:	0102                	c.slli64	sp
  2c:	021f 030f 0000      	0x30f021f
  32:	0000                	unimp
  34:	2200                	fld	fs0,0(a2)
  36:	0000                	unimp
  38:	0100                	addi	s0,sp,128
  3a:	00b0                	addi	a2,sp,72
  3c:	0000                	unimp
  3e:	0501                	addi	a0,a0,0
  40:	0001                	nop
  42:	0205                	addi	tp,tp,1
  44:	5e64                	lw	s1,124(a2)
  46:	0001                	nop
  48:	010a9203          	lh	tp,16(s5)
  4c:	0305                	addi	t1,t1,1
  4e:	00090103          	lb	sp,0(s2)
  52:	0100                	addi	s0,sp,128
  54:	097dd103          	lhu	sp,151(s11)
  58:	0000                	unimp
  5a:	0301                	addi	t1,t1,0
  5c:	0901                	addi	s2,s2,0
  5e:	0000                	unimp
  60:	0301                	addi	t1,t1,0
  62:	0901                	addi	s2,s2,0
  64:	0000                	unimp
  66:	0301                	addi	t1,t1,0
  68:	0901                	addi	s2,s2,0
  6a:	0000                	unimp
  6c:	0301                	addi	t1,t1,0
  6e:	0901                	addi	s2,s2,0
  70:	0000                	unimp
  72:	0301                	addi	t1,t1,0
  74:	0901                	addi	s2,s2,0
  76:	0000                	unimp
  78:	0301                	addi	t1,t1,0
  7a:	0902                	c.slli64	s2
  7c:	0000                	unimp
  7e:	0501                	addi	a0,a0,0
  80:	0601                	addi	a2,a2,0
  82:	0902a703          	lw	a4,144(t0) # 17088 <strchr+0x4>
  86:	0000                	unimp
  88:	0501                	addi	a0,a0,0
  8a:	0306                	slli	t1,t1,0x1
  8c:	7dd9                	lui	s11,0xffff6
  8e:	0809                	addi	a6,a6,2
  90:	0100                	addi	s0,sp,128
  92:	0305                	addi	t1,t1,1
  94:	0306                	slli	t1,t1,0x1
  96:	0901                	addi	s2,s2,0
  98:	0004                	0x4
  9a:	0301                	addi	t1,t1,0
  9c:	0901                	addi	s2,s2,0
  9e:	0000                	unimp
  a0:	0501                	addi	a0,a0,0
  a2:	0606                	slli	a2,a2,0x1
  a4:	00090003          	lb	zero,0(s2)
  a8:	0100                	addi	s0,sp,128
  aa:	0305                	addi	t1,t1,1
  ac:	0306                	slli	t1,t1,0x1
  ae:	0901                	addi	s2,s2,0
  b0:	0004                	0x4
  b2:	0501                	addi	a0,a0,0
  b4:	0606                	slli	a2,a2,0x1
  b6:	00090003          	lb	zero,0(s2)
  ba:	0100                	addi	s0,sp,128
  bc:	0305                	addi	t1,t1,1
  be:	0306                	slli	t1,t1,0x1
  c0:	0925                	addi	s2,s2,9
  c2:	0004                	0x4
  c4:	0501                	addi	a0,a0,0
  c6:	0606                	slli	a2,a2,0x1
  c8:	00090003          	lb	zero,0(s2)
  cc:	0100                	addi	s0,sp,128
  ce:	0705                	addi	a4,a4,1
  d0:	0306                	slli	t1,t1,0x1
  d2:	0902                	c.slli64	s2
  d4:	0004                	0x4
  d6:	0501                	addi	a0,a0,0
  d8:	060a                	slli	a2,a2,0x2
  da:	08090003          	lb	zero,128(s2)
  de:	0100                	addi	s0,sp,128
  e0:	0405                	addi	s0,s0,1
  e2:	0306                	slli	t1,t1,0x1
  e4:	0904                	addi	s1,sp,144
  e6:	0004                	0x4
  e8:	0301                	addi	t1,t1,0
  ea:	0900                	addi	s0,sp,144
  ec:	0000                	unimp
  ee:	0301                	addi	t1,t1,0
  f0:	0900                	addi	s0,sp,144
  f2:	0000                	unimp
  f4:	0301                	addi	t1,t1,0
  f6:	0900                	addi	s0,sp,144
  f8:	0000                	unimp
  fa:	0301                	addi	t1,t1,0
  fc:	0900                	addi	s0,sp,144
  fe:	0000                	unimp
 100:	0301                	addi	t1,t1,0
 102:	0900                	addi	s0,sp,144
 104:	0014                	0x14
 106:	0301                	addi	t1,t1,0
 108:	0900                	addi	s0,sp,144
 10a:	0018                	0x18
 10c:	0301                	addi	t1,t1,0
 10e:	0902                	c.slli64	s2
 110:	0000                	unimp
 112:	0501                	addi	a0,a0,0
 114:	00030607          	0x30607
 118:	0009                	c.nop	2
 11a:	0100                	addi	s0,sp,128
 11c:	0805                	addi	a6,a6,1
 11e:	0306                	slli	t1,t1,0x1
 120:	0905                	addi	s2,s2,1
 122:	0004                	0x4
 124:	0501                	addi	a0,a0,0
 126:	0611                	addi	a2,a2,4
 128:	00090103          	lb	sp,0(s2)
 12c:	0100                	addi	s0,sp,128
 12e:	1e05                	addi	t3,t3,-31
 130:	04090003          	lb	zero,64(s2)
 134:	0100                	addi	s0,sp,128
 136:	0b05                	addi	s6,s6,1
 138:	04097f03          	0x4097f03
 13c:	0100                	addi	s0,sp,128
 13e:	0805                	addi	a6,a6,1
 140:	0306                	slli	t1,t1,0x1
 142:	0901                	addi	s2,s2,0
 144:	0004                	0x4
 146:	0501                	addi	a0,a0,0
 148:	0003060b          	0x3060b
 14c:	0009                	c.nop	2
 14e:	0100                	addi	s0,sp,128
 150:	0805                	addi	a6,a6,1
 152:	0306                	slli	t1,t1,0x1
 154:	0901                	addi	s2,s2,0
 156:	0004                	0x4
 158:	0501                	addi	a0,a0,0
 15a:	0003060b          	0x3060b
 15e:	0009                	c.nop	2
 160:	0100                	addi	s0,sp,128
 162:	0405                	addi	s0,s0,1
 164:	0306                	slli	t1,t1,0x1
 166:	00040903          	lb	s2,0(s0)
 16a:	0301                	addi	t1,t1,0
 16c:	0900                	addi	s0,sp,144
 16e:	0000                	unimp
 170:	0301                	addi	t1,t1,0
 172:	0900                	addi	s0,sp,144
 174:	0000                	unimp
 176:	0301                	addi	t1,t1,0
 178:	0900                	addi	s0,sp,144
 17a:	0000                	unimp
 17c:	0301                	addi	t1,t1,0
 17e:	0900                	addi	s0,sp,144
 180:	0004                	0x4
 182:	0301                	addi	t1,t1,0
 184:	0900                	addi	s0,sp,144
 186:	000c                	0xc
 188:	0301                	addi	t1,t1,0
 18a:	0900                	addi	s0,sp,144
 18c:	0000                	unimp
 18e:	0301                	addi	t1,t1,0
 190:	0900                	addi	s0,sp,144
 192:	0000                	unimp
 194:	0301                	addi	t1,t1,0
 196:	0900                	addi	s0,sp,144
 198:	000c                	0xc
 19a:	0301                	addi	t1,t1,0
 19c:	0900                	addi	s0,sp,144
 19e:	000c                	0xc
 1a0:	0301                	addi	t1,t1,0
 1a2:	0900                	addi	s0,sp,144
 1a4:	0004                	0x4
 1a6:	0301                	addi	t1,t1,0
 1a8:	0900                	addi	s0,sp,144
 1aa:	0008                	0x8
 1ac:	0301                	addi	t1,t1,0
 1ae:	0900                	addi	s0,sp,144
 1b0:	0004                	0x4
 1b2:	0301                	addi	t1,t1,0
 1b4:	0900                	addi	s0,sp,144
 1b6:	0004                	0x4
 1b8:	0301                	addi	t1,t1,0
 1ba:	0900                	addi	s0,sp,144
 1bc:	0008                	0x8
 1be:	0301                	addi	t1,t1,0
 1c0:	0900                	addi	s0,sp,144
 1c2:	0004                	0x4
 1c4:	0301                	addi	t1,t1,0
 1c6:	0900                	addi	s0,sp,144
 1c8:	0000                	unimp
 1ca:	0301                	addi	t1,t1,0
 1cc:	0900                	addi	s0,sp,144
 1ce:	0004                	0x4
 1d0:	0301                	addi	t1,t1,0
 1d2:	0900                	addi	s0,sp,144
 1d4:	0010                	0x10
 1d6:	0301                	addi	t1,t1,0
 1d8:	0900                	addi	s0,sp,144
 1da:	0008                	0x8
 1dc:	0301                	addi	t1,t1,0
 1de:	0900                	addi	s0,sp,144
 1e0:	0008                	0x8
 1e2:	0301                	addi	t1,t1,0
 1e4:	0900                	addi	s0,sp,144
 1e6:	0008                	0x8
 1e8:	0301                	addi	t1,t1,0
 1ea:	0900                	addi	s0,sp,144
 1ec:	0004                	0x4
 1ee:	0301                	addi	t1,t1,0
 1f0:	0900                	addi	s0,sp,144
 1f2:	0004                	0x4
 1f4:	0301                	addi	t1,t1,0
 1f6:	0900                	addi	s0,sp,144
 1f8:	0004                	0x4
 1fa:	0301                	addi	t1,t1,0
 1fc:	0900                	addi	s0,sp,144
 1fe:	0000                	unimp
 200:	0301                	addi	t1,t1,0
 202:	0900                	addi	s0,sp,144
 204:	0008                	0x8
 206:	0301                	addi	t1,t1,0
 208:	0900                	addi	s0,sp,144
 20a:	0000                	unimp
 20c:	0301                	addi	t1,t1,0
 20e:	0901                	addi	s2,s2,0
 210:	0000                	unimp
 212:	0501                	addi	a0,a0,0
 214:	fe03060b          	0xfe03060b
 218:	0900                	addi	s0,sp,144
 21a:	0000                	unimp
 21c:	0501                	addi	a0,a0,0
 21e:	0e030603          	lb	a2,224(t1) # ffffa0e0 <__BSS_END__+0xfffda470>
 222:	0409                	addi	s0,s0,2
 224:	0100                	addi	s0,sp,128
 226:	00090103          	lb	sp,0(s2)
 22a:	0100                	addi	s0,sp,128
 22c:	0105                	addi	sp,sp,1
 22e:	0306                	slli	t1,t1,0x1
 230:	00e1                	addi	ra,ra,24
 232:	0009                	c.nop	2
 234:	0100                	addi	s0,sp,128
 236:	0405                	addi	s0,s0,1
 238:	097e8503          	lb	a0,151(t4)
 23c:	0004                	0x4
 23e:	0601                	addi	a2,a2,0
 240:	14091503          	lh	a0,320(s2)
 244:	0100                	addi	s0,sp,128
 246:	0705                	addi	a4,a4,1
 248:	0306                	slli	t1,t1,0x1
 24a:	0900                	addi	s0,sp,144
 24c:	0000                	unimp
 24e:	0501                	addi	a0,a0,0
 250:	0606                	slli	a2,a2,0x1
 252:	04090103          	lb	sp,64(s2)
 256:	0100                	addi	s0,sp,128
 258:	0405                	addi	s0,s0,1
 25a:	04090203          	lb	tp,64(s2)
 25e:	0100                	addi	s0,sp,128
 260:	00090003          	lb	zero,0(s2)
 264:	0100                	addi	s0,sp,128
 266:	00090003          	lb	zero,0(s2)
 26a:	0100                	addi	s0,sp,128
 26c:	00090003          	lb	zero,0(s2)
 270:	0100                	addi	s0,sp,128
 272:	00090003          	lb	zero,0(s2)
 276:	0100                	addi	s0,sp,128
 278:	14090003          	lb	zero,320(s2)
 27c:	0100                	addi	s0,sp,128
 27e:	18090003          	lb	zero,384(s2)
 282:	0100                	addi	s0,sp,128
 284:	00090203          	lb	tp,0(s2)
 288:	0100                	addi	s0,sp,128
 28a:	0705                	addi	a4,a4,1
 28c:	0306                	slli	t1,t1,0x1
 28e:	0900                	addi	s0,sp,144
 290:	0000                	unimp
 292:	0501                	addi	a0,a0,0
 294:	0608                	addi	a0,sp,768
 296:	04090903          	lb	s2,64(s2)
 29a:	0100                	addi	s0,sp,128
 29c:	0b05                	addi	s6,s6,1
 29e:	0306                	slli	t1,t1,0x1
 2a0:	0900                	addi	s0,sp,144
 2a2:	0000                	unimp
 2a4:	0501                	addi	a0,a0,0
 2a6:	0608                	addi	a0,sp,768
 2a8:	04090103          	lb	sp,64(s2)
 2ac:	0100                	addi	s0,sp,128
 2ae:	0b05                	addi	s6,s6,1
 2b0:	0306                	slli	t1,t1,0x1
 2b2:	0900                	addi	s0,sp,144
 2b4:	0000                	unimp
 2b6:	0501                	addi	a0,a0,0
 2b8:	0608                	addi	a0,sp,768
 2ba:	04090d03          	lb	s10,64(s2)
 2be:	0100                	addi	s0,sp,128
 2c0:	0405                	addi	s0,s0,1
 2c2:	00090503          	lb	a0,0(s2)
 2c6:	0100                	addi	s0,sp,128
 2c8:	00090003          	lb	zero,0(s2)
 2cc:	0100                	addi	s0,sp,128
 2ce:	00090003          	lb	zero,0(s2)
 2d2:	0100                	addi	s0,sp,128
 2d4:	00090003          	lb	zero,0(s2)
 2d8:	0100                	addi	s0,sp,128
 2da:	04090003          	lb	zero,64(s2)
 2de:	0100                	addi	s0,sp,128
 2e0:	0c090003          	lb	zero,192(s2)
 2e4:	0100                	addi	s0,sp,128
 2e6:	00090003          	lb	zero,0(s2)
 2ea:	0100                	addi	s0,sp,128
 2ec:	00090003          	lb	zero,0(s2)
 2f0:	0100                	addi	s0,sp,128
 2f2:	10090003          	lb	zero,256(s2)
 2f6:	0100                	addi	s0,sp,128
 2f8:	08090003          	lb	zero,128(s2)
 2fc:	0100                	addi	s0,sp,128
 2fe:	04090003          	lb	zero,64(s2)
 302:	0100                	addi	s0,sp,128
 304:	08090003          	lb	zero,128(s2)
 308:	0100                	addi	s0,sp,128
 30a:	04090003          	lb	zero,64(s2)
 30e:	0100                	addi	s0,sp,128
 310:	04090003          	lb	zero,64(s2)
 314:	0100                	addi	s0,sp,128
 316:	08090003          	lb	zero,128(s2)
 31a:	0100                	addi	s0,sp,128
 31c:	04090003          	lb	zero,64(s2)
 320:	0100                	addi	s0,sp,128
 322:	00090003          	lb	zero,0(s2)
 326:	0100                	addi	s0,sp,128
 328:	04090003          	lb	zero,64(s2)
 32c:	0100                	addi	s0,sp,128
 32e:	10090003          	lb	zero,256(s2)
 332:	0100                	addi	s0,sp,128
 334:	08090003          	lb	zero,128(s2)
 338:	0100                	addi	s0,sp,128
 33a:	08090003          	lb	zero,128(s2)
 33e:	0100                	addi	s0,sp,128
 340:	08090003          	lb	zero,128(s2)
 344:	0100                	addi	s0,sp,128
 346:	04090003          	lb	zero,64(s2)
 34a:	0100                	addi	s0,sp,128
 34c:	04090003          	lb	zero,64(s2)
 350:	0100                	addi	s0,sp,128
 352:	04090003          	lb	zero,64(s2)
 356:	0100                	addi	s0,sp,128
 358:	00090003          	lb	zero,0(s2)
 35c:	0100                	addi	s0,sp,128
 35e:	08090003          	lb	zero,128(s2)
 362:	0100                	addi	s0,sp,128
 364:	0306                	slli	t1,t1,0x1
 366:	0962                	slli	s2,s2,0x18
 368:	0004                	0x4
 36a:	0501                	addi	a0,a0,0
 36c:	0608                	addi	a0,sp,768
 36e:	14091203          	lh	tp,320(s2)
 372:	0100                	addi	s0,sp,128
 374:	00090203          	lb	tp,0(s2)
 378:	0100                	addi	s0,sp,128
 37a:	0b05                	addi	s6,s6,1
 37c:	0306                	slli	t1,t1,0x1
 37e:	0900                	addi	s0,sp,144
 380:	0000                	unimp
 382:	0501                	addi	a0,a0,0
 384:	0608                	addi	a0,sp,768
 386:	04090103          	lb	sp,64(s2)
 38a:	0100                	addi	s0,sp,128
 38c:	0b05                	addi	s6,s6,1
 38e:	0306                	slli	t1,t1,0x1
 390:	0900                	addi	s0,sp,144
 392:	0000                	unimp
 394:	0501                	addi	a0,a0,0
 396:	0608                	addi	a0,sp,768
 398:	04090103          	lb	sp,64(s2)
 39c:	0100                	addi	s0,sp,128
 39e:	0306                	slli	t1,t1,0x1
 3a0:	00000903          	lb	s2,0(zero) # 0 <main-0x10074>
 3a4:	0501                	addi	a0,a0,0
 3a6:	031e                	slli	t1,t1,0x7
 3a8:	097d                	addi	s2,s2,31
 3aa:	0004                	0x4
 3ac:	0501                	addi	a0,a0,0
 3ae:	0901030b          	0x901030b
 3b2:	0004                	0x4
 3b4:	0501                	addi	a0,a0,0
 3b6:	0308                	addi	a0,sp,384
 3b8:	0902                	c.slli64	s2
 3ba:	0004                	0x4
 3bc:	0501                	addi	a0,a0,0
 3be:	0311                	addi	t1,t1,4
 3c0:	097d                	addi	s2,s2,31
 3c2:	0008                	0x8
 3c4:	0501                	addi	a0,a0,0
 3c6:	0308                	addi	a0,sp,384
 3c8:	00040903          	lb	s2,0(s0)
 3cc:	0501                	addi	a0,a0,0
 3ce:	097d030b          	0x97d030b
 3d2:	0004                	0x4
 3d4:	0501                	addi	a0,a0,0
 3d6:	0608                	addi	a0,sp,768
 3d8:	04090103          	lb	sp,64(s2)
 3dc:	0100                	addi	s0,sp,128
 3de:	00090203          	lb	tp,0(s2)
 3e2:	0100                	addi	s0,sp,128
 3e4:	00090003          	lb	zero,0(s2)
 3e8:	0100                	addi	s0,sp,128
 3ea:	00090003          	lb	zero,0(s2)
 3ee:	0100                	addi	s0,sp,128
 3f0:	00090003          	lb	zero,0(s2)
 3f4:	0100                	addi	s0,sp,128
 3f6:	00090003          	lb	zero,0(s2)
 3fa:	0100                	addi	s0,sp,128
 3fc:	00090003          	lb	zero,0(s2)
 400:	0100                	addi	s0,sp,128
 402:	00090003          	lb	zero,0(s2)
 406:	0100                	addi	s0,sp,128
 408:	00090003          	lb	zero,0(s2)
 40c:	0100                	addi	s0,sp,128
 40e:	08090003          	lb	zero,128(s2)
 412:	0100                	addi	s0,sp,128
 414:	0c090003          	lb	zero,192(s2)
 418:	0100                	addi	s0,sp,128
 41a:	08090003          	lb	zero,128(s2)
 41e:	0100                	addi	s0,sp,128
 420:	08090003          	lb	zero,128(s2)
 424:	0100                	addi	s0,sp,128
 426:	04090003          	lb	zero,64(s2)
 42a:	0100                	addi	s0,sp,128
 42c:	04090003          	lb	zero,64(s2)
 430:	0100                	addi	s0,sp,128
 432:	08090003          	lb	zero,128(s2)
 436:	0100                	addi	s0,sp,128
 438:	04090003          	lb	zero,64(s2)
 43c:	0100                	addi	s0,sp,128
 43e:	00090003          	lb	zero,0(s2)
 442:	0100                	addi	s0,sp,128
 444:	04090003          	lb	zero,64(s2)
 448:	0100                	addi	s0,sp,128
 44a:	10090003          	lb	zero,256(s2)
 44e:	0100                	addi	s0,sp,128
 450:	08090003          	lb	zero,128(s2)
 454:	0100                	addi	s0,sp,128
 456:	08090003          	lb	zero,128(s2)
 45a:	0100                	addi	s0,sp,128
 45c:	08090003          	lb	zero,128(s2)
 460:	0100                	addi	s0,sp,128
 462:	04090003          	lb	zero,64(s2)
 466:	0100                	addi	s0,sp,128
 468:	04090003          	lb	zero,64(s2)
 46c:	0100                	addi	s0,sp,128
 46e:	08090003          	lb	zero,128(s2)
 472:	0100                	addi	s0,sp,128
 474:	08090003          	lb	zero,128(s2)
 478:	0100                	addi	s0,sp,128
 47a:	04090003          	lb	zero,64(s2)
 47e:	0100                	addi	s0,sp,128
 480:	0705                	addi	a4,a4,1
 482:	04091503          	lh	a0,64(s2)
 486:	0100                	addi	s0,sp,128
 488:	0a05                	addi	s4,s4,1
 48a:	0306                	slli	t1,t1,0x1
 48c:	0900                	addi	s0,sp,144
 48e:	0000                	unimp
 490:	0501                	addi	a0,a0,0
 492:	0604                	addi	s1,sp,768
 494:	04091303          	lh	t1,64(s2)
 498:	0100                	addi	s0,sp,128
 49a:	00090003          	lb	zero,0(s2)
 49e:	0100                	addi	s0,sp,128
 4a0:	00090003          	lb	zero,0(s2)
 4a4:	0100                	addi	s0,sp,128
 4a6:	00090003          	lb	zero,0(s2)
 4aa:	0100                	addi	s0,sp,128
 4ac:	00090003          	lb	zero,0(s2)
 4b0:	0100                	addi	s0,sp,128
 4b2:	14090003          	lb	zero,320(s2)
 4b6:	0100                	addi	s0,sp,128
 4b8:	20090003          	lb	zero,512(s2)
 4bc:	0100                	addi	s0,sp,128
 4be:	00090103          	lb	sp,0(s2)
 4c2:	0100                	addi	s0,sp,128
 4c4:	0705                	addi	a4,a4,1
 4c6:	0306                	slli	t1,t1,0x1
 4c8:	0900                	addi	s0,sp,144
 4ca:	0000                	unimp
 4cc:	0501                	addi	a0,a0,0
 4ce:	0608                	addi	a0,sp,768
 4d0:	04090a03          	lb	s4,64(s2)
 4d4:	0100                	addi	s0,sp,128
 4d6:	0306                	slli	t1,t1,0x1
 4d8:	0902                	c.slli64	s2
 4da:	0000                	unimp
 4dc:	0501                	addi	a0,a0,0
 4de:	097e030b          	0x97e030b
 4e2:	0004                	0x4
 4e4:	0501                	addi	a0,a0,0
 4e6:	0314                	addi	a3,sp,384
 4e8:	0900                	addi	s0,sp,144
 4ea:	0004                	0x4
 4ec:	0501                	addi	a0,a0,0
 4ee:	0304                	addi	s1,sp,384
 4f0:	0975                	addi	s2,s2,29
 4f2:	000c                	0xc
 4f4:	0501                	addi	a0,a0,0
 4f6:	0608                	addi	a0,sp,768
 4f8:	14091e03          	lh	t3,320(s2)
 4fc:	0100                	addi	s0,sp,128
 4fe:	00090303          	lb	t1,0(s2)
 502:	0100                	addi	s0,sp,128
 504:	00090203          	lb	tp,0(s2)
 508:	0100                	addi	s0,sp,128
 50a:	1e05                	addi	t3,t3,-31
 50c:	0306                	slli	t1,t1,0x1
 50e:	0900                	addi	s0,sp,144
 510:	0000                	unimp
 512:	0501                	addi	a0,a0,0
 514:	0311                	addi	t1,t1,4
 516:	0900                	addi	s0,sp,144
 518:	0004                	0x4
 51a:	0501                	addi	a0,a0,0
 51c:	0900030b          	0x900030b
 520:	0004                	0x4
 522:	0501                	addi	a0,a0,0
 524:	0608                	addi	a0,sp,768
 526:	04090103          	lb	sp,64(s2)
 52a:	0100                	addi	s0,sp,128
 52c:	0b05                	addi	s6,s6,1
 52e:	0306                	slli	t1,t1,0x1
 530:	0901                	addi	s2,s2,0
 532:	0000                	unimp
 534:	0501                	addi	a0,a0,0
 536:	0311                	addi	t1,t1,4
 538:	0901                	addi	s2,s2,0
 53a:	0004                	0x4
 53c:	0501                	addi	a0,a0,0
 53e:	031e                	slli	t1,t1,0x7
 540:	0900                	addi	s0,sp,144
 542:	0004                	0x4
 544:	0501                	addi	a0,a0,0
 546:	0900030b          	0x900030b
 54a:	0004                	0x4
 54c:	0501                	addi	a0,a0,0
 54e:	0308                	addi	a0,sp,384
 550:	00040903          	lb	s2,0(s0)
 554:	0501                	addi	a0,a0,0
 556:	097b030b          	0x97b030b
 55a:	0010                	0x10
 55c:	0501                	addi	a0,a0,0
 55e:	0608                	addi	a0,sp,768
 560:	04090103          	lb	sp,64(s2)
 564:	0100                	addi	s0,sp,128
 566:	00090103          	lb	sp,0(s2)
 56a:	0100                	addi	s0,sp,128
 56c:	00090103          	lb	sp,0(s2)
 570:	0100                	addi	s0,sp,128
 572:	00090203          	lb	tp,0(s2)
 576:	0100                	addi	s0,sp,128
 578:	00090003          	lb	zero,0(s2)
 57c:	0100                	addi	s0,sp,128
 57e:	00090003          	lb	zero,0(s2)
 582:	0100                	addi	s0,sp,128
 584:	00090003          	lb	zero,0(s2)
 588:	0100                	addi	s0,sp,128
 58a:	00090003          	lb	zero,0(s2)
 58e:	0100                	addi	s0,sp,128
 590:	00090003          	lb	zero,0(s2)
 594:	0100                	addi	s0,sp,128
 596:	00090003          	lb	zero,0(s2)
 59a:	0100                	addi	s0,sp,128
 59c:	00090003          	lb	zero,0(s2)
 5a0:	0100                	addi	s0,sp,128
 5a2:	08090003          	lb	zero,128(s2)
 5a6:	0100                	addi	s0,sp,128
 5a8:	0c090003          	lb	zero,192(s2)
 5ac:	0100                	addi	s0,sp,128
 5ae:	08090003          	lb	zero,128(s2)
 5b2:	0100                	addi	s0,sp,128
 5b4:	08090003          	lb	zero,128(s2)
 5b8:	0100                	addi	s0,sp,128
 5ba:	04090003          	lb	zero,64(s2)
 5be:	0100                	addi	s0,sp,128
 5c0:	04090003          	lb	zero,64(s2)
 5c4:	0100                	addi	s0,sp,128
 5c6:	08090003          	lb	zero,128(s2)
 5ca:	0100                	addi	s0,sp,128
 5cc:	04090003          	lb	zero,64(s2)
 5d0:	0100                	addi	s0,sp,128
 5d2:	00090003          	lb	zero,0(s2)
 5d6:	0100                	addi	s0,sp,128
 5d8:	04090003          	lb	zero,64(s2)
 5dc:	0100                	addi	s0,sp,128
 5de:	10090003          	lb	zero,256(s2)
 5e2:	0100                	addi	s0,sp,128
 5e4:	08090003          	lb	zero,128(s2)
 5e8:	0100                	addi	s0,sp,128
 5ea:	08090003          	lb	zero,128(s2)
 5ee:	0100                	addi	s0,sp,128
 5f0:	08090003          	lb	zero,128(s2)
 5f4:	0100                	addi	s0,sp,128
 5f6:	04090003          	lb	zero,64(s2)
 5fa:	0100                	addi	s0,sp,128
 5fc:	04090003          	lb	zero,64(s2)
 600:	0100                	addi	s0,sp,128
 602:	08090003          	lb	zero,128(s2)
 606:	0100                	addi	s0,sp,128
 608:	0306                	slli	t1,t1,0x1
 60a:	0901                	addi	s2,s2,0
 60c:	0004                	0x4
 60e:	0301                	addi	t1,t1,0
 610:	097f                	0x97f
 612:	0004                	0x4
 614:	0301                	addi	t1,t1,0
 616:	0901                	addi	s2,s2,0
 618:	0004                	0x4
 61a:	0301                	addi	t1,t1,0
 61c:	097f                	0x97f
 61e:	0008                	0x8
 620:	0601                	addi	a2,a2,0
 622:	04090003          	lb	zero,64(s2)
 626:	0100                	addi	s0,sp,128
 628:	00090003          	lb	zero,0(s2)
 62c:	0100                	addi	s0,sp,128
 62e:	00090003          	lb	zero,0(s2)
 632:	0100                	addi	s0,sp,128
 634:	00090103          	lb	sp,0(s2)
 638:	0100                	addi	s0,sp,128
 63a:	00090003          	lb	zero,0(s2)
 63e:	0100                	addi	s0,sp,128
 640:	00090003          	lb	zero,0(s2)
 644:	0100                	addi	s0,sp,128
 646:	00090003          	lb	zero,0(s2)
 64a:	0100                	addi	s0,sp,128
 64c:	00090003          	lb	zero,0(s2)
 650:	0100                	addi	s0,sp,128
 652:	08090003          	lb	zero,128(s2)
 656:	0100                	addi	s0,sp,128
 658:	00090003          	lb	zero,0(s2)
 65c:	0100                	addi	s0,sp,128
 65e:	04090003          	lb	zero,64(s2)
 662:	0100                	addi	s0,sp,128
 664:	04090003          	lb	zero,64(s2)
 668:	0100                	addi	s0,sp,128
 66a:	00090003          	lb	zero,0(s2)
 66e:	0100                	addi	s0,sp,128
 670:	04090003          	lb	zero,64(s2)
 674:	0100                	addi	s0,sp,128
 676:	08090003          	lb	zero,128(s2)
 67a:	0100                	addi	s0,sp,128
 67c:	04090003          	lb	zero,64(s2)
 680:	0100                	addi	s0,sp,128
 682:	08090003          	lb	zero,128(s2)
 686:	0100                	addi	s0,sp,128
 688:	04090003          	lb	zero,64(s2)
 68c:	0100                	addi	s0,sp,128
 68e:	04090003          	lb	zero,64(s2)
 692:	0100                	addi	s0,sp,128
 694:	08090003          	lb	zero,128(s2)
 698:	0100                	addi	s0,sp,128
 69a:	00090003          	lb	zero,0(s2)
 69e:	0100                	addi	s0,sp,128
 6a0:	00090203          	lb	tp,0(s2)
 6a4:	0100                	addi	s0,sp,128
 6a6:	0b05                	addi	s6,s6,1
 6a8:	0306                	slli	t1,t1,0x1
 6aa:	0900                	addi	s0,sp,144
 6ac:	0000                	unimp
 6ae:	0501                	addi	a0,a0,0
 6b0:	0314                	addi	a3,sp,384
 6b2:	0900                	addi	s0,sp,144
 6b4:	0004                	0x4
 6b6:	0501                	addi	a0,a0,0
 6b8:	0308                	addi	a0,sp,384
 6ba:	097e                	slli	s2,s2,0x1f
 6bc:	0004                	0x4
 6be:	0501                	addi	a0,a0,0
 6c0:	097d030b          	0x97d030b
 6c4:	0014                	0x14
 6c6:	0501                	addi	a0,a0,0
 6c8:	0308                	addi	a0,sp,384
 6ca:	00040903          	lb	s2,0(s0)
 6ce:	0501                	addi	a0,a0,0
 6d0:	0908030b          	0x908030b
 6d4:	0004                	0x4
 6d6:	0501                	addi	a0,a0,0
 6d8:	0321                	addi	t1,t1,8
 6da:	097a                	slli	s2,s2,0x1e
 6dc:	0004                	0x4
 6de:	0501                	addi	a0,a0,0
 6e0:	0605                	addi	a2,a2,1
 6e2:	04090203          	lb	tp,64(s2)
 6e6:	0100                	addi	s0,sp,128
 6e8:	0705                	addi	a4,a4,1
 6ea:	0306                	slli	t1,t1,0x1
 6ec:	0900                	addi	s0,sp,144
 6ee:	0000                	unimp
 6f0:	0501                	addi	a0,a0,0
 6f2:	0605                	addi	a2,a2,1
 6f4:	04090103          	lb	sp,64(s2)
 6f8:	0100                	addi	s0,sp,128
 6fa:	00090003          	lb	zero,0(s2)
 6fe:	0100                	addi	s0,sp,128
 700:	00090003          	lb	zero,0(s2)
 704:	0100                	addi	s0,sp,128
 706:	00090003          	lb	zero,0(s2)
 70a:	0100                	addi	s0,sp,128
 70c:	00090003          	lb	zero,0(s2)
 710:	0100                	addi	s0,sp,128
 712:	0705                	addi	a4,a4,1
 714:	0306                	slli	t1,t1,0x1
 716:	00040943          	fmadd.s	fs2,fs0,ft0,ft0,rne
 71a:	0301                	addi	t1,t1,0
 71c:	097f                	0x97f
 71e:	0004                	0x4
 720:	0901                	addi	s2,s2,0
 722:	0008                	0x8
 724:	0100                	addi	s0,sp,128
 726:	3b01                	jal	436 <main-0xfc3e>
 728:	0000                	unimp
 72a:	0500                	addi	s0,sp,640
 72c:	0400                	addi	s0,sp,512
 72e:	3300                	fld	fs0,32(a4)
 730:	0000                	unimp
 732:	0100                	addi	s0,sp,128
 734:	0101                	addi	sp,sp,0
 736:	000d0efb          	0xd0efb
 73a:	0101                	addi	sp,sp,0
 73c:	0101                	addi	sp,sp,0
 73e:	0000                	unimp
 740:	0100                	addi	s0,sp,128
 742:	0000                	unimp
 744:	0101                	addi	sp,sp,0
 746:	1f01                	addi	t5,t5,-32
 748:	2c02                	fld	fs8,0(sp)
 74a:	0000                	unimp
 74c:	8e00                	0x8e00
 74e:	0000                	unimp
 750:	0200                	addi	s0,sp,256
 752:	1f01                	addi	t5,t5,-32
 754:	0f02                	c.slli64	t5
 756:	00000003          	lb	zero,0(zero) # 0 <main-0x10074>
 75a:	0000                	unimp
 75c:	00b0                	addi	a2,sp,72
 75e:	0000                	unimp
 760:	2201                	jal	860 <main-0xf814>
 762:	0000                	unimp
 764:	0100                	addi	s0,sp,128

Disassembly of section .debug_str:

00000000 <.debug_str>:
   0:	5744                	lw	s1,44(a4)
   2:	6e75                	lui	t3,0x1d
   4:	6f69                	lui	t5,0x1a
   6:	006e                	c.slli	zero,0x1b
   8:	5f5f 6475 7669      	0x766964755f5f
   e:	6964                	flw	fs1,84(a0)
  10:	6f630033          	0x6f630033
  14:	706d                	c.lui	zero,0xffffb
  16:	656c                	flw	fa1,76(a0)
  18:	2078                	fld	fa4,192(s0)
  1a:	6c66                	flw	fs8,88(sp)
  1c:	0074616f          	jal	sp,46822 <__BSS_END__+0x26bb2>
  20:	726f6873          	csrrsi	a6,0x726,30
  24:	2074                	fld	fa3,192(s0)
  26:	6e69                	lui	t3,0x1a
  28:	0074                	addi	a3,sp,12
  2a:	20554e47          	fmsub.s	ft8,fa0,ft5,ft4,rmm
  2e:	20373143          	fmadd.s	ft2,fa4,ft3,ft4,rup
  32:	3131                	jal	fffffc3e <__BSS_END__+0xfffdffce>
  34:	312e                	fld	ft2,232(sp)
  36:	302e                	fld	ft0,232(sp)
  38:	2d20                	fld	fs0,88(a0)
  3a:	636d                	lui	t1,0x1b
  3c:	6f6d                	lui	t5,0x1b
  3e:	6564                	flw	fs1,76(a0)
  40:	3d6c                	fld	fa1,248(a0)
  42:	656d                	lui	a0,0x1b
  44:	6c64                	flw	fs1,92(s0)
  46:	2d20776f          	jal	a4,7318 <main-0x8d5c>
  4a:	616d                	addi	sp,sp,240
  4c:	6372                	flw	ft6,28(sp)
  4e:	3d68                	fld	fa0,248(a0)
  50:	7672                	flw	fa2,60(sp)
  52:	6d693233          	0x6d693233
  56:	2066                	fld	ft0,88(sp)
  58:	6d2d                	lui	s10,0xb
  5a:	6261                	lui	tp,0x18
  5c:	3d69                	jal	fffffef6 <__BSS_END__+0xfffe0286>
  5e:	6c69                	lui	s8,0x1a
  60:	3370                	fld	fa2,224(a4)
  62:	6632                	flw	fa2,12(sp)
  64:	2d20                	fld	fs0,88(a0)
  66:	636d                	lui	t1,0x1b
  68:	6f6d                	lui	t5,0x1b
  6a:	6564                	flw	fs1,76(a0)
  6c:	3d6c                	fld	fa1,248(a0)
  6e:	656d                	lui	a0,0x1b
  70:	6c64                	flw	fs1,92(s0)
  72:	2d20776f          	jal	a4,7344 <main-0x8d30>
  76:	746d                	lui	s0,0xffffb
  78:	6e75                	lui	t3,0x1d
  7a:	3d65                	jal	ffffff32 <__BSS_END__+0xfffe02c2>
  7c:	6f72                	flw	ft10,28(sp)
  7e:	74656b63          	bltu	a0,t1,7d4 <main-0xf8a0>
  82:	2d20                	fld	fs0,88(a0)
  84:	616d                	addi	sp,sp,240
  86:	6372                	flw	ft6,28(sp)
  88:	3d68                	fld	fa0,248(a0)
  8a:	7672                	flw	fa2,60(sp)
  8c:	6d693233          	0x6d693233
  90:	2066                	fld	ft0,88(sp)
  92:	672d                	lui	a4,0xb
  94:	2d20                	fld	fs0,88(a0)
  96:	2d20734f          	0x2d20734f
  9a:	2d20324f          	0x2d20324f
  9e:	2d20734f          	0x2d20734f
  a2:	6266                	flw	ft4,88(sp)
  a4:	6975                	lui	s2,0x1d
  a6:	646c                	flw	fa1,76(s0)
  a8:	6e69                	lui	t3,0x1a
  aa:	696c2d67          	0x696c2d67
  ae:	6762                	flw	fa4,24(sp)
  b0:	2d206363          	bltu	zero,s2,376 <main-0xfcfe>
  b4:	6e66                	flw	ft8,88(sp)
  b6:	74732d6f          	jal	s10,32ffc <__BSS_END__+0x1338c>
  ba:	6361                	lui	t1,0x18
  bc:	72702d6b          	0x72702d6b
  c0:	6365746f          	jal	s0,576f6 <__BSS_END__+0x37a86>
  c4:	6f74                	flw	fa3,92(a4)
  c6:	2072                	fld	ft0,280(sp)
  c8:	662d                	lui	a2,0xb
  ca:	7361                	lui	t1,0xffff8
  cc:	6e79                	lui	t3,0x1e
  ce:	6f726863          	bltu	tp,s7,7be <main-0xf8b6>
  d2:	6f6e                	flw	ft10,216(sp)
  d4:	7375                	lui	t1,0xffffd
  d6:	752d                	lui	a0,0xfffeb
  d8:	776e                	flw	fa4,248(sp)
  da:	6e69                	lui	t3,0x1a
  dc:	2d64                	fld	fs1,216(a0)
  de:	6174                	flw	fa3,68(a0)
  e0:	6c62                	flw	fs8,24(sp)
  e2:	7365                	lui	t1,0xffff9
  e4:	2d20                	fld	fs0,88(a0)
  e6:	7666                	flw	fa2,120(sp)
  e8:	7369                	lui	t1,0xffffa
  ea:	6269                	lui	tp,0x1a
  ec:	6c69                	lui	s8,0x1a
  ee:	7469                	lui	s0,0xffffa
  f0:	3d79                	jal	ffffff8e <__BSS_END__+0xfffe031e>
  f2:	6968                	flw	fa0,84(a0)
  f4:	6464                	flw	fs1,76(s0)
  f6:	6e65                	lui	t3,0x19
  f8:	5f00                	lw	s0,56(a4)
  fa:	645f 0030 5f5f      	0x5f5f0030645f
 100:	3164                	fld	fs1,224(a0)
 102:	5f00                	lw	s0,56(a4)
 104:	765f 0068 5f5f      	0x5f5f0068765f
 10a:	6c76                	flw	fs8,92(sp)
 10c:	6c00                	flw	fs0,24(s0)
 10e:	20676e6f          	jal	t3,76314 <__BSS_END__+0x566a4>
 112:	6f6c                	flw	fa1,92(a4)
 114:	676e                	flw	fa4,216(sp)
 116:	6920                	flw	fs0,80(a0)
 118:	746e                	flw	fs0,248(sp)
 11a:	6c00                	flw	fs0,24(s0)
 11c:	20676e6f          	jal	t3,76322 <__BSS_END__+0x566b2>
 120:	6f6c                	flw	fa1,92(a4)
 122:	676e                	flw	fa4,216(sp)
 124:	7520                	flw	fs0,104(a0)
 126:	736e                	flw	ft6,248(sp)
 128:	6769                	lui	a4,0x1a
 12a:	656e                	flw	fa0,216(sp)
 12c:	2064                	fld	fs1,192(s0)
 12e:	6e69                	lui	t3,0x1a
 130:	0074                	addi	a3,sp,12
 132:	6968                	flw	fa0,84(a0)
 134:	5f006867          	0x5f006867
 138:	635f 7a6c 745f      	0x745f7a6c635f
 13e:	6261                	lui	tp,0x18
 140:	7500                	flw	fs0,40(a0)
 142:	736e                	flw	ft6,248(sp)
 144:	6769                	lui	a4,0x1a
 146:	656e                	flw	fa0,216(sp)
 148:	2064                	fld	fs1,192(s0)
 14a:	72616863          	bltu	sp,t1,87a <main-0xf7fa>
 14e:	5f00                	lw	s0,56(a4)
 150:	785f 0030 5f5f      	0x5f5f0030785f
 156:	3178                	fld	fa4,224(a0)
 158:	5f00                	lw	s0,56(a4)
 15a:	785f 0032 5f5f      	0x5f5f0032785f
 160:	3378                	fld	fa4,224(a4)
 162:	5500                	lw	s0,40(a0)
 164:	4951                	li	s2,20
 166:	7974                	flw	fa3,116(a0)
 168:	6570                	flw	fa2,76(a0)
 16a:	4400                	lw	s0,8(s0)
 16c:	72747357          	0x72747357
 170:	6375                	lui	t1,0x1d
 172:	0074                	addi	a3,sp,12
 174:	726f6873          	csrrsi	a6,0x726,30
 178:	2074                	fld	fa3,192(s0)
 17a:	6e75                	lui	t3,0x1d
 17c:	6e676973          	csrrsi	s2,0x6e6,14
 180:	6465                	lui	s0,0x19
 182:	6920                	flw	fs0,80(a0)
 184:	746e                	flw	fs0,248(sp)
 186:	5500                	lw	s0,40(a0)
 188:	4944                	lw	s1,20(a0)
 18a:	7974                	flw	fa3,116(a0)
 18c:	6570                	flw	fa2,76(a0)
 18e:	5f00                	lw	s0,56(a4)
 190:	715f 0030 5f5f      	0x5f5f0030715f
 196:	3171                	jal	fffffe22 <__BSS_END__+0xfffe01b2>
 198:	6300                	flw	fs0,0(a4)
 19a:	6c706d6f          	jal	s10,7060 <main-0x9014>
 19e:	7865                	lui	a6,0xffff9
 1a0:	6420                	flw	fs0,72(s0)
 1a2:	6c62756f          	jal	a0,27868 <__BSS_END__+0x7bf8>
 1a6:	0065                	c.nop	25
 1a8:	5f5f 7278 5f00      	0x5f0072785f5f
 1ae:	755f 6964 6d76      	0x6d766964755f
 1b4:	6964646f          	jal	s0,4684a <__BSS_END__+0x26bda>
 1b8:	0034                	addi	a3,sp,8
 1ba:	706d6f63          	bltu	s10,t1,8d8 <main-0xf79c>
 1be:	656c                	flw	fa1,76(a0)
 1c0:	2078                	fld	fa4,192(s0)
 1c2:	6f6c                	flw	fa1,92(a4)
 1c4:	676e                	flw	fa4,216(sp)
 1c6:	6420                	flw	fs0,72(s0)
 1c8:	6c62756f          	jal	a0,2788e <__BSS_END__+0x7c1e>
 1cc:	0065                	c.nop	25
 1ce:	5355                	li	t1,-11
 1d0:	7449                	lui	s0,0xffff2
 1d2:	7079                	c.lui	zero,0xffffe
 1d4:	0065                	c.nop	25
 1d6:	5f5f 3072 5f00      	0x5f0030725f5f
 1dc:	725f 0031 5f5f      	0x5f5f0031725f
 1e2:	6875                	lui	a6,0x1d
 1e4:	5f00                	lw	s0,56(a4)
 1e6:	755f 006c 4e47      	0x4e47006c755f
 1ec:	2055                	jal	290 <main-0xfde4>
 1ee:	20373143          	fmadd.s	ft2,fa4,ft3,ft4,rup
 1f2:	3131                	jal	fffffdfe <__BSS_END__+0xfffe018e>
 1f4:	312e                	fld	ft2,232(sp)
 1f6:	302e                	fld	ft0,232(sp)
 1f8:	2d20                	fld	fs0,88(a0)
 1fa:	636d                	lui	t1,0x1b
 1fc:	6f6d                	lui	t5,0x1b
 1fe:	6564                	flw	fs1,76(a0)
 200:	3d6c                	fld	fa1,248(a0)
 202:	656d                	lui	a0,0x1b
 204:	6c64                	flw	fs1,92(s0)
 206:	2d20776f          	jal	a4,74d8 <main-0x8b9c>
 20a:	616d                	addi	sp,sp,240
 20c:	6372                	flw	ft6,28(sp)
 20e:	3d68                	fld	fa0,248(a0)
 210:	7672                	flw	fa2,60(sp)
 212:	6d693233          	0x6d693233
 216:	2066                	fld	ft0,88(sp)
 218:	6d2d                	lui	s10,0xb
 21a:	6261                	lui	tp,0x18
 21c:	3d69                	jal	b6 <main-0xffbe>
 21e:	6c69                	lui	s8,0x1a
 220:	3370                	fld	fa2,224(a4)
 222:	6632                	flw	fa2,12(sp)
 224:	2d20                	fld	fs0,88(a0)
 226:	636d                	lui	t1,0x1b
 228:	6f6d                	lui	t5,0x1b
 22a:	6564                	flw	fs1,76(a0)
 22c:	3d6c                	fld	fa1,248(a0)
 22e:	656d                	lui	a0,0x1b
 230:	6c64                	flw	fs1,92(s0)
 232:	2d20776f          	jal	a4,7504 <main-0x8b70>
 236:	746d                	lui	s0,0xffffb
 238:	6e75                	lui	t3,0x1d
 23a:	3d65                	jal	f2 <main-0xff82>
 23c:	6f72                	flw	ft10,28(sp)
 23e:	74656b63          	bltu	a0,t1,994 <main-0xf6e0>
 242:	2d20                	fld	fs0,88(a0)
 244:	616d                	addi	sp,sp,240
 246:	6372                	flw	ft6,28(sp)
 248:	3d68                	fld	fa0,248(a0)
 24a:	7672                	flw	fa2,60(sp)
 24c:	6d693233          	0x6d693233
 250:	2066                	fld	ft0,88(sp)
 252:	672d                	lui	a4,0xb
 254:	2d20                	fld	fs0,88(a0)
 256:	2d20734f          	0x2d20734f
 25a:	2d20324f          	0x2d20324f
 25e:	2d20734f          	0x2d20734f
 262:	6266                	flw	ft4,88(sp)
 264:	6975                	lui	s2,0x1d
 266:	646c                	flw	fa1,76(s0)
 268:	6e69                	lui	t3,0x1a
 26a:	696c2d67          	0x696c2d67
 26e:	6762                	flw	fa4,24(sp)
 270:	2d206363          	bltu	zero,s2,536 <main-0xfb3e>
 274:	6e66                	flw	ft8,88(sp)
 276:	74732d6f          	jal	s10,331bc <__BSS_END__+0x1354c>
 27a:	6361                	lui	t1,0x18
 27c:	72702d6b          	0x72702d6b
 280:	6365746f          	jal	s0,578b6 <__BSS_END__+0x37c46>
 284:	6f74                	flw	fa3,92(a4)
 286:	2072                	fld	ft0,280(sp)
 288:	662d                	lui	a2,0xb
 28a:	6976                	flw	fs2,92(sp)
 28c:	69626973          	csrrsi	s2,0x696,4
 290:	696c                	flw	fa1,84(a0)
 292:	7974                	flw	fa3,116(a0)
 294:	683d                	lui	a6,0xf
 296:	6469                	lui	s0,0x1a
 298:	6564                	flw	fs1,76(a0)
 29a:	006e                	c.slli	zero,0x1b

Disassembly of section .debug_line_str:

00000000 <.debug_line_str>:
   0:	2e2e                	fld	ft8,200(sp)
   2:	2f2e2e2f          	0x2f2e2e2f
   6:	2e2e                	fld	ft8,200(sp)
   8:	2f2e2e2f          	0x2f2e2e2f
   c:	2e2e                	fld	ft8,200(sp)
   e:	722f2e2f          	0x722f2e2f
  12:	7369                	lui	t1,0xffffa
  14:	672d7663          	bgeu	s10,s2,680 <main-0xf9f4>
  18:	6c2f6363          	bltu	t5,sp,6de <main-0xf996>
  1c:	6269                	lui	tp,0x1a
  1e:	2f636367          	0x2f636367
  22:	696c                	flw	fa1,84(a0)
  24:	6762                	flw	fa4,24(sp)
  26:	2e326363          	bltu	tp,gp,30c <main-0xfd68>
  2a:	682f0063          	beq	t5,sp,6aa <main-0xf9ca>
  2e:	2f656d6f          	jal	s10,56324 <__BSS_END__+0x366b4>
  32:	6e65                	lui	t3,0x19
  34:	2f6e6967          	0x2f6e6967
  38:	6972                	flw	fs2,28(sp)
  3a:	2d766373          	csrrsi	t1,0x2d7,12
  3e:	2d756e67          	0x2d756e67
  42:	6f74                	flw	fa3,92(a4)
  44:	68636c6f          	jal	s8,366ca <__BSS_END__+0x16a5a>
  48:	6961                	lui	s2,0x18
  4a:	2f6e                	fld	ft10,216(sp)
  4c:	7562                	flw	fa0,56(sp)
  4e:	6c69                	lui	s8,0x1a
  50:	2d64                	fld	fs1,216(a0)
  52:	2d636367          	0x2d636367
  56:	656e                	flw	fa0,216(sp)
  58:	62696c77          	0x62696c77
  5c:	732d                	lui	t1,0xfffeb
  5e:	6174                	flw	fa3,68(a0)
  60:	2f326567          	0x2f326567
  64:	6972                	flw	fs2,28(sp)
  66:	36766373          	csrrsi	t1,0x367,12
  6a:	2d34                	fld	fa3,88(a0)
  6c:	6e75                	lui	t3,0x1d
  6e:	776f6e6b          	0x776f6e6b
  72:	2d6e                	fld	fs10,216(sp)
  74:	6c65                	lui	s8,0x19
  76:	2f66                	fld	ft10,88(sp)
  78:	7672                	flw	fa2,60(sp)
  7a:	6d693233          	0x6d693233
  7e:	2f66                	fld	ft10,88(sp)
  80:	6c69                	lui	s8,0x1a
  82:	3370                	fld	fa2,224(a4)
  84:	6632                	flw	fa2,12(sp)
  86:	62696c2f          	0x62696c2f
  8a:	00636367          	0x636367
  8e:	2e2e                	fld	ft8,200(sp)
  90:	2f2e2e2f          	0x2f2e2e2f
  94:	2e2e                	fld	ft8,200(sp)
  96:	2f2e2e2f          	0x2f2e2e2f
  9a:	2e2e                	fld	ft8,200(sp)
  9c:	722f2e2f          	0x722f2e2f
  a0:	7369                	lui	t1,0xffffa
  a2:	672d7663          	bgeu	s10,s2,70e <main-0xf966>
  a6:	6c2f6363          	bltu	t5,sp,76c <main-0xf908>
  aa:	6269                	lui	tp,0x1a
  ac:	00636367          	0x636367
  b0:	696c                	flw	fa1,84(a0)
  b2:	6762                	flw	fa4,24(sp)
  b4:	2e326363          	bltu	tp,gp,39a <main-0xfcda>
  b8:	0068                	addi	a0,sp,12

Disassembly of section .debug_loclists:

00000000 <.debug_loclists>:
   0:	0a95                	addi	s5,s5,5
   2:	0000                	unimp
   4:	0005                	c.nop	1
   6:	0004                	0x4
   8:	0000                	unimp
   a:	0000                	unimp
   c:	015e6407          	0x15e6407
  10:	9c00                	0x9c00
  12:	015e                	slli	sp,sp,0x17
  14:	0600                	addi	s0,sp,768
  16:	935a                	add	t1,t1,s6
  18:	5b04                	lw	s1,48(a4)
  1a:	9c070493          	addi	s1,a4,-1600 # a9c0 <main-0x56b4>
  1e:	015e                	slli	sp,sp,0x17
  20:	5c00                	lw	s0,56(s0)
  22:	015f 0600 03a3      	0x3a30600015f
  28:	0aa5                	addi	s5,s5,9
  2a:	9f26                	add	t5,t5,s1
  2c:	015f5c07          	0x15f5c07
  30:	6000                	flw	fs0,0(s0)
  32:	015f 0600 935a      	0x935a0600015f
  38:	5b04                	lw	s1,48(a4)
  3a:	60070493          	addi	s1,a4,1536
  3e:	015f 7000 015f      	0x15f7000015f
  44:	0600                	addi	s0,sp,768
  46:	0aa503a3          	sb	a0,167(a0) # 1b0a7 <__malloc_av_+0xb7>
  4a:	9f26                	add	t5,t5,s1
  4c:	015f7007          	0x15f7007
  50:	b000                	fsd	fs0,32(s0)
  52:	015f 0600 935a      	0x935a0600015f
  58:	5b04                	lw	s1,48(a4)
  5a:	b0070493          	addi	s1,a4,-1280
  5e:	015f 3c00 0160      	0x1603c00015f
  64:	0600                	addi	s0,sp,768
  66:	0aa503a3          	sb	a0,167(a0)
  6a:	9f26                	add	t5,t5,s1
  6c:	01603c07          	fld	fs8,22(zero) # 16 <main-0x1005e>
  70:	5c00                	lw	s0,56(s0)
  72:	0160                	addi	s0,sp,140
  74:	0600                	addi	s0,sp,768
  76:	935a                	add	t1,t1,s6
  78:	5b04                	lw	s1,48(a4)
  7a:	5c070493          	addi	s1,a4,1472
  7e:	0160                	addi	s0,sp,140
  80:	fc00                	fsw	fs0,56(s0)
  82:	0160                	addi	s0,sp,140
  84:	0600                	addi	s0,sp,768
  86:	0aa503a3          	sb	a0,167(a0)
  8a:	9f26                	add	t5,t5,s1
  8c:	0160fc07          	0x160fc07
  90:	3c00                	fld	fs0,56(s0)
  92:	0161                	addi	sp,sp,24
  94:	0600                	addi	s0,sp,768
  96:	935a                	add	t1,t1,s6
  98:	5b04                	lw	s1,48(a4)
  9a:	3c070493          	addi	s1,a4,960
  9e:	0161                	addi	sp,sp,24
  a0:	4c00                	lw	s0,24(s0)
  a2:	0161                	addi	sp,sp,24
  a4:	0600                	addi	s0,sp,768
  a6:	0aa503a3          	sb	a0,167(a0)
  aa:	9f26                	add	t5,t5,s1
  ac:	01614c07          	flq	fs8,22(sp)
  b0:	9c00                	0x9c00
  b2:	0161                	addi	sp,sp,24
  b4:	0600                	addi	s0,sp,768
  b6:	935a                	add	t1,t1,s6
  b8:	5b04                	lw	s1,48(a4)
  ba:	9c070493          	addi	s1,a4,-1600
  be:	0161                	addi	sp,sp,24
  c0:	8800                	0x8800
  c2:	0162                	slli	sp,sp,0x18
  c4:	0600                	addi	s0,sp,768
  c6:	0aa503a3          	sb	a0,167(a0)
  ca:	9f26                	add	t5,t5,s1
  cc:	01628807          	0x1628807
  d0:	9000                	0x9000
  d2:	0162                	slli	sp,sp,0x18
  d4:	0600                	addi	s0,sp,768
  d6:	935a                	add	t1,t1,s6
  d8:	5b04                	lw	s1,48(a4)
  da:	90070493          	addi	s1,a4,-1792
  de:	0162                	slli	sp,sp,0x18
  e0:	9400                	0x9400
  e2:	0162                	slli	sp,sp,0x18
  e4:	0600                	addi	s0,sp,768
  e6:	0aa503a3          	sb	a0,167(a0)
  ea:	9f26                	add	t5,t5,s1
  ec:	0700                	addi	s0,sp,896
  ee:	5e64                	lw	s1,124(a2)
  f0:	0001                	nop
  f2:	5ed8                	lw	a4,60(a3)
  f4:	0001                	nop
  f6:	5c06                	lw	s8,96(sp)
  f8:	935d0493          	addi	s1,s10,-1739 # a935 <main-0x573f>
  fc:	0704                	addi	s1,sp,896
  fe:	5ed8                	lw	a4,60(a3)
 100:	0001                	nop
 102:	5f5c                	lw	a5,60(a4)
 104:	0001                	nop
 106:	a306                	fsd	ft1,384(sp)
 108:	260ca503          	lw	a0,608(s9)
 10c:	079f 5f5c 0001      	0x15f5c079f
 112:	5fb0                	lw	a2,120(a5)
 114:	0001                	nop
 116:	5c06                	lw	s8,96(sp)
 118:	935d0493          	addi	s1,s10,-1739
 11c:	0704                	addi	s1,sp,896
 11e:	5fb0                	lw	a2,120(a5)
 120:	0001                	nop
 122:	603c                	flw	fa5,64(s0)
 124:	0001                	nop
 126:	a306                	fsd	ft1,384(sp)
 128:	260ca503          	lw	a0,608(s9)
 12c:	079f 603c 0001      	0x1603c079f
 132:	606c                	flw	fa1,68(s0)
 134:	0001                	nop
 136:	5c06                	lw	s8,96(sp)
 138:	935d0493          	addi	s1,s10,-1739
 13c:	0704                	addi	s1,sp,896
 13e:	606c                	flw	fa1,68(s0)
 140:	0001                	nop
 142:	60fc                	flw	fa5,68(s1)
 144:	0001                	nop
 146:	a306                	fsd	ft1,384(sp)
 148:	260ca503          	lw	a0,608(s9)
 14c:	079f 60fc 0001      	0x160fc079f
 152:	6190                	flw	fa2,0(a1)
 154:	0001                	nop
 156:	5c06                	lw	s8,96(sp)
 158:	935d0493          	addi	s1,s10,-1739
 15c:	0704                	addi	s1,sp,896
 15e:	6190                	flw	fa2,0(a1)
 160:	0001                	nop
 162:	6288                	flw	fa0,0(a3)
 164:	0001                	nop
 166:	a306                	fsd	ft1,384(sp)
 168:	260ca503          	lw	a0,608(s9)
 16c:	079f 6288 0001      	0x16288079f
 172:	6294                	flw	fa3,0(a3)
 174:	0001                	nop
 176:	5c06                	lw	s8,96(sp)
 178:	935d0493          	addi	s1,s10,-1739
 17c:	0004                	0x4
 17e:	015e6407          	0x15e6407
 182:	5800                	lw	s0,48(s0)
 184:	015f 0200 9f30      	0x9f300200015f
 18a:	015f5c07          	0x15f5c07
 18e:	9400                	0x9400
 190:	0162                	slli	sp,sp,0x18
 192:	0200                	addi	s0,sp,256
 194:	9f30                	0x9f30
 196:	0700                	addi	s0,sp,896
 198:	5e64                	lw	s1,124(a2)
 19a:	0001                	nop
 19c:	5e8c                	lw	a1,56(a3)
 19e:	0001                	nop
 1a0:	5c06                	lw	s8,96(sp)
 1a2:	935d0493          	addi	s1,s10,-1739
 1a6:	0704                	addi	s1,sp,896
 1a8:	5f70                	lw	a2,124(a4)
 1aa:	0001                	nop
 1ac:	5f84                	lw	s1,56(a5)
 1ae:	0001                	nop
 1b0:	5c06                	lw	s8,96(sp)
 1b2:	935d0493          	addi	s1,s10,-1739
 1b6:	0704                	addi	s1,sp,896
 1b8:	603c                	flw	fa5,64(s0)
 1ba:	0001                	nop
 1bc:	6044                	flw	fs1,4(s0)
 1be:	0001                	nop
 1c0:	5c06                	lw	s8,96(sp)
 1c2:	935d0493          	addi	s1,s10,-1739
 1c6:	0704                	addi	s1,sp,896
 1c8:	60fc                	flw	fa5,68(s1)
 1ca:	0001                	nop
 1cc:	6168                	flw	fa0,68(a0)
 1ce:	0001                	nop
 1d0:	5c06                	lw	s8,96(sp)
 1d2:	935d0493          	addi	s1,s10,-1739
 1d6:	0704                	addi	s1,sp,896
 1d8:	6288                	flw	fa0,0(a3)
 1da:	0001                	nop
 1dc:	6294                	flw	fa3,0(a3)
 1de:	0001                	nop
 1e0:	5c06                	lw	s8,96(sp)
 1e2:	935d0493          	addi	s1,s10,-1739
 1e6:	0004                	0x4
 1e8:	015e6407          	0x15e6407
 1ec:	8000                	0x8000
 1ee:	015e                	slli	sp,sp,0x17
 1f0:	0600                	addi	s0,sp,768
 1f2:	935a                	add	t1,t1,s6
 1f4:	5b04                	lw	s1,48(a4)
 1f6:	80070493          	addi	s1,a4,-2048
 1fa:	015e                	slli	sp,sp,0x17
 1fc:	9c00                	0x9c00
 1fe:	015e                	slli	sp,sp,0x17
 200:	0600                	addi	s0,sp,768
 202:	935a                	add	t1,t1,s6
 204:	5f04                	lw	s1,56(a4)
 206:	9c070493          	addi	s1,a4,-1600
 20a:	015e                	slli	sp,sp,0x17
 20c:	bc00                	fsd	fs0,56(s0)
 20e:	015e                	slli	sp,sp,0x17
 210:	0600                	addi	s0,sp,768
 212:	9356                	add	t1,t1,s5
 214:	5f04                	lw	s1,56(a4)
 216:	bc070493          	addi	s1,a4,-1088
 21a:	015e                	slli	sp,sp,0x17
 21c:	d400                	sw	s0,40(s0)
 21e:	015e                	slli	sp,sp,0x17
 220:	0600                	addi	s0,sp,768
 222:	9356                	add	t1,t1,s5
 224:	6104                	flw	fs1,0(a0)
 226:	5c070493          	addi	s1,a4,1472
 22a:	015f 7c00 015f      	0x15f7c00015f
 230:	0600                	addi	s0,sp,768
 232:	9356                	add	t1,t1,s5
 234:	5f04                	lw	s1,56(a4)
 236:	7c070493          	addi	s1,a4,1984
 23a:	015f b000 015f      	0x15fb000015f
 240:	0600                	addi	s0,sp,768
 242:	9356                	add	t1,t1,s5
 244:	6104                	flw	fs1,0(a0)
 246:	3c070493          	addi	s1,a4,960
 24a:	0160                	addi	s0,sp,140
 24c:	6800                	flw	fs0,16(s0)
 24e:	0160                	addi	s0,sp,140
 250:	0600                	addi	s0,sp,768
 252:	9356                	add	t1,t1,s5
 254:	6104                	flw	fs1,0(a0)
 256:	fc070493          	addi	s1,a4,-64
 25a:	0160                	addi	s0,sp,140
 25c:	1c00                	addi	s0,sp,560
 25e:	0161                	addi	sp,sp,24
 260:	0600                	addi	s0,sp,768
 262:	9356                	add	t1,t1,s5
 264:	5b04                	lw	s1,48(a4)
 266:	1c070493          	addi	s1,a4,448
 26a:	0161                	addi	sp,sp,24
 26c:	4c00                	lw	s0,24(s0)
 26e:	0161                	addi	sp,sp,24
 270:	0600                	addi	s0,sp,768
 272:	9356                	add	t1,t1,s5
 274:	6104                	flw	fs1,0(a0)
 276:	4c070493          	addi	s1,a4,1216
 27a:	0161                	addi	sp,sp,24
 27c:	6000                	flw	fs0,0(s0)
 27e:	0161                	addi	sp,sp,24
 280:	0600                	addi	s0,sp,768
 282:	9356                	add	t1,t1,s5
 284:	5b04                	lw	s1,48(a4)
 286:	60070493          	addi	s1,a4,1536
 28a:	0161                	addi	sp,sp,24
 28c:	7400                	flw	fs0,40(s0)
 28e:	0161                	addi	sp,sp,24
 290:	0600                	addi	s0,sp,768
 292:	9356                	add	t1,t1,s5
 294:	6104                	flw	fs1,0(a0)
 296:	88070493          	addi	s1,a4,-1920
 29a:	0162                	slli	sp,sp,0x18
 29c:	8c00                	0x8c00
 29e:	0162                	slli	sp,sp,0x18
 2a0:	0600                	addi	s0,sp,768
 2a2:	9356                	add	t1,t1,s5
 2a4:	5b04                	lw	s1,48(a4)
 2a6:	8c070493          	addi	s1,a4,-1856
 2aa:	0162                	slli	sp,sp,0x18
 2ac:	9400                	0x9400
 2ae:	0162                	slli	sp,sp,0x18
 2b0:	0600                	addi	s0,sp,768
 2b2:	9356                	add	t1,t1,s5
 2b4:	5f04                	lw	s1,56(a4)
 2b6:	07000493          	li	s1,112
 2ba:	5e70                	lw	a2,124(a2)
 2bc:	0001                	nop
 2be:	5eb8                	lw	a4,120(a3)
 2c0:	0001                	nop
 2c2:	5c01                	li	s8,-32
 2c4:	015eb807          	fld	fa6,21(t4)
 2c8:	c400                	sw	s0,8(s0)
 2ca:	015e                	slli	sp,sp,0x17
 2cc:	0900                	addi	s0,sp,144
 2ce:	007c                	addi	a5,sp,12
 2d0:	ff08007b          	0xff08007b
 2d4:	241a                	fld	fs0,384(sp)
 2d6:	079f 5ec4 0001      	0x15ec4079f
 2dc:	5f54                	lw	a3,60(a4)
 2de:	0001                	nop
 2e0:	5e01                	li	t3,-32
 2e2:	015f5c07          	0x15f5c07
 2e6:	b000                	fsd	fs0,32(s0)
 2e8:	015f 0100 075c      	0x75c0100015f
 2ee:	5fb0                	lw	a2,120(a5)
 2f0:	0001                	nop
 2f2:	603c                	flw	fa5,64(s0)
 2f4:	0001                	nop
 2f6:	5e01                	li	t3,-32
 2f8:	01603c07          	fld	fs8,22(zero) # 16 <main-0x1005e>
 2fc:	5000                	lw	s0,32(s0)
 2fe:	0160                	addi	s0,sp,140
 300:	0100                	addi	s0,sp,128
 302:	075c                	addi	a5,sp,900
 304:	6050                	flw	fa2,4(s0)
 306:	0001                	nop
 308:	6054                	flw	fa3,4(s0)
 30a:	0001                	nop
 30c:	7c09                	lui	s8,0xfffe2
 30e:	7b00                	flw	fs0,48(a4)
 310:	0800                	addi	s0,sp,16
 312:	1aff                	0x1aff
 314:	9f24                	0x9f24
 316:	01605407          	0x1605407
 31a:	fc00                	fsw	fs0,56(s0)
 31c:	0160                	addi	s0,sp,140
 31e:	0100                	addi	s0,sp,128
 320:	075e                	slli	a4,a4,0x17
 322:	60fc                	flw	fa5,68(s1)
 324:	0001                	nop
 326:	6228                	flw	fa0,64(a2)
 328:	0001                	nop
 32a:	5c01                	li	s8,-32
 32c:	01628807          	0x1628807
 330:	9400                	0x9400
 332:	0162                	slli	sp,sp,0x18
 334:	0100                	addi	s0,sp,128
 336:	005c                	addi	a5,sp,4
 338:	015e7007          	0x15e7007
 33c:	8c00                	0x8c00
 33e:	015e                	slli	sp,sp,0x17
 340:	0100                	addi	s0,sp,128
 342:	075d                	addi	a4,a4,23
 344:	5f70                	lw	a2,124(a4)
 346:	0001                	nop
 348:	5f84                	lw	s1,56(a5)
 34a:	0001                	nop
 34c:	5d01                	li	s10,-32
 34e:	01603c07          	fld	fs8,22(zero) # 16 <main-0x1005e>
 352:	4400                	lw	s0,8(s0)
 354:	0160                	addi	s0,sp,140
 356:	0100                	addi	s0,sp,128
 358:	075d                	addi	a4,a4,23
 35a:	60fc                	flw	fa5,68(s1)
 35c:	0001                	nop
 35e:	6168                	flw	fa0,68(a0)
 360:	0001                	nop
 362:	5d01                	li	s10,-32
 364:	01616c07          	0x1616c07
 368:	1400                	addi	s0,sp,544
 36a:	0162                	slli	sp,sp,0x18
 36c:	0100                	addi	s0,sp,128
 36e:	075d                	addi	a4,a4,23
 370:	6288                	flw	fa0,0(a3)
 372:	0001                	nop
 374:	6294                	flw	fa3,0(a3)
 376:	0001                	nop
 378:	5d01                	li	s10,-32
 37a:	0700                	addi	s0,sp,896
 37c:	5e74                	lw	a3,124(a2)
 37e:	0001                	nop
 380:	5e9c                	lw	a5,56(a3)
 382:	0001                	nop
 384:	5a01                	li	s4,-32
 386:	015e9c07          	0x15e9c07
 38a:	cc00                	sw	s0,24(s0)
 38c:	015e                	slli	sp,sp,0x17
 38e:	0100                	addi	s0,sp,128
 390:	0756                	slli	a4,a4,0x15
 392:	5ecc                	lw	a1,60(a3)
 394:	0001                	nop
 396:	5f1c                	lw	a5,56(a4)
 398:	0001                	nop
 39a:	6001                	0x6001
 39c:	015f5c07          	0x15f5c07
 3a0:	b000                	fsd	fs0,32(s0)
 3a2:	015f 0100 0756      	0x7560100015f
 3a8:	5fb0                	lw	a2,120(a5)
 3aa:	0001                	nop
 3ac:	6000                	flw	fs0,0(s0)
 3ae:	0001                	nop
 3b0:	6001                	0x6001
 3b2:	01603c07          	fld	fs8,22(zero) # 16 <main-0x1005e>
 3b6:	6800                	flw	fs0,16(s0)
 3b8:	0160                	addi	s0,sp,140
 3ba:	0100                	addi	s0,sp,128
 3bc:	0756                	slli	a4,a4,0x15
 3be:	6078                	flw	fa4,68(s0)
 3c0:	0001                	nop
 3c2:	60fc                	flw	fa5,68(s1)
 3c4:	0001                	nop
 3c6:	6001                	0x6001
 3c8:	0160fc07          	0x160fc07
 3cc:	9000                	0x9000
 3ce:	0161                	addi	sp,sp,24
 3d0:	0100                	addi	s0,sp,128
 3d2:	0756                	slli	a4,a4,0x15
 3d4:	6190                	flw	fa2,0(a1)
 3d6:	0001                	nop
 3d8:	6274                	flw	fa3,68(a2)
 3da:	0001                	nop
 3dc:	7606                	flw	fa2,96(sp)
 3de:	7b00                	flw	fs0,48(a4)
 3e0:	2400                	fld	fs0,8(s0)
 3e2:	079f 6288 0001      	0x16288079f
 3e8:	6294                	flw	fa3,0(a3)
 3ea:	0001                	nop
 3ec:	5601                	li	a2,-32
 3ee:	0700                	addi	s0,sp,896
 3f0:	5e78                	lw	a4,124(a2)
 3f2:	0001                	nop
 3f4:	5e80                	lw	s0,56(a3)
 3f6:	0001                	nop
 3f8:	5b01                	li	s6,-32
 3fa:	015e8007          	0x15e8007
 3fe:	bc00                	fsd	fs0,56(s0)
 400:	015e                	slli	sp,sp,0x17
 402:	0100                	addi	s0,sp,128
 404:	075f 5ebc 0001      	0x15ebc075f
 40a:	5ec8                	lw	a0,60(a3)
 40c:	0001                	nop
 40e:	6101                	addi	sp,sp,0
 410:	015ec807          	flq	fa6,21(t4)
 414:	e000                	fsw	fs0,0(s0)
 416:	015e                	slli	sp,sp,0x17
 418:	0100                	addi	s0,sp,128
 41a:	075f 5f5c 0001      	0x15f5c075f
 420:	5f7c                	lw	a5,124(a4)
 422:	0001                	nop
 424:	5f01                	li	t5,-32
 426:	015f7c07          	0x15f7c07
 42a:	ac00                	fsd	fs0,24(s0)
 42c:	015f 0100 0761      	0x7610100015f
 432:	5fac                	lw	a1,120(a5)
 434:	0001                	nop
 436:	5fc8                	lw	a0,60(a5)
 438:	0001                	nop
 43a:	5f01                	li	t5,-32
 43c:	01603c07          	fld	fs8,22(zero) # 16 <main-0x1005e>
 440:	7000                	flw	fs0,32(s0)
 442:	0160                	addi	s0,sp,140
 444:	0100                	addi	s0,sp,128
 446:	0761                	addi	a4,a4,24
 448:	6078                	flw	fa4,68(s0)
 44a:	0001                	nop
 44c:	60b8                	flw	fa4,64(s1)
 44e:	0001                	nop
 450:	5f01                	li	t5,-32
 452:	0160f807          	0x160f807
 456:	fc00                	fsw	fs0,56(s0)
 458:	0160                	addi	s0,sp,140
 45a:	0100                	addi	s0,sp,128
 45c:	075f 60fc 0001      	0x160fc075f
 462:	611c                	flw	fa5,0(a0)
 464:	0001                	nop
 466:	5b01                	li	s6,-32
 468:	01611c07          	0x1611c07
 46c:	4c00                	lw	s0,24(s0)
 46e:	0161                	addi	sp,sp,24
 470:	0100                	addi	s0,sp,128
 472:	0761                	addi	a4,a4,24
 474:	614c                	flw	fa1,4(a0)
 476:	0001                	nop
 478:	6160                	flw	fs0,68(a0)
 47a:	0001                	nop
 47c:	5b01                	li	s6,-32
 47e:	01616007          	0x1616007
 482:	7400                	flw	fs0,40(s0)
 484:	0161                	addi	sp,sp,24
 486:	0100                	addi	s0,sp,128
 488:	0761                	addi	a4,a4,24
 48a:	6190                	flw	fa2,0(a1)
 48c:	0001                	nop
 48e:	61d0                	flw	fa2,4(a1)
 490:	0001                	nop
 492:	5f01                	li	t5,-32
 494:	01621c07          	0x1621c07
 498:	6000                	flw	fs0,0(s0)
 49a:	0162                	slli	sp,sp,0x18
 49c:	0100                	addi	s0,sp,128
 49e:	075f 6288 0001      	0x16288075f
 4a4:	628c                	flw	fa1,0(a3)
 4a6:	0001                	nop
 4a8:	5b01                	li	s6,-32
 4aa:	01628c07          	0x1628c07
 4ae:	9400                	0x9400
 4b0:	0162                	slli	sp,sp,0x18
 4b2:	0100                	addi	s0,sp,128
 4b4:	005f 5807 0160      	0x1605807005f
 4ba:	7c00                	flw	fs0,56(s0)
 4bc:	0160                	addi	s0,sp,140
 4be:	0100                	addi	s0,sp,128
 4c0:	075d                	addi	a4,a4,23
 4c2:	6190                	flw	fa2,0(a1)
 4c4:	0001                	nop
 4c6:	6194                	flw	fa3,0(a1)
 4c8:	0001                	nop
 4ca:	5e01                	li	t3,-32
 4cc:	0700                	addi	s0,sp,896
 4ce:	5f54                	lw	a3,60(a4)
 4d0:	0001                	nop
 4d2:	5f58                	lw	a4,60(a4)
 4d4:	0001                	nop
 4d6:	5a01                	li	s4,-32
 4d8:	01603807          	fld	fa6,22(zero) # 16 <main-0x1005e>
 4dc:	3c00                	fld	fs0,56(s0)
 4de:	0160                	addi	s0,sp,140
 4e0:	0100                	addi	s0,sp,128
 4e2:	075a                	slli	a4,a4,0x16
 4e4:	621c                	flw	fa5,0(a2)
 4e6:	0001                	nop
 4e8:	6288                	flw	fa0,0(a3)
 4ea:	0001                	nop
 4ec:	5a01                	li	s4,-32
 4ee:	0700                	addi	s0,sp,896
 4f0:	5fac                	lw	a1,120(a5)
 4f2:	0001                	nop
 4f4:	5fb0                	lw	a2,120(a5)
 4f6:	0001                	nop
 4f8:	3102                	fld	ft2,32(sp)
 4fa:	079f 5fb0 0001      	0x15fb0079f
 500:	603c                	flw	fa5,64(s0)
 502:	0001                	nop
 504:	5b01                	li	s6,-32
 506:	0160f807          	0x160f807
 50a:	fc00                	fsw	fs0,56(s0)
 50c:	0160                	addi	s0,sp,140
 50e:	0100                	addi	s0,sp,128
 510:	5007005b          	0x5007005b
 514:	0160                	addi	s0,sp,140
 516:	6000                	flw	fs0,0(s0)
 518:	0160                	addi	s0,sp,140
 51a:	0100                	addi	s0,sp,128
 51c:	075f 6160 0001      	0x16160075f
 522:	6178                	flw	fa4,68(a0)
 524:	0001                	nop
 526:	5f01                	li	t5,-32
 528:	0700                	addi	s0,sp,896
 52a:	5eb4                	lw	a3,120(a3)
 52c:	0001                	nop
 52e:	5ed0                	lw	a2,60(a3)
 530:	0001                	nop
 532:	5b01                	li	s6,-32
 534:	015fa407          	flw	fs0,21(t6)
 538:	b000                	fsd	fs0,32(s0)
 53a:	015f 0100 075b      	0x75b0100015f
 540:	6050                	flw	fa2,4(s0)
 542:	0001                	nop
 544:	6084                	flw	fs1,0(s1)
 546:	0001                	nop
 548:	5b01                	li	s6,-32
 54a:	01613407          	fld	fs0,22(sp)
 54e:	4c00                	lw	s0,24(s0)
 550:	0161                	addi	sp,sp,24
 552:	0100                	addi	s0,sp,128
 554:	6160075b          	0x6160075b
 558:	0001                	nop
 55a:	627c                	flw	fa5,68(a2)
 55c:	0001                	nop
 55e:	5b01                	li	s6,-32
 560:	0700                	addi	s0,sp,896
 562:	5e88                	lw	a0,56(a3)
 564:	0001                	nop
 566:	5eb8                	lw	a4,120(a3)
 568:	0001                	nop
 56a:	5c01                	li	s8,-32
 56c:	015eb807          	fld	fa6,21(t4)
 570:	c400                	sw	s0,8(s0)
 572:	015e                	slli	sp,sp,0x17
 574:	0900                	addi	s0,sp,144
 576:	007c                	addi	a5,sp,12
 578:	ff08007b          	0xff08007b
 57c:	241a                	fld	fs0,384(sp)
 57e:	079f 5ec4 0001      	0x15ec4079f
 584:	5f54                	lw	a3,60(a4)
 586:	0001                	nop
 588:	5e01                	li	t3,-32
 58a:	015f5c07          	0x15f5c07
 58e:	7000                	flw	fs0,32(s0)
 590:	015f 0100 005c      	0x5c0100015f
 596:	015e9c07          	0x15e9c07
 59a:	b000                	fsd	fs0,32(s0)
 59c:	015e                	slli	sp,sp,0x17
 59e:	0100                	addi	s0,sp,128
 5a0:	005d                	c.nop	23
 5a2:	015ed007          	0x15ed007
 5a6:	5400                	lw	s0,40(s0)
 5a8:	015f 0100 005b      	0x5b0100015f
 5ae:	015edc07          	0x15edc07
 5b2:	5400                	lw	s0,40(s0)
 5b4:	015f 0100 005c      	0x5c0100015f
 5ba:	015edc07          	0x15edc07
 5be:	0000                	unimp
 5c0:	015f 0100 0756      	0x7560100015f
 5c6:	5f00                	lw	s0,56(a4)
 5c8:	0001                	nop
 5ca:	5f50                	lw	a2,60(a4)
 5cc:	0001                	nop
 5ce:	5a01                	li	s4,-32
 5d0:	0700                	addi	s0,sp,896
 5d2:	5f18                	lw	a4,56(a4)
 5d4:	0001                	nop
 5d6:	5f40                	lw	s0,60(a4)
 5d8:	0001                	nop
 5da:	6101                	addi	sp,sp,0
 5dc:	015f4007          	flq	ft0,21(t5) # 1b015 <__malloc_av_+0x25>
 5e0:	5400                	lw	s0,40(s0)
 5e2:	015f 0100 005f      	0x5f0100015f
 5e8:	015edc07          	0x15edc07
 5ec:	e000                	fsw	fs0,0(s0)
 5ee:	015e                	slli	sp,sp,0x17
 5f0:	0600                	addi	s0,sp,768
 5f2:	007f                	0x7f
 5f4:	9f1d007b          	0x9f1d007b
 5f8:	015ee007          	0x15ee007
 5fc:	f000                	fsw	fs0,32(s0)
 5fe:	015e                	slli	sp,sp,0x17
 600:	0100                	addi	s0,sp,128
 602:	075f 5ef4 0001      	0x15ef4075f
 608:	5efc                	lw	a5,124(a3)
 60a:	0001                	nop
 60c:	5f01                	li	t5,-32
 60e:	015efc07          	0x15efc07
 612:	0000                	unimp
 614:	015f 0800 0080      	0x800800015f
 61a:	2540                	fld	fs0,136(a0)
 61c:	007d                	c.nop	31
 61e:	9f21                	0x9f21
 620:	015f0007          	0x15f0007
 624:	2400                	fld	fs0,8(s0)
 626:	015f 0100 005f      	0x5f0100015f
 62c:	015f1407          	0x15f1407
 630:	2400                	fld	fs0,8(s0)
 632:	015f 0600 007f      	0x7f0600015f
 638:	9f1d007b          	0x9f1d007b
 63c:	015f2407          	flw	fs0,21(t5)
 640:	2c00                	fld	fs0,24(s0)
 642:	015f 0100 075f      	0x75f0100015f
 648:	5f30                	lw	a2,120(a4)
 64a:	0001                	nop
 64c:	5f3c                	lw	a5,120(a4)
 64e:	0001                	nop
 650:	6001                	0x6001
 652:	0700                	addi	s0,sp,896
 654:	5ee8                	lw	a0,124(a3)
 656:	0001                	nop
 658:	5f18                	lw	a4,56(a4)
 65a:	0001                	nop
 65c:	6101                	addi	sp,sp,0
 65e:	015f1807          	0x15f1807
 662:	2800                	fld	fs0,16(s0)
 664:	015f 0600 007c      	0x7c0600015f
 66a:	0076                	c.slli	zero,0x1d
 66c:	9f1e                	add	t5,t5,t2
 66e:	015f2807          	flw	fa6,21(t5)
 672:	5400                	lw	s0,40(s0)
 674:	015f 0100 005d      	0x5d0100015f
 67a:	01625407          	0x1625407
 67e:	8400                	0x8400
 680:	0162                	slli	sp,sp,0x18
 682:	0100                	addi	s0,sp,128
 684:	005d                	c.nop	23
 686:	01625407          	0x1625407
 68a:	6800                	flw	fs0,16(s0)
 68c:	0162                	slli	sp,sp,0x18
 68e:	1000                	addi	s0,sp,32
 690:	0081                	addi	ra,ra,0
 692:	ff0a                	fsw	ft2,188(sp)
 694:	1aff                	0x1aff
 696:	007e                	c.slli	zero,0x1f
 698:	ff0a                	fsw	ft2,188(sp)
 69a:	1aff                	0x1aff
 69c:	2440                	fld	fs0,136(s0)
 69e:	9f22                	add	t5,t5,s0
 6a0:	01626807          	0x1626807
 6a4:	7000                	flw	fs0,32(s0)
 6a6:	0162                	slli	sp,sp,0x18
 6a8:	1500                	addi	s0,sp,672
 6aa:	0081                	addi	ra,ra,0
 6ac:	ff0a                	fsw	ft2,188(sp)
 6ae:	1aff                	0x1aff
 6b0:	0081                	addi	ra,ra,0
 6b2:	2540                	fld	fs0,136(a0)
 6b4:	007c                	addi	a5,sp,12
 6b6:	0a22                	slli	s4,s4,0x8
 6b8:	ffff                	0xffff
 6ba:	401a                	0x401a
 6bc:	2224                	fld	fs1,64(a2)
 6be:	009f 9007 0161      	0x1619007009f
 6c4:	2c00                	fld	fs0,24(s0)
 6c6:	0162                	slli	sp,sp,0x18
 6c8:	0100                	addi	s0,sp,128
 6ca:	0061                	c.nop	24
 6cc:	01619007          	0x1619007
 6d0:	dc00                	sw	s0,56(s0)
 6d2:	0161                	addi	sp,sp,24
 6d4:	0100                	addi	s0,sp,128
 6d6:	0760                	addi	s0,sp,908
 6d8:	61dc                	flw	fa5,4(a1)
 6da:	0001                	nop
 6dc:	6214                	flw	fa3,0(a2)
 6de:	0001                	nop
 6e0:	40007d07          	0x40007d07
 6e4:	4024                	lw	s1,64(s0)
 6e6:	9f25                	0x9f25
 6e8:	0700                	addi	s0,sp,896
 6ea:	6190                	flw	fa2,0(a1)
 6ec:	0001                	nop
 6ee:	61b4                	flw	fa3,64(a1)
 6f0:	0001                	nop
 6f2:	6d01                	0x6d01
 6f4:	0161b407          	fld	fs0,22(gp) # 1c0 <main-0xfeb4>
 6f8:	0800                	addi	s0,sp,16
 6fa:	0162                	slli	sp,sp,0x18
 6fc:	0100                	addi	s0,sp,128
 6fe:	005a                	c.slli	zero,0x16
 700:	0161cc07          	flq	fs8,22(gp) # 1bc3e <__global_pointer$+0x16>
 704:	f400                	fsw	fs0,40(s0)
 706:	0161                	addi	sp,sp,24
 708:	0100                	addi	s0,sp,128
 70a:	076c                	addi	a1,sp,908
 70c:	61f4                	flw	fa3,68(a1)
 70e:	0001                	nop
 710:	6218                	flw	fa4,0(a2)
 712:	0001                	nop
 714:	5e01                	li	t3,-32
 716:	0700                	addi	s0,sp,896
 718:	6190                	flw	fa2,0(a1)
 71a:	0001                	nop
 71c:	6194                	flw	fa3,0(a1)
 71e:	0001                	nop
 720:	7e06                	flw	ft8,96(sp)
 722:	8100                	0x8100
 724:	1d00                	addi	s0,sp,688
 726:	079f 6194 0001      	0x16194079f
 72c:	61a0                	flw	fs0,64(a1)
 72e:	0001                	nop
 730:	5e01                	li	t3,-32
 732:	0161a407          	flw	fs0,22(gp) # 1bc3e <__global_pointer$+0x16>
 736:	b000                	fsd	fs0,32(s0)
 738:	0161                	addi	sp,sp,24
 73a:	0100                	addi	s0,sp,128
 73c:	075e                	slli	a4,a4,0x17
 73e:	61b4                	flw	fa3,64(a1)
 740:	0001                	nop
 742:	61d8                	flw	fa4,4(a1)
 744:	0001                	nop
 746:	5e01                	li	t3,-32
 748:	0700                	addi	s0,sp,896
 74a:	61c8                	flw	fa0,4(a1)
 74c:	0001                	nop
 74e:	61d8                	flw	fa4,4(a1)
 750:	0001                	nop
 752:	7e06                	flw	ft8,96(sp)
 754:	8100                	0x8100
 756:	1d00                	addi	s0,sp,688
 758:	079f 61d8 0001      	0x161d8079f
 75e:	61e0                	flw	fs0,68(a1)
 760:	0001                	nop
 762:	5e01                	li	t3,-32
 764:	0161e407          	0x161e407
 768:	f000                	fsw	fs0,32(s0)
 76a:	0161                	addi	sp,sp,24
 76c:	0100                	addi	s0,sp,128
 76e:	075f 61f4 0001      	0x161f4075f
 774:	6260                	flw	fs0,68(a2)
 776:	0001                	nop
 778:	5f01                	li	t5,-32
 77a:	0700                	addi	s0,sp,896
 77c:	6198                	flw	fa4,0(a1)
 77e:	0001                	nop
 780:	61cc                	flw	fa1,4(a1)
 782:	0001                	nop
 784:	6c01                	0x6c01
 786:	0161cc07          	flq	fs8,22(gp) # 1bc3e <__global_pointer$+0x16>
 78a:	dc00                	sw	s0,56(s0)
 78c:	0161                	addi	sp,sp,24
 78e:	0600                	addi	s0,sp,768
 790:	0080                	addi	s0,sp,64
 792:	008d                	addi	ra,ra,3
 794:	9f1e                	add	t5,t5,t2
 796:	0161dc07          	0x161dc07
 79a:	2400                	fld	fs0,8(s0)
 79c:	0162                	slli	sp,sp,0x18
 79e:	0100                	addi	s0,sp,128
 7a0:	0060                	addi	s0,sp,12
 7a2:	01622c07          	flw	fs8,22(tp) # 1a016 <__EH_FRAME_BEGIN__+0x16>
 7a6:	7000                	flw	fs0,32(s0)
 7a8:	0162                	slli	sp,sp,0x18
 7aa:	0100                	addi	s0,sp,128
 7ac:	0061                	c.nop	24
 7ae:	01622c07          	flw	fs8,22(tp) # 16 <main-0x1005e>
 7b2:	3400                	fld	fs0,40(s0)
 7b4:	0162                	slli	sp,sp,0x18
 7b6:	0600                	addi	s0,sp,768
 7b8:	007e                	c.slli	zero,0x1f
 7ba:	007c                	addi	a5,sp,12
 7bc:	9f1e                	add	t5,t5,t2
 7be:	01623407          	fld	fs0,22(tp) # 16 <main-0x1005e>
 7c2:	3c00                	fld	fs0,56(s0)
 7c4:	0162                	slli	sp,sp,0x18
 7c6:	0100                	addi	s0,sp,128
 7c8:	075e                	slli	a4,a4,0x17
 7ca:	6244                	flw	fs1,4(a2)
 7cc:	0001                	nop
 7ce:	6268                	flw	fa0,68(a2)
 7d0:	0001                	nop
 7d2:	5e01                	li	t3,-32
 7d4:	01626807          	0x1626807
 7d8:	7000                	flw	fs0,32(s0)
 7da:	0162                	slli	sp,sp,0x18
 7dc:	0800                	addi	s0,sp,16
 7de:	0081                	addi	ra,ra,0
 7e0:	2540                	fld	fs0,136(a0)
 7e2:	007c                	addi	a5,sp,12
 7e4:	9f22                	add	t5,t5,s0
 7e6:	0700                	addi	s0,sp,896
 7e8:	6230                	flw	fa2,64(a2)
 7ea:	0001                	nop
 7ec:	6250                	flw	fa2,4(a2)
 7ee:	0001                	nop
 7f0:	5d01                	li	s10,-32
 7f2:	0700                	addi	s0,sp,896
 7f4:	6238                	flw	fa4,64(a2)
 7f6:	0001                	nop
 7f8:	6288                	flw	fa0,0(a3)
 7fa:	0001                	nop
 7fc:	6001                	0x6001
 7fe:	0700                	addi	s0,sp,896
 800:	621c                	flw	fa5,0(a2)
 802:	0001                	nop
 804:	6234                	flw	fa3,64(a2)
 806:	0001                	nop
 808:	5e01                	li	t3,-32
 80a:	01623407          	fld	fs0,22(tp) # 16 <main-0x1005e>
 80e:	6400                	flw	fs0,8(s0)
 810:	0162                	slli	sp,sp,0x18
 812:	0600                	addi	s0,sp,768
 814:	7f8c                	flw	fa1,56(a5)
 816:	007a                	c.slli	zero,0x1e
 818:	9f1a                	add	t5,t5,t1
 81a:	01626407          	0x1626407
 81e:	8000                	0x8000
 820:	0162                	slli	sp,sp,0x18
 822:	0600                	addi	s0,sp,768
 824:	007a                	c.slli	zero,0x1e
 826:	007f                	0x7f
 828:	9f1a                	add	t5,t5,t1
 82a:	01628007          	0x1628007
 82e:	8400                	0x8400
 830:	0162                	slli	sp,sp,0x18
 832:	0600                	addi	s0,sp,768
 834:	7f8c                	flw	fa1,56(a5)
 836:	007a                	c.slli	zero,0x1e
 838:	9f1a                	add	t5,t5,t1
 83a:	01628407          	0x1628407
 83e:	8800                	0x8800
 840:	0162                	slli	sp,sp,0x18
 842:	0600                	addi	s0,sp,768
 844:	017a                	slli	sp,sp,0x1e
 846:	7f8c                	flw	fa1,56(a5)
 848:	9f1a                	add	t5,t5,t1
 84a:	0700                	addi	s0,sp,896
 84c:	6224                	flw	fs1,64(a2)
 84e:	0001                	nop
 850:	6230                	flw	fa2,64(a2)
 852:	0001                	nop
 854:	5d01                	li	s10,-32
 856:	0700                	addi	s0,sp,896
 858:	6224                	flw	fs1,64(a2)
 85a:	0001                	nop
 85c:	6238                	flw	fa4,64(a2)
 85e:	0001                	nop
 860:	6001                	0x6001
 862:	01623807          	fld	fa6,22(tp) # 16 <main-0x1005e>
 866:	8400                	0x8400
 868:	0162                	slli	sp,sp,0x18
 86a:	0500                	addi	s0,sp,640
 86c:	007a                	c.slli	zero,0x1e
 86e:	2540                	fld	fs0,136(a0)
 870:	079f 6284 0001      	0x16284079f
 876:	6288                	flw	fa0,0(a3)
 878:	0001                	nop
 87a:	7a05                	lui	s4,0xfffe1
 87c:	4001                	c.li	zero,0
 87e:	9f25                	0x9f25
 880:	0700                	addi	s0,sp,896
 882:	6228                	flw	fa0,64(a2)
 884:	0001                	nop
 886:	623c                	flw	fa5,64(a2)
 888:	0001                	nop
 88a:	5c01                	li	s8,-32
 88c:	0700                	addi	s0,sp,896
 88e:	5f78                	lw	a4,124(a4)
 890:	0001                	nop
 892:	5fb0                	lw	a2,120(a5)
 894:	0001                	nop
 896:	5c01                	li	s8,-32
 898:	015fb007          	fld	ft0,21(t6)
 89c:	3c00                	fld	fs0,56(s0)
 89e:	0160                	addi	s0,sp,140
 8a0:	0100                	addi	s0,sp,128
 8a2:	075e                	slli	a4,a4,0x17
 8a4:	603c                	flw	fa5,64(s0)
 8a6:	0001                	nop
 8a8:	6050                	flw	fa2,4(s0)
 8aa:	0001                	nop
 8ac:	5c01                	li	s8,-32
 8ae:	01605007          	0x1605007
 8b2:	5400                	lw	s0,40(s0)
 8b4:	0160                	addi	s0,sp,140
 8b6:	0900                	addi	s0,sp,144
 8b8:	007c                	addi	a5,sp,12
 8ba:	ff08007b          	0xff08007b
 8be:	241a                	fld	fs0,384(sp)
 8c0:	079f 6054 0001      	0x16054079f
 8c6:	60fc                	flw	fa5,68(s1)
 8c8:	0001                	nop
 8ca:	5e01                	li	t3,-32
 8cc:	0700                	addi	s0,sp,896
 8ce:	5f8c                	lw	a1,56(a5)
 8d0:	0001                	nop
 8d2:	5fa0                	lw	s0,120(a5)
 8d4:	0001                	nop
 8d6:	5d01                	li	s10,-32
 8d8:	0700                	addi	s0,sp,896
 8da:	5fb4                	lw	a3,120(a5)
 8dc:	0001                	nop
 8de:	603c                	flw	fa5,64(s0)
 8e0:	0001                	nop
 8e2:	6101                	addi	sp,sp,0
 8e4:	0700                	addi	s0,sp,896
 8e6:	5fc0                	lw	s0,60(a5)
 8e8:	0001                	nop
 8ea:	603c                	flw	fa5,64(s0)
 8ec:	0001                	nop
 8ee:	5c01                	li	s8,-32
 8f0:	0700                	addi	s0,sp,896
 8f2:	5fc0                	lw	s0,60(a5)
 8f4:	0001                	nop
 8f6:	5fe4                	lw	s1,124(a5)
 8f8:	0001                	nop
 8fa:	6c01                	0x6c01
 8fc:	015fe407          	0x15fe407
 900:	3400                	fld	fs0,40(s0)
 902:	0160                	addi	s0,sp,140
 904:	0100                	addi	s0,sp,128
 906:	005a                	c.slli	zero,0x16
 908:	015ffc07          	0x15ffc07
 90c:	2400                	fld	fs0,8(s0)
 90e:	0160                	addi	s0,sp,140
 910:	0100                	addi	s0,sp,128
 912:	0756                	slli	a4,a4,0x15
 914:	6024                	flw	fs1,64(s0)
 916:	0001                	nop
 918:	603c                	flw	fa5,64(s0)
 91a:	0001                	nop
 91c:	5f01                	li	t5,-32
 91e:	0700                	addi	s0,sp,896
 920:	5fc0                	lw	s0,60(a5)
 922:	0001                	nop
 924:	5fc8                	lw	a0,60(a5)
 926:	0001                	nop
 928:	7f06                	flw	ft10,96(sp)
 92a:	8100                	0x8100
 92c:	1d00                	addi	s0,sp,688
 92e:	079f 5fc8 0001      	0x15fc8079f
 934:	5fd4                	lw	a3,60(a5)
 936:	0001                	nop
 938:	5f01                	li	t5,-32
 93a:	015fd807          	0x15fd807
 93e:	e000                	fsw	fs0,0(s0)
 940:	015f 0100 075f      	0x75f0100015f
 946:	5fe4                	lw	s1,124(a5)
 948:	0001                	nop
 94a:	6008                	flw	fa0,0(s0)
 94c:	0001                	nop
 94e:	5f01                	li	t5,-32
 950:	0700                	addi	s0,sp,896
 952:	5ff8                	lw	a4,124(a5)
 954:	0001                	nop
 956:	6008                	flw	fa0,0(s0)
 958:	0001                	nop
 95a:	7f06                	flw	ft10,96(sp)
 95c:	8100                	0x8100
 95e:	1d00                	addi	s0,sp,688
 960:	079f 6008 0001      	0x16008079f
 966:	6010                	flw	fa2,0(s0)
 968:	0001                	nop
 96a:	5f01                	li	t5,-32
 96c:	01601407          	0x1601407
 970:	2000                	fld	fs0,0(s0)
 972:	0160                	addi	s0,sp,140
 974:	0100                	addi	s0,sp,128
 976:	0060                	addi	s0,sp,12
 978:	015fd007          	0x15fd007
 97c:	fc00                	fsw	fs0,56(s0)
 97e:	015f 0100 0756      	0x7560100015f
 984:	5ffc                	lw	a5,124(a5)
 986:	0001                	nop
 988:	600c                	flw	fa1,0(s0)
 98a:	0001                	nop
 98c:	7c06                	flw	fs8,96(sp)
 98e:	8c00                	0x8c00
 990:	1e00                	addi	s0,sp,816
 992:	079f 600c 0001      	0x1600c079f
 998:	603c                	flw	fa5,64(s0)
 99a:	0001                	nop
 99c:	5d01                	li	s10,-32
 99e:	0700                	addi	s0,sp,896
 9a0:	6078                	flw	fa4,68(s0)
 9a2:	0001                	nop
 9a4:	60fc                	flw	fa5,68(s1)
 9a6:	0001                	nop
 9a8:	5a01                	li	s4,-32
 9aa:	0700                	addi	s0,sp,896
 9ac:	6078                	flw	fa4,68(s0)
 9ae:	0001                	nop
 9b0:	60c4                	flw	fs1,4(s1)
 9b2:	0001                	nop
 9b4:	5c01                	li	s8,-32
 9b6:	0160c407          	flq	fs0,22(ra) # 221a0016 <__BSS_END__+0x221803a6>
 9ba:	fc00                	fsw	fs0,56(s0)
 9bc:	0160                	addi	s0,sp,140
 9be:	0700                	addi	s0,sp,896
 9c0:	007e                	c.slli	zero,0x1f
 9c2:	2440                	fld	fs0,136(s0)
 9c4:	2540                	fld	fs0,136(a0)
 9c6:	009f 7807 0160      	0x1607807009f
 9cc:	9c00                	0x9c00
 9ce:	0160                	addi	s0,sp,140
 9d0:	0100                	addi	s0,sp,128
 9d2:	0756                	slli	a4,a4,0x15
 9d4:	609c                	flw	fa5,0(s1)
 9d6:	0001                	nop
 9d8:	60f0                	flw	fa2,68(s1)
 9da:	0001                	nop
 9dc:	5b01                	li	s6,-32
 9de:	0700                	addi	s0,sp,896
 9e0:	60b4                	flw	fa3,64(s1)
 9e2:	0001                	nop
 9e4:	60dc                	flw	fa5,4(s1)
 9e6:	0001                	nop
 9e8:	6101                	addi	sp,sp,0
 9ea:	0160dc07          	0x160dc07
 9ee:	fc00                	fsw	fs0,56(s0)
 9f0:	0160                	addi	s0,sp,140
 9f2:	0100                	addi	s0,sp,128
 9f4:	005d                	c.nop	23
 9f6:	01607807          	0x1607807
 9fa:	7c00                	flw	fs0,56(s0)
 9fc:	0160                	addi	s0,sp,140
 9fe:	0600                	addi	s0,sp,768
 a00:	007d                	c.nop	31
 a02:	007a                	c.slli	zero,0x1e
 a04:	9f1d                	0x9f1d
 a06:	01607c07          	0x1607c07
 a0a:	8800                	0x8800
 a0c:	0160                	addi	s0,sp,140
 a0e:	0100                	addi	s0,sp,128
 a10:	075d                	addi	a4,a4,23
 a12:	608c                	flw	fa1,0(s1)
 a14:	0001                	nop
 a16:	6098                	flw	fa4,0(s1)
 a18:	0001                	nop
 a1a:	5d01                	li	s10,-32
 a1c:	01609c07          	0x1609c07
 a20:	c000                	sw	s0,0(s0)
 a22:	0160                	addi	s0,sp,140
 a24:	0100                	addi	s0,sp,128
 a26:	005d                	c.nop	23
 a28:	0160b007          	fld	ft0,22(ra)
 a2c:	c000                	sw	s0,0(s0)
 a2e:	0160                	addi	s0,sp,140
 a30:	0600                	addi	s0,sp,768
 a32:	007d                	c.nop	31
 a34:	007a                	c.slli	zero,0x1e
 a36:	9f1d                	0x9f1d
 a38:	0160c007          	flq	ft0,22(ra)
 a3c:	c800                	sw	s0,16(s0)
 a3e:	0160                	addi	s0,sp,140
 a40:	0100                	addi	s0,sp,128
 a42:	075d                	addi	a4,a4,23
 a44:	60cc                	flw	fa1,4(s1)
 a46:	0001                	nop
 a48:	60d8                	flw	fa4,4(s1)
 a4a:	0001                	nop
 a4c:	5f01                	li	t5,-32
 a4e:	0160dc07          	0x160dc07
 a52:	fc00                	fsw	fs0,56(s0)
 a54:	0160                	addi	s0,sp,140
 a56:	0100                	addi	s0,sp,128
 a58:	005f 8007 0160      	0x1608007005f
 a5e:	b400                	fsd	fs0,40(s0)
 a60:	0160                	addi	s0,sp,140
 a62:	0100                	addi	s0,sp,128
 a64:	0761                	addi	a4,a4,24
 a66:	60b4                	flw	fa3,64(s1)
 a68:	0001                	nop
 a6a:	60c4                	flw	fs1,4(s1)
 a6c:	0001                	nop
 a6e:	7c06                	flw	fs8,96(sp)
 a70:	7600                	flw	fs0,40(a2)
 a72:	1e00                	addi	s0,sp,816
 a74:	079f 60c4 0001      	0x160c4079f
 a7a:	60fc                	flw	fa5,68(s1)
 a7c:	0001                	nop
 a7e:	5c01                	li	s8,-32
 a80:	0700                	addi	s0,sp,896
 a82:	6100                	flw	fs0,0(a0)
 a84:	0001                	nop
 a86:	6168                	flw	fa0,68(a0)
 a88:	0001                	nop
 a8a:	5d01                	li	s10,-32
 a8c:	0700                	addi	s0,sp,896
 a8e:	6114                	flw	fa3,0(a0)
 a90:	0001                	nop
 a92:	6130                	flw	fa2,64(a0)
 a94:	0001                	nop
 a96:	5e01                	li	t3,-32
	...

Disassembly of section .debug_rnglists:

00000000 <.debug_rnglists>:
   0:	010d                	addi	sp,sp,3
   2:	0000                	unimp
   4:	0005                	c.nop	1
   6:	0004                	0x4
   8:	0000                	unimp
   a:	0000                	unimp
   c:	6406                	flw	fs0,64(sp)
   e:	015e                	slli	sp,sp,0x17
  10:	6400                	flw	fs0,8(s0)
  12:	015e                	slli	sp,sp,0x17
  14:	0600                	addi	s0,sp,768
  16:	5e6c                	lw	a1,124(a2)
  18:	0001                	nop
  1a:	5f58                	lw	a4,60(a4)
  1c:	0001                	nop
  1e:	5c06                	lw	s8,96(sp)
  20:	015f 9400 0162      	0x1629400015f
  26:	0000                	unimp
  28:	6406                	flw	fs0,64(sp)
  2a:	015e                	slli	sp,sp,0x17
  2c:	6400                	flw	fs0,8(s0)
  2e:	015e                	slli	sp,sp,0x17
  30:	0600                	addi	s0,sp,768
  32:	5e6c                	lw	a1,124(a2)
  34:	0001                	nop
  36:	5f58                	lw	a4,60(a4)
  38:	0001                	nop
  3a:	5c06                	lw	s8,96(sp)
  3c:	015f 8400 0162      	0x1628400015f
  42:	0600                	addi	s0,sp,768
  44:	6288                	flw	fa0,0(a3)
  46:	0001                	nop
  48:	6294                	flw	fa3,0(a3)
  4a:	0001                	nop
  4c:	0600                	addi	s0,sp,768
  4e:	5e88                	lw	a0,56(a3)
  50:	0001                	nop
  52:	5eb4                	lw	a3,120(a3)
  54:	0001                	nop
  56:	5c06                	lw	s8,96(sp)
  58:	015f 7000 015f      	0x15f7000015f
  5e:	0000                	unimp
  60:	5406                	lw	s0,96(sp)
  62:	015f 5800 015f      	0x15f5800015f
  68:	0600                	addi	s0,sp,768
  6a:	6160                	flw	fs0,68(a0)
  6c:	0001                	nop
  6e:	6284                	flw	fs1,0(a3)
  70:	0001                	nop
  72:	0600                	addi	s0,sp,768
  74:	617c                	flw	fa5,68(a0)
  76:	0001                	nop
  78:	618c                	flw	fa1,0(a1)
  7a:	0001                	nop
  7c:	9006                	c.add	zero,ra
  7e:	0161                	addi	sp,sp,24
  80:	0800                	addi	s0,sp,16
  82:	0162                	slli	sp,sp,0x18
  84:	0600                	addi	s0,sp,768
  86:	620c                	flw	fa1,0(a2)
  88:	0001                	nop
  8a:	6210                	flw	fa2,0(a2)
  8c:	0001                	nop
  8e:	1806                	slli	a6,a6,0x21
  90:	0162                	slli	sp,sp,0x18
  92:	1c00                	addi	s0,sp,560
  94:	0162                	slli	sp,sp,0x18
  96:	0000                	unimp
  98:	0806                	slli	a6,a6,0x1
  9a:	0162                	slli	sp,sp,0x18
  9c:	0c00                	addi	s0,sp,528
  9e:	0162                	slli	sp,sp,0x18
  a0:	0600                	addi	s0,sp,768
  a2:	6210                	flw	fa2,0(a2)
  a4:	0001                	nop
  a6:	6218                	flw	fa4,0(a2)
  a8:	0001                	nop
  aa:	1c06                	slli	s8,s8,0x21
  ac:	0162                	slli	sp,sp,0x18
  ae:	5400                	lw	s0,40(s0)
  b0:	0162                	slli	sp,sp,0x18
  b2:	0600                	addi	s0,sp,768
  b4:	625c                	flw	fa5,4(a2)
  b6:	0001                	nop
  b8:	6270                	flw	fa2,68(a2)
  ba:	0001                	nop
  bc:	7406                	flw	fs0,96(sp)
  be:	0162                	slli	sp,sp,0x18
  c0:	7800                	flw	fs0,48(s0)
  c2:	0162                	slli	sp,sp,0x18
  c4:	0000                	unimp
  c6:	7806                	flw	fa6,96(sp)
  c8:	015f a400 015f      	0x15fa400015f
  ce:	0600                	addi	s0,sp,768
  d0:	603c                	flw	fa5,64(s0)
  d2:	0001                	nop
  d4:	6050                	flw	fa2,4(s0)
  d6:	0001                	nop
  d8:	0600                	addi	s0,sp,768
  da:	6058                	flw	fa4,4(s0)
  dc:	0001                	nop
  de:	605c                	flw	fa5,4(s0)
  e0:	0001                	nop
  e2:	6406                	flw	fs0,64(sp)
  e4:	0160                	addi	s0,sp,140
  e6:	6c00                	flw	fs0,24(s0)
  e8:	0160                	addi	s0,sp,140
  ea:	0600                	addi	s0,sp,768
  ec:	6070                	flw	fa2,68(s0)
  ee:	0001                	nop
  f0:	6074                	flw	fa3,68(s0)
  f2:	0001                	nop
  f4:	7806                	flw	fa6,96(sp)
  f6:	0160                	addi	s0,sp,140
  f8:	fc00                	fsw	fs0,56(s0)
  fa:	0160                	addi	s0,sp,140
  fc:	0000                	unimp
  fe:	0006                	c.slli	zero,0x1
 100:	0161                	addi	sp,sp,24
 102:	3400                	fld	fs0,40(s0)
 104:	0161                	addi	sp,sp,24
 106:	0600                	addi	s0,sp,768
 108:	614c                	flw	fa1,4(a0)
 10a:	0001                	nop
 10c:	6160                	flw	fs0,68(a0)
 10e:	0001                	nop
	...
