
./memtest.elf:     file format elf32-littleriscv
./memtest.elf
architecture: riscv:rv32, flags 0x00000112:
EXEC_P, HAS_SYMS, D_PAGED
start address 0x0001032c

Program Header:
    LOAD off    0x00000000 vaddr 0x00010000 paddr 0x00010000 align 2**12
         filesz 0x00001800 memsz 0x00001800 flags r-x
    LOAD off    0x00001800 vaddr 0x00012800 paddr 0x00012800 align 2**12
         filesz 0x00000638 memsz 0x00000654 flags rw-

Sections:
Idx Name          Size      VMA       LMA       File off  Algn
  0 .text         000013e4  00010074  00010074  00000074  2**2
                  CONTENTS, ALLOC, LOAD, READONLY, CODE
  1 .rodata       000003a8  00011458  00011458  00001458  2**2
                  CONTENTS, ALLOC, LOAD, READONLY, DATA
  2 .eh_frame     000001d0  00012800  00012800  00001800  2**2
                  CONTENTS, ALLOC, LOAD, DATA
  3 .init_array   00000008  000129d0  000129d0  000019d0  2**2
                  CONTENTS, ALLOC, LOAD, DATA
  4 .fini_array   00000004  000129d8  000129d8  000019d8  2**2
                  CONTENTS, ALLOC, LOAD, DATA
  5 .data         00000438  000129e0  000129e0  000019e0  2**3
                  CONTENTS, ALLOC, LOAD, DATA
  6 .got          00000018  00012e18  00012e18  00001e18  2**2
                  CONTENTS, ALLOC, LOAD, DATA
  7 .sdata        00000008  00012e30  00012e30  00001e30  2**2
                  CONTENTS, ALLOC, LOAD, DATA
  8 .bss          0000001c  00012e38  00012e38  00001e38  2**2
                  ALLOC
  9 .comment      00000012  00000000  00000000  00001e38  2**0
                  CONTENTS, READONLY
 10 .riscv.attributes 0000002a  00000000  00000000  00001e4a  2**0
                  CONTENTS, READONLY
 11 .debug_aranges 00000038  00000000  00000000  00001e74  2**0
                  CONTENTS, READONLY, DEBUGGING, OCTETS
 12 .debug_info   00000839  00000000  00000000  00001eac  2**0
                  CONTENTS, READONLY, DEBUGGING, OCTETS
 13 .debug_abbrev 00000216  00000000  00000000  000026e5  2**0
                  CONTENTS, READONLY, DEBUGGING, OCTETS
 14 .debug_line   00000766  00000000  00000000  000028fb  2**0
                  CONTENTS, READONLY, DEBUGGING, OCTETS
 15 .debug_str    0000029c  00000000  00000000  00003061  2**0
                  CONTENTS, READONLY, DEBUGGING, OCTETS
 16 .debug_line_str 000000ba  00000000  00000000  000032fd  2**0
                  CONTENTS, READONLY, DEBUGGING, OCTETS
 17 .debug_loclists 00000a99  00000000  00000000  000033b7  2**0
                  CONTENTS, READONLY, DEBUGGING, OCTETS
 18 .debug_rnglists 00000111  00000000  00000000  00003e50  2**0
                  CONTENTS, READONLY, DEBUGGING, OCTETS
SYMBOL TABLE:
00010074 l    d  .text	00000000 .text
00011458 l    d  .rodata	00000000 .rodata
00012800 l    d  .eh_frame	00000000 .eh_frame
000129d0 l    d  .init_array	00000000 .init_array
000129d8 l    d  .fini_array	00000000 .fini_array
000129e0 l    d  .data	00000000 .data
00012e18 l    d  .got	00000000 .got
00012e30 l    d  .sdata	00000000 .sdata
00012e38 l    d  .bss	00000000 .bss
00000000 l    d  .comment	00000000 .comment
00000000 l    d  .riscv.attributes	00000000 .riscv.attributes
00000000 l    d  .debug_aranges	00000000 .debug_aranges
00000000 l    d  .debug_info	00000000 .debug_info
00000000 l    d  .debug_abbrev	00000000 .debug_abbrev
00000000 l    d  .debug_line	00000000 .debug_line
00000000 l    d  .debug_str	00000000 .debug_str
00000000 l    d  .debug_line_str	00000000 .debug_line_str
00000000 l    d  .debug_loclists	00000000 .debug_loclists
00000000 l    d  .debug_rnglists	00000000 .debug_rnglists
00000000 l    df *ABS*	00000000 memtest.cpp
00000000 l    df *ABS*	00000000 __call_atexit.c
00010314 l     F .text	00000018 register_fini
00000000 l    df *ABS*	00000000 crtstuff.c
00012800 l     O .eh_frame	00000000 __EH_FRAME_BEGIN__
00010378 l     F .text	00000000 __do_global_dtors_aux
00012e38 l     O .bss	00000001 completed.1
000129d8 l     O .fini_array	00000000 __do_global_dtors_aux_fini_array_entry
000103bc l     F .text	00000000 frame_dummy
00012e3c l     O .bss	00000018 object.0
000129d4 l     O .init_array	00000000 __frame_dummy_init_array_entry
00000000 l    df *ABS*	00000000 uart.c
00000000 l    df *ABS*	00000000 core.c
00000000 l    df *ABS*	00000000 memtest.c
00000000 l    df *ABS*	00000000 libgcc2.c
00000000 l    df *ABS*	00000000 errno.c
00000000 l    df *ABS*	00000000 exit.c
00000000 l    df *ABS*	00000000 init.c
00000000 l    df *ABS*	00000000 atexit.c
00000000 l    df *ABS*	00000000 fini.c
00000000 l    df *ABS*	00000000 __atexit.c
00000000 l    df *ABS*	00000000 sys_exit.c
00000000 l    df *ABS*	00000000 libgcc2.c
00000000 l    df *ABS*	00000000 task.c
00000000 l    df *ABS*	00000000 leds.c
00000000 l    df *ABS*	00000000 console.c
00000000 l    df *ABS*	00000000 gpu.c
00000000 l    df *ABS*	00000000 ringbuffer.c
00000000 l    df *ABS*	00000000 ps2.c
00000000 l    df *ABS*	00000000 debugger.c
00000000 l    df *ABS*	00000000 buttons.c
00000000 l    df *ABS*	00000000 sdcard.c
00000000 l    df *ABS*	00000000 ff.c
00000000 l    df *ABS*	00000000 ffunicode.c
00000000 l    df *ABS*	00000000 diskio.c
00000000 l    df *ABS*	00000000 nanojpeg.c
00000000 l    df *ABS*	00000000 micromod.c
00000000 l    df *ABS*	00000000 crtstuff.c
000129cc l     O .eh_frame	00000000 __FRAME_END__
00000000 l    df *ABS*	00000000 impure.c
000129f0 l     O .data	00000428 impure_data
000129dc l       .fini_array	00000000 __fini_array_end
000129d8 l       .fini_array	00000000 __fini_array_start
000129d8 l       .init_array	00000000 __init_array_end
000129d0 l       .init_array	00000000 __preinit_array_end
00012e20 l     O .got	00000000 _GLOBAL_OFFSET_TABLE_
000129d0 l       .init_array	00000000 __init_array_start
000129d0 l       .init_array	00000000 __preinit_array_start
000131e0 g       *ABS*	00000000 __global_pointer$
000103f4 g     F .text	00000024 _Z9UARTFlushv
00011050 g     F .text	00000008 __errno
00010a74 g     F .text	0000011c _Z17memTestAddressBusPVmmPi
000129e0 g     O .data	00000004 IO_UARTRX
00012e30 g       .sdata	00000000 __SDATA_BEGIN__
00010450 g     F .text	00000014 _Z11UARTPutCharc
00010a40 g     F .text	00000034 _Z14memTestDataBusPVm
000104f4 g     F .text	0000007c _Z16UARTWriteHexByteh
00012e30 g     O .sdata	00000004 _global_impure_ptr
00011088 g     F .text	0000009c __libc_init_array
00010a1c g     F .text	00000024 _Z9ClockToMsy
00010c20 g     F .text	00000430 .hidden __udivdi3
000103dc g     F .text	00000018 _Z11UARTHasDatav
00011334 g     F .text	0000005c __libc_fini_array
00011200 g     F .text	00000120 __call_exitprocs
0001032c g     F .text	0000004c _start
000106c0 g     F .text	00000348 _Z16UARTWriteDecimall
00011390 g     F .text	00000098 __register_exitproc
00012e54 g       .bss	00000000 __BSS_END__
00012e38 g       .bss	00000000 __bss_start
00011124 g     F .text	000000dc memset
00010074 g     F .text	000002a0 main
00010464 g     F .text	00000090 _Z9UARTWritePKc
00011700 g     O .rodata	00000100 .hidden __clz_tab
00011320 g     F .text	00000014 atexit
000129e8 g     O .data	00000004 IO_UARTTX
00012e34 g     O .sdata	00000004 _impure_ptr
000129e0 g       .data	00000000 __DATA_BEGIN__
00012e38 g       .sdata	00000000 _edata
00012e54 g       .bss	00000000 _end
00011058 g     F .text	00000030 exit
00010418 g     F .text	00000038 _Z8UARTReadv
000129e4 g     O .data	00000004 IO_UARTStatus
00011428 g     F .text	00000030 _exit
00010a08 g     F .text	00000014 _Z11E32ReadTimev
00010b90 g     F .text	00000090 _Z13memTestDevicePVmm
00010570 g     F .text	00000150 _Z12UARTWriteHexm



Disassembly of section .text:

00010074 <main>:
   10074:	fe010113          	addi	sp,sp,-32
   10078:	00001517          	auipc	a0,0x1
   1007c:	3f850513          	addi	a0,a0,1016 # 11470 <_exit+0x48>
   10080:	00112e23          	sw	ra,28(sp)
   10084:	00812c23          	sw	s0,24(sp)
   10088:	00912a23          	sw	s1,20(sp)
   1008c:	01212823          	sw	s2,16(sp)
   10090:	3d4000ef          	jal	ra,10464 <_Z9UARTWritePKc>
   10094:	00001517          	auipc	a0,0x1
   10098:	3f850513          	addi	a0,a0,1016 # 1148c <_exit+0x64>
   1009c:	3c8000ef          	jal	ra,10464 <_Z9UARTWritePKc>
   100a0:	169000ef          	jal	ra,10a08 <_Z11E32ReadTimev>
   100a4:	00050413          	mv	s0,a0
   100a8:	00058493          	mv	s1,a1
   100ac:	0a0007b7          	lui	a5,0xa000
   100b0:	0c000737          	lui	a4,0xc000
   100b4:	0007a023          	sw	zero,0(a5) # a000000 <__global_pointer$+0x9fece20>
   100b8:	00478793          	addi	a5,a5,4
   100bc:	fee79ce3          	bne	a5,a4,100b4 <main+0x40>
   100c0:	149000ef          	jal	ra,10a08 <_Z11E32ReadTimev>
   100c4:	00050793          	mv	a5,a0
   100c8:	40850533          	sub	a0,a0,s0
   100cc:	00a7b7b3          	sltu	a5,a5,a0
   100d0:	409585b3          	sub	a1,a1,s1
   100d4:	40f585b3          	sub	a1,a1,a5
   100d8:	145000ef          	jal	ra,10a1c <_Z9ClockToMsy>
   100dc:	00050413          	mv	s0,a0
   100e0:	00001517          	auipc	a0,0x1
   100e4:	3c850513          	addi	a0,a0,968 # 114a8 <_exit+0x80>
   100e8:	37c000ef          	jal	ra,10464 <_Z9UARTWritePKc>
   100ec:	00040513          	mv	a0,s0
   100f0:	5d0000ef          	jal	ra,106c0 <_Z16UARTWriteDecimall>
   100f4:	00001517          	auipc	a0,0x1
   100f8:	3cc50513          	addi	a0,a0,972 # 114c0 <_exit+0x98>
   100fc:	368000ef          	jal	ra,10464 <_Z9UARTWritePKc>
   10100:	00001517          	auipc	a0,0x1
   10104:	3c850513          	addi	a0,a0,968 # 114c8 <_exit+0xa0>
   10108:	35c000ef          	jal	ra,10464 <_Z9UARTWritePKc>
   1010c:	02000537          	lui	a0,0x2000
   10110:	02855533          	divu	a0,a0,s0
   10114:	00000493          	li	s1,0
   10118:	0a000437          	lui	s0,0xa000
   1011c:	0a040937          	lui	s2,0xa040
   10120:	5a0000ef          	jal	ra,106c0 <_Z16UARTWriteDecimall>
   10124:	00001517          	auipc	a0,0x1
   10128:	3b850513          	addi	a0,a0,952 # 114dc <_exit+0xb4>
   1012c:	338000ef          	jal	ra,10464 <_Z9UARTWritePKc>
   10130:	00001517          	auipc	a0,0x1
   10134:	3bc50513          	addi	a0,a0,956 # 114ec <_exit+0xc4>
   10138:	32c000ef          	jal	ra,10464 <_Z9UARTWritePKc>
   1013c:	00001517          	auipc	a0,0x1
   10140:	3d850513          	addi	a0,a0,984 # 11514 <_exit+0xec>
   10144:	320000ef          	jal	ra,10464 <_Z9UARTWritePKc>
   10148:	00001517          	auipc	a0,0x1
   1014c:	3f050513          	addi	a0,a0,1008 # 11538 <_exit+0x110>
   10150:	314000ef          	jal	ra,10464 <_Z9UARTWritePKc>
   10154:	00001517          	auipc	a0,0x1
   10158:	40850513          	addi	a0,a0,1032 # 1155c <_exit+0x134>
   1015c:	308000ef          	jal	ra,10464 <_Z9UARTWritePKc>
   10160:	00040513          	mv	a0,s0
   10164:	0dd000ef          	jal	ra,10a40 <_Z14memTestDataBusPVm>
   10168:	00440413          	addi	s0,s0,4 # a000004 <__global_pointer$+0x9fece24>
   1016c:	00a484b3          	add	s1,s1,a0
   10170:	ff2418e3          	bne	s0,s2,10160 <main+0xec>
   10174:	00001517          	auipc	a0,0x1
   10178:	2e450513          	addi	a0,a0,740 # 11458 <_exit+0x30>
   1017c:	00048663          	beqz	s1,10188 <main+0x114>
   10180:	00001517          	auipc	a0,0x1
   10184:	2e450513          	addi	a0,a0,740 # 11464 <_exit+0x3c>
   10188:	2dc000ef          	jal	ra,10464 <_Z9UARTWritePKc>
   1018c:	00048513          	mv	a0,s1
   10190:	530000ef          	jal	ra,106c0 <_Z16UARTWriteDecimall>
   10194:	00001517          	auipc	a0,0x1
   10198:	3f450513          	addi	a0,a0,1012 # 11588 <_exit+0x160>
   1019c:	2c8000ef          	jal	ra,10464 <_Z9UARTWritePKc>
   101a0:	00001517          	auipc	a0,0x1
   101a4:	3f450513          	addi	a0,a0,1012 # 11594 <_exit+0x16c>
   101a8:	2bc000ef          	jal	ra,10464 <_Z9UARTWritePKc>
   101ac:	00c10613          	addi	a2,sp,12
   101b0:	000405b7          	lui	a1,0x40
   101b4:	0b000537          	lui	a0,0xb000
   101b8:	00012623          	sw	zero,12(sp)
   101bc:	0b9000ef          	jal	ra,10a74 <_Z17memTestAddressBusPVmmPi>
   101c0:	00050413          	mv	s0,a0
   101c4:	0c050263          	beqz	a0,10288 <main+0x214>
   101c8:	00001517          	auipc	a0,0x1
   101cc:	4d050513          	addi	a0,a0,1232 # 11698 <_exit+0x270>
   101d0:	294000ef          	jal	ra,10464 <_Z9UARTWritePKc>
   101d4:	00c12783          	lw	a5,12(sp)
   101d8:	08078e63          	beqz	a5,10274 <main+0x200>
   101dc:	00100713          	li	a4,1
   101e0:	10e78863          	beq	a5,a4,102f0 <main+0x27c>
   101e4:	00200713          	li	a4,2
   101e8:	0ee78c63          	beq	a5,a4,102e0 <main+0x26c>
   101ec:	00040513          	mv	a0,s0
   101f0:	380000ef          	jal	ra,10570 <_Z12UARTWriteHexm>
   101f4:	00001517          	auipc	a0,0x1
   101f8:	2b050513          	addi	a0,a0,688 # 114a4 <_exit+0x7c>
   101fc:	268000ef          	jal	ra,10464 <_Z9UARTWritePKc>
   10200:	00001517          	auipc	a0,0x1
   10204:	43050513          	addi	a0,a0,1072 # 11630 <_exit+0x208>
   10208:	25c000ef          	jal	ra,10464 <_Z9UARTWritePKc>
   1020c:	000405b7          	lui	a1,0x40
   10210:	0c000537          	lui	a0,0xc000
   10214:	17d000ef          	jal	ra,10b90 <_Z13memTestDevicePVmm>
   10218:	00050413          	mv	s0,a0
   1021c:	0e050463          	beqz	a0,10304 <main+0x290>
   10220:	00001517          	auipc	a0,0x1
   10224:	47850513          	addi	a0,a0,1144 # 11698 <_exit+0x270>
   10228:	23c000ef          	jal	ra,10464 <_Z9UARTWritePKc>
   1022c:	00001517          	auipc	a0,0x1
   10230:	47450513          	addi	a0,a0,1140 # 116a0 <_exit+0x278>
   10234:	230000ef          	jal	ra,10464 <_Z9UARTWritePKc>
   10238:	00040513          	mv	a0,s0
   1023c:	334000ef          	jal	ra,10570 <_Z12UARTWriteHexm>
   10240:	00001517          	auipc	a0,0x1
   10244:	26450513          	addi	a0,a0,612 # 114a4 <_exit+0x7c>
   10248:	21c000ef          	jal	ra,10464 <_Z9UARTWritePKc>
   1024c:	00001517          	auipc	a0,0x1
   10250:	41450513          	addi	a0,a0,1044 # 11660 <_exit+0x238>
   10254:	210000ef          	jal	ra,10464 <_Z9UARTWritePKc>
   10258:	01c12083          	lw	ra,28(sp)
   1025c:	01812403          	lw	s0,24(sp)
   10260:	01412483          	lw	s1,20(sp)
   10264:	01012903          	lw	s2,16(sp)
   10268:	00000513          	li	a0,0
   1026c:	02010113          	addi	sp,sp,32
   10270:	00008067          	ret
   10274:	00001517          	auipc	a0,0x1
   10278:	34c50513          	addi	a0,a0,844 # 115c0 <_exit+0x198>
   1027c:	1e8000ef          	jal	ra,10464 <_Z9UARTWritePKc>
   10280:	00c12783          	lw	a5,12(sp)
   10284:	f59ff06f          	j	101dc <main+0x168>
   10288:	00001517          	auipc	a0,0x1
   1028c:	43c50513          	addi	a0,a0,1084 # 116c4 <_exit+0x29c>
   10290:	1d4000ef          	jal	ra,10464 <_Z9UARTWritePKc>
   10294:	00001517          	auipc	a0,0x1
   10298:	39c50513          	addi	a0,a0,924 # 11630 <_exit+0x208>
   1029c:	1c8000ef          	jal	ra,10464 <_Z9UARTWritePKc>
   102a0:	000405b7          	lui	a1,0x40
   102a4:	0c000537          	lui	a0,0xc000
   102a8:	0e9000ef          	jal	ra,10b90 <_Z13memTestDevicePVmm>
   102ac:	00050413          	mv	s0,a0
   102b0:	f60518e3          	bnez	a0,10220 <main+0x1ac>
   102b4:	00001517          	auipc	a0,0x1
   102b8:	41050513          	addi	a0,a0,1040 # 116c4 <_exit+0x29c>
   102bc:	1a8000ef          	jal	ra,10464 <_Z9UARTWritePKc>
   102c0:	f80496e3          	bnez	s1,1024c <main+0x1d8>
   102c4:	01c12083          	lw	ra,28(sp)
   102c8:	01812403          	lw	s0,24(sp)
   102cc:	01412483          	lw	s1,20(sp)
   102d0:	01012903          	lw	s2,16(sp)
   102d4:	00000513          	li	a0,0
   102d8:	02010113          	addi	sp,sp,32
   102dc:	00008067          	ret
   102e0:	00001517          	auipc	a0,0x1
   102e4:	32c50513          	addi	a0,a0,812 # 1160c <_exit+0x1e4>
   102e8:	17c000ef          	jal	ra,10464 <_Z9UARTWritePKc>
   102ec:	f01ff06f          	j	101ec <main+0x178>
   102f0:	00001517          	auipc	a0,0x1
   102f4:	2f850513          	addi	a0,a0,760 # 115e8 <_exit+0x1c0>
   102f8:	16c000ef          	jal	ra,10464 <_Z9UARTWritePKc>
   102fc:	00c12783          	lw	a5,12(sp)
   10300:	ee5ff06f          	j	101e4 <main+0x170>
   10304:	00001517          	auipc	a0,0x1
   10308:	3c050513          	addi	a0,a0,960 # 116c4 <_exit+0x29c>
   1030c:	158000ef          	jal	ra,10464 <_Z9UARTWritePKc>
   10310:	f3dff06f          	j	1024c <main+0x1d8>

00010314 <register_fini>:
   10314:	00000793          	li	a5,0
   10318:	00078863          	beqz	a5,10328 <register_fini+0x14>
   1031c:	00011537          	lui	a0,0x11
   10320:	33450513          	addi	a0,a0,820 # 11334 <__libc_fini_array>
   10324:	7fd0006f          	j	11320 <atexit>
   10328:	00008067          	ret

0001032c <_start>:
   1032c:	00003197          	auipc	gp,0x3
   10330:	eb418193          	addi	gp,gp,-332 # 131e0 <__global_pointer$>
   10334:	c5818513          	addi	a0,gp,-936 # 12e38 <completed.1>
   10338:	c7418613          	addi	a2,gp,-908 # 12e54 <__BSS_END__>
   1033c:	40a60633          	sub	a2,a2,a0
   10340:	00000593          	li	a1,0
   10344:	5e1000ef          	jal	ra,11124 <memset>
   10348:	00001517          	auipc	a0,0x1
   1034c:	fd850513          	addi	a0,a0,-40 # 11320 <atexit>
   10350:	00050863          	beqz	a0,10360 <_start+0x34>
   10354:	00001517          	auipc	a0,0x1
   10358:	fe050513          	addi	a0,a0,-32 # 11334 <__libc_fini_array>
   1035c:	7c5000ef          	jal	ra,11320 <atexit>
   10360:	529000ef          	jal	ra,11088 <__libc_init_array>
   10364:	00012503          	lw	a0,0(sp)
   10368:	00410593          	addi	a1,sp,4
   1036c:	00000613          	li	a2,0
   10370:	d05ff0ef          	jal	ra,10074 <main>
   10374:	4e50006f          	j	11058 <exit>

00010378 <__do_global_dtors_aux>:
   10378:	ff010113          	addi	sp,sp,-16
   1037c:	00812423          	sw	s0,8(sp)
   10380:	c581c783          	lbu	a5,-936(gp) # 12e38 <completed.1>
   10384:	00112623          	sw	ra,12(sp)
   10388:	02079263          	bnez	a5,103ac <__do_global_dtors_aux+0x34>
   1038c:	00000793          	li	a5,0
   10390:	00078a63          	beqz	a5,103a4 <__do_global_dtors_aux+0x2c>
   10394:	00013537          	lui	a0,0x13
   10398:	80050513          	addi	a0,a0,-2048 # 12800 <__EH_FRAME_BEGIN__>
   1039c:	00000097          	auipc	ra,0x0
   103a0:	000000e7          	jalr	zero # 0 <main-0x10074>
   103a4:	00100793          	li	a5,1
   103a8:	c4f18c23          	sb	a5,-936(gp) # 12e38 <completed.1>
   103ac:	00c12083          	lw	ra,12(sp)
   103b0:	00812403          	lw	s0,8(sp)
   103b4:	01010113          	addi	sp,sp,16
   103b8:	00008067          	ret

000103bc <frame_dummy>:
   103bc:	00000793          	li	a5,0
   103c0:	00078c63          	beqz	a5,103d8 <frame_dummy+0x1c>
   103c4:	00013537          	lui	a0,0x13
   103c8:	c5c18593          	addi	a1,gp,-932 # 12e3c <object.0>
   103cc:	80050513          	addi	a0,a0,-2048 # 12800 <__EH_FRAME_BEGIN__>
   103d0:	00000317          	auipc	t1,0x0
   103d4:	00000067          	jr	zero # 0 <main-0x10074>
   103d8:	00008067          	ret

000103dc <_Z11UARTHasDatav>:
   103dc:	00003797          	auipc	a5,0x3
   103e0:	a507a783          	lw	a5,-1456(a5) # 12e2c <_GLOBAL_OFFSET_TABLE_+0xc>
   103e4:	0007a783          	lw	a5,0(a5)
   103e8:	0007a503          	lw	a0,0(a5)
   103ec:	00157513          	andi	a0,a0,1
   103f0:	00008067          	ret

000103f4 <_Z9UARTFlushv>:
   103f4:	ff010113          	addi	sp,sp,-16
   103f8:	00112623          	sw	ra,12(sp)
   103fc:	0080006f          	j	10404 <_Z9UARTFlushv+0x10>
   10400:	00000013          	nop
   10404:	fd9ff0ef          	jal	ra,103dc <_Z11UARTHasDatav>
   10408:	fe051ce3          	bnez	a0,10400 <_Z9UARTFlushv+0xc>
   1040c:	00c12083          	lw	ra,12(sp)
   10410:	01010113          	addi	sp,sp,16
   10414:	00008067          	ret

00010418 <_Z8UARTReadv>:
   10418:	ff010113          	addi	sp,sp,-16
   1041c:	00112623          	sw	ra,12(sp)
   10420:	fbdff0ef          	jal	ra,103dc <_Z11UARTHasDatav>
   10424:	00000793          	li	a5,0
   10428:	00050c63          	beqz	a0,10440 <_Z8UARTReadv+0x28>
   1042c:	00003797          	auipc	a5,0x3
   10430:	9f87a783          	lw	a5,-1544(a5) # 12e24 <_GLOBAL_OFFSET_TABLE_+0x4>
   10434:	0007a783          	lw	a5,0(a5)
   10438:	0007a783          	lw	a5,0(a5)
   1043c:	0ff7f793          	zext.b	a5,a5
   10440:	00c12083          	lw	ra,12(sp)
   10444:	00078513          	mv	a0,a5
   10448:	01010113          	addi	sp,sp,16
   1044c:	00008067          	ret

00010450 <_Z11UARTPutCharc>:
   10450:	00003797          	auipc	a5,0x3
   10454:	9d87a783          	lw	a5,-1576(a5) # 12e28 <_GLOBAL_OFFSET_TABLE_+0x8>
   10458:	0007a783          	lw	a5,0(a5)
   1045c:	00a7a023          	sw	a0,0(a5)
   10460:	00008067          	ret

00010464 <_Z9UARTWritePKc>:
   10464:	ff010113          	addi	sp,sp,-16
   10468:	00912223          	sw	s1,4(sp)
   1046c:	00112623          	sw	ra,12(sp)
   10470:	00812423          	sw	s0,8(sp)
   10474:	01212023          	sw	s2,0(sp)
   10478:	00050493          	mv	s1,a0
   1047c:	00054503          	lbu	a0,0(a0)
   10480:	02050a63          	beqz	a0,104b4 <_Z9UARTWritePKc+0x50>
   10484:	fcdff0ef          	jal	ra,10450 <_Z11UARTPutCharc>
   10488:	0014c503          	lbu	a0,1(s1)
   1048c:	00200413          	li	s0,2
   10490:	30000913          	li	s2,768
   10494:	02050063          	beqz	a0,104b4 <_Z9UARTWritePKc+0x50>
   10498:	00140413          	addi	s0,s0,1
   1049c:	fb5ff0ef          	jal	ra,10450 <_Z11UARTPutCharc>
   104a0:	032467b3          	rem	a5,s0,s2
   104a4:	00848733          	add	a4,s1,s0
   104a8:	02078263          	beqz	a5,104cc <_Z9UARTWritePKc+0x68>
   104ac:	fff74503          	lbu	a0,-1(a4) # bffffff <__global_pointer$+0xbfece1f>
   104b0:	fe0514e3          	bnez	a0,10498 <_Z9UARTWritePKc+0x34>
   104b4:	00c12083          	lw	ra,12(sp)
   104b8:	00812403          	lw	s0,8(sp)
   104bc:	00412483          	lw	s1,4(sp)
   104c0:	00012903          	lw	s2,0(sp)
   104c4:	01010113          	addi	sp,sp,16
   104c8:	00008067          	ret
   104cc:	f29ff0ef          	jal	ra,103f4 <_Z9UARTFlushv>
   104d0:	008487b3          	add	a5,s1,s0
   104d4:	fff7c503          	lbu	a0,-1(a5)
   104d8:	fc0510e3          	bnez	a0,10498 <_Z9UARTWritePKc+0x34>
   104dc:	00c12083          	lw	ra,12(sp)
   104e0:	00812403          	lw	s0,8(sp)
   104e4:	00412483          	lw	s1,4(sp)
   104e8:	00012903          	lw	s2,0(sp)
   104ec:	01010113          	addi	sp,sp,16
   104f0:	00008067          	ret

000104f4 <_Z16UARTWriteHexByteh>:
   104f4:	00001797          	auipc	a5,0x1
   104f8:	1d878793          	addi	a5,a5,472 # 116cc <_exit+0x2a4>
   104fc:	0087a603          	lw	a2,8(a5)
   10500:	00c7a683          	lw	a3,12(a5)
   10504:	0007a803          	lw	a6,0(a5)
   10508:	0047a583          	lw	a1,4(a5)
   1050c:	00f57713          	andi	a4,a0,15
   10510:	fd010113          	addi	sp,sp,-48
   10514:	02070713          	addi	a4,a4,32
   10518:	02112623          	sw	ra,44(sp)
   1051c:	00c12a23          	sw	a2,20(sp)
   10520:	01012623          	sw	a6,12(sp)
   10524:	00b12823          	sw	a1,16(sp)
   10528:	00d12c23          	sw	a3,24(sp)
   1052c:	00270733          	add	a4,a4,sp
   10530:	00455513          	srli	a0,a0,0x4
   10534:	fec74683          	lbu	a3,-20(a4)
   10538:	02050713          	addi	a4,a0,32
   1053c:	00270533          	add	a0,a4,sp
   10540:	fec54703          	lbu	a4,-20(a0)
   10544:	0107c603          	lbu	a2,16(a5)
   10548:	00869793          	slli	a5,a3,0x8
   1054c:	00f767b3          	or	a5,a4,a5
   10550:	00810513          	addi	a0,sp,8
   10554:	00c10e23          	sb	a2,28(sp)
   10558:	00010523          	sb	zero,10(sp)
   1055c:	00f11423          	sh	a5,8(sp)
   10560:	f05ff0ef          	jal	ra,10464 <_Z9UARTWritePKc>
   10564:	02c12083          	lw	ra,44(sp)
   10568:	03010113          	addi	sp,sp,48
   1056c:	00008067          	ret

00010570 <_Z12UARTWriteHexm>:
   10570:	00001697          	auipc	a3,0x1
   10574:	15c68693          	addi	a3,a3,348 # 116cc <_exit+0x2a4>
   10578:	0086a803          	lw	a6,8(a3)
   1057c:	00c6a583          	lw	a1,12(a3)
   10580:	0006ae03          	lw	t3,0(a3)
   10584:	0046a303          	lw	t1,4(a3)
   10588:	01855613          	srli	a2,a0,0x18
   1058c:	fd010113          	addi	sp,sp,-48
   10590:	01c55893          	srli	a7,a0,0x1c
   10594:	00f67613          	andi	a2,a2,15
   10598:	01012a23          	sw	a6,20(sp)
   1059c:	00b12c23          	sw	a1,24(sp)
   105a0:	00c55793          	srli	a5,a0,0xc
   105a4:	00855713          	srli	a4,a0,0x8
   105a8:	00455813          	srli	a6,a0,0x4
   105ac:	02088593          	addi	a1,a7,32
   105b0:	02060613          	addi	a2,a2,32
   105b4:	02112623          	sw	ra,44(sp)
   105b8:	01c12623          	sw	t3,12(sp)
   105bc:	00612823          	sw	t1,16(sp)
   105c0:	002588b3          	add	a7,a1,sp
   105c4:	00260633          	add	a2,a2,sp
   105c8:	01455593          	srli	a1,a0,0x14
   105cc:	00f87813          	andi	a6,a6,15
   105d0:	00f7f793          	andi	a5,a5,15
   105d4:	00f77713          	andi	a4,a4,15
   105d8:	fec64e83          	lbu	t4,-20(a2)
   105dc:	00f5f593          	andi	a1,a1,15
   105e0:	02080613          	addi	a2,a6,32
   105e4:	02078793          	addi	a5,a5,32
   105e8:	02070713          	addi	a4,a4,32
   105ec:	00260833          	add	a6,a2,sp
   105f0:	00270733          	add	a4,a4,sp
   105f4:	002787b3          	add	a5,a5,sp
   105f8:	02058613          	addi	a2,a1,32 # 40020 <__global_pointer$+0x2ce40>
   105fc:	002605b3          	add	a1,a2,sp
   10600:	fec74f03          	lbu	t5,-20(a4)
   10604:	fec7c783          	lbu	a5,-20(a5)
   10608:	fec8c703          	lbu	a4,-20(a7)
   1060c:	01055613          	srli	a2,a0,0x10
   10610:	ffff08b7          	lui	a7,0xffff0
   10614:	00f57513          	andi	a0,a0,15
   10618:	00f67613          	andi	a2,a2,15
   1061c:	fec5c303          	lbu	t1,-20(a1)
   10620:	fec84e03          	lbu	t3,-20(a6)
   10624:	0ff88893          	addi	a7,a7,255 # ffff00ff <__global_pointer$+0xfffdcf1f>
   10628:	02050593          	addi	a1,a0,32
   1062c:	02060613          	addi	a2,a2,32
   10630:	00258533          	add	a0,a1,sp
   10634:	00260633          	add	a2,a2,sp
   10638:	008f1f13          	slli	t5,t5,0x8
   1063c:	0117f7b3          	and	a5,a5,a7
   10640:	008e9e93          	slli	t4,t4,0x8
   10644:	01177733          	and	a4,a4,a7
   10648:	ff0105b7          	lui	a1,0xff010
   1064c:	fec54803          	lbu	a6,-20(a0)
   10650:	fff58593          	addi	a1,a1,-1 # ff00ffff <__global_pointer$+0xfeffce1f>
   10654:	fec64503          	lbu	a0,-20(a2)
   10658:	01e7e7b3          	or	a5,a5,t5
   1065c:	01d76733          	or	a4,a4,t4
   10660:	01031893          	slli	a7,t1,0x10
   10664:	010e1e13          	slli	t3,t3,0x10
   10668:	00b7f7b3          	and	a5,a5,a1
   1066c:	00b77733          	and	a4,a4,a1
   10670:	01000637          	lui	a2,0x1000
   10674:	0106c303          	lbu	t1,16(a3)
   10678:	fff60613          	addi	a2,a2,-1 # ffffff <__global_pointer$+0xfece1f>
   1067c:	01c7e7b3          	or	a5,a5,t3
   10680:	01176733          	or	a4,a4,a7
   10684:	01851693          	slli	a3,a0,0x18
   10688:	01881593          	slli	a1,a6,0x18
   1068c:	00c7f7b3          	and	a5,a5,a2
   10690:	00c77733          	and	a4,a4,a2
   10694:	00b7e7b3          	or	a5,a5,a1
   10698:	00d76733          	or	a4,a4,a3
   1069c:	00010513          	mv	a0,sp
   106a0:	00610e23          	sb	t1,28(sp)
   106a4:	00010423          	sb	zero,8(sp)
   106a8:	00e12023          	sw	a4,0(sp)
   106ac:	00f12223          	sw	a5,4(sp)
   106b0:	db5ff0ef          	jal	ra,10464 <_Z9UARTWritePKc>
   106b4:	02c12083          	lw	ra,44(sp)
   106b8:	03010113          	addi	sp,sp,48
   106bc:	00008067          	ret

000106c0 <_Z16UARTWriteDecimall>:
   106c0:	00001797          	auipc	a5,0x1
   106c4:	02078793          	addi	a5,a5,32 # 116e0 <_exit+0x2b8>
   106c8:	00001717          	auipc	a4,0x1
   106cc:	02c70713          	addi	a4,a4,44 # 116f4 <_exit+0x2cc>
   106d0:	00072e03          	lw	t3,0(a4)
   106d4:	00472303          	lw	t1,4(a4)
   106d8:	00875883          	lhu	a7,8(a4)
   106dc:	00a74803          	lbu	a6,10(a4)
   106e0:	0007a583          	lw	a1,0(a5)
   106e4:	00c7a703          	lw	a4,12(a5)
   106e8:	0047a603          	lw	a2,4(a5)
   106ec:	0087a683          	lw	a3,8(a5)
   106f0:	0107a783          	lw	a5,16(a5)
   106f4:	fd010113          	addi	sp,sp,-48
   106f8:	00e12c23          	sw	a4,24(sp)
   106fc:	00f12e23          	sw	a5,28(sp)
   10700:	02112623          	sw	ra,44(sp)
   10704:	01c12023          	sw	t3,0(sp)
   10708:	00612223          	sw	t1,4(sp)
   1070c:	01111423          	sh	a7,8(sp)
   10710:	01010523          	sb	a6,10(sp)
   10714:	00b12623          	sw	a1,12(sp)
   10718:	00c12823          	sw	a2,16(sp)
   1071c:	00d12a23          	sw	a3,20(sp)
   10720:	02d00713          	li	a4,45
   10724:	00100793          	li	a5,1
   10728:	00054663          	bltz	a0,10734 <_Z16UARTWriteDecimall+0x74>
   1072c:	02000713          	li	a4,32
   10730:	00000793          	li	a5,0
   10734:	3b9ad6b7          	lui	a3,0x3b9ad
   10738:	a0068693          	addi	a3,a3,-1536 # 3b9aca00 <__global_pointer$+0x3b999820>
   1073c:	02d546b3          	div	a3,a0,a3
   10740:	80000637          	lui	a2,0x80000
   10744:	fff64613          	not	a2,a2
   10748:	00e10623          	sb	a4,12(sp)
   1074c:	05f5e737          	lui	a4,0x5f5e
   10750:	10070713          	addi	a4,a4,256 # 5f5e100 <__global_pointer$+0x5f4af20>
   10754:	00c6f6b3          	and	a3,a3,a2
   10758:	02e54733          	div	a4,a0,a4
   1075c:	0e069663          	bnez	a3,10848 <_Z16UARTWriteDecimall+0x188>
   10760:	00a00593          	li	a1,10
   10764:	02b76733          	rem	a4,a4,a1
   10768:	00c77733          	and	a4,a4,a2
   1076c:	10071263          	bnez	a4,10870 <_Z16UARTWriteDecimall+0x1b0>
   10770:	009896b7          	lui	a3,0x989
   10774:	68068693          	addi	a3,a3,1664 # 989680 <__global_pointer$+0x9764a0>
   10778:	02d546b3          	div	a3,a0,a3
   1077c:	02b6e6b3          	rem	a3,a3,a1
   10780:	00c6f6b3          	and	a3,a3,a2
   10784:	12069263          	bnez	a3,108a8 <_Z16UARTWriteDecimall+0x1e8>
   10788:	000f4737          	lui	a4,0xf4
   1078c:	24070713          	addi	a4,a4,576 # f4240 <__global_pointer$+0xe1060>
   10790:	02e54733          	div	a4,a0,a4
   10794:	02b76733          	rem	a4,a4,a1
   10798:	00c77733          	and	a4,a4,a2
   1079c:	14071263          	bnez	a4,108e0 <_Z16UARTWriteDecimall+0x220>
   107a0:	000186b7          	lui	a3,0x18
   107a4:	6a068693          	addi	a3,a3,1696 # 186a0 <__global_pointer$+0x54c0>
   107a8:	02d546b3          	div	a3,a0,a3
   107ac:	02b6e6b3          	rem	a3,a3,a1
   107b0:	00c6f6b3          	and	a3,a3,a2
   107b4:	16069263          	bnez	a3,10918 <_Z16UARTWriteDecimall+0x258>
   107b8:	00002737          	lui	a4,0x2
   107bc:	71070713          	addi	a4,a4,1808 # 2710 <main-0xd964>
   107c0:	02e54733          	div	a4,a0,a4
   107c4:	02b76733          	rem	a4,a4,a1
   107c8:	00c77733          	and	a4,a4,a2
   107cc:	18071263          	bnez	a4,10950 <_Z16UARTWriteDecimall+0x290>
   107d0:	3e800693          	li	a3,1000
   107d4:	02d546b3          	div	a3,a0,a3
   107d8:	02b6e6b3          	rem	a3,a3,a1
   107dc:	00c6f6b3          	and	a3,a3,a2
   107e0:	1a069263          	bnez	a3,10984 <_Z16UARTWriteDecimall+0x2c4>
   107e4:	06400713          	li	a4,100
   107e8:	02e54733          	div	a4,a0,a4
   107ec:	02b76733          	rem	a4,a4,a1
   107f0:	00c77733          	and	a4,a4,a2
   107f4:	1c071263          	bnez	a4,109b8 <_Z16UARTWriteDecimall+0x2f8>
   107f8:	02b54733          	div	a4,a0,a1
   107fc:	02b76733          	rem	a4,a4,a1
   10800:	00c77733          	and	a4,a4,a2
   10804:	1e071263          	bnez	a4,109e8 <_Z16UARTWriteDecimall+0x328>
   10808:	00a00713          	li	a4,10
   1080c:	02e56733          	rem	a4,a0,a4
   10810:	02078793          	addi	a5,a5,32
   10814:	002787b3          	add	a5,a5,sp
   10818:	00c10513          	addi	a0,sp,12
   1081c:	fe0786a3          	sb	zero,-19(a5)
   10820:	00171713          	slli	a4,a4,0x1
   10824:	00175713          	srli	a4,a4,0x1
   10828:	02070713          	addi	a4,a4,32
   1082c:	00270733          	add	a4,a4,sp
   10830:	fe074703          	lbu	a4,-32(a4)
   10834:	fee78623          	sb	a4,-20(a5)
   10838:	c2dff0ef          	jal	ra,10464 <_Z9UARTWritePKc>
   1083c:	02c12083          	lw	ra,44(sp)
   10840:	03010113          	addi	sp,sp,48
   10844:	00008067          	ret
   10848:	02068693          	addi	a3,a3,32
   1084c:	002686b3          	add	a3,a3,sp
   10850:	fe06c583          	lbu	a1,-32(a3)
   10854:	02078693          	addi	a3,a5,32
   10858:	002686b3          	add	a3,a3,sp
   1085c:	feb68623          	sb	a1,-20(a3)
   10860:	00a00693          	li	a3,10
   10864:	02d76733          	rem	a4,a4,a3
   10868:	00178793          	addi	a5,a5,1
   1086c:	00c77733          	and	a4,a4,a2
   10870:	009896b7          	lui	a3,0x989
   10874:	68068693          	addi	a3,a3,1664 # 989680 <__global_pointer$+0x9764a0>
   10878:	02d546b3          	div	a3,a0,a3
   1087c:	02070713          	addi	a4,a4,32
   10880:	00270733          	add	a4,a4,sp
   10884:	fe074603          	lbu	a2,-32(a4)
   10888:	02078713          	addi	a4,a5,32
   1088c:	00270733          	add	a4,a4,sp
   10890:	fec70623          	sb	a2,-20(a4)
   10894:	00a00713          	li	a4,10
   10898:	00178793          	addi	a5,a5,1
   1089c:	02e6e6b3          	rem	a3,a3,a4
   108a0:	00169693          	slli	a3,a3,0x1
   108a4:	0016d693          	srli	a3,a3,0x1
   108a8:	000f4737          	lui	a4,0xf4
   108ac:	24070713          	addi	a4,a4,576 # f4240 <__global_pointer$+0xe1060>
   108b0:	02e54733          	div	a4,a0,a4
   108b4:	02068693          	addi	a3,a3,32
   108b8:	002686b3          	add	a3,a3,sp
   108bc:	fe06c603          	lbu	a2,-32(a3)
   108c0:	02078693          	addi	a3,a5,32
   108c4:	002686b3          	add	a3,a3,sp
   108c8:	fec68623          	sb	a2,-20(a3)
   108cc:	00a00693          	li	a3,10
   108d0:	00178793          	addi	a5,a5,1
   108d4:	02d76733          	rem	a4,a4,a3
   108d8:	00171713          	slli	a4,a4,0x1
   108dc:	00175713          	srli	a4,a4,0x1
   108e0:	000186b7          	lui	a3,0x18
   108e4:	6a068693          	addi	a3,a3,1696 # 186a0 <__global_pointer$+0x54c0>
   108e8:	02d546b3          	div	a3,a0,a3
   108ec:	02070713          	addi	a4,a4,32
   108f0:	00270733          	add	a4,a4,sp
   108f4:	fe074603          	lbu	a2,-32(a4)
   108f8:	02078713          	addi	a4,a5,32
   108fc:	00270733          	add	a4,a4,sp
   10900:	fec70623          	sb	a2,-20(a4)
   10904:	00a00713          	li	a4,10
   10908:	00178793          	addi	a5,a5,1
   1090c:	02e6e6b3          	rem	a3,a3,a4
   10910:	00169693          	slli	a3,a3,0x1
   10914:	0016d693          	srli	a3,a3,0x1
   10918:	00002737          	lui	a4,0x2
   1091c:	71070713          	addi	a4,a4,1808 # 2710 <main-0xd964>
   10920:	02e54733          	div	a4,a0,a4
   10924:	02068693          	addi	a3,a3,32
   10928:	002686b3          	add	a3,a3,sp
   1092c:	fe06c603          	lbu	a2,-32(a3)
   10930:	02078693          	addi	a3,a5,32
   10934:	002686b3          	add	a3,a3,sp
   10938:	fec68623          	sb	a2,-20(a3)
   1093c:	00a00693          	li	a3,10
   10940:	00178793          	addi	a5,a5,1
   10944:	02d76733          	rem	a4,a4,a3
   10948:	00171713          	slli	a4,a4,0x1
   1094c:	00175713          	srli	a4,a4,0x1
   10950:	3e800693          	li	a3,1000
   10954:	02d546b3          	div	a3,a0,a3
   10958:	02070713          	addi	a4,a4,32
   1095c:	00270733          	add	a4,a4,sp
   10960:	fe074603          	lbu	a2,-32(a4)
   10964:	02078713          	addi	a4,a5,32
   10968:	00270733          	add	a4,a4,sp
   1096c:	fec70623          	sb	a2,-20(a4)
   10970:	00a00713          	li	a4,10
   10974:	00178793          	addi	a5,a5,1
   10978:	02e6e6b3          	rem	a3,a3,a4
   1097c:	00169693          	slli	a3,a3,0x1
   10980:	0016d693          	srli	a3,a3,0x1
   10984:	06400713          	li	a4,100
   10988:	02e54733          	div	a4,a0,a4
   1098c:	02068693          	addi	a3,a3,32
   10990:	002686b3          	add	a3,a3,sp
   10994:	fe06c603          	lbu	a2,-32(a3)
   10998:	02078693          	addi	a3,a5,32
   1099c:	002686b3          	add	a3,a3,sp
   109a0:	fec68623          	sb	a2,-20(a3)
   109a4:	00a00693          	li	a3,10
   109a8:	00178793          	addi	a5,a5,1
   109ac:	02d76733          	rem	a4,a4,a3
   109b0:	00171713          	slli	a4,a4,0x1
   109b4:	00175713          	srli	a4,a4,0x1
   109b8:	00a00613          	li	a2,10
   109bc:	02c546b3          	div	a3,a0,a2
   109c0:	02070713          	addi	a4,a4,32
   109c4:	00270733          	add	a4,a4,sp
   109c8:	fe074583          	lbu	a1,-32(a4)
   109cc:	02078713          	addi	a4,a5,32
   109d0:	00270733          	add	a4,a4,sp
   109d4:	feb70623          	sb	a1,-20(a4)
   109d8:	00178793          	addi	a5,a5,1
   109dc:	02c6e733          	rem	a4,a3,a2
   109e0:	00171713          	slli	a4,a4,0x1
   109e4:	00175713          	srli	a4,a4,0x1
   109e8:	02070713          	addi	a4,a4,32
   109ec:	00270733          	add	a4,a4,sp
   109f0:	fe074683          	lbu	a3,-32(a4)
   109f4:	02078713          	addi	a4,a5,32
   109f8:	00270733          	add	a4,a4,sp
   109fc:	00178793          	addi	a5,a5,1
   10a00:	fed70623          	sb	a3,-20(a4)
   10a04:	e05ff06f          	j	10808 <_Z16UARTWriteDecimall+0x148>

00010a08 <_Z11E32ReadTimev>:
   10a08:	c81025f3          	rdtimeh	a1
   10a0c:	c0102573          	rdtime	a0
   10a10:	c81027f3          	rdtimeh	a5
   10a14:	fef59ae3          	bne	a1,a5,10a08 <_Z11E32ReadTimev>
   10a18:	00008067          	ret

00010a1c <_Z9ClockToMsy>:
   10a1c:	00002637          	lui	a2,0x2
   10a20:	ff010113          	addi	sp,sp,-16
   10a24:	71060613          	addi	a2,a2,1808 # 2710 <main-0xd964>
   10a28:	00000693          	li	a3,0
   10a2c:	00112623          	sw	ra,12(sp)
   10a30:	1f0000ef          	jal	ra,10c20 <__udivdi3>
   10a34:	00c12083          	lw	ra,12(sp)
   10a38:	01010113          	addi	sp,sp,16
   10a3c:	00008067          	ret

00010a40 <_Z14memTestDataBusPVm>:
   10a40:	00050713          	mv	a4,a0
   10a44:	02000793          	li	a5,32
   10a48:	00100513          	li	a0,1
   10a4c:	00c0006f          	j	10a58 <_Z14memTestDataBusPVm+0x18>
   10a50:	00151513          	slli	a0,a0,0x1
   10a54:	00078c63          	beqz	a5,10a6c <_Z14memTestDataBusPVm+0x2c>
   10a58:	00a72023          	sw	a0,0(a4)
   10a5c:	00072683          	lw	a3,0(a4)
   10a60:	fff78793          	addi	a5,a5,-1
   10a64:	fea686e3          	beq	a3,a0,10a50 <_Z14memTestDataBusPVm+0x10>
   10a68:	00008067          	ret
   10a6c:	00000513          	li	a0,0
   10a70:	00008067          	ret

00010a74 <_Z17memTestAddressBusPVmmPi>:
   10a74:	0025d593          	srli	a1,a1,0x2
   10a78:	fff58593          	addi	a1,a1,-1
   10a7c:	00062023          	sw	zero,0(a2)
   10a80:	0015f313          	andi	t1,a1,1
   10a84:	00050693          	mv	a3,a0
   10a88:	0e030063          	beqz	t1,10b68 <_Z17memTestAddressBusPVmmPi+0xf4>
   10a8c:	aaaab537          	lui	a0,0xaaaab
   10a90:	00030793          	mv	a5,t1
   10a94:	aaa50513          	addi	a0,a0,-1366 # aaaaaaaa <__global_pointer$+0xaaa978ca>
   10a98:	00279713          	slli	a4,a5,0x2
   10a9c:	00e68733          	add	a4,a3,a4
   10aa0:	00179793          	slli	a5,a5,0x1
   10aa4:	00a72023          	sw	a0,0(a4)
   10aa8:	00f5f733          	and	a4,a1,a5
   10aac:	fe0716e3          	bnez	a4,10a98 <_Z17memTestAddressBusPVmmPi+0x24>
   10ab0:	555557b7          	lui	a5,0x55555
   10ab4:	55578793          	addi	a5,a5,1365 # 55555555 <__global_pointer$+0x55542375>
   10ab8:	aaaab8b7          	lui	a7,0xaaaab
   10abc:	00f6a023          	sw	a5,0(a3)
   10ac0:	aaa88893          	addi	a7,a7,-1366 # aaaaaaaa <__global_pointer$+0xaaa978ca>
   10ac4:	00030793          	mv	a5,t1
   10ac8:	0080006f          	j	10ad0 <_Z17memTestAddressBusPVmmPi+0x5c>
   10acc:	02080463          	beqz	a6,10af4 <_Z17memTestAddressBusPVmmPi+0x80>
   10ad0:	00279513          	slli	a0,a5,0x2
   10ad4:	00a68533          	add	a0,a3,a0
   10ad8:	00052703          	lw	a4,0(a0)
   10adc:	00179793          	slli	a5,a5,0x1
   10ae0:	00f5f833          	and	a6,a1,a5
   10ae4:	ff1704e3          	beq	a4,a7,10acc <_Z17memTestAddressBusPVmmPi+0x58>
   10ae8:	00100793          	li	a5,1
   10aec:	00f62023          	sw	a5,0(a2)
   10af0:	00008067          	ret
   10af4:	55555e37          	lui	t3,0x55555
   10af8:	aaaab837          	lui	a6,0xaaaab
   10afc:	0116a023          	sw	a7,0(a3)
   10b00:	555e0e13          	addi	t3,t3,1365 # 55555555 <__global_pointer$+0x55542375>
   10b04:	00030893          	mv	a7,t1
   10b08:	aaa80813          	addi	a6,a6,-1366 # aaaaaaaa <__global_pointer$+0xaaa978ca>
   10b0c:	00289793          	slli	a5,a7,0x2
   10b10:	00f68533          	add	a0,a3,a5
   10b14:	01c52023          	sw	t3,0(a0)
   10b18:	0006a783          	lw	a5,0(a3)
   10b1c:	07079463          	bne	a5,a6,10b84 <_Z17memTestAddressBusPVmmPi+0x110>
   10b20:	00030793          	mv	a5,t1
   10b24:	00279713          	slli	a4,a5,0x2
   10b28:	00e68733          	add	a4,a3,a4
   10b2c:	00072703          	lw	a4,0(a4)
   10b30:	01070463          	beq	a4,a6,10b38 <_Z17memTestAddressBusPVmmPi+0xc4>
   10b34:	03179463          	bne	a5,a7,10b5c <_Z17memTestAddressBusPVmmPi+0xe8>
   10b38:	00179793          	slli	a5,a5,0x1
   10b3c:	00f5f733          	and	a4,a1,a5
   10b40:	fe0712e3          	bnez	a4,10b24 <_Z17memTestAddressBusPVmmPi+0xb0>
   10b44:	00189893          	slli	a7,a7,0x1
   10b48:	01052023          	sw	a6,0(a0)
   10b4c:	0115f7b3          	and	a5,a1,a7
   10b50:	fa079ee3          	bnez	a5,10b0c <_Z17memTestAddressBusPVmmPi+0x98>
   10b54:	00000513          	li	a0,0
   10b58:	00008067          	ret
   10b5c:	00300793          	li	a5,3
   10b60:	00f62023          	sw	a5,0(a2)
   10b64:	00008067          	ret
   10b68:	555557b7          	lui	a5,0x55555
   10b6c:	55578793          	addi	a5,a5,1365 # 55555555 <__global_pointer$+0x55542375>
   10b70:	00f52023          	sw	a5,0(a0)
   10b74:	aaaab7b7          	lui	a5,0xaaaab
   10b78:	aaa78793          	addi	a5,a5,-1366 # aaaaaaaa <__global_pointer$+0xaaa978ca>
   10b7c:	00f52023          	sw	a5,0(a0)
   10b80:	fd5ff06f          	j	10b54 <_Z17memTestAddressBusPVmmPi+0xe0>
   10b84:	00200793          	li	a5,2
   10b88:	00f62023          	sw	a5,0(a2)
   10b8c:	00008067          	ret

00010b90 <_Z13memTestDevicePVmm>:
   10b90:	0025d593          	srli	a1,a1,0x2
   10b94:	00050793          	mv	a5,a0
   10b98:	08058063          	beqz	a1,10c18 <_Z13memTestDevicePVmm+0x88>
   10b9c:	00050613          	mv	a2,a0
   10ba0:	00050693          	mv	a3,a0
   10ba4:	00100713          	li	a4,1
   10ba8:	00e6a023          	sw	a4,0(a3)
   10bac:	00070513          	mv	a0,a4
   10bb0:	00468693          	addi	a3,a3,4
   10bb4:	00170713          	addi	a4,a4,1
   10bb8:	fea598e3          	bne	a1,a0,10ba8 <_Z13memTestDevicePVmm+0x18>
   10bbc:	00100713          	li	a4,1
   10bc0:	0180006f          	j	10bd8 <_Z13memTestDevicePVmm+0x48>
   10bc4:	0107a023          	sw	a6,0(a5)
   10bc8:	00170693          	addi	a3,a4,1
   10bcc:	00478793          	addi	a5,a5,4
   10bd0:	00e58e63          	beq	a1,a4,10bec <_Z13memTestDevicePVmm+0x5c>
   10bd4:	00068713          	mv	a4,a3
   10bd8:	0007a683          	lw	a3,0(a5)
   10bdc:	fff74813          	not	a6,a4
   10be0:	00078513          	mv	a0,a5
   10be4:	fee680e3          	beq	a3,a4,10bc4 <_Z13memTestDevicePVmm+0x34>
   10be8:	00008067          	ret
   10bec:	ffe00693          	li	a3,-2
   10bf0:	40b686b3          	sub	a3,a3,a1
   10bf4:	ffe00793          	li	a5,-2
   10bf8:	00c0006f          	j	10c04 <_Z13memTestDevicePVmm+0x74>
   10bfc:	fff78793          	addi	a5,a5,-1
   10c00:	00d78c63          	beq	a5,a3,10c18 <_Z13memTestDevicePVmm+0x88>
   10c04:	00062703          	lw	a4,0(a2)
   10c08:	00060513          	mv	a0,a2
   10c0c:	00460613          	addi	a2,a2,4
   10c10:	fef706e3          	beq	a4,a5,10bfc <_Z13memTestDevicePVmm+0x6c>
   10c14:	fd5ff06f          	j	10be8 <_Z13memTestDevicePVmm+0x58>
   10c18:	00000513          	li	a0,0
   10c1c:	00008067          	ret

00010c20 <__udivdi3>:
#endif

#ifdef L_udivdi3
UDWtype
__udivdi3 (UDWtype n, UDWtype d)
{
   10c20:	00050313          	mv	t1,a0
   10c24:	00058893          	mv	a7,a1
  d0 = dd.s.low;
   10c28:	00060713          	mv	a4,a2
  n0 = nn.s.low;
   10c2c:	00050813          	mv	a6,a0
  n1 = nn.s.high;
   10c30:	00058793          	mv	a5,a1
  if (d1 == 0)
   10c34:	28069263          	bnez	a3,10eb8 <__udivdi3+0x298>
      if (d0 > n1)
   10c38:	000115b7          	lui	a1,0x11
   10c3c:	70058593          	addi	a1,a1,1792 # 11700 <__clz_tab>
   10c40:	0ec8f663          	bgeu	a7,a2,10d2c <__udivdi3+0x10c>
	  count_leading_zeros (bm, d0);
   10c44:	000106b7          	lui	a3,0x10
   10c48:	0cd67863          	bgeu	a2,a3,10d18 <__udivdi3+0xf8>
   10c4c:	10063693          	sltiu	a3,a2,256
   10c50:	0016c693          	xori	a3,a3,1
   10c54:	00369693          	slli	a3,a3,0x3
   10c58:	00d65533          	srl	a0,a2,a3
   10c5c:	00a585b3          	add	a1,a1,a0
   10c60:	0005c583          	lbu	a1,0(a1)
   10c64:	02000513          	li	a0,32
   10c68:	00d586b3          	add	a3,a1,a3
   10c6c:	40d505b3          	sub	a1,a0,a3
	  if (bm != 0)
   10c70:	00d50c63          	beq	a0,a3,10c88 <__udivdi3+0x68>
	      n1 = (n1 << bm) | (n0 >> (W_TYPE_SIZE - bm));
   10c74:	00b897b3          	sll	a5,a7,a1
   10c78:	00d356b3          	srl	a3,t1,a3
	      d0 = d0 << bm;
   10c7c:	00b61733          	sll	a4,a2,a1
	      n1 = (n1 << bm) | (n0 >> (W_TYPE_SIZE - bm));
   10c80:	00f6e7b3          	or	a5,a3,a5
	      n0 = n0 << bm;
   10c84:	00b31833          	sll	a6,t1,a1
	  udiv_qrnnd (q0, n0, n1, n0, d0);
   10c88:	01075593          	srli	a1,a4,0x10
   10c8c:	02b7d333          	divu	t1,a5,a1
   10c90:	01071613          	slli	a2,a4,0x10
   10c94:	01065613          	srli	a2,a2,0x10
   10c98:	02b7f7b3          	remu	a5,a5,a1
   10c9c:	00030513          	mv	a0,t1
   10ca0:	026608b3          	mul	a7,a2,t1
   10ca4:	01079693          	slli	a3,a5,0x10
   10ca8:	01085793          	srli	a5,a6,0x10
   10cac:	00d7e7b3          	or	a5,a5,a3
   10cb0:	0117fe63          	bgeu	a5,a7,10ccc <__udivdi3+0xac>
   10cb4:	00e787b3          	add	a5,a5,a4
   10cb8:	fff30513          	addi	a0,t1,-1 # 103cf <frame_dummy+0x13>
   10cbc:	00e7e863          	bltu	a5,a4,10ccc <__udivdi3+0xac>
   10cc0:	0117f663          	bgeu	a5,a7,10ccc <__udivdi3+0xac>
   10cc4:	ffe30513          	addi	a0,t1,-2
   10cc8:	00e787b3          	add	a5,a5,a4
   10ccc:	411787b3          	sub	a5,a5,a7
   10cd0:	02b7d8b3          	divu	a7,a5,a1
   10cd4:	01081813          	slli	a6,a6,0x10
   10cd8:	01085813          	srli	a6,a6,0x10
   10cdc:	02b7f7b3          	remu	a5,a5,a1
   10ce0:	031606b3          	mul	a3,a2,a7
   10ce4:	01079793          	slli	a5,a5,0x10
   10ce8:	00f86833          	or	a6,a6,a5
   10cec:	00088793          	mv	a5,a7
   10cf0:	00d87c63          	bgeu	a6,a3,10d08 <__udivdi3+0xe8>
   10cf4:	01070833          	add	a6,a4,a6
   10cf8:	fff88793          	addi	a5,a7,-1
   10cfc:	00e86663          	bltu	a6,a4,10d08 <__udivdi3+0xe8>
   10d00:	00d87463          	bgeu	a6,a3,10d08 <__udivdi3+0xe8>
   10d04:	ffe88793          	addi	a5,a7,-2
   10d08:	01051513          	slli	a0,a0,0x10
   10d0c:	00f56533          	or	a0,a0,a5
	      q1 = 0;
   10d10:	00000593          	li	a1,0
  return __udivmoddi4 (n, d, (UDWtype *) 0);
}
   10d14:	00008067          	ret
	  count_leading_zeros (bm, d0);
   10d18:	01000537          	lui	a0,0x1000
   10d1c:	01000693          	li	a3,16
   10d20:	f2a66ce3          	bltu	a2,a0,10c58 <__udivdi3+0x38>
   10d24:	01800693          	li	a3,24
   10d28:	f31ff06f          	j	10c58 <__udivdi3+0x38>
	  if (d0 == 0)
   10d2c:	00061463          	bnez	a2,10d34 <__udivdi3+0x114>
	    d0 = 1 / d0;	/* Divide intentionally by zero.  */
   10d30:	00100073          	ebreak
	  count_leading_zeros (bm, d0);
   10d34:	000107b7          	lui	a5,0x10
   10d38:	0cf67063          	bgeu	a2,a5,10df8 <__udivdi3+0x1d8>
   10d3c:	10063693          	sltiu	a3,a2,256
   10d40:	0016c693          	xori	a3,a3,1
   10d44:	00369693          	slli	a3,a3,0x3
   10d48:	00d657b3          	srl	a5,a2,a3
   10d4c:	00f585b3          	add	a1,a1,a5
   10d50:	0005c783          	lbu	a5,0(a1)
   10d54:	00d787b3          	add	a5,a5,a3
   10d58:	02000693          	li	a3,32
   10d5c:	40f685b3          	sub	a1,a3,a5
	  if (bm == 0)
   10d60:	0af69663          	bne	a3,a5,10e0c <__udivdi3+0x1ec>
	      n1 -= d0;
   10d64:	40c887b3          	sub	a5,a7,a2
	      q1 = 1;
   10d68:	00100593          	li	a1,1
	  udiv_qrnnd (q0, n0, n1, n0, d0);
   10d6c:	01075893          	srli	a7,a4,0x10
   10d70:	0317de33          	divu	t3,a5,a7
   10d74:	01071613          	slli	a2,a4,0x10
   10d78:	01065613          	srli	a2,a2,0x10
   10d7c:	01085693          	srli	a3,a6,0x10
   10d80:	0317f7b3          	remu	a5,a5,a7
   10d84:	000e0513          	mv	a0,t3
   10d88:	03c60333          	mul	t1,a2,t3
   10d8c:	01079793          	slli	a5,a5,0x10
   10d90:	00f6e7b3          	or	a5,a3,a5
   10d94:	0067fe63          	bgeu	a5,t1,10db0 <__udivdi3+0x190>
   10d98:	00e787b3          	add	a5,a5,a4
   10d9c:	fffe0513          	addi	a0,t3,-1
   10da0:	00e7e863          	bltu	a5,a4,10db0 <__udivdi3+0x190>
   10da4:	0067f663          	bgeu	a5,t1,10db0 <__udivdi3+0x190>
   10da8:	ffee0513          	addi	a0,t3,-2
   10dac:	00e787b3          	add	a5,a5,a4
   10db0:	406787b3          	sub	a5,a5,t1
   10db4:	0317d333          	divu	t1,a5,a7
   10db8:	01081813          	slli	a6,a6,0x10
   10dbc:	01085813          	srli	a6,a6,0x10
   10dc0:	0317f7b3          	remu	a5,a5,a7
   10dc4:	026606b3          	mul	a3,a2,t1
   10dc8:	01079793          	slli	a5,a5,0x10
   10dcc:	00f86833          	or	a6,a6,a5
   10dd0:	00030793          	mv	a5,t1
   10dd4:	00d87c63          	bgeu	a6,a3,10dec <__udivdi3+0x1cc>
   10dd8:	01070833          	add	a6,a4,a6
   10ddc:	fff30793          	addi	a5,t1,-1
   10de0:	00e86663          	bltu	a6,a4,10dec <__udivdi3+0x1cc>
   10de4:	00d87463          	bgeu	a6,a3,10dec <__udivdi3+0x1cc>
   10de8:	ffe30793          	addi	a5,t1,-2
   10dec:	01051513          	slli	a0,a0,0x10
   10df0:	00f56533          	or	a0,a0,a5
   10df4:	00008067          	ret
	  count_leading_zeros (bm, d0);
   10df8:	010007b7          	lui	a5,0x1000
   10dfc:	01000693          	li	a3,16
   10e00:	f4f664e3          	bltu	a2,a5,10d48 <__udivdi3+0x128>
   10e04:	01800693          	li	a3,24
   10e08:	f41ff06f          	j	10d48 <__udivdi3+0x128>
	      d0 = d0 << bm;
   10e0c:	00b61733          	sll	a4,a2,a1
	      n2 = n1 >> b;
   10e10:	00f8d6b3          	srl	a3,a7,a5
	      udiv_qrnnd (q1, n1, n2, n1, d0);
   10e14:	01075513          	srli	a0,a4,0x10
	      n1 = (n1 << bm) | (n0 >> b);
   10e18:	00f357b3          	srl	a5,t1,a5
	      n0 = n0 << bm;
   10e1c:	00b31833          	sll	a6,t1,a1
	      udiv_qrnnd (q1, n1, n2, n1, d0);
   10e20:	02a6d333          	divu	t1,a3,a0
   10e24:	01071613          	slli	a2,a4,0x10
	      n1 = (n1 << bm) | (n0 >> b);
   10e28:	00b898b3          	sll	a7,a7,a1
	      udiv_qrnnd (q1, n1, n2, n1, d0);
   10e2c:	01065613          	srli	a2,a2,0x10
	      n1 = (n1 << bm) | (n0 >> b);
   10e30:	0117e7b3          	or	a5,a5,a7
	      udiv_qrnnd (q1, n1, n2, n1, d0);
   10e34:	02a6f6b3          	remu	a3,a3,a0
   10e38:	026608b3          	mul	a7,a2,t1
   10e3c:	01069593          	slli	a1,a3,0x10
   10e40:	0107d693          	srli	a3,a5,0x10
   10e44:	00b6e6b3          	or	a3,a3,a1
   10e48:	00030593          	mv	a1,t1
   10e4c:	0116fe63          	bgeu	a3,a7,10e68 <__udivdi3+0x248>
   10e50:	00e686b3          	add	a3,a3,a4
   10e54:	fff30593          	addi	a1,t1,-1
   10e58:	00e6e863          	bltu	a3,a4,10e68 <__udivdi3+0x248>
   10e5c:	0116f663          	bgeu	a3,a7,10e68 <__udivdi3+0x248>
   10e60:	ffe30593          	addi	a1,t1,-2
   10e64:	00e686b3          	add	a3,a3,a4
   10e68:	411686b3          	sub	a3,a3,a7
   10e6c:	02a6d8b3          	divu	a7,a3,a0
   10e70:	01079793          	slli	a5,a5,0x10
   10e74:	0107d793          	srli	a5,a5,0x10
   10e78:	02a6f6b3          	remu	a3,a3,a0
   10e7c:	03160633          	mul	a2,a2,a7
   10e80:	01069693          	slli	a3,a3,0x10
   10e84:	00d7e7b3          	or	a5,a5,a3
   10e88:	00088693          	mv	a3,a7
   10e8c:	00c7fe63          	bgeu	a5,a2,10ea8 <__udivdi3+0x288>
   10e90:	00e787b3          	add	a5,a5,a4
   10e94:	fff88693          	addi	a3,a7,-1
   10e98:	00e7e863          	bltu	a5,a4,10ea8 <__udivdi3+0x288>
   10e9c:	00c7f663          	bgeu	a5,a2,10ea8 <__udivdi3+0x288>
   10ea0:	ffe88693          	addi	a3,a7,-2
   10ea4:	00e787b3          	add	a5,a5,a4
   10ea8:	01059593          	slli	a1,a1,0x10
   10eac:	40c787b3          	sub	a5,a5,a2
   10eb0:	00d5e5b3          	or	a1,a1,a3
   10eb4:	eb9ff06f          	j	10d6c <__udivdi3+0x14c>
      if (d1 > n1)
   10eb8:	18d5e663          	bltu	a1,a3,11044 <__udivdi3+0x424>
	  count_leading_zeros (bm, d1);
   10ebc:	000107b7          	lui	a5,0x10
   10ec0:	04f6f463          	bgeu	a3,a5,10f08 <__udivdi3+0x2e8>
   10ec4:	1006b713          	sltiu	a4,a3,256
   10ec8:	00174713          	xori	a4,a4,1
   10ecc:	00371713          	slli	a4,a4,0x3
   10ed0:	000117b7          	lui	a5,0x11
   10ed4:	00e6d5b3          	srl	a1,a3,a4
   10ed8:	70078793          	addi	a5,a5,1792 # 11700 <__clz_tab>
   10edc:	00b787b3          	add	a5,a5,a1
   10ee0:	0007c783          	lbu	a5,0(a5)
   10ee4:	00e787b3          	add	a5,a5,a4
   10ee8:	02000713          	li	a4,32
   10eec:	40f705b3          	sub	a1,a4,a5
	  if (bm == 0)
   10ef0:	02f71663          	bne	a4,a5,10f1c <__udivdi3+0x2fc>
		  q0 = 1;
   10ef4:	00100513          	li	a0,1
	      if (n1 > d1 || n0 >= d0)
   10ef8:	e116eee3          	bltu	a3,a7,10d14 <__udivdi3+0xf4>
   10efc:	00c33533          	sltu	a0,t1,a2
   10f00:	00154513          	xori	a0,a0,1
   10f04:	00008067          	ret
	  count_leading_zeros (bm, d1);
   10f08:	010007b7          	lui	a5,0x1000
   10f0c:	01000713          	li	a4,16
   10f10:	fcf6e0e3          	bltu	a3,a5,10ed0 <__udivdi3+0x2b0>
   10f14:	01800713          	li	a4,24
   10f18:	fb9ff06f          	j	10ed0 <__udivdi3+0x2b0>
	      d1 = (d1 << bm) | (d0 >> b);
   10f1c:	00f65733          	srl	a4,a2,a5
   10f20:	00b696b3          	sll	a3,a3,a1
   10f24:	00d766b3          	or	a3,a4,a3
	      n2 = n1 >> b;
   10f28:	00f8d733          	srl	a4,a7,a5
	      n1 = (n1 << bm) | (n0 >> b);
   10f2c:	00b898b3          	sll	a7,a7,a1
   10f30:	00f357b3          	srl	a5,t1,a5
   10f34:	0117e7b3          	or	a5,a5,a7
	      udiv_qrnnd (q0, n1, n2, n1, d1);
   10f38:	0106d893          	srli	a7,a3,0x10
   10f3c:	03175eb3          	divu	t4,a4,a7
   10f40:	01069813          	slli	a6,a3,0x10
   10f44:	01085813          	srli	a6,a6,0x10
	      d0 = d0 << bm;
   10f48:	00b61633          	sll	a2,a2,a1
	      udiv_qrnnd (q0, n1, n2, n1, d1);
   10f4c:	03177733          	remu	a4,a4,a7
   10f50:	03d80e33          	mul	t3,a6,t4
   10f54:	01071513          	slli	a0,a4,0x10
   10f58:	0107d713          	srli	a4,a5,0x10
   10f5c:	00a76733          	or	a4,a4,a0
   10f60:	000e8513          	mv	a0,t4
   10f64:	01c77e63          	bgeu	a4,t3,10f80 <__udivdi3+0x360>
   10f68:	00d70733          	add	a4,a4,a3
   10f6c:	fffe8513          	addi	a0,t4,-1
   10f70:	00d76863          	bltu	a4,a3,10f80 <__udivdi3+0x360>
   10f74:	01c77663          	bgeu	a4,t3,10f80 <__udivdi3+0x360>
   10f78:	ffee8513          	addi	a0,t4,-2
   10f7c:	00d70733          	add	a4,a4,a3
   10f80:	41c70733          	sub	a4,a4,t3
   10f84:	03175e33          	divu	t3,a4,a7
   10f88:	01079793          	slli	a5,a5,0x10
   10f8c:	0107d793          	srli	a5,a5,0x10
   10f90:	03177733          	remu	a4,a4,a7
   10f94:	03c80833          	mul	a6,a6,t3
   10f98:	01071713          	slli	a4,a4,0x10
   10f9c:	00e7e7b3          	or	a5,a5,a4
   10fa0:	000e0713          	mv	a4,t3
   10fa4:	0107fe63          	bgeu	a5,a6,10fc0 <__udivdi3+0x3a0>
   10fa8:	00d787b3          	add	a5,a5,a3
   10fac:	fffe0713          	addi	a4,t3,-1
   10fb0:	00d7e863          	bltu	a5,a3,10fc0 <__udivdi3+0x3a0>
   10fb4:	0107f663          	bgeu	a5,a6,10fc0 <__udivdi3+0x3a0>
   10fb8:	ffee0713          	addi	a4,t3,-2
   10fbc:	00d787b3          	add	a5,a5,a3
   10fc0:	01051513          	slli	a0,a0,0x10
	      umul_ppmm (m1, m0, q0, d0);
   10fc4:	00010e37          	lui	t3,0x10
	      udiv_qrnnd (q0, n1, n2, n1, d1);
   10fc8:	00e56533          	or	a0,a0,a4
	      umul_ppmm (m1, m0, q0, d0);
   10fcc:	fffe0693          	addi	a3,t3,-1 # ffff <main-0x75>
   10fd0:	00d57733          	and	a4,a0,a3
	      udiv_qrnnd (q0, n1, n2, n1, d1);
   10fd4:	410787b3          	sub	a5,a5,a6
	      umul_ppmm (m1, m0, q0, d0);
   10fd8:	00d676b3          	and	a3,a2,a3
   10fdc:	01055813          	srli	a6,a0,0x10
   10fe0:	01065613          	srli	a2,a2,0x10
   10fe4:	02d708b3          	mul	a7,a4,a3
   10fe8:	02d806b3          	mul	a3,a6,a3
   10fec:	02c70733          	mul	a4,a4,a2
   10ff0:	02c80833          	mul	a6,a6,a2
   10ff4:	00d70633          	add	a2,a4,a3
   10ff8:	0108d713          	srli	a4,a7,0x10
   10ffc:	00c70733          	add	a4,a4,a2
   11000:	00d77463          	bgeu	a4,a3,11008 <__udivdi3+0x3e8>
   11004:	01c80833          	add	a6,a6,t3
   11008:	01075693          	srli	a3,a4,0x10
   1100c:	010686b3          	add	a3,a3,a6
	      if (m1 > n1 || (m1 == n1 && m0 > n0))
   11010:	02d7e663          	bltu	a5,a3,1103c <__udivdi3+0x41c>
   11014:	ced79ee3          	bne	a5,a3,10d10 <__udivdi3+0xf0>
	      umul_ppmm (m1, m0, q0, d0);
   11018:	000107b7          	lui	a5,0x10
   1101c:	fff78793          	addi	a5,a5,-1 # ffff <main-0x75>
   11020:	00f77733          	and	a4,a4,a5
   11024:	01071713          	slli	a4,a4,0x10
   11028:	00f8f8b3          	and	a7,a7,a5
	      n0 = n0 << bm;
   1102c:	00b31333          	sll	t1,t1,a1
	      umul_ppmm (m1, m0, q0, d0);
   11030:	01170733          	add	a4,a4,a7
	      q1 = 0;
   11034:	00000593          	li	a1,0
	      if (m1 > n1 || (m1 == n1 && m0 > n0))
   11038:	cce37ee3          	bgeu	t1,a4,10d14 <__udivdi3+0xf4>
		  q0--;
   1103c:	fff50513          	addi	a0,a0,-1 # ffffff <__global_pointer$+0xfece1f>
		  sub_ddmmss (m1, m0, m1, m0, d1, d0);
   11040:	cd1ff06f          	j	10d10 <__udivdi3+0xf0>
	  q1 = 0;
   11044:	00000593          	li	a1,0
	  q0 = 0;
   11048:	00000513          	li	a0,0
   1104c:	00008067          	ret

00011050 <__errno>:
   11050:	c541a503          	lw	a0,-940(gp) # 12e34 <_impure_ptr>
   11054:	00008067          	ret

00011058 <exit>:
   11058:	ff010113          	addi	sp,sp,-16
   1105c:	00000593          	li	a1,0
   11060:	00812423          	sw	s0,8(sp)
   11064:	00112623          	sw	ra,12(sp)
   11068:	00050413          	mv	s0,a0
   1106c:	194000ef          	jal	ra,11200 <__call_exitprocs>
   11070:	c501a503          	lw	a0,-944(gp) # 12e30 <_global_impure_ptr>
   11074:	03c52783          	lw	a5,60(a0)
   11078:	00078463          	beqz	a5,11080 <exit+0x28>
   1107c:	000780e7          	jalr	a5
   11080:	00040513          	mv	a0,s0
   11084:	3a4000ef          	jal	ra,11428 <_exit>

00011088 <__libc_init_array>:
   11088:	ff010113          	addi	sp,sp,-16
   1108c:	00812423          	sw	s0,8(sp)
   11090:	01212023          	sw	s2,0(sp)
   11094:	00013437          	lui	s0,0x13
   11098:	00013937          	lui	s2,0x13
   1109c:	9d040793          	addi	a5,s0,-1584 # 129d0 <__init_array_start>
   110a0:	9d090913          	addi	s2,s2,-1584 # 129d0 <__init_array_start>
   110a4:	40f90933          	sub	s2,s2,a5
   110a8:	00112623          	sw	ra,12(sp)
   110ac:	00912223          	sw	s1,4(sp)
   110b0:	40295913          	srai	s2,s2,0x2
   110b4:	02090063          	beqz	s2,110d4 <__libc_init_array+0x4c>
   110b8:	9d040413          	addi	s0,s0,-1584
   110bc:	00000493          	li	s1,0
   110c0:	00042783          	lw	a5,0(s0)
   110c4:	00148493          	addi	s1,s1,1
   110c8:	00440413          	addi	s0,s0,4
   110cc:	000780e7          	jalr	a5
   110d0:	fe9918e3          	bne	s2,s1,110c0 <__libc_init_array+0x38>
   110d4:	00013437          	lui	s0,0x13
   110d8:	00013937          	lui	s2,0x13
   110dc:	9d040793          	addi	a5,s0,-1584 # 129d0 <__init_array_start>
   110e0:	9d890913          	addi	s2,s2,-1576 # 129d8 <__do_global_dtors_aux_fini_array_entry>
   110e4:	40f90933          	sub	s2,s2,a5
   110e8:	40295913          	srai	s2,s2,0x2
   110ec:	02090063          	beqz	s2,1110c <__libc_init_array+0x84>
   110f0:	9d040413          	addi	s0,s0,-1584
   110f4:	00000493          	li	s1,0
   110f8:	00042783          	lw	a5,0(s0)
   110fc:	00148493          	addi	s1,s1,1
   11100:	00440413          	addi	s0,s0,4
   11104:	000780e7          	jalr	a5
   11108:	fe9918e3          	bne	s2,s1,110f8 <__libc_init_array+0x70>
   1110c:	00c12083          	lw	ra,12(sp)
   11110:	00812403          	lw	s0,8(sp)
   11114:	00412483          	lw	s1,4(sp)
   11118:	00012903          	lw	s2,0(sp)
   1111c:	01010113          	addi	sp,sp,16
   11120:	00008067          	ret

00011124 <memset>:
   11124:	00f00313          	li	t1,15
   11128:	00050713          	mv	a4,a0
   1112c:	02c37e63          	bgeu	t1,a2,11168 <memset+0x44>
   11130:	00f77793          	andi	a5,a4,15
   11134:	0a079063          	bnez	a5,111d4 <memset+0xb0>
   11138:	08059263          	bnez	a1,111bc <memset+0x98>
   1113c:	ff067693          	andi	a3,a2,-16
   11140:	00f67613          	andi	a2,a2,15
   11144:	00e686b3          	add	a3,a3,a4
   11148:	00b72023          	sw	a1,0(a4)
   1114c:	00b72223          	sw	a1,4(a4)
   11150:	00b72423          	sw	a1,8(a4)
   11154:	00b72623          	sw	a1,12(a4)
   11158:	01070713          	addi	a4,a4,16
   1115c:	fed766e3          	bltu	a4,a3,11148 <memset+0x24>
   11160:	00061463          	bnez	a2,11168 <memset+0x44>
   11164:	00008067          	ret
   11168:	40c306b3          	sub	a3,t1,a2
   1116c:	00269693          	slli	a3,a3,0x2
   11170:	00000297          	auipc	t0,0x0
   11174:	005686b3          	add	a3,a3,t0
   11178:	00c68067          	jr	12(a3) # 1000c <main-0x68>
   1117c:	00b70723          	sb	a1,14(a4)
   11180:	00b706a3          	sb	a1,13(a4)
   11184:	00b70623          	sb	a1,12(a4)
   11188:	00b705a3          	sb	a1,11(a4)
   1118c:	00b70523          	sb	a1,10(a4)
   11190:	00b704a3          	sb	a1,9(a4)
   11194:	00b70423          	sb	a1,8(a4)
   11198:	00b703a3          	sb	a1,7(a4)
   1119c:	00b70323          	sb	a1,6(a4)
   111a0:	00b702a3          	sb	a1,5(a4)
   111a4:	00b70223          	sb	a1,4(a4)
   111a8:	00b701a3          	sb	a1,3(a4)
   111ac:	00b70123          	sb	a1,2(a4)
   111b0:	00b700a3          	sb	a1,1(a4)
   111b4:	00b70023          	sb	a1,0(a4)
   111b8:	00008067          	ret
   111bc:	0ff5f593          	zext.b	a1,a1
   111c0:	00859693          	slli	a3,a1,0x8
   111c4:	00d5e5b3          	or	a1,a1,a3
   111c8:	01059693          	slli	a3,a1,0x10
   111cc:	00d5e5b3          	or	a1,a1,a3
   111d0:	f6dff06f          	j	1113c <memset+0x18>
   111d4:	00279693          	slli	a3,a5,0x2
   111d8:	00000297          	auipc	t0,0x0
   111dc:	005686b3          	add	a3,a3,t0
   111e0:	00008293          	mv	t0,ra
   111e4:	fa0680e7          	jalr	-96(a3)
   111e8:	00028093          	mv	ra,t0
   111ec:	ff078793          	addi	a5,a5,-16
   111f0:	40f70733          	sub	a4,a4,a5
   111f4:	00f60633          	add	a2,a2,a5
   111f8:	f6c378e3          	bgeu	t1,a2,11168 <memset+0x44>
   111fc:	f3dff06f          	j	11138 <memset+0x14>

00011200 <__call_exitprocs>:
   11200:	fd010113          	addi	sp,sp,-48
   11204:	01412c23          	sw	s4,24(sp)
   11208:	c501aa03          	lw	s4,-944(gp) # 12e30 <_global_impure_ptr>
   1120c:	03212023          	sw	s2,32(sp)
   11210:	02112623          	sw	ra,44(sp)
   11214:	148a2903          	lw	s2,328(s4)
   11218:	02812423          	sw	s0,40(sp)
   1121c:	02912223          	sw	s1,36(sp)
   11220:	01312e23          	sw	s3,28(sp)
   11224:	01512a23          	sw	s5,20(sp)
   11228:	01612823          	sw	s6,16(sp)
   1122c:	01712623          	sw	s7,12(sp)
   11230:	01812423          	sw	s8,8(sp)
   11234:	04090063          	beqz	s2,11274 <__call_exitprocs+0x74>
   11238:	00050b13          	mv	s6,a0
   1123c:	00058b93          	mv	s7,a1
   11240:	00100a93          	li	s5,1
   11244:	fff00993          	li	s3,-1
   11248:	00492483          	lw	s1,4(s2)
   1124c:	fff48413          	addi	s0,s1,-1
   11250:	02044263          	bltz	s0,11274 <__call_exitprocs+0x74>
   11254:	00249493          	slli	s1,s1,0x2
   11258:	009904b3          	add	s1,s2,s1
   1125c:	040b8463          	beqz	s7,112a4 <__call_exitprocs+0xa4>
   11260:	1044a783          	lw	a5,260(s1)
   11264:	05778063          	beq	a5,s7,112a4 <__call_exitprocs+0xa4>
   11268:	fff40413          	addi	s0,s0,-1
   1126c:	ffc48493          	addi	s1,s1,-4
   11270:	ff3416e3          	bne	s0,s3,1125c <__call_exitprocs+0x5c>
   11274:	02c12083          	lw	ra,44(sp)
   11278:	02812403          	lw	s0,40(sp)
   1127c:	02412483          	lw	s1,36(sp)
   11280:	02012903          	lw	s2,32(sp)
   11284:	01c12983          	lw	s3,28(sp)
   11288:	01812a03          	lw	s4,24(sp)
   1128c:	01412a83          	lw	s5,20(sp)
   11290:	01012b03          	lw	s6,16(sp)
   11294:	00c12b83          	lw	s7,12(sp)
   11298:	00812c03          	lw	s8,8(sp)
   1129c:	03010113          	addi	sp,sp,48
   112a0:	00008067          	ret
   112a4:	00492783          	lw	a5,4(s2)
   112a8:	0044a683          	lw	a3,4(s1)
   112ac:	fff78793          	addi	a5,a5,-1
   112b0:	04878e63          	beq	a5,s0,1130c <__call_exitprocs+0x10c>
   112b4:	0004a223          	sw	zero,4(s1)
   112b8:	fa0688e3          	beqz	a3,11268 <__call_exitprocs+0x68>
   112bc:	18892783          	lw	a5,392(s2)
   112c0:	008a9733          	sll	a4,s5,s0
   112c4:	00492c03          	lw	s8,4(s2)
   112c8:	00f777b3          	and	a5,a4,a5
   112cc:	02079263          	bnez	a5,112f0 <__call_exitprocs+0xf0>
   112d0:	000680e7          	jalr	a3
   112d4:	00492703          	lw	a4,4(s2)
   112d8:	148a2783          	lw	a5,328(s4)
   112dc:	01871463          	bne	a4,s8,112e4 <__call_exitprocs+0xe4>
   112e0:	f92784e3          	beq	a5,s2,11268 <__call_exitprocs+0x68>
   112e4:	f80788e3          	beqz	a5,11274 <__call_exitprocs+0x74>
   112e8:	00078913          	mv	s2,a5
   112ec:	f5dff06f          	j	11248 <__call_exitprocs+0x48>
   112f0:	18c92783          	lw	a5,396(s2)
   112f4:	0844a583          	lw	a1,132(s1)
   112f8:	00f77733          	and	a4,a4,a5
   112fc:	00071c63          	bnez	a4,11314 <__call_exitprocs+0x114>
   11300:	000b0513          	mv	a0,s6
   11304:	000680e7          	jalr	a3
   11308:	fcdff06f          	j	112d4 <__call_exitprocs+0xd4>
   1130c:	00892223          	sw	s0,4(s2)
   11310:	fa9ff06f          	j	112b8 <__call_exitprocs+0xb8>
   11314:	00058513          	mv	a0,a1
   11318:	000680e7          	jalr	a3
   1131c:	fb9ff06f          	j	112d4 <__call_exitprocs+0xd4>

00011320 <atexit>:
   11320:	00050593          	mv	a1,a0
   11324:	00000693          	li	a3,0
   11328:	00000613          	li	a2,0
   1132c:	00000513          	li	a0,0
   11330:	0600006f          	j	11390 <__register_exitproc>

00011334 <__libc_fini_array>:
   11334:	ff010113          	addi	sp,sp,-16
   11338:	00812423          	sw	s0,8(sp)
   1133c:	000137b7          	lui	a5,0x13
   11340:	00013437          	lui	s0,0x13
   11344:	9d878793          	addi	a5,a5,-1576 # 129d8 <__do_global_dtors_aux_fini_array_entry>
   11348:	9dc40413          	addi	s0,s0,-1572 # 129dc <__fini_array_end>
   1134c:	40f40433          	sub	s0,s0,a5
   11350:	00912223          	sw	s1,4(sp)
   11354:	00112623          	sw	ra,12(sp)
   11358:	40245493          	srai	s1,s0,0x2
   1135c:	02048063          	beqz	s1,1137c <__libc_fini_array+0x48>
   11360:	ffc40413          	addi	s0,s0,-4
   11364:	00f40433          	add	s0,s0,a5
   11368:	00042783          	lw	a5,0(s0)
   1136c:	fff48493          	addi	s1,s1,-1
   11370:	ffc40413          	addi	s0,s0,-4
   11374:	000780e7          	jalr	a5
   11378:	fe0498e3          	bnez	s1,11368 <__libc_fini_array+0x34>
   1137c:	00c12083          	lw	ra,12(sp)
   11380:	00812403          	lw	s0,8(sp)
   11384:	00412483          	lw	s1,4(sp)
   11388:	01010113          	addi	sp,sp,16
   1138c:	00008067          	ret

00011390 <__register_exitproc>:
   11390:	c501a703          	lw	a4,-944(gp) # 12e30 <_global_impure_ptr>
   11394:	14872783          	lw	a5,328(a4)
   11398:	04078c63          	beqz	a5,113f0 <__register_exitproc+0x60>
   1139c:	0047a703          	lw	a4,4(a5)
   113a0:	01f00813          	li	a6,31
   113a4:	06e84e63          	blt	a6,a4,11420 <__register_exitproc+0x90>
   113a8:	00271813          	slli	a6,a4,0x2
   113ac:	02050663          	beqz	a0,113d8 <__register_exitproc+0x48>
   113b0:	01078333          	add	t1,a5,a6
   113b4:	08c32423          	sw	a2,136(t1)
   113b8:	1887a883          	lw	a7,392(a5)
   113bc:	00100613          	li	a2,1
   113c0:	00e61633          	sll	a2,a2,a4
   113c4:	00c8e8b3          	or	a7,a7,a2
   113c8:	1917a423          	sw	a7,392(a5)
   113cc:	10d32423          	sw	a3,264(t1)
   113d0:	00200693          	li	a3,2
   113d4:	02d50463          	beq	a0,a3,113fc <__register_exitproc+0x6c>
   113d8:	00170713          	addi	a4,a4,1
   113dc:	00e7a223          	sw	a4,4(a5)
   113e0:	010787b3          	add	a5,a5,a6
   113e4:	00b7a423          	sw	a1,8(a5)
   113e8:	00000513          	li	a0,0
   113ec:	00008067          	ret
   113f0:	14c70793          	addi	a5,a4,332
   113f4:	14f72423          	sw	a5,328(a4)
   113f8:	fa5ff06f          	j	1139c <__register_exitproc+0xc>
   113fc:	18c7a683          	lw	a3,396(a5)
   11400:	00170713          	addi	a4,a4,1
   11404:	00e7a223          	sw	a4,4(a5)
   11408:	00c6e6b3          	or	a3,a3,a2
   1140c:	18d7a623          	sw	a3,396(a5)
   11410:	010787b3          	add	a5,a5,a6
   11414:	00b7a423          	sw	a1,8(a5)
   11418:	00000513          	li	a0,0
   1141c:	00008067          	ret
   11420:	fff00513          	li	a0,-1
   11424:	00008067          	ret

00011428 <_exit>:
   11428:	05d00893          	li	a7,93
   1142c:	00000073          	ecall
   11430:	00054463          	bltz	a0,11438 <_exit+0x10>
   11434:	0000006f          	j	11434 <_exit+0xc>
   11438:	ff010113          	addi	sp,sp,-16
   1143c:	00812423          	sw	s0,8(sp)
   11440:	00050413          	mv	s0,a0
   11444:	00112623          	sw	ra,12(sp)
   11448:	40800433          	neg	s0,s0
   1144c:	c05ff0ef          	jal	ra,11050 <__errno>
   11450:	00852023          	sw	s0,0(a0)
   11454:	0000006f          	j	11454 <_exit+0x2c>

Disassembly of section .rodata:

00011458 <__clz_tab-0x2a8>:
   11458:	6170                	flw	fa2,68(a0)
   1145a:	64657373          	csrrci	t1,0x646,10
   1145e:	2820                	fld	fs0,80(s0)
   11460:	0000                	unimp
   11462:	0000                	unimp
   11464:	6166                	flw	ft2,88(sp)
   11466:	6c69                	lui	s8,0x1a
   11468:	6465                	lui	s0,0x19
   1146a:	2820                	fld	fs0,80(s0)
   1146c:	0000                	unimp
   1146e:	0000                	unimp
   11470:	540a                	lw	s0,160(sp)
   11472:	7365                	lui	t1,0xffff9
   11474:	6974                	flw	fa3,84(a0)
   11476:	676e                	flw	fa4,216(sp)
   11478:	4420                	lw	s0,72(s0)
   1147a:	5244                	lw	s1,36(a2)
   1147c:	6e6f2033          	0x6e6f2033
   11480:	4120                	lw	s0,64(a0)
   11482:	4958                	lw	a4,20(a0)
   11484:	2034                	fld	fa3,64(s0)
   11486:	7562                	flw	fa0,56(sp)
   11488:	00000a73          	0xa73
   1148c:	61656c43          	fmadd.s	fs8,fa0,fs6,fa2,unknown
   11490:	6972                	flw	fs2,28(sp)
   11492:	676e                	flw	fa4,216(sp)
   11494:	6520                	flw	fs0,72(a0)
   11496:	7478                	flw	fa4,108(s0)
   11498:	6e65                	lui	t3,0x19
   1149a:	6564                	flw	fs1,76(a0)
   1149c:	2064                	fld	fs1,192(s0)
   1149e:	656d                	lui	a0,0x1b
   114a0:	6f6d                	lui	t5,0x1b
   114a2:	7972                	flw	fs2,60(sp)
   114a4:	000a                	c.slli	zero,0x2
   114a6:	0000                	unimp
   114a8:	61656c43          	fmadd.s	fs8,fa0,fs6,fa2,unknown
   114ac:	6972                	flw	fs2,28(sp)
   114ae:	676e                	flw	fa4,216(sp)
   114b0:	3320                	fld	fs0,96(a4)
   114b2:	4d32                	lw	s10,12(sp)
   114b4:	7962                	flw	fs2,56(sp)
   114b6:	6574                	flw	fa3,76(a0)
   114b8:	6f742073          	csrs	0x6f7,s0
   114bc:	00206b6f          	jal	s6,174be <__global_pointer$+0x42de>
   114c0:	6d20                	flw	fs0,88(a0)
   114c2:	00000a73          	0xa73
   114c6:	0000                	unimp
   114c8:	655a                	flw	fa0,148(sp)
   114ca:	6f72                	flw	ft10,28(sp)
   114cc:	772d                	lui	a4,0xfffeb
   114ce:	6972                	flw	fs2,28(sp)
   114d0:	6574                	flw	fa3,76(a0)
   114d2:	7220                	flw	fs0,96(a2)
   114d4:	7461                	lui	s0,0xffff8
   114d6:	2065                	jal	1157e <_exit+0x156>
   114d8:	7369                	lui	t1,0xffffa
   114da:	0020                	addi	s0,sp,8
   114dc:	4b20                	lw	s0,80(a4)
   114de:	7962                	flw	fs2,56(sp)
   114e0:	6574                	flw	fa3,76(a0)
   114e2:	65732f73          	csrrs	t5,0x657,t1
   114e6:	00000a63          	beqz	zero,114fa <_exit+0xd2>
   114ea:	0000                	unimp
   114ec:	2d0a                	fld	fs10,128(sp)
   114ee:	2d2d                	jal	11b28 <__clz_tab+0x428>
   114f0:	2d2d                	jal	11b2a <__clz_tab+0x42a>
   114f2:	2d2d                	jal	11b2c <__clz_tab+0x42c>
   114f4:	2d2d                	jal	11b2e <__clz_tab+0x42e>
   114f6:	2d2d                	jal	11b30 <__clz_tab+0x430>
   114f8:	2d2d                	jal	11b32 <__clz_tab+0x432>
   114fa:	654d                	lui	a0,0x13
   114fc:	546d                	li	s0,-5
   114fe:	7365                	lui	t1,0xffff9
   11500:	2d74                	fld	fa3,216(a0)
   11502:	2d2d                	jal	11b3c <__clz_tab+0x43c>
   11504:	2d2d                	jal	11b3e <__clz_tab+0x43e>
   11506:	2d2d                	jal	11b40 <__clz_tab+0x440>
   11508:	2d2d                	jal	11b42 <__clz_tab+0x442>
   1150a:	2d2d                	jal	11b44 <__clz_tab+0x444>
   1150c:	2d2d                	jal	11b46 <__clz_tab+0x446>
   1150e:	0a2d                	addi	s4,s4,11
   11510:	0000                	unimp
   11512:	0000                	unimp
   11514:	79706f43          	fmadd.s	ft10,ft0,fs7,fa5,unknown
   11518:	6972                	flw	fs2,28(sp)
   1151a:	20746867          	0x20746867
   1151e:	6328                	flw	fa0,64(a4)
   11520:	2029                	jal	1152a <_exit+0x102>
   11522:	3032                	fld	ft0,296(sp)
   11524:	3030                	fld	fa2,96(s0)
   11526:	6220                	flw	fs0,64(a2)
   11528:	2079                	jal	115b6 <_exit+0x18e>
   1152a:	694d                	lui	s2,0x13
   1152c:	65616863          	bltu	sp,s6,11b7c <__clz_tab+0x47c>
   11530:	206c                	fld	fa1,192(s0)
   11532:	6142                	flw	ft2,16(sp)
   11534:	7272                	flw	ft4,60(sp)
   11536:	000a                	c.slli	zero,0x2
   11538:	2d2d                	jal	11b72 <__clz_tab+0x472>
   1153a:	2d2d                	jal	11b74 <__clz_tab+0x474>
   1153c:	2d2d                	jal	11b76 <__clz_tab+0x476>
   1153e:	2d2d                	jal	11b78 <__clz_tab+0x478>
   11540:	2d2d                	jal	11b7a <__clz_tab+0x47a>
   11542:	2d2d                	jal	11b7c <__clz_tab+0x47c>
   11544:	2d2d                	jal	11b7e <__clz_tab+0x47e>
   11546:	2d2d                	jal	11b80 <__clz_tab+0x480>
   11548:	2d2d                	jal	11b82 <__clz_tab+0x482>
   1154a:	2d2d                	jal	11b84 <__clz_tab+0x484>
   1154c:	2d2d                	jal	11b86 <__clz_tab+0x486>
   1154e:	2d2d                	jal	11b88 <__clz_tab+0x488>
   11550:	2d2d                	jal	11b8a <__clz_tab+0x48a>
   11552:	2d2d                	jal	11b8c <__clz_tab+0x48c>
   11554:	2d2d                	jal	11b8e <__clz_tab+0x48e>
   11556:	2d2d                	jal	11b90 <__clz_tab+0x490>
   11558:	2d2d                	jal	11b92 <__clz_tab+0x492>
   1155a:	000a                	c.slli	zero,0x2
   1155c:	6144                	flw	fs1,4(a0)
   1155e:	6174                	flw	fa3,68(a0)
   11560:	6220                	flw	fs0,64(a2)
   11562:	7375                	lui	t1,0xffffd
   11564:	7420                	flw	fs0,104(s0)
   11566:	7365                	lui	t1,0xffff9
   11568:	2074                	fld	fa3,192(s0)
   1156a:	3028                	fld	fa0,96(s0)
   1156c:	3078                	fld	fa4,224(s0)
   1156e:	3041                	jal	10dee <__udivdi3+0x1ce>
   11570:	3030                	fld	fa2,96(s0)
   11572:	3030                	fld	fa2,96(s0)
   11574:	2d30                	fld	fa2,88(a0)
   11576:	7830                	flw	fa2,112(s0)
   11578:	4130                	lw	a2,64(a0)
   1157a:	3330                	fld	fa2,96(a4)
   1157c:	4646                	lw	a2,80(sp)
   1157e:	4646                	lw	a2,80(sp)
   11580:	2e29                	jal	1189a <__clz_tab+0x19a>
   11582:	2e2e                	fld	ft8,200(sp)
   11584:	0000                	unimp
   11586:	0000                	unimp
   11588:	6620                	flw	fs0,72(a2)
   1158a:	6961                	lui	s2,0x18
   1158c:	756c                	flw	fa1,108(a0)
   1158e:	6572                	flw	fa0,28(sp)
   11590:	000a2973          	csrrs	s2,ustatus,s4
   11594:	6441                	lui	s0,0x10
   11596:	7264                	flw	fs1,100(a2)
   11598:	7365                	lui	t1,0xffff9
   1159a:	75622073          	csrs	0x756,tp
   1159e:	65742073          	csrs	0x657,s0
   115a2:	28207473          	csrrci	s0,0x282,0
   115a6:	7830                	flw	fa2,112(s0)
   115a8:	4230                	lw	a2,64(a2)
   115aa:	3030                	fld	fa2,96(s0)
   115ac:	3030                	fld	fa2,96(s0)
   115ae:	3030                	fld	fa2,96(s0)
   115b0:	302d                	jal	10dda <__udivdi3+0x1ba>
   115b2:	3078                	fld	fa4,224(s0)
   115b4:	3042                	fld	ft0,48(sp)
   115b6:	46464633          	0x46464633
   115ba:	2946                	fld	fs2,80(sp)
   115bc:	2e2e                	fld	ft8,200(sp)
   115be:	002e                	c.slli	zero,0xb
   115c0:	6552                	flw	fa0,20(sp)
   115c2:	7361                	lui	t1,0xffff8
   115c4:	203a6e6f          	jal	t3,b7fc6 <__global_pointer$+0xa4de6>
   115c8:	6441                	lui	s0,0x10
   115ca:	7264                	flw	fs1,100(a2)
   115cc:	7365                	lui	t1,0xffff9
   115ce:	69622073          	csrs	0x696,tp
   115d2:	2074                	fld	fa3,192(s0)
   115d4:	63757473          	csrrci	s0,0x637,10
   115d8:	6968206b          	0x6968206b
   115dc:	61206867          	0x61206867
   115e0:	2074                	fld	fa3,192(s0)
   115e2:	7830                	flw	fa2,112(s0)
   115e4:	0000                	unimp
   115e6:	0000                	unimp
   115e8:	6552                	flw	fa0,20(sp)
   115ea:	7361                	lui	t1,0xffff8
   115ec:	203a6e6f          	jal	t3,b7fee <__global_pointer$+0xa4e0e>
   115f0:	6441                	lui	s0,0x10
   115f2:	7264                	flw	fs1,100(a2)
   115f4:	7365                	lui	t1,0xffff9
   115f6:	69622073          	csrs	0x696,tp
   115fa:	2074                	fld	fa3,192(s0)
   115fc:	63757473          	csrrci	s0,0x637,10
   11600:	6f6c206b          	0x6f6c206b
   11604:	74612077          	0x74612077
   11608:	3020                	fld	fs0,96(s0)
   1160a:	0078                	addi	a4,sp,12
   1160c:	6552                	flw	fa0,20(sp)
   1160e:	7361                	lui	t1,0xffff8
   11610:	203a6e6f          	jal	t3,b8012 <__global_pointer$+0xa4e32>
   11614:	6441                	lui	s0,0x10
   11616:	7264                	flw	fs1,100(a2)
   11618:	7365                	lui	t1,0xffff9
   1161a:	69622073          	csrs	0x696,tp
   1161e:	2074                	fld	fa3,192(s0)
   11620:	726f6873          	csrrsi	a6,0x726,30
   11624:	6574                	flw	fa3,76(a0)
   11626:	2064                	fld	fs1,192(s0)
   11628:	7461                	lui	s0,0xffff8
   1162a:	3020                	fld	fs0,96(s0)
   1162c:	0078                	addi	a4,sp,12
   1162e:	0000                	unimp
   11630:	654d                	lui	a0,0x13
   11632:	6f6d                	lui	t5,0x1b
   11634:	7972                	flw	fs2,60(sp)
   11636:	6420                	flw	fs0,72(s0)
   11638:	7665                	lui	a2,0xffff9
   1163a:	6369                	lui	t1,0x1a
   1163c:	2065                	jal	116e4 <_exit+0x2bc>
   1163e:	6574                	flw	fa3,76(a0)
   11640:	28207473          	csrrci	s0,0x282,0
   11644:	7830                	flw	fa2,112(s0)
   11646:	4330                	lw	a2,64(a4)
   11648:	3030                	fld	fa2,96(s0)
   1164a:	3030                	fld	fa2,96(s0)
   1164c:	3030                	fld	fa2,96(s0)
   1164e:	302d                	jal	10e78 <__udivdi3+0x258>
   11650:	3078                	fld	fa4,224(s0)
   11652:	46333043          	fmadd.q	ft0,ft6,ft3,fs0,rup
   11656:	4646                	lw	a2,80(sp)
   11658:	2946                	fld	fs2,80(sp)
   1165a:	2e2e                	fld	ft8,200(sp)
   1165c:	002e                	c.slli	zero,0xb
   1165e:	0000                	unimp
   11660:	654d                	lui	a0,0x13
   11662:	6f6d                	lui	t5,0x1b
   11664:	7972                	flw	fs2,60(sp)
   11666:	6420                	flw	fs0,72(s0)
   11668:	7665                	lui	a2,0xffff9
   1166a:	6369                	lui	t1,0x1a
   1166c:	2065                	jal	11714 <__clz_tab+0x14>
   1166e:	6f64                	flw	fs1,92(a4)
   11670:	7365                	lui	t1,0xffff9
   11672:	6e20                	flw	fs0,88(a2)
   11674:	6120746f          	jal	s0,18c86 <__global_pointer$+0x5aa6>
   11678:	7070                	flw	fa2,100(s0)
   1167a:	6165                	addi	sp,sp,112
   1167c:	2072                	fld	ft0,280(sp)
   1167e:	6f74                	flw	fa3,92(a4)
   11680:	6220                	flw	fs0,64(a2)
   11682:	2065                	jal	1172a <__clz_tab+0x2a>
   11684:	6b726f77          	0x6b726f77
   11688:	6e69                	lui	t3,0x1a
   1168a:	6f632067          	0x6f632067
   1168e:	7272                	flw	ft4,60(sp)
   11690:	6365                	lui	t1,0x19
   11692:	6c74                	flw	fa3,92(s0)
   11694:	2e79                	jal	11a32 <__clz_tab+0x332>
   11696:	000a                	c.slli	zero,0x2
   11698:	6166                	flw	ft2,88(sp)
   1169a:	6c69                	lui	s8,0x1a
   1169c:	6465                	lui	s0,0x19
   1169e:	000a                	c.slli	zero,0x2
   116a0:	6552                	flw	fa0,20(sp)
   116a2:	7361                	lui	t1,0xffff8
   116a4:	203a6e6f          	jal	t3,b80a6 <__global_pointer$+0xa4ec6>
   116a8:	6e69                	lui	t3,0x1a
   116aa:	72726f63          	bltu	tp,t2,11de8 <__clz_tab+0x6e8>
   116ae:	6365                	lui	t1,0x19
   116b0:	2074                	fld	fa3,192(s0)
   116b2:	6176                	flw	ft2,92(sp)
   116b4:	756c                	flw	fa1,108(a0)
   116b6:	2065                	jal	1175e <__clz_tab+0x5e>
   116b8:	6572                	flw	fa0,28(sp)
   116ba:	6461                	lui	s0,0x18
   116bc:	6120                	flw	fs0,64(a0)
   116be:	2074                	fld	fa3,192(s0)
   116c0:	7830                	flw	fa2,112(s0)
   116c2:	0000                	unimp
   116c4:	6170                	flw	fa2,68(a0)
   116c6:	64657373          	csrrci	t1,0x646,10
   116ca:	000a                	c.slli	zero,0x2
   116cc:	3130                	fld	fa2,96(a0)
   116ce:	3332                	fld	ft6,296(sp)
   116d0:	3534                	fld	fa3,104(a0)
   116d2:	3736                	fld	fa4,360(sp)
   116d4:	3938                	fld	fa4,112(a0)
   116d6:	4241                	li	tp,16
   116d8:	46454443          	fmadd.q	fs0,fa0,ft4,fs0,rmm
   116dc:	0000                	unimp
   116de:	0000                	unimp
   116e0:	2020                	fld	fs0,64(s0)
   116e2:	2020                	fld	fs0,64(s0)
   116e4:	2020                	fld	fs0,64(s0)
   116e6:	2020                	fld	fs0,64(s0)
   116e8:	2020                	fld	fs0,64(s0)
   116ea:	2020                	fld	fs0,64(s0)
   116ec:	2020                	fld	fs0,64(s0)
   116ee:	2020                	fld	fs0,64(s0)
   116f0:	2020                	fld	fs0,64(s0)
   116f2:	0020                	addi	s0,sp,8
   116f4:	3130                	fld	fa2,96(a0)
   116f6:	3332                	fld	ft6,296(sp)
   116f8:	3534                	fld	fa3,104(a0)
   116fa:	3736                	fld	fa4,360(sp)
   116fc:	3938                	fld	fa4,112(a0)
	...

00011700 <__clz_tab>:
const UQItype __clz_tab[256] =
   11700:	0100                	addi	s0,sp,128
   11702:	0202                	c.slli64	tp
   11704:	03030303          	lb	t1,48(t1) # 19030 <__global_pointer$+0x5e50>
   11708:	0404                	addi	s1,sp,512
   1170a:	0404                	addi	s1,sp,512
   1170c:	0404                	addi	s1,sp,512
   1170e:	0404                	addi	s1,sp,512
   11710:	0505                	addi	a0,a0,1
   11712:	0505                	addi	a0,a0,1
   11714:	0505                	addi	a0,a0,1
   11716:	0505                	addi	a0,a0,1
   11718:	0505                	addi	a0,a0,1
   1171a:	0505                	addi	a0,a0,1
   1171c:	0505                	addi	a0,a0,1
   1171e:	0505                	addi	a0,a0,1
   11720:	0606                	slli	a2,a2,0x1
   11722:	0606                	slli	a2,a2,0x1
   11724:	0606                	slli	a2,a2,0x1
   11726:	0606                	slli	a2,a2,0x1
   11728:	0606                	slli	a2,a2,0x1
   1172a:	0606                	slli	a2,a2,0x1
   1172c:	0606                	slli	a2,a2,0x1
   1172e:	0606                	slli	a2,a2,0x1
   11730:	0606                	slli	a2,a2,0x1
   11732:	0606                	slli	a2,a2,0x1
   11734:	0606                	slli	a2,a2,0x1
   11736:	0606                	slli	a2,a2,0x1
   11738:	0606                	slli	a2,a2,0x1
   1173a:	0606                	slli	a2,a2,0x1
   1173c:	0606                	slli	a2,a2,0x1
   1173e:	0606                	slli	a2,a2,0x1
   11740:	07070707          	0x7070707
   11744:	07070707          	0x7070707
   11748:	07070707          	0x7070707
   1174c:	07070707          	0x7070707
   11750:	07070707          	0x7070707
   11754:	07070707          	0x7070707
   11758:	07070707          	0x7070707
   1175c:	07070707          	0x7070707
   11760:	07070707          	0x7070707
   11764:	07070707          	0x7070707
   11768:	07070707          	0x7070707
   1176c:	07070707          	0x7070707
   11770:	07070707          	0x7070707
   11774:	07070707          	0x7070707
   11778:	07070707          	0x7070707
   1177c:	07070707          	0x7070707
   11780:	0808                	addi	a0,sp,16
   11782:	0808                	addi	a0,sp,16
   11784:	0808                	addi	a0,sp,16
   11786:	0808                	addi	a0,sp,16
   11788:	0808                	addi	a0,sp,16
   1178a:	0808                	addi	a0,sp,16
   1178c:	0808                	addi	a0,sp,16
   1178e:	0808                	addi	a0,sp,16
   11790:	0808                	addi	a0,sp,16
   11792:	0808                	addi	a0,sp,16
   11794:	0808                	addi	a0,sp,16
   11796:	0808                	addi	a0,sp,16
   11798:	0808                	addi	a0,sp,16
   1179a:	0808                	addi	a0,sp,16
   1179c:	0808                	addi	a0,sp,16
   1179e:	0808                	addi	a0,sp,16
   117a0:	0808                	addi	a0,sp,16
   117a2:	0808                	addi	a0,sp,16
   117a4:	0808                	addi	a0,sp,16
   117a6:	0808                	addi	a0,sp,16
   117a8:	0808                	addi	a0,sp,16
   117aa:	0808                	addi	a0,sp,16
   117ac:	0808                	addi	a0,sp,16
   117ae:	0808                	addi	a0,sp,16
   117b0:	0808                	addi	a0,sp,16
   117b2:	0808                	addi	a0,sp,16
   117b4:	0808                	addi	a0,sp,16
   117b6:	0808                	addi	a0,sp,16
   117b8:	0808                	addi	a0,sp,16
   117ba:	0808                	addi	a0,sp,16
   117bc:	0808                	addi	a0,sp,16
   117be:	0808                	addi	a0,sp,16
   117c0:	0808                	addi	a0,sp,16
   117c2:	0808                	addi	a0,sp,16
   117c4:	0808                	addi	a0,sp,16
   117c6:	0808                	addi	a0,sp,16
   117c8:	0808                	addi	a0,sp,16
   117ca:	0808                	addi	a0,sp,16
   117cc:	0808                	addi	a0,sp,16
   117ce:	0808                	addi	a0,sp,16
   117d0:	0808                	addi	a0,sp,16
   117d2:	0808                	addi	a0,sp,16
   117d4:	0808                	addi	a0,sp,16
   117d6:	0808                	addi	a0,sp,16
   117d8:	0808                	addi	a0,sp,16
   117da:	0808                	addi	a0,sp,16
   117dc:	0808                	addi	a0,sp,16
   117de:	0808                	addi	a0,sp,16
   117e0:	0808                	addi	a0,sp,16
   117e2:	0808                	addi	a0,sp,16
   117e4:	0808                	addi	a0,sp,16
   117e6:	0808                	addi	a0,sp,16
   117e8:	0808                	addi	a0,sp,16
   117ea:	0808                	addi	a0,sp,16
   117ec:	0808                	addi	a0,sp,16
   117ee:	0808                	addi	a0,sp,16
   117f0:	0808                	addi	a0,sp,16
   117f2:	0808                	addi	a0,sp,16
   117f4:	0808                	addi	a0,sp,16
   117f6:	0808                	addi	a0,sp,16
   117f8:	0808                	addi	a0,sp,16
   117fa:	0808                	addi	a0,sp,16
   117fc:	0808                	addi	a0,sp,16
   117fe:	0808                	addi	a0,sp,16

Disassembly of section .eh_frame:

00012800 <__EH_FRAME_BEGIN__>:
   12800:	0010                	0x10
   12802:	0000                	unimp
   12804:	0000                	unimp
   12806:	0000                	unimp
   12808:	00527a03          	0x527a03
   1280c:	7c01                	lui	s8,0xfffe0
   1280e:	0101                	addi	sp,sp,0
   12810:	00020d1b          	0x20d1b
   12814:	0038                	addi	a4,sp,8
   12816:	0000                	unimp
   12818:	0018                	0x18
   1281a:	0000                	unimp
   1281c:	d858                	sw	a4,52(s0)
   1281e:	ffff                	0xffff
   12820:	02a0                	addi	s0,sp,328
   12822:	0000                	unimp
   12824:	4400                	lw	s0,8(s0)
   12826:	200e                	fld	ft0,192(sp)
   12828:	8158                	0x8158
   1282a:	8801                	andi	s0,s0,0
   1282c:	8902                	jr	s2
   1282e:	03049203          	lh	tp,48(s1)
   12832:	01cc                	addi	a1,sp,196
   12834:	c10a                	sw	sp,128(sp)
   12836:	c844                	sw	s1,20(s0)
   12838:	c944                	sw	s1,20(a0)
   1283a:	d244                	sw	s1,36(a2)
   1283c:	0e48                	addi	a0,sp,788
   1283e:	4400                	lw	s0,8(s0)
   12840:	0a54020b          	0xa54020b
   12844:	44c1                	li	s1,16
   12846:	44c8                	lw	a0,12(s1)
   12848:	44c9                	li	s1,18
   1284a:	48d2                	lw	a7,20(sp)
   1284c:	000e                	c.slli	zero,0x3
   1284e:	0b44                	addi	s1,sp,404
   12850:	0010                	0x10
   12852:	0000                	unimp
   12854:	0054                	addi	a3,sp,4
   12856:	0000                	unimp
   12858:	db84                	sw	s1,48(a5)
   1285a:	ffff                	0xffff
   1285c:	0018                	0x18
   1285e:	0000                	unimp
   12860:	0000                	unimp
   12862:	0000                	unimp
   12864:	0018                	0x18
   12866:	0000                	unimp
   12868:	0068                	addi	a0,sp,12
   1286a:	0000                	unimp
   1286c:	db88                	sw	a0,48(a5)
   1286e:	ffff                	0xffff
   12870:	0024                	addi	s1,sp,8
   12872:	0000                	unimp
   12874:	4400                	lw	s0,8(s0)
   12876:	100e                	c.slli	zero,0x23
   12878:	8144                	0x8144
   1287a:	5401                	li	s0,-32
   1287c:	44c1                	li	s1,16
   1287e:	000e                	c.slli	zero,0x3
   12880:	0018                	0x18
   12882:	0000                	unimp
   12884:	0084                	addi	s1,sp,64
   12886:	0000                	unimp
   12888:	db90                	sw	a2,48(a5)
   1288a:	ffff                	0xffff
   1288c:	0038                	addi	a4,sp,8
   1288e:	0000                	unimp
   12890:	4400                	lw	s0,8(s0)
   12892:	100e                	c.slli	zero,0x23
   12894:	8144                	0x8144
   12896:	6401                	0x6401
   12898:	48c1                	li	a7,16
   1289a:	000e                	c.slli	zero,0x3
   1289c:	0010                	0x10
   1289e:	0000                	unimp
   128a0:	00a0                	addi	s0,sp,72
   128a2:	0000                	unimp
   128a4:	dbac                	sw	a1,112(a5)
   128a6:	ffff                	0xffff
   128a8:	0014                	0x14
   128aa:	0000                	unimp
   128ac:	0000                	unimp
   128ae:	0000                	unimp
   128b0:	0034                	addi	a3,sp,8
   128b2:	0000                	unimp
   128b4:	00b4                	addi	a3,sp,72
   128b6:	0000                	unimp
   128b8:	dbac                	sw	a1,112(a5)
   128ba:	ffff                	0xffff
   128bc:	0090                	addi	a2,sp,64
   128be:	0000                	unimp
   128c0:	4400                	lw	s0,8(s0)
   128c2:	100e                	c.slli	zero,0x23
   128c4:	8950                	0x8950
   128c6:	88018103          	lb	sp,-1920(gp) # 12a60 <impure_data+0x70>
   128ca:	9202                	jalr	tp
   128cc:	0204                	addi	s1,sp,256
   128ce:	0a40                	addi	s0,sp,276
   128d0:	44c1                	li	s1,16
   128d2:	44c8                	lw	a0,12(s1)
   128d4:	44c9                	li	s1,18
   128d6:	44d2                	lw	s1,20(sp)
   128d8:	000e                	c.slli	zero,0x3
   128da:	0b44                	addi	s1,sp,404
   128dc:	c154                	sw	a3,4(a0)
   128de:	c844                	sw	s1,20(s0)
   128e0:	c944                	sw	s1,20(a0)
   128e2:	d244                	sw	s1,36(a2)
   128e4:	0e44                	addi	s1,sp,788
   128e6:	0000                	unimp
   128e8:	001c                	0x1c
   128ea:	0000                	unimp
   128ec:	00ec                	addi	a1,sp,76
   128ee:	0000                	unimp
   128f0:	dc04                	sw	s1,56(s0)
   128f2:	ffff                	0xffff
   128f4:	007c                	addi	a5,sp,12
   128f6:	0000                	unimp
   128f8:	6000                	flw	fs0,0(s0)
   128fa:	300e                	fld	ft0,224(sp)
   128fc:	8148                	0x8148
   128fe:	0201                	addi	tp,tp,0
   12900:	c14c                	sw	a1,4(a0)
   12902:	0e44                	addi	s1,sp,788
   12904:	0000                	unimp
   12906:	0000                	unimp
   12908:	001c                	0x1c
   1290a:	0000                	unimp
   1290c:	010c                	addi	a1,sp,128
   1290e:	0000                	unimp
   12910:	dc60                	sw	s0,124(s0)
   12912:	ffff                	0xffff
   12914:	0150                	addi	a2,sp,132
   12916:	0000                	unimp
   12918:	6000                	flw	fs0,0(s0)
   1291a:	300e                	fld	ft0,224(sp)
   1291c:	8168                	0x8168
   1291e:	0301                	addi	t1,t1,0
   12920:	0100                	addi	s0,sp,128
   12922:	44c1                	li	s1,16
   12924:	000e                	c.slli	zero,0x3
   12926:	0000                	unimp
   12928:	0020                	addi	s0,sp,8
   1292a:	0000                	unimp
   1292c:	012c                	addi	a1,sp,136
   1292e:	0000                	unimp
   12930:	dd90                	sw	a2,56(a1)
   12932:	ffff                	0xffff
   12934:	0348                	addi	a0,sp,388
   12936:	0000                	unimp
   12938:	7800                	flw	fs0,48(s0)
   1293a:	300e                	fld	ft0,224(sp)
   1293c:	814c                	0x814c
   1293e:	0301                	addi	t1,t1,0
   12940:	013c                	addi	a5,sp,136
   12942:	c10a                	sw	sp,128(sp)
   12944:	0e44                	addi	s1,sp,788
   12946:	4400                	lw	s0,8(s0)
   12948:	0000000b          	0xb
   1294c:	0010                	0x10
   1294e:	0000                	unimp
   12950:	0150                	addi	a2,sp,132
   12952:	0000                	unimp
   12954:	e0b4                	fsw	fa3,64(s1)
   12956:	ffff                	0xffff
   12958:	0014                	0x14
   1295a:	0000                	unimp
   1295c:	0000                	unimp
   1295e:	0000                	unimp
   12960:	0018                	0x18
   12962:	0000                	unimp
   12964:	0164                	addi	s1,sp,140
   12966:	0000                	unimp
   12968:	e0b4                	fsw	fa3,64(s1)
   1296a:	ffff                	0xffff
   1296c:	0024                	addi	s1,sp,8
   1296e:	0000                	unimp
   12970:	4800                	lw	s0,16(s0)
   12972:	100e                	c.slli	zero,0x23
   12974:	814c                	0x814c
   12976:	4801                	li	a6,0
   12978:	44c1                	li	s1,16
   1297a:	000e                	c.slli	zero,0x3
   1297c:	0010                	0x10
   1297e:	0000                	unimp
   12980:	0180                	addi	s0,sp,192
   12982:	0000                	unimp
   12984:	e0bc                	fsw	fa5,64(s1)
   12986:	ffff                	0xffff
   12988:	0034                	addi	a3,sp,8
   1298a:	0000                	unimp
   1298c:	0000                	unimp
   1298e:	0000                	unimp
   12990:	0010                	0x10
   12992:	0000                	unimp
   12994:	0194                	addi	a3,sp,192
   12996:	0000                	unimp
   12998:	e0dc                	fsw	fa5,4(s1)
   1299a:	ffff                	0xffff
   1299c:	011c                	addi	a5,sp,128
   1299e:	0000                	unimp
   129a0:	0000                	unimp
   129a2:	0000                	unimp
   129a4:	0010                	0x10
   129a6:	0000                	unimp
   129a8:	01a8                	addi	a0,sp,200
   129aa:	0000                	unimp
   129ac:	e1e4                	fsw	fs1,68(a1)
   129ae:	ffff                	0xffff
   129b0:	0090                	addi	a2,sp,64
   129b2:	0000                	unimp
   129b4:	0000                	unimp
   129b6:	0000                	unimp
   129b8:	0010                	0x10
   129ba:	0000                	unimp
   129bc:	01bc                	addi	a5,sp,200
   129be:	0000                	unimp
   129c0:	e260                	fsw	fs0,68(a2)
   129c2:	ffff                	0xffff
   129c4:	0430                	addi	a2,sp,520
   129c6:	0000                	unimp
   129c8:	0000                	unimp
	...

000129cc <__FRAME_END__>:
   129cc:	0000                	unimp
	...

Disassembly of section .init_array:

000129d0 <__init_array_start>:
   129d0:	0314                	addi	a3,sp,384
   129d2:	0001                	nop

000129d4 <__frame_dummy_init_array_entry>:
   129d4:	03bc                	addi	a5,sp,456
   129d6:	0001                	nop

Disassembly of section .fini_array:

000129d8 <__do_global_dtors_aux_fini_array_entry>:
   129d8:	0378                	addi	a4,sp,396
   129da:	0001                	nop

Disassembly of section .data:

000129e0 <IO_UARTRX>:
   129e0:	1000                	addi	s0,sp,32
   129e2:	8000                	0x8000

000129e4 <IO_UARTStatus>:
   129e4:	1008                	addi	a0,sp,32
   129e6:	8000                	0x8000

000129e8 <IO_UARTTX>:
   129e8:	1004                	addi	s1,sp,32
   129ea:	8000                	0x8000
   129ec:	0000                	unimp
	...

000129f0 <impure_data>:
   129f0:	0000                	unimp
   129f2:	0000                	unimp
   129f4:	2cdc                	fld	fa5,152(s1)
   129f6:	0001                	nop
   129f8:	2d44                	fld	fs1,152(a0)
   129fa:	0001                	nop
   129fc:	2dac                	fld	fa1,88(a1)
   129fe:	0001                	nop
	...
   12a98:	0001                	nop
   12a9a:	0000                	unimp
   12a9c:	0000                	unimp
   12a9e:	0000                	unimp
   12aa0:	330e                	fld	ft6,224(sp)
   12aa2:	abcd                	j	13094 <__BSS_END__+0x240>
   12aa4:	1234                	addi	a3,sp,296
   12aa6:	e66d                	bnez	a2,12b90 <impure_data+0x1a0>
   12aa8:	deec                	sw	a1,124(a3)
   12aaa:	0005                	c.nop	1
   12aac:	0000000b          	0xb
	...

Disassembly of section .got:

00012e18 <.got>:
   12e18:	ffff                	0xffff
   12e1a:	ffff                	0xffff
   12e1c:	0000                	unimp
	...

00012e20 <_GLOBAL_OFFSET_TABLE_>:
   12e20:	0000                	unimp
   12e22:	0000                	unimp
   12e24:	29e0                	fld	fs0,208(a1)
   12e26:	0001                	nop
   12e28:	29e8                	fld	fa0,208(a1)
   12e2a:	0001                	nop
   12e2c:	29e4                	fld	fs1,208(a1)
   12e2e:	0001                	nop

Disassembly of section .sdata:

00012e30 <_global_impure_ptr>:
   12e30:	29f0                	fld	fa2,208(a1)
   12e32:	0001                	nop

00012e34 <_impure_ptr>:
   12e34:	29f0                	fld	fa2,208(a1)
   12e36:	0001                	nop

Disassembly of section .bss:

00012e38 <completed.1>:
   12e38:	0000                	unimp
	...

00012e3c <object.0>:
	...

Disassembly of section .comment:

00000000 <.comment>:
   0:	3a434347          	fmsub.d	ft6,ft6,ft4,ft7,rmm
   4:	2820                	fld	fs0,80(s0)
   6:	29554e47          	fmsub.s	ft8,fa0,fs5,ft5,rmm
   a:	3120                	fld	fs0,96(a0)
   c:	2e31                	jal	328 <main-0xfd4c>
   e:	2e31                	jal	32a <main-0xfd4a>
  10:	0030                	addi	a2,sp,8

Disassembly of section .riscv.attributes:

00000000 <.riscv.attributes>:
   0:	2941                	jal	490 <main-0xfbe4>
   2:	0000                	unimp
   4:	7200                	flw	fs0,32(a2)
   6:	7369                	lui	t1,0xffffa
   8:	01007663          	bgeu	zero,a6,14 <main-0x10060>
   c:	001f 0000 1004      	0x10040000001f
  12:	7205                	lui	tp,0xfffe1
  14:	3376                	fld	ft6,376(sp)
  16:	6932                	flw	fs2,12(sp)
  18:	7032                	flw	ft0,44(sp)
  1a:	5f30                	lw	a2,120(a4)
  1c:	326d                	jal	fffff9c6 <__global_pointer$+0xfffec7e6>
  1e:	3070                	fld	fa2,224(s0)
  20:	665f 7032 0030      	0x307032665f
  26:	0108                	addi	a0,sp,128
  28:	0b0a                	slli	s6,s6,0x2

Disassembly of section .debug_aranges:

00000000 <.debug_aranges>:
   0:	001c                	0x1c
   2:	0000                	unimp
   4:	0002                	c.slli64	zero
   6:	0000                	unimp
   8:	0000                	unimp
   a:	0004                	0x4
   c:	0000                	unimp
   e:	0000                	unimp
  10:	0c20                	addi	s0,sp,536
  12:	0001                	nop
  14:	0430                	addi	a2,sp,520
	...
  1e:	0000                	unimp
  20:	0014                	0x14
  22:	0000                	unimp
  24:	0002                	c.slli64	zero
  26:	0761                	addi	a4,a4,24
  28:	0000                	unimp
  2a:	0004                	0x4
	...

Disassembly of section .debug_info:

00000000 <.debug_info>:
   0:	075d                	addi	a4,a4,23
   2:	0000                	unimp
   4:	0005                	c.nop	1
   6:	0401                	addi	s0,s0,0
   8:	0000                	unimp
   a:	0000                	unimp
   c:	2a11                	jal	120 <main-0xff54>
   e:	0000                	unimp
  10:	1d00                	addi	s0,sp,688
  12:	0000                	unimp
  14:	0000                	unimp
  16:	002c                	addi	a1,sp,8
  18:	0000                	unimp
  1a:	0c20                	addi	s0,sp,536
  1c:	0001                	nop
  1e:	0430                	addi	a2,sp,520
  20:	0000                	unimp
  22:	0000                	unimp
  24:	0000                	unimp
  26:	0804                	addi	s1,sp,16
  28:	00011b07          	0x11b07
  2c:	1200                	addi	s0,sp,288
  2e:	0504                	addi	s1,sp,640
  30:	6e69                	lui	t3,0x1a
  32:	0074                	addi	a3,sp,12
  34:	0404                	addi	s1,sp,512
  36:	00012507          	flw	fa0,0(sp)
  3a:	0400                	addi	s0,sp,512
  3c:	0508                	addi	a0,sp,640
  3e:	010d                	addi	sp,sp,3
  40:	0000                	unimp
  42:	1004                	addi	s1,sp,32
  44:	c204                	sw	s1,0(a2)
  46:	0001                	nop
  48:	0400                	addi	s0,sp,512
  4a:	0601                	addi	a2,a2,0
  4c:	00000143          	fmadd.s	ft2,ft0,ft0,ft0,rne
  50:	0104                	addi	s1,sp,128
  52:	4108                	lw	a0,0(a0)
  54:	0001                	nop
  56:	0400                	addi	s0,sp,512
  58:	0502                	c.slli64	a0
  5a:	0020                	addi	s0,sp,8
  5c:	0000                	unimp
  5e:	0204                	addi	s1,sp,256
  60:	00017407          	0x17407
  64:	0400                	addi	s0,sp,512
  66:	0504                	addi	s1,sp,640
  68:	0112                	slli	sp,sp,0x4
  6a:	0000                	unimp
  6c:	0404                	addi	s1,sp,512
  6e:	00012007          	flw	ft0,0(sp)
  72:	0400                	addi	s0,sp,512
  74:	0801                	addi	a6,a6,0
  76:	014a                	slli	sp,sp,0x12
  78:	0000                	unimp
  7a:	6306                	flw	ft6,64(sp)
  7c:	0001                	nop
  7e:	7b00                	flw	fs0,48(a4)
  80:	5016                	0x5016
  82:	0000                	unimp
  84:	0900                	addi	s0,sp,144
  86:	007a                	c.slli	zero,0x1e
  88:	0000                	unimp
  8a:	cf06                	sw	ra,156(sp)
  8c:	0001                	nop
  8e:	8000                	0x8000
  90:	00002d0f          	0x2d0f
  94:	0600                	addi	s0,sp,768
  96:	01ce                	slli	gp,gp,0x13
  98:	0000                	unimp
  9a:	1681                	addi	a3,a3,-32
  9c:	0034                	addi	a3,sp,8
  9e:	0000                	unimp
  a0:	8806                	mv	a6,ra
  a2:	0001                	nop
  a4:	8400                	0x8400
  a6:	00003b0f          	0x3b0f
  aa:	0600                	addi	s0,sp,768
  ac:	00000187          	0x187
  b0:	1685                	addi	a3,a3,-31
  b2:	0026                	c.slli	zero,0x9
  b4:	0000                	unimp
  b6:	0404                	addi	s1,sp,512
  b8:	1a04                	addi	s1,sp,304
  ba:	0000                	unimp
  bc:	0400                	addi	s0,sp,512
  be:	0308                	addi	a0,sp,384
  c0:	0012                	c.slli	zero,0x4
  c2:	0000                	unimp
  c4:	0804                	addi	s1,sp,16
  c6:	c704                	sw	s1,8(a4)
  c8:	0001                	nop
  ca:	0400                	addi	s0,sp,512
  cc:	0310                	addi	a2,sp,384
  ce:	0199                	addi	gp,gp,6
  d0:	0000                	unimp
  d2:	2004                	fld	fs1,0(s0)
  d4:	0001ba03          	0x1ba03
  d8:	1300                	addi	s0,sp,416
  da:	0000016b          	0x16b
  de:	0208                	addi	a0,sp,256
  e0:	01ed                	addi	gp,gp,27
  e2:	040a                	slli	s0,s0,0x2
  e4:	0001                	nop
  e6:	1400                	addi	s0,sp,544
  e8:	6f6c                	flw	fa1,92(a4)
  ea:	ed020077          	0xed020077
  ee:	1a01                	addi	s4,s4,-32
  f0:	008a                	slli	ra,ra,0x2
  f2:	0000                	unimp
  f4:	1500                	addi	s0,sp,672
  f6:	0132                	slli	sp,sp,0xc
  f8:	0000                	unimp
  fa:	ed02                	fsw	ft0,152(sp)
  fc:	1f01                	addi	t5,t5,-32
  fe:	008a                	slli	ra,ra,0x2
 100:	0000                	unimp
 102:	0004                	0x4
 104:	0816                	slli	a6,a6,0x5
 106:	f402                	fsw	ft0,40(sp)
 108:	0901                	addi	s2,s2,0
 10a:	0124                	addi	s1,sp,136
 10c:	0000                	unimp
 10e:	730c                	flw	fa1,32(a4)
 110:	f600                	fsw	fs0,40(a2)
 112:	1301                	addi	t1,t1,-32
 114:	00d9                	addi	ra,ra,22
 116:	0000                	unimp
 118:	6c0c                	flw	fa1,24(s0)
 11a:	006c                	addi	a1,sp,12
 11c:	a00a01f7          	0xa00a01f7
 120:	0000                	unimp
 122:	0000                	unimp
 124:	00000017          	auipc	zero,0x0
 128:	0200                	addi	s0,sp,256
 12a:	01f8                	addi	a4,sp,204
 12c:	00010403          	lb	s0,0(sp)
 130:	0900                	addi	s0,sp,144
 132:	0124                	addi	s1,sp,136
 134:	0000                	unimp
 136:	8518                	0x8518
 138:	0000                	unimp
 13a:	4600                	lw	s0,8(a2)
 13c:	0001                	nop
 13e:	1900                	addi	s0,sp,176
 140:	0034                	addi	a3,sp,8
 142:	0000                	unimp
 144:	00ff                	0xff
 146:	3609                	jal	fffffc48 <__global_pointer$+0xfffeca68>
 148:	0001                	nop
 14a:	1a00                	addi	s0,sp,304
 14c:	00000137          	lui	sp,0x0
 150:	0202                	c.slli64	tp
 152:	1602                	slli	a2,a2,0x20
 154:	0146                	slli	sp,sp,0x11
 156:	0000                	unimp
 158:	0000081b          	0x81b
 15c:	0100                	addi	s0,sp,128
 15e:	0512                	slli	a0,a0,0x4
 160:	ab01                	j	670 <main-0xfa04>
 162:	0000                	unimp
 164:	2000                	fld	fs0,0(s0)
 166:	010c                	addi	a1,sp,128
 168:	3000                	fld	fs0,32(s0)
 16a:	0004                	0x4
 16c:	0100                	addi	s0,sp,128
 16e:	2e9c                	fld	fa5,24(a3)
 170:	0004                	0x4
 172:	0d00                	addi	s0,sp,656
 174:	006e                	c.slli	zero,0x1b
 176:	ab14                	fsd	fa3,16(a4)
 178:	0000                	unimp
 17a:	0c00                	addi	s0,sp,528
 17c:	0000                	unimp
 17e:	0d00                	addi	s0,sp,656
 180:	0064                	addi	s1,sp,12
 182:	ab1f 0000 ed00      	0xed000000ab1f
 188:	0000                	unimp
 18a:	1c00                	addi	s0,sp,560
 18c:	042e                	slli	s0,s0,0xb
 18e:	0000                	unimp
 190:	0c20                	addi	s0,sp,536
 192:	0001                	nop
 194:	000c                	0xc
 196:	0000                	unimp
 198:	1401                	addi	s0,s0,-32
 19a:	0a05                	addi	s4,s4,1
 19c:	500a                	0x500a
 19e:	0004                	0x4
 1a0:	7e00                	flw	fs0,56(a2)
 1a2:	0001                	nop
 1a4:	0a00                	addi	s0,sp,272
 1a6:	0448                	addi	a0,sp,516
 1a8:	0000                	unimp
 1aa:	00000197          	auipc	gp,0x0
 1ae:	400a                	0x400a
 1b0:	0004                	0x4
 1b2:	e800                	fsw	fs0,16(s0)
 1b4:	0001                	nop
 1b6:	1d00                	addi	s0,sp,688
 1b8:	0028                	addi	a0,sp,8
 1ba:	0000                	unimp
 1bc:	5908                	lw	a0,48(a0)
 1be:	0004                	0x4
 1c0:	0800                	addi	s0,sp,16
 1c2:	0464                	addi	s1,sp,524
 1c4:	0000                	unimp
 1c6:	6f08                	flw	fa0,24(a4)
 1c8:	0004                	0x4
 1ca:	0100                	addi	s0,sp,128
 1cc:	047a                	slli	s0,s0,0x1e
 1ce:	0000                	unimp
 1d0:	02b9                	addi	t0,t0,14
 1d2:	0000                	unimp
 1d4:	8501                	c.srai64	a0
 1d6:	0004                	0x4
 1d8:	3800                	fld	fs0,48(s0)
 1da:	01000003          	lb	zero,16(zero) # 10 <main-0x10064>
 1de:	0490                	addi	a2,sp,576
 1e0:	0000                	unimp
 1e2:	0000037b          	0x37b
 1e6:	9b01                	andi	a4,a4,-32
 1e8:	0004                	0x4
 1ea:	ef00                	fsw	fs0,24(a4)
 1ec:	01000003          	lb	zero,16(zero) # 10 <main-0x10064>
 1f0:	04a6                	slli	s1,s1,0x9
 1f2:	0000                	unimp
 1f4:	04b6                	slli	s1,s1,0xd
 1f6:	0000                	unimp
 1f8:	b101                	j	fffffdf8 <__global_pointer$+0xfffecc18>
 1fa:	0004                	0x4
 1fc:	cd00                	sw	s0,24(a0)
 1fe:	0004                	0x4
 200:	0100                	addi	s0,sp,128
 202:	04bc                	addi	a5,sp,584
 204:	0000                	unimp
 206:	000004ef          	jal	s1,206 <main-0xfe6e>
 20a:	c701                	beqz	a4,212 <main-0xfe62>
 20c:	0004                	0x4
 20e:	1200                	addi	s0,sp,288
 210:	0005                	c.nop	1
 212:	0100                	addi	s0,sp,128
 214:	04d1                	addi	s1,s1,20
 216:	0000                	unimp
 218:	0529                	addi	a0,a0,10
 21a:	0000                	unimp
 21c:	dc08                	sw	a0,56(s0)
 21e:	0004                	0x4
 220:	0700                	addi	s0,sp,896
 222:	000004e7          	jalr	s1,zero # 0 <main-0x10074>
 226:	004d                	c.nop	19
 228:	0000                	unimp
 22a:	0241                	addi	tp,tp,16
 22c:	0000                	unimp
 22e:	ec01                	bnez	s0,246 <main-0xfe2e>
 230:	0004                	0x4
 232:	6100                	flw	fs0,0(a0)
 234:	0005                	c.nop	1
 236:	0100                	addi	s0,sp,128
 238:	04f8                	addi	a4,sp,588
 23a:	0000                	unimp
 23c:	0596                	slli	a1,a1,0x5
 23e:	0000                	unimp
 240:	0e00                	addi	s0,sp,784
 242:	0505                	addi	a0,a0,1
 244:	0000                	unimp
 246:	0c88                	addi	a0,sp,592
 248:	0001                	nop
 24a:	0088                	addi	a0,sp,64
 24c:	0000                	unimp
 24e:	0292                	slli	t0,t0,0x4
 250:	0000                	unimp
 252:	0a01                	addi	s4,s4,0
 254:	0005                	c.nop	1
 256:	a200                	fsd	fs0,0(a2)
 258:	0005                	c.nop	1
 25a:	0100                	addi	s0,sp,128
 25c:	0516                	slli	a0,a0,0x5
 25e:	0000                	unimp
 260:	05ae                	slli	a1,a1,0xb
 262:	0000                	unimp
 264:	2201                	jal	364 <main-0xfd10>
 266:	0005                	c.nop	1
 268:	ba00                	fsd	fs0,48(a2)
 26a:	0005                	c.nop	1
 26c:	0100                	addi	s0,sp,128
 26e:	052e                	slli	a0,a0,0xb
 270:	0000                	unimp
 272:	05d1                	addi	a1,a1,20
 274:	0000                	unimp
 276:	3a01                	jal	fffffb86 <__global_pointer$+0xfffec9a6>
 278:	0005                	c.nop	1
 27a:	e800                	fsw	fs0,16(s0)
 27c:	0005                	c.nop	1
 27e:	0100                	addi	s0,sp,128
 280:	0546                	slli	a0,a0,0x11
 282:	0000                	unimp
 284:	062c                	addi	a1,sp,776
 286:	0000                	unimp
 288:	5201                	li	tp,-32
 28a:	0005                	c.nop	1
 28c:	5300                	lw	s0,32(a4)
 28e:	0006                	c.slli	zero,0x1
 290:	0000                	unimp
 292:	00066107          	0x66107
 296:	6000                	flw	fs0,0(s0)
 298:	0000                	unimp
 29a:	5100                	lw	s0,32(a0)
 29c:	01000003          	lb	zero,16(zero) # 10 <main-0x10064>
 2a0:	0662                	slli	a2,a2,0x18
 2a2:	0000                	unimp
 2a4:	067a                	slli	a2,a2,0x1e
 2a6:	0000                	unimp
 2a8:	6d01                	0x6d01
 2aa:	0006                	c.slli	zero,0x1
 2ac:	8600                	0x8600
 2ae:	0006                	c.slli	zero,0x1
 2b0:	0700                	addi	s0,sp,896
 2b2:	0678                	addi	a4,sp,780
 2b4:	0000                	unimp
 2b6:	00000073          	ecall
 2ba:	02fe                	slli	t0,t0,0x1f
 2bc:	0000                	unimp
 2be:	7d01                	lui	s10,0xfffe0
 2c0:	0006                	c.slli	zero,0x1
 2c2:	c000                	sw	s0,0(s0)
 2c4:	0006                	c.slli	zero,0x1
 2c6:	0100                	addi	s0,sp,128
 2c8:	0689                	addi	a3,a3,2
 2ca:	0000                	unimp
 2cc:	06cc                	addi	a1,sp,836
 2ce:	0000                	unimp
 2d0:	9501                	srai	a0,a0,0x20
 2d2:	0006                	c.slli	zero,0x1
 2d4:	e900                	fsw	fs0,16(a0)
 2d6:	0006                	c.slli	zero,0x1
 2d8:	0100                	addi	s0,sp,128
 2da:	06a1                	addi	a3,a3,8
 2dc:	0000                	unimp
 2de:	0700                	addi	s0,sp,896
 2e0:	0000                	unimp
 2e2:	ad01                	j	8f2 <main-0xf782>
 2e4:	0006                	c.slli	zero,0x1
 2e6:	1700                	addi	s0,sp,928
 2e8:	01000007          	0x1000007
 2ec:	06b9                	addi	a3,a3,14
 2ee:	0000                	unimp
 2f0:	0749                	addi	a4,a4,18
 2f2:	0000                	unimp
 2f4:	c501                	beqz	a0,2fc <main-0xfd78>
 2f6:	0006                	c.slli	zero,0x1
 2f8:	7b00                	flw	fs0,48(a4)
 2fa:	00000007          	0x7
 2fe:	0006d20f          	0x6d20f
 302:	9800                	0x9800
 304:	0000                	unimp
 306:	0100                	addi	s0,sp,128
 308:	000006d7          	0x6d7
 30c:	07a2                	slli	a5,a5,0x8
 30e:	0000                	unimp
 310:	e301                	bnez	a4,310 <main-0xfd64>
 312:	0006                	c.slli	zero,0x1
 314:	ae00                	fsd	fs0,24(a2)
 316:	01000007          	0x1000007
 31a:	000006ef          	jal	a3,31a <main-0xfd5a>
 31e:	000007e7          	jalr	a5,zero # 0 <main-0x10074>
 322:	fb01                	bnez	a4,232 <main-0xfe42>
 324:	0006                	c.slli	zero,0x1
 326:	f300                	fsw	fs0,32(a4)
 328:	01000007          	0x1000007
 32c:	00000707          	0x707
 330:	07ff                	0x7ff
 332:	0000                	unimp
 334:	1301                	addi	t1,t1,-32
 336:	4b000007          	0x4b000007
 33a:	0008                	0x8
 33c:	0100                	addi	s0,sp,128
 33e:	071f 0000 0857      	0x8570000071f
 344:	0000                	unimp
 346:	2b01                	jal	856 <main-0xf81e>
 348:	81000007          	0x81000007
 34c:	0008                	0x8
 34e:	0000                	unimp
 350:	0700                	addi	s0,sp,896
 352:	055f 0000 00c6      	0xc60000055f
 358:	0000                	unimp
 35a:	0371                	addi	t1,t1,28
 35c:	0000                	unimp
 35e:	6401                	0x6401
 360:	0005                	c.nop	1
 362:	8d00                	0x8d00
 364:	0008                	0x8
 366:	0100                	addi	s0,sp,128
 368:	0570                	addi	a2,sp,652
 36a:	0000                	unimp
 36c:	08cd                	addi	a7,a7,19
 36e:	0000                	unimp
 370:	0e00                	addi	s0,sp,784
 372:	000005d7          	0x5d7
 376:	0d6c                	addi	a1,sp,668
 378:	0001                	nop
 37a:	008c                	addi	a1,sp,64
 37c:	0000                	unimp
 37e:	03c2                	slli	t2,t2,0x10
 380:	0000                	unimp
 382:	dc01                	beqz	s0,29a <main-0xfdda>
 384:	0005                	c.nop	1
 386:	d900                	sw	s0,48(a0)
 388:	0008                	0x8
 38a:	0100                	addi	s0,sp,128
 38c:	05e8                	addi	a0,sp,716
 38e:	0000                	unimp
 390:	08e5                	addi	a7,a7,25
 392:	0000                	unimp
 394:	f401                	bnez	s0,29c <main-0xfdd8>
 396:	0005                	c.nop	1
 398:	f100                	fsw	fs0,32(a0)
 39a:	0008                	0x8
 39c:	0100                	addi	s0,sp,128
 39e:	0600                	addi	s0,sp,768
 3a0:	0000                	unimp
 3a2:	0908                	addi	a0,sp,144
 3a4:	0000                	unimp
 3a6:	0c01                	addi	s8,s8,0
 3a8:	0006                	c.slli	zero,0x1
 3aa:	1f00                	addi	s0,sp,944
 3ac:	0009                	c.nop	2
 3ae:	0100                	addi	s0,sp,128
 3b0:	0618                	addi	a4,sp,768
 3b2:	0000                	unimp
 3b4:	0951                	addi	s2,s2,20
 3b6:	0000                	unimp
 3b8:	2401                	jal	5b8 <main-0xfabc>
 3ba:	0006                	c.slli	zero,0x1
 3bc:	7800                	flw	fs0,48(s0)
 3be:	0009                	c.nop	2
 3c0:	0000                	unimp
 3c2:	00057d07          	0x57d07
 3c6:	d900                	sw	s0,48(a0)
 3c8:	0000                	unimp
 3ca:	0f00                	addi	s0,sp,912
 3cc:	0004                	0x4
 3ce:	0100                	addi	s0,sp,128
 3d0:	0582                	c.slli64	a1
 3d2:	0000                	unimp
 3d4:	099f 0000 8e01      	0x8e010000099f
 3da:	0005                	c.nop	1
 3dc:	ab00                	fsd	fs0,16(a4)
 3de:	0009                	c.nop	2
 3e0:	0100                	addi	s0,sp,128
 3e2:	059a                	slli	a1,a1,0x6
 3e4:	0000                	unimp
 3e6:	09c8                	addi	a0,sp,212
 3e8:	0000                	unimp
 3ea:	a601                	j	6ea <main-0xf98a>
 3ec:	0005                	c.nop	1
 3ee:	df00                	sw	s0,56(a4)
 3f0:	0009                	c.nop	2
 3f2:	0100                	addi	s0,sp,128
 3f4:	05b2                	slli	a1,a1,0xc
 3f6:	0000                	unimp
 3f8:	09f6                	slli	s3,s3,0x1d
 3fa:	0000                	unimp
 3fc:	be01                	j	ffffff0c <__global_pointer$+0xfffecd2c>
 3fe:	0005                	c.nop	1
 400:	2800                	fld	fs0,16(s0)
 402:	000a                	c.slli	zero,0x2
 404:	0100                	addi	s0,sp,128
 406:	05ca                	slli	a1,a1,0x12
 408:	0000                	unimp
 40a:	0a5a                	slli	s4,s4,0x16
 40c:	0000                	unimp
 40e:	0f00                	addi	s0,sp,912
 410:	0631                	addi	a2,a2,12
 412:	0000                	unimp
 414:	00fe                	slli	ra,ra,0x1f
 416:	0000                	unimp
 418:	3601                	jal	ffffff18 <__global_pointer$+0xfffecd38>
 41a:	0006                	c.slli	zero,0x1
 41c:	8100                	0x8100
 41e:	000a                	c.slli	zero,0x2
 420:	0100                	addi	s0,sp,128
 422:	0642                	slli	a2,a2,0x10
 424:	0000                	unimp
 426:	0a8d                	addi	s5,s5,3
 428:	0000                	unimp
 42a:	0000                	unimp
 42c:	0000                	unimp
 42e:	ad1e                	fsd	ft7,152(sp)
 430:	0001                	nop
 432:	0100                	addi	s0,sp,128
 434:	ab0103e3          	beq	sp,a6,fffffeda <__global_pointer$+0xfffeccfa>
 438:	0000                	unimp
 43a:	0300                	addi	s0,sp,384
 43c:	075a                	slli	a4,a4,0x16
 43e:	0000                	unimp
 440:	17006e0b          	0x17006e0b
 444:	000000ab          	0xab
 448:	2200640b          	0x2200640b
 44c:	000000ab          	0xab
 450:	0070720b          	0x70720b
 454:	5a2e                	lw	s4,232(sp)
 456:	03000007          	0x3000007
 45a:	6e6e                	flw	ft8,216(sp)
 45c:	e500                	fsw	fs0,8(a0)
 45e:	01311103          	lh	sp,19(sp) # 13 <main-0x10061>
 462:	0000                	unimp
 464:	00646403          	0x646403
 468:	03e6                	slli	t2,t2,0x19
 46a:	3111                	jal	6e <main-0x10006>
 46c:	0001                	nop
 46e:	0300                	addi	s0,sp,384
 470:	7272                	flw	ft4,60(sp)
 472:	e700                	fsw	fs0,8(a4)
 474:	01240b03          	lb	s6,18(s0) # 18012 <__global_pointer$+0x4e32>
 478:	0000                	unimp
 47a:	00306403          	0x306403
 47e:	03e8                	addi	a0,sp,460
 480:	950a                	add	a0,a0,sp
 482:	0000                	unimp
 484:	0300                	addi	s0,sp,384
 486:	3164                	fld	fs1,224(a0)
 488:	e800                	fsw	fs0,16(s0)
 48a:	00950e03          	lb	t3,9(a0) # 13009 <__BSS_END__+0x1b5>
 48e:	0000                	unimp
 490:	00306e03          	0x306e03
 494:	03e8                	addi	a0,sp,460
 496:	9512                	add	a0,a0,tp
 498:	0000                	unimp
 49a:	0300                	addi	s0,sp,384
 49c:	316e                	fld	ft2,248(sp)
 49e:	e800                	fsw	fs0,16(s0)
 4a0:	00951603          	lh	a2,9(a0)
 4a4:	0000                	unimp
 4a6:	00326e03          	0x326e03
 4aa:	03e8                	addi	a0,sp,460
 4ac:	951a                	add	a0,a0,t1
 4ae:	0000                	unimp
 4b0:	0300                	addi	s0,sp,384
 4b2:	3071                	jal	fffffd3e <__global_pointer$+0xfffecb5e>
 4b4:	e900                	fsw	fs0,16(a0)
 4b6:	00950a03          	lb	s4,9(a0)
 4ba:	0000                	unimp
 4bc:	00317103          	0x317103
 4c0:	03e9                	addi	t2,t2,26
 4c2:	950e                	add	a0,a0,gp
 4c4:	0000                	unimp
 4c6:	0300                	addi	s0,sp,384
 4c8:	0062                	c.slli	zero,0x18
 4ca:	03ea                	slli	t2,t2,0x1a
 4cc:	950a                	add	a0,a0,sp
 4ce:	0000                	unimp
 4d0:	0300                	addi	s0,sp,384
 4d2:	6d62                	flw	fs10,24(sp)
 4d4:	ea00                	fsw	fs0,16(a2)
 4d6:	00950d03          	lb	s10,9(a0)
 4da:	0000                	unimp
 4dc:	00777703          	0x777703
 4e0:	311104b3          	0x311104b3
 4e4:	0001                	nop
 4e6:	0500                	addi	s0,sp,640
 4e8:	0505                	addi	a0,a0,1
 4ea:	0000                	unimp
 4ec:	a802                	fsd	ft0,16(sp)
 4ee:	0001                	nop
 4f0:	1a00                	addi	s0,sp,304
 4f2:	0404                	addi	s1,sp,512
 4f4:	0095                	addi	ra,ra,5
 4f6:	0000                	unimp
 4f8:	615f5f03          	lhu	t5,1557(t5) # 1b615 <__global_pointer$+0x8435>
 4fc:	1a00                	addi	s0,sp,304
 4fe:	0404                	addi	s1,sp,512
 500:	0095                	addi	ra,ra,5
 502:	0000                	unimp
 504:	0500                	addi	s0,sp,640
 506:	055f 0000 fe02      	0xfe020000055f
 50c:	0000                	unimp
 50e:	2600                	fld	fs0,8(a2)
 510:	0404                	addi	s1,sp,512
 512:	0095                	addi	ra,ra,5
 514:	0000                	unimp
 516:	f902                	fsw	ft0,176(sp)
 518:	0000                	unimp
 51a:	2600                	fld	fs0,8(a2)
 51c:	0404                	addi	s1,sp,512
 51e:	0095                	addi	ra,ra,5
 520:	0000                	unimp
 522:	9402                	jalr	s0
 524:	0001                	nop
 526:	2600                	fld	fs0,8(a2)
 528:	0404                	addi	s1,sp,512
 52a:	0095                	addi	ra,ra,5
 52c:	0000                	unimp
 52e:	8f02                	jr	t5
 530:	0001                	nop
 532:	2600                	fld	fs0,8(a2)
 534:	0404                	addi	s1,sp,512
 536:	0095                	addi	ra,ra,5
 538:	0000                	unimp
 53a:	db02                	sw	zero,180(sp)
 53c:	0001                	nop
 53e:	2600                	fld	fs0,8(a2)
 540:	0404                	addi	s1,sp,512
 542:	0095                	addi	ra,ra,5
 544:	0000                	unimp
 546:	d602                	sw	zero,44(sp)
 548:	0001                	nop
 54a:	2600                	fld	fs0,8(a2)
 54c:	0404                	addi	s1,sp,512
 54e:	0095                	addi	ra,ra,5
 550:	0000                	unimp
 552:	6d5f5f03          	lhu	t5,1749(t5)
 556:	2600                	fld	fs0,8(a2)
 558:	0404                	addi	s1,sp,512
 55a:	0095                	addi	ra,ra,5
 55c:	0000                	unimp
 55e:	0500                	addi	s0,sp,640
 560:	057d                	addi	a0,a0,31
 562:	0000                	unimp
 564:	a802                	fsd	ft0,16(sp)
 566:	0001                	nop
 568:	3200                	fld	fs0,32(a2)
 56a:	0404                	addi	s1,sp,512
 56c:	0095                	addi	ra,ra,5
 56e:	0000                	unimp
 570:	615f5f03          	lhu	t5,1557(t5)
 574:	3200                	fld	fs0,32(a2)
 576:	0404                	addi	s1,sp,512
 578:	0095                	addi	ra,ra,5
 57a:	0000                	unimp
 57c:	0500                	addi	s0,sp,640
 57e:	000005d7          	0x5d7
 582:	fe02                	fsw	ft0,60(sp)
 584:	0000                	unimp
 586:	4b00                	lw	s0,16(a4)
 588:	0804                	addi	s1,sp,16
 58a:	0095                	addi	ra,ra,5
 58c:	0000                	unimp
 58e:	f902                	fsw	ft0,176(sp)
 590:	0000                	unimp
 592:	4b00                	lw	s0,16(a4)
 594:	0804                	addi	s1,sp,16
 596:	0095                	addi	ra,ra,5
 598:	0000                	unimp
 59a:	9402                	jalr	s0
 59c:	0001                	nop
 59e:	4b00                	lw	s0,16(a4)
 5a0:	0804                	addi	s1,sp,16
 5a2:	0095                	addi	ra,ra,5
 5a4:	0000                	unimp
 5a6:	8f02                	jr	t5
 5a8:	0001                	nop
 5aa:	4b00                	lw	s0,16(a4)
 5ac:	0804                	addi	s1,sp,16
 5ae:	0095                	addi	ra,ra,5
 5b0:	0000                	unimp
 5b2:	db02                	sw	zero,180(sp)
 5b4:	0001                	nop
 5b6:	4b00                	lw	s0,16(a4)
 5b8:	0804                	addi	s1,sp,16
 5ba:	0095                	addi	ra,ra,5
 5bc:	0000                	unimp
 5be:	d602                	sw	zero,44(sp)
 5c0:	0001                	nop
 5c2:	4b00                	lw	s0,16(a4)
 5c4:	0804                	addi	s1,sp,16
 5c6:	0095                	addi	ra,ra,5
 5c8:	0000                	unimp
 5ca:	6d5f5f03          	lhu	t5,1749(t5)
 5ce:	4b00                	lw	s0,16(a4)
 5d0:	0804                	addi	s1,sp,16
 5d2:	0095                	addi	ra,ra,5
 5d4:	0000                	unimp
 5d6:	0500                	addi	s0,sp,640
 5d8:	0631                	addi	a2,a2,12
 5da:	0000                	unimp
 5dc:	fe02                	fsw	ft0,60(sp)
 5de:	0000                	unimp
 5e0:	5000                	lw	s0,32(s0)
 5e2:	0404                	addi	s1,sp,512
 5e4:	0095                	addi	ra,ra,5
 5e6:	0000                	unimp
 5e8:	f902                	fsw	ft0,176(sp)
 5ea:	0000                	unimp
 5ec:	5000                	lw	s0,32(s0)
 5ee:	0404                	addi	s1,sp,512
 5f0:	0095                	addi	ra,ra,5
 5f2:	0000                	unimp
 5f4:	9402                	jalr	s0
 5f6:	0001                	nop
 5f8:	5000                	lw	s0,32(s0)
 5fa:	0404                	addi	s1,sp,512
 5fc:	0095                	addi	ra,ra,5
 5fe:	0000                	unimp
 600:	8f02                	jr	t5
 602:	0001                	nop
 604:	5000                	lw	s0,32(s0)
 606:	0404                	addi	s1,sp,512
 608:	0095                	addi	ra,ra,5
 60a:	0000                	unimp
 60c:	db02                	sw	zero,180(sp)
 60e:	0001                	nop
 610:	5000                	lw	s0,32(s0)
 612:	0404                	addi	s1,sp,512
 614:	0095                	addi	ra,ra,5
 616:	0000                	unimp
 618:	d602                	sw	zero,44(sp)
 61a:	0001                	nop
 61c:	5000                	lw	s0,32(s0)
 61e:	0404                	addi	s1,sp,512
 620:	0095                	addi	ra,ra,5
 622:	0000                	unimp
 624:	6d5f5f03          	lhu	t5,1749(t5)
 628:	5000                	lw	s0,32(s0)
 62a:	0404                	addi	s1,sp,512
 62c:	0095                	addi	ra,ra,5
 62e:	0000                	unimp
 630:	0500                	addi	s0,sp,640
 632:	0000064f          	fnmadd.s	fa2,ft0,ft0,ft0,rne
 636:	a802                	fsd	ft0,16(sp)
 638:	0001                	nop
 63a:	7300                	flw	fs0,32(a4)
 63c:	0404                	addi	s1,sp,512
 63e:	0095                	addi	ra,ra,5
 640:	0000                	unimp
 642:	615f5f03          	lhu	t5,1557(t5)
 646:	7300                	flw	fs0,32(a4)
 648:	0404                	addi	s1,sp,512
 64a:	0095                	addi	ra,ra,5
 64c:	0000                	unimp
 64e:	0500                	addi	s0,sp,640
 650:	0661                	addi	a2,a2,24
 652:	0000                	unimp
 654:	785f5f03          	lhu	t5,1925(t5)
 658:	8100                	0x8100
 65a:	0504                	addi	s1,sp,640
 65c:	0095                	addi	ra,ra,5
 65e:	0000                	unimp
 660:	1000                	addi	s0,sp,32
 662:	00316d03          	0x316d03
 666:	0491                	addi	s1,s1,4
 668:	0000950f          	0x950f
 66c:	0300                	addi	s0,sp,384
 66e:	306d                	jal	ffffff18 <__global_pointer$+0xfffecd38>
 670:	9100                	0x9100
 672:	1304                	addi	s1,sp,416
 674:	0095                	addi	ra,ra,5
 676:	0000                	unimp
 678:	d205                	beqz	a2,598 <main-0xfadc>
 67a:	0006                	c.slli	zero,0x1
 67c:	0200                	addi	s0,sp,256
 67e:	00fe                	slli	ra,ra,0x1f
 680:	0000                	unimp
 682:	049c                	addi	a5,sp,576
 684:	9508                	0x9508
 686:	0000                	unimp
 688:	0200                	addi	s0,sp,256
 68a:	00f9                	addi	ra,ra,30
 68c:	0000                	unimp
 68e:	049c                	addi	a5,sp,576
 690:	9508                	0x9508
 692:	0000                	unimp
 694:	0200                	addi	s0,sp,256
 696:	0194                	addi	a3,sp,192
 698:	0000                	unimp
 69a:	049c                	addi	a5,sp,576
 69c:	9508                	0x9508
 69e:	0000                	unimp
 6a0:	0200                	addi	s0,sp,256
 6a2:	0000018f          	0x18f
 6a6:	049c                	addi	a5,sp,576
 6a8:	9508                	0x9508
 6aa:	0000                	unimp
 6ac:	0200                	addi	s0,sp,256
 6ae:	000001db          	0x1db
 6b2:	049c                	addi	a5,sp,576
 6b4:	9508                	0x9508
 6b6:	0000                	unimp
 6b8:	0200                	addi	s0,sp,256
 6ba:	01d6                	slli	gp,gp,0x15
 6bc:	0000                	unimp
 6be:	049c                	addi	a5,sp,576
 6c0:	9508                	0x9508
 6c2:	0000                	unimp
 6c4:	0300                	addi	s0,sp,384
 6c6:	5f5f 006d 049c      	0x49c006d5f5f
 6cc:	9508                	0x9508
 6ce:	0000                	unimp
 6d0:	0000                	unimp
 6d2:	3805                	jal	ffffff02 <__global_pointer$+0xfffecd22>
 6d4:	02000007          	0x2000007
 6d8:	0000014f          	fnmadd.s	ft2,ft0,ft0,ft0,rne
 6dc:	049d                	addi	s1,s1,7
 6de:	9508                	0x9508
 6e0:	0000                	unimp
 6e2:	0200                	addi	s0,sp,256
 6e4:	0154                	addi	a3,sp,132
 6e6:	0000                	unimp
 6e8:	049d                	addi	s1,s1,7
 6ea:	9508                	0x9508
 6ec:	0000                	unimp
 6ee:	0200                	addi	s0,sp,256
 6f0:	0159                	addi	sp,sp,22
 6f2:	0000                	unimp
 6f4:	049d                	addi	s1,s1,7
 6f6:	9508                	0x9508
 6f8:	0000                	unimp
 6fa:	0200                	addi	s0,sp,256
 6fc:	015e                	slli	sp,sp,0x17
 6fe:	0000                	unimp
 700:	049d                	addi	s1,s1,7
 702:	9508                	0x9508
 704:	0000                	unimp
 706:	0200                	addi	s0,sp,256
 708:	01e5                	addi	gp,gp,25
 70a:	0000                	unimp
 70c:	049d                	addi	s1,s1,7
 70e:	9508                	0x9508
 710:	0000                	unimp
 712:	0200                	addi	s0,sp,256
 714:	0108                	addi	a0,sp,128
 716:	0000                	unimp
 718:	049d                	addi	s1,s1,7
 71a:	9508                	0x9508
 71c:	0000                	unimp
 71e:	0200                	addi	s0,sp,256
 720:	01e0                	addi	s0,sp,204
 722:	0000                	unimp
 724:	049d                	addi	s1,s1,7
 726:	9508                	0x9508
 728:	0000                	unimp
 72a:	0200                	addi	s0,sp,256
 72c:	00000103          	lb	sp,0(zero) # 0 <main-0x10074>
 730:	049d                	addi	s1,s1,7
 732:	9508                	0x9508
 734:	0000                	unimp
 736:	0000                	unimp
 738:	4a05                	li	s4,1
 73a:	03000007          	0x3000007
 73e:	5f5f 0078 04a2      	0x4a200785f5f
 744:	9505                	srai	a0,a0,0x21
 746:	0000                	unimp
 748:	0000                	unimp
 74a:	0310                	addi	a2,sp,384
 74c:	5f5f 0078 04aa      	0x4aa00785f5f
 752:	9505                	srai	a0,a0,0x21
 754:	0000                	unimp
 756:	0000                	unimp
 758:	0000                	unimp
 75a:	041f 00ab 0000      	0xab041f
 760:	d400                	sw	s0,40(s0)
 762:	0000                	unimp
 764:	0500                	addi	s0,sp,640
 766:	0100                	addi	s0,sp,128
 768:	a604                	fsd	fs1,8(a2)
 76a:	0001                	nop
 76c:	0300                	addi	s0,sp,384
 76e:	01ea                	slli	gp,gp,0x1a
 770:	0000                	unimp
 772:	001d                	c.nop	7
 774:	0000                	unimp
 776:	2c00                	fld	fs0,24(s0)
 778:	0000                	unimp
 77a:	2700                	fld	fs0,8(a4)
 77c:	04000007          	0x4000007
 780:	0504                	addi	s1,sp,640
 782:	6e69                	lui	t3,0x1a
 784:	0074                	addi	a3,sp,12
 786:	0401                	addi	s0,s0,0
 788:	00012507          	flw	fa0,0(sp)
 78c:	0100                	addi	s0,sp,128
 78e:	0508                	addi	a0,sp,640
 790:	010d                	addi	sp,sp,3
 792:	0000                	unimp
 794:	1001                	c.nop	-32
 796:	c204                	sw	s1,0(a2)
 798:	0001                	nop
 79a:	0100                	addi	s0,sp,128
 79c:	0601                	addi	a2,a2,0
 79e:	00000143          	fmadd.s	ft2,ft0,ft0,ft0,rne
 7a2:	0101                	addi	sp,sp,0
 7a4:	4108                	lw	a0,0(a0)
 7a6:	0001                	nop
 7a8:	0100                	addi	s0,sp,128
 7aa:	0502                	c.slli64	a0
 7ac:	0020                	addi	s0,sp,8
 7ae:	0000                	unimp
 7b0:	0201                	addi	tp,tp,0
 7b2:	00017407          	0x17407
 7b6:	0100                	addi	s0,sp,128
 7b8:	0504                	addi	s1,sp,640
 7ba:	0112                	slli	sp,sp,0x4
 7bc:	0000                	unimp
 7be:	0401                	addi	s0,s0,0
 7c0:	00012007          	flw	ft0,0(sp)
 7c4:	0100                	addi	s0,sp,128
 7c6:	0708                	addi	a0,sp,896
 7c8:	0000011b          	0x11b
 7cc:	0101                	addi	sp,sp,0
 7ce:	4a08                	lw	a0,16(a2)
 7d0:	0001                	nop
 7d2:	0500                	addi	s0,sp,640
 7d4:	00000163          	beqz	zero,7d6 <main-0xf89e>
 7d8:	7b01                	lui	s6,0xfffe0
 7da:	4116                	lw	sp,68(sp)
 7dc:	0000                	unimp
 7de:	0200                	addi	s0,sp,256
 7e0:	0072                	c.slli	zero,0x1c
 7e2:	0000                	unimp
 7e4:	0401                	addi	s0,s0,0
 7e6:	1a04                	addi	s1,sp,304
 7e8:	0000                	unimp
 7ea:	0100                	addi	s0,sp,128
 7ec:	0308                	addi	a0,sp,384
 7ee:	0012                	c.slli	zero,0x4
 7f0:	0000                	unimp
 7f2:	0801                	addi	a6,a6,0
 7f4:	c704                	sw	s1,8(a4)
 7f6:	0001                	nop
 7f8:	0100                	addi	s0,sp,128
 7fa:	0310                	addi	a2,sp,384
 7fc:	0199                	addi	gp,gp,6
 7fe:	0000                	unimp
 800:	2001                	jal	800 <main-0xf874>
 802:	0001ba03          	0x1ba03
 806:	0600                	addi	s0,sp,768
 808:	007e                	c.slli	zero,0x1f
 80a:	0000                	unimp
 80c:	00b6                	slli	ra,ra,0xd
 80e:	0000                	unimp
 810:	00002507          	flw	fa0,0(zero) # 0 <main-0x10074>
 814:	ff00                	fsw	fs0,56(a4)
 816:	0200                	addi	s0,sp,256
 818:	00a6                	slli	ra,ra,0x9
 81a:	0000                	unimp
 81c:	3708                	fld	fa0,40(a4)
 81e:	0001                	nop
 820:	0100                	addi	s0,sp,128
 822:	0202                	c.slli64	tp
 824:	b616                	fsd	ft5,296(sp)
 826:	0000                	unimp
 828:	0900                	addi	s0,sp,144
 82a:	000000bb          	0xbb
 82e:	9e02                	jalr	t3
 830:	0f02                	c.slli64	t5
 832:	0305                	addi	t1,t1,1
 834:	1700                	addi	s0,sp,928
 836:	0001                	nop
	...

Disassembly of section .debug_abbrev:

00000000 <.debug_abbrev>:
   0:	3401                	jal	fffffa00 <__global_pointer$+0xfffec820>
   2:	3100                	fld	fs0,32(a0)
   4:	00170213          	addi	tp,a4,1 # fffeb001 <__global_pointer$+0xfffd7e21>
   8:	0200                	addi	s0,sp,256
   a:	0034                	addi	a3,sp,8
   c:	213a0e03          	lb	t3,531(s4)
  10:	3b01                	jal	fffffd20 <__global_pointer$+0xfffecb40>
  12:	3905                	jal	fffffc42 <__global_pointer$+0xfffeca62>
  14:	0013490b          	0x13490b
  18:	0300                	addi	s0,sp,384
  1a:	0034                	addi	a3,sp,8
  1c:	213a0803          	lb	a6,531(s4)
  20:	3b01                	jal	fffffd30 <__global_pointer$+0xfffecb50>
  22:	3905                	jal	fffffc52 <__global_pointer$+0xfffeca72>
  24:	0013490b          	0x13490b
  28:	0400                	addi	s0,sp,512
  2a:	0024                	addi	s1,sp,8
  2c:	0b3e0b0b          	0xb3e0b0b
  30:	00000e03          	lb	t3,0(zero) # 0 <main-0x10074>
  34:	0b05                	addi	s6,s6,1
  36:	0101                	addi	sp,sp,0
  38:	06000013          	li	zero,96
  3c:	0016                	c.slli	zero,0x5
  3e:	213a0e03          	lb	t3,531(s4)
  42:	3b02                	fld	fs6,32(sp)
  44:	490b390b          	0x490b390b
  48:	07000013          	li	zero,112
  4c:	1331010b          	0x1331010b
  50:	1755                	addi	a4,a4,-11
  52:	1301                	addi	t1,t1,-32
  54:	0000                	unimp
  56:	3408                	fld	fa0,40(s0)
  58:	3100                	fld	fs0,32(a0)
  5a:	09000013          	li	zero,144
  5e:	0026                	c.slli	zero,0x9
  60:	1349                	addi	t1,t1,-14
  62:	0000                	unimp
  64:	050a                	slli	a0,a0,0x2
  66:	3100                	fld	fs0,32(a0)
  68:	00170213          	addi	tp,a4,1
  6c:	0b00                	addi	s0,sp,400
  6e:	0005                	c.nop	1
  70:	213a0803          	lb	a6,531(s4)
  74:	3b01                	jal	fffffd84 <__global_pointer$+0xfffecba4>
  76:	e321                	bnez	a4,b6 <main-0xffbe>
  78:	490b3907          	fld	fs2,1168(s6) # fffe0490 <__global_pointer$+0xfffcd2b0>
  7c:	0c000013          	li	zero,192
  80:	000d                	c.nop	3
  82:	213a0803          	lb	a6,531(s4)
  86:	3b02                	fld	fs6,32(sp)
  88:	3905                	jal	fffffcb8 <__global_pointer$+0xfffecad8>
  8a:	0013490b          	0x13490b
  8e:	0d00                	addi	s0,sp,656
  90:	0005                	c.nop	1
  92:	213a0803          	lb	a6,531(s4)
  96:	3b01                	jal	fffffda6 <__global_pointer$+0xfffecbc6>
  98:	9221                	srli	a2,a2,0x28
  9a:	390a                	fld	fs2,160(sp)
  9c:	0213490b          	0x213490b
  a0:	0e000017          	auipc	zero,0xe000
  a4:	1331010b          	0x1331010b
  a8:	0111                	addi	sp,sp,4
  aa:	0612                	slli	a2,a2,0x4
  ac:	1301                	addi	t1,t1,-32
  ae:	0000                	unimp
  b0:	31010b0f          	0x31010b0f
  b4:	00175513          	srli	a0,a4,0x1
  b8:	1000                	addi	s0,sp,32
  ba:	0000010b          	0x10b
  be:	1111                	addi	sp,sp,-28
  c0:	2501                	jal	6c0 <main-0xf9b4>
  c2:	130e                	slli	t1,t1,0x23
  c4:	1b1f030b          	0x1b1f030b
  c8:	111f 1201 1006      	0x10061201111f
  ce:	12000017          	auipc	zero,0x12000
  d2:	0024                	addi	s1,sp,8
  d4:	0b3e0b0b          	0xb3e0b0b
  d8:	00000803          	lb	a6,0(zero) # 0 <main-0x10074>
  dc:	03011313          	slli	t1,sp,0x30
  e0:	0b0e                	slli	s6,s6,0x3
  e2:	3b0b3a0b          	0x3b0b3a0b
  e6:	3905                	jal	fffffd16 <__global_pointer$+0xfffecb36>
  e8:	0013010b          	0x13010b
  ec:	1400                	addi	s0,sp,544
  ee:	000d                	c.nop	3
  f0:	0b3a0803          	lb	a6,179(s4)
  f4:	0b39053b          	0xb39053b
  f8:	1349                	addi	t1,t1,-14
  fa:	0b38                	addi	a4,sp,408
  fc:	0000                	unimp
  fe:	0d15                	addi	s10,s10,5
 100:	0300                	addi	s0,sp,384
 102:	3a0e                	fld	fs4,224(sp)
 104:	39053b0b          	0x39053b0b
 108:	3813490b          	0x3813490b
 10c:	1600000b          	0x1600000b
 110:	0b0b0117          	auipc	sp,0xb0b0
 114:	0b3a                	slli	s6,s6,0xe
 116:	0b39053b          	0xb39053b
 11a:	1301                	addi	t1,t1,-32
 11c:	0000                	unimp
 11e:	03001617          	auipc	a2,0x3001
 122:	3a0e                	fld	fs4,224(sp)
 124:	39053b0b          	0x39053b0b
 128:	0013490b          	0x13490b
 12c:	1800                	addi	s0,sp,48
 12e:	0101                	addi	sp,sp,0
 130:	1349                	addi	t1,t1,-14
 132:	1301                	addi	t1,t1,-32
 134:	0000                	unimp
 136:	2119                	jal	53c <main-0xfb38>
 138:	4900                	lw	s0,16(a0)
 13a:	000b2f13          	slti	t5,s6,0
 13e:	1a00                	addi	s0,sp,304
 140:	0034                	addi	a3,sp,8
 142:	0b3a0e03          	lb	t3,179(s4)
 146:	0b39053b          	0xb39053b
 14a:	1349                	addi	t1,t1,-14
 14c:	193c193f 2e1b0000 	0x2e1b0000193c193f
 154:	3f01                	jal	64 <main-0x10010>
 156:	0319                	addi	t1,t1,6
 158:	3a0e                	fld	fs4,224(sp)
 15a:	39053b0b          	0x39053b0b
 15e:	4919270b          	0x4919270b
 162:	12011113          	0x12011113
 166:	4006                	0x4006
 168:	7a18                	flw	fa4,48(a2)
 16a:	0119                	addi	sp,sp,6
 16c:	1c000013          	li	zero,448
 170:	011d                	addi	sp,sp,7
 172:	1331                	addi	t1,t1,-20
 174:	0152                	slli	sp,sp,0x14
 176:	1755                	addi	a4,a4,-11
 178:	0b58                	addi	a4,sp,404
 17a:	0559                	addi	a0,a0,22
 17c:	00000b57          	0xb57
 180:	0b1d                	addi	s6,s6,7
 182:	5501                	li	a0,-32
 184:	1e000017          	auipc	zero,0x1e000
 188:	012e                	slli	sp,sp,0xb
 18a:	0b3a0e03          	lb	t3,179(s4)
 18e:	0b39053b          	0xb39053b
 192:	13491927          	0x13491927
 196:	0b20                	addi	s0,sp,408
 198:	1301                	addi	t1,t1,-32
 19a:	0000                	unimp
 19c:	0f1f 0b00 490b      	0x490b0b000f1f
 1a2:	00000013          	nop
 1a6:	2401                	jal	3a6 <main-0xfcce>
 1a8:	0b00                	addi	s0,sp,400
 1aa:	030b3e0b          	0x30b3e0b
 1ae:	000e                	c.slli	zero,0x3
 1b0:	0200                	addi	s0,sp,256
 1b2:	0026                	c.slli	zero,0x9
 1b4:	1349                	addi	t1,t1,-14
 1b6:	0000                	unimp
 1b8:	25011103          	lh	sp,592(sp) # b0b0360 <__global_pointer$+0xb09d180>
 1bc:	130e                	slli	t1,t1,0x23
 1be:	1b1f030b          	0x1b1f030b
 1c2:	101f 0017 0400      	0x4000017101f
 1c8:	0024                	addi	s1,sp,8
 1ca:	0b3e0b0b          	0xb3e0b0b
 1ce:	00000803          	lb	a6,0(zero) # 0 <main-0x10074>
 1d2:	1605                	addi	a2,a2,-31
 1d4:	0300                	addi	s0,sp,384
 1d6:	3a0e                	fld	fs4,224(sp)
 1d8:	390b3b0b          	0x390b3b0b
 1dc:	0013490b          	0x13490b
 1e0:	0600                	addi	s0,sp,768
 1e2:	0101                	addi	sp,sp,0
 1e4:	1349                	addi	t1,t1,-14
 1e6:	1301                	addi	t1,t1,-32
 1e8:	0000                	unimp
 1ea:	49002107          	flw	ft2,1168(zero) # 490 <main-0xfbe4>
 1ee:	000b2f13          	slti	t5,s6,0
 1f2:	0800                	addi	s0,sp,16
 1f4:	0034                	addi	a3,sp,8
 1f6:	0b3a0e03          	lb	t3,179(s4)
 1fa:	0b39053b          	0xb39053b
 1fe:	1349                	addi	t1,t1,-14
 200:	193c193f 34090000 	0x34090000193c193f
 208:	4700                	lw	s0,8(a4)
 20a:	3b0b3a13          	sltiu	s4,s6,944
 20e:	3905                	jal	fffffe3e <__global_pointer$+0xfffecc5e>
 210:	0018020b          	0x18020b
	...

Disassembly of section .debug_line:

00000000 <.debug_line>:
   0:	00000723          	sb	zero,14(zero) # e <main-0x10066>
   4:	0005                	c.nop	1
   6:	0004                	0x4
   8:	00000033          	add	zero,zero,zero
   c:	0101                	addi	sp,sp,0
   e:	fb01                	bnez	a4,ffffff1e <__global_pointer$+0xfffecd3e>
  10:	0d0e                	slli	s10,s10,0x3
  12:	0100                	addi	s0,sp,128
  14:	0101                	addi	sp,sp,0
  16:	0001                	nop
  18:	0000                	unimp
  1a:	0001                	nop
  1c:	0100                	addi	s0,sp,128
  1e:	0101                	addi	sp,sp,0
  20:	021f 002c 0000      	0x2c021f
  26:	008e                	slli	ra,ra,0x3
  28:	0000                	unimp
  2a:	0102                	c.slli64	sp
  2c:	021f 030f 0000      	0x30f021f
  32:	0000                	unimp
  34:	2200                	fld	fs0,0(a2)
  36:	0000                	unimp
  38:	0100                	addi	s0,sp,128
  3a:	00b0                	addi	a2,sp,72
  3c:	0000                	unimp
  3e:	0501                	addi	a0,a0,0
  40:	0001                	nop
  42:	0205                	addi	tp,tp,1
  44:	0c20                	addi	s0,sp,536
  46:	0001                	nop
  48:	010a9203          	lh	tp,16(s5)
  4c:	0305                	addi	t1,t1,1
  4e:	00090103          	lb	sp,0(s2) # 18000 <__global_pointer$+0x4e20>
  52:	0100                	addi	s0,sp,128
  54:	097dd103          	lhu	sp,151(s11)
  58:	0000                	unimp
  5a:	0301                	addi	t1,t1,0
  5c:	0901                	addi	s2,s2,0
  5e:	0000                	unimp
  60:	0301                	addi	t1,t1,0
  62:	0901                	addi	s2,s2,0
  64:	0000                	unimp
  66:	0301                	addi	t1,t1,0
  68:	0901                	addi	s2,s2,0
  6a:	0000                	unimp
  6c:	0301                	addi	t1,t1,0
  6e:	0901                	addi	s2,s2,0
  70:	0000                	unimp
  72:	0301                	addi	t1,t1,0
  74:	0901                	addi	s2,s2,0
  76:	0000                	unimp
  78:	0301                	addi	t1,t1,0
  7a:	0902                	c.slli64	s2
  7c:	0000                	unimp
  7e:	0501                	addi	a0,a0,0
  80:	0601                	addi	a2,a2,0
  82:	0902a703          	lw	a4,144(t0) # 11268 <__call_exitprocs+0x68>
  86:	0000                	unimp
  88:	0501                	addi	a0,a0,0
  8a:	0306                	slli	t1,t1,0x1
  8c:	7dd9                	lui	s11,0xffff6
  8e:	0809                	addi	a6,a6,2
  90:	0100                	addi	s0,sp,128
  92:	0305                	addi	t1,t1,1
  94:	0306                	slli	t1,t1,0x1
  96:	0901                	addi	s2,s2,0
  98:	0004                	0x4
  9a:	0301                	addi	t1,t1,0
  9c:	0901                	addi	s2,s2,0
  9e:	0000                	unimp
  a0:	0501                	addi	a0,a0,0
  a2:	0606                	slli	a2,a2,0x1
  a4:	00090003          	lb	zero,0(s2)
  a8:	0100                	addi	s0,sp,128
  aa:	0305                	addi	t1,t1,1
  ac:	0306                	slli	t1,t1,0x1
  ae:	0901                	addi	s2,s2,0
  b0:	0004                	0x4
  b2:	0501                	addi	a0,a0,0
  b4:	0606                	slli	a2,a2,0x1
  b6:	00090003          	lb	zero,0(s2)
  ba:	0100                	addi	s0,sp,128
  bc:	0305                	addi	t1,t1,1
  be:	0306                	slli	t1,t1,0x1
  c0:	0925                	addi	s2,s2,9
  c2:	0004                	0x4
  c4:	0501                	addi	a0,a0,0
  c6:	0606                	slli	a2,a2,0x1
  c8:	00090003          	lb	zero,0(s2)
  cc:	0100                	addi	s0,sp,128
  ce:	0705                	addi	a4,a4,1
  d0:	0306                	slli	t1,t1,0x1
  d2:	0902                	c.slli64	s2
  d4:	0004                	0x4
  d6:	0501                	addi	a0,a0,0
  d8:	060a                	slli	a2,a2,0x2
  da:	08090003          	lb	zero,128(s2)
  de:	0100                	addi	s0,sp,128
  e0:	0405                	addi	s0,s0,1
  e2:	0306                	slli	t1,t1,0x1
  e4:	0904                	addi	s1,sp,144
  e6:	0004                	0x4
  e8:	0301                	addi	t1,t1,0
  ea:	0900                	addi	s0,sp,144
  ec:	0000                	unimp
  ee:	0301                	addi	t1,t1,0
  f0:	0900                	addi	s0,sp,144
  f2:	0000                	unimp
  f4:	0301                	addi	t1,t1,0
  f6:	0900                	addi	s0,sp,144
  f8:	0000                	unimp
  fa:	0301                	addi	t1,t1,0
  fc:	0900                	addi	s0,sp,144
  fe:	0000                	unimp
 100:	0301                	addi	t1,t1,0
 102:	0900                	addi	s0,sp,144
 104:	0014                	0x14
 106:	0301                	addi	t1,t1,0
 108:	0900                	addi	s0,sp,144
 10a:	0018                	0x18
 10c:	0301                	addi	t1,t1,0
 10e:	0902                	c.slli64	s2
 110:	0000                	unimp
 112:	0501                	addi	a0,a0,0
 114:	00030607          	0x30607
 118:	0009                	c.nop	2
 11a:	0100                	addi	s0,sp,128
 11c:	0805                	addi	a6,a6,1
 11e:	0306                	slli	t1,t1,0x1
 120:	0905                	addi	s2,s2,1
 122:	0004                	0x4
 124:	0501                	addi	a0,a0,0
 126:	0611                	addi	a2,a2,4
 128:	00090103          	lb	sp,0(s2)
 12c:	0100                	addi	s0,sp,128
 12e:	1e05                	addi	t3,t3,-31
 130:	04090003          	lb	zero,64(s2)
 134:	0100                	addi	s0,sp,128
 136:	0b05                	addi	s6,s6,1
 138:	04097f03          	0x4097f03
 13c:	0100                	addi	s0,sp,128
 13e:	0805                	addi	a6,a6,1
 140:	0306                	slli	t1,t1,0x1
 142:	0901                	addi	s2,s2,0
 144:	0004                	0x4
 146:	0501                	addi	a0,a0,0
 148:	0003060b          	0x3060b
 14c:	0009                	c.nop	2
 14e:	0100                	addi	s0,sp,128
 150:	0805                	addi	a6,a6,1
 152:	0306                	slli	t1,t1,0x1
 154:	0901                	addi	s2,s2,0
 156:	0004                	0x4
 158:	0501                	addi	a0,a0,0
 15a:	0003060b          	0x3060b
 15e:	0009                	c.nop	2
 160:	0100                	addi	s0,sp,128
 162:	0405                	addi	s0,s0,1
 164:	0306                	slli	t1,t1,0x1
 166:	00040903          	lb	s2,0(s0)
 16a:	0301                	addi	t1,t1,0
 16c:	0900                	addi	s0,sp,144
 16e:	0000                	unimp
 170:	0301                	addi	t1,t1,0
 172:	0900                	addi	s0,sp,144
 174:	0000                	unimp
 176:	0301                	addi	t1,t1,0
 178:	0900                	addi	s0,sp,144
 17a:	0000                	unimp
 17c:	0301                	addi	t1,t1,0
 17e:	0900                	addi	s0,sp,144
 180:	0004                	0x4
 182:	0301                	addi	t1,t1,0
 184:	0900                	addi	s0,sp,144
 186:	000c                	0xc
 188:	0301                	addi	t1,t1,0
 18a:	0900                	addi	s0,sp,144
 18c:	0000                	unimp
 18e:	0301                	addi	t1,t1,0
 190:	0900                	addi	s0,sp,144
 192:	0000                	unimp
 194:	0301                	addi	t1,t1,0
 196:	0900                	addi	s0,sp,144
 198:	000c                	0xc
 19a:	0301                	addi	t1,t1,0
 19c:	0900                	addi	s0,sp,144
 19e:	000c                	0xc
 1a0:	0301                	addi	t1,t1,0
 1a2:	0900                	addi	s0,sp,144
 1a4:	0004                	0x4
 1a6:	0301                	addi	t1,t1,0
 1a8:	0900                	addi	s0,sp,144
 1aa:	0008                	0x8
 1ac:	0301                	addi	t1,t1,0
 1ae:	0900                	addi	s0,sp,144
 1b0:	0004                	0x4
 1b2:	0301                	addi	t1,t1,0
 1b4:	0900                	addi	s0,sp,144
 1b6:	0004                	0x4
 1b8:	0301                	addi	t1,t1,0
 1ba:	0900                	addi	s0,sp,144
 1bc:	0008                	0x8
 1be:	0301                	addi	t1,t1,0
 1c0:	0900                	addi	s0,sp,144
 1c2:	0004                	0x4
 1c4:	0301                	addi	t1,t1,0
 1c6:	0900                	addi	s0,sp,144
 1c8:	0000                	unimp
 1ca:	0301                	addi	t1,t1,0
 1cc:	0900                	addi	s0,sp,144
 1ce:	0004                	0x4
 1d0:	0301                	addi	t1,t1,0
 1d2:	0900                	addi	s0,sp,144
 1d4:	0010                	0x10
 1d6:	0301                	addi	t1,t1,0
 1d8:	0900                	addi	s0,sp,144
 1da:	0008                	0x8
 1dc:	0301                	addi	t1,t1,0
 1de:	0900                	addi	s0,sp,144
 1e0:	0008                	0x8
 1e2:	0301                	addi	t1,t1,0
 1e4:	0900                	addi	s0,sp,144
 1e6:	0008                	0x8
 1e8:	0301                	addi	t1,t1,0
 1ea:	0900                	addi	s0,sp,144
 1ec:	0004                	0x4
 1ee:	0301                	addi	t1,t1,0
 1f0:	0900                	addi	s0,sp,144
 1f2:	0004                	0x4
 1f4:	0301                	addi	t1,t1,0
 1f6:	0900                	addi	s0,sp,144
 1f8:	0004                	0x4
 1fa:	0301                	addi	t1,t1,0
 1fc:	0900                	addi	s0,sp,144
 1fe:	0000                	unimp
 200:	0301                	addi	t1,t1,0
 202:	0900                	addi	s0,sp,144
 204:	0008                	0x8
 206:	0301                	addi	t1,t1,0
 208:	0900                	addi	s0,sp,144
 20a:	0000                	unimp
 20c:	0301                	addi	t1,t1,0
 20e:	0901                	addi	s2,s2,0
 210:	0000                	unimp
 212:	0501                	addi	a0,a0,0
 214:	fe03060b          	0xfe03060b
 218:	0900                	addi	s0,sp,144
 21a:	0000                	unimp
 21c:	0501                	addi	a0,a0,0
 21e:	0e030603          	lb	a2,224(t1) # ffffa0e0 <__global_pointer$+0xfffe6f00>
 222:	0409                	addi	s0,s0,2
 224:	0100                	addi	s0,sp,128
 226:	00090103          	lb	sp,0(s2)
 22a:	0100                	addi	s0,sp,128
 22c:	0105                	addi	sp,sp,1
 22e:	0306                	slli	t1,t1,0x1
 230:	00e1                	addi	ra,ra,24
 232:	0009                	c.nop	2
 234:	0100                	addi	s0,sp,128
 236:	0405                	addi	s0,s0,1
 238:	097e8503          	lb	a0,151(t4)
 23c:	0004                	0x4
 23e:	0601                	addi	a2,a2,0
 240:	14091503          	lh	a0,320(s2)
 244:	0100                	addi	s0,sp,128
 246:	0705                	addi	a4,a4,1
 248:	0306                	slli	t1,t1,0x1
 24a:	0900                	addi	s0,sp,144
 24c:	0000                	unimp
 24e:	0501                	addi	a0,a0,0
 250:	0606                	slli	a2,a2,0x1
 252:	04090103          	lb	sp,64(s2)
 256:	0100                	addi	s0,sp,128
 258:	0405                	addi	s0,s0,1
 25a:	04090203          	lb	tp,64(s2)
 25e:	0100                	addi	s0,sp,128
 260:	00090003          	lb	zero,0(s2)
 264:	0100                	addi	s0,sp,128
 266:	00090003          	lb	zero,0(s2)
 26a:	0100                	addi	s0,sp,128
 26c:	00090003          	lb	zero,0(s2)
 270:	0100                	addi	s0,sp,128
 272:	00090003          	lb	zero,0(s2)
 276:	0100                	addi	s0,sp,128
 278:	14090003          	lb	zero,320(s2)
 27c:	0100                	addi	s0,sp,128
 27e:	18090003          	lb	zero,384(s2)
 282:	0100                	addi	s0,sp,128
 284:	00090203          	lb	tp,0(s2)
 288:	0100                	addi	s0,sp,128
 28a:	0705                	addi	a4,a4,1
 28c:	0306                	slli	t1,t1,0x1
 28e:	0900                	addi	s0,sp,144
 290:	0000                	unimp
 292:	0501                	addi	a0,a0,0
 294:	0608                	addi	a0,sp,768
 296:	04090903          	lb	s2,64(s2)
 29a:	0100                	addi	s0,sp,128
 29c:	0b05                	addi	s6,s6,1
 29e:	0306                	slli	t1,t1,0x1
 2a0:	0900                	addi	s0,sp,144
 2a2:	0000                	unimp
 2a4:	0501                	addi	a0,a0,0
 2a6:	0608                	addi	a0,sp,768
 2a8:	04090103          	lb	sp,64(s2)
 2ac:	0100                	addi	s0,sp,128
 2ae:	0b05                	addi	s6,s6,1
 2b0:	0306                	slli	t1,t1,0x1
 2b2:	0900                	addi	s0,sp,144
 2b4:	0000                	unimp
 2b6:	0501                	addi	a0,a0,0
 2b8:	0608                	addi	a0,sp,768
 2ba:	04090d03          	lb	s10,64(s2)
 2be:	0100                	addi	s0,sp,128
 2c0:	0405                	addi	s0,s0,1
 2c2:	00090503          	lb	a0,0(s2)
 2c6:	0100                	addi	s0,sp,128
 2c8:	00090003          	lb	zero,0(s2)
 2cc:	0100                	addi	s0,sp,128
 2ce:	00090003          	lb	zero,0(s2)
 2d2:	0100                	addi	s0,sp,128
 2d4:	00090003          	lb	zero,0(s2)
 2d8:	0100                	addi	s0,sp,128
 2da:	04090003          	lb	zero,64(s2)
 2de:	0100                	addi	s0,sp,128
 2e0:	0c090003          	lb	zero,192(s2)
 2e4:	0100                	addi	s0,sp,128
 2e6:	00090003          	lb	zero,0(s2)
 2ea:	0100                	addi	s0,sp,128
 2ec:	00090003          	lb	zero,0(s2)
 2f0:	0100                	addi	s0,sp,128
 2f2:	10090003          	lb	zero,256(s2)
 2f6:	0100                	addi	s0,sp,128
 2f8:	08090003          	lb	zero,128(s2)
 2fc:	0100                	addi	s0,sp,128
 2fe:	04090003          	lb	zero,64(s2)
 302:	0100                	addi	s0,sp,128
 304:	08090003          	lb	zero,128(s2)
 308:	0100                	addi	s0,sp,128
 30a:	04090003          	lb	zero,64(s2)
 30e:	0100                	addi	s0,sp,128
 310:	04090003          	lb	zero,64(s2)
 314:	0100                	addi	s0,sp,128
 316:	08090003          	lb	zero,128(s2)
 31a:	0100                	addi	s0,sp,128
 31c:	04090003          	lb	zero,64(s2)
 320:	0100                	addi	s0,sp,128
 322:	00090003          	lb	zero,0(s2)
 326:	0100                	addi	s0,sp,128
 328:	04090003          	lb	zero,64(s2)
 32c:	0100                	addi	s0,sp,128
 32e:	10090003          	lb	zero,256(s2)
 332:	0100                	addi	s0,sp,128
 334:	08090003          	lb	zero,128(s2)
 338:	0100                	addi	s0,sp,128
 33a:	08090003          	lb	zero,128(s2)
 33e:	0100                	addi	s0,sp,128
 340:	08090003          	lb	zero,128(s2)
 344:	0100                	addi	s0,sp,128
 346:	04090003          	lb	zero,64(s2)
 34a:	0100                	addi	s0,sp,128
 34c:	04090003          	lb	zero,64(s2)
 350:	0100                	addi	s0,sp,128
 352:	04090003          	lb	zero,64(s2)
 356:	0100                	addi	s0,sp,128
 358:	00090003          	lb	zero,0(s2)
 35c:	0100                	addi	s0,sp,128
 35e:	08090003          	lb	zero,128(s2)
 362:	0100                	addi	s0,sp,128
 364:	0306                	slli	t1,t1,0x1
 366:	0962                	slli	s2,s2,0x18
 368:	0004                	0x4
 36a:	0501                	addi	a0,a0,0
 36c:	0608                	addi	a0,sp,768
 36e:	14091203          	lh	tp,320(s2)
 372:	0100                	addi	s0,sp,128
 374:	00090203          	lb	tp,0(s2)
 378:	0100                	addi	s0,sp,128
 37a:	0b05                	addi	s6,s6,1
 37c:	0306                	slli	t1,t1,0x1
 37e:	0900                	addi	s0,sp,144
 380:	0000                	unimp
 382:	0501                	addi	a0,a0,0
 384:	0608                	addi	a0,sp,768
 386:	04090103          	lb	sp,64(s2)
 38a:	0100                	addi	s0,sp,128
 38c:	0b05                	addi	s6,s6,1
 38e:	0306                	slli	t1,t1,0x1
 390:	0900                	addi	s0,sp,144
 392:	0000                	unimp
 394:	0501                	addi	a0,a0,0
 396:	0608                	addi	a0,sp,768
 398:	04090103          	lb	sp,64(s2)
 39c:	0100                	addi	s0,sp,128
 39e:	0306                	slli	t1,t1,0x1
 3a0:	00000903          	lb	s2,0(zero) # 0 <main-0x10074>
 3a4:	0501                	addi	a0,a0,0
 3a6:	031e                	slli	t1,t1,0x7
 3a8:	097d                	addi	s2,s2,31
 3aa:	0004                	0x4
 3ac:	0501                	addi	a0,a0,0
 3ae:	0901030b          	0x901030b
 3b2:	0004                	0x4
 3b4:	0501                	addi	a0,a0,0
 3b6:	0308                	addi	a0,sp,384
 3b8:	0902                	c.slli64	s2
 3ba:	0004                	0x4
 3bc:	0501                	addi	a0,a0,0
 3be:	0311                	addi	t1,t1,4
 3c0:	097d                	addi	s2,s2,31
 3c2:	0008                	0x8
 3c4:	0501                	addi	a0,a0,0
 3c6:	0308                	addi	a0,sp,384
 3c8:	00040903          	lb	s2,0(s0)
 3cc:	0501                	addi	a0,a0,0
 3ce:	097d030b          	0x97d030b
 3d2:	0004                	0x4
 3d4:	0501                	addi	a0,a0,0
 3d6:	0608                	addi	a0,sp,768
 3d8:	04090103          	lb	sp,64(s2)
 3dc:	0100                	addi	s0,sp,128
 3de:	00090203          	lb	tp,0(s2)
 3e2:	0100                	addi	s0,sp,128
 3e4:	00090003          	lb	zero,0(s2)
 3e8:	0100                	addi	s0,sp,128
 3ea:	00090003          	lb	zero,0(s2)
 3ee:	0100                	addi	s0,sp,128
 3f0:	00090003          	lb	zero,0(s2)
 3f4:	0100                	addi	s0,sp,128
 3f6:	00090003          	lb	zero,0(s2)
 3fa:	0100                	addi	s0,sp,128
 3fc:	00090003          	lb	zero,0(s2)
 400:	0100                	addi	s0,sp,128
 402:	00090003          	lb	zero,0(s2)
 406:	0100                	addi	s0,sp,128
 408:	00090003          	lb	zero,0(s2)
 40c:	0100                	addi	s0,sp,128
 40e:	08090003          	lb	zero,128(s2)
 412:	0100                	addi	s0,sp,128
 414:	0c090003          	lb	zero,192(s2)
 418:	0100                	addi	s0,sp,128
 41a:	08090003          	lb	zero,128(s2)
 41e:	0100                	addi	s0,sp,128
 420:	08090003          	lb	zero,128(s2)
 424:	0100                	addi	s0,sp,128
 426:	04090003          	lb	zero,64(s2)
 42a:	0100                	addi	s0,sp,128
 42c:	04090003          	lb	zero,64(s2)
 430:	0100                	addi	s0,sp,128
 432:	08090003          	lb	zero,128(s2)
 436:	0100                	addi	s0,sp,128
 438:	04090003          	lb	zero,64(s2)
 43c:	0100                	addi	s0,sp,128
 43e:	00090003          	lb	zero,0(s2)
 442:	0100                	addi	s0,sp,128
 444:	04090003          	lb	zero,64(s2)
 448:	0100                	addi	s0,sp,128
 44a:	10090003          	lb	zero,256(s2)
 44e:	0100                	addi	s0,sp,128
 450:	08090003          	lb	zero,128(s2)
 454:	0100                	addi	s0,sp,128
 456:	08090003          	lb	zero,128(s2)
 45a:	0100                	addi	s0,sp,128
 45c:	08090003          	lb	zero,128(s2)
 460:	0100                	addi	s0,sp,128
 462:	04090003          	lb	zero,64(s2)
 466:	0100                	addi	s0,sp,128
 468:	04090003          	lb	zero,64(s2)
 46c:	0100                	addi	s0,sp,128
 46e:	08090003          	lb	zero,128(s2)
 472:	0100                	addi	s0,sp,128
 474:	08090003          	lb	zero,128(s2)
 478:	0100                	addi	s0,sp,128
 47a:	04090003          	lb	zero,64(s2)
 47e:	0100                	addi	s0,sp,128
 480:	0705                	addi	a4,a4,1
 482:	04091503          	lh	a0,64(s2)
 486:	0100                	addi	s0,sp,128
 488:	0a05                	addi	s4,s4,1
 48a:	0306                	slli	t1,t1,0x1
 48c:	0900                	addi	s0,sp,144
 48e:	0000                	unimp
 490:	0501                	addi	a0,a0,0
 492:	0604                	addi	s1,sp,768
 494:	04091303          	lh	t1,64(s2)
 498:	0100                	addi	s0,sp,128
 49a:	00090003          	lb	zero,0(s2)
 49e:	0100                	addi	s0,sp,128
 4a0:	00090003          	lb	zero,0(s2)
 4a4:	0100                	addi	s0,sp,128
 4a6:	00090003          	lb	zero,0(s2)
 4aa:	0100                	addi	s0,sp,128
 4ac:	00090003          	lb	zero,0(s2)
 4b0:	0100                	addi	s0,sp,128
 4b2:	14090003          	lb	zero,320(s2)
 4b6:	0100                	addi	s0,sp,128
 4b8:	20090003          	lb	zero,512(s2)
 4bc:	0100                	addi	s0,sp,128
 4be:	00090103          	lb	sp,0(s2)
 4c2:	0100                	addi	s0,sp,128
 4c4:	0705                	addi	a4,a4,1
 4c6:	0306                	slli	t1,t1,0x1
 4c8:	0900                	addi	s0,sp,144
 4ca:	0000                	unimp
 4cc:	0501                	addi	a0,a0,0
 4ce:	0608                	addi	a0,sp,768
 4d0:	04090a03          	lb	s4,64(s2)
 4d4:	0100                	addi	s0,sp,128
 4d6:	0306                	slli	t1,t1,0x1
 4d8:	0902                	c.slli64	s2
 4da:	0000                	unimp
 4dc:	0501                	addi	a0,a0,0
 4de:	097e030b          	0x97e030b
 4e2:	0004                	0x4
 4e4:	0501                	addi	a0,a0,0
 4e6:	0314                	addi	a3,sp,384
 4e8:	0900                	addi	s0,sp,144
 4ea:	0004                	0x4
 4ec:	0501                	addi	a0,a0,0
 4ee:	0304                	addi	s1,sp,384
 4f0:	0975                	addi	s2,s2,29
 4f2:	000c                	0xc
 4f4:	0501                	addi	a0,a0,0
 4f6:	0608                	addi	a0,sp,768
 4f8:	14091e03          	lh	t3,320(s2)
 4fc:	0100                	addi	s0,sp,128
 4fe:	00090303          	lb	t1,0(s2)
 502:	0100                	addi	s0,sp,128
 504:	00090203          	lb	tp,0(s2)
 508:	0100                	addi	s0,sp,128
 50a:	1e05                	addi	t3,t3,-31
 50c:	0306                	slli	t1,t1,0x1
 50e:	0900                	addi	s0,sp,144
 510:	0000                	unimp
 512:	0501                	addi	a0,a0,0
 514:	0311                	addi	t1,t1,4
 516:	0900                	addi	s0,sp,144
 518:	0004                	0x4
 51a:	0501                	addi	a0,a0,0
 51c:	0900030b          	0x900030b
 520:	0004                	0x4
 522:	0501                	addi	a0,a0,0
 524:	0608                	addi	a0,sp,768
 526:	04090103          	lb	sp,64(s2)
 52a:	0100                	addi	s0,sp,128
 52c:	0b05                	addi	s6,s6,1
 52e:	0306                	slli	t1,t1,0x1
 530:	0901                	addi	s2,s2,0
 532:	0000                	unimp
 534:	0501                	addi	a0,a0,0
 536:	0311                	addi	t1,t1,4
 538:	0901                	addi	s2,s2,0
 53a:	0004                	0x4
 53c:	0501                	addi	a0,a0,0
 53e:	031e                	slli	t1,t1,0x7
 540:	0900                	addi	s0,sp,144
 542:	0004                	0x4
 544:	0501                	addi	a0,a0,0
 546:	0900030b          	0x900030b
 54a:	0004                	0x4
 54c:	0501                	addi	a0,a0,0
 54e:	0308                	addi	a0,sp,384
 550:	00040903          	lb	s2,0(s0)
 554:	0501                	addi	a0,a0,0
 556:	097b030b          	0x97b030b
 55a:	0010                	0x10
 55c:	0501                	addi	a0,a0,0
 55e:	0608                	addi	a0,sp,768
 560:	04090103          	lb	sp,64(s2)
 564:	0100                	addi	s0,sp,128
 566:	00090103          	lb	sp,0(s2)
 56a:	0100                	addi	s0,sp,128
 56c:	00090103          	lb	sp,0(s2)
 570:	0100                	addi	s0,sp,128
 572:	00090203          	lb	tp,0(s2)
 576:	0100                	addi	s0,sp,128
 578:	00090003          	lb	zero,0(s2)
 57c:	0100                	addi	s0,sp,128
 57e:	00090003          	lb	zero,0(s2)
 582:	0100                	addi	s0,sp,128
 584:	00090003          	lb	zero,0(s2)
 588:	0100                	addi	s0,sp,128
 58a:	00090003          	lb	zero,0(s2)
 58e:	0100                	addi	s0,sp,128
 590:	00090003          	lb	zero,0(s2)
 594:	0100                	addi	s0,sp,128
 596:	00090003          	lb	zero,0(s2)
 59a:	0100                	addi	s0,sp,128
 59c:	00090003          	lb	zero,0(s2)
 5a0:	0100                	addi	s0,sp,128
 5a2:	08090003          	lb	zero,128(s2)
 5a6:	0100                	addi	s0,sp,128
 5a8:	0c090003          	lb	zero,192(s2)
 5ac:	0100                	addi	s0,sp,128
 5ae:	08090003          	lb	zero,128(s2)
 5b2:	0100                	addi	s0,sp,128
 5b4:	08090003          	lb	zero,128(s2)
 5b8:	0100                	addi	s0,sp,128
 5ba:	04090003          	lb	zero,64(s2)
 5be:	0100                	addi	s0,sp,128
 5c0:	04090003          	lb	zero,64(s2)
 5c4:	0100                	addi	s0,sp,128
 5c6:	08090003          	lb	zero,128(s2)
 5ca:	0100                	addi	s0,sp,128
 5cc:	04090003          	lb	zero,64(s2)
 5d0:	0100                	addi	s0,sp,128
 5d2:	00090003          	lb	zero,0(s2)
 5d6:	0100                	addi	s0,sp,128
 5d8:	04090003          	lb	zero,64(s2)
 5dc:	0100                	addi	s0,sp,128
 5de:	10090003          	lb	zero,256(s2)
 5e2:	0100                	addi	s0,sp,128
 5e4:	08090003          	lb	zero,128(s2)
 5e8:	0100                	addi	s0,sp,128
 5ea:	08090003          	lb	zero,128(s2)
 5ee:	0100                	addi	s0,sp,128
 5f0:	08090003          	lb	zero,128(s2)
 5f4:	0100                	addi	s0,sp,128
 5f6:	04090003          	lb	zero,64(s2)
 5fa:	0100                	addi	s0,sp,128
 5fc:	04090003          	lb	zero,64(s2)
 600:	0100                	addi	s0,sp,128
 602:	08090003          	lb	zero,128(s2)
 606:	0100                	addi	s0,sp,128
 608:	0306                	slli	t1,t1,0x1
 60a:	0901                	addi	s2,s2,0
 60c:	0004                	0x4
 60e:	0301                	addi	t1,t1,0
 610:	097f                	0x97f
 612:	0004                	0x4
 614:	0301                	addi	t1,t1,0
 616:	0901                	addi	s2,s2,0
 618:	0004                	0x4
 61a:	0301                	addi	t1,t1,0
 61c:	097f                	0x97f
 61e:	0008                	0x8
 620:	0601                	addi	a2,a2,0
 622:	04090003          	lb	zero,64(s2)
 626:	0100                	addi	s0,sp,128
 628:	00090003          	lb	zero,0(s2)
 62c:	0100                	addi	s0,sp,128
 62e:	00090003          	lb	zero,0(s2)
 632:	0100                	addi	s0,sp,128
 634:	00090103          	lb	sp,0(s2)
 638:	0100                	addi	s0,sp,128
 63a:	00090003          	lb	zero,0(s2)
 63e:	0100                	addi	s0,sp,128
 640:	00090003          	lb	zero,0(s2)
 644:	0100                	addi	s0,sp,128
 646:	00090003          	lb	zero,0(s2)
 64a:	0100                	addi	s0,sp,128
 64c:	00090003          	lb	zero,0(s2)
 650:	0100                	addi	s0,sp,128
 652:	08090003          	lb	zero,128(s2)
 656:	0100                	addi	s0,sp,128
 658:	00090003          	lb	zero,0(s2)
 65c:	0100                	addi	s0,sp,128
 65e:	04090003          	lb	zero,64(s2)
 662:	0100                	addi	s0,sp,128
 664:	04090003          	lb	zero,64(s2)
 668:	0100                	addi	s0,sp,128
 66a:	00090003          	lb	zero,0(s2)
 66e:	0100                	addi	s0,sp,128
 670:	04090003          	lb	zero,64(s2)
 674:	0100                	addi	s0,sp,128
 676:	08090003          	lb	zero,128(s2)
 67a:	0100                	addi	s0,sp,128
 67c:	04090003          	lb	zero,64(s2)
 680:	0100                	addi	s0,sp,128
 682:	08090003          	lb	zero,128(s2)
 686:	0100                	addi	s0,sp,128
 688:	04090003          	lb	zero,64(s2)
 68c:	0100                	addi	s0,sp,128
 68e:	04090003          	lb	zero,64(s2)
 692:	0100                	addi	s0,sp,128
 694:	08090003          	lb	zero,128(s2)
 698:	0100                	addi	s0,sp,128
 69a:	00090003          	lb	zero,0(s2)
 69e:	0100                	addi	s0,sp,128
 6a0:	00090203          	lb	tp,0(s2)
 6a4:	0100                	addi	s0,sp,128
 6a6:	0b05                	addi	s6,s6,1
 6a8:	0306                	slli	t1,t1,0x1
 6aa:	0900                	addi	s0,sp,144
 6ac:	0000                	unimp
 6ae:	0501                	addi	a0,a0,0
 6b0:	0314                	addi	a3,sp,384
 6b2:	0900                	addi	s0,sp,144
 6b4:	0004                	0x4
 6b6:	0501                	addi	a0,a0,0
 6b8:	0308                	addi	a0,sp,384
 6ba:	097e                	slli	s2,s2,0x1f
 6bc:	0004                	0x4
 6be:	0501                	addi	a0,a0,0
 6c0:	097d030b          	0x97d030b
 6c4:	0014                	0x14
 6c6:	0501                	addi	a0,a0,0
 6c8:	0308                	addi	a0,sp,384
 6ca:	00040903          	lb	s2,0(s0)
 6ce:	0501                	addi	a0,a0,0
 6d0:	0908030b          	0x908030b
 6d4:	0004                	0x4
 6d6:	0501                	addi	a0,a0,0
 6d8:	0321                	addi	t1,t1,8
 6da:	097a                	slli	s2,s2,0x1e
 6dc:	0004                	0x4
 6de:	0501                	addi	a0,a0,0
 6e0:	0605                	addi	a2,a2,1
 6e2:	04090203          	lb	tp,64(s2)
 6e6:	0100                	addi	s0,sp,128
 6e8:	0705                	addi	a4,a4,1
 6ea:	0306                	slli	t1,t1,0x1
 6ec:	0900                	addi	s0,sp,144
 6ee:	0000                	unimp
 6f0:	0501                	addi	a0,a0,0
 6f2:	0605                	addi	a2,a2,1
 6f4:	04090103          	lb	sp,64(s2)
 6f8:	0100                	addi	s0,sp,128
 6fa:	00090003          	lb	zero,0(s2)
 6fe:	0100                	addi	s0,sp,128
 700:	00090003          	lb	zero,0(s2)
 704:	0100                	addi	s0,sp,128
 706:	00090003          	lb	zero,0(s2)
 70a:	0100                	addi	s0,sp,128
 70c:	00090003          	lb	zero,0(s2)
 710:	0100                	addi	s0,sp,128
 712:	0705                	addi	a4,a4,1
 714:	0306                	slli	t1,t1,0x1
 716:	00040943          	fmadd.s	fs2,fs0,ft0,ft0,rne
 71a:	0301                	addi	t1,t1,0
 71c:	097f                	0x97f
 71e:	0004                	0x4
 720:	0901                	addi	s2,s2,0
 722:	0008                	0x8
 724:	0100                	addi	s0,sp,128
 726:	3b01                	jal	436 <main-0xfc3e>
 728:	0000                	unimp
 72a:	0500                	addi	s0,sp,640
 72c:	0400                	addi	s0,sp,512
 72e:	3300                	fld	fs0,32(a4)
 730:	0000                	unimp
 732:	0100                	addi	s0,sp,128
 734:	0101                	addi	sp,sp,0
 736:	000d0efb          	0xd0efb
 73a:	0101                	addi	sp,sp,0
 73c:	0101                	addi	sp,sp,0
 73e:	0000                	unimp
 740:	0100                	addi	s0,sp,128
 742:	0000                	unimp
 744:	0101                	addi	sp,sp,0
 746:	1f01                	addi	t5,t5,-32
 748:	2c02                	fld	fs8,0(sp)
 74a:	0000                	unimp
 74c:	8e00                	0x8e00
 74e:	0000                	unimp
 750:	0200                	addi	s0,sp,256
 752:	1f01                	addi	t5,t5,-32
 754:	0f02                	c.slli64	t5
 756:	00000003          	lb	zero,0(zero) # 0 <main-0x10074>
 75a:	0000                	unimp
 75c:	00b0                	addi	a2,sp,72
 75e:	0000                	unimp
 760:	2201                	jal	860 <main-0xf814>
 762:	0000                	unimp
 764:	0100                	addi	s0,sp,128

Disassembly of section .debug_str:

00000000 <.debug_str>:
   0:	5744                	lw	s1,44(a4)
   2:	6e75                	lui	t3,0x1d
   4:	6f69                	lui	t5,0x1a
   6:	006e                	c.slli	zero,0x1b
   8:	5f5f 6475 7669      	0x766964755f5f
   e:	6964                	flw	fs1,84(a0)
  10:	6f630033          	0x6f630033
  14:	706d                	c.lui	zero,0xffffb
  16:	656c                	flw	fa1,76(a0)
  18:	2078                	fld	fa4,192(s0)
  1a:	6c66                	flw	fs8,88(sp)
  1c:	0074616f          	jal	sp,46822 <__global_pointer$+0x33642>
  20:	726f6873          	csrrsi	a6,0x726,30
  24:	2074                	fld	fa3,192(s0)
  26:	6e69                	lui	t3,0x1a
  28:	0074                	addi	a3,sp,12
  2a:	20554e47          	fmsub.s	ft8,fa0,ft5,ft4,rmm
  2e:	20373143          	fmadd.s	ft2,fa4,ft3,ft4,rup
  32:	3131                	jal	fffffc3e <__global_pointer$+0xfffeca5e>
  34:	312e                	fld	ft2,232(sp)
  36:	302e                	fld	ft0,232(sp)
  38:	2d20                	fld	fs0,88(a0)
  3a:	636d                	lui	t1,0x1b
  3c:	6f6d                	lui	t5,0x1b
  3e:	6564                	flw	fs1,76(a0)
  40:	3d6c                	fld	fa1,248(a0)
  42:	656d                	lui	a0,0x1b
  44:	6c64                	flw	fs1,92(s0)
  46:	2d20776f          	jal	a4,7318 <main-0x8d5c>
  4a:	616d                	addi	sp,sp,240
  4c:	6372                	flw	ft6,28(sp)
  4e:	3d68                	fld	fa0,248(a0)
  50:	7672                	flw	fa2,60(sp)
  52:	6d693233          	0x6d693233
  56:	2066                	fld	ft0,88(sp)
  58:	6d2d                	lui	s10,0xb
  5a:	6261                	lui	tp,0x18
  5c:	3d69                	jal	fffffef6 <__global_pointer$+0xfffecd16>
  5e:	6c69                	lui	s8,0x1a
  60:	3370                	fld	fa2,224(a4)
  62:	6632                	flw	fa2,12(sp)
  64:	2d20                	fld	fs0,88(a0)
  66:	636d                	lui	t1,0x1b
  68:	6f6d                	lui	t5,0x1b
  6a:	6564                	flw	fs1,76(a0)
  6c:	3d6c                	fld	fa1,248(a0)
  6e:	656d                	lui	a0,0x1b
  70:	6c64                	flw	fs1,92(s0)
  72:	2d20776f          	jal	a4,7344 <main-0x8d30>
  76:	746d                	lui	s0,0xffffb
  78:	6e75                	lui	t3,0x1d
  7a:	3d65                	jal	ffffff32 <__global_pointer$+0xfffecd52>
  7c:	6f72                	flw	ft10,28(sp)
  7e:	74656b63          	bltu	a0,t1,7d4 <main-0xf8a0>
  82:	2d20                	fld	fs0,88(a0)
  84:	616d                	addi	sp,sp,240
  86:	6372                	flw	ft6,28(sp)
  88:	3d68                	fld	fa0,248(a0)
  8a:	7672                	flw	fa2,60(sp)
  8c:	6d693233          	0x6d693233
  90:	2066                	fld	ft0,88(sp)
  92:	672d                	lui	a4,0xb
  94:	2d20                	fld	fs0,88(a0)
  96:	2d20734f          	0x2d20734f
  9a:	2d20324f          	0x2d20324f
  9e:	2d20734f          	0x2d20734f
  a2:	6266                	flw	ft4,88(sp)
  a4:	6975                	lui	s2,0x1d
  a6:	646c                	flw	fa1,76(s0)
  a8:	6e69                	lui	t3,0x1a
  aa:	696c2d67          	0x696c2d67
  ae:	6762                	flw	fa4,24(sp)
  b0:	2d206363          	bltu	zero,s2,376 <main-0xfcfe>
  b4:	6e66                	flw	ft8,88(sp)
  b6:	74732d6f          	jal	s10,32ffc <__global_pointer$+0x1fe1c>
  ba:	6361                	lui	t1,0x18
  bc:	72702d6b          	0x72702d6b
  c0:	6365746f          	jal	s0,576f6 <__global_pointer$+0x44516>
  c4:	6f74                	flw	fa3,92(a4)
  c6:	2072                	fld	ft0,280(sp)
  c8:	662d                	lui	a2,0xb
  ca:	7361                	lui	t1,0xffff8
  cc:	6e79                	lui	t3,0x1e
  ce:	6f726863          	bltu	tp,s7,7be <main-0xf8b6>
  d2:	6f6e                	flw	ft10,216(sp)
  d4:	7375                	lui	t1,0xffffd
  d6:	752d                	lui	a0,0xfffeb
  d8:	776e                	flw	fa4,248(sp)
  da:	6e69                	lui	t3,0x1a
  dc:	2d64                	fld	fs1,216(a0)
  de:	6174                	flw	fa3,68(a0)
  e0:	6c62                	flw	fs8,24(sp)
  e2:	7365                	lui	t1,0xffff9
  e4:	2d20                	fld	fs0,88(a0)
  e6:	7666                	flw	fa2,120(sp)
  e8:	7369                	lui	t1,0xffffa
  ea:	6269                	lui	tp,0x1a
  ec:	6c69                	lui	s8,0x1a
  ee:	7469                	lui	s0,0xffffa
  f0:	3d79                	jal	ffffff8e <__global_pointer$+0xfffecdae>
  f2:	6968                	flw	fa0,84(a0)
  f4:	6464                	flw	fs1,76(s0)
  f6:	6e65                	lui	t3,0x19
  f8:	5f00                	lw	s0,56(a4)
  fa:	645f 0030 5f5f      	0x5f5f0030645f
 100:	3164                	fld	fs1,224(a0)
 102:	5f00                	lw	s0,56(a4)
 104:	765f 0068 5f5f      	0x5f5f0068765f
 10a:	6c76                	flw	fs8,92(sp)
 10c:	6c00                	flw	fs0,24(s0)
 10e:	20676e6f          	jal	t3,76314 <__global_pointer$+0x63134>
 112:	6f6c                	flw	fa1,92(a4)
 114:	676e                	flw	fa4,216(sp)
 116:	6920                	flw	fs0,80(a0)
 118:	746e                	flw	fs0,248(sp)
 11a:	6c00                	flw	fs0,24(s0)
 11c:	20676e6f          	jal	t3,76322 <__global_pointer$+0x63142>
 120:	6f6c                	flw	fa1,92(a4)
 122:	676e                	flw	fa4,216(sp)
 124:	7520                	flw	fs0,104(a0)
 126:	736e                	flw	ft6,248(sp)
 128:	6769                	lui	a4,0x1a
 12a:	656e                	flw	fa0,216(sp)
 12c:	2064                	fld	fs1,192(s0)
 12e:	6e69                	lui	t3,0x1a
 130:	0074                	addi	a3,sp,12
 132:	6968                	flw	fa0,84(a0)
 134:	5f006867          	0x5f006867
 138:	635f 7a6c 745f      	0x745f7a6c635f
 13e:	6261                	lui	tp,0x18
 140:	7500                	flw	fs0,40(a0)
 142:	736e                	flw	ft6,248(sp)
 144:	6769                	lui	a4,0x1a
 146:	656e                	flw	fa0,216(sp)
 148:	2064                	fld	fs1,192(s0)
 14a:	72616863          	bltu	sp,t1,87a <main-0xf7fa>
 14e:	5f00                	lw	s0,56(a4)
 150:	785f 0030 5f5f      	0x5f5f0030785f
 156:	3178                	fld	fa4,224(a0)
 158:	5f00                	lw	s0,56(a4)
 15a:	785f 0032 5f5f      	0x5f5f0032785f
 160:	3378                	fld	fa4,224(a4)
 162:	5500                	lw	s0,40(a0)
 164:	4951                	li	s2,20
 166:	7974                	flw	fa3,116(a0)
 168:	6570                	flw	fa2,76(a0)
 16a:	4400                	lw	s0,8(s0)
 16c:	72747357          	0x72747357
 170:	6375                	lui	t1,0x1d
 172:	0074                	addi	a3,sp,12
 174:	726f6873          	csrrsi	a6,0x726,30
 178:	2074                	fld	fa3,192(s0)
 17a:	6e75                	lui	t3,0x1d
 17c:	6e676973          	csrrsi	s2,0x6e6,14
 180:	6465                	lui	s0,0x19
 182:	6920                	flw	fs0,80(a0)
 184:	746e                	flw	fs0,248(sp)
 186:	5500                	lw	s0,40(a0)
 188:	4944                	lw	s1,20(a0)
 18a:	7974                	flw	fa3,116(a0)
 18c:	6570                	flw	fa2,76(a0)
 18e:	5f00                	lw	s0,56(a4)
 190:	715f 0030 5f5f      	0x5f5f0030715f
 196:	3171                	jal	fffffe22 <__global_pointer$+0xfffecc42>
 198:	6300                	flw	fs0,0(a4)
 19a:	6c706d6f          	jal	s10,7060 <main-0x9014>
 19e:	7865                	lui	a6,0xffff9
 1a0:	6420                	flw	fs0,72(s0)
 1a2:	6c62756f          	jal	a0,27868 <__global_pointer$+0x14688>
 1a6:	0065                	c.nop	25
 1a8:	5f5f 7278 5f00      	0x5f0072785f5f
 1ae:	755f 6964 6d76      	0x6d766964755f
 1b4:	6964646f          	jal	s0,4684a <__global_pointer$+0x3366a>
 1b8:	0034                	addi	a3,sp,8
 1ba:	706d6f63          	bltu	s10,t1,8d8 <main-0xf79c>
 1be:	656c                	flw	fa1,76(a0)
 1c0:	2078                	fld	fa4,192(s0)
 1c2:	6f6c                	flw	fa1,92(a4)
 1c4:	676e                	flw	fa4,216(sp)
 1c6:	6420                	flw	fs0,72(s0)
 1c8:	6c62756f          	jal	a0,2788e <__global_pointer$+0x146ae>
 1cc:	0065                	c.nop	25
 1ce:	5355                	li	t1,-11
 1d0:	7449                	lui	s0,0xffff2
 1d2:	7079                	c.lui	zero,0xffffe
 1d4:	0065                	c.nop	25
 1d6:	5f5f 3072 5f00      	0x5f0030725f5f
 1dc:	725f 0031 5f5f      	0x5f5f0031725f
 1e2:	6875                	lui	a6,0x1d
 1e4:	5f00                	lw	s0,56(a4)
 1e6:	755f 006c 4e47      	0x4e47006c755f
 1ec:	2055                	jal	290 <main-0xfde4>
 1ee:	20373143          	fmadd.s	ft2,fa4,ft3,ft4,rup
 1f2:	3131                	jal	fffffdfe <__global_pointer$+0xfffecc1e>
 1f4:	312e                	fld	ft2,232(sp)
 1f6:	302e                	fld	ft0,232(sp)
 1f8:	2d20                	fld	fs0,88(a0)
 1fa:	636d                	lui	t1,0x1b
 1fc:	6f6d                	lui	t5,0x1b
 1fe:	6564                	flw	fs1,76(a0)
 200:	3d6c                	fld	fa1,248(a0)
 202:	656d                	lui	a0,0x1b
 204:	6c64                	flw	fs1,92(s0)
 206:	2d20776f          	jal	a4,74d8 <main-0x8b9c>
 20a:	616d                	addi	sp,sp,240
 20c:	6372                	flw	ft6,28(sp)
 20e:	3d68                	fld	fa0,248(a0)
 210:	7672                	flw	fa2,60(sp)
 212:	6d693233          	0x6d693233
 216:	2066                	fld	ft0,88(sp)
 218:	6d2d                	lui	s10,0xb
 21a:	6261                	lui	tp,0x18
 21c:	3d69                	jal	b6 <main-0xffbe>
 21e:	6c69                	lui	s8,0x1a
 220:	3370                	fld	fa2,224(a4)
 222:	6632                	flw	fa2,12(sp)
 224:	2d20                	fld	fs0,88(a0)
 226:	636d                	lui	t1,0x1b
 228:	6f6d                	lui	t5,0x1b
 22a:	6564                	flw	fs1,76(a0)
 22c:	3d6c                	fld	fa1,248(a0)
 22e:	656d                	lui	a0,0x1b
 230:	6c64                	flw	fs1,92(s0)
 232:	2d20776f          	jal	a4,7504 <main-0x8b70>
 236:	746d                	lui	s0,0xffffb
 238:	6e75                	lui	t3,0x1d
 23a:	3d65                	jal	f2 <main-0xff82>
 23c:	6f72                	flw	ft10,28(sp)
 23e:	74656b63          	bltu	a0,t1,994 <main-0xf6e0>
 242:	2d20                	fld	fs0,88(a0)
 244:	616d                	addi	sp,sp,240
 246:	6372                	flw	ft6,28(sp)
 248:	3d68                	fld	fa0,248(a0)
 24a:	7672                	flw	fa2,60(sp)
 24c:	6d693233          	0x6d693233
 250:	2066                	fld	ft0,88(sp)
 252:	672d                	lui	a4,0xb
 254:	2d20                	fld	fs0,88(a0)
 256:	2d20734f          	0x2d20734f
 25a:	2d20324f          	0x2d20324f
 25e:	2d20734f          	0x2d20734f
 262:	6266                	flw	ft4,88(sp)
 264:	6975                	lui	s2,0x1d
 266:	646c                	flw	fa1,76(s0)
 268:	6e69                	lui	t3,0x1a
 26a:	696c2d67          	0x696c2d67
 26e:	6762                	flw	fa4,24(sp)
 270:	2d206363          	bltu	zero,s2,536 <main-0xfb3e>
 274:	6e66                	flw	ft8,88(sp)
 276:	74732d6f          	jal	s10,331bc <__global_pointer$+0x1ffdc>
 27a:	6361                	lui	t1,0x18
 27c:	72702d6b          	0x72702d6b
 280:	6365746f          	jal	s0,578b6 <__global_pointer$+0x446d6>
 284:	6f74                	flw	fa3,92(a4)
 286:	2072                	fld	ft0,280(sp)
 288:	662d                	lui	a2,0xb
 28a:	6976                	flw	fs2,92(sp)
 28c:	69626973          	csrrsi	s2,0x696,4
 290:	696c                	flw	fa1,84(a0)
 292:	7974                	flw	fa3,116(a0)
 294:	683d                	lui	a6,0xf
 296:	6469                	lui	s0,0x1a
 298:	6564                	flw	fs1,76(a0)
 29a:	006e                	c.slli	zero,0x1b

Disassembly of section .debug_line_str:

00000000 <.debug_line_str>:
   0:	2e2e                	fld	ft8,200(sp)
   2:	2f2e2e2f          	0x2f2e2e2f
   6:	2e2e                	fld	ft8,200(sp)
   8:	2f2e2e2f          	0x2f2e2e2f
   c:	2e2e                	fld	ft8,200(sp)
   e:	722f2e2f          	0x722f2e2f
  12:	7369                	lui	t1,0xffffa
  14:	672d7663          	bgeu	s10,s2,680 <main-0xf9f4>
  18:	6c2f6363          	bltu	t5,sp,6de <main-0xf996>
  1c:	6269                	lui	tp,0x1a
  1e:	2f636367          	0x2f636367
  22:	696c                	flw	fa1,84(a0)
  24:	6762                	flw	fa4,24(sp)
  26:	2e326363          	bltu	tp,gp,30c <main-0xfd68>
  2a:	682f0063          	beq	t5,sp,6aa <main-0xf9ca>
  2e:	2f656d6f          	jal	s10,56324 <__global_pointer$+0x43144>
  32:	6e65                	lui	t3,0x19
  34:	2f6e6967          	0x2f6e6967
  38:	6972                	flw	fs2,28(sp)
  3a:	2d766373          	csrrsi	t1,0x2d7,12
  3e:	2d756e67          	0x2d756e67
  42:	6f74                	flw	fa3,92(a4)
  44:	68636c6f          	jal	s8,366ca <__global_pointer$+0x234ea>
  48:	6961                	lui	s2,0x18
  4a:	2f6e                	fld	ft10,216(sp)
  4c:	7562                	flw	fa0,56(sp)
  4e:	6c69                	lui	s8,0x1a
  50:	2d64                	fld	fs1,216(a0)
  52:	2d636367          	0x2d636367
  56:	656e                	flw	fa0,216(sp)
  58:	62696c77          	0x62696c77
  5c:	732d                	lui	t1,0xfffeb
  5e:	6174                	flw	fa3,68(a0)
  60:	2f326567          	0x2f326567
  64:	6972                	flw	fs2,28(sp)
  66:	36766373          	csrrsi	t1,0x367,12
  6a:	2d34                	fld	fa3,88(a0)
  6c:	6e75                	lui	t3,0x1d
  6e:	776f6e6b          	0x776f6e6b
  72:	2d6e                	fld	fs10,216(sp)
  74:	6c65                	lui	s8,0x19
  76:	2f66                	fld	ft10,88(sp)
  78:	7672                	flw	fa2,60(sp)
  7a:	6d693233          	0x6d693233
  7e:	2f66                	fld	ft10,88(sp)
  80:	6c69                	lui	s8,0x1a
  82:	3370                	fld	fa2,224(a4)
  84:	6632                	flw	fa2,12(sp)
  86:	62696c2f          	0x62696c2f
  8a:	00636367          	0x636367
  8e:	2e2e                	fld	ft8,200(sp)
  90:	2f2e2e2f          	0x2f2e2e2f
  94:	2e2e                	fld	ft8,200(sp)
  96:	2f2e2e2f          	0x2f2e2e2f
  9a:	2e2e                	fld	ft8,200(sp)
  9c:	722f2e2f          	0x722f2e2f
  a0:	7369                	lui	t1,0xffffa
  a2:	672d7663          	bgeu	s10,s2,70e <main-0xf966>
  a6:	6c2f6363          	bltu	t5,sp,76c <main-0xf908>
  aa:	6269                	lui	tp,0x1a
  ac:	00636367          	0x636367
  b0:	696c                	flw	fa1,84(a0)
  b2:	6762                	flw	fa4,24(sp)
  b4:	2e326363          	bltu	tp,gp,39a <main-0xfcda>
  b8:	0068                	addi	a0,sp,12

Disassembly of section .debug_loclists:

00000000 <.debug_loclists>:
   0:	0a95                	addi	s5,s5,5
   2:	0000                	unimp
   4:	0005                	c.nop	1
   6:	0004                	0x4
   8:	0000                	unimp
   a:	0000                	unimp
   c:	010c2007          	flw	ft0,16(s8) # 1a010 <__global_pointer$+0x6e30>
  10:	5800                	lw	s0,48(s0)
  12:	010c                	addi	a1,sp,128
  14:	0600                	addi	s0,sp,768
  16:	935a                	add	t1,t1,s6
  18:	5b04                	lw	s1,48(a4)
  1a:	58070493          	addi	s1,a4,1408 # b580 <main-0x4af4>
  1e:	010c                	addi	a1,sp,128
  20:	1800                	addi	s0,sp,48
  22:	010d                	addi	sp,sp,3
  24:	0600                	addi	s0,sp,768
  26:	0aa503a3          	sb	a0,167(a0) # 1b0a7 <__global_pointer$+0x7ec7>
  2a:	9f26                	add	t5,t5,s1
  2c:	010d1807          	0x10d1807
  30:	1c00                	addi	s0,sp,560
  32:	010d                	addi	sp,sp,3
  34:	0600                	addi	s0,sp,768
  36:	935a                	add	t1,t1,s6
  38:	5b04                	lw	s1,48(a4)
  3a:	1c070493          	addi	s1,a4,448
  3e:	010d                	addi	sp,sp,3
  40:	2c00                	fld	fs0,24(s0)
  42:	010d                	addi	sp,sp,3
  44:	0600                	addi	s0,sp,768
  46:	0aa503a3          	sb	a0,167(a0)
  4a:	9f26                	add	t5,t5,s1
  4c:	010d2c07          	flw	fs8,16(s10) # b010 <main-0x5064>
  50:	6c00                	flw	fs0,24(s0)
  52:	010d                	addi	sp,sp,3
  54:	0600                	addi	s0,sp,768
  56:	935a                	add	t1,t1,s6
  58:	5b04                	lw	s1,48(a4)
  5a:	6c070493          	addi	s1,a4,1728
  5e:	010d                	addi	sp,sp,3
  60:	f800                	fsw	fs0,48(s0)
  62:	010d                	addi	sp,sp,3
  64:	0600                	addi	s0,sp,768
  66:	0aa503a3          	sb	a0,167(a0)
  6a:	9f26                	add	t5,t5,s1
  6c:	010df807          	0x10df807
  70:	1800                	addi	s0,sp,48
  72:	010e                	slli	sp,sp,0x3
  74:	0600                	addi	s0,sp,768
  76:	935a                	add	t1,t1,s6
  78:	5b04                	lw	s1,48(a4)
  7a:	18070493          	addi	s1,a4,384
  7e:	010e                	slli	sp,sp,0x3
  80:	b800                	fsd	fs0,48(s0)
  82:	010e                	slli	sp,sp,0x3
  84:	0600                	addi	s0,sp,768
  86:	0aa503a3          	sb	a0,167(a0)
  8a:	9f26                	add	t5,t5,s1
  8c:	010eb807          	fld	fa6,16(t4)
  90:	f800                	fsw	fs0,48(s0)
  92:	010e                	slli	sp,sp,0x3
  94:	0600                	addi	s0,sp,768
  96:	935a                	add	t1,t1,s6
  98:	5b04                	lw	s1,48(a4)
  9a:	f8070493          	addi	s1,a4,-128
  9e:	010e                	slli	sp,sp,0x3
  a0:	0800                	addi	s0,sp,16
  a2:	0600010f          	0x600010f
  a6:	0aa503a3          	sb	a0,167(a0)
  aa:	9f26                	add	t5,t5,s1
  ac:	010f0807          	0x10f0807
  b0:	5800                	lw	s0,48(s0)
  b2:	0600010f          	0x600010f
  b6:	935a                	add	t1,t1,s6
  b8:	5b04                	lw	s1,48(a4)
  ba:	58070493          	addi	s1,a4,1408
  be:	4400010f          	0x4400010f
  c2:	0110                	addi	a2,sp,128
  c4:	0600                	addi	s0,sp,768
  c6:	0aa503a3          	sb	a0,167(a0)
  ca:	9f26                	add	t5,t5,s1
  cc:	01104407          	flq	fs0,17(zero) # 11 <main-0x10063>
  d0:	4c00                	lw	s0,24(s0)
  d2:	0110                	addi	a2,sp,128
  d4:	0600                	addi	s0,sp,768
  d6:	935a                	add	t1,t1,s6
  d8:	5b04                	lw	s1,48(a4)
  da:	4c070493          	addi	s1,a4,1216
  de:	0110                	addi	a2,sp,128
  e0:	5000                	lw	s0,32(s0)
  e2:	0110                	addi	a2,sp,128
  e4:	0600                	addi	s0,sp,768
  e6:	0aa503a3          	sb	a0,167(a0)
  ea:	9f26                	add	t5,t5,s1
  ec:	0700                	addi	s0,sp,896
  ee:	0c20                	addi	s0,sp,536
  f0:	0001                	nop
  f2:	0c94                	addi	a3,sp,592
  f4:	0001                	nop
  f6:	5c06                	lw	s8,96(sp)
  f8:	935d0493          	addi	s1,s10,-1739
  fc:	0704                	addi	s1,sp,896
  fe:	0c94                	addi	a3,sp,592
 100:	0001                	nop
 102:	0d18                	addi	a4,sp,656
 104:	0001                	nop
 106:	a306                	fsd	ft1,384(sp)
 108:	260ca503          	lw	a0,608(s9)
 10c:	079f 0d18 0001      	0x10d18079f
 112:	0d6c                	addi	a1,sp,668
 114:	0001                	nop
 116:	5c06                	lw	s8,96(sp)
 118:	935d0493          	addi	s1,s10,-1739
 11c:	0704                	addi	s1,sp,896
 11e:	0d6c                	addi	a1,sp,668
 120:	0001                	nop
 122:	0df8                	addi	a4,sp,732
 124:	0001                	nop
 126:	a306                	fsd	ft1,384(sp)
 128:	260ca503          	lw	a0,608(s9)
 12c:	079f 0df8 0001      	0x10df8079f
 132:	0e28                	addi	a0,sp,792
 134:	0001                	nop
 136:	5c06                	lw	s8,96(sp)
 138:	935d0493          	addi	s1,s10,-1739
 13c:	0704                	addi	s1,sp,896
 13e:	0e28                	addi	a0,sp,792
 140:	0001                	nop
 142:	0eb8                	addi	a4,sp,856
 144:	0001                	nop
 146:	a306                	fsd	ft1,384(sp)
 148:	260ca503          	lw	a0,608(s9)
 14c:	079f 0eb8 0001      	0x10eb8079f
 152:	0f4c                	addi	a1,sp,916
 154:	0001                	nop
 156:	5c06                	lw	s8,96(sp)
 158:	935d0493          	addi	s1,s10,-1739
 15c:	0704                	addi	s1,sp,896
 15e:	0f4c                	addi	a1,sp,916
 160:	0001                	nop
 162:	1044                	addi	s1,sp,36
 164:	0001                	nop
 166:	a306                	fsd	ft1,384(sp)
 168:	260ca503          	lw	a0,608(s9)
 16c:	079f 1044 0001      	0x11044079f
 172:	1050                	addi	a2,sp,36
 174:	0001                	nop
 176:	5c06                	lw	s8,96(sp)
 178:	935d0493          	addi	s1,s10,-1739
 17c:	0004                	0x4
 17e:	010c2007          	flw	ft0,16(s8)
 182:	1400                	addi	s0,sp,544
 184:	010d                	addi	sp,sp,3
 186:	0200                	addi	s0,sp,256
 188:	9f30                	0x9f30
 18a:	010d1807          	0x10d1807
 18e:	5000                	lw	s0,32(s0)
 190:	0110                	addi	a2,sp,128
 192:	0200                	addi	s0,sp,256
 194:	9f30                	0x9f30
 196:	0700                	addi	s0,sp,896
 198:	0c20                	addi	s0,sp,536
 19a:	0001                	nop
 19c:	0c48                	addi	a0,sp,532
 19e:	0001                	nop
 1a0:	5c06                	lw	s8,96(sp)
 1a2:	935d0493          	addi	s1,s10,-1739
 1a6:	0704                	addi	s1,sp,896
 1a8:	0d2c                	addi	a1,sp,664
 1aa:	0001                	nop
 1ac:	0d40                	addi	s0,sp,660
 1ae:	0001                	nop
 1b0:	5c06                	lw	s8,96(sp)
 1b2:	935d0493          	addi	s1,s10,-1739
 1b6:	0704                	addi	s1,sp,896
 1b8:	0df8                	addi	a4,sp,732
 1ba:	0001                	nop
 1bc:	0e00                	addi	s0,sp,784
 1be:	0001                	nop
 1c0:	5c06                	lw	s8,96(sp)
 1c2:	935d0493          	addi	s1,s10,-1739
 1c6:	0704                	addi	s1,sp,896
 1c8:	0eb8                	addi	a4,sp,856
 1ca:	0001                	nop
 1cc:	0f24                	addi	s1,sp,920
 1ce:	0001                	nop
 1d0:	5c06                	lw	s8,96(sp)
 1d2:	935d0493          	addi	s1,s10,-1739
 1d6:	0704                	addi	s1,sp,896
 1d8:	1044                	addi	s1,sp,36
 1da:	0001                	nop
 1dc:	1050                	addi	a2,sp,36
 1de:	0001                	nop
 1e0:	5c06                	lw	s8,96(sp)
 1e2:	935d0493          	addi	s1,s10,-1739
 1e6:	0004                	0x4
 1e8:	010c2007          	flw	ft0,16(s8)
 1ec:	3c00                	fld	fs0,56(s0)
 1ee:	010c                	addi	a1,sp,128
 1f0:	0600                	addi	s0,sp,768
 1f2:	935a                	add	t1,t1,s6
 1f4:	5b04                	lw	s1,48(a4)
 1f6:	3c070493          	addi	s1,a4,960
 1fa:	010c                	addi	a1,sp,128
 1fc:	5800                	lw	s0,48(s0)
 1fe:	010c                	addi	a1,sp,128
 200:	0600                	addi	s0,sp,768
 202:	935a                	add	t1,t1,s6
 204:	5f04                	lw	s1,56(a4)
 206:	58070493          	addi	s1,a4,1408
 20a:	010c                	addi	a1,sp,128
 20c:	7800                	flw	fs0,48(s0)
 20e:	010c                	addi	a1,sp,128
 210:	0600                	addi	s0,sp,768
 212:	9356                	add	t1,t1,s5
 214:	5f04                	lw	s1,56(a4)
 216:	78070493          	addi	s1,a4,1920
 21a:	010c                	addi	a1,sp,128
 21c:	9000                	0x9000
 21e:	010c                	addi	a1,sp,128
 220:	0600                	addi	s0,sp,768
 222:	9356                	add	t1,t1,s5
 224:	6104                	flw	fs1,0(a0)
 226:	18070493          	addi	s1,a4,384
 22a:	010d                	addi	sp,sp,3
 22c:	3800                	fld	fs0,48(s0)
 22e:	010d                	addi	sp,sp,3
 230:	0600                	addi	s0,sp,768
 232:	9356                	add	t1,t1,s5
 234:	5f04                	lw	s1,56(a4)
 236:	38070493          	addi	s1,a4,896
 23a:	010d                	addi	sp,sp,3
 23c:	6c00                	flw	fs0,24(s0)
 23e:	010d                	addi	sp,sp,3
 240:	0600                	addi	s0,sp,768
 242:	9356                	add	t1,t1,s5
 244:	6104                	flw	fs1,0(a0)
 246:	f8070493          	addi	s1,a4,-128
 24a:	010d                	addi	sp,sp,3
 24c:	2400                	fld	fs0,8(s0)
 24e:	010e                	slli	sp,sp,0x3
 250:	0600                	addi	s0,sp,768
 252:	9356                	add	t1,t1,s5
 254:	6104                	flw	fs1,0(a0)
 256:	b8070493          	addi	s1,a4,-1152
 25a:	010e                	slli	sp,sp,0x3
 25c:	d800                	sw	s0,48(s0)
 25e:	010e                	slli	sp,sp,0x3
 260:	0600                	addi	s0,sp,768
 262:	9356                	add	t1,t1,s5
 264:	5b04                	lw	s1,48(a4)
 266:	d8070493          	addi	s1,a4,-640
 26a:	010e                	slli	sp,sp,0x3
 26c:	0800                	addi	s0,sp,16
 26e:	0600010f          	0x600010f
 272:	9356                	add	t1,t1,s5
 274:	6104                	flw	fs1,0(a0)
 276:	08070493          	addi	s1,a4,128
 27a:	1c00010f          	0x1c00010f
 27e:	0600010f          	0x600010f
 282:	9356                	add	t1,t1,s5
 284:	5b04                	lw	s1,48(a4)
 286:	1c070493          	addi	s1,a4,448
 28a:	3000010f          	0x3000010f
 28e:	0600010f          	0x600010f
 292:	9356                	add	t1,t1,s5
 294:	6104                	flw	fs1,0(a0)
 296:	44070493          	addi	s1,a4,1088
 29a:	0110                	addi	a2,sp,128
 29c:	4800                	lw	s0,16(s0)
 29e:	0110                	addi	a2,sp,128
 2a0:	0600                	addi	s0,sp,768
 2a2:	9356                	add	t1,t1,s5
 2a4:	5b04                	lw	s1,48(a4)
 2a6:	48070493          	addi	s1,a4,1152
 2aa:	0110                	addi	a2,sp,128
 2ac:	5000                	lw	s0,32(s0)
 2ae:	0110                	addi	a2,sp,128
 2b0:	0600                	addi	s0,sp,768
 2b2:	9356                	add	t1,t1,s5
 2b4:	5f04                	lw	s1,56(a4)
 2b6:	07000493          	li	s1,112
 2ba:	0c2c                	addi	a1,sp,536
 2bc:	0001                	nop
 2be:	0c74                	addi	a3,sp,540
 2c0:	0001                	nop
 2c2:	5c01                	li	s8,-32
 2c4:	010c7407          	0x10c7407
 2c8:	8000                	0x8000
 2ca:	010c                	addi	a1,sp,128
 2cc:	0900                	addi	s0,sp,144
 2ce:	007c                	addi	a5,sp,12
 2d0:	ff08007b          	0xff08007b
 2d4:	241a                	fld	fs0,384(sp)
 2d6:	079f 0c80 0001      	0x10c80079f
 2dc:	0d10                	addi	a2,sp,656
 2de:	0001                	nop
 2e0:	5e01                	li	t3,-32
 2e2:	010d1807          	0x10d1807
 2e6:	6c00                	flw	fs0,24(s0)
 2e8:	010d                	addi	sp,sp,3
 2ea:	0100                	addi	s0,sp,128
 2ec:	075c                	addi	a5,sp,900
 2ee:	0d6c                	addi	a1,sp,668
 2f0:	0001                	nop
 2f2:	0df8                	addi	a4,sp,732
 2f4:	0001                	nop
 2f6:	5e01                	li	t3,-32
 2f8:	010df807          	0x10df807
 2fc:	0c00                	addi	s0,sp,528
 2fe:	010e                	slli	sp,sp,0x3
 300:	0100                	addi	s0,sp,128
 302:	075c                	addi	a5,sp,900
 304:	0e0c                	addi	a1,sp,784
 306:	0001                	nop
 308:	0e10                	addi	a2,sp,784
 30a:	0001                	nop
 30c:	7c09                	lui	s8,0xfffe2
 30e:	7b00                	flw	fs0,48(a4)
 310:	0800                	addi	s0,sp,16
 312:	1aff                	0x1aff
 314:	9f24                	0x9f24
 316:	010e1007          	0x10e1007
 31a:	b800                	fsd	fs0,48(s0)
 31c:	010e                	slli	sp,sp,0x3
 31e:	0100                	addi	s0,sp,128
 320:	075e                	slli	a4,a4,0x17
 322:	0eb8                	addi	a4,sp,856
 324:	0001                	nop
 326:	0fe4                	addi	s1,sp,988
 328:	0001                	nop
 32a:	5c01                	li	s8,-32
 32c:	01104407          	flq	fs0,17(zero) # 11 <main-0x10063>
 330:	5000                	lw	s0,32(s0)
 332:	0110                	addi	a2,sp,128
 334:	0100                	addi	s0,sp,128
 336:	005c                	addi	a5,sp,4
 338:	010c2c07          	flw	fs8,16(s8) # fffe2010 <__global_pointer$+0xfffcee30>
 33c:	4800                	lw	s0,16(s0)
 33e:	010c                	addi	a1,sp,128
 340:	0100                	addi	s0,sp,128
 342:	075d                	addi	a4,a4,23
 344:	0d2c                	addi	a1,sp,664
 346:	0001                	nop
 348:	0d40                	addi	s0,sp,660
 34a:	0001                	nop
 34c:	5d01                	li	s10,-32
 34e:	010df807          	0x10df807
 352:	0000                	unimp
 354:	010e                	slli	sp,sp,0x3
 356:	0100                	addi	s0,sp,128
 358:	075d                	addi	a4,a4,23
 35a:	0eb8                	addi	a4,sp,856
 35c:	0001                	nop
 35e:	0f24                	addi	s1,sp,920
 360:	0001                	nop
 362:	5d01                	li	s10,-32
 364:	010f2807          	flw	fa6,16(t5) # 1b010 <__global_pointer$+0x7e30>
 368:	d000                	sw	s0,32(s0)
 36a:	0100010f          	0x100010f
 36e:	075d                	addi	a4,a4,23
 370:	1044                	addi	s1,sp,36
 372:	0001                	nop
 374:	1050                	addi	a2,sp,36
 376:	0001                	nop
 378:	5d01                	li	s10,-32
 37a:	0700                	addi	s0,sp,896
 37c:	0c30                	addi	a2,sp,536
 37e:	0001                	nop
 380:	0c58                	addi	a4,sp,532
 382:	0001                	nop
 384:	5a01                	li	s4,-32
 386:	010c5807          	0x10c5807
 38a:	8800                	0x8800
 38c:	010c                	addi	a1,sp,128
 38e:	0100                	addi	s0,sp,128
 390:	0756                	slli	a4,a4,0x15
 392:	0c88                	addi	a0,sp,592
 394:	0001                	nop
 396:	0cd8                	addi	a4,sp,596
 398:	0001                	nop
 39a:	6001                	0x6001
 39c:	010d1807          	0x10d1807
 3a0:	6c00                	flw	fs0,24(s0)
 3a2:	010d                	addi	sp,sp,3
 3a4:	0100                	addi	s0,sp,128
 3a6:	0756                	slli	a4,a4,0x15
 3a8:	0d6c                	addi	a1,sp,668
 3aa:	0001                	nop
 3ac:	0dbc                	addi	a5,sp,728
 3ae:	0001                	nop
 3b0:	6001                	0x6001
 3b2:	010df807          	0x10df807
 3b6:	2400                	fld	fs0,8(s0)
 3b8:	010e                	slli	sp,sp,0x3
 3ba:	0100                	addi	s0,sp,128
 3bc:	0756                	slli	a4,a4,0x15
 3be:	0e34                	addi	a3,sp,792
 3c0:	0001                	nop
 3c2:	0eb8                	addi	a4,sp,856
 3c4:	0001                	nop
 3c6:	6001                	0x6001
 3c8:	010eb807          	fld	fa6,16(t4)
 3cc:	4c00                	lw	s0,24(s0)
 3ce:	0100010f          	0x100010f
 3d2:	0756                	slli	a4,a4,0x15
 3d4:	0f4c                	addi	a1,sp,916
 3d6:	0001                	nop
 3d8:	1030                	addi	a2,sp,40
 3da:	0001                	nop
 3dc:	7606                	flw	fa2,96(sp)
 3de:	7b00                	flw	fs0,48(a4)
 3e0:	2400                	fld	fs0,8(s0)
 3e2:	079f 1044 0001      	0x11044079f
 3e8:	1050                	addi	a2,sp,36
 3ea:	0001                	nop
 3ec:	5601                	li	a2,-32
 3ee:	0700                	addi	s0,sp,896
 3f0:	0c34                	addi	a3,sp,536
 3f2:	0001                	nop
 3f4:	0c3c                	addi	a5,sp,536
 3f6:	0001                	nop
 3f8:	5b01                	li	s6,-32
 3fa:	010c3c07          	fld	fs8,16(s8)
 3fe:	7800                	flw	fs0,48(s0)
 400:	010c                	addi	a1,sp,128
 402:	0100                	addi	s0,sp,128
 404:	075f 0c78 0001      	0x10c78075f
 40a:	0c84                	addi	s1,sp,592
 40c:	0001                	nop
 40e:	6101                	addi	sp,sp,0
 410:	010c8407          	0x10c8407
 414:	9c00                	0x9c00
 416:	010c                	addi	a1,sp,128
 418:	0100                	addi	s0,sp,128
 41a:	075f 0d18 0001      	0x10d18075f
 420:	0d38                	addi	a4,sp,664
 422:	0001                	nop
 424:	5f01                	li	t5,-32
 426:	010d3807          	fld	fa6,16(s10)
 42a:	6800                	flw	fs0,16(s0)
 42c:	010d                	addi	sp,sp,3
 42e:	0100                	addi	s0,sp,128
 430:	0761                	addi	a4,a4,24
 432:	0d68                	addi	a0,sp,668
 434:	0001                	nop
 436:	0d84                	addi	s1,sp,720
 438:	0001                	nop
 43a:	5f01                	li	t5,-32
 43c:	010df807          	0x10df807
 440:	2c00                	fld	fs0,24(s0)
 442:	010e                	slli	sp,sp,0x3
 444:	0100                	addi	s0,sp,128
 446:	0761                	addi	a4,a4,24
 448:	0e34                	addi	a3,sp,792
 44a:	0001                	nop
 44c:	0e74                	addi	a3,sp,796
 44e:	0001                	nop
 450:	5f01                	li	t5,-32
 452:	010eb407          	fld	fs0,16(t4)
 456:	b800                	fsd	fs0,48(s0)
 458:	010e                	slli	sp,sp,0x3
 45a:	0100                	addi	s0,sp,128
 45c:	075f 0eb8 0001      	0x10eb8075f
 462:	0ed8                	addi	a4,sp,852
 464:	0001                	nop
 466:	5b01                	li	s6,-32
 468:	010ed807          	0x10ed807
 46c:	0800                	addi	s0,sp,16
 46e:	0100010f          	0x100010f
 472:	0761                	addi	a4,a4,24
 474:	0f08                	addi	a0,sp,912
 476:	0001                	nop
 478:	0f1c                	addi	a5,sp,912
 47a:	0001                	nop
 47c:	5b01                	li	s6,-32
 47e:	010f1c07          	0x10f1c07
 482:	3000                	fld	fs0,32(s0)
 484:	0100010f          	0x100010f
 488:	0761                	addi	a4,a4,24
 48a:	0f4c                	addi	a1,sp,916
 48c:	0001                	nop
 48e:	0f8c                	addi	a1,sp,976
 490:	0001                	nop
 492:	5f01                	li	t5,-32
 494:	010fd807          	0x10fd807
 498:	1c00                	addi	s0,sp,560
 49a:	0110                	addi	a2,sp,128
 49c:	0100                	addi	s0,sp,128
 49e:	075f 1044 0001      	0x11044075f
 4a4:	1048                	addi	a0,sp,36
 4a6:	0001                	nop
 4a8:	5b01                	li	s6,-32
 4aa:	01104807          	flq	fa6,17(zero) # 11 <main-0x10063>
 4ae:	5000                	lw	s0,32(s0)
 4b0:	0110                	addi	a2,sp,128
 4b2:	0100                	addi	s0,sp,128
 4b4:	005f 1407 010e      	0x10e1407005f
 4ba:	3800                	fld	fs0,48(s0)
 4bc:	010e                	slli	sp,sp,0x3
 4be:	0100                	addi	s0,sp,128
 4c0:	075d                	addi	a4,a4,23
 4c2:	0f4c                	addi	a1,sp,916
 4c4:	0001                	nop
 4c6:	0f50                	addi	a2,sp,916
 4c8:	0001                	nop
 4ca:	5e01                	li	t3,-32
 4cc:	0700                	addi	s0,sp,896
 4ce:	0d10                	addi	a2,sp,656
 4d0:	0001                	nop
 4d2:	0d14                	addi	a3,sp,656
 4d4:	0001                	nop
 4d6:	5a01                	li	s4,-32
 4d8:	010df407          	0x10df407
 4dc:	f800                	fsw	fs0,48(s0)
 4de:	010d                	addi	sp,sp,3
 4e0:	0100                	addi	s0,sp,128
 4e2:	075a                	slli	a4,a4,0x16
 4e4:	0fd8                	addi	a4,sp,980
 4e6:	0001                	nop
 4e8:	1044                	addi	s1,sp,36
 4ea:	0001                	nop
 4ec:	5a01                	li	s4,-32
 4ee:	0700                	addi	s0,sp,896
 4f0:	0d68                	addi	a0,sp,668
 4f2:	0001                	nop
 4f4:	0d6c                	addi	a1,sp,668
 4f6:	0001                	nop
 4f8:	3102                	fld	ft2,32(sp)
 4fa:	079f 0d6c 0001      	0x10d6c079f
 500:	0df8                	addi	a4,sp,732
 502:	0001                	nop
 504:	5b01                	li	s6,-32
 506:	010eb407          	fld	fs0,16(t4)
 50a:	b800                	fsd	fs0,48(s0)
 50c:	010e                	slli	sp,sp,0x3
 50e:	0100                	addi	s0,sp,128
 510:	0c07005b          	0xc07005b
 514:	010e                	slli	sp,sp,0x3
 516:	1c00                	addi	s0,sp,560
 518:	010e                	slli	sp,sp,0x3
 51a:	0100                	addi	s0,sp,128
 51c:	075f 0f1c 0001      	0x10f1c075f
 522:	0f34                	addi	a3,sp,920
 524:	0001                	nop
 526:	5f01                	li	t5,-32
 528:	0700                	addi	s0,sp,896
 52a:	0c70                	addi	a2,sp,540
 52c:	0001                	nop
 52e:	0c8c                	addi	a1,sp,592
 530:	0001                	nop
 532:	5b01                	li	s6,-32
 534:	010d6007          	0x10d6007
 538:	6c00                	flw	fs0,24(s0)
 53a:	010d                	addi	sp,sp,3
 53c:	0100                	addi	s0,sp,128
 53e:	0e0c075b          	0xe0c075b
 542:	0001                	nop
 544:	0e40                	addi	s0,sp,788
 546:	0001                	nop
 548:	5b01                	li	s6,-32
 54a:	010ef007          	0x10ef007
 54e:	0800                	addi	s0,sp,16
 550:	0100010f          	0x100010f
 554:	0f1c075b          	0xf1c075b
 558:	0001                	nop
 55a:	1038                	addi	a4,sp,40
 55c:	0001                	nop
 55e:	5b01                	li	s6,-32
 560:	0700                	addi	s0,sp,896
 562:	0c44                	addi	s1,sp,532
 564:	0001                	nop
 566:	0c74                	addi	a3,sp,540
 568:	0001                	nop
 56a:	5c01                	li	s8,-32
 56c:	010c7407          	0x10c7407
 570:	8000                	0x8000
 572:	010c                	addi	a1,sp,128
 574:	0900                	addi	s0,sp,144
 576:	007c                	addi	a5,sp,12
 578:	ff08007b          	0xff08007b
 57c:	241a                	fld	fs0,384(sp)
 57e:	079f 0c80 0001      	0x10c80079f
 584:	0d10                	addi	a2,sp,656
 586:	0001                	nop
 588:	5e01                	li	t3,-32
 58a:	010d1807          	0x10d1807
 58e:	2c00                	fld	fs0,24(s0)
 590:	010d                	addi	sp,sp,3
 592:	0100                	addi	s0,sp,128
 594:	005c                	addi	a5,sp,4
 596:	010c5807          	0x10c5807
 59a:	6c00                	flw	fs0,24(s0)
 59c:	010c                	addi	a1,sp,128
 59e:	0100                	addi	s0,sp,128
 5a0:	005d                	c.nop	23
 5a2:	010c8c07          	0x10c8c07
 5a6:	1000                	addi	s0,sp,32
 5a8:	010d                	addi	sp,sp,3
 5aa:	0100                	addi	s0,sp,128
 5ac:	9807005b          	0x9807005b
 5b0:	010c                	addi	a1,sp,128
 5b2:	1000                	addi	s0,sp,32
 5b4:	010d                	addi	sp,sp,3
 5b6:	0100                	addi	s0,sp,128
 5b8:	005c                	addi	a5,sp,4
 5ba:	010c9807          	0x10c9807
 5be:	bc00                	fsd	fs0,56(s0)
 5c0:	010c                	addi	a1,sp,128
 5c2:	0100                	addi	s0,sp,128
 5c4:	0756                	slli	a4,a4,0x15
 5c6:	0cbc                	addi	a5,sp,600
 5c8:	0001                	nop
 5ca:	0d0c                	addi	a1,sp,656
 5cc:	0001                	nop
 5ce:	5a01                	li	s4,-32
 5d0:	0700                	addi	s0,sp,896
 5d2:	0cd4                	addi	a3,sp,596
 5d4:	0001                	nop
 5d6:	0cfc                	addi	a5,sp,604
 5d8:	0001                	nop
 5da:	6101                	addi	sp,sp,0
 5dc:	010cfc07          	0x10cfc07
 5e0:	1000                	addi	s0,sp,32
 5e2:	010d                	addi	sp,sp,3
 5e4:	0100                	addi	s0,sp,128
 5e6:	005f 9807 010c      	0x10c9807005f
 5ec:	9c00                	0x9c00
 5ee:	010c                	addi	a1,sp,128
 5f0:	0600                	addi	s0,sp,768
 5f2:	007f                	0x7f
 5f4:	9f1d007b          	0x9f1d007b
 5f8:	010c9c07          	0x10c9c07
 5fc:	ac00                	fsd	fs0,24(s0)
 5fe:	010c                	addi	a1,sp,128
 600:	0100                	addi	s0,sp,128
 602:	075f 0cb0 0001      	0x10cb0075f
 608:	0cb8                	addi	a4,sp,600
 60a:	0001                	nop
 60c:	5f01                	li	t5,-32
 60e:	010cb807          	fld	fa6,16(s9)
 612:	bc00                	fsd	fs0,56(s0)
 614:	010c                	addi	a1,sp,128
 616:	0800                	addi	s0,sp,16
 618:	0080                	addi	s0,sp,64
 61a:	2540                	fld	fs0,136(a0)
 61c:	007d                	c.nop	31
 61e:	9f21                	0x9f21
 620:	010cbc07          	fld	fs8,16(s9)
 624:	e000                	fsw	fs0,0(s0)
 626:	010c                	addi	a1,sp,128
 628:	0100                	addi	s0,sp,128
 62a:	005f d007 010c      	0x10cd007005f
 630:	e000                	fsw	fs0,0(s0)
 632:	010c                	addi	a1,sp,128
 634:	0600                	addi	s0,sp,768
 636:	007f                	0x7f
 638:	9f1d007b          	0x9f1d007b
 63c:	010ce007          	0x10ce007
 640:	e800                	fsw	fs0,16(s0)
 642:	010c                	addi	a1,sp,128
 644:	0100                	addi	s0,sp,128
 646:	075f 0cec 0001      	0x10cec075f
 64c:	0cf8                	addi	a4,sp,604
 64e:	0001                	nop
 650:	6001                	0x6001
 652:	0700                	addi	s0,sp,896
 654:	0ca4                	addi	s1,sp,600
 656:	0001                	nop
 658:	0cd4                	addi	a3,sp,596
 65a:	0001                	nop
 65c:	6101                	addi	sp,sp,0
 65e:	010cd407          	0x10cd407
 662:	e400                	fsw	fs0,8(s0)
 664:	010c                	addi	a1,sp,128
 666:	0600                	addi	s0,sp,768
 668:	007c                	addi	a5,sp,12
 66a:	0076                	c.slli	zero,0x1d
 66c:	9f1e                	add	t5,t5,t2
 66e:	010ce407          	0x10ce407
 672:	1000                	addi	s0,sp,32
 674:	010d                	addi	sp,sp,3
 676:	0100                	addi	s0,sp,128
 678:	005d                	c.nop	23
 67a:	01101007          	0x1101007
 67e:	4000                	lw	s0,0(s0)
 680:	0110                	addi	a2,sp,128
 682:	0100                	addi	s0,sp,128
 684:	005d                	c.nop	23
 686:	01101007          	0x1101007
 68a:	2400                	fld	fs0,8(s0)
 68c:	0110                	addi	a2,sp,128
 68e:	1000                	addi	s0,sp,32
 690:	0081                	addi	ra,ra,0
 692:	ff0a                	fsw	ft2,188(sp)
 694:	1aff                	0x1aff
 696:	007e                	c.slli	zero,0x1f
 698:	ff0a                	fsw	ft2,188(sp)
 69a:	1aff                	0x1aff
 69c:	2440                	fld	fs0,136(s0)
 69e:	9f22                	add	t5,t5,s0
 6a0:	01102407          	flw	fs0,17(zero) # 11 <main-0x10063>
 6a4:	2c00                	fld	fs0,24(s0)
 6a6:	0110                	addi	a2,sp,128
 6a8:	1500                	addi	s0,sp,672
 6aa:	0081                	addi	ra,ra,0
 6ac:	ff0a                	fsw	ft2,188(sp)
 6ae:	1aff                	0x1aff
 6b0:	0081                	addi	ra,ra,0
 6b2:	2540                	fld	fs0,136(a0)
 6b4:	007c                	addi	a5,sp,12
 6b6:	0a22                	slli	s4,s4,0x8
 6b8:	ffff                	0xffff
 6ba:	401a                	0x401a
 6bc:	2224                	fld	fs1,64(a2)
 6be:	009f 4c07 010f      	0x10f4c07009f
 6c4:	e800                	fsw	fs0,16(s0)
 6c6:	0100010f          	0x100010f
 6ca:	0061                	c.nop	24
 6cc:	010f4c07          	flq	fs8,16(t5)
 6d0:	9800                	0x9800
 6d2:	0100010f          	0x100010f
 6d6:	0760                	addi	s0,sp,908
 6d8:	0f98                	addi	a4,sp,976
 6da:	0001                	nop
 6dc:	0fd0                	addi	a2,sp,980
 6de:	0001                	nop
 6e0:	40007d07          	0x40007d07
 6e4:	4024                	lw	s1,64(s0)
 6e6:	9f25                	0x9f25
 6e8:	0700                	addi	s0,sp,896
 6ea:	0f4c                	addi	a1,sp,916
 6ec:	0001                	nop
 6ee:	0f70                	addi	a2,sp,924
 6f0:	0001                	nop
 6f2:	6d01                	0x6d01
 6f4:	010f7007          	0x10f7007
 6f8:	c400                	sw	s0,8(s0)
 6fa:	0100010f          	0x100010f
 6fe:	005a                	c.slli	zero,0x16
 700:	010f8807          	0x10f8807
 704:	b000                	fsd	fs0,32(s0)
 706:	0100010f          	0x100010f
 70a:	076c                	addi	a1,sp,908
 70c:	0fb0                	addi	a2,sp,984
 70e:	0001                	nop
 710:	0fd4                	addi	a3,sp,980
 712:	0001                	nop
 714:	5e01                	li	t3,-32
 716:	0700                	addi	s0,sp,896
 718:	0f4c                	addi	a1,sp,916
 71a:	0001                	nop
 71c:	0f50                	addi	a2,sp,916
 71e:	0001                	nop
 720:	7e06                	flw	ft8,96(sp)
 722:	8100                	0x8100
 724:	1d00                	addi	s0,sp,688
 726:	079f 0f50 0001      	0x10f50079f
 72c:	0f5c                	addi	a5,sp,916
 72e:	0001                	nop
 730:	5e01                	li	t3,-32
 732:	010f6007          	0x10f6007
 736:	6c00                	flw	fs0,24(s0)
 738:	0100010f          	0x100010f
 73c:	075e                	slli	a4,a4,0x17
 73e:	0f70                	addi	a2,sp,924
 740:	0001                	nop
 742:	0f94                	addi	a3,sp,976
 744:	0001                	nop
 746:	5e01                	li	t3,-32
 748:	0700                	addi	s0,sp,896
 74a:	0f84                	addi	s1,sp,976
 74c:	0001                	nop
 74e:	0f94                	addi	a3,sp,976
 750:	0001                	nop
 752:	7e06                	flw	ft8,96(sp)
 754:	8100                	0x8100
 756:	1d00                	addi	s0,sp,688
 758:	079f 0f94 0001      	0x10f94079f
 75e:	0f9c                	addi	a5,sp,976
 760:	0001                	nop
 762:	5e01                	li	t3,-32
 764:	010fa007          	flw	ft0,16(t6)
 768:	ac00                	fsd	fs0,24(s0)
 76a:	0100010f          	0x100010f
 76e:	075f 0fb0 0001      	0x10fb0075f
 774:	101c                	addi	a5,sp,32
 776:	0001                	nop
 778:	5f01                	li	t5,-32
 77a:	0700                	addi	s0,sp,896
 77c:	0f54                	addi	a3,sp,916
 77e:	0001                	nop
 780:	0f88                	addi	a0,sp,976
 782:	0001                	nop
 784:	6c01                	0x6c01
 786:	010f8807          	0x10f8807
 78a:	9800                	0x9800
 78c:	0600010f          	0x600010f
 790:	0080                	addi	s0,sp,64
 792:	008d                	addi	ra,ra,3
 794:	9f1e                	add	t5,t5,t2
 796:	010f9807          	0x10f9807
 79a:	e000                	fsw	fs0,0(s0)
 79c:	0100010f          	0x100010f
 7a0:	0060                	addi	s0,sp,12
 7a2:	010fe807          	0x10fe807
 7a6:	2c00                	fld	fs0,24(s0)
 7a8:	0110                	addi	a2,sp,128
 7aa:	0100                	addi	s0,sp,128
 7ac:	0061                	c.nop	24
 7ae:	010fe807          	0x10fe807
 7b2:	f000                	fsw	fs0,32(s0)
 7b4:	0600010f          	0x600010f
 7b8:	007e                	c.slli	zero,0x1f
 7ba:	007c                	addi	a5,sp,12
 7bc:	9f1e                	add	t5,t5,t2
 7be:	010ff007          	0x10ff007
 7c2:	f800                	fsw	fs0,48(s0)
 7c4:	0100010f          	0x100010f
 7c8:	075e                	slli	a4,a4,0x17
 7ca:	1000                	addi	s0,sp,32
 7cc:	0001                	nop
 7ce:	1024                	addi	s1,sp,40
 7d0:	0001                	nop
 7d2:	5e01                	li	t3,-32
 7d4:	01102407          	flw	fs0,17(zero) # 11 <main-0x10063>
 7d8:	2c00                	fld	fs0,24(s0)
 7da:	0110                	addi	a2,sp,128
 7dc:	0800                	addi	s0,sp,16
 7de:	0081                	addi	ra,ra,0
 7e0:	2540                	fld	fs0,136(a0)
 7e2:	007c                	addi	a5,sp,12
 7e4:	9f22                	add	t5,t5,s0
 7e6:	0700                	addi	s0,sp,896
 7e8:	0fec                	addi	a1,sp,988
 7ea:	0001                	nop
 7ec:	100c                	addi	a1,sp,32
 7ee:	0001                	nop
 7f0:	5d01                	li	s10,-32
 7f2:	0700                	addi	s0,sp,896
 7f4:	0ff4                	addi	a3,sp,988
 7f6:	0001                	nop
 7f8:	1044                	addi	s1,sp,36
 7fa:	0001                	nop
 7fc:	6001                	0x6001
 7fe:	0700                	addi	s0,sp,896
 800:	0fd8                	addi	a4,sp,980
 802:	0001                	nop
 804:	0ff0                	addi	a2,sp,988
 806:	0001                	nop
 808:	5e01                	li	t3,-32
 80a:	010ff007          	0x10ff007
 80e:	2000                	fld	fs0,0(s0)
 810:	0110                	addi	a2,sp,128
 812:	0600                	addi	s0,sp,768
 814:	7f8c                	flw	fa1,56(a5)
 816:	007a                	c.slli	zero,0x1e
 818:	9f1a                	add	t5,t5,t1
 81a:	01102007          	flw	ft0,17(zero) # 11 <main-0x10063>
 81e:	3c00                	fld	fs0,56(s0)
 820:	0110                	addi	a2,sp,128
 822:	0600                	addi	s0,sp,768
 824:	007a                	c.slli	zero,0x1e
 826:	007f                	0x7f
 828:	9f1a                	add	t5,t5,t1
 82a:	01103c07          	fld	fs8,17(zero) # 11 <main-0x10063>
 82e:	4000                	lw	s0,0(s0)
 830:	0110                	addi	a2,sp,128
 832:	0600                	addi	s0,sp,768
 834:	7f8c                	flw	fa1,56(a5)
 836:	007a                	c.slli	zero,0x1e
 838:	9f1a                	add	t5,t5,t1
 83a:	01104007          	flq	ft0,17(zero) # 11 <main-0x10063>
 83e:	4400                	lw	s0,8(s0)
 840:	0110                	addi	a2,sp,128
 842:	0600                	addi	s0,sp,768
 844:	017a                	slli	sp,sp,0x1e
 846:	7f8c                	flw	fa1,56(a5)
 848:	9f1a                	add	t5,t5,t1
 84a:	0700                	addi	s0,sp,896
 84c:	0fe0                	addi	s0,sp,988
 84e:	0001                	nop
 850:	0fec                	addi	a1,sp,988
 852:	0001                	nop
 854:	5d01                	li	s10,-32
 856:	0700                	addi	s0,sp,896
 858:	0fe0                	addi	s0,sp,988
 85a:	0001                	nop
 85c:	0ff4                	addi	a3,sp,988
 85e:	0001                	nop
 860:	6001                	0x6001
 862:	010ff407          	0x10ff407
 866:	4000                	lw	s0,0(s0)
 868:	0110                	addi	a2,sp,128
 86a:	0500                	addi	s0,sp,640
 86c:	007a                	c.slli	zero,0x1e
 86e:	2540                	fld	fs0,136(a0)
 870:	079f 1040 0001      	0x11040079f
 876:	1044                	addi	s1,sp,36
 878:	0001                	nop
 87a:	7a05                	lui	s4,0xfffe1
 87c:	4001                	c.li	zero,0
 87e:	9f25                	0x9f25
 880:	0700                	addi	s0,sp,896
 882:	0fe4                	addi	s1,sp,988
 884:	0001                	nop
 886:	0ff8                	addi	a4,sp,988
 888:	0001                	nop
 88a:	5c01                	li	s8,-32
 88c:	0700                	addi	s0,sp,896
 88e:	0d34                	addi	a3,sp,664
 890:	0001                	nop
 892:	0d6c                	addi	a1,sp,668
 894:	0001                	nop
 896:	5c01                	li	s8,-32
 898:	010d6c07          	0x10d6c07
 89c:	f800                	fsw	fs0,48(s0)
 89e:	010d                	addi	sp,sp,3
 8a0:	0100                	addi	s0,sp,128
 8a2:	075e                	slli	a4,a4,0x17
 8a4:	0df8                	addi	a4,sp,732
 8a6:	0001                	nop
 8a8:	0e0c                	addi	a1,sp,784
 8aa:	0001                	nop
 8ac:	5c01                	li	s8,-32
 8ae:	010e0c07          	0x10e0c07
 8b2:	1000                	addi	s0,sp,32
 8b4:	010e                	slli	sp,sp,0x3
 8b6:	0900                	addi	s0,sp,144
 8b8:	007c                	addi	a5,sp,12
 8ba:	ff08007b          	0xff08007b
 8be:	241a                	fld	fs0,384(sp)
 8c0:	079f 0e10 0001      	0x10e10079f
 8c6:	0eb8                	addi	a4,sp,856
 8c8:	0001                	nop
 8ca:	5e01                	li	t3,-32
 8cc:	0700                	addi	s0,sp,896
 8ce:	0d48                	addi	a0,sp,660
 8d0:	0001                	nop
 8d2:	0d5c                	addi	a5,sp,660
 8d4:	0001                	nop
 8d6:	5d01                	li	s10,-32
 8d8:	0700                	addi	s0,sp,896
 8da:	0d70                	addi	a2,sp,668
 8dc:	0001                	nop
 8de:	0df8                	addi	a4,sp,732
 8e0:	0001                	nop
 8e2:	6101                	addi	sp,sp,0
 8e4:	0700                	addi	s0,sp,896
 8e6:	0d7c                	addi	a5,sp,668
 8e8:	0001                	nop
 8ea:	0df8                	addi	a4,sp,732
 8ec:	0001                	nop
 8ee:	5c01                	li	s8,-32
 8f0:	0700                	addi	s0,sp,896
 8f2:	0d7c                	addi	a5,sp,668
 8f4:	0001                	nop
 8f6:	0da0                	addi	s0,sp,728
 8f8:	0001                	nop
 8fa:	6c01                	0x6c01
 8fc:	010da007          	flw	ft0,16(s11) # ffff6010 <__global_pointer$+0xfffe2e30>
 900:	f000                	fsw	fs0,32(s0)
 902:	010d                	addi	sp,sp,3
 904:	0100                	addi	s0,sp,128
 906:	005a                	c.slli	zero,0x16
 908:	010db807          	fld	fa6,16(s11)
 90c:	e000                	fsw	fs0,0(s0)
 90e:	010d                	addi	sp,sp,3
 910:	0100                	addi	s0,sp,128
 912:	0756                	slli	a4,a4,0x15
 914:	0de0                	addi	s0,sp,732
 916:	0001                	nop
 918:	0df8                	addi	a4,sp,732
 91a:	0001                	nop
 91c:	5f01                	li	t5,-32
 91e:	0700                	addi	s0,sp,896
 920:	0d7c                	addi	a5,sp,668
 922:	0001                	nop
 924:	0d84                	addi	s1,sp,720
 926:	0001                	nop
 928:	7f06                	flw	ft10,96(sp)
 92a:	8100                	0x8100
 92c:	1d00                	addi	s0,sp,688
 92e:	079f 0d84 0001      	0x10d84079f
 934:	0d90                	addi	a2,sp,720
 936:	0001                	nop
 938:	5f01                	li	t5,-32
 93a:	010d9407          	0x10d9407
 93e:	9c00                	0x9c00
 940:	010d                	addi	sp,sp,3
 942:	0100                	addi	s0,sp,128
 944:	075f 0da0 0001      	0x10da0075f
 94a:	0dc4                	addi	s1,sp,724
 94c:	0001                	nop
 94e:	5f01                	li	t5,-32
 950:	0700                	addi	s0,sp,896
 952:	0db4                	addi	a3,sp,728
 954:	0001                	nop
 956:	0dc4                	addi	s1,sp,724
 958:	0001                	nop
 95a:	7f06                	flw	ft10,96(sp)
 95c:	8100                	0x8100
 95e:	1d00                	addi	s0,sp,688
 960:	079f 0dc4 0001      	0x10dc4079f
 966:	0dcc                	addi	a1,sp,724
 968:	0001                	nop
 96a:	5f01                	li	t5,-32
 96c:	010dd007          	0x10dd007
 970:	dc00                	sw	s0,56(s0)
 972:	010d                	addi	sp,sp,3
 974:	0100                	addi	s0,sp,128
 976:	0060                	addi	s0,sp,12
 978:	010d8c07          	0x10d8c07
 97c:	b800                	fsd	fs0,48(s0)
 97e:	010d                	addi	sp,sp,3
 980:	0100                	addi	s0,sp,128
 982:	0756                	slli	a4,a4,0x15
 984:	0db8                	addi	a4,sp,728
 986:	0001                	nop
 988:	0dc8                	addi	a0,sp,724
 98a:	0001                	nop
 98c:	7c06                	flw	fs8,96(sp)
 98e:	8c00                	0x8c00
 990:	1e00                	addi	s0,sp,816
 992:	079f 0dc8 0001      	0x10dc8079f
 998:	0df8                	addi	a4,sp,732
 99a:	0001                	nop
 99c:	5d01                	li	s10,-32
 99e:	0700                	addi	s0,sp,896
 9a0:	0e34                	addi	a3,sp,792
 9a2:	0001                	nop
 9a4:	0eb8                	addi	a4,sp,856
 9a6:	0001                	nop
 9a8:	5a01                	li	s4,-32
 9aa:	0700                	addi	s0,sp,896
 9ac:	0e34                	addi	a3,sp,792
 9ae:	0001                	nop
 9b0:	0e80                	addi	s0,sp,848
 9b2:	0001                	nop
 9b4:	5c01                	li	s8,-32
 9b6:	010e8007          	0x10e8007
 9ba:	b800                	fsd	fs0,48(s0)
 9bc:	010e                	slli	sp,sp,0x3
 9be:	0700                	addi	s0,sp,896
 9c0:	007e                	c.slli	zero,0x1f
 9c2:	2440                	fld	fs0,136(s0)
 9c4:	2540                	fld	fs0,136(a0)
 9c6:	009f 3407 010e      	0x10e3407009f
 9cc:	5800                	lw	s0,48(s0)
 9ce:	010e                	slli	sp,sp,0x3
 9d0:	0100                	addi	s0,sp,128
 9d2:	0756                	slli	a4,a4,0x15
 9d4:	0e58                	addi	a4,sp,788
 9d6:	0001                	nop
 9d8:	0eac                	addi	a1,sp,856
 9da:	0001                	nop
 9dc:	5b01                	li	s6,-32
 9de:	0700                	addi	s0,sp,896
 9e0:	0e70                	addi	a2,sp,796
 9e2:	0001                	nop
 9e4:	0e98                	addi	a4,sp,848
 9e6:	0001                	nop
 9e8:	6101                	addi	sp,sp,0
 9ea:	010e9807          	0x10e9807
 9ee:	b800                	fsd	fs0,48(s0)
 9f0:	010e                	slli	sp,sp,0x3
 9f2:	0100                	addi	s0,sp,128
 9f4:	005d                	c.nop	23
 9f6:	010e3407          	fld	fs0,16(t3) # 1d010 <__global_pointer$+0x9e30>
 9fa:	3800                	fld	fs0,48(s0)
 9fc:	010e                	slli	sp,sp,0x3
 9fe:	0600                	addi	s0,sp,768
 a00:	007d                	c.nop	31
 a02:	007a                	c.slli	zero,0x1e
 a04:	9f1d                	0x9f1d
 a06:	010e3807          	fld	fa6,16(t3)
 a0a:	4400                	lw	s0,8(s0)
 a0c:	010e                	slli	sp,sp,0x3
 a0e:	0100                	addi	s0,sp,128
 a10:	075d                	addi	a4,a4,23
 a12:	0e48                	addi	a0,sp,788
 a14:	0001                	nop
 a16:	0e54                	addi	a3,sp,788
 a18:	0001                	nop
 a1a:	5d01                	li	s10,-32
 a1c:	010e5807          	0x10e5807
 a20:	7c00                	flw	fs0,56(s0)
 a22:	010e                	slli	sp,sp,0x3
 a24:	0100                	addi	s0,sp,128
 a26:	005d                	c.nop	23
 a28:	010e6c07          	0x10e6c07
 a2c:	7c00                	flw	fs0,56(s0)
 a2e:	010e                	slli	sp,sp,0x3
 a30:	0600                	addi	s0,sp,768
 a32:	007d                	c.nop	31
 a34:	007a                	c.slli	zero,0x1e
 a36:	9f1d                	0x9f1d
 a38:	010e7c07          	0x10e7c07
 a3c:	8400                	0x8400
 a3e:	010e                	slli	sp,sp,0x3
 a40:	0100                	addi	s0,sp,128
 a42:	075d                	addi	a4,a4,23
 a44:	0e88                	addi	a0,sp,848
 a46:	0001                	nop
 a48:	0e94                	addi	a3,sp,848
 a4a:	0001                	nop
 a4c:	5f01                	li	t5,-32
 a4e:	010e9807          	0x10e9807
 a52:	b800                	fsd	fs0,48(s0)
 a54:	010e                	slli	sp,sp,0x3
 a56:	0100                	addi	s0,sp,128
 a58:	005f 3c07 010e      	0x10e3c07005f
 a5e:	7000                	flw	fs0,32(s0)
 a60:	010e                	slli	sp,sp,0x3
 a62:	0100                	addi	s0,sp,128
 a64:	0761                	addi	a4,a4,24
 a66:	0e70                	addi	a2,sp,796
 a68:	0001                	nop
 a6a:	0e80                	addi	s0,sp,848
 a6c:	0001                	nop
 a6e:	7c06                	flw	fs8,96(sp)
 a70:	7600                	flw	fs0,40(a2)
 a72:	1e00                	addi	s0,sp,816
 a74:	079f 0e80 0001      	0x10e80079f
 a7a:	0eb8                	addi	a4,sp,856
 a7c:	0001                	nop
 a7e:	5c01                	li	s8,-32
 a80:	0700                	addi	s0,sp,896
 a82:	0ebc                	addi	a5,sp,856
 a84:	0001                	nop
 a86:	0f24                	addi	s1,sp,920
 a88:	0001                	nop
 a8a:	5d01                	li	s10,-32
 a8c:	0700                	addi	s0,sp,896
 a8e:	0ed0                	addi	a2,sp,852
 a90:	0001                	nop
 a92:	0eec                	addi	a1,sp,860
 a94:	0001                	nop
 a96:	5e01                	li	t3,-32
	...

Disassembly of section .debug_rnglists:

00000000 <.debug_rnglists>:
   0:	010d                	addi	sp,sp,3
   2:	0000                	unimp
   4:	0005                	c.nop	1
   6:	0004                	0x4
   8:	0000                	unimp
   a:	0000                	unimp
   c:	2006                	fld	ft0,64(sp)
   e:	010c                	addi	a1,sp,128
  10:	2000                	fld	fs0,0(s0)
  12:	010c                	addi	a1,sp,128
  14:	0600                	addi	s0,sp,768
  16:	0c28                	addi	a0,sp,536
  18:	0001                	nop
  1a:	0d14                	addi	a3,sp,656
  1c:	0001                	nop
  1e:	1806                	slli	a6,a6,0x21
  20:	010d                	addi	sp,sp,3
  22:	5000                	lw	s0,32(s0)
  24:	0110                	addi	a2,sp,128
  26:	0000                	unimp
  28:	2006                	fld	ft0,64(sp)
  2a:	010c                	addi	a1,sp,128
  2c:	2000                	fld	fs0,0(s0)
  2e:	010c                	addi	a1,sp,128
  30:	0600                	addi	s0,sp,768
  32:	0c28                	addi	a0,sp,536
  34:	0001                	nop
  36:	0d14                	addi	a3,sp,656
  38:	0001                	nop
  3a:	1806                	slli	a6,a6,0x21
  3c:	010d                	addi	sp,sp,3
  3e:	4000                	lw	s0,0(s0)
  40:	0110                	addi	a2,sp,128
  42:	0600                	addi	s0,sp,768
  44:	1044                	addi	s1,sp,36
  46:	0001                	nop
  48:	1050                	addi	a2,sp,36
  4a:	0001                	nop
  4c:	0600                	addi	s0,sp,768
  4e:	0c44                	addi	s1,sp,532
  50:	0001                	nop
  52:	0c70                	addi	a2,sp,540
  54:	0001                	nop
  56:	1806                	slli	a6,a6,0x21
  58:	010d                	addi	sp,sp,3
  5a:	2c00                	fld	fs0,24(s0)
  5c:	010d                	addi	sp,sp,3
  5e:	0000                	unimp
  60:	1006                	c.slli	zero,0x21
  62:	010d                	addi	sp,sp,3
  64:	1400                	addi	s0,sp,544
  66:	010d                	addi	sp,sp,3
  68:	0600                	addi	s0,sp,768
  6a:	0f1c                	addi	a5,sp,912
  6c:	0001                	nop
  6e:	1040                	addi	s0,sp,36
  70:	0001                	nop
  72:	0600                	addi	s0,sp,768
  74:	0f38                	addi	a4,sp,920
  76:	0001                	nop
  78:	0f48                	addi	a0,sp,916
  7a:	0001                	nop
  7c:	4c06                	lw	s8,64(sp)
  7e:	c400010f          	0xc400010f
  82:	0600010f          	0x600010f
  86:	0fc8                	addi	a0,sp,980
  88:	0001                	nop
  8a:	0fcc                	addi	a1,sp,980
  8c:	0001                	nop
  8e:	d406                	sw	ra,40(sp)
  90:	d800010f          	0xd800010f
  94:	0000010f          	0x10f
  98:	c406                	sw	ra,8(sp)
  9a:	c800010f          	0xc800010f
  9e:	0600010f          	0x600010f
  a2:	0fcc                	addi	a1,sp,980
  a4:	0001                	nop
  a6:	0fd4                	addi	a3,sp,980
  a8:	0001                	nop
  aa:	d806                	sw	ra,48(sp)
  ac:	1000010f          	0x1000010f
  b0:	0110                	addi	a2,sp,128
  b2:	0600                	addi	s0,sp,768
  b4:	1018                	addi	a4,sp,32
  b6:	0001                	nop
  b8:	102c                	addi	a1,sp,40
  ba:	0001                	nop
  bc:	3006                	fld	ft0,96(sp)
  be:	0110                	addi	a2,sp,128
  c0:	3400                	fld	fs0,40(s0)
  c2:	0110                	addi	a2,sp,128
  c4:	0000                	unimp
  c6:	3406                	fld	fs0,96(sp)
  c8:	010d                	addi	sp,sp,3
  ca:	6000                	flw	fs0,0(s0)
  cc:	010d                	addi	sp,sp,3
  ce:	0600                	addi	s0,sp,768
  d0:	0df8                	addi	a4,sp,732
  d2:	0001                	nop
  d4:	0e0c                	addi	a1,sp,784
  d6:	0001                	nop
  d8:	0600                	addi	s0,sp,768
  da:	0e14                	addi	a3,sp,784
  dc:	0001                	nop
  de:	0e18                	addi	a4,sp,784
  e0:	0001                	nop
  e2:	2006                	fld	ft0,64(sp)
  e4:	010e                	slli	sp,sp,0x3
  e6:	2800                	fld	fs0,16(s0)
  e8:	010e                	slli	sp,sp,0x3
  ea:	0600                	addi	s0,sp,768
  ec:	0e2c                	addi	a1,sp,792
  ee:	0001                	nop
  f0:	0e30                	addi	a2,sp,792
  f2:	0001                	nop
  f4:	3406                	fld	fs0,96(sp)
  f6:	010e                	slli	sp,sp,0x3
  f8:	b800                	fsd	fs0,48(s0)
  fa:	010e                	slli	sp,sp,0x3
  fc:	0000                	unimp
  fe:	bc06                	fsd	ft1,56(sp)
 100:	010e                	slli	sp,sp,0x3
 102:	f000                	fsw	fs0,32(s0)
 104:	010e                	slli	sp,sp,0x3
 106:	0600                	addi	s0,sp,768
 108:	0f08                	addi	a0,sp,912
 10a:	0001                	nop
 10c:	0f1c                	addi	a5,sp,912
 10e:	0001                	nop
	...
