
./miniterm.elf:     file format elf32-littleriscv
./miniterm.elf
architecture: riscv:rv32, flags 0x00000112:
EXEC_P, HAS_SYMS, D_PAGED
start address 0x000104dc

Program Header:
    LOAD off    0x00000000 vaddr 0x00010000 paddr 0x00010000 align 2**12
         filesz 0x00003c5c memsz 0x00003c5c flags r-x
    LOAD off    0x00004000 vaddr 0x00014000 paddr 0x00014000 align 2**12
         filesz 0x00000978 memsz 0x00000e4c flags rw-

Sections:
Idx Name          Size      VMA       LMA       File off  Algn
  0 .text         00002170  00010074  00010074  00000074  2**2
                  CONTENTS, ALLOC, LOAD, READONLY, CODE
  1 .rodata       00001a78  000121e4  000121e4  000021e4  2**2
                  CONTENTS, ALLOC, LOAD, READONLY, DATA
  2 .eh_frame     000002f8  00014000  00014000  00004000  2**2
                  CONTENTS, ALLOC, LOAD, DATA
  3 .init_array   00000008  000142f8  000142f8  000042f8  2**2
                  CONTENTS, ALLOC, LOAD, DATA
  4 .fini_array   00000004  00014300  00014300  00004300  2**2
                  CONTENTS, ALLOC, LOAD, DATA
  5 .data         00000640  00014308  00014308  00004308  2**3
                  CONTENTS, ALLOC, LOAD, DATA
  6 .got          00000028  00014948  00014948  00004948  2**2
                  CONTENTS, ALLOC, LOAD, DATA
  7 .sdata        00000008  00014970  00014970  00004970  2**2
                  CONTENTS, ALLOC, LOAD, DATA
  8 .bss          000004d4  00014978  00014978  00004978  2**2
                  ALLOC
  9 .comment      00000012  00000000  00000000  00004978  2**0
                  CONTENTS, READONLY
 10 .riscv.attributes 0000002a  00000000  00000000  0000498a  2**0
                  CONTENTS, READONLY
 11 .debug_aranges 00000038  00000000  00000000  000049b4  2**0
                  CONTENTS, READONLY, DEBUGGING, OCTETS
 12 .debug_info   00000839  00000000  00000000  000049ec  2**0
                  CONTENTS, READONLY, DEBUGGING, OCTETS
 13 .debug_abbrev 00000216  00000000  00000000  00005225  2**0
                  CONTENTS, READONLY, DEBUGGING, OCTETS
 14 .debug_line   00000766  00000000  00000000  0000543b  2**0
                  CONTENTS, READONLY, DEBUGGING, OCTETS
 15 .debug_str    0000029c  00000000  00000000  00005ba1  2**0
                  CONTENTS, READONLY, DEBUGGING, OCTETS
 16 .debug_line_str 000000ba  00000000  00000000  00005e3d  2**0
                  CONTENTS, READONLY, DEBUGGING, OCTETS
 17 .debug_loclists 00000a99  00000000  00000000  00005ef7  2**0
                  CONTENTS, READONLY, DEBUGGING, OCTETS
 18 .debug_rnglists 00000111  00000000  00000000  00006990  2**0
                  CONTENTS, READONLY, DEBUGGING, OCTETS
SYMBOL TABLE:
00010074 l    d  .text	00000000 .text
000121e4 l    d  .rodata	00000000 .rodata
00014000 l    d  .eh_frame	00000000 .eh_frame
000142f8 l    d  .init_array	00000000 .init_array
00014300 l    d  .fini_array	00000000 .fini_array
00014308 l    d  .data	00000000 .data
00014948 l    d  .got	00000000 .got
00014970 l    d  .sdata	00000000 .sdata
00014978 l    d  .bss	00000000 .bss
00000000 l    d  .comment	00000000 .comment
00000000 l    d  .riscv.attributes	00000000 .riscv.attributes
00000000 l    d  .debug_aranges	00000000 .debug_aranges
00000000 l    d  .debug_info	00000000 .debug_info
00000000 l    d  .debug_abbrev	00000000 .debug_abbrev
00000000 l    d  .debug_line	00000000 .debug_line
00000000 l    d  .debug_str	00000000 .debug_str
00000000 l    d  .debug_line_str	00000000 .debug_line_str
00000000 l    d  .debug_loclists	00000000 .debug_loclists
00000000 l    d  .debug_rnglists	00000000 .debug_rnglists
00000000 l    df *ABS*	00000000 miniterm.cpp
00000000 l    df *ABS*	00000000 __call_atexit.c
000104c4 l     F .text	00000018 register_fini
00000000 l    df *ABS*	00000000 crtstuff.c
00014000 l     O .eh_frame	00000000 __EH_FRAME_BEGIN__
00010528 l     F .text	00000000 __do_global_dtors_aux
00014978 l     O .bss	00000001 completed.1
00014300 l     O .fini_array	00000000 __do_global_dtors_aux_fini_array_entry
0001056c l     F .text	00000000 frame_dummy
0001497c l     O .bss	00000018 object.0
000142fc l     O .init_array	00000000 __frame_dummy_init_array_entry
00000000 l    df *ABS*	00000000 core.c
00000000 l    df *ABS*	00000000 console.c
00014994 l     O .bss	000004b0 _ZL11consoleText
00014e44 l     O .bss	00000004 _ZL7cursorx
00014e48 l     O .bss	00000004 _ZL7cursory
00000000 l    df *ABS*	00000000 gpu.c
0001235c l     O .rodata	00001800 _ZL12residentfont
00000000 l    df *ABS*	00000000 ringbuffer.c
00000000 l    df *ABS*	00000000 ps2.c
00000000 l    df *ABS*	00000000 libgcc2.c
00000000 l    df *ABS*	00000000 errno.c
00000000 l    df *ABS*	00000000 exit.c
00000000 l    df *ABS*	00000000 init.c
00000000 l    df *ABS*	00000000 memcpy.c
00000000 l    df *ABS*	00000000 atexit.c
00000000 l    df *ABS*	00000000 fini.c
00000000 l    df *ABS*	00000000 __atexit.c
00000000 l    df *ABS*	00000000 sys_exit.c
00000000 l    df *ABS*	00000000 libgcc2.c
00000000 l    df *ABS*	00000000 uart.c
00000000 l    df *ABS*	00000000 task.c
00000000 l    df *ABS*	00000000 leds.c
00000000 l    df *ABS*	00000000 debugger.c
00000000 l    df *ABS*	00000000 buttons.c
00000000 l    df *ABS*	00000000 sdcard.c
00000000 l    df *ABS*	00000000 ff.c
00000000 l    df *ABS*	00000000 ffunicode.c
00000000 l    df *ABS*	00000000 diskio.c
00000000 l    df *ABS*	00000000 memtest.c
00000000 l    df *ABS*	00000000 nanojpeg.c
00000000 l    df *ABS*	00000000 micromod.c
00000000 l    df *ABS*	00000000 crtstuff.c
000142f4 l     O .eh_frame	00000000 __FRAME_END__
00000000 l    df *ABS*	00000000 impure.c
00014520 l     O .data	00000428 impure_data
00014304 l       .fini_array	00000000 __fini_array_end
00014300 l       .fini_array	00000000 __fini_array_start
00014300 l       .init_array	00000000 __init_array_end
000142f8 l       .init_array	00000000 __preinit_array_end
00014950 l     O .got	00000000 _GLOBAL_OFFSET_TABLE_
000142f8 l       .init_array	00000000 __init_array_start
000142f8 l       .init_array	00000000 __preinit_array_start
000117ac g     F .text	000000ac _Z14RingBufferReadPhPvm
00014b08 g       *ABS*	00000000 __global_pointer$
00010848 g     F .text	000003cc _Z18EchoConsoleDecimall
0001441c g     O .data	00000100 scantoasciitable_uppercase
00011cb4 g     F .text	00000008 __errno
00010f80 g     F .text	00000028 _Z11ClearScreenm
00014970 g       .sdata	00000000 __SDATA_BEGIN__
00011d88 g     F .text	00000128 memcpy
00010644 g     F .text	0000003c _Z16SetConsoleCursorii
00010e3c g     F .text	00000058 _Z11DrawConsolev
00010620 g     F .text	00000024 _Z15ClearConsoleRowv
00014970 g     O .sdata	00000004 _global_impure_ptr
00011cec g     F .text	0000009c __libc_init_array
000105a0 g     F .text	00000024 _Z9ClockToMsy
00011884 g     F .text	00000430 .hidden __udivdi3
00014318 g     O .data	00000004 m_writeOffset
0001431c g     O .data	00000100 scantoasciitable_lowercase
00010608 g     F .text	00000018 _Z12ClearConsolev
000120c0 g     F .text	0000005c __libc_fini_array
0001144c g     F .text	00000360 _Z11DrawDecimaliil
00010da4 g     F .text	00000098 _Z18EchoConsoleHexBytel
00010e94 g     F .text	000000ec _Z18ConsoleStringAtRowPc
00011220 g     F .text	0000022c _Z8DrawTextiiPKc
00011f8c g     F .text	00000120 __call_exitprocs
000105c4 g     F .text	00000044 _Z12ClockMsToHMSmPmS_S_
000104dc g     F .text	0000004c _start
00010714 g     F .text	00000048 _Z21ConsoleCursorStepBackv
0001211c g     F .text	00000098 __register_exitproc
00010680 g     F .text	00000080 _Z13ScrollConsolev
00014310 g     O .data	00000004 GPUFBWORD
00014e4c g       .bss	00000000 __BSS_END__
00010c14 g     F .text	00000190 _Z14EchoConsoleHexl
00014978 g       .bss	00000000 __bss_start
00011eb0 g     F .text	000000dc memset
00010074 g     F .text	00000450 main
00011858 g     F .text	0000002c _Z11ScanToASCIIhh
00013b5c g     O .rodata	00000100 .hidden __clz_tab
00010fa8 g     F .text	00000278 _Z11DrawTextLeniiiPKc
000120ac g     F .text	00000014 atexit
00014974 g     O .sdata	00000004 _impure_ptr
00014308 g       .data	00000000 __DATA_BEGIN__
00014978 g       .sdata	00000000 _edata
00014e4c g       .bss	00000000 _end
00014314 g     O .data	00000004 m_readOffset
00011cbc g     F .text	00000030 exit
000121b4 g     F .text	00000030 _exit
0001058c g     F .text	00000014 _Z11E32ReadTimev
0001430c g     O .data	00000004 GPUCTL
00010700 g     F .text	00000014 _Z16GetConsoleCursorPiS_
00014308 g     O .data	00000004 keyboardringbuffer
0001075c g     F .text	000000ec _Z11EchoConsolePKc



Disassembly of section .text:

00010074 <main>:
   10074:	a8010113          	addi	sp,sp,-1408
   10078:	57612023          	sw	s6,1376(sp)
   1007c:	00005b17          	auipc	s6,0x5
   10080:	8ecb2b03          	lw	s6,-1812(s6) # 14968 <_GLOBAL_OFFSET_TABLE_+0x18>
   10084:	000b2783          	lw	a5,0(s6)
   10088:	56112e23          	sw	ra,1404(sp)
   1008c:	56912a23          	sw	s1,1396(sp)
   10090:	57212823          	sw	s2,1392(sp)
   10094:	57312623          	sw	s3,1388(sp)
   10098:	57412423          	sw	s4,1384(sp)
   1009c:	57512223          	sw	s5,1380(sp)
   100a0:	55712e23          	sw	s7,1372(sp)
   100a4:	55812c23          	sw	s8,1368(sp)
   100a8:	55912a23          	sw	s9,1364(sp)
   100ac:	55a12823          	sw	s10,1360(sp)
   100b0:	55b12623          	sw	s11,1356(sp)
   100b4:	56812c23          	sw	s0,1400(sp)
   100b8:	0007a023          	sw	zero,0(a5)
   100bc:	1a1a2a37          	lui	s4,0x1a1a2
   100c0:	00012423          	sw	zero,8(sp)
   100c4:	544000ef          	jal	ra,10608 <_Z12ClearConsolev>
   100c8:	a1aa0513          	addi	a0,s4,-1510 # 1a1a1a1a <__BSS_END__+0x1a18cbce>
   100cc:	6b5000ef          	jal	ra,10f80 <_Z11ClearScreenm>
   100d0:	00002517          	auipc	a0,0x2
   100d4:	11450513          	addi	a0,a0,276 # 121e4 <_exit+0x30>
   100d8:	684000ef          	jal	ra,1075c <_Z11EchoConsolePKc>
   100dc:	561000ef          	jal	ra,10e3c <_Z11DrawConsolev>
   100e0:	04410793          	addi	a5,sp,68
   100e4:	00f12823          	sw	a5,16(sp)
   100e8:	04010793          	addi	a5,sp,64
   100ec:	00f12623          	sw	a5,12(sp)
   100f0:	04810793          	addi	a5,sp,72
   100f4:	00f12e23          	sw	a5,28(sp)
   100f8:	02c10793          	addi	a5,sp,44
   100fc:	00f12c23          	sw	a5,24(sp)
   10100:	000017b7          	lui	a5,0x1
   10104:	88878793          	addi	a5,a5,-1912 # 888 <main-0xf7ec>
   10108:	00f12023          	sw	a5,0(sp)
   1010c:	0a0007b7          	lui	a5,0xa000
   10110:	10078793          	addi	a5,a5,256 # a000100 <__BSS_END__+0x9feb2b4>
   10114:	00000b93          	li	s7,0
   10118:	00000913          	li	s2,0
   1011c:	00000993          	li	s3,0
   10120:	00000493          	li	s1,0
   10124:	03810d93          	addi	s11,sp,56
   10128:	03410d13          	addi	s10,sp,52
   1012c:	03010c93          	addi	s9,sp,48
   10130:	03c10c13          	addi	s8,sp,60
   10134:	00002a97          	auipc	s5,0x2
   10138:	178a8a93          	addi	s5,s5,376 # 122ac <_exit+0xf8>
   1013c:	00f12a23          	sw	a5,20(sp)
   10140:	a1aa0a13          	addi	s4,s4,-1510
   10144:	448000ef          	jal	ra,1058c <_Z11E32ReadTimev>
   10148:	458000ef          	jal	ra,105a0 <_Z9ClockToMsy>
   1014c:	000d8693          	mv	a3,s11
   10150:	000d0613          	mv	a2,s10
   10154:	000c8593          	mv	a1,s9
   10158:	00050413          	mv	s0,a0
   1015c:	468000ef          	jal	ra,105c4 <_Z12ClockMsToHMSmPmS_S_>
   10160:	08800793          	li	a5,136
   10164:	304797f3          	csrrw	a5,mie,a5
   10168:	00005797          	auipc	a5,0x5
   1016c:	8047a783          	lw	a5,-2044(a5) # 1496c <_GLOBAL_OFFSET_TABLE_+0x1c>
   10170:	0007a503          	lw	a0,0(a5)
   10174:	00400613          	li	a2,4
   10178:	000c0593          	mv	a1,s8
   1017c:	630010ef          	jal	ra,117ac <_Z14RingBufferReadPhPvm>
   10180:	00012783          	lw	a5,0(sp)
   10184:	304797f3          	csrrw	a5,mie,a5
   10188:	02050e63          	beqz	a0,101c4 <main+0x150>
   1018c:	03c12783          	lw	a5,60(sp)
   10190:	05800693          	li	a3,88
   10194:	0ff7f713          	zext.b	a4,a5
   10198:	1007f793          	andi	a5,a5,256
   1019c:	0ed70e63          	beq	a4,a3,10298 <main+0x224>
   101a0:	12078c63          	beqz	a5,102d8 <main+0x264>
   101a4:	01200793          	li	a5,18
   101a8:	14f70663          	beq	a4,a5,102f4 <main+0x280>
   101ac:	00812783          	lw	a5,8(sp)
   101b0:	fa770713          	addi	a4,a4,-89
   101b4:	00e03733          	snez	a4,a4
   101b8:	40e00733          	neg	a4,a4
   101bc:	00e7f7b3          	and	a5,a5,a4
   101c0:	00f12423          	sw	a5,8(sp)
   101c4:	000a0513          	mv	a0,s4
   101c8:	5b9000ef          	jal	ra,10f80 <_Z11ClearScreenm>
   101cc:	471000ef          	jal	ra,10e3c <_Z11DrawConsolev>
   101d0:	413407b3          	sub	a5,s0,s3
   101d4:	21200713          	li	a4,530
   101d8:	00f77663          	bgeu	a4,a5,101e4 <main+0x170>
   101dc:	00190913          	addi	s2,s2,1
   101e0:	00040993          	mv	s3,s0
   101e4:	00197793          	andi	a5,s2,1
   101e8:	08078263          	beqz	a5,1026c <main+0x1f8>
   101ec:	060b8863          	beqz	s7,1025c <main+0x1e8>
   101f0:	03012603          	lw	a2,48(sp)
   101f4:	00000593          	li	a1,0
   101f8:	00000513          	li	a0,0
   101fc:	250010ef          	jal	ra,1144c <_Z11DrawDecimaliil>
   10200:	00151793          	slli	a5,a0,0x1
   10204:	00050413          	mv	s0,a0
   10208:	000a8613          	mv	a2,s5
   1020c:	00000593          	li	a1,0
   10210:	00078513          	mv	a0,a5
   10214:	00f12223          	sw	a5,4(sp)
   10218:	008010ef          	jal	ra,11220 <_Z8DrawTextiiPKc>
   1021c:	00412783          	lw	a5,4(sp)
   10220:	03412603          	lw	a2,52(sp)
   10224:	00000593          	li	a1,0
   10228:	00278513          	addi	a0,a5,2
   1022c:	220010ef          	jal	ra,1144c <_Z11DrawDecimaliil>
   10230:	00140413          	addi	s0,s0,1
   10234:	00a40433          	add	s0,s0,a0
   10238:	00141413          	slli	s0,s0,0x1
   1023c:	000a8613          	mv	a2,s5
   10240:	00000593          	li	a1,0
   10244:	00040513          	mv	a0,s0
   10248:	7d9000ef          	jal	ra,11220 <_Z8DrawTextiiPKc>
   1024c:	03812603          	lw	a2,56(sp)
   10250:	00000593          	li	a1,0
   10254:	00240513          	addi	a0,s0,2
   10258:	1f4010ef          	jal	ra,1144c <_Z11DrawDecimaliil>
   1025c:	000b2783          	lw	a5,0(s6)
   10260:	0014c493          	xori	s1,s1,1
   10264:	0097a023          	sw	s1,0(a5)
   10268:	eddff06f          	j	10144 <main+0xd0>
   1026c:	01012583          	lw	a1,16(sp)
   10270:	00c12503          	lw	a0,12(sp)
   10274:	48c000ef          	jal	ra,10700 <_Z16GetConsoleCursorPiS_>
   10278:	04412583          	lw	a1,68(sp)
   1027c:	04012503          	lw	a0,64(sp)
   10280:	00002617          	auipc	a2,0x2
   10284:	03460613          	addi	a2,a2,52 # 122b4 <_exit+0x100>
   10288:	00359593          	slli	a1,a1,0x3
   1028c:	00151513          	slli	a0,a0,0x1
   10290:	791000ef          	jal	ra,11220 <_Z8DrawTextiiPKc>
   10294:	f59ff06f          	j	101ec <main+0x178>
   10298:	00812703          	lw	a4,8(sp)
   1029c:	00174713          	xori	a4,a4,1
   102a0:	00e12423          	sw	a4,8(sp)
   102a4:	f20790e3          	bnez	a5,101c4 <main+0x150>
   102a8:	01012583          	lw	a1,16(sp)
   102ac:	00c12503          	lw	a0,12(sp)
   102b0:	450000ef          	jal	ra,10700 <_Z16GetConsoleCursorPiS_>
   102b4:	03c14503          	lbu	a0,60(sp)
   102b8:	00814583          	lbu	a1,8(sp)
   102bc:	59c010ef          	jal	ra,11858 <_Z11ScanToASCIIhh>
   102c0:	00050793          	mv	a5,a0
   102c4:	01812503          	lw	a0,24(sp)
   102c8:	02f10623          	sb	a5,44(sp)
   102cc:	020106a3          	sb	zero,45(sp)
   102d0:	48c000ef          	jal	ra,1075c <_Z11EchoConsolePKc>
   102d4:	ef1ff06f          	j	101c4 <main+0x150>
   102d8:	01200793          	li	a5,18
   102dc:	00f70663          	beq	a4,a5,102e8 <main+0x274>
   102e0:	05900793          	li	a5,89
   102e4:	00f71c63          	bne	a4,a5,102fc <main+0x288>
   102e8:	00100793          	li	a5,1
   102ec:	00f12423          	sw	a5,8(sp)
   102f0:	ed5ff06f          	j	101c4 <main+0x150>
   102f4:	00012423          	sw	zero,8(sp)
   102f8:	ecdff06f          	j	101c4 <main+0x150>
   102fc:	01012583          	lw	a1,16(sp)
   10300:	00c12503          	lw	a0,12(sp)
   10304:	00e12223          	sw	a4,4(sp)
   10308:	3f8000ef          	jal	ra,10700 <_Z16GetConsoleCursorPiS_>
   1030c:	00412703          	lw	a4,4(sp)
   10310:	01b00793          	li	a5,27
   10314:	fa670713          	addi	a4,a4,-90
   10318:	f8e7eee3          	bltu	a5,a4,102b4 <main+0x240>
   1031c:	00002697          	auipc	a3,0x2
   10320:	f9c68693          	addi	a3,a3,-100 # 122b8 <_exit+0x104>
   10324:	00271713          	slli	a4,a4,0x2
   10328:	00e68733          	add	a4,a3,a4
   1032c:	00072783          	lw	a5,0(a4)
   10330:	00f687b3          	add	a5,a3,a5
   10334:	00078067          	jr	a5
   10338:	04412583          	lw	a1,68(sp)
   1033c:	04012503          	lw	a0,64(sp)
   10340:	fff58593          	addi	a1,a1,-1
   10344:	300000ef          	jal	ra,10644 <_Z16SetConsoleCursorii>
   10348:	e7dff06f          	j	101c4 <main+0x150>
   1034c:	04012503          	lw	a0,64(sp)
   10350:	04412583          	lw	a1,68(sp)
   10354:	00150513          	addi	a0,a0,1
   10358:	2ec000ef          	jal	ra,10644 <_Z16SetConsoleCursorii>
   1035c:	e69ff06f          	j	101c4 <main+0x150>
   10360:	04412583          	lw	a1,68(sp)
   10364:	04012503          	lw	a0,64(sp)
   10368:	00158593          	addi	a1,a1,1
   1036c:	2d8000ef          	jal	ra,10644 <_Z16SetConsoleCursorii>
   10370:	e55ff06f          	j	101c4 <main+0x150>
   10374:	04012503          	lw	a0,64(sp)
   10378:	04412583          	lw	a1,68(sp)
   1037c:	fff50513          	addi	a0,a0,-1
   10380:	2c4000ef          	jal	ra,10644 <_Z16SetConsoleCursorii>
   10384:	e41ff06f          	j	101c4 <main+0x150>
   10388:	38c000ef          	jal	ra,10714 <_Z21ConsoleCursorStepBackv>
   1038c:	00002517          	auipc	a0,0x2
   10390:	f2450513          	addi	a0,a0,-220 # 122b0 <_exit+0xfc>
   10394:	3c8000ef          	jal	ra,1075c <_Z11EchoConsolePKc>
   10398:	37c000ef          	jal	ra,10714 <_Z21ConsoleCursorStepBackv>
   1039c:	e29ff06f          	j	101c4 <main+0x150>
   103a0:	01c12503          	lw	a0,28(sp)
   103a4:	2f1000ef          	jal	ra,10e94 <_Z18ConsoleStringAtRowPc>
   103a8:	00002517          	auipc	a0,0x2
   103ac:	e7850513          	addi	a0,a0,-392 # 12220 <_exit+0x6c>
   103b0:	3ac000ef          	jal	ra,1075c <_Z11EchoConsolePKc>
   103b4:	04914783          	lbu	a5,73(sp)
   103b8:	06300713          	li	a4,99
   103bc:	04e10423          	sb	a4,72(sp)
   103c0:	06c00713          	li	a4,108
   103c4:	06e78663          	beq	a5,a4,10430 <main+0x3bc>
   103c8:	06800693          	li	a3,104
   103cc:	04d10423          	sb	a3,72(sp)
   103d0:	06500693          	li	a3,101
   103d4:	02d78663          	beq	a5,a3,10400 <main+0x38c>
   103d8:	06400713          	li	a4,100
   103dc:	04e10423          	sb	a4,72(sp)
   103e0:	07500713          	li	a4,117
   103e4:	06e79063          	bne	a5,a4,10444 <main+0x3d0>
   103e8:	04a14703          	lbu	a4,74(sp)
   103ec:	06d00793          	li	a5,109
   103f0:	08f70063          	beq	a4,a5,10470 <main+0x3fc>
   103f4:	07400793          	li	a5,116
   103f8:	04f10423          	sb	a5,72(sp)
   103fc:	dc9ff06f          	j	101c4 <main+0x150>
   10400:	04a14783          	lbu	a5,74(sp)
   10404:	fee798e3          	bne	a5,a4,103f4 <main+0x380>
   10408:	04b14703          	lbu	a4,75(sp)
   1040c:	07000793          	li	a5,112
   10410:	fef712e3          	bne	a4,a5,103f4 <main+0x380>
   10414:	00002517          	auipc	a0,0x2
   10418:	e0c50513          	addi	a0,a0,-500 # 12220 <_exit+0x6c>
   1041c:	340000ef          	jal	ra,1075c <_Z11EchoConsolePKc>
   10420:	00002517          	auipc	a0,0x2
   10424:	e0450513          	addi	a0,a0,-508 # 12224 <_exit+0x70>
   10428:	334000ef          	jal	ra,1075c <_Z11EchoConsolePKc>
   1042c:	d99ff06f          	j	101c4 <main+0x150>
   10430:	04a14703          	lbu	a4,74(sp)
   10434:	07300793          	li	a5,115
   10438:	faf71ee3          	bne	a4,a5,103f4 <main+0x380>
   1043c:	1cc000ef          	jal	ra,10608 <_Z12ClearConsolev>
   10440:	d85ff06f          	j	101c4 <main+0x150>
   10444:	07400713          	li	a4,116
   10448:	04e10423          	sb	a4,72(sp)
   1044c:	06900713          	li	a4,105
   10450:	d6e79ae3          	bne	a5,a4,101c4 <main+0x150>
   10454:	04a14703          	lbu	a4,74(sp)
   10458:	06d00793          	li	a5,109
   1045c:	d6f714e3          	bne	a4,a5,101c4 <main+0x150>
   10460:	04b14783          	lbu	a5,75(sp)
   10464:	d6d790e3          	bne	a5,a3,101c4 <main+0x150>
   10468:	001bcb93          	xori	s7,s7,1
   1046c:	d59ff06f          	j	101c4 <main+0x150>
   10470:	04b14703          	lbu	a4,75(sp)
   10474:	07000793          	li	a5,112
   10478:	f6f71ee3          	bne	a4,a5,103f4 <main+0x380>
   1047c:	0a0007b7          	lui	a5,0xa000
   10480:	00078513          	mv	a0,a5
   10484:	00f12223          	sw	a5,4(sp)
   10488:	78c000ef          	jal	ra,10c14 <_Z14EchoConsoleHexl>
   1048c:	000a8513          	mv	a0,s5
   10490:	2cc000ef          	jal	ra,1075c <_Z11EchoConsolePKc>
   10494:	00412783          	lw	a5,4(sp)
   10498:	0007a503          	lw	a0,0(a5) # a000000 <__BSS_END__+0x9feb1b4>
   1049c:	00478793          	addi	a5,a5,4
   104a0:	00f12223          	sw	a5,4(sp)
   104a4:	770000ef          	jal	ra,10c14 <_Z14EchoConsoleHexl>
   104a8:	00002517          	auipc	a0,0x2
   104ac:	d7850513          	addi	a0,a0,-648 # 12220 <_exit+0x6c>
   104b0:	2ac000ef          	jal	ra,1075c <_Z11EchoConsolePKc>
   104b4:	01412703          	lw	a4,20(sp)
   104b8:	00412783          	lw	a5,4(sp)
   104bc:	fce792e3          	bne	a5,a4,10480 <main+0x40c>
   104c0:	d05ff06f          	j	101c4 <main+0x150>

000104c4 <register_fini>:
   104c4:	00000793          	li	a5,0
   104c8:	00078863          	beqz	a5,104d8 <register_fini+0x14>
   104cc:	00012537          	lui	a0,0x12
   104d0:	0c050513          	addi	a0,a0,192 # 120c0 <__libc_fini_array>
   104d4:	3d90106f          	j	120ac <atexit>
   104d8:	00008067          	ret

000104dc <_start>:
   104dc:	00004197          	auipc	gp,0x4
   104e0:	62c18193          	addi	gp,gp,1580 # 14b08 <__global_pointer$>
   104e4:	e7018513          	addi	a0,gp,-400 # 14978 <completed.1>
   104e8:	34418613          	addi	a2,gp,836 # 14e4c <__BSS_END__>
   104ec:	40a60633          	sub	a2,a2,a0
   104f0:	00000593          	li	a1,0
   104f4:	1bd010ef          	jal	ra,11eb0 <memset>
   104f8:	00002517          	auipc	a0,0x2
   104fc:	bb450513          	addi	a0,a0,-1100 # 120ac <atexit>
   10500:	00050863          	beqz	a0,10510 <_start+0x34>
   10504:	00002517          	auipc	a0,0x2
   10508:	bbc50513          	addi	a0,a0,-1092 # 120c0 <__libc_fini_array>
   1050c:	3a1010ef          	jal	ra,120ac <atexit>
   10510:	7dc010ef          	jal	ra,11cec <__libc_init_array>
   10514:	00012503          	lw	a0,0(sp)
   10518:	00410593          	addi	a1,sp,4
   1051c:	00000613          	li	a2,0
   10520:	b55ff0ef          	jal	ra,10074 <main>
   10524:	7980106f          	j	11cbc <exit>

00010528 <__do_global_dtors_aux>:
   10528:	ff010113          	addi	sp,sp,-16
   1052c:	00812423          	sw	s0,8(sp)
   10530:	e701c783          	lbu	a5,-400(gp) # 14978 <completed.1>
   10534:	00112623          	sw	ra,12(sp)
   10538:	02079263          	bnez	a5,1055c <__do_global_dtors_aux+0x34>
   1053c:	00000793          	li	a5,0
   10540:	00078a63          	beqz	a5,10554 <__do_global_dtors_aux+0x2c>
   10544:	00014537          	lui	a0,0x14
   10548:	00050513          	mv	a0,a0
   1054c:	00000097          	auipc	ra,0x0
   10550:	000000e7          	jalr	zero # 0 <main-0x10074>
   10554:	00100793          	li	a5,1
   10558:	e6f18823          	sb	a5,-400(gp) # 14978 <completed.1>
   1055c:	00c12083          	lw	ra,12(sp)
   10560:	00812403          	lw	s0,8(sp)
   10564:	01010113          	addi	sp,sp,16
   10568:	00008067          	ret

0001056c <frame_dummy>:
   1056c:	00000793          	li	a5,0
   10570:	00078c63          	beqz	a5,10588 <frame_dummy+0x1c>
   10574:	00014537          	lui	a0,0x14
   10578:	e7418593          	addi	a1,gp,-396 # 1497c <object.0>
   1057c:	00050513          	mv	a0,a0
   10580:	00000317          	auipc	t1,0x0
   10584:	00000067          	jr	zero # 0 <main-0x10074>
   10588:	00008067          	ret

0001058c <_Z11E32ReadTimev>:
   1058c:	c81025f3          	rdtimeh	a1
   10590:	c0102573          	rdtime	a0
   10594:	c81027f3          	rdtimeh	a5
   10598:	fef59ae3          	bne	a1,a5,1058c <_Z11E32ReadTimev>
   1059c:	00008067          	ret

000105a0 <_Z9ClockToMsy>:
   105a0:	00002637          	lui	a2,0x2
   105a4:	ff010113          	addi	sp,sp,-16
   105a8:	71060613          	addi	a2,a2,1808 # 2710 <main-0xd964>
   105ac:	00000693          	li	a3,0
   105b0:	00112623          	sw	ra,12(sp)
   105b4:	2d0010ef          	jal	ra,11884 <__udivdi3>
   105b8:	00c12083          	lw	ra,12(sp)
   105bc:	01010113          	addi	sp,sp,16
   105c0:	00008067          	ret

000105c4 <_Z12ClockMsToHMSmPmS_S_>:
   105c4:	000587b7          	lui	a5,0x58
   105c8:	e4078793          	addi	a5,a5,-448 # 57e40 <__BSS_END__+0x42ff4>
   105cc:	02f577b3          	remu	a5,a0,a5
   105d0:	0036f837          	lui	a6,0x36f
   105d4:	e8080813          	addi	a6,a6,-384 # 36ee80 <__BSS_END__+0x35a034>
   105d8:	0000f737          	lui	a4,0xf
   105dc:	a6070713          	addi	a4,a4,-1440 # ea60 <main-0x1614>
   105e0:	030578b3          	remu	a7,a0,a6
   105e4:	03055533          	divu	a0,a0,a6
   105e8:	02e7f7b3          	remu	a5,a5,a4
   105ec:	00a5a023          	sw	a0,0(a1)
   105f0:	3e800593          	li	a1,1000
   105f4:	02e8d733          	divu	a4,a7,a4
   105f8:	02b7d7b3          	divu	a5,a5,a1
   105fc:	00e62023          	sw	a4,0(a2)
   10600:	00f6a023          	sw	a5,0(a3)
   10604:	00008067          	ret

00010608 <_Z12ClearConsolev>:
   10608:	4b000613          	li	a2,1200
   1060c:	02000593          	li	a1,32
   10610:	e8c18513          	addi	a0,gp,-372 # 14994 <_ZL11consoleText>
   10614:	3201ae23          	sw	zero,828(gp) # 14e44 <_ZL7cursorx>
   10618:	3401a023          	sw	zero,832(gp) # 14e48 <_ZL7cursory>
   1061c:	0950106f          	j	11eb0 <memset>

00010620 <_Z15ClearConsoleRowv>:
   10620:	3401a703          	lw	a4,832(gp) # 14e48 <_ZL7cursory>
   10624:	00271793          	slli	a5,a4,0x2
   10628:	00e787b3          	add	a5,a5,a4
   1062c:	00379793          	slli	a5,a5,0x3
   10630:	e8c18513          	addi	a0,gp,-372 # 14994 <_ZL11consoleText>
   10634:	02800613          	li	a2,40
   10638:	02000593          	li	a1,32
   1063c:	00f50533          	add	a0,a0,a5
   10640:	0710106f          	j	11eb0 <memset>

00010644 <_Z16SetConsoleCursorii>:
   10644:	fff54793          	not	a5,a0
   10648:	41f7d793          	srai	a5,a5,0x1f
   1064c:	00f57533          	and	a0,a0,a5
   10650:	02700793          	li	a5,39
   10654:	00a7d463          	bge	a5,a0,1065c <_Z16SetConsoleCursorii+0x18>
   10658:	02700513          	li	a0,39
   1065c:	fff5c793          	not	a5,a1
   10660:	41f7d793          	srai	a5,a5,0x1f
   10664:	00f5f5b3          	and	a1,a1,a5
   10668:	32a1ae23          	sw	a0,828(gp) # 14e44 <_ZL7cursorx>
   1066c:	01d00793          	li	a5,29
   10670:	00b7d463          	bge	a5,a1,10678 <_Z16SetConsoleCursorii+0x34>
   10674:	01d00593          	li	a1,29
   10678:	34b1a023          	sw	a1,832(gp) # 14e48 <_ZL7cursory>
   1067c:	00008067          	ret

00010680 <_Z13ScrollConsolev>:
   10680:	ff010113          	addi	sp,sp,-16
   10684:	00112623          	sw	ra,12(sp)
   10688:	e8c18793          	addi	a5,gp,-372 # 14994 <_ZL11consoleText>
   1068c:	31418f13          	addi	t5,gp,788 # 14e1c <__global_pointer$+0x314>
   10690:	0287ae83          	lw	t4,40(a5)
   10694:	02c7ae03          	lw	t3,44(a5)
   10698:	0307a303          	lw	t1,48(a5)
   1069c:	0347a883          	lw	a7,52(a5)
   106a0:	0387a803          	lw	a6,56(a5)
   106a4:	03c7a503          	lw	a0,60(a5)
   106a8:	0407a583          	lw	a1,64(a5)
   106ac:	0447a603          	lw	a2,68(a5)
   106b0:	0487a683          	lw	a3,72(a5)
   106b4:	04c7a703          	lw	a4,76(a5)
   106b8:	01d7a023          	sw	t4,0(a5)
   106bc:	01c7a223          	sw	t3,4(a5)
   106c0:	0067a423          	sw	t1,8(a5)
   106c4:	0117a623          	sw	a7,12(a5)
   106c8:	0107a823          	sw	a6,16(a5)
   106cc:	00a7aa23          	sw	a0,20(a5)
   106d0:	00b7ac23          	sw	a1,24(a5)
   106d4:	00c7ae23          	sw	a2,28(a5)
   106d8:	02d7a023          	sw	a3,32(a5)
   106dc:	02e7a223          	sw	a4,36(a5)
   106e0:	02878793          	addi	a5,a5,40
   106e4:	faff16e3          	bne	t5,a5,10690 <_Z13ScrollConsolev+0x10>
   106e8:	01d00593          	li	a1,29
   106ec:	33c1a503          	lw	a0,828(gp) # 14e44 <_ZL7cursorx>
   106f0:	f55ff0ef          	jal	ra,10644 <_Z16SetConsoleCursorii>
   106f4:	00c12083          	lw	ra,12(sp)
   106f8:	01010113          	addi	sp,sp,16
   106fc:	f25ff06f          	j	10620 <_Z15ClearConsoleRowv>

00010700 <_Z16GetConsoleCursorPiS_>:
   10700:	33c1a783          	lw	a5,828(gp) # 14e44 <_ZL7cursorx>
   10704:	00f52023          	sw	a5,0(a0) # 14000 <__EH_FRAME_BEGIN__>
   10708:	3401a783          	lw	a5,832(gp) # 14e48 <_ZL7cursory>
   1070c:	00f5a023          	sw	a5,0(a1)
   10710:	00008067          	ret

00010714 <_Z21ConsoleCursorStepBackv>:
   10714:	33c18713          	addi	a4,gp,828 # 14e44 <_ZL7cursorx>
   10718:	00072783          	lw	a5,0(a4)
   1071c:	34018613          	addi	a2,gp,832 # 14e48 <_ZL7cursory>
   10720:	00062683          	lw	a3,0(a2)
   10724:	fff78793          	addi	a5,a5,-1
   10728:	00f72023          	sw	a5,0(a4)
   1072c:	0007cc63          	bltz	a5,10744 <_Z21ConsoleCursorStepBackv+0x30>
   10730:	0006c463          	bltz	a3,10738 <_Z21ConsoleCursorStepBackv+0x24>
   10734:	00008067          	ret
   10738:	3201ae23          	sw	zero,828(gp) # 14e44 <_ZL7cursorx>
   1073c:	3401a023          	sw	zero,832(gp) # 14e48 <_ZL7cursory>
   10740:	00008067          	ret
   10744:	fff68693          	addi	a3,a3,-1
   10748:	02700793          	li	a5,39
   1074c:	00f72023          	sw	a5,0(a4)
   10750:	00d62023          	sw	a3,0(a2)
   10754:	fe06d0e3          	bgez	a3,10734 <_Z21ConsoleCursorStepBackv+0x20>
   10758:	fe1ff06f          	j	10738 <_Z21ConsoleCursorStepBackv+0x24>

0001075c <_Z11EchoConsolePKc>:
   1075c:	00054603          	lbu	a2,0(a0)
   10760:	0e060263          	beqz	a2,10844 <_Z11EchoConsolePKc+0xe8>
   10764:	fe010113          	addi	sp,sp,-32
   10768:	00812c23          	sw	s0,24(sp)
   1076c:	00912a23          	sw	s1,20(sp)
   10770:	01212823          	sw	s2,16(sp)
   10774:	01312623          	sw	s3,12(sp)
   10778:	01412423          	sw	s4,8(sp)
   1077c:	01512223          	sw	s5,4(sp)
   10780:	01612023          	sw	s6,0(sp)
   10784:	00112e23          	sw	ra,28(sp)
   10788:	00050413          	mv	s0,a0
   1078c:	34018493          	addi	s1,gp,832 # 14e48 <_ZL7cursory>
   10790:	33c18993          	addi	s3,gp,828 # 14e44 <_ZL7cursorx>
   10794:	00a00a13          	li	s4,10
   10798:	e8c18b13          	addi	s6,gp,-372 # 14994 <_ZL11consoleText>
   1079c:	02700a93          	li	s5,39
   107a0:	01d00913          	li	s2,29
   107a4:	0004a703          	lw	a4,0(s1)
   107a8:	07460663          	beq	a2,s4,10814 <_Z11EchoConsolePKc+0xb8>
   107ac:	00271793          	slli	a5,a4,0x2
   107b0:	0009a683          	lw	a3,0(s3)
   107b4:	00e787b3          	add	a5,a5,a4
   107b8:	00379793          	slli	a5,a5,0x3
   107bc:	00fb07b3          	add	a5,s6,a5
   107c0:	00d787b3          	add	a5,a5,a3
   107c4:	00c78023          	sb	a2,0(a5)
   107c8:	00168793          	addi	a5,a3,1
   107cc:	04fada63          	bge	s5,a5,10820 <_Z11EchoConsolePKc+0xc4>
   107d0:	00170713          	addi	a4,a4,1
   107d4:	3201ae23          	sw	zero,828(gp) # 14e44 <_ZL7cursorx>
   107d8:	00e4a023          	sw	a4,0(s1)
   107dc:	04e94663          	blt	s2,a4,10828 <_Z11EchoConsolePKc+0xcc>
   107e0:	00144603          	lbu	a2,1(s0)
   107e4:	00140413          	addi	s0,s0,1
   107e8:	fa061ee3          	bnez	a2,107a4 <_Z11EchoConsolePKc+0x48>
   107ec:	01c12083          	lw	ra,28(sp)
   107f0:	01812403          	lw	s0,24(sp)
   107f4:	01412483          	lw	s1,20(sp)
   107f8:	01012903          	lw	s2,16(sp)
   107fc:	00c12983          	lw	s3,12(sp)
   10800:	00812a03          	lw	s4,8(sp)
   10804:	00412a83          	lw	s5,4(sp)
   10808:	00012b03          	lw	s6,0(sp)
   1080c:	02010113          	addi	sp,sp,32
   10810:	00008067          	ret
   10814:	00170713          	addi	a4,a4,1
   10818:	00000793          	li	a5,0
   1081c:	00e4a023          	sw	a4,0(s1)
   10820:	00f9a023          	sw	a5,0(s3)
   10824:	fae95ee3          	bge	s2,a4,107e0 <_Z11EchoConsolePKc+0x84>
   10828:	00140413          	addi	s0,s0,1
   1082c:	0124a023          	sw	s2,0(s1)
   10830:	3201ae23          	sw	zero,828(gp) # 14e44 <_ZL7cursorx>
   10834:	e4dff0ef          	jal	ra,10680 <_Z13ScrollConsolev>
   10838:	00044603          	lbu	a2,0(s0)
   1083c:	f60614e3          	bnez	a2,107a4 <_Z11EchoConsolePKc+0x48>
   10840:	fadff06f          	j	107ec <_Z11EchoConsolePKc+0x90>
   10844:	00008067          	ret

00010848 <_Z18EchoConsoleDecimall>:
   10848:	00002797          	auipc	a5,0x2
   1084c:	ae078793          	addi	a5,a5,-1312 # 12328 <_exit+0x174>
   10850:	00002717          	auipc	a4,0x2
   10854:	aec70713          	addi	a4,a4,-1300 # 1233c <_exit+0x188>
   10858:	0047a603          	lw	a2,4(a5)
   1085c:	00072e03          	lw	t3,0(a4)
   10860:	00472303          	lw	t1,4(a4)
   10864:	00875883          	lhu	a7,8(a4)
   10868:	00a74803          	lbu	a6,10(a4)
   1086c:	0007a583          	lw	a1,0(a5)
   10870:	0087a683          	lw	a3,8(a5)
   10874:	00c7a703          	lw	a4,12(a5)
   10878:	0107a783          	lw	a5,16(a5)
   1087c:	fd010113          	addi	sp,sp,-48
   10880:	00c12823          	sw	a2,16(sp)
   10884:	00f12e23          	sw	a5,28(sp)
   10888:	02112623          	sw	ra,44(sp)
   1088c:	01c12023          	sw	t3,0(sp)
   10890:	00612223          	sw	t1,4(sp)
   10894:	01111423          	sh	a7,8(sp)
   10898:	01010523          	sb	a6,10(sp)
   1089c:	00b12623          	sw	a1,12(sp)
   108a0:	00d12a23          	sw	a3,20(sp)
   108a4:	00e12c23          	sw	a4,24(sp)
   108a8:	02d00613          	li	a2,45
   108ac:	00100793          	li	a5,1
   108b0:	00054663          	bltz	a0,108bc <_Z18EchoConsoleDecimall+0x74>
   108b4:	02000613          	li	a2,32
   108b8:	00000793          	li	a5,0
   108bc:	3b9ad737          	lui	a4,0x3b9ad
   108c0:	a0070693          	addi	a3,a4,-1536 # 3b9aca00 <__BSS_END__+0x3b997bb4>
   108c4:	02d546b3          	div	a3,a0,a3
   108c8:	9ff70713          	addi	a4,a4,-1537
   108cc:	00c10623          	sb	a2,12(sp)
   108d0:	77359637          	lui	a2,0x77359
   108d4:	00e50733          	add	a4,a0,a4
   108d8:	3fe60613          	addi	a2,a2,1022 # 773593fe <__BSS_END__+0x773445b2>
   108dc:	41f6d593          	srai	a1,a3,0x1f
   108e0:	00d5c6b3          	xor	a3,a1,a3
   108e4:	40b686b3          	sub	a3,a3,a1
   108e8:	12e66e63          	bltu	a2,a4,10a24 <_Z18EchoConsoleDecimall+0x1dc>
   108ec:	05f5e737          	lui	a4,0x5f5e
   108f0:	10070713          	addi	a4,a4,256 # 5f5e100 <__BSS_END__+0x5f492b4>
   108f4:	02e54733          	div	a4,a0,a4
   108f8:	00a00613          	li	a2,10
   108fc:	41f75593          	srai	a1,a4,0x1f
   10900:	00e5c6b3          	xor	a3,a1,a4
   10904:	40b686b3          	sub	a3,a3,a1
   10908:	02c6e6b3          	rem	a3,a3,a2
   1090c:	14069a63          	bnez	a3,10a60 <_Z18EchoConsoleDecimall+0x218>
   10910:	00989737          	lui	a4,0x989
   10914:	68070713          	addi	a4,a4,1664 # 989680 <__BSS_END__+0x974834>
   10918:	02e54733          	div	a4,a0,a4
   1091c:	41f75593          	srai	a1,a4,0x1f
   10920:	00e5c6b3          	xor	a3,a1,a4
   10924:	40b686b3          	sub	a3,a3,a1
   10928:	02c6e6b3          	rem	a3,a3,a2
   1092c:	16069863          	bnez	a3,10a9c <_Z18EchoConsoleDecimall+0x254>
   10930:	000f4737          	lui	a4,0xf4
   10934:	24070713          	addi	a4,a4,576 # f4240 <__BSS_END__+0xdf3f4>
   10938:	02e54733          	div	a4,a0,a4
   1093c:	41f75593          	srai	a1,a4,0x1f
   10940:	00e5c6b3          	xor	a3,a1,a4
   10944:	40b686b3          	sub	a3,a3,a1
   10948:	02c6e6b3          	rem	a3,a3,a2
   1094c:	18069663          	bnez	a3,10ad8 <_Z18EchoConsoleDecimall+0x290>
   10950:	00018737          	lui	a4,0x18
   10954:	6a070713          	addi	a4,a4,1696 # 186a0 <__BSS_END__+0x3854>
   10958:	02e54733          	div	a4,a0,a4
   1095c:	41f75593          	srai	a1,a4,0x1f
   10960:	00e5c6b3          	xor	a3,a1,a4
   10964:	40b686b3          	sub	a3,a3,a1
   10968:	02c6e6b3          	rem	a3,a3,a2
   1096c:	1a069463          	bnez	a3,10b14 <_Z18EchoConsoleDecimall+0x2cc>
   10970:	00002737          	lui	a4,0x2
   10974:	71070713          	addi	a4,a4,1808 # 2710 <main-0xd964>
   10978:	02e54733          	div	a4,a0,a4
   1097c:	41f75693          	srai	a3,a4,0x1f
   10980:	00e6c733          	xor	a4,a3,a4
   10984:	40d70733          	sub	a4,a4,a3
   10988:	02c76733          	rem	a4,a4,a2
   1098c:	1c071263          	bnez	a4,10b50 <_Z18EchoConsoleDecimall+0x308>
   10990:	3e800713          	li	a4,1000
   10994:	02e54733          	div	a4,a0,a4
   10998:	41f75593          	srai	a1,a4,0x1f
   1099c:	00e5c6b3          	xor	a3,a1,a4
   109a0:	40b686b3          	sub	a3,a3,a1
   109a4:	02c6e6b3          	rem	a3,a3,a2
   109a8:	1e069063          	bnez	a3,10b88 <_Z18EchoConsoleDecimall+0x340>
   109ac:	06400713          	li	a4,100
   109b0:	02e54733          	div	a4,a0,a4
   109b4:	41f75693          	srai	a3,a4,0x1f
   109b8:	00e6c733          	xor	a4,a3,a4
   109bc:	40d70733          	sub	a4,a4,a3
   109c0:	02c76733          	rem	a4,a4,a2
   109c4:	1e071e63          	bnez	a4,10bc0 <_Z18EchoConsoleDecimall+0x378>
   109c8:	02c54733          	div	a4,a0,a2
   109cc:	41f75693          	srai	a3,a4,0x1f
   109d0:	00e6c733          	xor	a4,a3,a4
   109d4:	40d70733          	sub	a4,a4,a3
   109d8:	02c76733          	rem	a4,a4,a2
   109dc:	20071c63          	bnez	a4,10bf4 <_Z18EchoConsoleDecimall+0x3ac>
   109e0:	41f55693          	srai	a3,a0,0x1f
   109e4:	00a6c733          	xor	a4,a3,a0
   109e8:	40d70733          	sub	a4,a4,a3
   109ec:	00a00693          	li	a3,10
   109f0:	02d76733          	rem	a4,a4,a3
   109f4:	02078793          	addi	a5,a5,32
   109f8:	002787b3          	add	a5,a5,sp
   109fc:	00c10513          	addi	a0,sp,12
   10a00:	fe0786a3          	sb	zero,-19(a5)
   10a04:	02070713          	addi	a4,a4,32
   10a08:	00270733          	add	a4,a4,sp
   10a0c:	fe074703          	lbu	a4,-32(a4)
   10a10:	fee78623          	sb	a4,-20(a5)
   10a14:	d49ff0ef          	jal	ra,1075c <_Z11EchoConsolePKc>
   10a18:	02c12083          	lw	ra,44(sp)
   10a1c:	03010113          	addi	sp,sp,48
   10a20:	00008067          	ret
   10a24:	05f5e737          	lui	a4,0x5f5e
   10a28:	10070713          	addi	a4,a4,256 # 5f5e100 <__BSS_END__+0x5f492b4>
   10a2c:	02e54733          	div	a4,a0,a4
   10a30:	02068693          	addi	a3,a3,32
   10a34:	002686b3          	add	a3,a3,sp
   10a38:	fe06c603          	lbu	a2,-32(a3)
   10a3c:	02078693          	addi	a3,a5,32
   10a40:	002686b3          	add	a3,a3,sp
   10a44:	fec68623          	sb	a2,-20(a3)
   10a48:	00178793          	addi	a5,a5,1
   10a4c:	41f75613          	srai	a2,a4,0x1f
   10a50:	00e646b3          	xor	a3,a2,a4
   10a54:	40c686b3          	sub	a3,a3,a2
   10a58:	00a00713          	li	a4,10
   10a5c:	02e6e6b3          	rem	a3,a3,a4
   10a60:	00989737          	lui	a4,0x989
   10a64:	68070713          	addi	a4,a4,1664 # 989680 <__BSS_END__+0x974834>
   10a68:	02068693          	addi	a3,a3,32
   10a6c:	002686b3          	add	a3,a3,sp
   10a70:	fe06c603          	lbu	a2,-32(a3)
   10a74:	02078693          	addi	a3,a5,32
   10a78:	002686b3          	add	a3,a3,sp
   10a7c:	fec68623          	sb	a2,-20(a3)
   10a80:	00178793          	addi	a5,a5,1
   10a84:	02e54733          	div	a4,a0,a4
   10a88:	41f75613          	srai	a2,a4,0x1f
   10a8c:	00e646b3          	xor	a3,a2,a4
   10a90:	40c686b3          	sub	a3,a3,a2
   10a94:	00a00713          	li	a4,10
   10a98:	02e6e6b3          	rem	a3,a3,a4
   10a9c:	000f4737          	lui	a4,0xf4
   10aa0:	24070713          	addi	a4,a4,576 # f4240 <__BSS_END__+0xdf3f4>
   10aa4:	02068693          	addi	a3,a3,32
   10aa8:	002686b3          	add	a3,a3,sp
   10aac:	fe06c603          	lbu	a2,-32(a3)
   10ab0:	02078693          	addi	a3,a5,32
   10ab4:	002686b3          	add	a3,a3,sp
   10ab8:	fec68623          	sb	a2,-20(a3)
   10abc:	00178793          	addi	a5,a5,1
   10ac0:	02e54733          	div	a4,a0,a4
   10ac4:	41f75613          	srai	a2,a4,0x1f
   10ac8:	00e646b3          	xor	a3,a2,a4
   10acc:	40c686b3          	sub	a3,a3,a2
   10ad0:	00a00713          	li	a4,10
   10ad4:	02e6e6b3          	rem	a3,a3,a4
   10ad8:	00018737          	lui	a4,0x18
   10adc:	6a070713          	addi	a4,a4,1696 # 186a0 <__BSS_END__+0x3854>
   10ae0:	02068693          	addi	a3,a3,32
   10ae4:	002686b3          	add	a3,a3,sp
   10ae8:	fe06c603          	lbu	a2,-32(a3)
   10aec:	02078693          	addi	a3,a5,32
   10af0:	002686b3          	add	a3,a3,sp
   10af4:	fec68623          	sb	a2,-20(a3)
   10af8:	00178793          	addi	a5,a5,1
   10afc:	02e54733          	div	a4,a0,a4
   10b00:	41f75613          	srai	a2,a4,0x1f
   10b04:	00e646b3          	xor	a3,a2,a4
   10b08:	40c686b3          	sub	a3,a3,a2
   10b0c:	00a00713          	li	a4,10
   10b10:	02e6e6b3          	rem	a3,a3,a4
   10b14:	00002737          	lui	a4,0x2
   10b18:	71070713          	addi	a4,a4,1808 # 2710 <main-0xd964>
   10b1c:	02068693          	addi	a3,a3,32
   10b20:	002686b3          	add	a3,a3,sp
   10b24:	fe06c603          	lbu	a2,-32(a3)
   10b28:	02078693          	addi	a3,a5,32
   10b2c:	002686b3          	add	a3,a3,sp
   10b30:	fec68623          	sb	a2,-20(a3)
   10b34:	00178793          	addi	a5,a5,1
   10b38:	02e54733          	div	a4,a0,a4
   10b3c:	41f75693          	srai	a3,a4,0x1f
   10b40:	00e6c733          	xor	a4,a3,a4
   10b44:	40d70733          	sub	a4,a4,a3
   10b48:	00a00693          	li	a3,10
   10b4c:	02d76733          	rem	a4,a4,a3
   10b50:	3e800693          	li	a3,1000
   10b54:	02070713          	addi	a4,a4,32
   10b58:	00270733          	add	a4,a4,sp
   10b5c:	fe074603          	lbu	a2,-32(a4)
   10b60:	02078713          	addi	a4,a5,32
   10b64:	00270733          	add	a4,a4,sp
   10b68:	fec70623          	sb	a2,-20(a4)
   10b6c:	00178793          	addi	a5,a5,1
   10b70:	02d546b3          	div	a3,a0,a3
   10b74:	41f6d713          	srai	a4,a3,0x1f
   10b78:	00d746b3          	xor	a3,a4,a3
   10b7c:	40e686b3          	sub	a3,a3,a4
   10b80:	00a00713          	li	a4,10
   10b84:	02e6e6b3          	rem	a3,a3,a4
   10b88:	06400713          	li	a4,100
   10b8c:	02068693          	addi	a3,a3,32
   10b90:	002686b3          	add	a3,a3,sp
   10b94:	fe06c603          	lbu	a2,-32(a3)
   10b98:	02078693          	addi	a3,a5,32
   10b9c:	002686b3          	add	a3,a3,sp
   10ba0:	fec68623          	sb	a2,-20(a3)
   10ba4:	00178793          	addi	a5,a5,1
   10ba8:	02e54733          	div	a4,a0,a4
   10bac:	41f75693          	srai	a3,a4,0x1f
   10bb0:	00e6c733          	xor	a4,a3,a4
   10bb4:	40d70733          	sub	a4,a4,a3
   10bb8:	00a00693          	li	a3,10
   10bbc:	02d76733          	rem	a4,a4,a3
   10bc0:	00a00613          	li	a2,10
   10bc4:	02070713          	addi	a4,a4,32
   10bc8:	00270733          	add	a4,a4,sp
   10bcc:	fe074583          	lbu	a1,-32(a4)
   10bd0:	02078713          	addi	a4,a5,32
   10bd4:	00270733          	add	a4,a4,sp
   10bd8:	feb70623          	sb	a1,-20(a4)
   10bdc:	00178793          	addi	a5,a5,1
   10be0:	02c546b3          	div	a3,a0,a2
   10be4:	41f6d593          	srai	a1,a3,0x1f
   10be8:	00d5c733          	xor	a4,a1,a3
   10bec:	40b70733          	sub	a4,a4,a1
   10bf0:	02c76733          	rem	a4,a4,a2
   10bf4:	02070713          	addi	a4,a4,32
   10bf8:	00270733          	add	a4,a4,sp
   10bfc:	fe074683          	lbu	a3,-32(a4)
   10c00:	02078713          	addi	a4,a5,32
   10c04:	00270733          	add	a4,a4,sp
   10c08:	00178793          	addi	a5,a5,1
   10c0c:	fed70623          	sb	a3,-20(a4)
   10c10:	dd1ff06f          	j	109e0 <_Z18EchoConsoleDecimall+0x198>

00010c14 <_Z14EchoConsoleHexl>:
   10c14:	41f55793          	srai	a5,a0,0x1f
   10c18:	01c7d793          	srli	a5,a5,0x1c
   10c1c:	00001897          	auipc	a7,0x1
   10c20:	72c88893          	addi	a7,a7,1836 # 12348 <_exit+0x194>
   10c24:	40c55713          	srai	a4,a0,0xc
   10c28:	00c8a603          	lw	a2,12(a7)
   10c2c:	40855693          	srai	a3,a0,0x8
   10c30:	41855313          	srai	t1,a0,0x18
   10c34:	00f70733          	add	a4,a4,a5
   10c38:	0048af03          	lw	t5,4(a7)
   10c3c:	0088ae83          	lw	t4,8(a7)
   10c40:	0008af83          	lw	t6,0(a7)
   10c44:	00f686b3          	add	a3,a3,a5
   10c48:	00f30333          	add	t1,t1,a5
   10c4c:	00f77713          	andi	a4,a4,15
   10c50:	fd010113          	addi	sp,sp,-48
   10c54:	41c55e13          	srai	t3,a0,0x1c
   10c58:	40f70733          	sub	a4,a4,a5
   10c5c:	00f6f693          	andi	a3,a3,15
   10c60:	00f37313          	andi	t1,t1,15
   10c64:	00c12c23          	sw	a2,24(sp)
   10c68:	40f30333          	sub	t1,t1,a5
   10c6c:	40455813          	srai	a6,a0,0x4
   10c70:	41455593          	srai	a1,a0,0x14
   10c74:	40f686b3          	sub	a3,a3,a5
   10c78:	020e0613          	addi	a2,t3,32
   10c7c:	02070713          	addi	a4,a4,32
   10c80:	02112623          	sw	ra,44(sp)
   10c84:	01f12623          	sw	t6,12(sp)
   10c88:	01e12823          	sw	t5,16(sp)
   10c8c:	01d12a23          	sw	t4,20(sp)
   10c90:	00260e33          	add	t3,a2,sp
   10c94:	00f80833          	add	a6,a6,a5
   10c98:	00f585b3          	add	a1,a1,a5
   10c9c:	00270733          	add	a4,a4,sp
   10ca0:	02030613          	addi	a2,t1,32 # 105a0 <_Z9ClockToMsy>
   10ca4:	02068693          	addi	a3,a3,32
   10ca8:	00260333          	add	t1,a2,sp
   10cac:	fec74703          	lbu	a4,-20(a4)
   10cb0:	002686b3          	add	a3,a3,sp
   10cb4:	41055613          	srai	a2,a0,0x10
   10cb8:	00f87813          	andi	a6,a6,15
   10cbc:	00f50533          	add	a0,a0,a5
   10cc0:	00f5f593          	andi	a1,a1,15
   10cc4:	fec6cf03          	lbu	t5,-20(a3)
   10cc8:	fec34e83          	lbu	t4,-20(t1)
   10ccc:	fece4683          	lbu	a3,-20(t3)
   10cd0:	40f80833          	sub	a6,a6,a5
   10cd4:	40f585b3          	sub	a1,a1,a5
   10cd8:	00f60633          	add	a2,a2,a5
   10cdc:	00f57513          	andi	a0,a0,15
   10ce0:	ffff0337          	lui	t1,0xffff0
   10ce4:	0ff30313          	addi	t1,t1,255 # ffff00ff <__BSS_END__+0xfffdb2b3>
   10ce8:	40f50533          	sub	a0,a0,a5
   10cec:	02080813          	addi	a6,a6,32
   10cf0:	02058593          	addi	a1,a1,32
   10cf4:	00f67613          	andi	a2,a2,15
   10cf8:	00280833          	add	a6,a6,sp
   10cfc:	002585b3          	add	a1,a1,sp
   10d00:	40f60633          	sub	a2,a2,a5
   10d04:	006777b3          	and	a5,a4,t1
   10d08:	02050713          	addi	a4,a0,32
   10d0c:	fec84e03          	lbu	t3,-20(a6)
   10d10:	00270533          	add	a0,a4,sp
   10d14:	fec5c803          	lbu	a6,-20(a1)
   10d18:	0066f733          	and	a4,a3,t1
   10d1c:	02060693          	addi	a3,a2,32
   10d20:	002686b3          	add	a3,a3,sp
   10d24:	008f1f13          	slli	t5,t5,0x8
   10d28:	008e9e93          	slli	t4,t4,0x8
   10d2c:	ff010637          	lui	a2,0xff010
   10d30:	fec6c583          	lbu	a1,-20(a3)
   10d34:	fff60613          	addi	a2,a2,-1 # ff00ffff <__BSS_END__+0xfeffb1b3>
   10d38:	fec54503          	lbu	a0,-20(a0)
   10d3c:	01e7e7b3          	or	a5,a5,t5
   10d40:	01d76733          	or	a4,a4,t4
   10d44:	010e1313          	slli	t1,t3,0x10
   10d48:	00c7f7b3          	and	a5,a5,a2
   10d4c:	01081813          	slli	a6,a6,0x10
   10d50:	00c77733          	and	a4,a4,a2
   10d54:	010006b7          	lui	a3,0x1000
   10d58:	fff68693          	addi	a3,a3,-1 # ffffff <__BSS_END__+0xfeb1b3>
   10d5c:	0108c883          	lbu	a7,16(a7)
   10d60:	0067e7b3          	or	a5,a5,t1
   10d64:	01076733          	or	a4,a4,a6
   10d68:	01851513          	slli	a0,a0,0x18
   10d6c:	00d7f7b3          	and	a5,a5,a3
   10d70:	01859613          	slli	a2,a1,0x18
   10d74:	00d77733          	and	a4,a4,a3
   10d78:	00a7e7b3          	or	a5,a5,a0
   10d7c:	00c76733          	or	a4,a4,a2
   10d80:	00010513          	mv	a0,sp
   10d84:	01110e23          	sb	a7,28(sp)
   10d88:	00010423          	sb	zero,8(sp)
   10d8c:	00e12023          	sw	a4,0(sp)
   10d90:	00f12223          	sw	a5,4(sp)
   10d94:	9c9ff0ef          	jal	ra,1075c <_Z11EchoConsolePKc>
   10d98:	02c12083          	lw	ra,44(sp)
   10d9c:	03010113          	addi	sp,sp,48
   10da0:	00008067          	ret

00010da4 <_Z18EchoConsoleHexBytel>:
   10da4:	41f55713          	srai	a4,a0,0x1f
   10da8:	01c75713          	srli	a4,a4,0x1c
   10dac:	00001697          	auipc	a3,0x1
   10db0:	59c68693          	addi	a3,a3,1436 # 12348 <_exit+0x194>
   10db4:	40455793          	srai	a5,a0,0x4
   10db8:	00e50533          	add	a0,a0,a4
   10dbc:	0006a883          	lw	a7,0(a3)
   10dc0:	0046a803          	lw	a6,4(a3)
   10dc4:	0086a583          	lw	a1,8(a3)
   10dc8:	00c6a603          	lw	a2,12(a3)
   10dcc:	00e787b3          	add	a5,a5,a4
   10dd0:	00f57513          	andi	a0,a0,15
   10dd4:	40e50533          	sub	a0,a0,a4
   10dd8:	00f7f793          	andi	a5,a5,15
   10ddc:	fd010113          	addi	sp,sp,-48
   10de0:	40e787b3          	sub	a5,a5,a4
   10de4:	02050713          	addi	a4,a0,32
   10de8:	02112623          	sw	ra,44(sp)
   10dec:	01112623          	sw	a7,12(sp)
   10df0:	01012823          	sw	a6,16(sp)
   10df4:	00b12a23          	sw	a1,20(sp)
   10df8:	00c12c23          	sw	a2,24(sp)
   10dfc:	00270533          	add	a0,a4,sp
   10e00:	02078793          	addi	a5,a5,32
   10e04:	fec54703          	lbu	a4,-20(a0)
   10e08:	002787b3          	add	a5,a5,sp
   10e0c:	fec7c783          	lbu	a5,-20(a5)
   10e10:	0106c683          	lbu	a3,16(a3)
   10e14:	00871713          	slli	a4,a4,0x8
   10e18:	00e7e7b3          	or	a5,a5,a4
   10e1c:	00810513          	addi	a0,sp,8
   10e20:	00d10e23          	sb	a3,28(sp)
   10e24:	00010523          	sb	zero,10(sp)
   10e28:	00f11423          	sh	a5,8(sp)
   10e2c:	931ff0ef          	jal	ra,1075c <_Z11EchoConsolePKc>
   10e30:	02c12083          	lw	ra,44(sp)
   10e34:	03010113          	addi	sp,sp,48
   10e38:	00008067          	ret

00010e3c <_Z11DrawConsolev>:
   10e3c:	ff010113          	addi	sp,sp,-16
   10e40:	00812423          	sw	s0,8(sp)
   10e44:	00912223          	sw	s1,4(sp)
   10e48:	01212023          	sw	s2,0(sp)
   10e4c:	00112623          	sw	ra,12(sp)
   10e50:	e8c18413          	addi	s0,gp,-372 # 14994 <_ZL11consoleText>
   10e54:	33c18913          	addi	s2,gp,828 # 14e44 <_ZL7cursorx>
   10e58:	00000493          	li	s1,0
   10e5c:	00040693          	mv	a3,s0
   10e60:	00048593          	mv	a1,s1
   10e64:	02800613          	li	a2,40
   10e68:	00000513          	li	a0,0
   10e6c:	02840413          	addi	s0,s0,40
   10e70:	138000ef          	jal	ra,10fa8 <_Z11DrawTextLeniiiPKc>
   10e74:	00848493          	addi	s1,s1,8
   10e78:	ff2412e3          	bne	s0,s2,10e5c <_Z11DrawConsolev+0x20>
   10e7c:	00c12083          	lw	ra,12(sp)
   10e80:	00812403          	lw	s0,8(sp)
   10e84:	00412483          	lw	s1,4(sp)
   10e88:	00012903          	lw	s2,0(sp)
   10e8c:	01010113          	addi	sp,sp,16
   10e90:	00008067          	ret

00010e94 <_Z18ConsoleStringAtRowPc>:
   10e94:	33c1a803          	lw	a6,828(gp) # 14e44 <_ZL7cursorx>
   10e98:	0d005063          	blez	a6,10f58 <_Z18ConsoleStringAtRowPc+0xc4>
   10e9c:	fff80713          	addi	a4,a6,-1
   10ea0:	3401a683          	lw	a3,832(gp) # 14e48 <_ZL7cursory>
   10ea4:	00357793          	andi	a5,a0,3
   10ea8:	00673713          	sltiu	a4,a4,6
   10eac:	00269893          	slli	a7,a3,0x2
   10eb0:	0017b793          	seqz	a5,a5
   10eb4:	00174713          	xori	a4,a4,1
   10eb8:	00d888b3          	add	a7,a7,a3
   10ebc:	00e7f7b3          	and	a5,a5,a4
   10ec0:	00389893          	slli	a7,a7,0x3
   10ec4:	e8c18693          	addi	a3,gp,-372 # 14994 <_ZL11consoleText>
   10ec8:	08078c63          	beqz	a5,10f60 <_Z18ConsoleStringAtRowPc+0xcc>
   10ecc:	00188793          	addi	a5,a7,1
   10ed0:	00f687b3          	add	a5,a3,a5
   10ed4:	40f507b3          	sub	a5,a0,a5
   10ed8:	0037b793          	sltiu	a5,a5,3
   10edc:	08079263          	bnez	a5,10f60 <_Z18ConsoleStringAtRowPc+0xcc>
   10ee0:	011687b3          	add	a5,a3,a7
   10ee4:	ffc87593          	andi	a1,a6,-4
   10ee8:	00050713          	mv	a4,a0
   10eec:	00f585b3          	add	a1,a1,a5
   10ef0:	0007a603          	lw	a2,0(a5)
   10ef4:	00478793          	addi	a5,a5,4
   10ef8:	00470713          	addi	a4,a4,4
   10efc:	fec72e23          	sw	a2,-4(a4)
   10f00:	feb798e3          	bne	a5,a1,10ef0 <_Z18ConsoleStringAtRowPc+0x5c>
   10f04:	ffc87713          	andi	a4,a6,-4
   10f08:	01050633          	add	a2,a0,a6
   10f0c:	04e80463          	beq	a6,a4,10f54 <_Z18ConsoleStringAtRowPc+0xc0>
   10f10:	011687b3          	add	a5,a3,a7
   10f14:	00e786b3          	add	a3,a5,a4
   10f18:	0006c883          	lbu	a7,0(a3)
   10f1c:	00e505b3          	add	a1,a0,a4
   10f20:	00170693          	addi	a3,a4,1
   10f24:	01158023          	sb	a7,0(a1)
   10f28:	0306d663          	bge	a3,a6,10f54 <_Z18ConsoleStringAtRowPc+0xc0>
   10f2c:	00d785b3          	add	a1,a5,a3
   10f30:	0005c583          	lbu	a1,0(a1)
   10f34:	00d506b3          	add	a3,a0,a3
   10f38:	00270713          	addi	a4,a4,2
   10f3c:	00b68023          	sb	a1,0(a3)
   10f40:	01075a63          	bge	a4,a6,10f54 <_Z18ConsoleStringAtRowPc+0xc0>
   10f44:	00e787b3          	add	a5,a5,a4
   10f48:	0007c783          	lbu	a5,0(a5)
   10f4c:	00e50733          	add	a4,a0,a4
   10f50:	00f70023          	sb	a5,0(a4)
   10f54:	00060513          	mv	a0,a2
   10f58:	00050023          	sb	zero,0(a0)
   10f5c:	00008067          	ret
   10f60:	011687b3          	add	a5,a3,a7
   10f64:	01050633          	add	a2,a0,a6
   10f68:	0007c703          	lbu	a4,0(a5)
   10f6c:	00150513          	addi	a0,a0,1
   10f70:	00178793          	addi	a5,a5,1
   10f74:	fee50fa3          	sb	a4,-1(a0)
   10f78:	fea618e3          	bne	a2,a0,10f68 <_Z18ConsoleStringAtRowPc+0xd4>
   10f7c:	fd9ff06f          	j	10f54 <_Z18ConsoleStringAtRowPc+0xc0>

00010f80 <_Z11ClearScreenm>:
   10f80:	00004797          	auipc	a5,0x4
   10f84:	9e07a783          	lw	a5,-1568(a5) # 14960 <_GLOBAL_OFFSET_TABLE_+0x10>
   10f88:	0007a783          	lw	a5,0(a5)
   10f8c:	00013737          	lui	a4,0x13
   10f90:	c0070713          	addi	a4,a4,-1024 # 12c00 <_ZL12residentfont+0x8a4>
   10f94:	00e78733          	add	a4,a5,a4
   10f98:	00a7a023          	sw	a0,0(a5)
   10f9c:	00478793          	addi	a5,a5,4
   10fa0:	fee79ce3          	bne	a5,a4,10f98 <_Z11ClearScreenm+0x18>
   10fa4:	00008067          	ret

00010fa8 <_Z11DrawTextLeniiiPKc>:
   10fa8:	26c05a63          	blez	a2,1121c <_Z11DrawTextLeniiiPKc+0x274>
   10fac:	00259793          	slli	a5,a1,0x2
   10fb0:	00004717          	auipc	a4,0x4
   10fb4:	9b072703          	lw	a4,-1616(a4) # 14960 <_GLOBAL_OFFSET_TABLE_+0x10>
   10fb8:	00b787b3          	add	a5,a5,a1
   10fbc:	00072e83          	lw	t4,0(a4)
   10fc0:	00479793          	slli	a5,a5,0x4
   10fc4:	00150713          	addi	a4,a0,1
   10fc8:	00a78e33          	add	t3,a5,a0
   10fcc:	00f707b3          	add	a5,a4,a5
   10fd0:	fc010113          	addi	sp,sp,-64
   10fd4:	00279793          	slli	a5,a5,0x2
   10fd8:	002e1e13          	slli	t3,t3,0x2
   10fdc:	03512423          	sw	s5,40(sp)
   10fe0:	01ce8e33          	add	t3,t4,t3
   10fe4:	00001ab7          	lui	s5,0x1
   10fe8:	00fe8eb3          	add	t4,t4,a5
   10fec:	00c687b3          	add	a5,a3,a2
   10ff0:	03612223          	sw	s6,36(sp)
   10ff4:	02812e23          	sw	s0,60(sp)
   10ff8:	02912c23          	sw	s1,56(sp)
   10ffc:	03212a23          	sw	s2,52(sp)
   11000:	03312823          	sw	s3,48(sp)
   11004:	03412623          	sw	s4,44(sp)
   11008:	03712023          	sw	s7,32(sp)
   1100c:	01812e23          	sw	s8,28(sp)
   11010:	01912c23          	sw	s9,24(sp)
   11014:	01a12a23          	sw	s10,20(sp)
   11018:	01b12823          	sw	s11,16(sp)
   1101c:	00068f13          	mv	t5,a3
   11020:	00f12623          	sw	a5,12(sp)
   11024:	3c000b13          	li	s6,960
   11028:	00001717          	auipc	a4,0x1
   1102c:	33470713          	addi	a4,a4,820 # 1235c <_ZL12residentfont>
   11030:	8c0a8a93          	addi	s5,s5,-1856 # 8c0 <main-0xf7b4>
   11034:	09c0006f          	j	110d0 <_Z11DrawTextLeniiiPKc+0x128>
   11038:	080fc463          	bltz	t6,110c0 <_Z11DrawTextLeniiiPKc+0x118>
   1103c:	0009af83          	lw	t6,0(s3)
   11040:	01fe2023          	sw	t6,0(t3)
   11044:	00082803          	lw	a6,0(a6)
   11048:	010ea023          	sw	a6,0(t4)
   1104c:	00092803          	lw	a6,0(s2)
   11050:	150e2023          	sw	a6,320(t3)
   11054:	00032803          	lw	a6,0(t1)
   11058:	150ea023          	sw	a6,320(t4)
   1105c:	0004a803          	lw	a6,0(s1)
   11060:	290e2023          	sw	a6,640(t3)
   11064:	00052503          	lw	a0,0(a0)
   11068:	28aea023          	sw	a0,640(t4)
   1106c:	00042503          	lw	a0,0(s0)
   11070:	00ada023          	sw	a0,0(s11)
   11074:	0005a583          	lw	a1,0(a1)
   11078:	00bd2023          	sw	a1,0(s10)
   1107c:	0003a583          	lw	a1,0(t2)
   11080:	50be2023          	sw	a1,1280(t3)
   11084:	00062603          	lw	a2,0(a2)
   11088:	50cea023          	sw	a2,1280(t4)
   1108c:	0002a603          	lw	a2,0(t0)
   11090:	64ce2023          	sw	a2,1600(t3)
   11094:	00812603          	lw	a2,8(sp)
   11098:	00062603          	lw	a2,0(a2)
   1109c:	64cea023          	sw	a2,1600(t4)
   110a0:	000ba603          	lw	a2,0(s7)
   110a4:	78ce2023          	sw	a2,1920(t3)
   110a8:	0008a603          	lw	a2,0(a7)
   110ac:	78cea023          	sw	a2,1920(t4)
   110b0:	0006a683          	lw	a3,0(a3)
   110b4:	00dca023          	sw	a3,0(s9)
   110b8:	0007a783          	lw	a5,0(a5)
   110bc:	00fc2023          	sw	a5,0(s8)
   110c0:	00c12783          	lw	a5,12(sp)
   110c4:	008e0e13          	addi	t3,t3,8
   110c8:	008e8e93          	addi	t4,t4,8
   110cc:	10ff0c63          	beq	t5,a5,111e4 <_Z11DrawTextLeniiiPKc+0x23c>
   110d0:	000f4a03          	lbu	s4,0(t5)
   110d4:	016e0db3          	add	s11,t3,s6
   110d8:	01db0d33          	add	s10,s6,t4
   110dc:	fe0a0f93          	addi	t6,s4,-32
   110e0:	405fd793          	srai	a5,t6,0x5
   110e4:	00979813          	slli	a6,a5,0x9
   110e8:	00979793          	slli	a5,a5,0x9
   110ec:	04078793          	addi	a5,a5,64
   110f0:	01fff693          	andi	a3,t6,31
   110f4:	00169693          	slli	a3,a3,0x1
   110f8:	10078893          	addi	a7,a5,256
   110fc:	00d888b3          	add	a7,a7,a3
   11100:	00289293          	slli	t0,a7,0x2
   11104:	00188893          	addi	a7,a7,1
   11108:	00289893          	slli	a7,a7,0x2
   1110c:	00e888b3          	add	a7,a7,a4
   11110:	00f68333          	add	t1,a3,a5
   11114:	04078513          	addi	a0,a5,64
   11118:	08078593          	addi	a1,a5,128
   1111c:	0c078613          	addi	a2,a5,192
   11120:	01112423          	sw	a7,8(sp)
   11124:	14078893          	addi	a7,a5,320
   11128:	18078793          	addi	a5,a5,384
   1112c:	00d80833          	add	a6,a6,a3
   11130:	00d50533          	add	a0,a0,a3
   11134:	00d585b3          	add	a1,a1,a3
   11138:	00d60633          	add	a2,a2,a3
   1113c:	00d888b3          	add	a7,a7,a3
   11140:	00d787b3          	add	a5,a5,a3
   11144:	00281993          	slli	s3,a6,0x2
   11148:	00231913          	slli	s2,t1,0x2
   1114c:	00251493          	slli	s1,a0,0x2
   11150:	00259413          	slli	s0,a1,0x2
   11154:	00261393          	slli	t2,a2,0x2
   11158:	00289b93          	slli	s7,a7,0x2
   1115c:	00279693          	slli	a3,a5,0x2
   11160:	00180813          	addi	a6,a6,1
   11164:	00130313          	addi	t1,t1,1
   11168:	00150513          	addi	a0,a0,1
   1116c:	00158593          	addi	a1,a1,1
   11170:	00160613          	addi	a2,a2,1
   11174:	00188893          	addi	a7,a7,1
   11178:	00178793          	addi	a5,a5,1
   1117c:	00281813          	slli	a6,a6,0x2
   11180:	00231313          	slli	t1,t1,0x2
   11184:	00251513          	slli	a0,a0,0x2
   11188:	00259593          	slli	a1,a1,0x2
   1118c:	00261613          	slli	a2,a2,0x2
   11190:	00289893          	slli	a7,a7,0x2
   11194:	00279793          	slli	a5,a5,0x2
   11198:	015e0cb3          	add	s9,t3,s5
   1119c:	001f0f13          	addi	t5,t5,1
   111a0:	015e8c33          	add	s8,t4,s5
   111a4:	00e989b3          	add	s3,s3,a4
   111a8:	00e80833          	add	a6,a6,a4
   111ac:	00e90933          	add	s2,s2,a4
   111b0:	00e30333          	add	t1,t1,a4
   111b4:	00e484b3          	add	s1,s1,a4
   111b8:	00e50533          	add	a0,a0,a4
   111bc:	00e40433          	add	s0,s0,a4
   111c0:	00e585b3          	add	a1,a1,a4
   111c4:	00e383b3          	add	t2,t2,a4
   111c8:	00e60633          	add	a2,a2,a4
   111cc:	00e282b3          	add	t0,t0,a4
   111d0:	00eb8bb3          	add	s7,s7,a4
   111d4:	00e888b3          	add	a7,a7,a4
   111d8:	00e686b3          	add	a3,a3,a4
   111dc:	00e787b3          	add	a5,a5,a4
   111e0:	e40a1ce3          	bnez	s4,11038 <_Z11DrawTextLeniiiPKc+0x90>
   111e4:	03c12403          	lw	s0,60(sp)
   111e8:	03812483          	lw	s1,56(sp)
   111ec:	03412903          	lw	s2,52(sp)
   111f0:	03012983          	lw	s3,48(sp)
   111f4:	02c12a03          	lw	s4,44(sp)
   111f8:	02812a83          	lw	s5,40(sp)
   111fc:	02412b03          	lw	s6,36(sp)
   11200:	02012b83          	lw	s7,32(sp)
   11204:	01c12c03          	lw	s8,28(sp)
   11208:	01812c83          	lw	s9,24(sp)
   1120c:	01412d03          	lw	s10,20(sp)
   11210:	01012d83          	lw	s11,16(sp)
   11214:	04010113          	addi	sp,sp,64
   11218:	00008067          	ret
   1121c:	00008067          	ret

00011220 <_Z8DrawTextiiPKc>:
   11220:	00064703          	lbu	a4,0(a2)
   11224:	22070063          	beqz	a4,11444 <_Z8DrawTextiiPKc+0x224>
   11228:	00259793          	slli	a5,a1,0x2
   1122c:	00b787b3          	add	a5,a5,a1
   11230:	00003697          	auipc	a3,0x3
   11234:	7306a683          	lw	a3,1840(a3) # 14960 <_GLOBAL_OFFSET_TABLE_+0x10>
   11238:	0006a803          	lw	a6,0(a3)
   1123c:	00479793          	slli	a5,a5,0x4
   11240:	00150693          	addi	a3,a0,1
   11244:	00a785b3          	add	a1,a5,a0
   11248:	00f687b3          	add	a5,a3,a5
   1124c:	00259593          	slli	a1,a1,0x2
   11250:	00279793          	slli	a5,a5,0x2
   11254:	00001337          	lui	t1,0x1
   11258:	00b805b3          	add	a1,a6,a1
   1125c:	14000e93          	li	t4,320
   11260:	00f80833          	add	a6,a6,a5
   11264:	28000e13          	li	t3,640
   11268:	00000893          	li	a7,0
   1126c:	00001697          	auipc	a3,0x1
   11270:	0f068693          	addi	a3,a3,240 # 1235c <_ZL12residentfont>
   11274:	8c030313          	addi	t1,t1,-1856 # 8c0 <main-0xf7b4>
   11278:	fe070713          	addi	a4,a4,-32
   1127c:	00188893          	addi	a7,a7,1
   11280:	1a074463          	bltz	a4,11428 <_Z8DrawTextiiPKc+0x208>
   11284:	40575793          	srai	a5,a4,0x5
   11288:	01f77713          	andi	a4,a4,31
   1128c:	00171713          	slli	a4,a4,0x1
   11290:	00979513          	slli	a0,a5,0x9
   11294:	00e50533          	add	a0,a0,a4
   11298:	00251f13          	slli	t5,a0,0x2
   1129c:	00df0f33          	add	t5,t5,a3
   112a0:	000f2f03          	lw	t5,0(t5)
   112a4:	00150513          	addi	a0,a0,1
   112a8:	00251513          	slli	a0,a0,0x2
   112ac:	01e5a023          	sw	t5,0(a1)
   112b0:	00d50533          	add	a0,a0,a3
   112b4:	00979793          	slli	a5,a5,0x9
   112b8:	00052f83          	lw	t6,0(a0)
   112bc:	04078793          	addi	a5,a5,64
   112c0:	00f70533          	add	a0,a4,a5
   112c4:	00251f13          	slli	t5,a0,0x2
   112c8:	01f82023          	sw	t6,0(a6)
   112cc:	00df0f33          	add	t5,t5,a3
   112d0:	000f2f83          	lw	t6,0(t5)
   112d4:	00150513          	addi	a0,a0,1
   112d8:	01d58f33          	add	t5,a1,t4
   112dc:	00251513          	slli	a0,a0,0x2
   112e0:	01ff2023          	sw	t6,0(t5)
   112e4:	00d50533          	add	a0,a0,a3
   112e8:	00052283          	lw	t0,0(a0)
   112ec:	04078513          	addi	a0,a5,64
   112f0:	00e50533          	add	a0,a0,a4
   112f4:	010e8fb3          	add	t6,t4,a6
   112f8:	00251f13          	slli	t5,a0,0x2
   112fc:	005fa023          	sw	t0,0(t6)
   11300:	00df0f33          	add	t5,t5,a3
   11304:	000f2f83          	lw	t6,0(t5)
   11308:	00150513          	addi	a0,a0,1
   1130c:	01c58f33          	add	t5,a1,t3
   11310:	00251513          	slli	a0,a0,0x2
   11314:	01ff2023          	sw	t6,0(t5)
   11318:	00d50533          	add	a0,a0,a3
   1131c:	00052283          	lw	t0,0(a0)
   11320:	08078513          	addi	a0,a5,128
   11324:	00e50533          	add	a0,a0,a4
   11328:	010e0fb3          	add	t6,t3,a6
   1132c:	00251f13          	slli	t5,a0,0x2
   11330:	005fa023          	sw	t0,0(t6)
   11334:	00df0f33          	add	t5,t5,a3
   11338:	000f2f03          	lw	t5,0(t5)
   1133c:	00150513          	addi	a0,a0,1
   11340:	00251513          	slli	a0,a0,0x2
   11344:	3de5a023          	sw	t5,960(a1)
   11348:	00d50533          	add	a0,a0,a3
   1134c:	00052f83          	lw	t6,0(a0)
   11350:	0c078513          	addi	a0,a5,192
   11354:	00e50533          	add	a0,a0,a4
   11358:	00251f13          	slli	t5,a0,0x2
   1135c:	3df82023          	sw	t6,960(a6)
   11360:	00df0f33          	add	t5,t5,a3
   11364:	000f2f03          	lw	t5,0(t5)
   11368:	00150513          	addi	a0,a0,1
   1136c:	00251513          	slli	a0,a0,0x2
   11370:	51e5a023          	sw	t5,1280(a1)
   11374:	00d50533          	add	a0,a0,a3
   11378:	00052f83          	lw	t6,0(a0)
   1137c:	10078513          	addi	a0,a5,256
   11380:	00e50533          	add	a0,a0,a4
   11384:	00251f13          	slli	t5,a0,0x2
   11388:	51f82023          	sw	t6,1280(a6)
   1138c:	00df0f33          	add	t5,t5,a3
   11390:	000f2f03          	lw	t5,0(t5)
   11394:	00150513          	addi	a0,a0,1
   11398:	00251513          	slli	a0,a0,0x2
   1139c:	65e5a023          	sw	t5,1600(a1)
   113a0:	00d50533          	add	a0,a0,a3
   113a4:	00052f83          	lw	t6,0(a0)
   113a8:	14078513          	addi	a0,a5,320
   113ac:	00e50533          	add	a0,a0,a4
   113b0:	00251f13          	slli	t5,a0,0x2
   113b4:	65f82023          	sw	t6,1600(a6)
   113b8:	00df0f33          	add	t5,t5,a3
   113bc:	000f2f03          	lw	t5,0(t5)
   113c0:	00150513          	addi	a0,a0,1
   113c4:	00251513          	slli	a0,a0,0x2
   113c8:	79e5a023          	sw	t5,1920(a1)
   113cc:	00d50533          	add	a0,a0,a3
   113d0:	00052503          	lw	a0,0(a0)
   113d4:	18078793          	addi	a5,a5,384
   113d8:	00e787b3          	add	a5,a5,a4
   113dc:	00279713          	slli	a4,a5,0x2
   113e0:	78a82023          	sw	a0,1920(a6)
   113e4:	00d70733          	add	a4,a4,a3
   113e8:	00072503          	lw	a0,0(a4)
   113ec:	00178793          	addi	a5,a5,1
   113f0:	00658733          	add	a4,a1,t1
   113f4:	00279793          	slli	a5,a5,0x2
   113f8:	00a72023          	sw	a0,0(a4)
   113fc:	00d787b3          	add	a5,a5,a3
   11400:	0007a503          	lw	a0,0(a5)
   11404:	00680733          	add	a4,a6,t1
   11408:	011607b3          	add	a5,a2,a7
   1140c:	00a72023          	sw	a0,0(a4)
   11410:	0007c703          	lbu	a4,0(a5)
   11414:	00088513          	mv	a0,a7
   11418:	00858593          	addi	a1,a1,8
   1141c:	00880813          	addi	a6,a6,8
   11420:	e4071ce3          	bnez	a4,11278 <_Z8DrawTextiiPKc+0x58>
   11424:	00008067          	ret
   11428:	011607b3          	add	a5,a2,a7
   1142c:	0007c703          	lbu	a4,0(a5)
   11430:	00088513          	mv	a0,a7
   11434:	00858593          	addi	a1,a1,8
   11438:	00880813          	addi	a6,a6,8
   1143c:	e2071ee3          	bnez	a4,11278 <_Z8DrawTextiiPKc+0x58>
   11440:	00008067          	ret
   11444:	00000513          	li	a0,0
   11448:	00008067          	ret

0001144c <_Z11DrawDecimaliil>:
   1144c:	00001797          	auipc	a5,0x1
   11450:	edc78793          	addi	a5,a5,-292 # 12328 <_exit+0x174>
   11454:	00001717          	auipc	a4,0x1
   11458:	ee870713          	addi	a4,a4,-280 # 1233c <_exit+0x188>
   1145c:	00072f03          	lw	t5,0(a4)
   11460:	00472e83          	lw	t4,4(a4)
   11464:	00875e03          	lhu	t3,8(a4)
   11468:	00a74303          	lbu	t1,10(a4)
   1146c:	0007a883          	lw	a7,0(a5)
   11470:	00c7a703          	lw	a4,12(a5)
   11474:	0047a803          	lw	a6,4(a5)
   11478:	0087a683          	lw	a3,8(a5)
   1147c:	0107a783          	lw	a5,16(a5)
   11480:	fd010113          	addi	sp,sp,-48
   11484:	00e12c23          	sw	a4,24(sp)
   11488:	00f12e23          	sw	a5,28(sp)
   1148c:	02112623          	sw	ra,44(sp)
   11490:	02812423          	sw	s0,40(sp)
   11494:	01e12023          	sw	t5,0(sp)
   11498:	01d12223          	sw	t4,4(sp)
   1149c:	01c11423          	sh	t3,8(sp)
   114a0:	00610523          	sb	t1,10(sp)
   114a4:	01112623          	sw	a7,12(sp)
   114a8:	01012823          	sw	a6,16(sp)
   114ac:	00d12a23          	sw	a3,20(sp)
   114b0:	02d00713          	li	a4,45
   114b4:	00100793          	li	a5,1
   114b8:	00064663          	bltz	a2,114c4 <_Z11DrawDecimaliil+0x78>
   114bc:	02000713          	li	a4,32
   114c0:	00000793          	li	a5,0
   114c4:	3b9ad6b7          	lui	a3,0x3b9ad
   114c8:	a0068693          	addi	a3,a3,-1536 # 3b9aca00 <__BSS_END__+0x3b997bb4>
   114cc:	02d646b3          	div	a3,a2,a3
   114d0:	80000837          	lui	a6,0x80000
   114d4:	fff84813          	not	a6,a6
   114d8:	00e10623          	sb	a4,12(sp)
   114dc:	05f5e737          	lui	a4,0x5f5e
   114e0:	10070713          	addi	a4,a4,256 # 5f5e100 <__BSS_END__+0x5f492b4>
   114e4:	0106f6b3          	and	a3,a3,a6
   114e8:	02e64733          	div	a4,a2,a4
   114ec:	10069063          	bnez	a3,115ec <_Z11DrawDecimaliil+0x1a0>
   114f0:	00a00893          	li	a7,10
   114f4:	03176733          	rem	a4,a4,a7
   114f8:	01077733          	and	a4,a4,a6
   114fc:	10071c63          	bnez	a4,11614 <_Z11DrawDecimaliil+0x1c8>
   11500:	009896b7          	lui	a3,0x989
   11504:	68068693          	addi	a3,a3,1664 # 989680 <__BSS_END__+0x974834>
   11508:	02d646b3          	div	a3,a2,a3
   1150c:	0316e6b3          	rem	a3,a3,a7
   11510:	0106f6b3          	and	a3,a3,a6
   11514:	12069c63          	bnez	a3,1164c <_Z11DrawDecimaliil+0x200>
   11518:	000f4737          	lui	a4,0xf4
   1151c:	24070713          	addi	a4,a4,576 # f4240 <__BSS_END__+0xdf3f4>
   11520:	02e64733          	div	a4,a2,a4
   11524:	03176733          	rem	a4,a4,a7
   11528:	01077733          	and	a4,a4,a6
   1152c:	14071c63          	bnez	a4,11684 <_Z11DrawDecimaliil+0x238>
   11530:	000186b7          	lui	a3,0x18
   11534:	6a068693          	addi	a3,a3,1696 # 186a0 <__BSS_END__+0x3854>
   11538:	02d646b3          	div	a3,a2,a3
   1153c:	0316e6b3          	rem	a3,a3,a7
   11540:	0106f6b3          	and	a3,a3,a6
   11544:	16069c63          	bnez	a3,116bc <_Z11DrawDecimaliil+0x270>
   11548:	00002737          	lui	a4,0x2
   1154c:	71070713          	addi	a4,a4,1808 # 2710 <main-0xd964>
   11550:	02e64733          	div	a4,a2,a4
   11554:	03176733          	rem	a4,a4,a7
   11558:	01077733          	and	a4,a4,a6
   1155c:	18071c63          	bnez	a4,116f4 <_Z11DrawDecimaliil+0x2a8>
   11560:	3e800693          	li	a3,1000
   11564:	02d646b3          	div	a3,a2,a3
   11568:	0316e6b3          	rem	a3,a3,a7
   1156c:	0106f6b3          	and	a3,a3,a6
   11570:	1a069c63          	bnez	a3,11728 <_Z11DrawDecimaliil+0x2dc>
   11574:	06400713          	li	a4,100
   11578:	02e64733          	div	a4,a2,a4
   1157c:	03176733          	rem	a4,a4,a7
   11580:	01077733          	and	a4,a4,a6
   11584:	1c071c63          	bnez	a4,1175c <_Z11DrawDecimaliil+0x310>
   11588:	03164733          	div	a4,a2,a7
   1158c:	03176733          	rem	a4,a4,a7
   11590:	01077733          	and	a4,a4,a6
   11594:	1e071c63          	bnez	a4,1178c <_Z11DrawDecimaliil+0x340>
   11598:	00a00713          	li	a4,10
   1159c:	02e66733          	rem	a4,a2,a4
   115a0:	00178413          	addi	s0,a5,1
   115a4:	02078793          	addi	a5,a5,32
   115a8:	002787b3          	add	a5,a5,sp
   115ac:	02040693          	addi	a3,s0,32
   115b0:	002686b3          	add	a3,a3,sp
   115b4:	00c10613          	addi	a2,sp,12
   115b8:	00171713          	slli	a4,a4,0x1
   115bc:	00175713          	srli	a4,a4,0x1
   115c0:	02070713          	addi	a4,a4,32
   115c4:	00270733          	add	a4,a4,sp
   115c8:	fe074703          	lbu	a4,-32(a4)
   115cc:	fee78623          	sb	a4,-20(a5)
   115d0:	fe068623          	sb	zero,-20(a3)
   115d4:	c4dff0ef          	jal	ra,11220 <_Z8DrawTextiiPKc>
   115d8:	02c12083          	lw	ra,44(sp)
   115dc:	00040513          	mv	a0,s0
   115e0:	02812403          	lw	s0,40(sp)
   115e4:	03010113          	addi	sp,sp,48
   115e8:	00008067          	ret
   115ec:	02068693          	addi	a3,a3,32
   115f0:	002686b3          	add	a3,a3,sp
   115f4:	fe06c883          	lbu	a7,-32(a3)
   115f8:	02078693          	addi	a3,a5,32
   115fc:	002686b3          	add	a3,a3,sp
   11600:	ff168623          	sb	a7,-20(a3)
   11604:	00a00693          	li	a3,10
   11608:	02d76733          	rem	a4,a4,a3
   1160c:	00178793          	addi	a5,a5,1
   11610:	01077733          	and	a4,a4,a6
   11614:	009896b7          	lui	a3,0x989
   11618:	68068693          	addi	a3,a3,1664 # 989680 <__BSS_END__+0x974834>
   1161c:	02d646b3          	div	a3,a2,a3
   11620:	02070713          	addi	a4,a4,32
   11624:	00270733          	add	a4,a4,sp
   11628:	fe074803          	lbu	a6,-32(a4)
   1162c:	02078713          	addi	a4,a5,32
   11630:	00270733          	add	a4,a4,sp
   11634:	ff070623          	sb	a6,-20(a4)
   11638:	00a00713          	li	a4,10
   1163c:	00178793          	addi	a5,a5,1
   11640:	02e6e6b3          	rem	a3,a3,a4
   11644:	00169693          	slli	a3,a3,0x1
   11648:	0016d693          	srli	a3,a3,0x1
   1164c:	000f4737          	lui	a4,0xf4
   11650:	24070713          	addi	a4,a4,576 # f4240 <__BSS_END__+0xdf3f4>
   11654:	02e64733          	div	a4,a2,a4
   11658:	02068693          	addi	a3,a3,32
   1165c:	002686b3          	add	a3,a3,sp
   11660:	fe06c803          	lbu	a6,-32(a3)
   11664:	02078693          	addi	a3,a5,32
   11668:	002686b3          	add	a3,a3,sp
   1166c:	ff068623          	sb	a6,-20(a3)
   11670:	00a00693          	li	a3,10
   11674:	00178793          	addi	a5,a5,1
   11678:	02d76733          	rem	a4,a4,a3
   1167c:	00171713          	slli	a4,a4,0x1
   11680:	00175713          	srli	a4,a4,0x1
   11684:	000186b7          	lui	a3,0x18
   11688:	6a068693          	addi	a3,a3,1696 # 186a0 <__BSS_END__+0x3854>
   1168c:	02d646b3          	div	a3,a2,a3
   11690:	02070713          	addi	a4,a4,32
   11694:	00270733          	add	a4,a4,sp
   11698:	fe074803          	lbu	a6,-32(a4)
   1169c:	02078713          	addi	a4,a5,32
   116a0:	00270733          	add	a4,a4,sp
   116a4:	ff070623          	sb	a6,-20(a4)
   116a8:	00a00713          	li	a4,10
   116ac:	00178793          	addi	a5,a5,1
   116b0:	02e6e6b3          	rem	a3,a3,a4
   116b4:	00169693          	slli	a3,a3,0x1
   116b8:	0016d693          	srli	a3,a3,0x1
   116bc:	00002737          	lui	a4,0x2
   116c0:	71070713          	addi	a4,a4,1808 # 2710 <main-0xd964>
   116c4:	02e64733          	div	a4,a2,a4
   116c8:	02068693          	addi	a3,a3,32
   116cc:	002686b3          	add	a3,a3,sp
   116d0:	fe06c803          	lbu	a6,-32(a3)
   116d4:	02078693          	addi	a3,a5,32
   116d8:	002686b3          	add	a3,a3,sp
   116dc:	ff068623          	sb	a6,-20(a3)
   116e0:	00a00693          	li	a3,10
   116e4:	00178793          	addi	a5,a5,1
   116e8:	02d76733          	rem	a4,a4,a3
   116ec:	00171713          	slli	a4,a4,0x1
   116f0:	00175713          	srli	a4,a4,0x1
   116f4:	3e800693          	li	a3,1000
   116f8:	02d646b3          	div	a3,a2,a3
   116fc:	02070713          	addi	a4,a4,32
   11700:	00270733          	add	a4,a4,sp
   11704:	fe074803          	lbu	a6,-32(a4)
   11708:	02078713          	addi	a4,a5,32
   1170c:	00270733          	add	a4,a4,sp
   11710:	ff070623          	sb	a6,-20(a4)
   11714:	00a00713          	li	a4,10
   11718:	00178793          	addi	a5,a5,1
   1171c:	02e6e6b3          	rem	a3,a3,a4
   11720:	00169693          	slli	a3,a3,0x1
   11724:	0016d693          	srli	a3,a3,0x1
   11728:	06400713          	li	a4,100
   1172c:	02e64733          	div	a4,a2,a4
   11730:	02068693          	addi	a3,a3,32
   11734:	002686b3          	add	a3,a3,sp
   11738:	fe06c803          	lbu	a6,-32(a3)
   1173c:	02078693          	addi	a3,a5,32
   11740:	002686b3          	add	a3,a3,sp
   11744:	ff068623          	sb	a6,-20(a3)
   11748:	00a00693          	li	a3,10
   1174c:	00178793          	addi	a5,a5,1
   11750:	02d76733          	rem	a4,a4,a3
   11754:	00171713          	slli	a4,a4,0x1
   11758:	00175713          	srli	a4,a4,0x1
   1175c:	00a00813          	li	a6,10
   11760:	030646b3          	div	a3,a2,a6
   11764:	02070713          	addi	a4,a4,32
   11768:	00270733          	add	a4,a4,sp
   1176c:	fe074883          	lbu	a7,-32(a4)
   11770:	02078713          	addi	a4,a5,32
   11774:	00270733          	add	a4,a4,sp
   11778:	ff170623          	sb	a7,-20(a4)
   1177c:	00178793          	addi	a5,a5,1
   11780:	0306e733          	rem	a4,a3,a6
   11784:	00171713          	slli	a4,a4,0x1
   11788:	00175713          	srli	a4,a4,0x1
   1178c:	02070713          	addi	a4,a4,32
   11790:	00270733          	add	a4,a4,sp
   11794:	fe074683          	lbu	a3,-32(a4)
   11798:	02078713          	addi	a4,a5,32
   1179c:	00270733          	add	a4,a4,sp
   117a0:	00178793          	addi	a5,a5,1
   117a4:	fed70623          	sb	a3,-20(a4)
   117a8:	df1ff06f          	j	11598 <_Z11DrawDecimaliil+0x14c>

000117ac <_Z14RingBufferReadPhPvm>:
   117ac:	ff010113          	addi	sp,sp,-16
   117b0:	01212023          	sw	s2,0(sp)
   117b4:	00003797          	auipc	a5,0x3
   117b8:	1a47a783          	lw	a5,420(a5) # 14958 <_GLOBAL_OFFSET_TABLE_+0x8>
   117bc:	00003917          	auipc	s2,0x3
   117c0:	1a892903          	lw	s2,424(s2) # 14964 <_GLOBAL_OFFSET_TABLE_+0x14>
   117c4:	00092703          	lw	a4,0(s2)
   117c8:	0007a783          	lw	a5,0(a5)
   117cc:	00912223          	sw	s1,4(sp)
   117d0:	00072483          	lw	s1,0(a4)
   117d4:	0007a783          	lw	a5,0(a5)
   117d8:	00112623          	sw	ra,12(sp)
   117dc:	00812423          	sw	s0,8(sp)
   117e0:	409787b3          	sub	a5,a5,s1
   117e4:	02c7f063          	bgeu	a5,a2,11804 <_Z14RingBufferReadPhPvm+0x58>
   117e8:	00c12083          	lw	ra,12(sp)
   117ec:	00812403          	lw	s0,8(sp)
   117f0:	00412483          	lw	s1,4(sp)
   117f4:	00012903          	lw	s2,0(sp)
   117f8:	00000513          	li	a0,0
   117fc:	01010113          	addi	sp,sp,16
   11800:	00008067          	ret
   11804:	00050713          	mv	a4,a0
   11808:	00060413          	mv	s0,a2
   1180c:	00058513          	mv	a0,a1
   11810:	00000013          	nop
   11814:	40000613          	li	a2,1024
   11818:	3ff4f593          	andi	a1,s1,1023
   1181c:	40b60633          	sub	a2,a2,a1
   11820:	00c47463          	bgeu	s0,a2,11828 <_Z14RingBufferReadPhPvm+0x7c>
   11824:	00040613          	mv	a2,s0
   11828:	00b705b3          	add	a1,a4,a1
   1182c:	55c000ef          	jal	ra,11d88 <memcpy>
   11830:	00092783          	lw	a5,0(s2)
   11834:	008484b3          	add	s1,s1,s0
   11838:	00c12083          	lw	ra,12(sp)
   1183c:	00812403          	lw	s0,8(sp)
   11840:	0097a023          	sw	s1,0(a5)
   11844:	00012903          	lw	s2,0(sp)
   11848:	00412483          	lw	s1,4(sp)
   1184c:	00100513          	li	a0,1
   11850:	01010113          	addi	sp,sp,16
   11854:	00008067          	ret

00011858 <_Z11ScanToASCIIhh>:
   11858:	00058c63          	beqz	a1,11870 <_Z11ScanToASCIIhh+0x18>
   1185c:	00003797          	auipc	a5,0x3
   11860:	0f87a783          	lw	a5,248(a5) # 14954 <_GLOBAL_OFFSET_TABLE_+0x4>
   11864:	00a787b3          	add	a5,a5,a0
   11868:	0007c503          	lbu	a0,0(a5)
   1186c:	00008067          	ret
   11870:	00003797          	auipc	a5,0x3
   11874:	0ec7a783          	lw	a5,236(a5) # 1495c <_GLOBAL_OFFSET_TABLE_+0xc>
   11878:	00a787b3          	add	a5,a5,a0
   1187c:	0007c503          	lbu	a0,0(a5)
   11880:	00008067          	ret

00011884 <__udivdi3>:
#endif

#ifdef L_udivdi3
UDWtype
__udivdi3 (UDWtype n, UDWtype d)
{
   11884:	00050313          	mv	t1,a0
   11888:	00058893          	mv	a7,a1
  d0 = dd.s.low;
   1188c:	00060713          	mv	a4,a2
  n0 = nn.s.low;
   11890:	00050813          	mv	a6,a0
  n1 = nn.s.high;
   11894:	00058793          	mv	a5,a1
  if (d1 == 0)
   11898:	28069263          	bnez	a3,11b1c <__udivdi3+0x298>
      if (d0 > n1)
   1189c:	000145b7          	lui	a1,0x14
   118a0:	b5c58593          	addi	a1,a1,-1188 # 13b5c <__clz_tab>
   118a4:	0ec8f663          	bgeu	a7,a2,11990 <__udivdi3+0x10c>
	  count_leading_zeros (bm, d0);
   118a8:	000106b7          	lui	a3,0x10
   118ac:	0cd67863          	bgeu	a2,a3,1197c <__udivdi3+0xf8>
   118b0:	10063693          	sltiu	a3,a2,256
   118b4:	0016c693          	xori	a3,a3,1
   118b8:	00369693          	slli	a3,a3,0x3
   118bc:	00d65533          	srl	a0,a2,a3
   118c0:	00a585b3          	add	a1,a1,a0
   118c4:	0005c583          	lbu	a1,0(a1)
   118c8:	02000513          	li	a0,32
   118cc:	00d586b3          	add	a3,a1,a3
   118d0:	40d505b3          	sub	a1,a0,a3
	  if (bm != 0)
   118d4:	00d50c63          	beq	a0,a3,118ec <__udivdi3+0x68>
	      n1 = (n1 << bm) | (n0 >> (W_TYPE_SIZE - bm));
   118d8:	00b897b3          	sll	a5,a7,a1
   118dc:	00d356b3          	srl	a3,t1,a3
	      d0 = d0 << bm;
   118e0:	00b61733          	sll	a4,a2,a1
	      n1 = (n1 << bm) | (n0 >> (W_TYPE_SIZE - bm));
   118e4:	00f6e7b3          	or	a5,a3,a5
	      n0 = n0 << bm;
   118e8:	00b31833          	sll	a6,t1,a1
	  udiv_qrnnd (q0, n0, n1, n0, d0);
   118ec:	01075593          	srli	a1,a4,0x10
   118f0:	02b7d333          	divu	t1,a5,a1
   118f4:	01071613          	slli	a2,a4,0x10
   118f8:	01065613          	srli	a2,a2,0x10
   118fc:	02b7f7b3          	remu	a5,a5,a1
   11900:	00030513          	mv	a0,t1
   11904:	026608b3          	mul	a7,a2,t1
   11908:	01079693          	slli	a3,a5,0x10
   1190c:	01085793          	srli	a5,a6,0x10
   11910:	00d7e7b3          	or	a5,a5,a3
   11914:	0117fe63          	bgeu	a5,a7,11930 <__udivdi3+0xac>
   11918:	00e787b3          	add	a5,a5,a4
   1191c:	fff30513          	addi	a0,t1,-1
   11920:	00e7e863          	bltu	a5,a4,11930 <__udivdi3+0xac>
   11924:	0117f663          	bgeu	a5,a7,11930 <__udivdi3+0xac>
   11928:	ffe30513          	addi	a0,t1,-2
   1192c:	00e787b3          	add	a5,a5,a4
   11930:	411787b3          	sub	a5,a5,a7
   11934:	02b7d8b3          	divu	a7,a5,a1
   11938:	01081813          	slli	a6,a6,0x10
   1193c:	01085813          	srli	a6,a6,0x10
   11940:	02b7f7b3          	remu	a5,a5,a1
   11944:	031606b3          	mul	a3,a2,a7
   11948:	01079793          	slli	a5,a5,0x10
   1194c:	00f86833          	or	a6,a6,a5
   11950:	00088793          	mv	a5,a7
   11954:	00d87c63          	bgeu	a6,a3,1196c <__udivdi3+0xe8>
   11958:	01070833          	add	a6,a4,a6
   1195c:	fff88793          	addi	a5,a7,-1
   11960:	00e86663          	bltu	a6,a4,1196c <__udivdi3+0xe8>
   11964:	00d87463          	bgeu	a6,a3,1196c <__udivdi3+0xe8>
   11968:	ffe88793          	addi	a5,a7,-2
   1196c:	01051513          	slli	a0,a0,0x10
   11970:	00f56533          	or	a0,a0,a5
	      q1 = 0;
   11974:	00000593          	li	a1,0
  return __udivmoddi4 (n, d, (UDWtype *) 0);
}
   11978:	00008067          	ret
	  count_leading_zeros (bm, d0);
   1197c:	01000537          	lui	a0,0x1000
   11980:	01000693          	li	a3,16
   11984:	f2a66ce3          	bltu	a2,a0,118bc <__udivdi3+0x38>
   11988:	01800693          	li	a3,24
   1198c:	f31ff06f          	j	118bc <__udivdi3+0x38>
	  if (d0 == 0)
   11990:	00061463          	bnez	a2,11998 <__udivdi3+0x114>
	    d0 = 1 / d0;	/* Divide intentionally by zero.  */
   11994:	00100073          	ebreak
	  count_leading_zeros (bm, d0);
   11998:	000107b7          	lui	a5,0x10
   1199c:	0cf67063          	bgeu	a2,a5,11a5c <__udivdi3+0x1d8>
   119a0:	10063693          	sltiu	a3,a2,256
   119a4:	0016c693          	xori	a3,a3,1
   119a8:	00369693          	slli	a3,a3,0x3
   119ac:	00d657b3          	srl	a5,a2,a3
   119b0:	00f585b3          	add	a1,a1,a5
   119b4:	0005c783          	lbu	a5,0(a1)
   119b8:	00d787b3          	add	a5,a5,a3
   119bc:	02000693          	li	a3,32
   119c0:	40f685b3          	sub	a1,a3,a5
	  if (bm == 0)
   119c4:	0af69663          	bne	a3,a5,11a70 <__udivdi3+0x1ec>
	      n1 -= d0;
   119c8:	40c887b3          	sub	a5,a7,a2
	      q1 = 1;
   119cc:	00100593          	li	a1,1
	  udiv_qrnnd (q0, n0, n1, n0, d0);
   119d0:	01075893          	srli	a7,a4,0x10
   119d4:	0317de33          	divu	t3,a5,a7
   119d8:	01071613          	slli	a2,a4,0x10
   119dc:	01065613          	srli	a2,a2,0x10
   119e0:	01085693          	srli	a3,a6,0x10
   119e4:	0317f7b3          	remu	a5,a5,a7
   119e8:	000e0513          	mv	a0,t3
   119ec:	03c60333          	mul	t1,a2,t3
   119f0:	01079793          	slli	a5,a5,0x10
   119f4:	00f6e7b3          	or	a5,a3,a5
   119f8:	0067fe63          	bgeu	a5,t1,11a14 <__udivdi3+0x190>
   119fc:	00e787b3          	add	a5,a5,a4
   11a00:	fffe0513          	addi	a0,t3,-1
   11a04:	00e7e863          	bltu	a5,a4,11a14 <__udivdi3+0x190>
   11a08:	0067f663          	bgeu	a5,t1,11a14 <__udivdi3+0x190>
   11a0c:	ffee0513          	addi	a0,t3,-2
   11a10:	00e787b3          	add	a5,a5,a4
   11a14:	406787b3          	sub	a5,a5,t1
   11a18:	0317d333          	divu	t1,a5,a7
   11a1c:	01081813          	slli	a6,a6,0x10
   11a20:	01085813          	srli	a6,a6,0x10
   11a24:	0317f7b3          	remu	a5,a5,a7
   11a28:	026606b3          	mul	a3,a2,t1
   11a2c:	01079793          	slli	a5,a5,0x10
   11a30:	00f86833          	or	a6,a6,a5
   11a34:	00030793          	mv	a5,t1
   11a38:	00d87c63          	bgeu	a6,a3,11a50 <__udivdi3+0x1cc>
   11a3c:	01070833          	add	a6,a4,a6
   11a40:	fff30793          	addi	a5,t1,-1
   11a44:	00e86663          	bltu	a6,a4,11a50 <__udivdi3+0x1cc>
   11a48:	00d87463          	bgeu	a6,a3,11a50 <__udivdi3+0x1cc>
   11a4c:	ffe30793          	addi	a5,t1,-2
   11a50:	01051513          	slli	a0,a0,0x10
   11a54:	00f56533          	or	a0,a0,a5
   11a58:	00008067          	ret
	  count_leading_zeros (bm, d0);
   11a5c:	010007b7          	lui	a5,0x1000
   11a60:	01000693          	li	a3,16
   11a64:	f4f664e3          	bltu	a2,a5,119ac <__udivdi3+0x128>
   11a68:	01800693          	li	a3,24
   11a6c:	f41ff06f          	j	119ac <__udivdi3+0x128>
	      d0 = d0 << bm;
   11a70:	00b61733          	sll	a4,a2,a1
	      n2 = n1 >> b;
   11a74:	00f8d6b3          	srl	a3,a7,a5
	      udiv_qrnnd (q1, n1, n2, n1, d0);
   11a78:	01075513          	srli	a0,a4,0x10
	      n1 = (n1 << bm) | (n0 >> b);
   11a7c:	00f357b3          	srl	a5,t1,a5
	      n0 = n0 << bm;
   11a80:	00b31833          	sll	a6,t1,a1
	      udiv_qrnnd (q1, n1, n2, n1, d0);
   11a84:	02a6d333          	divu	t1,a3,a0
   11a88:	01071613          	slli	a2,a4,0x10
	      n1 = (n1 << bm) | (n0 >> b);
   11a8c:	00b898b3          	sll	a7,a7,a1
	      udiv_qrnnd (q1, n1, n2, n1, d0);
   11a90:	01065613          	srli	a2,a2,0x10
	      n1 = (n1 << bm) | (n0 >> b);
   11a94:	0117e7b3          	or	a5,a5,a7
	      udiv_qrnnd (q1, n1, n2, n1, d0);
   11a98:	02a6f6b3          	remu	a3,a3,a0
   11a9c:	026608b3          	mul	a7,a2,t1
   11aa0:	01069593          	slli	a1,a3,0x10
   11aa4:	0107d693          	srli	a3,a5,0x10
   11aa8:	00b6e6b3          	or	a3,a3,a1
   11aac:	00030593          	mv	a1,t1
   11ab0:	0116fe63          	bgeu	a3,a7,11acc <__udivdi3+0x248>
   11ab4:	00e686b3          	add	a3,a3,a4
   11ab8:	fff30593          	addi	a1,t1,-1
   11abc:	00e6e863          	bltu	a3,a4,11acc <__udivdi3+0x248>
   11ac0:	0116f663          	bgeu	a3,a7,11acc <__udivdi3+0x248>
   11ac4:	ffe30593          	addi	a1,t1,-2
   11ac8:	00e686b3          	add	a3,a3,a4
   11acc:	411686b3          	sub	a3,a3,a7
   11ad0:	02a6d8b3          	divu	a7,a3,a0
   11ad4:	01079793          	slli	a5,a5,0x10
   11ad8:	0107d793          	srli	a5,a5,0x10
   11adc:	02a6f6b3          	remu	a3,a3,a0
   11ae0:	03160633          	mul	a2,a2,a7
   11ae4:	01069693          	slli	a3,a3,0x10
   11ae8:	00d7e7b3          	or	a5,a5,a3
   11aec:	00088693          	mv	a3,a7
   11af0:	00c7fe63          	bgeu	a5,a2,11b0c <__udivdi3+0x288>
   11af4:	00e787b3          	add	a5,a5,a4
   11af8:	fff88693          	addi	a3,a7,-1
   11afc:	00e7e863          	bltu	a5,a4,11b0c <__udivdi3+0x288>
   11b00:	00c7f663          	bgeu	a5,a2,11b0c <__udivdi3+0x288>
   11b04:	ffe88693          	addi	a3,a7,-2
   11b08:	00e787b3          	add	a5,a5,a4
   11b0c:	01059593          	slli	a1,a1,0x10
   11b10:	40c787b3          	sub	a5,a5,a2
   11b14:	00d5e5b3          	or	a1,a1,a3
   11b18:	eb9ff06f          	j	119d0 <__udivdi3+0x14c>
      if (d1 > n1)
   11b1c:	18d5e663          	bltu	a1,a3,11ca8 <__udivdi3+0x424>
	  count_leading_zeros (bm, d1);
   11b20:	000107b7          	lui	a5,0x10
   11b24:	04f6f463          	bgeu	a3,a5,11b6c <__udivdi3+0x2e8>
   11b28:	1006b713          	sltiu	a4,a3,256
   11b2c:	00174713          	xori	a4,a4,1
   11b30:	00371713          	slli	a4,a4,0x3
   11b34:	000147b7          	lui	a5,0x14
   11b38:	00e6d5b3          	srl	a1,a3,a4
   11b3c:	b5c78793          	addi	a5,a5,-1188 # 13b5c <__clz_tab>
   11b40:	00b787b3          	add	a5,a5,a1
   11b44:	0007c783          	lbu	a5,0(a5)
   11b48:	00e787b3          	add	a5,a5,a4
   11b4c:	02000713          	li	a4,32
   11b50:	40f705b3          	sub	a1,a4,a5
	  if (bm == 0)
   11b54:	02f71663          	bne	a4,a5,11b80 <__udivdi3+0x2fc>
		  q0 = 1;
   11b58:	00100513          	li	a0,1
	      if (n1 > d1 || n0 >= d0)
   11b5c:	e116eee3          	bltu	a3,a7,11978 <__udivdi3+0xf4>
   11b60:	00c33533          	sltu	a0,t1,a2
   11b64:	00154513          	xori	a0,a0,1
   11b68:	00008067          	ret
	  count_leading_zeros (bm, d1);
   11b6c:	010007b7          	lui	a5,0x1000
   11b70:	01000713          	li	a4,16
   11b74:	fcf6e0e3          	bltu	a3,a5,11b34 <__udivdi3+0x2b0>
   11b78:	01800713          	li	a4,24
   11b7c:	fb9ff06f          	j	11b34 <__udivdi3+0x2b0>
	      d1 = (d1 << bm) | (d0 >> b);
   11b80:	00f65733          	srl	a4,a2,a5
   11b84:	00b696b3          	sll	a3,a3,a1
   11b88:	00d766b3          	or	a3,a4,a3
	      n2 = n1 >> b;
   11b8c:	00f8d733          	srl	a4,a7,a5
	      n1 = (n1 << bm) | (n0 >> b);
   11b90:	00b898b3          	sll	a7,a7,a1
   11b94:	00f357b3          	srl	a5,t1,a5
   11b98:	0117e7b3          	or	a5,a5,a7
	      udiv_qrnnd (q0, n1, n2, n1, d1);
   11b9c:	0106d893          	srli	a7,a3,0x10
   11ba0:	03175eb3          	divu	t4,a4,a7
   11ba4:	01069813          	slli	a6,a3,0x10
   11ba8:	01085813          	srli	a6,a6,0x10
	      d0 = d0 << bm;
   11bac:	00b61633          	sll	a2,a2,a1
	      udiv_qrnnd (q0, n1, n2, n1, d1);
   11bb0:	03177733          	remu	a4,a4,a7
   11bb4:	03d80e33          	mul	t3,a6,t4
   11bb8:	01071513          	slli	a0,a4,0x10
   11bbc:	0107d713          	srli	a4,a5,0x10
   11bc0:	00a76733          	or	a4,a4,a0
   11bc4:	000e8513          	mv	a0,t4
   11bc8:	01c77e63          	bgeu	a4,t3,11be4 <__udivdi3+0x360>
   11bcc:	00d70733          	add	a4,a4,a3
   11bd0:	fffe8513          	addi	a0,t4,-1
   11bd4:	00d76863          	bltu	a4,a3,11be4 <__udivdi3+0x360>
   11bd8:	01c77663          	bgeu	a4,t3,11be4 <__udivdi3+0x360>
   11bdc:	ffee8513          	addi	a0,t4,-2
   11be0:	00d70733          	add	a4,a4,a3
   11be4:	41c70733          	sub	a4,a4,t3
   11be8:	03175e33          	divu	t3,a4,a7
   11bec:	01079793          	slli	a5,a5,0x10
   11bf0:	0107d793          	srli	a5,a5,0x10
   11bf4:	03177733          	remu	a4,a4,a7
   11bf8:	03c80833          	mul	a6,a6,t3
   11bfc:	01071713          	slli	a4,a4,0x10
   11c00:	00e7e7b3          	or	a5,a5,a4
   11c04:	000e0713          	mv	a4,t3
   11c08:	0107fe63          	bgeu	a5,a6,11c24 <__udivdi3+0x3a0>
   11c0c:	00d787b3          	add	a5,a5,a3
   11c10:	fffe0713          	addi	a4,t3,-1
   11c14:	00d7e863          	bltu	a5,a3,11c24 <__udivdi3+0x3a0>
   11c18:	0107f663          	bgeu	a5,a6,11c24 <__udivdi3+0x3a0>
   11c1c:	ffee0713          	addi	a4,t3,-2
   11c20:	00d787b3          	add	a5,a5,a3
   11c24:	01051513          	slli	a0,a0,0x10
	      umul_ppmm (m1, m0, q0, d0);
   11c28:	00010e37          	lui	t3,0x10
	      udiv_qrnnd (q0, n1, n2, n1, d1);
   11c2c:	00e56533          	or	a0,a0,a4
	      umul_ppmm (m1, m0, q0, d0);
   11c30:	fffe0693          	addi	a3,t3,-1 # ffff <main-0x75>
   11c34:	00d57733          	and	a4,a0,a3
	      udiv_qrnnd (q0, n1, n2, n1, d1);
   11c38:	410787b3          	sub	a5,a5,a6
	      umul_ppmm (m1, m0, q0, d0);
   11c3c:	00d676b3          	and	a3,a2,a3
   11c40:	01055813          	srli	a6,a0,0x10
   11c44:	01065613          	srli	a2,a2,0x10
   11c48:	02d708b3          	mul	a7,a4,a3
   11c4c:	02d806b3          	mul	a3,a6,a3
   11c50:	02c70733          	mul	a4,a4,a2
   11c54:	02c80833          	mul	a6,a6,a2
   11c58:	00d70633          	add	a2,a4,a3
   11c5c:	0108d713          	srli	a4,a7,0x10
   11c60:	00c70733          	add	a4,a4,a2
   11c64:	00d77463          	bgeu	a4,a3,11c6c <__udivdi3+0x3e8>
   11c68:	01c80833          	add	a6,a6,t3
   11c6c:	01075693          	srli	a3,a4,0x10
   11c70:	010686b3          	add	a3,a3,a6
	      if (m1 > n1 || (m1 == n1 && m0 > n0))
   11c74:	02d7e663          	bltu	a5,a3,11ca0 <__udivdi3+0x41c>
   11c78:	ced79ee3          	bne	a5,a3,11974 <__udivdi3+0xf0>
	      umul_ppmm (m1, m0, q0, d0);
   11c7c:	000107b7          	lui	a5,0x10
   11c80:	fff78793          	addi	a5,a5,-1 # ffff <main-0x75>
   11c84:	00f77733          	and	a4,a4,a5
   11c88:	01071713          	slli	a4,a4,0x10
   11c8c:	00f8f8b3          	and	a7,a7,a5
	      n0 = n0 << bm;
   11c90:	00b31333          	sll	t1,t1,a1
	      umul_ppmm (m1, m0, q0, d0);
   11c94:	01170733          	add	a4,a4,a7
	      q1 = 0;
   11c98:	00000593          	li	a1,0
	      if (m1 > n1 || (m1 == n1 && m0 > n0))
   11c9c:	cce37ee3          	bgeu	t1,a4,11978 <__udivdi3+0xf4>
		  q0--;
   11ca0:	fff50513          	addi	a0,a0,-1 # ffffff <__BSS_END__+0xfeb1b3>
		  sub_ddmmss (m1, m0, m1, m0, d1, d0);
   11ca4:	cd1ff06f          	j	11974 <__udivdi3+0xf0>
	  q1 = 0;
   11ca8:	00000593          	li	a1,0
	  q0 = 0;
   11cac:	00000513          	li	a0,0
   11cb0:	00008067          	ret

00011cb4 <__errno>:
   11cb4:	e6c1a503          	lw	a0,-404(gp) # 14974 <_impure_ptr>
   11cb8:	00008067          	ret

00011cbc <exit>:
   11cbc:	ff010113          	addi	sp,sp,-16
   11cc0:	00000593          	li	a1,0
   11cc4:	00812423          	sw	s0,8(sp)
   11cc8:	00112623          	sw	ra,12(sp)
   11ccc:	00050413          	mv	s0,a0
   11cd0:	2bc000ef          	jal	ra,11f8c <__call_exitprocs>
   11cd4:	e681a503          	lw	a0,-408(gp) # 14970 <_global_impure_ptr>
   11cd8:	03c52783          	lw	a5,60(a0)
   11cdc:	00078463          	beqz	a5,11ce4 <exit+0x28>
   11ce0:	000780e7          	jalr	a5
   11ce4:	00040513          	mv	a0,s0
   11ce8:	4cc000ef          	jal	ra,121b4 <_exit>

00011cec <__libc_init_array>:
   11cec:	ff010113          	addi	sp,sp,-16
   11cf0:	00812423          	sw	s0,8(sp)
   11cf4:	01212023          	sw	s2,0(sp)
   11cf8:	00014437          	lui	s0,0x14
   11cfc:	00014937          	lui	s2,0x14
   11d00:	2f840793          	addi	a5,s0,760 # 142f8 <__init_array_start>
   11d04:	2f890913          	addi	s2,s2,760 # 142f8 <__init_array_start>
   11d08:	40f90933          	sub	s2,s2,a5
   11d0c:	00112623          	sw	ra,12(sp)
   11d10:	00912223          	sw	s1,4(sp)
   11d14:	40295913          	srai	s2,s2,0x2
   11d18:	02090063          	beqz	s2,11d38 <__libc_init_array+0x4c>
   11d1c:	2f840413          	addi	s0,s0,760
   11d20:	00000493          	li	s1,0
   11d24:	00042783          	lw	a5,0(s0)
   11d28:	00148493          	addi	s1,s1,1
   11d2c:	00440413          	addi	s0,s0,4
   11d30:	000780e7          	jalr	a5
   11d34:	fe9918e3          	bne	s2,s1,11d24 <__libc_init_array+0x38>
   11d38:	00014437          	lui	s0,0x14
   11d3c:	00014937          	lui	s2,0x14
   11d40:	2f840793          	addi	a5,s0,760 # 142f8 <__init_array_start>
   11d44:	30090913          	addi	s2,s2,768 # 14300 <__do_global_dtors_aux_fini_array_entry>
   11d48:	40f90933          	sub	s2,s2,a5
   11d4c:	40295913          	srai	s2,s2,0x2
   11d50:	02090063          	beqz	s2,11d70 <__libc_init_array+0x84>
   11d54:	2f840413          	addi	s0,s0,760
   11d58:	00000493          	li	s1,0
   11d5c:	00042783          	lw	a5,0(s0)
   11d60:	00148493          	addi	s1,s1,1
   11d64:	00440413          	addi	s0,s0,4
   11d68:	000780e7          	jalr	a5
   11d6c:	fe9918e3          	bne	s2,s1,11d5c <__libc_init_array+0x70>
   11d70:	00c12083          	lw	ra,12(sp)
   11d74:	00812403          	lw	s0,8(sp)
   11d78:	00412483          	lw	s1,4(sp)
   11d7c:	00012903          	lw	s2,0(sp)
   11d80:	01010113          	addi	sp,sp,16
   11d84:	00008067          	ret

00011d88 <memcpy>:
   11d88:	00b547b3          	xor	a5,a0,a1
   11d8c:	0037f793          	andi	a5,a5,3
   11d90:	00c508b3          	add	a7,a0,a2
   11d94:	06079663          	bnez	a5,11e00 <memcpy+0x78>
   11d98:	00300793          	li	a5,3
   11d9c:	06c7f263          	bgeu	a5,a2,11e00 <memcpy+0x78>
   11da0:	00357793          	andi	a5,a0,3
   11da4:	00050713          	mv	a4,a0
   11da8:	0c079a63          	bnez	a5,11e7c <memcpy+0xf4>
   11dac:	ffc8f613          	andi	a2,a7,-4
   11db0:	40e606b3          	sub	a3,a2,a4
   11db4:	02000793          	li	a5,32
   11db8:	02000293          	li	t0,32
   11dbc:	06d7c263          	blt	a5,a3,11e20 <memcpy+0x98>
   11dc0:	00058693          	mv	a3,a1
   11dc4:	00070793          	mv	a5,a4
   11dc8:	02c77863          	bgeu	a4,a2,11df8 <memcpy+0x70>
   11dcc:	0006a803          	lw	a6,0(a3) # 10000 <main-0x74>
   11dd0:	00478793          	addi	a5,a5,4
   11dd4:	00468693          	addi	a3,a3,4
   11dd8:	ff07ae23          	sw	a6,-4(a5)
   11ddc:	fec7e8e3          	bltu	a5,a2,11dcc <memcpy+0x44>
   11de0:	fff60793          	addi	a5,a2,-1
   11de4:	40e787b3          	sub	a5,a5,a4
   11de8:	ffc7f793          	andi	a5,a5,-4
   11dec:	00478793          	addi	a5,a5,4
   11df0:	00f70733          	add	a4,a4,a5
   11df4:	00f585b3          	add	a1,a1,a5
   11df8:	01176863          	bltu	a4,a7,11e08 <memcpy+0x80>
   11dfc:	00008067          	ret
   11e00:	00050713          	mv	a4,a0
   11e04:	ff157ce3          	bgeu	a0,a7,11dfc <memcpy+0x74>
   11e08:	0005c783          	lbu	a5,0(a1)
   11e0c:	00170713          	addi	a4,a4,1
   11e10:	00158593          	addi	a1,a1,1
   11e14:	fef70fa3          	sb	a5,-1(a4)
   11e18:	ff1768e3          	bltu	a4,a7,11e08 <memcpy+0x80>
   11e1c:	00008067          	ret
   11e20:	0045a683          	lw	a3,4(a1)
   11e24:	01c5a783          	lw	a5,28(a1)
   11e28:	0005af83          	lw	t6,0(a1)
   11e2c:	0085af03          	lw	t5,8(a1)
   11e30:	00c5ae83          	lw	t4,12(a1)
   11e34:	0105ae03          	lw	t3,16(a1)
   11e38:	0145a303          	lw	t1,20(a1)
   11e3c:	0185a803          	lw	a6,24(a1)
   11e40:	00d72223          	sw	a3,4(a4)
   11e44:	0205a683          	lw	a3,32(a1)
   11e48:	01f72023          	sw	t6,0(a4)
   11e4c:	01e72423          	sw	t5,8(a4)
   11e50:	01d72623          	sw	t4,12(a4)
   11e54:	01c72823          	sw	t3,16(a4)
   11e58:	00672a23          	sw	t1,20(a4)
   11e5c:	01072c23          	sw	a6,24(a4)
   11e60:	00f72e23          	sw	a5,28(a4)
   11e64:	02470713          	addi	a4,a4,36
   11e68:	40e607b3          	sub	a5,a2,a4
   11e6c:	fed72e23          	sw	a3,-4(a4)
   11e70:	02458593          	addi	a1,a1,36
   11e74:	faf2c6e3          	blt	t0,a5,11e20 <memcpy+0x98>
   11e78:	f49ff06f          	j	11dc0 <memcpy+0x38>
   11e7c:	0005c683          	lbu	a3,0(a1)
   11e80:	00170713          	addi	a4,a4,1
   11e84:	00377793          	andi	a5,a4,3
   11e88:	fed70fa3          	sb	a3,-1(a4)
   11e8c:	00158593          	addi	a1,a1,1
   11e90:	f0078ee3          	beqz	a5,11dac <memcpy+0x24>
   11e94:	0005c683          	lbu	a3,0(a1)
   11e98:	00170713          	addi	a4,a4,1
   11e9c:	00377793          	andi	a5,a4,3
   11ea0:	fed70fa3          	sb	a3,-1(a4)
   11ea4:	00158593          	addi	a1,a1,1
   11ea8:	fc079ae3          	bnez	a5,11e7c <memcpy+0xf4>
   11eac:	f01ff06f          	j	11dac <memcpy+0x24>

00011eb0 <memset>:
   11eb0:	00f00313          	li	t1,15
   11eb4:	00050713          	mv	a4,a0
   11eb8:	02c37e63          	bgeu	t1,a2,11ef4 <memset+0x44>
   11ebc:	00f77793          	andi	a5,a4,15
   11ec0:	0a079063          	bnez	a5,11f60 <memset+0xb0>
   11ec4:	08059263          	bnez	a1,11f48 <memset+0x98>
   11ec8:	ff067693          	andi	a3,a2,-16
   11ecc:	00f67613          	andi	a2,a2,15
   11ed0:	00e686b3          	add	a3,a3,a4
   11ed4:	00b72023          	sw	a1,0(a4)
   11ed8:	00b72223          	sw	a1,4(a4)
   11edc:	00b72423          	sw	a1,8(a4)
   11ee0:	00b72623          	sw	a1,12(a4)
   11ee4:	01070713          	addi	a4,a4,16
   11ee8:	fed766e3          	bltu	a4,a3,11ed4 <memset+0x24>
   11eec:	00061463          	bnez	a2,11ef4 <memset+0x44>
   11ef0:	00008067          	ret
   11ef4:	40c306b3          	sub	a3,t1,a2
   11ef8:	00269693          	slli	a3,a3,0x2
   11efc:	00000297          	auipc	t0,0x0
   11f00:	005686b3          	add	a3,a3,t0
   11f04:	00c68067          	jr	12(a3)
   11f08:	00b70723          	sb	a1,14(a4)
   11f0c:	00b706a3          	sb	a1,13(a4)
   11f10:	00b70623          	sb	a1,12(a4)
   11f14:	00b705a3          	sb	a1,11(a4)
   11f18:	00b70523          	sb	a1,10(a4)
   11f1c:	00b704a3          	sb	a1,9(a4)
   11f20:	00b70423          	sb	a1,8(a4)
   11f24:	00b703a3          	sb	a1,7(a4)
   11f28:	00b70323          	sb	a1,6(a4)
   11f2c:	00b702a3          	sb	a1,5(a4)
   11f30:	00b70223          	sb	a1,4(a4)
   11f34:	00b701a3          	sb	a1,3(a4)
   11f38:	00b70123          	sb	a1,2(a4)
   11f3c:	00b700a3          	sb	a1,1(a4)
   11f40:	00b70023          	sb	a1,0(a4)
   11f44:	00008067          	ret
   11f48:	0ff5f593          	zext.b	a1,a1
   11f4c:	00859693          	slli	a3,a1,0x8
   11f50:	00d5e5b3          	or	a1,a1,a3
   11f54:	01059693          	slli	a3,a1,0x10
   11f58:	00d5e5b3          	or	a1,a1,a3
   11f5c:	f6dff06f          	j	11ec8 <memset+0x18>
   11f60:	00279693          	slli	a3,a5,0x2
   11f64:	00000297          	auipc	t0,0x0
   11f68:	005686b3          	add	a3,a3,t0
   11f6c:	00008293          	mv	t0,ra
   11f70:	fa0680e7          	jalr	-96(a3)
   11f74:	00028093          	mv	ra,t0
   11f78:	ff078793          	addi	a5,a5,-16
   11f7c:	40f70733          	sub	a4,a4,a5
   11f80:	00f60633          	add	a2,a2,a5
   11f84:	f6c378e3          	bgeu	t1,a2,11ef4 <memset+0x44>
   11f88:	f3dff06f          	j	11ec4 <memset+0x14>

00011f8c <__call_exitprocs>:
   11f8c:	fd010113          	addi	sp,sp,-48
   11f90:	01412c23          	sw	s4,24(sp)
   11f94:	e681aa03          	lw	s4,-408(gp) # 14970 <_global_impure_ptr>
   11f98:	03212023          	sw	s2,32(sp)
   11f9c:	02112623          	sw	ra,44(sp)
   11fa0:	148a2903          	lw	s2,328(s4)
   11fa4:	02812423          	sw	s0,40(sp)
   11fa8:	02912223          	sw	s1,36(sp)
   11fac:	01312e23          	sw	s3,28(sp)
   11fb0:	01512a23          	sw	s5,20(sp)
   11fb4:	01612823          	sw	s6,16(sp)
   11fb8:	01712623          	sw	s7,12(sp)
   11fbc:	01812423          	sw	s8,8(sp)
   11fc0:	04090063          	beqz	s2,12000 <__call_exitprocs+0x74>
   11fc4:	00050b13          	mv	s6,a0
   11fc8:	00058b93          	mv	s7,a1
   11fcc:	00100a93          	li	s5,1
   11fd0:	fff00993          	li	s3,-1
   11fd4:	00492483          	lw	s1,4(s2)
   11fd8:	fff48413          	addi	s0,s1,-1
   11fdc:	02044263          	bltz	s0,12000 <__call_exitprocs+0x74>
   11fe0:	00249493          	slli	s1,s1,0x2
   11fe4:	009904b3          	add	s1,s2,s1
   11fe8:	040b8463          	beqz	s7,12030 <__call_exitprocs+0xa4>
   11fec:	1044a783          	lw	a5,260(s1)
   11ff0:	05778063          	beq	a5,s7,12030 <__call_exitprocs+0xa4>
   11ff4:	fff40413          	addi	s0,s0,-1
   11ff8:	ffc48493          	addi	s1,s1,-4
   11ffc:	ff3416e3          	bne	s0,s3,11fe8 <__call_exitprocs+0x5c>
   12000:	02c12083          	lw	ra,44(sp)
   12004:	02812403          	lw	s0,40(sp)
   12008:	02412483          	lw	s1,36(sp)
   1200c:	02012903          	lw	s2,32(sp)
   12010:	01c12983          	lw	s3,28(sp)
   12014:	01812a03          	lw	s4,24(sp)
   12018:	01412a83          	lw	s5,20(sp)
   1201c:	01012b03          	lw	s6,16(sp)
   12020:	00c12b83          	lw	s7,12(sp)
   12024:	00812c03          	lw	s8,8(sp)
   12028:	03010113          	addi	sp,sp,48
   1202c:	00008067          	ret
   12030:	00492783          	lw	a5,4(s2)
   12034:	0044a683          	lw	a3,4(s1)
   12038:	fff78793          	addi	a5,a5,-1
   1203c:	04878e63          	beq	a5,s0,12098 <__call_exitprocs+0x10c>
   12040:	0004a223          	sw	zero,4(s1)
   12044:	fa0688e3          	beqz	a3,11ff4 <__call_exitprocs+0x68>
   12048:	18892783          	lw	a5,392(s2)
   1204c:	008a9733          	sll	a4,s5,s0
   12050:	00492c03          	lw	s8,4(s2)
   12054:	00f777b3          	and	a5,a4,a5
   12058:	02079263          	bnez	a5,1207c <__call_exitprocs+0xf0>
   1205c:	000680e7          	jalr	a3
   12060:	00492703          	lw	a4,4(s2)
   12064:	148a2783          	lw	a5,328(s4)
   12068:	01871463          	bne	a4,s8,12070 <__call_exitprocs+0xe4>
   1206c:	f92784e3          	beq	a5,s2,11ff4 <__call_exitprocs+0x68>
   12070:	f80788e3          	beqz	a5,12000 <__call_exitprocs+0x74>
   12074:	00078913          	mv	s2,a5
   12078:	f5dff06f          	j	11fd4 <__call_exitprocs+0x48>
   1207c:	18c92783          	lw	a5,396(s2)
   12080:	0844a583          	lw	a1,132(s1)
   12084:	00f77733          	and	a4,a4,a5
   12088:	00071c63          	bnez	a4,120a0 <__call_exitprocs+0x114>
   1208c:	000b0513          	mv	a0,s6
   12090:	000680e7          	jalr	a3
   12094:	fcdff06f          	j	12060 <__call_exitprocs+0xd4>
   12098:	00892223          	sw	s0,4(s2)
   1209c:	fa9ff06f          	j	12044 <__call_exitprocs+0xb8>
   120a0:	00058513          	mv	a0,a1
   120a4:	000680e7          	jalr	a3
   120a8:	fb9ff06f          	j	12060 <__call_exitprocs+0xd4>

000120ac <atexit>:
   120ac:	00050593          	mv	a1,a0
   120b0:	00000693          	li	a3,0
   120b4:	00000613          	li	a2,0
   120b8:	00000513          	li	a0,0
   120bc:	0600006f          	j	1211c <__register_exitproc>

000120c0 <__libc_fini_array>:
   120c0:	ff010113          	addi	sp,sp,-16
   120c4:	00812423          	sw	s0,8(sp)
   120c8:	000147b7          	lui	a5,0x14
   120cc:	00014437          	lui	s0,0x14
   120d0:	30078793          	addi	a5,a5,768 # 14300 <__do_global_dtors_aux_fini_array_entry>
   120d4:	30440413          	addi	s0,s0,772 # 14304 <__fini_array_end>
   120d8:	40f40433          	sub	s0,s0,a5
   120dc:	00912223          	sw	s1,4(sp)
   120e0:	00112623          	sw	ra,12(sp)
   120e4:	40245493          	srai	s1,s0,0x2
   120e8:	02048063          	beqz	s1,12108 <__libc_fini_array+0x48>
   120ec:	ffc40413          	addi	s0,s0,-4
   120f0:	00f40433          	add	s0,s0,a5
   120f4:	00042783          	lw	a5,0(s0)
   120f8:	fff48493          	addi	s1,s1,-1
   120fc:	ffc40413          	addi	s0,s0,-4
   12100:	000780e7          	jalr	a5
   12104:	fe0498e3          	bnez	s1,120f4 <__libc_fini_array+0x34>
   12108:	00c12083          	lw	ra,12(sp)
   1210c:	00812403          	lw	s0,8(sp)
   12110:	00412483          	lw	s1,4(sp)
   12114:	01010113          	addi	sp,sp,16
   12118:	00008067          	ret

0001211c <__register_exitproc>:
   1211c:	e681a703          	lw	a4,-408(gp) # 14970 <_global_impure_ptr>
   12120:	14872783          	lw	a5,328(a4)
   12124:	04078c63          	beqz	a5,1217c <__register_exitproc+0x60>
   12128:	0047a703          	lw	a4,4(a5)
   1212c:	01f00813          	li	a6,31
   12130:	06e84e63          	blt	a6,a4,121ac <__register_exitproc+0x90>
   12134:	00271813          	slli	a6,a4,0x2
   12138:	02050663          	beqz	a0,12164 <__register_exitproc+0x48>
   1213c:	01078333          	add	t1,a5,a6
   12140:	08c32423          	sw	a2,136(t1)
   12144:	1887a883          	lw	a7,392(a5)
   12148:	00100613          	li	a2,1
   1214c:	00e61633          	sll	a2,a2,a4
   12150:	00c8e8b3          	or	a7,a7,a2
   12154:	1917a423          	sw	a7,392(a5)
   12158:	10d32423          	sw	a3,264(t1)
   1215c:	00200693          	li	a3,2
   12160:	02d50463          	beq	a0,a3,12188 <__register_exitproc+0x6c>
   12164:	00170713          	addi	a4,a4,1
   12168:	00e7a223          	sw	a4,4(a5)
   1216c:	010787b3          	add	a5,a5,a6
   12170:	00b7a423          	sw	a1,8(a5)
   12174:	00000513          	li	a0,0
   12178:	00008067          	ret
   1217c:	14c70793          	addi	a5,a4,332
   12180:	14f72423          	sw	a5,328(a4)
   12184:	fa5ff06f          	j	12128 <__register_exitproc+0xc>
   12188:	18c7a683          	lw	a3,396(a5)
   1218c:	00170713          	addi	a4,a4,1
   12190:	00e7a223          	sw	a4,4(a5)
   12194:	00c6e6b3          	or	a3,a3,a2
   12198:	18d7a623          	sw	a3,396(a5)
   1219c:	010787b3          	add	a5,a5,a6
   121a0:	00b7a423          	sw	a1,8(a5)
   121a4:	00000513          	li	a0,0
   121a8:	00008067          	ret
   121ac:	fff00513          	li	a0,-1
   121b0:	00008067          	ret

000121b4 <_exit>:
   121b4:	05d00893          	li	a7,93
   121b8:	00000073          	ecall
   121bc:	00054463          	bltz	a0,121c4 <_exit+0x10>
   121c0:	0000006f          	j	121c0 <_exit+0xc>
   121c4:	ff010113          	addi	sp,sp,-16
   121c8:	00812423          	sw	s0,8(sp)
   121cc:	00050413          	mv	s0,a0
   121d0:	00112623          	sw	ra,12(sp)
   121d4:	40800433          	neg	s0,s0
   121d8:	addff0ef          	jal	ra,11cb4 <__errno>
   121dc:	00852023          	sw	s0,0(a0)
   121e0:	0000006f          	j	121e0 <_exit+0x2c>

Disassembly of section .rodata:

000121e4 <_ZL12residentfont-0x178>:
   121e4:	694d                	lui	s2,0x13
   121e6:	696e                	flw	fs2,216(sp)
   121e8:	6554                	flw	fa3,12(a0)
   121ea:	6d72                	flw	fs10,28(sp)
   121ec:	2820                	fld	fs0,80(s0)
   121ee:	30322963          	0x30322963
   121f2:	3132                	fld	ft2,296(sp)
   121f4:	4520                	lw	s0,72(a0)
   121f6:	676e                	flw	fa4,216(sp)
   121f8:	6e69                	lui	t3,0x1a
   121fa:	4320                	lw	s0,64(a4)
   121fc:	6c69                	lui	s8,0x1a
   121fe:	7361                	lui	t1,0xffff8
   12200:	6e75                	lui	t3,0x1d
   12202:	200a                	fld	ft0,128(sp)
   12204:	7355                	lui	t1,0xffff5
   12206:	2065                	jal	122ae <_exit+0xfa>
   12208:	6c656827          	0x6c656827
   1220c:	2770                	fld	fa2,200(a4)
   1220e:	6620                	flw	fs0,72(a2)
   12210:	6120726f          	jal	tp,19822 <__BSS_END__+0x49d6>
   12214:	73697373          	csrrci	t1,0x736,18
   12218:	6174                	flw	fa3,68(a0)
   1221a:	636e                	flw	ft6,216(sp)
   1221c:	0a65                	addi	s4,s4,25
   1221e:	0000                	unimp
   12220:	000a                	c.slli	zero,0x2
   12222:	0000                	unimp
   12224:	4d0a                	lw	s10,128(sp)
   12226:	6e69                	lui	t3,0x1a
   12228:	5469                	li	s0,-6
   1222a:	7265                	lui	tp,0xffff9
   1222c:	206d                	jal	122d6 <_exit+0x122>
   1222e:	6576                	flw	fa0,92(sp)
   12230:	7372                	flw	ft6,60(sp)
   12232:	6f69                	lui	t5,0x1a
   12234:	206e                	fld	ft0,216(sp)
   12236:	2e30                	fld	fa2,88(a2)
   12238:	0a31                	addi	s4,s4,12
   1223a:	6328                	flw	fa0,64(a4)
   1223c:	3229                	jal	11b46 <__udivdi3+0x2c2>
   1223e:	3230                	fld	fa2,96(a2)
   12240:	2031                	jal	1224c <_exit+0x98>
   12242:	6e45                	lui	t3,0x11
   12244:	206e6967          	0x206e6967
   12248:	616c6943          	fmadd.s	fs2,fs8,fs6,fa2,unknown
   1224c:	0a6e7573          	csrrci	a0,0xa6,28
   12250:	3a736c63          	bltu	t1,t2,12608 <_ZL12residentfont+0x2ac>
   12254:	6320                	flw	fs0,64(a4)
   12256:	656c                	flw	fa1,76(a0)
   12258:	7261                	lui	tp,0xffff8
   1225a:	7320                	flw	fs0,96(a4)
   1225c:	65657263          	bgeu	a0,s6,128a0 <_ZL12residentfont+0x544>
   12260:	0a6e                	slli	s4,s4,0x1b
   12262:	6568                	flw	fa0,76(a0)
   12264:	706c                	flw	fa1,100(s0)
   12266:	203a                	fld	ft0,392(sp)
   12268:	6568                	flw	fa0,76(a0)
   1226a:	706c                	flw	fa1,100(s0)
   1226c:	7320                	flw	fs0,96(a4)
   1226e:	65657263          	bgeu	a0,s6,128b2 <_ZL12residentfont+0x556>
   12272:	0a6e                	slli	s4,s4,0x1b
   12274:	6974                	flw	fa3,84(a0)
   12276:	656d                	lui	a0,0x1b
   12278:	203a                	fld	ft0,392(sp)
   1227a:	6c65                	lui	s8,0x19
   1227c:	7061                	c.lui	zero,0xffff8
   1227e:	20646573          	csrrsi	a0,0x206,8
   12282:	6974                	flw	fa3,84(a0)
   12284:	656d                	lui	a0,0x1b
   12286:	640a                	flw	fs0,128(sp)
   12288:	6d75                	lui	s10,0x1d
   1228a:	3a70                	fld	fa2,240(a2)
   1228c:	7564                	flw	fs1,108(a0)
   1228e:	706d                	c.lui	zero,0xffffb
   12290:	6620                	flw	fs0,72(a2)
   12292:	7269                	lui	tp,0xffffa
   12294:	32207473          	csrrci	s0,0x322,0
   12298:	3635                	jal	11dc4 <memcpy+0x3c>
   1229a:	6220                	flw	fs0,64(a2)
   1229c:	7479                	lui	s0,0xffffe
   1229e:	7365                	lui	t1,0xffff9
   122a0:	6f20                	flw	fs0,88(a4)
   122a2:	2066                	fld	ft0,88(sp)
   122a4:	4c45                	li	s8,17
   122a6:	0a46                	slli	s4,s4,0x11
   122a8:	0000                	unimp
   122aa:	0000                	unimp
   122ac:	003a                	c.slli	zero,0xe
   122ae:	0000                	unimp
   122b0:	0020                	addi	s0,sp,8
   122b2:	0000                	unimp
   122b4:	005f 0000 e0e8      	0xe0e80000005f
   122ba:	ffff                	0xffff
   122bc:	dffc                	sw	a5,124(a5)
   122be:	ffff                	0xffff
   122c0:	dffc                	sw	a5,124(a5)
   122c2:	ffff                	0xffff
   122c4:	dffc                	sw	a5,124(a5)
   122c6:	ffff                	0xffff
   122c8:	dffc                	sw	a5,124(a5)
   122ca:	ffff                	0xffff
   122cc:	dffc                	sw	a5,124(a5)
   122ce:	ffff                	0xffff
   122d0:	dffc                	sw	a5,124(a5)
   122d2:	ffff                	0xffff
   122d4:	dffc                	sw	a5,124(a5)
   122d6:	ffff                	0xffff
   122d8:	dffc                	sw	a5,124(a5)
   122da:	ffff                	0xffff
   122dc:	dffc                	sw	a5,124(a5)
   122de:	ffff                	0xffff
   122e0:	dffc                	sw	a5,124(a5)
   122e2:	ffff                	0xffff
   122e4:	dffc                	sw	a5,124(a5)
   122e6:	ffff                	0xffff
   122e8:	e0d0                	fsw	fa2,4(s1)
   122ea:	ffff                	0xffff
   122ec:	dffc                	sw	a5,124(a5)
   122ee:	ffff                	0xffff
   122f0:	dffc                	sw	a5,124(a5)
   122f2:	ffff                	0xffff
   122f4:	dffc                	sw	a5,124(a5)
   122f6:	ffff                	0xffff
   122f8:	dffc                	sw	a5,124(a5)
   122fa:	ffff                	0xffff
   122fc:	e0bc                	fsw	fa5,64(s1)
   122fe:	ffff                	0xffff
   12300:	dffc                	sw	a5,124(a5)
   12302:	ffff                	0xffff
   12304:	dffc                	sw	a5,124(a5)
   12306:	ffff                	0xffff
   12308:	dffc                	sw	a5,124(a5)
   1230a:	ffff                	0xffff
   1230c:	dffc                	sw	a5,124(a5)
   1230e:	ffff                	0xffff
   12310:	dffc                	sw	a5,124(a5)
   12312:	ffff                	0xffff
   12314:	dffc                	sw	a5,124(a5)
   12316:	ffff                	0xffff
   12318:	e0a8                	fsw	fa0,64(s1)
   1231a:	ffff                	0xffff
   1231c:	dffc                	sw	a5,124(a5)
   1231e:	ffff                	0xffff
   12320:	e094                	fsw	fa3,0(s1)
   12322:	ffff                	0xffff
   12324:	e080                	fsw	fs0,0(s1)
   12326:	ffff                	0xffff
   12328:	2020                	fld	fs0,64(s0)
   1232a:	2020                	fld	fs0,64(s0)
   1232c:	2020                	fld	fs0,64(s0)
   1232e:	2020                	fld	fs0,64(s0)
   12330:	2020                	fld	fs0,64(s0)
   12332:	2020                	fld	fs0,64(s0)
   12334:	2020                	fld	fs0,64(s0)
   12336:	2020                	fld	fs0,64(s0)
   12338:	2020                	fld	fs0,64(s0)
   1233a:	0020                	addi	s0,sp,8
   1233c:	3130                	fld	fa2,96(a0)
   1233e:	3332                	fld	ft6,296(sp)
   12340:	3534                	fld	fa3,104(a0)
   12342:	3736                	fld	fa4,360(sp)
   12344:	3938                	fld	fa4,112(a0)
   12346:	0000                	unimp
   12348:	3130                	fld	fa2,96(a0)
   1234a:	3332                	fld	ft6,296(sp)
   1234c:	3534                	fld	fa3,104(a0)
   1234e:	3736                	fld	fa4,360(sp)
   12350:	3938                	fld	fa4,112(a0)
   12352:	4241                	li	tp,16
   12354:	46454443          	fmadd.q	fs0,fa0,ft4,fs0,rmm
   12358:	0000                	unimp
	...

0001235c <_ZL12residentfont>:
	...
   12364:	0000                	unimp
   12366:	0000000f          	fence	unknown,unknown
   1236a:	0000                	unimp
   1236c:	0f00                	addi	s0,sp,912
   1236e:	0f00                	addi	s0,sp,912
   12370:	0000                	unimp
   12372:	0000                	unimp
   12374:	0000                	unimp
   12376:	000f000f          	0xf000f
   1237a:	0000                	unimp
   1237c:	0f00                	addi	s0,sp,912
   1237e:	00000f0f          	0xf0f
   12382:	0000                	unimp
   12384:	0f00                	addi	s0,sp,912
   12386:	000f0f0f          	0xf0f0f
   1238a:	0000                	unimp
   1238c:	0000                	unimp
   1238e:	0000000f          	fence	unknown,unknown
   12392:	0000                	unimp
   12394:	0000                	unimp
   12396:	0000000f          	fence	unknown,unknown
   1239a:	0000                	unimp
   1239c:	0000                	unimp
   1239e:	0f00                	addi	s0,sp,912
   123a0:	0000                	unimp
   123a2:	0000                	unimp
   123a4:	0f00                	addi	s0,sp,912
	...
   123ae:	0000000f          	fence	unknown,unknown
	...
   123d6:	0000                	unimp
   123d8:	0000000f          	fence	unknown,unknown
   123dc:	0f00                	addi	s0,sp,912
   123de:	00000f0f          	0xf0f
   123e2:	0000                	unimp
   123e4:	0000                	unimp
   123e6:	0000000f          	fence	unknown,unknown
   123ea:	0000                	unimp
   123ec:	0f00                	addi	s0,sp,912
   123ee:	00000f0f          	0xf0f
   123f2:	0000                	unimp
   123f4:	0f0f0f0f          	0xf0f0f0f
   123f8:	0000000f          	fence	unknown,unknown
   123fc:	0000                	unimp
   123fe:	0f00                	addi	s0,sp,912
   12400:	0000                	unimp
   12402:	0000                	unimp
   12404:	0f0f0f0f          	0xf0f0f0f
   12408:	0000000f          	fence	unknown,unknown
   1240c:	0000                	unimp
   1240e:	00000f0f          	0xf0f
   12412:	0000                	unimp
   12414:	0f0f0f0f          	0xf0f0f0f
   12418:	0000000f          	fence	unknown,unknown
   1241c:	0f00                	addi	s0,sp,912
   1241e:	00000f0f          	0xf0f
   12422:	0000                	unimp
   12424:	0f00                	addi	s0,sp,912
   12426:	00000f0f          	0xf0f
	...
   12456:	00000f0f          	0xf0f
	...
   12466:	0000000f          	fence	unknown,unknown
   1246a:	0000                	unimp
   1246c:	0f00                	addi	s0,sp,912
   1246e:	0f00                	addi	s0,sp,912
   12470:	0000                	unimp
   12472:	0000                	unimp
   12474:	0f0f0f0f          	0xf0f0f0f
   12478:	0000000f          	fence	unknown,unknown
   1247c:	000f000f          	0xf000f
   12480:	0000000f          	fence	unknown,unknown
   12484:	000f000f          	0xf000f
   12488:	0000000f          	fence	unknown,unknown
   1248c:	0f00                	addi	s0,sp,912
   1248e:	0f00                	addi	s0,sp,912
   12490:	0000                	unimp
   12492:	0000                	unimp
   12494:	0000                	unimp
   12496:	0000000f          	fence	unknown,unknown
   1249a:	0000                	unimp
   1249c:	0000                	unimp
   1249e:	0000000f          	fence	unknown,unknown
   124a2:	0000                	unimp
   124a4:	0000                	unimp
   124a6:	0000000f          	fence	unknown,unknown
   124aa:	0000                	unimp
   124ac:	000f000f          	0xf000f
   124b0:	0000000f          	fence	unknown,unknown
   124b4:	0000                	unimp
   124b6:	0000000f          	fence	unknown,unknown
	...
   124d6:	0000                	unimp
   124d8:	0000000f          	fence	unknown,unknown
   124dc:	0000000f          	fence	unknown,unknown
   124e0:	0000000f          	fence	unknown,unknown
   124e4:	0f00                	addi	s0,sp,912
   124e6:	0000000f          	fence	unknown,unknown
   124ea:	0000                	unimp
   124ec:	0000000f          	fence	unknown,unknown
   124f0:	0000000f          	fence	unknown,unknown
   124f4:	0000                	unimp
   124f6:	0f00                	addi	s0,sp,912
   124f8:	0000                	unimp
   124fa:	0000                	unimp
   124fc:	0000                	unimp
   124fe:	00000f0f          	0xf0f
   12502:	0000                	unimp
   12504:	0000000f          	fence	unknown,unknown
   12508:	0000                	unimp
   1250a:	0000                	unimp
   1250c:	0f00                	addi	s0,sp,912
	...
   12516:	0000                	unimp
   12518:	0000000f          	fence	unknown,unknown
   1251c:	0000000f          	fence	unknown,unknown
   12520:	0000000f          	fence	unknown,unknown
   12524:	0000000f          	fence	unknown,unknown
   12528:	0000000f          	fence	unknown,unknown
	...
   1253c:	0000                	unimp
   1253e:	0f00                	addi	s0,sp,912
	...
   1254c:	0f00                	addi	s0,sp,912
   1254e:	0000                	unimp
   12550:	0000                	unimp
   12552:	0000                	unimp
   12554:	0f00                	addi	s0,sp,912
   12556:	0000                	unimp
   12558:	0000000f          	fence	unknown,unknown
	...
   12564:	0000                	unimp
   12566:	0000000f          	fence	unknown,unknown
	...
   12572:	0000                	unimp
   12574:	0f00                	addi	s0,sp,912
   12576:	0f00                	addi	s0,sp,912
   12578:	0000                	unimp
   1257a:	0000                	unimp
   1257c:	000f000f          	0xf000f
   12580:	0000                	unimp
   12582:	0000                	unimp
   12584:	0f0f000f          	0xf0f000f
   12588:	0000                	unimp
   1258a:	0000                	unimp
   1258c:	0000                	unimp
   1258e:	0000000f          	fence	unknown,unknown
	...
   1259a:	0000                	unimp
   1259c:	0f00                	addi	s0,sp,912
	...
   125a6:	0f00                	addi	s0,sp,912
   125a8:	0000                	unimp
   125aa:	0000                	unimp
   125ac:	0f00                	addi	s0,sp,912
   125ae:	00000f0f          	0xf0f
   125b2:	0000                	unimp
   125b4:	0000                	unimp
   125b6:	0000000f          	fence	unknown,unknown
	...
   125d6:	0f00                	addi	s0,sp,912
   125d8:	0000                	unimp
   125da:	0000                	unimp
   125dc:	0f00000f          	fence	iorw,unknown
   125e0:	0000000f          	fence	unknown,unknown
   125e4:	0000                	unimp
   125e6:	0000000f          	fence	unknown,unknown
   125ea:	0000                	unimp
   125ec:	0000                	unimp
   125ee:	0000                	unimp
   125f0:	0000000f          	fence	unknown,unknown
   125f4:	0000                	unimp
   125f6:	0000000f          	fence	unknown,unknown
   125fa:	0000                	unimp
   125fc:	0f00                	addi	s0,sp,912
   125fe:	0f00                	addi	s0,sp,912
   12600:	0000                	unimp
   12602:	0000                	unimp
   12604:	0f0f0f0f          	0xf0f0f0f
   12608:	0000                	unimp
   1260a:	0000                	unimp
   1260c:	0000000f          	fence	unknown,unknown
   12610:	0000                	unimp
   12612:	0000                	unimp
   12614:	0000                	unimp
   12616:	0f00                	addi	s0,sp,912
   12618:	0000                	unimp
   1261a:	0000                	unimp
   1261c:	0000000f          	fence	unknown,unknown
   12620:	0000000f          	fence	unknown,unknown
   12624:	0000000f          	fence	unknown,unknown
   12628:	0000000f          	fence	unknown,unknown
   1262c:	0000                	unimp
   1262e:	0000000f          	fence	unknown,unknown
   12632:	0000                	unimp
   12634:	0000                	unimp
   12636:	0000000f          	fence	unknown,unknown
   1263a:	0000                	unimp
   1263c:	0000                	unimp
   1263e:	0000000f          	fence	unknown,unknown
   12642:	0000                	unimp
   12644:	0f0f0f0f          	0xf0f0f0f
   12648:	0000000f          	fence	unknown,unknown
   1264c:	0000                	unimp
   1264e:	0000000f          	fence	unknown,unknown
   12652:	0000                	unimp
   12654:	0000                	unimp
   12656:	0000                	unimp
   12658:	0000000f          	fence	unknown,unknown
	...
   12664:	0000                	unimp
   12666:	0000000f          	fence	unknown,unknown
	...
   12672:	0000                	unimp
   12674:	0f0f0f0f          	0xf0f0f0f
   12678:	0000000f          	fence	unknown,unknown
   1267c:	0f00                	addi	s0,sp,912
   1267e:	00000f0f          	0xf0f
   12682:	0000                	unimp
   12684:	0f00                	addi	s0,sp,912
   12686:	000f0f0f          	0xf0f0f
   1268a:	0000                	unimp
   1268c:	0f00                	addi	s0,sp,912
   1268e:	0f00                	addi	s0,sp,912
   12690:	0f00                	addi	s0,sp,912
	...
   1269a:	0000                	unimp
   1269c:	0f00                	addi	s0,sp,912
	...
   126a6:	0f00                	addi	s0,sp,912
   126a8:	0000                	unimp
   126aa:	0000                	unimp
   126ac:	0f00                	addi	s0,sp,912
   126ae:	0f00                	addi	s0,sp,912
   126b0:	0000                	unimp
   126b2:	0000                	unimp
   126b4:	0f0f0f0f          	0xf0f0f0f
   126b8:	0000000f          	fence	unknown,unknown
	...
   126c4:	0f00                	addi	s0,sp,912
   126c6:	000f0f0f          	0xf0f0f
	...
   126d6:	0f00                	addi	s0,sp,912
   126d8:	0000                	unimp
   126da:	0000                	unimp
   126dc:	000f000f          	0xf000f
   126e0:	0000000f          	fence	unknown,unknown
   126e4:	0000                	unimp
   126e6:	0000000f          	fence	unknown,unknown
   126ea:	0000                	unimp
   126ec:	0000                	unimp
   126ee:	0f00                	addi	s0,sp,912
   126f0:	0000                	unimp
   126f2:	0000                	unimp
   126f4:	0f00                	addi	s0,sp,912
   126f6:	00000f0f          	0xf0f
   126fa:	0000                	unimp
   126fc:	0f00000f          	fence	iorw,unknown
	...
   12708:	0000000f          	fence	unknown,unknown
   1270c:	0f0f0f0f          	0xf0f0f0f
   12710:	0000                	unimp
   12712:	0000                	unimp
   12714:	0000                	unimp
   12716:	0f00                	addi	s0,sp,912
   12718:	0000                	unimp
   1271a:	0000                	unimp
   1271c:	0f00                	addi	s0,sp,912
   1271e:	00000f0f          	0xf0f
   12722:	0000                	unimp
   12724:	0f00                	addi	s0,sp,912
   12726:	000f0f0f          	0xf0f0f
	...
   1273a:	0000                	unimp
   1273c:	0f00                	addi	s0,sp,912
	...
   1274e:	0f00                	addi	s0,sp,912
   12750:	0000                	unimp
   12752:	0000                	unimp
   12754:	0000                	unimp
   12756:	0f00                	addi	s0,sp,912
	...
   12764:	0000                	unimp
   12766:	0000000f          	fence	unknown,unknown
	...
   12772:	0000                	unimp
   12774:	000f000f          	0xf000f
   12778:	0000                	unimp
   1277a:	0000                	unimp
   1277c:	0000                	unimp
   1277e:	000f000f          	0xf000f
   12782:	0000                	unimp
   12784:	0000                	unimp
   12786:	0f000f0f          	0xf000f0f
   1278a:	0000                	unimp
   1278c:	0000000f          	fence	unknown,unknown
   12790:	0000000f          	fence	unknown,unknown
	...
   1279c:	0f00                	addi	s0,sp,912
	...
   127a6:	0f00                	addi	s0,sp,912
   127a8:	0000                	unimp
   127aa:	0000                	unimp
   127ac:	0000000f          	fence	unknown,unknown
   127b0:	0000000f          	fence	unknown,unknown
   127b4:	0000                	unimp
   127b6:	0000000f          	fence	unknown,unknown
	...
   127d6:	0000000f          	fence	unknown,unknown
   127da:	0000                	unimp
   127dc:	00000f0f          	0xf0f
   127e0:	0000000f          	fence	unknown,unknown
   127e4:	0000                	unimp
   127e6:	0000000f          	fence	unknown,unknown
   127ea:	0000                	unimp
   127ec:	0000                	unimp
   127ee:	0000000f          	fence	unknown,unknown
   127f2:	0000                	unimp
   127f4:	0000                	unimp
   127f6:	0000                	unimp
   127f8:	0000000f          	fence	unknown,unknown
   127fc:	0f0f0f0f          	0xf0f0f0f
   12800:	0000000f          	fence	unknown,unknown
   12804:	0000                	unimp
   12806:	0000                	unimp
   12808:	0000000f          	fence	unknown,unknown
   1280c:	0000000f          	fence	unknown,unknown
   12810:	0000000f          	fence	unknown,unknown
   12814:	0000                	unimp
   12816:	0000000f          	fence	unknown,unknown
   1281a:	0000                	unimp
   1281c:	0000000f          	fence	unknown,unknown
   12820:	0000000f          	fence	unknown,unknown
   12824:	0000                	unimp
   12826:	0000                	unimp
   12828:	0000000f          	fence	unknown,unknown
	...
   1283c:	0000                	unimp
   1283e:	0000000f          	fence	unknown,unknown
   12842:	0000                	unimp
   12844:	0f0f0f0f          	0xf0f0f0f
   12848:	0000000f          	fence	unknown,unknown
   1284c:	0000                	unimp
   1284e:	0000000f          	fence	unknown,unknown
   12852:	0000                	unimp
   12854:	0000                	unimp
   12856:	0000000f          	fence	unknown,unknown
	...
   1287a:	0000                	unimp
   1287c:	000f000f          	0xf000f
   12880:	0000000f          	fence	unknown,unknown
   12884:	0f00                	addi	s0,sp,912
   12886:	0f00                	addi	s0,sp,912
   12888:	0f00                	addi	s0,sp,912
   1288a:	0000                	unimp
   1288c:	0000000f          	fence	unknown,unknown
   12890:	0000000f          	fence	unknown,unknown
	...
   1289c:	0f00                	addi	s0,sp,912
	...
   128a6:	0f00                	addi	s0,sp,912
	...
   128b4:	0000                	unimp
   128b6:	0000000f          	fence	unknown,unknown
   128ba:	0000                	unimp
   128bc:	0000                	unimp
   128be:	0000000f          	fence	unknown,unknown
	...
   128d6:	0000000f          	fence	unknown,unknown
   128da:	0000                	unimp
   128dc:	0000000f          	fence	unknown,unknown
   128e0:	0000000f          	fence	unknown,unknown
   128e4:	0000                	unimp
   128e6:	0000000f          	fence	unknown,unknown
   128ea:	0000                	unimp
   128ec:	0f00                	addi	s0,sp,912
   128ee:	0000                	unimp
   128f0:	0000                	unimp
   128f2:	0000                	unimp
   128f4:	0000000f          	fence	unknown,unknown
   128f8:	0000000f          	fence	unknown,unknown
   128fc:	0000                	unimp
   128fe:	0f00                	addi	s0,sp,912
   12900:	0000                	unimp
   12902:	0000                	unimp
   12904:	0000000f          	fence	unknown,unknown
   12908:	0000000f          	fence	unknown,unknown
   1290c:	0000000f          	fence	unknown,unknown
   12910:	0000000f          	fence	unknown,unknown
   12914:	0000                	unimp
   12916:	0000000f          	fence	unknown,unknown
   1291a:	0000                	unimp
   1291c:	0000000f          	fence	unknown,unknown
   12920:	0000000f          	fence	unknown,unknown
   12924:	0000                	unimp
   12926:	0f00                	addi	s0,sp,912
	...
   12934:	0000                	unimp
   12936:	0000000f          	fence	unknown,unknown
   1293a:	0000                	unimp
   1293c:	0000                	unimp
   1293e:	0f00                	addi	s0,sp,912
	...
   1294c:	0f00                	addi	s0,sp,912
	...
   12966:	0000000f          	fence	unknown,unknown
	...
   1297a:	0000                	unimp
   1297c:	0f00                	addi	s0,sp,912
   1297e:	00000f0f          	0xf0f
   12982:	0000                	unimp
   12984:	0f00                	addi	s0,sp,912
   12986:	0000                	unimp
   12988:	0000000f          	fence	unknown,unknown
   1298c:	0f00                	addi	s0,sp,912
   1298e:	0f000f0f          	0xf000f0f
	...
   1299e:	0000000f          	fence	unknown,unknown
   129a2:	0000                	unimp
   129a4:	0000                	unimp
   129a6:	0000000f          	fence	unknown,unknown
	...
   129be:	0000000f          	fence	unknown,unknown
	...
   129ce:	0000000f          	fence	unknown,unknown
   129d2:	0000                	unimp
   129d4:	0f00                	addi	s0,sp,912
   129d6:	0000                	unimp
   129d8:	0000                	unimp
   129da:	0000                	unimp
   129dc:	0f00                	addi	s0,sp,912
   129de:	00000f0f          	0xf0f
   129e2:	0000                	unimp
   129e4:	0000                	unimp
   129e6:	0000000f          	fence	unknown,unknown
   129ea:	0000                	unimp
   129ec:	0f0f0f0f          	0xf0f0f0f
   129f0:	0000000f          	fence	unknown,unknown
   129f4:	0f00                	addi	s0,sp,912
   129f6:	00000f0f          	0xf0f
   129fa:	0000                	unimp
   129fc:	0000                	unimp
   129fe:	0f00                	addi	s0,sp,912
   12a00:	0000                	unimp
   12a02:	0000                	unimp
   12a04:	0f00                	addi	s0,sp,912
   12a06:	00000f0f          	0xf0f
   12a0a:	0000                	unimp
   12a0c:	0f00                	addi	s0,sp,912
   12a0e:	00000f0f          	0xf0f
   12a12:	0000                	unimp
   12a14:	0000                	unimp
   12a16:	0000000f          	fence	unknown,unknown
   12a1a:	0000                	unimp
   12a1c:	0f00                	addi	s0,sp,912
   12a1e:	00000f0f          	0xf0f
   12a22:	0000                	unimp
   12a24:	0f00                	addi	s0,sp,912
   12a26:	0000000f          	fence	unknown,unknown
   12a2a:	0000                	unimp
   12a2c:	0000                	unimp
   12a2e:	0000000f          	fence	unknown,unknown
   12a32:	0000                	unimp
   12a34:	0000                	unimp
   12a36:	0000000f          	fence	unknown,unknown
	...
   12a56:	0000000f          	fence	unknown,unknown
	...
   12a7e:	0000000f          	fence	unknown,unknown
	...
   12a9e:	0f00                	addi	s0,sp,912
   12aa0:	0000                	unimp
   12aa2:	0000                	unimp
   12aa4:	0f00                	addi	s0,sp,912
	...
   12aba:	0000                	unimp
   12abc:	0f00                	addi	s0,sp,912
	...
   12ad2:	0000                	unimp
   12ad4:	0f00                	addi	s0,sp,912
	...
   12b32:	0000                	unimp
   12b34:	0f00                	addi	s0,sp,912
	...
   12b5e:	00000f0f          	0xf0f
   12b62:	0000                	unimp
   12b64:	0000                	unimp
   12b66:	0000000f          	fence	unknown,unknown
   12b6a:	0000                	unimp
   12b6c:	0f0f0f0f          	0xf0f0f0f
   12b70:	0000                	unimp
   12b72:	0000                	unimp
   12b74:	0f00                	addi	s0,sp,912
   12b76:	00000f0f          	0xf0f
   12b7a:	0000                	unimp
   12b7c:	000f0f0f          	0xf0f0f
   12b80:	0000                	unimp
   12b82:	0000                	unimp
   12b84:	0f00                	addi	s0,sp,912
   12b86:	000f0f0f          	0xf0f0f
   12b8a:	0000                	unimp
   12b8c:	0f00                	addi	s0,sp,912
   12b8e:	000f0f0f          	0xf0f0f
   12b92:	0000                	unimp
   12b94:	0f00                	addi	s0,sp,912
   12b96:	00000f0f          	0xf0f
   12b9a:	0000                	unimp
   12b9c:	0000000f          	fence	unknown,unknown
   12ba0:	0000000f          	fence	unknown,unknown
   12ba4:	0000                	unimp
   12ba6:	0000000f          	fence	unknown,unknown
   12baa:	0000                	unimp
   12bac:	0000                	unimp
   12bae:	0000                	unimp
   12bb0:	0000000f          	fence	unknown,unknown
   12bb4:	0000000f          	fence	unknown,unknown
   12bb8:	0000000f          	fence	unknown,unknown
   12bbc:	0f00                	addi	s0,sp,912
   12bbe:	0000                	unimp
   12bc0:	0000                	unimp
   12bc2:	0000                	unimp
   12bc4:	0000000f          	fence	unknown,unknown
   12bc8:	0000000f          	fence	unknown,unknown
   12bcc:	00000f0f          	0xf0f
   12bd0:	0000000f          	fence	unknown,unknown
   12bd4:	0f00                	addi	s0,sp,912
   12bd6:	00000f0f          	0xf0f
   12bda:	0000                	unimp
   12bdc:	0f0f0f0f          	0xf0f0f0f
   12be0:	0000                	unimp
   12be2:	0000                	unimp
   12be4:	0f00                	addi	s0,sp,912
   12be6:	00000f0f          	0xf0f
   12bea:	0000                	unimp
   12bec:	0f0f0f0f          	0xf0f0f0f
   12bf0:	0000                	unimp
   12bf2:	0000                	unimp
   12bf4:	0f00                	addi	s0,sp,912
   12bf6:	00000f0f          	0xf0f
   12bfa:	0000                	unimp
   12bfc:	0f0f0f0f          	0xf0f0f0f
   12c00:	0000000f          	fence	unknown,unknown
   12c04:	0000000f          	fence	unknown,unknown
   12c08:	0000000f          	fence	unknown,unknown
   12c0c:	0000000f          	fence	unknown,unknown
   12c10:	0000000f          	fence	unknown,unknown
   12c14:	0000000f          	fence	unknown,unknown
   12c18:	0000000f          	fence	unknown,unknown
   12c1c:	0000000f          	fence	unknown,unknown
   12c20:	0000000f          	fence	unknown,unknown
   12c24:	0000000f          	fence	unknown,unknown
   12c28:	0000000f          	fence	unknown,unknown
   12c2c:	0f00                	addi	s0,sp,912
   12c2e:	000f0f0f          	0xf0f0f
   12c32:	0000                	unimp
   12c34:	0000                	unimp
   12c36:	00000f0f          	0xf0f
   12c3a:	0000                	unimp
   12c3c:	0f00                	addi	s0,sp,912
   12c3e:	0000                	unimp
   12c40:	0000                	unimp
   12c42:	0000                	unimp
   12c44:	0f00                	addi	s0,sp,912
   12c46:	0000000f          	fence	unknown,unknown
   12c4a:	0000                	unimp
   12c4c:	0000                	unimp
   12c4e:	0000000f          	fence	unknown,unknown
	...
   12c5a:	0000                	unimp
   12c5c:	0f00                	addi	s0,sp,912
   12c5e:	0000                	unimp
   12c60:	0000000f          	fence	unknown,unknown
   12c64:	0000                	unimp
   12c66:	0000000f          	fence	unknown,unknown
   12c6a:	0000                	unimp
   12c6c:	0000000f          	fence	unknown,unknown
   12c70:	0000000f          	fence	unknown,unknown
   12c74:	0000000f          	fence	unknown,unknown
   12c78:	0000000f          	fence	unknown,unknown
   12c7c:	0f00000f          	fence	iorw,unknown
   12c80:	0000                	unimp
   12c82:	0000                	unimp
   12c84:	0f00                	addi	s0,sp,912
   12c86:	0000                	unimp
   12c88:	0000                	unimp
   12c8a:	0000                	unimp
   12c8c:	0f00                	addi	s0,sp,912
   12c8e:	0000                	unimp
   12c90:	0000                	unimp
   12c92:	0000                	unimp
   12c94:	0000000f          	fence	unknown,unknown
   12c98:	0000000f          	fence	unknown,unknown
   12c9c:	0000000f          	fence	unknown,unknown
   12ca0:	0000000f          	fence	unknown,unknown
   12ca4:	0000                	unimp
   12ca6:	0000000f          	fence	unknown,unknown
   12caa:	0000                	unimp
   12cac:	0000                	unimp
   12cae:	0000                	unimp
   12cb0:	0000000f          	fence	unknown,unknown
   12cb4:	0f00000f          	fence	iorw,unknown
   12cb8:	0000                	unimp
   12cba:	0000                	unimp
   12cbc:	0f00                	addi	s0,sp,912
   12cbe:	0000                	unimp
   12cc0:	0000                	unimp
   12cc2:	0000                	unimp
   12cc4:	0f000f0f          	0xf000f0f
   12cc8:	0000000f          	fence	unknown,unknown
   12ccc:	00000f0f          	0xf0f
   12cd0:	0000000f          	fence	unknown,unknown
   12cd4:	0000000f          	fence	unknown,unknown
   12cd8:	0000000f          	fence	unknown,unknown
   12cdc:	0000000f          	fence	unknown,unknown
   12ce0:	0000000f          	fence	unknown,unknown
   12ce4:	0000000f          	fence	unknown,unknown
   12ce8:	0000000f          	fence	unknown,unknown
   12cec:	0000000f          	fence	unknown,unknown
   12cf0:	0000000f          	fence	unknown,unknown
   12cf4:	0000000f          	fence	unknown,unknown
   12cf8:	0000000f          	fence	unknown,unknown
   12cfc:	0000                	unimp
   12cfe:	0000000f          	fence	unknown,unknown
   12d02:	0000                	unimp
   12d04:	0000000f          	fence	unknown,unknown
   12d08:	0000000f          	fence	unknown,unknown
   12d0c:	0000000f          	fence	unknown,unknown
   12d10:	0000000f          	fence	unknown,unknown
   12d14:	0000000f          	fence	unknown,unknown
   12d18:	0000000f          	fence	unknown,unknown
   12d1c:	0000000f          	fence	unknown,unknown
   12d20:	0000000f          	fence	unknown,unknown
   12d24:	0000000f          	fence	unknown,unknown
   12d28:	0000000f          	fence	unknown,unknown
   12d2c:	0000                	unimp
   12d2e:	0000                	unimp
   12d30:	0000000f          	fence	unknown,unknown
   12d34:	0000                	unimp
   12d36:	0000000f          	fence	unknown,unknown
   12d3a:	0000                	unimp
   12d3c:	0f00                	addi	s0,sp,912
	...
   12d46:	0000000f          	fence	unknown,unknown
   12d4a:	0000                	unimp
   12d4c:	0f00                	addi	s0,sp,912
   12d4e:	0f00                	addi	s0,sp,912
	...
   12d5c:	0f0f000f          	0xf0f000f
   12d60:	0f00                	addi	s0,sp,912
   12d62:	0000                	unimp
   12d64:	0f00                	addi	s0,sp,912
   12d66:	0f00                	addi	s0,sp,912
   12d68:	0000                	unimp
   12d6a:	0000                	unimp
   12d6c:	0000000f          	fence	unknown,unknown
   12d70:	0000000f          	fence	unknown,unknown
   12d74:	0000000f          	fence	unknown,unknown
   12d78:	0000                	unimp
   12d7a:	0000                	unimp
   12d7c:	0000000f          	fence	unknown,unknown
   12d80:	0000000f          	fence	unknown,unknown
   12d84:	0f00                	addi	s0,sp,912
   12d86:	0000                	unimp
   12d88:	0000                	unimp
   12d8a:	0000                	unimp
   12d8c:	0f00                	addi	s0,sp,912
   12d8e:	0000                	unimp
   12d90:	0000                	unimp
   12d92:	0000                	unimp
   12d94:	0000000f          	fence	unknown,unknown
   12d98:	0000                	unimp
   12d9a:	0000                	unimp
   12d9c:	0000000f          	fence	unknown,unknown
   12da0:	0000000f          	fence	unknown,unknown
   12da4:	0000                	unimp
   12da6:	0000000f          	fence	unknown,unknown
   12daa:	0000                	unimp
   12dac:	0000                	unimp
   12dae:	0000                	unimp
   12db0:	0000000f          	fence	unknown,unknown
   12db4:	000f000f          	0xf000f
   12db8:	0000                	unimp
   12dba:	0000                	unimp
   12dbc:	0f00                	addi	s0,sp,912
   12dbe:	0000                	unimp
   12dc0:	0000                	unimp
   12dc2:	0000                	unimp
   12dc4:	000f000f          	0xf000f
   12dc8:	0000000f          	fence	unknown,unknown
   12dcc:	000f000f          	0xf000f
   12dd0:	0000000f          	fence	unknown,unknown
   12dd4:	0000000f          	fence	unknown,unknown
   12dd8:	0000000f          	fence	unknown,unknown
   12ddc:	0000000f          	fence	unknown,unknown
   12de0:	0000000f          	fence	unknown,unknown
   12de4:	0000000f          	fence	unknown,unknown
   12de8:	0000000f          	fence	unknown,unknown
   12dec:	0000000f          	fence	unknown,unknown
   12df0:	0000000f          	fence	unknown,unknown
   12df4:	0000000f          	fence	unknown,unknown
   12df8:	0000                	unimp
   12dfa:	0000                	unimp
   12dfc:	0000                	unimp
   12dfe:	0000000f          	fence	unknown,unknown
   12e02:	0000                	unimp
   12e04:	0000000f          	fence	unknown,unknown
   12e08:	0000000f          	fence	unknown,unknown
   12e0c:	0000000f          	fence	unknown,unknown
   12e10:	0000000f          	fence	unknown,unknown
   12e14:	000f000f          	0xf000f
   12e18:	0000000f          	fence	unknown,unknown
   12e1c:	0f00                	addi	s0,sp,912
   12e1e:	0f00                	addi	s0,sp,912
   12e20:	0000                	unimp
   12e22:	0000                	unimp
   12e24:	0f00                	addi	s0,sp,912
   12e26:	0f00                	addi	s0,sp,912
   12e28:	0000                	unimp
   12e2a:	0000                	unimp
   12e2c:	0000                	unimp
   12e2e:	0f00                	addi	s0,sp,912
   12e30:	0000                	unimp
   12e32:	0000                	unimp
   12e34:	0000                	unimp
   12e36:	0000000f          	fence	unknown,unknown
   12e3a:	0000                	unimp
   12e3c:	0000                	unimp
   12e3e:	0000000f          	fence	unknown,unknown
   12e42:	0000                	unimp
   12e44:	0000                	unimp
   12e46:	0000000f          	fence	unknown,unknown
	...
   12e5a:	0000                	unimp
   12e5c:	0f000f0f          	0xf000f0f
   12e60:	0f00                	addi	s0,sp,912
   12e62:	0000                	unimp
   12e64:	0f00                	addi	s0,sp,912
   12e66:	0f00                	addi	s0,sp,912
   12e68:	0000                	unimp
   12e6a:	0000                	unimp
   12e6c:	0f0f0f0f          	0xf0f0f0f
   12e70:	0000                	unimp
   12e72:	0000                	unimp
   12e74:	0000000f          	fence	unknown,unknown
   12e78:	0000                	unimp
   12e7a:	0000                	unimp
   12e7c:	0000000f          	fence	unknown,unknown
   12e80:	0000000f          	fence	unknown,unknown
   12e84:	0f00                	addi	s0,sp,912
   12e86:	00000f0f          	0xf0f
   12e8a:	0000                	unimp
   12e8c:	0f00                	addi	s0,sp,912
   12e8e:	00000f0f          	0xf0f
   12e92:	0000                	unimp
   12e94:	0f00000f          	fence	iorw,unknown
   12e98:	0000000f          	fence	unknown,unknown
   12e9c:	0f0f0f0f          	0xf0f0f0f
   12ea0:	0000000f          	fence	unknown,unknown
   12ea4:	0000                	unimp
   12ea6:	0000000f          	fence	unknown,unknown
   12eaa:	0000                	unimp
   12eac:	0000                	unimp
   12eae:	0000                	unimp
   12eb0:	0000000f          	fence	unknown,unknown
   12eb4:	00000f0f          	0xf0f
   12eb8:	0000                	unimp
   12eba:	0000                	unimp
   12ebc:	0f00                	addi	s0,sp,912
   12ebe:	0000                	unimp
   12ec0:	0000                	unimp
   12ec2:	0000                	unimp
   12ec4:	0000000f          	fence	unknown,unknown
   12ec8:	0000000f          	fence	unknown,unknown
   12ecc:	000f000f          	0xf000f
   12ed0:	0000000f          	fence	unknown,unknown
   12ed4:	0000000f          	fence	unknown,unknown
   12ed8:	0000000f          	fence	unknown,unknown
   12edc:	0f0f0f0f          	0xf0f0f0f
   12ee0:	0000                	unimp
   12ee2:	0000                	unimp
   12ee4:	0000000f          	fence	unknown,unknown
   12ee8:	0000000f          	fence	unknown,unknown
   12eec:	0f0f0f0f          	0xf0f0f0f
   12ef0:	0000                	unimp
   12ef2:	0000                	unimp
   12ef4:	0f00                	addi	s0,sp,912
   12ef6:	00000f0f          	0xf0f
   12efa:	0000                	unimp
   12efc:	0000                	unimp
   12efe:	0000000f          	fence	unknown,unknown
   12f02:	0000                	unimp
   12f04:	0000000f          	fence	unknown,unknown
   12f08:	0000000f          	fence	unknown,unknown
   12f0c:	0f00                	addi	s0,sp,912
   12f0e:	0f00                	addi	s0,sp,912
   12f10:	0000                	unimp
   12f12:	0000                	unimp
   12f14:	000f000f          	0xf000f
   12f18:	0000000f          	fence	unknown,unknown
   12f1c:	0000                	unimp
   12f1e:	0000000f          	fence	unknown,unknown
   12f22:	0000                	unimp
   12f24:	0000                	unimp
   12f26:	0000000f          	fence	unknown,unknown
   12f2a:	0000                	unimp
   12f2c:	0000                	unimp
   12f2e:	0000000f          	fence	unknown,unknown
   12f32:	0000                	unimp
   12f34:	0000                	unimp
   12f36:	0000000f          	fence	unknown,unknown
   12f3a:	0000                	unimp
   12f3c:	0000                	unimp
   12f3e:	0000000f          	fence	unknown,unknown
   12f42:	0000                	unimp
   12f44:	0000                	unimp
   12f46:	0000000f          	fence	unknown,unknown
	...
   12f5a:	0000                	unimp
   12f5c:	0f000f0f          	0xf000f0f
   12f60:	0f00                	addi	s0,sp,912
   12f62:	0000                	unimp
   12f64:	0f0f0f0f          	0xf0f0f0f
   12f68:	0000000f          	fence	unknown,unknown
   12f6c:	0000000f          	fence	unknown,unknown
   12f70:	0000000f          	fence	unknown,unknown
   12f74:	0000000f          	fence	unknown,unknown
   12f78:	0000                	unimp
   12f7a:	0000                	unimp
   12f7c:	0000000f          	fence	unknown,unknown
   12f80:	0000000f          	fence	unknown,unknown
   12f84:	0f00                	addi	s0,sp,912
   12f86:	0000                	unimp
   12f88:	0000                	unimp
   12f8a:	0000                	unimp
   12f8c:	0f00                	addi	s0,sp,912
   12f8e:	0000                	unimp
   12f90:	0000                	unimp
   12f92:	0000                	unimp
   12f94:	0000000f          	fence	unknown,unknown
   12f98:	0000000f          	fence	unknown,unknown
   12f9c:	0000000f          	fence	unknown,unknown
   12fa0:	0000000f          	fence	unknown,unknown
   12fa4:	0000                	unimp
   12fa6:	0000000f          	fence	unknown,unknown
   12faa:	0000                	unimp
   12fac:	0000000f          	fence	unknown,unknown
   12fb0:	0000000f          	fence	unknown,unknown
   12fb4:	000f000f          	0xf000f
   12fb8:	0000                	unimp
   12fba:	0000                	unimp
   12fbc:	0f00                	addi	s0,sp,912
   12fbe:	0000                	unimp
   12fc0:	0000                	unimp
   12fc2:	0000                	unimp
   12fc4:	0000000f          	fence	unknown,unknown
   12fc8:	0000000f          	fence	unknown,unknown
   12fcc:	0f00000f          	fence	iorw,unknown
   12fd0:	0000000f          	fence	unknown,unknown
   12fd4:	0000000f          	fence	unknown,unknown
   12fd8:	0000000f          	fence	unknown,unknown
   12fdc:	0000000f          	fence	unknown,unknown
   12fe0:	0000                	unimp
   12fe2:	0000                	unimp
   12fe4:	0000000f          	fence	unknown,unknown
   12fe8:	0000000f          	fence	unknown,unknown
   12fec:	000f000f          	0xf000f
	...
   12ff8:	0000000f          	fence	unknown,unknown
   12ffc:	0000                	unimp
   12ffe:	0000000f          	fence	unknown,unknown
   13002:	0000                	unimp
   13004:	0000000f          	fence	unknown,unknown
   13008:	0000000f          	fence	unknown,unknown
   1300c:	0f00                	addi	s0,sp,912
   1300e:	0f00                	addi	s0,sp,912
   13010:	0000                	unimp
   13012:	0000                	unimp
   13014:	0f00                	addi	s0,sp,912
   13016:	0f00                	addi	s0,sp,912
   13018:	0000                	unimp
   1301a:	0000                	unimp
   1301c:	0f00                	addi	s0,sp,912
   1301e:	0f00                	addi	s0,sp,912
   13020:	0000                	unimp
   13022:	0000                	unimp
   13024:	0000                	unimp
   13026:	0000000f          	fence	unknown,unknown
   1302a:	0000                	unimp
   1302c:	0f00                	addi	s0,sp,912
	...
   13036:	0000000f          	fence	unknown,unknown
   1303a:	0000                	unimp
   1303c:	0000                	unimp
   1303e:	0f00                	addi	s0,sp,912
   13040:	0000                	unimp
   13042:	0000                	unimp
   13044:	0000                	unimp
   13046:	0000000f          	fence	unknown,unknown
	...
   1305a:	0000                	unimp
   1305c:	0f0f000f          	0xf0f000f
   13060:	0000000f          	fence	unknown,unknown
   13064:	0000000f          	fence	unknown,unknown
   13068:	0000000f          	fence	unknown,unknown
   1306c:	0000000f          	fence	unknown,unknown
   13070:	0000000f          	fence	unknown,unknown
   13074:	0000000f          	fence	unknown,unknown
   13078:	0000000f          	fence	unknown,unknown
   1307c:	0f00000f          	fence	iorw,unknown
   13080:	0000                	unimp
   13082:	0000                	unimp
   13084:	0f00                	addi	s0,sp,912
   13086:	0000                	unimp
   13088:	0000                	unimp
   1308a:	0000                	unimp
   1308c:	0f00                	addi	s0,sp,912
   1308e:	0000                	unimp
   13090:	0000                	unimp
   13092:	0000                	unimp
   13094:	0000000f          	fence	unknown,unknown
   13098:	0000000f          	fence	unknown,unknown
   1309c:	0000000f          	fence	unknown,unknown
   130a0:	0000000f          	fence	unknown,unknown
   130a4:	0000                	unimp
   130a6:	0000000f          	fence	unknown,unknown
   130aa:	0000                	unimp
   130ac:	0000000f          	fence	unknown,unknown
   130b0:	0000000f          	fence	unknown,unknown
   130b4:	0f00000f          	fence	iorw,unknown
   130b8:	0000                	unimp
   130ba:	0000                	unimp
   130bc:	0f00                	addi	s0,sp,912
   130be:	0000                	unimp
   130c0:	0000                	unimp
   130c2:	0000                	unimp
   130c4:	0000000f          	fence	unknown,unknown
   130c8:	0000000f          	fence	unknown,unknown
   130cc:	0f00000f          	fence	iorw,unknown
   130d0:	0000000f          	fence	unknown,unknown
   130d4:	0000000f          	fence	unknown,unknown
   130d8:	0000000f          	fence	unknown,unknown
   130dc:	0000000f          	fence	unknown,unknown
   130e0:	0000                	unimp
   130e2:	0000                	unimp
   130e4:	000f000f          	0xf000f
   130e8:	0000000f          	fence	unknown,unknown
   130ec:	0f00000f          	fence	iorw,unknown
   130f0:	0000                	unimp
   130f2:	0000                	unimp
   130f4:	0000000f          	fence	unknown,unknown
   130f8:	0000000f          	fence	unknown,unknown
   130fc:	0000                	unimp
   130fe:	0000000f          	fence	unknown,unknown
   13102:	0000                	unimp
   13104:	0000000f          	fence	unknown,unknown
   13108:	0000000f          	fence	unknown,unknown
   1310c:	0000                	unimp
   1310e:	0000000f          	fence	unknown,unknown
   13112:	0000                	unimp
   13114:	0f00                	addi	s0,sp,912
   13116:	0f00                	addi	s0,sp,912
   13118:	0000                	unimp
   1311a:	0000                	unimp
   1311c:	0000000f          	fence	unknown,unknown
   13120:	0000000f          	fence	unknown,unknown
   13124:	0000                	unimp
   13126:	0000000f          	fence	unknown,unknown
   1312a:	0000                	unimp
   1312c:	0f00                	addi	s0,sp,912
	...
   13136:	0000000f          	fence	unknown,unknown
   1313a:	0000                	unimp
   1313c:	0000                	unimp
   1313e:	0f00                	addi	s0,sp,912
   13140:	0000                	unimp
   13142:	0000                	unimp
   13144:	0000                	unimp
   13146:	0000000f          	fence	unknown,unknown
	...
   1315a:	0000                	unimp
   1315c:	0f00                	addi	s0,sp,912
   1315e:	0000                	unimp
   13160:	0000                	unimp
   13162:	0000                	unimp
   13164:	0000000f          	fence	unknown,unknown
   13168:	0000000f          	fence	unknown,unknown
   1316c:	0f0f0f0f          	0xf0f0f0f
   13170:	0000                	unimp
   13172:	0000                	unimp
   13174:	0f00                	addi	s0,sp,912
   13176:	00000f0f          	0xf0f
   1317a:	0000                	unimp
   1317c:	000f0f0f          	0xf0f0f
   13180:	0000                	unimp
   13182:	0000                	unimp
   13184:	0f00                	addi	s0,sp,912
   13186:	000f0f0f          	0xf0f0f
   1318a:	0000                	unimp
   1318c:	0f00                	addi	s0,sp,912
   1318e:	0000                	unimp
   13190:	0000                	unimp
   13192:	0000                	unimp
   13194:	0f00                	addi	s0,sp,912
   13196:	00000f0f          	0xf0f
   1319a:	0000                	unimp
   1319c:	0000000f          	fence	unknown,unknown
   131a0:	0000000f          	fence	unknown,unknown
   131a4:	0000                	unimp
   131a6:	0000000f          	fence	unknown,unknown
   131aa:	0000                	unimp
   131ac:	0f00                	addi	s0,sp,912
   131ae:	00000f0f          	0xf0f
   131b2:	0000                	unimp
   131b4:	0000000f          	fence	unknown,unknown
   131b8:	0000000f          	fence	unknown,unknown
   131bc:	0f00                	addi	s0,sp,912
   131be:	000f0f0f          	0xf0f0f
   131c2:	0000                	unimp
   131c4:	0000000f          	fence	unknown,unknown
   131c8:	0000000f          	fence	unknown,unknown
   131cc:	0000000f          	fence	unknown,unknown
   131d0:	0000000f          	fence	unknown,unknown
   131d4:	0f00                	addi	s0,sp,912
   131d6:	00000f0f          	0xf0f
   131da:	0000                	unimp
   131dc:	0000000f          	fence	unknown,unknown
   131e0:	0000                	unimp
   131e2:	0000                	unimp
   131e4:	0f00                	addi	s0,sp,912
   131e6:	00000f0f          	0xf0f
   131ea:	0000                	unimp
   131ec:	0000000f          	fence	unknown,unknown
   131f0:	0000000f          	fence	unknown,unknown
   131f4:	0f00                	addi	s0,sp,912
   131f6:	00000f0f          	0xf0f
   131fa:	0000                	unimp
   131fc:	0000                	unimp
   131fe:	0000000f          	fence	unknown,unknown
   13202:	0000                	unimp
   13204:	0f00                	addi	s0,sp,912
   13206:	00000f0f          	0xf0f
   1320a:	0000                	unimp
   1320c:	0000                	unimp
   1320e:	0000000f          	fence	unknown,unknown
   13212:	0000                	unimp
   13214:	0f00                	addi	s0,sp,912
   13216:	0f00                	addi	s0,sp,912
   13218:	0000                	unimp
   1321a:	0000                	unimp
   1321c:	0000000f          	fence	unknown,unknown
   13220:	0000000f          	fence	unknown,unknown
   13224:	0000                	unimp
   13226:	0000000f          	fence	unknown,unknown
   1322a:	0000                	unimp
   1322c:	0f00                	addi	s0,sp,912
   1322e:	000f0f0f          	0xf0f0f
   13232:	0000                	unimp
   13234:	0000                	unimp
   13236:	0000000f          	fence	unknown,unknown
   1323a:	0000                	unimp
   1323c:	0000                	unimp
   1323e:	0000                	unimp
   13240:	0000000f          	fence	unknown,unknown
   13244:	0000                	unimp
   13246:	0000000f          	fence	unknown,unknown
	...
   1325e:	00000f0f          	0xf0f
	...
   132e6:	0f00                	addi	s0,sp,912
	...
   13334:	0000                	unimp
   13336:	00000f0f          	0xf0f
   1333a:	0000                	unimp
   1333c:	0000                	unimp
   1333e:	0000                	unimp
   13340:	0000000f          	fence	unknown,unknown
   13344:	0f00                	addi	s0,sp,912
   13346:	0000000f          	fence	unknown,unknown
	...
   13352:	0000                	unimp
   13354:	0f0f0f0f          	0xf0f0f0f
   13358:	00000f0f          	0xf0f
   1335c:	0000                	unimp
   1335e:	00000f0f          	0xf0f
	...
   1336a:	0000                	unimp
   1336c:	0f00                	addi	s0,sp,912
	...
   1337e:	0000                	unimp
   13380:	0000000f          	fence	unknown,unknown
	...
   1338c:	0000                	unimp
   1338e:	0f00                	addi	s0,sp,912
   13390:	0000000f          	fence	unknown,unknown
	...
   1339c:	0f00                	addi	s0,sp,912
	...
   133a6:	0000000f          	fence	unknown,unknown
   133aa:	0000                	unimp
   133ac:	0000                	unimp
   133ae:	0f00                	addi	s0,sp,912
   133b0:	0000                	unimp
   133b2:	0000                	unimp
   133b4:	0f00                	addi	s0,sp,912
	...
   133be:	0000000f          	fence	unknown,unknown
	...
   133fe:	0000000f          	fence	unknown,unknown
	...
   13436:	0f00                	addi	s0,sp,912
   13438:	0000                	unimp
   1343a:	0000                	unimp
   1343c:	0000                	unimp
   1343e:	0000000f          	fence	unknown,unknown
   13442:	0000                	unimp
   13444:	0f00                	addi	s0,sp,912
   13446:	0000                	unimp
   13448:	0000                	unimp
   1344a:	0000                	unimp
   1344c:	0f00                	addi	s0,sp,912
   1344e:	000f000f          	0xf000f
   13452:	0000                	unimp
   13454:	0000                	unimp
   13456:	00000f0f          	0xf0f
   1345a:	0000                	unimp
   1345c:	0f00                	addi	s0,sp,912
	...
   1346a:	0000                	unimp
   1346c:	0f00                	addi	s0,sp,912
	...
   1347e:	0000                	unimp
   13480:	0000000f          	fence	unknown,unknown
	...
   1348c:	0000                	unimp
   1348e:	0000000f          	fence	unknown,unknown
	...
   1349a:	0000                	unimp
   1349c:	0f00                	addi	s0,sp,912
	...
   134b2:	0000                	unimp
   134b4:	0f00                	addi	s0,sp,912
	...
   134be:	0000000f          	fence	unknown,unknown
	...
   134fe:	0000000f          	fence	unknown,unknown
	...
   13536:	0000000f          	fence	unknown,unknown
   1353a:	0000                	unimp
   1353c:	0000                	unimp
   1353e:	0000000f          	fence	unknown,unknown
   13542:	0000                	unimp
   13544:	0000                	unimp
   13546:	0000000f          	fence	unknown,unknown
   1354a:	0000                	unimp
   1354c:	0f0f000f          	0xf0f000f
   13550:	0000                	unimp
   13552:	0000                	unimp
   13554:	0f00                	addi	s0,sp,912
   13556:	0000                	unimp
   13558:	0000000f          	fence	unknown,unknown
   1355c:	0f00                	addi	s0,sp,912
	...
   13566:	00000f0f          	0xf0f
   1356a:	0000                	unimp
   1356c:	0f00                	addi	s0,sp,912
   1356e:	00000f0f          	0xf0f
   13572:	0000                	unimp
   13574:	0000                	unimp
   13576:	00000f0f          	0xf0f
   1357a:	0000                	unimp
   1357c:	0000                	unimp
   1357e:	000f0f0f          	0xf0f0f
   13582:	0000                	unimp
   13584:	0000                	unimp
   13586:	00000f0f          	0xf0f
   1358a:	0000                	unimp
   1358c:	0f00                	addi	s0,sp,912
   1358e:	00000f0f          	0xf0f
   13592:	0000                	unimp
   13594:	0000                	unimp
   13596:	000f0f0f          	0xf0f0f
   1359a:	0000                	unimp
   1359c:	0f00                	addi	s0,sp,912
   1359e:	00000f0f          	0xf0f
   135a2:	0000                	unimp
   135a4:	0000                	unimp
   135a6:	0000000f          	fence	unknown,unknown
   135aa:	0000                	unimp
   135ac:	0000                	unimp
   135ae:	0f00                	addi	s0,sp,912
   135b0:	0000                	unimp
   135b2:	0000                	unimp
   135b4:	0f00                	addi	s0,sp,912
   135b6:	0000                	unimp
   135b8:	0000000f          	fence	unknown,unknown
   135bc:	0000                	unimp
   135be:	0000000f          	fence	unknown,unknown
   135c2:	0000                	unimp
   135c4:	0f000f0f          	0xf000f0f
   135c8:	0000                	unimp
   135ca:	0000                	unimp
   135cc:	0f00                	addi	s0,sp,912
   135ce:	00000f0f          	0xf0f
   135d2:	0000                	unimp
   135d4:	0000                	unimp
   135d6:	00000f0f          	0xf0f
   135da:	0000                	unimp
   135dc:	0f00                	addi	s0,sp,912
   135de:	00000f0f          	0xf0f
   135e2:	0000                	unimp
   135e4:	0000                	unimp
   135e6:	000f0f0f          	0xf0f0f
   135ea:	0000                	unimp
   135ec:	0f00                	addi	s0,sp,912
   135ee:	0f00                	addi	s0,sp,912
   135f0:	0000000f          	fence	unknown,unknown
   135f4:	0000                	unimp
   135f6:	000f0f0f          	0xf0f0f
   135fa:	0000                	unimp
   135fc:	0f00                	addi	s0,sp,912
   135fe:	00000f0f          	0xf0f
   13602:	0000                	unimp
   13604:	0f00                	addi	s0,sp,912
   13606:	0000                	unimp
   13608:	0000000f          	fence	unknown,unknown
   1360c:	0000000f          	fence	unknown,unknown
   13610:	0000000f          	fence	unknown,unknown
   13614:	0000000f          	fence	unknown,unknown
   13618:	0000000f          	fence	unknown,unknown
   1361c:	0000000f          	fence	unknown,unknown
   13620:	0000000f          	fence	unknown,unknown
   13624:	0000000f          	fence	unknown,unknown
   13628:	0000000f          	fence	unknown,unknown
   1362c:	0f00                	addi	s0,sp,912
   1362e:	000f0f0f          	0xf0f0f
   13632:	0000                	unimp
   13634:	0000                	unimp
   13636:	0000000f          	fence	unknown,unknown
   1363a:	0000                	unimp
   1363c:	0000                	unimp
   1363e:	0000000f          	fence	unknown,unknown
   13642:	0000                	unimp
   13644:	0000                	unimp
   13646:	0000000f          	fence	unknown,unknown
	...
   13652:	0000                	unimp
   13654:	0f0f000f          	0xf0f000f
   13658:	0f00                	addi	s0,sp,912
   1365a:	0000                	unimp
   1365c:	000f0f0f          	0xf0f0f
	...
   13668:	0000000f          	fence	unknown,unknown
   1366c:	0f00                	addi	s0,sp,912
   1366e:	0000                	unimp
   13670:	0000000f          	fence	unknown,unknown
   13674:	0f00                	addi	s0,sp,912
   13676:	0000                	unimp
   13678:	0000000f          	fence	unknown,unknown
   1367c:	0f00                	addi	s0,sp,912
   1367e:	0000                	unimp
   13680:	0000000f          	fence	unknown,unknown
   13684:	0f00                	addi	s0,sp,912
   13686:	0000                	unimp
   13688:	0000000f          	fence	unknown,unknown
   1368c:	0000                	unimp
   1368e:	0000000f          	fence	unknown,unknown
   13692:	0000                	unimp
   13694:	0f00                	addi	s0,sp,912
   13696:	0000                	unimp
   13698:	0000000f          	fence	unknown,unknown
   1369c:	0f00                	addi	s0,sp,912
   1369e:	0000                	unimp
   136a0:	0000000f          	fence	unknown,unknown
   136a4:	0000                	unimp
   136a6:	0000000f          	fence	unknown,unknown
   136aa:	0000                	unimp
   136ac:	0000                	unimp
   136ae:	0f00                	addi	s0,sp,912
   136b0:	0000                	unimp
   136b2:	0000                	unimp
   136b4:	0f00                	addi	s0,sp,912
   136b6:	0f00                	addi	s0,sp,912
   136b8:	0000                	unimp
   136ba:	0000                	unimp
   136bc:	0000                	unimp
   136be:	0000000f          	fence	unknown,unknown
   136c2:	0000                	unimp
   136c4:	000f000f          	0xf000f
   136c8:	0000000f          	fence	unknown,unknown
   136cc:	0f00                	addi	s0,sp,912
   136ce:	0000                	unimp
   136d0:	0000000f          	fence	unknown,unknown
   136d4:	0f00                	addi	s0,sp,912
   136d6:	0000                	unimp
   136d8:	0000000f          	fence	unknown,unknown
   136dc:	0f00                	addi	s0,sp,912
   136de:	0000                	unimp
   136e0:	0000000f          	fence	unknown,unknown
   136e4:	0f00                	addi	s0,sp,912
   136e6:	0000                	unimp
   136e8:	0000000f          	fence	unknown,unknown
   136ec:	0f00                	addi	s0,sp,912
   136ee:	0000000f          	fence	unknown,unknown
   136f2:	0000                	unimp
   136f4:	0f00                	addi	s0,sp,912
	...
   136fe:	0000000f          	fence	unknown,unknown
   13702:	0000                	unimp
   13704:	0f00                	addi	s0,sp,912
   13706:	0000                	unimp
   13708:	0000000f          	fence	unknown,unknown
   1370c:	0f00                	addi	s0,sp,912
   1370e:	0f00                	addi	s0,sp,912
   13710:	0000                	unimp
   13712:	0000                	unimp
   13714:	0000000f          	fence	unknown,unknown
   13718:	0000000f          	fence	unknown,unknown
   1371c:	0f00                	addi	s0,sp,912
   1371e:	0f00                	addi	s0,sp,912
   13720:	0000                	unimp
   13722:	0000                	unimp
   13724:	0f00                	addi	s0,sp,912
   13726:	0f00                	addi	s0,sp,912
   13728:	0000                	unimp
   1372a:	0000                	unimp
   1372c:	0000                	unimp
   1372e:	0f00                	addi	s0,sp,912
   13730:	0000                	unimp
   13732:	0000                	unimp
   13734:	0f00                	addi	s0,sp,912
	...
   13746:	0f00                	addi	s0,sp,912
	...
   13754:	00000f0f          	0xf0f
   13758:	0f00                	addi	s0,sp,912
   1375a:	0000                	unimp
   1375c:	0f00                	addi	s0,sp,912
	...
   13766:	000f0f0f          	0xf0f0f
   1376a:	0000                	unimp
   1376c:	0f00                	addi	s0,sp,912
   1376e:	0000                	unimp
   13770:	0000000f          	fence	unknown,unknown
   13774:	0f00                	addi	s0,sp,912
   13776:	0000                	unimp
   13778:	0000                	unimp
   1377a:	0000                	unimp
   1377c:	0f00                	addi	s0,sp,912
   1377e:	0000                	unimp
   13780:	0000000f          	fence	unknown,unknown
   13784:	0f00                	addi	s0,sp,912
   13786:	000f0f0f          	0xf0f0f
   1378a:	0000                	unimp
   1378c:	0000                	unimp
   1378e:	0000000f          	fence	unknown,unknown
   13792:	0000                	unimp
   13794:	0f00                	addi	s0,sp,912
   13796:	0000                	unimp
   13798:	0000000f          	fence	unknown,unknown
   1379c:	0f00                	addi	s0,sp,912
   1379e:	0000                	unimp
   137a0:	0000000f          	fence	unknown,unknown
   137a4:	0000                	unimp
   137a6:	0000000f          	fence	unknown,unknown
   137aa:	0000                	unimp
   137ac:	0000                	unimp
   137ae:	0f00                	addi	s0,sp,912
   137b0:	0000                	unimp
   137b2:	0000                	unimp
   137b4:	0f00                	addi	s0,sp,912
   137b6:	0000000f          	fence	unknown,unknown
   137ba:	0000                	unimp
   137bc:	0000                	unimp
   137be:	0000000f          	fence	unknown,unknown
   137c2:	0000                	unimp
   137c4:	000f000f          	0xf000f
   137c8:	0000000f          	fence	unknown,unknown
   137cc:	0f00                	addi	s0,sp,912
   137ce:	0000                	unimp
   137d0:	0000000f          	fence	unknown,unknown
   137d4:	0f00                	addi	s0,sp,912
   137d6:	0000                	unimp
   137d8:	0000000f          	fence	unknown,unknown
   137dc:	0f00                	addi	s0,sp,912
   137de:	0000                	unimp
   137e0:	0000000f          	fence	unknown,unknown
   137e4:	0f00                	addi	s0,sp,912
   137e6:	0000                	unimp
   137e8:	0000000f          	fence	unknown,unknown
   137ec:	0f00                	addi	s0,sp,912
	...
   137f6:	00000f0f          	0xf0f
   137fa:	0000                	unimp
   137fc:	0000                	unimp
   137fe:	0000000f          	fence	unknown,unknown
   13802:	0000                	unimp
   13804:	0f00                	addi	s0,sp,912
   13806:	0000                	unimp
   13808:	0000000f          	fence	unknown,unknown
   1380c:	0f00                	addi	s0,sp,912
   1380e:	0f00                	addi	s0,sp,912
   13810:	0000                	unimp
   13812:	0000                	unimp
   13814:	000f000f          	0xf000f
   13818:	0000000f          	fence	unknown,unknown
   1381c:	0000                	unimp
   1381e:	0000000f          	fence	unknown,unknown
   13822:	0000                	unimp
   13824:	0f00                	addi	s0,sp,912
   13826:	0f00                	addi	s0,sp,912
   13828:	0000                	unimp
   1382a:	0000                	unimp
   1382c:	0000                	unimp
   1382e:	0000000f          	fence	unknown,unknown
   13832:	0000                	unimp
   13834:	0000                	unimp
   13836:	0000000f          	fence	unknown,unknown
	...
   13846:	0000000f          	fence	unknown,unknown
	...
   13852:	0000                	unimp
   13854:	00000f0f          	0xf0f
   13858:	0f00                	addi	s0,sp,912
   1385a:	0000                	unimp
   1385c:	0f00                	addi	s0,sp,912
   1385e:	0000                	unimp
   13860:	0000000f          	fence	unknown,unknown
   13864:	0f00                	addi	s0,sp,912
   13866:	0000                	unimp
   13868:	0000000f          	fence	unknown,unknown
   1386c:	0f00                	addi	s0,sp,912
   1386e:	0000                	unimp
   13870:	0000000f          	fence	unknown,unknown
   13874:	0f00                	addi	s0,sp,912
   13876:	0000                	unimp
   13878:	0000000f          	fence	unknown,unknown
   1387c:	0f00                	addi	s0,sp,912
   1387e:	0000                	unimp
   13880:	0000000f          	fence	unknown,unknown
   13884:	0f00                	addi	s0,sp,912
	...
   1388e:	0000000f          	fence	unknown,unknown
   13892:	0000                	unimp
   13894:	0000                	unimp
   13896:	000f0f0f          	0xf0f0f
   1389a:	0000                	unimp
   1389c:	0f00                	addi	s0,sp,912
   1389e:	0000                	unimp
   138a0:	0000000f          	fence	unknown,unknown
   138a4:	0000                	unimp
   138a6:	0000000f          	fence	unknown,unknown
   138aa:	0000                	unimp
   138ac:	0000                	unimp
   138ae:	0f00                	addi	s0,sp,912
   138b0:	0000                	unimp
   138b2:	0000                	unimp
   138b4:	0f00                	addi	s0,sp,912
   138b6:	0f00                	addi	s0,sp,912
   138b8:	0000                	unimp
   138ba:	0000                	unimp
   138bc:	0000                	unimp
   138be:	0000000f          	fence	unknown,unknown
   138c2:	0000                	unimp
   138c4:	000f000f          	0xf000f
   138c8:	0000000f          	fence	unknown,unknown
   138cc:	0f00                	addi	s0,sp,912
   138ce:	0000                	unimp
   138d0:	0000000f          	fence	unknown,unknown
   138d4:	0f00                	addi	s0,sp,912
   138d6:	0000                	unimp
   138d8:	0000000f          	fence	unknown,unknown
   138dc:	0f00                	addi	s0,sp,912
   138de:	00000f0f          	0xf0f
   138e2:	0000                	unimp
   138e4:	0000                	unimp
   138e6:	000f0f0f          	0xf0f0f
   138ea:	0000                	unimp
   138ec:	0f00                	addi	s0,sp,912
	...
   138f6:	0000                	unimp
   138f8:	0000000f          	fence	unknown,unknown
   138fc:	0000                	unimp
   138fe:	0000000f          	fence	unknown,unknown
   13902:	0000                	unimp
   13904:	0f00                	addi	s0,sp,912
   13906:	0000                	unimp
   13908:	0000000f          	fence	unknown,unknown
   1390c:	0000                	unimp
   1390e:	0000000f          	fence	unknown,unknown
   13912:	0000                	unimp
   13914:	0f00                	addi	s0,sp,912
   13916:	0f00                	addi	s0,sp,912
   13918:	0000                	unimp
   1391a:	0000                	unimp
   1391c:	0f00                	addi	s0,sp,912
   1391e:	0f00                	addi	s0,sp,912
   13920:	0000                	unimp
   13922:	0000                	unimp
   13924:	0000                	unimp
   13926:	0000000f          	fence	unknown,unknown
   1392a:	0000                	unimp
   1392c:	0f00                	addi	s0,sp,912
	...
   13936:	0000000f          	fence	unknown,unknown
   1393a:	0000                	unimp
   1393c:	0000                	unimp
   1393e:	0000000f          	fence	unknown,unknown
   13942:	0000                	unimp
   13944:	0000                	unimp
   13946:	0000000f          	fence	unknown,unknown
	...
   13952:	0000                	unimp
   13954:	0f0f000f          	0xf0f000f
   13958:	0f00                	addi	s0,sp,912
   1395a:	0000                	unimp
   1395c:	0f0f0f0f          	0xf0f0f0f
   13960:	0000                	unimp
   13962:	0000                	unimp
   13964:	0000                	unimp
   13966:	000f0f0f          	0xf0f0f
   1396a:	0000                	unimp
   1396c:	0f00                	addi	s0,sp,912
   1396e:	00000f0f          	0xf0f
   13972:	0000                	unimp
   13974:	0000                	unimp
   13976:	00000f0f          	0xf0f
   1397a:	0000                	unimp
   1397c:	0000                	unimp
   1397e:	000f0f0f          	0xf0f0f
   13982:	0000                	unimp
   13984:	0000                	unimp
   13986:	00000f0f          	0xf0f
   1398a:	0000                	unimp
   1398c:	0000                	unimp
   1398e:	0000000f          	fence	unknown,unknown
   13992:	0000                	unimp
   13994:	0000                	unimp
   13996:	0000                	unimp
   13998:	0000000f          	fence	unknown,unknown
   1399c:	0f00                	addi	s0,sp,912
   1399e:	0000                	unimp
   139a0:	0000000f          	fence	unknown,unknown
   139a4:	0000                	unimp
   139a6:	0000000f          	fence	unknown,unknown
   139aa:	0000                	unimp
   139ac:	0000                	unimp
   139ae:	0f00                	addi	s0,sp,912
   139b0:	0000                	unimp
   139b2:	0000                	unimp
   139b4:	0f00                	addi	s0,sp,912
   139b6:	0000                	unimp
   139b8:	0000000f          	fence	unknown,unknown
   139bc:	0000                	unimp
   139be:	0f00                	addi	s0,sp,912
   139c0:	0000                	unimp
   139c2:	0000                	unimp
   139c4:	000f000f          	0xf000f
   139c8:	0000000f          	fence	unknown,unknown
   139cc:	0f00                	addi	s0,sp,912
   139ce:	0000                	unimp
   139d0:	0000000f          	fence	unknown,unknown
   139d4:	0000                	unimp
   139d6:	00000f0f          	0xf0f
   139da:	0000                	unimp
   139dc:	0f00                	addi	s0,sp,912
	...
   139e6:	0000                	unimp
   139e8:	0000000f          	fence	unknown,unknown
   139ec:	0f00                	addi	s0,sp,912
   139ee:	0000                	unimp
   139f0:	0000                	unimp
   139f2:	0000                	unimp
   139f4:	0f00                	addi	s0,sp,912
   139f6:	00000f0f          	0xf0f
   139fa:	0000                	unimp
   139fc:	0000                	unimp
   139fe:	0f00                	addi	s0,sp,912
   13a00:	0000                	unimp
   13a02:	0000                	unimp
   13a04:	0000                	unimp
   13a06:	00000f0f          	0xf0f
   13a0a:	0000                	unimp
   13a0c:	0000                	unimp
   13a0e:	0000000f          	fence	unknown,unknown
   13a12:	0000                	unimp
   13a14:	0f00                	addi	s0,sp,912
   13a16:	0f00                	addi	s0,sp,912
   13a18:	0000                	unimp
   13a1a:	0000                	unimp
   13a1c:	0000000f          	fence	unknown,unknown
   13a20:	0000000f          	fence	unknown,unknown
   13a24:	0000                	unimp
   13a26:	0000000f          	fence	unknown,unknown
   13a2a:	0000                	unimp
   13a2c:	0f00                	addi	s0,sp,912
   13a2e:	000f0f0f          	0xf0f0f
   13a32:	0000                	unimp
   13a34:	0000                	unimp
   13a36:	0000000f          	fence	unknown,unknown
   13a3a:	0000                	unimp
   13a3c:	0000                	unimp
   13a3e:	0000000f          	fence	unknown,unknown
   13a42:	0000                	unimp
   13a44:	0000                	unimp
   13a46:	0000000f          	fence	unknown,unknown
	...
   13a52:	0000                	unimp
   13a54:	0f00                	addi	s0,sp,912
   13a56:	0000                	unimp
   13a58:	0000000f          	fence	unknown,unknown
	...
   13a94:	0000                	unimp
   13a96:	00000f0f          	0xf0f
	...
   13aaa:	0000                	unimp
   13aac:	0f00                	addi	s0,sp,912
   13aae:	0000000f          	fence	unknown,unknown
	...
   13ada:	0000                	unimp
   13adc:	0f00                	addi	s0,sp,912
	...
   13ae6:	0000                	unimp
   13ae8:	0000000f          	fence	unknown,unknown
	...
   13b24:	00000f0f          	0xf0f
	...
   13b34:	0000                	unimp
   13b36:	0f00                	addi	s0,sp,912
   13b38:	0000                	unimp
   13b3a:	0000                	unimp
   13b3c:	0000                	unimp
   13b3e:	0000000f          	fence	unknown,unknown
   13b42:	0000                	unimp
   13b44:	0f00                	addi	s0,sp,912
	...
   13b56:	00000f0f          	0xf0f
	...

00013b5c <__clz_tab>:
const UQItype __clz_tab[256] =
   13b5c:	0100                	addi	s0,sp,128
   13b5e:	0202                	c.slli64	tp
   13b60:	03030303          	lb	t1,48(t1) # ffff9030 <__BSS_END__+0xfffe41e4>
   13b64:	0404                	addi	s1,sp,512
   13b66:	0404                	addi	s1,sp,512
   13b68:	0404                	addi	s1,sp,512
   13b6a:	0404                	addi	s1,sp,512
   13b6c:	0505                	addi	a0,a0,1
   13b6e:	0505                	addi	a0,a0,1
   13b70:	0505                	addi	a0,a0,1
   13b72:	0505                	addi	a0,a0,1
   13b74:	0505                	addi	a0,a0,1
   13b76:	0505                	addi	a0,a0,1
   13b78:	0505                	addi	a0,a0,1
   13b7a:	0505                	addi	a0,a0,1
   13b7c:	0606                	slli	a2,a2,0x1
   13b7e:	0606                	slli	a2,a2,0x1
   13b80:	0606                	slli	a2,a2,0x1
   13b82:	0606                	slli	a2,a2,0x1
   13b84:	0606                	slli	a2,a2,0x1
   13b86:	0606                	slli	a2,a2,0x1
   13b88:	0606                	slli	a2,a2,0x1
   13b8a:	0606                	slli	a2,a2,0x1
   13b8c:	0606                	slli	a2,a2,0x1
   13b8e:	0606                	slli	a2,a2,0x1
   13b90:	0606                	slli	a2,a2,0x1
   13b92:	0606                	slli	a2,a2,0x1
   13b94:	0606                	slli	a2,a2,0x1
   13b96:	0606                	slli	a2,a2,0x1
   13b98:	0606                	slli	a2,a2,0x1
   13b9a:	0606                	slli	a2,a2,0x1
   13b9c:	07070707          	0x7070707
   13ba0:	07070707          	0x7070707
   13ba4:	07070707          	0x7070707
   13ba8:	07070707          	0x7070707
   13bac:	07070707          	0x7070707
   13bb0:	07070707          	0x7070707
   13bb4:	07070707          	0x7070707
   13bb8:	07070707          	0x7070707
   13bbc:	07070707          	0x7070707
   13bc0:	07070707          	0x7070707
   13bc4:	07070707          	0x7070707
   13bc8:	07070707          	0x7070707
   13bcc:	07070707          	0x7070707
   13bd0:	07070707          	0x7070707
   13bd4:	07070707          	0x7070707
   13bd8:	07070707          	0x7070707
   13bdc:	0808                	addi	a0,sp,16
   13bde:	0808                	addi	a0,sp,16
   13be0:	0808                	addi	a0,sp,16
   13be2:	0808                	addi	a0,sp,16
   13be4:	0808                	addi	a0,sp,16
   13be6:	0808                	addi	a0,sp,16
   13be8:	0808                	addi	a0,sp,16
   13bea:	0808                	addi	a0,sp,16
   13bec:	0808                	addi	a0,sp,16
   13bee:	0808                	addi	a0,sp,16
   13bf0:	0808                	addi	a0,sp,16
   13bf2:	0808                	addi	a0,sp,16
   13bf4:	0808                	addi	a0,sp,16
   13bf6:	0808                	addi	a0,sp,16
   13bf8:	0808                	addi	a0,sp,16
   13bfa:	0808                	addi	a0,sp,16
   13bfc:	0808                	addi	a0,sp,16
   13bfe:	0808                	addi	a0,sp,16
   13c00:	0808                	addi	a0,sp,16
   13c02:	0808                	addi	a0,sp,16
   13c04:	0808                	addi	a0,sp,16
   13c06:	0808                	addi	a0,sp,16
   13c08:	0808                	addi	a0,sp,16
   13c0a:	0808                	addi	a0,sp,16
   13c0c:	0808                	addi	a0,sp,16
   13c0e:	0808                	addi	a0,sp,16
   13c10:	0808                	addi	a0,sp,16
   13c12:	0808                	addi	a0,sp,16
   13c14:	0808                	addi	a0,sp,16
   13c16:	0808                	addi	a0,sp,16
   13c18:	0808                	addi	a0,sp,16
   13c1a:	0808                	addi	a0,sp,16
   13c1c:	0808                	addi	a0,sp,16
   13c1e:	0808                	addi	a0,sp,16
   13c20:	0808                	addi	a0,sp,16
   13c22:	0808                	addi	a0,sp,16
   13c24:	0808                	addi	a0,sp,16
   13c26:	0808                	addi	a0,sp,16
   13c28:	0808                	addi	a0,sp,16
   13c2a:	0808                	addi	a0,sp,16
   13c2c:	0808                	addi	a0,sp,16
   13c2e:	0808                	addi	a0,sp,16
   13c30:	0808                	addi	a0,sp,16
   13c32:	0808                	addi	a0,sp,16
   13c34:	0808                	addi	a0,sp,16
   13c36:	0808                	addi	a0,sp,16
   13c38:	0808                	addi	a0,sp,16
   13c3a:	0808                	addi	a0,sp,16
   13c3c:	0808                	addi	a0,sp,16
   13c3e:	0808                	addi	a0,sp,16
   13c40:	0808                	addi	a0,sp,16
   13c42:	0808                	addi	a0,sp,16
   13c44:	0808                	addi	a0,sp,16
   13c46:	0808                	addi	a0,sp,16
   13c48:	0808                	addi	a0,sp,16
   13c4a:	0808                	addi	a0,sp,16
   13c4c:	0808                	addi	a0,sp,16
   13c4e:	0808                	addi	a0,sp,16
   13c50:	0808                	addi	a0,sp,16
   13c52:	0808                	addi	a0,sp,16
   13c54:	0808                	addi	a0,sp,16
   13c56:	0808                	addi	a0,sp,16
   13c58:	0808                	addi	a0,sp,16
   13c5a:	0808                	addi	a0,sp,16

Disassembly of section .eh_frame:

00014000 <__EH_FRAME_BEGIN__>:
   14000:	0010                	0x10
   14002:	0000                	unimp
   14004:	0000                	unimp
   14006:	0000                	unimp
   14008:	00527a03          	0x527a03
   1400c:	7c01                	lui	s8,0xfffe0
   1400e:	0101                	addi	sp,sp,0
   14010:	00020d1b          	0x20d1b
   14014:	0030                	addi	a2,sp,8
   14016:	0000                	unimp
   14018:	0018                	0x18
   1401a:	0000                	unimp
   1401c:	c058                	sw	a4,4(s0)
   1401e:	ffff                	0xffff
   14020:	0450                	addi	a2,sp,516
   14022:	0000                	unimp
   14024:	4400                	lw	s0,8(s0)
   14026:	800e                	c.mv	zero,gp
   14028:	0896440b          	0x896440b
   1402c:	817c                	0x817c
   1402e:	8901                	andi	a0,a0,0
   14030:	93049203          	lh	tp,-1744(s1)
   14034:	9405                	srai	s0,s0,0x21
   14036:	9506                	add	a0,a0,ra
   14038:	98099707          	0x98099707
   1403c:	990a                	add	s2,s2,sp
   1403e:	9b0c9a0b          	0x9b0c9a0b
   14042:	880d                	andi	s0,s0,3
   14044:	0002                	c.slli64	zero
   14046:	0000                	unimp
   14048:	0010                	0x10
   1404a:	0000                	unimp
   1404c:	004c                	addi	a1,sp,4
   1404e:	0000                	unimp
   14050:	c53c                	sw	a5,72(a0)
   14052:	ffff                	0xffff
   14054:	0014                	0x14
   14056:	0000                	unimp
   14058:	0000                	unimp
   1405a:	0000                	unimp
   1405c:	0018                	0x18
   1405e:	0000                	unimp
   14060:	0060                	addi	s0,sp,12
   14062:	0000                	unimp
   14064:	c53c                	sw	a5,72(a0)
   14066:	ffff                	0xffff
   14068:	0024                	addi	s1,sp,8
   1406a:	0000                	unimp
   1406c:	4800                	lw	s0,16(s0)
   1406e:	100e                	c.slli	zero,0x23
   14070:	814c                	0x814c
   14072:	4801                	li	a6,0
   14074:	44c1                	li	s1,16
   14076:	000e                	c.slli	zero,0x3
   14078:	0010                	0x10
   1407a:	0000                	unimp
   1407c:	007c                	addi	a5,sp,12
   1407e:	0000                	unimp
   14080:	c544                	sw	s1,12(a0)
   14082:	ffff                	0xffff
   14084:	0044                	addi	s1,sp,4
   14086:	0000                	unimp
   14088:	0000                	unimp
   1408a:	0000                	unimp
   1408c:	0010                	0x10
   1408e:	0000                	unimp
   14090:	0090                	addi	a2,sp,64
   14092:	0000                	unimp
   14094:	c574                	sw	a3,76(a0)
   14096:	ffff                	0xffff
   14098:	0018                	0x18
   1409a:	0000                	unimp
   1409c:	0000                	unimp
   1409e:	0000                	unimp
   140a0:	0010                	0x10
   140a2:	0000                	unimp
   140a4:	00a4                	addi	s1,sp,72
   140a6:	0000                	unimp
   140a8:	c578                	sw	a4,76(a0)
   140aa:	ffff                	0xffff
   140ac:	0024                	addi	s1,sp,8
   140ae:	0000                	unimp
   140b0:	0000                	unimp
   140b2:	0000                	unimp
   140b4:	0010                	0x10
   140b6:	0000                	unimp
   140b8:	00b8                	addi	a4,sp,72
   140ba:	0000                	unimp
   140bc:	c588                	sw	a0,8(a1)
   140be:	ffff                	0xffff
   140c0:	003c                	addi	a5,sp,8
   140c2:	0000                	unimp
   140c4:	0000                	unimp
   140c6:	0000                	unimp
   140c8:	001c                	0x1c
   140ca:	0000                	unimp
   140cc:	00cc                	addi	a1,sp,68
   140ce:	0000                	unimp
   140d0:	c5b0                	sw	a2,72(a1)
   140d2:	ffff                	0xffff
   140d4:	0080                	addi	s0,sp,64
   140d6:	0000                	unimp
   140d8:	4400                	lw	s0,8(s0)
   140da:	100e                	c.slli	zero,0x23
   140dc:	8144                	0x8144
   140de:	0201                	addi	tp,tp,0
   140e0:	c170                	sw	a2,68(a0)
   140e2:	0e44                	addi	s1,sp,788
   140e4:	0000                	unimp
   140e6:	0000                	unimp
   140e8:	0010                	0x10
   140ea:	0000                	unimp
   140ec:	00ec                	addi	a1,sp,76
   140ee:	0000                	unimp
   140f0:	c610                	sw	a2,8(a2)
   140f2:	ffff                	0xffff
   140f4:	0014                	0x14
   140f6:	0000                	unimp
   140f8:	0000                	unimp
   140fa:	0000                	unimp
   140fc:	0010                	0x10
   140fe:	0000                	unimp
   14100:	0100                	addi	s0,sp,128
   14102:	0000                	unimp
   14104:	c610                	sw	a2,8(a2)
   14106:	ffff                	0xffff
   14108:	0048                	addi	a0,sp,4
   1410a:	0000                	unimp
   1410c:	0000                	unimp
   1410e:	0000                	unimp
   14110:	0044                	addi	s1,sp,4
   14112:	0000                	unimp
   14114:	0114                	addi	a3,sp,128
   14116:	0000                	unimp
   14118:	c644                	sw	s1,12(a2)
   1411a:	ffff                	0xffff
   1411c:	00ec                	addi	a1,sp,76
   1411e:	0000                	unimp
   14120:	4c00                	lw	s0,24(s0)
   14122:	200e                	fld	ft0,192(sp)
   14124:	8860                	0x8860
   14126:	8902                	jr	s2
   14128:	93049203          	lh	tp,-1744(s1)
   1412c:	9405                	srai	s0,s0,0x21
   1412e:	9506                	add	a0,a0,ra
   14130:	81089607          	0x81089607
   14134:	0201                	addi	tp,tp,0
   14136:	0a68                	addi	a0,sp,284
   14138:	44c1                	li	s1,16
   1413a:	44c8                	lw	a0,12(s1)
   1413c:	44c9                	li	s1,18
   1413e:	44d2                	lw	s1,20(sp)
   14140:	44d444d3          	0x44d444d3
   14144:	44d5                	li	s1,21
   14146:	44d6                	lw	s1,84(sp)
   14148:	000e                	c.slli	zero,0x3
   1414a:	0b44                	addi	s1,sp,404
   1414c:	0e70                	addi	a2,sp,796
   1414e:	c100                	sw	s0,0(a0)
   14150:	c9c8                	sw	a0,20(a1)
   14152:	d3d2                	sw	s4,228(sp)
   14154:	d5d4                	sw	a3,44(a1)
   14156:	00d6                	slli	ra,ra,0x15
   14158:	0020                	addi	s0,sp,8
   1415a:	0000                	unimp
   1415c:	015c                	addi	a5,sp,132
   1415e:	0000                	unimp
   14160:	c6e8                	sw	a0,76(a3)
   14162:	ffff                	0xffff
   14164:	03cc                	addi	a1,sp,452
   14166:	0000                	unimp
   14168:	7800                	flw	fs0,48(s0)
   1416a:	300e                	fld	ft0,224(sp)
   1416c:	814c                	0x814c
   1416e:	0301                	addi	t1,t1,0
   14170:	0190                	addi	a2,sp,192
   14172:	c10a                	sw	sp,128(sp)
   14174:	0e44                	addi	s1,sp,788
   14176:	4400                	lw	s0,8(s0)
   14178:	0000000b          	0xb
   1417c:	001c                	0x1c
   1417e:	0000                	unimp
   14180:	0180                	addi	s0,sp,192
   14182:	0000                	unimp
   14184:	ca90                	sw	a2,16(a3)
   14186:	ffff                	0xffff
   14188:	0190                	addi	a2,sp,192
   1418a:	0000                	unimp
   1418c:	0200                	addi	s0,sp,256
   1418e:	0e40                	addi	s0,sp,788
   14190:	7030                	flw	fa2,96(s0)
   14192:	0181                	addi	gp,gp,0
   14194:	c1011803          	lh	a6,-1008(sp)
   14198:	0e44                	addi	s1,sp,788
   1419a:	0000                	unimp
   1419c:	001c                	0x1c
   1419e:	0000                	unimp
   141a0:	01a0                	addi	s0,sp,200
   141a2:	0000                	unimp
   141a4:	cc00                	sw	s0,24(s0)
   141a6:	ffff                	0xffff
   141a8:	0098                	addi	a4,sp,64
   141aa:	0000                	unimp
   141ac:	7c00                	flw	fs0,56(s0)
   141ae:	300e                	fld	ft0,224(sp)
   141b0:	814c                	0x814c
   141b2:	0201                	addi	tp,tp,0
   141b4:	c148                	sw	a0,4(a0)
   141b6:	0e44                	addi	s1,sp,788
   141b8:	0000                	unimp
   141ba:	0000                	unimp
   141bc:	0024                	addi	s1,sp,8
   141be:	0000                	unimp
   141c0:	01c0                	addi	s0,sp,196
   141c2:	0000                	unimp
   141c4:	cc78                	sw	a4,92(s0)
   141c6:	ffff                	0xffff
   141c8:	0058                	addi	a4,sp,4
   141ca:	0000                	unimp
   141cc:	4400                	lw	s0,8(s0)
   141ce:	100e                	c.slli	zero,0x23
   141d0:	8850                	0x8850
   141d2:	8902                	jr	s2
   141d4:	81049203          	lh	tp,-2032(s1)
   141d8:	7001                	c.lui	zero,0xfffe0
   141da:	44c1                	li	s1,16
   141dc:	44c8                	lw	a0,12(s1)
   141de:	44c9                	li	s1,18
   141e0:	44d2                	lw	s1,20(sp)
   141e2:	000e                	c.slli	zero,0x3
   141e4:	0010                	0x10
   141e6:	0000                	unimp
   141e8:	01e8                	addi	a0,sp,204
   141ea:	0000                	unimp
   141ec:	cca8                	sw	a0,88(s1)
   141ee:	ffff                	0xffff
   141f0:	00ec                	addi	a1,sp,76
   141f2:	0000                	unimp
   141f4:	0000                	unimp
   141f6:	0000                	unimp
   141f8:	0010                	0x10
   141fa:	0000                	unimp
   141fc:	01fc                	addi	a5,sp,204
   141fe:	0000                	unimp
   14200:	cd80                	sw	s0,24(a1)
   14202:	ffff                	0xffff
   14204:	0028                	addi	a0,sp,8
   14206:	0000                	unimp
   14208:	0000                	unimp
   1420a:	0000                	unimp
   1420c:	0048                	addi	a0,sp,4
   1420e:	0000                	unimp
   14210:	0210                	addi	a2,sp,256
   14212:	0000                	unimp
   14214:	cd94                	sw	a3,24(a1)
   14216:	ffff                	0xffff
   14218:	0278                	addi	a4,sp,268
   1421a:	0000                	unimp
   1421c:	6c00                	flw	fs0,24(s0)
   1421e:	400e                	0x400e
   14220:	9550                	0x9550
   14222:	7806                	flw	fa6,96(sp)
   14224:	0796                	slli	a5,a5,0x5
   14226:	0188                	addi	a0,sp,192
   14228:	0289                	addi	t0,t0,2
   1422a:	0392                	slli	t2,t2,0x4
   1422c:	05940493          	addi	s1,s0,89 # ffffe059 <__BSS_END__+0xfffe920d>
   14230:	09980897          	auipc	a7,0x9980
   14234:	0a99                	addi	s5,s5,6
   14236:	0b9a                	slli	s7,s7,0x6
   14238:	cc030c9b          	0xcc030c9b
   1423c:	c801                	beqz	s0,1424c <__EH_FRAME_BEGIN__+0x24c>
   1423e:	c944                	sw	s1,20(a0)
   14240:	d244                	sw	s1,36(a2)
   14242:	d344                	sw	s1,36(a4)
   14244:	d444                	sw	s1,44(s0)
   14246:	d544                	sw	s1,44(a0)
   14248:	d644                	sw	s1,44(a2)
   1424a:	d744                	sw	s1,44(a4)
   1424c:	d844                	sw	s1,52(s0)
   1424e:	d944                	sw	s1,52(a0)
   14250:	da44                	sw	s1,52(a2)
   14252:	db44                	sw	s1,52(a4)
   14254:	0e44                	addi	s1,sp,788
   14256:	0000                	unimp
   14258:	0010                	0x10
   1425a:	0000                	unimp
   1425c:	025c                	addi	a5,sp,260
   1425e:	0000                	unimp
   14260:	cfc0                	sw	s0,28(a5)
   14262:	ffff                	0xffff
   14264:	022c                	addi	a1,sp,264
   14266:	0000                	unimp
   14268:	0000                	unimp
   1426a:	0000                	unimp
   1426c:	0024                	addi	s1,sp,8
   1426e:	0000                	unimp
   14270:	0270                	addi	a2,sp,268
   14272:	0000                	unimp
   14274:	d1d8                	sw	a4,36(a1)
   14276:	ffff                	0xffff
   14278:	0360                	addi	s0,sp,396
   1427a:	0000                	unimp
   1427c:	7800                	flw	fs0,48(s0)
   1427e:	300e                	fld	ft0,224(sp)
   14280:	8150                	0x8150
   14282:	8801                	andi	s0,s0,0
   14284:	0302                	c.slli64	t1
   14286:	0148                	addi	a0,sp,132
   14288:	c10a                	sw	sp,128(sp)
   1428a:	c848                	sw	a0,20(s0)
   1428c:	0e44                	addi	s1,sp,788
   1428e:	4400                	lw	s0,8(s0)
   14290:	0000000b          	0xb
   14294:	0034                	addi	a3,sp,8
   14296:	0000                	unimp
   14298:	0298                	addi	a4,sp,320
   1429a:	0000                	unimp
   1429c:	d510                	sw	a2,40(a0)
   1429e:	ffff                	0xffff
   142a0:	00ac                	addi	a1,sp,72
   142a2:	0000                	unimp
   142a4:	4400                	lw	s0,8(s0)
   142a6:	100e                	c.slli	zero,0x23
   142a8:	924c                	0x924c
   142aa:	5404                	lw	s1,40(s0)
   142ac:	0389                	addi	t2,t2,2
   142ae:	8150                	0x8150
   142b0:	8801                	andi	s0,s0,0
   142b2:	4c02                	lw	s8,0(sp)
   142b4:	c10a                	sw	sp,128(sp)
   142b6:	c844                	sw	s1,20(s0)
   142b8:	c944                	sw	s1,20(a0)
   142ba:	d244                	sw	s1,36(a2)
   142bc:	0e48                	addi	a0,sp,788
   142be:	4400                	lw	s0,8(s0)
   142c0:	44c1780b          	0x44c1780b
   142c4:	48c8                	lw	a0,20(s1)
   142c6:	44d2                	lw	s1,20(sp)
   142c8:	48c9                	li	a7,18
   142ca:	000e                	c.slli	zero,0x3
   142cc:	0010                	0x10
   142ce:	0000                	unimp
   142d0:	02d0                	addi	a2,sp,324
   142d2:	0000                	unimp
   142d4:	d584                	sw	s1,40(a1)
   142d6:	ffff                	0xffff
   142d8:	002c                	addi	a1,sp,8
   142da:	0000                	unimp
   142dc:	0000                	unimp
   142de:	0000                	unimp
   142e0:	0010                	0x10
   142e2:	0000                	unimp
   142e4:	02e4                	addi	s1,sp,332
   142e6:	0000                	unimp
   142e8:	d59c                	sw	a5,40(a1)
   142ea:	ffff                	0xffff
   142ec:	0430                	addi	a2,sp,520
   142ee:	0000                	unimp
   142f0:	0000                	unimp
	...

000142f4 <__FRAME_END__>:
   142f4:	0000                	unimp
	...

Disassembly of section .init_array:

000142f8 <__init_array_start>:
   142f8:	04c4                	addi	s1,sp,580
   142fa:	0001                	nop

000142fc <__frame_dummy_init_array_entry>:
   142fc:	056c                	addi	a1,sp,652
   142fe:	0001                	nop

Disassembly of section .fini_array:

00014300 <__do_global_dtors_aux_fini_array_entry>:
   14300:	0528                	addi	a0,sp,648
   14302:	0001                	nop

Disassembly of section .data:

00014308 <keyboardringbuffer>:
   14308:	0200                	addi	s0,sp,256
   1430a:	8000                	0x8000

0001430c <GPUCTL>:
   1430c:	0000                	unimp
   1430e:	8104                	0x8104

00014310 <GPUFBWORD>:
   14310:	0000                	unimp
   14312:	8100                	0x8100

00014314 <m_readOffset>:
   14314:	0600                	addi	s0,sp,768
   14316:	8000                	0x8000

00014318 <m_writeOffset>:
   14318:	0604                	addi	s1,sp,768
   1431a:	8000                	0x8000

0001431c <scantoasciitable_lowercase>:
   1431c:	2020                	fld	fs0,64(s0)
   1431e:	2020                	fld	fs0,64(s0)
   14320:	2020                	fld	fs0,64(s0)
   14322:	2020                	fld	fs0,64(s0)
   14324:	2020                	fld	fs0,64(s0)
   14326:	2020                	fld	fs0,64(s0)
   14328:	0b20                	addi	s0,sp,408
   1432a:	2060                	fld	fs0,192(s0)
   1432c:	2020                	fld	fs0,64(s0)
   1432e:	2020                	fld	fs0,64(s0)
   14330:	7120                	flw	fs0,96(a0)
   14332:	2031                	jal	1433e <scantoasciitable_lowercase+0x22>
   14334:	2020                	fld	fs0,64(s0)
   14336:	737a                	flw	ft6,188(sp)
   14338:	7761                	lui	a4,0xffff8
   1433a:	2032                	fld	ft0,264(sp)
   1433c:	6320                	flw	fs0,64(a4)
   1433e:	6478                	flw	fa4,76(s0)
   14340:	3465                	jal	13de8 <__clz_tab+0x28c>
   14342:	20202033          	sh1add	zero,zero,sp
   14346:	6676                	flw	fa2,92(sp)
   14348:	7274                	flw	fa3,100(a2)
   1434a:	2035                	jal	14376 <scantoasciitable_lowercase+0x5a>
   1434c:	6e20                	flw	fs0,88(a2)
   1434e:	6862                	flw	fa6,24(sp)
   14350:	20367967          	0x20367967
   14354:	2020                	fld	fs0,64(s0)
   14356:	6a6d                	lui	s4,0x1b
   14358:	3775                	jal	14304 <__fini_array_end>
   1435a:	2038                	fld	fa4,64(s0)
   1435c:	2c20                	fld	fs0,88(s0)
   1435e:	306f696b          	0x306f696b
   14362:	2039                	jal	14370 <scantoasciitable_lowercase+0x54>
   14364:	2e20                	fld	fs0,88(a2)
   14366:	703b6c2f          	0x703b6c2f
   1436a:	202d                	jal	14394 <scantoasciitable_lowercase+0x78>
   1436c:	2020                	fld	fs0,64(s0)
   1436e:	3d5b2027          	fsw	fs5,960(s6)
   14372:	2020                	fld	fs0,64(s0)
   14374:	2020                	fld	fs0,64(s0)
   14376:	5d0d                	li	s10,-29
   14378:	5c20                	lw	s0,120(s0)
   1437a:	2020                	fld	fs0,64(s0)
   1437c:	2020                	fld	fs0,64(s0)
   1437e:	2020                	fld	fs0,64(s0)
   14380:	2020                	fld	fs0,64(s0)
   14382:	2008                	fld	fa0,0(s0)
   14384:	2020                	fld	fs0,64(s0)
   14386:	2020                	fld	fs0,64(s0)
   14388:	2020                	fld	fs0,64(s0)
   1438a:	2020                	fld	fs0,64(s0)
   1438c:	2020                	fld	fs0,64(s0)
   1438e:	2020                	fld	fs0,64(s0)
   14390:	2020                	fld	fs0,64(s0)
   14392:	2020201b          	0x2020201b
   14396:	2020                	fld	fs0,64(s0)
   14398:	2020                	fld	fs0,64(s0)
   1439a:	2020                	fld	fs0,64(s0)
   1439c:	2020                	fld	fs0,64(s0)
   1439e:	2020                	fld	fs0,64(s0)
   143a0:	2020                	fld	fs0,64(s0)
   143a2:	2020                	fld	fs0,64(s0)
   143a4:	2020                	fld	fs0,64(s0)
   143a6:	2020                	fld	fs0,64(s0)
   143a8:	2020                	fld	fs0,64(s0)
   143aa:	2020                	fld	fs0,64(s0)
   143ac:	2020                	fld	fs0,64(s0)
   143ae:	2020                	fld	fs0,64(s0)
   143b0:	2020                	fld	fs0,64(s0)
   143b2:	2020                	fld	fs0,64(s0)
   143b4:	2020                	fld	fs0,64(s0)
   143b6:	2020                	fld	fs0,64(s0)
   143b8:	2020                	fld	fs0,64(s0)
   143ba:	2020                	fld	fs0,64(s0)
   143bc:	2020                	fld	fs0,64(s0)
   143be:	2020                	fld	fs0,64(s0)
   143c0:	2020                	fld	fs0,64(s0)
   143c2:	2020                	fld	fs0,64(s0)
   143c4:	2020                	fld	fs0,64(s0)
   143c6:	2020                	fld	fs0,64(s0)
   143c8:	2020                	fld	fs0,64(s0)
   143ca:	2020                	fld	fs0,64(s0)
   143cc:	2020                	fld	fs0,64(s0)
   143ce:	2020                	fld	fs0,64(s0)
   143d0:	2020                	fld	fs0,64(s0)
   143d2:	2020                	fld	fs0,64(s0)
   143d4:	2020                	fld	fs0,64(s0)
   143d6:	2020                	fld	fs0,64(s0)
   143d8:	2020                	fld	fs0,64(s0)
   143da:	2020                	fld	fs0,64(s0)
   143dc:	2020                	fld	fs0,64(s0)
   143de:	2020                	fld	fs0,64(s0)
   143e0:	2020                	fld	fs0,64(s0)
   143e2:	2020                	fld	fs0,64(s0)
   143e4:	2020                	fld	fs0,64(s0)
   143e6:	2020                	fld	fs0,64(s0)
   143e8:	2020                	fld	fs0,64(s0)
   143ea:	2020                	fld	fs0,64(s0)
   143ec:	2020                	fld	fs0,64(s0)
   143ee:	2020                	fld	fs0,64(s0)
   143f0:	2020                	fld	fs0,64(s0)
   143f2:	2020                	fld	fs0,64(s0)
   143f4:	2020                	fld	fs0,64(s0)
   143f6:	2020                	fld	fs0,64(s0)
   143f8:	2020                	fld	fs0,64(s0)
   143fa:	2020                	fld	fs0,64(s0)
   143fc:	2020                	fld	fs0,64(s0)
   143fe:	2020                	fld	fs0,64(s0)
   14400:	2020                	fld	fs0,64(s0)
   14402:	2020                	fld	fs0,64(s0)
   14404:	2020                	fld	fs0,64(s0)
   14406:	2020                	fld	fs0,64(s0)
   14408:	2020                	fld	fs0,64(s0)
   1440a:	2020                	fld	fs0,64(s0)
   1440c:	2020                	fld	fs0,64(s0)
   1440e:	2020                	fld	fs0,64(s0)
   14410:	2020                	fld	fs0,64(s0)
   14412:	2020                	fld	fs0,64(s0)
   14414:	2020                	fld	fs0,64(s0)
   14416:	2020                	fld	fs0,64(s0)
   14418:	2020                	fld	fs0,64(s0)
   1441a:	2020                	fld	fs0,64(s0)

0001441c <scantoasciitable_uppercase>:
   1441c:	2020                	fld	fs0,64(s0)
   1441e:	2020                	fld	fs0,64(s0)
   14420:	2020                	fld	fs0,64(s0)
   14422:	2020                	fld	fs0,64(s0)
   14424:	2020                	fld	fs0,64(s0)
   14426:	2020                	fld	fs0,64(s0)
   14428:	0b20                	addi	s0,sp,408
   1442a:	2060                	fld	fs0,192(s0)
   1442c:	2020                	fld	fs0,64(s0)
   1442e:	2020                	fld	fs0,64(s0)
   14430:	5120                	lw	s0,96(a0)
   14432:	2021                	jal	1443a <scantoasciitable_uppercase+0x1e>
   14434:	2020                	fld	fs0,64(s0)
   14436:	535a                	lw	t1,180(sp)
   14438:	5741                	li	a4,-16
   1443a:	2040                	fld	fs0,128(s0)
   1443c:	4320                	lw	s0,64(a4)
   1443e:	4458                	lw	a4,12(s0)
   14440:	2445                	jal	146e0 <impure_data+0x1c0>
   14442:	20202023          	sw	sp,512(zero) # 200 <main-0xfe74>
   14446:	4656                	lw	a2,84(sp)
   14448:	5254                	lw	a3,36(a2)
   1444a:	2025                	jal	14472 <scantoasciitable_uppercase+0x56>
   1444c:	4e20                	lw	s0,88(a2)
   1444e:	4842                	lw	a6,16(sp)
   14450:	205e5947          	fmsub.s	fs2,ft8,ft5,ft4,unknown
   14454:	2020                	fld	fs0,64(s0)
   14456:	4a4d                	li	s4,19
   14458:	3755                	jal	143fc <scantoasciitable_lowercase+0xe0>
   1445a:	202a                	fld	ft0,136(sp)
   1445c:	3c20                	fld	fs0,120(s0)
   1445e:	294f494b          	fnmsub.s	fs2,ft10,fs4,ft5,rmm
   14462:	2028                	fld	fa0,64(s0)
   14464:	3e20                	fld	fs0,120(a2)
   14466:	503a6c3f 2020205f 	0x2020205f503a6c3f
   1446e:	2022                	fld	ft0,8(sp)
   14470:	20202b7b          	0x20202b7b
   14474:	2020                	fld	fs0,64(s0)
   14476:	7d0d                	lui	s10,0xfffe3
   14478:	7c20                	flw	fs0,120(s0)
   1447a:	2020                	fld	fs0,64(s0)
   1447c:	2020                	fld	fs0,64(s0)
   1447e:	2020                	fld	fs0,64(s0)
   14480:	2020                	fld	fs0,64(s0)
   14482:	2008                	fld	fa0,0(s0)
   14484:	2020                	fld	fs0,64(s0)
   14486:	2020                	fld	fs0,64(s0)
   14488:	2020                	fld	fs0,64(s0)
   1448a:	2020                	fld	fs0,64(s0)
   1448c:	2020                	fld	fs0,64(s0)
   1448e:	2020                	fld	fs0,64(s0)
   14490:	2020                	fld	fs0,64(s0)
   14492:	2020201b          	0x2020201b
   14496:	2020                	fld	fs0,64(s0)
   14498:	2020                	fld	fs0,64(s0)
   1449a:	2020                	fld	fs0,64(s0)
   1449c:	2020                	fld	fs0,64(s0)
   1449e:	2020                	fld	fs0,64(s0)
   144a0:	2020                	fld	fs0,64(s0)
   144a2:	2020                	fld	fs0,64(s0)
   144a4:	2020                	fld	fs0,64(s0)
   144a6:	2020                	fld	fs0,64(s0)
   144a8:	2020                	fld	fs0,64(s0)
   144aa:	2020                	fld	fs0,64(s0)
   144ac:	2020                	fld	fs0,64(s0)
   144ae:	2020                	fld	fs0,64(s0)
   144b0:	2020                	fld	fs0,64(s0)
   144b2:	2020                	fld	fs0,64(s0)
   144b4:	2020                	fld	fs0,64(s0)
   144b6:	2020                	fld	fs0,64(s0)
   144b8:	2020                	fld	fs0,64(s0)
   144ba:	2020                	fld	fs0,64(s0)
   144bc:	2020                	fld	fs0,64(s0)
   144be:	2020                	fld	fs0,64(s0)
   144c0:	2020                	fld	fs0,64(s0)
   144c2:	2020                	fld	fs0,64(s0)
   144c4:	2020                	fld	fs0,64(s0)
   144c6:	2020                	fld	fs0,64(s0)
   144c8:	2020                	fld	fs0,64(s0)
   144ca:	2020                	fld	fs0,64(s0)
   144cc:	2020                	fld	fs0,64(s0)
   144ce:	2020                	fld	fs0,64(s0)
   144d0:	2020                	fld	fs0,64(s0)
   144d2:	2020                	fld	fs0,64(s0)
   144d4:	2020                	fld	fs0,64(s0)
   144d6:	2020                	fld	fs0,64(s0)
   144d8:	2020                	fld	fs0,64(s0)
   144da:	2020                	fld	fs0,64(s0)
   144dc:	2020                	fld	fs0,64(s0)
   144de:	2020                	fld	fs0,64(s0)
   144e0:	2020                	fld	fs0,64(s0)
   144e2:	2020                	fld	fs0,64(s0)
   144e4:	2020                	fld	fs0,64(s0)
   144e6:	2020                	fld	fs0,64(s0)
   144e8:	2020                	fld	fs0,64(s0)
   144ea:	2020                	fld	fs0,64(s0)
   144ec:	2020                	fld	fs0,64(s0)
   144ee:	2020                	fld	fs0,64(s0)
   144f0:	2020                	fld	fs0,64(s0)
   144f2:	2020                	fld	fs0,64(s0)
   144f4:	2020                	fld	fs0,64(s0)
   144f6:	2020                	fld	fs0,64(s0)
   144f8:	2020                	fld	fs0,64(s0)
   144fa:	2020                	fld	fs0,64(s0)
   144fc:	2020                	fld	fs0,64(s0)
   144fe:	2020                	fld	fs0,64(s0)
   14500:	2020                	fld	fs0,64(s0)
   14502:	2020                	fld	fs0,64(s0)
   14504:	2020                	fld	fs0,64(s0)
   14506:	2020                	fld	fs0,64(s0)
   14508:	2020                	fld	fs0,64(s0)
   1450a:	2020                	fld	fs0,64(s0)
   1450c:	2020                	fld	fs0,64(s0)
   1450e:	2020                	fld	fs0,64(s0)
   14510:	2020                	fld	fs0,64(s0)
   14512:	2020                	fld	fs0,64(s0)
   14514:	2020                	fld	fs0,64(s0)
   14516:	2020                	fld	fs0,64(s0)
   14518:	2020                	fld	fs0,64(s0)
   1451a:	2020                	fld	fs0,64(s0)
   1451c:	0000                	unimp
	...

00014520 <impure_data>:
   14520:	0000                	unimp
   14522:	0000                	unimp
   14524:	480c                	lw	a1,16(s0)
   14526:	0001                	nop
   14528:	4874                	lw	a3,84(s0)
   1452a:	0001                	nop
   1452c:	48dc                	lw	a5,20(s1)
   1452e:	0001                	nop
	...
   145c8:	0001                	nop
   145ca:	0000                	unimp
   145cc:	0000                	unimp
   145ce:	0000                	unimp
   145d0:	330e                	fld	ft6,224(sp)
   145d2:	abcd                	j	14bc4 <__global_pointer$+0xbc>
   145d4:	1234                	addi	a3,sp,296
   145d6:	e66d                	bnez	a2,146c0 <impure_data+0x1a0>
   145d8:	deec                	sw	a1,124(a3)
   145da:	0005                	c.nop	1
   145dc:	0000000b          	0xb
	...

Disassembly of section .got:

00014948 <.got>:
   14948:	ffff                	0xffff
   1494a:	ffff                	0xffff
   1494c:	0000                	unimp
	...

00014950 <_GLOBAL_OFFSET_TABLE_>:
   14950:	0000                	unimp
   14952:	0000                	unimp
   14954:	441c                	lw	a5,8(s0)
   14956:	0001                	nop
   14958:	4318                	lw	a4,0(a4)
   1495a:	0001                	nop
   1495c:	431c                	lw	a5,0(a4)
   1495e:	0001                	nop
   14960:	4310                	lw	a2,0(a4)
   14962:	0001                	nop
   14964:	4314                	lw	a3,0(a4)
   14966:	0001                	nop
   14968:	430c                	lw	a1,0(a4)
   1496a:	0001                	nop
   1496c:	4308                	lw	a0,0(a4)
   1496e:	0001                	nop

Disassembly of section .sdata:

00014970 <_global_impure_ptr>:
   14970:	4520                	lw	s0,72(a0)
   14972:	0001                	nop

00014974 <_impure_ptr>:
   14974:	4520                	lw	s0,72(a0)
   14976:	0001                	nop

Disassembly of section .bss:

00014978 <completed.1>:
   14978:	0000                	unimp
	...

0001497c <object.0>:
	...

00014994 <_ZL11consoleText>:
	...

00014e44 <_ZL7cursorx>:
   14e44:	0000                	unimp
	...

00014e48 <_ZL7cursory>:
   14e48:	0000                	unimp
	...

Disassembly of section .comment:

00000000 <.comment>:
   0:	3a434347          	fmsub.d	ft6,ft6,ft4,ft7,rmm
   4:	2820                	fld	fs0,80(s0)
   6:	29554e47          	fmsub.s	ft8,fa0,fs5,ft5,rmm
   a:	3120                	fld	fs0,96(a0)
   c:	2e31                	jal	328 <main-0xfd4c>
   e:	2e31                	jal	32a <main-0xfd4a>
  10:	0030                	addi	a2,sp,8

Disassembly of section .riscv.attributes:

00000000 <.riscv.attributes>:
   0:	2941                	jal	490 <main-0xfbe4>
   2:	0000                	unimp
   4:	7200                	flw	fs0,32(a2)
   6:	7369                	lui	t1,0xffffa
   8:	01007663          	bgeu	zero,a6,14 <main-0x10060>
   c:	001f 0000 1004      	0x10040000001f
  12:	7205                	lui	tp,0xfffe1
  14:	3376                	fld	ft6,376(sp)
  16:	6932                	flw	fs2,12(sp)
  18:	7032                	flw	ft0,44(sp)
  1a:	5f30                	lw	a2,120(a4)
  1c:	326d                	jal	fffff9c6 <__BSS_END__+0xfffeab7a>
  1e:	3070                	fld	fa2,224(s0)
  20:	665f 7032 0030      	0x307032665f
  26:	0108                	addi	a0,sp,128
  28:	0b0a                	slli	s6,s6,0x2

Disassembly of section .debug_aranges:

00000000 <.debug_aranges>:
   0:	001c                	0x1c
   2:	0000                	unimp
   4:	0002                	c.slli64	zero
   6:	0000                	unimp
   8:	0000                	unimp
   a:	0004                	0x4
   c:	0000                	unimp
   e:	0000                	unimp
  10:	1884                	addi	s1,sp,112
  12:	0001                	nop
  14:	0430                	addi	a2,sp,520
	...
  1e:	0000                	unimp
  20:	0014                	0x14
  22:	0000                	unimp
  24:	0002                	c.slli64	zero
  26:	0761                	addi	a4,a4,24
  28:	0000                	unimp
  2a:	0004                	0x4
	...

Disassembly of section .debug_info:

00000000 <.debug_info>:
   0:	075d                	addi	a4,a4,23
   2:	0000                	unimp
   4:	0005                	c.nop	1
   6:	0401                	addi	s0,s0,0
   8:	0000                	unimp
   a:	0000                	unimp
   c:	2a11                	jal	120 <main-0xff54>
   e:	0000                	unimp
  10:	1d00                	addi	s0,sp,688
  12:	0000                	unimp
  14:	0000                	unimp
  16:	002c                	addi	a1,sp,8
  18:	0000                	unimp
  1a:	1884                	addi	s1,sp,112
  1c:	0001                	nop
  1e:	0430                	addi	a2,sp,520
  20:	0000                	unimp
  22:	0000                	unimp
  24:	0000                	unimp
  26:	0804                	addi	s1,sp,16
  28:	00011b07          	0x11b07
  2c:	1200                	addi	s0,sp,288
  2e:	0504                	addi	s1,sp,640
  30:	6e69                	lui	t3,0x1a
  32:	0074                	addi	a3,sp,12
  34:	0404                	addi	s1,sp,512
  36:	00012507          	flw	fa0,0(sp)
  3a:	0400                	addi	s0,sp,512
  3c:	0508                	addi	a0,sp,640
  3e:	010d                	addi	sp,sp,3
  40:	0000                	unimp
  42:	1004                	addi	s1,sp,32
  44:	c204                	sw	s1,0(a2)
  46:	0001                	nop
  48:	0400                	addi	s0,sp,512
  4a:	0601                	addi	a2,a2,0
  4c:	00000143          	fmadd.s	ft2,ft0,ft0,ft0,rne
  50:	0104                	addi	s1,sp,128
  52:	4108                	lw	a0,0(a0)
  54:	0001                	nop
  56:	0400                	addi	s0,sp,512
  58:	0502                	c.slli64	a0
  5a:	0020                	addi	s0,sp,8
  5c:	0000                	unimp
  5e:	0204                	addi	s1,sp,256
  60:	00017407          	0x17407
  64:	0400                	addi	s0,sp,512
  66:	0504                	addi	s1,sp,640
  68:	0112                	slli	sp,sp,0x4
  6a:	0000                	unimp
  6c:	0404                	addi	s1,sp,512
  6e:	00012007          	flw	ft0,0(sp)
  72:	0400                	addi	s0,sp,512
  74:	0801                	addi	a6,a6,0
  76:	014a                	slli	sp,sp,0x12
  78:	0000                	unimp
  7a:	6306                	flw	ft6,64(sp)
  7c:	0001                	nop
  7e:	7b00                	flw	fs0,48(a4)
  80:	5016                	0x5016
  82:	0000                	unimp
  84:	0900                	addi	s0,sp,144
  86:	007a                	c.slli	zero,0x1e
  88:	0000                	unimp
  8a:	cf06                	sw	ra,156(sp)
  8c:	0001                	nop
  8e:	8000                	0x8000
  90:	00002d0f          	0x2d0f
  94:	0600                	addi	s0,sp,768
  96:	01ce                	slli	gp,gp,0x13
  98:	0000                	unimp
  9a:	1681                	addi	a3,a3,-32
  9c:	0034                	addi	a3,sp,8
  9e:	0000                	unimp
  a0:	8806                	mv	a6,ra
  a2:	0001                	nop
  a4:	8400                	0x8400
  a6:	00003b0f          	0x3b0f
  aa:	0600                	addi	s0,sp,768
  ac:	00000187          	0x187
  b0:	1685                	addi	a3,a3,-31
  b2:	0026                	c.slli	zero,0x9
  b4:	0000                	unimp
  b6:	0404                	addi	s1,sp,512
  b8:	1a04                	addi	s1,sp,304
  ba:	0000                	unimp
  bc:	0400                	addi	s0,sp,512
  be:	0308                	addi	a0,sp,384
  c0:	0012                	c.slli	zero,0x4
  c2:	0000                	unimp
  c4:	0804                	addi	s1,sp,16
  c6:	c704                	sw	s1,8(a4)
  c8:	0001                	nop
  ca:	0400                	addi	s0,sp,512
  cc:	0310                	addi	a2,sp,384
  ce:	0199                	addi	gp,gp,6
  d0:	0000                	unimp
  d2:	2004                	fld	fs1,0(s0)
  d4:	0001ba03          	0x1ba03
  d8:	1300                	addi	s0,sp,416
  da:	0000016b          	0x16b
  de:	0208                	addi	a0,sp,256
  e0:	01ed                	addi	gp,gp,27
  e2:	040a                	slli	s0,s0,0x2
  e4:	0001                	nop
  e6:	1400                	addi	s0,sp,544
  e8:	6f6c                	flw	fa1,92(a4)
  ea:	ed020077          	0xed020077
  ee:	1a01                	addi	s4,s4,-32
  f0:	008a                	slli	ra,ra,0x2
  f2:	0000                	unimp
  f4:	1500                	addi	s0,sp,672
  f6:	0132                	slli	sp,sp,0xc
  f8:	0000                	unimp
  fa:	ed02                	fsw	ft0,152(sp)
  fc:	1f01                	addi	t5,t5,-32
  fe:	008a                	slli	ra,ra,0x2
 100:	0000                	unimp
 102:	0004                	0x4
 104:	0816                	slli	a6,a6,0x5
 106:	f402                	fsw	ft0,40(sp)
 108:	0901                	addi	s2,s2,0
 10a:	0124                	addi	s1,sp,136
 10c:	0000                	unimp
 10e:	730c                	flw	fa1,32(a4)
 110:	f600                	fsw	fs0,40(a2)
 112:	1301                	addi	t1,t1,-32
 114:	00d9                	addi	ra,ra,22
 116:	0000                	unimp
 118:	6c0c                	flw	fa1,24(s0)
 11a:	006c                	addi	a1,sp,12
 11c:	a00a01f7          	0xa00a01f7
 120:	0000                	unimp
 122:	0000                	unimp
 124:	00000017          	auipc	zero,0x0
 128:	0200                	addi	s0,sp,256
 12a:	01f8                	addi	a4,sp,204
 12c:	00010403          	lb	s0,0(sp)
 130:	0900                	addi	s0,sp,144
 132:	0124                	addi	s1,sp,136
 134:	0000                	unimp
 136:	8518                	0x8518
 138:	0000                	unimp
 13a:	4600                	lw	s0,8(a2)
 13c:	0001                	nop
 13e:	1900                	addi	s0,sp,176
 140:	0034                	addi	a3,sp,8
 142:	0000                	unimp
 144:	00ff                	0xff
 146:	3609                	jal	fffffc48 <__BSS_END__+0xfffeadfc>
 148:	0001                	nop
 14a:	1a00                	addi	s0,sp,304
 14c:	00000137          	lui	sp,0x0
 150:	0202                	c.slli64	tp
 152:	1602                	slli	a2,a2,0x20
 154:	0146                	slli	sp,sp,0x11
 156:	0000                	unimp
 158:	0000081b          	0x81b
 15c:	0100                	addi	s0,sp,128
 15e:	0512                	slli	a0,a0,0x4
 160:	ab01                	j	670 <main-0xfa04>
 162:	0000                	unimp
 164:	8400                	0x8400
 166:	0118                	addi	a4,sp,128
 168:	3000                	fld	fs0,32(s0)
 16a:	0004                	0x4
 16c:	0100                	addi	s0,sp,128
 16e:	2e9c                	fld	fa5,24(a3)
 170:	0004                	0x4
 172:	0d00                	addi	s0,sp,656
 174:	006e                	c.slli	zero,0x1b
 176:	ab14                	fsd	fa3,16(a4)
 178:	0000                	unimp
 17a:	0c00                	addi	s0,sp,528
 17c:	0000                	unimp
 17e:	0d00                	addi	s0,sp,656
 180:	0064                	addi	s1,sp,12
 182:	ab1f 0000 ed00      	0xed000000ab1f
 188:	0000                	unimp
 18a:	1c00                	addi	s0,sp,560
 18c:	042e                	slli	s0,s0,0xb
 18e:	0000                	unimp
 190:	1884                	addi	s1,sp,112
 192:	0001                	nop
 194:	000c                	0xc
 196:	0000                	unimp
 198:	1401                	addi	s0,s0,-32
 19a:	0a05                	addi	s4,s4,1
 19c:	500a                	0x500a
 19e:	0004                	0x4
 1a0:	7e00                	flw	fs0,56(a2)
 1a2:	0001                	nop
 1a4:	0a00                	addi	s0,sp,272
 1a6:	0448                	addi	a0,sp,516
 1a8:	0000                	unimp
 1aa:	00000197          	auipc	gp,0x0
 1ae:	400a                	0x400a
 1b0:	0004                	0x4
 1b2:	e800                	fsw	fs0,16(s0)
 1b4:	0001                	nop
 1b6:	1d00                	addi	s0,sp,688
 1b8:	0028                	addi	a0,sp,8
 1ba:	0000                	unimp
 1bc:	5908                	lw	a0,48(a0)
 1be:	0004                	0x4
 1c0:	0800                	addi	s0,sp,16
 1c2:	0464                	addi	s1,sp,524
 1c4:	0000                	unimp
 1c6:	6f08                	flw	fa0,24(a4)
 1c8:	0004                	0x4
 1ca:	0100                	addi	s0,sp,128
 1cc:	047a                	slli	s0,s0,0x1e
 1ce:	0000                	unimp
 1d0:	02b9                	addi	t0,t0,14
 1d2:	0000                	unimp
 1d4:	8501                	c.srai64	a0
 1d6:	0004                	0x4
 1d8:	3800                	fld	fs0,48(s0)
 1da:	01000003          	lb	zero,16(zero) # 10 <main-0x10064>
 1de:	0490                	addi	a2,sp,576
 1e0:	0000                	unimp
 1e2:	0000037b          	0x37b
 1e6:	9b01                	andi	a4,a4,-32
 1e8:	0004                	0x4
 1ea:	ef00                	fsw	fs0,24(a4)
 1ec:	01000003          	lb	zero,16(zero) # 10 <main-0x10064>
 1f0:	04a6                	slli	s1,s1,0x9
 1f2:	0000                	unimp
 1f4:	04b6                	slli	s1,s1,0xd
 1f6:	0000                	unimp
 1f8:	b101                	j	fffffdf8 <__BSS_END__+0xfffeafac>
 1fa:	0004                	0x4
 1fc:	cd00                	sw	s0,24(a0)
 1fe:	0004                	0x4
 200:	0100                	addi	s0,sp,128
 202:	04bc                	addi	a5,sp,584
 204:	0000                	unimp
 206:	000004ef          	jal	s1,206 <main-0xfe6e>
 20a:	c701                	beqz	a4,212 <main-0xfe62>
 20c:	0004                	0x4
 20e:	1200                	addi	s0,sp,288
 210:	0005                	c.nop	1
 212:	0100                	addi	s0,sp,128
 214:	04d1                	addi	s1,s1,20
 216:	0000                	unimp
 218:	0529                	addi	a0,a0,10
 21a:	0000                	unimp
 21c:	dc08                	sw	a0,56(s0)
 21e:	0004                	0x4
 220:	0700                	addi	s0,sp,896
 222:	000004e7          	jalr	s1,zero # 0 <main-0x10074>
 226:	004d                	c.nop	19
 228:	0000                	unimp
 22a:	0241                	addi	tp,tp,16
 22c:	0000                	unimp
 22e:	ec01                	bnez	s0,246 <main-0xfe2e>
 230:	0004                	0x4
 232:	6100                	flw	fs0,0(a0)
 234:	0005                	c.nop	1
 236:	0100                	addi	s0,sp,128
 238:	04f8                	addi	a4,sp,588
 23a:	0000                	unimp
 23c:	0596                	slli	a1,a1,0x5
 23e:	0000                	unimp
 240:	0e00                	addi	s0,sp,784
 242:	0505                	addi	a0,a0,1
 244:	0000                	unimp
 246:	18ec                	addi	a1,sp,124
 248:	0001                	nop
 24a:	0088                	addi	a0,sp,64
 24c:	0000                	unimp
 24e:	0292                	slli	t0,t0,0x4
 250:	0000                	unimp
 252:	0a01                	addi	s4,s4,0
 254:	0005                	c.nop	1
 256:	a200                	fsd	fs0,0(a2)
 258:	0005                	c.nop	1
 25a:	0100                	addi	s0,sp,128
 25c:	0516                	slli	a0,a0,0x5
 25e:	0000                	unimp
 260:	05ae                	slli	a1,a1,0xb
 262:	0000                	unimp
 264:	2201                	jal	364 <main-0xfd10>
 266:	0005                	c.nop	1
 268:	ba00                	fsd	fs0,48(a2)
 26a:	0005                	c.nop	1
 26c:	0100                	addi	s0,sp,128
 26e:	052e                	slli	a0,a0,0xb
 270:	0000                	unimp
 272:	05d1                	addi	a1,a1,20
 274:	0000                	unimp
 276:	3a01                	jal	fffffb86 <__BSS_END__+0xfffead3a>
 278:	0005                	c.nop	1
 27a:	e800                	fsw	fs0,16(s0)
 27c:	0005                	c.nop	1
 27e:	0100                	addi	s0,sp,128
 280:	0546                	slli	a0,a0,0x11
 282:	0000                	unimp
 284:	062c                	addi	a1,sp,776
 286:	0000                	unimp
 288:	5201                	li	tp,-32
 28a:	0005                	c.nop	1
 28c:	5300                	lw	s0,32(a4)
 28e:	0006                	c.slli	zero,0x1
 290:	0000                	unimp
 292:	00066107          	0x66107
 296:	6000                	flw	fs0,0(s0)
 298:	0000                	unimp
 29a:	5100                	lw	s0,32(a0)
 29c:	01000003          	lb	zero,16(zero) # 10 <main-0x10064>
 2a0:	0662                	slli	a2,a2,0x18
 2a2:	0000                	unimp
 2a4:	067a                	slli	a2,a2,0x1e
 2a6:	0000                	unimp
 2a8:	6d01                	0x6d01
 2aa:	0006                	c.slli	zero,0x1
 2ac:	8600                	0x8600
 2ae:	0006                	c.slli	zero,0x1
 2b0:	0700                	addi	s0,sp,896
 2b2:	0678                	addi	a4,sp,780
 2b4:	0000                	unimp
 2b6:	00000073          	ecall
 2ba:	02fe                	slli	t0,t0,0x1f
 2bc:	0000                	unimp
 2be:	7d01                	lui	s10,0xfffe0
 2c0:	0006                	c.slli	zero,0x1
 2c2:	c000                	sw	s0,0(s0)
 2c4:	0006                	c.slli	zero,0x1
 2c6:	0100                	addi	s0,sp,128
 2c8:	0689                	addi	a3,a3,2
 2ca:	0000                	unimp
 2cc:	06cc                	addi	a1,sp,836
 2ce:	0000                	unimp
 2d0:	9501                	srai	a0,a0,0x20
 2d2:	0006                	c.slli	zero,0x1
 2d4:	e900                	fsw	fs0,16(a0)
 2d6:	0006                	c.slli	zero,0x1
 2d8:	0100                	addi	s0,sp,128
 2da:	06a1                	addi	a3,a3,8
 2dc:	0000                	unimp
 2de:	0700                	addi	s0,sp,896
 2e0:	0000                	unimp
 2e2:	ad01                	j	8f2 <main-0xf782>
 2e4:	0006                	c.slli	zero,0x1
 2e6:	1700                	addi	s0,sp,928
 2e8:	01000007          	0x1000007
 2ec:	06b9                	addi	a3,a3,14
 2ee:	0000                	unimp
 2f0:	0749                	addi	a4,a4,18
 2f2:	0000                	unimp
 2f4:	c501                	beqz	a0,2fc <main-0xfd78>
 2f6:	0006                	c.slli	zero,0x1
 2f8:	7b00                	flw	fs0,48(a4)
 2fa:	00000007          	0x7
 2fe:	0006d20f          	0x6d20f
 302:	9800                	0x9800
 304:	0000                	unimp
 306:	0100                	addi	s0,sp,128
 308:	000006d7          	0x6d7
 30c:	07a2                	slli	a5,a5,0x8
 30e:	0000                	unimp
 310:	e301                	bnez	a4,310 <main-0xfd64>
 312:	0006                	c.slli	zero,0x1
 314:	ae00                	fsd	fs0,24(a2)
 316:	01000007          	0x1000007
 31a:	000006ef          	jal	a3,31a <main-0xfd5a>
 31e:	000007e7          	jalr	a5,zero # 0 <main-0x10074>
 322:	fb01                	bnez	a4,232 <main-0xfe42>
 324:	0006                	c.slli	zero,0x1
 326:	f300                	fsw	fs0,32(a4)
 328:	01000007          	0x1000007
 32c:	00000707          	0x707
 330:	07ff                	0x7ff
 332:	0000                	unimp
 334:	1301                	addi	t1,t1,-32
 336:	4b000007          	0x4b000007
 33a:	0008                	0x8
 33c:	0100                	addi	s0,sp,128
 33e:	071f 0000 0857      	0x8570000071f
 344:	0000                	unimp
 346:	2b01                	jal	856 <main-0xf81e>
 348:	81000007          	0x81000007
 34c:	0008                	0x8
 34e:	0000                	unimp
 350:	0700                	addi	s0,sp,896
 352:	055f 0000 00c6      	0xc60000055f
 358:	0000                	unimp
 35a:	0371                	addi	t1,t1,28
 35c:	0000                	unimp
 35e:	6401                	0x6401
 360:	0005                	c.nop	1
 362:	8d00                	0x8d00
 364:	0008                	0x8
 366:	0100                	addi	s0,sp,128
 368:	0570                	addi	a2,sp,652
 36a:	0000                	unimp
 36c:	08cd                	addi	a7,a7,19
 36e:	0000                	unimp
 370:	0e00                	addi	s0,sp,784
 372:	000005d7          	0x5d7
 376:	19d0                	addi	a2,sp,244
 378:	0001                	nop
 37a:	008c                	addi	a1,sp,64
 37c:	0000                	unimp
 37e:	03c2                	slli	t2,t2,0x10
 380:	0000                	unimp
 382:	dc01                	beqz	s0,29a <main-0xfdda>
 384:	0005                	c.nop	1
 386:	d900                	sw	s0,48(a0)
 388:	0008                	0x8
 38a:	0100                	addi	s0,sp,128
 38c:	05e8                	addi	a0,sp,716
 38e:	0000                	unimp
 390:	08e5                	addi	a7,a7,25
 392:	0000                	unimp
 394:	f401                	bnez	s0,29c <main-0xfdd8>
 396:	0005                	c.nop	1
 398:	f100                	fsw	fs0,32(a0)
 39a:	0008                	0x8
 39c:	0100                	addi	s0,sp,128
 39e:	0600                	addi	s0,sp,768
 3a0:	0000                	unimp
 3a2:	0908                	addi	a0,sp,144
 3a4:	0000                	unimp
 3a6:	0c01                	addi	s8,s8,0
 3a8:	0006                	c.slli	zero,0x1
 3aa:	1f00                	addi	s0,sp,944
 3ac:	0009                	c.nop	2
 3ae:	0100                	addi	s0,sp,128
 3b0:	0618                	addi	a4,sp,768
 3b2:	0000                	unimp
 3b4:	0951                	addi	s2,s2,20
 3b6:	0000                	unimp
 3b8:	2401                	jal	5b8 <main-0xfabc>
 3ba:	0006                	c.slli	zero,0x1
 3bc:	7800                	flw	fs0,48(s0)
 3be:	0009                	c.nop	2
 3c0:	0000                	unimp
 3c2:	00057d07          	0x57d07
 3c6:	d900                	sw	s0,48(a0)
 3c8:	0000                	unimp
 3ca:	0f00                	addi	s0,sp,912
 3cc:	0004                	0x4
 3ce:	0100                	addi	s0,sp,128
 3d0:	0582                	c.slli64	a1
 3d2:	0000                	unimp
 3d4:	099f 0000 8e01      	0x8e010000099f
 3da:	0005                	c.nop	1
 3dc:	ab00                	fsd	fs0,16(a4)
 3de:	0009                	c.nop	2
 3e0:	0100                	addi	s0,sp,128
 3e2:	059a                	slli	a1,a1,0x6
 3e4:	0000                	unimp
 3e6:	09c8                	addi	a0,sp,212
 3e8:	0000                	unimp
 3ea:	a601                	j	6ea <main-0xf98a>
 3ec:	0005                	c.nop	1
 3ee:	df00                	sw	s0,56(a4)
 3f0:	0009                	c.nop	2
 3f2:	0100                	addi	s0,sp,128
 3f4:	05b2                	slli	a1,a1,0xc
 3f6:	0000                	unimp
 3f8:	09f6                	slli	s3,s3,0x1d
 3fa:	0000                	unimp
 3fc:	be01                	j	ffffff0c <__BSS_END__+0xfffeb0c0>
 3fe:	0005                	c.nop	1
 400:	2800                	fld	fs0,16(s0)
 402:	000a                	c.slli	zero,0x2
 404:	0100                	addi	s0,sp,128
 406:	05ca                	slli	a1,a1,0x12
 408:	0000                	unimp
 40a:	0a5a                	slli	s4,s4,0x16
 40c:	0000                	unimp
 40e:	0f00                	addi	s0,sp,912
 410:	0631                	addi	a2,a2,12
 412:	0000                	unimp
 414:	00fe                	slli	ra,ra,0x1f
 416:	0000                	unimp
 418:	3601                	jal	ffffff18 <__BSS_END__+0xfffeb0cc>
 41a:	0006                	c.slli	zero,0x1
 41c:	8100                	0x8100
 41e:	000a                	c.slli	zero,0x2
 420:	0100                	addi	s0,sp,128
 422:	0642                	slli	a2,a2,0x10
 424:	0000                	unimp
 426:	0a8d                	addi	s5,s5,3
 428:	0000                	unimp
 42a:	0000                	unimp
 42c:	0000                	unimp
 42e:	ad1e                	fsd	ft7,152(sp)
 430:	0001                	nop
 432:	0100                	addi	s0,sp,128
 434:	ab0103e3          	beq	sp,a6,fffffeda <__BSS_END__+0xfffeb08e>
 438:	0000                	unimp
 43a:	0300                	addi	s0,sp,384
 43c:	075a                	slli	a4,a4,0x16
 43e:	0000                	unimp
 440:	17006e0b          	0x17006e0b
 444:	000000ab          	0xab
 448:	2200640b          	0x2200640b
 44c:	000000ab          	0xab
 450:	0070720b          	0x70720b
 454:	5a2e                	lw	s4,232(sp)
 456:	03000007          	0x3000007
 45a:	6e6e                	flw	ft8,216(sp)
 45c:	e500                	fsw	fs0,8(a0)
 45e:	01311103          	lh	sp,19(sp) # 13 <main-0x10061>
 462:	0000                	unimp
 464:	00646403          	0x646403
 468:	03e6                	slli	t2,t2,0x19
 46a:	3111                	jal	6e <main-0x10006>
 46c:	0001                	nop
 46e:	0300                	addi	s0,sp,384
 470:	7272                	flw	ft4,60(sp)
 472:	e700                	fsw	fs0,8(a4)
 474:	01240b03          	lb	s6,18(s0)
 478:	0000                	unimp
 47a:	00306403          	0x306403
 47e:	03e8                	addi	a0,sp,460
 480:	950a                	add	a0,a0,sp
 482:	0000                	unimp
 484:	0300                	addi	s0,sp,384
 486:	3164                	fld	fs1,224(a0)
 488:	e800                	fsw	fs0,16(s0)
 48a:	00950e03          	lb	t3,9(a0) # 1b009 <__BSS_END__+0x61bd>
 48e:	0000                	unimp
 490:	00306e03          	0x306e03
 494:	03e8                	addi	a0,sp,460
 496:	9512                	add	a0,a0,tp
 498:	0000                	unimp
 49a:	0300                	addi	s0,sp,384
 49c:	316e                	fld	ft2,248(sp)
 49e:	e800                	fsw	fs0,16(s0)
 4a0:	00951603          	lh	a2,9(a0)
 4a4:	0000                	unimp
 4a6:	00326e03          	0x326e03
 4aa:	03e8                	addi	a0,sp,460
 4ac:	951a                	add	a0,a0,t1
 4ae:	0000                	unimp
 4b0:	0300                	addi	s0,sp,384
 4b2:	3071                	jal	fffffd3e <__BSS_END__+0xfffeaef2>
 4b4:	e900                	fsw	fs0,16(a0)
 4b6:	00950a03          	lb	s4,9(a0)
 4ba:	0000                	unimp
 4bc:	00317103          	0x317103
 4c0:	03e9                	addi	t2,t2,26
 4c2:	950e                	add	a0,a0,gp
 4c4:	0000                	unimp
 4c6:	0300                	addi	s0,sp,384
 4c8:	0062                	c.slli	zero,0x18
 4ca:	03ea                	slli	t2,t2,0x1a
 4cc:	950a                	add	a0,a0,sp
 4ce:	0000                	unimp
 4d0:	0300                	addi	s0,sp,384
 4d2:	6d62                	flw	fs10,24(sp)
 4d4:	ea00                	fsw	fs0,16(a2)
 4d6:	00950d03          	lb	s10,9(a0)
 4da:	0000                	unimp
 4dc:	00777703          	0x777703
 4e0:	311104b3          	0x311104b3
 4e4:	0001                	nop
 4e6:	0500                	addi	s0,sp,640
 4e8:	0505                	addi	a0,a0,1
 4ea:	0000                	unimp
 4ec:	a802                	fsd	ft0,16(sp)
 4ee:	0001                	nop
 4f0:	1a00                	addi	s0,sp,304
 4f2:	0404                	addi	s1,sp,512
 4f4:	0095                	addi	ra,ra,5
 4f6:	0000                	unimp
 4f8:	615f5f03          	lhu	t5,1557(t5) # 1a615 <__BSS_END__+0x57c9>
 4fc:	1a00                	addi	s0,sp,304
 4fe:	0404                	addi	s1,sp,512
 500:	0095                	addi	ra,ra,5
 502:	0000                	unimp
 504:	0500                	addi	s0,sp,640
 506:	055f 0000 fe02      	0xfe020000055f
 50c:	0000                	unimp
 50e:	2600                	fld	fs0,8(a2)
 510:	0404                	addi	s1,sp,512
 512:	0095                	addi	ra,ra,5
 514:	0000                	unimp
 516:	f902                	fsw	ft0,176(sp)
 518:	0000                	unimp
 51a:	2600                	fld	fs0,8(a2)
 51c:	0404                	addi	s1,sp,512
 51e:	0095                	addi	ra,ra,5
 520:	0000                	unimp
 522:	9402                	jalr	s0
 524:	0001                	nop
 526:	2600                	fld	fs0,8(a2)
 528:	0404                	addi	s1,sp,512
 52a:	0095                	addi	ra,ra,5
 52c:	0000                	unimp
 52e:	8f02                	jr	t5
 530:	0001                	nop
 532:	2600                	fld	fs0,8(a2)
 534:	0404                	addi	s1,sp,512
 536:	0095                	addi	ra,ra,5
 538:	0000                	unimp
 53a:	db02                	sw	zero,180(sp)
 53c:	0001                	nop
 53e:	2600                	fld	fs0,8(a2)
 540:	0404                	addi	s1,sp,512
 542:	0095                	addi	ra,ra,5
 544:	0000                	unimp
 546:	d602                	sw	zero,44(sp)
 548:	0001                	nop
 54a:	2600                	fld	fs0,8(a2)
 54c:	0404                	addi	s1,sp,512
 54e:	0095                	addi	ra,ra,5
 550:	0000                	unimp
 552:	6d5f5f03          	lhu	t5,1749(t5)
 556:	2600                	fld	fs0,8(a2)
 558:	0404                	addi	s1,sp,512
 55a:	0095                	addi	ra,ra,5
 55c:	0000                	unimp
 55e:	0500                	addi	s0,sp,640
 560:	057d                	addi	a0,a0,31
 562:	0000                	unimp
 564:	a802                	fsd	ft0,16(sp)
 566:	0001                	nop
 568:	3200                	fld	fs0,32(a2)
 56a:	0404                	addi	s1,sp,512
 56c:	0095                	addi	ra,ra,5
 56e:	0000                	unimp
 570:	615f5f03          	lhu	t5,1557(t5)
 574:	3200                	fld	fs0,32(a2)
 576:	0404                	addi	s1,sp,512
 578:	0095                	addi	ra,ra,5
 57a:	0000                	unimp
 57c:	0500                	addi	s0,sp,640
 57e:	000005d7          	0x5d7
 582:	fe02                	fsw	ft0,60(sp)
 584:	0000                	unimp
 586:	4b00                	lw	s0,16(a4)
 588:	0804                	addi	s1,sp,16
 58a:	0095                	addi	ra,ra,5
 58c:	0000                	unimp
 58e:	f902                	fsw	ft0,176(sp)
 590:	0000                	unimp
 592:	4b00                	lw	s0,16(a4)
 594:	0804                	addi	s1,sp,16
 596:	0095                	addi	ra,ra,5
 598:	0000                	unimp
 59a:	9402                	jalr	s0
 59c:	0001                	nop
 59e:	4b00                	lw	s0,16(a4)
 5a0:	0804                	addi	s1,sp,16
 5a2:	0095                	addi	ra,ra,5
 5a4:	0000                	unimp
 5a6:	8f02                	jr	t5
 5a8:	0001                	nop
 5aa:	4b00                	lw	s0,16(a4)
 5ac:	0804                	addi	s1,sp,16
 5ae:	0095                	addi	ra,ra,5
 5b0:	0000                	unimp
 5b2:	db02                	sw	zero,180(sp)
 5b4:	0001                	nop
 5b6:	4b00                	lw	s0,16(a4)
 5b8:	0804                	addi	s1,sp,16
 5ba:	0095                	addi	ra,ra,5
 5bc:	0000                	unimp
 5be:	d602                	sw	zero,44(sp)
 5c0:	0001                	nop
 5c2:	4b00                	lw	s0,16(a4)
 5c4:	0804                	addi	s1,sp,16
 5c6:	0095                	addi	ra,ra,5
 5c8:	0000                	unimp
 5ca:	6d5f5f03          	lhu	t5,1749(t5)
 5ce:	4b00                	lw	s0,16(a4)
 5d0:	0804                	addi	s1,sp,16
 5d2:	0095                	addi	ra,ra,5
 5d4:	0000                	unimp
 5d6:	0500                	addi	s0,sp,640
 5d8:	0631                	addi	a2,a2,12
 5da:	0000                	unimp
 5dc:	fe02                	fsw	ft0,60(sp)
 5de:	0000                	unimp
 5e0:	5000                	lw	s0,32(s0)
 5e2:	0404                	addi	s1,sp,512
 5e4:	0095                	addi	ra,ra,5
 5e6:	0000                	unimp
 5e8:	f902                	fsw	ft0,176(sp)
 5ea:	0000                	unimp
 5ec:	5000                	lw	s0,32(s0)
 5ee:	0404                	addi	s1,sp,512
 5f0:	0095                	addi	ra,ra,5
 5f2:	0000                	unimp
 5f4:	9402                	jalr	s0
 5f6:	0001                	nop
 5f8:	5000                	lw	s0,32(s0)
 5fa:	0404                	addi	s1,sp,512
 5fc:	0095                	addi	ra,ra,5
 5fe:	0000                	unimp
 600:	8f02                	jr	t5
 602:	0001                	nop
 604:	5000                	lw	s0,32(s0)
 606:	0404                	addi	s1,sp,512
 608:	0095                	addi	ra,ra,5
 60a:	0000                	unimp
 60c:	db02                	sw	zero,180(sp)
 60e:	0001                	nop
 610:	5000                	lw	s0,32(s0)
 612:	0404                	addi	s1,sp,512
 614:	0095                	addi	ra,ra,5
 616:	0000                	unimp
 618:	d602                	sw	zero,44(sp)
 61a:	0001                	nop
 61c:	5000                	lw	s0,32(s0)
 61e:	0404                	addi	s1,sp,512
 620:	0095                	addi	ra,ra,5
 622:	0000                	unimp
 624:	6d5f5f03          	lhu	t5,1749(t5)
 628:	5000                	lw	s0,32(s0)
 62a:	0404                	addi	s1,sp,512
 62c:	0095                	addi	ra,ra,5
 62e:	0000                	unimp
 630:	0500                	addi	s0,sp,640
 632:	0000064f          	fnmadd.s	fa2,ft0,ft0,ft0,rne
 636:	a802                	fsd	ft0,16(sp)
 638:	0001                	nop
 63a:	7300                	flw	fs0,32(a4)
 63c:	0404                	addi	s1,sp,512
 63e:	0095                	addi	ra,ra,5
 640:	0000                	unimp
 642:	615f5f03          	lhu	t5,1557(t5)
 646:	7300                	flw	fs0,32(a4)
 648:	0404                	addi	s1,sp,512
 64a:	0095                	addi	ra,ra,5
 64c:	0000                	unimp
 64e:	0500                	addi	s0,sp,640
 650:	0661                	addi	a2,a2,24
 652:	0000                	unimp
 654:	785f5f03          	lhu	t5,1925(t5)
 658:	8100                	0x8100
 65a:	0504                	addi	s1,sp,640
 65c:	0095                	addi	ra,ra,5
 65e:	0000                	unimp
 660:	1000                	addi	s0,sp,32
 662:	00316d03          	0x316d03
 666:	0491                	addi	s1,s1,4
 668:	0000950f          	0x950f
 66c:	0300                	addi	s0,sp,384
 66e:	306d                	jal	ffffff18 <__BSS_END__+0xfffeb0cc>
 670:	9100                	0x9100
 672:	1304                	addi	s1,sp,416
 674:	0095                	addi	ra,ra,5
 676:	0000                	unimp
 678:	d205                	beqz	a2,598 <main-0xfadc>
 67a:	0006                	c.slli	zero,0x1
 67c:	0200                	addi	s0,sp,256
 67e:	00fe                	slli	ra,ra,0x1f
 680:	0000                	unimp
 682:	049c                	addi	a5,sp,576
 684:	9508                	0x9508
 686:	0000                	unimp
 688:	0200                	addi	s0,sp,256
 68a:	00f9                	addi	ra,ra,30
 68c:	0000                	unimp
 68e:	049c                	addi	a5,sp,576
 690:	9508                	0x9508
 692:	0000                	unimp
 694:	0200                	addi	s0,sp,256
 696:	0194                	addi	a3,sp,192
 698:	0000                	unimp
 69a:	049c                	addi	a5,sp,576
 69c:	9508                	0x9508
 69e:	0000                	unimp
 6a0:	0200                	addi	s0,sp,256
 6a2:	0000018f          	0x18f
 6a6:	049c                	addi	a5,sp,576
 6a8:	9508                	0x9508
 6aa:	0000                	unimp
 6ac:	0200                	addi	s0,sp,256
 6ae:	000001db          	0x1db
 6b2:	049c                	addi	a5,sp,576
 6b4:	9508                	0x9508
 6b6:	0000                	unimp
 6b8:	0200                	addi	s0,sp,256
 6ba:	01d6                	slli	gp,gp,0x15
 6bc:	0000                	unimp
 6be:	049c                	addi	a5,sp,576
 6c0:	9508                	0x9508
 6c2:	0000                	unimp
 6c4:	0300                	addi	s0,sp,384
 6c6:	5f5f 006d 049c      	0x49c006d5f5f
 6cc:	9508                	0x9508
 6ce:	0000                	unimp
 6d0:	0000                	unimp
 6d2:	3805                	jal	ffffff02 <__BSS_END__+0xfffeb0b6>
 6d4:	02000007          	0x2000007
 6d8:	0000014f          	fnmadd.s	ft2,ft0,ft0,ft0,rne
 6dc:	049d                	addi	s1,s1,7
 6de:	9508                	0x9508
 6e0:	0000                	unimp
 6e2:	0200                	addi	s0,sp,256
 6e4:	0154                	addi	a3,sp,132
 6e6:	0000                	unimp
 6e8:	049d                	addi	s1,s1,7
 6ea:	9508                	0x9508
 6ec:	0000                	unimp
 6ee:	0200                	addi	s0,sp,256
 6f0:	0159                	addi	sp,sp,22
 6f2:	0000                	unimp
 6f4:	049d                	addi	s1,s1,7
 6f6:	9508                	0x9508
 6f8:	0000                	unimp
 6fa:	0200                	addi	s0,sp,256
 6fc:	015e                	slli	sp,sp,0x17
 6fe:	0000                	unimp
 700:	049d                	addi	s1,s1,7
 702:	9508                	0x9508
 704:	0000                	unimp
 706:	0200                	addi	s0,sp,256
 708:	01e5                	addi	gp,gp,25
 70a:	0000                	unimp
 70c:	049d                	addi	s1,s1,7
 70e:	9508                	0x9508
 710:	0000                	unimp
 712:	0200                	addi	s0,sp,256
 714:	0108                	addi	a0,sp,128
 716:	0000                	unimp
 718:	049d                	addi	s1,s1,7
 71a:	9508                	0x9508
 71c:	0000                	unimp
 71e:	0200                	addi	s0,sp,256
 720:	01e0                	addi	s0,sp,204
 722:	0000                	unimp
 724:	049d                	addi	s1,s1,7
 726:	9508                	0x9508
 728:	0000                	unimp
 72a:	0200                	addi	s0,sp,256
 72c:	00000103          	lb	sp,0(zero) # 0 <main-0x10074>
 730:	049d                	addi	s1,s1,7
 732:	9508                	0x9508
 734:	0000                	unimp
 736:	0000                	unimp
 738:	4a05                	li	s4,1
 73a:	03000007          	0x3000007
 73e:	5f5f 0078 04a2      	0x4a200785f5f
 744:	9505                	srai	a0,a0,0x21
 746:	0000                	unimp
 748:	0000                	unimp
 74a:	0310                	addi	a2,sp,384
 74c:	5f5f 0078 04aa      	0x4aa00785f5f
 752:	9505                	srai	a0,a0,0x21
 754:	0000                	unimp
 756:	0000                	unimp
 758:	0000                	unimp
 75a:	041f 00ab 0000      	0xab041f
 760:	d400                	sw	s0,40(s0)
 762:	0000                	unimp
 764:	0500                	addi	s0,sp,640
 766:	0100                	addi	s0,sp,128
 768:	a604                	fsd	fs1,8(a2)
 76a:	0001                	nop
 76c:	0300                	addi	s0,sp,384
 76e:	01ea                	slli	gp,gp,0x1a
 770:	0000                	unimp
 772:	001d                	c.nop	7
 774:	0000                	unimp
 776:	2c00                	fld	fs0,24(s0)
 778:	0000                	unimp
 77a:	2700                	fld	fs0,8(a4)
 77c:	04000007          	0x4000007
 780:	0504                	addi	s1,sp,640
 782:	6e69                	lui	t3,0x1a
 784:	0074                	addi	a3,sp,12
 786:	0401                	addi	s0,s0,0
 788:	00012507          	flw	fa0,0(sp)
 78c:	0100                	addi	s0,sp,128
 78e:	0508                	addi	a0,sp,640
 790:	010d                	addi	sp,sp,3
 792:	0000                	unimp
 794:	1001                	c.nop	-32
 796:	c204                	sw	s1,0(a2)
 798:	0001                	nop
 79a:	0100                	addi	s0,sp,128
 79c:	0601                	addi	a2,a2,0
 79e:	00000143          	fmadd.s	ft2,ft0,ft0,ft0,rne
 7a2:	0101                	addi	sp,sp,0
 7a4:	4108                	lw	a0,0(a0)
 7a6:	0001                	nop
 7a8:	0100                	addi	s0,sp,128
 7aa:	0502                	c.slli64	a0
 7ac:	0020                	addi	s0,sp,8
 7ae:	0000                	unimp
 7b0:	0201                	addi	tp,tp,0
 7b2:	00017407          	0x17407
 7b6:	0100                	addi	s0,sp,128
 7b8:	0504                	addi	s1,sp,640
 7ba:	0112                	slli	sp,sp,0x4
 7bc:	0000                	unimp
 7be:	0401                	addi	s0,s0,0
 7c0:	00012007          	flw	ft0,0(sp)
 7c4:	0100                	addi	s0,sp,128
 7c6:	0708                	addi	a0,sp,896
 7c8:	0000011b          	0x11b
 7cc:	0101                	addi	sp,sp,0
 7ce:	4a08                	lw	a0,16(a2)
 7d0:	0001                	nop
 7d2:	0500                	addi	s0,sp,640
 7d4:	00000163          	beqz	zero,7d6 <main-0xf89e>
 7d8:	7b01                	lui	s6,0xfffe0
 7da:	4116                	lw	sp,68(sp)
 7dc:	0000                	unimp
 7de:	0200                	addi	s0,sp,256
 7e0:	0072                	c.slli	zero,0x1c
 7e2:	0000                	unimp
 7e4:	0401                	addi	s0,s0,0
 7e6:	1a04                	addi	s1,sp,304
 7e8:	0000                	unimp
 7ea:	0100                	addi	s0,sp,128
 7ec:	0308                	addi	a0,sp,384
 7ee:	0012                	c.slli	zero,0x4
 7f0:	0000                	unimp
 7f2:	0801                	addi	a6,a6,0
 7f4:	c704                	sw	s1,8(a4)
 7f6:	0001                	nop
 7f8:	0100                	addi	s0,sp,128
 7fa:	0310                	addi	a2,sp,384
 7fc:	0199                	addi	gp,gp,6
 7fe:	0000                	unimp
 800:	2001                	jal	800 <main-0xf874>
 802:	0001ba03          	0x1ba03
 806:	0600                	addi	s0,sp,768
 808:	007e                	c.slli	zero,0x1f
 80a:	0000                	unimp
 80c:	00b6                	slli	ra,ra,0xd
 80e:	0000                	unimp
 810:	00002507          	flw	fa0,0(zero) # 0 <main-0x10074>
 814:	ff00                	fsw	fs0,56(a4)
 816:	0200                	addi	s0,sp,256
 818:	00a6                	slli	ra,ra,0x9
 81a:	0000                	unimp
 81c:	3708                	fld	fa0,40(a4)
 81e:	0001                	nop
 820:	0100                	addi	s0,sp,128
 822:	0202                	c.slli64	tp
 824:	b616                	fsd	ft5,296(sp)
 826:	0000                	unimp
 828:	0900                	addi	s0,sp,144
 82a:	000000bb          	0xbb
 82e:	9e02                	jalr	t3
 830:	0f02                	c.slli64	t5
 832:	0305                	addi	t1,t1,1
 834:	3b5c                	fld	fa5,176(a4)
 836:	0001                	nop
	...

Disassembly of section .debug_abbrev:

00000000 <.debug_abbrev>:
   0:	3401                	jal	fffffa00 <__BSS_END__+0xfffeabb4>
   2:	3100                	fld	fs0,32(a0)
   4:	00170213          	addi	tp,a4,1 # ffff8001 <__BSS_END__+0xfffe31b5>
   8:	0200                	addi	s0,sp,256
   a:	0034                	addi	a3,sp,8
   c:	213a0e03          	lb	t3,531(s4) # 1b213 <__BSS_END__+0x63c7>
  10:	3b01                	jal	fffffd20 <__BSS_END__+0xfffeaed4>
  12:	3905                	jal	fffffc42 <__BSS_END__+0xfffeadf6>
  14:	0013490b          	0x13490b
  18:	0300                	addi	s0,sp,384
  1a:	0034                	addi	a3,sp,8
  1c:	213a0803          	lb	a6,531(s4)
  20:	3b01                	jal	fffffd30 <__BSS_END__+0xfffeaee4>
  22:	3905                	jal	fffffc52 <__BSS_END__+0xfffeae06>
  24:	0013490b          	0x13490b
  28:	0400                	addi	s0,sp,512
  2a:	0024                	addi	s1,sp,8
  2c:	0b3e0b0b          	0xb3e0b0b
  30:	00000e03          	lb	t3,0(zero) # 0 <main-0x10074>
  34:	0b05                	addi	s6,s6,1
  36:	0101                	addi	sp,sp,0
  38:	06000013          	li	zero,96
  3c:	0016                	c.slli	zero,0x5
  3e:	213a0e03          	lb	t3,531(s4)
  42:	3b02                	fld	fs6,32(sp)
  44:	490b390b          	0x490b390b
  48:	07000013          	li	zero,112
  4c:	1331010b          	0x1331010b
  50:	1755                	addi	a4,a4,-11
  52:	1301                	addi	t1,t1,-32
  54:	0000                	unimp
  56:	3408                	fld	fa0,40(s0)
  58:	3100                	fld	fs0,32(a0)
  5a:	09000013          	li	zero,144
  5e:	0026                	c.slli	zero,0x9
  60:	1349                	addi	t1,t1,-14
  62:	0000                	unimp
  64:	050a                	slli	a0,a0,0x2
  66:	3100                	fld	fs0,32(a0)
  68:	00170213          	addi	tp,a4,1
  6c:	0b00                	addi	s0,sp,400
  6e:	0005                	c.nop	1
  70:	213a0803          	lb	a6,531(s4)
  74:	3b01                	jal	fffffd84 <__BSS_END__+0xfffeaf38>
  76:	e321                	bnez	a4,b6 <main-0xffbe>
  78:	490b3907          	fld	fs2,1168(s6) # fffe0490 <__BSS_END__+0xfffcb644>
  7c:	0c000013          	li	zero,192
  80:	000d                	c.nop	3
  82:	213a0803          	lb	a6,531(s4)
  86:	3b02                	fld	fs6,32(sp)
  88:	3905                	jal	fffffcb8 <__BSS_END__+0xfffeae6c>
  8a:	0013490b          	0x13490b
  8e:	0d00                	addi	s0,sp,656
  90:	0005                	c.nop	1
  92:	213a0803          	lb	a6,531(s4)
  96:	3b01                	jal	fffffda6 <__BSS_END__+0xfffeaf5a>
  98:	9221                	srli	a2,a2,0x28
  9a:	390a                	fld	fs2,160(sp)
  9c:	0213490b          	0x213490b
  a0:	0e000017          	auipc	zero,0xe000
  a4:	1331010b          	0x1331010b
  a8:	0111                	addi	sp,sp,4
  aa:	0612                	slli	a2,a2,0x4
  ac:	1301                	addi	t1,t1,-32
  ae:	0000                	unimp
  b0:	31010b0f          	0x31010b0f
  b4:	00175513          	srli	a0,a4,0x1
  b8:	1000                	addi	s0,sp,32
  ba:	0000010b          	0x10b
  be:	1111                	addi	sp,sp,-28
  c0:	2501                	jal	6c0 <main-0xf9b4>
  c2:	130e                	slli	t1,t1,0x23
  c4:	1b1f030b          	0x1b1f030b
  c8:	111f 1201 1006      	0x10061201111f
  ce:	12000017          	auipc	zero,0x12000
  d2:	0024                	addi	s1,sp,8
  d4:	0b3e0b0b          	0xb3e0b0b
  d8:	00000803          	lb	a6,0(zero) # 0 <main-0x10074>
  dc:	03011313          	slli	t1,sp,0x30
  e0:	0b0e                	slli	s6,s6,0x3
  e2:	3b0b3a0b          	0x3b0b3a0b
  e6:	3905                	jal	fffffd16 <__BSS_END__+0xfffeaeca>
  e8:	0013010b          	0x13010b
  ec:	1400                	addi	s0,sp,544
  ee:	000d                	c.nop	3
  f0:	0b3a0803          	lb	a6,179(s4)
  f4:	0b39053b          	0xb39053b
  f8:	1349                	addi	t1,t1,-14
  fa:	0b38                	addi	a4,sp,408
  fc:	0000                	unimp
  fe:	0d15                	addi	s10,s10,5
 100:	0300                	addi	s0,sp,384
 102:	3a0e                	fld	fs4,224(sp)
 104:	39053b0b          	0x39053b0b
 108:	3813490b          	0x3813490b
 10c:	1600000b          	0x1600000b
 110:	0b0b0117          	auipc	sp,0xb0b0
 114:	0b3a                	slli	s6,s6,0xe
 116:	0b39053b          	0xb39053b
 11a:	1301                	addi	t1,t1,-32
 11c:	0000                	unimp
 11e:	03001617          	auipc	a2,0x3001
 122:	3a0e                	fld	fs4,224(sp)
 124:	39053b0b          	0x39053b0b
 128:	0013490b          	0x13490b
 12c:	1800                	addi	s0,sp,48
 12e:	0101                	addi	sp,sp,0
 130:	1349                	addi	t1,t1,-14
 132:	1301                	addi	t1,t1,-32
 134:	0000                	unimp
 136:	2119                	jal	53c <main-0xfb38>
 138:	4900                	lw	s0,16(a0)
 13a:	000b2f13          	slti	t5,s6,0
 13e:	1a00                	addi	s0,sp,304
 140:	0034                	addi	a3,sp,8
 142:	0b3a0e03          	lb	t3,179(s4)
 146:	0b39053b          	0xb39053b
 14a:	1349                	addi	t1,t1,-14
 14c:	193c193f 2e1b0000 	0x2e1b0000193c193f
 154:	3f01                	jal	64 <main-0x10010>
 156:	0319                	addi	t1,t1,6
 158:	3a0e                	fld	fs4,224(sp)
 15a:	39053b0b          	0x39053b0b
 15e:	4919270b          	0x4919270b
 162:	12011113          	0x12011113
 166:	4006                	0x4006
 168:	7a18                	flw	fa4,48(a2)
 16a:	0119                	addi	sp,sp,6
 16c:	1c000013          	li	zero,448
 170:	011d                	addi	sp,sp,7
 172:	1331                	addi	t1,t1,-20
 174:	0152                	slli	sp,sp,0x14
 176:	1755                	addi	a4,a4,-11
 178:	0b58                	addi	a4,sp,404
 17a:	0559                	addi	a0,a0,22
 17c:	00000b57          	0xb57
 180:	0b1d                	addi	s6,s6,7
 182:	5501                	li	a0,-32
 184:	1e000017          	auipc	zero,0x1e000
 188:	012e                	slli	sp,sp,0xb
 18a:	0b3a0e03          	lb	t3,179(s4)
 18e:	0b39053b          	0xb39053b
 192:	13491927          	0x13491927
 196:	0b20                	addi	s0,sp,408
 198:	1301                	addi	t1,t1,-32
 19a:	0000                	unimp
 19c:	0f1f 0b00 490b      	0x490b0b000f1f
 1a2:	00000013          	nop
 1a6:	2401                	jal	3a6 <main-0xfcce>
 1a8:	0b00                	addi	s0,sp,400
 1aa:	030b3e0b          	0x30b3e0b
 1ae:	000e                	c.slli	zero,0x3
 1b0:	0200                	addi	s0,sp,256
 1b2:	0026                	c.slli	zero,0x9
 1b4:	1349                	addi	t1,t1,-14
 1b6:	0000                	unimp
 1b8:	25011103          	lh	sp,592(sp) # b0b0360 <__BSS_END__+0xb09b514>
 1bc:	130e                	slli	t1,t1,0x23
 1be:	1b1f030b          	0x1b1f030b
 1c2:	101f 0017 0400      	0x4000017101f
 1c8:	0024                	addi	s1,sp,8
 1ca:	0b3e0b0b          	0xb3e0b0b
 1ce:	00000803          	lb	a6,0(zero) # 0 <main-0x10074>
 1d2:	1605                	addi	a2,a2,-31
 1d4:	0300                	addi	s0,sp,384
 1d6:	3a0e                	fld	fs4,224(sp)
 1d8:	390b3b0b          	0x390b3b0b
 1dc:	0013490b          	0x13490b
 1e0:	0600                	addi	s0,sp,768
 1e2:	0101                	addi	sp,sp,0
 1e4:	1349                	addi	t1,t1,-14
 1e6:	1301                	addi	t1,t1,-32
 1e8:	0000                	unimp
 1ea:	49002107          	flw	ft2,1168(zero) # 490 <main-0xfbe4>
 1ee:	000b2f13          	slti	t5,s6,0
 1f2:	0800                	addi	s0,sp,16
 1f4:	0034                	addi	a3,sp,8
 1f6:	0b3a0e03          	lb	t3,179(s4)
 1fa:	0b39053b          	0xb39053b
 1fe:	1349                	addi	t1,t1,-14
 200:	193c193f 34090000 	0x34090000193c193f
 208:	4700                	lw	s0,8(a4)
 20a:	3b0b3a13          	sltiu	s4,s6,944
 20e:	3905                	jal	fffffe3e <__BSS_END__+0xfffeaff2>
 210:	0018020b          	0x18020b
	...

Disassembly of section .debug_line:

00000000 <.debug_line>:
   0:	00000723          	sb	zero,14(zero) # e <main-0x10066>
   4:	0005                	c.nop	1
   6:	0004                	0x4
   8:	00000033          	add	zero,zero,zero
   c:	0101                	addi	sp,sp,0
   e:	fb01                	bnez	a4,ffffff1e <__BSS_END__+0xfffeb0d2>
  10:	0d0e                	slli	s10,s10,0x3
  12:	0100                	addi	s0,sp,128
  14:	0101                	addi	sp,sp,0
  16:	0001                	nop
  18:	0000                	unimp
  1a:	0001                	nop
  1c:	0100                	addi	s0,sp,128
  1e:	0101                	addi	sp,sp,0
  20:	021f 002c 0000      	0x2c021f
  26:	008e                	slli	ra,ra,0x3
  28:	0000                	unimp
  2a:	0102                	c.slli64	sp
  2c:	021f 030f 0000      	0x30f021f
  32:	0000                	unimp
  34:	2200                	fld	fs0,0(a2)
  36:	0000                	unimp
  38:	0100                	addi	s0,sp,128
  3a:	00b0                	addi	a2,sp,72
  3c:	0000                	unimp
  3e:	0501                	addi	a0,a0,0
  40:	0001                	nop
  42:	0205                	addi	tp,tp,1
  44:	1884                	addi	s1,sp,112
  46:	0001                	nop
  48:	010a9203          	lh	tp,16(s5)
  4c:	0305                	addi	t1,t1,1
  4e:	00090103          	lb	sp,0(s2) # 13000 <_ZL12residentfont+0xca4>
  52:	0100                	addi	s0,sp,128
  54:	097dd103          	lhu	sp,151(s11)
  58:	0000                	unimp
  5a:	0301                	addi	t1,t1,0
  5c:	0901                	addi	s2,s2,0
  5e:	0000                	unimp
  60:	0301                	addi	t1,t1,0
  62:	0901                	addi	s2,s2,0
  64:	0000                	unimp
  66:	0301                	addi	t1,t1,0
  68:	0901                	addi	s2,s2,0
  6a:	0000                	unimp
  6c:	0301                	addi	t1,t1,0
  6e:	0901                	addi	s2,s2,0
  70:	0000                	unimp
  72:	0301                	addi	t1,t1,0
  74:	0901                	addi	s2,s2,0
  76:	0000                	unimp
  78:	0301                	addi	t1,t1,0
  7a:	0902                	c.slli64	s2
  7c:	0000                	unimp
  7e:	0501                	addi	a0,a0,0
  80:	0601                	addi	a2,a2,0
  82:	0902a703          	lw	a4,144(t0) # 11ff4 <__call_exitprocs+0x68>
  86:	0000                	unimp
  88:	0501                	addi	a0,a0,0
  8a:	0306                	slli	t1,t1,0x1
  8c:	7dd9                	lui	s11,0xffff6
  8e:	0809                	addi	a6,a6,2
  90:	0100                	addi	s0,sp,128
  92:	0305                	addi	t1,t1,1
  94:	0306                	slli	t1,t1,0x1
  96:	0901                	addi	s2,s2,0
  98:	0004                	0x4
  9a:	0301                	addi	t1,t1,0
  9c:	0901                	addi	s2,s2,0
  9e:	0000                	unimp
  a0:	0501                	addi	a0,a0,0
  a2:	0606                	slli	a2,a2,0x1
  a4:	00090003          	lb	zero,0(s2)
  a8:	0100                	addi	s0,sp,128
  aa:	0305                	addi	t1,t1,1
  ac:	0306                	slli	t1,t1,0x1
  ae:	0901                	addi	s2,s2,0
  b0:	0004                	0x4
  b2:	0501                	addi	a0,a0,0
  b4:	0606                	slli	a2,a2,0x1
  b6:	00090003          	lb	zero,0(s2)
  ba:	0100                	addi	s0,sp,128
  bc:	0305                	addi	t1,t1,1
  be:	0306                	slli	t1,t1,0x1
  c0:	0925                	addi	s2,s2,9
  c2:	0004                	0x4
  c4:	0501                	addi	a0,a0,0
  c6:	0606                	slli	a2,a2,0x1
  c8:	00090003          	lb	zero,0(s2)
  cc:	0100                	addi	s0,sp,128
  ce:	0705                	addi	a4,a4,1
  d0:	0306                	slli	t1,t1,0x1
  d2:	0902                	c.slli64	s2
  d4:	0004                	0x4
  d6:	0501                	addi	a0,a0,0
  d8:	060a                	slli	a2,a2,0x2
  da:	08090003          	lb	zero,128(s2)
  de:	0100                	addi	s0,sp,128
  e0:	0405                	addi	s0,s0,1
  e2:	0306                	slli	t1,t1,0x1
  e4:	0904                	addi	s1,sp,144
  e6:	0004                	0x4
  e8:	0301                	addi	t1,t1,0
  ea:	0900                	addi	s0,sp,144
  ec:	0000                	unimp
  ee:	0301                	addi	t1,t1,0
  f0:	0900                	addi	s0,sp,144
  f2:	0000                	unimp
  f4:	0301                	addi	t1,t1,0
  f6:	0900                	addi	s0,sp,144
  f8:	0000                	unimp
  fa:	0301                	addi	t1,t1,0
  fc:	0900                	addi	s0,sp,144
  fe:	0000                	unimp
 100:	0301                	addi	t1,t1,0
 102:	0900                	addi	s0,sp,144
 104:	0014                	0x14
 106:	0301                	addi	t1,t1,0
 108:	0900                	addi	s0,sp,144
 10a:	0018                	0x18
 10c:	0301                	addi	t1,t1,0
 10e:	0902                	c.slli64	s2
 110:	0000                	unimp
 112:	0501                	addi	a0,a0,0
 114:	00030607          	0x30607
 118:	0009                	c.nop	2
 11a:	0100                	addi	s0,sp,128
 11c:	0805                	addi	a6,a6,1
 11e:	0306                	slli	t1,t1,0x1
 120:	0905                	addi	s2,s2,1
 122:	0004                	0x4
 124:	0501                	addi	a0,a0,0
 126:	0611                	addi	a2,a2,4
 128:	00090103          	lb	sp,0(s2)
 12c:	0100                	addi	s0,sp,128
 12e:	1e05                	addi	t3,t3,-31
 130:	04090003          	lb	zero,64(s2)
 134:	0100                	addi	s0,sp,128
 136:	0b05                	addi	s6,s6,1
 138:	04097f03          	0x4097f03
 13c:	0100                	addi	s0,sp,128
 13e:	0805                	addi	a6,a6,1
 140:	0306                	slli	t1,t1,0x1
 142:	0901                	addi	s2,s2,0
 144:	0004                	0x4
 146:	0501                	addi	a0,a0,0
 148:	0003060b          	0x3060b
 14c:	0009                	c.nop	2
 14e:	0100                	addi	s0,sp,128
 150:	0805                	addi	a6,a6,1
 152:	0306                	slli	t1,t1,0x1
 154:	0901                	addi	s2,s2,0
 156:	0004                	0x4
 158:	0501                	addi	a0,a0,0
 15a:	0003060b          	0x3060b
 15e:	0009                	c.nop	2
 160:	0100                	addi	s0,sp,128
 162:	0405                	addi	s0,s0,1
 164:	0306                	slli	t1,t1,0x1
 166:	00040903          	lb	s2,0(s0)
 16a:	0301                	addi	t1,t1,0
 16c:	0900                	addi	s0,sp,144
 16e:	0000                	unimp
 170:	0301                	addi	t1,t1,0
 172:	0900                	addi	s0,sp,144
 174:	0000                	unimp
 176:	0301                	addi	t1,t1,0
 178:	0900                	addi	s0,sp,144
 17a:	0000                	unimp
 17c:	0301                	addi	t1,t1,0
 17e:	0900                	addi	s0,sp,144
 180:	0004                	0x4
 182:	0301                	addi	t1,t1,0
 184:	0900                	addi	s0,sp,144
 186:	000c                	0xc
 188:	0301                	addi	t1,t1,0
 18a:	0900                	addi	s0,sp,144
 18c:	0000                	unimp
 18e:	0301                	addi	t1,t1,0
 190:	0900                	addi	s0,sp,144
 192:	0000                	unimp
 194:	0301                	addi	t1,t1,0
 196:	0900                	addi	s0,sp,144
 198:	000c                	0xc
 19a:	0301                	addi	t1,t1,0
 19c:	0900                	addi	s0,sp,144
 19e:	000c                	0xc
 1a0:	0301                	addi	t1,t1,0
 1a2:	0900                	addi	s0,sp,144
 1a4:	0004                	0x4
 1a6:	0301                	addi	t1,t1,0
 1a8:	0900                	addi	s0,sp,144
 1aa:	0008                	0x8
 1ac:	0301                	addi	t1,t1,0
 1ae:	0900                	addi	s0,sp,144
 1b0:	0004                	0x4
 1b2:	0301                	addi	t1,t1,0
 1b4:	0900                	addi	s0,sp,144
 1b6:	0004                	0x4
 1b8:	0301                	addi	t1,t1,0
 1ba:	0900                	addi	s0,sp,144
 1bc:	0008                	0x8
 1be:	0301                	addi	t1,t1,0
 1c0:	0900                	addi	s0,sp,144
 1c2:	0004                	0x4
 1c4:	0301                	addi	t1,t1,0
 1c6:	0900                	addi	s0,sp,144
 1c8:	0000                	unimp
 1ca:	0301                	addi	t1,t1,0
 1cc:	0900                	addi	s0,sp,144
 1ce:	0004                	0x4
 1d0:	0301                	addi	t1,t1,0
 1d2:	0900                	addi	s0,sp,144
 1d4:	0010                	0x10
 1d6:	0301                	addi	t1,t1,0
 1d8:	0900                	addi	s0,sp,144
 1da:	0008                	0x8
 1dc:	0301                	addi	t1,t1,0
 1de:	0900                	addi	s0,sp,144
 1e0:	0008                	0x8
 1e2:	0301                	addi	t1,t1,0
 1e4:	0900                	addi	s0,sp,144
 1e6:	0008                	0x8
 1e8:	0301                	addi	t1,t1,0
 1ea:	0900                	addi	s0,sp,144
 1ec:	0004                	0x4
 1ee:	0301                	addi	t1,t1,0
 1f0:	0900                	addi	s0,sp,144
 1f2:	0004                	0x4
 1f4:	0301                	addi	t1,t1,0
 1f6:	0900                	addi	s0,sp,144
 1f8:	0004                	0x4
 1fa:	0301                	addi	t1,t1,0
 1fc:	0900                	addi	s0,sp,144
 1fe:	0000                	unimp
 200:	0301                	addi	t1,t1,0
 202:	0900                	addi	s0,sp,144
 204:	0008                	0x8
 206:	0301                	addi	t1,t1,0
 208:	0900                	addi	s0,sp,144
 20a:	0000                	unimp
 20c:	0301                	addi	t1,t1,0
 20e:	0901                	addi	s2,s2,0
 210:	0000                	unimp
 212:	0501                	addi	a0,a0,0
 214:	fe03060b          	0xfe03060b
 218:	0900                	addi	s0,sp,144
 21a:	0000                	unimp
 21c:	0501                	addi	a0,a0,0
 21e:	0e030603          	lb	a2,224(t1) # ffffa0e0 <__BSS_END__+0xfffe5294>
 222:	0409                	addi	s0,s0,2
 224:	0100                	addi	s0,sp,128
 226:	00090103          	lb	sp,0(s2)
 22a:	0100                	addi	s0,sp,128
 22c:	0105                	addi	sp,sp,1
 22e:	0306                	slli	t1,t1,0x1
 230:	00e1                	addi	ra,ra,24
 232:	0009                	c.nop	2
 234:	0100                	addi	s0,sp,128
 236:	0405                	addi	s0,s0,1
 238:	097e8503          	lb	a0,151(t4)
 23c:	0004                	0x4
 23e:	0601                	addi	a2,a2,0
 240:	14091503          	lh	a0,320(s2)
 244:	0100                	addi	s0,sp,128
 246:	0705                	addi	a4,a4,1
 248:	0306                	slli	t1,t1,0x1
 24a:	0900                	addi	s0,sp,144
 24c:	0000                	unimp
 24e:	0501                	addi	a0,a0,0
 250:	0606                	slli	a2,a2,0x1
 252:	04090103          	lb	sp,64(s2)
 256:	0100                	addi	s0,sp,128
 258:	0405                	addi	s0,s0,1
 25a:	04090203          	lb	tp,64(s2)
 25e:	0100                	addi	s0,sp,128
 260:	00090003          	lb	zero,0(s2)
 264:	0100                	addi	s0,sp,128
 266:	00090003          	lb	zero,0(s2)
 26a:	0100                	addi	s0,sp,128
 26c:	00090003          	lb	zero,0(s2)
 270:	0100                	addi	s0,sp,128
 272:	00090003          	lb	zero,0(s2)
 276:	0100                	addi	s0,sp,128
 278:	14090003          	lb	zero,320(s2)
 27c:	0100                	addi	s0,sp,128
 27e:	18090003          	lb	zero,384(s2)
 282:	0100                	addi	s0,sp,128
 284:	00090203          	lb	tp,0(s2)
 288:	0100                	addi	s0,sp,128
 28a:	0705                	addi	a4,a4,1
 28c:	0306                	slli	t1,t1,0x1
 28e:	0900                	addi	s0,sp,144
 290:	0000                	unimp
 292:	0501                	addi	a0,a0,0
 294:	0608                	addi	a0,sp,768
 296:	04090903          	lb	s2,64(s2)
 29a:	0100                	addi	s0,sp,128
 29c:	0b05                	addi	s6,s6,1
 29e:	0306                	slli	t1,t1,0x1
 2a0:	0900                	addi	s0,sp,144
 2a2:	0000                	unimp
 2a4:	0501                	addi	a0,a0,0
 2a6:	0608                	addi	a0,sp,768
 2a8:	04090103          	lb	sp,64(s2)
 2ac:	0100                	addi	s0,sp,128
 2ae:	0b05                	addi	s6,s6,1
 2b0:	0306                	slli	t1,t1,0x1
 2b2:	0900                	addi	s0,sp,144
 2b4:	0000                	unimp
 2b6:	0501                	addi	a0,a0,0
 2b8:	0608                	addi	a0,sp,768
 2ba:	04090d03          	lb	s10,64(s2)
 2be:	0100                	addi	s0,sp,128
 2c0:	0405                	addi	s0,s0,1
 2c2:	00090503          	lb	a0,0(s2)
 2c6:	0100                	addi	s0,sp,128
 2c8:	00090003          	lb	zero,0(s2)
 2cc:	0100                	addi	s0,sp,128
 2ce:	00090003          	lb	zero,0(s2)
 2d2:	0100                	addi	s0,sp,128
 2d4:	00090003          	lb	zero,0(s2)
 2d8:	0100                	addi	s0,sp,128
 2da:	04090003          	lb	zero,64(s2)
 2de:	0100                	addi	s0,sp,128
 2e0:	0c090003          	lb	zero,192(s2)
 2e4:	0100                	addi	s0,sp,128
 2e6:	00090003          	lb	zero,0(s2)
 2ea:	0100                	addi	s0,sp,128
 2ec:	00090003          	lb	zero,0(s2)
 2f0:	0100                	addi	s0,sp,128
 2f2:	10090003          	lb	zero,256(s2)
 2f6:	0100                	addi	s0,sp,128
 2f8:	08090003          	lb	zero,128(s2)
 2fc:	0100                	addi	s0,sp,128
 2fe:	04090003          	lb	zero,64(s2)
 302:	0100                	addi	s0,sp,128
 304:	08090003          	lb	zero,128(s2)
 308:	0100                	addi	s0,sp,128
 30a:	04090003          	lb	zero,64(s2)
 30e:	0100                	addi	s0,sp,128
 310:	04090003          	lb	zero,64(s2)
 314:	0100                	addi	s0,sp,128
 316:	08090003          	lb	zero,128(s2)
 31a:	0100                	addi	s0,sp,128
 31c:	04090003          	lb	zero,64(s2)
 320:	0100                	addi	s0,sp,128
 322:	00090003          	lb	zero,0(s2)
 326:	0100                	addi	s0,sp,128
 328:	04090003          	lb	zero,64(s2)
 32c:	0100                	addi	s0,sp,128
 32e:	10090003          	lb	zero,256(s2)
 332:	0100                	addi	s0,sp,128
 334:	08090003          	lb	zero,128(s2)
 338:	0100                	addi	s0,sp,128
 33a:	08090003          	lb	zero,128(s2)
 33e:	0100                	addi	s0,sp,128
 340:	08090003          	lb	zero,128(s2)
 344:	0100                	addi	s0,sp,128
 346:	04090003          	lb	zero,64(s2)
 34a:	0100                	addi	s0,sp,128
 34c:	04090003          	lb	zero,64(s2)
 350:	0100                	addi	s0,sp,128
 352:	04090003          	lb	zero,64(s2)
 356:	0100                	addi	s0,sp,128
 358:	00090003          	lb	zero,0(s2)
 35c:	0100                	addi	s0,sp,128
 35e:	08090003          	lb	zero,128(s2)
 362:	0100                	addi	s0,sp,128
 364:	0306                	slli	t1,t1,0x1
 366:	0962                	slli	s2,s2,0x18
 368:	0004                	0x4
 36a:	0501                	addi	a0,a0,0
 36c:	0608                	addi	a0,sp,768
 36e:	14091203          	lh	tp,320(s2)
 372:	0100                	addi	s0,sp,128
 374:	00090203          	lb	tp,0(s2)
 378:	0100                	addi	s0,sp,128
 37a:	0b05                	addi	s6,s6,1
 37c:	0306                	slli	t1,t1,0x1
 37e:	0900                	addi	s0,sp,144
 380:	0000                	unimp
 382:	0501                	addi	a0,a0,0
 384:	0608                	addi	a0,sp,768
 386:	04090103          	lb	sp,64(s2)
 38a:	0100                	addi	s0,sp,128
 38c:	0b05                	addi	s6,s6,1
 38e:	0306                	slli	t1,t1,0x1
 390:	0900                	addi	s0,sp,144
 392:	0000                	unimp
 394:	0501                	addi	a0,a0,0
 396:	0608                	addi	a0,sp,768
 398:	04090103          	lb	sp,64(s2)
 39c:	0100                	addi	s0,sp,128
 39e:	0306                	slli	t1,t1,0x1
 3a0:	00000903          	lb	s2,0(zero) # 0 <main-0x10074>
 3a4:	0501                	addi	a0,a0,0
 3a6:	031e                	slli	t1,t1,0x7
 3a8:	097d                	addi	s2,s2,31
 3aa:	0004                	0x4
 3ac:	0501                	addi	a0,a0,0
 3ae:	0901030b          	0x901030b
 3b2:	0004                	0x4
 3b4:	0501                	addi	a0,a0,0
 3b6:	0308                	addi	a0,sp,384
 3b8:	0902                	c.slli64	s2
 3ba:	0004                	0x4
 3bc:	0501                	addi	a0,a0,0
 3be:	0311                	addi	t1,t1,4
 3c0:	097d                	addi	s2,s2,31
 3c2:	0008                	0x8
 3c4:	0501                	addi	a0,a0,0
 3c6:	0308                	addi	a0,sp,384
 3c8:	00040903          	lb	s2,0(s0)
 3cc:	0501                	addi	a0,a0,0
 3ce:	097d030b          	0x97d030b
 3d2:	0004                	0x4
 3d4:	0501                	addi	a0,a0,0
 3d6:	0608                	addi	a0,sp,768
 3d8:	04090103          	lb	sp,64(s2)
 3dc:	0100                	addi	s0,sp,128
 3de:	00090203          	lb	tp,0(s2)
 3e2:	0100                	addi	s0,sp,128
 3e4:	00090003          	lb	zero,0(s2)
 3e8:	0100                	addi	s0,sp,128
 3ea:	00090003          	lb	zero,0(s2)
 3ee:	0100                	addi	s0,sp,128
 3f0:	00090003          	lb	zero,0(s2)
 3f4:	0100                	addi	s0,sp,128
 3f6:	00090003          	lb	zero,0(s2)
 3fa:	0100                	addi	s0,sp,128
 3fc:	00090003          	lb	zero,0(s2)
 400:	0100                	addi	s0,sp,128
 402:	00090003          	lb	zero,0(s2)
 406:	0100                	addi	s0,sp,128
 408:	00090003          	lb	zero,0(s2)
 40c:	0100                	addi	s0,sp,128
 40e:	08090003          	lb	zero,128(s2)
 412:	0100                	addi	s0,sp,128
 414:	0c090003          	lb	zero,192(s2)
 418:	0100                	addi	s0,sp,128
 41a:	08090003          	lb	zero,128(s2)
 41e:	0100                	addi	s0,sp,128
 420:	08090003          	lb	zero,128(s2)
 424:	0100                	addi	s0,sp,128
 426:	04090003          	lb	zero,64(s2)
 42a:	0100                	addi	s0,sp,128
 42c:	04090003          	lb	zero,64(s2)
 430:	0100                	addi	s0,sp,128
 432:	08090003          	lb	zero,128(s2)
 436:	0100                	addi	s0,sp,128
 438:	04090003          	lb	zero,64(s2)
 43c:	0100                	addi	s0,sp,128
 43e:	00090003          	lb	zero,0(s2)
 442:	0100                	addi	s0,sp,128
 444:	04090003          	lb	zero,64(s2)
 448:	0100                	addi	s0,sp,128
 44a:	10090003          	lb	zero,256(s2)
 44e:	0100                	addi	s0,sp,128
 450:	08090003          	lb	zero,128(s2)
 454:	0100                	addi	s0,sp,128
 456:	08090003          	lb	zero,128(s2)
 45a:	0100                	addi	s0,sp,128
 45c:	08090003          	lb	zero,128(s2)
 460:	0100                	addi	s0,sp,128
 462:	04090003          	lb	zero,64(s2)
 466:	0100                	addi	s0,sp,128
 468:	04090003          	lb	zero,64(s2)
 46c:	0100                	addi	s0,sp,128
 46e:	08090003          	lb	zero,128(s2)
 472:	0100                	addi	s0,sp,128
 474:	08090003          	lb	zero,128(s2)
 478:	0100                	addi	s0,sp,128
 47a:	04090003          	lb	zero,64(s2)
 47e:	0100                	addi	s0,sp,128
 480:	0705                	addi	a4,a4,1
 482:	04091503          	lh	a0,64(s2)
 486:	0100                	addi	s0,sp,128
 488:	0a05                	addi	s4,s4,1
 48a:	0306                	slli	t1,t1,0x1
 48c:	0900                	addi	s0,sp,144
 48e:	0000                	unimp
 490:	0501                	addi	a0,a0,0
 492:	0604                	addi	s1,sp,768
 494:	04091303          	lh	t1,64(s2)
 498:	0100                	addi	s0,sp,128
 49a:	00090003          	lb	zero,0(s2)
 49e:	0100                	addi	s0,sp,128
 4a0:	00090003          	lb	zero,0(s2)
 4a4:	0100                	addi	s0,sp,128
 4a6:	00090003          	lb	zero,0(s2)
 4aa:	0100                	addi	s0,sp,128
 4ac:	00090003          	lb	zero,0(s2)
 4b0:	0100                	addi	s0,sp,128
 4b2:	14090003          	lb	zero,320(s2)
 4b6:	0100                	addi	s0,sp,128
 4b8:	20090003          	lb	zero,512(s2)
 4bc:	0100                	addi	s0,sp,128
 4be:	00090103          	lb	sp,0(s2)
 4c2:	0100                	addi	s0,sp,128
 4c4:	0705                	addi	a4,a4,1
 4c6:	0306                	slli	t1,t1,0x1
 4c8:	0900                	addi	s0,sp,144
 4ca:	0000                	unimp
 4cc:	0501                	addi	a0,a0,0
 4ce:	0608                	addi	a0,sp,768
 4d0:	04090a03          	lb	s4,64(s2)
 4d4:	0100                	addi	s0,sp,128
 4d6:	0306                	slli	t1,t1,0x1
 4d8:	0902                	c.slli64	s2
 4da:	0000                	unimp
 4dc:	0501                	addi	a0,a0,0
 4de:	097e030b          	0x97e030b
 4e2:	0004                	0x4
 4e4:	0501                	addi	a0,a0,0
 4e6:	0314                	addi	a3,sp,384
 4e8:	0900                	addi	s0,sp,144
 4ea:	0004                	0x4
 4ec:	0501                	addi	a0,a0,0
 4ee:	0304                	addi	s1,sp,384
 4f0:	0975                	addi	s2,s2,29
 4f2:	000c                	0xc
 4f4:	0501                	addi	a0,a0,0
 4f6:	0608                	addi	a0,sp,768
 4f8:	14091e03          	lh	t3,320(s2)
 4fc:	0100                	addi	s0,sp,128
 4fe:	00090303          	lb	t1,0(s2)
 502:	0100                	addi	s0,sp,128
 504:	00090203          	lb	tp,0(s2)
 508:	0100                	addi	s0,sp,128
 50a:	1e05                	addi	t3,t3,-31
 50c:	0306                	slli	t1,t1,0x1
 50e:	0900                	addi	s0,sp,144
 510:	0000                	unimp
 512:	0501                	addi	a0,a0,0
 514:	0311                	addi	t1,t1,4
 516:	0900                	addi	s0,sp,144
 518:	0004                	0x4
 51a:	0501                	addi	a0,a0,0
 51c:	0900030b          	0x900030b
 520:	0004                	0x4
 522:	0501                	addi	a0,a0,0
 524:	0608                	addi	a0,sp,768
 526:	04090103          	lb	sp,64(s2)
 52a:	0100                	addi	s0,sp,128
 52c:	0b05                	addi	s6,s6,1
 52e:	0306                	slli	t1,t1,0x1
 530:	0901                	addi	s2,s2,0
 532:	0000                	unimp
 534:	0501                	addi	a0,a0,0
 536:	0311                	addi	t1,t1,4
 538:	0901                	addi	s2,s2,0
 53a:	0004                	0x4
 53c:	0501                	addi	a0,a0,0
 53e:	031e                	slli	t1,t1,0x7
 540:	0900                	addi	s0,sp,144
 542:	0004                	0x4
 544:	0501                	addi	a0,a0,0
 546:	0900030b          	0x900030b
 54a:	0004                	0x4
 54c:	0501                	addi	a0,a0,0
 54e:	0308                	addi	a0,sp,384
 550:	00040903          	lb	s2,0(s0)
 554:	0501                	addi	a0,a0,0
 556:	097b030b          	0x97b030b
 55a:	0010                	0x10
 55c:	0501                	addi	a0,a0,0
 55e:	0608                	addi	a0,sp,768
 560:	04090103          	lb	sp,64(s2)
 564:	0100                	addi	s0,sp,128
 566:	00090103          	lb	sp,0(s2)
 56a:	0100                	addi	s0,sp,128
 56c:	00090103          	lb	sp,0(s2)
 570:	0100                	addi	s0,sp,128
 572:	00090203          	lb	tp,0(s2)
 576:	0100                	addi	s0,sp,128
 578:	00090003          	lb	zero,0(s2)
 57c:	0100                	addi	s0,sp,128
 57e:	00090003          	lb	zero,0(s2)
 582:	0100                	addi	s0,sp,128
 584:	00090003          	lb	zero,0(s2)
 588:	0100                	addi	s0,sp,128
 58a:	00090003          	lb	zero,0(s2)
 58e:	0100                	addi	s0,sp,128
 590:	00090003          	lb	zero,0(s2)
 594:	0100                	addi	s0,sp,128
 596:	00090003          	lb	zero,0(s2)
 59a:	0100                	addi	s0,sp,128
 59c:	00090003          	lb	zero,0(s2)
 5a0:	0100                	addi	s0,sp,128
 5a2:	08090003          	lb	zero,128(s2)
 5a6:	0100                	addi	s0,sp,128
 5a8:	0c090003          	lb	zero,192(s2)
 5ac:	0100                	addi	s0,sp,128
 5ae:	08090003          	lb	zero,128(s2)
 5b2:	0100                	addi	s0,sp,128
 5b4:	08090003          	lb	zero,128(s2)
 5b8:	0100                	addi	s0,sp,128
 5ba:	04090003          	lb	zero,64(s2)
 5be:	0100                	addi	s0,sp,128
 5c0:	04090003          	lb	zero,64(s2)
 5c4:	0100                	addi	s0,sp,128
 5c6:	08090003          	lb	zero,128(s2)
 5ca:	0100                	addi	s0,sp,128
 5cc:	04090003          	lb	zero,64(s2)
 5d0:	0100                	addi	s0,sp,128
 5d2:	00090003          	lb	zero,0(s2)
 5d6:	0100                	addi	s0,sp,128
 5d8:	04090003          	lb	zero,64(s2)
 5dc:	0100                	addi	s0,sp,128
 5de:	10090003          	lb	zero,256(s2)
 5e2:	0100                	addi	s0,sp,128
 5e4:	08090003          	lb	zero,128(s2)
 5e8:	0100                	addi	s0,sp,128
 5ea:	08090003          	lb	zero,128(s2)
 5ee:	0100                	addi	s0,sp,128
 5f0:	08090003          	lb	zero,128(s2)
 5f4:	0100                	addi	s0,sp,128
 5f6:	04090003          	lb	zero,64(s2)
 5fa:	0100                	addi	s0,sp,128
 5fc:	04090003          	lb	zero,64(s2)
 600:	0100                	addi	s0,sp,128
 602:	08090003          	lb	zero,128(s2)
 606:	0100                	addi	s0,sp,128
 608:	0306                	slli	t1,t1,0x1
 60a:	0901                	addi	s2,s2,0
 60c:	0004                	0x4
 60e:	0301                	addi	t1,t1,0
 610:	097f                	0x97f
 612:	0004                	0x4
 614:	0301                	addi	t1,t1,0
 616:	0901                	addi	s2,s2,0
 618:	0004                	0x4
 61a:	0301                	addi	t1,t1,0
 61c:	097f                	0x97f
 61e:	0008                	0x8
 620:	0601                	addi	a2,a2,0
 622:	04090003          	lb	zero,64(s2)
 626:	0100                	addi	s0,sp,128
 628:	00090003          	lb	zero,0(s2)
 62c:	0100                	addi	s0,sp,128
 62e:	00090003          	lb	zero,0(s2)
 632:	0100                	addi	s0,sp,128
 634:	00090103          	lb	sp,0(s2)
 638:	0100                	addi	s0,sp,128
 63a:	00090003          	lb	zero,0(s2)
 63e:	0100                	addi	s0,sp,128
 640:	00090003          	lb	zero,0(s2)
 644:	0100                	addi	s0,sp,128
 646:	00090003          	lb	zero,0(s2)
 64a:	0100                	addi	s0,sp,128
 64c:	00090003          	lb	zero,0(s2)
 650:	0100                	addi	s0,sp,128
 652:	08090003          	lb	zero,128(s2)
 656:	0100                	addi	s0,sp,128
 658:	00090003          	lb	zero,0(s2)
 65c:	0100                	addi	s0,sp,128
 65e:	04090003          	lb	zero,64(s2)
 662:	0100                	addi	s0,sp,128
 664:	04090003          	lb	zero,64(s2)
 668:	0100                	addi	s0,sp,128
 66a:	00090003          	lb	zero,0(s2)
 66e:	0100                	addi	s0,sp,128
 670:	04090003          	lb	zero,64(s2)
 674:	0100                	addi	s0,sp,128
 676:	08090003          	lb	zero,128(s2)
 67a:	0100                	addi	s0,sp,128
 67c:	04090003          	lb	zero,64(s2)
 680:	0100                	addi	s0,sp,128
 682:	08090003          	lb	zero,128(s2)
 686:	0100                	addi	s0,sp,128
 688:	04090003          	lb	zero,64(s2)
 68c:	0100                	addi	s0,sp,128
 68e:	04090003          	lb	zero,64(s2)
 692:	0100                	addi	s0,sp,128
 694:	08090003          	lb	zero,128(s2)
 698:	0100                	addi	s0,sp,128
 69a:	00090003          	lb	zero,0(s2)
 69e:	0100                	addi	s0,sp,128
 6a0:	00090203          	lb	tp,0(s2)
 6a4:	0100                	addi	s0,sp,128
 6a6:	0b05                	addi	s6,s6,1
 6a8:	0306                	slli	t1,t1,0x1
 6aa:	0900                	addi	s0,sp,144
 6ac:	0000                	unimp
 6ae:	0501                	addi	a0,a0,0
 6b0:	0314                	addi	a3,sp,384
 6b2:	0900                	addi	s0,sp,144
 6b4:	0004                	0x4
 6b6:	0501                	addi	a0,a0,0
 6b8:	0308                	addi	a0,sp,384
 6ba:	097e                	slli	s2,s2,0x1f
 6bc:	0004                	0x4
 6be:	0501                	addi	a0,a0,0
 6c0:	097d030b          	0x97d030b
 6c4:	0014                	0x14
 6c6:	0501                	addi	a0,a0,0
 6c8:	0308                	addi	a0,sp,384
 6ca:	00040903          	lb	s2,0(s0)
 6ce:	0501                	addi	a0,a0,0
 6d0:	0908030b          	0x908030b
 6d4:	0004                	0x4
 6d6:	0501                	addi	a0,a0,0
 6d8:	0321                	addi	t1,t1,8
 6da:	097a                	slli	s2,s2,0x1e
 6dc:	0004                	0x4
 6de:	0501                	addi	a0,a0,0
 6e0:	0605                	addi	a2,a2,1
 6e2:	04090203          	lb	tp,64(s2)
 6e6:	0100                	addi	s0,sp,128
 6e8:	0705                	addi	a4,a4,1
 6ea:	0306                	slli	t1,t1,0x1
 6ec:	0900                	addi	s0,sp,144
 6ee:	0000                	unimp
 6f0:	0501                	addi	a0,a0,0
 6f2:	0605                	addi	a2,a2,1
 6f4:	04090103          	lb	sp,64(s2)
 6f8:	0100                	addi	s0,sp,128
 6fa:	00090003          	lb	zero,0(s2)
 6fe:	0100                	addi	s0,sp,128
 700:	00090003          	lb	zero,0(s2)
 704:	0100                	addi	s0,sp,128
 706:	00090003          	lb	zero,0(s2)
 70a:	0100                	addi	s0,sp,128
 70c:	00090003          	lb	zero,0(s2)
 710:	0100                	addi	s0,sp,128
 712:	0705                	addi	a4,a4,1
 714:	0306                	slli	t1,t1,0x1
 716:	00040943          	fmadd.s	fs2,fs0,ft0,ft0,rne
 71a:	0301                	addi	t1,t1,0
 71c:	097f                	0x97f
 71e:	0004                	0x4
 720:	0901                	addi	s2,s2,0
 722:	0008                	0x8
 724:	0100                	addi	s0,sp,128
 726:	3b01                	jal	436 <main-0xfc3e>
 728:	0000                	unimp
 72a:	0500                	addi	s0,sp,640
 72c:	0400                	addi	s0,sp,512
 72e:	3300                	fld	fs0,32(a4)
 730:	0000                	unimp
 732:	0100                	addi	s0,sp,128
 734:	0101                	addi	sp,sp,0
 736:	000d0efb          	0xd0efb
 73a:	0101                	addi	sp,sp,0
 73c:	0101                	addi	sp,sp,0
 73e:	0000                	unimp
 740:	0100                	addi	s0,sp,128
 742:	0000                	unimp
 744:	0101                	addi	sp,sp,0
 746:	1f01                	addi	t5,t5,-32
 748:	2c02                	fld	fs8,0(sp)
 74a:	0000                	unimp
 74c:	8e00                	0x8e00
 74e:	0000                	unimp
 750:	0200                	addi	s0,sp,256
 752:	1f01                	addi	t5,t5,-32
 754:	0f02                	c.slli64	t5
 756:	00000003          	lb	zero,0(zero) # 0 <main-0x10074>
 75a:	0000                	unimp
 75c:	00b0                	addi	a2,sp,72
 75e:	0000                	unimp
 760:	2201                	jal	860 <main-0xf814>
 762:	0000                	unimp
 764:	0100                	addi	s0,sp,128

Disassembly of section .debug_str:

00000000 <.debug_str>:
   0:	5744                	lw	s1,44(a4)
   2:	6e75                	lui	t3,0x1d
   4:	6f69                	lui	t5,0x1a
   6:	006e                	c.slli	zero,0x1b
   8:	5f5f 6475 7669      	0x766964755f5f
   e:	6964                	flw	fs1,84(a0)
  10:	6f630033          	0x6f630033
  14:	706d                	c.lui	zero,0xffffb
  16:	656c                	flw	fa1,76(a0)
  18:	2078                	fld	fa4,192(s0)
  1a:	6c66                	flw	fs8,88(sp)
  1c:	0074616f          	jal	sp,46822 <__BSS_END__+0x319d6>
  20:	726f6873          	csrrsi	a6,0x726,30
  24:	2074                	fld	fa3,192(s0)
  26:	6e69                	lui	t3,0x1a
  28:	0074                	addi	a3,sp,12
  2a:	20554e47          	fmsub.s	ft8,fa0,ft5,ft4,rmm
  2e:	20373143          	fmadd.s	ft2,fa4,ft3,ft4,rup
  32:	3131                	jal	fffffc3e <__BSS_END__+0xfffeadf2>
  34:	312e                	fld	ft2,232(sp)
  36:	302e                	fld	ft0,232(sp)
  38:	2d20                	fld	fs0,88(a0)
  3a:	636d                	lui	t1,0x1b
  3c:	6f6d                	lui	t5,0x1b
  3e:	6564                	flw	fs1,76(a0)
  40:	3d6c                	fld	fa1,248(a0)
  42:	656d                	lui	a0,0x1b
  44:	6c64                	flw	fs1,92(s0)
  46:	2d20776f          	jal	a4,7318 <main-0x8d5c>
  4a:	616d                	addi	sp,sp,240
  4c:	6372                	flw	ft6,28(sp)
  4e:	3d68                	fld	fa0,248(a0)
  50:	7672                	flw	fa2,60(sp)
  52:	6d693233          	0x6d693233
  56:	2066                	fld	ft0,88(sp)
  58:	6d2d                	lui	s10,0xb
  5a:	6261                	lui	tp,0x18
  5c:	3d69                	jal	fffffef6 <__BSS_END__+0xfffeb0aa>
  5e:	6c69                	lui	s8,0x1a
  60:	3370                	fld	fa2,224(a4)
  62:	6632                	flw	fa2,12(sp)
  64:	2d20                	fld	fs0,88(a0)
  66:	636d                	lui	t1,0x1b
  68:	6f6d                	lui	t5,0x1b
  6a:	6564                	flw	fs1,76(a0)
  6c:	3d6c                	fld	fa1,248(a0)
  6e:	656d                	lui	a0,0x1b
  70:	6c64                	flw	fs1,92(s0)
  72:	2d20776f          	jal	a4,7344 <main-0x8d30>
  76:	746d                	lui	s0,0xffffb
  78:	6e75                	lui	t3,0x1d
  7a:	3d65                	jal	ffffff32 <__BSS_END__+0xfffeb0e6>
  7c:	6f72                	flw	ft10,28(sp)
  7e:	74656b63          	bltu	a0,t1,7d4 <main-0xf8a0>
  82:	2d20                	fld	fs0,88(a0)
  84:	616d                	addi	sp,sp,240
  86:	6372                	flw	ft6,28(sp)
  88:	3d68                	fld	fa0,248(a0)
  8a:	7672                	flw	fa2,60(sp)
  8c:	6d693233          	0x6d693233
  90:	2066                	fld	ft0,88(sp)
  92:	672d                	lui	a4,0xb
  94:	2d20                	fld	fs0,88(a0)
  96:	2d20734f          	0x2d20734f
  9a:	2d20324f          	0x2d20324f
  9e:	2d20734f          	0x2d20734f
  a2:	6266                	flw	ft4,88(sp)
  a4:	6975                	lui	s2,0x1d
  a6:	646c                	flw	fa1,76(s0)
  a8:	6e69                	lui	t3,0x1a
  aa:	696c2d67          	0x696c2d67
  ae:	6762                	flw	fa4,24(sp)
  b0:	2d206363          	bltu	zero,s2,376 <main-0xfcfe>
  b4:	6e66                	flw	ft8,88(sp)
  b6:	74732d6f          	jal	s10,32ffc <__BSS_END__+0x1e1b0>
  ba:	6361                	lui	t1,0x18
  bc:	72702d6b          	0x72702d6b
  c0:	6365746f          	jal	s0,576f6 <__BSS_END__+0x428aa>
  c4:	6f74                	flw	fa3,92(a4)
  c6:	2072                	fld	ft0,280(sp)
  c8:	662d                	lui	a2,0xb
  ca:	7361                	lui	t1,0xffff8
  cc:	6e79                	lui	t3,0x1e
  ce:	6f726863          	bltu	tp,s7,7be <main-0xf8b6>
  d2:	6f6e                	flw	ft10,216(sp)
  d4:	7375                	lui	t1,0xffffd
  d6:	752d                	lui	a0,0xfffeb
  d8:	776e                	flw	fa4,248(sp)
  da:	6e69                	lui	t3,0x1a
  dc:	2d64                	fld	fs1,216(a0)
  de:	6174                	flw	fa3,68(a0)
  e0:	6c62                	flw	fs8,24(sp)
  e2:	7365                	lui	t1,0xffff9
  e4:	2d20                	fld	fs0,88(a0)
  e6:	7666                	flw	fa2,120(sp)
  e8:	7369                	lui	t1,0xffffa
  ea:	6269                	lui	tp,0x1a
  ec:	6c69                	lui	s8,0x1a
  ee:	7469                	lui	s0,0xffffa
  f0:	3d79                	jal	ffffff8e <__BSS_END__+0xfffeb142>
  f2:	6968                	flw	fa0,84(a0)
  f4:	6464                	flw	fs1,76(s0)
  f6:	6e65                	lui	t3,0x19
  f8:	5f00                	lw	s0,56(a4)
  fa:	645f 0030 5f5f      	0x5f5f0030645f
 100:	3164                	fld	fs1,224(a0)
 102:	5f00                	lw	s0,56(a4)
 104:	765f 0068 5f5f      	0x5f5f0068765f
 10a:	6c76                	flw	fs8,92(sp)
 10c:	6c00                	flw	fs0,24(s0)
 10e:	20676e6f          	jal	t3,76314 <__BSS_END__+0x614c8>
 112:	6f6c                	flw	fa1,92(a4)
 114:	676e                	flw	fa4,216(sp)
 116:	6920                	flw	fs0,80(a0)
 118:	746e                	flw	fs0,248(sp)
 11a:	6c00                	flw	fs0,24(s0)
 11c:	20676e6f          	jal	t3,76322 <__BSS_END__+0x614d6>
 120:	6f6c                	flw	fa1,92(a4)
 122:	676e                	flw	fa4,216(sp)
 124:	7520                	flw	fs0,104(a0)
 126:	736e                	flw	ft6,248(sp)
 128:	6769                	lui	a4,0x1a
 12a:	656e                	flw	fa0,216(sp)
 12c:	2064                	fld	fs1,192(s0)
 12e:	6e69                	lui	t3,0x1a
 130:	0074                	addi	a3,sp,12
 132:	6968                	flw	fa0,84(a0)
 134:	5f006867          	0x5f006867
 138:	635f 7a6c 745f      	0x745f7a6c635f
 13e:	6261                	lui	tp,0x18
 140:	7500                	flw	fs0,40(a0)
 142:	736e                	flw	ft6,248(sp)
 144:	6769                	lui	a4,0x1a
 146:	656e                	flw	fa0,216(sp)
 148:	2064                	fld	fs1,192(s0)
 14a:	72616863          	bltu	sp,t1,87a <main-0xf7fa>
 14e:	5f00                	lw	s0,56(a4)
 150:	785f 0030 5f5f      	0x5f5f0030785f
 156:	3178                	fld	fa4,224(a0)
 158:	5f00                	lw	s0,56(a4)
 15a:	785f 0032 5f5f      	0x5f5f0032785f
 160:	3378                	fld	fa4,224(a4)
 162:	5500                	lw	s0,40(a0)
 164:	4951                	li	s2,20
 166:	7974                	flw	fa3,116(a0)
 168:	6570                	flw	fa2,76(a0)
 16a:	4400                	lw	s0,8(s0)
 16c:	72747357          	0x72747357
 170:	6375                	lui	t1,0x1d
 172:	0074                	addi	a3,sp,12
 174:	726f6873          	csrrsi	a6,0x726,30
 178:	2074                	fld	fa3,192(s0)
 17a:	6e75                	lui	t3,0x1d
 17c:	6e676973          	csrrsi	s2,0x6e6,14
 180:	6465                	lui	s0,0x19
 182:	6920                	flw	fs0,80(a0)
 184:	746e                	flw	fs0,248(sp)
 186:	5500                	lw	s0,40(a0)
 188:	4944                	lw	s1,20(a0)
 18a:	7974                	flw	fa3,116(a0)
 18c:	6570                	flw	fa2,76(a0)
 18e:	5f00                	lw	s0,56(a4)
 190:	715f 0030 5f5f      	0x5f5f0030715f
 196:	3171                	jal	fffffe22 <__BSS_END__+0xfffeafd6>
 198:	6300                	flw	fs0,0(a4)
 19a:	6c706d6f          	jal	s10,7060 <main-0x9014>
 19e:	7865                	lui	a6,0xffff9
 1a0:	6420                	flw	fs0,72(s0)
 1a2:	6c62756f          	jal	a0,27868 <__BSS_END__+0x12a1c>
 1a6:	0065                	c.nop	25
 1a8:	5f5f 7278 5f00      	0x5f0072785f5f
 1ae:	755f 6964 6d76      	0x6d766964755f
 1b4:	6964646f          	jal	s0,4684a <__BSS_END__+0x319fe>
 1b8:	0034                	addi	a3,sp,8
 1ba:	706d6f63          	bltu	s10,t1,8d8 <main-0xf79c>
 1be:	656c                	flw	fa1,76(a0)
 1c0:	2078                	fld	fa4,192(s0)
 1c2:	6f6c                	flw	fa1,92(a4)
 1c4:	676e                	flw	fa4,216(sp)
 1c6:	6420                	flw	fs0,72(s0)
 1c8:	6c62756f          	jal	a0,2788e <__BSS_END__+0x12a42>
 1cc:	0065                	c.nop	25
 1ce:	5355                	li	t1,-11
 1d0:	7449                	lui	s0,0xffff2
 1d2:	7079                	c.lui	zero,0xffffe
 1d4:	0065                	c.nop	25
 1d6:	5f5f 3072 5f00      	0x5f0030725f5f
 1dc:	725f 0031 5f5f      	0x5f5f0031725f
 1e2:	6875                	lui	a6,0x1d
 1e4:	5f00                	lw	s0,56(a4)
 1e6:	755f 006c 4e47      	0x4e47006c755f
 1ec:	2055                	jal	290 <main-0xfde4>
 1ee:	20373143          	fmadd.s	ft2,fa4,ft3,ft4,rup
 1f2:	3131                	jal	fffffdfe <__BSS_END__+0xfffeafb2>
 1f4:	312e                	fld	ft2,232(sp)
 1f6:	302e                	fld	ft0,232(sp)
 1f8:	2d20                	fld	fs0,88(a0)
 1fa:	636d                	lui	t1,0x1b
 1fc:	6f6d                	lui	t5,0x1b
 1fe:	6564                	flw	fs1,76(a0)
 200:	3d6c                	fld	fa1,248(a0)
 202:	656d                	lui	a0,0x1b
 204:	6c64                	flw	fs1,92(s0)
 206:	2d20776f          	jal	a4,74d8 <main-0x8b9c>
 20a:	616d                	addi	sp,sp,240
 20c:	6372                	flw	ft6,28(sp)
 20e:	3d68                	fld	fa0,248(a0)
 210:	7672                	flw	fa2,60(sp)
 212:	6d693233          	0x6d693233
 216:	2066                	fld	ft0,88(sp)
 218:	6d2d                	lui	s10,0xb
 21a:	6261                	lui	tp,0x18
 21c:	3d69                	jal	b6 <main-0xffbe>
 21e:	6c69                	lui	s8,0x1a
 220:	3370                	fld	fa2,224(a4)
 222:	6632                	flw	fa2,12(sp)
 224:	2d20                	fld	fs0,88(a0)
 226:	636d                	lui	t1,0x1b
 228:	6f6d                	lui	t5,0x1b
 22a:	6564                	flw	fs1,76(a0)
 22c:	3d6c                	fld	fa1,248(a0)
 22e:	656d                	lui	a0,0x1b
 230:	6c64                	flw	fs1,92(s0)
 232:	2d20776f          	jal	a4,7504 <main-0x8b70>
 236:	746d                	lui	s0,0xffffb
 238:	6e75                	lui	t3,0x1d
 23a:	3d65                	jal	f2 <main-0xff82>
 23c:	6f72                	flw	ft10,28(sp)
 23e:	74656b63          	bltu	a0,t1,994 <main-0xf6e0>
 242:	2d20                	fld	fs0,88(a0)
 244:	616d                	addi	sp,sp,240
 246:	6372                	flw	ft6,28(sp)
 248:	3d68                	fld	fa0,248(a0)
 24a:	7672                	flw	fa2,60(sp)
 24c:	6d693233          	0x6d693233
 250:	2066                	fld	ft0,88(sp)
 252:	672d                	lui	a4,0xb
 254:	2d20                	fld	fs0,88(a0)
 256:	2d20734f          	0x2d20734f
 25a:	2d20324f          	0x2d20324f
 25e:	2d20734f          	0x2d20734f
 262:	6266                	flw	ft4,88(sp)
 264:	6975                	lui	s2,0x1d
 266:	646c                	flw	fa1,76(s0)
 268:	6e69                	lui	t3,0x1a
 26a:	696c2d67          	0x696c2d67
 26e:	6762                	flw	fa4,24(sp)
 270:	2d206363          	bltu	zero,s2,536 <main-0xfb3e>
 274:	6e66                	flw	ft8,88(sp)
 276:	74732d6f          	jal	s10,331bc <__BSS_END__+0x1e370>
 27a:	6361                	lui	t1,0x18
 27c:	72702d6b          	0x72702d6b
 280:	6365746f          	jal	s0,578b6 <__BSS_END__+0x42a6a>
 284:	6f74                	flw	fa3,92(a4)
 286:	2072                	fld	ft0,280(sp)
 288:	662d                	lui	a2,0xb
 28a:	6976                	flw	fs2,92(sp)
 28c:	69626973          	csrrsi	s2,0x696,4
 290:	696c                	flw	fa1,84(a0)
 292:	7974                	flw	fa3,116(a0)
 294:	683d                	lui	a6,0xf
 296:	6469                	lui	s0,0x1a
 298:	6564                	flw	fs1,76(a0)
 29a:	006e                	c.slli	zero,0x1b

Disassembly of section .debug_line_str:

00000000 <.debug_line_str>:
   0:	2e2e                	fld	ft8,200(sp)
   2:	2f2e2e2f          	0x2f2e2e2f
   6:	2e2e                	fld	ft8,200(sp)
   8:	2f2e2e2f          	0x2f2e2e2f
   c:	2e2e                	fld	ft8,200(sp)
   e:	722f2e2f          	0x722f2e2f
  12:	7369                	lui	t1,0xffffa
  14:	672d7663          	bgeu	s10,s2,680 <main-0xf9f4>
  18:	6c2f6363          	bltu	t5,sp,6de <main-0xf996>
  1c:	6269                	lui	tp,0x1a
  1e:	2f636367          	0x2f636367
  22:	696c                	flw	fa1,84(a0)
  24:	6762                	flw	fa4,24(sp)
  26:	2e326363          	bltu	tp,gp,30c <main-0xfd68>
  2a:	682f0063          	beq	t5,sp,6aa <main-0xf9ca>
  2e:	2f656d6f          	jal	s10,56324 <__BSS_END__+0x414d8>
  32:	6e65                	lui	t3,0x19
  34:	2f6e6967          	0x2f6e6967
  38:	6972                	flw	fs2,28(sp)
  3a:	2d766373          	csrrsi	t1,0x2d7,12
  3e:	2d756e67          	0x2d756e67
  42:	6f74                	flw	fa3,92(a4)
  44:	68636c6f          	jal	s8,366ca <__BSS_END__+0x2187e>
  48:	6961                	lui	s2,0x18
  4a:	2f6e                	fld	ft10,216(sp)
  4c:	7562                	flw	fa0,56(sp)
  4e:	6c69                	lui	s8,0x1a
  50:	2d64                	fld	fs1,216(a0)
  52:	2d636367          	0x2d636367
  56:	656e                	flw	fa0,216(sp)
  58:	62696c77          	0x62696c77
  5c:	732d                	lui	t1,0xfffeb
  5e:	6174                	flw	fa3,68(a0)
  60:	2f326567          	0x2f326567
  64:	6972                	flw	fs2,28(sp)
  66:	36766373          	csrrsi	t1,0x367,12
  6a:	2d34                	fld	fa3,88(a0)
  6c:	6e75                	lui	t3,0x1d
  6e:	776f6e6b          	0x776f6e6b
  72:	2d6e                	fld	fs10,216(sp)
  74:	6c65                	lui	s8,0x19
  76:	2f66                	fld	ft10,88(sp)
  78:	7672                	flw	fa2,60(sp)
  7a:	6d693233          	0x6d693233
  7e:	2f66                	fld	ft10,88(sp)
  80:	6c69                	lui	s8,0x1a
  82:	3370                	fld	fa2,224(a4)
  84:	6632                	flw	fa2,12(sp)
  86:	62696c2f          	0x62696c2f
  8a:	00636367          	0x636367
  8e:	2e2e                	fld	ft8,200(sp)
  90:	2f2e2e2f          	0x2f2e2e2f
  94:	2e2e                	fld	ft8,200(sp)
  96:	2f2e2e2f          	0x2f2e2e2f
  9a:	2e2e                	fld	ft8,200(sp)
  9c:	722f2e2f          	0x722f2e2f
  a0:	7369                	lui	t1,0xffffa
  a2:	672d7663          	bgeu	s10,s2,70e <main-0xf966>
  a6:	6c2f6363          	bltu	t5,sp,76c <main-0xf908>
  aa:	6269                	lui	tp,0x1a
  ac:	00636367          	0x636367
  b0:	696c                	flw	fa1,84(a0)
  b2:	6762                	flw	fa4,24(sp)
  b4:	2e326363          	bltu	tp,gp,39a <main-0xfcda>
  b8:	0068                	addi	a0,sp,12

Disassembly of section .debug_loclists:

00000000 <.debug_loclists>:
   0:	0a95                	addi	s5,s5,5
   2:	0000                	unimp
   4:	0005                	c.nop	1
   6:	0004                	0x4
   8:	0000                	unimp
   a:	0000                	unimp
   c:	01188407          	0x1188407
  10:	bc00                	fsd	fs0,56(s0)
  12:	0118                	addi	a4,sp,128
  14:	0600                	addi	s0,sp,768
  16:	935a                	add	t1,t1,s6
  18:	5b04                	lw	s1,48(a4)
  1a:	bc070493          	addi	s1,a4,-1088 # abc0 <main-0x54b4>
  1e:	0118                	addi	a4,sp,128
  20:	7c00                	flw	fs0,56(s0)
  22:	0119                	addi	sp,sp,6
  24:	0600                	addi	s0,sp,768
  26:	0aa503a3          	sb	a0,167(a0) # 1b0a7 <__BSS_END__+0x625b>
  2a:	9f26                	add	t5,t5,s1
  2c:	01197c07          	0x1197c07
  30:	8000                	0x8000
  32:	0119                	addi	sp,sp,6
  34:	0600                	addi	s0,sp,768
  36:	935a                	add	t1,t1,s6
  38:	5b04                	lw	s1,48(a4)
  3a:	80070493          	addi	s1,a4,-2048
  3e:	0119                	addi	sp,sp,6
  40:	9000                	0x9000
  42:	0119                	addi	sp,sp,6
  44:	0600                	addi	s0,sp,768
  46:	0aa503a3          	sb	a0,167(a0)
  4a:	9f26                	add	t5,t5,s1
  4c:	01199007          	0x1199007
  50:	d000                	sw	s0,32(s0)
  52:	0119                	addi	sp,sp,6
  54:	0600                	addi	s0,sp,768
  56:	935a                	add	t1,t1,s6
  58:	5b04                	lw	s1,48(a4)
  5a:	d0070493          	addi	s1,a4,-768
  5e:	0119                	addi	sp,sp,6
  60:	5c00                	lw	s0,56(s0)
  62:	011a                	slli	sp,sp,0x6
  64:	0600                	addi	s0,sp,768
  66:	0aa503a3          	sb	a0,167(a0)
  6a:	9f26                	add	t5,t5,s1
  6c:	011a5c07          	0x11a5c07
  70:	7c00                	flw	fs0,56(s0)
  72:	011a                	slli	sp,sp,0x6
  74:	0600                	addi	s0,sp,768
  76:	935a                	add	t1,t1,s6
  78:	5b04                	lw	s1,48(a4)
  7a:	7c070493          	addi	s1,a4,1984
  7e:	011a                	slli	sp,sp,0x6
  80:	1c00                	addi	s0,sp,560
  82:	0600011b          	0x600011b
  86:	0aa503a3          	sb	a0,167(a0)
  8a:	9f26                	add	t5,t5,s1
  8c:	011b1c07          	0x11b1c07
  90:	5c00                	lw	s0,56(s0)
  92:	0600011b          	0x600011b
  96:	935a                	add	t1,t1,s6
  98:	5b04                	lw	s1,48(a4)
  9a:	5c070493          	addi	s1,a4,1472
  9e:	6c00011b          	0x6c00011b
  a2:	0600011b          	0x600011b
  a6:	0aa503a3          	sb	a0,167(a0)
  aa:	9f26                	add	t5,t5,s1
  ac:	011b6c07          	0x11b6c07
  b0:	bc00                	fsd	fs0,56(s0)
  b2:	0600011b          	0x600011b
  b6:	935a                	add	t1,t1,s6
  b8:	5b04                	lw	s1,48(a4)
  ba:	bc070493          	addi	s1,a4,-1088
  be:	a800011b          	0xa800011b
  c2:	011c                	addi	a5,sp,128
  c4:	0600                	addi	s0,sp,768
  c6:	0aa503a3          	sb	a0,167(a0)
  ca:	9f26                	add	t5,t5,s1
  cc:	011ca807          	flw	fa6,17(s9)
  d0:	b000                	fsd	fs0,32(s0)
  d2:	011c                	addi	a5,sp,128
  d4:	0600                	addi	s0,sp,768
  d6:	935a                	add	t1,t1,s6
  d8:	5b04                	lw	s1,48(a4)
  da:	b0070493          	addi	s1,a4,-1280
  de:	011c                	addi	a5,sp,128
  e0:	b400                	fsd	fs0,40(s0)
  e2:	011c                	addi	a5,sp,128
  e4:	0600                	addi	s0,sp,768
  e6:	0aa503a3          	sb	a0,167(a0)
  ea:	9f26                	add	t5,t5,s1
  ec:	0700                	addi	s0,sp,896
  ee:	1884                	addi	s1,sp,112
  f0:	0001                	nop
  f2:	18f8                	addi	a4,sp,124
  f4:	0001                	nop
  f6:	5c06                	lw	s8,96(sp)
  f8:	935d0493          	addi	s1,s10,-1739 # a935 <main-0x573f>
  fc:	0704                	addi	s1,sp,896
  fe:	18f8                	addi	a4,sp,124
 100:	0001                	nop
 102:	197c                	addi	a5,sp,188
 104:	0001                	nop
 106:	a306                	fsd	ft1,384(sp)
 108:	260ca503          	lw	a0,608(s9)
 10c:	079f 197c 0001      	0x1197c079f
 112:	19d0                	addi	a2,sp,244
 114:	0001                	nop
 116:	5c06                	lw	s8,96(sp)
 118:	935d0493          	addi	s1,s10,-1739
 11c:	0704                	addi	s1,sp,896
 11e:	19d0                	addi	a2,sp,244
 120:	0001                	nop
 122:	1a5c                	addi	a5,sp,308
 124:	0001                	nop
 126:	a306                	fsd	ft1,384(sp)
 128:	260ca503          	lw	a0,608(s9)
 12c:	079f 1a5c 0001      	0x11a5c079f
 132:	1a8c                	addi	a1,sp,368
 134:	0001                	nop
 136:	5c06                	lw	s8,96(sp)
 138:	935d0493          	addi	s1,s10,-1739
 13c:	0704                	addi	s1,sp,896
 13e:	1a8c                	addi	a1,sp,368
 140:	0001                	nop
 142:	1b1c                	addi	a5,sp,432
 144:	0001                	nop
 146:	a306                	fsd	ft1,384(sp)
 148:	260ca503          	lw	a0,608(s9)
 14c:	079f 1b1c 0001      	0x11b1c079f
 152:	1bb0                	addi	a2,sp,504
 154:	0001                	nop
 156:	5c06                	lw	s8,96(sp)
 158:	935d0493          	addi	s1,s10,-1739
 15c:	0704                	addi	s1,sp,896
 15e:	1bb0                	addi	a2,sp,504
 160:	0001                	nop
 162:	1ca8                	addi	a0,sp,632
 164:	0001                	nop
 166:	a306                	fsd	ft1,384(sp)
 168:	260ca503          	lw	a0,608(s9)
 16c:	079f 1ca8 0001      	0x11ca8079f
 172:	1cb4                	addi	a3,sp,632
 174:	0001                	nop
 176:	5c06                	lw	s8,96(sp)
 178:	935d0493          	addi	s1,s10,-1739
 17c:	0004                	0x4
 17e:	01188407          	0x1188407
 182:	7800                	flw	fs0,48(s0)
 184:	0119                	addi	sp,sp,6
 186:	0200                	addi	s0,sp,256
 188:	9f30                	0x9f30
 18a:	01197c07          	0x1197c07
 18e:	b400                	fsd	fs0,40(s0)
 190:	011c                	addi	a5,sp,128
 192:	0200                	addi	s0,sp,256
 194:	9f30                	0x9f30
 196:	0700                	addi	s0,sp,896
 198:	1884                	addi	s1,sp,112
 19a:	0001                	nop
 19c:	18ac                	addi	a1,sp,120
 19e:	0001                	nop
 1a0:	5c06                	lw	s8,96(sp)
 1a2:	935d0493          	addi	s1,s10,-1739
 1a6:	0704                	addi	s1,sp,896
 1a8:	1990                	addi	a2,sp,240
 1aa:	0001                	nop
 1ac:	19a4                	addi	s1,sp,248
 1ae:	0001                	nop
 1b0:	5c06                	lw	s8,96(sp)
 1b2:	935d0493          	addi	s1,s10,-1739
 1b6:	0704                	addi	s1,sp,896
 1b8:	1a5c                	addi	a5,sp,308
 1ba:	0001                	nop
 1bc:	1a64                	addi	s1,sp,316
 1be:	0001                	nop
 1c0:	5c06                	lw	s8,96(sp)
 1c2:	935d0493          	addi	s1,s10,-1739
 1c6:	0704                	addi	s1,sp,896
 1c8:	1b1c                	addi	a5,sp,432
 1ca:	0001                	nop
 1cc:	1b88                	addi	a0,sp,496
 1ce:	0001                	nop
 1d0:	5c06                	lw	s8,96(sp)
 1d2:	935d0493          	addi	s1,s10,-1739
 1d6:	0704                	addi	s1,sp,896
 1d8:	1ca8                	addi	a0,sp,632
 1da:	0001                	nop
 1dc:	1cb4                	addi	a3,sp,632
 1de:	0001                	nop
 1e0:	5c06                	lw	s8,96(sp)
 1e2:	935d0493          	addi	s1,s10,-1739
 1e6:	0004                	0x4
 1e8:	01188407          	0x1188407
 1ec:	a000                	fsd	fs0,0(s0)
 1ee:	0118                	addi	a4,sp,128
 1f0:	0600                	addi	s0,sp,768
 1f2:	935a                	add	t1,t1,s6
 1f4:	5b04                	lw	s1,48(a4)
 1f6:	a0070493          	addi	s1,a4,-1536
 1fa:	0118                	addi	a4,sp,128
 1fc:	bc00                	fsd	fs0,56(s0)
 1fe:	0118                	addi	a4,sp,128
 200:	0600                	addi	s0,sp,768
 202:	935a                	add	t1,t1,s6
 204:	5f04                	lw	s1,56(a4)
 206:	bc070493          	addi	s1,a4,-1088
 20a:	0118                	addi	a4,sp,128
 20c:	dc00                	sw	s0,56(s0)
 20e:	0118                	addi	a4,sp,128
 210:	0600                	addi	s0,sp,768
 212:	9356                	add	t1,t1,s5
 214:	5f04                	lw	s1,56(a4)
 216:	dc070493          	addi	s1,a4,-576
 21a:	0118                	addi	a4,sp,128
 21c:	f400                	fsw	fs0,40(s0)
 21e:	0118                	addi	a4,sp,128
 220:	0600                	addi	s0,sp,768
 222:	9356                	add	t1,t1,s5
 224:	6104                	flw	fs1,0(a0)
 226:	7c070493          	addi	s1,a4,1984
 22a:	0119                	addi	sp,sp,6
 22c:	9c00                	0x9c00
 22e:	0119                	addi	sp,sp,6
 230:	0600                	addi	s0,sp,768
 232:	9356                	add	t1,t1,s5
 234:	5f04                	lw	s1,56(a4)
 236:	9c070493          	addi	s1,a4,-1600
 23a:	0119                	addi	sp,sp,6
 23c:	d000                	sw	s0,32(s0)
 23e:	0119                	addi	sp,sp,6
 240:	0600                	addi	s0,sp,768
 242:	9356                	add	t1,t1,s5
 244:	6104                	flw	fs1,0(a0)
 246:	5c070493          	addi	s1,a4,1472
 24a:	011a                	slli	sp,sp,0x6
 24c:	8800                	0x8800
 24e:	011a                	slli	sp,sp,0x6
 250:	0600                	addi	s0,sp,768
 252:	9356                	add	t1,t1,s5
 254:	6104                	flw	fs1,0(a0)
 256:	1c070493          	addi	s1,a4,448
 25a:	3c00011b          	0x3c00011b
 25e:	0600011b          	0x600011b
 262:	9356                	add	t1,t1,s5
 264:	5b04                	lw	s1,48(a4)
 266:	3c070493          	addi	s1,a4,960
 26a:	6c00011b          	0x6c00011b
 26e:	0600011b          	0x600011b
 272:	9356                	add	t1,t1,s5
 274:	6104                	flw	fs1,0(a0)
 276:	6c070493          	addi	s1,a4,1728
 27a:	8000011b          	0x8000011b
 27e:	0600011b          	0x600011b
 282:	9356                	add	t1,t1,s5
 284:	5b04                	lw	s1,48(a4)
 286:	80070493          	addi	s1,a4,-2048
 28a:	9400011b          	0x9400011b
 28e:	0600011b          	0x600011b
 292:	9356                	add	t1,t1,s5
 294:	6104                	flw	fs1,0(a0)
 296:	a8070493          	addi	s1,a4,-1408
 29a:	011c                	addi	a5,sp,128
 29c:	ac00                	fsd	fs0,24(s0)
 29e:	011c                	addi	a5,sp,128
 2a0:	0600                	addi	s0,sp,768
 2a2:	9356                	add	t1,t1,s5
 2a4:	5b04                	lw	s1,48(a4)
 2a6:	ac070493          	addi	s1,a4,-1344
 2aa:	011c                	addi	a5,sp,128
 2ac:	b400                	fsd	fs0,40(s0)
 2ae:	011c                	addi	a5,sp,128
 2b0:	0600                	addi	s0,sp,768
 2b2:	9356                	add	t1,t1,s5
 2b4:	5f04                	lw	s1,56(a4)
 2b6:	07000493          	li	s1,112
 2ba:	1890                	addi	a2,sp,112
 2bc:	0001                	nop
 2be:	18d8                	addi	a4,sp,116
 2c0:	0001                	nop
 2c2:	5c01                	li	s8,-32
 2c4:	0118d807          	0x118d807
 2c8:	e400                	fsw	fs0,8(s0)
 2ca:	0118                	addi	a4,sp,128
 2cc:	0900                	addi	s0,sp,144
 2ce:	007c                	addi	a5,sp,12
 2d0:	ff08007b          	0xff08007b
 2d4:	241a                	fld	fs0,384(sp)
 2d6:	079f 18e4 0001      	0x118e4079f
 2dc:	1974                	addi	a3,sp,188
 2de:	0001                	nop
 2e0:	5e01                	li	t3,-32
 2e2:	01197c07          	0x1197c07
 2e6:	d000                	sw	s0,32(s0)
 2e8:	0119                	addi	sp,sp,6
 2ea:	0100                	addi	s0,sp,128
 2ec:	075c                	addi	a5,sp,900
 2ee:	19d0                	addi	a2,sp,244
 2f0:	0001                	nop
 2f2:	1a5c                	addi	a5,sp,308
 2f4:	0001                	nop
 2f6:	5e01                	li	t3,-32
 2f8:	011a5c07          	0x11a5c07
 2fc:	7000                	flw	fs0,32(s0)
 2fe:	011a                	slli	sp,sp,0x6
 300:	0100                	addi	s0,sp,128
 302:	075c                	addi	a5,sp,900
 304:	1a70                	addi	a2,sp,316
 306:	0001                	nop
 308:	1a74                	addi	a3,sp,316
 30a:	0001                	nop
 30c:	7c09                	lui	s8,0xfffe2
 30e:	7b00                	flw	fs0,48(a4)
 310:	0800                	addi	s0,sp,16
 312:	1aff                	0x1aff
 314:	9f24                	0x9f24
 316:	011a7407          	0x11a7407
 31a:	1c00                	addi	s0,sp,560
 31c:	0100011b          	0x100011b
 320:	075e                	slli	a4,a4,0x17
 322:	1b1c                	addi	a5,sp,432
 324:	0001                	nop
 326:	1c48                	addi	a0,sp,564
 328:	0001                	nop
 32a:	5c01                	li	s8,-32
 32c:	011ca807          	flw	fa6,17(s9)
 330:	b400                	fsd	fs0,40(s0)
 332:	011c                	addi	a5,sp,128
 334:	0100                	addi	s0,sp,128
 336:	005c                	addi	a5,sp,4
 338:	01189007          	0x1189007
 33c:	ac00                	fsd	fs0,24(s0)
 33e:	0118                	addi	a4,sp,128
 340:	0100                	addi	s0,sp,128
 342:	075d                	addi	a4,a4,23
 344:	1990                	addi	a2,sp,240
 346:	0001                	nop
 348:	19a4                	addi	s1,sp,248
 34a:	0001                	nop
 34c:	5d01                	li	s10,-32
 34e:	011a5c07          	0x11a5c07
 352:	6400                	flw	fs0,8(s0)
 354:	011a                	slli	sp,sp,0x6
 356:	0100                	addi	s0,sp,128
 358:	075d                	addi	a4,a4,23
 35a:	1b1c                	addi	a5,sp,432
 35c:	0001                	nop
 35e:	1b88                	addi	a0,sp,496
 360:	0001                	nop
 362:	5d01                	li	s10,-32
 364:	011b8c07          	0x11b8c07
 368:	3400                	fld	fs0,40(s0)
 36a:	011c                	addi	a5,sp,128
 36c:	0100                	addi	s0,sp,128
 36e:	075d                	addi	a4,a4,23
 370:	1ca8                	addi	a0,sp,632
 372:	0001                	nop
 374:	1cb4                	addi	a3,sp,632
 376:	0001                	nop
 378:	5d01                	li	s10,-32
 37a:	0700                	addi	s0,sp,896
 37c:	1894                	addi	a3,sp,112
 37e:	0001                	nop
 380:	18bc                	addi	a5,sp,120
 382:	0001                	nop
 384:	5a01                	li	s4,-32
 386:	0118bc07          	fld	fs8,17(a7) # 9994241 <__BSS_END__+0x997f3f5>
 38a:	ec00                	fsw	fs0,24(s0)
 38c:	0118                	addi	a4,sp,128
 38e:	0100                	addi	s0,sp,128
 390:	0756                	slli	a4,a4,0x15
 392:	18ec                	addi	a1,sp,124
 394:	0001                	nop
 396:	193c                	addi	a5,sp,184
 398:	0001                	nop
 39a:	6001                	0x6001
 39c:	01197c07          	0x1197c07
 3a0:	d000                	sw	s0,32(s0)
 3a2:	0119                	addi	sp,sp,6
 3a4:	0100                	addi	s0,sp,128
 3a6:	0756                	slli	a4,a4,0x15
 3a8:	19d0                	addi	a2,sp,244
 3aa:	0001                	nop
 3ac:	1a20                	addi	s0,sp,312
 3ae:	0001                	nop
 3b0:	6001                	0x6001
 3b2:	011a5c07          	0x11a5c07
 3b6:	8800                	0x8800
 3b8:	011a                	slli	sp,sp,0x6
 3ba:	0100                	addi	s0,sp,128
 3bc:	0756                	slli	a4,a4,0x15
 3be:	1a98                	addi	a4,sp,368
 3c0:	0001                	nop
 3c2:	1b1c                	addi	a5,sp,432
 3c4:	0001                	nop
 3c6:	6001                	0x6001
 3c8:	011b1c07          	0x11b1c07
 3cc:	b000                	fsd	fs0,32(s0)
 3ce:	0100011b          	0x100011b
 3d2:	0756                	slli	a4,a4,0x15
 3d4:	1bb0                	addi	a2,sp,504
 3d6:	0001                	nop
 3d8:	1c94                	addi	a3,sp,624
 3da:	0001                	nop
 3dc:	7606                	flw	fa2,96(sp)
 3de:	7b00                	flw	fs0,48(a4)
 3e0:	2400                	fld	fs0,8(s0)
 3e2:	079f 1ca8 0001      	0x11ca8079f
 3e8:	1cb4                	addi	a3,sp,632
 3ea:	0001                	nop
 3ec:	5601                	li	a2,-32
 3ee:	0700                	addi	s0,sp,896
 3f0:	1898                	addi	a4,sp,112
 3f2:	0001                	nop
 3f4:	18a0                	addi	s0,sp,120
 3f6:	0001                	nop
 3f8:	5b01                	li	s6,-32
 3fa:	0118a007          	flw	ft0,17(a7)
 3fe:	dc00                	sw	s0,56(s0)
 400:	0118                	addi	a4,sp,128
 402:	0100                	addi	s0,sp,128
 404:	075f 18dc 0001      	0x118dc075f
 40a:	18e8                	addi	a0,sp,124
 40c:	0001                	nop
 40e:	6101                	addi	sp,sp,0
 410:	0118e807          	0x118e807
 414:	0000                	unimp
 416:	0119                	addi	sp,sp,6
 418:	0100                	addi	s0,sp,128
 41a:	075f 197c 0001      	0x1197c075f
 420:	199c                	addi	a5,sp,240
 422:	0001                	nop
 424:	5f01                	li	t5,-32
 426:	01199c07          	0x1199c07
 42a:	cc00                	sw	s0,24(s0)
 42c:	0119                	addi	sp,sp,6
 42e:	0100                	addi	s0,sp,128
 430:	0761                	addi	a4,a4,24
 432:	19cc                	addi	a1,sp,244
 434:	0001                	nop
 436:	19e8                	addi	a0,sp,252
 438:	0001                	nop
 43a:	5f01                	li	t5,-32
 43c:	011a5c07          	0x11a5c07
 440:	9000                	0x9000
 442:	011a                	slli	sp,sp,0x6
 444:	0100                	addi	s0,sp,128
 446:	0761                	addi	a4,a4,24
 448:	1a98                	addi	a4,sp,368
 44a:	0001                	nop
 44c:	1ad8                	addi	a4,sp,372
 44e:	0001                	nop
 450:	5f01                	li	t5,-32
 452:	011b1807          	0x11b1807
 456:	1c00                	addi	s0,sp,560
 458:	0100011b          	0x100011b
 45c:	075f 1b1c 0001      	0x11b1c075f
 462:	1b3c                	addi	a5,sp,440
 464:	0001                	nop
 466:	5b01                	li	s6,-32
 468:	011b3c07          	fld	fs8,17(s6)
 46c:	6c00                	flw	fs0,24(s0)
 46e:	0100011b          	0x100011b
 472:	0761                	addi	a4,a4,24
 474:	1b6c                	addi	a1,sp,444
 476:	0001                	nop
 478:	1b80                	addi	s0,sp,496
 47a:	0001                	nop
 47c:	5b01                	li	s6,-32
 47e:	011b8007          	0x11b8007
 482:	9400                	0x9400
 484:	0100011b          	0x100011b
 488:	0761                	addi	a4,a4,24
 48a:	1bb0                	addi	a2,sp,504
 48c:	0001                	nop
 48e:	1bf0                	addi	a2,sp,508
 490:	0001                	nop
 492:	5f01                	li	t5,-32
 494:	011c3c07          	fld	fs8,17(s8) # fffe2011 <__BSS_END__+0xfffcd1c5>
 498:	8000                	0x8000
 49a:	011c                	addi	a5,sp,128
 49c:	0100                	addi	s0,sp,128
 49e:	075f 1ca8 0001      	0x11ca8075f
 4a4:	1cac                	addi	a1,sp,632
 4a6:	0001                	nop
 4a8:	5b01                	li	s6,-32
 4aa:	011cac07          	flw	fs8,17(s9)
 4ae:	b400                	fsd	fs0,40(s0)
 4b0:	011c                	addi	a5,sp,128
 4b2:	0100                	addi	s0,sp,128
 4b4:	005f 7807 011a      	0x11a7807005f
 4ba:	9c00                	0x9c00
 4bc:	011a                	slli	sp,sp,0x6
 4be:	0100                	addi	s0,sp,128
 4c0:	075d                	addi	a4,a4,23
 4c2:	1bb0                	addi	a2,sp,504
 4c4:	0001                	nop
 4c6:	1bb4                	addi	a3,sp,504
 4c8:	0001                	nop
 4ca:	5e01                	li	t3,-32
 4cc:	0700                	addi	s0,sp,896
 4ce:	1974                	addi	a3,sp,188
 4d0:	0001                	nop
 4d2:	1978                	addi	a4,sp,188
 4d4:	0001                	nop
 4d6:	5a01                	li	s4,-32
 4d8:	011a5807          	0x11a5807
 4dc:	5c00                	lw	s0,56(s0)
 4de:	011a                	slli	sp,sp,0x6
 4e0:	0100                	addi	s0,sp,128
 4e2:	075a                	slli	a4,a4,0x16
 4e4:	1c3c                	addi	a5,sp,568
 4e6:	0001                	nop
 4e8:	1ca8                	addi	a0,sp,632
 4ea:	0001                	nop
 4ec:	5a01                	li	s4,-32
 4ee:	0700                	addi	s0,sp,896
 4f0:	19cc                	addi	a1,sp,244
 4f2:	0001                	nop
 4f4:	19d0                	addi	a2,sp,244
 4f6:	0001                	nop
 4f8:	3102                	fld	ft2,32(sp)
 4fa:	079f 19d0 0001      	0x119d0079f
 500:	1a5c                	addi	a5,sp,308
 502:	0001                	nop
 504:	5b01                	li	s6,-32
 506:	011b1807          	0x11b1807
 50a:	1c00                	addi	s0,sp,560
 50c:	0100011b          	0x100011b
 510:	7007005b          	0x7007005b
 514:	011a                	slli	sp,sp,0x6
 516:	8000                	0x8000
 518:	011a                	slli	sp,sp,0x6
 51a:	0100                	addi	s0,sp,128
 51c:	075f 1b80 0001      	0x11b80075f
 522:	1b98                	addi	a4,sp,496
 524:	0001                	nop
 526:	5f01                	li	t5,-32
 528:	0700                	addi	s0,sp,896
 52a:	18d4                	addi	a3,sp,116
 52c:	0001                	nop
 52e:	18f0                	addi	a2,sp,124
 530:	0001                	nop
 532:	5b01                	li	s6,-32
 534:	0119c407          	flq	fs0,17(s3)
 538:	d000                	sw	s0,32(s0)
 53a:	0119                	addi	sp,sp,6
 53c:	0100                	addi	s0,sp,128
 53e:	1a70075b          	0x1a70075b
 542:	0001                	nop
 544:	1aa4                	addi	s1,sp,376
 546:	0001                	nop
 548:	5b01                	li	s6,-32
 54a:	011b5407          	0x11b5407
 54e:	6c00                	flw	fs0,24(s0)
 550:	0100011b          	0x100011b
 554:	1b80075b          	0x1b80075b
 558:	0001                	nop
 55a:	1c9c                	addi	a5,sp,624
 55c:	0001                	nop
 55e:	5b01                	li	s6,-32
 560:	0700                	addi	s0,sp,896
 562:	18a8                	addi	a0,sp,120
 564:	0001                	nop
 566:	18d8                	addi	a4,sp,116
 568:	0001                	nop
 56a:	5c01                	li	s8,-32
 56c:	0118d807          	0x118d807
 570:	e400                	fsw	fs0,8(s0)
 572:	0118                	addi	a4,sp,128
 574:	0900                	addi	s0,sp,144
 576:	007c                	addi	a5,sp,12
 578:	ff08007b          	0xff08007b
 57c:	241a                	fld	fs0,384(sp)
 57e:	079f 18e4 0001      	0x118e4079f
 584:	1974                	addi	a3,sp,188
 586:	0001                	nop
 588:	5e01                	li	t3,-32
 58a:	01197c07          	0x1197c07
 58e:	9000                	0x9000
 590:	0119                	addi	sp,sp,6
 592:	0100                	addi	s0,sp,128
 594:	005c                	addi	a5,sp,4
 596:	0118bc07          	fld	fs8,17(a7)
 59a:	d000                	sw	s0,32(s0)
 59c:	0118                	addi	a4,sp,128
 59e:	0100                	addi	s0,sp,128
 5a0:	005d                	c.nop	23
 5a2:	0118f007          	0x118f007
 5a6:	7400                	flw	fs0,40(s0)
 5a8:	0119                	addi	sp,sp,6
 5aa:	0100                	addi	s0,sp,128
 5ac:	fc07005b          	0xfc07005b
 5b0:	0118                	addi	a4,sp,128
 5b2:	7400                	flw	fs0,40(s0)
 5b4:	0119                	addi	sp,sp,6
 5b6:	0100                	addi	s0,sp,128
 5b8:	005c                	addi	a5,sp,4
 5ba:	0118fc07          	0x118fc07
 5be:	2000                	fld	fs0,0(s0)
 5c0:	0119                	addi	sp,sp,6
 5c2:	0100                	addi	s0,sp,128
 5c4:	0756                	slli	a4,a4,0x15
 5c6:	1920                	addi	s0,sp,184
 5c8:	0001                	nop
 5ca:	1970                	addi	a2,sp,188
 5cc:	0001                	nop
 5ce:	5a01                	li	s4,-32
 5d0:	0700                	addi	s0,sp,896
 5d2:	1938                	addi	a4,sp,184
 5d4:	0001                	nop
 5d6:	1960                	addi	s0,sp,188
 5d8:	0001                	nop
 5da:	6101                	addi	sp,sp,0
 5dc:	01196007          	0x1196007
 5e0:	7400                	flw	fs0,40(s0)
 5e2:	0119                	addi	sp,sp,6
 5e4:	0100                	addi	s0,sp,128
 5e6:	005f fc07 0118      	0x118fc07005f
 5ec:	0000                	unimp
 5ee:	0119                	addi	sp,sp,6
 5f0:	0600                	addi	s0,sp,768
 5f2:	007f                	0x7f
 5f4:	9f1d007b          	0x9f1d007b
 5f8:	01190007          	0x1190007
 5fc:	1000                	addi	s0,sp,32
 5fe:	0119                	addi	sp,sp,6
 600:	0100                	addi	s0,sp,128
 602:	075f 1914 0001      	0x11914075f
 608:	191c                	addi	a5,sp,176
 60a:	0001                	nop
 60c:	5f01                	li	t5,-32
 60e:	01191c07          	0x1191c07
 612:	2000                	fld	fs0,0(s0)
 614:	0119                	addi	sp,sp,6
 616:	0800                	addi	s0,sp,16
 618:	0080                	addi	s0,sp,64
 61a:	2540                	fld	fs0,136(a0)
 61c:	007d                	c.nop	31
 61e:	9f21                	0x9f21
 620:	01192007          	flw	ft0,17(s2) # 18011 <__BSS_END__+0x31c5>
 624:	4400                	lw	s0,8(s0)
 626:	0119                	addi	sp,sp,6
 628:	0100                	addi	s0,sp,128
 62a:	005f 3407 0119      	0x1193407005f
 630:	4400                	lw	s0,8(s0)
 632:	0119                	addi	sp,sp,6
 634:	0600                	addi	s0,sp,768
 636:	007f                	0x7f
 638:	9f1d007b          	0x9f1d007b
 63c:	01194407          	flq	fs0,17(s2)
 640:	4c00                	lw	s0,24(s0)
 642:	0119                	addi	sp,sp,6
 644:	0100                	addi	s0,sp,128
 646:	075f 1950 0001      	0x11950075f
 64c:	195c                	addi	a5,sp,180
 64e:	0001                	nop
 650:	6001                	0x6001
 652:	0700                	addi	s0,sp,896
 654:	1908                	addi	a0,sp,176
 656:	0001                	nop
 658:	1938                	addi	a4,sp,184
 65a:	0001                	nop
 65c:	6101                	addi	sp,sp,0
 65e:	01193807          	fld	fa6,17(s2)
 662:	4800                	lw	s0,16(s0)
 664:	0119                	addi	sp,sp,6
 666:	0600                	addi	s0,sp,768
 668:	007c                	addi	a5,sp,12
 66a:	0076                	c.slli	zero,0x1d
 66c:	9f1e                	add	t5,t5,t2
 66e:	01194807          	flq	fa6,17(s2)
 672:	7400                	flw	fs0,40(s0)
 674:	0119                	addi	sp,sp,6
 676:	0100                	addi	s0,sp,128
 678:	005d                	c.nop	23
 67a:	011c7407          	0x11c7407
 67e:	a400                	fsd	fs0,8(s0)
 680:	011c                	addi	a5,sp,128
 682:	0100                	addi	s0,sp,128
 684:	005d                	c.nop	23
 686:	011c7407          	0x11c7407
 68a:	8800                	0x8800
 68c:	011c                	addi	a5,sp,128
 68e:	1000                	addi	s0,sp,32
 690:	0081                	addi	ra,ra,0
 692:	ff0a                	fsw	ft2,188(sp)
 694:	1aff                	0x1aff
 696:	007e                	c.slli	zero,0x1f
 698:	ff0a                	fsw	ft2,188(sp)
 69a:	1aff                	0x1aff
 69c:	2440                	fld	fs0,136(s0)
 69e:	9f22                	add	t5,t5,s0
 6a0:	011c8807          	0x11c8807
 6a4:	9000                	0x9000
 6a6:	011c                	addi	a5,sp,128
 6a8:	1500                	addi	s0,sp,672
 6aa:	0081                	addi	ra,ra,0
 6ac:	ff0a                	fsw	ft2,188(sp)
 6ae:	1aff                	0x1aff
 6b0:	0081                	addi	ra,ra,0
 6b2:	2540                	fld	fs0,136(a0)
 6b4:	007c                	addi	a5,sp,12
 6b6:	0a22                	slli	s4,s4,0x8
 6b8:	ffff                	0xffff
 6ba:	401a                	0x401a
 6bc:	2224                	fld	fs1,64(a2)
 6be:	009f b007 011b      	0x11bb007009f
 6c4:	4c00                	lw	s0,24(s0)
 6c6:	011c                	addi	a5,sp,128
 6c8:	0100                	addi	s0,sp,128
 6ca:	0061                	c.nop	24
 6cc:	011bb007          	fld	ft0,17(s7)
 6d0:	fc00                	fsw	fs0,56(s0)
 6d2:	0100011b          	0x100011b
 6d6:	0760                	addi	s0,sp,908
 6d8:	1bfc                	addi	a5,sp,508
 6da:	0001                	nop
 6dc:	1c34                	addi	a3,sp,568
 6de:	0001                	nop
 6e0:	40007d07          	0x40007d07
 6e4:	4024                	lw	s1,64(s0)
 6e6:	9f25                	0x9f25
 6e8:	0700                	addi	s0,sp,896
 6ea:	1bb0                	addi	a2,sp,504
 6ec:	0001                	nop
 6ee:	1bd4                	addi	a3,sp,500
 6f0:	0001                	nop
 6f2:	6d01                	0x6d01
 6f4:	011bd407          	0x11bd407
 6f8:	2800                	fld	fs0,16(s0)
 6fa:	011c                	addi	a5,sp,128
 6fc:	0100                	addi	s0,sp,128
 6fe:	005a                	c.slli	zero,0x16
 700:	011bec07          	0x11bec07
 704:	1400                	addi	s0,sp,544
 706:	011c                	addi	a5,sp,128
 708:	0100                	addi	s0,sp,128
 70a:	076c                	addi	a1,sp,908
 70c:	1c14                	addi	a3,sp,560
 70e:	0001                	nop
 710:	1c38                	addi	a4,sp,568
 712:	0001                	nop
 714:	5e01                	li	t3,-32
 716:	0700                	addi	s0,sp,896
 718:	1bb0                	addi	a2,sp,504
 71a:	0001                	nop
 71c:	1bb4                	addi	a3,sp,504
 71e:	0001                	nop
 720:	7e06                	flw	ft8,96(sp)
 722:	8100                	0x8100
 724:	1d00                	addi	s0,sp,688
 726:	079f 1bb4 0001      	0x11bb4079f
 72c:	1bc0                	addi	s0,sp,500
 72e:	0001                	nop
 730:	5e01                	li	t3,-32
 732:	011bc407          	flq	fs0,17(s7)
 736:	d000                	sw	s0,32(s0)
 738:	0100011b          	0x100011b
 73c:	075e                	slli	a4,a4,0x17
 73e:	1bd4                	addi	a3,sp,500
 740:	0001                	nop
 742:	1bf8                	addi	a4,sp,508
 744:	0001                	nop
 746:	5e01                	li	t3,-32
 748:	0700                	addi	s0,sp,896
 74a:	1be8                	addi	a0,sp,508
 74c:	0001                	nop
 74e:	1bf8                	addi	a4,sp,508
 750:	0001                	nop
 752:	7e06                	flw	ft8,96(sp)
 754:	8100                	0x8100
 756:	1d00                	addi	s0,sp,688
 758:	079f 1bf8 0001      	0x11bf8079f
 75e:	1c00                	addi	s0,sp,560
 760:	0001                	nop
 762:	5e01                	li	t3,-32
 764:	011c0407          	0x11c0407
 768:	1000                	addi	s0,sp,32
 76a:	011c                	addi	a5,sp,128
 76c:	0100                	addi	s0,sp,128
 76e:	075f 1c14 0001      	0x11c14075f
 774:	1c80                	addi	s0,sp,624
 776:	0001                	nop
 778:	5f01                	li	t5,-32
 77a:	0700                	addi	s0,sp,896
 77c:	1bb8                	addi	a4,sp,504
 77e:	0001                	nop
 780:	1bec                	addi	a1,sp,508
 782:	0001                	nop
 784:	6c01                	0x6c01
 786:	011bec07          	0x11bec07
 78a:	fc00                	fsw	fs0,56(s0)
 78c:	0600011b          	0x600011b
 790:	0080                	addi	s0,sp,64
 792:	008d                	addi	ra,ra,3
 794:	9f1e                	add	t5,t5,t2
 796:	011bfc07          	0x11bfc07
 79a:	4400                	lw	s0,8(s0)
 79c:	011c                	addi	a5,sp,128
 79e:	0100                	addi	s0,sp,128
 7a0:	0060                	addi	s0,sp,12
 7a2:	011c4c07          	flq	fs8,17(s8)
 7a6:	9000                	0x9000
 7a8:	011c                	addi	a5,sp,128
 7aa:	0100                	addi	s0,sp,128
 7ac:	0061                	c.nop	24
 7ae:	011c4c07          	flq	fs8,17(s8)
 7b2:	5400                	lw	s0,40(s0)
 7b4:	011c                	addi	a5,sp,128
 7b6:	0600                	addi	s0,sp,768
 7b8:	007e                	c.slli	zero,0x1f
 7ba:	007c                	addi	a5,sp,12
 7bc:	9f1e                	add	t5,t5,t2
 7be:	011c5407          	0x11c5407
 7c2:	5c00                	lw	s0,56(s0)
 7c4:	011c                	addi	a5,sp,128
 7c6:	0100                	addi	s0,sp,128
 7c8:	075e                	slli	a4,a4,0x17
 7ca:	1c64                	addi	s1,sp,572
 7cc:	0001                	nop
 7ce:	1c88                	addi	a0,sp,624
 7d0:	0001                	nop
 7d2:	5e01                	li	t3,-32
 7d4:	011c8807          	0x11c8807
 7d8:	9000                	0x9000
 7da:	011c                	addi	a5,sp,128
 7dc:	0800                	addi	s0,sp,16
 7de:	0081                	addi	ra,ra,0
 7e0:	2540                	fld	fs0,136(a0)
 7e2:	007c                	addi	a5,sp,12
 7e4:	9f22                	add	t5,t5,s0
 7e6:	0700                	addi	s0,sp,896
 7e8:	1c50                	addi	a2,sp,564
 7ea:	0001                	nop
 7ec:	1c70                	addi	a2,sp,572
 7ee:	0001                	nop
 7f0:	5d01                	li	s10,-32
 7f2:	0700                	addi	s0,sp,896
 7f4:	1c58                	addi	a4,sp,564
 7f6:	0001                	nop
 7f8:	1ca8                	addi	a0,sp,632
 7fa:	0001                	nop
 7fc:	6001                	0x6001
 7fe:	0700                	addi	s0,sp,896
 800:	1c3c                	addi	a5,sp,568
 802:	0001                	nop
 804:	1c54                	addi	a3,sp,564
 806:	0001                	nop
 808:	5e01                	li	t3,-32
 80a:	011c5407          	0x11c5407
 80e:	8400                	0x8400
 810:	011c                	addi	a5,sp,128
 812:	0600                	addi	s0,sp,768
 814:	7f8c                	flw	fa1,56(a5)
 816:	007a                	c.slli	zero,0x1e
 818:	9f1a                	add	t5,t5,t1
 81a:	011c8407          	0x11c8407
 81e:	a000                	fsd	fs0,0(s0)
 820:	011c                	addi	a5,sp,128
 822:	0600                	addi	s0,sp,768
 824:	007a                	c.slli	zero,0x1e
 826:	007f                	0x7f
 828:	9f1a                	add	t5,t5,t1
 82a:	011ca007          	flw	ft0,17(s9)
 82e:	a400                	fsd	fs0,8(s0)
 830:	011c                	addi	a5,sp,128
 832:	0600                	addi	s0,sp,768
 834:	7f8c                	flw	fa1,56(a5)
 836:	007a                	c.slli	zero,0x1e
 838:	9f1a                	add	t5,t5,t1
 83a:	011ca407          	flw	fs0,17(s9)
 83e:	a800                	fsd	fs0,16(s0)
 840:	011c                	addi	a5,sp,128
 842:	0600                	addi	s0,sp,768
 844:	017a                	slli	sp,sp,0x1e
 846:	7f8c                	flw	fa1,56(a5)
 848:	9f1a                	add	t5,t5,t1
 84a:	0700                	addi	s0,sp,896
 84c:	1c44                	addi	s1,sp,564
 84e:	0001                	nop
 850:	1c50                	addi	a2,sp,564
 852:	0001                	nop
 854:	5d01                	li	s10,-32
 856:	0700                	addi	s0,sp,896
 858:	1c44                	addi	s1,sp,564
 85a:	0001                	nop
 85c:	1c58                	addi	a4,sp,564
 85e:	0001                	nop
 860:	6001                	0x6001
 862:	011c5807          	0x11c5807
 866:	a400                	fsd	fs0,8(s0)
 868:	011c                	addi	a5,sp,128
 86a:	0500                	addi	s0,sp,640
 86c:	007a                	c.slli	zero,0x1e
 86e:	2540                	fld	fs0,136(a0)
 870:	079f 1ca4 0001      	0x11ca4079f
 876:	1ca8                	addi	a0,sp,632
 878:	0001                	nop
 87a:	7a05                	lui	s4,0xfffe1
 87c:	4001                	c.li	zero,0
 87e:	9f25                	0x9f25
 880:	0700                	addi	s0,sp,896
 882:	1c48                	addi	a0,sp,564
 884:	0001                	nop
 886:	1c5c                	addi	a5,sp,564
 888:	0001                	nop
 88a:	5c01                	li	s8,-32
 88c:	0700                	addi	s0,sp,896
 88e:	1998                	addi	a4,sp,240
 890:	0001                	nop
 892:	19d0                	addi	a2,sp,244
 894:	0001                	nop
 896:	5c01                	li	s8,-32
 898:	0119d007          	0x119d007
 89c:	5c00                	lw	s0,56(s0)
 89e:	011a                	slli	sp,sp,0x6
 8a0:	0100                	addi	s0,sp,128
 8a2:	075e                	slli	a4,a4,0x17
 8a4:	1a5c                	addi	a5,sp,308
 8a6:	0001                	nop
 8a8:	1a70                	addi	a2,sp,316
 8aa:	0001                	nop
 8ac:	5c01                	li	s8,-32
 8ae:	011a7007          	0x11a7007
 8b2:	7400                	flw	fs0,40(s0)
 8b4:	011a                	slli	sp,sp,0x6
 8b6:	0900                	addi	s0,sp,144
 8b8:	007c                	addi	a5,sp,12
 8ba:	ff08007b          	0xff08007b
 8be:	241a                	fld	fs0,384(sp)
 8c0:	079f 1a74 0001      	0x11a74079f
 8c6:	1b1c                	addi	a5,sp,432
 8c8:	0001                	nop
 8ca:	5e01                	li	t3,-32
 8cc:	0700                	addi	s0,sp,896
 8ce:	19ac                	addi	a1,sp,248
 8d0:	0001                	nop
 8d2:	19c0                	addi	s0,sp,244
 8d4:	0001                	nop
 8d6:	5d01                	li	s10,-32
 8d8:	0700                	addi	s0,sp,896
 8da:	19d4                	addi	a3,sp,244
 8dc:	0001                	nop
 8de:	1a5c                	addi	a5,sp,308
 8e0:	0001                	nop
 8e2:	6101                	addi	sp,sp,0
 8e4:	0700                	addi	s0,sp,896
 8e6:	19e0                	addi	s0,sp,252
 8e8:	0001                	nop
 8ea:	1a5c                	addi	a5,sp,308
 8ec:	0001                	nop
 8ee:	5c01                	li	s8,-32
 8f0:	0700                	addi	s0,sp,896
 8f2:	19e0                	addi	s0,sp,252
 8f4:	0001                	nop
 8f6:	1a04                	addi	s1,sp,304
 8f8:	0001                	nop
 8fa:	6c01                	0x6c01
 8fc:	011a0407          	0x11a0407
 900:	5400                	lw	s0,40(s0)
 902:	011a                	slli	sp,sp,0x6
 904:	0100                	addi	s0,sp,128
 906:	005a                	c.slli	zero,0x16
 908:	011a1c07          	0x11a1c07
 90c:	4400                	lw	s0,8(s0)
 90e:	011a                	slli	sp,sp,0x6
 910:	0100                	addi	s0,sp,128
 912:	0756                	slli	a4,a4,0x15
 914:	1a44                	addi	s1,sp,308
 916:	0001                	nop
 918:	1a5c                	addi	a5,sp,308
 91a:	0001                	nop
 91c:	5f01                	li	t5,-32
 91e:	0700                	addi	s0,sp,896
 920:	19e0                	addi	s0,sp,252
 922:	0001                	nop
 924:	19e8                	addi	a0,sp,252
 926:	0001                	nop
 928:	7f06                	flw	ft10,96(sp)
 92a:	8100                	0x8100
 92c:	1d00                	addi	s0,sp,688
 92e:	079f 19e8 0001      	0x119e8079f
 934:	19f4                	addi	a3,sp,252
 936:	0001                	nop
 938:	5f01                	li	t5,-32
 93a:	0119f807          	0x119f807
 93e:	0000                	unimp
 940:	011a                	slli	sp,sp,0x6
 942:	0100                	addi	s0,sp,128
 944:	075f 1a04 0001      	0x11a04075f
 94a:	1a28                	addi	a0,sp,312
 94c:	0001                	nop
 94e:	5f01                	li	t5,-32
 950:	0700                	addi	s0,sp,896
 952:	1a18                	addi	a4,sp,304
 954:	0001                	nop
 956:	1a28                	addi	a0,sp,312
 958:	0001                	nop
 95a:	7f06                	flw	ft10,96(sp)
 95c:	8100                	0x8100
 95e:	1d00                	addi	s0,sp,688
 960:	079f 1a28 0001      	0x11a28079f
 966:	1a30                	addi	a2,sp,312
 968:	0001                	nop
 96a:	5f01                	li	t5,-32
 96c:	011a3407          	fld	fs0,17(s4) # fffe1011 <__BSS_END__+0xfffcc1c5>
 970:	4000                	lw	s0,0(s0)
 972:	011a                	slli	sp,sp,0x6
 974:	0100                	addi	s0,sp,128
 976:	0060                	addi	s0,sp,12
 978:	0119f007          	0x119f007
 97c:	1c00                	addi	s0,sp,560
 97e:	011a                	slli	sp,sp,0x6
 980:	0100                	addi	s0,sp,128
 982:	0756                	slli	a4,a4,0x15
 984:	1a1c                	addi	a5,sp,304
 986:	0001                	nop
 988:	1a2c                	addi	a1,sp,312
 98a:	0001                	nop
 98c:	7c06                	flw	fs8,96(sp)
 98e:	8c00                	0x8c00
 990:	1e00                	addi	s0,sp,816
 992:	079f 1a2c 0001      	0x11a2c079f
 998:	1a5c                	addi	a5,sp,308
 99a:	0001                	nop
 99c:	5d01                	li	s10,-32
 99e:	0700                	addi	s0,sp,896
 9a0:	1a98                	addi	a4,sp,368
 9a2:	0001                	nop
 9a4:	1b1c                	addi	a5,sp,432
 9a6:	0001                	nop
 9a8:	5a01                	li	s4,-32
 9aa:	0700                	addi	s0,sp,896
 9ac:	1a98                	addi	a4,sp,368
 9ae:	0001                	nop
 9b0:	1ae4                	addi	s1,sp,380
 9b2:	0001                	nop
 9b4:	5c01                	li	s8,-32
 9b6:	011ae407          	0x11ae407
 9ba:	1c00                	addi	s0,sp,560
 9bc:	0700011b          	0x700011b
 9c0:	007e                	c.slli	zero,0x1f
 9c2:	2440                	fld	fs0,136(s0)
 9c4:	2540                	fld	fs0,136(a0)
 9c6:	009f 9807 011a      	0x11a9807009f
 9cc:	bc00                	fsd	fs0,56(s0)
 9ce:	011a                	slli	sp,sp,0x6
 9d0:	0100                	addi	s0,sp,128
 9d2:	0756                	slli	a4,a4,0x15
 9d4:	1abc                	addi	a5,sp,376
 9d6:	0001                	nop
 9d8:	1b10                	addi	a2,sp,432
 9da:	0001                	nop
 9dc:	5b01                	li	s6,-32
 9de:	0700                	addi	s0,sp,896
 9e0:	1ad4                	addi	a3,sp,372
 9e2:	0001                	nop
 9e4:	1afc                	addi	a5,sp,380
 9e6:	0001                	nop
 9e8:	6101                	addi	sp,sp,0
 9ea:	011afc07          	0x11afc07
 9ee:	1c00                	addi	s0,sp,560
 9f0:	0100011b          	0x100011b
 9f4:	005d                	c.nop	23
 9f6:	011a9807          	0x11a9807
 9fa:	9c00                	0x9c00
 9fc:	011a                	slli	sp,sp,0x6
 9fe:	0600                	addi	s0,sp,768
 a00:	007d                	c.nop	31
 a02:	007a                	c.slli	zero,0x1e
 a04:	9f1d                	0x9f1d
 a06:	011a9c07          	0x11a9c07
 a0a:	a800                	fsd	fs0,16(s0)
 a0c:	011a                	slli	sp,sp,0x6
 a0e:	0100                	addi	s0,sp,128
 a10:	075d                	addi	a4,a4,23
 a12:	1aac                	addi	a1,sp,376
 a14:	0001                	nop
 a16:	1ab8                	addi	a4,sp,376
 a18:	0001                	nop
 a1a:	5d01                	li	s10,-32
 a1c:	011abc07          	fld	fs8,17(s5)
 a20:	e000                	fsw	fs0,0(s0)
 a22:	011a                	slli	sp,sp,0x6
 a24:	0100                	addi	s0,sp,128
 a26:	005d                	c.nop	23
 a28:	011ad007          	0x11ad007
 a2c:	e000                	fsw	fs0,0(s0)
 a2e:	011a                	slli	sp,sp,0x6
 a30:	0600                	addi	s0,sp,768
 a32:	007d                	c.nop	31
 a34:	007a                	c.slli	zero,0x1e
 a36:	9f1d                	0x9f1d
 a38:	011ae007          	0x11ae007
 a3c:	e800                	fsw	fs0,16(s0)
 a3e:	011a                	slli	sp,sp,0x6
 a40:	0100                	addi	s0,sp,128
 a42:	075d                	addi	a4,a4,23
 a44:	1aec                	addi	a1,sp,380
 a46:	0001                	nop
 a48:	1af8                	addi	a4,sp,380
 a4a:	0001                	nop
 a4c:	5f01                	li	t5,-32
 a4e:	011afc07          	0x11afc07
 a52:	1c00                	addi	s0,sp,560
 a54:	0100011b          	0x100011b
 a58:	005f a007 011a      	0x11aa007005f
 a5e:	d400                	sw	s0,40(s0)
 a60:	011a                	slli	sp,sp,0x6
 a62:	0100                	addi	s0,sp,128
 a64:	0761                	addi	a4,a4,24
 a66:	1ad4                	addi	a3,sp,372
 a68:	0001                	nop
 a6a:	1ae4                	addi	s1,sp,380
 a6c:	0001                	nop
 a6e:	7c06                	flw	fs8,96(sp)
 a70:	7600                	flw	fs0,40(a2)
 a72:	1e00                	addi	s0,sp,816
 a74:	079f 1ae4 0001      	0x11ae4079f
 a7a:	1b1c                	addi	a5,sp,432
 a7c:	0001                	nop
 a7e:	5c01                	li	s8,-32
 a80:	0700                	addi	s0,sp,896
 a82:	1b20                	addi	s0,sp,440
 a84:	0001                	nop
 a86:	1b88                	addi	a0,sp,496
 a88:	0001                	nop
 a8a:	5d01                	li	s10,-32
 a8c:	0700                	addi	s0,sp,896
 a8e:	1b34                	addi	a3,sp,440
 a90:	0001                	nop
 a92:	1b50                	addi	a2,sp,436
 a94:	0001                	nop
 a96:	5e01                	li	t3,-32
	...

Disassembly of section .debug_rnglists:

00000000 <.debug_rnglists>:
   0:	010d                	addi	sp,sp,3
   2:	0000                	unimp
   4:	0005                	c.nop	1
   6:	0004                	0x4
   8:	0000                	unimp
   a:	0000                	unimp
   c:	8406                	mv	s0,ra
   e:	0118                	addi	a4,sp,128
  10:	8400                	0x8400
  12:	0118                	addi	a4,sp,128
  14:	0600                	addi	s0,sp,768
  16:	188c                	addi	a1,sp,112
  18:	0001                	nop
  1a:	1978                	addi	a4,sp,188
  1c:	0001                	nop
  1e:	7c06                	flw	fs8,96(sp)
  20:	0119                	addi	sp,sp,6
  22:	b400                	fsd	fs0,40(s0)
  24:	011c                	addi	a5,sp,128
  26:	0000                	unimp
  28:	8406                	mv	s0,ra
  2a:	0118                	addi	a4,sp,128
  2c:	8400                	0x8400
  2e:	0118                	addi	a4,sp,128
  30:	0600                	addi	s0,sp,768
  32:	188c                	addi	a1,sp,112
  34:	0001                	nop
  36:	1978                	addi	a4,sp,188
  38:	0001                	nop
  3a:	7c06                	flw	fs8,96(sp)
  3c:	0119                	addi	sp,sp,6
  3e:	a400                	fsd	fs0,8(s0)
  40:	011c                	addi	a5,sp,128
  42:	0600                	addi	s0,sp,768
  44:	1ca8                	addi	a0,sp,632
  46:	0001                	nop
  48:	1cb4                	addi	a3,sp,632
  4a:	0001                	nop
  4c:	0600                	addi	s0,sp,768
  4e:	18a8                	addi	a0,sp,120
  50:	0001                	nop
  52:	18d4                	addi	a3,sp,116
  54:	0001                	nop
  56:	7c06                	flw	fs8,96(sp)
  58:	0119                	addi	sp,sp,6
  5a:	9000                	0x9000
  5c:	0119                	addi	sp,sp,6
  5e:	0000                	unimp
  60:	7406                	flw	fs0,96(sp)
  62:	0119                	addi	sp,sp,6
  64:	7800                	flw	fs0,48(s0)
  66:	0119                	addi	sp,sp,6
  68:	0600                	addi	s0,sp,768
  6a:	1b80                	addi	s0,sp,496
  6c:	0001                	nop
  6e:	1ca4                	addi	s1,sp,632
  70:	0001                	nop
  72:	0600                	addi	s0,sp,768
  74:	1b9c                	addi	a5,sp,496
  76:	0001                	nop
  78:	1bac                	addi	a1,sp,504
  7a:	0001                	nop
  7c:	b006                	fsd	ft1,32(sp)
  7e:	2800011b          	0x2800011b
  82:	011c                	addi	a5,sp,128
  84:	0600                	addi	s0,sp,768
  86:	1c2c                	addi	a1,sp,568
  88:	0001                	nop
  8a:	1c30                	addi	a2,sp,568
  8c:	0001                	nop
  8e:	3806                	fld	fa6,96(sp)
  90:	011c                	addi	a5,sp,128
  92:	3c00                	fld	fs0,56(s0)
  94:	011c                	addi	a5,sp,128
  96:	0000                	unimp
  98:	2806                	fld	fa6,64(sp)
  9a:	011c                	addi	a5,sp,128
  9c:	2c00                	fld	fs0,24(s0)
  9e:	011c                	addi	a5,sp,128
  a0:	0600                	addi	s0,sp,768
  a2:	1c30                	addi	a2,sp,568
  a4:	0001                	nop
  a6:	1c38                	addi	a4,sp,568
  a8:	0001                	nop
  aa:	3c06                	fld	fs8,96(sp)
  ac:	011c                	addi	a5,sp,128
  ae:	7400                	flw	fs0,40(s0)
  b0:	011c                	addi	a5,sp,128
  b2:	0600                	addi	s0,sp,768
  b4:	1c7c                	addi	a5,sp,572
  b6:	0001                	nop
  b8:	1c90                	addi	a2,sp,624
  ba:	0001                	nop
  bc:	9406                	add	s0,s0,ra
  be:	011c                	addi	a5,sp,128
  c0:	9800                	0x9800
  c2:	011c                	addi	a5,sp,128
  c4:	0000                	unimp
  c6:	9806                	add	a6,a6,ra
  c8:	0119                	addi	sp,sp,6
  ca:	c400                	sw	s0,8(s0)
  cc:	0119                	addi	sp,sp,6
  ce:	0600                	addi	s0,sp,768
  d0:	1a5c                	addi	a5,sp,308
  d2:	0001                	nop
  d4:	1a70                	addi	a2,sp,316
  d6:	0001                	nop
  d8:	0600                	addi	s0,sp,768
  da:	1a78                	addi	a4,sp,316
  dc:	0001                	nop
  de:	1a7c                	addi	a5,sp,316
  e0:	0001                	nop
  e2:	8406                	mv	s0,ra
  e4:	011a                	slli	sp,sp,0x6
  e6:	8c00                	0x8c00
  e8:	011a                	slli	sp,sp,0x6
  ea:	0600                	addi	s0,sp,768
  ec:	1a90                	addi	a2,sp,368
  ee:	0001                	nop
  f0:	1a94                	addi	a3,sp,368
  f2:	0001                	nop
  f4:	9806                	add	a6,a6,ra
  f6:	011a                	slli	sp,sp,0x6
  f8:	1c00                	addi	s0,sp,560
  fa:	0000011b          	0x11b
  fe:	2006                	fld	ft0,64(sp)
 100:	5400011b          	0x5400011b
 104:	0600011b          	0x600011b
 108:	1b6c                	addi	a1,sp,444
 10a:	0001                	nop
 10c:	1b80                	addi	s0,sp,496
 10e:	0001                	nop
	...
