
./vramtest.elf:     file format elf32-littleriscv
./vramtest.elf
architecture: riscv:rv32, flags 0x00000112:
EXEC_P, HAS_SYMS, D_PAGED
start address 0x000101d4

Program Header:
    LOAD off    0x00000000 vaddr 0x00010000 paddr 0x00010000 align 2**12
         filesz 0x000020c4 memsz 0x000020c4 flags r-x
    LOAD off    0x000020c4 vaddr 0x000130c4 paddr 0x000130c4 align 2**12
         filesz 0x000004bc memsz 0x000004d8 flags rw-

Sections:
Idx Name          Size      VMA       LMA       File off  Algn
  0 .text         00000844  00010074  00010074  00000074  2**2
                  CONTENTS, ALLOC, LOAD, READONLY, CODE
  1 .rodata       0000180c  000108b8  000108b8  000008b8  2**2
                  CONTENTS, ALLOC, LOAD, READONLY, DATA
  2 .eh_frame     00000058  000130c4  000130c4  000020c4  2**2
                  CONTENTS, ALLOC, LOAD, DATA
  3 .init_array   00000008  0001311c  0001311c  0000211c  2**2
                  CONTENTS, ALLOC, LOAD, DATA
  4 .fini_array   00000004  00013124  00013124  00002124  2**2
                  CONTENTS, ALLOC, LOAD, DATA
  5 .data         00000438  00013128  00013128  00002128  2**3
                  CONTENTS, ALLOC, LOAD, DATA
  6 .got          00000018  00013560  00013560  00002560  2**2
                  CONTENTS, ALLOC, LOAD, DATA
  7 .sdata        00000008  00013578  00013578  00002578  2**2
                  CONTENTS, ALLOC, LOAD, DATA
  8 .bss          0000001c  00013580  00013580  00002580  2**2
                  ALLOC
  9 .comment      00000012  00000000  00000000  00002580  2**0
                  CONTENTS, READONLY
 10 .riscv.attributes 0000002a  00000000  00000000  00002592  2**0
                  CONTENTS, READONLY
 11 .debug_aranges 00000020  00000000  00000000  000025bc  2**0
                  CONTENTS, READONLY, DEBUGGING, OCTETS
 12 .debug_info   00000761  00000000  00000000  000025dc  2**0
                  CONTENTS, READONLY, DEBUGGING, OCTETS
 13 .debug_abbrev 000001a6  00000000  00000000  00002d3d  2**0
                  CONTENTS, READONLY, DEBUGGING, OCTETS
 14 .debug_line   00000727  00000000  00000000  00002ee3  2**0
                  CONTENTS, READONLY, DEBUGGING, OCTETS
 15 .debug_str    000001ea  00000000  00000000  0000360a  2**0
                  CONTENTS, READONLY, DEBUGGING, OCTETS
 16 .debug_line_str 000000ba  00000000  00000000  000037f4  2**0
                  CONTENTS, READONLY, DEBUGGING, OCTETS
 17 .debug_loclists 00000a99  00000000  00000000  000038ae  2**0
                  CONTENTS, READONLY, DEBUGGING, OCTETS
 18 .debug_rnglists 00000111  00000000  00000000  00004347  2**0
                  CONTENTS, READONLY, DEBUGGING, OCTETS
SYMBOL TABLE:
00010074 l    d  .text	00000000 .text
000108b8 l    d  .rodata	00000000 .rodata
000130c4 l    d  .eh_frame	00000000 .eh_frame
0001311c l    d  .init_array	00000000 .init_array
00013124 l    d  .fini_array	00000000 .fini_array
00013128 l    d  .data	00000000 .data
00013560 l    d  .got	00000000 .got
00013578 l    d  .sdata	00000000 .sdata
00013580 l    d  .bss	00000000 .bss
00000000 l    d  .comment	00000000 .comment
00000000 l    d  .riscv.attributes	00000000 .riscv.attributes
00000000 l    d  .debug_aranges	00000000 .debug_aranges
00000000 l    d  .debug_info	00000000 .debug_info
00000000 l    d  .debug_abbrev	00000000 .debug_abbrev
00000000 l    d  .debug_line	00000000 .debug_line
00000000 l    d  .debug_str	00000000 .debug_str
00000000 l    d  .debug_line_str	00000000 .debug_line_str
00000000 l    d  .debug_loclists	00000000 .debug_loclists
00000000 l    d  .debug_rnglists	00000000 .debug_rnglists
00000000 l    df *ABS*	00000000 vramtest.cpp
00000000 l    df *ABS*	00000000 __call_atexit.c
000101bc l     F .text	00000018 register_fini
00000000 l    df *ABS*	00000000 crtstuff.c
000130c4 l     O .eh_frame	00000000 __EH_FRAME_BEGIN__
00010220 l     F .text	00000000 __do_global_dtors_aux
00013580 l     O .bss	00000001 completed.1
00013124 l     O .fini_array	00000000 __do_global_dtors_aux_fini_array_entry
00010264 l     F .text	00000000 frame_dummy
00013584 l     O .bss	00000018 object.0
00013120 l     O .init_array	00000000 __frame_dummy_init_array_entry
00000000 l    df *ABS*	00000000 gpu.c
000108c4 l     O .rodata	00001800 _ZL12residentfont
00000000 l    df *ABS*	00000000 errno.c
00000000 l    df *ABS*	00000000 exit.c
00000000 l    df *ABS*	00000000 init.c
00000000 l    df *ABS*	00000000 atexit.c
00000000 l    df *ABS*	00000000 fini.c
00000000 l    df *ABS*	00000000 __atexit.c
00000000 l    df *ABS*	00000000 sys_exit.c
00000000 l    df *ABS*	00000000 uart.c
00000000 l    df *ABS*	00000000 task.c
00000000 l    df *ABS*	00000000 core.c
00000000 l    df *ABS*	00000000 leds.c
00000000 l    df *ABS*	00000000 console.c
00000000 l    df *ABS*	00000000 crtstuff.c
00013118 l     O .eh_frame	00000000 __FRAME_END__
00000000 l    df *ABS*	00000000 impure.c
00013138 l     O .data	00000428 impure_data
00000000 l    df *ABS*	00000000 libgcc2.c
00013128 l       .fini_array	00000000 __fini_array_end
00013124 l       .fini_array	00000000 __fini_array_start
00013124 l       .init_array	00000000 __init_array_end
0001311c l       .init_array	00000000 __preinit_array_end
00013568 l     O .got	00000000 _GLOBAL_OFFSET_TABLE_
0001311c l       .init_array	00000000 __init_array_start
0001311c l       .init_array	00000000 __preinit_array_start
00013928 g       *ABS*	00000000 __global_pointer$
000104b0 g     F .text	00000008 __errno
00013578 g       .sdata	00000000 __SDATA_BEGIN__
00013578 g     O .sdata	00000004 _global_impure_ptr
000104e8 g     F .text	0000009c __libc_init_array
00010794 g     F .text	0000005c __libc_fini_array
0001312c g     O .data	00000004 GPUFB
00010284 g     F .text	0000022c _Z8DrawTextiiPKc
00010660 g     F .text	00000120 __call_exitprocs
000101d4 g     F .text	0000004c _start
000107f0 g     F .text	00000098 __register_exitproc
00013130 g     O .data	00000004 GPUFBWORD
0001359c g       .bss	00000000 __BSS_END__
00013580 g       .bss	00000000 __bss_start
00010584 g     F .text	000000dc memset
00010074 g     F .text	00000148 main
00010780 g     F .text	00000014 atexit
0001357c g     O .sdata	00000004 _impure_ptr
00013128 g       .data	00000000 __DATA_BEGIN__
00013580 g       .sdata	00000000 _edata
0001359c g       .bss	00000000 _end
000104b8 g     F .text	00000030 exit
00010888 g     F .text	00000030 _exit
00013128 g     O .data	00000004 GPUCTL



Disassembly of section .text:

00010074 <main>:
   10074:	fd010113          	addi	sp,sp,-48
   10078:	01512a23          	sw	s5,20(sp)
   1007c:	01612823          	sw	s6,16(sp)
   10080:	20ff2ab7          	lui	s5,0x20ff2
   10084:	00013b37          	lui	s6,0x13
   10088:	02812423          	sw	s0,40(sp)
   1008c:	02912223          	sw	s1,36(sp)
   10090:	03212023          	sw	s2,32(sp)
   10094:	01312e23          	sw	s3,28(sp)
   10098:	01412c23          	sw	s4,24(sp)
   1009c:	01712623          	sw	s7,12(sp)
   100a0:	01812423          	sw	s8,8(sp)
   100a4:	02112623          	sw	ra,44(sp)
   100a8:	14000493          	li	s1,320
   100ac:	00000a13          	li	s4,0
   100b0:	00003417          	auipc	s0,0x3
   100b4:	4bc42403          	lw	s0,1212(s0) # 1356c <_GLOBAL_OFFSET_TABLE_+0x4>
   100b8:	00003c17          	auipc	s8,0x3
   100bc:	4b8c2c03          	lw	s8,1208(s8) # 13570 <_GLOBAL_OFFSET_TABLE_+0x8>
   100c0:	00003b97          	auipc	s7,0x3
   100c4:	4b4bab83          	lw	s7,1204(s7) # 13574 <_GLOBAL_OFFSET_TABLE_+0xc>
   100c8:	0ff00913          	li	s2,255
   100cc:	c00b0b13          	addi	s6,s6,-1024 # 12c00 <_ZL12residentfont+0x233c>
   100d0:	14000993          	li	s3,320
   100d4:	0ffa8a93          	addi	s5,s5,255 # 20ff20ff <__global_pointer$+0x20fde7d7>
   100d8:	414005b3          	neg	a1,s4
   100dc:	00000513          	li	a0,0
   100e0:	414b0833          	sub	a6,s6,s4
   100e4:	000a0793          	mv	a5,s4
   100e8:	00f546b3          	xor	a3,a0,a5
   100ec:	0326f6b3          	remu	a3,a3,s2
   100f0:	00042703          	lw	a4,0(s0)
   100f4:	00f58633          	add	a2,a1,a5
   100f8:	00178793          	addi	a5,a5,1
   100fc:	00c70733          	add	a4,a4,a2
   10100:	00d70023          	sb	a3,0(a4)
   10104:	fef492e3          	bne	s1,a5,100e8 <main+0x74>
   10108:	14058593          	addi	a1,a1,320
   1010c:	00150513          	addi	a0,a0,1
   10110:	fd059ae3          	bne	a1,a6,100e4 <main+0x70>
   10114:	00000513          	li	a0,0
   10118:	00000693          	li	a3,0
   1011c:	0ffa7593          	zext.b	a1,s4
   10120:	0f000813          	li	a6,240
   10124:	00000793          	li	a5,0
   10128:	00a68633          	add	a2,a3,a0
   1012c:	00178713          	addi	a4,a5,1
   10130:	00f68a63          	beq	a3,a5,10144 <main+0xd0>
   10134:	03370263          	beq	a4,s3,10158 <main+0xe4>
   10138:	00070793          	mv	a5,a4
   1013c:	00178713          	addi	a4,a5,1
   10140:	fef69ae3          	bne	a3,a5,10134 <main+0xc0>
   10144:	00042783          	lw	a5,0(s0)
   10148:	00c787b3          	add	a5,a5,a2
   1014c:	00b78023          	sb	a1,0(a5)
   10150:	00070793          	mv	a5,a4
   10154:	fe9ff06f          	j	1013c <main+0xc8>
   10158:	00168693          	addi	a3,a3,1
   1015c:	14050513          	addi	a0,a0,320
   10160:	fd0692e3          	bne	a3,a6,10124 <main+0xb0>
   10164:	000c2703          	lw	a4,0(s8)
   10168:	fff00613          	li	a2,-1
   1016c:	14070693          	addi	a3,a4,320
   10170:	00070793          	mv	a5,a4
   10174:	00c7a023          	sw	a2,0(a5)
   10178:	00478793          	addi	a5,a5,4
   1017c:	fef69ce3          	bne	a3,a5,10174 <main+0x100>
   10180:	20070793          	addi	a5,a4,512
   10184:	34070713          	addi	a4,a4,832
   10188:	0157a023          	sw	s5,0(a5)
   1018c:	00478793          	addi	a5,a5,4
   10190:	fef71ce3          	bne	a4,a5,10188 <main+0x114>
   10194:	00000617          	auipc	a2,0x0
   10198:	72460613          	addi	a2,a2,1828 # 108b8 <_exit+0x30>
   1019c:	00000593          	li	a1,0
   101a0:	00000513          	li	a0,0
   101a4:	0e0000ef          	jal	ra,10284 <_Z8DrawTextiiPKc>
   101a8:	000ba783          	lw	a5,0(s7)
   101ac:	00148493          	addi	s1,s1,1
   101b0:	0147a023          	sw	s4,0(a5)
   101b4:	001a0a13          	addi	s4,s4,1
   101b8:	f21ff06f          	j	100d8 <main+0x64>

000101bc <register_fini>:
   101bc:	00000793          	li	a5,0
   101c0:	00078863          	beqz	a5,101d0 <register_fini+0x14>
   101c4:	00010537          	lui	a0,0x10
   101c8:	79450513          	addi	a0,a0,1940 # 10794 <__libc_fini_array>
   101cc:	5b40006f          	j	10780 <atexit>
   101d0:	00008067          	ret

000101d4 <_start>:
   101d4:	00003197          	auipc	gp,0x3
   101d8:	75418193          	addi	gp,gp,1876 # 13928 <__global_pointer$>
   101dc:	c5818513          	addi	a0,gp,-936 # 13580 <completed.1>
   101e0:	c7418613          	addi	a2,gp,-908 # 1359c <__BSS_END__>
   101e4:	40a60633          	sub	a2,a2,a0
   101e8:	00000593          	li	a1,0
   101ec:	398000ef          	jal	ra,10584 <memset>
   101f0:	00000517          	auipc	a0,0x0
   101f4:	59050513          	addi	a0,a0,1424 # 10780 <atexit>
   101f8:	00050863          	beqz	a0,10208 <_start+0x34>
   101fc:	00000517          	auipc	a0,0x0
   10200:	59850513          	addi	a0,a0,1432 # 10794 <__libc_fini_array>
   10204:	57c000ef          	jal	ra,10780 <atexit>
   10208:	2e0000ef          	jal	ra,104e8 <__libc_init_array>
   1020c:	00012503          	lw	a0,0(sp)
   10210:	00410593          	addi	a1,sp,4
   10214:	00000613          	li	a2,0
   10218:	e5dff0ef          	jal	ra,10074 <main>
   1021c:	29c0006f          	j	104b8 <exit>

00010220 <__do_global_dtors_aux>:
   10220:	ff010113          	addi	sp,sp,-16
   10224:	00812423          	sw	s0,8(sp)
   10228:	c581c783          	lbu	a5,-936(gp) # 13580 <completed.1>
   1022c:	00112623          	sw	ra,12(sp)
   10230:	02079263          	bnez	a5,10254 <__do_global_dtors_aux+0x34>
   10234:	00000793          	li	a5,0
   10238:	00078a63          	beqz	a5,1024c <__do_global_dtors_aux+0x2c>
   1023c:	00013537          	lui	a0,0x13
   10240:	0c450513          	addi	a0,a0,196 # 130c4 <__EH_FRAME_BEGIN__>
   10244:	00000097          	auipc	ra,0x0
   10248:	000000e7          	jalr	zero # 0 <main-0x10074>
   1024c:	00100793          	li	a5,1
   10250:	c4f18c23          	sb	a5,-936(gp) # 13580 <completed.1>
   10254:	00c12083          	lw	ra,12(sp)
   10258:	00812403          	lw	s0,8(sp)
   1025c:	01010113          	addi	sp,sp,16
   10260:	00008067          	ret

00010264 <frame_dummy>:
   10264:	00000793          	li	a5,0
   10268:	00078c63          	beqz	a5,10280 <frame_dummy+0x1c>
   1026c:	00013537          	lui	a0,0x13
   10270:	c5c18593          	addi	a1,gp,-932 # 13584 <object.0>
   10274:	0c450513          	addi	a0,a0,196 # 130c4 <__EH_FRAME_BEGIN__>
   10278:	00000317          	auipc	t1,0x0
   1027c:	00000067          	jr	zero # 0 <main-0x10074>
   10280:	00008067          	ret

00010284 <_Z8DrawTextiiPKc>:
   10284:	00064703          	lbu	a4,0(a2)
   10288:	22070063          	beqz	a4,104a8 <_Z8DrawTextiiPKc+0x224>
   1028c:	00259793          	slli	a5,a1,0x2
   10290:	00b787b3          	add	a5,a5,a1
   10294:	00003697          	auipc	a3,0x3
   10298:	2dc6a683          	lw	a3,732(a3) # 13570 <_GLOBAL_OFFSET_TABLE_+0x8>
   1029c:	0006a803          	lw	a6,0(a3)
   102a0:	00479793          	slli	a5,a5,0x4
   102a4:	00150693          	addi	a3,a0,1
   102a8:	00a785b3          	add	a1,a5,a0
   102ac:	00f687b3          	add	a5,a3,a5
   102b0:	00259593          	slli	a1,a1,0x2
   102b4:	00279793          	slli	a5,a5,0x2
   102b8:	00001337          	lui	t1,0x1
   102bc:	00b805b3          	add	a1,a6,a1
   102c0:	14000e93          	li	t4,320
   102c4:	00f80833          	add	a6,a6,a5
   102c8:	28000e13          	li	t3,640
   102cc:	00000893          	li	a7,0
   102d0:	00000697          	auipc	a3,0x0
   102d4:	5f468693          	addi	a3,a3,1524 # 108c4 <_ZL12residentfont>
   102d8:	8c030313          	addi	t1,t1,-1856 # 8c0 <main-0xf7b4>
   102dc:	fe070713          	addi	a4,a4,-32
   102e0:	00188893          	addi	a7,a7,1
   102e4:	1a074463          	bltz	a4,1048c <_Z8DrawTextiiPKc+0x208>
   102e8:	40575793          	srai	a5,a4,0x5
   102ec:	01f77713          	andi	a4,a4,31
   102f0:	00171713          	slli	a4,a4,0x1
   102f4:	00979513          	slli	a0,a5,0x9
   102f8:	00e50533          	add	a0,a0,a4
   102fc:	00251f13          	slli	t5,a0,0x2
   10300:	00df0f33          	add	t5,t5,a3
   10304:	000f2f03          	lw	t5,0(t5)
   10308:	00150513          	addi	a0,a0,1
   1030c:	00251513          	slli	a0,a0,0x2
   10310:	01e5a023          	sw	t5,0(a1)
   10314:	00d50533          	add	a0,a0,a3
   10318:	00979793          	slli	a5,a5,0x9
   1031c:	00052f83          	lw	t6,0(a0)
   10320:	04078793          	addi	a5,a5,64
   10324:	00f70533          	add	a0,a4,a5
   10328:	00251f13          	slli	t5,a0,0x2
   1032c:	01f82023          	sw	t6,0(a6)
   10330:	00df0f33          	add	t5,t5,a3
   10334:	000f2f83          	lw	t6,0(t5)
   10338:	00150513          	addi	a0,a0,1
   1033c:	01d58f33          	add	t5,a1,t4
   10340:	00251513          	slli	a0,a0,0x2
   10344:	01ff2023          	sw	t6,0(t5)
   10348:	00d50533          	add	a0,a0,a3
   1034c:	00052283          	lw	t0,0(a0)
   10350:	04078513          	addi	a0,a5,64
   10354:	00e50533          	add	a0,a0,a4
   10358:	010e8fb3          	add	t6,t4,a6
   1035c:	00251f13          	slli	t5,a0,0x2
   10360:	005fa023          	sw	t0,0(t6)
   10364:	00df0f33          	add	t5,t5,a3
   10368:	000f2f83          	lw	t6,0(t5)
   1036c:	00150513          	addi	a0,a0,1
   10370:	01c58f33          	add	t5,a1,t3
   10374:	00251513          	slli	a0,a0,0x2
   10378:	01ff2023          	sw	t6,0(t5)
   1037c:	00d50533          	add	a0,a0,a3
   10380:	00052283          	lw	t0,0(a0)
   10384:	08078513          	addi	a0,a5,128
   10388:	00e50533          	add	a0,a0,a4
   1038c:	010e0fb3          	add	t6,t3,a6
   10390:	00251f13          	slli	t5,a0,0x2
   10394:	005fa023          	sw	t0,0(t6)
   10398:	00df0f33          	add	t5,t5,a3
   1039c:	000f2f03          	lw	t5,0(t5)
   103a0:	00150513          	addi	a0,a0,1
   103a4:	00251513          	slli	a0,a0,0x2
   103a8:	3de5a023          	sw	t5,960(a1)
   103ac:	00d50533          	add	a0,a0,a3
   103b0:	00052f83          	lw	t6,0(a0)
   103b4:	0c078513          	addi	a0,a5,192
   103b8:	00e50533          	add	a0,a0,a4
   103bc:	00251f13          	slli	t5,a0,0x2
   103c0:	3df82023          	sw	t6,960(a6)
   103c4:	00df0f33          	add	t5,t5,a3
   103c8:	000f2f03          	lw	t5,0(t5)
   103cc:	00150513          	addi	a0,a0,1
   103d0:	00251513          	slli	a0,a0,0x2
   103d4:	51e5a023          	sw	t5,1280(a1)
   103d8:	00d50533          	add	a0,a0,a3
   103dc:	00052f83          	lw	t6,0(a0)
   103e0:	10078513          	addi	a0,a5,256
   103e4:	00e50533          	add	a0,a0,a4
   103e8:	00251f13          	slli	t5,a0,0x2
   103ec:	51f82023          	sw	t6,1280(a6)
   103f0:	00df0f33          	add	t5,t5,a3
   103f4:	000f2f03          	lw	t5,0(t5)
   103f8:	00150513          	addi	a0,a0,1
   103fc:	00251513          	slli	a0,a0,0x2
   10400:	65e5a023          	sw	t5,1600(a1)
   10404:	00d50533          	add	a0,a0,a3
   10408:	00052f83          	lw	t6,0(a0)
   1040c:	14078513          	addi	a0,a5,320
   10410:	00e50533          	add	a0,a0,a4
   10414:	00251f13          	slli	t5,a0,0x2
   10418:	65f82023          	sw	t6,1600(a6)
   1041c:	00df0f33          	add	t5,t5,a3
   10420:	000f2f03          	lw	t5,0(t5)
   10424:	00150513          	addi	a0,a0,1
   10428:	00251513          	slli	a0,a0,0x2
   1042c:	79e5a023          	sw	t5,1920(a1)
   10430:	00d50533          	add	a0,a0,a3
   10434:	00052503          	lw	a0,0(a0)
   10438:	18078793          	addi	a5,a5,384
   1043c:	00e787b3          	add	a5,a5,a4
   10440:	00279713          	slli	a4,a5,0x2
   10444:	78a82023          	sw	a0,1920(a6)
   10448:	00d70733          	add	a4,a4,a3
   1044c:	00072503          	lw	a0,0(a4)
   10450:	00178793          	addi	a5,a5,1
   10454:	00658733          	add	a4,a1,t1
   10458:	00279793          	slli	a5,a5,0x2
   1045c:	00a72023          	sw	a0,0(a4)
   10460:	00d787b3          	add	a5,a5,a3
   10464:	0007a503          	lw	a0,0(a5)
   10468:	00680733          	add	a4,a6,t1
   1046c:	011607b3          	add	a5,a2,a7
   10470:	00a72023          	sw	a0,0(a4)
   10474:	0007c703          	lbu	a4,0(a5)
   10478:	00088513          	mv	a0,a7
   1047c:	00858593          	addi	a1,a1,8
   10480:	00880813          	addi	a6,a6,8
   10484:	e4071ce3          	bnez	a4,102dc <_Z8DrawTextiiPKc+0x58>
   10488:	00008067          	ret
   1048c:	011607b3          	add	a5,a2,a7
   10490:	0007c703          	lbu	a4,0(a5)
   10494:	00088513          	mv	a0,a7
   10498:	00858593          	addi	a1,a1,8
   1049c:	00880813          	addi	a6,a6,8
   104a0:	e2071ee3          	bnez	a4,102dc <_Z8DrawTextiiPKc+0x58>
   104a4:	00008067          	ret
   104a8:	00000513          	li	a0,0
   104ac:	00008067          	ret

000104b0 <__errno>:
   104b0:	c541a503          	lw	a0,-940(gp) # 1357c <_impure_ptr>
   104b4:	00008067          	ret

000104b8 <exit>:
   104b8:	ff010113          	addi	sp,sp,-16
   104bc:	00000593          	li	a1,0
   104c0:	00812423          	sw	s0,8(sp)
   104c4:	00112623          	sw	ra,12(sp)
   104c8:	00050413          	mv	s0,a0
   104cc:	194000ef          	jal	ra,10660 <__call_exitprocs>
   104d0:	c501a503          	lw	a0,-944(gp) # 13578 <_global_impure_ptr>
   104d4:	03c52783          	lw	a5,60(a0)
   104d8:	00078463          	beqz	a5,104e0 <exit+0x28>
   104dc:	000780e7          	jalr	a5
   104e0:	00040513          	mv	a0,s0
   104e4:	3a4000ef          	jal	ra,10888 <_exit>

000104e8 <__libc_init_array>:
   104e8:	ff010113          	addi	sp,sp,-16
   104ec:	00812423          	sw	s0,8(sp)
   104f0:	01212023          	sw	s2,0(sp)
   104f4:	00013437          	lui	s0,0x13
   104f8:	00013937          	lui	s2,0x13
   104fc:	11c40793          	addi	a5,s0,284 # 1311c <__init_array_start>
   10500:	11c90913          	addi	s2,s2,284 # 1311c <__init_array_start>
   10504:	40f90933          	sub	s2,s2,a5
   10508:	00112623          	sw	ra,12(sp)
   1050c:	00912223          	sw	s1,4(sp)
   10510:	40295913          	srai	s2,s2,0x2
   10514:	02090063          	beqz	s2,10534 <__libc_init_array+0x4c>
   10518:	11c40413          	addi	s0,s0,284
   1051c:	00000493          	li	s1,0
   10520:	00042783          	lw	a5,0(s0)
   10524:	00148493          	addi	s1,s1,1
   10528:	00440413          	addi	s0,s0,4
   1052c:	000780e7          	jalr	a5
   10530:	fe9918e3          	bne	s2,s1,10520 <__libc_init_array+0x38>
   10534:	00013437          	lui	s0,0x13
   10538:	00013937          	lui	s2,0x13
   1053c:	11c40793          	addi	a5,s0,284 # 1311c <__init_array_start>
   10540:	12490913          	addi	s2,s2,292 # 13124 <__do_global_dtors_aux_fini_array_entry>
   10544:	40f90933          	sub	s2,s2,a5
   10548:	40295913          	srai	s2,s2,0x2
   1054c:	02090063          	beqz	s2,1056c <__libc_init_array+0x84>
   10550:	11c40413          	addi	s0,s0,284
   10554:	00000493          	li	s1,0
   10558:	00042783          	lw	a5,0(s0)
   1055c:	00148493          	addi	s1,s1,1
   10560:	00440413          	addi	s0,s0,4
   10564:	000780e7          	jalr	a5
   10568:	fe9918e3          	bne	s2,s1,10558 <__libc_init_array+0x70>
   1056c:	00c12083          	lw	ra,12(sp)
   10570:	00812403          	lw	s0,8(sp)
   10574:	00412483          	lw	s1,4(sp)
   10578:	00012903          	lw	s2,0(sp)
   1057c:	01010113          	addi	sp,sp,16
   10580:	00008067          	ret

00010584 <memset>:
   10584:	00f00313          	li	t1,15
   10588:	00050713          	mv	a4,a0
   1058c:	02c37e63          	bgeu	t1,a2,105c8 <memset+0x44>
   10590:	00f77793          	andi	a5,a4,15
   10594:	0a079063          	bnez	a5,10634 <memset+0xb0>
   10598:	08059263          	bnez	a1,1061c <memset+0x98>
   1059c:	ff067693          	andi	a3,a2,-16
   105a0:	00f67613          	andi	a2,a2,15
   105a4:	00e686b3          	add	a3,a3,a4
   105a8:	00b72023          	sw	a1,0(a4)
   105ac:	00b72223          	sw	a1,4(a4)
   105b0:	00b72423          	sw	a1,8(a4)
   105b4:	00b72623          	sw	a1,12(a4)
   105b8:	01070713          	addi	a4,a4,16
   105bc:	fed766e3          	bltu	a4,a3,105a8 <memset+0x24>
   105c0:	00061463          	bnez	a2,105c8 <memset+0x44>
   105c4:	00008067          	ret
   105c8:	40c306b3          	sub	a3,t1,a2
   105cc:	00269693          	slli	a3,a3,0x2
   105d0:	00000297          	auipc	t0,0x0
   105d4:	005686b3          	add	a3,a3,t0
   105d8:	00c68067          	jr	12(a3)
   105dc:	00b70723          	sb	a1,14(a4)
   105e0:	00b706a3          	sb	a1,13(a4)
   105e4:	00b70623          	sb	a1,12(a4)
   105e8:	00b705a3          	sb	a1,11(a4)
   105ec:	00b70523          	sb	a1,10(a4)
   105f0:	00b704a3          	sb	a1,9(a4)
   105f4:	00b70423          	sb	a1,8(a4)
   105f8:	00b703a3          	sb	a1,7(a4)
   105fc:	00b70323          	sb	a1,6(a4)
   10600:	00b702a3          	sb	a1,5(a4)
   10604:	00b70223          	sb	a1,4(a4)
   10608:	00b701a3          	sb	a1,3(a4)
   1060c:	00b70123          	sb	a1,2(a4)
   10610:	00b700a3          	sb	a1,1(a4)
   10614:	00b70023          	sb	a1,0(a4)
   10618:	00008067          	ret
   1061c:	0ff5f593          	zext.b	a1,a1
   10620:	00859693          	slli	a3,a1,0x8
   10624:	00d5e5b3          	or	a1,a1,a3
   10628:	01059693          	slli	a3,a1,0x10
   1062c:	00d5e5b3          	or	a1,a1,a3
   10630:	f6dff06f          	j	1059c <memset+0x18>
   10634:	00279693          	slli	a3,a5,0x2
   10638:	00000297          	auipc	t0,0x0
   1063c:	005686b3          	add	a3,a3,t0
   10640:	00008293          	mv	t0,ra
   10644:	fa0680e7          	jalr	-96(a3)
   10648:	00028093          	mv	ra,t0
   1064c:	ff078793          	addi	a5,a5,-16
   10650:	40f70733          	sub	a4,a4,a5
   10654:	00f60633          	add	a2,a2,a5
   10658:	f6c378e3          	bgeu	t1,a2,105c8 <memset+0x44>
   1065c:	f3dff06f          	j	10598 <memset+0x14>

00010660 <__call_exitprocs>:
   10660:	fd010113          	addi	sp,sp,-48
   10664:	01412c23          	sw	s4,24(sp)
   10668:	c501aa03          	lw	s4,-944(gp) # 13578 <_global_impure_ptr>
   1066c:	03212023          	sw	s2,32(sp)
   10670:	02112623          	sw	ra,44(sp)
   10674:	148a2903          	lw	s2,328(s4)
   10678:	02812423          	sw	s0,40(sp)
   1067c:	02912223          	sw	s1,36(sp)
   10680:	01312e23          	sw	s3,28(sp)
   10684:	01512a23          	sw	s5,20(sp)
   10688:	01612823          	sw	s6,16(sp)
   1068c:	01712623          	sw	s7,12(sp)
   10690:	01812423          	sw	s8,8(sp)
   10694:	04090063          	beqz	s2,106d4 <__call_exitprocs+0x74>
   10698:	00050b13          	mv	s6,a0
   1069c:	00058b93          	mv	s7,a1
   106a0:	00100a93          	li	s5,1
   106a4:	fff00993          	li	s3,-1
   106a8:	00492483          	lw	s1,4(s2)
   106ac:	fff48413          	addi	s0,s1,-1
   106b0:	02044263          	bltz	s0,106d4 <__call_exitprocs+0x74>
   106b4:	00249493          	slli	s1,s1,0x2
   106b8:	009904b3          	add	s1,s2,s1
   106bc:	040b8463          	beqz	s7,10704 <__call_exitprocs+0xa4>
   106c0:	1044a783          	lw	a5,260(s1)
   106c4:	05778063          	beq	a5,s7,10704 <__call_exitprocs+0xa4>
   106c8:	fff40413          	addi	s0,s0,-1
   106cc:	ffc48493          	addi	s1,s1,-4
   106d0:	ff3416e3          	bne	s0,s3,106bc <__call_exitprocs+0x5c>
   106d4:	02c12083          	lw	ra,44(sp)
   106d8:	02812403          	lw	s0,40(sp)
   106dc:	02412483          	lw	s1,36(sp)
   106e0:	02012903          	lw	s2,32(sp)
   106e4:	01c12983          	lw	s3,28(sp)
   106e8:	01812a03          	lw	s4,24(sp)
   106ec:	01412a83          	lw	s5,20(sp)
   106f0:	01012b03          	lw	s6,16(sp)
   106f4:	00c12b83          	lw	s7,12(sp)
   106f8:	00812c03          	lw	s8,8(sp)
   106fc:	03010113          	addi	sp,sp,48
   10700:	00008067          	ret
   10704:	00492783          	lw	a5,4(s2)
   10708:	0044a683          	lw	a3,4(s1)
   1070c:	fff78793          	addi	a5,a5,-1
   10710:	04878e63          	beq	a5,s0,1076c <__call_exitprocs+0x10c>
   10714:	0004a223          	sw	zero,4(s1)
   10718:	fa0688e3          	beqz	a3,106c8 <__call_exitprocs+0x68>
   1071c:	18892783          	lw	a5,392(s2)
   10720:	008a9733          	sll	a4,s5,s0
   10724:	00492c03          	lw	s8,4(s2)
   10728:	00f777b3          	and	a5,a4,a5
   1072c:	02079263          	bnez	a5,10750 <__call_exitprocs+0xf0>
   10730:	000680e7          	jalr	a3
   10734:	00492703          	lw	a4,4(s2)
   10738:	148a2783          	lw	a5,328(s4)
   1073c:	01871463          	bne	a4,s8,10744 <__call_exitprocs+0xe4>
   10740:	f92784e3          	beq	a5,s2,106c8 <__call_exitprocs+0x68>
   10744:	f80788e3          	beqz	a5,106d4 <__call_exitprocs+0x74>
   10748:	00078913          	mv	s2,a5
   1074c:	f5dff06f          	j	106a8 <__call_exitprocs+0x48>
   10750:	18c92783          	lw	a5,396(s2)
   10754:	0844a583          	lw	a1,132(s1)
   10758:	00f77733          	and	a4,a4,a5
   1075c:	00071c63          	bnez	a4,10774 <__call_exitprocs+0x114>
   10760:	000b0513          	mv	a0,s6
   10764:	000680e7          	jalr	a3
   10768:	fcdff06f          	j	10734 <__call_exitprocs+0xd4>
   1076c:	00892223          	sw	s0,4(s2)
   10770:	fa9ff06f          	j	10718 <__call_exitprocs+0xb8>
   10774:	00058513          	mv	a0,a1
   10778:	000680e7          	jalr	a3
   1077c:	fb9ff06f          	j	10734 <__call_exitprocs+0xd4>

00010780 <atexit>:
   10780:	00050593          	mv	a1,a0
   10784:	00000693          	li	a3,0
   10788:	00000613          	li	a2,0
   1078c:	00000513          	li	a0,0
   10790:	0600006f          	j	107f0 <__register_exitproc>

00010794 <__libc_fini_array>:
   10794:	ff010113          	addi	sp,sp,-16
   10798:	00812423          	sw	s0,8(sp)
   1079c:	000137b7          	lui	a5,0x13
   107a0:	00013437          	lui	s0,0x13
   107a4:	12478793          	addi	a5,a5,292 # 13124 <__do_global_dtors_aux_fini_array_entry>
   107a8:	12840413          	addi	s0,s0,296 # 13128 <GPUCTL>
   107ac:	40f40433          	sub	s0,s0,a5
   107b0:	00912223          	sw	s1,4(sp)
   107b4:	00112623          	sw	ra,12(sp)
   107b8:	40245493          	srai	s1,s0,0x2
   107bc:	02048063          	beqz	s1,107dc <__libc_fini_array+0x48>
   107c0:	ffc40413          	addi	s0,s0,-4
   107c4:	00f40433          	add	s0,s0,a5
   107c8:	00042783          	lw	a5,0(s0)
   107cc:	fff48493          	addi	s1,s1,-1
   107d0:	ffc40413          	addi	s0,s0,-4
   107d4:	000780e7          	jalr	a5
   107d8:	fe0498e3          	bnez	s1,107c8 <__libc_fini_array+0x34>
   107dc:	00c12083          	lw	ra,12(sp)
   107e0:	00812403          	lw	s0,8(sp)
   107e4:	00412483          	lw	s1,4(sp)
   107e8:	01010113          	addi	sp,sp,16
   107ec:	00008067          	ret

000107f0 <__register_exitproc>:
   107f0:	c501a703          	lw	a4,-944(gp) # 13578 <_global_impure_ptr>
   107f4:	14872783          	lw	a5,328(a4)
   107f8:	04078c63          	beqz	a5,10850 <__register_exitproc+0x60>
   107fc:	0047a703          	lw	a4,4(a5)
   10800:	01f00813          	li	a6,31
   10804:	06e84e63          	blt	a6,a4,10880 <__register_exitproc+0x90>
   10808:	00271813          	slli	a6,a4,0x2
   1080c:	02050663          	beqz	a0,10838 <__register_exitproc+0x48>
   10810:	01078333          	add	t1,a5,a6
   10814:	08c32423          	sw	a2,136(t1)
   10818:	1887a883          	lw	a7,392(a5)
   1081c:	00100613          	li	a2,1
   10820:	00e61633          	sll	a2,a2,a4
   10824:	00c8e8b3          	or	a7,a7,a2
   10828:	1917a423          	sw	a7,392(a5)
   1082c:	10d32423          	sw	a3,264(t1)
   10830:	00200693          	li	a3,2
   10834:	02d50463          	beq	a0,a3,1085c <__register_exitproc+0x6c>
   10838:	00170713          	addi	a4,a4,1
   1083c:	00e7a223          	sw	a4,4(a5)
   10840:	010787b3          	add	a5,a5,a6
   10844:	00b7a423          	sw	a1,8(a5)
   10848:	00000513          	li	a0,0
   1084c:	00008067          	ret
   10850:	14c70793          	addi	a5,a4,332
   10854:	14f72423          	sw	a5,328(a4)
   10858:	fa5ff06f          	j	107fc <__register_exitproc+0xc>
   1085c:	18c7a683          	lw	a3,396(a5)
   10860:	00170713          	addi	a4,a4,1
   10864:	00e7a223          	sw	a4,4(a5)
   10868:	00c6e6b3          	or	a3,a3,a2
   1086c:	18d7a623          	sw	a3,396(a5)
   10870:	010787b3          	add	a5,a5,a6
   10874:	00b7a423          	sw	a1,8(a5)
   10878:	00000513          	li	a0,0
   1087c:	00008067          	ret
   10880:	fff00513          	li	a0,-1
   10884:	00008067          	ret

00010888 <_exit>:
   10888:	05d00893          	li	a7,93
   1088c:	00000073          	ecall
   10890:	00054463          	bltz	a0,10898 <_exit+0x10>
   10894:	0000006f          	j	10894 <_exit+0xc>
   10898:	ff010113          	addi	sp,sp,-16
   1089c:	00812423          	sw	s0,8(sp)
   108a0:	00050413          	mv	s0,a0
   108a4:	00112623          	sw	ra,12(sp)
   108a8:	40800433          	neg	s0,s0
   108ac:	c05ff0ef          	jal	ra,104b0 <__errno>
   108b0:	00852023          	sw	s0,0(a0)
   108b4:	0000006f          	j	108b4 <_exit+0x2c>

Disassembly of section .rodata:

000108b8 <_ZL12residentfont-0xc>:
   108b8:	5256                	lw	tp,116(sp)
   108ba:	4d41                	li	s10,16
   108bc:	5420                	lw	s0,104(s0)
   108be:	7365                	lui	t1,0xffff9
   108c0:	0074                	addi	a3,sp,12
	...

000108c4 <_ZL12residentfont>:
	...
   108cc:	0000                	unimp
   108ce:	0000000f          	fence	unknown,unknown
   108d2:	0000                	unimp
   108d4:	0f00                	addi	s0,sp,912
   108d6:	0f00                	addi	s0,sp,912
   108d8:	0000                	unimp
   108da:	0000                	unimp
   108dc:	0000                	unimp
   108de:	000f000f          	0xf000f
   108e2:	0000                	unimp
   108e4:	0f00                	addi	s0,sp,912
   108e6:	00000f0f          	0xf0f
   108ea:	0000                	unimp
   108ec:	0f00                	addi	s0,sp,912
   108ee:	000f0f0f          	0xf0f0f
   108f2:	0000                	unimp
   108f4:	0000                	unimp
   108f6:	0000000f          	fence	unknown,unknown
   108fa:	0000                	unimp
   108fc:	0000                	unimp
   108fe:	0000000f          	fence	unknown,unknown
   10902:	0000                	unimp
   10904:	0000                	unimp
   10906:	0f00                	addi	s0,sp,912
   10908:	0000                	unimp
   1090a:	0000                	unimp
   1090c:	0f00                	addi	s0,sp,912
	...
   10916:	0000000f          	fence	unknown,unknown
	...
   1093e:	0000                	unimp
   10940:	0000000f          	fence	unknown,unknown
   10944:	0f00                	addi	s0,sp,912
   10946:	00000f0f          	0xf0f
   1094a:	0000                	unimp
   1094c:	0000                	unimp
   1094e:	0000000f          	fence	unknown,unknown
   10952:	0000                	unimp
   10954:	0f00                	addi	s0,sp,912
   10956:	00000f0f          	0xf0f
   1095a:	0000                	unimp
   1095c:	0f0f0f0f          	0xf0f0f0f
   10960:	0000000f          	fence	unknown,unknown
   10964:	0000                	unimp
   10966:	0f00                	addi	s0,sp,912
   10968:	0000                	unimp
   1096a:	0000                	unimp
   1096c:	0f0f0f0f          	0xf0f0f0f
   10970:	0000000f          	fence	unknown,unknown
   10974:	0000                	unimp
   10976:	00000f0f          	0xf0f
   1097a:	0000                	unimp
   1097c:	0f0f0f0f          	0xf0f0f0f
   10980:	0000000f          	fence	unknown,unknown
   10984:	0f00                	addi	s0,sp,912
   10986:	00000f0f          	0xf0f
   1098a:	0000                	unimp
   1098c:	0f00                	addi	s0,sp,912
   1098e:	00000f0f          	0xf0f
	...
   109be:	00000f0f          	0xf0f
	...
   109ce:	0000000f          	fence	unknown,unknown
   109d2:	0000                	unimp
   109d4:	0f00                	addi	s0,sp,912
   109d6:	0f00                	addi	s0,sp,912
   109d8:	0000                	unimp
   109da:	0000                	unimp
   109dc:	0f0f0f0f          	0xf0f0f0f
   109e0:	0000000f          	fence	unknown,unknown
   109e4:	000f000f          	0xf000f
   109e8:	0000000f          	fence	unknown,unknown
   109ec:	000f000f          	0xf000f
   109f0:	0000000f          	fence	unknown,unknown
   109f4:	0f00                	addi	s0,sp,912
   109f6:	0f00                	addi	s0,sp,912
   109f8:	0000                	unimp
   109fa:	0000                	unimp
   109fc:	0000                	unimp
   109fe:	0000000f          	fence	unknown,unknown
   10a02:	0000                	unimp
   10a04:	0000                	unimp
   10a06:	0000000f          	fence	unknown,unknown
   10a0a:	0000                	unimp
   10a0c:	0000                	unimp
   10a0e:	0000000f          	fence	unknown,unknown
   10a12:	0000                	unimp
   10a14:	000f000f          	0xf000f
   10a18:	0000000f          	fence	unknown,unknown
   10a1c:	0000                	unimp
   10a1e:	0000000f          	fence	unknown,unknown
	...
   10a3e:	0000                	unimp
   10a40:	0000000f          	fence	unknown,unknown
   10a44:	0000000f          	fence	unknown,unknown
   10a48:	0000000f          	fence	unknown,unknown
   10a4c:	0f00                	addi	s0,sp,912
   10a4e:	0000000f          	fence	unknown,unknown
   10a52:	0000                	unimp
   10a54:	0000000f          	fence	unknown,unknown
   10a58:	0000000f          	fence	unknown,unknown
   10a5c:	0000                	unimp
   10a5e:	0f00                	addi	s0,sp,912
   10a60:	0000                	unimp
   10a62:	0000                	unimp
   10a64:	0000                	unimp
   10a66:	00000f0f          	0xf0f
   10a6a:	0000                	unimp
   10a6c:	0000000f          	fence	unknown,unknown
   10a70:	0000                	unimp
   10a72:	0000                	unimp
   10a74:	0f00                	addi	s0,sp,912
	...
   10a7e:	0000                	unimp
   10a80:	0000000f          	fence	unknown,unknown
   10a84:	0000000f          	fence	unknown,unknown
   10a88:	0000000f          	fence	unknown,unknown
   10a8c:	0000000f          	fence	unknown,unknown
   10a90:	0000000f          	fence	unknown,unknown
	...
   10aa4:	0000                	unimp
   10aa6:	0f00                	addi	s0,sp,912
	...
   10ab4:	0f00                	addi	s0,sp,912
   10ab6:	0000                	unimp
   10ab8:	0000                	unimp
   10aba:	0000                	unimp
   10abc:	0f00                	addi	s0,sp,912
   10abe:	0000                	unimp
   10ac0:	0000000f          	fence	unknown,unknown
	...
   10acc:	0000                	unimp
   10ace:	0000000f          	fence	unknown,unknown
	...
   10ada:	0000                	unimp
   10adc:	0f00                	addi	s0,sp,912
   10ade:	0f00                	addi	s0,sp,912
   10ae0:	0000                	unimp
   10ae2:	0000                	unimp
   10ae4:	000f000f          	0xf000f
   10ae8:	0000                	unimp
   10aea:	0000                	unimp
   10aec:	0f0f000f          	0xf0f000f
   10af0:	0000                	unimp
   10af2:	0000                	unimp
   10af4:	0000                	unimp
   10af6:	0000000f          	fence	unknown,unknown
	...
   10b02:	0000                	unimp
   10b04:	0f00                	addi	s0,sp,912
	...
   10b0e:	0f00                	addi	s0,sp,912
   10b10:	0000                	unimp
   10b12:	0000                	unimp
   10b14:	0f00                	addi	s0,sp,912
   10b16:	00000f0f          	0xf0f
   10b1a:	0000                	unimp
   10b1c:	0000                	unimp
   10b1e:	0000000f          	fence	unknown,unknown
	...
   10b3e:	0f00                	addi	s0,sp,912
   10b40:	0000                	unimp
   10b42:	0000                	unimp
   10b44:	0f00000f          	fence	iorw,unknown
   10b48:	0000000f          	fence	unknown,unknown
   10b4c:	0000                	unimp
   10b4e:	0000000f          	fence	unknown,unknown
   10b52:	0000                	unimp
   10b54:	0000                	unimp
   10b56:	0000                	unimp
   10b58:	0000000f          	fence	unknown,unknown
   10b5c:	0000                	unimp
   10b5e:	0000000f          	fence	unknown,unknown
   10b62:	0000                	unimp
   10b64:	0f00                	addi	s0,sp,912
   10b66:	0f00                	addi	s0,sp,912
   10b68:	0000                	unimp
   10b6a:	0000                	unimp
   10b6c:	0f0f0f0f          	0xf0f0f0f
   10b70:	0000                	unimp
   10b72:	0000                	unimp
   10b74:	0000000f          	fence	unknown,unknown
   10b78:	0000                	unimp
   10b7a:	0000                	unimp
   10b7c:	0000                	unimp
   10b7e:	0f00                	addi	s0,sp,912
   10b80:	0000                	unimp
   10b82:	0000                	unimp
   10b84:	0000000f          	fence	unknown,unknown
   10b88:	0000000f          	fence	unknown,unknown
   10b8c:	0000000f          	fence	unknown,unknown
   10b90:	0000000f          	fence	unknown,unknown
   10b94:	0000                	unimp
   10b96:	0000000f          	fence	unknown,unknown
   10b9a:	0000                	unimp
   10b9c:	0000                	unimp
   10b9e:	0000000f          	fence	unknown,unknown
   10ba2:	0000                	unimp
   10ba4:	0000                	unimp
   10ba6:	0000000f          	fence	unknown,unknown
   10baa:	0000                	unimp
   10bac:	0f0f0f0f          	0xf0f0f0f
   10bb0:	0000000f          	fence	unknown,unknown
   10bb4:	0000                	unimp
   10bb6:	0000000f          	fence	unknown,unknown
   10bba:	0000                	unimp
   10bbc:	0000                	unimp
   10bbe:	0000                	unimp
   10bc0:	0000000f          	fence	unknown,unknown
	...
   10bcc:	0000                	unimp
   10bce:	0000000f          	fence	unknown,unknown
	...
   10bda:	0000                	unimp
   10bdc:	0f0f0f0f          	0xf0f0f0f
   10be0:	0000000f          	fence	unknown,unknown
   10be4:	0f00                	addi	s0,sp,912
   10be6:	00000f0f          	0xf0f
   10bea:	0000                	unimp
   10bec:	0f00                	addi	s0,sp,912
   10bee:	000f0f0f          	0xf0f0f
   10bf2:	0000                	unimp
   10bf4:	0f00                	addi	s0,sp,912
   10bf6:	0f00                	addi	s0,sp,912
   10bf8:	0f00                	addi	s0,sp,912
	...
   10c02:	0000                	unimp
   10c04:	0f00                	addi	s0,sp,912
	...
   10c0e:	0f00                	addi	s0,sp,912
   10c10:	0000                	unimp
   10c12:	0000                	unimp
   10c14:	0f00                	addi	s0,sp,912
   10c16:	0f00                	addi	s0,sp,912
   10c18:	0000                	unimp
   10c1a:	0000                	unimp
   10c1c:	0f0f0f0f          	0xf0f0f0f
   10c20:	0000000f          	fence	unknown,unknown
	...
   10c2c:	0f00                	addi	s0,sp,912
   10c2e:	000f0f0f          	0xf0f0f
	...
   10c3e:	0f00                	addi	s0,sp,912
   10c40:	0000                	unimp
   10c42:	0000                	unimp
   10c44:	000f000f          	0xf000f
   10c48:	0000000f          	fence	unknown,unknown
   10c4c:	0000                	unimp
   10c4e:	0000000f          	fence	unknown,unknown
   10c52:	0000                	unimp
   10c54:	0000                	unimp
   10c56:	0f00                	addi	s0,sp,912
   10c58:	0000                	unimp
   10c5a:	0000                	unimp
   10c5c:	0f00                	addi	s0,sp,912
   10c5e:	00000f0f          	0xf0f
   10c62:	0000                	unimp
   10c64:	0f00000f          	fence	iorw,unknown
	...
   10c70:	0000000f          	fence	unknown,unknown
   10c74:	0f0f0f0f          	0xf0f0f0f
   10c78:	0000                	unimp
   10c7a:	0000                	unimp
   10c7c:	0000                	unimp
   10c7e:	0f00                	addi	s0,sp,912
   10c80:	0000                	unimp
   10c82:	0000                	unimp
   10c84:	0f00                	addi	s0,sp,912
   10c86:	00000f0f          	0xf0f
   10c8a:	0000                	unimp
   10c8c:	0f00                	addi	s0,sp,912
   10c8e:	000f0f0f          	0xf0f0f
	...
   10ca2:	0000                	unimp
   10ca4:	0f00                	addi	s0,sp,912
	...
   10cb6:	0f00                	addi	s0,sp,912
   10cb8:	0000                	unimp
   10cba:	0000                	unimp
   10cbc:	0000                	unimp
   10cbe:	0f00                	addi	s0,sp,912
	...
   10ccc:	0000                	unimp
   10cce:	0000000f          	fence	unknown,unknown
	...
   10cda:	0000                	unimp
   10cdc:	000f000f          	0xf000f
   10ce0:	0000                	unimp
   10ce2:	0000                	unimp
   10ce4:	0000                	unimp
   10ce6:	000f000f          	0xf000f
   10cea:	0000                	unimp
   10cec:	0000                	unimp
   10cee:	0f000f0f          	0xf000f0f
   10cf2:	0000                	unimp
   10cf4:	0000000f          	fence	unknown,unknown
   10cf8:	0000000f          	fence	unknown,unknown
	...
   10d04:	0f00                	addi	s0,sp,912
	...
   10d0e:	0f00                	addi	s0,sp,912
   10d10:	0000                	unimp
   10d12:	0000                	unimp
   10d14:	0000000f          	fence	unknown,unknown
   10d18:	0000000f          	fence	unknown,unknown
   10d1c:	0000                	unimp
   10d1e:	0000000f          	fence	unknown,unknown
	...
   10d3e:	0000000f          	fence	unknown,unknown
   10d42:	0000                	unimp
   10d44:	00000f0f          	0xf0f
   10d48:	0000000f          	fence	unknown,unknown
   10d4c:	0000                	unimp
   10d4e:	0000000f          	fence	unknown,unknown
   10d52:	0000                	unimp
   10d54:	0000                	unimp
   10d56:	0000000f          	fence	unknown,unknown
   10d5a:	0000                	unimp
   10d5c:	0000                	unimp
   10d5e:	0000                	unimp
   10d60:	0000000f          	fence	unknown,unknown
   10d64:	0f0f0f0f          	0xf0f0f0f
   10d68:	0000000f          	fence	unknown,unknown
   10d6c:	0000                	unimp
   10d6e:	0000                	unimp
   10d70:	0000000f          	fence	unknown,unknown
   10d74:	0000000f          	fence	unknown,unknown
   10d78:	0000000f          	fence	unknown,unknown
   10d7c:	0000                	unimp
   10d7e:	0000000f          	fence	unknown,unknown
   10d82:	0000                	unimp
   10d84:	0000000f          	fence	unknown,unknown
   10d88:	0000000f          	fence	unknown,unknown
   10d8c:	0000                	unimp
   10d8e:	0000                	unimp
   10d90:	0000000f          	fence	unknown,unknown
	...
   10da4:	0000                	unimp
   10da6:	0000000f          	fence	unknown,unknown
   10daa:	0000                	unimp
   10dac:	0f0f0f0f          	0xf0f0f0f
   10db0:	0000000f          	fence	unknown,unknown
   10db4:	0000                	unimp
   10db6:	0000000f          	fence	unknown,unknown
   10dba:	0000                	unimp
   10dbc:	0000                	unimp
   10dbe:	0000000f          	fence	unknown,unknown
	...
   10de2:	0000                	unimp
   10de4:	000f000f          	0xf000f
   10de8:	0000000f          	fence	unknown,unknown
   10dec:	0f00                	addi	s0,sp,912
   10dee:	0f00                	addi	s0,sp,912
   10df0:	0f00                	addi	s0,sp,912
   10df2:	0000                	unimp
   10df4:	0000000f          	fence	unknown,unknown
   10df8:	0000000f          	fence	unknown,unknown
	...
   10e04:	0f00                	addi	s0,sp,912
	...
   10e0e:	0f00                	addi	s0,sp,912
	...
   10e1c:	0000                	unimp
   10e1e:	0000000f          	fence	unknown,unknown
   10e22:	0000                	unimp
   10e24:	0000                	unimp
   10e26:	0000000f          	fence	unknown,unknown
	...
   10e3e:	0000000f          	fence	unknown,unknown
   10e42:	0000                	unimp
   10e44:	0000000f          	fence	unknown,unknown
   10e48:	0000000f          	fence	unknown,unknown
   10e4c:	0000                	unimp
   10e4e:	0000000f          	fence	unknown,unknown
   10e52:	0000                	unimp
   10e54:	0f00                	addi	s0,sp,912
   10e56:	0000                	unimp
   10e58:	0000                	unimp
   10e5a:	0000                	unimp
   10e5c:	0000000f          	fence	unknown,unknown
   10e60:	0000000f          	fence	unknown,unknown
   10e64:	0000                	unimp
   10e66:	0f00                	addi	s0,sp,912
   10e68:	0000                	unimp
   10e6a:	0000                	unimp
   10e6c:	0000000f          	fence	unknown,unknown
   10e70:	0000000f          	fence	unknown,unknown
   10e74:	0000000f          	fence	unknown,unknown
   10e78:	0000000f          	fence	unknown,unknown
   10e7c:	0000                	unimp
   10e7e:	0000000f          	fence	unknown,unknown
   10e82:	0000                	unimp
   10e84:	0000000f          	fence	unknown,unknown
   10e88:	0000000f          	fence	unknown,unknown
   10e8c:	0000                	unimp
   10e8e:	0f00                	addi	s0,sp,912
	...
   10e9c:	0000                	unimp
   10e9e:	0000000f          	fence	unknown,unknown
   10ea2:	0000                	unimp
   10ea4:	0000                	unimp
   10ea6:	0f00                	addi	s0,sp,912
	...
   10eb4:	0f00                	addi	s0,sp,912
	...
   10ece:	0000000f          	fence	unknown,unknown
	...
   10ee2:	0000                	unimp
   10ee4:	0f00                	addi	s0,sp,912
   10ee6:	00000f0f          	0xf0f
   10eea:	0000                	unimp
   10eec:	0f00                	addi	s0,sp,912
   10eee:	0000                	unimp
   10ef0:	0000000f          	fence	unknown,unknown
   10ef4:	0f00                	addi	s0,sp,912
   10ef6:	0f000f0f          	0xf000f0f
	...
   10f06:	0000000f          	fence	unknown,unknown
   10f0a:	0000                	unimp
   10f0c:	0000                	unimp
   10f0e:	0000000f          	fence	unknown,unknown
	...
   10f26:	0000000f          	fence	unknown,unknown
	...
   10f36:	0000000f          	fence	unknown,unknown
   10f3a:	0000                	unimp
   10f3c:	0f00                	addi	s0,sp,912
   10f3e:	0000                	unimp
   10f40:	0000                	unimp
   10f42:	0000                	unimp
   10f44:	0f00                	addi	s0,sp,912
   10f46:	00000f0f          	0xf0f
   10f4a:	0000                	unimp
   10f4c:	0000                	unimp
   10f4e:	0000000f          	fence	unknown,unknown
   10f52:	0000                	unimp
   10f54:	0f0f0f0f          	0xf0f0f0f
   10f58:	0000000f          	fence	unknown,unknown
   10f5c:	0f00                	addi	s0,sp,912
   10f5e:	00000f0f          	0xf0f
   10f62:	0000                	unimp
   10f64:	0000                	unimp
   10f66:	0f00                	addi	s0,sp,912
   10f68:	0000                	unimp
   10f6a:	0000                	unimp
   10f6c:	0f00                	addi	s0,sp,912
   10f6e:	00000f0f          	0xf0f
   10f72:	0000                	unimp
   10f74:	0f00                	addi	s0,sp,912
   10f76:	00000f0f          	0xf0f
   10f7a:	0000                	unimp
   10f7c:	0000                	unimp
   10f7e:	0000000f          	fence	unknown,unknown
   10f82:	0000                	unimp
   10f84:	0f00                	addi	s0,sp,912
   10f86:	00000f0f          	0xf0f
   10f8a:	0000                	unimp
   10f8c:	0f00                	addi	s0,sp,912
   10f8e:	0000000f          	fence	unknown,unknown
   10f92:	0000                	unimp
   10f94:	0000                	unimp
   10f96:	0000000f          	fence	unknown,unknown
   10f9a:	0000                	unimp
   10f9c:	0000                	unimp
   10f9e:	0000000f          	fence	unknown,unknown
	...
   10fbe:	0000000f          	fence	unknown,unknown
	...
   10fe6:	0000000f          	fence	unknown,unknown
	...
   11006:	0f00                	addi	s0,sp,912
   11008:	0000                	unimp
   1100a:	0000                	unimp
   1100c:	0f00                	addi	s0,sp,912
	...
   11022:	0000                	unimp
   11024:	0f00                	addi	s0,sp,912
	...
   1103a:	0000                	unimp
   1103c:	0f00                	addi	s0,sp,912
	...
   1109a:	0000                	unimp
   1109c:	0f00                	addi	s0,sp,912
	...
   110c6:	00000f0f          	0xf0f
   110ca:	0000                	unimp
   110cc:	0000                	unimp
   110ce:	0000000f          	fence	unknown,unknown
   110d2:	0000                	unimp
   110d4:	0f0f0f0f          	0xf0f0f0f
   110d8:	0000                	unimp
   110da:	0000                	unimp
   110dc:	0f00                	addi	s0,sp,912
   110de:	00000f0f          	0xf0f
   110e2:	0000                	unimp
   110e4:	000f0f0f          	0xf0f0f
   110e8:	0000                	unimp
   110ea:	0000                	unimp
   110ec:	0f00                	addi	s0,sp,912
   110ee:	000f0f0f          	0xf0f0f
   110f2:	0000                	unimp
   110f4:	0f00                	addi	s0,sp,912
   110f6:	000f0f0f          	0xf0f0f
   110fa:	0000                	unimp
   110fc:	0f00                	addi	s0,sp,912
   110fe:	00000f0f          	0xf0f
   11102:	0000                	unimp
   11104:	0000000f          	fence	unknown,unknown
   11108:	0000000f          	fence	unknown,unknown
   1110c:	0000                	unimp
   1110e:	0000000f          	fence	unknown,unknown
   11112:	0000                	unimp
   11114:	0000                	unimp
   11116:	0000                	unimp
   11118:	0000000f          	fence	unknown,unknown
   1111c:	0000000f          	fence	unknown,unknown
   11120:	0000000f          	fence	unknown,unknown
   11124:	0f00                	addi	s0,sp,912
   11126:	0000                	unimp
   11128:	0000                	unimp
   1112a:	0000                	unimp
   1112c:	0000000f          	fence	unknown,unknown
   11130:	0000000f          	fence	unknown,unknown
   11134:	00000f0f          	0xf0f
   11138:	0000000f          	fence	unknown,unknown
   1113c:	0f00                	addi	s0,sp,912
   1113e:	00000f0f          	0xf0f
   11142:	0000                	unimp
   11144:	0f0f0f0f          	0xf0f0f0f
   11148:	0000                	unimp
   1114a:	0000                	unimp
   1114c:	0f00                	addi	s0,sp,912
   1114e:	00000f0f          	0xf0f
   11152:	0000                	unimp
   11154:	0f0f0f0f          	0xf0f0f0f
   11158:	0000                	unimp
   1115a:	0000                	unimp
   1115c:	0f00                	addi	s0,sp,912
   1115e:	00000f0f          	0xf0f
   11162:	0000                	unimp
   11164:	0f0f0f0f          	0xf0f0f0f
   11168:	0000000f          	fence	unknown,unknown
   1116c:	0000000f          	fence	unknown,unknown
   11170:	0000000f          	fence	unknown,unknown
   11174:	0000000f          	fence	unknown,unknown
   11178:	0000000f          	fence	unknown,unknown
   1117c:	0000000f          	fence	unknown,unknown
   11180:	0000000f          	fence	unknown,unknown
   11184:	0000000f          	fence	unknown,unknown
   11188:	0000000f          	fence	unknown,unknown
   1118c:	0000000f          	fence	unknown,unknown
   11190:	0000000f          	fence	unknown,unknown
   11194:	0f00                	addi	s0,sp,912
   11196:	000f0f0f          	0xf0f0f
   1119a:	0000                	unimp
   1119c:	0000                	unimp
   1119e:	00000f0f          	0xf0f
   111a2:	0000                	unimp
   111a4:	0f00                	addi	s0,sp,912
   111a6:	0000                	unimp
   111a8:	0000                	unimp
   111aa:	0000                	unimp
   111ac:	0f00                	addi	s0,sp,912
   111ae:	0000000f          	fence	unknown,unknown
   111b2:	0000                	unimp
   111b4:	0000                	unimp
   111b6:	0000000f          	fence	unknown,unknown
	...
   111c2:	0000                	unimp
   111c4:	0f00                	addi	s0,sp,912
   111c6:	0000                	unimp
   111c8:	0000000f          	fence	unknown,unknown
   111cc:	0000                	unimp
   111ce:	0000000f          	fence	unknown,unknown
   111d2:	0000                	unimp
   111d4:	0000000f          	fence	unknown,unknown
   111d8:	0000000f          	fence	unknown,unknown
   111dc:	0000000f          	fence	unknown,unknown
   111e0:	0000000f          	fence	unknown,unknown
   111e4:	0f00000f          	fence	iorw,unknown
   111e8:	0000                	unimp
   111ea:	0000                	unimp
   111ec:	0f00                	addi	s0,sp,912
   111ee:	0000                	unimp
   111f0:	0000                	unimp
   111f2:	0000                	unimp
   111f4:	0f00                	addi	s0,sp,912
   111f6:	0000                	unimp
   111f8:	0000                	unimp
   111fa:	0000                	unimp
   111fc:	0000000f          	fence	unknown,unknown
   11200:	0000000f          	fence	unknown,unknown
   11204:	0000000f          	fence	unknown,unknown
   11208:	0000000f          	fence	unknown,unknown
   1120c:	0000                	unimp
   1120e:	0000000f          	fence	unknown,unknown
   11212:	0000                	unimp
   11214:	0000                	unimp
   11216:	0000                	unimp
   11218:	0000000f          	fence	unknown,unknown
   1121c:	0f00000f          	fence	iorw,unknown
   11220:	0000                	unimp
   11222:	0000                	unimp
   11224:	0f00                	addi	s0,sp,912
   11226:	0000                	unimp
   11228:	0000                	unimp
   1122a:	0000                	unimp
   1122c:	0f000f0f          	0xf000f0f
   11230:	0000000f          	fence	unknown,unknown
   11234:	00000f0f          	0xf0f
   11238:	0000000f          	fence	unknown,unknown
   1123c:	0000000f          	fence	unknown,unknown
   11240:	0000000f          	fence	unknown,unknown
   11244:	0000000f          	fence	unknown,unknown
   11248:	0000000f          	fence	unknown,unknown
   1124c:	0000000f          	fence	unknown,unknown
   11250:	0000000f          	fence	unknown,unknown
   11254:	0000000f          	fence	unknown,unknown
   11258:	0000000f          	fence	unknown,unknown
   1125c:	0000000f          	fence	unknown,unknown
   11260:	0000000f          	fence	unknown,unknown
   11264:	0000                	unimp
   11266:	0000000f          	fence	unknown,unknown
   1126a:	0000                	unimp
   1126c:	0000000f          	fence	unknown,unknown
   11270:	0000000f          	fence	unknown,unknown
   11274:	0000000f          	fence	unknown,unknown
   11278:	0000000f          	fence	unknown,unknown
   1127c:	0000000f          	fence	unknown,unknown
   11280:	0000000f          	fence	unknown,unknown
   11284:	0000000f          	fence	unknown,unknown
   11288:	0000000f          	fence	unknown,unknown
   1128c:	0000000f          	fence	unknown,unknown
   11290:	0000000f          	fence	unknown,unknown
   11294:	0000                	unimp
   11296:	0000                	unimp
   11298:	0000000f          	fence	unknown,unknown
   1129c:	0000                	unimp
   1129e:	0000000f          	fence	unknown,unknown
   112a2:	0000                	unimp
   112a4:	0f00                	addi	s0,sp,912
	...
   112ae:	0000000f          	fence	unknown,unknown
   112b2:	0000                	unimp
   112b4:	0f00                	addi	s0,sp,912
   112b6:	0f00                	addi	s0,sp,912
	...
   112c4:	0f0f000f          	0xf0f000f
   112c8:	0f00                	addi	s0,sp,912
   112ca:	0000                	unimp
   112cc:	0f00                	addi	s0,sp,912
   112ce:	0f00                	addi	s0,sp,912
   112d0:	0000                	unimp
   112d2:	0000                	unimp
   112d4:	0000000f          	fence	unknown,unknown
   112d8:	0000000f          	fence	unknown,unknown
   112dc:	0000000f          	fence	unknown,unknown
   112e0:	0000                	unimp
   112e2:	0000                	unimp
   112e4:	0000000f          	fence	unknown,unknown
   112e8:	0000000f          	fence	unknown,unknown
   112ec:	0f00                	addi	s0,sp,912
   112ee:	0000                	unimp
   112f0:	0000                	unimp
   112f2:	0000                	unimp
   112f4:	0f00                	addi	s0,sp,912
   112f6:	0000                	unimp
   112f8:	0000                	unimp
   112fa:	0000                	unimp
   112fc:	0000000f          	fence	unknown,unknown
   11300:	0000                	unimp
   11302:	0000                	unimp
   11304:	0000000f          	fence	unknown,unknown
   11308:	0000000f          	fence	unknown,unknown
   1130c:	0000                	unimp
   1130e:	0000000f          	fence	unknown,unknown
   11312:	0000                	unimp
   11314:	0000                	unimp
   11316:	0000                	unimp
   11318:	0000000f          	fence	unknown,unknown
   1131c:	000f000f          	0xf000f
   11320:	0000                	unimp
   11322:	0000                	unimp
   11324:	0f00                	addi	s0,sp,912
   11326:	0000                	unimp
   11328:	0000                	unimp
   1132a:	0000                	unimp
   1132c:	000f000f          	0xf000f
   11330:	0000000f          	fence	unknown,unknown
   11334:	000f000f          	0xf000f
   11338:	0000000f          	fence	unknown,unknown
   1133c:	0000000f          	fence	unknown,unknown
   11340:	0000000f          	fence	unknown,unknown
   11344:	0000000f          	fence	unknown,unknown
   11348:	0000000f          	fence	unknown,unknown
   1134c:	0000000f          	fence	unknown,unknown
   11350:	0000000f          	fence	unknown,unknown
   11354:	0000000f          	fence	unknown,unknown
   11358:	0000000f          	fence	unknown,unknown
   1135c:	0000000f          	fence	unknown,unknown
   11360:	0000                	unimp
   11362:	0000                	unimp
   11364:	0000                	unimp
   11366:	0000000f          	fence	unknown,unknown
   1136a:	0000                	unimp
   1136c:	0000000f          	fence	unknown,unknown
   11370:	0000000f          	fence	unknown,unknown
   11374:	0000000f          	fence	unknown,unknown
   11378:	0000000f          	fence	unknown,unknown
   1137c:	000f000f          	0xf000f
   11380:	0000000f          	fence	unknown,unknown
   11384:	0f00                	addi	s0,sp,912
   11386:	0f00                	addi	s0,sp,912
   11388:	0000                	unimp
   1138a:	0000                	unimp
   1138c:	0f00                	addi	s0,sp,912
   1138e:	0f00                	addi	s0,sp,912
   11390:	0000                	unimp
   11392:	0000                	unimp
   11394:	0000                	unimp
   11396:	0f00                	addi	s0,sp,912
   11398:	0000                	unimp
   1139a:	0000                	unimp
   1139c:	0000                	unimp
   1139e:	0000000f          	fence	unknown,unknown
   113a2:	0000                	unimp
   113a4:	0000                	unimp
   113a6:	0000000f          	fence	unknown,unknown
   113aa:	0000                	unimp
   113ac:	0000                	unimp
   113ae:	0000000f          	fence	unknown,unknown
	...
   113c2:	0000                	unimp
   113c4:	0f000f0f          	0xf000f0f
   113c8:	0f00                	addi	s0,sp,912
   113ca:	0000                	unimp
   113cc:	0f00                	addi	s0,sp,912
   113ce:	0f00                	addi	s0,sp,912
   113d0:	0000                	unimp
   113d2:	0000                	unimp
   113d4:	0f0f0f0f          	0xf0f0f0f
   113d8:	0000                	unimp
   113da:	0000                	unimp
   113dc:	0000000f          	fence	unknown,unknown
   113e0:	0000                	unimp
   113e2:	0000                	unimp
   113e4:	0000000f          	fence	unknown,unknown
   113e8:	0000000f          	fence	unknown,unknown
   113ec:	0f00                	addi	s0,sp,912
   113ee:	00000f0f          	0xf0f
   113f2:	0000                	unimp
   113f4:	0f00                	addi	s0,sp,912
   113f6:	00000f0f          	0xf0f
   113fa:	0000                	unimp
   113fc:	0f00000f          	fence	iorw,unknown
   11400:	0000000f          	fence	unknown,unknown
   11404:	0f0f0f0f          	0xf0f0f0f
   11408:	0000000f          	fence	unknown,unknown
   1140c:	0000                	unimp
   1140e:	0000000f          	fence	unknown,unknown
   11412:	0000                	unimp
   11414:	0000                	unimp
   11416:	0000                	unimp
   11418:	0000000f          	fence	unknown,unknown
   1141c:	00000f0f          	0xf0f
   11420:	0000                	unimp
   11422:	0000                	unimp
   11424:	0f00                	addi	s0,sp,912
   11426:	0000                	unimp
   11428:	0000                	unimp
   1142a:	0000                	unimp
   1142c:	0000000f          	fence	unknown,unknown
   11430:	0000000f          	fence	unknown,unknown
   11434:	000f000f          	0xf000f
   11438:	0000000f          	fence	unknown,unknown
   1143c:	0000000f          	fence	unknown,unknown
   11440:	0000000f          	fence	unknown,unknown
   11444:	0f0f0f0f          	0xf0f0f0f
   11448:	0000                	unimp
   1144a:	0000                	unimp
   1144c:	0000000f          	fence	unknown,unknown
   11450:	0000000f          	fence	unknown,unknown
   11454:	0f0f0f0f          	0xf0f0f0f
   11458:	0000                	unimp
   1145a:	0000                	unimp
   1145c:	0f00                	addi	s0,sp,912
   1145e:	00000f0f          	0xf0f
   11462:	0000                	unimp
   11464:	0000                	unimp
   11466:	0000000f          	fence	unknown,unknown
   1146a:	0000                	unimp
   1146c:	0000000f          	fence	unknown,unknown
   11470:	0000000f          	fence	unknown,unknown
   11474:	0f00                	addi	s0,sp,912
   11476:	0f00                	addi	s0,sp,912
   11478:	0000                	unimp
   1147a:	0000                	unimp
   1147c:	000f000f          	0xf000f
   11480:	0000000f          	fence	unknown,unknown
   11484:	0000                	unimp
   11486:	0000000f          	fence	unknown,unknown
   1148a:	0000                	unimp
   1148c:	0000                	unimp
   1148e:	0000000f          	fence	unknown,unknown
   11492:	0000                	unimp
   11494:	0000                	unimp
   11496:	0000000f          	fence	unknown,unknown
   1149a:	0000                	unimp
   1149c:	0000                	unimp
   1149e:	0000000f          	fence	unknown,unknown
   114a2:	0000                	unimp
   114a4:	0000                	unimp
   114a6:	0000000f          	fence	unknown,unknown
   114aa:	0000                	unimp
   114ac:	0000                	unimp
   114ae:	0000000f          	fence	unknown,unknown
	...
   114c2:	0000                	unimp
   114c4:	0f000f0f          	0xf000f0f
   114c8:	0f00                	addi	s0,sp,912
   114ca:	0000                	unimp
   114cc:	0f0f0f0f          	0xf0f0f0f
   114d0:	0000000f          	fence	unknown,unknown
   114d4:	0000000f          	fence	unknown,unknown
   114d8:	0000000f          	fence	unknown,unknown
   114dc:	0000000f          	fence	unknown,unknown
   114e0:	0000                	unimp
   114e2:	0000                	unimp
   114e4:	0000000f          	fence	unknown,unknown
   114e8:	0000000f          	fence	unknown,unknown
   114ec:	0f00                	addi	s0,sp,912
   114ee:	0000                	unimp
   114f0:	0000                	unimp
   114f2:	0000                	unimp
   114f4:	0f00                	addi	s0,sp,912
   114f6:	0000                	unimp
   114f8:	0000                	unimp
   114fa:	0000                	unimp
   114fc:	0000000f          	fence	unknown,unknown
   11500:	0000000f          	fence	unknown,unknown
   11504:	0000000f          	fence	unknown,unknown
   11508:	0000000f          	fence	unknown,unknown
   1150c:	0000                	unimp
   1150e:	0000000f          	fence	unknown,unknown
   11512:	0000                	unimp
   11514:	0000000f          	fence	unknown,unknown
   11518:	0000000f          	fence	unknown,unknown
   1151c:	000f000f          	0xf000f
   11520:	0000                	unimp
   11522:	0000                	unimp
   11524:	0f00                	addi	s0,sp,912
   11526:	0000                	unimp
   11528:	0000                	unimp
   1152a:	0000                	unimp
   1152c:	0000000f          	fence	unknown,unknown
   11530:	0000000f          	fence	unknown,unknown
   11534:	0f00000f          	fence	iorw,unknown
   11538:	0000000f          	fence	unknown,unknown
   1153c:	0000000f          	fence	unknown,unknown
   11540:	0000000f          	fence	unknown,unknown
   11544:	0000000f          	fence	unknown,unknown
   11548:	0000                	unimp
   1154a:	0000                	unimp
   1154c:	0000000f          	fence	unknown,unknown
   11550:	0000000f          	fence	unknown,unknown
   11554:	000f000f          	0xf000f
	...
   11560:	0000000f          	fence	unknown,unknown
   11564:	0000                	unimp
   11566:	0000000f          	fence	unknown,unknown
   1156a:	0000                	unimp
   1156c:	0000000f          	fence	unknown,unknown
   11570:	0000000f          	fence	unknown,unknown
   11574:	0f00                	addi	s0,sp,912
   11576:	0f00                	addi	s0,sp,912
   11578:	0000                	unimp
   1157a:	0000                	unimp
   1157c:	0f00                	addi	s0,sp,912
   1157e:	0f00                	addi	s0,sp,912
   11580:	0000                	unimp
   11582:	0000                	unimp
   11584:	0f00                	addi	s0,sp,912
   11586:	0f00                	addi	s0,sp,912
   11588:	0000                	unimp
   1158a:	0000                	unimp
   1158c:	0000                	unimp
   1158e:	0000000f          	fence	unknown,unknown
   11592:	0000                	unimp
   11594:	0f00                	addi	s0,sp,912
	...
   1159e:	0000000f          	fence	unknown,unknown
   115a2:	0000                	unimp
   115a4:	0000                	unimp
   115a6:	0f00                	addi	s0,sp,912
   115a8:	0000                	unimp
   115aa:	0000                	unimp
   115ac:	0000                	unimp
   115ae:	0000000f          	fence	unknown,unknown
	...
   115c2:	0000                	unimp
   115c4:	0f0f000f          	0xf0f000f
   115c8:	0000000f          	fence	unknown,unknown
   115cc:	0000000f          	fence	unknown,unknown
   115d0:	0000000f          	fence	unknown,unknown
   115d4:	0000000f          	fence	unknown,unknown
   115d8:	0000000f          	fence	unknown,unknown
   115dc:	0000000f          	fence	unknown,unknown
   115e0:	0000000f          	fence	unknown,unknown
   115e4:	0f00000f          	fence	iorw,unknown
   115e8:	0000                	unimp
   115ea:	0000                	unimp
   115ec:	0f00                	addi	s0,sp,912
   115ee:	0000                	unimp
   115f0:	0000                	unimp
   115f2:	0000                	unimp
   115f4:	0f00                	addi	s0,sp,912
   115f6:	0000                	unimp
   115f8:	0000                	unimp
   115fa:	0000                	unimp
   115fc:	0000000f          	fence	unknown,unknown
   11600:	0000000f          	fence	unknown,unknown
   11604:	0000000f          	fence	unknown,unknown
   11608:	0000000f          	fence	unknown,unknown
   1160c:	0000                	unimp
   1160e:	0000000f          	fence	unknown,unknown
   11612:	0000                	unimp
   11614:	0000000f          	fence	unknown,unknown
   11618:	0000000f          	fence	unknown,unknown
   1161c:	0f00000f          	fence	iorw,unknown
   11620:	0000                	unimp
   11622:	0000                	unimp
   11624:	0f00                	addi	s0,sp,912
   11626:	0000                	unimp
   11628:	0000                	unimp
   1162a:	0000                	unimp
   1162c:	0000000f          	fence	unknown,unknown
   11630:	0000000f          	fence	unknown,unknown
   11634:	0f00000f          	fence	iorw,unknown
   11638:	0000000f          	fence	unknown,unknown
   1163c:	0000000f          	fence	unknown,unknown
   11640:	0000000f          	fence	unknown,unknown
   11644:	0000000f          	fence	unknown,unknown
   11648:	0000                	unimp
   1164a:	0000                	unimp
   1164c:	000f000f          	0xf000f
   11650:	0000000f          	fence	unknown,unknown
   11654:	0f00000f          	fence	iorw,unknown
   11658:	0000                	unimp
   1165a:	0000                	unimp
   1165c:	0000000f          	fence	unknown,unknown
   11660:	0000000f          	fence	unknown,unknown
   11664:	0000                	unimp
   11666:	0000000f          	fence	unknown,unknown
   1166a:	0000                	unimp
   1166c:	0000000f          	fence	unknown,unknown
   11670:	0000000f          	fence	unknown,unknown
   11674:	0000                	unimp
   11676:	0000000f          	fence	unknown,unknown
   1167a:	0000                	unimp
   1167c:	0f00                	addi	s0,sp,912
   1167e:	0f00                	addi	s0,sp,912
   11680:	0000                	unimp
   11682:	0000                	unimp
   11684:	0000000f          	fence	unknown,unknown
   11688:	0000000f          	fence	unknown,unknown
   1168c:	0000                	unimp
   1168e:	0000000f          	fence	unknown,unknown
   11692:	0000                	unimp
   11694:	0f00                	addi	s0,sp,912
	...
   1169e:	0000000f          	fence	unknown,unknown
   116a2:	0000                	unimp
   116a4:	0000                	unimp
   116a6:	0f00                	addi	s0,sp,912
   116a8:	0000                	unimp
   116aa:	0000                	unimp
   116ac:	0000                	unimp
   116ae:	0000000f          	fence	unknown,unknown
	...
   116c2:	0000                	unimp
   116c4:	0f00                	addi	s0,sp,912
   116c6:	0000                	unimp
   116c8:	0000                	unimp
   116ca:	0000                	unimp
   116cc:	0000000f          	fence	unknown,unknown
   116d0:	0000000f          	fence	unknown,unknown
   116d4:	0f0f0f0f          	0xf0f0f0f
   116d8:	0000                	unimp
   116da:	0000                	unimp
   116dc:	0f00                	addi	s0,sp,912
   116de:	00000f0f          	0xf0f
   116e2:	0000                	unimp
   116e4:	000f0f0f          	0xf0f0f
   116e8:	0000                	unimp
   116ea:	0000                	unimp
   116ec:	0f00                	addi	s0,sp,912
   116ee:	000f0f0f          	0xf0f0f
   116f2:	0000                	unimp
   116f4:	0f00                	addi	s0,sp,912
   116f6:	0000                	unimp
   116f8:	0000                	unimp
   116fa:	0000                	unimp
   116fc:	0f00                	addi	s0,sp,912
   116fe:	00000f0f          	0xf0f
   11702:	0000                	unimp
   11704:	0000000f          	fence	unknown,unknown
   11708:	0000000f          	fence	unknown,unknown
   1170c:	0000                	unimp
   1170e:	0000000f          	fence	unknown,unknown
   11712:	0000                	unimp
   11714:	0f00                	addi	s0,sp,912
   11716:	00000f0f          	0xf0f
   1171a:	0000                	unimp
   1171c:	0000000f          	fence	unknown,unknown
   11720:	0000000f          	fence	unknown,unknown
   11724:	0f00                	addi	s0,sp,912
   11726:	000f0f0f          	0xf0f0f
   1172a:	0000                	unimp
   1172c:	0000000f          	fence	unknown,unknown
   11730:	0000000f          	fence	unknown,unknown
   11734:	0000000f          	fence	unknown,unknown
   11738:	0000000f          	fence	unknown,unknown
   1173c:	0f00                	addi	s0,sp,912
   1173e:	00000f0f          	0xf0f
   11742:	0000                	unimp
   11744:	0000000f          	fence	unknown,unknown
   11748:	0000                	unimp
   1174a:	0000                	unimp
   1174c:	0f00                	addi	s0,sp,912
   1174e:	00000f0f          	0xf0f
   11752:	0000                	unimp
   11754:	0000000f          	fence	unknown,unknown
   11758:	0000000f          	fence	unknown,unknown
   1175c:	0f00                	addi	s0,sp,912
   1175e:	00000f0f          	0xf0f
   11762:	0000                	unimp
   11764:	0000                	unimp
   11766:	0000000f          	fence	unknown,unknown
   1176a:	0000                	unimp
   1176c:	0f00                	addi	s0,sp,912
   1176e:	00000f0f          	0xf0f
   11772:	0000                	unimp
   11774:	0000                	unimp
   11776:	0000000f          	fence	unknown,unknown
   1177a:	0000                	unimp
   1177c:	0f00                	addi	s0,sp,912
   1177e:	0f00                	addi	s0,sp,912
   11780:	0000                	unimp
   11782:	0000                	unimp
   11784:	0000000f          	fence	unknown,unknown
   11788:	0000000f          	fence	unknown,unknown
   1178c:	0000                	unimp
   1178e:	0000000f          	fence	unknown,unknown
   11792:	0000                	unimp
   11794:	0f00                	addi	s0,sp,912
   11796:	000f0f0f          	0xf0f0f
   1179a:	0000                	unimp
   1179c:	0000                	unimp
   1179e:	0000000f          	fence	unknown,unknown
   117a2:	0000                	unimp
   117a4:	0000                	unimp
   117a6:	0000                	unimp
   117a8:	0000000f          	fence	unknown,unknown
   117ac:	0000                	unimp
   117ae:	0000000f          	fence	unknown,unknown
	...
   117c6:	00000f0f          	0xf0f
	...
   1184e:	0f00                	addi	s0,sp,912
	...
   1189c:	0000                	unimp
   1189e:	00000f0f          	0xf0f
   118a2:	0000                	unimp
   118a4:	0000                	unimp
   118a6:	0000                	unimp
   118a8:	0000000f          	fence	unknown,unknown
   118ac:	0f00                	addi	s0,sp,912
   118ae:	0000000f          	fence	unknown,unknown
	...
   118ba:	0000                	unimp
   118bc:	0f0f0f0f          	0xf0f0f0f
   118c0:	00000f0f          	0xf0f
   118c4:	0000                	unimp
   118c6:	00000f0f          	0xf0f
	...
   118d2:	0000                	unimp
   118d4:	0f00                	addi	s0,sp,912
	...
   118e6:	0000                	unimp
   118e8:	0000000f          	fence	unknown,unknown
	...
   118f4:	0000                	unimp
   118f6:	0f00                	addi	s0,sp,912
   118f8:	0000000f          	fence	unknown,unknown
	...
   11904:	0f00                	addi	s0,sp,912
	...
   1190e:	0000000f          	fence	unknown,unknown
   11912:	0000                	unimp
   11914:	0000                	unimp
   11916:	0f00                	addi	s0,sp,912
   11918:	0000                	unimp
   1191a:	0000                	unimp
   1191c:	0f00                	addi	s0,sp,912
	...
   11926:	0000000f          	fence	unknown,unknown
	...
   11966:	0000000f          	fence	unknown,unknown
	...
   1199e:	0f00                	addi	s0,sp,912
   119a0:	0000                	unimp
   119a2:	0000                	unimp
   119a4:	0000                	unimp
   119a6:	0000000f          	fence	unknown,unknown
   119aa:	0000                	unimp
   119ac:	0f00                	addi	s0,sp,912
   119ae:	0000                	unimp
   119b0:	0000                	unimp
   119b2:	0000                	unimp
   119b4:	0f00                	addi	s0,sp,912
   119b6:	000f000f          	0xf000f
   119ba:	0000                	unimp
   119bc:	0000                	unimp
   119be:	00000f0f          	0xf0f
   119c2:	0000                	unimp
   119c4:	0f00                	addi	s0,sp,912
	...
   119d2:	0000                	unimp
   119d4:	0f00                	addi	s0,sp,912
	...
   119e6:	0000                	unimp
   119e8:	0000000f          	fence	unknown,unknown
	...
   119f4:	0000                	unimp
   119f6:	0000000f          	fence	unknown,unknown
	...
   11a02:	0000                	unimp
   11a04:	0f00                	addi	s0,sp,912
	...
   11a1a:	0000                	unimp
   11a1c:	0f00                	addi	s0,sp,912
	...
   11a26:	0000000f          	fence	unknown,unknown
	...
   11a66:	0000000f          	fence	unknown,unknown
	...
   11a9e:	0000000f          	fence	unknown,unknown
   11aa2:	0000                	unimp
   11aa4:	0000                	unimp
   11aa6:	0000000f          	fence	unknown,unknown
   11aaa:	0000                	unimp
   11aac:	0000                	unimp
   11aae:	0000000f          	fence	unknown,unknown
   11ab2:	0000                	unimp
   11ab4:	0f0f000f          	0xf0f000f
   11ab8:	0000                	unimp
   11aba:	0000                	unimp
   11abc:	0f00                	addi	s0,sp,912
   11abe:	0000                	unimp
   11ac0:	0000000f          	fence	unknown,unknown
   11ac4:	0f00                	addi	s0,sp,912
	...
   11ace:	00000f0f          	0xf0f
   11ad2:	0000                	unimp
   11ad4:	0f00                	addi	s0,sp,912
   11ad6:	00000f0f          	0xf0f
   11ada:	0000                	unimp
   11adc:	0000                	unimp
   11ade:	00000f0f          	0xf0f
   11ae2:	0000                	unimp
   11ae4:	0000                	unimp
   11ae6:	000f0f0f          	0xf0f0f
   11aea:	0000                	unimp
   11aec:	0000                	unimp
   11aee:	00000f0f          	0xf0f
   11af2:	0000                	unimp
   11af4:	0f00                	addi	s0,sp,912
   11af6:	00000f0f          	0xf0f
   11afa:	0000                	unimp
   11afc:	0000                	unimp
   11afe:	000f0f0f          	0xf0f0f
   11b02:	0000                	unimp
   11b04:	0f00                	addi	s0,sp,912
   11b06:	00000f0f          	0xf0f
   11b0a:	0000                	unimp
   11b0c:	0000                	unimp
   11b0e:	0000000f          	fence	unknown,unknown
   11b12:	0000                	unimp
   11b14:	0000                	unimp
   11b16:	0f00                	addi	s0,sp,912
   11b18:	0000                	unimp
   11b1a:	0000                	unimp
   11b1c:	0f00                	addi	s0,sp,912
   11b1e:	0000                	unimp
   11b20:	0000000f          	fence	unknown,unknown
   11b24:	0000                	unimp
   11b26:	0000000f          	fence	unknown,unknown
   11b2a:	0000                	unimp
   11b2c:	0f000f0f          	0xf000f0f
   11b30:	0000                	unimp
   11b32:	0000                	unimp
   11b34:	0f00                	addi	s0,sp,912
   11b36:	00000f0f          	0xf0f
   11b3a:	0000                	unimp
   11b3c:	0000                	unimp
   11b3e:	00000f0f          	0xf0f
   11b42:	0000                	unimp
   11b44:	0f00                	addi	s0,sp,912
   11b46:	00000f0f          	0xf0f
   11b4a:	0000                	unimp
   11b4c:	0000                	unimp
   11b4e:	000f0f0f          	0xf0f0f
   11b52:	0000                	unimp
   11b54:	0f00                	addi	s0,sp,912
   11b56:	0f00                	addi	s0,sp,912
   11b58:	0000000f          	fence	unknown,unknown
   11b5c:	0000                	unimp
   11b5e:	000f0f0f          	0xf0f0f
   11b62:	0000                	unimp
   11b64:	0f00                	addi	s0,sp,912
   11b66:	00000f0f          	0xf0f
   11b6a:	0000                	unimp
   11b6c:	0f00                	addi	s0,sp,912
   11b6e:	0000                	unimp
   11b70:	0000000f          	fence	unknown,unknown
   11b74:	0000000f          	fence	unknown,unknown
   11b78:	0000000f          	fence	unknown,unknown
   11b7c:	0000000f          	fence	unknown,unknown
   11b80:	0000000f          	fence	unknown,unknown
   11b84:	0000000f          	fence	unknown,unknown
   11b88:	0000000f          	fence	unknown,unknown
   11b8c:	0000000f          	fence	unknown,unknown
   11b90:	0000000f          	fence	unknown,unknown
   11b94:	0f00                	addi	s0,sp,912
   11b96:	000f0f0f          	0xf0f0f
   11b9a:	0000                	unimp
   11b9c:	0000                	unimp
   11b9e:	0000000f          	fence	unknown,unknown
   11ba2:	0000                	unimp
   11ba4:	0000                	unimp
   11ba6:	0000000f          	fence	unknown,unknown
   11baa:	0000                	unimp
   11bac:	0000                	unimp
   11bae:	0000000f          	fence	unknown,unknown
	...
   11bba:	0000                	unimp
   11bbc:	0f0f000f          	0xf0f000f
   11bc0:	0f00                	addi	s0,sp,912
   11bc2:	0000                	unimp
   11bc4:	000f0f0f          	0xf0f0f
	...
   11bd0:	0000000f          	fence	unknown,unknown
   11bd4:	0f00                	addi	s0,sp,912
   11bd6:	0000                	unimp
   11bd8:	0000000f          	fence	unknown,unknown
   11bdc:	0f00                	addi	s0,sp,912
   11bde:	0000                	unimp
   11be0:	0000000f          	fence	unknown,unknown
   11be4:	0f00                	addi	s0,sp,912
   11be6:	0000                	unimp
   11be8:	0000000f          	fence	unknown,unknown
   11bec:	0f00                	addi	s0,sp,912
   11bee:	0000                	unimp
   11bf0:	0000000f          	fence	unknown,unknown
   11bf4:	0000                	unimp
   11bf6:	0000000f          	fence	unknown,unknown
   11bfa:	0000                	unimp
   11bfc:	0f00                	addi	s0,sp,912
   11bfe:	0000                	unimp
   11c00:	0000000f          	fence	unknown,unknown
   11c04:	0f00                	addi	s0,sp,912
   11c06:	0000                	unimp
   11c08:	0000000f          	fence	unknown,unknown
   11c0c:	0000                	unimp
   11c0e:	0000000f          	fence	unknown,unknown
   11c12:	0000                	unimp
   11c14:	0000                	unimp
   11c16:	0f00                	addi	s0,sp,912
   11c18:	0000                	unimp
   11c1a:	0000                	unimp
   11c1c:	0f00                	addi	s0,sp,912
   11c1e:	0f00                	addi	s0,sp,912
   11c20:	0000                	unimp
   11c22:	0000                	unimp
   11c24:	0000                	unimp
   11c26:	0000000f          	fence	unknown,unknown
   11c2a:	0000                	unimp
   11c2c:	000f000f          	0xf000f
   11c30:	0000000f          	fence	unknown,unknown
   11c34:	0f00                	addi	s0,sp,912
   11c36:	0000                	unimp
   11c38:	0000000f          	fence	unknown,unknown
   11c3c:	0f00                	addi	s0,sp,912
   11c3e:	0000                	unimp
   11c40:	0000000f          	fence	unknown,unknown
   11c44:	0f00                	addi	s0,sp,912
   11c46:	0000                	unimp
   11c48:	0000000f          	fence	unknown,unknown
   11c4c:	0f00                	addi	s0,sp,912
   11c4e:	0000                	unimp
   11c50:	0000000f          	fence	unknown,unknown
   11c54:	0f00                	addi	s0,sp,912
   11c56:	0000000f          	fence	unknown,unknown
   11c5a:	0000                	unimp
   11c5c:	0f00                	addi	s0,sp,912
	...
   11c66:	0000000f          	fence	unknown,unknown
   11c6a:	0000                	unimp
   11c6c:	0f00                	addi	s0,sp,912
   11c6e:	0000                	unimp
   11c70:	0000000f          	fence	unknown,unknown
   11c74:	0f00                	addi	s0,sp,912
   11c76:	0f00                	addi	s0,sp,912
   11c78:	0000                	unimp
   11c7a:	0000                	unimp
   11c7c:	0000000f          	fence	unknown,unknown
   11c80:	0000000f          	fence	unknown,unknown
   11c84:	0f00                	addi	s0,sp,912
   11c86:	0f00                	addi	s0,sp,912
   11c88:	0000                	unimp
   11c8a:	0000                	unimp
   11c8c:	0f00                	addi	s0,sp,912
   11c8e:	0f00                	addi	s0,sp,912
   11c90:	0000                	unimp
   11c92:	0000                	unimp
   11c94:	0000                	unimp
   11c96:	0f00                	addi	s0,sp,912
   11c98:	0000                	unimp
   11c9a:	0000                	unimp
   11c9c:	0f00                	addi	s0,sp,912
	...
   11cae:	0f00                	addi	s0,sp,912
	...
   11cbc:	00000f0f          	0xf0f
   11cc0:	0f00                	addi	s0,sp,912
   11cc2:	0000                	unimp
   11cc4:	0f00                	addi	s0,sp,912
	...
   11cce:	000f0f0f          	0xf0f0f
   11cd2:	0000                	unimp
   11cd4:	0f00                	addi	s0,sp,912
   11cd6:	0000                	unimp
   11cd8:	0000000f          	fence	unknown,unknown
   11cdc:	0f00                	addi	s0,sp,912
   11cde:	0000                	unimp
   11ce0:	0000                	unimp
   11ce2:	0000                	unimp
   11ce4:	0f00                	addi	s0,sp,912
   11ce6:	0000                	unimp
   11ce8:	0000000f          	fence	unknown,unknown
   11cec:	0f00                	addi	s0,sp,912
   11cee:	000f0f0f          	0xf0f0f
   11cf2:	0000                	unimp
   11cf4:	0000                	unimp
   11cf6:	0000000f          	fence	unknown,unknown
   11cfa:	0000                	unimp
   11cfc:	0f00                	addi	s0,sp,912
   11cfe:	0000                	unimp
   11d00:	0000000f          	fence	unknown,unknown
   11d04:	0f00                	addi	s0,sp,912
   11d06:	0000                	unimp
   11d08:	0000000f          	fence	unknown,unknown
   11d0c:	0000                	unimp
   11d0e:	0000000f          	fence	unknown,unknown
   11d12:	0000                	unimp
   11d14:	0000                	unimp
   11d16:	0f00                	addi	s0,sp,912
   11d18:	0000                	unimp
   11d1a:	0000                	unimp
   11d1c:	0f00                	addi	s0,sp,912
   11d1e:	0000000f          	fence	unknown,unknown
   11d22:	0000                	unimp
   11d24:	0000                	unimp
   11d26:	0000000f          	fence	unknown,unknown
   11d2a:	0000                	unimp
   11d2c:	000f000f          	0xf000f
   11d30:	0000000f          	fence	unknown,unknown
   11d34:	0f00                	addi	s0,sp,912
   11d36:	0000                	unimp
   11d38:	0000000f          	fence	unknown,unknown
   11d3c:	0f00                	addi	s0,sp,912
   11d3e:	0000                	unimp
   11d40:	0000000f          	fence	unknown,unknown
   11d44:	0f00                	addi	s0,sp,912
   11d46:	0000                	unimp
   11d48:	0000000f          	fence	unknown,unknown
   11d4c:	0f00                	addi	s0,sp,912
   11d4e:	0000                	unimp
   11d50:	0000000f          	fence	unknown,unknown
   11d54:	0f00                	addi	s0,sp,912
	...
   11d5e:	00000f0f          	0xf0f
   11d62:	0000                	unimp
   11d64:	0000                	unimp
   11d66:	0000000f          	fence	unknown,unknown
   11d6a:	0000                	unimp
   11d6c:	0f00                	addi	s0,sp,912
   11d6e:	0000                	unimp
   11d70:	0000000f          	fence	unknown,unknown
   11d74:	0f00                	addi	s0,sp,912
   11d76:	0f00                	addi	s0,sp,912
   11d78:	0000                	unimp
   11d7a:	0000                	unimp
   11d7c:	000f000f          	0xf000f
   11d80:	0000000f          	fence	unknown,unknown
   11d84:	0000                	unimp
   11d86:	0000000f          	fence	unknown,unknown
   11d8a:	0000                	unimp
   11d8c:	0f00                	addi	s0,sp,912
   11d8e:	0f00                	addi	s0,sp,912
   11d90:	0000                	unimp
   11d92:	0000                	unimp
   11d94:	0000                	unimp
   11d96:	0000000f          	fence	unknown,unknown
   11d9a:	0000                	unimp
   11d9c:	0000                	unimp
   11d9e:	0000000f          	fence	unknown,unknown
	...
   11dae:	0000000f          	fence	unknown,unknown
	...
   11dba:	0000                	unimp
   11dbc:	00000f0f          	0xf0f
   11dc0:	0f00                	addi	s0,sp,912
   11dc2:	0000                	unimp
   11dc4:	0f00                	addi	s0,sp,912
   11dc6:	0000                	unimp
   11dc8:	0000000f          	fence	unknown,unknown
   11dcc:	0f00                	addi	s0,sp,912
   11dce:	0000                	unimp
   11dd0:	0000000f          	fence	unknown,unknown
   11dd4:	0f00                	addi	s0,sp,912
   11dd6:	0000                	unimp
   11dd8:	0000000f          	fence	unknown,unknown
   11ddc:	0f00                	addi	s0,sp,912
   11dde:	0000                	unimp
   11de0:	0000000f          	fence	unknown,unknown
   11de4:	0f00                	addi	s0,sp,912
   11de6:	0000                	unimp
   11de8:	0000000f          	fence	unknown,unknown
   11dec:	0f00                	addi	s0,sp,912
	...
   11df6:	0000000f          	fence	unknown,unknown
   11dfa:	0000                	unimp
   11dfc:	0000                	unimp
   11dfe:	000f0f0f          	0xf0f0f
   11e02:	0000                	unimp
   11e04:	0f00                	addi	s0,sp,912
   11e06:	0000                	unimp
   11e08:	0000000f          	fence	unknown,unknown
   11e0c:	0000                	unimp
   11e0e:	0000000f          	fence	unknown,unknown
   11e12:	0000                	unimp
   11e14:	0000                	unimp
   11e16:	0f00                	addi	s0,sp,912
   11e18:	0000                	unimp
   11e1a:	0000                	unimp
   11e1c:	0f00                	addi	s0,sp,912
   11e1e:	0f00                	addi	s0,sp,912
   11e20:	0000                	unimp
   11e22:	0000                	unimp
   11e24:	0000                	unimp
   11e26:	0000000f          	fence	unknown,unknown
   11e2a:	0000                	unimp
   11e2c:	000f000f          	0xf000f
   11e30:	0000000f          	fence	unknown,unknown
   11e34:	0f00                	addi	s0,sp,912
   11e36:	0000                	unimp
   11e38:	0000000f          	fence	unknown,unknown
   11e3c:	0f00                	addi	s0,sp,912
   11e3e:	0000                	unimp
   11e40:	0000000f          	fence	unknown,unknown
   11e44:	0f00                	addi	s0,sp,912
   11e46:	00000f0f          	0xf0f
   11e4a:	0000                	unimp
   11e4c:	0000                	unimp
   11e4e:	000f0f0f          	0xf0f0f
   11e52:	0000                	unimp
   11e54:	0f00                	addi	s0,sp,912
	...
   11e5e:	0000                	unimp
   11e60:	0000000f          	fence	unknown,unknown
   11e64:	0000                	unimp
   11e66:	0000000f          	fence	unknown,unknown
   11e6a:	0000                	unimp
   11e6c:	0f00                	addi	s0,sp,912
   11e6e:	0000                	unimp
   11e70:	0000000f          	fence	unknown,unknown
   11e74:	0000                	unimp
   11e76:	0000000f          	fence	unknown,unknown
   11e7a:	0000                	unimp
   11e7c:	0f00                	addi	s0,sp,912
   11e7e:	0f00                	addi	s0,sp,912
   11e80:	0000                	unimp
   11e82:	0000                	unimp
   11e84:	0f00                	addi	s0,sp,912
   11e86:	0f00                	addi	s0,sp,912
   11e88:	0000                	unimp
   11e8a:	0000                	unimp
   11e8c:	0000                	unimp
   11e8e:	0000000f          	fence	unknown,unknown
   11e92:	0000                	unimp
   11e94:	0f00                	addi	s0,sp,912
	...
   11e9e:	0000000f          	fence	unknown,unknown
   11ea2:	0000                	unimp
   11ea4:	0000                	unimp
   11ea6:	0000000f          	fence	unknown,unknown
   11eaa:	0000                	unimp
   11eac:	0000                	unimp
   11eae:	0000000f          	fence	unknown,unknown
	...
   11eba:	0000                	unimp
   11ebc:	0f0f000f          	0xf0f000f
   11ec0:	0f00                	addi	s0,sp,912
   11ec2:	0000                	unimp
   11ec4:	0f0f0f0f          	0xf0f0f0f
   11ec8:	0000                	unimp
   11eca:	0000                	unimp
   11ecc:	0000                	unimp
   11ece:	000f0f0f          	0xf0f0f
   11ed2:	0000                	unimp
   11ed4:	0f00                	addi	s0,sp,912
   11ed6:	00000f0f          	0xf0f
   11eda:	0000                	unimp
   11edc:	0000                	unimp
   11ede:	00000f0f          	0xf0f
   11ee2:	0000                	unimp
   11ee4:	0000                	unimp
   11ee6:	000f0f0f          	0xf0f0f
   11eea:	0000                	unimp
   11eec:	0000                	unimp
   11eee:	00000f0f          	0xf0f
   11ef2:	0000                	unimp
   11ef4:	0000                	unimp
   11ef6:	0000000f          	fence	unknown,unknown
   11efa:	0000                	unimp
   11efc:	0000                	unimp
   11efe:	0000                	unimp
   11f00:	0000000f          	fence	unknown,unknown
   11f04:	0f00                	addi	s0,sp,912
   11f06:	0000                	unimp
   11f08:	0000000f          	fence	unknown,unknown
   11f0c:	0000                	unimp
   11f0e:	0000000f          	fence	unknown,unknown
   11f12:	0000                	unimp
   11f14:	0000                	unimp
   11f16:	0f00                	addi	s0,sp,912
   11f18:	0000                	unimp
   11f1a:	0000                	unimp
   11f1c:	0f00                	addi	s0,sp,912
   11f1e:	0000                	unimp
   11f20:	0000000f          	fence	unknown,unknown
   11f24:	0000                	unimp
   11f26:	0f00                	addi	s0,sp,912
   11f28:	0000                	unimp
   11f2a:	0000                	unimp
   11f2c:	000f000f          	0xf000f
   11f30:	0000000f          	fence	unknown,unknown
   11f34:	0f00                	addi	s0,sp,912
   11f36:	0000                	unimp
   11f38:	0000000f          	fence	unknown,unknown
   11f3c:	0000                	unimp
   11f3e:	00000f0f          	0xf0f
   11f42:	0000                	unimp
   11f44:	0f00                	addi	s0,sp,912
	...
   11f4e:	0000                	unimp
   11f50:	0000000f          	fence	unknown,unknown
   11f54:	0f00                	addi	s0,sp,912
   11f56:	0000                	unimp
   11f58:	0000                	unimp
   11f5a:	0000                	unimp
   11f5c:	0f00                	addi	s0,sp,912
   11f5e:	00000f0f          	0xf0f
   11f62:	0000                	unimp
   11f64:	0000                	unimp
   11f66:	0f00                	addi	s0,sp,912
   11f68:	0000                	unimp
   11f6a:	0000                	unimp
   11f6c:	0000                	unimp
   11f6e:	00000f0f          	0xf0f
   11f72:	0000                	unimp
   11f74:	0000                	unimp
   11f76:	0000000f          	fence	unknown,unknown
   11f7a:	0000                	unimp
   11f7c:	0f00                	addi	s0,sp,912
   11f7e:	0f00                	addi	s0,sp,912
   11f80:	0000                	unimp
   11f82:	0000                	unimp
   11f84:	0000000f          	fence	unknown,unknown
   11f88:	0000000f          	fence	unknown,unknown
   11f8c:	0000                	unimp
   11f8e:	0000000f          	fence	unknown,unknown
   11f92:	0000                	unimp
   11f94:	0f00                	addi	s0,sp,912
   11f96:	000f0f0f          	0xf0f0f
   11f9a:	0000                	unimp
   11f9c:	0000                	unimp
   11f9e:	0000000f          	fence	unknown,unknown
   11fa2:	0000                	unimp
   11fa4:	0000                	unimp
   11fa6:	0000000f          	fence	unknown,unknown
   11faa:	0000                	unimp
   11fac:	0000                	unimp
   11fae:	0000000f          	fence	unknown,unknown
	...
   11fba:	0000                	unimp
   11fbc:	0f00                	addi	s0,sp,912
   11fbe:	0000                	unimp
   11fc0:	0000000f          	fence	unknown,unknown
	...
   11ffc:	0000                	unimp
   11ffe:	00000f0f          	0xf0f
	...
   12012:	0000                	unimp
   12014:	0f00                	addi	s0,sp,912
   12016:	0000000f          	fence	unknown,unknown
	...
   12042:	0000                	unimp
   12044:	0f00                	addi	s0,sp,912
	...
   1204e:	0000                	unimp
   12050:	0000000f          	fence	unknown,unknown
	...
   1208c:	00000f0f          	0xf0f
	...
   1209c:	0000                	unimp
   1209e:	0f00                	addi	s0,sp,912
   120a0:	0000                	unimp
   120a2:	0000                	unimp
   120a4:	0000                	unimp
   120a6:	0000000f          	fence	unknown,unknown
   120aa:	0000                	unimp
   120ac:	0f00                	addi	s0,sp,912
	...
   120be:	00000f0f          	0xf0f
	...

Disassembly of section .eh_frame:

000130c4 <__EH_FRAME_BEGIN__>:
   130c4:	0010                	0x10
   130c6:	0000                	unimp
   130c8:	0000                	unimp
   130ca:	0000                	unimp
   130cc:	00527a03          	0x527a03
   130d0:	7c01                	lui	s8,0xfffe0
   130d2:	0101                	addi	sp,sp,0
   130d4:	00020d1b          	0x20d1b
   130d8:	0028                	addi	a0,sp,8
   130da:	0000                	unimp
   130dc:	0018                	0x18
   130de:	0000                	unimp
   130e0:	cf94                	sw	a3,24(a5)
   130e2:	ffff                	0xffff
   130e4:	0148                	addi	a0,sp,132
   130e6:	0000                	unimp
   130e8:	4400                	lw	s0,8(s0)
   130ea:	300e                	fld	ft0,224(sp)
   130ec:	9548                	0x9548
   130ee:	68089607          	0x68089607
   130f2:	0288                	addi	a0,sp,320
   130f4:	0389                	addi	t2,t2,2
   130f6:	0492                	slli	s1,s1,0x4
   130f8:	06940593          	addi	a1,s0,105
   130fc:	0a980997          	auipc	s3,0xa980
   13100:	0181                	addi	gp,gp,0
   13102:	0000                	unimp
   13104:	0010                	0x10
   13106:	0000                	unimp
   13108:	0044                	addi	s1,sp,4
   1310a:	0000                	unimp
   1310c:	d178                	sw	a4,100(a0)
   1310e:	ffff                	0xffff
   13110:	022c                	addi	a1,sp,264
   13112:	0000                	unimp
   13114:	0000                	unimp
	...

00013118 <__FRAME_END__>:
   13118:	0000                	unimp
	...

Disassembly of section .init_array:

0001311c <__init_array_start>:
   1311c:	01bc                	addi	a5,sp,200
   1311e:	0001                	nop

00013120 <__frame_dummy_init_array_entry>:
   13120:	0264                	addi	s1,sp,268
   13122:	0001                	nop

Disassembly of section .fini_array:

00013124 <__do_global_dtors_aux_fini_array_entry>:
   13124:	0220                	addi	s0,sp,264
   13126:	0001                	nop

Disassembly of section .data:

00013128 <GPUCTL>:
   13128:	0000                	unimp
   1312a:	8104                	0x8104

0001312c <GPUFB>:
   1312c:	0000                	unimp
   1312e:	8100                	0x8100

00013130 <GPUFBWORD>:
   13130:	0000                	unimp
   13132:	8100                	0x8100
   13134:	0000                	unimp
	...

00013138 <impure_data>:
   13138:	0000                	unimp
   1313a:	0000                	unimp
   1313c:	3424                	fld	fs1,104(s0)
   1313e:	0001                	nop
   13140:	348c                	fld	fa1,40(s1)
   13142:	0001                	nop
   13144:	34f4                	fld	fa3,232(s1)
   13146:	0001                	nop
	...
   131e0:	0001                	nop
   131e2:	0000                	unimp
   131e4:	0000                	unimp
   131e6:	0000                	unimp
   131e8:	330e                	fld	ft6,224(sp)
   131ea:	abcd                	j	137dc <__BSS_END__+0x240>
   131ec:	1234                	addi	a3,sp,296
   131ee:	e66d                	bnez	a2,132d8 <impure_data+0x1a0>
   131f0:	deec                	sw	a1,124(a3)
   131f2:	0005                	c.nop	1
   131f4:	0000000b          	0xb
	...

Disassembly of section .got:

00013560 <.got>:
   13560:	ffff                	0xffff
   13562:	ffff                	0xffff
   13564:	0000                	unimp
	...

00013568 <_GLOBAL_OFFSET_TABLE_>:
   13568:	0000                	unimp
   1356a:	0000                	unimp
   1356c:	312c                	fld	fa1,96(a0)
   1356e:	0001                	nop
   13570:	3130                	fld	fa2,96(a0)
   13572:	0001                	nop
   13574:	3128                	fld	fa0,96(a0)
   13576:	0001                	nop

Disassembly of section .sdata:

00013578 <_global_impure_ptr>:
   13578:	3138                	fld	fa4,96(a0)
   1357a:	0001                	nop

0001357c <_impure_ptr>:
   1357c:	3138                	fld	fa4,96(a0)
   1357e:	0001                	nop

Disassembly of section .bss:

00013580 <completed.1>:
   13580:	0000                	unimp
	...

00013584 <object.0>:
	...

Disassembly of section .comment:

00000000 <.comment>:
   0:	3a434347          	fmsub.d	ft6,ft6,ft4,ft7,rmm
   4:	2820                	fld	fs0,80(s0)
   6:	29554e47          	fmsub.s	ft8,fa0,fs5,ft5,rmm
   a:	3120                	fld	fs0,96(a0)
   c:	2e31                	jal	328 <main-0xfd4c>
   e:	2e31                	jal	32a <main-0xfd4a>
  10:	0030                	addi	a2,sp,8

Disassembly of section .riscv.attributes:

00000000 <.riscv.attributes>:
   0:	2941                	jal	490 <main-0xfbe4>
   2:	0000                	unimp
   4:	7200                	flw	fs0,32(a2)
   6:	7369                	lui	t1,0xffffa
   8:	01007663          	bgeu	zero,a6,14 <main-0x10060>
   c:	001f 0000 1004      	0x10040000001f
  12:	7205                	lui	tp,0xfffe1
  14:	3376                	fld	ft6,376(sp)
  16:	6932                	flw	fs2,12(sp)
  18:	7032                	flw	ft0,44(sp)
  1a:	5f30                	lw	a2,120(a4)
  1c:	326d                	jal	fffff9c6 <__global_pointer$+0xfffec09e>
  1e:	3070                	fld	fa2,224(s0)
  20:	665f 7032 0030      	0x307032665f
  26:	0108                	addi	a0,sp,128
  28:	0b0a                	slli	s6,s6,0x2

Disassembly of section .debug_aranges:

00000000 <.debug_aranges>:
   0:	001c                	0x1c
   2:	0000                	unimp
   4:	0002                	c.slli64	zero
   6:	0000                	unimp
   8:	0000                	unimp
   a:	0004                	0x4
	...

Disassembly of section .debug_info:

00000000 <.debug_info>:
   0:	075d                	addi	a4,a4,23
   2:	0000                	unimp
   4:	0005                	c.nop	1
   6:	0401                	addi	s0,s0,0
   8:	0000                	unimp
   a:	0000                	unimp
   c:	2a11                	jal	120 <main-0xff54>
   e:	0000                	unimp
  10:	1d00                	addi	s0,sp,688
  12:	0000                	unimp
  14:	0000                	unimp
  16:	002c                	addi	a1,sp,8
	...
  24:	0000                	unimp
  26:	0804                	addi	s1,sp,16
  28:	00011b07          	0x11b07
  2c:	1200                	addi	s0,sp,288
  2e:	0504                	addi	s1,sp,640
  30:	6e69                	lui	t3,0x1a
  32:	0074                	addi	a3,sp,12
  34:	0404                	addi	s1,sp,512
  36:	00012507          	flw	fa0,0(sp)
  3a:	0400                	addi	s0,sp,512
  3c:	0508                	addi	a0,sp,640
  3e:	010d                	addi	sp,sp,3
  40:	0000                	unimp
  42:	1004                	addi	s1,sp,32
  44:	c204                	sw	s1,0(a2)
  46:	0001                	nop
  48:	0400                	addi	s0,sp,512
  4a:	0601                	addi	a2,a2,0
  4c:	00000143          	fmadd.s	ft2,ft0,ft0,ft0,rne
  50:	0104                	addi	s1,sp,128
  52:	4108                	lw	a0,0(a0)
  54:	0001                	nop
  56:	0400                	addi	s0,sp,512
  58:	0502                	c.slli64	a0
  5a:	0020                	addi	s0,sp,8
  5c:	0000                	unimp
  5e:	0204                	addi	s1,sp,256
  60:	00017407          	0x17407
  64:	0400                	addi	s0,sp,512
  66:	0504                	addi	s1,sp,640
  68:	0112                	slli	sp,sp,0x4
  6a:	0000                	unimp
  6c:	0404                	addi	s1,sp,512
  6e:	00012007          	flw	ft0,0(sp)
  72:	0400                	addi	s0,sp,512
  74:	0801                	addi	a6,a6,0
  76:	014a                	slli	sp,sp,0x12
  78:	0000                	unimp
  7a:	6306                	flw	ft6,64(sp)
  7c:	0001                	nop
  7e:	7b00                	flw	fs0,48(a4)
  80:	5016                	0x5016
  82:	0000                	unimp
  84:	0900                	addi	s0,sp,144
  86:	007a                	c.slli	zero,0x1e
  88:	0000                	unimp
  8a:	cf06                	sw	ra,156(sp)
  8c:	0001                	nop
  8e:	8000                	0x8000
  90:	00002d0f          	0x2d0f
  94:	0600                	addi	s0,sp,768
  96:	01ce                	slli	gp,gp,0x13
  98:	0000                	unimp
  9a:	1681                	addi	a3,a3,-32
  9c:	0034                	addi	a3,sp,8
  9e:	0000                	unimp
  a0:	8806                	mv	a6,ra
  a2:	0001                	nop
  a4:	8400                	0x8400
  a6:	00003b0f          	0x3b0f
  aa:	0600                	addi	s0,sp,768
  ac:	00000187          	0x187
  b0:	1685                	addi	a3,a3,-31
  b2:	0026                	c.slli	zero,0x9
  b4:	0000                	unimp
  b6:	0404                	addi	s1,sp,512
  b8:	1a04                	addi	s1,sp,304
  ba:	0000                	unimp
  bc:	0400                	addi	s0,sp,512
  be:	0308                	addi	a0,sp,384
  c0:	0012                	c.slli	zero,0x4
  c2:	0000                	unimp
  c4:	0804                	addi	s1,sp,16
  c6:	c704                	sw	s1,8(a4)
  c8:	0001                	nop
  ca:	0400                	addi	s0,sp,512
  cc:	0310                	addi	a2,sp,384
  ce:	0199                	addi	gp,gp,6
  d0:	0000                	unimp
  d2:	2004                	fld	fs1,0(s0)
  d4:	0001ba03          	0x1ba03
  d8:	1300                	addi	s0,sp,416
  da:	0000016b          	0x16b
  de:	0208                	addi	a0,sp,256
  e0:	01ed                	addi	gp,gp,27
  e2:	040a                	slli	s0,s0,0x2
  e4:	0001                	nop
  e6:	1400                	addi	s0,sp,544
  e8:	6f6c                	flw	fa1,92(a4)
  ea:	ed020077          	0xed020077
  ee:	1a01                	addi	s4,s4,-32
  f0:	008a                	slli	ra,ra,0x2
  f2:	0000                	unimp
  f4:	1500                	addi	s0,sp,672
  f6:	0132                	slli	sp,sp,0xc
  f8:	0000                	unimp
  fa:	ed02                	fsw	ft0,152(sp)
  fc:	1f01                	addi	t5,t5,-32
  fe:	008a                	slli	ra,ra,0x2
 100:	0000                	unimp
 102:	0004                	0x4
 104:	0816                	slli	a6,a6,0x5
 106:	f402                	fsw	ft0,40(sp)
 108:	0901                	addi	s2,s2,0
 10a:	0124                	addi	s1,sp,136
 10c:	0000                	unimp
 10e:	730c                	flw	fa1,32(a4)
 110:	f600                	fsw	fs0,40(a2)
 112:	1301                	addi	t1,t1,-32
 114:	00d9                	addi	ra,ra,22
 116:	0000                	unimp
 118:	6c0c                	flw	fa1,24(s0)
 11a:	006c                	addi	a1,sp,12
 11c:	a00a01f7          	0xa00a01f7
 120:	0000                	unimp
 122:	0000                	unimp
 124:	00000017          	auipc	zero,0x0
 128:	0200                	addi	s0,sp,256
 12a:	01f8                	addi	a4,sp,204
 12c:	00010403          	lb	s0,0(sp)
 130:	0900                	addi	s0,sp,144
 132:	0124                	addi	s1,sp,136
 134:	0000                	unimp
 136:	8518                	0x8518
 138:	0000                	unimp
 13a:	4600                	lw	s0,8(a2)
 13c:	0001                	nop
 13e:	1900                	addi	s0,sp,176
 140:	0034                	addi	a3,sp,8
 142:	0000                	unimp
 144:	00ff                	0xff
 146:	3609                	jal	fffffc48 <__global_pointer$+0xfffec320>
 148:	0001                	nop
 14a:	1a00                	addi	s0,sp,304
 14c:	00000137          	lui	sp,0x0
 150:	0202                	c.slli64	tp
 152:	1602                	slli	a2,a2,0x20
 154:	0146                	slli	sp,sp,0x11
 156:	0000                	unimp
 158:	0000081b          	0x81b
 15c:	0100                	addi	s0,sp,128
 15e:	0512                	slli	a0,a0,0x4
 160:	ab01                	j	670 <main-0xfa04>
	...
 16a:	0000                	unimp
 16c:	0100                	addi	s0,sp,128
 16e:	2e9c                	fld	fa5,24(a3)
 170:	0004                	0x4
 172:	0d00                	addi	s0,sp,656
 174:	006e                	c.slli	zero,0x1b
 176:	ab14                	fsd	fa3,16(a4)
 178:	0000                	unimp
 17a:	0c00                	addi	s0,sp,528
 17c:	0000                	unimp
 17e:	0d00                	addi	s0,sp,656
 180:	0064                	addi	s1,sp,12
 182:	ab1f 0000 ed00      	0xed000000ab1f
 188:	0000                	unimp
 18a:	1c00                	addi	s0,sp,560
 18c:	042e                	slli	s0,s0,0xb
 18e:	0000                	unimp
 190:	0000                	unimp
 192:	0000                	unimp
 194:	000c                	0xc
 196:	0000                	unimp
 198:	1401                	addi	s0,s0,-32
 19a:	0a05                	addi	s4,s4,1
 19c:	500a                	0x500a
 19e:	0004                	0x4
 1a0:	7e00                	flw	fs0,56(a2)
 1a2:	0001                	nop
 1a4:	0a00                	addi	s0,sp,272
 1a6:	0448                	addi	a0,sp,516
 1a8:	0000                	unimp
 1aa:	00000197          	auipc	gp,0x0
 1ae:	400a                	0x400a
 1b0:	0004                	0x4
 1b2:	e800                	fsw	fs0,16(s0)
 1b4:	0001                	nop
 1b6:	1d00                	addi	s0,sp,688
 1b8:	0028                	addi	a0,sp,8
 1ba:	0000                	unimp
 1bc:	5908                	lw	a0,48(a0)
 1be:	0004                	0x4
 1c0:	0800                	addi	s0,sp,16
 1c2:	0464                	addi	s1,sp,524
 1c4:	0000                	unimp
 1c6:	6f08                	flw	fa0,24(a4)
 1c8:	0004                	0x4
 1ca:	0100                	addi	s0,sp,128
 1cc:	047a                	slli	s0,s0,0x1e
 1ce:	0000                	unimp
 1d0:	02b9                	addi	t0,t0,14
 1d2:	0000                	unimp
 1d4:	8501                	c.srai64	a0
 1d6:	0004                	0x4
 1d8:	3800                	fld	fs0,48(s0)
 1da:	01000003          	lb	zero,16(zero) # 10 <main-0x10064>
 1de:	0490                	addi	a2,sp,576
 1e0:	0000                	unimp
 1e2:	0000037b          	0x37b
 1e6:	9b01                	andi	a4,a4,-32
 1e8:	0004                	0x4
 1ea:	ef00                	fsw	fs0,24(a4)
 1ec:	01000003          	lb	zero,16(zero) # 10 <main-0x10064>
 1f0:	04a6                	slli	s1,s1,0x9
 1f2:	0000                	unimp
 1f4:	04b6                	slli	s1,s1,0xd
 1f6:	0000                	unimp
 1f8:	b101                	j	fffffdf8 <__global_pointer$+0xfffec4d0>
 1fa:	0004                	0x4
 1fc:	cd00                	sw	s0,24(a0)
 1fe:	0004                	0x4
 200:	0100                	addi	s0,sp,128
 202:	04bc                	addi	a5,sp,584
 204:	0000                	unimp
 206:	000004ef          	jal	s1,206 <main-0xfe6e>
 20a:	c701                	beqz	a4,212 <main-0xfe62>
 20c:	0004                	0x4
 20e:	1200                	addi	s0,sp,288
 210:	0005                	c.nop	1
 212:	0100                	addi	s0,sp,128
 214:	04d1                	addi	s1,s1,20
 216:	0000                	unimp
 218:	0529                	addi	a0,a0,10
 21a:	0000                	unimp
 21c:	dc08                	sw	a0,56(s0)
 21e:	0004                	0x4
 220:	0700                	addi	s0,sp,896
 222:	000004e7          	jalr	s1,zero # 0 <main-0x10074>
 226:	004d                	c.nop	19
 228:	0000                	unimp
 22a:	0241                	addi	tp,tp,16
 22c:	0000                	unimp
 22e:	ec01                	bnez	s0,246 <main-0xfe2e>
 230:	0004                	0x4
 232:	6100                	flw	fs0,0(a0)
 234:	0005                	c.nop	1
 236:	0100                	addi	s0,sp,128
 238:	04f8                	addi	a4,sp,588
 23a:	0000                	unimp
 23c:	0596                	slli	a1,a1,0x5
 23e:	0000                	unimp
 240:	0e00                	addi	s0,sp,784
 242:	0505                	addi	a0,a0,1
	...
 24c:	0000                	unimp
 24e:	0292                	slli	t0,t0,0x4
 250:	0000                	unimp
 252:	0a01                	addi	s4,s4,0
 254:	0005                	c.nop	1
 256:	a200                	fsd	fs0,0(a2)
 258:	0005                	c.nop	1
 25a:	0100                	addi	s0,sp,128
 25c:	0516                	slli	a0,a0,0x5
 25e:	0000                	unimp
 260:	05ae                	slli	a1,a1,0xb
 262:	0000                	unimp
 264:	2201                	jal	364 <main-0xfd10>
 266:	0005                	c.nop	1
 268:	ba00                	fsd	fs0,48(a2)
 26a:	0005                	c.nop	1
 26c:	0100                	addi	s0,sp,128
 26e:	052e                	slli	a0,a0,0xb
 270:	0000                	unimp
 272:	05d1                	addi	a1,a1,20
 274:	0000                	unimp
 276:	3a01                	jal	fffffb86 <__global_pointer$+0xfffec25e>
 278:	0005                	c.nop	1
 27a:	e800                	fsw	fs0,16(s0)
 27c:	0005                	c.nop	1
 27e:	0100                	addi	s0,sp,128
 280:	0546                	slli	a0,a0,0x11
 282:	0000                	unimp
 284:	062c                	addi	a1,sp,776
 286:	0000                	unimp
 288:	5201                	li	tp,-32
 28a:	0005                	c.nop	1
 28c:	5300                	lw	s0,32(a4)
 28e:	0006                	c.slli	zero,0x1
 290:	0000                	unimp
 292:	00066107          	0x66107
 296:	6000                	flw	fs0,0(s0)
 298:	0000                	unimp
 29a:	5100                	lw	s0,32(a0)
 29c:	01000003          	lb	zero,16(zero) # 10 <main-0x10064>
 2a0:	0662                	slli	a2,a2,0x18
 2a2:	0000                	unimp
 2a4:	067a                	slli	a2,a2,0x1e
 2a6:	0000                	unimp
 2a8:	6d01                	0x6d01
 2aa:	0006                	c.slli	zero,0x1
 2ac:	8600                	0x8600
 2ae:	0006                	c.slli	zero,0x1
 2b0:	0700                	addi	s0,sp,896
 2b2:	0678                	addi	a4,sp,780
 2b4:	0000                	unimp
 2b6:	00000073          	ecall
 2ba:	02fe                	slli	t0,t0,0x1f
 2bc:	0000                	unimp
 2be:	7d01                	lui	s10,0xfffe0
 2c0:	0006                	c.slli	zero,0x1
 2c2:	c000                	sw	s0,0(s0)
 2c4:	0006                	c.slli	zero,0x1
 2c6:	0100                	addi	s0,sp,128
 2c8:	0689                	addi	a3,a3,2
 2ca:	0000                	unimp
 2cc:	06cc                	addi	a1,sp,836
 2ce:	0000                	unimp
 2d0:	9501                	srai	a0,a0,0x20
 2d2:	0006                	c.slli	zero,0x1
 2d4:	e900                	fsw	fs0,16(a0)
 2d6:	0006                	c.slli	zero,0x1
 2d8:	0100                	addi	s0,sp,128
 2da:	06a1                	addi	a3,a3,8
 2dc:	0000                	unimp
 2de:	0700                	addi	s0,sp,896
 2e0:	0000                	unimp
 2e2:	ad01                	j	8f2 <main-0xf782>
 2e4:	0006                	c.slli	zero,0x1
 2e6:	1700                	addi	s0,sp,928
 2e8:	01000007          	0x1000007
 2ec:	06b9                	addi	a3,a3,14
 2ee:	0000                	unimp
 2f0:	0749                	addi	a4,a4,18
 2f2:	0000                	unimp
 2f4:	c501                	beqz	a0,2fc <main-0xfd78>
 2f6:	0006                	c.slli	zero,0x1
 2f8:	7b00                	flw	fs0,48(a4)
 2fa:	00000007          	0x7
 2fe:	0006d20f          	0x6d20f
 302:	9800                	0x9800
 304:	0000                	unimp
 306:	0100                	addi	s0,sp,128
 308:	000006d7          	0x6d7
 30c:	07a2                	slli	a5,a5,0x8
 30e:	0000                	unimp
 310:	e301                	bnez	a4,310 <main-0xfd64>
 312:	0006                	c.slli	zero,0x1
 314:	ae00                	fsd	fs0,24(a2)
 316:	01000007          	0x1000007
 31a:	000006ef          	jal	a3,31a <main-0xfd5a>
 31e:	000007e7          	jalr	a5,zero # 0 <main-0x10074>
 322:	fb01                	bnez	a4,232 <main-0xfe42>
 324:	0006                	c.slli	zero,0x1
 326:	f300                	fsw	fs0,32(a4)
 328:	01000007          	0x1000007
 32c:	00000707          	0x707
 330:	07ff                	0x7ff
 332:	0000                	unimp
 334:	1301                	addi	t1,t1,-32
 336:	4b000007          	0x4b000007
 33a:	0008                	0x8
 33c:	0100                	addi	s0,sp,128
 33e:	071f 0000 0857      	0x8570000071f
 344:	0000                	unimp
 346:	2b01                	jal	856 <main-0xf81e>
 348:	81000007          	0x81000007
 34c:	0008                	0x8
 34e:	0000                	unimp
 350:	0700                	addi	s0,sp,896
 352:	055f 0000 00c6      	0xc60000055f
 358:	0000                	unimp
 35a:	0371                	addi	t1,t1,28
 35c:	0000                	unimp
 35e:	6401                	0x6401
 360:	0005                	c.nop	1
 362:	8d00                	0x8d00
 364:	0008                	0x8
 366:	0100                	addi	s0,sp,128
 368:	0570                	addi	a2,sp,652
 36a:	0000                	unimp
 36c:	08cd                	addi	a7,a7,19
 36e:	0000                	unimp
 370:	0e00                	addi	s0,sp,784
 372:	000005d7          	0x5d7
	...
 37e:	03c2                	slli	t2,t2,0x10
 380:	0000                	unimp
 382:	dc01                	beqz	s0,29a <main-0xfdda>
 384:	0005                	c.nop	1
 386:	d900                	sw	s0,48(a0)
 388:	0008                	0x8
 38a:	0100                	addi	s0,sp,128
 38c:	05e8                	addi	a0,sp,716
 38e:	0000                	unimp
 390:	08e5                	addi	a7,a7,25
 392:	0000                	unimp
 394:	f401                	bnez	s0,29c <main-0xfdd8>
 396:	0005                	c.nop	1
 398:	f100                	fsw	fs0,32(a0)
 39a:	0008                	0x8
 39c:	0100                	addi	s0,sp,128
 39e:	0600                	addi	s0,sp,768
 3a0:	0000                	unimp
 3a2:	0908                	addi	a0,sp,144
 3a4:	0000                	unimp
 3a6:	0c01                	addi	s8,s8,0
 3a8:	0006                	c.slli	zero,0x1
 3aa:	1f00                	addi	s0,sp,944
 3ac:	0009                	c.nop	2
 3ae:	0100                	addi	s0,sp,128
 3b0:	0618                	addi	a4,sp,768
 3b2:	0000                	unimp
 3b4:	0951                	addi	s2,s2,20
 3b6:	0000                	unimp
 3b8:	2401                	jal	5b8 <main-0xfabc>
 3ba:	0006                	c.slli	zero,0x1
 3bc:	7800                	flw	fs0,48(s0)
 3be:	0009                	c.nop	2
 3c0:	0000                	unimp
 3c2:	00057d07          	0x57d07
 3c6:	d900                	sw	s0,48(a0)
 3c8:	0000                	unimp
 3ca:	0f00                	addi	s0,sp,912
 3cc:	0004                	0x4
 3ce:	0100                	addi	s0,sp,128
 3d0:	0582                	c.slli64	a1
 3d2:	0000                	unimp
 3d4:	099f 0000 8e01      	0x8e010000099f
 3da:	0005                	c.nop	1
 3dc:	ab00                	fsd	fs0,16(a4)
 3de:	0009                	c.nop	2
 3e0:	0100                	addi	s0,sp,128
 3e2:	059a                	slli	a1,a1,0x6
 3e4:	0000                	unimp
 3e6:	09c8                	addi	a0,sp,212
 3e8:	0000                	unimp
 3ea:	a601                	j	6ea <main-0xf98a>
 3ec:	0005                	c.nop	1
 3ee:	df00                	sw	s0,56(a4)
 3f0:	0009                	c.nop	2
 3f2:	0100                	addi	s0,sp,128
 3f4:	05b2                	slli	a1,a1,0xc
 3f6:	0000                	unimp
 3f8:	09f6                	slli	s3,s3,0x1d
 3fa:	0000                	unimp
 3fc:	be01                	j	ffffff0c <__global_pointer$+0xfffec5e4>
 3fe:	0005                	c.nop	1
 400:	2800                	fld	fs0,16(s0)
 402:	000a                	c.slli	zero,0x2
 404:	0100                	addi	s0,sp,128
 406:	05ca                	slli	a1,a1,0x12
 408:	0000                	unimp
 40a:	0a5a                	slli	s4,s4,0x16
 40c:	0000                	unimp
 40e:	0f00                	addi	s0,sp,912
 410:	0631                	addi	a2,a2,12
 412:	0000                	unimp
 414:	00fe                	slli	ra,ra,0x1f
 416:	0000                	unimp
 418:	3601                	jal	ffffff18 <__global_pointer$+0xfffec5f0>
 41a:	0006                	c.slli	zero,0x1
 41c:	8100                	0x8100
 41e:	000a                	c.slli	zero,0x2
 420:	0100                	addi	s0,sp,128
 422:	0642                	slli	a2,a2,0x10
 424:	0000                	unimp
 426:	0a8d                	addi	s5,s5,3
 428:	0000                	unimp
 42a:	0000                	unimp
 42c:	0000                	unimp
 42e:	ad1e                	fsd	ft7,152(sp)
 430:	0001                	nop
 432:	0100                	addi	s0,sp,128
 434:	ab0103e3          	beq	sp,a6,fffffeda <__global_pointer$+0xfffec5b2>
 438:	0000                	unimp
 43a:	0300                	addi	s0,sp,384
 43c:	075a                	slli	a4,a4,0x16
 43e:	0000                	unimp
 440:	17006e0b          	0x17006e0b
 444:	000000ab          	0xab
 448:	2200640b          	0x2200640b
 44c:	000000ab          	0xab
 450:	0070720b          	0x70720b
 454:	5a2e                	lw	s4,232(sp)
 456:	03000007          	0x3000007
 45a:	6e6e                	flw	ft8,216(sp)
 45c:	e500                	fsw	fs0,8(a0)
 45e:	01311103          	lh	sp,19(sp) # 13 <main-0x10061>
 462:	0000                	unimp
 464:	00646403          	0x646403
 468:	03e6                	slli	t2,t2,0x19
 46a:	3111                	jal	6e <main-0x10006>
 46c:	0001                	nop
 46e:	0300                	addi	s0,sp,384
 470:	7272                	flw	ft4,60(sp)
 472:	e700                	fsw	fs0,8(a4)
 474:	01240b03          	lb	s6,18(s0)
 478:	0000                	unimp
 47a:	00306403          	0x306403
 47e:	03e8                	addi	a0,sp,460
 480:	950a                	add	a0,a0,sp
 482:	0000                	unimp
 484:	0300                	addi	s0,sp,384
 486:	3164                	fld	fs1,224(a0)
 488:	e800                	fsw	fs0,16(s0)
 48a:	00950e03          	lb	t3,9(a0)
 48e:	0000                	unimp
 490:	00306e03          	0x306e03
 494:	03e8                	addi	a0,sp,460
 496:	9512                	add	a0,a0,tp
 498:	0000                	unimp
 49a:	0300                	addi	s0,sp,384
 49c:	316e                	fld	ft2,248(sp)
 49e:	e800                	fsw	fs0,16(s0)
 4a0:	00951603          	lh	a2,9(a0)
 4a4:	0000                	unimp
 4a6:	00326e03          	0x326e03
 4aa:	03e8                	addi	a0,sp,460
 4ac:	951a                	add	a0,a0,t1
 4ae:	0000                	unimp
 4b0:	0300                	addi	s0,sp,384
 4b2:	3071                	jal	fffffd3e <__global_pointer$+0xfffec416>
 4b4:	e900                	fsw	fs0,16(a0)
 4b6:	00950a03          	lb	s4,9(a0)
 4ba:	0000                	unimp
 4bc:	00317103          	0x317103
 4c0:	03e9                	addi	t2,t2,26
 4c2:	950e                	add	a0,a0,gp
 4c4:	0000                	unimp
 4c6:	0300                	addi	s0,sp,384
 4c8:	0062                	c.slli	zero,0x18
 4ca:	03ea                	slli	t2,t2,0x1a
 4cc:	950a                	add	a0,a0,sp
 4ce:	0000                	unimp
 4d0:	0300                	addi	s0,sp,384
 4d2:	6d62                	flw	fs10,24(sp)
 4d4:	ea00                	fsw	fs0,16(a2)
 4d6:	00950d03          	lb	s10,9(a0)
 4da:	0000                	unimp
 4dc:	00777703          	0x777703
 4e0:	311104b3          	0x311104b3
 4e4:	0001                	nop
 4e6:	0500                	addi	s0,sp,640
 4e8:	0505                	addi	a0,a0,1
 4ea:	0000                	unimp
 4ec:	a802                	fsd	ft0,16(sp)
 4ee:	0001                	nop
 4f0:	1a00                	addi	s0,sp,304
 4f2:	0404                	addi	s1,sp,512
 4f4:	0095                	addi	ra,ra,5
 4f6:	0000                	unimp
 4f8:	615f5f03          	lhu	t5,1557(t5)
 4fc:	1a00                	addi	s0,sp,304
 4fe:	0404                	addi	s1,sp,512
 500:	0095                	addi	ra,ra,5
 502:	0000                	unimp
 504:	0500                	addi	s0,sp,640
 506:	055f 0000 fe02      	0xfe020000055f
 50c:	0000                	unimp
 50e:	2600                	fld	fs0,8(a2)
 510:	0404                	addi	s1,sp,512
 512:	0095                	addi	ra,ra,5
 514:	0000                	unimp
 516:	f902                	fsw	ft0,176(sp)
 518:	0000                	unimp
 51a:	2600                	fld	fs0,8(a2)
 51c:	0404                	addi	s1,sp,512
 51e:	0095                	addi	ra,ra,5
 520:	0000                	unimp
 522:	9402                	jalr	s0
 524:	0001                	nop
 526:	2600                	fld	fs0,8(a2)
 528:	0404                	addi	s1,sp,512
 52a:	0095                	addi	ra,ra,5
 52c:	0000                	unimp
 52e:	8f02                	jr	t5
 530:	0001                	nop
 532:	2600                	fld	fs0,8(a2)
 534:	0404                	addi	s1,sp,512
 536:	0095                	addi	ra,ra,5
 538:	0000                	unimp
 53a:	db02                	sw	zero,180(sp)
 53c:	0001                	nop
 53e:	2600                	fld	fs0,8(a2)
 540:	0404                	addi	s1,sp,512
 542:	0095                	addi	ra,ra,5
 544:	0000                	unimp
 546:	d602                	sw	zero,44(sp)
 548:	0001                	nop
 54a:	2600                	fld	fs0,8(a2)
 54c:	0404                	addi	s1,sp,512
 54e:	0095                	addi	ra,ra,5
 550:	0000                	unimp
 552:	6d5f5f03          	lhu	t5,1749(t5)
 556:	2600                	fld	fs0,8(a2)
 558:	0404                	addi	s1,sp,512
 55a:	0095                	addi	ra,ra,5
 55c:	0000                	unimp
 55e:	0500                	addi	s0,sp,640
 560:	057d                	addi	a0,a0,31
 562:	0000                	unimp
 564:	a802                	fsd	ft0,16(sp)
 566:	0001                	nop
 568:	3200                	fld	fs0,32(a2)
 56a:	0404                	addi	s1,sp,512
 56c:	0095                	addi	ra,ra,5
 56e:	0000                	unimp
 570:	615f5f03          	lhu	t5,1557(t5)
 574:	3200                	fld	fs0,32(a2)
 576:	0404                	addi	s1,sp,512
 578:	0095                	addi	ra,ra,5
 57a:	0000                	unimp
 57c:	0500                	addi	s0,sp,640
 57e:	000005d7          	0x5d7
 582:	fe02                	fsw	ft0,60(sp)
 584:	0000                	unimp
 586:	4b00                	lw	s0,16(a4)
 588:	0804                	addi	s1,sp,16
 58a:	0095                	addi	ra,ra,5
 58c:	0000                	unimp
 58e:	f902                	fsw	ft0,176(sp)
 590:	0000                	unimp
 592:	4b00                	lw	s0,16(a4)
 594:	0804                	addi	s1,sp,16
 596:	0095                	addi	ra,ra,5
 598:	0000                	unimp
 59a:	9402                	jalr	s0
 59c:	0001                	nop
 59e:	4b00                	lw	s0,16(a4)
 5a0:	0804                	addi	s1,sp,16
 5a2:	0095                	addi	ra,ra,5
 5a4:	0000                	unimp
 5a6:	8f02                	jr	t5
 5a8:	0001                	nop
 5aa:	4b00                	lw	s0,16(a4)
 5ac:	0804                	addi	s1,sp,16
 5ae:	0095                	addi	ra,ra,5
 5b0:	0000                	unimp
 5b2:	db02                	sw	zero,180(sp)
 5b4:	0001                	nop
 5b6:	4b00                	lw	s0,16(a4)
 5b8:	0804                	addi	s1,sp,16
 5ba:	0095                	addi	ra,ra,5
 5bc:	0000                	unimp
 5be:	d602                	sw	zero,44(sp)
 5c0:	0001                	nop
 5c2:	4b00                	lw	s0,16(a4)
 5c4:	0804                	addi	s1,sp,16
 5c6:	0095                	addi	ra,ra,5
 5c8:	0000                	unimp
 5ca:	6d5f5f03          	lhu	t5,1749(t5)
 5ce:	4b00                	lw	s0,16(a4)
 5d0:	0804                	addi	s1,sp,16
 5d2:	0095                	addi	ra,ra,5
 5d4:	0000                	unimp
 5d6:	0500                	addi	s0,sp,640
 5d8:	0631                	addi	a2,a2,12
 5da:	0000                	unimp
 5dc:	fe02                	fsw	ft0,60(sp)
 5de:	0000                	unimp
 5e0:	5000                	lw	s0,32(s0)
 5e2:	0404                	addi	s1,sp,512
 5e4:	0095                	addi	ra,ra,5
 5e6:	0000                	unimp
 5e8:	f902                	fsw	ft0,176(sp)
 5ea:	0000                	unimp
 5ec:	5000                	lw	s0,32(s0)
 5ee:	0404                	addi	s1,sp,512
 5f0:	0095                	addi	ra,ra,5
 5f2:	0000                	unimp
 5f4:	9402                	jalr	s0
 5f6:	0001                	nop
 5f8:	5000                	lw	s0,32(s0)
 5fa:	0404                	addi	s1,sp,512
 5fc:	0095                	addi	ra,ra,5
 5fe:	0000                	unimp
 600:	8f02                	jr	t5
 602:	0001                	nop
 604:	5000                	lw	s0,32(s0)
 606:	0404                	addi	s1,sp,512
 608:	0095                	addi	ra,ra,5
 60a:	0000                	unimp
 60c:	db02                	sw	zero,180(sp)
 60e:	0001                	nop
 610:	5000                	lw	s0,32(s0)
 612:	0404                	addi	s1,sp,512
 614:	0095                	addi	ra,ra,5
 616:	0000                	unimp
 618:	d602                	sw	zero,44(sp)
 61a:	0001                	nop
 61c:	5000                	lw	s0,32(s0)
 61e:	0404                	addi	s1,sp,512
 620:	0095                	addi	ra,ra,5
 622:	0000                	unimp
 624:	6d5f5f03          	lhu	t5,1749(t5)
 628:	5000                	lw	s0,32(s0)
 62a:	0404                	addi	s1,sp,512
 62c:	0095                	addi	ra,ra,5
 62e:	0000                	unimp
 630:	0500                	addi	s0,sp,640
 632:	0000064f          	fnmadd.s	fa2,ft0,ft0,ft0,rne
 636:	a802                	fsd	ft0,16(sp)
 638:	0001                	nop
 63a:	7300                	flw	fs0,32(a4)
 63c:	0404                	addi	s1,sp,512
 63e:	0095                	addi	ra,ra,5
 640:	0000                	unimp
 642:	615f5f03          	lhu	t5,1557(t5)
 646:	7300                	flw	fs0,32(a4)
 648:	0404                	addi	s1,sp,512
 64a:	0095                	addi	ra,ra,5
 64c:	0000                	unimp
 64e:	0500                	addi	s0,sp,640
 650:	0661                	addi	a2,a2,24
 652:	0000                	unimp
 654:	785f5f03          	lhu	t5,1925(t5)
 658:	8100                	0x8100
 65a:	0504                	addi	s1,sp,640
 65c:	0095                	addi	ra,ra,5
 65e:	0000                	unimp
 660:	1000                	addi	s0,sp,32
 662:	00316d03          	0x316d03
 666:	0491                	addi	s1,s1,4
 668:	0000950f          	0x950f
 66c:	0300                	addi	s0,sp,384
 66e:	306d                	jal	ffffff18 <__global_pointer$+0xfffec5f0>
 670:	9100                	0x9100
 672:	1304                	addi	s1,sp,416
 674:	0095                	addi	ra,ra,5
 676:	0000                	unimp
 678:	d205                	beqz	a2,598 <main-0xfadc>
 67a:	0006                	c.slli	zero,0x1
 67c:	0200                	addi	s0,sp,256
 67e:	00fe                	slli	ra,ra,0x1f
 680:	0000                	unimp
 682:	049c                	addi	a5,sp,576
 684:	9508                	0x9508
 686:	0000                	unimp
 688:	0200                	addi	s0,sp,256
 68a:	00f9                	addi	ra,ra,30
 68c:	0000                	unimp
 68e:	049c                	addi	a5,sp,576
 690:	9508                	0x9508
 692:	0000                	unimp
 694:	0200                	addi	s0,sp,256
 696:	0194                	addi	a3,sp,192
 698:	0000                	unimp
 69a:	049c                	addi	a5,sp,576
 69c:	9508                	0x9508
 69e:	0000                	unimp
 6a0:	0200                	addi	s0,sp,256
 6a2:	0000018f          	0x18f
 6a6:	049c                	addi	a5,sp,576
 6a8:	9508                	0x9508
 6aa:	0000                	unimp
 6ac:	0200                	addi	s0,sp,256
 6ae:	000001db          	0x1db
 6b2:	049c                	addi	a5,sp,576
 6b4:	9508                	0x9508
 6b6:	0000                	unimp
 6b8:	0200                	addi	s0,sp,256
 6ba:	01d6                	slli	gp,gp,0x15
 6bc:	0000                	unimp
 6be:	049c                	addi	a5,sp,576
 6c0:	9508                	0x9508
 6c2:	0000                	unimp
 6c4:	0300                	addi	s0,sp,384
 6c6:	5f5f 006d 049c      	0x49c006d5f5f
 6cc:	9508                	0x9508
 6ce:	0000                	unimp
 6d0:	0000                	unimp
 6d2:	3805                	jal	ffffff02 <__global_pointer$+0xfffec5da>
 6d4:	02000007          	0x2000007
 6d8:	0000014f          	fnmadd.s	ft2,ft0,ft0,ft0,rne
 6dc:	049d                	addi	s1,s1,7
 6de:	9508                	0x9508
 6e0:	0000                	unimp
 6e2:	0200                	addi	s0,sp,256
 6e4:	0154                	addi	a3,sp,132
 6e6:	0000                	unimp
 6e8:	049d                	addi	s1,s1,7
 6ea:	9508                	0x9508
 6ec:	0000                	unimp
 6ee:	0200                	addi	s0,sp,256
 6f0:	0159                	addi	sp,sp,22
 6f2:	0000                	unimp
 6f4:	049d                	addi	s1,s1,7
 6f6:	9508                	0x9508
 6f8:	0000                	unimp
 6fa:	0200                	addi	s0,sp,256
 6fc:	015e                	slli	sp,sp,0x17
 6fe:	0000                	unimp
 700:	049d                	addi	s1,s1,7
 702:	9508                	0x9508
 704:	0000                	unimp
 706:	0200                	addi	s0,sp,256
 708:	01e5                	addi	gp,gp,25
 70a:	0000                	unimp
 70c:	049d                	addi	s1,s1,7
 70e:	9508                	0x9508
 710:	0000                	unimp
 712:	0200                	addi	s0,sp,256
 714:	0108                	addi	a0,sp,128
 716:	0000                	unimp
 718:	049d                	addi	s1,s1,7
 71a:	9508                	0x9508
 71c:	0000                	unimp
 71e:	0200                	addi	s0,sp,256
 720:	01e0                	addi	s0,sp,204
 722:	0000                	unimp
 724:	049d                	addi	s1,s1,7
 726:	9508                	0x9508
 728:	0000                	unimp
 72a:	0200                	addi	s0,sp,256
 72c:	00000103          	lb	sp,0(zero) # 0 <main-0x10074>
 730:	049d                	addi	s1,s1,7
 732:	9508                	0x9508
 734:	0000                	unimp
 736:	0000                	unimp
 738:	4a05                	li	s4,1
 73a:	03000007          	0x3000007
 73e:	5f5f 0078 04a2      	0x4a200785f5f
 744:	9505                	srai	a0,a0,0x21
 746:	0000                	unimp
 748:	0000                	unimp
 74a:	0310                	addi	a2,sp,384
 74c:	5f5f 0078 04aa      	0x4aa00785f5f
 752:	9505                	srai	a0,a0,0x21
 754:	0000                	unimp
 756:	0000                	unimp
 758:	0000                	unimp
 75a:	041f 00ab 0000      	0xab041f
	...

Disassembly of section .debug_abbrev:

00000000 <.debug_abbrev>:
   0:	3401                	jal	fffffa00 <__global_pointer$+0xfffec0d8>
   2:	3100                	fld	fs0,32(a0)
   4:	00170213          	addi	tp,a4,1
   8:	0200                	addi	s0,sp,256
   a:	0034                	addi	a3,sp,8
   c:	213a0e03          	lb	t3,531(s4)
  10:	3b01                	jal	fffffd20 <__global_pointer$+0xfffec3f8>
  12:	3905                	jal	fffffc42 <__global_pointer$+0xfffec31a>
  14:	0013490b          	0x13490b
  18:	0300                	addi	s0,sp,384
  1a:	0034                	addi	a3,sp,8
  1c:	213a0803          	lb	a6,531(s4)
  20:	3b01                	jal	fffffd30 <__global_pointer$+0xfffec408>
  22:	3905                	jal	fffffc52 <__global_pointer$+0xfffec32a>
  24:	0013490b          	0x13490b
  28:	0400                	addi	s0,sp,512
  2a:	0024                	addi	s1,sp,8
  2c:	0b3e0b0b          	0xb3e0b0b
  30:	00000e03          	lb	t3,0(zero) # 0 <main-0x10074>
  34:	0b05                	addi	s6,s6,1
  36:	0101                	addi	sp,sp,0
  38:	06000013          	li	zero,96
  3c:	0016                	c.slli	zero,0x5
  3e:	213a0e03          	lb	t3,531(s4)
  42:	3b02                	fld	fs6,32(sp)
  44:	490b390b          	0x490b390b
  48:	07000013          	li	zero,112
  4c:	1331010b          	0x1331010b
  50:	1755                	addi	a4,a4,-11
  52:	1301                	addi	t1,t1,-32
  54:	0000                	unimp
  56:	3408                	fld	fa0,40(s0)
  58:	3100                	fld	fs0,32(a0)
  5a:	09000013          	li	zero,144
  5e:	0026                	c.slli	zero,0x9
  60:	1349                	addi	t1,t1,-14
  62:	0000                	unimp
  64:	050a                	slli	a0,a0,0x2
  66:	3100                	fld	fs0,32(a0)
  68:	00170213          	addi	tp,a4,1
  6c:	0b00                	addi	s0,sp,400
  6e:	0005                	c.nop	1
  70:	213a0803          	lb	a6,531(s4)
  74:	3b01                	jal	fffffd84 <__global_pointer$+0xfffec45c>
  76:	e321                	bnez	a4,b6 <main-0xffbe>
  78:	490b3907          	fld	fs2,1168(s6)
  7c:	0c000013          	li	zero,192
  80:	000d                	c.nop	3
  82:	213a0803          	lb	a6,531(s4)
  86:	3b02                	fld	fs6,32(sp)
  88:	3905                	jal	fffffcb8 <__global_pointer$+0xfffec390>
  8a:	0013490b          	0x13490b
  8e:	0d00                	addi	s0,sp,656
  90:	0005                	c.nop	1
  92:	213a0803          	lb	a6,531(s4)
  96:	3b01                	jal	fffffda6 <__global_pointer$+0xfffec47e>
  98:	9221                	srli	a2,a2,0x28
  9a:	390a                	fld	fs2,160(sp)
  9c:	0213490b          	0x213490b
  a0:	0e000017          	auipc	zero,0xe000
  a4:	1331010b          	0x1331010b
  a8:	0111                	addi	sp,sp,4
  aa:	0612                	slli	a2,a2,0x4
  ac:	1301                	addi	t1,t1,-32
  ae:	0000                	unimp
  b0:	31010b0f          	0x31010b0f
  b4:	00175513          	srli	a0,a4,0x1
  b8:	1000                	addi	s0,sp,32
  ba:	0000010b          	0x10b
  be:	1111                	addi	sp,sp,-28
  c0:	2501                	jal	6c0 <main-0xf9b4>
  c2:	130e                	slli	t1,t1,0x23
  c4:	1b1f030b          	0x1b1f030b
  c8:	111f 1201 1006      	0x10061201111f
  ce:	12000017          	auipc	zero,0x12000
  d2:	0024                	addi	s1,sp,8
  d4:	0b3e0b0b          	0xb3e0b0b
  d8:	00000803          	lb	a6,0(zero) # 0 <main-0x10074>
  dc:	03011313          	slli	t1,sp,0x30
  e0:	0b0e                	slli	s6,s6,0x3
  e2:	3b0b3a0b          	0x3b0b3a0b
  e6:	3905                	jal	fffffd16 <__global_pointer$+0xfffec3ee>
  e8:	0013010b          	0x13010b
  ec:	1400                	addi	s0,sp,544
  ee:	000d                	c.nop	3
  f0:	0b3a0803          	lb	a6,179(s4)
  f4:	0b39053b          	0xb39053b
  f8:	1349                	addi	t1,t1,-14
  fa:	0b38                	addi	a4,sp,408
  fc:	0000                	unimp
  fe:	0d15                	addi	s10,s10,5
 100:	0300                	addi	s0,sp,384
 102:	3a0e                	fld	fs4,224(sp)
 104:	39053b0b          	0x39053b0b
 108:	3813490b          	0x3813490b
 10c:	1600000b          	0x1600000b
 110:	0b0b0117          	auipc	sp,0xb0b0
 114:	0b3a                	slli	s6,s6,0xe
 116:	0b39053b          	0xb39053b
 11a:	1301                	addi	t1,t1,-32
 11c:	0000                	unimp
 11e:	03001617          	auipc	a2,0x3001
 122:	3a0e                	fld	fs4,224(sp)
 124:	39053b0b          	0x39053b0b
 128:	0013490b          	0x13490b
 12c:	1800                	addi	s0,sp,48
 12e:	0101                	addi	sp,sp,0
 130:	1349                	addi	t1,t1,-14
 132:	1301                	addi	t1,t1,-32
 134:	0000                	unimp
 136:	2119                	jal	53c <main-0xfb38>
 138:	4900                	lw	s0,16(a0)
 13a:	000b2f13          	slti	t5,s6,0
 13e:	1a00                	addi	s0,sp,304
 140:	0034                	addi	a3,sp,8
 142:	0b3a0e03          	lb	t3,179(s4)
 146:	0b39053b          	0xb39053b
 14a:	1349                	addi	t1,t1,-14
 14c:	193c193f 2e1b0000 	0x2e1b0000193c193f
 154:	3f01                	jal	64 <main-0x10010>
 156:	0319                	addi	t1,t1,6
 158:	3a0e                	fld	fs4,224(sp)
 15a:	39053b0b          	0x39053b0b
 15e:	4919270b          	0x4919270b
 162:	12011113          	0x12011113
 166:	4006                	0x4006
 168:	7a18                	flw	fa4,48(a2)
 16a:	0119                	addi	sp,sp,6
 16c:	1c000013          	li	zero,448
 170:	011d                	addi	sp,sp,7
 172:	1331                	addi	t1,t1,-20
 174:	0152                	slli	sp,sp,0x14
 176:	1755                	addi	a4,a4,-11
 178:	0b58                	addi	a4,sp,404
 17a:	0559                	addi	a0,a0,22
 17c:	00000b57          	0xb57
 180:	0b1d                	addi	s6,s6,7
 182:	5501                	li	a0,-32
 184:	1e000017          	auipc	zero,0x1e000
 188:	012e                	slli	sp,sp,0xb
 18a:	0b3a0e03          	lb	t3,179(s4)
 18e:	0b39053b          	0xb39053b
 192:	13491927          	0x13491927
 196:	0b20                	addi	s0,sp,408
 198:	1301                	addi	t1,t1,-32
 19a:	0000                	unimp
 19c:	0f1f 0b00 490b      	0x490b0b000f1f
 1a2:	00000013          	nop

Disassembly of section .debug_line:

00000000 <.debug_line>:
   0:	00000723          	sb	zero,14(zero) # e <main-0x10066>
   4:	0005                	c.nop	1
   6:	0004                	0x4
   8:	00000033          	add	zero,zero,zero
   c:	0101                	addi	sp,sp,0
   e:	fb01                	bnez	a4,ffffff1e <__global_pointer$+0xfffec5f6>
  10:	0d0e                	slli	s10,s10,0x3
  12:	0100                	addi	s0,sp,128
  14:	0101                	addi	sp,sp,0
  16:	0001                	nop
  18:	0000                	unimp
  1a:	0001                	nop
  1c:	0100                	addi	s0,sp,128
  1e:	0101                	addi	sp,sp,0
  20:	021f 002c 0000      	0x2c021f
  26:	008e                	slli	ra,ra,0x3
  28:	0000                	unimp
  2a:	0102                	c.slli64	sp
  2c:	021f 030f 0000      	0x30f021f
  32:	0000                	unimp
  34:	2200                	fld	fs0,0(a2)
  36:	0000                	unimp
  38:	0100                	addi	s0,sp,128
  3a:	00b0                	addi	a2,sp,72
  3c:	0000                	unimp
  3e:	0501                	addi	a0,a0,0
  40:	0001                	nop
  42:	0205                	addi	tp,tp,1
  44:	0000                	unimp
  46:	0000                	unimp
  48:	010a9203          	lh	tp,16(s5)
  4c:	0305                	addi	t1,t1,1
  4e:	00090103          	lb	sp,0(s2)
  52:	0100                	addi	s0,sp,128
  54:	097dd103          	lhu	sp,151(s11)
  58:	0000                	unimp
  5a:	0301                	addi	t1,t1,0
  5c:	0901                	addi	s2,s2,0
  5e:	0000                	unimp
  60:	0301                	addi	t1,t1,0
  62:	0901                	addi	s2,s2,0
  64:	0000                	unimp
  66:	0301                	addi	t1,t1,0
  68:	0901                	addi	s2,s2,0
  6a:	0000                	unimp
  6c:	0301                	addi	t1,t1,0
  6e:	0901                	addi	s2,s2,0
  70:	0000                	unimp
  72:	0301                	addi	t1,t1,0
  74:	0901                	addi	s2,s2,0
  76:	0000                	unimp
  78:	0301                	addi	t1,t1,0
  7a:	0902                	c.slli64	s2
  7c:	0000                	unimp
  7e:	0501                	addi	a0,a0,0
  80:	0601                	addi	a2,a2,0
  82:	0902a703          	lw	a4,144(t0) # 106c8 <__call_exitprocs+0x68>
  86:	0000                	unimp
  88:	0501                	addi	a0,a0,0
  8a:	0306                	slli	t1,t1,0x1
  8c:	7dd9                	lui	s11,0xffff6
  8e:	0009                	c.nop	2
  90:	0100                	addi	s0,sp,128
  92:	0305                	addi	t1,t1,1
  94:	0306                	slli	t1,t1,0x1
  96:	0901                	addi	s2,s2,0
  98:	0000                	unimp
  9a:	0301                	addi	t1,t1,0
  9c:	0901                	addi	s2,s2,0
  9e:	0000                	unimp
  a0:	0501                	addi	a0,a0,0
  a2:	0606                	slli	a2,a2,0x1
  a4:	00090003          	lb	zero,0(s2)
  a8:	0100                	addi	s0,sp,128
  aa:	0305                	addi	t1,t1,1
  ac:	0306                	slli	t1,t1,0x1
  ae:	0901                	addi	s2,s2,0
  b0:	0000                	unimp
  b2:	0501                	addi	a0,a0,0
  b4:	0606                	slli	a2,a2,0x1
  b6:	00090003          	lb	zero,0(s2)
  ba:	0100                	addi	s0,sp,128
  bc:	0305                	addi	t1,t1,1
  be:	0306                	slli	t1,t1,0x1
  c0:	0925                	addi	s2,s2,9
  c2:	0000                	unimp
  c4:	0501                	addi	a0,a0,0
  c6:	0606                	slli	a2,a2,0x1
  c8:	00090003          	lb	zero,0(s2)
  cc:	0100                	addi	s0,sp,128
  ce:	0705                	addi	a4,a4,1
  d0:	0306                	slli	t1,t1,0x1
  d2:	0902                	c.slli64	s2
  d4:	0000                	unimp
  d6:	0501                	addi	a0,a0,0
  d8:	060a                	slli	a2,a2,0x2
  da:	00090003          	lb	zero,0(s2)
  de:	0100                	addi	s0,sp,128
  e0:	0405                	addi	s0,s0,1
  e2:	0306                	slli	t1,t1,0x1
  e4:	0904                	addi	s1,sp,144
  e6:	0000                	unimp
  e8:	0301                	addi	t1,t1,0
  ea:	0900                	addi	s0,sp,144
  ec:	0000                	unimp
  ee:	0301                	addi	t1,t1,0
  f0:	0900                	addi	s0,sp,144
  f2:	0000                	unimp
  f4:	0301                	addi	t1,t1,0
  f6:	0900                	addi	s0,sp,144
  f8:	0000                	unimp
  fa:	0301                	addi	t1,t1,0
  fc:	0900                	addi	s0,sp,144
  fe:	0000                	unimp
 100:	0301                	addi	t1,t1,0
 102:	0900                	addi	s0,sp,144
 104:	0000                	unimp
 106:	0301                	addi	t1,t1,0
 108:	0900                	addi	s0,sp,144
 10a:	0000                	unimp
 10c:	0301                	addi	t1,t1,0
 10e:	0902                	c.slli64	s2
 110:	0000                	unimp
 112:	0501                	addi	a0,a0,0
 114:	00030607          	0x30607
 118:	0009                	c.nop	2
 11a:	0100                	addi	s0,sp,128
 11c:	0805                	addi	a6,a6,1
 11e:	0306                	slli	t1,t1,0x1
 120:	0905                	addi	s2,s2,1
 122:	0000                	unimp
 124:	0501                	addi	a0,a0,0
 126:	0611                	addi	a2,a2,4
 128:	00090103          	lb	sp,0(s2)
 12c:	0100                	addi	s0,sp,128
 12e:	1e05                	addi	t3,t3,-31
 130:	00090003          	lb	zero,0(s2)
 134:	0100                	addi	s0,sp,128
 136:	0b05                	addi	s6,s6,1
 138:	00097f03          	0x97f03
 13c:	0100                	addi	s0,sp,128
 13e:	0805                	addi	a6,a6,1
 140:	0306                	slli	t1,t1,0x1
 142:	0901                	addi	s2,s2,0
 144:	0000                	unimp
 146:	0501                	addi	a0,a0,0
 148:	0003060b          	0x3060b
 14c:	0009                	c.nop	2
 14e:	0100                	addi	s0,sp,128
 150:	0805                	addi	a6,a6,1
 152:	0306                	slli	t1,t1,0x1
 154:	0901                	addi	s2,s2,0
 156:	0000                	unimp
 158:	0501                	addi	a0,a0,0
 15a:	0003060b          	0x3060b
 15e:	0009                	c.nop	2
 160:	0100                	addi	s0,sp,128
 162:	0405                	addi	s0,s0,1
 164:	0306                	slli	t1,t1,0x1
 166:	00000903          	lb	s2,0(zero) # 0 <main-0x10074>
 16a:	0301                	addi	t1,t1,0
 16c:	0900                	addi	s0,sp,144
 16e:	0000                	unimp
 170:	0301                	addi	t1,t1,0
 172:	0900                	addi	s0,sp,144
 174:	0000                	unimp
 176:	0301                	addi	t1,t1,0
 178:	0900                	addi	s0,sp,144
 17a:	0000                	unimp
 17c:	0301                	addi	t1,t1,0
 17e:	0900                	addi	s0,sp,144
 180:	0000                	unimp
 182:	0301                	addi	t1,t1,0
 184:	0900                	addi	s0,sp,144
 186:	0000                	unimp
 188:	0301                	addi	t1,t1,0
 18a:	0900                	addi	s0,sp,144
 18c:	0000                	unimp
 18e:	0301                	addi	t1,t1,0
 190:	0900                	addi	s0,sp,144
 192:	0000                	unimp
 194:	0301                	addi	t1,t1,0
 196:	0900                	addi	s0,sp,144
 198:	0000                	unimp
 19a:	0301                	addi	t1,t1,0
 19c:	0900                	addi	s0,sp,144
 19e:	0000                	unimp
 1a0:	0301                	addi	t1,t1,0
 1a2:	0900                	addi	s0,sp,144
 1a4:	0000                	unimp
 1a6:	0301                	addi	t1,t1,0
 1a8:	0900                	addi	s0,sp,144
 1aa:	0000                	unimp
 1ac:	0301                	addi	t1,t1,0
 1ae:	0900                	addi	s0,sp,144
 1b0:	0000                	unimp
 1b2:	0301                	addi	t1,t1,0
 1b4:	0900                	addi	s0,sp,144
 1b6:	0000                	unimp
 1b8:	0301                	addi	t1,t1,0
 1ba:	0900                	addi	s0,sp,144
 1bc:	0000                	unimp
 1be:	0301                	addi	t1,t1,0
 1c0:	0900                	addi	s0,sp,144
 1c2:	0000                	unimp
 1c4:	0301                	addi	t1,t1,0
 1c6:	0900                	addi	s0,sp,144
 1c8:	0000                	unimp
 1ca:	0301                	addi	t1,t1,0
 1cc:	0900                	addi	s0,sp,144
 1ce:	0000                	unimp
 1d0:	0301                	addi	t1,t1,0
 1d2:	0900                	addi	s0,sp,144
 1d4:	0000                	unimp
 1d6:	0301                	addi	t1,t1,0
 1d8:	0900                	addi	s0,sp,144
 1da:	0000                	unimp
 1dc:	0301                	addi	t1,t1,0
 1de:	0900                	addi	s0,sp,144
 1e0:	0000                	unimp
 1e2:	0301                	addi	t1,t1,0
 1e4:	0900                	addi	s0,sp,144
 1e6:	0000                	unimp
 1e8:	0301                	addi	t1,t1,0
 1ea:	0900                	addi	s0,sp,144
 1ec:	0000                	unimp
 1ee:	0301                	addi	t1,t1,0
 1f0:	0900                	addi	s0,sp,144
 1f2:	0000                	unimp
 1f4:	0301                	addi	t1,t1,0
 1f6:	0900                	addi	s0,sp,144
 1f8:	0000                	unimp
 1fa:	0301                	addi	t1,t1,0
 1fc:	0900                	addi	s0,sp,144
 1fe:	0000                	unimp
 200:	0301                	addi	t1,t1,0
 202:	0900                	addi	s0,sp,144
 204:	0000                	unimp
 206:	0301                	addi	t1,t1,0
 208:	0900                	addi	s0,sp,144
 20a:	0000                	unimp
 20c:	0301                	addi	t1,t1,0
 20e:	0901                	addi	s2,s2,0
 210:	0000                	unimp
 212:	0501                	addi	a0,a0,0
 214:	fe03060b          	0xfe03060b
 218:	0900                	addi	s0,sp,144
 21a:	0000                	unimp
 21c:	0501                	addi	a0,a0,0
 21e:	0e030603          	lb	a2,224(t1) # ffffa0e0 <__global_pointer$+0xfffe67b8>
 222:	0009                	c.nop	2
 224:	0100                	addi	s0,sp,128
 226:	00090103          	lb	sp,0(s2)
 22a:	0100                	addi	s0,sp,128
 22c:	0105                	addi	sp,sp,1
 22e:	0306                	slli	t1,t1,0x1
 230:	00e1                	addi	ra,ra,24
 232:	0009                	c.nop	2
 234:	0100                	addi	s0,sp,128
 236:	0405                	addi	s0,s0,1
 238:	097e8503          	lb	a0,151(t4)
 23c:	0000                	unimp
 23e:	0601                	addi	a2,a2,0
 240:	00091503          	lh	a0,0(s2)
 244:	0100                	addi	s0,sp,128
 246:	0705                	addi	a4,a4,1
 248:	0306                	slli	t1,t1,0x1
 24a:	0900                	addi	s0,sp,144
 24c:	0000                	unimp
 24e:	0501                	addi	a0,a0,0
 250:	0606                	slli	a2,a2,0x1
 252:	00090103          	lb	sp,0(s2)
 256:	0100                	addi	s0,sp,128
 258:	0405                	addi	s0,s0,1
 25a:	00090203          	lb	tp,0(s2)
 25e:	0100                	addi	s0,sp,128
 260:	00090003          	lb	zero,0(s2)
 264:	0100                	addi	s0,sp,128
 266:	00090003          	lb	zero,0(s2)
 26a:	0100                	addi	s0,sp,128
 26c:	00090003          	lb	zero,0(s2)
 270:	0100                	addi	s0,sp,128
 272:	00090003          	lb	zero,0(s2)
 276:	0100                	addi	s0,sp,128
 278:	00090003          	lb	zero,0(s2)
 27c:	0100                	addi	s0,sp,128
 27e:	00090003          	lb	zero,0(s2)
 282:	0100                	addi	s0,sp,128
 284:	00090203          	lb	tp,0(s2)
 288:	0100                	addi	s0,sp,128
 28a:	0705                	addi	a4,a4,1
 28c:	0306                	slli	t1,t1,0x1
 28e:	0900                	addi	s0,sp,144
 290:	0000                	unimp
 292:	0501                	addi	a0,a0,0
 294:	0608                	addi	a0,sp,768
 296:	00090903          	lb	s2,0(s2)
 29a:	0100                	addi	s0,sp,128
 29c:	0b05                	addi	s6,s6,1
 29e:	0306                	slli	t1,t1,0x1
 2a0:	0900                	addi	s0,sp,144
 2a2:	0000                	unimp
 2a4:	0501                	addi	a0,a0,0
 2a6:	0608                	addi	a0,sp,768
 2a8:	00090103          	lb	sp,0(s2)
 2ac:	0100                	addi	s0,sp,128
 2ae:	0b05                	addi	s6,s6,1
 2b0:	0306                	slli	t1,t1,0x1
 2b2:	0900                	addi	s0,sp,144
 2b4:	0000                	unimp
 2b6:	0501                	addi	a0,a0,0
 2b8:	0608                	addi	a0,sp,768
 2ba:	00090d03          	lb	s10,0(s2)
 2be:	0100                	addi	s0,sp,128
 2c0:	0405                	addi	s0,s0,1
 2c2:	00090503          	lb	a0,0(s2)
 2c6:	0100                	addi	s0,sp,128
 2c8:	00090003          	lb	zero,0(s2)
 2cc:	0100                	addi	s0,sp,128
 2ce:	00090003          	lb	zero,0(s2)
 2d2:	0100                	addi	s0,sp,128
 2d4:	00090003          	lb	zero,0(s2)
 2d8:	0100                	addi	s0,sp,128
 2da:	00090003          	lb	zero,0(s2)
 2de:	0100                	addi	s0,sp,128
 2e0:	00090003          	lb	zero,0(s2)
 2e4:	0100                	addi	s0,sp,128
 2e6:	00090003          	lb	zero,0(s2)
 2ea:	0100                	addi	s0,sp,128
 2ec:	00090003          	lb	zero,0(s2)
 2f0:	0100                	addi	s0,sp,128
 2f2:	00090003          	lb	zero,0(s2)
 2f6:	0100                	addi	s0,sp,128
 2f8:	00090003          	lb	zero,0(s2)
 2fc:	0100                	addi	s0,sp,128
 2fe:	00090003          	lb	zero,0(s2)
 302:	0100                	addi	s0,sp,128
 304:	00090003          	lb	zero,0(s2)
 308:	0100                	addi	s0,sp,128
 30a:	00090003          	lb	zero,0(s2)
 30e:	0100                	addi	s0,sp,128
 310:	00090003          	lb	zero,0(s2)
 314:	0100                	addi	s0,sp,128
 316:	00090003          	lb	zero,0(s2)
 31a:	0100                	addi	s0,sp,128
 31c:	00090003          	lb	zero,0(s2)
 320:	0100                	addi	s0,sp,128
 322:	00090003          	lb	zero,0(s2)
 326:	0100                	addi	s0,sp,128
 328:	00090003          	lb	zero,0(s2)
 32c:	0100                	addi	s0,sp,128
 32e:	00090003          	lb	zero,0(s2)
 332:	0100                	addi	s0,sp,128
 334:	00090003          	lb	zero,0(s2)
 338:	0100                	addi	s0,sp,128
 33a:	00090003          	lb	zero,0(s2)
 33e:	0100                	addi	s0,sp,128
 340:	00090003          	lb	zero,0(s2)
 344:	0100                	addi	s0,sp,128
 346:	00090003          	lb	zero,0(s2)
 34a:	0100                	addi	s0,sp,128
 34c:	00090003          	lb	zero,0(s2)
 350:	0100                	addi	s0,sp,128
 352:	00090003          	lb	zero,0(s2)
 356:	0100                	addi	s0,sp,128
 358:	00090003          	lb	zero,0(s2)
 35c:	0100                	addi	s0,sp,128
 35e:	00090003          	lb	zero,0(s2)
 362:	0100                	addi	s0,sp,128
 364:	0306                	slli	t1,t1,0x1
 366:	0962                	slli	s2,s2,0x18
 368:	0000                	unimp
 36a:	0501                	addi	a0,a0,0
 36c:	0608                	addi	a0,sp,768
 36e:	00091203          	lh	tp,0(s2)
 372:	0100                	addi	s0,sp,128
 374:	00090203          	lb	tp,0(s2)
 378:	0100                	addi	s0,sp,128
 37a:	0b05                	addi	s6,s6,1
 37c:	0306                	slli	t1,t1,0x1
 37e:	0900                	addi	s0,sp,144
 380:	0000                	unimp
 382:	0501                	addi	a0,a0,0
 384:	0608                	addi	a0,sp,768
 386:	00090103          	lb	sp,0(s2)
 38a:	0100                	addi	s0,sp,128
 38c:	0b05                	addi	s6,s6,1
 38e:	0306                	slli	t1,t1,0x1
 390:	0900                	addi	s0,sp,144
 392:	0000                	unimp
 394:	0501                	addi	a0,a0,0
 396:	0608                	addi	a0,sp,768
 398:	00090103          	lb	sp,0(s2)
 39c:	0100                	addi	s0,sp,128
 39e:	0306                	slli	t1,t1,0x1
 3a0:	00000903          	lb	s2,0(zero) # 0 <main-0x10074>
 3a4:	0501                	addi	a0,a0,0
 3a6:	031e                	slli	t1,t1,0x7
 3a8:	097d                	addi	s2,s2,31
 3aa:	0000                	unimp
 3ac:	0501                	addi	a0,a0,0
 3ae:	0901030b          	0x901030b
 3b2:	0000                	unimp
 3b4:	0501                	addi	a0,a0,0
 3b6:	0308                	addi	a0,sp,384
 3b8:	0902                	c.slli64	s2
 3ba:	0000                	unimp
 3bc:	0501                	addi	a0,a0,0
 3be:	0311                	addi	t1,t1,4
 3c0:	097d                	addi	s2,s2,31
 3c2:	0000                	unimp
 3c4:	0501                	addi	a0,a0,0
 3c6:	0308                	addi	a0,sp,384
 3c8:	00000903          	lb	s2,0(zero) # 0 <main-0x10074>
 3cc:	0501                	addi	a0,a0,0
 3ce:	097d030b          	0x97d030b
 3d2:	0000                	unimp
 3d4:	0501                	addi	a0,a0,0
 3d6:	0608                	addi	a0,sp,768
 3d8:	00090103          	lb	sp,0(s2)
 3dc:	0100                	addi	s0,sp,128
 3de:	00090203          	lb	tp,0(s2)
 3e2:	0100                	addi	s0,sp,128
 3e4:	00090003          	lb	zero,0(s2)
 3e8:	0100                	addi	s0,sp,128
 3ea:	00090003          	lb	zero,0(s2)
 3ee:	0100                	addi	s0,sp,128
 3f0:	00090003          	lb	zero,0(s2)
 3f4:	0100                	addi	s0,sp,128
 3f6:	00090003          	lb	zero,0(s2)
 3fa:	0100                	addi	s0,sp,128
 3fc:	00090003          	lb	zero,0(s2)
 400:	0100                	addi	s0,sp,128
 402:	00090003          	lb	zero,0(s2)
 406:	0100                	addi	s0,sp,128
 408:	00090003          	lb	zero,0(s2)
 40c:	0100                	addi	s0,sp,128
 40e:	00090003          	lb	zero,0(s2)
 412:	0100                	addi	s0,sp,128
 414:	00090003          	lb	zero,0(s2)
 418:	0100                	addi	s0,sp,128
 41a:	00090003          	lb	zero,0(s2)
 41e:	0100                	addi	s0,sp,128
 420:	00090003          	lb	zero,0(s2)
 424:	0100                	addi	s0,sp,128
 426:	00090003          	lb	zero,0(s2)
 42a:	0100                	addi	s0,sp,128
 42c:	00090003          	lb	zero,0(s2)
 430:	0100                	addi	s0,sp,128
 432:	00090003          	lb	zero,0(s2)
 436:	0100                	addi	s0,sp,128
 438:	00090003          	lb	zero,0(s2)
 43c:	0100                	addi	s0,sp,128
 43e:	00090003          	lb	zero,0(s2)
 442:	0100                	addi	s0,sp,128
 444:	00090003          	lb	zero,0(s2)
 448:	0100                	addi	s0,sp,128
 44a:	00090003          	lb	zero,0(s2)
 44e:	0100                	addi	s0,sp,128
 450:	00090003          	lb	zero,0(s2)
 454:	0100                	addi	s0,sp,128
 456:	00090003          	lb	zero,0(s2)
 45a:	0100                	addi	s0,sp,128
 45c:	00090003          	lb	zero,0(s2)
 460:	0100                	addi	s0,sp,128
 462:	00090003          	lb	zero,0(s2)
 466:	0100                	addi	s0,sp,128
 468:	00090003          	lb	zero,0(s2)
 46c:	0100                	addi	s0,sp,128
 46e:	00090003          	lb	zero,0(s2)
 472:	0100                	addi	s0,sp,128
 474:	00090003          	lb	zero,0(s2)
 478:	0100                	addi	s0,sp,128
 47a:	00090003          	lb	zero,0(s2)
 47e:	0100                	addi	s0,sp,128
 480:	0705                	addi	a4,a4,1
 482:	00091503          	lh	a0,0(s2)
 486:	0100                	addi	s0,sp,128
 488:	0a05                	addi	s4,s4,1
 48a:	0306                	slli	t1,t1,0x1
 48c:	0900                	addi	s0,sp,144
 48e:	0000                	unimp
 490:	0501                	addi	a0,a0,0
 492:	0604                	addi	s1,sp,768
 494:	00091303          	lh	t1,0(s2)
 498:	0100                	addi	s0,sp,128
 49a:	00090003          	lb	zero,0(s2)
 49e:	0100                	addi	s0,sp,128
 4a0:	00090003          	lb	zero,0(s2)
 4a4:	0100                	addi	s0,sp,128
 4a6:	00090003          	lb	zero,0(s2)
 4aa:	0100                	addi	s0,sp,128
 4ac:	00090003          	lb	zero,0(s2)
 4b0:	0100                	addi	s0,sp,128
 4b2:	00090003          	lb	zero,0(s2)
 4b6:	0100                	addi	s0,sp,128
 4b8:	00090003          	lb	zero,0(s2)
 4bc:	0100                	addi	s0,sp,128
 4be:	00090103          	lb	sp,0(s2)
 4c2:	0100                	addi	s0,sp,128
 4c4:	0705                	addi	a4,a4,1
 4c6:	0306                	slli	t1,t1,0x1
 4c8:	0900                	addi	s0,sp,144
 4ca:	0000                	unimp
 4cc:	0501                	addi	a0,a0,0
 4ce:	0608                	addi	a0,sp,768
 4d0:	00090a03          	lb	s4,0(s2)
 4d4:	0100                	addi	s0,sp,128
 4d6:	0306                	slli	t1,t1,0x1
 4d8:	0902                	c.slli64	s2
 4da:	0000                	unimp
 4dc:	0501                	addi	a0,a0,0
 4de:	097e030b          	0x97e030b
 4e2:	0000                	unimp
 4e4:	0501                	addi	a0,a0,0
 4e6:	0314                	addi	a3,sp,384
 4e8:	0900                	addi	s0,sp,144
 4ea:	0000                	unimp
 4ec:	0501                	addi	a0,a0,0
 4ee:	0304                	addi	s1,sp,384
 4f0:	0975                	addi	s2,s2,29
 4f2:	0000                	unimp
 4f4:	0501                	addi	a0,a0,0
 4f6:	0608                	addi	a0,sp,768
 4f8:	00091e03          	lh	t3,0(s2)
 4fc:	0100                	addi	s0,sp,128
 4fe:	00090303          	lb	t1,0(s2)
 502:	0100                	addi	s0,sp,128
 504:	00090203          	lb	tp,0(s2)
 508:	0100                	addi	s0,sp,128
 50a:	1e05                	addi	t3,t3,-31
 50c:	0306                	slli	t1,t1,0x1
 50e:	0900                	addi	s0,sp,144
 510:	0000                	unimp
 512:	0501                	addi	a0,a0,0
 514:	0311                	addi	t1,t1,4
 516:	0900                	addi	s0,sp,144
 518:	0000                	unimp
 51a:	0501                	addi	a0,a0,0
 51c:	0900030b          	0x900030b
 520:	0000                	unimp
 522:	0501                	addi	a0,a0,0
 524:	0608                	addi	a0,sp,768
 526:	00090103          	lb	sp,0(s2)
 52a:	0100                	addi	s0,sp,128
 52c:	0b05                	addi	s6,s6,1
 52e:	0306                	slli	t1,t1,0x1
 530:	0901                	addi	s2,s2,0
 532:	0000                	unimp
 534:	0501                	addi	a0,a0,0
 536:	0311                	addi	t1,t1,4
 538:	0901                	addi	s2,s2,0
 53a:	0000                	unimp
 53c:	0501                	addi	a0,a0,0
 53e:	031e                	slli	t1,t1,0x7
 540:	0900                	addi	s0,sp,144
 542:	0000                	unimp
 544:	0501                	addi	a0,a0,0
 546:	0900030b          	0x900030b
 54a:	0000                	unimp
 54c:	0501                	addi	a0,a0,0
 54e:	0308                	addi	a0,sp,384
 550:	00000903          	lb	s2,0(zero) # 0 <main-0x10074>
 554:	0501                	addi	a0,a0,0
 556:	097b030b          	0x97b030b
 55a:	0000                	unimp
 55c:	0501                	addi	a0,a0,0
 55e:	0608                	addi	a0,sp,768
 560:	00090103          	lb	sp,0(s2)
 564:	0100                	addi	s0,sp,128
 566:	00090103          	lb	sp,0(s2)
 56a:	0100                	addi	s0,sp,128
 56c:	00090103          	lb	sp,0(s2)
 570:	0100                	addi	s0,sp,128
 572:	00090203          	lb	tp,0(s2)
 576:	0100                	addi	s0,sp,128
 578:	00090003          	lb	zero,0(s2)
 57c:	0100                	addi	s0,sp,128
 57e:	00090003          	lb	zero,0(s2)
 582:	0100                	addi	s0,sp,128
 584:	00090003          	lb	zero,0(s2)
 588:	0100                	addi	s0,sp,128
 58a:	00090003          	lb	zero,0(s2)
 58e:	0100                	addi	s0,sp,128
 590:	00090003          	lb	zero,0(s2)
 594:	0100                	addi	s0,sp,128
 596:	00090003          	lb	zero,0(s2)
 59a:	0100                	addi	s0,sp,128
 59c:	00090003          	lb	zero,0(s2)
 5a0:	0100                	addi	s0,sp,128
 5a2:	00090003          	lb	zero,0(s2)
 5a6:	0100                	addi	s0,sp,128
 5a8:	00090003          	lb	zero,0(s2)
 5ac:	0100                	addi	s0,sp,128
 5ae:	00090003          	lb	zero,0(s2)
 5b2:	0100                	addi	s0,sp,128
 5b4:	00090003          	lb	zero,0(s2)
 5b8:	0100                	addi	s0,sp,128
 5ba:	00090003          	lb	zero,0(s2)
 5be:	0100                	addi	s0,sp,128
 5c0:	00090003          	lb	zero,0(s2)
 5c4:	0100                	addi	s0,sp,128
 5c6:	00090003          	lb	zero,0(s2)
 5ca:	0100                	addi	s0,sp,128
 5cc:	00090003          	lb	zero,0(s2)
 5d0:	0100                	addi	s0,sp,128
 5d2:	00090003          	lb	zero,0(s2)
 5d6:	0100                	addi	s0,sp,128
 5d8:	00090003          	lb	zero,0(s2)
 5dc:	0100                	addi	s0,sp,128
 5de:	00090003          	lb	zero,0(s2)
 5e2:	0100                	addi	s0,sp,128
 5e4:	00090003          	lb	zero,0(s2)
 5e8:	0100                	addi	s0,sp,128
 5ea:	00090003          	lb	zero,0(s2)
 5ee:	0100                	addi	s0,sp,128
 5f0:	00090003          	lb	zero,0(s2)
 5f4:	0100                	addi	s0,sp,128
 5f6:	00090003          	lb	zero,0(s2)
 5fa:	0100                	addi	s0,sp,128
 5fc:	00090003          	lb	zero,0(s2)
 600:	0100                	addi	s0,sp,128
 602:	00090003          	lb	zero,0(s2)
 606:	0100                	addi	s0,sp,128
 608:	0306                	slli	t1,t1,0x1
 60a:	0901                	addi	s2,s2,0
 60c:	0000                	unimp
 60e:	0301                	addi	t1,t1,0
 610:	097f                	0x97f
 612:	0000                	unimp
 614:	0301                	addi	t1,t1,0
 616:	0901                	addi	s2,s2,0
 618:	0000                	unimp
 61a:	0301                	addi	t1,t1,0
 61c:	097f                	0x97f
 61e:	0000                	unimp
 620:	0601                	addi	a2,a2,0
 622:	00090003          	lb	zero,0(s2)
 626:	0100                	addi	s0,sp,128
 628:	00090003          	lb	zero,0(s2)
 62c:	0100                	addi	s0,sp,128
 62e:	00090003          	lb	zero,0(s2)
 632:	0100                	addi	s0,sp,128
 634:	00090103          	lb	sp,0(s2)
 638:	0100                	addi	s0,sp,128
 63a:	00090003          	lb	zero,0(s2)
 63e:	0100                	addi	s0,sp,128
 640:	00090003          	lb	zero,0(s2)
 644:	0100                	addi	s0,sp,128
 646:	00090003          	lb	zero,0(s2)
 64a:	0100                	addi	s0,sp,128
 64c:	00090003          	lb	zero,0(s2)
 650:	0100                	addi	s0,sp,128
 652:	00090003          	lb	zero,0(s2)
 656:	0100                	addi	s0,sp,128
 658:	00090003          	lb	zero,0(s2)
 65c:	0100                	addi	s0,sp,128
 65e:	00090003          	lb	zero,0(s2)
 662:	0100                	addi	s0,sp,128
 664:	00090003          	lb	zero,0(s2)
 668:	0100                	addi	s0,sp,128
 66a:	00090003          	lb	zero,0(s2)
 66e:	0100                	addi	s0,sp,128
 670:	00090003          	lb	zero,0(s2)
 674:	0100                	addi	s0,sp,128
 676:	00090003          	lb	zero,0(s2)
 67a:	0100                	addi	s0,sp,128
 67c:	00090003          	lb	zero,0(s2)
 680:	0100                	addi	s0,sp,128
 682:	00090003          	lb	zero,0(s2)
 686:	0100                	addi	s0,sp,128
 688:	00090003          	lb	zero,0(s2)
 68c:	0100                	addi	s0,sp,128
 68e:	00090003          	lb	zero,0(s2)
 692:	0100                	addi	s0,sp,128
 694:	00090003          	lb	zero,0(s2)
 698:	0100                	addi	s0,sp,128
 69a:	00090003          	lb	zero,0(s2)
 69e:	0100                	addi	s0,sp,128
 6a0:	00090203          	lb	tp,0(s2)
 6a4:	0100                	addi	s0,sp,128
 6a6:	0b05                	addi	s6,s6,1
 6a8:	0306                	slli	t1,t1,0x1
 6aa:	0900                	addi	s0,sp,144
 6ac:	0000                	unimp
 6ae:	0501                	addi	a0,a0,0
 6b0:	0314                	addi	a3,sp,384
 6b2:	0900                	addi	s0,sp,144
 6b4:	0000                	unimp
 6b6:	0501                	addi	a0,a0,0
 6b8:	0308                	addi	a0,sp,384
 6ba:	097e                	slli	s2,s2,0x1f
 6bc:	0000                	unimp
 6be:	0501                	addi	a0,a0,0
 6c0:	097d030b          	0x97d030b
 6c4:	0000                	unimp
 6c6:	0501                	addi	a0,a0,0
 6c8:	0308                	addi	a0,sp,384
 6ca:	00000903          	lb	s2,0(zero) # 0 <main-0x10074>
 6ce:	0501                	addi	a0,a0,0
 6d0:	0908030b          	0x908030b
 6d4:	0000                	unimp
 6d6:	0501                	addi	a0,a0,0
 6d8:	0321                	addi	t1,t1,8
 6da:	097a                	slli	s2,s2,0x1e
 6dc:	0000                	unimp
 6de:	0501                	addi	a0,a0,0
 6e0:	0605                	addi	a2,a2,1
 6e2:	00090203          	lb	tp,0(s2)
 6e6:	0100                	addi	s0,sp,128
 6e8:	0705                	addi	a4,a4,1
 6ea:	0306                	slli	t1,t1,0x1
 6ec:	0900                	addi	s0,sp,144
 6ee:	0000                	unimp
 6f0:	0501                	addi	a0,a0,0
 6f2:	0605                	addi	a2,a2,1
 6f4:	00090103          	lb	sp,0(s2)
 6f8:	0100                	addi	s0,sp,128
 6fa:	00090003          	lb	zero,0(s2)
 6fe:	0100                	addi	s0,sp,128
 700:	00090003          	lb	zero,0(s2)
 704:	0100                	addi	s0,sp,128
 706:	00090003          	lb	zero,0(s2)
 70a:	0100                	addi	s0,sp,128
 70c:	00090003          	lb	zero,0(s2)
 710:	0100                	addi	s0,sp,128
 712:	0705                	addi	a4,a4,1
 714:	0306                	slli	t1,t1,0x1
 716:	00000943          	fmadd.s	fs2,ft0,ft0,ft0,rne
 71a:	0301                	addi	t1,t1,0
 71c:	097f                	0x97f
 71e:	0000                	unimp
 720:	0901                	addi	s2,s2,0
 722:	0000                	unimp
 724:	0100                	addi	s0,sp,128
 726:	01              	Address 0x0000000000000726 is out of bounds.


Disassembly of section .debug_str:

00000000 <.debug_str>:
   0:	5744                	lw	s1,44(a4)
   2:	6e75                	lui	t3,0x1d
   4:	6f69                	lui	t5,0x1a
   6:	006e                	c.slli	zero,0x1b
   8:	5f5f 6475 7669      	0x766964755f5f
   e:	6964                	flw	fs1,84(a0)
  10:	6f630033          	0x6f630033
  14:	706d                	c.lui	zero,0xffffb
  16:	656c                	flw	fa1,76(a0)
  18:	2078                	fld	fa4,192(s0)
  1a:	6c66                	flw	fs8,88(sp)
  1c:	0074616f          	jal	sp,46822 <__global_pointer$+0x32efa>
  20:	726f6873          	csrrsi	a6,0x726,30
  24:	2074                	fld	fa3,192(s0)
  26:	6e69                	lui	t3,0x1a
  28:	0074                	addi	a3,sp,12
  2a:	20554e47          	fmsub.s	ft8,fa0,ft5,ft4,rmm
  2e:	20373143          	fmadd.s	ft2,fa4,ft3,ft4,rup
  32:	3131                	jal	fffffc3e <__global_pointer$+0xfffec316>
  34:	312e                	fld	ft2,232(sp)
  36:	302e                	fld	ft0,232(sp)
  38:	2d20                	fld	fs0,88(a0)
  3a:	636d                	lui	t1,0x1b
  3c:	6f6d                	lui	t5,0x1b
  3e:	6564                	flw	fs1,76(a0)
  40:	3d6c                	fld	fa1,248(a0)
  42:	656d                	lui	a0,0x1b
  44:	6c64                	flw	fs1,92(s0)
  46:	2d20776f          	jal	a4,7318 <main-0x8d5c>
  4a:	616d                	addi	sp,sp,240
  4c:	6372                	flw	ft6,28(sp)
  4e:	3d68                	fld	fa0,248(a0)
  50:	7672                	flw	fa2,60(sp)
  52:	6d693233          	0x6d693233
  56:	2066                	fld	ft0,88(sp)
  58:	6d2d                	lui	s10,0xb
  5a:	6261                	lui	tp,0x18
  5c:	3d69                	jal	fffffef6 <__global_pointer$+0xfffec5ce>
  5e:	6c69                	lui	s8,0x1a
  60:	3370                	fld	fa2,224(a4)
  62:	6632                	flw	fa2,12(sp)
  64:	2d20                	fld	fs0,88(a0)
  66:	636d                	lui	t1,0x1b
  68:	6f6d                	lui	t5,0x1b
  6a:	6564                	flw	fs1,76(a0)
  6c:	3d6c                	fld	fa1,248(a0)
  6e:	656d                	lui	a0,0x1b
  70:	6c64                	flw	fs1,92(s0)
  72:	2d20776f          	jal	a4,7344 <main-0x8d30>
  76:	746d                	lui	s0,0xffffb
  78:	6e75                	lui	t3,0x1d
  7a:	3d65                	jal	ffffff32 <__global_pointer$+0xfffec60a>
  7c:	6f72                	flw	ft10,28(sp)
  7e:	74656b63          	bltu	a0,t1,7d4 <main-0xf8a0>
  82:	2d20                	fld	fs0,88(a0)
  84:	616d                	addi	sp,sp,240
  86:	6372                	flw	ft6,28(sp)
  88:	3d68                	fld	fa0,248(a0)
  8a:	7672                	flw	fa2,60(sp)
  8c:	6d693233          	0x6d693233
  90:	2066                	fld	ft0,88(sp)
  92:	672d                	lui	a4,0xb
  94:	2d20                	fld	fs0,88(a0)
  96:	2d20734f          	0x2d20734f
  9a:	2d20324f          	0x2d20324f
  9e:	2d20734f          	0x2d20734f
  a2:	6266                	flw	ft4,88(sp)
  a4:	6975                	lui	s2,0x1d
  a6:	646c                	flw	fa1,76(s0)
  a8:	6e69                	lui	t3,0x1a
  aa:	696c2d67          	0x696c2d67
  ae:	6762                	flw	fa4,24(sp)
  b0:	2d206363          	bltu	zero,s2,376 <main-0xfcfe>
  b4:	6e66                	flw	ft8,88(sp)
  b6:	74732d6f          	jal	s10,32ffc <__global_pointer$+0x1f6d4>
  ba:	6361                	lui	t1,0x18
  bc:	72702d6b          	0x72702d6b
  c0:	6365746f          	jal	s0,576f6 <__global_pointer$+0x43dce>
  c4:	6f74                	flw	fa3,92(a4)
  c6:	2072                	fld	ft0,280(sp)
  c8:	662d                	lui	a2,0xb
  ca:	7361                	lui	t1,0xffff8
  cc:	6e79                	lui	t3,0x1e
  ce:	6f726863          	bltu	tp,s7,7be <main-0xf8b6>
  d2:	6f6e                	flw	ft10,216(sp)
  d4:	7375                	lui	t1,0xffffd
  d6:	752d                	lui	a0,0xfffeb
  d8:	776e                	flw	fa4,248(sp)
  da:	6e69                	lui	t3,0x1a
  dc:	2d64                	fld	fs1,216(a0)
  de:	6174                	flw	fa3,68(a0)
  e0:	6c62                	flw	fs8,24(sp)
  e2:	7365                	lui	t1,0xffff9
  e4:	2d20                	fld	fs0,88(a0)
  e6:	7666                	flw	fa2,120(sp)
  e8:	7369                	lui	t1,0xffffa
  ea:	6269                	lui	tp,0x1a
  ec:	6c69                	lui	s8,0x1a
  ee:	7469                	lui	s0,0xffffa
  f0:	3d79                	jal	ffffff8e <__global_pointer$+0xfffec666>
  f2:	6968                	flw	fa0,84(a0)
  f4:	6464                	flw	fs1,76(s0)
  f6:	6e65                	lui	t3,0x19
  f8:	5f00                	lw	s0,56(a4)
  fa:	645f 0030 5f5f      	0x5f5f0030645f
 100:	3164                	fld	fs1,224(a0)
 102:	5f00                	lw	s0,56(a4)
 104:	765f 0068 5f5f      	0x5f5f0068765f
 10a:	6c76                	flw	fs8,92(sp)
 10c:	6c00                	flw	fs0,24(s0)
 10e:	20676e6f          	jal	t3,76314 <__global_pointer$+0x629ec>
 112:	6f6c                	flw	fa1,92(a4)
 114:	676e                	flw	fa4,216(sp)
 116:	6920                	flw	fs0,80(a0)
 118:	746e                	flw	fs0,248(sp)
 11a:	6c00                	flw	fs0,24(s0)
 11c:	20676e6f          	jal	t3,76322 <__global_pointer$+0x629fa>
 120:	6f6c                	flw	fa1,92(a4)
 122:	676e                	flw	fa4,216(sp)
 124:	7520                	flw	fs0,104(a0)
 126:	736e                	flw	ft6,248(sp)
 128:	6769                	lui	a4,0x1a
 12a:	656e                	flw	fa0,216(sp)
 12c:	2064                	fld	fs1,192(s0)
 12e:	6e69                	lui	t3,0x1a
 130:	0074                	addi	a3,sp,12
 132:	6968                	flw	fa0,84(a0)
 134:	5f006867          	0x5f006867
 138:	635f 7a6c 745f      	0x745f7a6c635f
 13e:	6261                	lui	tp,0x18
 140:	7500                	flw	fs0,40(a0)
 142:	736e                	flw	ft6,248(sp)
 144:	6769                	lui	a4,0x1a
 146:	656e                	flw	fa0,216(sp)
 148:	2064                	fld	fs1,192(s0)
 14a:	72616863          	bltu	sp,t1,87a <main-0xf7fa>
 14e:	5f00                	lw	s0,56(a4)
 150:	785f 0030 5f5f      	0x5f5f0030785f
 156:	3178                	fld	fa4,224(a0)
 158:	5f00                	lw	s0,56(a4)
 15a:	785f 0032 5f5f      	0x5f5f0032785f
 160:	3378                	fld	fa4,224(a4)
 162:	5500                	lw	s0,40(a0)
 164:	4951                	li	s2,20
 166:	7974                	flw	fa3,116(a0)
 168:	6570                	flw	fa2,76(a0)
 16a:	4400                	lw	s0,8(s0)
 16c:	72747357          	0x72747357
 170:	6375                	lui	t1,0x1d
 172:	0074                	addi	a3,sp,12
 174:	726f6873          	csrrsi	a6,0x726,30
 178:	2074                	fld	fa3,192(s0)
 17a:	6e75                	lui	t3,0x1d
 17c:	6e676973          	csrrsi	s2,0x6e6,14
 180:	6465                	lui	s0,0x19
 182:	6920                	flw	fs0,80(a0)
 184:	746e                	flw	fs0,248(sp)
 186:	5500                	lw	s0,40(a0)
 188:	4944                	lw	s1,20(a0)
 18a:	7974                	flw	fa3,116(a0)
 18c:	6570                	flw	fa2,76(a0)
 18e:	5f00                	lw	s0,56(a4)
 190:	715f 0030 5f5f      	0x5f5f0030715f
 196:	3171                	jal	fffffe22 <__global_pointer$+0xfffec4fa>
 198:	6300                	flw	fs0,0(a4)
 19a:	6c706d6f          	jal	s10,7060 <main-0x9014>
 19e:	7865                	lui	a6,0xffff9
 1a0:	6420                	flw	fs0,72(s0)
 1a2:	6c62756f          	jal	a0,27868 <__global_pointer$+0x13f40>
 1a6:	0065                	c.nop	25
 1a8:	5f5f 7278 5f00      	0x5f0072785f5f
 1ae:	755f 6964 6d76      	0x6d766964755f
 1b4:	6964646f          	jal	s0,4684a <__global_pointer$+0x32f22>
 1b8:	0034                	addi	a3,sp,8
 1ba:	706d6f63          	bltu	s10,t1,8d8 <main-0xf79c>
 1be:	656c                	flw	fa1,76(a0)
 1c0:	2078                	fld	fa4,192(s0)
 1c2:	6f6c                	flw	fa1,92(a4)
 1c4:	676e                	flw	fa4,216(sp)
 1c6:	6420                	flw	fs0,72(s0)
 1c8:	6c62756f          	jal	a0,2788e <__global_pointer$+0x13f66>
 1cc:	0065                	c.nop	25
 1ce:	5355                	li	t1,-11
 1d0:	7449                	lui	s0,0xffff2
 1d2:	7079                	c.lui	zero,0xffffe
 1d4:	0065                	c.nop	25
 1d6:	5f5f 3072 5f00      	0x5f0030725f5f
 1dc:	725f 0031 5f5f      	0x5f5f0031725f
 1e2:	6875                	lui	a6,0x1d
 1e4:	5f00                	lw	s0,56(a4)
 1e6:	755f 006c       	0x6c755f

Disassembly of section .debug_line_str:

00000000 <.debug_line_str>:
   0:	2e2e                	fld	ft8,200(sp)
   2:	2f2e2e2f          	0x2f2e2e2f
   6:	2e2e                	fld	ft8,200(sp)
   8:	2f2e2e2f          	0x2f2e2e2f
   c:	2e2e                	fld	ft8,200(sp)
   e:	722f2e2f          	0x722f2e2f
  12:	7369                	lui	t1,0xffffa
  14:	672d7663          	bgeu	s10,s2,680 <main-0xf9f4>
  18:	6c2f6363          	bltu	t5,sp,6de <main-0xf996>
  1c:	6269                	lui	tp,0x1a
  1e:	2f636367          	0x2f636367
  22:	696c                	flw	fa1,84(a0)
  24:	6762                	flw	fa4,24(sp)
  26:	2e326363          	bltu	tp,gp,30c <main-0xfd68>
  2a:	682f0063          	beq	t5,sp,6aa <main-0xf9ca>
  2e:	2f656d6f          	jal	s10,56324 <__global_pointer$+0x429fc>
  32:	6e65                	lui	t3,0x19
  34:	2f6e6967          	0x2f6e6967
  38:	6972                	flw	fs2,28(sp)
  3a:	2d766373          	csrrsi	t1,0x2d7,12
  3e:	2d756e67          	0x2d756e67
  42:	6f74                	flw	fa3,92(a4)
  44:	68636c6f          	jal	s8,366ca <__global_pointer$+0x22da2>
  48:	6961                	lui	s2,0x18
  4a:	2f6e                	fld	ft10,216(sp)
  4c:	7562                	flw	fa0,56(sp)
  4e:	6c69                	lui	s8,0x1a
  50:	2d64                	fld	fs1,216(a0)
  52:	2d636367          	0x2d636367
  56:	656e                	flw	fa0,216(sp)
  58:	62696c77          	0x62696c77
  5c:	732d                	lui	t1,0xfffeb
  5e:	6174                	flw	fa3,68(a0)
  60:	2f326567          	0x2f326567
  64:	6972                	flw	fs2,28(sp)
  66:	36766373          	csrrsi	t1,0x367,12
  6a:	2d34                	fld	fa3,88(a0)
  6c:	6e75                	lui	t3,0x1d
  6e:	776f6e6b          	0x776f6e6b
  72:	2d6e                	fld	fs10,216(sp)
  74:	6c65                	lui	s8,0x19
  76:	2f66                	fld	ft10,88(sp)
  78:	7672                	flw	fa2,60(sp)
  7a:	6d693233          	0x6d693233
  7e:	2f66                	fld	ft10,88(sp)
  80:	6c69                	lui	s8,0x1a
  82:	3370                	fld	fa2,224(a4)
  84:	6632                	flw	fa2,12(sp)
  86:	62696c2f          	0x62696c2f
  8a:	00636367          	0x636367
  8e:	2e2e                	fld	ft8,200(sp)
  90:	2f2e2e2f          	0x2f2e2e2f
  94:	2e2e                	fld	ft8,200(sp)
  96:	2f2e2e2f          	0x2f2e2e2f
  9a:	2e2e                	fld	ft8,200(sp)
  9c:	722f2e2f          	0x722f2e2f
  a0:	7369                	lui	t1,0xffffa
  a2:	672d7663          	bgeu	s10,s2,70e <main-0xf966>
  a6:	6c2f6363          	bltu	t5,sp,76c <main-0xf908>
  aa:	6269                	lui	tp,0x1a
  ac:	00636367          	0x636367
  b0:	696c                	flw	fa1,84(a0)
  b2:	6762                	flw	fa4,24(sp)
  b4:	2e326363          	bltu	tp,gp,39a <main-0xfcda>
  b8:	0068                	addi	a0,sp,12

Disassembly of section .debug_loclists:

00000000 <.debug_loclists>:
   0:	0a95                	addi	s5,s5,5
   2:	0000                	unimp
   4:	0005                	c.nop	1
   6:	0004                	0x4
   8:	0000                	unimp
   a:	0000                	unimp
   c:	00000007          	0x7
  10:	0000                	unimp
  12:	0000                	unimp
  14:	0600                	addi	s0,sp,768
  16:	935a                	add	t1,t1,s6
  18:	5b04                	lw	s1,48(a4)
  1a:	00070493          	mv	s1,a4
  1e:	0000                	unimp
  20:	0000                	unimp
  22:	0000                	unimp
  24:	0600                	addi	s0,sp,768
  26:	0aa503a3          	sb	a0,167(a0) # fffeb0a7 <__global_pointer$+0xfffd777f>
  2a:	9f26                	add	t5,t5,s1
  2c:	00000007          	0x7
  30:	0000                	unimp
  32:	0000                	unimp
  34:	0600                	addi	s0,sp,768
  36:	935a                	add	t1,t1,s6
  38:	5b04                	lw	s1,48(a4)
  3a:	00070493          	mv	s1,a4
  3e:	0000                	unimp
  40:	0000                	unimp
  42:	0000                	unimp
  44:	0600                	addi	s0,sp,768
  46:	0aa503a3          	sb	a0,167(a0)
  4a:	9f26                	add	t5,t5,s1
  4c:	00000007          	0x7
  50:	0000                	unimp
  52:	0000                	unimp
  54:	0600                	addi	s0,sp,768
  56:	935a                	add	t1,t1,s6
  58:	5b04                	lw	s1,48(a4)
  5a:	00070493          	mv	s1,a4
  5e:	0000                	unimp
  60:	0000                	unimp
  62:	0000                	unimp
  64:	0600                	addi	s0,sp,768
  66:	0aa503a3          	sb	a0,167(a0)
  6a:	9f26                	add	t5,t5,s1
  6c:	00000007          	0x7
  70:	0000                	unimp
  72:	0000                	unimp
  74:	0600                	addi	s0,sp,768
  76:	935a                	add	t1,t1,s6
  78:	5b04                	lw	s1,48(a4)
  7a:	00070493          	mv	s1,a4
  7e:	0000                	unimp
  80:	0000                	unimp
  82:	0000                	unimp
  84:	0600                	addi	s0,sp,768
  86:	0aa503a3          	sb	a0,167(a0)
  8a:	9f26                	add	t5,t5,s1
  8c:	00000007          	0x7
  90:	0000                	unimp
  92:	0000                	unimp
  94:	0600                	addi	s0,sp,768
  96:	935a                	add	t1,t1,s6
  98:	5b04                	lw	s1,48(a4)
  9a:	00070493          	mv	s1,a4
  9e:	0000                	unimp
  a0:	0000                	unimp
  a2:	0000                	unimp
  a4:	0600                	addi	s0,sp,768
  a6:	0aa503a3          	sb	a0,167(a0)
  aa:	9f26                	add	t5,t5,s1
  ac:	00000007          	0x7
  b0:	0000                	unimp
  b2:	0000                	unimp
  b4:	0600                	addi	s0,sp,768
  b6:	935a                	add	t1,t1,s6
  b8:	5b04                	lw	s1,48(a4)
  ba:	00070493          	mv	s1,a4
  be:	0000                	unimp
  c0:	0000                	unimp
  c2:	0000                	unimp
  c4:	0600                	addi	s0,sp,768
  c6:	0aa503a3          	sb	a0,167(a0)
  ca:	9f26                	add	t5,t5,s1
  cc:	00000007          	0x7
  d0:	0000                	unimp
  d2:	0000                	unimp
  d4:	0600                	addi	s0,sp,768
  d6:	935a                	add	t1,t1,s6
  d8:	5b04                	lw	s1,48(a4)
  da:	00070493          	mv	s1,a4
  de:	0000                	unimp
  e0:	0000                	unimp
  e2:	0000                	unimp
  e4:	0600                	addi	s0,sp,768
  e6:	0aa503a3          	sb	a0,167(a0)
  ea:	9f26                	add	t5,t5,s1
  ec:	0700                	addi	s0,sp,896
	...
  f6:	5c06                	lw	s8,96(sp)
  f8:	935d0493          	addi	s1,s10,-1739 # a935 <main-0x573f>
  fc:	0704                	addi	s1,sp,896
	...
 106:	a306                	fsd	ft1,384(sp)
 108:	260ca503          	lw	a0,608(s9)
 10c:	079f 0000 0000      	0x79f
 112:	0000                	unimp
 114:	0000                	unimp
 116:	5c06                	lw	s8,96(sp)
 118:	935d0493          	addi	s1,s10,-1739
 11c:	0704                	addi	s1,sp,896
	...
 126:	a306                	fsd	ft1,384(sp)
 128:	260ca503          	lw	a0,608(s9)
 12c:	079f 0000 0000      	0x79f
 132:	0000                	unimp
 134:	0000                	unimp
 136:	5c06                	lw	s8,96(sp)
 138:	935d0493          	addi	s1,s10,-1739
 13c:	0704                	addi	s1,sp,896
	...
 146:	a306                	fsd	ft1,384(sp)
 148:	260ca503          	lw	a0,608(s9)
 14c:	079f 0000 0000      	0x79f
 152:	0000                	unimp
 154:	0000                	unimp
 156:	5c06                	lw	s8,96(sp)
 158:	935d0493          	addi	s1,s10,-1739
 15c:	0704                	addi	s1,sp,896
	...
 166:	a306                	fsd	ft1,384(sp)
 168:	260ca503          	lw	a0,608(s9)
 16c:	079f 0000 0000      	0x79f
 172:	0000                	unimp
 174:	0000                	unimp
 176:	5c06                	lw	s8,96(sp)
 178:	935d0493          	addi	s1,s10,-1739
 17c:	0004                	0x4
 17e:	00000007          	0x7
 182:	0000                	unimp
 184:	0000                	unimp
 186:	0200                	addi	s0,sp,256
 188:	9f30                	0x9f30
 18a:	00000007          	0x7
 18e:	0000                	unimp
 190:	0000                	unimp
 192:	0200                	addi	s0,sp,256
 194:	9f30                	0x9f30
 196:	0700                	addi	s0,sp,896
	...
 1a0:	5c06                	lw	s8,96(sp)
 1a2:	935d0493          	addi	s1,s10,-1739
 1a6:	0704                	addi	s1,sp,896
	...
 1b0:	5c06                	lw	s8,96(sp)
 1b2:	935d0493          	addi	s1,s10,-1739
 1b6:	0704                	addi	s1,sp,896
	...
 1c0:	5c06                	lw	s8,96(sp)
 1c2:	935d0493          	addi	s1,s10,-1739
 1c6:	0704                	addi	s1,sp,896
	...
 1d0:	5c06                	lw	s8,96(sp)
 1d2:	935d0493          	addi	s1,s10,-1739
 1d6:	0704                	addi	s1,sp,896
	...
 1e0:	5c06                	lw	s8,96(sp)
 1e2:	935d0493          	addi	s1,s10,-1739
 1e6:	0004                	0x4
 1e8:	00000007          	0x7
 1ec:	0000                	unimp
 1ee:	0000                	unimp
 1f0:	0600                	addi	s0,sp,768
 1f2:	935a                	add	t1,t1,s6
 1f4:	5b04                	lw	s1,48(a4)
 1f6:	00070493          	mv	s1,a4
 1fa:	0000                	unimp
 1fc:	0000                	unimp
 1fe:	0000                	unimp
 200:	0600                	addi	s0,sp,768
 202:	935a                	add	t1,t1,s6
 204:	5f04                	lw	s1,56(a4)
 206:	00070493          	mv	s1,a4
 20a:	0000                	unimp
 20c:	0000                	unimp
 20e:	0000                	unimp
 210:	0600                	addi	s0,sp,768
 212:	9356                	add	t1,t1,s5
 214:	5f04                	lw	s1,56(a4)
 216:	00070493          	mv	s1,a4
 21a:	0000                	unimp
 21c:	0000                	unimp
 21e:	0000                	unimp
 220:	0600                	addi	s0,sp,768
 222:	9356                	add	t1,t1,s5
 224:	6104                	flw	fs1,0(a0)
 226:	00070493          	mv	s1,a4
 22a:	0000                	unimp
 22c:	0000                	unimp
 22e:	0000                	unimp
 230:	0600                	addi	s0,sp,768
 232:	9356                	add	t1,t1,s5
 234:	5f04                	lw	s1,56(a4)
 236:	00070493          	mv	s1,a4
 23a:	0000                	unimp
 23c:	0000                	unimp
 23e:	0000                	unimp
 240:	0600                	addi	s0,sp,768
 242:	9356                	add	t1,t1,s5
 244:	6104                	flw	fs1,0(a0)
 246:	00070493          	mv	s1,a4
 24a:	0000                	unimp
 24c:	0000                	unimp
 24e:	0000                	unimp
 250:	0600                	addi	s0,sp,768
 252:	9356                	add	t1,t1,s5
 254:	6104                	flw	fs1,0(a0)
 256:	00070493          	mv	s1,a4
 25a:	0000                	unimp
 25c:	0000                	unimp
 25e:	0000                	unimp
 260:	0600                	addi	s0,sp,768
 262:	9356                	add	t1,t1,s5
 264:	5b04                	lw	s1,48(a4)
 266:	00070493          	mv	s1,a4
 26a:	0000                	unimp
 26c:	0000                	unimp
 26e:	0000                	unimp
 270:	0600                	addi	s0,sp,768
 272:	9356                	add	t1,t1,s5
 274:	6104                	flw	fs1,0(a0)
 276:	00070493          	mv	s1,a4
 27a:	0000                	unimp
 27c:	0000                	unimp
 27e:	0000                	unimp
 280:	0600                	addi	s0,sp,768
 282:	9356                	add	t1,t1,s5
 284:	5b04                	lw	s1,48(a4)
 286:	00070493          	mv	s1,a4
 28a:	0000                	unimp
 28c:	0000                	unimp
 28e:	0000                	unimp
 290:	0600                	addi	s0,sp,768
 292:	9356                	add	t1,t1,s5
 294:	6104                	flw	fs1,0(a0)
 296:	00070493          	mv	s1,a4
 29a:	0000                	unimp
 29c:	0000                	unimp
 29e:	0000                	unimp
 2a0:	0600                	addi	s0,sp,768
 2a2:	9356                	add	t1,t1,s5
 2a4:	5b04                	lw	s1,48(a4)
 2a6:	00070493          	mv	s1,a4
 2aa:	0000                	unimp
 2ac:	0000                	unimp
 2ae:	0000                	unimp
 2b0:	0600                	addi	s0,sp,768
 2b2:	9356                	add	t1,t1,s5
 2b4:	5f04                	lw	s1,56(a4)
 2b6:	07000493          	li	s1,112
	...
 2c2:	5c01                	li	s8,-32
 2c4:	00000007          	0x7
 2c8:	0000                	unimp
 2ca:	0000                	unimp
 2cc:	0900                	addi	s0,sp,144
 2ce:	007c                	addi	a5,sp,12
 2d0:	ff08007b          	0xff08007b
 2d4:	241a                	fld	fs0,384(sp)
 2d6:	079f 0000 0000      	0x79f
 2dc:	0000                	unimp
 2de:	0000                	unimp
 2e0:	5e01                	li	t3,-32
 2e2:	00000007          	0x7
 2e6:	0000                	unimp
 2e8:	0000                	unimp
 2ea:	0100                	addi	s0,sp,128
 2ec:	075c                	addi	a5,sp,900
	...
 2f6:	5e01                	li	t3,-32
 2f8:	00000007          	0x7
 2fc:	0000                	unimp
 2fe:	0000                	unimp
 300:	0100                	addi	s0,sp,128
 302:	075c                	addi	a5,sp,900
	...
 30c:	7c09                	lui	s8,0xfffe2
 30e:	7b00                	flw	fs0,48(a4)
 310:	0800                	addi	s0,sp,16
 312:	1aff                	0x1aff
 314:	9f24                	0x9f24
 316:	00000007          	0x7
 31a:	0000                	unimp
 31c:	0000                	unimp
 31e:	0100                	addi	s0,sp,128
 320:	075e                	slli	a4,a4,0x17
	...
 32a:	5c01                	li	s8,-32
 32c:	00000007          	0x7
 330:	0000                	unimp
 332:	0000                	unimp
 334:	0100                	addi	s0,sp,128
 336:	005c                	addi	a5,sp,4
 338:	00000007          	0x7
 33c:	0000                	unimp
 33e:	0000                	unimp
 340:	0100                	addi	s0,sp,128
 342:	075d                	addi	a4,a4,23
	...
 34c:	5d01                	li	s10,-32
 34e:	00000007          	0x7
 352:	0000                	unimp
 354:	0000                	unimp
 356:	0100                	addi	s0,sp,128
 358:	075d                	addi	a4,a4,23
	...
 362:	5d01                	li	s10,-32
 364:	00000007          	0x7
 368:	0000                	unimp
 36a:	0000                	unimp
 36c:	0100                	addi	s0,sp,128
 36e:	075d                	addi	a4,a4,23
	...
 378:	5d01                	li	s10,-32
 37a:	0700                	addi	s0,sp,896
	...
 384:	5a01                	li	s4,-32
 386:	00000007          	0x7
 38a:	0000                	unimp
 38c:	0000                	unimp
 38e:	0100                	addi	s0,sp,128
 390:	0756                	slli	a4,a4,0x15
	...
 39a:	6001                	0x6001
 39c:	00000007          	0x7
 3a0:	0000                	unimp
 3a2:	0000                	unimp
 3a4:	0100                	addi	s0,sp,128
 3a6:	0756                	slli	a4,a4,0x15
	...
 3b0:	6001                	0x6001
 3b2:	00000007          	0x7
 3b6:	0000                	unimp
 3b8:	0000                	unimp
 3ba:	0100                	addi	s0,sp,128
 3bc:	0756                	slli	a4,a4,0x15
	...
 3c6:	6001                	0x6001
 3c8:	00000007          	0x7
 3cc:	0000                	unimp
 3ce:	0000                	unimp
 3d0:	0100                	addi	s0,sp,128
 3d2:	0756                	slli	a4,a4,0x15
	...
 3dc:	7606                	flw	fa2,96(sp)
 3de:	7b00                	flw	fs0,48(a4)
 3e0:	2400                	fld	fs0,8(s0)
 3e2:	079f 0000 0000      	0x79f
 3e8:	0000                	unimp
 3ea:	0000                	unimp
 3ec:	5601                	li	a2,-32
 3ee:	0700                	addi	s0,sp,896
	...
 3f8:	5b01                	li	s6,-32
 3fa:	00000007          	0x7
 3fe:	0000                	unimp
 400:	0000                	unimp
 402:	0100                	addi	s0,sp,128
 404:	075f 0000 0000      	0x75f
 40a:	0000                	unimp
 40c:	0000                	unimp
 40e:	6101                	addi	sp,sp,0
 410:	00000007          	0x7
 414:	0000                	unimp
 416:	0000                	unimp
 418:	0100                	addi	s0,sp,128
 41a:	075f 0000 0000      	0x75f
 420:	0000                	unimp
 422:	0000                	unimp
 424:	5f01                	li	t5,-32
 426:	00000007          	0x7
 42a:	0000                	unimp
 42c:	0000                	unimp
 42e:	0100                	addi	s0,sp,128
 430:	0761                	addi	a4,a4,24
	...
 43a:	5f01                	li	t5,-32
 43c:	00000007          	0x7
 440:	0000                	unimp
 442:	0000                	unimp
 444:	0100                	addi	s0,sp,128
 446:	0761                	addi	a4,a4,24
	...
 450:	5f01                	li	t5,-32
 452:	00000007          	0x7
 456:	0000                	unimp
 458:	0000                	unimp
 45a:	0100                	addi	s0,sp,128
 45c:	075f 0000 0000      	0x75f
 462:	0000                	unimp
 464:	0000                	unimp
 466:	5b01                	li	s6,-32
 468:	00000007          	0x7
 46c:	0000                	unimp
 46e:	0000                	unimp
 470:	0100                	addi	s0,sp,128
 472:	0761                	addi	a4,a4,24
	...
 47c:	5b01                	li	s6,-32
 47e:	00000007          	0x7
 482:	0000                	unimp
 484:	0000                	unimp
 486:	0100                	addi	s0,sp,128
 488:	0761                	addi	a4,a4,24
	...
 492:	5f01                	li	t5,-32
 494:	00000007          	0x7
 498:	0000                	unimp
 49a:	0000                	unimp
 49c:	0100                	addi	s0,sp,128
 49e:	075f 0000 0000      	0x75f
 4a4:	0000                	unimp
 4a6:	0000                	unimp
 4a8:	5b01                	li	s6,-32
 4aa:	00000007          	0x7
 4ae:	0000                	unimp
 4b0:	0000                	unimp
 4b2:	0100                	addi	s0,sp,128
 4b4:	005f 0007 0000      	0x7005f
 4ba:	0000                	unimp
 4bc:	0000                	unimp
 4be:	0100                	addi	s0,sp,128
 4c0:	075d                	addi	a4,a4,23
	...
 4ca:	5e01                	li	t3,-32
 4cc:	0700                	addi	s0,sp,896
	...
 4d6:	5a01                	li	s4,-32
 4d8:	00000007          	0x7
 4dc:	0000                	unimp
 4de:	0000                	unimp
 4e0:	0100                	addi	s0,sp,128
 4e2:	075a                	slli	a4,a4,0x16
	...
 4ec:	5a01                	li	s4,-32
 4ee:	0700                	addi	s0,sp,896
	...
 4f8:	3102                	fld	ft2,32(sp)
 4fa:	079f 0000 0000      	0x79f
 500:	0000                	unimp
 502:	0000                	unimp
 504:	5b01                	li	s6,-32
 506:	00000007          	0x7
 50a:	0000                	unimp
 50c:	0000                	unimp
 50e:	0100                	addi	s0,sp,128
 510:	0007005b          	0x7005b
 514:	0000                	unimp
 516:	0000                	unimp
 518:	0000                	unimp
 51a:	0100                	addi	s0,sp,128
 51c:	075f 0000 0000      	0x75f
 522:	0000                	unimp
 524:	0000                	unimp
 526:	5f01                	li	t5,-32
 528:	0700                	addi	s0,sp,896
	...
 532:	5b01                	li	s6,-32
 534:	00000007          	0x7
 538:	0000                	unimp
 53a:	0000                	unimp
 53c:	0100                	addi	s0,sp,128
 53e:	0000075b          	0x75b
 542:	0000                	unimp
 544:	0000                	unimp
 546:	0000                	unimp
 548:	5b01                	li	s6,-32
 54a:	00000007          	0x7
 54e:	0000                	unimp
 550:	0000                	unimp
 552:	0100                	addi	s0,sp,128
 554:	0000075b          	0x75b
 558:	0000                	unimp
 55a:	0000                	unimp
 55c:	0000                	unimp
 55e:	5b01                	li	s6,-32
 560:	0700                	addi	s0,sp,896
	...
 56a:	5c01                	li	s8,-32
 56c:	00000007          	0x7
 570:	0000                	unimp
 572:	0000                	unimp
 574:	0900                	addi	s0,sp,144
 576:	007c                	addi	a5,sp,12
 578:	ff08007b          	0xff08007b
 57c:	241a                	fld	fs0,384(sp)
 57e:	079f 0000 0000      	0x79f
 584:	0000                	unimp
 586:	0000                	unimp
 588:	5e01                	li	t3,-32
 58a:	00000007          	0x7
 58e:	0000                	unimp
 590:	0000                	unimp
 592:	0100                	addi	s0,sp,128
 594:	005c                	addi	a5,sp,4
 596:	00000007          	0x7
 59a:	0000                	unimp
 59c:	0000                	unimp
 59e:	0100                	addi	s0,sp,128
 5a0:	005d                	c.nop	23
 5a2:	00000007          	0x7
 5a6:	0000                	unimp
 5a8:	0000                	unimp
 5aa:	0100                	addi	s0,sp,128
 5ac:	0007005b          	0x7005b
 5b0:	0000                	unimp
 5b2:	0000                	unimp
 5b4:	0000                	unimp
 5b6:	0100                	addi	s0,sp,128
 5b8:	005c                	addi	a5,sp,4
 5ba:	00000007          	0x7
 5be:	0000                	unimp
 5c0:	0000                	unimp
 5c2:	0100                	addi	s0,sp,128
 5c4:	0756                	slli	a4,a4,0x15
	...
 5ce:	5a01                	li	s4,-32
 5d0:	0700                	addi	s0,sp,896
	...
 5da:	6101                	addi	sp,sp,0
 5dc:	00000007          	0x7
 5e0:	0000                	unimp
 5e2:	0000                	unimp
 5e4:	0100                	addi	s0,sp,128
 5e6:	005f 0007 0000      	0x7005f
 5ec:	0000                	unimp
 5ee:	0000                	unimp
 5f0:	0600                	addi	s0,sp,768
 5f2:	007f                	0x7f
 5f4:	9f1d007b          	0x9f1d007b
 5f8:	00000007          	0x7
 5fc:	0000                	unimp
 5fe:	0000                	unimp
 600:	0100                	addi	s0,sp,128
 602:	075f 0000 0000      	0x75f
 608:	0000                	unimp
 60a:	0000                	unimp
 60c:	5f01                	li	t5,-32
 60e:	00000007          	0x7
 612:	0000                	unimp
 614:	0000                	unimp
 616:	0800                	addi	s0,sp,16
 618:	0080                	addi	s0,sp,64
 61a:	2540                	fld	fs0,136(a0)
 61c:	007d                	c.nop	31
 61e:	9f21                	0x9f21
 620:	00000007          	0x7
 624:	0000                	unimp
 626:	0000                	unimp
 628:	0100                	addi	s0,sp,128
 62a:	005f 0007 0000      	0x7005f
 630:	0000                	unimp
 632:	0000                	unimp
 634:	0600                	addi	s0,sp,768
 636:	007f                	0x7f
 638:	9f1d007b          	0x9f1d007b
 63c:	00000007          	0x7
 640:	0000                	unimp
 642:	0000                	unimp
 644:	0100                	addi	s0,sp,128
 646:	075f 0000 0000      	0x75f
 64c:	0000                	unimp
 64e:	0000                	unimp
 650:	6001                	0x6001
 652:	0700                	addi	s0,sp,896
	...
 65c:	6101                	addi	sp,sp,0
 65e:	00000007          	0x7
 662:	0000                	unimp
 664:	0000                	unimp
 666:	0600                	addi	s0,sp,768
 668:	007c                	addi	a5,sp,12
 66a:	0076                	c.slli	zero,0x1d
 66c:	9f1e                	add	t5,t5,t2
 66e:	00000007          	0x7
 672:	0000                	unimp
 674:	0000                	unimp
 676:	0100                	addi	s0,sp,128
 678:	005d                	c.nop	23
 67a:	00000007          	0x7
 67e:	0000                	unimp
 680:	0000                	unimp
 682:	0100                	addi	s0,sp,128
 684:	005d                	c.nop	23
 686:	00000007          	0x7
 68a:	0000                	unimp
 68c:	0000                	unimp
 68e:	1000                	addi	s0,sp,32
 690:	0081                	addi	ra,ra,0
 692:	ff0a                	fsw	ft2,188(sp)
 694:	1aff                	0x1aff
 696:	007e                	c.slli	zero,0x1f
 698:	ff0a                	fsw	ft2,188(sp)
 69a:	1aff                	0x1aff
 69c:	2440                	fld	fs0,136(s0)
 69e:	9f22                	add	t5,t5,s0
 6a0:	00000007          	0x7
 6a4:	0000                	unimp
 6a6:	0000                	unimp
 6a8:	1500                	addi	s0,sp,672
 6aa:	0081                	addi	ra,ra,0
 6ac:	ff0a                	fsw	ft2,188(sp)
 6ae:	1aff                	0x1aff
 6b0:	0081                	addi	ra,ra,0
 6b2:	2540                	fld	fs0,136(a0)
 6b4:	007c                	addi	a5,sp,12
 6b6:	0a22                	slli	s4,s4,0x8
 6b8:	ffff                	0xffff
 6ba:	401a                	0x401a
 6bc:	2224                	fld	fs1,64(a2)
 6be:	009f 0007 0000      	0x7009f
 6c4:	0000                	unimp
 6c6:	0000                	unimp
 6c8:	0100                	addi	s0,sp,128
 6ca:	0061                	c.nop	24
 6cc:	00000007          	0x7
 6d0:	0000                	unimp
 6d2:	0000                	unimp
 6d4:	0100                	addi	s0,sp,128
 6d6:	0760                	addi	s0,sp,908
	...
 6e0:	40007d07          	0x40007d07
 6e4:	4024                	lw	s1,64(s0)
 6e6:	9f25                	0x9f25
 6e8:	0700                	addi	s0,sp,896
	...
 6f2:	6d01                	0x6d01
 6f4:	00000007          	0x7
 6f8:	0000                	unimp
 6fa:	0000                	unimp
 6fc:	0100                	addi	s0,sp,128
 6fe:	005a                	c.slli	zero,0x16
 700:	00000007          	0x7
 704:	0000                	unimp
 706:	0000                	unimp
 708:	0100                	addi	s0,sp,128
 70a:	076c                	addi	a1,sp,908
	...
 714:	5e01                	li	t3,-32
 716:	0700                	addi	s0,sp,896
	...
 720:	7e06                	flw	ft8,96(sp)
 722:	8100                	0x8100
 724:	1d00                	addi	s0,sp,688
 726:	079f 0000 0000      	0x79f
 72c:	0000                	unimp
 72e:	0000                	unimp
 730:	5e01                	li	t3,-32
 732:	00000007          	0x7
 736:	0000                	unimp
 738:	0000                	unimp
 73a:	0100                	addi	s0,sp,128
 73c:	075e                	slli	a4,a4,0x17
	...
 746:	5e01                	li	t3,-32
 748:	0700                	addi	s0,sp,896
	...
 752:	7e06                	flw	ft8,96(sp)
 754:	8100                	0x8100
 756:	1d00                	addi	s0,sp,688
 758:	079f 0000 0000      	0x79f
 75e:	0000                	unimp
 760:	0000                	unimp
 762:	5e01                	li	t3,-32
 764:	00000007          	0x7
 768:	0000                	unimp
 76a:	0000                	unimp
 76c:	0100                	addi	s0,sp,128
 76e:	075f 0000 0000      	0x75f
 774:	0000                	unimp
 776:	0000                	unimp
 778:	5f01                	li	t5,-32
 77a:	0700                	addi	s0,sp,896
	...
 784:	6c01                	0x6c01
 786:	00000007          	0x7
 78a:	0000                	unimp
 78c:	0000                	unimp
 78e:	0600                	addi	s0,sp,768
 790:	0080                	addi	s0,sp,64
 792:	008d                	addi	ra,ra,3
 794:	9f1e                	add	t5,t5,t2
 796:	00000007          	0x7
 79a:	0000                	unimp
 79c:	0000                	unimp
 79e:	0100                	addi	s0,sp,128
 7a0:	0060                	addi	s0,sp,12
 7a2:	00000007          	0x7
 7a6:	0000                	unimp
 7a8:	0000                	unimp
 7aa:	0100                	addi	s0,sp,128
 7ac:	0061                	c.nop	24
 7ae:	00000007          	0x7
 7b2:	0000                	unimp
 7b4:	0000                	unimp
 7b6:	0600                	addi	s0,sp,768
 7b8:	007e                	c.slli	zero,0x1f
 7ba:	007c                	addi	a5,sp,12
 7bc:	9f1e                	add	t5,t5,t2
 7be:	00000007          	0x7
 7c2:	0000                	unimp
 7c4:	0000                	unimp
 7c6:	0100                	addi	s0,sp,128
 7c8:	075e                	slli	a4,a4,0x17
	...
 7d2:	5e01                	li	t3,-32
 7d4:	00000007          	0x7
 7d8:	0000                	unimp
 7da:	0000                	unimp
 7dc:	0800                	addi	s0,sp,16
 7de:	0081                	addi	ra,ra,0
 7e0:	2540                	fld	fs0,136(a0)
 7e2:	007c                	addi	a5,sp,12
 7e4:	9f22                	add	t5,t5,s0
 7e6:	0700                	addi	s0,sp,896
	...
 7f0:	5d01                	li	s10,-32
 7f2:	0700                	addi	s0,sp,896
	...
 7fc:	6001                	0x6001
 7fe:	0700                	addi	s0,sp,896
	...
 808:	5e01                	li	t3,-32
 80a:	00000007          	0x7
 80e:	0000                	unimp
 810:	0000                	unimp
 812:	0600                	addi	s0,sp,768
 814:	7f8c                	flw	fa1,56(a5)
 816:	007a                	c.slli	zero,0x1e
 818:	9f1a                	add	t5,t5,t1
 81a:	00000007          	0x7
 81e:	0000                	unimp
 820:	0000                	unimp
 822:	0600                	addi	s0,sp,768
 824:	007a                	c.slli	zero,0x1e
 826:	007f                	0x7f
 828:	9f1a                	add	t5,t5,t1
 82a:	00000007          	0x7
 82e:	0000                	unimp
 830:	0000                	unimp
 832:	0600                	addi	s0,sp,768
 834:	7f8c                	flw	fa1,56(a5)
 836:	007a                	c.slli	zero,0x1e
 838:	9f1a                	add	t5,t5,t1
 83a:	00000007          	0x7
 83e:	0000                	unimp
 840:	0000                	unimp
 842:	0600                	addi	s0,sp,768
 844:	017a                	slli	sp,sp,0x1e
 846:	7f8c                	flw	fa1,56(a5)
 848:	9f1a                	add	t5,t5,t1
 84a:	0700                	addi	s0,sp,896
	...
 854:	5d01                	li	s10,-32
 856:	0700                	addi	s0,sp,896
	...
 860:	6001                	0x6001
 862:	00000007          	0x7
 866:	0000                	unimp
 868:	0000                	unimp
 86a:	0500                	addi	s0,sp,640
 86c:	007a                	c.slli	zero,0x1e
 86e:	2540                	fld	fs0,136(a0)
 870:	079f 0000 0000      	0x79f
 876:	0000                	unimp
 878:	0000                	unimp
 87a:	7a05                	lui	s4,0xfffe1
 87c:	4001                	c.li	zero,0
 87e:	9f25                	0x9f25
 880:	0700                	addi	s0,sp,896
	...
 88a:	5c01                	li	s8,-32
 88c:	0700                	addi	s0,sp,896
	...
 896:	5c01                	li	s8,-32
 898:	00000007          	0x7
 89c:	0000                	unimp
 89e:	0000                	unimp
 8a0:	0100                	addi	s0,sp,128
 8a2:	075e                	slli	a4,a4,0x17
	...
 8ac:	5c01                	li	s8,-32
 8ae:	00000007          	0x7
 8b2:	0000                	unimp
 8b4:	0000                	unimp
 8b6:	0900                	addi	s0,sp,144
 8b8:	007c                	addi	a5,sp,12
 8ba:	ff08007b          	0xff08007b
 8be:	241a                	fld	fs0,384(sp)
 8c0:	079f 0000 0000      	0x79f
 8c6:	0000                	unimp
 8c8:	0000                	unimp
 8ca:	5e01                	li	t3,-32
 8cc:	0700                	addi	s0,sp,896
	...
 8d6:	5d01                	li	s10,-32
 8d8:	0700                	addi	s0,sp,896
	...
 8e2:	6101                	addi	sp,sp,0
 8e4:	0700                	addi	s0,sp,896
	...
 8ee:	5c01                	li	s8,-32
 8f0:	0700                	addi	s0,sp,896
	...
 8fa:	6c01                	0x6c01
 8fc:	00000007          	0x7
 900:	0000                	unimp
 902:	0000                	unimp
 904:	0100                	addi	s0,sp,128
 906:	005a                	c.slli	zero,0x16
 908:	00000007          	0x7
 90c:	0000                	unimp
 90e:	0000                	unimp
 910:	0100                	addi	s0,sp,128
 912:	0756                	slli	a4,a4,0x15
	...
 91c:	5f01                	li	t5,-32
 91e:	0700                	addi	s0,sp,896
	...
 928:	7f06                	flw	ft10,96(sp)
 92a:	8100                	0x8100
 92c:	1d00                	addi	s0,sp,688
 92e:	079f 0000 0000      	0x79f
 934:	0000                	unimp
 936:	0000                	unimp
 938:	5f01                	li	t5,-32
 93a:	00000007          	0x7
 93e:	0000                	unimp
 940:	0000                	unimp
 942:	0100                	addi	s0,sp,128
 944:	075f 0000 0000      	0x75f
 94a:	0000                	unimp
 94c:	0000                	unimp
 94e:	5f01                	li	t5,-32
 950:	0700                	addi	s0,sp,896
	...
 95a:	7f06                	flw	ft10,96(sp)
 95c:	8100                	0x8100
 95e:	1d00                	addi	s0,sp,688
 960:	079f 0000 0000      	0x79f
 966:	0000                	unimp
 968:	0000                	unimp
 96a:	5f01                	li	t5,-32
 96c:	00000007          	0x7
 970:	0000                	unimp
 972:	0000                	unimp
 974:	0100                	addi	s0,sp,128
 976:	0060                	addi	s0,sp,12
 978:	00000007          	0x7
 97c:	0000                	unimp
 97e:	0000                	unimp
 980:	0100                	addi	s0,sp,128
 982:	0756                	slli	a4,a4,0x15
	...
 98c:	7c06                	flw	fs8,96(sp)
 98e:	8c00                	0x8c00
 990:	1e00                	addi	s0,sp,816
 992:	079f 0000 0000      	0x79f
 998:	0000                	unimp
 99a:	0000                	unimp
 99c:	5d01                	li	s10,-32
 99e:	0700                	addi	s0,sp,896
	...
 9a8:	5a01                	li	s4,-32
 9aa:	0700                	addi	s0,sp,896
	...
 9b4:	5c01                	li	s8,-32
 9b6:	00000007          	0x7
 9ba:	0000                	unimp
 9bc:	0000                	unimp
 9be:	0700                	addi	s0,sp,896
 9c0:	007e                	c.slli	zero,0x1f
 9c2:	2440                	fld	fs0,136(s0)
 9c4:	2540                	fld	fs0,136(a0)
 9c6:	009f 0007 0000      	0x7009f
 9cc:	0000                	unimp
 9ce:	0000                	unimp
 9d0:	0100                	addi	s0,sp,128
 9d2:	0756                	slli	a4,a4,0x15
	...
 9dc:	5b01                	li	s6,-32
 9de:	0700                	addi	s0,sp,896
	...
 9e8:	6101                	addi	sp,sp,0
 9ea:	00000007          	0x7
 9ee:	0000                	unimp
 9f0:	0000                	unimp
 9f2:	0100                	addi	s0,sp,128
 9f4:	005d                	c.nop	23
 9f6:	00000007          	0x7
 9fa:	0000                	unimp
 9fc:	0000                	unimp
 9fe:	0600                	addi	s0,sp,768
 a00:	007d                	c.nop	31
 a02:	007a                	c.slli	zero,0x1e
 a04:	9f1d                	0x9f1d
 a06:	00000007          	0x7
 a0a:	0000                	unimp
 a0c:	0000                	unimp
 a0e:	0100                	addi	s0,sp,128
 a10:	075d                	addi	a4,a4,23
	...
 a1a:	5d01                	li	s10,-32
 a1c:	00000007          	0x7
 a20:	0000                	unimp
 a22:	0000                	unimp
 a24:	0100                	addi	s0,sp,128
 a26:	005d                	c.nop	23
 a28:	00000007          	0x7
 a2c:	0000                	unimp
 a2e:	0000                	unimp
 a30:	0600                	addi	s0,sp,768
 a32:	007d                	c.nop	31
 a34:	007a                	c.slli	zero,0x1e
 a36:	9f1d                	0x9f1d
 a38:	00000007          	0x7
 a3c:	0000                	unimp
 a3e:	0000                	unimp
 a40:	0100                	addi	s0,sp,128
 a42:	075d                	addi	a4,a4,23
	...
 a4c:	5f01                	li	t5,-32
 a4e:	00000007          	0x7
 a52:	0000                	unimp
 a54:	0000                	unimp
 a56:	0100                	addi	s0,sp,128
 a58:	005f 0007 0000      	0x7005f
 a5e:	0000                	unimp
 a60:	0000                	unimp
 a62:	0100                	addi	s0,sp,128
 a64:	0761                	addi	a4,a4,24
	...
 a6e:	7c06                	flw	fs8,96(sp)
 a70:	7600                	flw	fs0,40(a2)
 a72:	1e00                	addi	s0,sp,816
 a74:	079f 0000 0000      	0x79f
 a7a:	0000                	unimp
 a7c:	0000                	unimp
 a7e:	5c01                	li	s8,-32
 a80:	0700                	addi	s0,sp,896
	...
 a8a:	5d01                	li	s10,-32
 a8c:	0700                	addi	s0,sp,896
	...
 a96:	5e01                	li	t3,-32
	...

Disassembly of section .debug_rnglists:

00000000 <.debug_rnglists>:
   0:	010d                	addi	sp,sp,3
   2:	0000                	unimp
   4:	0005                	c.nop	1
   6:	0004                	0x4
   8:	0000                	unimp
   a:	0000                	unimp
   c:	0006                	c.slli	zero,0x1
   e:	0000                	unimp
  10:	0000                	unimp
  12:	0000                	unimp
  14:	0600                	addi	s0,sp,768
	...
  1e:	0006                	c.slli	zero,0x1
	...
  28:	0006                	c.slli	zero,0x1
  2a:	0000                	unimp
  2c:	0000                	unimp
  2e:	0000                	unimp
  30:	0600                	addi	s0,sp,768
	...
  3a:	0006                	c.slli	zero,0x1
  3c:	0000                	unimp
  3e:	0000                	unimp
  40:	0000                	unimp
  42:	0600                	addi	s0,sp,768
	...
  4c:	0600                	addi	s0,sp,768
	...
  56:	0006                	c.slli	zero,0x1
	...
  60:	0006                	c.slli	zero,0x1
  62:	0000                	unimp
  64:	0000                	unimp
  66:	0000                	unimp
  68:	0600                	addi	s0,sp,768
	...
  72:	0600                	addi	s0,sp,768
	...
  7c:	0006                	c.slli	zero,0x1
  7e:	0000                	unimp
  80:	0000                	unimp
  82:	0000                	unimp
  84:	0600                	addi	s0,sp,768
	...
  8e:	0006                	c.slli	zero,0x1
	...
  98:	0006                	c.slli	zero,0x1
  9a:	0000                	unimp
  9c:	0000                	unimp
  9e:	0000                	unimp
  a0:	0600                	addi	s0,sp,768
	...
  aa:	0006                	c.slli	zero,0x1
  ac:	0000                	unimp
  ae:	0000                	unimp
  b0:	0000                	unimp
  b2:	0600                	addi	s0,sp,768
	...
  bc:	0006                	c.slli	zero,0x1
	...
  c6:	0006                	c.slli	zero,0x1
  c8:	0000                	unimp
  ca:	0000                	unimp
  cc:	0000                	unimp
  ce:	0600                	addi	s0,sp,768
	...
  d8:	0600                	addi	s0,sp,768
	...
  e2:	0006                	c.slli	zero,0x1
  e4:	0000                	unimp
  e6:	0000                	unimp
  e8:	0000                	unimp
  ea:	0600                	addi	s0,sp,768
	...
  f4:	0006                	c.slli	zero,0x1
	...
  fe:	0006                	c.slli	zero,0x1
 100:	0000                	unimp
 102:	0000                	unimp
 104:	0000                	unimp
 106:	0600                	addi	s0,sp,768
	...
