
./helloworld.elf:     file format elf32-littleriscv
./helloworld.elf
architecture: riscv:rv32, flags 0x00000112:
EXEC_P, HAS_SYMS, D_PAGED
start address 0x00010104

Program Header:
0x70000003 off    0x000060d9 vaddr 0x00000000 paddr 0x00000000 align 2**0
         filesz 0x00000025 memsz 0x00000000 flags r--
    LOAD off    0x00000000 vaddr 0x00010000 paddr 0x00010000 align 2**12
         filesz 0x000053a5 memsz 0x000053a5 flags r-x
    LOAD off    0x000053a8 vaddr 0x000163a8 paddr 0x000163a8 align 2**12
         filesz 0x00000d04 memsz 0x000052d8 flags rw-

Sections:
Idx Name          Size      VMA       LMA       File off  Algn
  0 .text         000051d0  00010094  00010094  00000094  2**2
                  CONTENTS, ALLOC, LOAD, READONLY, CODE
  1 .rodata       00000141  00015264  00015264  00005264  2**2
                  CONTENTS, ALLOC, LOAD, READONLY, DATA
  2 .eh_frame     0000048c  000163a8  000163a8  000053a8  2**2
                  CONTENTS, ALLOC, LOAD, DATA
  3 .init_array   00000008  00016834  00016834  00005834  2**2
                  CONTENTS, ALLOC, LOAD, DATA
  4 .fini_array   00000004  0001683c  0001683c  0000583c  2**2
                  CONTENTS, ALLOC, LOAD, DATA
  5 .data         00000840  00016840  00016840  00005840  2**3
                  CONTENTS, ALLOC, LOAD, DATA
  6 .got          0000001c  00017080  00017080  00006080  2**2
                  CONTENTS, ALLOC, LOAD, DATA
  7 .sdata        00000010  0001709c  0001709c  0000609c  2**2
                  CONTENTS, ALLOC, LOAD, DATA
  8 .sbss         00000010  000170ac  000170ac  000060ac  2**2
                  ALLOC
  9 .bss          000045c4  000170bc  000170bc  000060ac  2**2
                  ALLOC
 10 .comment      0000002d  00000000  00000000  000060ac  2**0
                  CONTENTS, READONLY
 11 .riscv.attributes 00000025  00000000  00000000  000060d9  2**0
                  CONTENTS, READONLY
 12 .debug_aranges 00000020  00000000  00000000  000060fe  2**0
                  CONTENTS, READONLY, DEBUGGING, OCTETS
 13 .debug_info   00000761  00000000  00000000  0000611e  2**0
                  CONTENTS, READONLY, DEBUGGING, OCTETS
 14 .debug_abbrev 000001a6  00000000  00000000  0000687f  2**0
                  CONTENTS, READONLY, DEBUGGING, OCTETS
 15 .debug_line   00000713  00000000  00000000  00006a25  2**0
                  CONTENTS, READONLY, DEBUGGING, OCTETS
 16 .debug_str    000001e8  00000000  00000000  00007138  2**0
                  CONTENTS, READONLY, DEBUGGING, OCTETS
 17 .debug_line_str 000000d3  00000000  00000000  00007320  2**0
                  CONTENTS, READONLY, DEBUGGING, OCTETS
 18 .debug_loclists 00000a4c  00000000  00000000  000073f3  2**0
                  CONTENTS, READONLY, DEBUGGING, OCTETS
 19 .debug_rnglists 00000111  00000000  00000000  00007e3f  2**0
                  CONTENTS, READONLY, DEBUGGING, OCTETS
SYMBOL TABLE:
00010094 l    d  .text	00000000 .text
00015264 l    d  .rodata	00000000 .rodata
000163a8 l    d  .eh_frame	00000000 .eh_frame
00016834 l    d  .init_array	00000000 .init_array
0001683c l    d  .fini_array	00000000 .fini_array
00016840 l    d  .data	00000000 .data
00017080 l    d  .got	00000000 .got
0001709c l    d  .sdata	00000000 .sdata
000170ac l    d  .sbss	00000000 .sbss
000170bc l    d  .bss	00000000 .bss
00000000 l    d  .comment	00000000 .comment
00000000 l    d  .riscv.attributes	00000000 .riscv.attributes
00000000 l    d  .debug_aranges	00000000 .debug_aranges
00000000 l    d  .debug_info	00000000 .debug_info
00000000 l    d  .debug_abbrev	00000000 .debug_abbrev
00000000 l    d  .debug_line	00000000 .debug_line
00000000 l    d  .debug_str	00000000 .debug_str
00000000 l    d  .debug_line_str	00000000 .debug_line_str
00000000 l    d  .debug_loclists	00000000 .debug_loclists
00000000 l    d  .debug_rnglists	00000000 .debug_rnglists
00000000 l    df *ABS*	00000000 exit.c
00000000 l    df *ABS*	00000000 helloworld.cpp
00000000 l    df *ABS*	00000000 __call_atexit.c
000100ec l     F .text	00000018 register_fini
00000000 l    df *ABS*	00000000 crt0.o
00000000 l    df *ABS*	00000000 crtstuff.c
000163a8 l     O .eh_frame	00000000 __EH_FRAME_BEGIN__
00010154 l     F .text	00000000 __do_global_dtors_aux
000170bc l     O .bss	00000001 completed.1
0001683c l     O .fini_array	00000000 __do_global_dtors_aux_fini_array_entry
00010198 l     F .text	00000000 frame_dummy
000170c0 l     O .bss	00000018 object.0
00016838 l     O .init_array	00000000 __frame_dummy_init_array_entry
00000000 l    df *ABS*	00000000 uart.c
00000000 l    df *ABS*	00000000 core.c
00016848 l     O .data	00000004 _ZL10heap_start
00000000 l    df *ABS*	00000000 sdcard.c
0001056c l     F .text	0000054c _Z5SDCmd13SDCardCommandm.localalias
00010ab8 l     F .text	00000284 _Z17SDReadSingleBlockmPhS_.localalias
00010d3c l     F .text	00000204 _Z18SDWriteSingleBlockmPhS_.localalias
00000000 l    df *ABS*	00000000 ff.c
0001126c l     F .text	000000d0 _ZL11move_windowP5FATFSm
0001133c l     F .text	00000200 _ZL7put_fatP5FATFSmm.part.0
0001153c l     F .text	00000190 _ZL7get_fatP7FFOBJIDm.isra.0
000116cc l     F .text	00000360 _ZL12create_chainP7FFOBJIDm
00000000 l    df *ABS*	00000000 diskio.c
00000000 l    df *ABS*	00000000 errno.c
00000000 l    df *ABS*	00000000 init.c
00000000 l    df *ABS*	00000000 mallocr.c
00000000 l    df *ABS*	00000000 memcpy.c
00000000 l    df *ABS*	00000000 lib_a-memset.o
00000000 l    df *ABS*	00000000 mlock.c
00000000 l    df *ABS*	00000000 puts.c
00000000 l    df *ABS*	00000000 sbrkr.c
00000000 l    df *ABS*	00000000 strlen.c
00000000 l    df *ABS*	00000000 atexit.c
00000000 l    df *ABS*	00000000 findfp.c
0001348c l     F .text	00000184 __sinit.part.0
00000000 l    df *ABS*	00000000 fini.c
00000000 l    df *ABS*	00000000 mallocr.c
00000000 l    df *ABS*	00000000 fvwrite.c
00000000 l    df *ABS*	00000000 fwalk.c
00000000 l    df *ABS*	00000000 memchr.c
00000000 l    df *ABS*	00000000 memmove-stub.c
00000000 l    df *ABS*	00000000 mallocr.c
00000000 l    df *ABS*	00000000 stdio.c
00000000 l    df *ABS*	00000000 writer.c
00000000 l    df *ABS*	00000000 wsetup.c
00000000 l    df *ABS*	00000000 __atexit.c
00000000 l    df *ABS*	00000000 closer.c
00000000 l    df *ABS*	00000000 fclose.c
00000000 l    df *ABS*	00000000 fflush.c
00000000 l    df *ABS*	00000000 lseekr.c
00000000 l    df *ABS*	00000000 makebuf.c
00000000 l    df *ABS*	00000000 readr.c
00000000 l    df *ABS*	00000000 fstatr.c
00000000 l    df *ABS*	00000000 isattyr.c
00000000 l    df *ABS*	00000000 sys_exit.c
00000000 l    df *ABS*	00000000 leds.c
00000000 l    df *ABS*	00000000 gpu.c
00000000 l    df *ABS*	00000000 ps2.c
00000000 l    df *ABS*	00000000 ffunicode.c
00000000 l    df *ABS*	00000000 crtstuff.c
00016830 l     O .eh_frame	00000000 __FRAME_END__
00000000 l    df *ABS*	00000000 spi.c
00000000 l    df *ABS*	00000000 impure.c
00016850 l     O .data	00000428 impure_data
00000000 l    df *ABS*	00000000 libgcc2.c
00016840 l       .fini_array	00000000 __fini_array_end
0001683c l       .fini_array	00000000 __fini_array_start
0001683c l       .init_array	00000000 __init_array_end
00016834 l       .init_array	00000000 __preinit_array_end
00017088 l     O .got	00000000 _GLOBAL_OFFSET_TABLE_
00016834 l       .init_array	00000000 __init_array_start
00016834 l       .init_array	00000000 __preinit_array_start
000151d8 g     F .text	0000005c _isatty_r
00013180 g     F .text	000000d0 _puts_r
00014f14 g     F .text	00000068 _lseek_r
000170d8 g     O .bss	00004580 s_filehandles
0001789c g       *ABS*	00000000 __global_pointer$
00014834 g     F .text	00000078 __sseek
00013610 g     F .text	00000010 __sinit
000101b8 g     F .text	00000030 _Z9UARTFlushv
0001317c g     F .text	00000004 __malloc_unlock
00010ab8 g     F .text	00000284 _Z17SDReadSingleBlockmPhS_
000140dc g     F .text	0000011c memmove
000126c4 g     F .text	0000000c __errno
00015174 g     F .text	00000064 _fstat_r
000170b8 g     O .sbss	00000004 errno
0001709c g       .sdata	00000000 __SDATA_BEGIN__
00012ef8 g     F .text	000001a4 memcpy
00013480 g     F .text	0000000c _cleanup_r
00013250 g     F .text	00000010 puts
00010378 g     F .text	00000024 _fstat
000170b4 g     O .sbss	00000004 __malloc_top_pad
00012628 g     F .text	0000000c disk_status
00013ac8 g     F .text	0000049c __sfvwrite_r
00013260 g     F .text	0000005c _sbrk_r
00010f40 g     F .text	00000198 _Z20SDReadMultipleBlocksPhmm
0001510c g     F .text	00000068 _read_r
000126b4 g     F .text	00000010 disk_ioctl
00014b58 g     F .text	00000110 _fclose_r
000170b0 g     O .sbss	00000004 __malloc_max_sbrked_mem
0001039c g     F .text	0000000c _isatty
0001709c g     O .sdata	00000004 _global_impure_ptr
000141f8 g     F .text	00000558 _realloc_r
000126d0 g     F .text	0000009c __libc_init_array
00010534 g     F .text	00000038 _sbrk
00013628 g     F .text	0000005c __libc_fini_array
0001684c g     O .data	00000004 IO_SPIRXTX
00013620 g     F .text	00000004 __sfp_lock_acquire
00014018 g     F .text	000000c4 memchr
000137c4 g     F .text	00000304 _free_r
00013348 g     F .text	00000124 __call_exitprocs
00011d1c g     F .text	00000328 f_close
000170a4 g     O .sdata	00000004 __malloc_sbrk_base
00010104 g     F .text	00000050 _start
000103d8 g     F .text	00000074 _lseek
00014a60 g     F .text	0000009c __register_exitproc
00011a2c g     F .text	000002f0 f_read
0001b658 g     O .bss	00000028 __malloc_current_mallinfo
00014afc g     F .text	0000005c _close_r
0001491c g     F .text	00000144 __swsetup_r
0001b680 g       .bss	00000000 __BSS_END__
00016c78 g     O .data	00000408 __malloc_av_
00014750 g     F .text	0000005c __sread
00013178 g     F .text	00000004 __malloc_lock
00014eb4 g     F .text	00000060 _fflush_r
000170ac g       .sbss	00000000 __bss_start
0001309c g     F .text	000000dc memset
000100c8 g     F .text	00000024 main
000170ac g     O .sbss	00000004 __malloc_max_total_mem
000101e8 g     F .text	0000002c _Z9UARTWritePKc
000148ac g     F .text	00000008 __sclose
0001276c g     F .text	0000078c _malloc_r
00010d3c g     F .text	00000204 _Z18SDWriteSingleBlockmPhS_
00013684 g     F .text	00000140 _malloc_trim_r
00012044 g     F .text	000005e4 f_lseek
0001056c g     F .text	0000054c _Z5SDCmd13SDCardCommandm
0001346c g     F .text	00000014 atexit
00016844 g     O .data	00000004 IO_UARTTX
000148b4 g     F .text	00000068 _write_r
000170a0 g     O .sdata	00000004 _impure_ptr
00014c68 g     F .text	0000024c __sflush_r
00016840 g       .data	00000000 __DATA_BEGIN__
00010494 g     F .text	000000a0 _write
000170ac g       .sdata	00000000 _edata
0001b680 g       .bss	00000000 _end
000147ac g     F .text	00000088 __swrite
000170a8 g     O .sdata	00000004 __malloc_trim_threshold
00012674 g     F .text	00000040 disk_write
00010094 g     F .text	00000034 exit
00013f64 g     F .text	000000b4 _fwalk_reent
00013624 g     F .text	00000004 __sfp_lock_release
0001044c g     F .text	00000048 _read
00016840 g     O .data	00000004 IO_UARTStatus
00015234 g     F .text	00000030 _exit
00014f7c g     F .text	00000190 __smakebuf_r
000132bc g     F .text	0000008c strlen
00012634 g     F .text	00000040 disk_read
000110d8 g     F .text	00000194 _Z21SDWriteMultipleBlocksPKhmm
00010214 g     F .text	00000164 _Z12UARTWriteHexm
000103a8 g     F .text	00000030 _close



Disassembly of section .text:

00010094 <exit>:
   10094:	ff010113          	addi	sp,sp,-16
   10098:	00000593          	li	a1,0
   1009c:	00812423          	sw	s0,8(sp)
   100a0:	00112623          	sw	ra,12(sp)
   100a4:	00050413          	mv	s0,a0
   100a8:	2a0030ef          	jal	ra,13348 <__call_exitprocs>
   100ac:	000177b7          	lui	a5,0x17
   100b0:	09c7a503          	lw	a0,156(a5) # 1709c <_global_impure_ptr>
   100b4:	03c52783          	lw	a5,60(a0)
   100b8:	00078463          	beqz	a5,100c0 <exit+0x2c>
   100bc:	000780e7          	jalr	a5
   100c0:	00040513          	mv	a0,s0
   100c4:	170050ef          	jal	ra,15234 <_exit>

000100c8 <main>:
   100c8:	ff010113          	addi	sp,sp,-16
   100cc:	00005517          	auipc	a0,0x5
   100d0:	19850513          	addi	a0,a0,408 # 15264 <_exit+0x30>
   100d4:	00112623          	sw	ra,12(sp)
   100d8:	178030ef          	jal	ra,13250 <puts>
   100dc:	00c12083          	lw	ra,12(sp)
   100e0:	00000513          	li	a0,0
   100e4:	01010113          	addi	sp,sp,16
   100e8:	00008067          	ret

000100ec <register_fini>:
   100ec:	00000793          	li	a5,0
   100f0:	00078863          	beqz	a5,10100 <register_fini+0x14>
   100f4:	00013537          	lui	a0,0x13
   100f8:	62850513          	addi	a0,a0,1576 # 13628 <__libc_fini_array>
   100fc:	3700306f          	j	1346c <atexit>
   10100:	00008067          	ret

00010104 <_start>:
   10104:	00007197          	auipc	gp,0x7
   10108:	79818193          	addi	gp,gp,1944 # 1789c <__global_pointer$>
   1010c:	81018513          	addi	a0,gp,-2032 # 170ac <__malloc_max_total_mem>
   10110:	0000b617          	auipc	a2,0xb
   10114:	57060613          	addi	a2,a2,1392 # 1b680 <__BSS_END__>
   10118:	40a60633          	sub	a2,a2,a0
   1011c:	00000593          	li	a1,0
   10120:	77d020ef          	jal	ra,1309c <memset>
   10124:	00003517          	auipc	a0,0x3
   10128:	34850513          	addi	a0,a0,840 # 1346c <atexit>
   1012c:	00050863          	beqz	a0,1013c <_start+0x38>
   10130:	00003517          	auipc	a0,0x3
   10134:	4f850513          	addi	a0,a0,1272 # 13628 <__libc_fini_array>
   10138:	334030ef          	jal	ra,1346c <atexit>
   1013c:	594020ef          	jal	ra,126d0 <__libc_init_array>
   10140:	00012503          	lw	a0,0(sp)
   10144:	00410593          	addi	a1,sp,4
   10148:	00000613          	li	a2,0
   1014c:	f7dff0ef          	jal	ra,100c8 <main>
   10150:	f45ff06f          	j	10094 <exit>

00010154 <__do_global_dtors_aux>:
   10154:	ff010113          	addi	sp,sp,-16
   10158:	00812423          	sw	s0,8(sp)
   1015c:	8201c783          	lbu	a5,-2016(gp) # 170bc <completed.1>
   10160:	00112623          	sw	ra,12(sp)
   10164:	02079263          	bnez	a5,10188 <__do_global_dtors_aux+0x34>
   10168:	00000793          	li	a5,0
   1016c:	00078a63          	beqz	a5,10180 <__do_global_dtors_aux+0x2c>
   10170:	00016537          	lui	a0,0x16
   10174:	3a850513          	addi	a0,a0,936 # 163a8 <__EH_FRAME_BEGIN__>
   10178:	00000097          	auipc	ra,0x0
   1017c:	000000e7          	jalr	zero # 0 <exit-0x10094>
   10180:	00100793          	li	a5,1
   10184:	82f18023          	sb	a5,-2016(gp) # 170bc <completed.1>
   10188:	00c12083          	lw	ra,12(sp)
   1018c:	00812403          	lw	s0,8(sp)
   10190:	01010113          	addi	sp,sp,16
   10194:	00008067          	ret

00010198 <frame_dummy>:
   10198:	00000793          	li	a5,0
   1019c:	00078c63          	beqz	a5,101b4 <frame_dummy+0x1c>
   101a0:	00016537          	lui	a0,0x16
   101a4:	82418593          	addi	a1,gp,-2012 # 170c0 <object.0>
   101a8:	3a850513          	addi	a0,a0,936 # 163a8 <__EH_FRAME_BEGIN__>
   101ac:	00000317          	auipc	t1,0x0
   101b0:	00000067          	jr	zero # 0 <exit-0x10094>
   101b4:	00008067          	ret

000101b8 <_Z9UARTFlushv>:
   101b8:	00007717          	auipc	a4,0x7
   101bc:	ee072703          	lw	a4,-288(a4) # 17098 <_GLOBAL_OFFSET_TABLE_+0x10>
   101c0:	00072783          	lw	a5,0(a4)
   101c4:	0007a783          	lw	a5,0(a5)
   101c8:	0017f793          	andi	a5,a5,1
   101cc:	00078c63          	beqz	a5,101e4 <_Z9UARTFlushv+0x2c>
   101d0:	00000013          	nop
   101d4:	00072783          	lw	a5,0(a4)
   101d8:	0007a783          	lw	a5,0(a5)
   101dc:	0017f793          	andi	a5,a5,1
   101e0:	fe0798e3          	bnez	a5,101d0 <_Z9UARTFlushv+0x18>
   101e4:	00008067          	ret

000101e8 <_Z9UARTWritePKc>:
   101e8:	00054783          	lbu	a5,0(a0)
   101ec:	02078263          	beqz	a5,10210 <_Z9UARTWritePKc+0x28>
   101f0:	00007717          	auipc	a4,0x7
   101f4:	ea472703          	lw	a4,-348(a4) # 17094 <_GLOBAL_OFFSET_TABLE_+0xc>
   101f8:	00072703          	lw	a4,0(a4)
   101fc:	00150513          	addi	a0,a0,1
   10200:	00f72023          	sw	a5,0(a4)
   10204:	00054783          	lbu	a5,0(a0)
   10208:	00150513          	addi	a0,a0,1
   1020c:	fe079ae3          	bnez	a5,10200 <_Z9UARTWritePKc+0x18>
   10210:	00008067          	ret

00010214 <_Z12UARTWriteHexm>:
   10214:	00005617          	auipc	a2,0x5
   10218:	06060613          	addi	a2,a2,96 # 15274 <_exit+0x40>
   1021c:	00862883          	lw	a7,8(a2)
   10220:	00062e03          	lw	t3,0(a2)
   10224:	00462303          	lw	t1,4(a2)
   10228:	00c62803          	lw	a6,12(a2)
   1022c:	01855713          	srli	a4,a0,0x18
   10230:	fe010113          	addi	sp,sp,-32
   10234:	00c55693          	srli	a3,a0,0xc
   10238:	00855593          	srli	a1,a0,0x8
   1023c:	00f77713          	andi	a4,a4,15
   10240:	01112a23          	sw	a7,20(sp)
   10244:	01c55793          	srli	a5,a0,0x1c
   10248:	00455893          	srli	a7,a0,0x4
   1024c:	00f6f693          	andi	a3,a3,15
   10250:	00f5f593          	andi	a1,a1,15
   10254:	02070713          	addi	a4,a4,32
   10258:	01012c23          	sw	a6,24(sp)
   1025c:	01c12623          	sw	t3,12(sp)
   10260:	00612823          	sw	t1,16(sp)
   10264:	00270733          	add	a4,a4,sp
   10268:	01455813          	srli	a6,a0,0x14
   1026c:	00f8f893          	andi	a7,a7,15
   10270:	02078793          	addi	a5,a5,32
   10274:	02068693          	addi	a3,a3,32
   10278:	02058593          	addi	a1,a1,32
   1027c:	fec74e83          	lbu	t4,-20(a4)
   10280:	002585b3          	add	a1,a1,sp
   10284:	00f87813          	andi	a6,a6,15
   10288:	02088713          	addi	a4,a7,32
   1028c:	002787b3          	add	a5,a5,sp
   10290:	002686b3          	add	a3,a3,sp
   10294:	002708b3          	add	a7,a4,sp
   10298:	fec5cf03          	lbu	t5,-20(a1)
   1029c:	02080713          	addi	a4,a6,32
   102a0:	01055593          	srli	a1,a0,0x10
   102a4:	fec7c783          	lbu	a5,-20(a5)
   102a8:	fec6c683          	lbu	a3,-20(a3)
   102ac:	00270833          	add	a6,a4,sp
   102b0:	00f57513          	andi	a0,a0,15
   102b4:	ffff0737          	lui	a4,0xffff0
   102b8:	00f5f593          	andi	a1,a1,15
   102bc:	fec8ce03          	lbu	t3,-20(a7)
   102c0:	fec84303          	lbu	t1,-20(a6)
   102c4:	0ff70713          	addi	a4,a4,255 # ffff00ff <__BSS_END__+0xfffd4a7f>
   102c8:	02050513          	addi	a0,a0,32
   102cc:	02058593          	addi	a1,a1,32
   102d0:	00e6f6b3          	and	a3,a3,a4
   102d4:	00250533          	add	a0,a0,sp
   102d8:	008e9e93          	slli	t4,t4,0x8
   102dc:	002585b3          	add	a1,a1,sp
   102e0:	008f1f13          	slli	t5,t5,0x8
   102e4:	00e7f733          	and	a4,a5,a4
   102e8:	ff010837          	lui	a6,0xff010
   102ec:	fff80813          	addi	a6,a6,-1 # ff00ffff <__BSS_END__+0xfeff497f>
   102f0:	fec54883          	lbu	a7,-20(a0)
   102f4:	01d76733          	or	a4,a4,t4
   102f8:	fec5c503          	lbu	a0,-20(a1)
   102fc:	01e6e6b3          	or	a3,a3,t5
   10300:	0106f6b3          	and	a3,a3,a6
   10304:	01077733          	and	a4,a4,a6
   10308:	010e1e13          	slli	t3,t3,0x10
   1030c:	01031313          	slli	t1,t1,0x10
   10310:	010005b7          	lui	a1,0x1000
   10314:	01064e83          	lbu	t4,16(a2)
   10318:	fff58593          	addi	a1,a1,-1 # ffffff <__BSS_END__+0xfe497f>
   1031c:	01c6e6b3          	or	a3,a3,t3
   10320:	00676733          	or	a4,a4,t1
   10324:	01889813          	slli	a6,a7,0x18
   10328:	00b6f6b3          	and	a3,a3,a1
   1032c:	01851613          	slli	a2,a0,0x18
   10330:	00b77733          	and	a4,a4,a1
   10334:	0106e6b3          	or	a3,a3,a6
   10338:	00c76733          	or	a4,a4,a2
   1033c:	01d10e23          	sb	t4,28(sp)
   10340:	00010423          	sb	zero,8(sp)
   10344:	00e12023          	sw	a4,0(sp)
   10348:	00d12223          	sw	a3,4(sp)
   1034c:	02078263          	beqz	a5,10370 <_Z12UARTWriteHexm+0x15c>
   10350:	00007717          	auipc	a4,0x7
   10354:	d4472703          	lw	a4,-700(a4) # 17094 <_GLOBAL_OFFSET_TABLE_+0xc>
   10358:	00072683          	lw	a3,0(a4)
   1035c:	00110713          	addi	a4,sp,1
   10360:	00170713          	addi	a4,a4,1
   10364:	00f6a023          	sw	a5,0(a3)
   10368:	fff74783          	lbu	a5,-1(a4)
   1036c:	fe079ae3          	bnez	a5,10360 <_Z12UARTWriteHexm+0x14c>
   10370:	02010113          	addi	sp,sp,32
   10374:	00008067          	ret

00010378 <_fstat>:
   10378:	ff010113          	addi	sp,sp,-16
   1037c:	00112623          	sw	ra,12(sp)
   10380:	344020ef          	jal	ra,126c4 <__errno>
   10384:	00c12083          	lw	ra,12(sp)
   10388:	05800793          	li	a5,88
   1038c:	00f52023          	sw	a5,0(a0)
   10390:	fff00513          	li	a0,-1
   10394:	01010113          	addi	sp,sp,16
   10398:	00008067          	ret

0001039c <_isatty>:
   1039c:	fff50513          	addi	a0,a0,-1
   103a0:	00153513          	seqz	a0,a0
   103a4:	00008067          	ret

000103a8 <_close>:
   103a8:	22c00793          	li	a5,556
   103ac:	02f50533          	mul	a0,a0,a5
   103b0:	00007797          	auipc	a5,0x7
   103b4:	cdc7a783          	lw	a5,-804(a5) # 1708c <_GLOBAL_OFFSET_TABLE_+0x4>
   103b8:	ff010113          	addi	sp,sp,-16
   103bc:	00112623          	sw	ra,12(sp)
   103c0:	00a78533          	add	a0,a5,a0
   103c4:	159010ef          	jal	ra,11d1c <f_close>
   103c8:	00c12083          	lw	ra,12(sp)
   103cc:	00000513          	li	a0,0
   103d0:	01010113          	addi	sp,sp,16
   103d4:	00008067          	ret

000103d8 <_lseek>:
   103d8:	22c00793          	li	a5,556
   103dc:	02f507b3          	mul	a5,a0,a5
   103e0:	ff010113          	addi	sp,sp,-16
   103e4:	00007717          	auipc	a4,0x7
   103e8:	ca872703          	lw	a4,-856(a4) # 1708c <_GLOBAL_OFFSET_TABLE_+0x4>
   103ec:	00112623          	sw	ra,12(sp)
   103f0:	00812423          	sw	s0,8(sp)
   103f4:	00200693          	li	a3,2
   103f8:	00f707b3          	add	a5,a4,a5
   103fc:	0147a803          	lw	a6,20(a5)
   10400:	04d60063          	beq	a2,a3,10440 <_lseek+0x68>
   10404:	00100793          	li	a5,1
   10408:	00058413          	mv	s0,a1
   1040c:	02f60463          	beq	a2,a5,10434 <_lseek+0x5c>
   10410:	22c00793          	li	a5,556
   10414:	02f50533          	mul	a0,a0,a5
   10418:	00a70533          	add	a0,a4,a0
   1041c:	429010ef          	jal	ra,12044 <f_lseek>
   10420:	00c12083          	lw	ra,12(sp)
   10424:	00040513          	mv	a0,s0
   10428:	00812403          	lw	s0,8(sp)
   1042c:	01010113          	addi	sp,sp,16
   10430:	00008067          	ret
   10434:	010585b3          	add	a1,a1,a6
   10438:	00058413          	mv	s0,a1
   1043c:	fd5ff06f          	j	10410 <_lseek+0x38>
   10440:	00c7a583          	lw	a1,12(a5)
   10444:	00058413          	mv	s0,a1
   10448:	fc9ff06f          	j	10410 <_lseek+0x38>

0001044c <_read>:
   1044c:	22c00793          	li	a5,556
   10450:	02f50533          	mul	a0,a0,a5
   10454:	fe010113          	addi	sp,sp,-32
   10458:	00007797          	auipc	a5,0x7
   1045c:	c347a783          	lw	a5,-972(a5) # 1708c <_GLOBAL_OFFSET_TABLE_+0x4>
   10460:	00c10693          	addi	a3,sp,12
   10464:	00112e23          	sw	ra,28(sp)
   10468:	00a78533          	add	a0,a5,a0
   1046c:	5c0010ef          	jal	ra,11a2c <f_read>
   10470:	00051a63          	bnez	a0,10484 <_read+0x38>
   10474:	01c12083          	lw	ra,28(sp)
   10478:	00c12503          	lw	a0,12(sp)
   1047c:	02010113          	addi	sp,sp,32
   10480:	00008067          	ret
   10484:	01c12083          	lw	ra,28(sp)
   10488:	00000513          	li	a0,0
   1048c:	02010113          	addi	sp,sp,32
   10490:	00008067          	ret

00010494 <_write>:
   10494:	00100793          	li	a5,1
   10498:	00f50663          	beq	a0,a5,104a4 <_write+0x10>
   1049c:	00000513          	li	a0,0
   104a0:	00008067          	ret
   104a4:	fe010113          	addi	sp,sp,-32
   104a8:	00812c23          	sw	s0,24(sp)
   104ac:	01212823          	sw	s2,16(sp)
   104b0:	01312623          	sw	s3,12(sp)
   104b4:	00112e23          	sw	ra,28(sp)
   104b8:	00912a23          	sw	s1,20(sp)
   104bc:	01412423          	sw	s4,8(sp)
   104c0:	00c589b3          	add	s3,a1,a2
   104c4:	00058413          	mv	s0,a1
   104c8:	00060913          	mv	s2,a2
   104cc:	05358063          	beq	a1,s3,1050c <_write+0x78>
   104d0:	00000493          	li	s1,0
   104d4:	00007a17          	auipc	s4,0x7
   104d8:	bc0a2a03          	lw	s4,-1088(s4) # 17094 <_GLOBAL_OFFSET_TABLE_+0xc>
   104dc:	00c0006f          	j	104e8 <_write+0x54>
   104e0:	00148493          	addi	s1,s1,1
   104e4:	02898463          	beq	s3,s0,1050c <_write+0x78>
   104e8:	00044683          	lbu	a3,0(s0)
   104ec:	000a2703          	lw	a4,0(s4)
   104f0:	07f4f793          	andi	a5,s1,127
   104f4:	00140413          	addi	s0,s0,1
   104f8:	00d72023          	sw	a3,0(a4)
   104fc:	fe0792e3          	bnez	a5,104e0 <_write+0x4c>
   10500:	cb9ff0ef          	jal	ra,101b8 <_Z9UARTFlushv>
   10504:	00148493          	addi	s1,s1,1
   10508:	fe8990e3          	bne	s3,s0,104e8 <_write+0x54>
   1050c:	cadff0ef          	jal	ra,101b8 <_Z9UARTFlushv>
   10510:	01c12083          	lw	ra,28(sp)
   10514:	01812403          	lw	s0,24(sp)
   10518:	01412483          	lw	s1,20(sp)
   1051c:	00c12983          	lw	s3,12(sp)
   10520:	00812a03          	lw	s4,8(sp)
   10524:	00090513          	mv	a0,s2
   10528:	01012903          	lw	s2,16(sp)
   1052c:	02010113          	addi	sp,sp,32
   10530:	00008067          	ret

00010534 <_sbrk>:
   10534:	00006697          	auipc	a3,0x6
   10538:	31468693          	addi	a3,a3,788 # 16848 <_ZL10heap_start>
   1053c:	0006a783          	lw	a5,0(a3)
   10540:	1ffe0737          	lui	a4,0x1ffe0
   10544:	02e78063          	beq	a5,a4,10564 <_sbrk+0x30>
   10548:	00a78633          	add	a2,a5,a0
   1054c:	00e66863          	bltu	a2,a4,1055c <_sbrk+0x28>
   10550:	00e6a023          	sw	a4,0(a3)
   10554:	00078513          	mv	a0,a5
   10558:	00008067          	ret
   1055c:	00a60733          	add	a4,a2,a0
   10560:	ff1ff06f          	j	10550 <_sbrk+0x1c>
   10564:	00000793          	li	a5,0
   10568:	fedff06f          	j	10554 <_sbrk+0x20>

0001056c <_Z5SDCmd13SDCardCommandm>:
   1056c:	03f57613          	andi	a2,a0,63
   10570:	04066613          	ori	a2,a2,64
   10574:	00261793          	slli	a5,a2,0x2
   10578:	01879793          	slli	a5,a5,0x18
   1057c:	4187d793          	srai	a5,a5,0x18
   10580:	fed7c793          	xori	a5,a5,-19
   10584:	41f7d793          	srai	a5,a5,0x1f
   10588:	ff77f793          	andi	a5,a5,-9
   1058c:	01b78793          	addi	a5,a5,27
   10590:	00179793          	slli	a5,a5,0x1
   10594:	0ff7f793          	zext.b	a5,a5
   10598:	00361713          	slli	a4,a2,0x3
   1059c:	00e7c733          	xor	a4,a5,a4
   105a0:	01871893          	slli	a7,a4,0x18
   105a4:	0105d513          	srli	a0,a1,0x10
   105a8:	0085d693          	srli	a3,a1,0x8
   105ac:	4188d893          	srai	a7,a7,0x18
   105b0:	0185d813          	srli	a6,a1,0x18
   105b4:	0ff57513          	zext.b	a0,a0
   105b8:	0ff6f693          	zext.b	a3,a3
   105bc:	0ff5f713          	zext.b	a4,a1
   105c0:	0008d463          	bgez	a7,105c8 <_Z5SDCmd13SDCardCommandm+0x5c>
   105c4:	0097c793          	xori	a5,a5,9
   105c8:	00179793          	slli	a5,a5,0x1
   105cc:	0ff7f793          	zext.b	a5,a5
   105d0:	00461593          	slli	a1,a2,0x4
   105d4:	00b7c5b3          	xor	a1,a5,a1
   105d8:	01859593          	slli	a1,a1,0x18
   105dc:	4185d593          	srai	a1,a1,0x18
   105e0:	0005d463          	bgez	a1,105e8 <_Z5SDCmd13SDCardCommandm+0x7c>
   105e4:	0097c793          	xori	a5,a5,9
   105e8:	00179793          	slli	a5,a5,0x1
   105ec:	0ff7f793          	zext.b	a5,a5
   105f0:	00561593          	slli	a1,a2,0x5
   105f4:	00b7c5b3          	xor	a1,a5,a1
   105f8:	01859593          	slli	a1,a1,0x18
   105fc:	4185d593          	srai	a1,a1,0x18
   10600:	0005d463          	bgez	a1,10608 <_Z5SDCmd13SDCardCommandm+0x9c>
   10604:	0097c793          	xori	a5,a5,9
   10608:	00179793          	slli	a5,a5,0x1
   1060c:	0ff7f793          	zext.b	a5,a5
   10610:	00661593          	slli	a1,a2,0x6
   10614:	00b7c5b3          	xor	a1,a5,a1
   10618:	01859593          	slli	a1,a1,0x18
   1061c:	4185d593          	srai	a1,a1,0x18
   10620:	0005d463          	bgez	a1,10628 <_Z5SDCmd13SDCardCommandm+0xbc>
   10624:	0097c793          	xori	a5,a5,9
   10628:	00179793          	slli	a5,a5,0x1
   1062c:	0ff7f793          	zext.b	a5,a5
   10630:	00761593          	slli	a1,a2,0x7
   10634:	00b7c5b3          	xor	a1,a5,a1
   10638:	01859593          	slli	a1,a1,0x18
   1063c:	4185d593          	srai	a1,a1,0x18
   10640:	0005d463          	bgez	a1,10648 <_Z5SDCmd13SDCardCommandm+0xdc>
   10644:	0097c793          	xori	a5,a5,9
   10648:	00179793          	slli	a5,a5,0x1
   1064c:	0ff7f793          	zext.b	a5,a5
   10650:	00f845b3          	xor	a1,a6,a5
   10654:	01859593          	slli	a1,a1,0x18
   10658:	4185d593          	srai	a1,a1,0x18
   1065c:	0005d463          	bgez	a1,10664 <_Z5SDCmd13SDCardCommandm+0xf8>
   10660:	0097c793          	xori	a5,a5,9
   10664:	00179793          	slli	a5,a5,0x1
   10668:	0ff7f793          	zext.b	a5,a5
   1066c:	00181593          	slli	a1,a6,0x1
   10670:	00b7c5b3          	xor	a1,a5,a1
   10674:	01859593          	slli	a1,a1,0x18
   10678:	4185d593          	srai	a1,a1,0x18
   1067c:	0005d463          	bgez	a1,10684 <_Z5SDCmd13SDCardCommandm+0x118>
   10680:	0097c793          	xori	a5,a5,9
   10684:	00179793          	slli	a5,a5,0x1
   10688:	0ff7f793          	zext.b	a5,a5
   1068c:	00281593          	slli	a1,a6,0x2
   10690:	00b7c5b3          	xor	a1,a5,a1
   10694:	01859593          	slli	a1,a1,0x18
   10698:	4185d593          	srai	a1,a1,0x18
   1069c:	0005d463          	bgez	a1,106a4 <_Z5SDCmd13SDCardCommandm+0x138>
   106a0:	0097c793          	xori	a5,a5,9
   106a4:	00179793          	slli	a5,a5,0x1
   106a8:	0ff7f793          	zext.b	a5,a5
   106ac:	00381593          	slli	a1,a6,0x3
   106b0:	00b7c5b3          	xor	a1,a5,a1
   106b4:	01859593          	slli	a1,a1,0x18
   106b8:	4185d593          	srai	a1,a1,0x18
   106bc:	0005d463          	bgez	a1,106c4 <_Z5SDCmd13SDCardCommandm+0x158>
   106c0:	0097c793          	xori	a5,a5,9
   106c4:	00179793          	slli	a5,a5,0x1
   106c8:	0ff7f793          	zext.b	a5,a5
   106cc:	00481593          	slli	a1,a6,0x4
   106d0:	00b7c5b3          	xor	a1,a5,a1
   106d4:	01859593          	slli	a1,a1,0x18
   106d8:	4185d593          	srai	a1,a1,0x18
   106dc:	0005d463          	bgez	a1,106e4 <_Z5SDCmd13SDCardCommandm+0x178>
   106e0:	0097c793          	xori	a5,a5,9
   106e4:	00179793          	slli	a5,a5,0x1
   106e8:	0ff7f793          	zext.b	a5,a5
   106ec:	00581593          	slli	a1,a6,0x5
   106f0:	00b7c5b3          	xor	a1,a5,a1
   106f4:	01859593          	slli	a1,a1,0x18
   106f8:	4185d593          	srai	a1,a1,0x18
   106fc:	0005d463          	bgez	a1,10704 <_Z5SDCmd13SDCardCommandm+0x198>
   10700:	0097c793          	xori	a5,a5,9
   10704:	00179793          	slli	a5,a5,0x1
   10708:	0ff7f793          	zext.b	a5,a5
   1070c:	00681593          	slli	a1,a6,0x6
   10710:	00b7c5b3          	xor	a1,a5,a1
   10714:	01859593          	slli	a1,a1,0x18
   10718:	4185d593          	srai	a1,a1,0x18
   1071c:	0005d463          	bgez	a1,10724 <_Z5SDCmd13SDCardCommandm+0x1b8>
   10720:	0097c793          	xori	a5,a5,9
   10724:	00179793          	slli	a5,a5,0x1
   10728:	0ff7f793          	zext.b	a5,a5
   1072c:	00781593          	slli	a1,a6,0x7
   10730:	00b7c5b3          	xor	a1,a5,a1
   10734:	01859593          	slli	a1,a1,0x18
   10738:	4185d593          	srai	a1,a1,0x18
   1073c:	0005d463          	bgez	a1,10744 <_Z5SDCmd13SDCardCommandm+0x1d8>
   10740:	0097c793          	xori	a5,a5,9
   10744:	00179793          	slli	a5,a5,0x1
   10748:	0ff7f793          	zext.b	a5,a5
   1074c:	00f545b3          	xor	a1,a0,a5
   10750:	01859593          	slli	a1,a1,0x18
   10754:	4185d593          	srai	a1,a1,0x18
   10758:	0005d463          	bgez	a1,10760 <_Z5SDCmd13SDCardCommandm+0x1f4>
   1075c:	0097c793          	xori	a5,a5,9
   10760:	00179793          	slli	a5,a5,0x1
   10764:	0ff7f793          	zext.b	a5,a5
   10768:	00151593          	slli	a1,a0,0x1
   1076c:	00b7c5b3          	xor	a1,a5,a1
   10770:	01859593          	slli	a1,a1,0x18
   10774:	4185d593          	srai	a1,a1,0x18
   10778:	0005d463          	bgez	a1,10780 <_Z5SDCmd13SDCardCommandm+0x214>
   1077c:	0097c793          	xori	a5,a5,9
   10780:	00179793          	slli	a5,a5,0x1
   10784:	0ff7f793          	zext.b	a5,a5
   10788:	00251593          	slli	a1,a0,0x2
   1078c:	00b7c5b3          	xor	a1,a5,a1
   10790:	01859593          	slli	a1,a1,0x18
   10794:	4185d593          	srai	a1,a1,0x18
   10798:	0005d463          	bgez	a1,107a0 <_Z5SDCmd13SDCardCommandm+0x234>
   1079c:	0097c793          	xori	a5,a5,9
   107a0:	00179793          	slli	a5,a5,0x1
   107a4:	0ff7f793          	zext.b	a5,a5
   107a8:	00351593          	slli	a1,a0,0x3
   107ac:	00b7c5b3          	xor	a1,a5,a1
   107b0:	01859593          	slli	a1,a1,0x18
   107b4:	4185d593          	srai	a1,a1,0x18
   107b8:	0005d463          	bgez	a1,107c0 <_Z5SDCmd13SDCardCommandm+0x254>
   107bc:	0097c793          	xori	a5,a5,9
   107c0:	00179793          	slli	a5,a5,0x1
   107c4:	0ff7f793          	zext.b	a5,a5
   107c8:	00451593          	slli	a1,a0,0x4
   107cc:	00b7c5b3          	xor	a1,a5,a1
   107d0:	01859593          	slli	a1,a1,0x18
   107d4:	4185d593          	srai	a1,a1,0x18
   107d8:	0005d463          	bgez	a1,107e0 <_Z5SDCmd13SDCardCommandm+0x274>
   107dc:	0097c793          	xori	a5,a5,9
   107e0:	00179793          	slli	a5,a5,0x1
   107e4:	0ff7f793          	zext.b	a5,a5
   107e8:	00551593          	slli	a1,a0,0x5
   107ec:	00b7c5b3          	xor	a1,a5,a1
   107f0:	01859593          	slli	a1,a1,0x18
   107f4:	4185d593          	srai	a1,a1,0x18
   107f8:	0005d463          	bgez	a1,10800 <_Z5SDCmd13SDCardCommandm+0x294>
   107fc:	0097c793          	xori	a5,a5,9
   10800:	00179793          	slli	a5,a5,0x1
   10804:	0ff7f793          	zext.b	a5,a5
   10808:	00651593          	slli	a1,a0,0x6
   1080c:	00b7c5b3          	xor	a1,a5,a1
   10810:	01859593          	slli	a1,a1,0x18
   10814:	4185d593          	srai	a1,a1,0x18
   10818:	0005d463          	bgez	a1,10820 <_Z5SDCmd13SDCardCommandm+0x2b4>
   1081c:	0097c793          	xori	a5,a5,9
   10820:	00179793          	slli	a5,a5,0x1
   10824:	0ff7f793          	zext.b	a5,a5
   10828:	00751593          	slli	a1,a0,0x7
   1082c:	00b7c5b3          	xor	a1,a5,a1
   10830:	01859593          	slli	a1,a1,0x18
   10834:	4185d593          	srai	a1,a1,0x18
   10838:	0005d463          	bgez	a1,10840 <_Z5SDCmd13SDCardCommandm+0x2d4>
   1083c:	0097c793          	xori	a5,a5,9
   10840:	00179793          	slli	a5,a5,0x1
   10844:	0ff7f793          	zext.b	a5,a5
   10848:	00f6c5b3          	xor	a1,a3,a5
   1084c:	01859593          	slli	a1,a1,0x18
   10850:	4185d593          	srai	a1,a1,0x18
   10854:	0005d463          	bgez	a1,1085c <_Z5SDCmd13SDCardCommandm+0x2f0>
   10858:	0097c793          	xori	a5,a5,9
   1085c:	00179793          	slli	a5,a5,0x1
   10860:	0ff7f793          	zext.b	a5,a5
   10864:	00169593          	slli	a1,a3,0x1
   10868:	00b7c5b3          	xor	a1,a5,a1
   1086c:	01859593          	slli	a1,a1,0x18
   10870:	4185d593          	srai	a1,a1,0x18
   10874:	0005d463          	bgez	a1,1087c <_Z5SDCmd13SDCardCommandm+0x310>
   10878:	0097c793          	xori	a5,a5,9
   1087c:	00179793          	slli	a5,a5,0x1
   10880:	0ff7f793          	zext.b	a5,a5
   10884:	00269593          	slli	a1,a3,0x2
   10888:	00b7c5b3          	xor	a1,a5,a1
   1088c:	01859593          	slli	a1,a1,0x18
   10890:	4185d593          	srai	a1,a1,0x18
   10894:	0005d463          	bgez	a1,1089c <_Z5SDCmd13SDCardCommandm+0x330>
   10898:	0097c793          	xori	a5,a5,9
   1089c:	00179793          	slli	a5,a5,0x1
   108a0:	0ff7f793          	zext.b	a5,a5
   108a4:	00369593          	slli	a1,a3,0x3
   108a8:	00b7c5b3          	xor	a1,a5,a1
   108ac:	01859593          	slli	a1,a1,0x18
   108b0:	4185d593          	srai	a1,a1,0x18
   108b4:	0005d463          	bgez	a1,108bc <_Z5SDCmd13SDCardCommandm+0x350>
   108b8:	0097c793          	xori	a5,a5,9
   108bc:	00179793          	slli	a5,a5,0x1
   108c0:	0ff7f793          	zext.b	a5,a5
   108c4:	00469593          	slli	a1,a3,0x4
   108c8:	00b7c5b3          	xor	a1,a5,a1
   108cc:	01859593          	slli	a1,a1,0x18
   108d0:	4185d593          	srai	a1,a1,0x18
   108d4:	0005d463          	bgez	a1,108dc <_Z5SDCmd13SDCardCommandm+0x370>
   108d8:	0097c793          	xori	a5,a5,9
   108dc:	00179793          	slli	a5,a5,0x1
   108e0:	0ff7f793          	zext.b	a5,a5
   108e4:	00569593          	slli	a1,a3,0x5
   108e8:	00b7c5b3          	xor	a1,a5,a1
   108ec:	01859593          	slli	a1,a1,0x18
   108f0:	4185d593          	srai	a1,a1,0x18
   108f4:	0005d463          	bgez	a1,108fc <_Z5SDCmd13SDCardCommandm+0x390>
   108f8:	0097c793          	xori	a5,a5,9
   108fc:	00179793          	slli	a5,a5,0x1
   10900:	0ff7f793          	zext.b	a5,a5
   10904:	00669593          	slli	a1,a3,0x6
   10908:	00b7c5b3          	xor	a1,a5,a1
   1090c:	01859593          	slli	a1,a1,0x18
   10910:	4185d593          	srai	a1,a1,0x18
   10914:	0005d463          	bgez	a1,1091c <_Z5SDCmd13SDCardCommandm+0x3b0>
   10918:	0097c793          	xori	a5,a5,9
   1091c:	00179793          	slli	a5,a5,0x1
   10920:	0ff7f793          	zext.b	a5,a5
   10924:	00769593          	slli	a1,a3,0x7
   10928:	00b7c5b3          	xor	a1,a5,a1
   1092c:	01859593          	slli	a1,a1,0x18
   10930:	4185d593          	srai	a1,a1,0x18
   10934:	0005d463          	bgez	a1,1093c <_Z5SDCmd13SDCardCommandm+0x3d0>
   10938:	0097c793          	xori	a5,a5,9
   1093c:	00179793          	slli	a5,a5,0x1
   10940:	0ff7f793          	zext.b	a5,a5
   10944:	00f745b3          	xor	a1,a4,a5
   10948:	01859593          	slli	a1,a1,0x18
   1094c:	4185d593          	srai	a1,a1,0x18
   10950:	0005d463          	bgez	a1,10958 <_Z5SDCmd13SDCardCommandm+0x3ec>
   10954:	0097c793          	xori	a5,a5,9
   10958:	00179793          	slli	a5,a5,0x1
   1095c:	0ff7f793          	zext.b	a5,a5
   10960:	00171593          	slli	a1,a4,0x1
   10964:	00b7c5b3          	xor	a1,a5,a1
   10968:	01859593          	slli	a1,a1,0x18
   1096c:	4185d593          	srai	a1,a1,0x18
   10970:	0005d463          	bgez	a1,10978 <_Z5SDCmd13SDCardCommandm+0x40c>
   10974:	0097c793          	xori	a5,a5,9
   10978:	00179793          	slli	a5,a5,0x1
   1097c:	0ff7f793          	zext.b	a5,a5
   10980:	00271593          	slli	a1,a4,0x2
   10984:	00b7c5b3          	xor	a1,a5,a1
   10988:	01859593          	slli	a1,a1,0x18
   1098c:	4185d593          	srai	a1,a1,0x18
   10990:	0005d463          	bgez	a1,10998 <_Z5SDCmd13SDCardCommandm+0x42c>
   10994:	0097c793          	xori	a5,a5,9
   10998:	00179793          	slli	a5,a5,0x1
   1099c:	0ff7f793          	zext.b	a5,a5
   109a0:	00371593          	slli	a1,a4,0x3
   109a4:	00b7c5b3          	xor	a1,a5,a1
   109a8:	01859593          	slli	a1,a1,0x18
   109ac:	4185d593          	srai	a1,a1,0x18
   109b0:	0005d463          	bgez	a1,109b8 <_Z5SDCmd13SDCardCommandm+0x44c>
   109b4:	0097c793          	xori	a5,a5,9
   109b8:	00179793          	slli	a5,a5,0x1
   109bc:	0ff7f793          	zext.b	a5,a5
   109c0:	00471593          	slli	a1,a4,0x4
   109c4:	00b7c5b3          	xor	a1,a5,a1
   109c8:	01859593          	slli	a1,a1,0x18
   109cc:	4185d593          	srai	a1,a1,0x18
   109d0:	0005d463          	bgez	a1,109d8 <_Z5SDCmd13SDCardCommandm+0x46c>
   109d4:	0097c793          	xori	a5,a5,9
   109d8:	00179793          	slli	a5,a5,0x1
   109dc:	0ff7f793          	zext.b	a5,a5
   109e0:	00571593          	slli	a1,a4,0x5
   109e4:	00b7c5b3          	xor	a1,a5,a1
   109e8:	01859593          	slli	a1,a1,0x18
   109ec:	4185d593          	srai	a1,a1,0x18
   109f0:	0005d463          	bgez	a1,109f8 <_Z5SDCmd13SDCardCommandm+0x48c>
   109f4:	0097c793          	xori	a5,a5,9
   109f8:	00179793          	slli	a5,a5,0x1
   109fc:	0ff7f793          	zext.b	a5,a5
   10a00:	00671593          	slli	a1,a4,0x6
   10a04:	00b7c5b3          	xor	a1,a5,a1
   10a08:	01859593          	slli	a1,a1,0x18
   10a0c:	4185d593          	srai	a1,a1,0x18
   10a10:	0005d463          	bgez	a1,10a18 <_Z5SDCmd13SDCardCommandm+0x4ac>
   10a14:	0097c793          	xori	a5,a5,9
   10a18:	00179793          	slli	a5,a5,0x1
   10a1c:	0ff7f793          	zext.b	a5,a5
   10a20:	00771593          	slli	a1,a4,0x7
   10a24:	00b7c5b3          	xor	a1,a5,a1
   10a28:	01859593          	slli	a1,a1,0x18
   10a2c:	4185d593          	srai	a1,a1,0x18
   10a30:	0005d463          	bgez	a1,10a38 <_Z5SDCmd13SDCardCommandm+0x4cc>
   10a34:	0097c793          	xori	a5,a5,9
   10a38:	00006597          	auipc	a1,0x6
   10a3c:	6585a583          	lw	a1,1624(a1) # 17090 <_GLOBAL_OFFSET_TABLE_+0x8>
   10a40:	0005a303          	lw	t1,0(a1)
   10a44:	fff00893          	li	a7,-1
   10a48:	00179793          	slli	a5,a5,0x1
   10a4c:	01130023          	sb	a7,0(t1) # 101ac <frame_dummy+0x14>
   10a50:	0005a303          	lw	t1,0(a1)
   10a54:	0017e793          	ori	a5,a5,1
   10a58:	0ff7f793          	zext.b	a5,a5
   10a5c:	00034e03          	lbu	t3,0(t1)
   10a60:	00c30023          	sb	a2,0(t1)
   10a64:	0005a603          	lw	a2,0(a1)
   10a68:	00064303          	lbu	t1,0(a2)
   10a6c:	01060023          	sb	a6,0(a2)
   10a70:	0005a603          	lw	a2,0(a1)
   10a74:	00064803          	lbu	a6,0(a2)
   10a78:	00a60023          	sb	a0,0(a2)
   10a7c:	0005a603          	lw	a2,0(a1)
   10a80:	00064503          	lbu	a0,0(a2)
   10a84:	00d60023          	sb	a3,0(a2)
   10a88:	0005a683          	lw	a3,0(a1)
   10a8c:	0006c603          	lbu	a2,0(a3)
   10a90:	00e68023          	sb	a4,0(a3)
   10a94:	0005a703          	lw	a4,0(a1)
   10a98:	00074683          	lbu	a3,0(a4) # 1ffe0000 <__BSS_END__+0x1ffc4980>
   10a9c:	00f70023          	sb	a5,0(a4)
   10aa0:	0005a783          	lw	a5,0(a1)
   10aa4:	0007c503          	lbu	a0,0(a5)
   10aa8:	01178023          	sb	a7,0(a5)
   10aac:	0005a783          	lw	a5,0(a1)
   10ab0:	0007c783          	lbu	a5,0(a5)
   10ab4:	00008067          	ret

00010ab8 <_Z17SDReadSingleBlockmPhS_>:
   10ab8:	fe010113          	addi	sp,sp,-32
   10abc:	00812c23          	sw	s0,24(sp)
   10ac0:	00006417          	auipc	s0,0x6
   10ac4:	5d042403          	lw	s0,1488(s0) # 17090 <_GLOBAL_OFFSET_TABLE_+0x8>
   10ac8:	00042703          	lw	a4,0(s0)
   10acc:	00912a23          	sw	s1,20(sp)
   10ad0:	01212823          	sw	s2,16(sp)
   10ad4:	01312623          	sw	s3,12(sp)
   10ad8:	00112e23          	sw	ra,28(sp)
   10adc:	01412423          	sw	s4,8(sp)
   10ae0:	fff00793          	li	a5,-1
   10ae4:	00f70023          	sb	a5,0(a4)
   10ae8:	00042703          	lw	a4,0(s0)
   10aec:	00050493          	mv	s1,a0
   10af0:	00058993          	mv	s3,a1
   10af4:	00074683          	lbu	a3,0(a4)
   10af8:	00f70023          	sb	a5,0(a4)
   10afc:	00042703          	lw	a4,0(s0)
   10b00:	00050593          	mv	a1,a0
   10b04:	01100513          	li	a0,17
   10b08:	00074683          	lbu	a3,0(a4)
   10b0c:	00f70023          	sb	a5,0(a4)
   10b10:	00042703          	lw	a4,0(s0)
   10b14:	00060913          	mv	s2,a2
   10b18:	00074683          	lbu	a3,0(a4)
   10b1c:	00f70023          	sb	a5,0(a4)
   10b20:	00042703          	lw	a4,0(s0)
   10b24:	00074683          	lbu	a3,0(a4)
   10b28:	00f70023          	sb	a5,0(a4)
   10b2c:	00042703          	lw	a4,0(s0)
   10b30:	00074683          	lbu	a3,0(a4)
   10b34:	00f70023          	sb	a5,0(a4)
   10b38:	00042703          	lw	a4,0(s0)
   10b3c:	00074683          	lbu	a3,0(a4)
   10b40:	00f70023          	sb	a5,0(a4)
   10b44:	00042703          	lw	a4,0(s0)
   10b48:	00074683          	lbu	a3,0(a4)
   10b4c:	00f70023          	sb	a5,0(a4)
   10b50:	00042783          	lw	a5,0(s0)
   10b54:	0007c783          	lbu	a5,0(a5)
   10b58:	a15ff0ef          	jal	ra,1056c <_Z5SDCmd13SDCardCommandm>
   10b5c:	00010737          	lui	a4,0x10
   10b60:	00042783          	lw	a5,0(s0)
   10b64:	00170713          	addi	a4,a4,1 # 10001 <exit-0x93>
   10b68:	fff00593          	li	a1,-1
   10b6c:	0ff00613          	li	a2,255
   10b70:	0080006f          	j	10b78 <_Z17SDReadSingleBlockmPhS_+0xc0>
   10b74:	04070a63          	beqz	a4,10bc8 <_Z17SDReadSingleBlockmPhS_+0x110>
   10b78:	00b78023          	sb	a1,0(a5)
   10b7c:	00042783          	lw	a5,0(s0)
   10b80:	fff70713          	addi	a4,a4,-1
   10b84:	0007c683          	lbu	a3,0(a5)
   10b88:	0ff6fa13          	zext.b	s4,a3
   10b8c:	fec684e3          	beq	a3,a2,10b74 <_Z17SDReadSingleBlockmPhS_+0xbc>
   10b90:	00010737          	lui	a4,0x10
   10b94:	00170713          	addi	a4,a4,1 # 10001 <exit-0x93>
   10b98:	fff00613          	li	a2,-1
   10b9c:	0ff00593          	li	a1,255
   10ba0:	0080006f          	j	10ba8 <_Z17SDReadSingleBlockmPhS_+0xf0>
   10ba4:	02070263          	beqz	a4,10bc8 <_Z17SDReadSingleBlockmPhS_+0x110>
   10ba8:	00c78023          	sb	a2,0(a5)
   10bac:	00042783          	lw	a5,0(s0)
   10bb0:	fff70713          	addi	a4,a4,-1
   10bb4:	0007c683          	lbu	a3,0(a5)
   10bb8:	0ff6fa13          	zext.b	s4,a3
   10bbc:	feb684e3          	beq	a3,a1,10ba4 <_Z17SDReadSingleBlockmPhS_+0xec>
   10bc0:	0fe00713          	li	a4,254
   10bc4:	0aea0a63          	beq	s4,a4,10c78 <_Z17SDReadSingleBlockmPhS_+0x1c0>
   10bc8:	fff00713          	li	a4,-1
   10bcc:	00e78023          	sb	a4,0(a5)
   10bd0:	00042783          	lw	a5,0(s0)
   10bd4:	00f00693          	li	a3,15
   10bd8:	0007c603          	lbu	a2,0(a5)
   10bdc:	00e78023          	sb	a4,0(a5)
   10be0:	00042783          	lw	a5,0(s0)
   10be4:	0007c603          	lbu	a2,0(a5)
   10be8:	00e78023          	sb	a4,0(a5)
   10bec:	00042783          	lw	a5,0(s0)
   10bf0:	0007c603          	lbu	a2,0(a5)
   10bf4:	00e78023          	sb	a4,0(a5)
   10bf8:	00042783          	lw	a5,0(s0)
   10bfc:	0007c603          	lbu	a2,0(a5)
   10c00:	00e78023          	sb	a4,0(a5)
   10c04:	00042783          	lw	a5,0(s0)
   10c08:	0007c603          	lbu	a2,0(a5)
   10c0c:	00e78023          	sb	a4,0(a5)
   10c10:	00042783          	lw	a5,0(s0)
   10c14:	0007c603          	lbu	a2,0(a5)
   10c18:	00e78023          	sb	a4,0(a5)
   10c1c:	00042783          	lw	a5,0(s0)
   10c20:	0007c603          	lbu	a2,0(a5)
   10c24:	00e78023          	sb	a4,0(a5)
   10c28:	00042783          	lw	a5,0(s0)
   10c2c:	0007c783          	lbu	a5,0(a5)
   10c30:	0346e263          	bltu	a3,s4,10c54 <_Z17SDReadSingleBlockmPhS_+0x19c>
   10c34:	001a7793          	andi	a5,s4,1
   10c38:	0c079663          	bnez	a5,10d04 <_Z17SDReadSingleBlockmPhS_+0x24c>
   10c3c:	002a7793          	andi	a5,s4,2
   10c40:	0c079c63          	bnez	a5,10d18 <_Z17SDReadSingleBlockmPhS_+0x260>
   10c44:	004a7793          	andi	a5,s4,4
   10c48:	0e079263          	bnez	a5,10d2c <_Z17SDReadSingleBlockmPhS_+0x274>
   10c4c:	008a7793          	andi	a5,s4,8
   10c50:	08079863          	bnez	a5,10ce0 <_Z17SDReadSingleBlockmPhS_+0x228>
   10c54:	01c12083          	lw	ra,28(sp)
   10c58:	01812403          	lw	s0,24(sp)
   10c5c:	01412483          	lw	s1,20(sp)
   10c60:	01012903          	lw	s2,16(sp)
   10c64:	00c12983          	lw	s3,12(sp)
   10c68:	000a0513          	mv	a0,s4
   10c6c:	00812a03          	lw	s4,8(sp)
   10c70:	02010113          	addi	sp,sp,32
   10c74:	00008067          	ret
   10c78:	00c78023          	sb	a2,0(a5)
   10c7c:	00042703          	lw	a4,0(s0)
   10c80:	00198793          	addi	a5,s3,1
   10c84:	20098613          	addi	a2,s3,512
   10c88:	00074703          	lbu	a4,0(a4)
   10c8c:	fff00693          	li	a3,-1
   10c90:	00e98023          	sb	a4,0(s3)
   10c94:	00042703          	lw	a4,0(s0)
   10c98:	00178793          	addi	a5,a5,1
   10c9c:	00d70023          	sb	a3,0(a4)
   10ca0:	00042703          	lw	a4,0(s0)
   10ca4:	00074703          	lbu	a4,0(a4)
   10ca8:	fee78fa3          	sb	a4,-1(a5)
   10cac:	fec794e3          	bne	a5,a2,10c94 <_Z17SDReadSingleBlockmPhS_+0x1dc>
   10cb0:	00042783          	lw	a5,0(s0)
   10cb4:	00d78023          	sb	a3,0(a5)
   10cb8:	00042783          	lw	a5,0(s0)
   10cbc:	0007c783          	lbu	a5,0(a5)
   10cc0:	00f90023          	sb	a5,0(s2)
   10cc4:	00042783          	lw	a5,0(s0)
   10cc8:	00d78023          	sb	a3,0(a5)
   10ccc:	00042783          	lw	a5,0(s0)
   10cd0:	0007c783          	lbu	a5,0(a5)
   10cd4:	00f900a3          	sb	a5,1(s2)
   10cd8:	00042783          	lw	a5,0(s0)
   10cdc:	eedff06f          	j	10bc8 <_Z17SDReadSingleBlockmPhS_+0x110>
   10ce0:	00004517          	auipc	a0,0x4
   10ce4:	66450513          	addi	a0,a0,1636 # 15344 <_exit+0x110>
   10ce8:	d00ff0ef          	jal	ra,101e8 <_Z9UARTWritePKc>
   10cec:	00048513          	mv	a0,s1
   10cf0:	d24ff0ef          	jal	ra,10214 <_Z12UARTWriteHexm>
   10cf4:	00004517          	auipc	a0,0x4
   10cf8:	5b450513          	addi	a0,a0,1460 # 152a8 <_exit+0x74>
   10cfc:	cecff0ef          	jal	ra,101e8 <_Z9UARTWritePKc>
   10d00:	f55ff06f          	j	10c54 <_Z17SDReadSingleBlockmPhS_+0x19c>
   10d04:	00004517          	auipc	a0,0x4
   10d08:	5a850513          	addi	a0,a0,1448 # 152ac <_exit+0x78>
   10d0c:	cdcff0ef          	jal	ra,101e8 <_Z9UARTWritePKc>
   10d10:	002a7793          	andi	a5,s4,2
   10d14:	f20788e3          	beqz	a5,10c44 <_Z17SDReadSingleBlockmPhS_+0x18c>
   10d18:	00004517          	auipc	a0,0x4
   10d1c:	5c450513          	addi	a0,a0,1476 # 152dc <_exit+0xa8>
   10d20:	cc8ff0ef          	jal	ra,101e8 <_Z9UARTWritePKc>
   10d24:	004a7793          	andi	a5,s4,4
   10d28:	f20782e3          	beqz	a5,10c4c <_Z17SDReadSingleBlockmPhS_+0x194>
   10d2c:	00004517          	auipc	a0,0x4
   10d30:	5e050513          	addi	a0,a0,1504 # 1530c <_exit+0xd8>
   10d34:	cb4ff0ef          	jal	ra,101e8 <_Z9UARTWritePKc>
   10d38:	f15ff06f          	j	10c4c <_Z17SDReadSingleBlockmPhS_+0x194>

00010d3c <_Z18SDWriteSingleBlockmPhS_>:
   10d3c:	ff010113          	addi	sp,sp,-16
   10d40:	00912223          	sw	s1,4(sp)
   10d44:	00006497          	auipc	s1,0x6
   10d48:	34c4a483          	lw	s1,844(s1) # 17090 <_GLOBAL_OFFSET_TABLE_+0x8>
   10d4c:	0004a703          	lw	a4,0(s1)
   10d50:	00812423          	sw	s0,8(sp)
   10d54:	00112623          	sw	ra,12(sp)
   10d58:	fff00793          	li	a5,-1
   10d5c:	00f70023          	sb	a5,0(a4)
   10d60:	0004a703          	lw	a4,0(s1)
   10d64:	00050693          	mv	a3,a0
   10d68:	00058413          	mv	s0,a1
   10d6c:	00074603          	lbu	a2,0(a4)
   10d70:	00f70023          	sb	a5,0(a4)
   10d74:	0004a703          	lw	a4,0(s1)
   10d78:	00068593          	mv	a1,a3
   10d7c:	01100513          	li	a0,17
   10d80:	00074683          	lbu	a3,0(a4)
   10d84:	00f70023          	sb	a5,0(a4)
   10d88:	0004a703          	lw	a4,0(s1)
   10d8c:	00074683          	lbu	a3,0(a4)
   10d90:	00f70023          	sb	a5,0(a4)
   10d94:	0004a703          	lw	a4,0(s1)
   10d98:	00074683          	lbu	a3,0(a4)
   10d9c:	00f70023          	sb	a5,0(a4)
   10da0:	0004a703          	lw	a4,0(s1)
   10da4:	00074683          	lbu	a3,0(a4)
   10da8:	00f70023          	sb	a5,0(a4)
   10dac:	0004a703          	lw	a4,0(s1)
   10db0:	00074683          	lbu	a3,0(a4)
   10db4:	00f70023          	sb	a5,0(a4)
   10db8:	0004a703          	lw	a4,0(s1)
   10dbc:	00074683          	lbu	a3,0(a4)
   10dc0:	00f70023          	sb	a5,0(a4)
   10dc4:	0004a783          	lw	a5,0(s1)
   10dc8:	0007c783          	lbu	a5,0(a5)
   10dcc:	fa0ff0ef          	jal	ra,1056c <_Z5SDCmd13SDCardCommandm>
   10dd0:	00010737          	lui	a4,0x10
   10dd4:	0004a783          	lw	a5,0(s1)
   10dd8:	00170713          	addi	a4,a4,1 # 10001 <exit-0x93>
   10ddc:	fff00593          	li	a1,-1
   10de0:	0ff00613          	li	a2,255
   10de4:	0080006f          	j	10dec <_Z18SDWriteSingleBlockmPhS_+0xb0>
   10de8:	0a070e63          	beqz	a4,10ea4 <_Z18SDWriteSingleBlockmPhS_+0x168>
   10dec:	00b78023          	sb	a1,0(a5)
   10df0:	0004a783          	lw	a5,0(s1)
   10df4:	fff70713          	addi	a4,a4,-1
   10df8:	0007c683          	lbu	a3,0(a5)
   10dfc:	0ff6f513          	zext.b	a0,a3
   10e00:	fec684e3          	beq	a3,a2,10de8 <_Z18SDWriteSingleBlockmPhS_+0xac>
   10e04:	0a051063          	bnez	a0,10ea4 <_Z18SDWriteSingleBlockmPhS_+0x168>
   10e08:	ffe00713          	li	a4,-2
   10e0c:	00e78023          	sb	a4,0(a5)
   10e10:	0004a783          	lw	a5,0(s1)
   10e14:	00040593          	mv	a1,s0
   10e18:	20040693          	addi	a3,s0,512
   10e1c:	0007c703          	lbu	a4,0(a5)
   10e20:	0005c703          	lbu	a4,0(a1)
   10e24:	00158593          	addi	a1,a1,1
   10e28:	00e78023          	sb	a4,0(a5)
   10e2c:	0004a783          	lw	a5,0(s1)
   10e30:	0007c703          	lbu	a4,0(a5)
   10e34:	fed596e3          	bne	a1,a3,10e20 <_Z18SDWriteSingleBlockmPhS_+0xe4>
   10e38:	00010737          	lui	a4,0x10
   10e3c:	00170713          	addi	a4,a4,1 # 10001 <exit-0x93>
   10e40:	fff00513          	li	a0,-1
   10e44:	0ff00593          	li	a1,255
   10e48:	0080006f          	j	10e50 <_Z18SDWriteSingleBlockmPhS_+0x114>
   10e4c:	0c070863          	beqz	a4,10f1c <_Z18SDWriteSingleBlockmPhS_+0x1e0>
   10e50:	00a78023          	sb	a0,0(a5)
   10e54:	0004a783          	lw	a5,0(s1)
   10e58:	fff70713          	addi	a4,a4,-1
   10e5c:	0007c683          	lbu	a3,0(a5)
   10e60:	0ff6f613          	zext.b	a2,a3
   10e64:	feb684e3          	beq	a3,a1,10e4c <_Z18SDWriteSingleBlockmPhS_+0x110>
   10e68:	00010737          	lui	a4,0x10
   10e6c:	01f67613          	andi	a2,a2,31
   10e70:	00500693          	li	a3,5
   10e74:	00170713          	addi	a4,a4,1 # 10001 <exit-0x93>
   10e78:	fff00813          	li	a6,-1
   10e7c:	0ff00593          	li	a1,255
   10e80:	00d60663          	beq	a2,a3,10e8c <_Z18SDWriteSingleBlockmPhS_+0x150>
   10e84:	0980006f          	j	10f1c <_Z18SDWriteSingleBlockmPhS_+0x1e0>
   10e88:	00070e63          	beqz	a4,10ea4 <_Z18SDWriteSingleBlockmPhS_+0x168>
   10e8c:	01078023          	sb	a6,0(a5)
   10e90:	0004a783          	lw	a5,0(s1)
   10e94:	fff70713          	addi	a4,a4,-1
   10e98:	0007c683          	lbu	a3,0(a5)
   10e9c:	0ff6f513          	zext.b	a0,a3
   10ea0:	feb684e3          	beq	a3,a1,10e88 <_Z18SDWriteSingleBlockmPhS_+0x14c>
   10ea4:	fff00713          	li	a4,-1
   10ea8:	00e78023          	sb	a4,0(a5)
   10eac:	0004a783          	lw	a5,0(s1)
   10eb0:	0007c683          	lbu	a3,0(a5)
   10eb4:	00e78023          	sb	a4,0(a5)
   10eb8:	0004a783          	lw	a5,0(s1)
   10ebc:	0007c683          	lbu	a3,0(a5)
   10ec0:	00e78023          	sb	a4,0(a5)
   10ec4:	0004a783          	lw	a5,0(s1)
   10ec8:	0007c683          	lbu	a3,0(a5)
   10ecc:	00e78023          	sb	a4,0(a5)
   10ed0:	0004a783          	lw	a5,0(s1)
   10ed4:	0007c683          	lbu	a3,0(a5)
   10ed8:	00e78023          	sb	a4,0(a5)
   10edc:	0004a783          	lw	a5,0(s1)
   10ee0:	0007c683          	lbu	a3,0(a5)
   10ee4:	00e78023          	sb	a4,0(a5)
   10ee8:	0004a783          	lw	a5,0(s1)
   10eec:	0007c683          	lbu	a3,0(a5)
   10ef0:	00e78023          	sb	a4,0(a5)
   10ef4:	0004a783          	lw	a5,0(s1)
   10ef8:	0007c683          	lbu	a3,0(a5)
   10efc:	00e78023          	sb	a4,0(a5)
   10f00:	0004a783          	lw	a5,0(s1)
   10f04:	00c12083          	lw	ra,12(sp)
   10f08:	00812403          	lw	s0,8(sp)
   10f0c:	00412483          	lw	s1,4(sp)
   10f10:	0007c783          	lbu	a5,0(a5)
   10f14:	01010113          	addi	sp,sp,16
   10f18:	00008067          	ret
   10f1c:	00004517          	auipc	a0,0x4
   10f20:	46850513          	addi	a0,a0,1128 # 15384 <_exit+0x150>
   10f24:	ac4ff0ef          	jal	ra,101e8 <_Z9UARTWritePKc>
   10f28:	00c12083          	lw	ra,12(sp)
   10f2c:	00812403          	lw	s0,8(sp)
   10f30:	00412483          	lw	s1,4(sp)
   10f34:	0ff00513          	li	a0,255
   10f38:	01010113          	addi	sp,sp,16
   10f3c:	00008067          	ret

00010f40 <_Z20SDReadMultipleBlocksPhmm>:
   10f40:	18058863          	beqz	a1,110d0 <_Z20SDReadMultipleBlocksPhmm+0x190>
   10f44:	dc010113          	addi	sp,sp,-576
   10f48:	23312623          	sw	s3,556(sp)
   10f4c:	00006997          	auipc	s3,0x6
   10f50:	1449a983          	lw	s3,324(s3) # 17090 <_GLOBAL_OFFSET_TABLE_+0x8>
   10f54:	0009a703          	lw	a4,0(s3)
   10f58:	22812c23          	sw	s0,568(sp)
   10f5c:	22912a23          	sw	s1,564(sp)
   10f60:	23212823          	sw	s2,560(sp)
   10f64:	23412423          	sw	s4,552(sp)
   10f68:	23512223          	sw	s5,548(sp)
   10f6c:	23612023          	sw	s6,544(sp)
   10f70:	21712e23          	sw	s7,540(sp)
   10f74:	22112e23          	sw	ra,572(sp)
   10f78:	fff00793          	li	a5,-1
   10f7c:	00f70023          	sb	a5,0(a4)
   10f80:	0009a703          	lw	a4,0(s3)
   10f84:	00050b93          	mv	s7,a0
   10f88:	00060413          	mv	s0,a2
   10f8c:	00074683          	lbu	a3,0(a4)
   10f90:	00f70023          	sb	a5,0(a4)
   10f94:	0009a703          	lw	a4,0(s3)
   10f98:	00c58a33          	add	s4,a1,a2
   10f9c:	00000493          	li	s1,0
   10fa0:	00074683          	lbu	a3,0(a4)
   10fa4:	00f70023          	sb	a5,0(a4)
   10fa8:	0009a703          	lw	a4,0(s3)
   10fac:	00c10b13          	addi	s6,sp,12
   10fb0:	01010913          	addi	s2,sp,16
   10fb4:	00074683          	lbu	a3,0(a4)
   10fb8:	00f70023          	sb	a5,0(a4)
   10fbc:	0009a703          	lw	a4,0(s3)
   10fc0:	0fe00a93          	li	s5,254
   10fc4:	00074683          	lbu	a3,0(a4)
   10fc8:	00f70023          	sb	a5,0(a4)
   10fcc:	0009a703          	lw	a4,0(s3)
   10fd0:	00074683          	lbu	a3,0(a4)
   10fd4:	00f70023          	sb	a5,0(a4)
   10fd8:	0009a703          	lw	a4,0(s3)
   10fdc:	00074683          	lbu	a3,0(a4)
   10fe0:	00f70023          	sb	a5,0(a4)
   10fe4:	0009a703          	lw	a4,0(s3)
   10fe8:	00074683          	lbu	a3,0(a4)
   10fec:	00f70023          	sb	a5,0(a4)
   10ff0:	0009a783          	lw	a5,0(s3)
   10ff4:	0007c783          	lbu	a5,0(a5)
   10ff8:	0100006f          	j	11008 <_Z20SDReadMultipleBlocksPhmm+0xc8>
   10ffc:	6fd010ef          	jal	ra,12ef8 <memcpy>
   11000:	20048493          	addi	s1,s1,512
   11004:	03440a63          	beq	s0,s4,11038 <_Z20SDReadMultipleBlocksPhmm+0xf8>
   11008:	000b0613          	mv	a2,s6
   1100c:	00090593          	mv	a1,s2
   11010:	00040513          	mv	a0,s0
   11014:	aa5ff0ef          	jal	ra,10ab8 <_Z17SDReadSingleBlockmPhS_>
   11018:	00050793          	mv	a5,a0
   1101c:	20000613          	li	a2,512
   11020:	009b8533          	add	a0,s7,s1
   11024:	00090593          	mv	a1,s2
   11028:	00140413          	addi	s0,s0,1
   1102c:	fd5788e3          	beq	a5,s5,10ffc <_Z20SDReadMultipleBlocksPhmm+0xbc>
   11030:	fff00513          	li	a0,-1
   11034:	0700006f          	j	110a4 <_Z20SDReadMultipleBlocksPhmm+0x164>
   11038:	0009a703          	lw	a4,0(s3)
   1103c:	fff00793          	li	a5,-1
   11040:	00048513          	mv	a0,s1
   11044:	00f70023          	sb	a5,0(a4)
   11048:	0009a703          	lw	a4,0(s3)
   1104c:	00074683          	lbu	a3,0(a4)
   11050:	00f70023          	sb	a5,0(a4)
   11054:	0009a703          	lw	a4,0(s3)
   11058:	00074683          	lbu	a3,0(a4)
   1105c:	00f70023          	sb	a5,0(a4)
   11060:	0009a703          	lw	a4,0(s3)
   11064:	00074683          	lbu	a3,0(a4)
   11068:	00f70023          	sb	a5,0(a4)
   1106c:	0009a703          	lw	a4,0(s3)
   11070:	00074683          	lbu	a3,0(a4)
   11074:	00f70023          	sb	a5,0(a4)
   11078:	0009a703          	lw	a4,0(s3)
   1107c:	00074683          	lbu	a3,0(a4)
   11080:	00f70023          	sb	a5,0(a4)
   11084:	0009a703          	lw	a4,0(s3)
   11088:	00074683          	lbu	a3,0(a4)
   1108c:	00f70023          	sb	a5,0(a4)
   11090:	0009a703          	lw	a4,0(s3)
   11094:	00074683          	lbu	a3,0(a4)
   11098:	00f70023          	sb	a5,0(a4)
   1109c:	0009a783          	lw	a5,0(s3)
   110a0:	0007c783          	lbu	a5,0(a5)
   110a4:	23c12083          	lw	ra,572(sp)
   110a8:	23812403          	lw	s0,568(sp)
   110ac:	23412483          	lw	s1,564(sp)
   110b0:	23012903          	lw	s2,560(sp)
   110b4:	22c12983          	lw	s3,556(sp)
   110b8:	22812a03          	lw	s4,552(sp)
   110bc:	22412a83          	lw	s5,548(sp)
   110c0:	22012b03          	lw	s6,544(sp)
   110c4:	21c12b83          	lw	s7,540(sp)
   110c8:	24010113          	addi	sp,sp,576
   110cc:	00008067          	ret
   110d0:	fff00513          	li	a0,-1
   110d4:	00008067          	ret

000110d8 <_Z21SDWriteMultipleBlocksPKhmm>:
   110d8:	18058663          	beqz	a1,11264 <_Z21SDWriteMultipleBlocksPKhmm+0x18c>
   110dc:	dc010113          	addi	sp,sp,-576
   110e0:	23312623          	sw	s3,556(sp)
   110e4:	00006997          	auipc	s3,0x6
   110e8:	fac9a983          	lw	s3,-84(s3) # 17090 <_GLOBAL_OFFSET_TABLE_+0x8>
   110ec:	0009a703          	lw	a4,0(s3)
   110f0:	22812c23          	sw	s0,568(sp)
   110f4:	22912a23          	sw	s1,564(sp)
   110f8:	23212823          	sw	s2,560(sp)
   110fc:	23412423          	sw	s4,552(sp)
   11100:	23512223          	sw	s5,548(sp)
   11104:	23612023          	sw	s6,544(sp)
   11108:	21712e23          	sw	s7,540(sp)
   1110c:	22112e23          	sw	ra,572(sp)
   11110:	fff00793          	li	a5,-1
   11114:	00f70023          	sb	a5,0(a4)
   11118:	0009a703          	lw	a4,0(s3)
   1111c:	00050b93          	mv	s7,a0
   11120:	00060413          	mv	s0,a2
   11124:	00074683          	lbu	a3,0(a4)
   11128:	00f70023          	sb	a5,0(a4)
   1112c:	0009a703          	lw	a4,0(s3)
   11130:	00c58a33          	add	s4,a1,a2
   11134:	00000493          	li	s1,0
   11138:	00074683          	lbu	a3,0(a4)
   1113c:	00f70023          	sb	a5,0(a4)
   11140:	0009a703          	lw	a4,0(s3)
   11144:	01010913          	addi	s2,sp,16
   11148:	00c10b13          	addi	s6,sp,12
   1114c:	00074683          	lbu	a3,0(a4)
   11150:	00f70023          	sb	a5,0(a4)
   11154:	0009a703          	lw	a4,0(s3)
   11158:	0fe00a93          	li	s5,254
   1115c:	00074683          	lbu	a3,0(a4)
   11160:	00f70023          	sb	a5,0(a4)
   11164:	0009a703          	lw	a4,0(s3)
   11168:	00074683          	lbu	a3,0(a4)
   1116c:	00f70023          	sb	a5,0(a4)
   11170:	0009a703          	lw	a4,0(s3)
   11174:	00074683          	lbu	a3,0(a4)
   11178:	00f70023          	sb	a5,0(a4)
   1117c:	0009a703          	lw	a4,0(s3)
   11180:	00074683          	lbu	a3,0(a4)
   11184:	00f70023          	sb	a5,0(a4)
   11188:	0009a783          	lw	a5,0(s3)
   1118c:	0007c783          	lbu	a5,0(a5)
   11190:	00c0006f          	j	1119c <_Z21SDWriteMultipleBlocksPKhmm+0xc4>
   11194:	20048493          	addi	s1,s1,512
   11198:	03440a63          	beq	s0,s4,111cc <_Z21SDWriteMultipleBlocksPKhmm+0xf4>
   1119c:	009b85b3          	add	a1,s7,s1
   111a0:	20000613          	li	a2,512
   111a4:	00090513          	mv	a0,s2
   111a8:	551010ef          	jal	ra,12ef8 <memcpy>
   111ac:	00040513          	mv	a0,s0
   111b0:	000b0613          	mv	a2,s6
   111b4:	00090593          	mv	a1,s2
   111b8:	b85ff0ef          	jal	ra,10d3c <_Z18SDWriteSingleBlockmPhS_>
   111bc:	00140413          	addi	s0,s0,1
   111c0:	fd550ae3          	beq	a0,s5,11194 <_Z21SDWriteMultipleBlocksPKhmm+0xbc>
   111c4:	fff00513          	li	a0,-1
   111c8:	0700006f          	j	11238 <_Z21SDWriteMultipleBlocksPKhmm+0x160>
   111cc:	0009a703          	lw	a4,0(s3)
   111d0:	fff00793          	li	a5,-1
   111d4:	00048513          	mv	a0,s1
   111d8:	00f70023          	sb	a5,0(a4)
   111dc:	0009a703          	lw	a4,0(s3)
   111e0:	00074683          	lbu	a3,0(a4)
   111e4:	00f70023          	sb	a5,0(a4)
   111e8:	0009a703          	lw	a4,0(s3)
   111ec:	00074683          	lbu	a3,0(a4)
   111f0:	00f70023          	sb	a5,0(a4)
   111f4:	0009a703          	lw	a4,0(s3)
   111f8:	00074683          	lbu	a3,0(a4)
   111fc:	00f70023          	sb	a5,0(a4)
   11200:	0009a703          	lw	a4,0(s3)
   11204:	00074683          	lbu	a3,0(a4)
   11208:	00f70023          	sb	a5,0(a4)
   1120c:	0009a703          	lw	a4,0(s3)
   11210:	00074683          	lbu	a3,0(a4)
   11214:	00f70023          	sb	a5,0(a4)
   11218:	0009a703          	lw	a4,0(s3)
   1121c:	00074683          	lbu	a3,0(a4)
   11220:	00f70023          	sb	a5,0(a4)
   11224:	0009a703          	lw	a4,0(s3)
   11228:	00074683          	lbu	a3,0(a4)
   1122c:	00f70023          	sb	a5,0(a4)
   11230:	0009a783          	lw	a5,0(s3)
   11234:	0007c783          	lbu	a5,0(a5)
   11238:	23c12083          	lw	ra,572(sp)
   1123c:	23812403          	lw	s0,568(sp)
   11240:	23412483          	lw	s1,564(sp)
   11244:	23012903          	lw	s2,560(sp)
   11248:	22c12983          	lw	s3,556(sp)
   1124c:	22812a03          	lw	s4,552(sp)
   11250:	22412a83          	lw	s5,548(sp)
   11254:	22012b03          	lw	s6,544(sp)
   11258:	21c12b83          	lw	s7,540(sp)
   1125c:	24010113          	addi	sp,sp,576
   11260:	00008067          	ret
   11264:	fff00513          	li	a0,-1
   11268:	00008067          	ret

0001126c <_ZL11move_windowP5FATFSm>:
   1126c:	03452603          	lw	a2,52(a0)
   11270:	00b61663          	bne	a2,a1,1127c <_ZL11move_windowP5FATFSm+0x10>
   11274:	00000513          	li	a0,0
   11278:	00008067          	ret
   1127c:	ff010113          	addi	sp,sp,-16
   11280:	00812423          	sw	s0,8(sp)
   11284:	00912223          	sw	s1,4(sp)
   11288:	01212023          	sw	s2,0(sp)
   1128c:	00112623          	sw	ra,12(sp)
   11290:	00354783          	lbu	a5,3(a0)
   11294:	00050413          	mv	s0,a0
   11298:	00058493          	mv	s1,a1
   1129c:	00154503          	lbu	a0,1(a0)
   112a0:	03840913          	addi	s2,s0,56
   112a4:	04079063          	bnez	a5,112e4 <_ZL11move_windowP5FATFSm+0x78>
   112a8:	00100693          	li	a3,1
   112ac:	00048613          	mv	a2,s1
   112b0:	00090593          	mv	a1,s2
   112b4:	380010ef          	jal	ra,12634 <disk_read>
   112b8:	02051063          	bnez	a0,112d8 <_ZL11move_windowP5FATFSm+0x6c>
   112bc:	02942a23          	sw	s1,52(s0)
   112c0:	00c12083          	lw	ra,12(sp)
   112c4:	00812403          	lw	s0,8(sp)
   112c8:	00412483          	lw	s1,4(sp)
   112cc:	00012903          	lw	s2,0(sp)
   112d0:	01010113          	addi	sp,sp,16
   112d4:	00008067          	ret
   112d8:	00100513          	li	a0,1
   112dc:	fff00493          	li	s1,-1
   112e0:	fddff06f          	j	112bc <_ZL11move_windowP5FATFSm+0x50>
   112e4:	00100693          	li	a3,1
   112e8:	00090593          	mv	a1,s2
   112ec:	388010ef          	jal	ra,12674 <disk_write>
   112f0:	00050793          	mv	a5,a0
   112f4:	00100513          	li	a0,1
   112f8:	fc0794e3          	bnez	a5,112c0 <_ZL11move_windowP5FATFSm+0x54>
   112fc:	03442603          	lw	a2,52(s0)
   11300:	02842783          	lw	a5,40(s0)
   11304:	02042703          	lw	a4,32(s0)
   11308:	000401a3          	sb	zero,3(s0)
   1130c:	40f607b3          	sub	a5,a2,a5
   11310:	00144503          	lbu	a0,1(s0)
   11314:	f8e7fae3          	bgeu	a5,a4,112a8 <_ZL11move_windowP5FATFSm+0x3c>
   11318:	00244683          	lbu	a3,2(s0)
   1131c:	00200793          	li	a5,2
   11320:	f8f694e3          	bne	a3,a5,112a8 <_ZL11move_windowP5FATFSm+0x3c>
   11324:	00100693          	li	a3,1
   11328:	00e60633          	add	a2,a2,a4
   1132c:	00090593          	mv	a1,s2
   11330:	344010ef          	jal	ra,12674 <disk_write>
   11334:	00144503          	lbu	a0,1(s0)
   11338:	f71ff06f          	j	112a8 <_ZL11move_windowP5FATFSm+0x3c>

0001133c <_ZL7put_fatP5FATFSmm.part.0>:
   1133c:	fe010113          	addi	sp,sp,-32
   11340:	00812c23          	sw	s0,24(sp)
   11344:	00912a23          	sw	s1,20(sp)
   11348:	01212823          	sw	s2,16(sp)
   1134c:	00112e23          	sw	ra,28(sp)
   11350:	01312623          	sw	s3,12(sp)
   11354:	01412423          	sw	s4,8(sp)
   11358:	01512223          	sw	s5,4(sp)
   1135c:	01612023          	sw	s6,0(sp)
   11360:	00054983          	lbu	s3,0(a0)
   11364:	00200793          	li	a5,2
   11368:	00050493          	mv	s1,a0
   1136c:	00058413          	mv	s0,a1
   11370:	00060913          	mv	s2,a2
   11374:	04f98263          	beq	s3,a5,113b8 <_ZL7put_fatP5FATFSmm.part.0+0x7c>
   11378:	00300793          	li	a5,3
   1137c:	10f98663          	beq	s3,a5,11488 <_ZL7put_fatP5FATFSmm.part.0+0x14c>
   11380:	00100713          	li	a4,1
   11384:	00200793          	li	a5,2
   11388:	06e98863          	beq	s3,a4,113f8 <_ZL7put_fatP5FATFSmm.part.0+0xbc>
   1138c:	01c12083          	lw	ra,28(sp)
   11390:	01812403          	lw	s0,24(sp)
   11394:	01412483          	lw	s1,20(sp)
   11398:	01012903          	lw	s2,16(sp)
   1139c:	00c12983          	lw	s3,12(sp)
   113a0:	00812a03          	lw	s4,8(sp)
   113a4:	00412a83          	lw	s5,4(sp)
   113a8:	00012b03          	lw	s6,0(sp)
   113ac:	00078513          	mv	a0,a5
   113b0:	02010113          	addi	sp,sp,32
   113b4:	00008067          	ret
   113b8:	02852783          	lw	a5,40(a0)
   113bc:	0085d593          	srli	a1,a1,0x8
   113c0:	00f585b3          	add	a1,a1,a5
   113c4:	ea9ff0ef          	jal	ra,1126c <_ZL11move_windowP5FATFSm>
   113c8:	00050793          	mv	a5,a0
   113cc:	fc0510e3          	bnez	a0,1138c <_ZL7put_fatP5FATFSmm.part.0+0x50>
   113d0:	00141413          	slli	s0,s0,0x1
   113d4:	01091713          	slli	a4,s2,0x10
   113d8:	03848793          	addi	a5,s1,56
   113dc:	1fe47413          	andi	s0,s0,510
   113e0:	01075713          	srli	a4,a4,0x10
   113e4:	008787b3          	add	a5,a5,s0
   113e8:	00875713          	srli	a4,a4,0x8
   113ec:	01278023          	sb	s2,0(a5)
   113f0:	00e780a3          	sb	a4,1(a5)
   113f4:	0f40006f          	j	114e8 <_ZL7put_fatP5FATFSmm.part.0+0x1ac>
   113f8:	02852783          	lw	a5,40(a0)
   113fc:	0015da13          	srli	s4,a1,0x1
   11400:	00ba0a33          	add	s4,s4,a1
   11404:	009a5593          	srli	a1,s4,0x9
   11408:	00f585b3          	add	a1,a1,a5
   1140c:	e61ff0ef          	jal	ra,1126c <_ZL11move_windowP5FATFSm>
   11410:	00050793          	mv	a5,a0
   11414:	f6051ce3          	bnez	a0,1138c <_ZL7put_fatP5FATFSmm.part.0+0x50>
   11418:	001a0b13          	addi	s6,s4,1
   1141c:	03848a93          	addi	s5,s1,56
   11420:	1ffa7a13          	andi	s4,s4,511
   11424:	00147413          	andi	s0,s0,1
   11428:	014a8a33          	add	s4,s5,s4
   1142c:	009b5693          	srli	a3,s6,0x9
   11430:	0c040463          	beqz	s0,114f8 <_ZL7put_fatP5FATFSmm.part.0+0x1bc>
   11434:	000a4783          	lbu	a5,0(s4)
   11438:	00001637          	lui	a2,0x1
   1143c:	ff060613          	addi	a2,a2,-16 # ff0 <exit-0xf0a4>
   11440:	00491713          	slli	a4,s2,0x4
   11444:	00c77733          	and	a4,a4,a2
   11448:	00f7f793          	andi	a5,a5,15
   1144c:	00e7e7b3          	or	a5,a5,a4
   11450:	00fa0023          	sb	a5,0(s4)
   11454:	0284a583          	lw	a1,40(s1)
   11458:	013481a3          	sb	s3,3(s1)
   1145c:	00048513          	mv	a0,s1
   11460:	00b685b3          	add	a1,a3,a1
   11464:	e09ff0ef          	jal	ra,1126c <_ZL11move_windowP5FATFSm>
   11468:	00050793          	mv	a5,a0
   1146c:	f20510e3          	bnez	a0,1138c <_ZL7put_fatP5FATFSmm.part.0+0x50>
   11470:	1ffb7b13          	andi	s6,s6,511
   11474:	00495793          	srli	a5,s2,0x4
   11478:	016a8ab3          	add	s5,s5,s6
   1147c:	0ff7f793          	zext.b	a5,a5
   11480:	00fa8023          	sb	a5,0(s5)
   11484:	0640006f          	j	114e8 <_ZL7put_fatP5FATFSmm.part.0+0x1ac>
   11488:	02852783          	lw	a5,40(a0)
   1148c:	0075d593          	srli	a1,a1,0x7
   11490:	00f585b3          	add	a1,a1,a5
   11494:	dd9ff0ef          	jal	ra,1126c <_ZL11move_windowP5FATFSm>
   11498:	00050793          	mv	a5,a0
   1149c:	ee0518e3          	bnez	a0,1138c <_ZL7put_fatP5FATFSmm.part.0+0x50>
   114a0:	00241413          	slli	s0,s0,0x2
   114a4:	03848713          	addi	a4,s1,56
   114a8:	1fc47413          	andi	s0,s0,508
   114ac:	00870733          	add	a4,a4,s0
   114b0:	00374783          	lbu	a5,3(a4)
   114b4:	f00006b7          	lui	a3,0xf0000
   114b8:	00491913          	slli	s2,s2,0x4
   114bc:	01879793          	slli	a5,a5,0x18
   114c0:	00d7f7b3          	and	a5,a5,a3
   114c4:	00495913          	srli	s2,s2,0x4
   114c8:	0127e7b3          	or	a5,a5,s2
   114cc:	0087d593          	srli	a1,a5,0x8
   114d0:	0107d613          	srli	a2,a5,0x10
   114d4:	0187d693          	srli	a3,a5,0x18
   114d8:	00f70023          	sb	a5,0(a4)
   114dc:	00b700a3          	sb	a1,1(a4)
   114e0:	00c70123          	sb	a2,2(a4)
   114e4:	00d701a3          	sb	a3,3(a4)
   114e8:	00100793          	li	a5,1
   114ec:	00f481a3          	sb	a5,3(s1)
   114f0:	00000793          	li	a5,0
   114f4:	e99ff06f          	j	1138c <_ZL7put_fatP5FATFSmm.part.0+0x50>
   114f8:	012a0023          	sb	s2,0(s4)
   114fc:	0284a583          	lw	a1,40(s1)
   11500:	013481a3          	sb	s3,3(s1)
   11504:	00048513          	mv	a0,s1
   11508:	00b685b3          	add	a1,a3,a1
   1150c:	d61ff0ef          	jal	ra,1126c <_ZL11move_windowP5FATFSm>
   11510:	00050793          	mv	a5,a0
   11514:	e6051ce3          	bnez	a0,1138c <_ZL7put_fatP5FATFSmm.part.0+0x50>
   11518:	1ffb7b13          	andi	s6,s6,511
   1151c:	016a8ab3          	add	s5,s5,s6
   11520:	000ac783          	lbu	a5,0(s5)
   11524:	00895913          	srli	s2,s2,0x8
   11528:	00f97913          	andi	s2,s2,15
   1152c:	ff07f793          	andi	a5,a5,-16
   11530:	0127e7b3          	or	a5,a5,s2
   11534:	00fa8023          	sb	a5,0(s5)
   11538:	fb1ff06f          	j	114e8 <_ZL7put_fatP5FATFSmm.part.0+0x1ac>

0001153c <_ZL7get_fatP7FFOBJIDm.isra.0>:
   1153c:	00100713          	li	a4,1
   11540:	06b77463          	bgeu	a4,a1,115a8 <_ZL7get_fatP7FFOBJIDm.isra.0+0x6c>
   11544:	01c52703          	lw	a4,28(a0)
   11548:	fe010113          	addi	sp,sp,-32
   1154c:	00812c23          	sw	s0,24(sp)
   11550:	01212823          	sw	s2,16(sp)
   11554:	00112e23          	sw	ra,28(sp)
   11558:	00912a23          	sw	s1,20(sp)
   1155c:	01312623          	sw	s3,12(sp)
   11560:	00058413          	mv	s0,a1
   11564:	00050913          	mv	s2,a0
   11568:	00100793          	li	a5,1
   1156c:	00e5fe63          	bgeu	a1,a4,11588 <_ZL7get_fatP7FFOBJIDm.isra.0+0x4c>
   11570:	00054703          	lbu	a4,0(a0)
   11574:	00200693          	li	a3,2
   11578:	0cd70863          	beq	a4,a3,11648 <_ZL7get_fatP7FFOBJIDm.isra.0+0x10c>
   1157c:	00300693          	li	a3,3
   11580:	06d70a63          	beq	a4,a3,115f4 <_ZL7get_fatP7FFOBJIDm.isra.0+0xb8>
   11584:	02f70863          	beq	a4,a5,115b4 <_ZL7get_fatP7FFOBJIDm.isra.0+0x78>
   11588:	01c12083          	lw	ra,28(sp)
   1158c:	01812403          	lw	s0,24(sp)
   11590:	01412483          	lw	s1,20(sp)
   11594:	01012903          	lw	s2,16(sp)
   11598:	00c12983          	lw	s3,12(sp)
   1159c:	00078513          	mv	a0,a5
   115a0:	02010113          	addi	sp,sp,32
   115a4:	00008067          	ret
   115a8:	00100793          	li	a5,1
   115ac:	00078513          	mv	a0,a5
   115b0:	00008067          	ret
   115b4:	0015d493          	srli	s1,a1,0x1
   115b8:	02852783          	lw	a5,40(a0)
   115bc:	00b484b3          	add	s1,s1,a1
   115c0:	0094d593          	srli	a1,s1,0x9
   115c4:	00f585b3          	add	a1,a1,a5
   115c8:	ca5ff0ef          	jal	ra,1126c <_ZL11move_windowP5FATFSm>
   115cc:	0a050863          	beqz	a0,1167c <_ZL7get_fatP7FFOBJIDm.isra.0+0x140>
   115d0:	01c12083          	lw	ra,28(sp)
   115d4:	01812403          	lw	s0,24(sp)
   115d8:	fff00793          	li	a5,-1
   115dc:	01412483          	lw	s1,20(sp)
   115e0:	01012903          	lw	s2,16(sp)
   115e4:	00c12983          	lw	s3,12(sp)
   115e8:	00078513          	mv	a0,a5
   115ec:	02010113          	addi	sp,sp,32
   115f0:	00008067          	ret
   115f4:	02852783          	lw	a5,40(a0)
   115f8:	0075d593          	srli	a1,a1,0x7
   115fc:	00f585b3          	add	a1,a1,a5
   11600:	c6dff0ef          	jal	ra,1126c <_ZL11move_windowP5FATFSm>
   11604:	fc0516e3          	bnez	a0,115d0 <_ZL7get_fatP7FFOBJIDm.isra.0+0x94>
   11608:	00241413          	slli	s0,s0,0x2
   1160c:	1fc47413          	andi	s0,s0,508
   11610:	008907b3          	add	a5,s2,s0
   11614:	0397c683          	lbu	a3,57(a5)
   11618:	0387c603          	lbu	a2,56(a5)
   1161c:	03a7c703          	lbu	a4,58(a5)
   11620:	03b7c783          	lbu	a5,59(a5)
   11624:	00869693          	slli	a3,a3,0x8
   11628:	00c6e6b3          	or	a3,a3,a2
   1162c:	01071713          	slli	a4,a4,0x10
   11630:	00d76733          	or	a4,a4,a3
   11634:	01879793          	slli	a5,a5,0x18
   11638:	00e7e7b3          	or	a5,a5,a4
   1163c:	00479793          	slli	a5,a5,0x4
   11640:	0047d793          	srli	a5,a5,0x4
   11644:	f45ff06f          	j	11588 <_ZL7get_fatP7FFOBJIDm.isra.0+0x4c>
   11648:	02852783          	lw	a5,40(a0)
   1164c:	0085d593          	srli	a1,a1,0x8
   11650:	00f585b3          	add	a1,a1,a5
   11654:	c19ff0ef          	jal	ra,1126c <_ZL11move_windowP5FATFSm>
   11658:	f6051ce3          	bnez	a0,115d0 <_ZL7get_fatP7FFOBJIDm.isra.0+0x94>
   1165c:	00141513          	slli	a0,s0,0x1
   11660:	1fe57513          	andi	a0,a0,510
   11664:	00a90533          	add	a0,s2,a0
   11668:	03954783          	lbu	a5,57(a0)
   1166c:	03854703          	lbu	a4,56(a0)
   11670:	00879793          	slli	a5,a5,0x8
   11674:	00e7e7b3          	or	a5,a5,a4
   11678:	f11ff06f          	j	11588 <_ZL7get_fatP7FFOBJIDm.isra.0+0x4c>
   1167c:	02892783          	lw	a5,40(s2)
   11680:	00148993          	addi	s3,s1,1
   11684:	0099d593          	srli	a1,s3,0x9
   11688:	1ff4f493          	andi	s1,s1,511
   1168c:	009904b3          	add	s1,s2,s1
   11690:	00f585b3          	add	a1,a1,a5
   11694:	00090513          	mv	a0,s2
   11698:	0384c483          	lbu	s1,56(s1)
   1169c:	bd1ff0ef          	jal	ra,1126c <_ZL11move_windowP5FATFSm>
   116a0:	f20518e3          	bnez	a0,115d0 <_ZL7get_fatP7FFOBJIDm.isra.0+0x94>
   116a4:	1ff9f993          	andi	s3,s3,511
   116a8:	013909b3          	add	s3,s2,s3
   116ac:	0389c783          	lbu	a5,56(s3)
   116b0:	00147413          	andi	s0,s0,1
   116b4:	00879793          	slli	a5,a5,0x8
   116b8:	0097e7b3          	or	a5,a5,s1
   116bc:	f80412e3          	bnez	s0,11640 <_ZL7get_fatP7FFOBJIDm.isra.0+0x104>
   116c0:	01479793          	slli	a5,a5,0x14
   116c4:	0147d793          	srli	a5,a5,0x14
   116c8:	ec1ff06f          	j	11588 <_ZL7get_fatP7FFOBJIDm.isra.0+0x4c>

000116cc <_ZL12create_chainP7FFOBJIDm>:
   116cc:	fd010113          	addi	sp,sp,-48
   116d0:	02912223          	sw	s1,36(sp)
   116d4:	03212023          	sw	s2,32(sp)
   116d8:	01612823          	sw	s6,16(sp)
   116dc:	02112623          	sw	ra,44(sp)
   116e0:	02812423          	sw	s0,40(sp)
   116e4:	01312e23          	sw	s3,28(sp)
   116e8:	01412c23          	sw	s4,24(sp)
   116ec:	01512a23          	sw	s5,20(sp)
   116f0:	01712623          	sw	s7,12(sp)
   116f4:	01812423          	sw	s8,8(sp)
   116f8:	00052903          	lw	s2,0(a0)
   116fc:	00050493          	mv	s1,a0
   11700:	00058b13          	mv	s6,a1
   11704:	0a059a63          	bnez	a1,117b8 <_ZL12create_chainP7FFOBJIDm+0xec>
   11708:	01092a03          	lw	s4,16(s2)
   1170c:	01492783          	lw	a5,20(s2)
   11710:	060a1e63          	bnez	s4,1178c <_ZL12create_chainP7FFOBJIDm+0xc0>
   11714:	2c078863          	beqz	a5,119e4 <_ZL12create_chainP7FFOBJIDm+0x318>
   11718:	01c92703          	lw	a4,28(s2)
   1171c:	00200793          	li	a5,2
   11720:	2ce7f263          	bgeu	a5,a4,119e4 <_ZL12create_chainP7FFOBJIDm+0x318>
   11724:	0004a983          	lw	s3,0(s1)
   11728:	00100a13          	li	s4,1
   1172c:	00200413          	li	s0,2
   11730:	01c9a783          	lw	a5,28(s3)
   11734:	02f47063          	bgeu	s0,a5,11754 <_ZL12create_chainP7FFOBJIDm+0x88>
   11738:	0009ca83          	lbu	s5,0(s3)
   1173c:	00200793          	li	a5,2
   11740:	1efa8063          	beq	s5,a5,11920 <_ZL12create_chainP7FFOBJIDm+0x254>
   11744:	00300793          	li	a5,3
   11748:	20fa8e63          	beq	s5,a5,11964 <_ZL12create_chainP7FFOBJIDm+0x298>
   1174c:	00100793          	li	a5,1
   11750:	10fa8e63          	beq	s5,a5,1186c <_ZL12create_chainP7FFOBJIDm+0x1a0>
   11754:	00100413          	li	s0,1
   11758:	02c12083          	lw	ra,44(sp)
   1175c:	00040513          	mv	a0,s0
   11760:	02812403          	lw	s0,40(sp)
   11764:	02412483          	lw	s1,36(sp)
   11768:	02012903          	lw	s2,32(sp)
   1176c:	01c12983          	lw	s3,28(sp)
   11770:	01812a03          	lw	s4,24(sp)
   11774:	01412a83          	lw	s5,20(sp)
   11778:	01012b03          	lw	s6,16(sp)
   1177c:	00c12b83          	lw	s7,12(sp)
   11780:	00812c03          	lw	s8,8(sp)
   11784:	03010113          	addi	sp,sp,48
   11788:	00008067          	ret
   1178c:	01c92703          	lw	a4,28(s2)
   11790:	f8ea72e3          	bgeu	s4,a4,11714 <_ZL12create_chainP7FFOBJIDm+0x48>
   11794:	24078863          	beqz	a5,119e4 <_ZL12create_chainP7FFOBJIDm+0x318>
   11798:	001a0413          	addi	s0,s4,1
   1179c:	00090993          	mv	s3,s2
   117a0:	f8e468e3          	bltu	s0,a4,11730 <_ZL12create_chainP7FFOBJIDm+0x64>
   117a4:	00100793          	li	a5,1
   117a8:	22fa0e63          	beq	s4,a5,119e4 <_ZL12create_chainP7FFOBJIDm+0x318>
   117ac:	0004a983          	lw	s3,0(s1)
   117b0:	00200413          	li	s0,2
   117b4:	f7dff06f          	j	11730 <_ZL12create_chainP7FFOBJIDm+0x64>
   117b8:	00090513          	mv	a0,s2
   117bc:	d81ff0ef          	jal	ra,1153c <_ZL7get_fatP7FFOBJIDm.isra.0>
   117c0:	00100793          	li	a5,1
   117c4:	00050413          	mv	s0,a0
   117c8:	f8a7f6e3          	bgeu	a5,a0,11754 <_ZL12create_chainP7FFOBJIDm+0x88>
   117cc:	fff00793          	li	a5,-1
   117d0:	08f50a63          	beq	a0,a5,11864 <_ZL12create_chainP7FFOBJIDm+0x198>
   117d4:	01c92783          	lw	a5,28(s2)
   117d8:	f8f560e3          	bltu	a0,a5,11758 <_ZL12create_chainP7FFOBJIDm+0x8c>
   117dc:	01492703          	lw	a4,20(s2)
   117e0:	20070263          	beqz	a4,119e4 <_ZL12create_chainP7FFOBJIDm+0x318>
   117e4:	001b0993          	addi	s3,s6,1
   117e8:	00098413          	mv	s0,s3
   117ec:	00f9e463          	bltu	s3,a5,117f4 <_ZL12create_chainP7FFOBJIDm+0x128>
   117f0:	00200413          	li	s0,2
   117f4:	0004a503          	lw	a0,0(s1)
   117f8:	00040593          	mv	a1,s0
   117fc:	d41ff0ef          	jal	ra,1153c <_ZL7get_fatP7FFOBJIDm.isra.0>
   11800:	00100793          	li	a5,1
   11804:	f4f508e3          	beq	a0,a5,11754 <_ZL12create_chainP7FFOBJIDm+0x88>
   11808:	fff00713          	li	a4,-1
   1180c:	04e50c63          	beq	a0,a4,11864 <_ZL12create_chainP7FFOBJIDm+0x198>
   11810:	01c92703          	lw	a4,28(s2)
   11814:	1a051a63          	bnez	a0,119c8 <_ZL12create_chainP7FFOBJIDm+0x2fc>
   11818:	1e040463          	beqz	s0,11a00 <_ZL12create_chainP7FFOBJIDm+0x334>
   1181c:	f2e47ce3          	bgeu	s0,a4,11754 <_ZL12create_chainP7FFOBJIDm+0x88>
   11820:	fff00613          	li	a2,-1
   11824:	00040593          	mv	a1,s0
   11828:	00090513          	mv	a0,s2
   1182c:	b11ff0ef          	jal	ra,1133c <_ZL7put_fatP5FATFSmm.part.0>
   11830:	02051663          	bnez	a0,1185c <_ZL12create_chainP7FFOBJIDm+0x190>
   11834:	0c0b0063          	beqz	s6,118f4 <_ZL12create_chainP7FFOBJIDm+0x228>
   11838:	00100793          	li	a5,1
   1183c:	f0fb0ce3          	beq	s6,a5,11754 <_ZL12create_chainP7FFOBJIDm+0x88>
   11840:	01c92783          	lw	a5,28(s2)
   11844:	f0fb78e3          	bgeu	s6,a5,11754 <_ZL12create_chainP7FFOBJIDm+0x88>
   11848:	00040613          	mv	a2,s0
   1184c:	000b0593          	mv	a1,s6
   11850:	00090513          	mv	a0,s2
   11854:	ae9ff0ef          	jal	ra,1133c <_ZL7put_fatP5FATFSmm.part.0>
   11858:	08050e63          	beqz	a0,118f4 <_ZL12create_chainP7FFOBJIDm+0x228>
   1185c:	00100793          	li	a5,1
   11860:	eef51ae3          	bne	a0,a5,11754 <_ZL12create_chainP7FFOBJIDm+0x88>
   11864:	fff00413          	li	s0,-1
   11868:	ef1ff06f          	j	11758 <_ZL12create_chainP7FFOBJIDm+0x8c>
   1186c:	0289a783          	lw	a5,40(s3)
   11870:	00145b93          	srli	s7,s0,0x1
   11874:	008b8bb3          	add	s7,s7,s0
   11878:	009bd593          	srli	a1,s7,0x9
   1187c:	00f585b3          	add	a1,a1,a5
   11880:	00098513          	mv	a0,s3
   11884:	9e9ff0ef          	jal	ra,1126c <_ZL11move_windowP5FATFSm>
   11888:	fc051ee3          	bnez	a0,11864 <_ZL12create_chainP7FFOBJIDm+0x198>
   1188c:	0289a783          	lw	a5,40(s3)
   11890:	001b8c13          	addi	s8,s7,1
   11894:	009c5593          	srli	a1,s8,0x9
   11898:	1ffbfb93          	andi	s7,s7,511
   1189c:	01798bb3          	add	s7,s3,s7
   118a0:	00f585b3          	add	a1,a1,a5
   118a4:	00098513          	mv	a0,s3
   118a8:	038bcb83          	lbu	s7,56(s7)
   118ac:	9c1ff0ef          	jal	ra,1126c <_ZL11move_windowP5FATFSm>
   118b0:	fa051ae3          	bnez	a0,11864 <_ZL12create_chainP7FFOBJIDm+0x198>
   118b4:	1ffc7c13          	andi	s8,s8,511
   118b8:	01898c33          	add	s8,s3,s8
   118bc:	038c4783          	lbu	a5,56(s8)
   118c0:	00147713          	andi	a4,s0,1
   118c4:	00879793          	slli	a5,a5,0x8
   118c8:	0177e7b3          	or	a5,a5,s7
   118cc:	12070063          	beqz	a4,119ec <_ZL12create_chainP7FFOBJIDm+0x320>
   118d0:	0047d793          	srli	a5,a5,0x4
   118d4:	12078e63          	beqz	a5,11a10 <_ZL12create_chainP7FFOBJIDm+0x344>
   118d8:	e7578ee3          	beq	a5,s5,11754 <_ZL12create_chainP7FFOBJIDm+0x88>
   118dc:	11440463          	beq	s0,s4,119e4 <_ZL12create_chainP7FFOBJIDm+0x318>
   118e0:	01c92783          	lw	a5,28(s2)
   118e4:	00140413          	addi	s0,s0,1
   118e8:	eaf47ee3          	bgeu	s0,a5,117a4 <_ZL12create_chainP7FFOBJIDm+0xd8>
   118ec:	0004a983          	lw	s3,0(s1)
   118f0:	e41ff06f          	j	11730 <_ZL12create_chainP7FFOBJIDm+0x64>
   118f4:	01c92783          	lw	a5,28(s2)
   118f8:	01492703          	lw	a4,20(s2)
   118fc:	00892823          	sw	s0,16(s2)
   11900:	ffe78793          	addi	a5,a5,-2
   11904:	00e7e663          	bltu	a5,a4,11910 <_ZL12create_chainP7FFOBJIDm+0x244>
   11908:	fff70713          	addi	a4,a4,-1
   1190c:	00e92a23          	sw	a4,20(s2)
   11910:	00494783          	lbu	a5,4(s2)
   11914:	0017e793          	ori	a5,a5,1
   11918:	00f90223          	sb	a5,4(s2)
   1191c:	e3dff06f          	j	11758 <_ZL12create_chainP7FFOBJIDm+0x8c>
   11920:	0289a783          	lw	a5,40(s3)
   11924:	00845593          	srli	a1,s0,0x8
   11928:	00098513          	mv	a0,s3
   1192c:	00f585b3          	add	a1,a1,a5
   11930:	93dff0ef          	jal	ra,1126c <_ZL11move_windowP5FATFSm>
   11934:	f20518e3          	bnez	a0,11864 <_ZL12create_chainP7FFOBJIDm+0x198>
   11938:	00141793          	slli	a5,s0,0x1
   1193c:	1fe7f793          	andi	a5,a5,510
   11940:	00f987b3          	add	a5,s3,a5
   11944:	0397c703          	lbu	a4,57(a5)
   11948:	0387c683          	lbu	a3,56(a5)
   1194c:	00871793          	slli	a5,a4,0x8
   11950:	00d7e7b3          	or	a5,a5,a3
   11954:	0a078e63          	beqz	a5,11a10 <_ZL12create_chainP7FFOBJIDm+0x344>
   11958:	00100713          	li	a4,1
   1195c:	f8e790e3          	bne	a5,a4,118dc <_ZL12create_chainP7FFOBJIDm+0x210>
   11960:	df5ff06f          	j	11754 <_ZL12create_chainP7FFOBJIDm+0x88>
   11964:	0289a783          	lw	a5,40(s3)
   11968:	00745593          	srli	a1,s0,0x7
   1196c:	00098513          	mv	a0,s3
   11970:	00f585b3          	add	a1,a1,a5
   11974:	8f9ff0ef          	jal	ra,1126c <_ZL11move_windowP5FATFSm>
   11978:	ee0516e3          	bnez	a0,11864 <_ZL12create_chainP7FFOBJIDm+0x198>
   1197c:	00241793          	slli	a5,s0,0x2
   11980:	1fc7f793          	andi	a5,a5,508
   11984:	00f987b3          	add	a5,s3,a5
   11988:	0397c683          	lbu	a3,57(a5)
   1198c:	0387c603          	lbu	a2,56(a5)
   11990:	03a7c703          	lbu	a4,58(a5)
   11994:	03b7c783          	lbu	a5,59(a5)
   11998:	00869693          	slli	a3,a3,0x8
   1199c:	00c6e6b3          	or	a3,a3,a2
   119a0:	01071713          	slli	a4,a4,0x10
   119a4:	00d76733          	or	a4,a4,a3
   119a8:	01879793          	slli	a5,a5,0x18
   119ac:	00e7e7b3          	or	a5,a5,a4
   119b0:	00479793          	slli	a5,a5,0x4
   119b4:	0047d713          	srli	a4,a5,0x4
   119b8:	04078c63          	beqz	a5,11a10 <_ZL12create_chainP7FFOBJIDm+0x344>
   119bc:	00100793          	li	a5,1
   119c0:	f0f71ee3          	bne	a4,a5,118dc <_ZL12create_chainP7FFOBJIDm+0x210>
   119c4:	d91ff06f          	j	11754 <_ZL12create_chainP7FFOBJIDm+0x88>
   119c8:	01092a03          	lw	s4,16(s2)
   119cc:	0347fa63          	bgeu	a5,s4,11a00 <_ZL12create_chainP7FFOBJIDm+0x334>
   119d0:	02ea7863          	bgeu	s4,a4,11a00 <_ZL12create_chainP7FFOBJIDm+0x334>
   119d4:	001a0413          	addi	s0,s4,1
   119d8:	dce47ae3          	bgeu	s0,a4,117ac <_ZL12create_chainP7FFOBJIDm+0xe0>
   119dc:	0004a983          	lw	s3,0(s1)
   119e0:	d51ff06f          	j	11730 <_ZL12create_chainP7FFOBJIDm+0x64>
   119e4:	00000413          	li	s0,0
   119e8:	d71ff06f          	j	11758 <_ZL12create_chainP7FFOBJIDm+0x8c>
   119ec:	01479793          	slli	a5,a5,0x14
   119f0:	0147d713          	srli	a4,a5,0x14
   119f4:	00078e63          	beqz	a5,11a10 <_ZL12create_chainP7FFOBJIDm+0x344>
   119f8:	ef5712e3          	bne	a4,s5,118dc <_ZL12create_chainP7FFOBJIDm+0x210>
   119fc:	d59ff06f          	j	11754 <_ZL12create_chainP7FFOBJIDm+0x88>
   11a00:	00098413          	mv	s0,s3
   11a04:	00e9ea63          	bltu	s3,a4,11a18 <_ZL12create_chainP7FFOBJIDm+0x34c>
   11a08:	000b0a13          	mv	s4,s6
   11a0c:	d99ff06f          	j	117a4 <_ZL12create_chainP7FFOBJIDm+0xd8>
   11a10:	01c92703          	lw	a4,28(s2)
   11a14:	e09ff06f          	j	1181c <_ZL12create_chainP7FFOBJIDm+0x150>
   11a18:	00100793          	li	a5,1
   11a1c:	0004a983          	lw	s3,0(s1)
   11a20:	d287fae3          	bgeu	a5,s0,11754 <_ZL12create_chainP7FFOBJIDm+0x88>
   11a24:	000b0a13          	mv	s4,s6
   11a28:	d09ff06f          	j	11730 <_ZL12create_chainP7FFOBJIDm+0x64>

00011a2c <f_read>:
   11a2c:	fc010113          	addi	sp,sp,-64
   11a30:	02112e23          	sw	ra,60(sp)
   11a34:	02812c23          	sw	s0,56(sp)
   11a38:	02912a23          	sw	s1,52(sp)
   11a3c:	03212823          	sw	s2,48(sp)
   11a40:	03312623          	sw	s3,44(sp)
   11a44:	03412423          	sw	s4,40(sp)
   11a48:	03512223          	sw	s5,36(sp)
   11a4c:	03612023          	sw	s6,32(sp)
   11a50:	01712e23          	sw	s7,28(sp)
   11a54:	01812c23          	sw	s8,24(sp)
   11a58:	01912a23          	sw	s9,20(sp)
   11a5c:	01a12823          	sw	s10,16(sp)
   11a60:	0006a023          	sw	zero,0(a3) # f0000000 <__BSS_END__+0xeffe4980>
   11a64:	02050463          	beqz	a0,11a8c <f_read+0x60>
   11a68:	00052783          	lw	a5,0(a0)
   11a6c:	00050413          	mv	s0,a0
   11a70:	00078e63          	beqz	a5,11a8c <f_read+0x60>
   11a74:	0007c703          	lbu	a4,0(a5)
   11a78:	00070a63          	beqz	a4,11a8c <f_read+0x60>
   11a7c:	00068913          	mv	s2,a3
   11a80:	0067d703          	lhu	a4,6(a5)
   11a84:	00455683          	lhu	a3,4(a0)
   11a88:	04e68263          	beq	a3,a4,11acc <f_read+0xa0>
   11a8c:	00900c93          	li	s9,9
   11a90:	03c12083          	lw	ra,60(sp)
   11a94:	03812403          	lw	s0,56(sp)
   11a98:	03412483          	lw	s1,52(sp)
   11a9c:	03012903          	lw	s2,48(sp)
   11aa0:	02c12983          	lw	s3,44(sp)
   11aa4:	02812a03          	lw	s4,40(sp)
   11aa8:	02412a83          	lw	s5,36(sp)
   11aac:	02012b03          	lw	s6,32(sp)
   11ab0:	01c12b83          	lw	s7,28(sp)
   11ab4:	01812c03          	lw	s8,24(sp)
   11ab8:	01012d03          	lw	s10,16(sp)
   11abc:	000c8513          	mv	a0,s9
   11ac0:	01412c83          	lw	s9,20(sp)
   11ac4:	04010113          	addi	sp,sp,64
   11ac8:	00008067          	ret
   11acc:	0017c503          	lbu	a0,1(a5)
   11ad0:	00058b93          	mv	s7,a1
   11ad4:	00c12623          	sw	a2,12(sp)
   11ad8:	351000ef          	jal	ra,12628 <disk_status>
   11adc:	00157513          	andi	a0,a0,1
   11ae0:	fa0516e3          	bnez	a0,11a8c <f_read+0x60>
   11ae4:	01144c83          	lbu	s9,17(s0)
   11ae8:	fa0c94e3          	bnez	s9,11a90 <f_read+0x64>
   11aec:	01044783          	lbu	a5,16(s0)
   11af0:	0017f793          	andi	a5,a5,1
   11af4:	1c078063          	beqz	a5,11cb4 <f_read+0x288>
   11af8:	01442703          	lw	a4,20(s0)
   11afc:	00c42a83          	lw	s5,12(s0)
   11b00:	00c12603          	lw	a2,12(sp)
   11b04:	00042d03          	lw	s10,0(s0)
   11b08:	40ea8ab3          	sub	s5,s5,a4
   11b0c:	01567463          	bgeu	a2,s5,11b14 <f_read+0xe8>
   11b10:	00060a93          	mv	s5,a2
   11b14:	20000993          	li	s3,512
   11b18:	1ff00a13          	li	s4,511
   11b1c:	f60a8ae3          	beqz	s5,11a90 <f_read+0x64>
   11b20:	1ff77593          	andi	a1,a4,511
   11b24:	02c40b13          	addi	s6,s0,44
   11b28:	0a059663          	bnez	a1,11bd4 <f_read+0x1a8>
   11b2c:	00ad5c03          	lhu	s8,10(s10)
   11b30:	00975793          	srli	a5,a4,0x9
   11b34:	fffc0c13          	addi	s8,s8,-1
   11b38:	00fc7c33          	and	s8,s8,a5
   11b3c:	0a0c0c63          	beqz	s8,11bf4 <f_read+0x1c8>
   11b40:	01842503          	lw	a0,24(s0)
   11b44:	01cd2703          	lw	a4,28(s10)
   11b48:	ffe50793          	addi	a5,a0,-2
   11b4c:	ffe70713          	addi	a4,a4,-2
   11b50:	0ce7f863          	bgeu	a5,a4,11c20 <f_read+0x1f4>
   11b54:	00ad5703          	lhu	a4,10(s10)
   11b58:	030d2683          	lw	a3,48(s10)
   11b5c:	02e787b3          	mul	a5,a5,a4
   11b60:	00d787b3          	add	a5,a5,a3
   11b64:	0a078e63          	beqz	a5,11c20 <f_read+0x1f4>
   11b68:	00fc04b3          	add	s1,s8,a5
   11b6c:	0d5a7263          	bgeu	s4,s5,11c30 <f_read+0x204>
   11b70:	009adb13          	srli	s6,s5,0x9
   11b74:	016c07b3          	add	a5,s8,s6
   11b78:	00f77463          	bgeu	a4,a5,11b80 <f_read+0x154>
   11b7c:	41870b33          	sub	s6,a4,s8
   11b80:	001d4503          	lbu	a0,1(s10)
   11b84:	000b0693          	mv	a3,s6
   11b88:	00048613          	mv	a2,s1
   11b8c:	000b8593          	mv	a1,s7
   11b90:	2a5000ef          	jal	ra,12634 <disk_read>
   11b94:	10051863          	bnez	a0,11ca4 <f_read+0x278>
   11b98:	01040783          	lb	a5,16(s0)
   11b9c:	1407c863          	bltz	a5,11cec <f_read+0x2c0>
   11ba0:	009b1493          	slli	s1,s6,0x9
   11ba4:	00092783          	lw	a5,0(s2)
   11ba8:	01442703          	lw	a4,20(s0)
   11bac:	409a8ab3          	sub	s5,s5,s1
   11bb0:	009787b3          	add	a5,a5,s1
   11bb4:	00f92023          	sw	a5,0(s2)
   11bb8:	00e48733          	add	a4,s1,a4
   11bbc:	00e42a23          	sw	a4,20(s0)
   11bc0:	009b8bb3          	add	s7,s7,s1
   11bc4:	ec0a86e3          	beqz	s5,11a90 <f_read+0x64>
   11bc8:	1ff77593          	andi	a1,a4,511
   11bcc:	02c40b13          	addi	s6,s0,44
   11bd0:	f4058ee3          	beqz	a1,11b2c <f_read+0x100>
   11bd4:	40b984b3          	sub	s1,s3,a1
   11bd8:	009af463          	bgeu	s5,s1,11be0 <f_read+0x1b4>
   11bdc:	000a8493          	mv	s1,s5
   11be0:	00048613          	mv	a2,s1
   11be4:	00bb05b3          	add	a1,s6,a1
   11be8:	000b8513          	mv	a0,s7
   11bec:	30c010ef          	jal	ra,12ef8 <memcpy>
   11bf0:	fb5ff06f          	j	11ba4 <f_read+0x178>
   11bf4:	06071c63          	bnez	a4,11c6c <f_read+0x240>
   11bf8:	00842503          	lw	a0,8(s0)
   11bfc:	00100793          	li	a5,1
   11c00:	02a7f063          	bgeu	a5,a0,11c20 <f_read+0x1f4>
   11c04:	fff00793          	li	a5,-1
   11c08:	08f50e63          	beq	a0,a5,11ca4 <f_read+0x278>
   11c0c:	00a42c23          	sw	a0,24(s0)
   11c10:	01cd2703          	lw	a4,28(s10)
   11c14:	ffe50793          	addi	a5,a0,-2
   11c18:	ffe70713          	addi	a4,a4,-2
   11c1c:	f2e7ece3          	bltu	a5,a4,11b54 <f_read+0x128>
   11c20:	00200793          	li	a5,2
   11c24:	00f408a3          	sb	a5,17(s0)
   11c28:	00200c93          	li	s9,2
   11c2c:	e65ff06f          	j	11a90 <f_read+0x64>
   11c30:	01c42603          	lw	a2,28(s0)
   11c34:	02c40b13          	addi	s6,s0,44
   11c38:	02960263          	beq	a2,s1,11c5c <f_read+0x230>
   11c3c:	01040783          	lb	a5,16(s0)
   11c40:	001d4503          	lbu	a0,1(s10)
   11c44:	0807c263          	bltz	a5,11cc8 <f_read+0x29c>
   11c48:	00100693          	li	a3,1
   11c4c:	00048613          	mv	a2,s1
   11c50:	000b0593          	mv	a1,s6
   11c54:	1e1000ef          	jal	ra,12634 <disk_read>
   11c58:	04051663          	bnez	a0,11ca4 <f_read+0x278>
   11c5c:	01442783          	lw	a5,20(s0)
   11c60:	00942e23          	sw	s1,28(s0)
   11c64:	1ff7f593          	andi	a1,a5,511
   11c68:	f6dff06f          	j	11bd4 <f_read+0x1a8>
   11c6c:	02842683          	lw	a3,40(s0)
   11c70:	00042503          	lw	a0,0(s0)
   11c74:	04068463          	beqz	a3,11cbc <f_read+0x290>
   11c78:	00a55603          	lhu	a2,10(a0)
   11c7c:	0046a703          	lw	a4,4(a3)
   11c80:	00468693          	addi	a3,a3,4
   11c84:	02c7d7b3          	divu	a5,a5,a2
   11c88:	f8070ce3          	beqz	a4,11c20 <f_read+0x1f4>
   11c8c:	08e7e263          	bltu	a5,a4,11d10 <f_read+0x2e4>
   11c90:	00868693          	addi	a3,a3,8
   11c94:	40e787b3          	sub	a5,a5,a4
   11c98:	0006a703          	lw	a4,0(a3)
   11c9c:	fe0718e3          	bnez	a4,11c8c <f_read+0x260>
   11ca0:	f81ff06f          	j	11c20 <f_read+0x1f4>
   11ca4:	00100793          	li	a5,1
   11ca8:	00f408a3          	sb	a5,17(s0)
   11cac:	00100c93          	li	s9,1
   11cb0:	de1ff06f          	j	11a90 <f_read+0x64>
   11cb4:	00700c93          	li	s9,7
   11cb8:	dd9ff06f          	j	11a90 <f_read+0x64>
   11cbc:	01842583          	lw	a1,24(s0)
   11cc0:	87dff0ef          	jal	ra,1153c <_ZL7get_fatP7FFOBJIDm.isra.0>
   11cc4:	f39ff06f          	j	11bfc <f_read+0x1d0>
   11cc8:	00100693          	li	a3,1
   11ccc:	000b0593          	mv	a1,s6
   11cd0:	1a5000ef          	jal	ra,12674 <disk_write>
   11cd4:	fc0518e3          	bnez	a0,11ca4 <f_read+0x278>
   11cd8:	01044783          	lbu	a5,16(s0)
   11cdc:	07f7f793          	andi	a5,a5,127
   11ce0:	00f40823          	sb	a5,16(s0)
   11ce4:	001d4503          	lbu	a0,1(s10)
   11ce8:	f61ff06f          	j	11c48 <f_read+0x21c>
   11cec:	01c42783          	lw	a5,28(s0)
   11cf0:	409787b3          	sub	a5,a5,s1
   11cf4:	eb67f6e3          	bgeu	a5,s6,11ba0 <f_read+0x174>
   11cf8:	00979793          	slli	a5,a5,0x9
   11cfc:	20000613          	li	a2,512
   11d00:	02c40593          	addi	a1,s0,44
   11d04:	00fb8533          	add	a0,s7,a5
   11d08:	1f0010ef          	jal	ra,12ef8 <memcpy>
   11d0c:	e95ff06f          	j	11ba0 <f_read+0x174>
   11d10:	0046a703          	lw	a4,4(a3)
   11d14:	00e78533          	add	a0,a5,a4
   11d18:	ee5ff06f          	j	11bfc <f_read+0x1d0>

00011d1c <f_close>:
   11d1c:	04050a63          	beqz	a0,11d70 <f_close+0x54>
   11d20:	00052783          	lw	a5,0(a0)
   11d24:	ff010113          	addi	sp,sp,-16
   11d28:	00812423          	sw	s0,8(sp)
   11d2c:	00112623          	sw	ra,12(sp)
   11d30:	00912223          	sw	s1,4(sp)
   11d34:	01212023          	sw	s2,0(sp)
   11d38:	00050413          	mv	s0,a0
   11d3c:	00078c63          	beqz	a5,11d54 <f_close+0x38>
   11d40:	0007c703          	lbu	a4,0(a5)
   11d44:	00070863          	beqz	a4,11d54 <f_close+0x38>
   11d48:	00455683          	lhu	a3,4(a0)
   11d4c:	0067d703          	lhu	a4,6(a5)
   11d50:	02e68463          	beq	a3,a4,11d78 <f_close+0x5c>
   11d54:	00900513          	li	a0,9
   11d58:	00c12083          	lw	ra,12(sp)
   11d5c:	00812403          	lw	s0,8(sp)
   11d60:	00412483          	lw	s1,4(sp)
   11d64:	00012903          	lw	s2,0(sp)
   11d68:	01010113          	addi	sp,sp,16
   11d6c:	00008067          	ret
   11d70:	00900513          	li	a0,9
   11d74:	00008067          	ret
   11d78:	0017c503          	lbu	a0,1(a5)
   11d7c:	0ad000ef          	jal	ra,12628 <disk_status>
   11d80:	00157513          	andi	a0,a0,1
   11d84:	fc0518e3          	bnez	a0,11d54 <f_close+0x38>
   11d88:	01044783          	lbu	a5,16(s0)
   11d8c:	00042483          	lw	s1,0(s0)
   11d90:	0407f713          	andi	a4,a5,64
   11d94:	14070263          	beqz	a4,11ed8 <f_close+0x1bc>
   11d98:	01879793          	slli	a5,a5,0x18
   11d9c:	4187d793          	srai	a5,a5,0x18
   11da0:	1607ce63          	bltz	a5,11f1c <f_close+0x200>
   11da4:	02042583          	lw	a1,32(s0)
   11da8:	00048513          	mv	a0,s1
   11dac:	cc0ff0ef          	jal	ra,1126c <_ZL11move_windowP5FATFSm>
   11db0:	fa0514e3          	bnez	a0,11d58 <f_close+0x3c>
   11db4:	02442783          	lw	a5,36(s0)
   11db8:	00300613          	li	a2,3
   11dbc:	00b7c703          	lbu	a4,11(a5)
   11dc0:	02076713          	ori	a4,a4,32
   11dc4:	00e785a3          	sb	a4,11(a5)
   11dc8:	00842703          	lw	a4,8(s0)
   11dcc:	00042583          	lw	a1,0(s0)
   11dd0:	01071693          	slli	a3,a4,0x10
   11dd4:	0106d693          	srli	a3,a3,0x10
   11dd8:	0086d693          	srli	a3,a3,0x8
   11ddc:	00e78d23          	sb	a4,26(a5)
   11de0:	00d78da3          	sb	a3,27(a5)
   11de4:	0005c683          	lbu	a3,0(a1)
   11de8:	00c69a63          	bne	a3,a2,11dfc <f_close+0xe0>
   11dec:	01075713          	srli	a4,a4,0x10
   11df0:	00875693          	srli	a3,a4,0x8
   11df4:	00e78a23          	sb	a4,20(a5)
   11df8:	00d78aa3          	sb	a3,21(a5)
   11dfc:	00c42703          	lw	a4,12(s0)
   11e00:	00078b23          	sb	zero,22(a5)
   11e04:	00078ba3          	sb	zero,23(a5)
   11e08:	00e78e23          	sb	a4,28(a5)
   11e0c:	00875593          	srli	a1,a4,0x8
   11e10:	01075613          	srli	a2,a4,0x10
   11e14:	01875693          	srli	a3,a4,0x18
   11e18:	02100713          	li	a4,33
   11e1c:	00e78c23          	sb	a4,24(a5)
   11e20:	05200713          	li	a4,82
   11e24:	00b78ea3          	sb	a1,29(a5)
   11e28:	00d78fa3          	sb	a3,31(a5)
   11e2c:	00c78f23          	sb	a2,30(a5)
   11e30:	00e78ca3          	sb	a4,25(a5)
   11e34:	00078923          	sb	zero,18(a5)
   11e38:	000789a3          	sb	zero,19(a5)
   11e3c:	0344a603          	lw	a2,52(s1)
   11e40:	0014c503          	lbu	a0,1(s1)
   11e44:	03848913          	addi	s2,s1,56
   11e48:	00100793          	li	a5,1
   11e4c:	00f481a3          	sb	a5,3(s1)
   11e50:	00100693          	li	a3,1
   11e54:	00090593          	mv	a1,s2
   11e58:	01d000ef          	jal	ra,12674 <disk_write>
   11e5c:	0e051463          	bnez	a0,11f44 <f_close+0x228>
   11e60:	0344a603          	lw	a2,52(s1)
   11e64:	0284a783          	lw	a5,40(s1)
   11e68:	0204a703          	lw	a4,32(s1)
   11e6c:	000481a3          	sb	zero,3(s1)
   11e70:	40f607b3          	sub	a5,a2,a5
   11e74:	02e7f263          	bgeu	a5,a4,11e98 <f_close+0x17c>
   11e78:	0024c683          	lbu	a3,2(s1)
   11e7c:	00200793          	li	a5,2
   11e80:	00f69c63          	bne	a3,a5,11e98 <f_close+0x17c>
   11e84:	0014c503          	lbu	a0,1(s1)
   11e88:	00100693          	li	a3,1
   11e8c:	00e60633          	add	a2,a2,a4
   11e90:	00090593          	mv	a1,s2
   11e94:	7e0000ef          	jal	ra,12674 <disk_write>
   11e98:	0004c703          	lbu	a4,0(s1)
   11e9c:	00300793          	li	a5,3
   11ea0:	0af70c63          	beq	a4,a5,11f58 <f_close+0x23c>
   11ea4:	0014c503          	lbu	a0,1(s1)
   11ea8:	00000613          	li	a2,0
   11eac:	00000593          	li	a1,0
   11eb0:	005000ef          	jal	ra,126b4 <disk_ioctl>
   11eb4:	01044783          	lbu	a5,16(s0)
   11eb8:	00050a63          	beqz	a0,11ecc <f_close+0x1b0>
   11ebc:	fbf7f793          	andi	a5,a5,-65
   11ec0:	00f40823          	sb	a5,16(s0)
   11ec4:	00100513          	li	a0,1
   11ec8:	e91ff06f          	j	11d58 <f_close+0x3c>
   11ecc:	00042483          	lw	s1,0(s0)
   11ed0:	fbf7f793          	andi	a5,a5,-65
   11ed4:	00f40823          	sb	a5,16(s0)
   11ed8:	e6048ee3          	beqz	s1,11d54 <f_close+0x38>
   11edc:	0004c783          	lbu	a5,0(s1)
   11ee0:	e6078ae3          	beqz	a5,11d54 <f_close+0x38>
   11ee4:	00445703          	lhu	a4,4(s0)
   11ee8:	0064d783          	lhu	a5,6(s1)
   11eec:	e6f714e3          	bne	a4,a5,11d54 <f_close+0x38>
   11ef0:	0014c503          	lbu	a0,1(s1)
   11ef4:	734000ef          	jal	ra,12628 <disk_status>
   11ef8:	00157513          	andi	a0,a0,1
   11efc:	e4051ce3          	bnez	a0,11d54 <f_close+0x38>
   11f00:	00c12083          	lw	ra,12(sp)
   11f04:	00042023          	sw	zero,0(s0)
   11f08:	00812403          	lw	s0,8(sp)
   11f0c:	00412483          	lw	s1,4(sp)
   11f10:	00012903          	lw	s2,0(sp)
   11f14:	01010113          	addi	sp,sp,16
   11f18:	00008067          	ret
   11f1c:	01c42603          	lw	a2,28(s0)
   11f20:	0014c503          	lbu	a0,1(s1)
   11f24:	00100693          	li	a3,1
   11f28:	02c40593          	addi	a1,s0,44
   11f2c:	748000ef          	jal	ra,12674 <disk_write>
   11f30:	f8051ae3          	bnez	a0,11ec4 <f_close+0x1a8>
   11f34:	01044783          	lbu	a5,16(s0)
   11f38:	07f7f793          	andi	a5,a5,127
   11f3c:	00f40823          	sb	a5,16(s0)
   11f40:	e65ff06f          	j	11da4 <f_close+0x88>
   11f44:	01044783          	lbu	a5,16(s0)
   11f48:	00100513          	li	a0,1
   11f4c:	fbf7f793          	andi	a5,a5,-65
   11f50:	00f40823          	sb	a5,16(s0)
   11f54:	e05ff06f          	j	11d58 <f_close+0x3c>
   11f58:	0044c703          	lbu	a4,4(s1)
   11f5c:	00100793          	li	a5,1
   11f60:	f4f712e3          	bne	a4,a5,11ea4 <f_close+0x188>
   11f64:	20000613          	li	a2,512
   11f68:	00000593          	li	a1,0
   11f6c:	00090513          	mv	a0,s2
   11f70:	12c010ef          	jal	ra,1309c <memset>
   11f74:	0104a683          	lw	a3,16(s1)
   11f78:	0144a603          	lw	a2,20(s1)
   11f7c:	ff0108b7          	lui	a7,0xff010
   11f80:	0086d593          	srli	a1,a3,0x8
   11f84:	00865513          	srli	a0,a2,0x8
   11f88:	0ff5f593          	zext.b	a1,a1
   11f8c:	00859593          	slli	a1,a1,0x8
   11f90:	0ff6f793          	zext.b	a5,a3
   11f94:	0ff57513          	zext.b	a0,a0
   11f98:	fff88893          	addi	a7,a7,-1 # ff00ffff <__BSS_END__+0xfeff497f>
   11f9c:	00851513          	slli	a0,a0,0x8
   11fa0:	0ff67713          	zext.b	a4,a2
   11fa4:	00b7e7b3          	or	a5,a5,a1
   11fa8:	00ff05b7          	lui	a1,0xff0
   11fac:	00b6f5b3          	and	a1,a3,a1
   11fb0:	00a76733          	or	a4,a4,a0
   11fb4:	0117f7b3          	and	a5,a5,a7
   11fb8:	01000537          	lui	a0,0x1000
   11fbc:	fff50513          	addi	a0,a0,-1 # ffffff <__BSS_END__+0xfe497f>
   11fc0:	00b7e7b3          	or	a5,a5,a1
   11fc4:	0186d693          	srli	a3,a3,0x18
   11fc8:	01869693          	slli	a3,a3,0x18
   11fcc:	00a7f7b3          	and	a5,a5,a0
   11fd0:	00d7e7b3          	or	a5,a5,a3
   11fd4:	ffffb6b7          	lui	a3,0xffffb
   11fd8:	a5568693          	addi	a3,a3,-1451 # ffffaa55 <__BSS_END__+0xfffdf3d5>
   11fdc:	00ff0337          	lui	t1,0xff0
   11fe0:	00667333          	and	t1,a2,t1
   11fe4:	0244a803          	lw	a6,36(s1)
   11fe8:	01177733          	and	a4,a4,a7
   11fec:	22d49b23          	sh	a3,566(s1)
   11ff0:	416156b7          	lui	a3,0x41615
   11ff4:	00676733          	or	a4,a4,t1
   11ff8:	01865613          	srli	a2,a2,0x18
   11ffc:	25268693          	addi	a3,a3,594 # 41615252 <__BSS_END__+0x415f9bd2>
   12000:	01861593          	slli	a1,a2,0x18
   12004:	00a77733          	and	a4,a4,a0
   12008:	02d4ac23          	sw	a3,56(s1)
   1200c:	0014c503          	lbu	a0,1(s1)
   12010:	614176b7          	lui	a3,0x61417
   12014:	00b76733          	or	a4,a4,a1
   12018:	00180613          	addi	a2,a6,1
   1201c:	27268693          	addi	a3,a3,626 # 61417272 <__BSS_END__+0x613fbbf2>
   12020:	20d4ae23          	sw	a3,540(s1)
   12024:	22e4a023          	sw	a4,544(s1)
   12028:	22f4a223          	sw	a5,548(s1)
   1202c:	02c4aa23          	sw	a2,52(s1)
   12030:	00100693          	li	a3,1
   12034:	00090593          	mv	a1,s2
   12038:	63c000ef          	jal	ra,12674 <disk_write>
   1203c:	00048223          	sb	zero,4(s1)
   12040:	e65ff06f          	j	11ea4 <f_close+0x188>

00012044 <f_lseek>:
   12044:	fa010113          	addi	sp,sp,-96
   12048:	04112e23          	sw	ra,92(sp)
   1204c:	04812c23          	sw	s0,88(sp)
   12050:	04912a23          	sw	s1,84(sp)
   12054:	05212823          	sw	s2,80(sp)
   12058:	05312623          	sw	s3,76(sp)
   1205c:	05412423          	sw	s4,72(sp)
   12060:	05512223          	sw	s5,68(sp)
   12064:	05612023          	sw	s6,64(sp)
   12068:	03712e23          	sw	s7,60(sp)
   1206c:	03812c23          	sw	s8,56(sp)
   12070:	03912a23          	sw	s9,52(sp)
   12074:	03a12823          	sw	s10,48(sp)
   12078:	03b12623          	sw	s11,44(sp)
   1207c:	02050263          	beqz	a0,120a0 <f_lseek+0x5c>
   12080:	00052703          	lw	a4,0(a0)
   12084:	00050d13          	mv	s10,a0
   12088:	00070c63          	beqz	a4,120a0 <f_lseek+0x5c>
   1208c:	00074683          	lbu	a3,0(a4)
   12090:	00068863          	beqz	a3,120a0 <f_lseek+0x5c>
   12094:	00455603          	lhu	a2,4(a0)
   12098:	00675683          	lhu	a3,6(a4)
   1209c:	04d60463          	beq	a2,a3,120e4 <f_lseek+0xa0>
   120a0:	00900d93          	li	s11,9
   120a4:	05c12083          	lw	ra,92(sp)
   120a8:	05812403          	lw	s0,88(sp)
   120ac:	05412483          	lw	s1,84(sp)
   120b0:	05012903          	lw	s2,80(sp)
   120b4:	04c12983          	lw	s3,76(sp)
   120b8:	04812a03          	lw	s4,72(sp)
   120bc:	04412a83          	lw	s5,68(sp)
   120c0:	04012b03          	lw	s6,64(sp)
   120c4:	03c12b83          	lw	s7,60(sp)
   120c8:	03812c03          	lw	s8,56(sp)
   120cc:	03412c83          	lw	s9,52(sp)
   120d0:	03012d03          	lw	s10,48(sp)
   120d4:	000d8513          	mv	a0,s11
   120d8:	02c12d83          	lw	s11,44(sp)
   120dc:	06010113          	addi	sp,sp,96
   120e0:	00008067          	ret
   120e4:	00174503          	lbu	a0,1(a4)
   120e8:	00058413          	mv	s0,a1
   120ec:	53c000ef          	jal	ra,12628 <disk_status>
   120f0:	00157513          	andi	a0,a0,1
   120f4:	fa0516e3          	bnez	a0,120a0 <f_lseek+0x5c>
   120f8:	011d4d83          	lbu	s11,17(s10)
   120fc:	fa0d94e3          	bnez	s11,120a4 <f_lseek+0x60>
   12100:	028d2703          	lw	a4,40(s10)
   12104:	000d2c83          	lw	s9,0(s10)
   12108:	0a070c63          	beqz	a4,121c0 <f_lseek+0x17c>
   1210c:	fff00693          	li	a3,-1
   12110:	1cd40a63          	beq	s0,a3,122e4 <f_lseek+0x2a0>
   12114:	00cd2583          	lw	a1,12(s10)
   12118:	00b47463          	bgeu	s0,a1,12120 <f_lseek+0xdc>
   1211c:	00040593          	mv	a1,s0
   12120:	00bd2a23          	sw	a1,20(s10)
   12124:	f80580e3          	beqz	a1,120a4 <f_lseek+0x60>
   12128:	00acd503          	lhu	a0,10(s9)
   1212c:	00472683          	lw	a3,4(a4)
   12130:	fff58313          	addi	t1,a1,-1 # feffff <__BSS_END__+0xfd497f>
   12134:	00935313          	srli	t1,t1,0x9
   12138:	02a35633          	divu	a2,t1,a0
   1213c:	00470713          	addi	a4,a4,4
   12140:	00068c63          	beqz	a3,12158 <f_lseek+0x114>
   12144:	3ed66063          	bltu	a2,a3,12524 <f_lseek+0x4e0>
   12148:	00870713          	addi	a4,a4,8
   1214c:	40d60633          	sub	a2,a2,a3
   12150:	00072683          	lw	a3,0(a4)
   12154:	fe0698e3          	bnez	a3,12144 <f_lseek+0x100>
   12158:	ffe00713          	li	a4,-2
   1215c:	00dd2c23          	sw	a3,24(s10)
   12160:	01cca683          	lw	a3,28(s9)
   12164:	ffe68693          	addi	a3,a3,-2
   12168:	18d77e63          	bgeu	a4,a3,12304 <f_lseek+0x2c0>
   1216c:	02e50733          	mul	a4,a0,a4
   12170:	030ca683          	lw	a3,48(s9)
   12174:	00d70733          	add	a4,a4,a3
   12178:	18070663          	beqz	a4,12304 <f_lseek+0x2c0>
   1217c:	1ff5f593          	andi	a1,a1,511
   12180:	f20582e3          	beqz	a1,120a4 <f_lseek+0x60>
   12184:	fff50413          	addi	s0,a0,-1
   12188:	01cd2603          	lw	a2,28(s10)
   1218c:	00647433          	and	s0,s0,t1
   12190:	00e40433          	add	s0,s0,a4
   12194:	f08608e3          	beq	a2,s0,120a4 <f_lseek+0x60>
   12198:	010d0703          	lb	a4,16(s10)
   1219c:	001cc503          	lbu	a0,1(s9)
   121a0:	02cd0593          	addi	a1,s10,44
   121a4:	44074663          	bltz	a4,125f0 <f_lseek+0x5ac>
   121a8:	00100693          	li	a3,1
   121ac:	00040613          	mv	a2,s0
   121b0:	484000ef          	jal	ra,12634 <disk_read>
   121b4:	2a051e63          	bnez	a0,12470 <f_lseek+0x42c>
   121b8:	008d2e23          	sw	s0,28(s10)
   121bc:	ee9ff06f          	j	120a4 <f_lseek+0x60>
   121c0:	00cd2683          	lw	a3,12(s10)
   121c4:	014d2703          	lw	a4,20(s10)
   121c8:	0086fa63          	bgeu	a3,s0,121dc <f_lseek+0x198>
   121cc:	010d4603          	lbu	a2,16(s10)
   121d0:	00267613          	andi	a2,a2,2
   121d4:	18061663          	bnez	a2,12360 <f_lseek+0x31c>
   121d8:	00068413          	mv	s0,a3
   121dc:	000d2a23          	sw	zero,20(s10)
   121e0:	ec0402e3          	beqz	s0,120a4 <f_lseek+0x60>
   121e4:	00acd903          	lhu	s2,10(s9)
   121e8:	00991913          	slli	s2,s2,0x9
   121ec:	14071263          	bnez	a4,12330 <f_lseek+0x2ec>
   121f0:	008d2483          	lw	s1,8(s10)
   121f4:	36048a63          	beqz	s1,12568 <f_lseek+0x524>
   121f8:	009d2c23          	sw	s1,24(s10)
   121fc:	00000713          	li	a4,0
   12200:	fff00993          	li	s3,-1
   12204:	00100a13          	li	s4,1
   12208:	40897c63          	bgeu	s2,s0,12620 <f_lseek+0x5dc>
   1220c:	010d4683          	lbu	a3,16(s10)
   12210:	00e90733          	add	a4,s2,a4
   12214:	00ed2a23          	sw	a4,20(s10)
   12218:	0026f713          	andi	a4,a3,2
   1221c:	00048593          	mv	a1,s1
   12220:	000d0513          	mv	a0,s10
   12224:	41240433          	sub	s0,s0,s2
   12228:	22070c63          	beqz	a4,12460 <f_lseek+0x41c>
   1222c:	ca0ff0ef          	jal	ra,116cc <_ZL12create_chainP7FFOBJIDm>
   12230:	00050493          	mv	s1,a0
   12234:	22050263          	beqz	a0,12458 <f_lseek+0x414>
   12238:	23348c63          	beq	s1,s3,12470 <f_lseek+0x42c>
   1223c:	0c9a7463          	bgeu	s4,s1,12304 <f_lseek+0x2c0>
   12240:	01cca703          	lw	a4,28(s9)
   12244:	0ce4f063          	bgeu	s1,a4,12304 <f_lseek+0x2c0>
   12248:	014d2683          	lw	a3,20(s10)
   1224c:	009d2c23          	sw	s1,24(s10)
   12250:	00068713          	mv	a4,a3
   12254:	fa896ce3          	bltu	s2,s0,1220c <f_lseek+0x1c8>
   12258:	00d40733          	add	a4,s0,a3
   1225c:	1ff47613          	andi	a2,s0,511
   12260:	00ed2a23          	sw	a4,20(s10)
   12264:	3a060a63          	beqz	a2,12618 <f_lseek+0x5d4>
   12268:	01cca683          	lw	a3,28(s9)
   1226c:	ffe48613          	addi	a2,s1,-2
   12270:	ffe68693          	addi	a3,a3,-2
   12274:	08d67863          	bgeu	a2,a3,12304 <f_lseek+0x2c0>
   12278:	00acd483          	lhu	s1,10(s9)
   1227c:	030ca683          	lw	a3,48(s9)
   12280:	02c484b3          	mul	s1,s1,a2
   12284:	00d484b3          	add	s1,s1,a3
   12288:	06048e63          	beqz	s1,12304 <f_lseek+0x2c0>
   1228c:	00945413          	srli	s0,s0,0x9
   12290:	009404b3          	add	s1,s0,s1
   12294:	00cd2683          	lw	a3,12(s10)
   12298:	00e6fa63          	bgeu	a3,a4,122ac <f_lseek+0x268>
   1229c:	010d4683          	lbu	a3,16(s10)
   122a0:	00ed2623          	sw	a4,12(s10)
   122a4:	0406e693          	ori	a3,a3,64
   122a8:	00dd0823          	sb	a3,16(s10)
   122ac:	1ff77713          	andi	a4,a4,511
   122b0:	de070ae3          	beqz	a4,120a4 <f_lseek+0x60>
   122b4:	01cd2603          	lw	a2,28(s10)
   122b8:	de9606e3          	beq	a2,s1,120a4 <f_lseek+0x60>
   122bc:	010d0703          	lb	a4,16(s10)
   122c0:	001cc503          	lbu	a0,1(s9)
   122c4:	02cd0593          	addi	a1,s10,44
   122c8:	2c074a63          	bltz	a4,1259c <f_lseek+0x558>
   122cc:	00100693          	li	a3,1
   122d0:	00048613          	mv	a2,s1
   122d4:	360000ef          	jal	ra,12634 <disk_read>
   122d8:	18051c63          	bnez	a0,12470 <f_lseek+0x42c>
   122dc:	009d2e23          	sw	s1,28(s10)
   122e0:	dc5ff06f          	j	120a4 <f_lseek+0x60>
   122e4:	00072783          	lw	a5,0(a4)
   122e8:	008d2403          	lw	s0,8(s10)
   122ec:	00f12623          	sw	a5,12(sp)
   122f0:	00470793          	addi	a5,a4,4
   122f4:	00f12823          	sw	a5,16(sp)
   122f8:	00040e63          	beqz	s0,12314 <f_lseek+0x2d0>
   122fc:	00100713          	li	a4,1
   12300:	06e41863          	bne	s0,a4,12370 <f_lseek+0x32c>
   12304:	00200713          	li	a4,2
   12308:	00ed08a3          	sb	a4,17(s10)
   1230c:	00200d93          	li	s11,2
   12310:	d95ff06f          	j	120a4 <f_lseek+0x60>
   12314:	00200913          	li	s2,2
   12318:	00c12783          	lw	a5,12(sp)
   1231c:	01272023          	sw	s2,0(a4)
   12320:	0527e463          	bltu	a5,s2,12368 <f_lseek+0x324>
   12324:	01012783          	lw	a5,16(sp)
   12328:	0007a023          	sw	zero,0(a5)
   1232c:	d79ff06f          	j	120a4 <f_lseek+0x60>
   12330:	fff70693          	addi	a3,a4,-1
   12334:	fff40713          	addi	a4,s0,-1
   12338:	03275733          	divu	a4,a4,s2
   1233c:	0326d633          	divu	a2,a3,s2
   12340:	eac768e3          	bltu	a4,a2,121f0 <f_lseek+0x1ac>
   12344:	41200733          	neg	a4,s2
   12348:	018d2483          	lw	s1,24(s10)
   1234c:	00d77733          	and	a4,a4,a3
   12350:	00ed2a23          	sw	a4,20(s10)
   12354:	40e40433          	sub	s0,s0,a4
   12358:	f2048ee3          	beqz	s1,12294 <f_lseek+0x250>
   1235c:	ea5ff06f          	j	12200 <f_lseek+0x1bc>
   12360:	000d2a23          	sw	zero,20(s10)
   12364:	e81ff06f          	j	121e4 <f_lseek+0x1a0>
   12368:	01100d93          	li	s11,17
   1236c:	d39ff06f          	j	120a4 <f_lseek+0x60>
   12370:	10000737          	lui	a4,0x10000
   12374:	000017b7          	lui	a5,0x1
   12378:	ffe70713          	addi	a4,a4,-2 # ffffffe <__BSS_END__+0xffe497e>
   1237c:	ffe78793          	addi	a5,a5,-2 # ffe <exit-0xf096>
   12380:	000c8b93          	mv	s7,s9
   12384:	00200913          	li	s2,2
   12388:	00e12c23          	sw	a4,24(sp)
   1238c:	00f12e23          	sw	a5,28(sp)
   12390:	00040a93          	mv	s5,s0
   12394:	00100b13          	li	s6,1
   12398:	00200a13          	li	s4,2
   1239c:	00100493          	li	s1,1
   123a0:	00300993          	li	s3,3
   123a4:	09c0006f          	j	12440 <f_lseek+0x3fc>
   123a8:	000bc683          	lbu	a3,0(s7)
   123ac:	13468e63          	beq	a3,s4,124e8 <f_lseek+0x4a4>
   123b0:	0d368863          	beq	a3,s3,12480 <f_lseek+0x43c>
   123b4:	f49698e3          	bne	a3,s1,12304 <f_lseek+0x2c0>
   123b8:	028ba683          	lw	a3,40(s7)
   123bc:	001adc13          	srli	s8,s5,0x1
   123c0:	015c0c33          	add	s8,s8,s5
   123c4:	009c5593          	srli	a1,s8,0x9
   123c8:	00d585b3          	add	a1,a1,a3
   123cc:	000b8513          	mv	a0,s7
   123d0:	e9dfe0ef          	jal	ra,1126c <_ZL11move_windowP5FATFSm>
   123d4:	08051e63          	bnez	a0,12470 <f_lseek+0x42c>
   123d8:	028ba583          	lw	a1,40(s7)
   123dc:	001c0693          	addi	a3,s8,1
   123e0:	0096d513          	srli	a0,a3,0x9
   123e4:	1ffc7c13          	andi	s8,s8,511
   123e8:	018b8c33          	add	s8,s7,s8
   123ec:	00b505b3          	add	a1,a0,a1
   123f0:	000b8513          	mv	a0,s7
   123f4:	038c4c03          	lbu	s8,56(s8)
   123f8:	00d12a23          	sw	a3,20(sp)
   123fc:	e71fe0ef          	jal	ra,1126c <_ZL11move_windowP5FATFSm>
   12400:	06051863          	bnez	a0,12470 <f_lseek+0x42c>
   12404:	01412683          	lw	a3,20(sp)
   12408:	001af593          	andi	a1,s5,1
   1240c:	1ff6f693          	andi	a3,a3,511
   12410:	00db86b3          	add	a3,s7,a3
   12414:	0386c683          	lbu	a3,56(a3)
   12418:	00869693          	slli	a3,a3,0x8
   1241c:	0186e6b3          	or	a3,a3,s8
   12420:	1a058a63          	beqz	a1,125d4 <f_lseek+0x590>
   12424:	0046d693          	srli	a3,a3,0x4
   12428:	ecd4fee3          	bgeu	s1,a3,12304 <f_lseek+0x2c0>
   1242c:	001a8713          	addi	a4,s5,1
   12430:	10d71263          	bne	a4,a3,12534 <f_lseek+0x4f0>
   12434:	000d2b83          	lw	s7,0(s10)
   12438:	001b0b13          	addi	s6,s6,1
   1243c:	00068a93          	mv	s5,a3
   12440:	01cba683          	lw	a3,28(s7)
   12444:	f6dae2e3          	bltu	s5,a3,123a8 <f_lseek+0x364>
   12448:	00200713          	li	a4,2
   1244c:	00ed08a3          	sb	a4,17(s10)
   12450:	00200d93          	li	s11,2
   12454:	c51ff06f          	j	120a4 <f_lseek+0x60>
   12458:	014d2703          	lw	a4,20(s10)
   1245c:	e39ff06f          	j	12294 <f_lseek+0x250>
   12460:	000d2503          	lw	a0,0(s10)
   12464:	8d8ff0ef          	jal	ra,1153c <_ZL7get_fatP7FFOBJIDm.isra.0>
   12468:	00050493          	mv	s1,a0
   1246c:	dcdff06f          	j	12238 <f_lseek+0x1f4>
   12470:	00100713          	li	a4,1
   12474:	00ed08a3          	sb	a4,17(s10)
   12478:	00100d93          	li	s11,1
   1247c:	c29ff06f          	j	120a4 <f_lseek+0x60>
   12480:	028ba683          	lw	a3,40(s7)
   12484:	007ad593          	srli	a1,s5,0x7
   12488:	000b8513          	mv	a0,s7
   1248c:	00d585b3          	add	a1,a1,a3
   12490:	dddfe0ef          	jal	ra,1126c <_ZL11move_windowP5FATFSm>
   12494:	fc051ee3          	bnez	a0,12470 <f_lseek+0x42c>
   12498:	002a9693          	slli	a3,s5,0x2
   1249c:	1fc6f693          	andi	a3,a3,508
   124a0:	00db86b3          	add	a3,s7,a3
   124a4:	0396c503          	lbu	a0,57(a3)
   124a8:	0386c303          	lbu	t1,56(a3)
   124ac:	03a6c583          	lbu	a1,58(a3)
   124b0:	03b6c683          	lbu	a3,59(a3)
   124b4:	00851513          	slli	a0,a0,0x8
   124b8:	01812783          	lw	a5,24(sp)
   124bc:	00656533          	or	a0,a0,t1
   124c0:	01059593          	slli	a1,a1,0x10
   124c4:	00a5e5b3          	or	a1,a1,a0
   124c8:	01869693          	slli	a3,a3,0x18
   124cc:	00b6e6b3          	or	a3,a3,a1
   124d0:	00f6f5b3          	and	a1,a3,a5
   124d4:	100007b7          	lui	a5,0x10000
   124d8:	fff78793          	addi	a5,a5,-1 # fffffff <__BSS_END__+0xffe497f>
   124dc:	00f6f6b3          	and	a3,a3,a5
   124e0:	f40596e3          	bnez	a1,1242c <f_lseek+0x3e8>
   124e4:	e21ff06f          	j	12304 <f_lseek+0x2c0>
   124e8:	028ba683          	lw	a3,40(s7)
   124ec:	008ad593          	srli	a1,s5,0x8
   124f0:	000b8513          	mv	a0,s7
   124f4:	00d585b3          	add	a1,a1,a3
   124f8:	d75fe0ef          	jal	ra,1126c <_ZL11move_windowP5FATFSm>
   124fc:	f6051ae3          	bnez	a0,12470 <f_lseek+0x42c>
   12500:	001a9593          	slli	a1,s5,0x1
   12504:	1fe5f593          	andi	a1,a1,510
   12508:	00bb85b3          	add	a1,s7,a1
   1250c:	0395c683          	lbu	a3,57(a1)
   12510:	0385c583          	lbu	a1,56(a1)
   12514:	00869693          	slli	a3,a3,0x8
   12518:	00b6e6b3          	or	a3,a3,a1
   1251c:	f0d4e8e3          	bltu	s1,a3,1242c <f_lseek+0x3e8>
   12520:	de5ff06f          	j	12304 <f_lseek+0x2c0>
   12524:	00472683          	lw	a3,4(a4)
   12528:	00d606b3          	add	a3,a2,a3
   1252c:	ffe68713          	addi	a4,a3,-2
   12530:	c2dff06f          	j	1215c <f_lseek+0x118>
   12534:	00c12783          	lw	a5,12(sp)
   12538:	00290913          	addi	s2,s2,2
   1253c:	0927e463          	bltu	a5,s2,125c4 <f_lseek+0x580>
   12540:	01012783          	lw	a5,16(sp)
   12544:	0167a023          	sw	s6,0(a5)
   12548:	0087a223          	sw	s0,4(a5)
   1254c:	01cca703          	lw	a4,28(s9)
   12550:	00878a93          	addi	s5,a5,8
   12554:	01512823          	sw	s5,16(sp)
   12558:	06e6fa63          	bgeu	a3,a4,125cc <f_lseek+0x588>
   1255c:	000d2b83          	lw	s7,0(s10)
   12560:	00068413          	mv	s0,a3
   12564:	e2dff06f          	j	12390 <f_lseek+0x34c>
   12568:	00000593          	li	a1,0
   1256c:	000d0513          	mv	a0,s10
   12570:	95cff0ef          	jal	ra,116cc <_ZL12create_chainP7FFOBJIDm>
   12574:	00100713          	li	a4,1
   12578:	00050493          	mv	s1,a0
   1257c:	d8e504e3          	beq	a0,a4,12304 <f_lseek+0x2c0>
   12580:	fff00713          	li	a4,-1
   12584:	eee506e3          	beq	a0,a4,12470 <f_lseek+0x42c>
   12588:	00ad2423          	sw	a0,8(s10)
   1258c:	00ad2c23          	sw	a0,24(s10)
   12590:	014d2703          	lw	a4,20(s10)
   12594:	d00480e3          	beqz	s1,12294 <f_lseek+0x250>
   12598:	c69ff06f          	j	12200 <f_lseek+0x1bc>
   1259c:	00100693          	li	a3,1
   125a0:	00b12623          	sw	a1,12(sp)
   125a4:	0d0000ef          	jal	ra,12674 <disk_write>
   125a8:	ec0514e3          	bnez	a0,12470 <f_lseek+0x42c>
   125ac:	010d4703          	lbu	a4,16(s10)
   125b0:	00c12583          	lw	a1,12(sp)
   125b4:	07f77713          	andi	a4,a4,127
   125b8:	00ed0823          	sb	a4,16(s10)
   125bc:	001cc503          	lbu	a0,1(s9)
   125c0:	d0dff06f          	j	122cc <f_lseek+0x288>
   125c4:	01cca703          	lw	a4,28(s9)
   125c8:	f8e6eae3          	bltu	a3,a4,1255c <f_lseek+0x518>
   125cc:	028d2703          	lw	a4,40(s10)
   125d0:	d49ff06f          	j	12318 <f_lseek+0x2d4>
   125d4:	01c12783          	lw	a5,28(sp)
   125d8:	00f6f5b3          	and	a1,a3,a5
   125dc:	000017b7          	lui	a5,0x1
   125e0:	fff78793          	addi	a5,a5,-1 # fff <exit-0xf095>
   125e4:	00f6f6b3          	and	a3,a3,a5
   125e8:	e40592e3          	bnez	a1,1242c <f_lseek+0x3e8>
   125ec:	d19ff06f          	j	12304 <f_lseek+0x2c0>
   125f0:	00100693          	li	a3,1
   125f4:	00b12623          	sw	a1,12(sp)
   125f8:	07c000ef          	jal	ra,12674 <disk_write>
   125fc:	e6051ae3          	bnez	a0,12470 <f_lseek+0x42c>
   12600:	010d4703          	lbu	a4,16(s10)
   12604:	00c12583          	lw	a1,12(sp)
   12608:	07f77713          	andi	a4,a4,127
   1260c:	00ed0823          	sb	a4,16(s10)
   12610:	001cc503          	lbu	a0,1(s9)
   12614:	b95ff06f          	j	121a8 <f_lseek+0x164>
   12618:	00000493          	li	s1,0
   1261c:	c79ff06f          	j	12294 <f_lseek+0x250>
   12620:	014d2683          	lw	a3,20(s10)
   12624:	c35ff06f          	j	12258 <f_lseek+0x214>

00012628 <disk_status>:
   12628:	fff50513          	addi	a0,a0,-1
   1262c:	00a03533          	snez	a0,a0
   12630:	00008067          	ret

00012634 <disk_read>:
   12634:	00100713          	li	a4,1
   12638:	00e50a63          	beq	a0,a4,1264c <disk_read+0x18>
   1263c:	0fd57513          	andi	a0,a0,253
   12640:	00a03533          	snez	a0,a0
   12644:	00350513          	addi	a0,a0,3
   12648:	00008067          	ret
   1264c:	ff010113          	addi	sp,sp,-16
   12650:	00058513          	mv	a0,a1
   12654:	00068593          	mv	a1,a3
   12658:	00112623          	sw	ra,12(sp)
   1265c:	8e5fe0ef          	jal	ra,10f40 <_Z20SDReadMultipleBlocksPhmm>
   12660:	00c12083          	lw	ra,12(sp)
   12664:	00150513          	addi	a0,a0,1
   12668:	00153513          	seqz	a0,a0
   1266c:	01010113          	addi	sp,sp,16
   12670:	00008067          	ret

00012674 <disk_write>:
   12674:	00100713          	li	a4,1
   12678:	00e50a63          	beq	a0,a4,1268c <disk_write+0x18>
   1267c:	0fd57513          	andi	a0,a0,253
   12680:	00a03533          	snez	a0,a0
   12684:	00350513          	addi	a0,a0,3
   12688:	00008067          	ret
   1268c:	ff010113          	addi	sp,sp,-16
   12690:	00058513          	mv	a0,a1
   12694:	00068593          	mv	a1,a3
   12698:	00112623          	sw	ra,12(sp)
   1269c:	a3dfe0ef          	jal	ra,110d8 <_Z21SDWriteMultipleBlocksPKhmm>
   126a0:	00c12083          	lw	ra,12(sp)
   126a4:	00150513          	addi	a0,a0,1
   126a8:	00153513          	seqz	a0,a0
   126ac:	01010113          	addi	sp,sp,16
   126b0:	00008067          	ret

000126b4 <disk_ioctl>:
   126b4:	00353513          	sltiu	a0,a0,3
   126b8:	00154513          	xori	a0,a0,1
   126bc:	00251513          	slli	a0,a0,0x2
   126c0:	00008067          	ret

000126c4 <__errno>:
   126c4:	000177b7          	lui	a5,0x17
   126c8:	0a07a503          	lw	a0,160(a5) # 170a0 <_impure_ptr>
   126cc:	00008067          	ret

000126d0 <__libc_init_array>:
   126d0:	ff010113          	addi	sp,sp,-16
   126d4:	00812423          	sw	s0,8(sp)
   126d8:	000177b7          	lui	a5,0x17
   126dc:	00017437          	lui	s0,0x17
   126e0:	01212023          	sw	s2,0(sp)
   126e4:	83478793          	addi	a5,a5,-1996 # 16834 <__init_array_start>
   126e8:	83440713          	addi	a4,s0,-1996 # 16834 <__init_array_start>
   126ec:	00112623          	sw	ra,12(sp)
   126f0:	00912223          	sw	s1,4(sp)
   126f4:	40e78933          	sub	s2,a5,a4
   126f8:	02e78263          	beq	a5,a4,1271c <__libc_init_array+0x4c>
   126fc:	40295913          	srai	s2,s2,0x2
   12700:	83440413          	addi	s0,s0,-1996
   12704:	00000493          	li	s1,0
   12708:	00042783          	lw	a5,0(s0)
   1270c:	00148493          	addi	s1,s1,1
   12710:	00440413          	addi	s0,s0,4
   12714:	000780e7          	jalr	a5
   12718:	ff24e8e3          	bltu	s1,s2,12708 <__libc_init_array+0x38>
   1271c:	00017437          	lui	s0,0x17
   12720:	000177b7          	lui	a5,0x17
   12724:	83c78793          	addi	a5,a5,-1988 # 1683c <__do_global_dtors_aux_fini_array_entry>
   12728:	83440713          	addi	a4,s0,-1996 # 16834 <__init_array_start>
   1272c:	40e78933          	sub	s2,a5,a4
   12730:	40295913          	srai	s2,s2,0x2
   12734:	02e78063          	beq	a5,a4,12754 <__libc_init_array+0x84>
   12738:	83440413          	addi	s0,s0,-1996
   1273c:	00000493          	li	s1,0
   12740:	00042783          	lw	a5,0(s0)
   12744:	00148493          	addi	s1,s1,1
   12748:	00440413          	addi	s0,s0,4
   1274c:	000780e7          	jalr	a5
   12750:	ff24e8e3          	bltu	s1,s2,12740 <__libc_init_array+0x70>
   12754:	00c12083          	lw	ra,12(sp)
   12758:	00812403          	lw	s0,8(sp)
   1275c:	00412483          	lw	s1,4(sp)
   12760:	00012903          	lw	s2,0(sp)
   12764:	01010113          	addi	sp,sp,16
   12768:	00008067          	ret

0001276c <_malloc_r>:
   1276c:	fd010113          	addi	sp,sp,-48
   12770:	01312e23          	sw	s3,28(sp)
   12774:	02112623          	sw	ra,44(sp)
   12778:	02812423          	sw	s0,40(sp)
   1277c:	02912223          	sw	s1,36(sp)
   12780:	03212023          	sw	s2,32(sp)
   12784:	01412c23          	sw	s4,24(sp)
   12788:	01512a23          	sw	s5,20(sp)
   1278c:	01612823          	sw	s6,16(sp)
   12790:	01712623          	sw	s7,12(sp)
   12794:	01812423          	sw	s8,8(sp)
   12798:	01912223          	sw	s9,4(sp)
   1279c:	00b58793          	addi	a5,a1,11
   127a0:	01600713          	li	a4,22
   127a4:	00050993          	mv	s3,a0
   127a8:	08f76e63          	bltu	a4,a5,12844 <_malloc_r+0xd8>
   127ac:	01000793          	li	a5,16
   127b0:	22b7e063          	bltu	a5,a1,129d0 <_malloc_r+0x264>
   127b4:	1c5000ef          	jal	ra,13178 <__malloc_lock>
   127b8:	01000493          	li	s1,16
   127bc:	01800793          	li	a5,24
   127c0:	00200593          	li	a1,2
   127c4:	00017937          	lui	s2,0x17
   127c8:	c7890913          	addi	s2,s2,-904 # 16c78 <__malloc_av_>
   127cc:	00f907b3          	add	a5,s2,a5
   127d0:	0047a403          	lw	s0,4(a5)
   127d4:	ff878713          	addi	a4,a5,-8
   127d8:	30e40863          	beq	s0,a4,12ae8 <_malloc_r+0x37c>
   127dc:	00442783          	lw	a5,4(s0)
   127e0:	00c42683          	lw	a3,12(s0)
   127e4:	00842603          	lw	a2,8(s0)
   127e8:	ffc7f793          	andi	a5,a5,-4
   127ec:	00f407b3          	add	a5,s0,a5
   127f0:	0047a703          	lw	a4,4(a5)
   127f4:	00d62623          	sw	a3,12(a2)
   127f8:	00c6a423          	sw	a2,8(a3)
   127fc:	00176713          	ori	a4,a4,1
   12800:	00098513          	mv	a0,s3
   12804:	00e7a223          	sw	a4,4(a5)
   12808:	175000ef          	jal	ra,1317c <__malloc_unlock>
   1280c:	00840513          	addi	a0,s0,8
   12810:	02c12083          	lw	ra,44(sp)
   12814:	02812403          	lw	s0,40(sp)
   12818:	02412483          	lw	s1,36(sp)
   1281c:	02012903          	lw	s2,32(sp)
   12820:	01c12983          	lw	s3,28(sp)
   12824:	01812a03          	lw	s4,24(sp)
   12828:	01412a83          	lw	s5,20(sp)
   1282c:	01012b03          	lw	s6,16(sp)
   12830:	00c12b83          	lw	s7,12(sp)
   12834:	00812c03          	lw	s8,8(sp)
   12838:	00412c83          	lw	s9,4(sp)
   1283c:	03010113          	addi	sp,sp,48
   12840:	00008067          	ret
   12844:	ff87f493          	andi	s1,a5,-8
   12848:	1807c463          	bltz	a5,129d0 <_malloc_r+0x264>
   1284c:	18b4e263          	bltu	s1,a1,129d0 <_malloc_r+0x264>
   12850:	129000ef          	jal	ra,13178 <__malloc_lock>
   12854:	1f700793          	li	a5,503
   12858:	3a97f263          	bgeu	a5,s1,12bfc <_malloc_r+0x490>
   1285c:	0094d793          	srli	a5,s1,0x9
   12860:	18078063          	beqz	a5,129e0 <_malloc_r+0x274>
   12864:	00400713          	li	a4,4
   12868:	2ef76863          	bltu	a4,a5,12b58 <_malloc_r+0x3ec>
   1286c:	0064d793          	srli	a5,s1,0x6
   12870:	03978593          	addi	a1,a5,57
   12874:	03878513          	addi	a0,a5,56
   12878:	00359693          	slli	a3,a1,0x3
   1287c:	00017937          	lui	s2,0x17
   12880:	c7890913          	addi	s2,s2,-904 # 16c78 <__malloc_av_>
   12884:	00d906b3          	add	a3,s2,a3
   12888:	0046a403          	lw	s0,4(a3)
   1288c:	ff868693          	addi	a3,a3,-8
   12890:	02868663          	beq	a3,s0,128bc <_malloc_r+0x150>
   12894:	00f00613          	li	a2,15
   12898:	0100006f          	j	128a8 <_malloc_r+0x13c>
   1289c:	24075063          	bgez	a4,12adc <_malloc_r+0x370>
   128a0:	00c42403          	lw	s0,12(s0)
   128a4:	00868c63          	beq	a3,s0,128bc <_malloc_r+0x150>
   128a8:	00442783          	lw	a5,4(s0)
   128ac:	ffc7f793          	andi	a5,a5,-4
   128b0:	40978733          	sub	a4,a5,s1
   128b4:	fee654e3          	bge	a2,a4,1289c <_malloc_r+0x130>
   128b8:	00050593          	mv	a1,a0
   128bc:	01092403          	lw	s0,16(s2)
   128c0:	00017837          	lui	a6,0x17
   128c4:	c8080813          	addi	a6,a6,-896 # 16c80 <__malloc_av_+0x8>
   128c8:	1f040263          	beq	s0,a6,12aac <_malloc_r+0x340>
   128cc:	00442783          	lw	a5,4(s0)
   128d0:	00f00693          	li	a3,15
   128d4:	ffc7f793          	andi	a5,a5,-4
   128d8:	40978733          	sub	a4,a5,s1
   128dc:	32e6c663          	blt	a3,a4,12c08 <_malloc_r+0x49c>
   128e0:	01092a23          	sw	a6,20(s2)
   128e4:	01092823          	sw	a6,16(s2)
   128e8:	2e075a63          	bgez	a4,12bdc <_malloc_r+0x470>
   128ec:	1ff00713          	li	a4,511
   128f0:	00492503          	lw	a0,4(s2)
   128f4:	20f76263          	bltu	a4,a5,12af8 <_malloc_r+0x38c>
   128f8:	ff87f713          	andi	a4,a5,-8
   128fc:	00870713          	addi	a4,a4,8
   12900:	00e90733          	add	a4,s2,a4
   12904:	00072683          	lw	a3,0(a4)
   12908:	0057d613          	srli	a2,a5,0x5
   1290c:	00100793          	li	a5,1
   12910:	00c797b3          	sll	a5,a5,a2
   12914:	00f56533          	or	a0,a0,a5
   12918:	ff870793          	addi	a5,a4,-8
   1291c:	00f42623          	sw	a5,12(s0)
   12920:	00d42423          	sw	a3,8(s0)
   12924:	00a92223          	sw	a0,4(s2)
   12928:	00872023          	sw	s0,0(a4)
   1292c:	0086a623          	sw	s0,12(a3)
   12930:	4025d793          	srai	a5,a1,0x2
   12934:	00100613          	li	a2,1
   12938:	00f61633          	sll	a2,a2,a5
   1293c:	0ac56a63          	bltu	a0,a2,129f0 <_malloc_r+0x284>
   12940:	00a677b3          	and	a5,a2,a0
   12944:	02079463          	bnez	a5,1296c <_malloc_r+0x200>
   12948:	00161613          	slli	a2,a2,0x1
   1294c:	ffc5f593          	andi	a1,a1,-4
   12950:	00a677b3          	and	a5,a2,a0
   12954:	00458593          	addi	a1,a1,4
   12958:	00079a63          	bnez	a5,1296c <_malloc_r+0x200>
   1295c:	00161613          	slli	a2,a2,0x1
   12960:	00a677b3          	and	a5,a2,a0
   12964:	00458593          	addi	a1,a1,4
   12968:	fe078ae3          	beqz	a5,1295c <_malloc_r+0x1f0>
   1296c:	00f00893          	li	a7,15
   12970:	00359313          	slli	t1,a1,0x3
   12974:	00690333          	add	t1,s2,t1
   12978:	00030513          	mv	a0,t1
   1297c:	00c52783          	lw	a5,12(a0)
   12980:	00058e13          	mv	t3,a1
   12984:	1ef50c63          	beq	a0,a5,12b7c <_malloc_r+0x410>
   12988:	0047a703          	lw	a4,4(a5)
   1298c:	00078413          	mv	s0,a5
   12990:	00c7a783          	lw	a5,12(a5)
   12994:	ffc77713          	andi	a4,a4,-4
   12998:	409706b3          	sub	a3,a4,s1
   1299c:	1ed8cc63          	blt	a7,a3,12b94 <_malloc_r+0x428>
   129a0:	fe06c2e3          	bltz	a3,12984 <_malloc_r+0x218>
   129a4:	00e40733          	add	a4,s0,a4
   129a8:	00472683          	lw	a3,4(a4)
   129ac:	00842603          	lw	a2,8(s0)
   129b0:	00098513          	mv	a0,s3
   129b4:	0016e693          	ori	a3,a3,1
   129b8:	00d72223          	sw	a3,4(a4)
   129bc:	00f62623          	sw	a5,12(a2)
   129c0:	00c7a423          	sw	a2,8(a5)
   129c4:	7b8000ef          	jal	ra,1317c <__malloc_unlock>
   129c8:	00840513          	addi	a0,s0,8
   129cc:	e45ff06f          	j	12810 <_malloc_r+0xa4>
   129d0:	00c00793          	li	a5,12
   129d4:	00f9a023          	sw	a5,0(s3)
   129d8:	00000513          	li	a0,0
   129dc:	e35ff06f          	j	12810 <_malloc_r+0xa4>
   129e0:	20000693          	li	a3,512
   129e4:	04000593          	li	a1,64
   129e8:	03f00513          	li	a0,63
   129ec:	e91ff06f          	j	1287c <_malloc_r+0x110>
   129f0:	00892403          	lw	s0,8(s2)
   129f4:	00442783          	lw	a5,4(s0)
   129f8:	ffc7fb13          	andi	s6,a5,-4
   129fc:	009b6863          	bltu	s6,s1,12a0c <_malloc_r+0x2a0>
   12a00:	409b0733          	sub	a4,s6,s1
   12a04:	00f00793          	li	a5,15
   12a08:	0ae7c663          	blt	a5,a4,12ab4 <_malloc_r+0x348>
   12a0c:	00017cb7          	lui	s9,0x17
   12a10:	8181aa83          	lw	s5,-2024(gp) # 170b4 <__malloc_top_pad>
   12a14:	0a4ca703          	lw	a4,164(s9) # 170a4 <__malloc_sbrk_base>
   12a18:	fff00793          	li	a5,-1
   12a1c:	01640a33          	add	s4,s0,s6
   12a20:	01548ab3          	add	s5,s1,s5
   12a24:	3af70863          	beq	a4,a5,12dd4 <_malloc_r+0x668>
   12a28:	000017b7          	lui	a5,0x1
   12a2c:	00f78793          	addi	a5,a5,15 # 100f <exit-0xf085>
   12a30:	00fa8ab3          	add	s5,s5,a5
   12a34:	fffff7b7          	lui	a5,0xfffff
   12a38:	00fafab3          	and	s5,s5,a5
   12a3c:	000a8593          	mv	a1,s5
   12a40:	00098513          	mv	a0,s3
   12a44:	01d000ef          	jal	ra,13260 <_sbrk_r>
   12a48:	fff00793          	li	a5,-1
   12a4c:	00050b93          	mv	s7,a0
   12a50:	20f50663          	beq	a0,a5,12c5c <_malloc_r+0x4f0>
   12a54:	21456263          	bltu	a0,s4,12c58 <_malloc_r+0x4ec>
   12a58:	0001bc37          	lui	s8,0x1b
   12a5c:	658c0c13          	addi	s8,s8,1624 # 1b658 <__malloc_current_mallinfo>
   12a60:	000c2583          	lw	a1,0(s8)
   12a64:	00ba85b3          	add	a1,s5,a1
   12a68:	00bc2023          	sw	a1,0(s8)
   12a6c:	00058713          	mv	a4,a1
   12a70:	28aa1863          	bne	s4,a0,12d00 <_malloc_r+0x594>
   12a74:	01451793          	slli	a5,a0,0x14
   12a78:	28079463          	bnez	a5,12d00 <_malloc_r+0x594>
   12a7c:	00892b83          	lw	s7,8(s2)
   12a80:	015b07b3          	add	a5,s6,s5
   12a84:	0017e793          	ori	a5,a5,1
   12a88:	00fba223          	sw	a5,4(s7)
   12a8c:	8141a683          	lw	a3,-2028(gp) # 170b0 <__malloc_max_sbrked_mem>
   12a90:	00b6f463          	bgeu	a3,a1,12a98 <_malloc_r+0x32c>
   12a94:	80b1aa23          	sw	a1,-2028(gp) # 170b0 <__malloc_max_sbrked_mem>
   12a98:	8101a683          	lw	a3,-2032(gp) # 170ac <__malloc_max_total_mem>
   12a9c:	00b6f463          	bgeu	a3,a1,12aa4 <_malloc_r+0x338>
   12aa0:	80b1a823          	sw	a1,-2032(gp) # 170ac <__malloc_max_total_mem>
   12aa4:	000b8413          	mv	s0,s7
   12aa8:	1bc0006f          	j	12c64 <_malloc_r+0x4f8>
   12aac:	00492503          	lw	a0,4(s2)
   12ab0:	e81ff06f          	j	12930 <_malloc_r+0x1c4>
   12ab4:	0014e793          	ori	a5,s1,1
   12ab8:	00f42223          	sw	a5,4(s0)
   12abc:	009404b3          	add	s1,s0,s1
   12ac0:	00992423          	sw	s1,8(s2)
   12ac4:	00176713          	ori	a4,a4,1
   12ac8:	00098513          	mv	a0,s3
   12acc:	00e4a223          	sw	a4,4(s1)
   12ad0:	6ac000ef          	jal	ra,1317c <__malloc_unlock>
   12ad4:	00840513          	addi	a0,s0,8
   12ad8:	d39ff06f          	j	12810 <_malloc_r+0xa4>
   12adc:	00c42683          	lw	a3,12(s0)
   12ae0:	00842603          	lw	a2,8(s0)
   12ae4:	d09ff06f          	j	127ec <_malloc_r+0x80>
   12ae8:	00c7a403          	lw	s0,12(a5) # fffff00c <__BSS_END__+0xfffe398c>
   12aec:	00258593          	addi	a1,a1,2
   12af0:	dc8786e3          	beq	a5,s0,128bc <_malloc_r+0x150>
   12af4:	ce9ff06f          	j	127dc <_malloc_r+0x70>
   12af8:	0097d713          	srli	a4,a5,0x9
   12afc:	00400693          	li	a3,4
   12b00:	14e6f263          	bgeu	a3,a4,12c44 <_malloc_r+0x4d8>
   12b04:	01400693          	li	a3,20
   12b08:	30e6ec63          	bltu	a3,a4,12e20 <_malloc_r+0x6b4>
   12b0c:	05c70613          	addi	a2,a4,92
   12b10:	05b70693          	addi	a3,a4,91
   12b14:	00361613          	slli	a2,a2,0x3
   12b18:	00c90633          	add	a2,s2,a2
   12b1c:	00062703          	lw	a4,0(a2)
   12b20:	ff860613          	addi	a2,a2,-8
   12b24:	00e61863          	bne	a2,a4,12b34 <_malloc_r+0x3c8>
   12b28:	2b40006f          	j	12ddc <_malloc_r+0x670>
   12b2c:	00872703          	lw	a4,8(a4)
   12b30:	00e60863          	beq	a2,a4,12b40 <_malloc_r+0x3d4>
   12b34:	00472683          	lw	a3,4(a4)
   12b38:	ffc6f693          	andi	a3,a3,-4
   12b3c:	fed7e8e3          	bltu	a5,a3,12b2c <_malloc_r+0x3c0>
   12b40:	00c72603          	lw	a2,12(a4)
   12b44:	00c42623          	sw	a2,12(s0)
   12b48:	00e42423          	sw	a4,8(s0)
   12b4c:	00862423          	sw	s0,8(a2)
   12b50:	00872623          	sw	s0,12(a4)
   12b54:	dddff06f          	j	12930 <_malloc_r+0x1c4>
   12b58:	01400713          	li	a4,20
   12b5c:	12f77663          	bgeu	a4,a5,12c88 <_malloc_r+0x51c>
   12b60:	05400713          	li	a4,84
   12b64:	2cf76c63          	bltu	a4,a5,12e3c <_malloc_r+0x6d0>
   12b68:	00c4d793          	srli	a5,s1,0xc
   12b6c:	06f78593          	addi	a1,a5,111
   12b70:	06e78513          	addi	a0,a5,110
   12b74:	00359693          	slli	a3,a1,0x3
   12b78:	d05ff06f          	j	1287c <_malloc_r+0x110>
   12b7c:	001e0e13          	addi	t3,t3,1
   12b80:	003e7793          	andi	a5,t3,3
   12b84:	00850513          	addi	a0,a0,8
   12b88:	10078e63          	beqz	a5,12ca4 <_malloc_r+0x538>
   12b8c:	00c52783          	lw	a5,12(a0)
   12b90:	df5ff06f          	j	12984 <_malloc_r+0x218>
   12b94:	00842603          	lw	a2,8(s0)
   12b98:	0014e593          	ori	a1,s1,1
   12b9c:	00b42223          	sw	a1,4(s0)
   12ba0:	00f62623          	sw	a5,12(a2)
   12ba4:	00c7a423          	sw	a2,8(a5)
   12ba8:	009404b3          	add	s1,s0,s1
   12bac:	00992a23          	sw	s1,20(s2)
   12bb0:	00992823          	sw	s1,16(s2)
   12bb4:	0016e793          	ori	a5,a3,1
   12bb8:	0104a623          	sw	a6,12(s1)
   12bbc:	0104a423          	sw	a6,8(s1)
   12bc0:	00f4a223          	sw	a5,4(s1)
   12bc4:	00e40733          	add	a4,s0,a4
   12bc8:	00098513          	mv	a0,s3
   12bcc:	00d72023          	sw	a3,0(a4)
   12bd0:	5ac000ef          	jal	ra,1317c <__malloc_unlock>
   12bd4:	00840513          	addi	a0,s0,8
   12bd8:	c39ff06f          	j	12810 <_malloc_r+0xa4>
   12bdc:	00f407b3          	add	a5,s0,a5
   12be0:	0047a703          	lw	a4,4(a5)
   12be4:	00098513          	mv	a0,s3
   12be8:	00176713          	ori	a4,a4,1
   12bec:	00e7a223          	sw	a4,4(a5)
   12bf0:	58c000ef          	jal	ra,1317c <__malloc_unlock>
   12bf4:	00840513          	addi	a0,s0,8
   12bf8:	c19ff06f          	j	12810 <_malloc_r+0xa4>
   12bfc:	0034d593          	srli	a1,s1,0x3
   12c00:	00848793          	addi	a5,s1,8
   12c04:	bc1ff06f          	j	127c4 <_malloc_r+0x58>
   12c08:	0014e693          	ori	a3,s1,1
   12c0c:	00d42223          	sw	a3,4(s0)
   12c10:	009404b3          	add	s1,s0,s1
   12c14:	00992a23          	sw	s1,20(s2)
   12c18:	00992823          	sw	s1,16(s2)
   12c1c:	00176693          	ori	a3,a4,1
   12c20:	0104a623          	sw	a6,12(s1)
   12c24:	0104a423          	sw	a6,8(s1)
   12c28:	00d4a223          	sw	a3,4(s1)
   12c2c:	00f407b3          	add	a5,s0,a5
   12c30:	00098513          	mv	a0,s3
   12c34:	00e7a023          	sw	a4,0(a5)
   12c38:	544000ef          	jal	ra,1317c <__malloc_unlock>
   12c3c:	00840513          	addi	a0,s0,8
   12c40:	bd1ff06f          	j	12810 <_malloc_r+0xa4>
   12c44:	0067d713          	srli	a4,a5,0x6
   12c48:	03970613          	addi	a2,a4,57
   12c4c:	03870693          	addi	a3,a4,56
   12c50:	00361613          	slli	a2,a2,0x3
   12c54:	ec5ff06f          	j	12b18 <_malloc_r+0x3ac>
   12c58:	09240a63          	beq	s0,s2,12cec <_malloc_r+0x580>
   12c5c:	00892403          	lw	s0,8(s2)
   12c60:	00442783          	lw	a5,4(s0)
   12c64:	ffc7f793          	andi	a5,a5,-4
   12c68:	40978733          	sub	a4,a5,s1
   12c6c:	0097e663          	bltu	a5,s1,12c78 <_malloc_r+0x50c>
   12c70:	00f00793          	li	a5,15
   12c74:	e4e7c0e3          	blt	a5,a4,12ab4 <_malloc_r+0x348>
   12c78:	00098513          	mv	a0,s3
   12c7c:	500000ef          	jal	ra,1317c <__malloc_unlock>
   12c80:	00000513          	li	a0,0
   12c84:	b8dff06f          	j	12810 <_malloc_r+0xa4>
   12c88:	05c78593          	addi	a1,a5,92
   12c8c:	05b78513          	addi	a0,a5,91
   12c90:	00359693          	slli	a3,a1,0x3
   12c94:	be9ff06f          	j	1287c <_malloc_r+0x110>
   12c98:	00832783          	lw	a5,8(t1) # ff0008 <__BSS_END__+0xfd4988>
   12c9c:	fff58593          	addi	a1,a1,-1
   12ca0:	24679863          	bne	a5,t1,12ef0 <_malloc_r+0x784>
   12ca4:	0035f793          	andi	a5,a1,3
   12ca8:	ff830313          	addi	t1,t1,-8
   12cac:	fe0796e3          	bnez	a5,12c98 <_malloc_r+0x52c>
   12cb0:	00492703          	lw	a4,4(s2)
   12cb4:	fff64793          	not	a5,a2
   12cb8:	00e7f7b3          	and	a5,a5,a4
   12cbc:	00f92223          	sw	a5,4(s2)
   12cc0:	00161613          	slli	a2,a2,0x1
   12cc4:	d2c7e6e3          	bltu	a5,a2,129f0 <_malloc_r+0x284>
   12cc8:	d20604e3          	beqz	a2,129f0 <_malloc_r+0x284>
   12ccc:	00f67733          	and	a4,a2,a5
   12cd0:	00071a63          	bnez	a4,12ce4 <_malloc_r+0x578>
   12cd4:	00161613          	slli	a2,a2,0x1
   12cd8:	00f67733          	and	a4,a2,a5
   12cdc:	004e0e13          	addi	t3,t3,4
   12ce0:	fe070ae3          	beqz	a4,12cd4 <_malloc_r+0x568>
   12ce4:	000e0593          	mv	a1,t3
   12ce8:	c89ff06f          	j	12970 <_malloc_r+0x204>
   12cec:	0001bc37          	lui	s8,0x1b
   12cf0:	658c0c13          	addi	s8,s8,1624 # 1b658 <__malloc_current_mallinfo>
   12cf4:	000c2703          	lw	a4,0(s8)
   12cf8:	00ea8733          	add	a4,s5,a4
   12cfc:	00ec2023          	sw	a4,0(s8)
   12d00:	0a4ca683          	lw	a3,164(s9)
   12d04:	fff00793          	li	a5,-1
   12d08:	14f68863          	beq	a3,a5,12e58 <_malloc_r+0x6ec>
   12d0c:	414b87b3          	sub	a5,s7,s4
   12d10:	00e787b3          	add	a5,a5,a4
   12d14:	00fc2023          	sw	a5,0(s8)
   12d18:	007bfc93          	andi	s9,s7,7
   12d1c:	0c0c8c63          	beqz	s9,12df4 <_malloc_r+0x688>
   12d20:	00001737          	lui	a4,0x1
   12d24:	419b8bb3          	sub	s7,s7,s9
   12d28:	00870593          	addi	a1,a4,8 # 1008 <exit-0xf08c>
   12d2c:	008b8b93          	addi	s7,s7,8
   12d30:	419585b3          	sub	a1,a1,s9
   12d34:	015b8ab3          	add	s5,s7,s5
   12d38:	415585b3          	sub	a1,a1,s5
   12d3c:	fff70713          	addi	a4,a4,-1
   12d40:	00e5fa33          	and	s4,a1,a4
   12d44:	000a0593          	mv	a1,s4
   12d48:	00098513          	mv	a0,s3
   12d4c:	514000ef          	jal	ra,13260 <_sbrk_r>
   12d50:	fff00793          	li	a5,-1
   12d54:	14f50863          	beq	a0,a5,12ea4 <_malloc_r+0x738>
   12d58:	41750533          	sub	a0,a0,s7
   12d5c:	01450ab3          	add	s5,a0,s4
   12d60:	000c2703          	lw	a4,0(s8)
   12d64:	01792423          	sw	s7,8(s2)
   12d68:	001ae793          	ori	a5,s5,1
   12d6c:	00ea05b3          	add	a1,s4,a4
   12d70:	00bc2023          	sw	a1,0(s8)
   12d74:	00fba223          	sw	a5,4(s7)
   12d78:	d1240ae3          	beq	s0,s2,12a8c <_malloc_r+0x320>
   12d7c:	00f00693          	li	a3,15
   12d80:	0f66f063          	bgeu	a3,s6,12e60 <_malloc_r+0x6f4>
   12d84:	00442703          	lw	a4,4(s0)
   12d88:	ff4b0793          	addi	a5,s6,-12
   12d8c:	ff87f793          	andi	a5,a5,-8
   12d90:	00177713          	andi	a4,a4,1
   12d94:	00f76733          	or	a4,a4,a5
   12d98:	00e42223          	sw	a4,4(s0)
   12d9c:	00500613          	li	a2,5
   12da0:	00f40733          	add	a4,s0,a5
   12da4:	00c72223          	sw	a2,4(a4)
   12da8:	00c72423          	sw	a2,8(a4)
   12dac:	00f6e663          	bltu	a3,a5,12db8 <_malloc_r+0x64c>
   12db0:	004ba783          	lw	a5,4(s7)
   12db4:	cd9ff06f          	j	12a8c <_malloc_r+0x320>
   12db8:	00840593          	addi	a1,s0,8
   12dbc:	00098513          	mv	a0,s3
   12dc0:	205000ef          	jal	ra,137c4 <_free_r>
   12dc4:	00892b83          	lw	s7,8(s2)
   12dc8:	000c2583          	lw	a1,0(s8)
   12dcc:	004ba783          	lw	a5,4(s7)
   12dd0:	cbdff06f          	j	12a8c <_malloc_r+0x320>
   12dd4:	010a8a93          	addi	s5,s5,16
   12dd8:	c65ff06f          	j	12a3c <_malloc_r+0x2d0>
   12ddc:	4026d693          	srai	a3,a3,0x2
   12de0:	00100793          	li	a5,1
   12de4:	00d797b3          	sll	a5,a5,a3
   12de8:	00f56533          	or	a0,a0,a5
   12dec:	00a92223          	sw	a0,4(s2)
   12df0:	d55ff06f          	j	12b44 <_malloc_r+0x3d8>
   12df4:	015b85b3          	add	a1,s7,s5
   12df8:	40b005b3          	neg	a1,a1
   12dfc:	01459593          	slli	a1,a1,0x14
   12e00:	0145da13          	srli	s4,a1,0x14
   12e04:	000a0593          	mv	a1,s4
   12e08:	00098513          	mv	a0,s3
   12e0c:	454000ef          	jal	ra,13260 <_sbrk_r>
   12e10:	fff00793          	li	a5,-1
   12e14:	f4f512e3          	bne	a0,a5,12d58 <_malloc_r+0x5ec>
   12e18:	00000a13          	li	s4,0
   12e1c:	f45ff06f          	j	12d60 <_malloc_r+0x5f4>
   12e20:	05400693          	li	a3,84
   12e24:	04e6e463          	bltu	a3,a4,12e6c <_malloc_r+0x700>
   12e28:	00c7d713          	srli	a4,a5,0xc
   12e2c:	06f70613          	addi	a2,a4,111
   12e30:	06e70693          	addi	a3,a4,110
   12e34:	00361613          	slli	a2,a2,0x3
   12e38:	ce1ff06f          	j	12b18 <_malloc_r+0x3ac>
   12e3c:	15400713          	li	a4,340
   12e40:	04f76463          	bltu	a4,a5,12e88 <_malloc_r+0x71c>
   12e44:	00f4d793          	srli	a5,s1,0xf
   12e48:	07878593          	addi	a1,a5,120
   12e4c:	07778513          	addi	a0,a5,119
   12e50:	00359693          	slli	a3,a1,0x3
   12e54:	a29ff06f          	j	1287c <_malloc_r+0x110>
   12e58:	0b7ca223          	sw	s7,164(s9)
   12e5c:	ebdff06f          	j	12d18 <_malloc_r+0x5ac>
   12e60:	00100793          	li	a5,1
   12e64:	00fba223          	sw	a5,4(s7)
   12e68:	e11ff06f          	j	12c78 <_malloc_r+0x50c>
   12e6c:	15400693          	li	a3,340
   12e70:	04e6e463          	bltu	a3,a4,12eb8 <_malloc_r+0x74c>
   12e74:	00f7d713          	srli	a4,a5,0xf
   12e78:	07870613          	addi	a2,a4,120
   12e7c:	07770693          	addi	a3,a4,119
   12e80:	00361613          	slli	a2,a2,0x3
   12e84:	c95ff06f          	j	12b18 <_malloc_r+0x3ac>
   12e88:	55400713          	li	a4,1364
   12e8c:	04f76463          	bltu	a4,a5,12ed4 <_malloc_r+0x768>
   12e90:	0124d793          	srli	a5,s1,0x12
   12e94:	07d78593          	addi	a1,a5,125
   12e98:	07c78513          	addi	a0,a5,124
   12e9c:	00359693          	slli	a3,a1,0x3
   12ea0:	9ddff06f          	j	1287c <_malloc_r+0x110>
   12ea4:	ff8c8c93          	addi	s9,s9,-8
   12ea8:	019a8ab3          	add	s5,s5,s9
   12eac:	417a8ab3          	sub	s5,s5,s7
   12eb0:	00000a13          	li	s4,0
   12eb4:	eadff06f          	j	12d60 <_malloc_r+0x5f4>
   12eb8:	55400693          	li	a3,1364
   12ebc:	02e6e463          	bltu	a3,a4,12ee4 <_malloc_r+0x778>
   12ec0:	0127d713          	srli	a4,a5,0x12
   12ec4:	07d70613          	addi	a2,a4,125
   12ec8:	07c70693          	addi	a3,a4,124
   12ecc:	00361613          	slli	a2,a2,0x3
   12ed0:	c49ff06f          	j	12b18 <_malloc_r+0x3ac>
   12ed4:	3f800693          	li	a3,1016
   12ed8:	07f00593          	li	a1,127
   12edc:	07e00513          	li	a0,126
   12ee0:	99dff06f          	j	1287c <_malloc_r+0x110>
   12ee4:	3f800613          	li	a2,1016
   12ee8:	07e00693          	li	a3,126
   12eec:	c2dff06f          	j	12b18 <_malloc_r+0x3ac>
   12ef0:	00492783          	lw	a5,4(s2)
   12ef4:	dcdff06f          	j	12cc0 <_malloc_r+0x554>

00012ef8 <memcpy>:
   12ef8:	00b547b3          	xor	a5,a0,a1
   12efc:	0037f793          	andi	a5,a5,3
   12f00:	00c508b3          	add	a7,a0,a2
   12f04:	06079463          	bnez	a5,12f6c <memcpy+0x74>
   12f08:	00300793          	li	a5,3
   12f0c:	06c7f063          	bgeu	a5,a2,12f6c <memcpy+0x74>
   12f10:	00357793          	andi	a5,a0,3
   12f14:	00050713          	mv	a4,a0
   12f18:	06079a63          	bnez	a5,12f8c <memcpy+0x94>
   12f1c:	ffc8f613          	andi	a2,a7,-4
   12f20:	40e606b3          	sub	a3,a2,a4
   12f24:	02000793          	li	a5,32
   12f28:	08d7ce63          	blt	a5,a3,12fc4 <memcpy+0xcc>
   12f2c:	00058693          	mv	a3,a1
   12f30:	00070793          	mv	a5,a4
   12f34:	02c77863          	bgeu	a4,a2,12f64 <memcpy+0x6c>
   12f38:	0006a803          	lw	a6,0(a3)
   12f3c:	00478793          	addi	a5,a5,4
   12f40:	00468693          	addi	a3,a3,4
   12f44:	ff07ae23          	sw	a6,-4(a5)
   12f48:	fec7e8e3          	bltu	a5,a2,12f38 <memcpy+0x40>
   12f4c:	fff60793          	addi	a5,a2,-1
   12f50:	40e787b3          	sub	a5,a5,a4
   12f54:	ffc7f793          	andi	a5,a5,-4
   12f58:	00478793          	addi	a5,a5,4
   12f5c:	00f70733          	add	a4,a4,a5
   12f60:	00f585b3          	add	a1,a1,a5
   12f64:	01176863          	bltu	a4,a7,12f74 <memcpy+0x7c>
   12f68:	00008067          	ret
   12f6c:	00050713          	mv	a4,a0
   12f70:	05157863          	bgeu	a0,a7,12fc0 <memcpy+0xc8>
   12f74:	0005c783          	lbu	a5,0(a1)
   12f78:	00170713          	addi	a4,a4,1
   12f7c:	00158593          	addi	a1,a1,1
   12f80:	fef70fa3          	sb	a5,-1(a4)
   12f84:	fee898e3          	bne	a7,a4,12f74 <memcpy+0x7c>
   12f88:	00008067          	ret
   12f8c:	0005c683          	lbu	a3,0(a1)
   12f90:	00170713          	addi	a4,a4,1
   12f94:	00377793          	andi	a5,a4,3
   12f98:	fed70fa3          	sb	a3,-1(a4)
   12f9c:	00158593          	addi	a1,a1,1
   12fa0:	f6078ee3          	beqz	a5,12f1c <memcpy+0x24>
   12fa4:	0005c683          	lbu	a3,0(a1)
   12fa8:	00170713          	addi	a4,a4,1
   12fac:	00377793          	andi	a5,a4,3
   12fb0:	fed70fa3          	sb	a3,-1(a4)
   12fb4:	00158593          	addi	a1,a1,1
   12fb8:	fc079ae3          	bnez	a5,12f8c <memcpy+0x94>
   12fbc:	f61ff06f          	j	12f1c <memcpy+0x24>
   12fc0:	00008067          	ret
   12fc4:	ff010113          	addi	sp,sp,-16
   12fc8:	00812623          	sw	s0,12(sp)
   12fcc:	02000413          	li	s0,32
   12fd0:	0005a383          	lw	t2,0(a1)
   12fd4:	0045a283          	lw	t0,4(a1)
   12fd8:	0085af83          	lw	t6,8(a1)
   12fdc:	00c5af03          	lw	t5,12(a1)
   12fe0:	0105ae83          	lw	t4,16(a1)
   12fe4:	0145ae03          	lw	t3,20(a1)
   12fe8:	0185a303          	lw	t1,24(a1)
   12fec:	01c5a803          	lw	a6,28(a1)
   12ff0:	0205a683          	lw	a3,32(a1)
   12ff4:	02470713          	addi	a4,a4,36
   12ff8:	40e607b3          	sub	a5,a2,a4
   12ffc:	fc772e23          	sw	t2,-36(a4)
   13000:	fe572023          	sw	t0,-32(a4)
   13004:	fff72223          	sw	t6,-28(a4)
   13008:	ffe72423          	sw	t5,-24(a4)
   1300c:	ffd72623          	sw	t4,-20(a4)
   13010:	ffc72823          	sw	t3,-16(a4)
   13014:	fe672a23          	sw	t1,-12(a4)
   13018:	ff072c23          	sw	a6,-8(a4)
   1301c:	fed72e23          	sw	a3,-4(a4)
   13020:	02458593          	addi	a1,a1,36
   13024:	faf446e3          	blt	s0,a5,12fd0 <memcpy+0xd8>
   13028:	00058693          	mv	a3,a1
   1302c:	00070793          	mv	a5,a4
   13030:	02c77863          	bgeu	a4,a2,13060 <memcpy+0x168>
   13034:	0006a803          	lw	a6,0(a3)
   13038:	00478793          	addi	a5,a5,4
   1303c:	00468693          	addi	a3,a3,4
   13040:	ff07ae23          	sw	a6,-4(a5)
   13044:	fec7e8e3          	bltu	a5,a2,13034 <memcpy+0x13c>
   13048:	fff60793          	addi	a5,a2,-1
   1304c:	40e787b3          	sub	a5,a5,a4
   13050:	ffc7f793          	andi	a5,a5,-4
   13054:	00478793          	addi	a5,a5,4
   13058:	00f70733          	add	a4,a4,a5
   1305c:	00f585b3          	add	a1,a1,a5
   13060:	01176863          	bltu	a4,a7,13070 <memcpy+0x178>
   13064:	00c12403          	lw	s0,12(sp)
   13068:	01010113          	addi	sp,sp,16
   1306c:	00008067          	ret
   13070:	0005c783          	lbu	a5,0(a1)
   13074:	00170713          	addi	a4,a4,1
   13078:	00158593          	addi	a1,a1,1
   1307c:	fef70fa3          	sb	a5,-1(a4)
   13080:	fee882e3          	beq	a7,a4,13064 <memcpy+0x16c>
   13084:	0005c783          	lbu	a5,0(a1)
   13088:	00170713          	addi	a4,a4,1
   1308c:	00158593          	addi	a1,a1,1
   13090:	fef70fa3          	sb	a5,-1(a4)
   13094:	fce89ee3          	bne	a7,a4,13070 <memcpy+0x178>
   13098:	fcdff06f          	j	13064 <memcpy+0x16c>

0001309c <memset>:
   1309c:	00f00313          	li	t1,15
   130a0:	00050713          	mv	a4,a0
   130a4:	02c37e63          	bgeu	t1,a2,130e0 <memset+0x44>
   130a8:	00f77793          	andi	a5,a4,15
   130ac:	0a079063          	bnez	a5,1314c <memset+0xb0>
   130b0:	08059263          	bnez	a1,13134 <memset+0x98>
   130b4:	ff067693          	andi	a3,a2,-16
   130b8:	00f67613          	andi	a2,a2,15
   130bc:	00e686b3          	add	a3,a3,a4
   130c0:	00b72023          	sw	a1,0(a4)
   130c4:	00b72223          	sw	a1,4(a4)
   130c8:	00b72423          	sw	a1,8(a4)
   130cc:	00b72623          	sw	a1,12(a4)
   130d0:	01070713          	addi	a4,a4,16
   130d4:	fed766e3          	bltu	a4,a3,130c0 <memset+0x24>
   130d8:	00061463          	bnez	a2,130e0 <memset+0x44>
   130dc:	00008067          	ret
   130e0:	40c306b3          	sub	a3,t1,a2
   130e4:	00269693          	slli	a3,a3,0x2
   130e8:	00000297          	auipc	t0,0x0
   130ec:	005686b3          	add	a3,a3,t0
   130f0:	00c68067          	jr	12(a3)
   130f4:	00b70723          	sb	a1,14(a4)
   130f8:	00b706a3          	sb	a1,13(a4)
   130fc:	00b70623          	sb	a1,12(a4)
   13100:	00b705a3          	sb	a1,11(a4)
   13104:	00b70523          	sb	a1,10(a4)
   13108:	00b704a3          	sb	a1,9(a4)
   1310c:	00b70423          	sb	a1,8(a4)
   13110:	00b703a3          	sb	a1,7(a4)
   13114:	00b70323          	sb	a1,6(a4)
   13118:	00b702a3          	sb	a1,5(a4)
   1311c:	00b70223          	sb	a1,4(a4)
   13120:	00b701a3          	sb	a1,3(a4)
   13124:	00b70123          	sb	a1,2(a4)
   13128:	00b700a3          	sb	a1,1(a4)
   1312c:	00b70023          	sb	a1,0(a4)
   13130:	00008067          	ret
   13134:	0ff5f593          	zext.b	a1,a1
   13138:	00859693          	slli	a3,a1,0x8
   1313c:	00d5e5b3          	or	a1,a1,a3
   13140:	01059693          	slli	a3,a1,0x10
   13144:	00d5e5b3          	or	a1,a1,a3
   13148:	f6dff06f          	j	130b4 <memset+0x18>
   1314c:	00279693          	slli	a3,a5,0x2
   13150:	00000297          	auipc	t0,0x0
   13154:	005686b3          	add	a3,a3,t0
   13158:	00008293          	mv	t0,ra
   1315c:	fa0680e7          	jalr	-96(a3)
   13160:	00028093          	mv	ra,t0
   13164:	ff078793          	addi	a5,a5,-16
   13168:	40f70733          	sub	a4,a4,a5
   1316c:	00f60633          	add	a2,a2,a5
   13170:	f6c378e3          	bgeu	t1,a2,130e0 <memset+0x44>
   13174:	f3dff06f          	j	130b0 <memset+0x14>

00013178 <__malloc_lock>:
   13178:	00008067          	ret

0001317c <__malloc_unlock>:
   1317c:	00008067          	ret

00013180 <_puts_r>:
   13180:	fc010113          	addi	sp,sp,-64
   13184:	02812c23          	sw	s0,56(sp)
   13188:	00050413          	mv	s0,a0
   1318c:	00058513          	mv	a0,a1
   13190:	02912a23          	sw	s1,52(sp)
   13194:	02112e23          	sw	ra,60(sp)
   13198:	00058493          	mv	s1,a1
   1319c:	120000ef          	jal	ra,132bc <strlen>
   131a0:	000157b7          	lui	a5,0x15
   131a4:	2a878793          	addi	a5,a5,680 # 152a8 <_exit+0x74>
   131a8:	02f12423          	sw	a5,40(sp)
   131ac:	00100793          	li	a5,1
   131b0:	02f12623          	sw	a5,44(sp)
   131b4:	03842703          	lw	a4,56(s0)
   131b8:	02010793          	addi	a5,sp,32
   131bc:	00150693          	addi	a3,a0,1
   131c0:	00f12a23          	sw	a5,20(sp)
   131c4:	00200793          	li	a5,2
   131c8:	02912023          	sw	s1,32(sp)
   131cc:	02a12223          	sw	a0,36(sp)
   131d0:	00d12e23          	sw	a3,28(sp)
   131d4:	00f12c23          	sw	a5,24(sp)
   131d8:	00842583          	lw	a1,8(s0)
   131dc:	06070063          	beqz	a4,1323c <_puts_r+0xbc>
   131e0:	00c59783          	lh	a5,12(a1)
   131e4:	01279713          	slli	a4,a5,0x12
   131e8:	02074263          	bltz	a4,1320c <_puts_r+0x8c>
   131ec:	0645a703          	lw	a4,100(a1)
   131f0:	000026b7          	lui	a3,0x2
   131f4:	00d7e7b3          	or	a5,a5,a3
   131f8:	ffffe6b7          	lui	a3,0xffffe
   131fc:	fff68693          	addi	a3,a3,-1 # ffffdfff <__BSS_END__+0xfffe297f>
   13200:	00d77733          	and	a4,a4,a3
   13204:	00f59623          	sh	a5,12(a1)
   13208:	06e5a223          	sw	a4,100(a1)
   1320c:	01410613          	addi	a2,sp,20
   13210:	00040513          	mv	a0,s0
   13214:	0b5000ef          	jal	ra,13ac8 <__sfvwrite_r>
   13218:	03c12083          	lw	ra,60(sp)
   1321c:	03812403          	lw	s0,56(sp)
   13220:	00153513          	seqz	a0,a0
   13224:	40a00533          	neg	a0,a0
   13228:	00b57513          	andi	a0,a0,11
   1322c:	03412483          	lw	s1,52(sp)
   13230:	fff50513          	addi	a0,a0,-1
   13234:	04010113          	addi	sp,sp,64
   13238:	00008067          	ret
   1323c:	00040513          	mv	a0,s0
   13240:	00b12623          	sw	a1,12(sp)
   13244:	3cc000ef          	jal	ra,13610 <__sinit>
   13248:	00c12583          	lw	a1,12(sp)
   1324c:	f95ff06f          	j	131e0 <_puts_r+0x60>

00013250 <puts>:
   13250:	000177b7          	lui	a5,0x17
   13254:	00050593          	mv	a1,a0
   13258:	0a07a503          	lw	a0,160(a5) # 170a0 <_impure_ptr>
   1325c:	f25ff06f          	j	13180 <_puts_r>

00013260 <_sbrk_r>:
   13260:	ff010113          	addi	sp,sp,-16
   13264:	00812423          	sw	s0,8(sp)
   13268:	00912223          	sw	s1,4(sp)
   1326c:	00050413          	mv	s0,a0
   13270:	00058513          	mv	a0,a1
   13274:	00112623          	sw	ra,12(sp)
   13278:	8001ae23          	sw	zero,-2020(gp) # 170b8 <errno>
   1327c:	ab8fd0ef          	jal	ra,10534 <_sbrk>
   13280:	fff00793          	li	a5,-1
   13284:	00f50c63          	beq	a0,a5,1329c <_sbrk_r+0x3c>
   13288:	00c12083          	lw	ra,12(sp)
   1328c:	00812403          	lw	s0,8(sp)
   13290:	00412483          	lw	s1,4(sp)
   13294:	01010113          	addi	sp,sp,16
   13298:	00008067          	ret
   1329c:	81c1a783          	lw	a5,-2020(gp) # 170b8 <errno>
   132a0:	fe0784e3          	beqz	a5,13288 <_sbrk_r+0x28>
   132a4:	00c12083          	lw	ra,12(sp)
   132a8:	00f42023          	sw	a5,0(s0)
   132ac:	00812403          	lw	s0,8(sp)
   132b0:	00412483          	lw	s1,4(sp)
   132b4:	01010113          	addi	sp,sp,16
   132b8:	00008067          	ret

000132bc <strlen>:
   132bc:	00357793          	andi	a5,a0,3
   132c0:	00050713          	mv	a4,a0
   132c4:	04079c63          	bnez	a5,1331c <strlen+0x60>
   132c8:	7f7f86b7          	lui	a3,0x7f7f8
   132cc:	f7f68693          	addi	a3,a3,-129 # 7f7f7f7f <__BSS_END__+0x7f7dc8ff>
   132d0:	fff00593          	li	a1,-1
   132d4:	00072603          	lw	a2,0(a4)
   132d8:	00470713          	addi	a4,a4,4
   132dc:	00d677b3          	and	a5,a2,a3
   132e0:	00d787b3          	add	a5,a5,a3
   132e4:	00c7e7b3          	or	a5,a5,a2
   132e8:	00d7e7b3          	or	a5,a5,a3
   132ec:	feb784e3          	beq	a5,a1,132d4 <strlen+0x18>
   132f0:	ffc74683          	lbu	a3,-4(a4)
   132f4:	40a707b3          	sub	a5,a4,a0
   132f8:	04068463          	beqz	a3,13340 <strlen+0x84>
   132fc:	ffd74683          	lbu	a3,-3(a4)
   13300:	02068c63          	beqz	a3,13338 <strlen+0x7c>
   13304:	ffe74503          	lbu	a0,-2(a4)
   13308:	00a03533          	snez	a0,a0
   1330c:	00f50533          	add	a0,a0,a5
   13310:	ffe50513          	addi	a0,a0,-2
   13314:	00008067          	ret
   13318:	fa0688e3          	beqz	a3,132c8 <strlen+0xc>
   1331c:	00074783          	lbu	a5,0(a4)
   13320:	00170713          	addi	a4,a4,1
   13324:	00377693          	andi	a3,a4,3
   13328:	fe0798e3          	bnez	a5,13318 <strlen+0x5c>
   1332c:	40a70733          	sub	a4,a4,a0
   13330:	fff70513          	addi	a0,a4,-1
   13334:	00008067          	ret
   13338:	ffd78513          	addi	a0,a5,-3
   1333c:	00008067          	ret
   13340:	ffc78513          	addi	a0,a5,-4
   13344:	00008067          	ret

00013348 <__call_exitprocs>:
   13348:	fd010113          	addi	sp,sp,-48
   1334c:	000177b7          	lui	a5,0x17
   13350:	01412c23          	sw	s4,24(sp)
   13354:	09c7aa03          	lw	s4,156(a5) # 1709c <_global_impure_ptr>
   13358:	03212023          	sw	s2,32(sp)
   1335c:	02112623          	sw	ra,44(sp)
   13360:	148a2903          	lw	s2,328(s4)
   13364:	02812423          	sw	s0,40(sp)
   13368:	02912223          	sw	s1,36(sp)
   1336c:	01312e23          	sw	s3,28(sp)
   13370:	01512a23          	sw	s5,20(sp)
   13374:	01612823          	sw	s6,16(sp)
   13378:	01712623          	sw	s7,12(sp)
   1337c:	01812423          	sw	s8,8(sp)
   13380:	04090063          	beqz	s2,133c0 <__call_exitprocs+0x78>
   13384:	00050b13          	mv	s6,a0
   13388:	00058b93          	mv	s7,a1
   1338c:	00100a93          	li	s5,1
   13390:	fff00993          	li	s3,-1
   13394:	00492483          	lw	s1,4(s2)
   13398:	fff48413          	addi	s0,s1,-1
   1339c:	02044263          	bltz	s0,133c0 <__call_exitprocs+0x78>
   133a0:	00249493          	slli	s1,s1,0x2
   133a4:	009904b3          	add	s1,s2,s1
   133a8:	040b8463          	beqz	s7,133f0 <__call_exitprocs+0xa8>
   133ac:	1044a783          	lw	a5,260(s1)
   133b0:	05778063          	beq	a5,s7,133f0 <__call_exitprocs+0xa8>
   133b4:	fff40413          	addi	s0,s0,-1
   133b8:	ffc48493          	addi	s1,s1,-4
   133bc:	ff3416e3          	bne	s0,s3,133a8 <__call_exitprocs+0x60>
   133c0:	02c12083          	lw	ra,44(sp)
   133c4:	02812403          	lw	s0,40(sp)
   133c8:	02412483          	lw	s1,36(sp)
   133cc:	02012903          	lw	s2,32(sp)
   133d0:	01c12983          	lw	s3,28(sp)
   133d4:	01812a03          	lw	s4,24(sp)
   133d8:	01412a83          	lw	s5,20(sp)
   133dc:	01012b03          	lw	s6,16(sp)
   133e0:	00c12b83          	lw	s7,12(sp)
   133e4:	00812c03          	lw	s8,8(sp)
   133e8:	03010113          	addi	sp,sp,48
   133ec:	00008067          	ret
   133f0:	00492783          	lw	a5,4(s2)
   133f4:	0044a683          	lw	a3,4(s1)
   133f8:	fff78793          	addi	a5,a5,-1
   133fc:	04878e63          	beq	a5,s0,13458 <__call_exitprocs+0x110>
   13400:	0004a223          	sw	zero,4(s1)
   13404:	fa0688e3          	beqz	a3,133b4 <__call_exitprocs+0x6c>
   13408:	18892783          	lw	a5,392(s2)
   1340c:	008a9733          	sll	a4,s5,s0
   13410:	00492c03          	lw	s8,4(s2)
   13414:	00f777b3          	and	a5,a4,a5
   13418:	02079263          	bnez	a5,1343c <__call_exitprocs+0xf4>
   1341c:	000680e7          	jalr	a3
   13420:	00492703          	lw	a4,4(s2)
   13424:	148a2783          	lw	a5,328(s4)
   13428:	01871463          	bne	a4,s8,13430 <__call_exitprocs+0xe8>
   1342c:	f92784e3          	beq	a5,s2,133b4 <__call_exitprocs+0x6c>
   13430:	f80788e3          	beqz	a5,133c0 <__call_exitprocs+0x78>
   13434:	00078913          	mv	s2,a5
   13438:	f5dff06f          	j	13394 <__call_exitprocs+0x4c>
   1343c:	18c92783          	lw	a5,396(s2)
   13440:	0844a583          	lw	a1,132(s1)
   13444:	00f77733          	and	a4,a4,a5
   13448:	00071c63          	bnez	a4,13460 <__call_exitprocs+0x118>
   1344c:	000b0513          	mv	a0,s6
   13450:	000680e7          	jalr	a3
   13454:	fcdff06f          	j	13420 <__call_exitprocs+0xd8>
   13458:	00892223          	sw	s0,4(s2)
   1345c:	fa9ff06f          	j	13404 <__call_exitprocs+0xbc>
   13460:	00058513          	mv	a0,a1
   13464:	000680e7          	jalr	a3
   13468:	fb9ff06f          	j	13420 <__call_exitprocs+0xd8>

0001346c <atexit>:
   1346c:	00050593          	mv	a1,a0
   13470:	00000693          	li	a3,0
   13474:	00000613          	li	a2,0
   13478:	00000513          	li	a0,0
   1347c:	5e40106f          	j	14a60 <__register_exitproc>

00013480 <_cleanup_r>:
   13480:	000155b7          	lui	a1,0x15
   13484:	b5858593          	addi	a1,a1,-1192 # 14b58 <_fclose_r>
   13488:	2dd0006f          	j	13f64 <_fwalk_reent>

0001348c <__sinit.part.0>:
   1348c:	fe010113          	addi	sp,sp,-32
   13490:	000137b7          	lui	a5,0x13
   13494:	00112e23          	sw	ra,28(sp)
   13498:	00812c23          	sw	s0,24(sp)
   1349c:	00912a23          	sw	s1,20(sp)
   134a0:	01212823          	sw	s2,16(sp)
   134a4:	01312623          	sw	s3,12(sp)
   134a8:	01412423          	sw	s4,8(sp)
   134ac:	01512223          	sw	s5,4(sp)
   134b0:	01612023          	sw	s6,0(sp)
   134b4:	00452403          	lw	s0,4(a0)
   134b8:	48078793          	addi	a5,a5,1152 # 13480 <_cleanup_r>
   134bc:	02f52e23          	sw	a5,60(a0)
   134c0:	2ec50713          	addi	a4,a0,748
   134c4:	00300793          	li	a5,3
   134c8:	2ee52423          	sw	a4,744(a0)
   134cc:	2ef52223          	sw	a5,740(a0)
   134d0:	2e052023          	sw	zero,736(a0)
   134d4:	00400793          	li	a5,4
   134d8:	00050913          	mv	s2,a0
   134dc:	00f42623          	sw	a5,12(s0)
   134e0:	00800613          	li	a2,8
   134e4:	00000593          	li	a1,0
   134e8:	00042023          	sw	zero,0(s0)
   134ec:	00042223          	sw	zero,4(s0)
   134f0:	00042423          	sw	zero,8(s0)
   134f4:	06042223          	sw	zero,100(s0)
   134f8:	00042823          	sw	zero,16(s0)
   134fc:	00042a23          	sw	zero,20(s0)
   13500:	00042c23          	sw	zero,24(s0)
   13504:	05c40513          	addi	a0,s0,92
   13508:	b95ff0ef          	jal	ra,1309c <memset>
   1350c:	00014b37          	lui	s6,0x14
   13510:	00892483          	lw	s1,8(s2)
   13514:	00014ab7          	lui	s5,0x14
   13518:	00015a37          	lui	s4,0x15
   1351c:	000159b7          	lui	s3,0x15
   13520:	750b0b13          	addi	s6,s6,1872 # 14750 <__sread>
   13524:	7aca8a93          	addi	s5,s5,1964 # 147ac <__swrite>
   13528:	834a0a13          	addi	s4,s4,-1996 # 14834 <__sseek>
   1352c:	8ac98993          	addi	s3,s3,-1876 # 148ac <__sclose>
   13530:	000107b7          	lui	a5,0x10
   13534:	03642023          	sw	s6,32(s0)
   13538:	03542223          	sw	s5,36(s0)
   1353c:	03442423          	sw	s4,40(s0)
   13540:	03342623          	sw	s3,44(s0)
   13544:	00842e23          	sw	s0,28(s0)
   13548:	00978793          	addi	a5,a5,9 # 10009 <exit-0x8b>
   1354c:	00f4a623          	sw	a5,12(s1)
   13550:	00800613          	li	a2,8
   13554:	00000593          	li	a1,0
   13558:	0004a023          	sw	zero,0(s1)
   1355c:	0004a223          	sw	zero,4(s1)
   13560:	0004a423          	sw	zero,8(s1)
   13564:	0604a223          	sw	zero,100(s1)
   13568:	0004a823          	sw	zero,16(s1)
   1356c:	0004aa23          	sw	zero,20(s1)
   13570:	0004ac23          	sw	zero,24(s1)
   13574:	05c48513          	addi	a0,s1,92
   13578:	b25ff0ef          	jal	ra,1309c <memset>
   1357c:	00c92403          	lw	s0,12(s2)
   13580:	000207b7          	lui	a5,0x20
   13584:	0364a023          	sw	s6,32(s1)
   13588:	0354a223          	sw	s5,36(s1)
   1358c:	0344a423          	sw	s4,40(s1)
   13590:	0334a623          	sw	s3,44(s1)
   13594:	0094ae23          	sw	s1,28(s1)
   13598:	01278793          	addi	a5,a5,18 # 20012 <__BSS_END__+0x4992>
   1359c:	00f42623          	sw	a5,12(s0)
   135a0:	00042023          	sw	zero,0(s0)
   135a4:	00042223          	sw	zero,4(s0)
   135a8:	00042423          	sw	zero,8(s0)
   135ac:	06042223          	sw	zero,100(s0)
   135b0:	00042823          	sw	zero,16(s0)
   135b4:	00042a23          	sw	zero,20(s0)
   135b8:	00042c23          	sw	zero,24(s0)
   135bc:	05c40513          	addi	a0,s0,92
   135c0:	00800613          	li	a2,8
   135c4:	00000593          	li	a1,0
   135c8:	ad5ff0ef          	jal	ra,1309c <memset>
   135cc:	01c12083          	lw	ra,28(sp)
   135d0:	03642023          	sw	s6,32(s0)
   135d4:	03542223          	sw	s5,36(s0)
   135d8:	03442423          	sw	s4,40(s0)
   135dc:	03342623          	sw	s3,44(s0)
   135e0:	00842e23          	sw	s0,28(s0)
   135e4:	01812403          	lw	s0,24(sp)
   135e8:	00100793          	li	a5,1
   135ec:	02f92c23          	sw	a5,56(s2)
   135f0:	01412483          	lw	s1,20(sp)
   135f4:	01012903          	lw	s2,16(sp)
   135f8:	00c12983          	lw	s3,12(sp)
   135fc:	00812a03          	lw	s4,8(sp)
   13600:	00412a83          	lw	s5,4(sp)
   13604:	00012b03          	lw	s6,0(sp)
   13608:	02010113          	addi	sp,sp,32
   1360c:	00008067          	ret

00013610 <__sinit>:
   13610:	03852783          	lw	a5,56(a0)
   13614:	00078463          	beqz	a5,1361c <__sinit+0xc>
   13618:	00008067          	ret
   1361c:	e71ff06f          	j	1348c <__sinit.part.0>

00013620 <__sfp_lock_acquire>:
   13620:	00008067          	ret

00013624 <__sfp_lock_release>:
   13624:	00008067          	ret

00013628 <__libc_fini_array>:
   13628:	ff010113          	addi	sp,sp,-16
   1362c:	00812423          	sw	s0,8(sp)
   13630:	000177b7          	lui	a5,0x17
   13634:	00017437          	lui	s0,0x17
   13638:	83c78793          	addi	a5,a5,-1988 # 1683c <__do_global_dtors_aux_fini_array_entry>
   1363c:	84040413          	addi	s0,s0,-1984 # 16840 <IO_UARTStatus>
   13640:	40f40433          	sub	s0,s0,a5
   13644:	00912223          	sw	s1,4(sp)
   13648:	00112623          	sw	ra,12(sp)
   1364c:	40245493          	srai	s1,s0,0x2
   13650:	02048063          	beqz	s1,13670 <__libc_fini_array+0x48>
   13654:	ffc40413          	addi	s0,s0,-4
   13658:	00f40433          	add	s0,s0,a5
   1365c:	00042783          	lw	a5,0(s0)
   13660:	fff48493          	addi	s1,s1,-1
   13664:	ffc40413          	addi	s0,s0,-4
   13668:	000780e7          	jalr	a5
   1366c:	fe0498e3          	bnez	s1,1365c <__libc_fini_array+0x34>
   13670:	00c12083          	lw	ra,12(sp)
   13674:	00812403          	lw	s0,8(sp)
   13678:	00412483          	lw	s1,4(sp)
   1367c:	01010113          	addi	sp,sp,16
   13680:	00008067          	ret

00013684 <_malloc_trim_r>:
   13684:	fe010113          	addi	sp,sp,-32
   13688:	01312623          	sw	s3,12(sp)
   1368c:	000179b7          	lui	s3,0x17
   13690:	00812c23          	sw	s0,24(sp)
   13694:	00912a23          	sw	s1,20(sp)
   13698:	01212823          	sw	s2,16(sp)
   1369c:	01412423          	sw	s4,8(sp)
   136a0:	00112e23          	sw	ra,28(sp)
   136a4:	00058a13          	mv	s4,a1
   136a8:	00050913          	mv	s2,a0
   136ac:	c7898993          	addi	s3,s3,-904 # 16c78 <__malloc_av_>
   136b0:	ac9ff0ef          	jal	ra,13178 <__malloc_lock>
   136b4:	0089a703          	lw	a4,8(s3)
   136b8:	000017b7          	lui	a5,0x1
   136bc:	fef78413          	addi	s0,a5,-17 # fef <exit-0xf0a5>
   136c0:	00472483          	lw	s1,4(a4)
   136c4:	ffc4f493          	andi	s1,s1,-4
   136c8:	00848433          	add	s0,s1,s0
   136cc:	41440433          	sub	s0,s0,s4
   136d0:	00c45413          	srli	s0,s0,0xc
   136d4:	fff40413          	addi	s0,s0,-1
   136d8:	00c41413          	slli	s0,s0,0xc
   136dc:	00f44e63          	blt	s0,a5,136f8 <_malloc_trim_r+0x74>
   136e0:	00000593          	li	a1,0
   136e4:	00090513          	mv	a0,s2
   136e8:	b79ff0ef          	jal	ra,13260 <_sbrk_r>
   136ec:	0089a783          	lw	a5,8(s3)
   136f0:	009787b3          	add	a5,a5,s1
   136f4:	02f50863          	beq	a0,a5,13724 <_malloc_trim_r+0xa0>
   136f8:	00090513          	mv	a0,s2
   136fc:	a81ff0ef          	jal	ra,1317c <__malloc_unlock>
   13700:	01c12083          	lw	ra,28(sp)
   13704:	01812403          	lw	s0,24(sp)
   13708:	01412483          	lw	s1,20(sp)
   1370c:	01012903          	lw	s2,16(sp)
   13710:	00c12983          	lw	s3,12(sp)
   13714:	00812a03          	lw	s4,8(sp)
   13718:	00000513          	li	a0,0
   1371c:	02010113          	addi	sp,sp,32
   13720:	00008067          	ret
   13724:	408005b3          	neg	a1,s0
   13728:	00090513          	mv	a0,s2
   1372c:	b35ff0ef          	jal	ra,13260 <_sbrk_r>
   13730:	fff00793          	li	a5,-1
   13734:	04f50a63          	beq	a0,a5,13788 <_malloc_trim_r+0x104>
   13738:	0001b7b7          	lui	a5,0x1b
   1373c:	65878793          	addi	a5,a5,1624 # 1b658 <__malloc_current_mallinfo>
   13740:	0007a703          	lw	a4,0(a5)
   13744:	0089a683          	lw	a3,8(s3)
   13748:	408484b3          	sub	s1,s1,s0
   1374c:	0014e493          	ori	s1,s1,1
   13750:	40870733          	sub	a4,a4,s0
   13754:	00090513          	mv	a0,s2
   13758:	0096a223          	sw	s1,4(a3)
   1375c:	00e7a023          	sw	a4,0(a5)
   13760:	a1dff0ef          	jal	ra,1317c <__malloc_unlock>
   13764:	01c12083          	lw	ra,28(sp)
   13768:	01812403          	lw	s0,24(sp)
   1376c:	01412483          	lw	s1,20(sp)
   13770:	01012903          	lw	s2,16(sp)
   13774:	00c12983          	lw	s3,12(sp)
   13778:	00812a03          	lw	s4,8(sp)
   1377c:	00100513          	li	a0,1
   13780:	02010113          	addi	sp,sp,32
   13784:	00008067          	ret
   13788:	00000593          	li	a1,0
   1378c:	00090513          	mv	a0,s2
   13790:	ad1ff0ef          	jal	ra,13260 <_sbrk_r>
   13794:	0089a703          	lw	a4,8(s3)
   13798:	00f00693          	li	a3,15
   1379c:	40e507b3          	sub	a5,a0,a4
   137a0:	f4f6dce3          	bge	a3,a5,136f8 <_malloc_trim_r+0x74>
   137a4:	000176b7          	lui	a3,0x17
   137a8:	0a46a683          	lw	a3,164(a3) # 170a4 <__malloc_sbrk_base>
   137ac:	0017e793          	ori	a5,a5,1
   137b0:	00f72223          	sw	a5,4(a4)
   137b4:	40d50533          	sub	a0,a0,a3
   137b8:	0001b6b7          	lui	a3,0x1b
   137bc:	64a6ac23          	sw	a0,1624(a3) # 1b658 <__malloc_current_mallinfo>
   137c0:	f39ff06f          	j	136f8 <_malloc_trim_r+0x74>

000137c4 <_free_r>:
   137c4:	18058263          	beqz	a1,13948 <_free_r+0x184>
   137c8:	ff010113          	addi	sp,sp,-16
   137cc:	00812423          	sw	s0,8(sp)
   137d0:	00912223          	sw	s1,4(sp)
   137d4:	00058413          	mv	s0,a1
   137d8:	00050493          	mv	s1,a0
   137dc:	00112623          	sw	ra,12(sp)
   137e0:	999ff0ef          	jal	ra,13178 <__malloc_lock>
   137e4:	ffc42503          	lw	a0,-4(s0)
   137e8:	ff840713          	addi	a4,s0,-8
   137ec:	000175b7          	lui	a1,0x17
   137f0:	ffe57793          	andi	a5,a0,-2
   137f4:	00f70633          	add	a2,a4,a5
   137f8:	c7858593          	addi	a1,a1,-904 # 16c78 <__malloc_av_>
   137fc:	00462683          	lw	a3,4(a2)
   13800:	0085a803          	lw	a6,8(a1)
   13804:	ffc6f693          	andi	a3,a3,-4
   13808:	1ac80263          	beq	a6,a2,139ac <_free_r+0x1e8>
   1380c:	00d62223          	sw	a3,4(a2)
   13810:	00157513          	andi	a0,a0,1
   13814:	00d60833          	add	a6,a2,a3
   13818:	0a051063          	bnez	a0,138b8 <_free_r+0xf4>
   1381c:	ff842303          	lw	t1,-8(s0)
   13820:	00482803          	lw	a6,4(a6)
   13824:	00017537          	lui	a0,0x17
   13828:	40670733          	sub	a4,a4,t1
   1382c:	00872883          	lw	a7,8(a4)
   13830:	c8050513          	addi	a0,a0,-896 # 16c80 <__malloc_av_+0x8>
   13834:	006787b3          	add	a5,a5,t1
   13838:	00187813          	andi	a6,a6,1
   1383c:	14a88263          	beq	a7,a0,13980 <_free_r+0x1bc>
   13840:	00c72303          	lw	t1,12(a4)
   13844:	0068a623          	sw	t1,12(a7)
   13848:	01132423          	sw	a7,8(t1)
   1384c:	1a080663          	beqz	a6,139f8 <_free_r+0x234>
   13850:	0017e693          	ori	a3,a5,1
   13854:	00d72223          	sw	a3,4(a4)
   13858:	00f62023          	sw	a5,0(a2)
   1385c:	1ff00693          	li	a3,511
   13860:	06f6ec63          	bltu	a3,a5,138d8 <_free_r+0x114>
   13864:	ff87f693          	andi	a3,a5,-8
   13868:	00868693          	addi	a3,a3,8
   1386c:	0045a503          	lw	a0,4(a1)
   13870:	00d586b3          	add	a3,a1,a3
   13874:	0006a603          	lw	a2,0(a3)
   13878:	0057d813          	srli	a6,a5,0x5
   1387c:	00100793          	li	a5,1
   13880:	010797b3          	sll	a5,a5,a6
   13884:	00a7e7b3          	or	a5,a5,a0
   13888:	ff868513          	addi	a0,a3,-8
   1388c:	00a72623          	sw	a0,12(a4)
   13890:	00c72423          	sw	a2,8(a4)
   13894:	00f5a223          	sw	a5,4(a1)
   13898:	00e6a023          	sw	a4,0(a3)
   1389c:	00e62623          	sw	a4,12(a2)
   138a0:	00812403          	lw	s0,8(sp)
   138a4:	00c12083          	lw	ra,12(sp)
   138a8:	00048513          	mv	a0,s1
   138ac:	00412483          	lw	s1,4(sp)
   138b0:	01010113          	addi	sp,sp,16
   138b4:	8c9ff06f          	j	1317c <__malloc_unlock>
   138b8:	00482503          	lw	a0,4(a6)
   138bc:	00157513          	andi	a0,a0,1
   138c0:	08050663          	beqz	a0,1394c <_free_r+0x188>
   138c4:	0017e693          	ori	a3,a5,1
   138c8:	fed42e23          	sw	a3,-4(s0)
   138cc:	00f62023          	sw	a5,0(a2)
   138d0:	1ff00693          	li	a3,511
   138d4:	f8f6f8e3          	bgeu	a3,a5,13864 <_free_r+0xa0>
   138d8:	0097d693          	srli	a3,a5,0x9
   138dc:	00400613          	li	a2,4
   138e0:	12d66063          	bltu	a2,a3,13a00 <_free_r+0x23c>
   138e4:	0067d693          	srli	a3,a5,0x6
   138e8:	03968513          	addi	a0,a3,57
   138ec:	03868613          	addi	a2,a3,56
   138f0:	00351513          	slli	a0,a0,0x3
   138f4:	00a58533          	add	a0,a1,a0
   138f8:	00052683          	lw	a3,0(a0)
   138fc:	ff850513          	addi	a0,a0,-8
   13900:	00d51863          	bne	a0,a3,13910 <_free_r+0x14c>
   13904:	1540006f          	j	13a58 <_free_r+0x294>
   13908:	0086a683          	lw	a3,8(a3)
   1390c:	00d50863          	beq	a0,a3,1391c <_free_r+0x158>
   13910:	0046a603          	lw	a2,4(a3)
   13914:	ffc67613          	andi	a2,a2,-4
   13918:	fec7e8e3          	bltu	a5,a2,13908 <_free_r+0x144>
   1391c:	00c6a503          	lw	a0,12(a3)
   13920:	00a72623          	sw	a0,12(a4)
   13924:	00d72423          	sw	a3,8(a4)
   13928:	00812403          	lw	s0,8(sp)
   1392c:	00e52423          	sw	a4,8(a0)
   13930:	00c12083          	lw	ra,12(sp)
   13934:	00048513          	mv	a0,s1
   13938:	00412483          	lw	s1,4(sp)
   1393c:	00e6a623          	sw	a4,12(a3)
   13940:	01010113          	addi	sp,sp,16
   13944:	839ff06f          	j	1317c <__malloc_unlock>
   13948:	00008067          	ret
   1394c:	00017537          	lui	a0,0x17
   13950:	00d787b3          	add	a5,a5,a3
   13954:	c8050513          	addi	a0,a0,-896 # 16c80 <__malloc_av_+0x8>
   13958:	00862683          	lw	a3,8(a2)
   1395c:	0ca68c63          	beq	a3,a0,13a34 <_free_r+0x270>
   13960:	00c62803          	lw	a6,12(a2)
   13964:	0017e513          	ori	a0,a5,1
   13968:	00f70633          	add	a2,a4,a5
   1396c:	0106a623          	sw	a6,12(a3)
   13970:	00d82423          	sw	a3,8(a6)
   13974:	00a72223          	sw	a0,4(a4)
   13978:	00f62023          	sw	a5,0(a2)
   1397c:	ee1ff06f          	j	1385c <_free_r+0x98>
   13980:	12081c63          	bnez	a6,13ab8 <_free_r+0x2f4>
   13984:	00862583          	lw	a1,8(a2)
   13988:	00c62603          	lw	a2,12(a2)
   1398c:	00f686b3          	add	a3,a3,a5
   13990:	0016e793          	ori	a5,a3,1
   13994:	00c5a623          	sw	a2,12(a1)
   13998:	00b62423          	sw	a1,8(a2)
   1399c:	00f72223          	sw	a5,4(a4)
   139a0:	00d70733          	add	a4,a4,a3
   139a4:	00d72023          	sw	a3,0(a4)
   139a8:	ef9ff06f          	j	138a0 <_free_r+0xdc>
   139ac:	00157513          	andi	a0,a0,1
   139b0:	00d786b3          	add	a3,a5,a3
   139b4:	02051063          	bnez	a0,139d4 <_free_r+0x210>
   139b8:	ff842503          	lw	a0,-8(s0)
   139bc:	40a70733          	sub	a4,a4,a0
   139c0:	00c72783          	lw	a5,12(a4)
   139c4:	00872603          	lw	a2,8(a4)
   139c8:	00a686b3          	add	a3,a3,a0
   139cc:	00f62623          	sw	a5,12(a2)
   139d0:	00c7a423          	sw	a2,8(a5)
   139d4:	0016e613          	ori	a2,a3,1
   139d8:	80c1a783          	lw	a5,-2036(gp) # 170a8 <__malloc_trim_threshold>
   139dc:	00c72223          	sw	a2,4(a4)
   139e0:	00e5a423          	sw	a4,8(a1)
   139e4:	eaf6eee3          	bltu	a3,a5,138a0 <_free_r+0xdc>
   139e8:	8181a583          	lw	a1,-2024(gp) # 170b4 <__malloc_top_pad>
   139ec:	00048513          	mv	a0,s1
   139f0:	c95ff0ef          	jal	ra,13684 <_malloc_trim_r>
   139f4:	eadff06f          	j	138a0 <_free_r+0xdc>
   139f8:	00d787b3          	add	a5,a5,a3
   139fc:	f5dff06f          	j	13958 <_free_r+0x194>
   13a00:	01400613          	li	a2,20
   13a04:	02d67063          	bgeu	a2,a3,13a24 <_free_r+0x260>
   13a08:	05400613          	li	a2,84
   13a0c:	06d66463          	bltu	a2,a3,13a74 <_free_r+0x2b0>
   13a10:	00c7d693          	srli	a3,a5,0xc
   13a14:	06f68513          	addi	a0,a3,111
   13a18:	06e68613          	addi	a2,a3,110
   13a1c:	00351513          	slli	a0,a0,0x3
   13a20:	ed5ff06f          	j	138f4 <_free_r+0x130>
   13a24:	05c68513          	addi	a0,a3,92
   13a28:	05b68613          	addi	a2,a3,91
   13a2c:	00351513          	slli	a0,a0,0x3
   13a30:	ec5ff06f          	j	138f4 <_free_r+0x130>
   13a34:	00e5aa23          	sw	a4,20(a1)
   13a38:	00e5a823          	sw	a4,16(a1)
   13a3c:	0017e693          	ori	a3,a5,1
   13a40:	00a72623          	sw	a0,12(a4)
   13a44:	00a72423          	sw	a0,8(a4)
   13a48:	00d72223          	sw	a3,4(a4)
   13a4c:	00f70733          	add	a4,a4,a5
   13a50:	00f72023          	sw	a5,0(a4)
   13a54:	e4dff06f          	j	138a0 <_free_r+0xdc>
   13a58:	0045a803          	lw	a6,4(a1)
   13a5c:	40265613          	srai	a2,a2,0x2
   13a60:	00100793          	li	a5,1
   13a64:	00c797b3          	sll	a5,a5,a2
   13a68:	0107e7b3          	or	a5,a5,a6
   13a6c:	00f5a223          	sw	a5,4(a1)
   13a70:	eb1ff06f          	j	13920 <_free_r+0x15c>
   13a74:	15400613          	li	a2,340
   13a78:	00d66c63          	bltu	a2,a3,13a90 <_free_r+0x2cc>
   13a7c:	00f7d693          	srli	a3,a5,0xf
   13a80:	07868513          	addi	a0,a3,120
   13a84:	07768613          	addi	a2,a3,119
   13a88:	00351513          	slli	a0,a0,0x3
   13a8c:	e69ff06f          	j	138f4 <_free_r+0x130>
   13a90:	55400613          	li	a2,1364
   13a94:	00d66c63          	bltu	a2,a3,13aac <_free_r+0x2e8>
   13a98:	0127d693          	srli	a3,a5,0x12
   13a9c:	07d68513          	addi	a0,a3,125
   13aa0:	07c68613          	addi	a2,a3,124
   13aa4:	00351513          	slli	a0,a0,0x3
   13aa8:	e4dff06f          	j	138f4 <_free_r+0x130>
   13aac:	3f800513          	li	a0,1016
   13ab0:	07e00613          	li	a2,126
   13ab4:	e41ff06f          	j	138f4 <_free_r+0x130>
   13ab8:	0017e693          	ori	a3,a5,1
   13abc:	00d72223          	sw	a3,4(a4)
   13ac0:	00f62023          	sw	a5,0(a2)
   13ac4:	dddff06f          	j	138a0 <_free_r+0xdc>

00013ac8 <__sfvwrite_r>:
   13ac8:	00862783          	lw	a5,8(a2)
   13acc:	30078a63          	beqz	a5,13de0 <__sfvwrite_r+0x318>
   13ad0:	00c59683          	lh	a3,12(a1)
   13ad4:	fd010113          	addi	sp,sp,-48
   13ad8:	02812423          	sw	s0,40(sp)
   13adc:	01412c23          	sw	s4,24(sp)
   13ae0:	01612823          	sw	s6,16(sp)
   13ae4:	02112623          	sw	ra,44(sp)
   13ae8:	02912223          	sw	s1,36(sp)
   13aec:	03212023          	sw	s2,32(sp)
   13af0:	01312e23          	sw	s3,28(sp)
   13af4:	01512a23          	sw	s5,20(sp)
   13af8:	01712623          	sw	s7,12(sp)
   13afc:	01812423          	sw	s8,8(sp)
   13b00:	01912223          	sw	s9,4(sp)
   13b04:	0086f793          	andi	a5,a3,8
   13b08:	00060b13          	mv	s6,a2
   13b0c:	00050a13          	mv	s4,a0
   13b10:	00058413          	mv	s0,a1
   13b14:	08078663          	beqz	a5,13ba0 <__sfvwrite_r+0xd8>
   13b18:	0105a783          	lw	a5,16(a1)
   13b1c:	08078263          	beqz	a5,13ba0 <__sfvwrite_r+0xd8>
   13b20:	0026f793          	andi	a5,a3,2
   13b24:	000b2483          	lw	s1,0(s6)
   13b28:	08078c63          	beqz	a5,13bc0 <__sfvwrite_r+0xf8>
   13b2c:	02442783          	lw	a5,36(s0)
   13b30:	01c42583          	lw	a1,28(s0)
   13b34:	80000ab7          	lui	s5,0x80000
   13b38:	00000993          	li	s3,0
   13b3c:	00000913          	li	s2,0
   13b40:	c00aca93          	xori	s5,s5,-1024
   13b44:	00098613          	mv	a2,s3
   13b48:	000a0513          	mv	a0,s4
   13b4c:	04090263          	beqz	s2,13b90 <__sfvwrite_r+0xc8>
   13b50:	00090693          	mv	a3,s2
   13b54:	012af463          	bgeu	s5,s2,13b5c <__sfvwrite_r+0x94>
   13b58:	000a8693          	mv	a3,s5
   13b5c:	000780e7          	jalr	a5
   13b60:	26a05663          	blez	a0,13dcc <__sfvwrite_r+0x304>
   13b64:	008b2783          	lw	a5,8(s6)
   13b68:	00a989b3          	add	s3,s3,a0
   13b6c:	40a90933          	sub	s2,s2,a0
   13b70:	40a787b3          	sub	a5,a5,a0
   13b74:	00fb2423          	sw	a5,8(s6)
   13b78:	20078663          	beqz	a5,13d84 <__sfvwrite_r+0x2bc>
   13b7c:	02442783          	lw	a5,36(s0)
   13b80:	01c42583          	lw	a1,28(s0)
   13b84:	00098613          	mv	a2,s3
   13b88:	000a0513          	mv	a0,s4
   13b8c:	fc0912e3          	bnez	s2,13b50 <__sfvwrite_r+0x88>
   13b90:	0004a983          	lw	s3,0(s1)
   13b94:	0044a903          	lw	s2,4(s1)
   13b98:	00848493          	addi	s1,s1,8
   13b9c:	fa9ff06f          	j	13b44 <__sfvwrite_r+0x7c>
   13ba0:	00040593          	mv	a1,s0
   13ba4:	000a0513          	mv	a0,s4
   13ba8:	575000ef          	jal	ra,1491c <__swsetup_r>
   13bac:	22051663          	bnez	a0,13dd8 <__sfvwrite_r+0x310>
   13bb0:	00c41683          	lh	a3,12(s0)
   13bb4:	000b2483          	lw	s1,0(s6)
   13bb8:	0026f793          	andi	a5,a3,2
   13bbc:	f60798e3          	bnez	a5,13b2c <__sfvwrite_r+0x64>
   13bc0:	0016f793          	andi	a5,a3,1
   13bc4:	12079c63          	bnez	a5,13cfc <__sfvwrite_r+0x234>
   13bc8:	00042783          	lw	a5,0(s0)
   13bcc:	00842703          	lw	a4,8(s0)
   13bd0:	80000ab7          	lui	s5,0x80000
   13bd4:	00000b93          	li	s7,0
   13bd8:	00000993          	li	s3,0
   13bdc:	fffaca93          	not	s5,s5
   13be0:	00078513          	mv	a0,a5
   13be4:	00070c13          	mv	s8,a4
   13be8:	10098263          	beqz	s3,13cec <__sfvwrite_r+0x224>
   13bec:	2006f613          	andi	a2,a3,512
   13bf0:	24060c63          	beqz	a2,13e48 <__sfvwrite_r+0x380>
   13bf4:	00070c93          	mv	s9,a4
   13bf8:	2ee9e463          	bltu	s3,a4,13ee0 <__sfvwrite_r+0x418>
   13bfc:	4806f713          	andi	a4,a3,1152
   13c00:	08070a63          	beqz	a4,13c94 <__sfvwrite_r+0x1cc>
   13c04:	01442603          	lw	a2,20(s0)
   13c08:	01042583          	lw	a1,16(s0)
   13c0c:	00161713          	slli	a4,a2,0x1
   13c10:	00c70733          	add	a4,a4,a2
   13c14:	40b78933          	sub	s2,a5,a1
   13c18:	01f75c13          	srli	s8,a4,0x1f
   13c1c:	00ec0c33          	add	s8,s8,a4
   13c20:	00190793          	addi	a5,s2,1
   13c24:	401c5c13          	srai	s8,s8,0x1
   13c28:	013787b3          	add	a5,a5,s3
   13c2c:	000c0613          	mv	a2,s8
   13c30:	00fc7663          	bgeu	s8,a5,13c3c <__sfvwrite_r+0x174>
   13c34:	00078c13          	mv	s8,a5
   13c38:	00078613          	mv	a2,a5
   13c3c:	4006f693          	andi	a3,a3,1024
   13c40:	2c068c63          	beqz	a3,13f18 <__sfvwrite_r+0x450>
   13c44:	00060593          	mv	a1,a2
   13c48:	000a0513          	mv	a0,s4
   13c4c:	b21fe0ef          	jal	ra,1276c <_malloc_r>
   13c50:	00050c93          	mv	s9,a0
   13c54:	30050063          	beqz	a0,13f54 <__sfvwrite_r+0x48c>
   13c58:	01042583          	lw	a1,16(s0)
   13c5c:	00090613          	mv	a2,s2
   13c60:	a98ff0ef          	jal	ra,12ef8 <memcpy>
   13c64:	00c45783          	lhu	a5,12(s0)
   13c68:	b7f7f793          	andi	a5,a5,-1153
   13c6c:	0807e793          	ori	a5,a5,128
   13c70:	00f41623          	sh	a5,12(s0)
   13c74:	012c8533          	add	a0,s9,s2
   13c78:	412c07b3          	sub	a5,s8,s2
   13c7c:	01942823          	sw	s9,16(s0)
   13c80:	01842a23          	sw	s8,20(s0)
   13c84:	00a42023          	sw	a0,0(s0)
   13c88:	00098c13          	mv	s8,s3
   13c8c:	00f42423          	sw	a5,8(s0)
   13c90:	00098c93          	mv	s9,s3
   13c94:	000c8613          	mv	a2,s9
   13c98:	000b8593          	mv	a1,s7
   13c9c:	440000ef          	jal	ra,140dc <memmove>
   13ca0:	00842703          	lw	a4,8(s0)
   13ca4:	00042783          	lw	a5,0(s0)
   13ca8:	00098913          	mv	s2,s3
   13cac:	41870733          	sub	a4,a4,s8
   13cb0:	019787b3          	add	a5,a5,s9
   13cb4:	00e42423          	sw	a4,8(s0)
   13cb8:	00f42023          	sw	a5,0(s0)
   13cbc:	00000993          	li	s3,0
   13cc0:	008b2783          	lw	a5,8(s6)
   13cc4:	012b8bb3          	add	s7,s7,s2
   13cc8:	412787b3          	sub	a5,a5,s2
   13ccc:	00fb2423          	sw	a5,8(s6)
   13cd0:	0a078a63          	beqz	a5,13d84 <__sfvwrite_r+0x2bc>
   13cd4:	00042783          	lw	a5,0(s0)
   13cd8:	00842703          	lw	a4,8(s0)
   13cdc:	00c41683          	lh	a3,12(s0)
   13ce0:	00078513          	mv	a0,a5
   13ce4:	00070c13          	mv	s8,a4
   13ce8:	f00992e3          	bnez	s3,13bec <__sfvwrite_r+0x124>
   13cec:	0004ab83          	lw	s7,0(s1)
   13cf0:	0044a983          	lw	s3,4(s1)
   13cf4:	00848493          	addi	s1,s1,8
   13cf8:	ee9ff06f          	j	13be0 <__sfvwrite_r+0x118>
   13cfc:	00000a93          	li	s5,0
   13d00:	00000513          	li	a0,0
   13d04:	00000c13          	li	s8,0
   13d08:	00000993          	li	s3,0
   13d0c:	0c098e63          	beqz	s3,13de8 <__sfvwrite_r+0x320>
   13d10:	0e050663          	beqz	a0,13dfc <__sfvwrite_r+0x334>
   13d14:	000a8793          	mv	a5,s5
   13d18:	00098b93          	mv	s7,s3
   13d1c:	0137f463          	bgeu	a5,s3,13d24 <__sfvwrite_r+0x25c>
   13d20:	00078b93          	mv	s7,a5
   13d24:	00042503          	lw	a0,0(s0)
   13d28:	01042783          	lw	a5,16(s0)
   13d2c:	00842903          	lw	s2,8(s0)
   13d30:	01442683          	lw	a3,20(s0)
   13d34:	00a7f663          	bgeu	a5,a0,13d40 <__sfvwrite_r+0x278>
   13d38:	00d90933          	add	s2,s2,a3
   13d3c:	0f794063          	blt	s2,s7,13e1c <__sfvwrite_r+0x354>
   13d40:	1adbc663          	blt	s7,a3,13eec <__sfvwrite_r+0x424>
   13d44:	02442783          	lw	a5,36(s0)
   13d48:	01c42583          	lw	a1,28(s0)
   13d4c:	000c0613          	mv	a2,s8
   13d50:	000a0513          	mv	a0,s4
   13d54:	000780e7          	jalr	a5
   13d58:	00050913          	mv	s2,a0
   13d5c:	06a05863          	blez	a0,13dcc <__sfvwrite_r+0x304>
   13d60:	412a8ab3          	sub	s5,s5,s2
   13d64:	00100513          	li	a0,1
   13d68:	040a8a63          	beqz	s5,13dbc <__sfvwrite_r+0x2f4>
   13d6c:	008b2783          	lw	a5,8(s6)
   13d70:	012c0c33          	add	s8,s8,s2
   13d74:	412989b3          	sub	s3,s3,s2
   13d78:	412787b3          	sub	a5,a5,s2
   13d7c:	00fb2423          	sw	a5,8(s6)
   13d80:	f80796e3          	bnez	a5,13d0c <__sfvwrite_r+0x244>
   13d84:	00000513          	li	a0,0
   13d88:	02c12083          	lw	ra,44(sp)
   13d8c:	02812403          	lw	s0,40(sp)
   13d90:	02412483          	lw	s1,36(sp)
   13d94:	02012903          	lw	s2,32(sp)
   13d98:	01c12983          	lw	s3,28(sp)
   13d9c:	01812a03          	lw	s4,24(sp)
   13da0:	01412a83          	lw	s5,20(sp)
   13da4:	01012b03          	lw	s6,16(sp)
   13da8:	00c12b83          	lw	s7,12(sp)
   13dac:	00812c03          	lw	s8,8(sp)
   13db0:	00412c83          	lw	s9,4(sp)
   13db4:	03010113          	addi	sp,sp,48
   13db8:	00008067          	ret
   13dbc:	00040593          	mv	a1,s0
   13dc0:	000a0513          	mv	a0,s4
   13dc4:	0f0010ef          	jal	ra,14eb4 <_fflush_r>
   13dc8:	fa0502e3          	beqz	a0,13d6c <__sfvwrite_r+0x2a4>
   13dcc:	00c41783          	lh	a5,12(s0)
   13dd0:	0407e793          	ori	a5,a5,64
   13dd4:	00f41623          	sh	a5,12(s0)
   13dd8:	fff00513          	li	a0,-1
   13ddc:	fadff06f          	j	13d88 <__sfvwrite_r+0x2c0>
   13de0:	00000513          	li	a0,0
   13de4:	00008067          	ret
   13de8:	0044a983          	lw	s3,4(s1)
   13dec:	00048793          	mv	a5,s1
   13df0:	00848493          	addi	s1,s1,8
   13df4:	fe098ae3          	beqz	s3,13de8 <__sfvwrite_r+0x320>
   13df8:	0007ac03          	lw	s8,0(a5)
   13dfc:	00098613          	mv	a2,s3
   13e00:	00a00593          	li	a1,10
   13e04:	000c0513          	mv	a0,s8
   13e08:	210000ef          	jal	ra,14018 <memchr>
   13e0c:	12050e63          	beqz	a0,13f48 <__sfvwrite_r+0x480>
   13e10:	00150513          	addi	a0,a0,1
   13e14:	41850ab3          	sub	s5,a0,s8
   13e18:	efdff06f          	j	13d14 <__sfvwrite_r+0x24c>
   13e1c:	000c0593          	mv	a1,s8
   13e20:	00090613          	mv	a2,s2
   13e24:	2b8000ef          	jal	ra,140dc <memmove>
   13e28:	00042783          	lw	a5,0(s0)
   13e2c:	00040593          	mv	a1,s0
   13e30:	000a0513          	mv	a0,s4
   13e34:	012787b3          	add	a5,a5,s2
   13e38:	00f42023          	sw	a5,0(s0)
   13e3c:	078010ef          	jal	ra,14eb4 <_fflush_r>
   13e40:	f20500e3          	beqz	a0,13d60 <__sfvwrite_r+0x298>
   13e44:	f89ff06f          	j	13dcc <__sfvwrite_r+0x304>
   13e48:	01042683          	lw	a3,16(s0)
   13e4c:	04f6e263          	bltu	a3,a5,13e90 <__sfvwrite_r+0x3c8>
   13e50:	01442603          	lw	a2,20(s0)
   13e54:	02c9ee63          	bltu	s3,a2,13e90 <__sfvwrite_r+0x3c8>
   13e58:	00098793          	mv	a5,s3
   13e5c:	013af463          	bgeu	s5,s3,13e64 <__sfvwrite_r+0x39c>
   13e60:	000a8793          	mv	a5,s5
   13e64:	02c7e6b3          	rem	a3,a5,a2
   13e68:	02442703          	lw	a4,36(s0)
   13e6c:	01c42583          	lw	a1,28(s0)
   13e70:	000b8613          	mv	a2,s7
   13e74:	000a0513          	mv	a0,s4
   13e78:	40d786b3          	sub	a3,a5,a3
   13e7c:	000700e7          	jalr	a4
   13e80:	00050913          	mv	s2,a0
   13e84:	f4a054e3          	blez	a0,13dcc <__sfvwrite_r+0x304>
   13e88:	412989b3          	sub	s3,s3,s2
   13e8c:	e35ff06f          	j	13cc0 <__sfvwrite_r+0x1f8>
   13e90:	00070913          	mv	s2,a4
   13e94:	00e9f463          	bgeu	s3,a4,13e9c <__sfvwrite_r+0x3d4>
   13e98:	00098913          	mv	s2,s3
   13e9c:	00078513          	mv	a0,a5
   13ea0:	00090613          	mv	a2,s2
   13ea4:	000b8593          	mv	a1,s7
   13ea8:	234000ef          	jal	ra,140dc <memmove>
   13eac:	00842703          	lw	a4,8(s0)
   13eb0:	00042783          	lw	a5,0(s0)
   13eb4:	41270733          	sub	a4,a4,s2
   13eb8:	012787b3          	add	a5,a5,s2
   13ebc:	00e42423          	sw	a4,8(s0)
   13ec0:	00f42023          	sw	a5,0(s0)
   13ec4:	fc0712e3          	bnez	a4,13e88 <__sfvwrite_r+0x3c0>
   13ec8:	00040593          	mv	a1,s0
   13ecc:	000a0513          	mv	a0,s4
   13ed0:	7e5000ef          	jal	ra,14eb4 <_fflush_r>
   13ed4:	ee051ce3          	bnez	a0,13dcc <__sfvwrite_r+0x304>
   13ed8:	412989b3          	sub	s3,s3,s2
   13edc:	de5ff06f          	j	13cc0 <__sfvwrite_r+0x1f8>
   13ee0:	00098c13          	mv	s8,s3
   13ee4:	00098c93          	mv	s9,s3
   13ee8:	dadff06f          	j	13c94 <__sfvwrite_r+0x1cc>
   13eec:	000b8613          	mv	a2,s7
   13ef0:	000c0593          	mv	a1,s8
   13ef4:	1e8000ef          	jal	ra,140dc <memmove>
   13ef8:	00842703          	lw	a4,8(s0)
   13efc:	00042783          	lw	a5,0(s0)
   13f00:	000b8913          	mv	s2,s7
   13f04:	41770733          	sub	a4,a4,s7
   13f08:	017787b3          	add	a5,a5,s7
   13f0c:	00e42423          	sw	a4,8(s0)
   13f10:	00f42023          	sw	a5,0(s0)
   13f14:	e4dff06f          	j	13d60 <__sfvwrite_r+0x298>
   13f18:	000a0513          	mv	a0,s4
   13f1c:	2dc000ef          	jal	ra,141f8 <_realloc_r>
   13f20:	00050c93          	mv	s9,a0
   13f24:	d40518e3          	bnez	a0,13c74 <__sfvwrite_r+0x1ac>
   13f28:	01042583          	lw	a1,16(s0)
   13f2c:	000a0513          	mv	a0,s4
   13f30:	895ff0ef          	jal	ra,137c4 <_free_r>
   13f34:	00c41783          	lh	a5,12(s0)
   13f38:	00c00713          	li	a4,12
   13f3c:	00ea2023          	sw	a4,0(s4)
   13f40:	f7f7f793          	andi	a5,a5,-129
   13f44:	e8dff06f          	j	13dd0 <__sfvwrite_r+0x308>
   13f48:	00198793          	addi	a5,s3,1
   13f4c:	00078a93          	mv	s5,a5
   13f50:	dc9ff06f          	j	13d18 <__sfvwrite_r+0x250>
   13f54:	00c00713          	li	a4,12
   13f58:	00c41783          	lh	a5,12(s0)
   13f5c:	00ea2023          	sw	a4,0(s4)
   13f60:	e71ff06f          	j	13dd0 <__sfvwrite_r+0x308>

00013f64 <_fwalk_reent>:
   13f64:	fd010113          	addi	sp,sp,-48
   13f68:	03212023          	sw	s2,32(sp)
   13f6c:	01312e23          	sw	s3,28(sp)
   13f70:	01412c23          	sw	s4,24(sp)
   13f74:	01512a23          	sw	s5,20(sp)
   13f78:	01612823          	sw	s6,16(sp)
   13f7c:	01712623          	sw	s7,12(sp)
   13f80:	02112623          	sw	ra,44(sp)
   13f84:	02812423          	sw	s0,40(sp)
   13f88:	02912223          	sw	s1,36(sp)
   13f8c:	00050a93          	mv	s5,a0
   13f90:	00058b93          	mv	s7,a1
   13f94:	2e050b13          	addi	s6,a0,736
   13f98:	00000a13          	li	s4,0
   13f9c:	00100993          	li	s3,1
   13fa0:	fff00913          	li	s2,-1
   13fa4:	004b2483          	lw	s1,4(s6)
   13fa8:	008b2403          	lw	s0,8(s6)
   13fac:	fff48493          	addi	s1,s1,-1
   13fb0:	0204c863          	bltz	s1,13fe0 <_fwalk_reent+0x7c>
   13fb4:	00c45783          	lhu	a5,12(s0)
   13fb8:	fff48493          	addi	s1,s1,-1
   13fbc:	00f9fe63          	bgeu	s3,a5,13fd8 <_fwalk_reent+0x74>
   13fc0:	00e41783          	lh	a5,14(s0)
   13fc4:	00040593          	mv	a1,s0
   13fc8:	000a8513          	mv	a0,s5
   13fcc:	01278663          	beq	a5,s2,13fd8 <_fwalk_reent+0x74>
   13fd0:	000b80e7          	jalr	s7
   13fd4:	00aa6a33          	or	s4,s4,a0
   13fd8:	06840413          	addi	s0,s0,104
   13fdc:	fd249ce3          	bne	s1,s2,13fb4 <_fwalk_reent+0x50>
   13fe0:	000b2b03          	lw	s6,0(s6)
   13fe4:	fc0b10e3          	bnez	s6,13fa4 <_fwalk_reent+0x40>
   13fe8:	02c12083          	lw	ra,44(sp)
   13fec:	02812403          	lw	s0,40(sp)
   13ff0:	02412483          	lw	s1,36(sp)
   13ff4:	02012903          	lw	s2,32(sp)
   13ff8:	01c12983          	lw	s3,28(sp)
   13ffc:	01412a83          	lw	s5,20(sp)
   14000:	01012b03          	lw	s6,16(sp)
   14004:	00c12b83          	lw	s7,12(sp)
   14008:	000a0513          	mv	a0,s4
   1400c:	01812a03          	lw	s4,24(sp)
   14010:	03010113          	addi	sp,sp,48
   14014:	00008067          	ret

00014018 <memchr>:
   14018:	00357793          	andi	a5,a0,3
   1401c:	0ff5f693          	zext.b	a3,a1
   14020:	02078e63          	beqz	a5,1405c <memchr+0x44>
   14024:	fff60793          	addi	a5,a2,-1
   14028:	02060663          	beqz	a2,14054 <memchr+0x3c>
   1402c:	fff00613          	li	a2,-1
   14030:	0180006f          	j	14048 <memchr+0x30>
   14034:	00150513          	addi	a0,a0,1
   14038:	00357713          	andi	a4,a0,3
   1403c:	02070263          	beqz	a4,14060 <memchr+0x48>
   14040:	fff78793          	addi	a5,a5,-1
   14044:	00c78863          	beq	a5,a2,14054 <memchr+0x3c>
   14048:	00054703          	lbu	a4,0(a0)
   1404c:	fed714e3          	bne	a4,a3,14034 <memchr+0x1c>
   14050:	00008067          	ret
   14054:	00000513          	li	a0,0
   14058:	00008067          	ret
   1405c:	00060793          	mv	a5,a2
   14060:	00300713          	li	a4,3
   14064:	04f77c63          	bgeu	a4,a5,140bc <memchr+0xa4>
   14068:	0ff5f593          	zext.b	a1,a1
   1406c:	00859713          	slli	a4,a1,0x8
   14070:	00b705b3          	add	a1,a4,a1
   14074:	01059713          	slli	a4,a1,0x10
   14078:	feff08b7          	lui	a7,0xfeff0
   1407c:	80808837          	lui	a6,0x80808
   14080:	00e585b3          	add	a1,a1,a4
   14084:	eff88893          	addi	a7,a7,-257 # fefefeff <__BSS_END__+0xfefd487f>
   14088:	08080813          	addi	a6,a6,128 # 80808080 <__BSS_END__+0x807eca00>
   1408c:	00300313          	li	t1,3
   14090:	0100006f          	j	140a0 <memchr+0x88>
   14094:	ffc78793          	addi	a5,a5,-4
   14098:	00450513          	addi	a0,a0,4
   1409c:	02f37063          	bgeu	t1,a5,140bc <memchr+0xa4>
   140a0:	00052703          	lw	a4,0(a0)
   140a4:	00e5c733          	xor	a4,a1,a4
   140a8:	01170633          	add	a2,a4,a7
   140ac:	fff74713          	not	a4,a4
   140b0:	00e67733          	and	a4,a2,a4
   140b4:	01077733          	and	a4,a4,a6
   140b8:	fc070ee3          	beqz	a4,14094 <memchr+0x7c>
   140bc:	00f50733          	add	a4,a0,a5
   140c0:	00079863          	bnez	a5,140d0 <memchr+0xb8>
   140c4:	f91ff06f          	j	14054 <memchr+0x3c>
   140c8:	00150513          	addi	a0,a0,1
   140cc:	f8a704e3          	beq	a4,a0,14054 <memchr+0x3c>
   140d0:	00054783          	lbu	a5,0(a0)
   140d4:	fed79ae3          	bne	a5,a3,140c8 <memchr+0xb0>
   140d8:	00008067          	ret

000140dc <memmove>:
   140dc:	02a5f663          	bgeu	a1,a0,14108 <memmove+0x2c>
   140e0:	00c58733          	add	a4,a1,a2
   140e4:	02e57263          	bgeu	a0,a4,14108 <memmove+0x2c>
   140e8:	00c507b3          	add	a5,a0,a2
   140ec:	04060663          	beqz	a2,14138 <memmove+0x5c>
   140f0:	fff74683          	lbu	a3,-1(a4)
   140f4:	fff78793          	addi	a5,a5,-1
   140f8:	fff70713          	addi	a4,a4,-1
   140fc:	00d78023          	sb	a3,0(a5)
   14100:	fef518e3          	bne	a0,a5,140f0 <memmove+0x14>
   14104:	00008067          	ret
   14108:	00f00793          	li	a5,15
   1410c:	02c7e863          	bltu	a5,a2,1413c <memmove+0x60>
   14110:	00050793          	mv	a5,a0
   14114:	fff60693          	addi	a3,a2,-1
   14118:	0c060a63          	beqz	a2,141ec <memmove+0x110>
   1411c:	00168693          	addi	a3,a3,1
   14120:	00d786b3          	add	a3,a5,a3
   14124:	0005c703          	lbu	a4,0(a1)
   14128:	00178793          	addi	a5,a5,1
   1412c:	00158593          	addi	a1,a1,1
   14130:	fee78fa3          	sb	a4,-1(a5)
   14134:	fed798e3          	bne	a5,a3,14124 <memmove+0x48>
   14138:	00008067          	ret
   1413c:	00b567b3          	or	a5,a0,a1
   14140:	0037f793          	andi	a5,a5,3
   14144:	08079e63          	bnez	a5,141e0 <memmove+0x104>
   14148:	ff060893          	addi	a7,a2,-16
   1414c:	ff08f893          	andi	a7,a7,-16
   14150:	01088893          	addi	a7,a7,16
   14154:	011507b3          	add	a5,a0,a7
   14158:	00058693          	mv	a3,a1
   1415c:	00050713          	mv	a4,a0
   14160:	0006a803          	lw	a6,0(a3)
   14164:	01068693          	addi	a3,a3,16
   14168:	01070713          	addi	a4,a4,16
   1416c:	ff072823          	sw	a6,-16(a4)
   14170:	ff46a803          	lw	a6,-12(a3)
   14174:	ff072a23          	sw	a6,-12(a4)
   14178:	ff86a803          	lw	a6,-8(a3)
   1417c:	ff072c23          	sw	a6,-8(a4)
   14180:	ffc6a803          	lw	a6,-4(a3)
   14184:	ff072e23          	sw	a6,-4(a4)
   14188:	fcf71ce3          	bne	a4,a5,14160 <memmove+0x84>
   1418c:	00c67713          	andi	a4,a2,12
   14190:	011585b3          	add	a1,a1,a7
   14194:	00f67813          	andi	a6,a2,15
   14198:	04070c63          	beqz	a4,141f0 <memmove+0x114>
   1419c:	00058693          	mv	a3,a1
   141a0:	00078713          	mv	a4,a5
   141a4:	01078eb3          	add	t4,a5,a6
   141a8:	00300e13          	li	t3,3
   141ac:	0006a303          	lw	t1,0(a3)
   141b0:	00470713          	addi	a4,a4,4
   141b4:	40ee88b3          	sub	a7,t4,a4
   141b8:	fe672e23          	sw	t1,-4(a4)
   141bc:	00468693          	addi	a3,a3,4
   141c0:	ff1e66e3          	bltu	t3,a7,141ac <memmove+0xd0>
   141c4:	ffc80713          	addi	a4,a6,-4
   141c8:	ffc77713          	andi	a4,a4,-4
   141cc:	00470713          	addi	a4,a4,4
   141d0:	00367613          	andi	a2,a2,3
   141d4:	00e787b3          	add	a5,a5,a4
   141d8:	00e585b3          	add	a1,a1,a4
   141dc:	f39ff06f          	j	14114 <memmove+0x38>
   141e0:	fff60693          	addi	a3,a2,-1
   141e4:	00050793          	mv	a5,a0
   141e8:	f35ff06f          	j	1411c <memmove+0x40>
   141ec:	00008067          	ret
   141f0:	00080613          	mv	a2,a6
   141f4:	f21ff06f          	j	14114 <memmove+0x38>

000141f8 <_realloc_r>:
   141f8:	fd010113          	addi	sp,sp,-48
   141fc:	02912223          	sw	s1,36(sp)
   14200:	02112623          	sw	ra,44(sp)
   14204:	02812423          	sw	s0,40(sp)
   14208:	03212023          	sw	s2,32(sp)
   1420c:	01312e23          	sw	s3,28(sp)
   14210:	01412c23          	sw	s4,24(sp)
   14214:	01512a23          	sw	s5,20(sp)
   14218:	01612823          	sw	s6,16(sp)
   1421c:	01712623          	sw	s7,12(sp)
   14220:	01812423          	sw	s8,8(sp)
   14224:	00060493          	mv	s1,a2
   14228:	1c058263          	beqz	a1,143ec <_realloc_r+0x1f4>
   1422c:	00058413          	mv	s0,a1
   14230:	00050913          	mv	s2,a0
   14234:	f45fe0ef          	jal	ra,13178 <__malloc_lock>
   14238:	ffc42703          	lw	a4,-4(s0)
   1423c:	00b48793          	addi	a5,s1,11
   14240:	01600693          	li	a3,22
   14244:	ff840a93          	addi	s5,s0,-8
   14248:	ffc77993          	andi	s3,a4,-4
   1424c:	0ef6f663          	bgeu	a3,a5,14338 <_realloc_r+0x140>
   14250:	ff87fa13          	andi	s4,a5,-8
   14254:	0e07c663          	bltz	a5,14340 <_realloc_r+0x148>
   14258:	0e9a6463          	bltu	s4,s1,14340 <_realloc_r+0x148>
   1425c:	1149d463          	bge	s3,s4,14364 <_realloc_r+0x16c>
   14260:	000177b7          	lui	a5,0x17
   14264:	c7878c13          	addi	s8,a5,-904 # 16c78 <__malloc_av_>
   14268:	008c2603          	lw	a2,8(s8)
   1426c:	013a86b3          	add	a3,s5,s3
   14270:	0046a783          	lw	a5,4(a3)
   14274:	1cd60e63          	beq	a2,a3,14450 <_realloc_r+0x258>
   14278:	ffe7f613          	andi	a2,a5,-2
   1427c:	00c68633          	add	a2,a3,a2
   14280:	00462603          	lw	a2,4(a2)
   14284:	00167613          	andi	a2,a2,1
   14288:	14061463          	bnez	a2,143d0 <_realloc_r+0x1d8>
   1428c:	ffc7f793          	andi	a5,a5,-4
   14290:	00f98633          	add	a2,s3,a5
   14294:	0b465e63          	bge	a2,s4,14350 <_realloc_r+0x158>
   14298:	00177713          	andi	a4,a4,1
   1429c:	02071463          	bnez	a4,142c4 <_realloc_r+0xcc>
   142a0:	ff842b83          	lw	s7,-8(s0)
   142a4:	417a8bb3          	sub	s7,s5,s7
   142a8:	004ba703          	lw	a4,4(s7)
   142ac:	ffc77713          	andi	a4,a4,-4
   142b0:	00e787b3          	add	a5,a5,a4
   142b4:	01378b33          	add	s6,a5,s3
   142b8:	334b5463          	bge	s6,s4,145e0 <_realloc_r+0x3e8>
   142bc:	00e98b33          	add	s6,s3,a4
   142c0:	294b5663          	bge	s6,s4,1454c <_realloc_r+0x354>
   142c4:	00048593          	mv	a1,s1
   142c8:	00090513          	mv	a0,s2
   142cc:	ca0fe0ef          	jal	ra,1276c <_malloc_r>
   142d0:	00050493          	mv	s1,a0
   142d4:	40050263          	beqz	a0,146d8 <_realloc_r+0x4e0>
   142d8:	ffc42783          	lw	a5,-4(s0)
   142dc:	ff850713          	addi	a4,a0,-8
   142e0:	ffe7f793          	andi	a5,a5,-2
   142e4:	00fa87b3          	add	a5,s5,a5
   142e8:	24e78a63          	beq	a5,a4,1453c <_realloc_r+0x344>
   142ec:	ffc98613          	addi	a2,s3,-4
   142f0:	02400793          	li	a5,36
   142f4:	2ec7e063          	bltu	a5,a2,145d4 <_realloc_r+0x3dc>
   142f8:	01300713          	li	a4,19
   142fc:	20c76e63          	bltu	a4,a2,14518 <_realloc_r+0x320>
   14300:	00050793          	mv	a5,a0
   14304:	00040713          	mv	a4,s0
   14308:	00072683          	lw	a3,0(a4)
   1430c:	00d7a023          	sw	a3,0(a5)
   14310:	00472683          	lw	a3,4(a4)
   14314:	00d7a223          	sw	a3,4(a5)
   14318:	00872703          	lw	a4,8(a4)
   1431c:	00e7a423          	sw	a4,8(a5)
   14320:	00090513          	mv	a0,s2
   14324:	00040593          	mv	a1,s0
   14328:	c9cff0ef          	jal	ra,137c4 <_free_r>
   1432c:	00090513          	mv	a0,s2
   14330:	e4dfe0ef          	jal	ra,1317c <__malloc_unlock>
   14334:	0680006f          	j	1439c <_realloc_r+0x1a4>
   14338:	01000a13          	li	s4,16
   1433c:	f29a70e3          	bgeu	s4,s1,1425c <_realloc_r+0x64>
   14340:	00c00793          	li	a5,12
   14344:	00f92023          	sw	a5,0(s2)
   14348:	00000493          	li	s1,0
   1434c:	0500006f          	j	1439c <_realloc_r+0x1a4>
   14350:	00c6a783          	lw	a5,12(a3)
   14354:	0086a703          	lw	a4,8(a3)
   14358:	00060993          	mv	s3,a2
   1435c:	00f72623          	sw	a5,12(a4)
   14360:	00e7a423          	sw	a4,8(a5)
   14364:	004aa783          	lw	a5,4(s5) # 80000004 <__BSS_END__+0x7ffe4984>
   14368:	414986b3          	sub	a3,s3,s4
   1436c:	00f00613          	li	a2,15
   14370:	0017f793          	andi	a5,a5,1
   14374:	013a8733          	add	a4,s5,s3
   14378:	0ad66463          	bltu	a2,a3,14420 <_realloc_r+0x228>
   1437c:	0137e7b3          	or	a5,a5,s3
   14380:	00faa223          	sw	a5,4(s5)
   14384:	00472783          	lw	a5,4(a4)
   14388:	0017e793          	ori	a5,a5,1
   1438c:	00f72223          	sw	a5,4(a4)
   14390:	00090513          	mv	a0,s2
   14394:	de9fe0ef          	jal	ra,1317c <__malloc_unlock>
   14398:	00040493          	mv	s1,s0
   1439c:	02c12083          	lw	ra,44(sp)
   143a0:	02812403          	lw	s0,40(sp)
   143a4:	02012903          	lw	s2,32(sp)
   143a8:	01c12983          	lw	s3,28(sp)
   143ac:	01812a03          	lw	s4,24(sp)
   143b0:	01412a83          	lw	s5,20(sp)
   143b4:	01012b03          	lw	s6,16(sp)
   143b8:	00c12b83          	lw	s7,12(sp)
   143bc:	00812c03          	lw	s8,8(sp)
   143c0:	00048513          	mv	a0,s1
   143c4:	02412483          	lw	s1,36(sp)
   143c8:	03010113          	addi	sp,sp,48
   143cc:	00008067          	ret
   143d0:	00177713          	andi	a4,a4,1
   143d4:	ee0718e3          	bnez	a4,142c4 <_realloc_r+0xcc>
   143d8:	ff842b83          	lw	s7,-8(s0)
   143dc:	417a8bb3          	sub	s7,s5,s7
   143e0:	004ba703          	lw	a4,4(s7)
   143e4:	ffc77713          	andi	a4,a4,-4
   143e8:	ed5ff06f          	j	142bc <_realloc_r+0xc4>
   143ec:	02812403          	lw	s0,40(sp)
   143f0:	02c12083          	lw	ra,44(sp)
   143f4:	02412483          	lw	s1,36(sp)
   143f8:	02012903          	lw	s2,32(sp)
   143fc:	01c12983          	lw	s3,28(sp)
   14400:	01812a03          	lw	s4,24(sp)
   14404:	01412a83          	lw	s5,20(sp)
   14408:	01012b03          	lw	s6,16(sp)
   1440c:	00c12b83          	lw	s7,12(sp)
   14410:	00812c03          	lw	s8,8(sp)
   14414:	00060593          	mv	a1,a2
   14418:	03010113          	addi	sp,sp,48
   1441c:	b50fe06f          	j	1276c <_malloc_r>
   14420:	0147e7b3          	or	a5,a5,s4
   14424:	00faa223          	sw	a5,4(s5)
   14428:	014a85b3          	add	a1,s5,s4
   1442c:	0016e693          	ori	a3,a3,1
   14430:	00d5a223          	sw	a3,4(a1)
   14434:	00472783          	lw	a5,4(a4)
   14438:	00858593          	addi	a1,a1,8
   1443c:	00090513          	mv	a0,s2
   14440:	0017e793          	ori	a5,a5,1
   14444:	00f72223          	sw	a5,4(a4)
   14448:	b7cff0ef          	jal	ra,137c4 <_free_r>
   1444c:	f45ff06f          	j	14390 <_realloc_r+0x198>
   14450:	ffc7f793          	andi	a5,a5,-4
   14454:	013786b3          	add	a3,a5,s3
   14458:	010a0613          	addi	a2,s4,16
   1445c:	22c6de63          	bge	a3,a2,14698 <_realloc_r+0x4a0>
   14460:	00177713          	andi	a4,a4,1
   14464:	e60710e3          	bnez	a4,142c4 <_realloc_r+0xcc>
   14468:	ff842b83          	lw	s7,-8(s0)
   1446c:	417a8bb3          	sub	s7,s5,s7
   14470:	004ba703          	lw	a4,4(s7)
   14474:	ffc77713          	andi	a4,a4,-4
   14478:	00e787b3          	add	a5,a5,a4
   1447c:	01378b33          	add	s6,a5,s3
   14480:	e2cb4ee3          	blt	s6,a2,142bc <_realloc_r+0xc4>
   14484:	00cba783          	lw	a5,12(s7)
   14488:	008ba703          	lw	a4,8(s7)
   1448c:	ffc98613          	addi	a2,s3,-4
   14490:	02400693          	li	a3,36
   14494:	00f72623          	sw	a5,12(a4)
   14498:	00e7a423          	sw	a4,8(a5)
   1449c:	008b8493          	addi	s1,s7,8
   144a0:	26c6e263          	bltu	a3,a2,14704 <_realloc_r+0x50c>
   144a4:	01300713          	li	a4,19
   144a8:	00048793          	mv	a5,s1
   144ac:	02c77263          	bgeu	a4,a2,144d0 <_realloc_r+0x2d8>
   144b0:	00042703          	lw	a4,0(s0)
   144b4:	01b00793          	li	a5,27
   144b8:	00eba423          	sw	a4,8(s7)
   144bc:	00442703          	lw	a4,4(s0)
   144c0:	00eba623          	sw	a4,12(s7)
   144c4:	24c7e863          	bltu	a5,a2,14714 <_realloc_r+0x51c>
   144c8:	00840413          	addi	s0,s0,8
   144cc:	010b8793          	addi	a5,s7,16
   144d0:	00042703          	lw	a4,0(s0)
   144d4:	00e7a023          	sw	a4,0(a5)
   144d8:	00442703          	lw	a4,4(s0)
   144dc:	00e7a223          	sw	a4,4(a5)
   144e0:	00842703          	lw	a4,8(s0)
   144e4:	00e7a423          	sw	a4,8(a5)
   144e8:	014b8733          	add	a4,s7,s4
   144ec:	414b0b33          	sub	s6,s6,s4
   144f0:	00ec2423          	sw	a4,8(s8)
   144f4:	001b6793          	ori	a5,s6,1
   144f8:	00f72223          	sw	a5,4(a4)
   144fc:	004ba783          	lw	a5,4(s7)
   14500:	00090513          	mv	a0,s2
   14504:	0017f793          	andi	a5,a5,1
   14508:	0147e7b3          	or	a5,a5,s4
   1450c:	00fba223          	sw	a5,4(s7)
   14510:	c6dfe0ef          	jal	ra,1317c <__malloc_unlock>
   14514:	e89ff06f          	j	1439c <_realloc_r+0x1a4>
   14518:	00042683          	lw	a3,0(s0)
   1451c:	01b00713          	li	a4,27
   14520:	00d52023          	sw	a3,0(a0)
   14524:	00442683          	lw	a3,4(s0)
   14528:	00d52223          	sw	a3,4(a0)
   1452c:	14c76663          	bltu	a4,a2,14678 <_realloc_r+0x480>
   14530:	00840713          	addi	a4,s0,8
   14534:	00850793          	addi	a5,a0,8
   14538:	dd1ff06f          	j	14308 <_realloc_r+0x110>
   1453c:	ffc52783          	lw	a5,-4(a0)
   14540:	ffc7f793          	andi	a5,a5,-4
   14544:	00f989b3          	add	s3,s3,a5
   14548:	e1dff06f          	j	14364 <_realloc_r+0x16c>
   1454c:	00cba783          	lw	a5,12(s7)
   14550:	008ba703          	lw	a4,8(s7)
   14554:	ffc98613          	addi	a2,s3,-4
   14558:	02400693          	li	a3,36
   1455c:	00f72623          	sw	a5,12(a4)
   14560:	00e7a423          	sw	a4,8(a5)
   14564:	008b8493          	addi	s1,s7,8
   14568:	10c6e063          	bltu	a3,a2,14668 <_realloc_r+0x470>
   1456c:	01300713          	li	a4,19
   14570:	00048793          	mv	a5,s1
   14574:	02c77c63          	bgeu	a4,a2,145ac <_realloc_r+0x3b4>
   14578:	00042703          	lw	a4,0(s0)
   1457c:	01b00793          	li	a5,27
   14580:	00eba423          	sw	a4,8(s7)
   14584:	00442703          	lw	a4,4(s0)
   14588:	00eba623          	sw	a4,12(s7)
   1458c:	14c7f063          	bgeu	a5,a2,146cc <_realloc_r+0x4d4>
   14590:	00842783          	lw	a5,8(s0)
   14594:	00fba823          	sw	a5,16(s7)
   14598:	00c42783          	lw	a5,12(s0)
   1459c:	00fbaa23          	sw	a5,20(s7)
   145a0:	0ad60663          	beq	a2,a3,1464c <_realloc_r+0x454>
   145a4:	01040413          	addi	s0,s0,16
   145a8:	018b8793          	addi	a5,s7,24
   145ac:	00042703          	lw	a4,0(s0)
   145b0:	00e7a023          	sw	a4,0(a5)
   145b4:	00442703          	lw	a4,4(s0)
   145b8:	00e7a223          	sw	a4,4(a5)
   145bc:	00842703          	lw	a4,8(s0)
   145c0:	00e7a423          	sw	a4,8(a5)
   145c4:	00048413          	mv	s0,s1
   145c8:	000b0993          	mv	s3,s6
   145cc:	000b8a93          	mv	s5,s7
   145d0:	d95ff06f          	j	14364 <_realloc_r+0x16c>
   145d4:	00040593          	mv	a1,s0
   145d8:	b05ff0ef          	jal	ra,140dc <memmove>
   145dc:	d45ff06f          	j	14320 <_realloc_r+0x128>
   145e0:	00c6a783          	lw	a5,12(a3)
   145e4:	0086a703          	lw	a4,8(a3)
   145e8:	ffc98613          	addi	a2,s3,-4
   145ec:	02400693          	li	a3,36
   145f0:	00f72623          	sw	a5,12(a4)
   145f4:	00e7a423          	sw	a4,8(a5)
   145f8:	008ba703          	lw	a4,8(s7)
   145fc:	00cba783          	lw	a5,12(s7)
   14600:	008b8493          	addi	s1,s7,8
   14604:	00f72623          	sw	a5,12(a4)
   14608:	00e7a423          	sw	a4,8(a5)
   1460c:	04c6ee63          	bltu	a3,a2,14668 <_realloc_r+0x470>
   14610:	01300713          	li	a4,19
   14614:	00048793          	mv	a5,s1
   14618:	f8c77ae3          	bgeu	a4,a2,145ac <_realloc_r+0x3b4>
   1461c:	00042703          	lw	a4,0(s0)
   14620:	01b00793          	li	a5,27
   14624:	00eba423          	sw	a4,8(s7)
   14628:	00442703          	lw	a4,4(s0)
   1462c:	00eba623          	sw	a4,12(s7)
   14630:	08c7fe63          	bgeu	a5,a2,146cc <_realloc_r+0x4d4>
   14634:	00842703          	lw	a4,8(s0)
   14638:	02400793          	li	a5,36
   1463c:	00eba823          	sw	a4,16(s7)
   14640:	00c42703          	lw	a4,12(s0)
   14644:	00ebaa23          	sw	a4,20(s7)
   14648:	f4f61ee3          	bne	a2,a5,145a4 <_realloc_r+0x3ac>
   1464c:	01042703          	lw	a4,16(s0)
   14650:	020b8793          	addi	a5,s7,32
   14654:	01840413          	addi	s0,s0,24
   14658:	00ebac23          	sw	a4,24(s7)
   1465c:	ffc42703          	lw	a4,-4(s0)
   14660:	00ebae23          	sw	a4,28(s7)
   14664:	f49ff06f          	j	145ac <_realloc_r+0x3b4>
   14668:	00040593          	mv	a1,s0
   1466c:	00048513          	mv	a0,s1
   14670:	a6dff0ef          	jal	ra,140dc <memmove>
   14674:	f51ff06f          	j	145c4 <_realloc_r+0x3cc>
   14678:	00842703          	lw	a4,8(s0)
   1467c:	00e52423          	sw	a4,8(a0)
   14680:	00c42703          	lw	a4,12(s0)
   14684:	00e52623          	sw	a4,12(a0)
   14688:	06f60063          	beq	a2,a5,146e8 <_realloc_r+0x4f0>
   1468c:	01040713          	addi	a4,s0,16
   14690:	01050793          	addi	a5,a0,16
   14694:	c75ff06f          	j	14308 <_realloc_r+0x110>
   14698:	014a8ab3          	add	s5,s5,s4
   1469c:	414686b3          	sub	a3,a3,s4
   146a0:	015c2423          	sw	s5,8(s8)
   146a4:	0016e793          	ori	a5,a3,1
   146a8:	00faa223          	sw	a5,4(s5)
   146ac:	ffc42783          	lw	a5,-4(s0)
   146b0:	00090513          	mv	a0,s2
   146b4:	00040493          	mv	s1,s0
   146b8:	0017f793          	andi	a5,a5,1
   146bc:	0147e7b3          	or	a5,a5,s4
   146c0:	fef42e23          	sw	a5,-4(s0)
   146c4:	ab9fe0ef          	jal	ra,1317c <__malloc_unlock>
   146c8:	cd5ff06f          	j	1439c <_realloc_r+0x1a4>
   146cc:	00840413          	addi	s0,s0,8
   146d0:	010b8793          	addi	a5,s7,16
   146d4:	ed9ff06f          	j	145ac <_realloc_r+0x3b4>
   146d8:	00090513          	mv	a0,s2
   146dc:	aa1fe0ef          	jal	ra,1317c <__malloc_unlock>
   146e0:	00000493          	li	s1,0
   146e4:	cb9ff06f          	j	1439c <_realloc_r+0x1a4>
   146e8:	01042683          	lw	a3,16(s0)
   146ec:	01840713          	addi	a4,s0,24
   146f0:	01850793          	addi	a5,a0,24
   146f4:	00d52823          	sw	a3,16(a0)
   146f8:	01442683          	lw	a3,20(s0)
   146fc:	00d52a23          	sw	a3,20(a0)
   14700:	c09ff06f          	j	14308 <_realloc_r+0x110>
   14704:	00040593          	mv	a1,s0
   14708:	00048513          	mv	a0,s1
   1470c:	9d1ff0ef          	jal	ra,140dc <memmove>
   14710:	dd9ff06f          	j	144e8 <_realloc_r+0x2f0>
   14714:	00842783          	lw	a5,8(s0)
   14718:	00fba823          	sw	a5,16(s7)
   1471c:	00c42783          	lw	a5,12(s0)
   14720:	00fbaa23          	sw	a5,20(s7)
   14724:	00d60863          	beq	a2,a3,14734 <_realloc_r+0x53c>
   14728:	01040413          	addi	s0,s0,16
   1472c:	018b8793          	addi	a5,s7,24
   14730:	da1ff06f          	j	144d0 <_realloc_r+0x2d8>
   14734:	01042703          	lw	a4,16(s0)
   14738:	020b8793          	addi	a5,s7,32
   1473c:	01840413          	addi	s0,s0,24
   14740:	00ebac23          	sw	a4,24(s7)
   14744:	ffc42703          	lw	a4,-4(s0)
   14748:	00ebae23          	sw	a4,28(s7)
   1474c:	d85ff06f          	j	144d0 <_realloc_r+0x2d8>

00014750 <__sread>:
   14750:	ff010113          	addi	sp,sp,-16
   14754:	00812423          	sw	s0,8(sp)
   14758:	00058413          	mv	s0,a1
   1475c:	00e59583          	lh	a1,14(a1)
   14760:	00112623          	sw	ra,12(sp)
   14764:	1a9000ef          	jal	ra,1510c <_read_r>
   14768:	02054063          	bltz	a0,14788 <__sread+0x38>
   1476c:	05042783          	lw	a5,80(s0)
   14770:	00c12083          	lw	ra,12(sp)
   14774:	00a787b3          	add	a5,a5,a0
   14778:	04f42823          	sw	a5,80(s0)
   1477c:	00812403          	lw	s0,8(sp)
   14780:	01010113          	addi	sp,sp,16
   14784:	00008067          	ret
   14788:	00c45783          	lhu	a5,12(s0)
   1478c:	fffff737          	lui	a4,0xfffff
   14790:	fff70713          	addi	a4,a4,-1 # ffffefff <__BSS_END__+0xfffe397f>
   14794:	00e7f7b3          	and	a5,a5,a4
   14798:	00c12083          	lw	ra,12(sp)
   1479c:	00f41623          	sh	a5,12(s0)
   147a0:	00812403          	lw	s0,8(sp)
   147a4:	01010113          	addi	sp,sp,16
   147a8:	00008067          	ret

000147ac <__swrite>:
   147ac:	00c59783          	lh	a5,12(a1)
   147b0:	fe010113          	addi	sp,sp,-32
   147b4:	00812c23          	sw	s0,24(sp)
   147b8:	00912a23          	sw	s1,20(sp)
   147bc:	01212823          	sw	s2,16(sp)
   147c0:	01312623          	sw	s3,12(sp)
   147c4:	00112e23          	sw	ra,28(sp)
   147c8:	1007f713          	andi	a4,a5,256
   147cc:	00058413          	mv	s0,a1
   147d0:	00050493          	mv	s1,a0
   147d4:	00060913          	mv	s2,a2
   147d8:	00068993          	mv	s3,a3
   147dc:	04071063          	bnez	a4,1481c <__swrite+0x70>
   147e0:	fffff737          	lui	a4,0xfffff
   147e4:	fff70713          	addi	a4,a4,-1 # ffffefff <__BSS_END__+0xfffe397f>
   147e8:	00e7f7b3          	and	a5,a5,a4
   147ec:	00e41583          	lh	a1,14(s0)
   147f0:	00f41623          	sh	a5,12(s0)
   147f4:	01812403          	lw	s0,24(sp)
   147f8:	01c12083          	lw	ra,28(sp)
   147fc:	00098693          	mv	a3,s3
   14800:	00090613          	mv	a2,s2
   14804:	00c12983          	lw	s3,12(sp)
   14808:	01012903          	lw	s2,16(sp)
   1480c:	00048513          	mv	a0,s1
   14810:	01412483          	lw	s1,20(sp)
   14814:	02010113          	addi	sp,sp,32
   14818:	09c0006f          	j	148b4 <_write_r>
   1481c:	00e59583          	lh	a1,14(a1)
   14820:	00200693          	li	a3,2
   14824:	00000613          	li	a2,0
   14828:	6ec000ef          	jal	ra,14f14 <_lseek_r>
   1482c:	00c41783          	lh	a5,12(s0)
   14830:	fb1ff06f          	j	147e0 <__swrite+0x34>

00014834 <__sseek>:
   14834:	ff010113          	addi	sp,sp,-16
   14838:	00812423          	sw	s0,8(sp)
   1483c:	00058413          	mv	s0,a1
   14840:	00e59583          	lh	a1,14(a1)
   14844:	00112623          	sw	ra,12(sp)
   14848:	6cc000ef          	jal	ra,14f14 <_lseek_r>
   1484c:	fff00793          	li	a5,-1
   14850:	02f50863          	beq	a0,a5,14880 <__sseek+0x4c>
   14854:	00c45783          	lhu	a5,12(s0)
   14858:	00001737          	lui	a4,0x1
   1485c:	00c12083          	lw	ra,12(sp)
   14860:	00e7e7b3          	or	a5,a5,a4
   14864:	01079793          	slli	a5,a5,0x10
   14868:	4107d793          	srai	a5,a5,0x10
   1486c:	04a42823          	sw	a0,80(s0)
   14870:	00f41623          	sh	a5,12(s0)
   14874:	00812403          	lw	s0,8(sp)
   14878:	01010113          	addi	sp,sp,16
   1487c:	00008067          	ret
   14880:	00c45783          	lhu	a5,12(s0)
   14884:	fffff737          	lui	a4,0xfffff
   14888:	fff70713          	addi	a4,a4,-1 # ffffefff <__BSS_END__+0xfffe397f>
   1488c:	00e7f7b3          	and	a5,a5,a4
   14890:	01079793          	slli	a5,a5,0x10
   14894:	4107d793          	srai	a5,a5,0x10
   14898:	00c12083          	lw	ra,12(sp)
   1489c:	00f41623          	sh	a5,12(s0)
   148a0:	00812403          	lw	s0,8(sp)
   148a4:	01010113          	addi	sp,sp,16
   148a8:	00008067          	ret

000148ac <__sclose>:
   148ac:	00e59583          	lh	a1,14(a1)
   148b0:	24c0006f          	j	14afc <_close_r>

000148b4 <_write_r>:
   148b4:	ff010113          	addi	sp,sp,-16
   148b8:	00058713          	mv	a4,a1
   148bc:	00812423          	sw	s0,8(sp)
   148c0:	00912223          	sw	s1,4(sp)
   148c4:	00060593          	mv	a1,a2
   148c8:	00050413          	mv	s0,a0
   148cc:	00068613          	mv	a2,a3
   148d0:	00070513          	mv	a0,a4
   148d4:	00112623          	sw	ra,12(sp)
   148d8:	8001ae23          	sw	zero,-2020(gp) # 170b8 <errno>
   148dc:	bb9fb0ef          	jal	ra,10494 <_write>
   148e0:	fff00793          	li	a5,-1
   148e4:	00f50c63          	beq	a0,a5,148fc <_write_r+0x48>
   148e8:	00c12083          	lw	ra,12(sp)
   148ec:	00812403          	lw	s0,8(sp)
   148f0:	00412483          	lw	s1,4(sp)
   148f4:	01010113          	addi	sp,sp,16
   148f8:	00008067          	ret
   148fc:	81c1a783          	lw	a5,-2020(gp) # 170b8 <errno>
   14900:	fe0784e3          	beqz	a5,148e8 <_write_r+0x34>
   14904:	00c12083          	lw	ra,12(sp)
   14908:	00f42023          	sw	a5,0(s0)
   1490c:	00812403          	lw	s0,8(sp)
   14910:	00412483          	lw	s1,4(sp)
   14914:	01010113          	addi	sp,sp,16
   14918:	00008067          	ret

0001491c <__swsetup_r>:
   1491c:	000177b7          	lui	a5,0x17
   14920:	0a07a783          	lw	a5,160(a5) # 170a0 <_impure_ptr>
   14924:	ff010113          	addi	sp,sp,-16
   14928:	00812423          	sw	s0,8(sp)
   1492c:	00912223          	sw	s1,4(sp)
   14930:	00112623          	sw	ra,12(sp)
   14934:	00050493          	mv	s1,a0
   14938:	00058413          	mv	s0,a1
   1493c:	00078663          	beqz	a5,14948 <__swsetup_r+0x2c>
   14940:	0387a703          	lw	a4,56(a5)
   14944:	08070063          	beqz	a4,149c4 <__swsetup_r+0xa8>
   14948:	00c41783          	lh	a5,12(s0)
   1494c:	0087f713          	andi	a4,a5,8
   14950:	08070463          	beqz	a4,149d8 <__swsetup_r+0xbc>
   14954:	01042703          	lw	a4,16(s0)
   14958:	0a070063          	beqz	a4,149f8 <__swsetup_r+0xdc>
   1495c:	0017f693          	andi	a3,a5,1
   14960:	02068863          	beqz	a3,14990 <__swsetup_r+0x74>
   14964:	01442683          	lw	a3,20(s0)
   14968:	00042423          	sw	zero,8(s0)
   1496c:	00000513          	li	a0,0
   14970:	40d006b3          	neg	a3,a3
   14974:	00d42c23          	sw	a3,24(s0)
   14978:	02070a63          	beqz	a4,149ac <__swsetup_r+0x90>
   1497c:	00c12083          	lw	ra,12(sp)
   14980:	00812403          	lw	s0,8(sp)
   14984:	00412483          	lw	s1,4(sp)
   14988:	01010113          	addi	sp,sp,16
   1498c:	00008067          	ret
   14990:	0027f693          	andi	a3,a5,2
   14994:	00000613          	li	a2,0
   14998:	00069463          	bnez	a3,149a0 <__swsetup_r+0x84>
   1499c:	01442603          	lw	a2,20(s0)
   149a0:	00c42423          	sw	a2,8(s0)
   149a4:	00000513          	li	a0,0
   149a8:	fc071ae3          	bnez	a4,1497c <__swsetup_r+0x60>
   149ac:	0807f713          	andi	a4,a5,128
   149b0:	fc0706e3          	beqz	a4,1497c <__swsetup_r+0x60>
   149b4:	0407e793          	ori	a5,a5,64
   149b8:	00f41623          	sh	a5,12(s0)
   149bc:	fff00513          	li	a0,-1
   149c0:	fbdff06f          	j	1497c <__swsetup_r+0x60>
   149c4:	00078513          	mv	a0,a5
   149c8:	c49fe0ef          	jal	ra,13610 <__sinit>
   149cc:	00c41783          	lh	a5,12(s0)
   149d0:	0087f713          	andi	a4,a5,8
   149d4:	f80710e3          	bnez	a4,14954 <__swsetup_r+0x38>
   149d8:	0107f713          	andi	a4,a5,16
   149dc:	06070a63          	beqz	a4,14a50 <__swsetup_r+0x134>
   149e0:	0047f713          	andi	a4,a5,4
   149e4:	02071c63          	bnez	a4,14a1c <__swsetup_r+0x100>
   149e8:	01042703          	lw	a4,16(s0)
   149ec:	0087e793          	ori	a5,a5,8
   149f0:	00f41623          	sh	a5,12(s0)
   149f4:	f60714e3          	bnez	a4,1495c <__swsetup_r+0x40>
   149f8:	2807f693          	andi	a3,a5,640
   149fc:	20000613          	li	a2,512
   14a00:	f4c68ee3          	beq	a3,a2,1495c <__swsetup_r+0x40>
   14a04:	00040593          	mv	a1,s0
   14a08:	00048513          	mv	a0,s1
   14a0c:	570000ef          	jal	ra,14f7c <__smakebuf_r>
   14a10:	00c41783          	lh	a5,12(s0)
   14a14:	01042703          	lw	a4,16(s0)
   14a18:	f45ff06f          	j	1495c <__swsetup_r+0x40>
   14a1c:	03042583          	lw	a1,48(s0)
   14a20:	00058e63          	beqz	a1,14a3c <__swsetup_r+0x120>
   14a24:	04040713          	addi	a4,s0,64
   14a28:	00e58863          	beq	a1,a4,14a38 <__swsetup_r+0x11c>
   14a2c:	00048513          	mv	a0,s1
   14a30:	d95fe0ef          	jal	ra,137c4 <_free_r>
   14a34:	00c41783          	lh	a5,12(s0)
   14a38:	02042823          	sw	zero,48(s0)
   14a3c:	01042703          	lw	a4,16(s0)
   14a40:	fdb7f793          	andi	a5,a5,-37
   14a44:	00042223          	sw	zero,4(s0)
   14a48:	00e42023          	sw	a4,0(s0)
   14a4c:	fa1ff06f          	j	149ec <__swsetup_r+0xd0>
   14a50:	00900713          	li	a4,9
   14a54:	00e4a023          	sw	a4,0(s1)
   14a58:	0407e793          	ori	a5,a5,64
   14a5c:	f5dff06f          	j	149b8 <__swsetup_r+0x9c>

00014a60 <__register_exitproc>:
   14a60:	000177b7          	lui	a5,0x17
   14a64:	09c7a703          	lw	a4,156(a5) # 1709c <_global_impure_ptr>
   14a68:	14872783          	lw	a5,328(a4)
   14a6c:	04078c63          	beqz	a5,14ac4 <__register_exitproc+0x64>
   14a70:	0047a703          	lw	a4,4(a5)
   14a74:	01f00813          	li	a6,31
   14a78:	06e84e63          	blt	a6,a4,14af4 <__register_exitproc+0x94>
   14a7c:	00271813          	slli	a6,a4,0x2
   14a80:	02050663          	beqz	a0,14aac <__register_exitproc+0x4c>
   14a84:	01078333          	add	t1,a5,a6
   14a88:	08c32423          	sw	a2,136(t1)
   14a8c:	1887a883          	lw	a7,392(a5)
   14a90:	00100613          	li	a2,1
   14a94:	00e61633          	sll	a2,a2,a4
   14a98:	00c8e8b3          	or	a7,a7,a2
   14a9c:	1917a423          	sw	a7,392(a5)
   14aa0:	10d32423          	sw	a3,264(t1)
   14aa4:	00200693          	li	a3,2
   14aa8:	02d50463          	beq	a0,a3,14ad0 <__register_exitproc+0x70>
   14aac:	00170713          	addi	a4,a4,1
   14ab0:	00e7a223          	sw	a4,4(a5)
   14ab4:	010787b3          	add	a5,a5,a6
   14ab8:	00b7a423          	sw	a1,8(a5)
   14abc:	00000513          	li	a0,0
   14ac0:	00008067          	ret
   14ac4:	14c70793          	addi	a5,a4,332
   14ac8:	14f72423          	sw	a5,328(a4)
   14acc:	fa5ff06f          	j	14a70 <__register_exitproc+0x10>
   14ad0:	18c7a683          	lw	a3,396(a5)
   14ad4:	00170713          	addi	a4,a4,1
   14ad8:	00e7a223          	sw	a4,4(a5)
   14adc:	00c6e6b3          	or	a3,a3,a2
   14ae0:	18d7a623          	sw	a3,396(a5)
   14ae4:	010787b3          	add	a5,a5,a6
   14ae8:	00b7a423          	sw	a1,8(a5)
   14aec:	00000513          	li	a0,0
   14af0:	00008067          	ret
   14af4:	fff00513          	li	a0,-1
   14af8:	00008067          	ret

00014afc <_close_r>:
   14afc:	ff010113          	addi	sp,sp,-16
   14b00:	00812423          	sw	s0,8(sp)
   14b04:	00912223          	sw	s1,4(sp)
   14b08:	00050413          	mv	s0,a0
   14b0c:	00058513          	mv	a0,a1
   14b10:	00112623          	sw	ra,12(sp)
   14b14:	8001ae23          	sw	zero,-2020(gp) # 170b8 <errno>
   14b18:	891fb0ef          	jal	ra,103a8 <_close>
   14b1c:	fff00793          	li	a5,-1
   14b20:	00f50c63          	beq	a0,a5,14b38 <_close_r+0x3c>
   14b24:	00c12083          	lw	ra,12(sp)
   14b28:	00812403          	lw	s0,8(sp)
   14b2c:	00412483          	lw	s1,4(sp)
   14b30:	01010113          	addi	sp,sp,16
   14b34:	00008067          	ret
   14b38:	81c1a783          	lw	a5,-2020(gp) # 170b8 <errno>
   14b3c:	fe0784e3          	beqz	a5,14b24 <_close_r+0x28>
   14b40:	00c12083          	lw	ra,12(sp)
   14b44:	00f42023          	sw	a5,0(s0)
   14b48:	00812403          	lw	s0,8(sp)
   14b4c:	00412483          	lw	s1,4(sp)
   14b50:	01010113          	addi	sp,sp,16
   14b54:	00008067          	ret

00014b58 <_fclose_r>:
   14b58:	ff010113          	addi	sp,sp,-16
   14b5c:	00112623          	sw	ra,12(sp)
   14b60:	00812423          	sw	s0,8(sp)
   14b64:	00912223          	sw	s1,4(sp)
   14b68:	01212023          	sw	s2,0(sp)
   14b6c:	02058063          	beqz	a1,14b8c <_fclose_r+0x34>
   14b70:	00058413          	mv	s0,a1
   14b74:	00050493          	mv	s1,a0
   14b78:	00050663          	beqz	a0,14b84 <_fclose_r+0x2c>
   14b7c:	03852783          	lw	a5,56(a0)
   14b80:	0a078c63          	beqz	a5,14c38 <_fclose_r+0xe0>
   14b84:	00c41783          	lh	a5,12(s0)
   14b88:	02079263          	bnez	a5,14bac <_fclose_r+0x54>
   14b8c:	00c12083          	lw	ra,12(sp)
   14b90:	00812403          	lw	s0,8(sp)
   14b94:	00000913          	li	s2,0
   14b98:	00412483          	lw	s1,4(sp)
   14b9c:	00090513          	mv	a0,s2
   14ba0:	00012903          	lw	s2,0(sp)
   14ba4:	01010113          	addi	sp,sp,16
   14ba8:	00008067          	ret
   14bac:	00040593          	mv	a1,s0
   14bb0:	00048513          	mv	a0,s1
   14bb4:	0b4000ef          	jal	ra,14c68 <__sflush_r>
   14bb8:	02c42783          	lw	a5,44(s0)
   14bbc:	00050913          	mv	s2,a0
   14bc0:	00078a63          	beqz	a5,14bd4 <_fclose_r+0x7c>
   14bc4:	01c42583          	lw	a1,28(s0)
   14bc8:	00048513          	mv	a0,s1
   14bcc:	000780e7          	jalr	a5
   14bd0:	06054c63          	bltz	a0,14c48 <_fclose_r+0xf0>
   14bd4:	00c45783          	lhu	a5,12(s0)
   14bd8:	0807f793          	andi	a5,a5,128
   14bdc:	06079e63          	bnez	a5,14c58 <_fclose_r+0x100>
   14be0:	03042583          	lw	a1,48(s0)
   14be4:	00058c63          	beqz	a1,14bfc <_fclose_r+0xa4>
   14be8:	04040793          	addi	a5,s0,64
   14bec:	00f58663          	beq	a1,a5,14bf8 <_fclose_r+0xa0>
   14bf0:	00048513          	mv	a0,s1
   14bf4:	bd1fe0ef          	jal	ra,137c4 <_free_r>
   14bf8:	02042823          	sw	zero,48(s0)
   14bfc:	04442583          	lw	a1,68(s0)
   14c00:	00058863          	beqz	a1,14c10 <_fclose_r+0xb8>
   14c04:	00048513          	mv	a0,s1
   14c08:	bbdfe0ef          	jal	ra,137c4 <_free_r>
   14c0c:	04042223          	sw	zero,68(s0)
   14c10:	a11fe0ef          	jal	ra,13620 <__sfp_lock_acquire>
   14c14:	00041623          	sh	zero,12(s0)
   14c18:	a0dfe0ef          	jal	ra,13624 <__sfp_lock_release>
   14c1c:	00c12083          	lw	ra,12(sp)
   14c20:	00812403          	lw	s0,8(sp)
   14c24:	00412483          	lw	s1,4(sp)
   14c28:	00090513          	mv	a0,s2
   14c2c:	00012903          	lw	s2,0(sp)
   14c30:	01010113          	addi	sp,sp,16
   14c34:	00008067          	ret
   14c38:	9d9fe0ef          	jal	ra,13610 <__sinit>
   14c3c:	00c41783          	lh	a5,12(s0)
   14c40:	f40786e3          	beqz	a5,14b8c <_fclose_r+0x34>
   14c44:	f69ff06f          	j	14bac <_fclose_r+0x54>
   14c48:	00c45783          	lhu	a5,12(s0)
   14c4c:	fff00913          	li	s2,-1
   14c50:	0807f793          	andi	a5,a5,128
   14c54:	f80786e3          	beqz	a5,14be0 <_fclose_r+0x88>
   14c58:	01042583          	lw	a1,16(s0)
   14c5c:	00048513          	mv	a0,s1
   14c60:	b65fe0ef          	jal	ra,137c4 <_free_r>
   14c64:	f7dff06f          	j	14be0 <_fclose_r+0x88>

00014c68 <__sflush_r>:
   14c68:	00c59783          	lh	a5,12(a1)
   14c6c:	fe010113          	addi	sp,sp,-32
   14c70:	00812c23          	sw	s0,24(sp)
   14c74:	01312623          	sw	s3,12(sp)
   14c78:	00112e23          	sw	ra,28(sp)
   14c7c:	00912a23          	sw	s1,20(sp)
   14c80:	01212823          	sw	s2,16(sp)
   14c84:	0087f713          	andi	a4,a5,8
   14c88:	00058413          	mv	s0,a1
   14c8c:	00050993          	mv	s3,a0
   14c90:	12071263          	bnez	a4,14db4 <__sflush_r+0x14c>
   14c94:	00001737          	lui	a4,0x1
   14c98:	80070713          	addi	a4,a4,-2048 # 800 <exit-0xf894>
   14c9c:	0045a683          	lw	a3,4(a1)
   14ca0:	00e7e733          	or	a4,a5,a4
   14ca4:	00e59623          	sh	a4,12(a1)
   14ca8:	18d05863          	blez	a3,14e38 <__sflush_r+0x1d0>
   14cac:	02842803          	lw	a6,40(s0)
   14cb0:	0e080263          	beqz	a6,14d94 <__sflush_r+0x12c>
   14cb4:	00c7d793          	srli	a5,a5,0xc
   14cb8:	0009a483          	lw	s1,0(s3)
   14cbc:	0017f793          	andi	a5,a5,1
   14cc0:	0009a023          	sw	zero,0(s3)
   14cc4:	01c42583          	lw	a1,28(s0)
   14cc8:	18079063          	bnez	a5,14e48 <__sflush_r+0x1e0>
   14ccc:	00000613          	li	a2,0
   14cd0:	00100693          	li	a3,1
   14cd4:	00098513          	mv	a0,s3
   14cd8:	000800e7          	jalr	a6
   14cdc:	fff00793          	li	a5,-1
   14ce0:	00050613          	mv	a2,a0
   14ce4:	1af50063          	beq	a0,a5,14e84 <__sflush_r+0x21c>
   14ce8:	00c41703          	lh	a4,12(s0)
   14cec:	02842803          	lw	a6,40(s0)
   14cf0:	01c42583          	lw	a1,28(s0)
   14cf4:	00477713          	andi	a4,a4,4
   14cf8:	00070e63          	beqz	a4,14d14 <__sflush_r+0xac>
   14cfc:	00442703          	lw	a4,4(s0)
   14d00:	03042783          	lw	a5,48(s0)
   14d04:	40e60633          	sub	a2,a2,a4
   14d08:	00078663          	beqz	a5,14d14 <__sflush_r+0xac>
   14d0c:	03c42783          	lw	a5,60(s0)
   14d10:	40f60633          	sub	a2,a2,a5
   14d14:	00000693          	li	a3,0
   14d18:	00098513          	mv	a0,s3
   14d1c:	000800e7          	jalr	a6
   14d20:	fff00793          	li	a5,-1
   14d24:	12f51663          	bne	a0,a5,14e50 <__sflush_r+0x1e8>
   14d28:	0009a683          	lw	a3,0(s3)
   14d2c:	01d00793          	li	a5,29
   14d30:	0cd7ee63          	bltu	a5,a3,14e0c <__sflush_r+0x1a4>
   14d34:	dfc00737          	lui	a4,0xdfc00
   14d38:	ffe70713          	addi	a4,a4,-2 # dfbffffe <__BSS_END__+0xdfbe497e>
   14d3c:	40d75733          	sra	a4,a4,a3
   14d40:	00177713          	andi	a4,a4,1
   14d44:	00c41783          	lh	a5,12(s0)
   14d48:	0c071463          	bnez	a4,14e10 <__sflush_r+0x1a8>
   14d4c:	01042603          	lw	a2,16(s0)
   14d50:	fffff737          	lui	a4,0xfffff
   14d54:	7ff70713          	addi	a4,a4,2047 # fffff7ff <__BSS_END__+0xfffe417f>
   14d58:	00e7f733          	and	a4,a5,a4
   14d5c:	00c7d793          	srli	a5,a5,0xc
   14d60:	00e41623          	sh	a4,12(s0)
   14d64:	00042223          	sw	zero,4(s0)
   14d68:	00c42023          	sw	a2,0(s0)
   14d6c:	0017f793          	andi	a5,a5,1
   14d70:	12079c63          	bnez	a5,14ea8 <__sflush_r+0x240>
   14d74:	03042583          	lw	a1,48(s0)
   14d78:	0099a023          	sw	s1,0(s3)
   14d7c:	00058c63          	beqz	a1,14d94 <__sflush_r+0x12c>
   14d80:	04040793          	addi	a5,s0,64
   14d84:	00f58663          	beq	a1,a5,14d90 <__sflush_r+0x128>
   14d88:	00098513          	mv	a0,s3
   14d8c:	a39fe0ef          	jal	ra,137c4 <_free_r>
   14d90:	02042823          	sw	zero,48(s0)
   14d94:	00000513          	li	a0,0
   14d98:	01c12083          	lw	ra,28(sp)
   14d9c:	01812403          	lw	s0,24(sp)
   14da0:	01412483          	lw	s1,20(sp)
   14da4:	01012903          	lw	s2,16(sp)
   14da8:	00c12983          	lw	s3,12(sp)
   14dac:	02010113          	addi	sp,sp,32
   14db0:	00008067          	ret
   14db4:	0105a903          	lw	s2,16(a1)
   14db8:	fc090ee3          	beqz	s2,14d94 <__sflush_r+0x12c>
   14dbc:	0005a483          	lw	s1,0(a1)
   14dc0:	0037f793          	andi	a5,a5,3
   14dc4:	0125a023          	sw	s2,0(a1)
   14dc8:	412484b3          	sub	s1,s1,s2
   14dcc:	00000713          	li	a4,0
   14dd0:	00079463          	bnez	a5,14dd8 <__sflush_r+0x170>
   14dd4:	0145a703          	lw	a4,20(a1)
   14dd8:	00e42423          	sw	a4,8(s0)
   14ddc:	00904863          	bgtz	s1,14dec <__sflush_r+0x184>
   14de0:	fb5ff06f          	j	14d94 <__sflush_r+0x12c>
   14de4:	00a90933          	add	s2,s2,a0
   14de8:	fa9056e3          	blez	s1,14d94 <__sflush_r+0x12c>
   14dec:	02442783          	lw	a5,36(s0)
   14df0:	01c42583          	lw	a1,28(s0)
   14df4:	00048693          	mv	a3,s1
   14df8:	00090613          	mv	a2,s2
   14dfc:	00098513          	mv	a0,s3
   14e00:	000780e7          	jalr	a5
   14e04:	40a484b3          	sub	s1,s1,a0
   14e08:	fca04ee3          	bgtz	a0,14de4 <__sflush_r+0x17c>
   14e0c:	00c41783          	lh	a5,12(s0)
   14e10:	0407e793          	ori	a5,a5,64
   14e14:	01c12083          	lw	ra,28(sp)
   14e18:	00f41623          	sh	a5,12(s0)
   14e1c:	01812403          	lw	s0,24(sp)
   14e20:	01412483          	lw	s1,20(sp)
   14e24:	01012903          	lw	s2,16(sp)
   14e28:	00c12983          	lw	s3,12(sp)
   14e2c:	fff00513          	li	a0,-1
   14e30:	02010113          	addi	sp,sp,32
   14e34:	00008067          	ret
   14e38:	03c5a683          	lw	a3,60(a1)
   14e3c:	e6d048e3          	bgtz	a3,14cac <__sflush_r+0x44>
   14e40:	00000513          	li	a0,0
   14e44:	f55ff06f          	j	14d98 <__sflush_r+0x130>
   14e48:	05042603          	lw	a2,80(s0)
   14e4c:	ea9ff06f          	j	14cf4 <__sflush_r+0x8c>
   14e50:	00c41783          	lh	a5,12(s0)
   14e54:	01042683          	lw	a3,16(s0)
   14e58:	fffff737          	lui	a4,0xfffff
   14e5c:	7ff70713          	addi	a4,a4,2047 # fffff7ff <__BSS_END__+0xfffe417f>
   14e60:	00e7f733          	and	a4,a5,a4
   14e64:	00c7d793          	srli	a5,a5,0xc
   14e68:	00e41623          	sh	a4,12(s0)
   14e6c:	00042223          	sw	zero,4(s0)
   14e70:	00d42023          	sw	a3,0(s0)
   14e74:	0017f793          	andi	a5,a5,1
   14e78:	ee078ee3          	beqz	a5,14d74 <__sflush_r+0x10c>
   14e7c:	04a42823          	sw	a0,80(s0)
   14e80:	ef5ff06f          	j	14d74 <__sflush_r+0x10c>
   14e84:	0009a783          	lw	a5,0(s3)
   14e88:	e60780e3          	beqz	a5,14ce8 <__sflush_r+0x80>
   14e8c:	01d00713          	li	a4,29
   14e90:	00e78663          	beq	a5,a4,14e9c <__sflush_r+0x234>
   14e94:	01600713          	li	a4,22
   14e98:	f6e79ae3          	bne	a5,a4,14e0c <__sflush_r+0x1a4>
   14e9c:	0099a023          	sw	s1,0(s3)
   14ea0:	00000513          	li	a0,0
   14ea4:	ef5ff06f          	j	14d98 <__sflush_r+0x130>
   14ea8:	ec0696e3          	bnez	a3,14d74 <__sflush_r+0x10c>
   14eac:	04a42823          	sw	a0,80(s0)
   14eb0:	ec5ff06f          	j	14d74 <__sflush_r+0x10c>

00014eb4 <_fflush_r>:
   14eb4:	fe010113          	addi	sp,sp,-32
   14eb8:	00812c23          	sw	s0,24(sp)
   14ebc:	00112e23          	sw	ra,28(sp)
   14ec0:	00050413          	mv	s0,a0
   14ec4:	00050663          	beqz	a0,14ed0 <_fflush_r+0x1c>
   14ec8:	03852783          	lw	a5,56(a0)
   14ecc:	02078063          	beqz	a5,14eec <_fflush_r+0x38>
   14ed0:	00c59783          	lh	a5,12(a1)
   14ed4:	02079663          	bnez	a5,14f00 <_fflush_r+0x4c>
   14ed8:	01c12083          	lw	ra,28(sp)
   14edc:	01812403          	lw	s0,24(sp)
   14ee0:	00000513          	li	a0,0
   14ee4:	02010113          	addi	sp,sp,32
   14ee8:	00008067          	ret
   14eec:	00b12623          	sw	a1,12(sp)
   14ef0:	f20fe0ef          	jal	ra,13610 <__sinit>
   14ef4:	00c12583          	lw	a1,12(sp)
   14ef8:	00c59783          	lh	a5,12(a1)
   14efc:	fc078ee3          	beqz	a5,14ed8 <_fflush_r+0x24>
   14f00:	00040513          	mv	a0,s0
   14f04:	01812403          	lw	s0,24(sp)
   14f08:	01c12083          	lw	ra,28(sp)
   14f0c:	02010113          	addi	sp,sp,32
   14f10:	d59ff06f          	j	14c68 <__sflush_r>

00014f14 <_lseek_r>:
   14f14:	ff010113          	addi	sp,sp,-16
   14f18:	00058713          	mv	a4,a1
   14f1c:	00812423          	sw	s0,8(sp)
   14f20:	00912223          	sw	s1,4(sp)
   14f24:	00060593          	mv	a1,a2
   14f28:	00050413          	mv	s0,a0
   14f2c:	00068613          	mv	a2,a3
   14f30:	00070513          	mv	a0,a4
   14f34:	00112623          	sw	ra,12(sp)
   14f38:	8001ae23          	sw	zero,-2020(gp) # 170b8 <errno>
   14f3c:	c9cfb0ef          	jal	ra,103d8 <_lseek>
   14f40:	fff00793          	li	a5,-1
   14f44:	00f50c63          	beq	a0,a5,14f5c <_lseek_r+0x48>
   14f48:	00c12083          	lw	ra,12(sp)
   14f4c:	00812403          	lw	s0,8(sp)
   14f50:	00412483          	lw	s1,4(sp)
   14f54:	01010113          	addi	sp,sp,16
   14f58:	00008067          	ret
   14f5c:	81c1a783          	lw	a5,-2020(gp) # 170b8 <errno>
   14f60:	fe0784e3          	beqz	a5,14f48 <_lseek_r+0x34>
   14f64:	00c12083          	lw	ra,12(sp)
   14f68:	00f42023          	sw	a5,0(s0)
   14f6c:	00812403          	lw	s0,8(sp)
   14f70:	00412483          	lw	s1,4(sp)
   14f74:	01010113          	addi	sp,sp,16
   14f78:	00008067          	ret

00014f7c <__smakebuf_r>:
   14f7c:	00c59783          	lh	a5,12(a1)
   14f80:	f8010113          	addi	sp,sp,-128
   14f84:	06812c23          	sw	s0,120(sp)
   14f88:	06112e23          	sw	ra,124(sp)
   14f8c:	06912a23          	sw	s1,116(sp)
   14f90:	07212823          	sw	s2,112(sp)
   14f94:	07312623          	sw	s3,108(sp)
   14f98:	07412423          	sw	s4,104(sp)
   14f9c:	0027f713          	andi	a4,a5,2
   14fa0:	00058413          	mv	s0,a1
   14fa4:	02070c63          	beqz	a4,14fdc <__smakebuf_r+0x60>
   14fa8:	04358793          	addi	a5,a1,67
   14fac:	00f5a023          	sw	a5,0(a1)
   14fb0:	00f5a823          	sw	a5,16(a1)
   14fb4:	00100793          	li	a5,1
   14fb8:	00f5aa23          	sw	a5,20(a1)
   14fbc:	07c12083          	lw	ra,124(sp)
   14fc0:	07812403          	lw	s0,120(sp)
   14fc4:	07412483          	lw	s1,116(sp)
   14fc8:	07012903          	lw	s2,112(sp)
   14fcc:	06c12983          	lw	s3,108(sp)
   14fd0:	06812a03          	lw	s4,104(sp)
   14fd4:	08010113          	addi	sp,sp,128
   14fd8:	00008067          	ret
   14fdc:	00e59583          	lh	a1,14(a1)
   14fe0:	00050493          	mv	s1,a0
   14fe4:	0805cc63          	bltz	a1,1507c <__smakebuf_r+0x100>
   14fe8:	00810613          	addi	a2,sp,8
   14fec:	188000ef          	jal	ra,15174 <_fstat_r>
   14ff0:	08054463          	bltz	a0,15078 <__smakebuf_r+0xfc>
   14ff4:	00c12783          	lw	a5,12(sp)
   14ff8:	0000f937          	lui	s2,0xf
   14ffc:	000019b7          	lui	s3,0x1
   15000:	00f97933          	and	s2,s2,a5
   15004:	ffffe7b7          	lui	a5,0xffffe
   15008:	00f90933          	add	s2,s2,a5
   1500c:	00193913          	seqz	s2,s2
   15010:	40000a13          	li	s4,1024
   15014:	80098993          	addi	s3,s3,-2048 # 800 <exit-0xf894>
   15018:	000a0593          	mv	a1,s4
   1501c:	00048513          	mv	a0,s1
   15020:	f4cfd0ef          	jal	ra,1276c <_malloc_r>
   15024:	00c41783          	lh	a5,12(s0)
   15028:	06050e63          	beqz	a0,150a4 <__smakebuf_r+0x128>
   1502c:	00013737          	lui	a4,0x13
   15030:	48070713          	addi	a4,a4,1152 # 13480 <_cleanup_r>
   15034:	02e4ae23          	sw	a4,60(s1)
   15038:	0807e793          	ori	a5,a5,128
   1503c:	00f41623          	sh	a5,12(s0)
   15040:	00a42023          	sw	a0,0(s0)
   15044:	00a42823          	sw	a0,16(s0)
   15048:	01442a23          	sw	s4,20(s0)
   1504c:	08091863          	bnez	s2,150dc <__smakebuf_r+0x160>
   15050:	0137e7b3          	or	a5,a5,s3
   15054:	07c12083          	lw	ra,124(sp)
   15058:	00f41623          	sh	a5,12(s0)
   1505c:	07812403          	lw	s0,120(sp)
   15060:	07412483          	lw	s1,116(sp)
   15064:	07012903          	lw	s2,112(sp)
   15068:	06c12983          	lw	s3,108(sp)
   1506c:	06812a03          	lw	s4,104(sp)
   15070:	08010113          	addi	sp,sp,128
   15074:	00008067          	ret
   15078:	00c41783          	lh	a5,12(s0)
   1507c:	0807f793          	andi	a5,a5,128
   15080:	00000913          	li	s2,0
   15084:	04078663          	beqz	a5,150d0 <__smakebuf_r+0x154>
   15088:	04000a13          	li	s4,64
   1508c:	000a0593          	mv	a1,s4
   15090:	00048513          	mv	a0,s1
   15094:	ed8fd0ef          	jal	ra,1276c <_malloc_r>
   15098:	00c41783          	lh	a5,12(s0)
   1509c:	00000993          	li	s3,0
   150a0:	f80516e3          	bnez	a0,1502c <__smakebuf_r+0xb0>
   150a4:	2007f713          	andi	a4,a5,512
   150a8:	f0071ae3          	bnez	a4,14fbc <__smakebuf_r+0x40>
   150ac:	ffc7f793          	andi	a5,a5,-4
   150b0:	0027e793          	ori	a5,a5,2
   150b4:	04340713          	addi	a4,s0,67
   150b8:	00f41623          	sh	a5,12(s0)
   150bc:	00100793          	li	a5,1
   150c0:	00e42023          	sw	a4,0(s0)
   150c4:	00e42823          	sw	a4,16(s0)
   150c8:	00f42a23          	sw	a5,20(s0)
   150cc:	ef1ff06f          	j	14fbc <__smakebuf_r+0x40>
   150d0:	40000a13          	li	s4,1024
   150d4:	00000993          	li	s3,0
   150d8:	f41ff06f          	j	15018 <__smakebuf_r+0x9c>
   150dc:	00e41583          	lh	a1,14(s0)
   150e0:	00048513          	mv	a0,s1
   150e4:	0f4000ef          	jal	ra,151d8 <_isatty_r>
   150e8:	00051663          	bnez	a0,150f4 <__smakebuf_r+0x178>
   150ec:	00c41783          	lh	a5,12(s0)
   150f0:	f61ff06f          	j	15050 <__smakebuf_r+0xd4>
   150f4:	00c45783          	lhu	a5,12(s0)
   150f8:	ffc7f793          	andi	a5,a5,-4
   150fc:	0017e793          	ori	a5,a5,1
   15100:	01079793          	slli	a5,a5,0x10
   15104:	4107d793          	srai	a5,a5,0x10
   15108:	f49ff06f          	j	15050 <__smakebuf_r+0xd4>

0001510c <_read_r>:
   1510c:	ff010113          	addi	sp,sp,-16
   15110:	00058713          	mv	a4,a1
   15114:	00812423          	sw	s0,8(sp)
   15118:	00912223          	sw	s1,4(sp)
   1511c:	00060593          	mv	a1,a2
   15120:	00050413          	mv	s0,a0
   15124:	00068613          	mv	a2,a3
   15128:	00070513          	mv	a0,a4
   1512c:	00112623          	sw	ra,12(sp)
   15130:	8001ae23          	sw	zero,-2020(gp) # 170b8 <errno>
   15134:	b18fb0ef          	jal	ra,1044c <_read>
   15138:	fff00793          	li	a5,-1
   1513c:	00f50c63          	beq	a0,a5,15154 <_read_r+0x48>
   15140:	00c12083          	lw	ra,12(sp)
   15144:	00812403          	lw	s0,8(sp)
   15148:	00412483          	lw	s1,4(sp)
   1514c:	01010113          	addi	sp,sp,16
   15150:	00008067          	ret
   15154:	81c1a783          	lw	a5,-2020(gp) # 170b8 <errno>
   15158:	fe0784e3          	beqz	a5,15140 <_read_r+0x34>
   1515c:	00c12083          	lw	ra,12(sp)
   15160:	00f42023          	sw	a5,0(s0)
   15164:	00812403          	lw	s0,8(sp)
   15168:	00412483          	lw	s1,4(sp)
   1516c:	01010113          	addi	sp,sp,16
   15170:	00008067          	ret

00015174 <_fstat_r>:
   15174:	ff010113          	addi	sp,sp,-16
   15178:	00058713          	mv	a4,a1
   1517c:	00812423          	sw	s0,8(sp)
   15180:	00912223          	sw	s1,4(sp)
   15184:	00050413          	mv	s0,a0
   15188:	00060593          	mv	a1,a2
   1518c:	00070513          	mv	a0,a4
   15190:	00112623          	sw	ra,12(sp)
   15194:	8001ae23          	sw	zero,-2020(gp) # 170b8 <errno>
   15198:	9e0fb0ef          	jal	ra,10378 <_fstat>
   1519c:	fff00793          	li	a5,-1
   151a0:	00f50c63          	beq	a0,a5,151b8 <_fstat_r+0x44>
   151a4:	00c12083          	lw	ra,12(sp)
   151a8:	00812403          	lw	s0,8(sp)
   151ac:	00412483          	lw	s1,4(sp)
   151b0:	01010113          	addi	sp,sp,16
   151b4:	00008067          	ret
   151b8:	81c1a783          	lw	a5,-2020(gp) # 170b8 <errno>
   151bc:	fe0784e3          	beqz	a5,151a4 <_fstat_r+0x30>
   151c0:	00c12083          	lw	ra,12(sp)
   151c4:	00f42023          	sw	a5,0(s0)
   151c8:	00812403          	lw	s0,8(sp)
   151cc:	00412483          	lw	s1,4(sp)
   151d0:	01010113          	addi	sp,sp,16
   151d4:	00008067          	ret

000151d8 <_isatty_r>:
   151d8:	ff010113          	addi	sp,sp,-16
   151dc:	00812423          	sw	s0,8(sp)
   151e0:	00912223          	sw	s1,4(sp)
   151e4:	00050413          	mv	s0,a0
   151e8:	00058513          	mv	a0,a1
   151ec:	00112623          	sw	ra,12(sp)
   151f0:	8001ae23          	sw	zero,-2020(gp) # 170b8 <errno>
   151f4:	9a8fb0ef          	jal	ra,1039c <_isatty>
   151f8:	fff00793          	li	a5,-1
   151fc:	00f50c63          	beq	a0,a5,15214 <_isatty_r+0x3c>
   15200:	00c12083          	lw	ra,12(sp)
   15204:	00812403          	lw	s0,8(sp)
   15208:	00412483          	lw	s1,4(sp)
   1520c:	01010113          	addi	sp,sp,16
   15210:	00008067          	ret
   15214:	81c1a783          	lw	a5,-2020(gp) # 170b8 <errno>
   15218:	fe0784e3          	beqz	a5,15200 <_isatty_r+0x28>
   1521c:	00c12083          	lw	ra,12(sp)
   15220:	00f42023          	sw	a5,0(s0)
   15224:	00812403          	lw	s0,8(sp)
   15228:	00412483          	lw	s1,4(sp)
   1522c:	01010113          	addi	sp,sp,16
   15230:	00008067          	ret

00015234 <_exit>:
   15234:	05d00893          	li	a7,93
   15238:	00000073          	ecall
   1523c:	00054463          	bltz	a0,15244 <_exit+0x10>
   15240:	0000006f          	j	15240 <_exit+0xc>
   15244:	ff010113          	addi	sp,sp,-16
   15248:	00812423          	sw	s0,8(sp)
   1524c:	00050413          	mv	s0,a0
   15250:	00112623          	sw	ra,12(sp)
   15254:	40800433          	neg	s0,s0
   15258:	c6cfd0ef          	jal	ra,126c4 <__errno>
   1525c:	00852023          	sw	s0,0(a0)
   15260:	0000006f          	j	15260 <_exit+0x2c>

Disassembly of section .rodata:

00015264 <.rodata>:
   15264:	6548                	.2byte	0x6548
   15266:	6c6c                	.2byte	0x6c6c
   15268:	77202c6f          	jal	s8,179da <__global_pointer$+0x13e>
   1526c:	646c726f          	jal	tp,dc8b2 <__BSS_END__+0xc1232>
   15270:	0021                	.2byte	0x21
   15272:	0000                	.2byte	0x0
   15274:	3130                	.2byte	0x3130
   15276:	3332                	.2byte	0x3332
   15278:	3534                	.2byte	0x3534
   1527a:	3736                	.2byte	0x3736
   1527c:	3938                	.2byte	0x3938
   1527e:	4241                	.2byte	0x4241
   15280:	46454443          	.4byte	0x46454443
   15284:	0000                	.2byte	0x0
   15286:	0000                	.2byte	0x0
   15288:	64494453          	.4byte	0x64494453
   1528c:	656c                	.2byte	0x656c
   1528e:	6520                	.2byte	0x6520
   15290:	7078                	.2byte	0x7078
   15292:	6365                	.2byte	0x6365
   15294:	6574                	.2byte	0x6574
   15296:	2064                	.2byte	0x2064
   15298:	7830                	.2byte	0x7830
   1529a:	3130                	.2byte	0x3130
   1529c:	202c                	.2byte	0x202c
   1529e:	20746f67          	.4byte	0x20746f67
   152a2:	7830                	.2byte	0x7830
   152a4:	0000                	.2byte	0x0
   152a6:	0000                	.2byte	0x0
   152a8:	000a                	.2byte	0xa
   152aa:	0000                	.2byte	0x0
   152ac:	65524453          	.4byte	0x65524453
   152b0:	6461                	.2byte	0x6461
   152b2:	676e6953          	.4byte	0x676e6953
   152b6:	656c                	.2byte	0x656c
   152b8:	6c42                	.2byte	0x6c42
   152ba:	3a6b636f          	jal	t1,cb660 <__BSS_END__+0xaffe0>
   152be:	6520                	.2byte	0x6520
   152c0:	7272                	.2byte	0x7272
   152c2:	7220726f          	jal	tp,1c9e4 <__BSS_END__+0x1364>
   152c6:	7365                	.2byte	0x7365
   152c8:	6f70                	.2byte	0x6f70
   152ca:	736e                	.2byte	0x736e
   152cc:	2065                	.2byte	0x2065
   152ce:	203d                	.2byte	0x203d
   152d0:	72726527          	.4byte	0x72726527
   152d4:	0a27726f          	jal	tp,8c376 <__BSS_END__+0x70cf6>
   152d8:	0000                	.2byte	0x0
   152da:	0000                	.2byte	0x0
   152dc:	65524453          	.4byte	0x65524453
   152e0:	6461                	.2byte	0x6461
   152e2:	676e6953          	.4byte	0x676e6953
   152e6:	656c                	.2byte	0x656c
   152e8:	6c42                	.2byte	0x6c42
   152ea:	3a6b636f          	jal	t1,cb690 <__BSS_END__+0xb0010>
   152ee:	6520                	.2byte	0x6520
   152f0:	7272                	.2byte	0x7272
   152f2:	7220726f          	jal	tp,1ca14 <__BSS_END__+0x1394>
   152f6:	7365                	.2byte	0x7365
   152f8:	6f70                	.2byte	0x6f70
   152fa:	736e                	.2byte	0x736e
   152fc:	2065                	.2byte	0x2065
   152fe:	203d                	.2byte	0x203d
   15300:	20434327          	.4byte	0x20434327
   15304:	7265                	.2byte	0x7265
   15306:	6f72                	.2byte	0x6f72
   15308:	2772                	.2byte	0x2772
   1530a:	000a                	.2byte	0xa
   1530c:	65524453          	.4byte	0x65524453
   15310:	6461                	.2byte	0x6461
   15312:	676e6953          	.4byte	0x676e6953
   15316:	656c                	.2byte	0x656c
   15318:	6c42                	.2byte	0x6c42
   1531a:	3a6b636f          	jal	t1,cb6c0 <__BSS_END__+0xb0040>
   1531e:	6520                	.2byte	0x6520
   15320:	7272                	.2byte	0x7272
   15322:	7220726f          	jal	tp,1ca44 <__BSS_END__+0x13c4>
   15326:	7365                	.2byte	0x7365
   15328:	6f70                	.2byte	0x6f70
   1532a:	736e                	.2byte	0x736e
   1532c:	2065                	.2byte	0x2065
   1532e:	203d                	.2byte	0x203d
   15330:	72614327          	.4byte	0x72614327
   15334:	2064                	.2byte	0x2064
   15336:	4345                	.2byte	0x4345
   15338:	61662043          	.4byte	0x61662043
   1533c:	6c69                	.2byte	0x6c69
   1533e:	6465                	.2byte	0x6465
   15340:	00000a27          	.4byte	0xa27
   15344:	65524453          	.4byte	0x65524453
   15348:	6461                	.2byte	0x6461
   1534a:	676e6953          	.4byte	0x676e6953
   1534e:	656c                	.2byte	0x656c
   15350:	6c42                	.2byte	0x6c42
   15352:	3a6b636f          	jal	t1,cb6f8 <__BSS_END__+0xb0078>
   15356:	6520                	.2byte	0x6520
   15358:	7272                	.2byte	0x7272
   1535a:	7220726f          	jal	tp,1ca7c <__BSS_END__+0x13fc>
   1535e:	7365                	.2byte	0x7365
   15360:	6f70                	.2byte	0x6f70
   15362:	736e                	.2byte	0x736e
   15364:	2065                	.2byte	0x2065
   15366:	203d                	.2byte	0x203d
   15368:	74754f27          	.4byte	0x74754f27
   1536c:	6f20                	.2byte	0x6f20
   1536e:	2066                	.2byte	0x2066
   15370:	6172                	.2byte	0x6172
   15372:	676e                	.2byte	0x676e
   15374:	2765                	.2byte	0x2765
   15376:	7320                	.2byte	0x7320
   15378:	6365                	.2byte	0x6365
   1537a:	6f74                	.2byte	0x6f74
   1537c:	3a72                	.2byte	0x3a72
   1537e:	3020                	.2byte	0x3020
   15380:	0078                	.2byte	0x78
   15382:	0000                	.2byte	0x0
   15384:	72574453          	.4byte	0x72574453
   15388:	7469                	.2byte	0x7469
   1538a:	5365                	.2byte	0x5365
   1538c:	6e69                	.2byte	0x6e69
   1538e:	42656c67          	.4byte	0x42656c67
   15392:	6f6c                	.2byte	0x6f6c
   15394:	203a6b63          	bltu	s4,gp,155aa <_exit+0x376>
   15398:	74697277          	.4byte	0x74697277
   1539c:	2065                	.2byte	0x2065
   1539e:	7265                	.2byte	0x7265
   153a0:	6f72                	.2byte	0x6f72
   153a2:	0a72                	.2byte	0xa72
	...

Disassembly of section .eh_frame:

000163a8 <__EH_FRAME_BEGIN__>:
   163a8:	0010                	.2byte	0x10
   163aa:	0000                	.2byte	0x0
   163ac:	0000                	.2byte	0x0
   163ae:	0000                	.2byte	0x0
   163b0:	00527a03          	.4byte	0x527a03
   163b4:	7c01                	.2byte	0x7c01
   163b6:	0101                	.2byte	0x101
   163b8:	00020d1b          	.4byte	0x20d1b
   163bc:	0018                	.2byte	0x18
   163be:	0000                	.2byte	0x0
   163c0:	0018                	.2byte	0x18
   163c2:	0000                	.2byte	0x0
   163c4:	9d04                	.2byte	0x9d04
   163c6:	ffff                	.2byte	0xffff
   163c8:	0024                	.2byte	0x24
   163ca:	0000                	.2byte	0x0
   163cc:	4400                	.2byte	0x4400
   163ce:	100e                	.2byte	0x100e
   163d0:	814c                	.2byte	0x814c
   163d2:	4801                	.2byte	0x4801
   163d4:	48c1                	.2byte	0x48c1
   163d6:	000e                	.2byte	0xe
   163d8:	0010                	.2byte	0x10
   163da:	0000                	.2byte	0x0
   163dc:	0034                	.2byte	0x34
   163de:	0000                	.2byte	0x0
   163e0:	9dd8                	.2byte	0x9dd8
   163e2:	ffff                	.2byte	0xffff
   163e4:	0030                	.2byte	0x30
   163e6:	0000                	.2byte	0x0
   163e8:	0000                	.2byte	0x0
   163ea:	0000                	.2byte	0x0
   163ec:	0010                	.2byte	0x10
   163ee:	0000                	.2byte	0x0
   163f0:	0048                	.2byte	0x48
   163f2:	0000                	.2byte	0x0
   163f4:	9df4                	.2byte	0x9df4
   163f6:	ffff                	.2byte	0xffff
   163f8:	002c                	.2byte	0x2c
   163fa:	0000                	.2byte	0x0
   163fc:	0000                	.2byte	0x0
   163fe:	0000                	.2byte	0x0
   16400:	0018                	.2byte	0x18
   16402:	0000                	.2byte	0x0
   16404:	005c                	.2byte	0x5c
   16406:	0000                	.2byte	0x0
   16408:	9e0c                	.2byte	0x9e0c
   1640a:	ffff                	.2byte	0xffff
   1640c:	0164                	.2byte	0x164
   1640e:	0000                	.2byte	0x0
   16410:	6000                	.2byte	0x6000
   16412:	200e                	.2byte	0x200e
   16414:	0e014003          	lbu	zero,224(sp)
   16418:	0000                	.2byte	0x0
   1641a:	0000                	.2byte	0x0
   1641c:	0018                	.2byte	0x18
   1641e:	0000                	.2byte	0x0
   16420:	0078                	.2byte	0x78
   16422:	0000                	.2byte	0x0
   16424:	9f54                	.2byte	0x9f54
   16426:	ffff                	.2byte	0xffff
   16428:	0024                	.2byte	0x24
   1642a:	0000                	.2byte	0x0
   1642c:	4400                	.2byte	0x4400
   1642e:	100e                	.2byte	0x100e
   16430:	8144                	.2byte	0x8144
   16432:	4801                	.2byte	0x4801
   16434:	50c1                	.2byte	0x50c1
   16436:	000e                	.2byte	0xe
   16438:	0010                	.2byte	0x10
   1643a:	0000                	.2byte	0x0
   1643c:	0094                	.2byte	0x94
   1643e:	0000                	.2byte	0x0
   16440:	9f5c                	.2byte	0x9f5c
   16442:	ffff                	.2byte	0xffff
   16444:	000c                	.2byte	0xc
   16446:	0000                	.2byte	0x0
   16448:	0000                	.2byte	0x0
   1644a:	0000                	.2byte	0x0
   1644c:	0018                	.2byte	0x18
   1644e:	0000                	.2byte	0x0
   16450:	00a8                	.2byte	0xa8
   16452:	0000                	.2byte	0x0
   16454:	9f54                	.2byte	0x9f54
   16456:	ffff                	.2byte	0xffff
   16458:	0030                	.2byte	0x30
   1645a:	0000                	.2byte	0x0
   1645c:	5400                	.2byte	0x5400
   1645e:	100e                	.2byte	0x100e
   16460:	8144                	.2byte	0x8144
   16462:	4c01                	.2byte	0x4c01
   16464:	48c1                	.2byte	0x48c1
   16466:	000e                	.2byte	0xe
   16468:	0020                	.2byte	0x20
   1646a:	0000                	.2byte	0x0
   1646c:	00c4                	.2byte	0xc4
   1646e:	0000                	.2byte	0x0
   16470:	9f68                	.2byte	0x9f68
   16472:	ffff                	.2byte	0xffff
   16474:	0074                	.2byte	0x74
   16476:	0000                	.2byte	0x0
   16478:	4c00                	.2byte	0x4c00
   1647a:	100e                	.2byte	0x100e
   1647c:	8150                	.2byte	0x8150
   1647e:	8801                	.2byte	0x8801
   16480:	7002                	.2byte	0x7002
   16482:	c10a                	.2byte	0xc10a
   16484:	c848                	.2byte	0xc848
   16486:	0e44                	.2byte	0xe44
   16488:	4400                	.2byte	0x4400
   1648a:	0020000b          	.4byte	0x20000b
   1648e:	0000                	.2byte	0x0
   16490:	00e8                	.2byte	0xe8
   16492:	0000                	.2byte	0x0
   16494:	9fb8                	.2byte	0x9fb8
   16496:	ffff                	.2byte	0xffff
   16498:	0048                	.2byte	0x48
   1649a:	0000                	.2byte	0x0
   1649c:	4c00                	.2byte	0x4c00
   1649e:	200e                	.2byte	0x200e
   164a0:	8150                	.2byte	0x8150
   164a2:	5001                	.2byte	0x5001
   164a4:	c10a                	.2byte	0xc10a
   164a6:	0e48                	.2byte	0xe48
   164a8:	4400                	.2byte	0x4400
   164aa:	48c1440b          	.4byte	0x48c1440b
   164ae:	000e                	.2byte	0xe
   164b0:	0030                	.2byte	0x30
   164b2:	0000                	.2byte	0x0
   164b4:	010c                	.2byte	0x10c
   164b6:	0000                	.2byte	0x0
   164b8:	9fdc                	.2byte	0x9fdc
   164ba:	ffff                	.2byte	0xffff
   164bc:	00a0                	.2byte	0xa0
   164be:	0000                	.2byte	0x0
   164c0:	5400                	.2byte	0x5400
   164c2:	200e                	.2byte	0x200e
   164c4:	8858                	.2byte	0x8858
   164c6:	9202                	.2byte	0x9202
   164c8:	9304                	.2byte	0x9304
   164ca:	8105                	.2byte	0x8105
   164cc:	8901                	.2byte	0x8901
   164ce:	02069403          	lh	s0,32(a3)
   164d2:	c154                	.2byte	0xc154
   164d4:	c844                	.2byte	0xc844
   164d6:	c944                	.2byte	0xc944
   164d8:	d344                	.2byte	0xd344
   164da:	d444                	.2byte	0xd444
   164dc:	d248                	.2byte	0xd248
   164de:	0e44                	.2byte	0xe44
   164e0:	0000                	.2byte	0x0
   164e2:	0000                	.2byte	0x0
   164e4:	0010                	.2byte	0x10
   164e6:	0000                	.2byte	0x0
   164e8:	0140                	.2byte	0x140
   164ea:	0000                	.2byte	0x0
   164ec:	a048                	.2byte	0xa048
   164ee:	ffff                	.2byte	0xffff
   164f0:	0038                	.2byte	0x38
   164f2:	0000                	.2byte	0x0
   164f4:	0000                	.2byte	0x0
   164f6:	0000                	.2byte	0x0
   164f8:	0010                	.2byte	0x10
   164fa:	0000                	.2byte	0x0
   164fc:	0154                	.2byte	0x154
   164fe:	0000                	.2byte	0x0
   16500:	a06c                	.2byte	0xa06c
   16502:	ffff                	.2byte	0xffff
   16504:	054c                	.2byte	0x54c
   16506:	0000                	.2byte	0x0
   16508:	0000                	.2byte	0x0
   1650a:	0000                	.2byte	0x0
   1650c:	0034                	.2byte	0x34
   1650e:	0000                	.2byte	0x0
   16510:	0168                	.2byte	0x168
   16512:	0000                	.2byte	0x0
   16514:	a5a4                	.2byte	0xa5a4
   16516:	ffff                	.2byte	0xffff
   16518:	0284                	.2byte	0x284
   1651a:	0000                	.2byte	0x0
   1651c:	4400                	.2byte	0x4400
   1651e:	200e                	.2byte	0x200e
   16520:	8844                	.2byte	0x8844
   16522:	6002                	.2byte	0x6002
   16524:	0389                	.2byte	0x389
   16526:	0492                	.2byte	0x492
   16528:	01810593          	addi	a1,sp,24
   1652c:	0694                	.2byte	0x694
   1652e:	0a017803          	.4byte	0xa017803
   16532:	44c1                	.2byte	0x44c1
   16534:	44c8                	.2byte	0x44c8
   16536:	44c9                	.2byte	0x44c9
   16538:	44d2                	.2byte	0x44d2
   1653a:	44d448d3          	.4byte	0x44d448d3
   1653e:	000e                	.2byte	0xe
   16540:	0b44                	.2byte	0xb44
   16542:	0000                	.2byte	0x0
   16544:	0030                	.2byte	0x30
   16546:	0000                	.2byte	0x0
   16548:	01a0                	.2byte	0x1a0
   1654a:	0000                	.2byte	0x0
   1654c:	a7f0                	.2byte	0xa7f0
   1654e:	ffff                	.2byte	0xffff
   16550:	0204                	.2byte	0x204
   16552:	0000                	.2byte	0x0
   16554:	4400                	.2byte	0x4400
   16556:	100e                	.2byte	0x100e
   16558:	8944                	.2byte	0x8944
   1655a:	02885403          	lhu	s0,40(a6)
   1655e:	0181                	.2byte	0x181
   16560:	0a01b003          	.4byte	0xa01b003
   16564:	44c1                	.2byte	0x44c1
   16566:	44c8                	.2byte	0x44c8
   16568:	48c9                	.2byte	0x48c9
   1656a:	000e                	.2byte	0xe
   1656c:	0b44                	.2byte	0xb44
   1656e:	c150                	.2byte	0xc150
   16570:	c844                	.2byte	0xc844
   16572:	c944                	.2byte	0xc944
   16574:	0e48                	.2byte	0xe48
   16576:	0000                	.2byte	0x0
   16578:	003c                	.2byte	0x3c
   1657a:	0000                	.2byte	0x0
   1657c:	01d4                	.2byte	0x1d4
   1657e:	0000                	.2byte	0x0
   16580:	a9c0                	.2byte	0xa9c0
   16582:	ffff                	.2byte	0xffff
   16584:	0198                	.2byte	0x198
   16586:	0000                	.2byte	0x0
   16588:	4800                	.2byte	0x4800
   1658a:	c00e                	.2byte	0xc00e
   1658c:	4404                	.2byte	0x4404
   1658e:	886c0593          	addi	a1,s8,-1914
   16592:	8902                	.2byte	0x8902
   16594:	94049203          	lh	tp,-1728(s1)
   16598:	9506                	.2byte	0x9506
   1659a:	97089607          	.4byte	0x97089607
   1659e:	8109                	.2byte	0x8109
   165a0:	0301                	.2byte	0x301
   165a2:	0130                	.2byte	0x130
   165a4:	44c1                	.2byte	0x44c1
   165a6:	44c8                	.2byte	0x44c8
   165a8:	44c9                	.2byte	0x44c9
   165aa:	44d2                	.2byte	0x44d2
   165ac:	44d444d3          	.4byte	0x44d444d3
   165b0:	44d5                	.2byte	0x44d5
   165b2:	44d6                	.2byte	0x44d6
   165b4:	000e44d7          	.4byte	0xe44d7
   165b8:	003c                	.2byte	0x3c
   165ba:	0000                	.2byte	0x0
   165bc:	0214                	.2byte	0x214
   165be:	0000                	.2byte	0x0
   165c0:	ab18                	.2byte	0xab18
   165c2:	ffff                	.2byte	0xffff
   165c4:	0194                	.2byte	0x194
   165c6:	0000                	.2byte	0x0
   165c8:	4800                	.2byte	0x4800
   165ca:	c00e                	.2byte	0xc00e
   165cc:	4404                	.2byte	0x4404
   165ce:	886c0593          	addi	a1,s8,-1914
   165d2:	8902                	.2byte	0x8902
   165d4:	94049203          	lh	tp,-1728(s1)
   165d8:	9506                	.2byte	0x9506
   165da:	97089607          	.4byte	0x97089607
   165de:	8109                	.2byte	0x8109
   165e0:	0301                	.2byte	0x301
   165e2:	012c                	.2byte	0x12c
   165e4:	44c1                	.2byte	0x44c1
   165e6:	44c8                	.2byte	0x44c8
   165e8:	44c9                	.2byte	0x44c9
   165ea:	44d2                	.2byte	0x44d2
   165ec:	44d444d3          	.4byte	0x44d444d3
   165f0:	44d5                	.2byte	0x44d5
   165f2:	44d6                	.2byte	0x44d6
   165f4:	000e44d7          	.4byte	0xe44d7
   165f8:	0028                	.2byte	0x28
   165fa:	0000                	.2byte	0x0
   165fc:	0254                	.2byte	0x254
   165fe:	0000                	.2byte	0x0
   16600:	ac6c                	.2byte	0xac6c
   16602:	ffff                	.2byte	0xffff
   16604:	00d0                	.2byte	0xd0
   16606:	0000                	.2byte	0x0
   16608:	5400                	.2byte	0x5400
   1660a:	100e                	.2byte	0x100e
   1660c:	8850                	.2byte	0x8850
   1660e:	8902                	.2byte	0x8902
   16610:	81049203          	lh	tp,-2032(s1)
   16614:	7401                	.2byte	0x7401
   16616:	c10a                	.2byte	0xc10a
   16618:	c844                	.2byte	0xc844
   1661a:	c944                	.2byte	0xc944
   1661c:	d244                	.2byte	0xd244
   1661e:	0e44                	.2byte	0xe44
   16620:	4400                	.2byte	0x4400
   16622:	0038000b          	.4byte	0x38000b
   16626:	0000                	.2byte	0x0
   16628:	0280                	.2byte	0x280
   1662a:	0000                	.2byte	0x0
   1662c:	ad10                	.2byte	0xad10
   1662e:	ffff                	.2byte	0xffff
   16630:	0200                	.2byte	0x200
   16632:	0000                	.2byte	0x0
   16634:	4400                	.2byte	0x4400
   16636:	200e                	.2byte	0x200e
   16638:	8860                	.2byte	0x8860
   1663a:	8902                	.2byte	0x8902
   1663c:	81049203          	lh	tp,-2032(s1)
   16640:	9301                	.2byte	0x9301
   16642:	9405                	.2byte	0x9405
   16644:	9506                	.2byte	0x9506
   16646:	70089607          	.4byte	0x70089607
   1664a:	c10a                	.2byte	0xc10a
   1664c:	c844                	.2byte	0xc844
   1664e:	c944                	.2byte	0xc944
   16650:	d244                	.2byte	0xd244
   16652:	d344                	.2byte	0xd344
   16654:	d444                	.2byte	0xd444
   16656:	d544                	.2byte	0xd544
   16658:	d644                	.2byte	0xd644
   1665a:	0e48                	.2byte	0xe48
   1665c:	4400                	.2byte	0x4400
   1665e:	0048000b          	.4byte	0x48000b
   16662:	0000                	.2byte	0x0
   16664:	02bc                	.2byte	0x2bc
   16666:	0000                	.2byte	0x0
   16668:	aed4                	.2byte	0xaed4
   1666a:	ffff                	.2byte	0xffff
   1666c:	0190                	.2byte	0x190
   1666e:	0000                	.2byte	0x0
   16670:	5000                	.2byte	0x5000
   16672:	200e                	.2byte	0x200e
   16674:	8854                	.2byte	0x8854
   16676:	9202                	.2byte	0x9202
   16678:	8104                	.2byte	0x8104
   1667a:	8901                	.2byte	0x8901
   1667c:	6c059303          	lh	t1,1728(a1)
   16680:	44c1                	.2byte	0x44c1
   16682:	44c8                	.2byte	0x44c8
   16684:	44c9                	.2byte	0x44c9
   16686:	44d2                	.2byte	0x44d2
   16688:	000e48d3          	.4byte	0xe48d3
   1668c:	0e50                	.2byte	0xe50
   1668e:	8120                	.2byte	0x8120
   16690:	8801                	.2byte	0x8801
   16692:	8902                	.2byte	0x8902
   16694:	93049203          	lh	tp,-1744(s1)
   16698:	6005                	.2byte	0x6005
   1669a:	c10a                	.2byte	0xc10a
   1669c:	c844                	.2byte	0xc844
   1669e:	c948                	.2byte	0xc948
   166a0:	d244                	.2byte	0xd244
   166a2:	d344                	.2byte	0xd344
   166a4:	0e48                	.2byte	0xe48
   166a6:	4400                	.2byte	0x4400
   166a8:	0000000b          	.4byte	0xb
   166ac:	0040                	.2byte	0x40
   166ae:	0000                	.2byte	0x0
   166b0:	0308                	.2byte	0x308
   166b2:	0000                	.2byte	0x0
   166b4:	b018                	.2byte	0xb018
   166b6:	ffff                	.2byte	0xffff
   166b8:	0360                	.2byte	0x360
   166ba:	0000                	.2byte	0x0
   166bc:	4400                	.2byte	0x4400
   166be:	300e                	.2byte	0x300e
   166c0:	8968                	.2byte	0x8968
   166c2:	96049203          	lh	tp,-1696(s1)
   166c6:	8108                	.2byte	0x8108
   166c8:	8801                	.2byte	0x8801
   166ca:	9302                	.2byte	0x9302
   166cc:	9405                	.2byte	0x9405
   166ce:	9506                	.2byte	0x9506
   166d0:	98099707          	.4byte	0x98099707
   166d4:	020a                	.2byte	0x20a
   166d6:	0a64                	.2byte	0xa64
   166d8:	48c1                	.2byte	0x48c1
   166da:	44c8                	.2byte	0x44c8
   166dc:	44c9                	.2byte	0x44c9
   166de:	44d2                	.2byte	0x44d2
   166e0:	44d444d3          	.4byte	0x44d444d3
   166e4:	44d5                	.2byte	0x44d5
   166e6:	44d6                	.2byte	0x44d6
   166e8:	44d844d7          	.4byte	0x44d844d7
   166ec:	000e                	.2byte	0xe
   166ee:	0b44                	.2byte	0xb44
   166f0:	0048                	.2byte	0x48
   166f2:	0000                	.2byte	0x0
   166f4:	034c                	.2byte	0x34c
   166f6:	0000                	.2byte	0x0
   166f8:	b334                	.2byte	0xb334
   166fa:	ffff                	.2byte	0xffff
   166fc:	02f0                	.2byte	0x2f0
   166fe:	0000                	.2byte	0x0
   16700:	4400                	.2byte	0x4400
   16702:	400e                	.2byte	0x400e
   16704:	8170                	.2byte	0x8170
   16706:	8801                	.2byte	0x8801
   16708:	8902                	.2byte	0x8902
   1670a:	93049203          	lh	tp,-1744(s1)
   1670e:	9405                	.2byte	0x9405
   16710:	9506                	.2byte	0x9506
   16712:	97089607          	.4byte	0x97089607
   16716:	9809                	.2byte	0x9809
   16718:	990a                	.2byte	0x990a
   1671a:	740c9a0b          	.4byte	0x740c9a0b
   1671e:	c10a                	.2byte	0xc10a
   16720:	c844                	.2byte	0xc844
   16722:	c944                	.2byte	0xc944
   16724:	d244                	.2byte	0xd244
   16726:	d344                	.2byte	0xd344
   16728:	d444                	.2byte	0xd444
   1672a:	d544                	.2byte	0xd544
   1672c:	d644                	.2byte	0xd644
   1672e:	d744                	.2byte	0xd744
   16730:	d844                	.2byte	0xd844
   16732:	da44                	.2byte	0xda44
   16734:	d948                	.2byte	0xd948
   16736:	0e44                	.2byte	0xe44
   16738:	4400                	.2byte	0x4400
   1673a:	0040000b          	.4byte	0x40000b
   1673e:	0000                	.2byte	0x0
   16740:	0398                	.2byte	0x398
   16742:	0000                	.2byte	0x0
   16744:	b5d8                	.2byte	0xb5d8
   16746:	ffff                	.2byte	0xffff
   16748:	0328                	.2byte	0x328
   1674a:	0000                	.2byte	0x0
   1674c:	4c00                	.2byte	0x4c00
   1674e:	100e                	.2byte	0x100e
   16750:	8850                	.2byte	0x8850
   16752:	8102                	.2byte	0x8102
   16754:	8901                	.2byte	0x8901
   16756:	64049203          	lh	tp,1600(s1)
   1675a:	44c1                	.2byte	0x44c1
   1675c:	44c8                	.2byte	0x44c8
   1675e:	44c9                	.2byte	0x44c9
   16760:	44d2                	.2byte	0x44d2
   16762:	000e                	.2byte	0xe
   16764:	0e4c                	.2byte	0xe4c
   16766:	8110                	.2byte	0x8110
   16768:	8801                	.2byte	0x8801
   1676a:	8902                	.2byte	0x8902
   1676c:	03049203          	lh	tp,48(s1)
   16770:	018c                	.2byte	0x18c
   16772:	c10a                	.2byte	0xc10a
   16774:	c848                	.2byte	0xc848
   16776:	c944                	.2byte	0xc944
   16778:	d244                	.2byte	0xd244
   1677a:	0e44                	.2byte	0xe44
   1677c:	4400                	.2byte	0x4400
   1677e:	004c000b          	.4byte	0x4c000b
   16782:	0000                	.2byte	0x0
   16784:	03dc                	.2byte	0x3dc
   16786:	0000                	.2byte	0x0
   16788:	b8bc                	.2byte	0xb8bc
   1678a:	ffff                	.2byte	0xffff
   1678c:	05e4                	.2byte	0x5e4
   1678e:	0000                	.2byte	0x0
   16790:	4400                	.2byte	0x4400
   16792:	600e                	.2byte	0x600e
   16794:	8174                	.2byte	0x8174
   16796:	8801                	.2byte	0x8801
   16798:	8902                	.2byte	0x8902
   1679a:	93049203          	lh	tp,-1744(s1)
   1679e:	9405                	.2byte	0x9405
   167a0:	9506                	.2byte	0x9506
   167a2:	97089607          	.4byte	0x97089607
   167a6:	9809                	.2byte	0x9809
   167a8:	990a                	.2byte	0x990a
   167aa:	9b0c9a0b          	.4byte	0x9b0c9a0b
   167ae:	6c0d                	.2byte	0x6c0d
   167b0:	c10a                	.2byte	0xc10a
   167b2:	c844                	.2byte	0xc844
   167b4:	c944                	.2byte	0xc944
   167b6:	d244                	.2byte	0xd244
   167b8:	d344                	.2byte	0xd344
   167ba:	d444                	.2byte	0xd444
   167bc:	d544                	.2byte	0xd544
   167be:	d644                	.2byte	0xd644
   167c0:	d744                	.2byte	0xd744
   167c2:	d844                	.2byte	0xd844
   167c4:	d944                	.2byte	0xd944
   167c6:	da44                	.2byte	0xda44
   167c8:	db48                	.2byte	0xdb48
   167ca:	0e44                	.2byte	0xe44
   167cc:	4400                	.2byte	0x4400
   167ce:	0010000b          	.4byte	0x10000b
   167d2:	0000                	.2byte	0x0
   167d4:	042c                	.2byte	0x42c
   167d6:	0000                	.2byte	0x0
   167d8:	be50                	.2byte	0xbe50
   167da:	ffff                	.2byte	0xffff
   167dc:	000c                	.2byte	0xc
   167de:	0000                	.2byte	0x0
   167e0:	0000                	.2byte	0x0
   167e2:	0000                	.2byte	0x0
   167e4:	0018                	.2byte	0x18
   167e6:	0000                	.2byte	0x0
   167e8:	0440                	.2byte	0x440
   167ea:	0000                	.2byte	0x0
   167ec:	be48                	.2byte	0xbe48
   167ee:	ffff                	.2byte	0xffff
   167f0:	0040                	.2byte	0x40
   167f2:	0000                	.2byte	0x0
   167f4:	5c00                	.2byte	0x5c00
   167f6:	100e                	.2byte	0x100e
   167f8:	814c                	.2byte	0x814c
   167fa:	4801                	.2byte	0x4801
   167fc:	4cc1                	.2byte	0x4cc1
   167fe:	000e                	.2byte	0xe
   16800:	0018                	.2byte	0x18
   16802:	0000                	.2byte	0x0
   16804:	045c                	.2byte	0x45c
   16806:	0000                	.2byte	0x0
   16808:	be6c                	.2byte	0xbe6c
   1680a:	ffff                	.2byte	0xffff
   1680c:	0040                	.2byte	0x40
   1680e:	0000                	.2byte	0x0
   16810:	5c00                	.2byte	0x5c00
   16812:	100e                	.2byte	0x100e
   16814:	814c                	.2byte	0x814c
   16816:	4801                	.2byte	0x4801
   16818:	4cc1                	.2byte	0x4cc1
   1681a:	000e                	.2byte	0xe
   1681c:	0010                	.2byte	0x10
   1681e:	0000                	.2byte	0x0
   16820:	0478                	.2byte	0x478
   16822:	0000                	.2byte	0x0
   16824:	be90                	.2byte	0xbe90
   16826:	ffff                	.2byte	0xffff
   16828:	0010                	.2byte	0x10
   1682a:	0000                	.2byte	0x0
   1682c:	0000                	.2byte	0x0
	...

00016830 <__FRAME_END__>:
   16830:	0000                	.2byte	0x0
	...

Disassembly of section .init_array:

00016834 <__init_array_start>:
   16834:	00ec                	.2byte	0xec
   16836:	0001                	.2byte	0x1

00016838 <__frame_dummy_init_array_entry>:
   16838:	0198                	.2byte	0x198
   1683a:	0001                	.2byte	0x1

Disassembly of section .fini_array:

0001683c <__do_global_dtors_aux_fini_array_entry>:
   1683c:	0154                	.2byte	0x154
   1683e:	0001                	.2byte	0x1

Disassembly of section .data:

00016840 <IO_UARTStatus>:
   16840:	0008                	.2byte	0x8
   16842:	8000                	.2byte	0x8000

00016844 <IO_UARTTX>:
   16844:	0004                	.2byte	0x4
   16846:	8000                	.2byte	0x8000

00016848 <_ZL10heap_start>:
   16848:	0000                	.2byte	0x0
   1684a:	0400                	.2byte	0x400

0001684c <IO_SPIRXTX>:
   1684c:	0040                	.2byte	0x40
   1684e:	8000                	.2byte	0x8000

00016850 <impure_data>:
   16850:	0000                	.2byte	0x0
   16852:	0000                	.2byte	0x0
   16854:	6b3c                	.2byte	0x6b3c
   16856:	0001                	.2byte	0x1
   16858:	6ba4                	.2byte	0x6ba4
   1685a:	0001                	.2byte	0x1
   1685c:	6c0c                	.2byte	0x6c0c
   1685e:	0001                	.2byte	0x1
	...
   168f8:	0001                	.2byte	0x1
   168fa:	0000                	.2byte	0x0
   168fc:	0000                	.2byte	0x0
   168fe:	0000                	.2byte	0x0
   16900:	330e                	.2byte	0x330e
   16902:	abcd                	.2byte	0xabcd
   16904:	1234                	.2byte	0x1234
   16906:	e66d                	.2byte	0xe66d
   16908:	deec                	.2byte	0xdeec
   1690a:	0005                	.2byte	0x5
   1690c:	0000000b          	.4byte	0xb
	...

00016c78 <__malloc_av_>:
	...
   16c80:	6c78                	.2byte	0x6c78
   16c82:	0001                	.2byte	0x1
   16c84:	6c78                	.2byte	0x6c78
   16c86:	0001                	.2byte	0x1
   16c88:	6c80                	.2byte	0x6c80
   16c8a:	0001                	.2byte	0x1
   16c8c:	6c80                	.2byte	0x6c80
   16c8e:	0001                	.2byte	0x1
   16c90:	6c88                	.2byte	0x6c88
   16c92:	0001                	.2byte	0x1
   16c94:	6c88                	.2byte	0x6c88
   16c96:	0001                	.2byte	0x1
   16c98:	6c90                	.2byte	0x6c90
   16c9a:	0001                	.2byte	0x1
   16c9c:	6c90                	.2byte	0x6c90
   16c9e:	0001                	.2byte	0x1
   16ca0:	6c98                	.2byte	0x6c98
   16ca2:	0001                	.2byte	0x1
   16ca4:	6c98                	.2byte	0x6c98
   16ca6:	0001                	.2byte	0x1
   16ca8:	6ca0                	.2byte	0x6ca0
   16caa:	0001                	.2byte	0x1
   16cac:	6ca0                	.2byte	0x6ca0
   16cae:	0001                	.2byte	0x1
   16cb0:	6ca8                	.2byte	0x6ca8
   16cb2:	0001                	.2byte	0x1
   16cb4:	6ca8                	.2byte	0x6ca8
   16cb6:	0001                	.2byte	0x1
   16cb8:	6cb0                	.2byte	0x6cb0
   16cba:	0001                	.2byte	0x1
   16cbc:	6cb0                	.2byte	0x6cb0
   16cbe:	0001                	.2byte	0x1
   16cc0:	6cb8                	.2byte	0x6cb8
   16cc2:	0001                	.2byte	0x1
   16cc4:	6cb8                	.2byte	0x6cb8
   16cc6:	0001                	.2byte	0x1
   16cc8:	6cc0                	.2byte	0x6cc0
   16cca:	0001                	.2byte	0x1
   16ccc:	6cc0                	.2byte	0x6cc0
   16cce:	0001                	.2byte	0x1
   16cd0:	6cc8                	.2byte	0x6cc8
   16cd2:	0001                	.2byte	0x1
   16cd4:	6cc8                	.2byte	0x6cc8
   16cd6:	0001                	.2byte	0x1
   16cd8:	6cd0                	.2byte	0x6cd0
   16cda:	0001                	.2byte	0x1
   16cdc:	6cd0                	.2byte	0x6cd0
   16cde:	0001                	.2byte	0x1
   16ce0:	6cd8                	.2byte	0x6cd8
   16ce2:	0001                	.2byte	0x1
   16ce4:	6cd8                	.2byte	0x6cd8
   16ce6:	0001                	.2byte	0x1
   16ce8:	6ce0                	.2byte	0x6ce0
   16cea:	0001                	.2byte	0x1
   16cec:	6ce0                	.2byte	0x6ce0
   16cee:	0001                	.2byte	0x1
   16cf0:	6ce8                	.2byte	0x6ce8
   16cf2:	0001                	.2byte	0x1
   16cf4:	6ce8                	.2byte	0x6ce8
   16cf6:	0001                	.2byte	0x1
   16cf8:	6cf0                	.2byte	0x6cf0
   16cfa:	0001                	.2byte	0x1
   16cfc:	6cf0                	.2byte	0x6cf0
   16cfe:	0001                	.2byte	0x1
   16d00:	6cf8                	.2byte	0x6cf8
   16d02:	0001                	.2byte	0x1
   16d04:	6cf8                	.2byte	0x6cf8
   16d06:	0001                	.2byte	0x1
   16d08:	6d00                	.2byte	0x6d00
   16d0a:	0001                	.2byte	0x1
   16d0c:	6d00                	.2byte	0x6d00
   16d0e:	0001                	.2byte	0x1
   16d10:	6d08                	.2byte	0x6d08
   16d12:	0001                	.2byte	0x1
   16d14:	6d08                	.2byte	0x6d08
   16d16:	0001                	.2byte	0x1
   16d18:	6d10                	.2byte	0x6d10
   16d1a:	0001                	.2byte	0x1
   16d1c:	6d10                	.2byte	0x6d10
   16d1e:	0001                	.2byte	0x1
   16d20:	6d18                	.2byte	0x6d18
   16d22:	0001                	.2byte	0x1
   16d24:	6d18                	.2byte	0x6d18
   16d26:	0001                	.2byte	0x1
   16d28:	6d20                	.2byte	0x6d20
   16d2a:	0001                	.2byte	0x1
   16d2c:	6d20                	.2byte	0x6d20
   16d2e:	0001                	.2byte	0x1
   16d30:	6d28                	.2byte	0x6d28
   16d32:	0001                	.2byte	0x1
   16d34:	6d28                	.2byte	0x6d28
   16d36:	0001                	.2byte	0x1
   16d38:	6d30                	.2byte	0x6d30
   16d3a:	0001                	.2byte	0x1
   16d3c:	6d30                	.2byte	0x6d30
   16d3e:	0001                	.2byte	0x1
   16d40:	6d38                	.2byte	0x6d38
   16d42:	0001                	.2byte	0x1
   16d44:	6d38                	.2byte	0x6d38
   16d46:	0001                	.2byte	0x1
   16d48:	6d40                	.2byte	0x6d40
   16d4a:	0001                	.2byte	0x1
   16d4c:	6d40                	.2byte	0x6d40
   16d4e:	0001                	.2byte	0x1
   16d50:	6d48                	.2byte	0x6d48
   16d52:	0001                	.2byte	0x1
   16d54:	6d48                	.2byte	0x6d48
   16d56:	0001                	.2byte	0x1
   16d58:	6d50                	.2byte	0x6d50
   16d5a:	0001                	.2byte	0x1
   16d5c:	6d50                	.2byte	0x6d50
   16d5e:	0001                	.2byte	0x1
   16d60:	6d58                	.2byte	0x6d58
   16d62:	0001                	.2byte	0x1
   16d64:	6d58                	.2byte	0x6d58
   16d66:	0001                	.2byte	0x1
   16d68:	6d60                	.2byte	0x6d60
   16d6a:	0001                	.2byte	0x1
   16d6c:	6d60                	.2byte	0x6d60
   16d6e:	0001                	.2byte	0x1
   16d70:	6d68                	.2byte	0x6d68
   16d72:	0001                	.2byte	0x1
   16d74:	6d68                	.2byte	0x6d68
   16d76:	0001                	.2byte	0x1
   16d78:	6d70                	.2byte	0x6d70
   16d7a:	0001                	.2byte	0x1
   16d7c:	6d70                	.2byte	0x6d70
   16d7e:	0001                	.2byte	0x1
   16d80:	6d78                	.2byte	0x6d78
   16d82:	0001                	.2byte	0x1
   16d84:	6d78                	.2byte	0x6d78
   16d86:	0001                	.2byte	0x1
   16d88:	6d80                	.2byte	0x6d80
   16d8a:	0001                	.2byte	0x1
   16d8c:	6d80                	.2byte	0x6d80
   16d8e:	0001                	.2byte	0x1
   16d90:	6d88                	.2byte	0x6d88
   16d92:	0001                	.2byte	0x1
   16d94:	6d88                	.2byte	0x6d88
   16d96:	0001                	.2byte	0x1
   16d98:	6d90                	.2byte	0x6d90
   16d9a:	0001                	.2byte	0x1
   16d9c:	6d90                	.2byte	0x6d90
   16d9e:	0001                	.2byte	0x1
   16da0:	6d98                	.2byte	0x6d98
   16da2:	0001                	.2byte	0x1
   16da4:	6d98                	.2byte	0x6d98
   16da6:	0001                	.2byte	0x1
   16da8:	6da0                	.2byte	0x6da0
   16daa:	0001                	.2byte	0x1
   16dac:	6da0                	.2byte	0x6da0
   16dae:	0001                	.2byte	0x1
   16db0:	6da8                	.2byte	0x6da8
   16db2:	0001                	.2byte	0x1
   16db4:	6da8                	.2byte	0x6da8
   16db6:	0001                	.2byte	0x1
   16db8:	6db0                	.2byte	0x6db0
   16dba:	0001                	.2byte	0x1
   16dbc:	6db0                	.2byte	0x6db0
   16dbe:	0001                	.2byte	0x1
   16dc0:	6db8                	.2byte	0x6db8
   16dc2:	0001                	.2byte	0x1
   16dc4:	6db8                	.2byte	0x6db8
   16dc6:	0001                	.2byte	0x1
   16dc8:	6dc0                	.2byte	0x6dc0
   16dca:	0001                	.2byte	0x1
   16dcc:	6dc0                	.2byte	0x6dc0
   16dce:	0001                	.2byte	0x1
   16dd0:	6dc8                	.2byte	0x6dc8
   16dd2:	0001                	.2byte	0x1
   16dd4:	6dc8                	.2byte	0x6dc8
   16dd6:	0001                	.2byte	0x1
   16dd8:	6dd0                	.2byte	0x6dd0
   16dda:	0001                	.2byte	0x1
   16ddc:	6dd0                	.2byte	0x6dd0
   16dde:	0001                	.2byte	0x1
   16de0:	6dd8                	.2byte	0x6dd8
   16de2:	0001                	.2byte	0x1
   16de4:	6dd8                	.2byte	0x6dd8
   16de6:	0001                	.2byte	0x1
   16de8:	6de0                	.2byte	0x6de0
   16dea:	0001                	.2byte	0x1
   16dec:	6de0                	.2byte	0x6de0
   16dee:	0001                	.2byte	0x1
   16df0:	6de8                	.2byte	0x6de8
   16df2:	0001                	.2byte	0x1
   16df4:	6de8                	.2byte	0x6de8
   16df6:	0001                	.2byte	0x1
   16df8:	6df0                	.2byte	0x6df0
   16dfa:	0001                	.2byte	0x1
   16dfc:	6df0                	.2byte	0x6df0
   16dfe:	0001                	.2byte	0x1
   16e00:	6df8                	.2byte	0x6df8
   16e02:	0001                	.2byte	0x1
   16e04:	6df8                	.2byte	0x6df8
   16e06:	0001                	.2byte	0x1
   16e08:	6e00                	.2byte	0x6e00
   16e0a:	0001                	.2byte	0x1
   16e0c:	6e00                	.2byte	0x6e00
   16e0e:	0001                	.2byte	0x1
   16e10:	6e08                	.2byte	0x6e08
   16e12:	0001                	.2byte	0x1
   16e14:	6e08                	.2byte	0x6e08
   16e16:	0001                	.2byte	0x1
   16e18:	6e10                	.2byte	0x6e10
   16e1a:	0001                	.2byte	0x1
   16e1c:	6e10                	.2byte	0x6e10
   16e1e:	0001                	.2byte	0x1
   16e20:	6e18                	.2byte	0x6e18
   16e22:	0001                	.2byte	0x1
   16e24:	6e18                	.2byte	0x6e18
   16e26:	0001                	.2byte	0x1
   16e28:	6e20                	.2byte	0x6e20
   16e2a:	0001                	.2byte	0x1
   16e2c:	6e20                	.2byte	0x6e20
   16e2e:	0001                	.2byte	0x1
   16e30:	6e28                	.2byte	0x6e28
   16e32:	0001                	.2byte	0x1
   16e34:	6e28                	.2byte	0x6e28
   16e36:	0001                	.2byte	0x1
   16e38:	6e30                	.2byte	0x6e30
   16e3a:	0001                	.2byte	0x1
   16e3c:	6e30                	.2byte	0x6e30
   16e3e:	0001                	.2byte	0x1
   16e40:	6e38                	.2byte	0x6e38
   16e42:	0001                	.2byte	0x1
   16e44:	6e38                	.2byte	0x6e38
   16e46:	0001                	.2byte	0x1
   16e48:	6e40                	.2byte	0x6e40
   16e4a:	0001                	.2byte	0x1
   16e4c:	6e40                	.2byte	0x6e40
   16e4e:	0001                	.2byte	0x1
   16e50:	6e48                	.2byte	0x6e48
   16e52:	0001                	.2byte	0x1
   16e54:	6e48                	.2byte	0x6e48
   16e56:	0001                	.2byte	0x1
   16e58:	6e50                	.2byte	0x6e50
   16e5a:	0001                	.2byte	0x1
   16e5c:	6e50                	.2byte	0x6e50
   16e5e:	0001                	.2byte	0x1
   16e60:	6e58                	.2byte	0x6e58
   16e62:	0001                	.2byte	0x1
   16e64:	6e58                	.2byte	0x6e58
   16e66:	0001                	.2byte	0x1
   16e68:	6e60                	.2byte	0x6e60
   16e6a:	0001                	.2byte	0x1
   16e6c:	6e60                	.2byte	0x6e60
   16e6e:	0001                	.2byte	0x1
   16e70:	6e68                	.2byte	0x6e68
   16e72:	0001                	.2byte	0x1
   16e74:	6e68                	.2byte	0x6e68
   16e76:	0001                	.2byte	0x1
   16e78:	6e70                	.2byte	0x6e70
   16e7a:	0001                	.2byte	0x1
   16e7c:	6e70                	.2byte	0x6e70
   16e7e:	0001                	.2byte	0x1
   16e80:	6e78                	.2byte	0x6e78
   16e82:	0001                	.2byte	0x1
   16e84:	6e78                	.2byte	0x6e78
   16e86:	0001                	.2byte	0x1
   16e88:	6e80                	.2byte	0x6e80
   16e8a:	0001                	.2byte	0x1
   16e8c:	6e80                	.2byte	0x6e80
   16e8e:	0001                	.2byte	0x1
   16e90:	6e88                	.2byte	0x6e88
   16e92:	0001                	.2byte	0x1
   16e94:	6e88                	.2byte	0x6e88
   16e96:	0001                	.2byte	0x1
   16e98:	6e90                	.2byte	0x6e90
   16e9a:	0001                	.2byte	0x1
   16e9c:	6e90                	.2byte	0x6e90
   16e9e:	0001                	.2byte	0x1
   16ea0:	6e98                	.2byte	0x6e98
   16ea2:	0001                	.2byte	0x1
   16ea4:	6e98                	.2byte	0x6e98
   16ea6:	0001                	.2byte	0x1
   16ea8:	6ea0                	.2byte	0x6ea0
   16eaa:	0001                	.2byte	0x1
   16eac:	6ea0                	.2byte	0x6ea0
   16eae:	0001                	.2byte	0x1
   16eb0:	6ea8                	.2byte	0x6ea8
   16eb2:	0001                	.2byte	0x1
   16eb4:	6ea8                	.2byte	0x6ea8
   16eb6:	0001                	.2byte	0x1
   16eb8:	6eb0                	.2byte	0x6eb0
   16eba:	0001                	.2byte	0x1
   16ebc:	6eb0                	.2byte	0x6eb0
   16ebe:	0001                	.2byte	0x1
   16ec0:	6eb8                	.2byte	0x6eb8
   16ec2:	0001                	.2byte	0x1
   16ec4:	6eb8                	.2byte	0x6eb8
   16ec6:	0001                	.2byte	0x1
   16ec8:	6ec0                	.2byte	0x6ec0
   16eca:	0001                	.2byte	0x1
   16ecc:	6ec0                	.2byte	0x6ec0
   16ece:	0001                	.2byte	0x1
   16ed0:	6ec8                	.2byte	0x6ec8
   16ed2:	0001                	.2byte	0x1
   16ed4:	6ec8                	.2byte	0x6ec8
   16ed6:	0001                	.2byte	0x1
   16ed8:	6ed0                	.2byte	0x6ed0
   16eda:	0001                	.2byte	0x1
   16edc:	6ed0                	.2byte	0x6ed0
   16ede:	0001                	.2byte	0x1
   16ee0:	6ed8                	.2byte	0x6ed8
   16ee2:	0001                	.2byte	0x1
   16ee4:	6ed8                	.2byte	0x6ed8
   16ee6:	0001                	.2byte	0x1
   16ee8:	6ee0                	.2byte	0x6ee0
   16eea:	0001                	.2byte	0x1
   16eec:	6ee0                	.2byte	0x6ee0
   16eee:	0001                	.2byte	0x1
   16ef0:	6ee8                	.2byte	0x6ee8
   16ef2:	0001                	.2byte	0x1
   16ef4:	6ee8                	.2byte	0x6ee8
   16ef6:	0001                	.2byte	0x1
   16ef8:	6ef0                	.2byte	0x6ef0
   16efa:	0001                	.2byte	0x1
   16efc:	6ef0                	.2byte	0x6ef0
   16efe:	0001                	.2byte	0x1
   16f00:	6ef8                	.2byte	0x6ef8
   16f02:	0001                	.2byte	0x1
   16f04:	6ef8                	.2byte	0x6ef8
   16f06:	0001                	.2byte	0x1
   16f08:	6f00                	.2byte	0x6f00
   16f0a:	0001                	.2byte	0x1
   16f0c:	6f00                	.2byte	0x6f00
   16f0e:	0001                	.2byte	0x1
   16f10:	6f08                	.2byte	0x6f08
   16f12:	0001                	.2byte	0x1
   16f14:	6f08                	.2byte	0x6f08
   16f16:	0001                	.2byte	0x1
   16f18:	6f10                	.2byte	0x6f10
   16f1a:	0001                	.2byte	0x1
   16f1c:	6f10                	.2byte	0x6f10
   16f1e:	0001                	.2byte	0x1
   16f20:	6f18                	.2byte	0x6f18
   16f22:	0001                	.2byte	0x1
   16f24:	6f18                	.2byte	0x6f18
   16f26:	0001                	.2byte	0x1
   16f28:	6f20                	.2byte	0x6f20
   16f2a:	0001                	.2byte	0x1
   16f2c:	6f20                	.2byte	0x6f20
   16f2e:	0001                	.2byte	0x1
   16f30:	6f28                	.2byte	0x6f28
   16f32:	0001                	.2byte	0x1
   16f34:	6f28                	.2byte	0x6f28
   16f36:	0001                	.2byte	0x1
   16f38:	6f30                	.2byte	0x6f30
   16f3a:	0001                	.2byte	0x1
   16f3c:	6f30                	.2byte	0x6f30
   16f3e:	0001                	.2byte	0x1
   16f40:	6f38                	.2byte	0x6f38
   16f42:	0001                	.2byte	0x1
   16f44:	6f38                	.2byte	0x6f38
   16f46:	0001                	.2byte	0x1
   16f48:	6f40                	.2byte	0x6f40
   16f4a:	0001                	.2byte	0x1
   16f4c:	6f40                	.2byte	0x6f40
   16f4e:	0001                	.2byte	0x1
   16f50:	6f48                	.2byte	0x6f48
   16f52:	0001                	.2byte	0x1
   16f54:	6f48                	.2byte	0x6f48
   16f56:	0001                	.2byte	0x1
   16f58:	6f50                	.2byte	0x6f50
   16f5a:	0001                	.2byte	0x1
   16f5c:	6f50                	.2byte	0x6f50
   16f5e:	0001                	.2byte	0x1
   16f60:	6f58                	.2byte	0x6f58
   16f62:	0001                	.2byte	0x1
   16f64:	6f58                	.2byte	0x6f58
   16f66:	0001                	.2byte	0x1
   16f68:	6f60                	.2byte	0x6f60
   16f6a:	0001                	.2byte	0x1
   16f6c:	6f60                	.2byte	0x6f60
   16f6e:	0001                	.2byte	0x1
   16f70:	6f68                	.2byte	0x6f68
   16f72:	0001                	.2byte	0x1
   16f74:	6f68                	.2byte	0x6f68
   16f76:	0001                	.2byte	0x1
   16f78:	6f70                	.2byte	0x6f70
   16f7a:	0001                	.2byte	0x1
   16f7c:	6f70                	.2byte	0x6f70
   16f7e:	0001                	.2byte	0x1
   16f80:	6f78                	.2byte	0x6f78
   16f82:	0001                	.2byte	0x1
   16f84:	6f78                	.2byte	0x6f78
   16f86:	0001                	.2byte	0x1
   16f88:	6f80                	.2byte	0x6f80
   16f8a:	0001                	.2byte	0x1
   16f8c:	6f80                	.2byte	0x6f80
   16f8e:	0001                	.2byte	0x1
   16f90:	6f88                	.2byte	0x6f88
   16f92:	0001                	.2byte	0x1
   16f94:	6f88                	.2byte	0x6f88
   16f96:	0001                	.2byte	0x1
   16f98:	6f90                	.2byte	0x6f90
   16f9a:	0001                	.2byte	0x1
   16f9c:	6f90                	.2byte	0x6f90
   16f9e:	0001                	.2byte	0x1
   16fa0:	6f98                	.2byte	0x6f98
   16fa2:	0001                	.2byte	0x1
   16fa4:	6f98                	.2byte	0x6f98
   16fa6:	0001                	.2byte	0x1
   16fa8:	6fa0                	.2byte	0x6fa0
   16faa:	0001                	.2byte	0x1
   16fac:	6fa0                	.2byte	0x6fa0
   16fae:	0001                	.2byte	0x1
   16fb0:	6fa8                	.2byte	0x6fa8
   16fb2:	0001                	.2byte	0x1
   16fb4:	6fa8                	.2byte	0x6fa8
   16fb6:	0001                	.2byte	0x1
   16fb8:	6fb0                	.2byte	0x6fb0
   16fba:	0001                	.2byte	0x1
   16fbc:	6fb0                	.2byte	0x6fb0
   16fbe:	0001                	.2byte	0x1
   16fc0:	6fb8                	.2byte	0x6fb8
   16fc2:	0001                	.2byte	0x1
   16fc4:	6fb8                	.2byte	0x6fb8
   16fc6:	0001                	.2byte	0x1
   16fc8:	6fc0                	.2byte	0x6fc0
   16fca:	0001                	.2byte	0x1
   16fcc:	6fc0                	.2byte	0x6fc0
   16fce:	0001                	.2byte	0x1
   16fd0:	6fc8                	.2byte	0x6fc8
   16fd2:	0001                	.2byte	0x1
   16fd4:	6fc8                	.2byte	0x6fc8
   16fd6:	0001                	.2byte	0x1
   16fd8:	6fd0                	.2byte	0x6fd0
   16fda:	0001                	.2byte	0x1
   16fdc:	6fd0                	.2byte	0x6fd0
   16fde:	0001                	.2byte	0x1
   16fe0:	6fd8                	.2byte	0x6fd8
   16fe2:	0001                	.2byte	0x1
   16fe4:	6fd8                	.2byte	0x6fd8
   16fe6:	0001                	.2byte	0x1
   16fe8:	6fe0                	.2byte	0x6fe0
   16fea:	0001                	.2byte	0x1
   16fec:	6fe0                	.2byte	0x6fe0
   16fee:	0001                	.2byte	0x1
   16ff0:	6fe8                	.2byte	0x6fe8
   16ff2:	0001                	.2byte	0x1
   16ff4:	6fe8                	.2byte	0x6fe8
   16ff6:	0001                	.2byte	0x1
   16ff8:	6ff0                	.2byte	0x6ff0
   16ffa:	0001                	.2byte	0x1
   16ffc:	6ff0                	.2byte	0x6ff0
   16ffe:	0001                	.2byte	0x1
   17000:	6ff8                	.2byte	0x6ff8
   17002:	0001                	.2byte	0x1
   17004:	6ff8                	.2byte	0x6ff8
   17006:	0001                	.2byte	0x1
   17008:	7000                	.2byte	0x7000
   1700a:	0001                	.2byte	0x1
   1700c:	7000                	.2byte	0x7000
   1700e:	0001                	.2byte	0x1
   17010:	7008                	.2byte	0x7008
   17012:	0001                	.2byte	0x1
   17014:	7008                	.2byte	0x7008
   17016:	0001                	.2byte	0x1
   17018:	7010                	.2byte	0x7010
   1701a:	0001                	.2byte	0x1
   1701c:	7010                	.2byte	0x7010
   1701e:	0001                	.2byte	0x1
   17020:	7018                	.2byte	0x7018
   17022:	0001                	.2byte	0x1
   17024:	7018                	.2byte	0x7018
   17026:	0001                	.2byte	0x1
   17028:	7020                	.2byte	0x7020
   1702a:	0001                	.2byte	0x1
   1702c:	7020                	.2byte	0x7020
   1702e:	0001                	.2byte	0x1
   17030:	7028                	.2byte	0x7028
   17032:	0001                	.2byte	0x1
   17034:	7028                	.2byte	0x7028
   17036:	0001                	.2byte	0x1
   17038:	7030                	.2byte	0x7030
   1703a:	0001                	.2byte	0x1
   1703c:	7030                	.2byte	0x7030
   1703e:	0001                	.2byte	0x1
   17040:	7038                	.2byte	0x7038
   17042:	0001                	.2byte	0x1
   17044:	7038                	.2byte	0x7038
   17046:	0001                	.2byte	0x1
   17048:	7040                	.2byte	0x7040
   1704a:	0001                	.2byte	0x1
   1704c:	7040                	.2byte	0x7040
   1704e:	0001                	.2byte	0x1
   17050:	7048                	.2byte	0x7048
   17052:	0001                	.2byte	0x1
   17054:	7048                	.2byte	0x7048
   17056:	0001                	.2byte	0x1
   17058:	7050                	.2byte	0x7050
   1705a:	0001                	.2byte	0x1
   1705c:	7050                	.2byte	0x7050
   1705e:	0001                	.2byte	0x1
   17060:	7058                	.2byte	0x7058
   17062:	0001                	.2byte	0x1
   17064:	7058                	.2byte	0x7058
   17066:	0001                	.2byte	0x1
   17068:	7060                	.2byte	0x7060
   1706a:	0001                	.2byte	0x1
   1706c:	7060                	.2byte	0x7060
   1706e:	0001                	.2byte	0x1
   17070:	7068                	.2byte	0x7068
   17072:	0001                	.2byte	0x1
   17074:	7068                	.2byte	0x7068
   17076:	0001                	.2byte	0x1
   17078:	7070                	.2byte	0x7070
   1707a:	0001                	.2byte	0x1
   1707c:	7070                	.2byte	0x7070
   1707e:	0001                	.2byte	0x1

Disassembly of section .got:

00017080 <.got>:
   17080:	ffff                	.2byte	0xffff
   17082:	ffff                	.2byte	0xffff
   17084:	0000                	.2byte	0x0
	...

00017088 <_GLOBAL_OFFSET_TABLE_>:
   17088:	0000                	.2byte	0x0
   1708a:	0000                	.2byte	0x0
   1708c:	70d8                	.2byte	0x70d8
   1708e:	0001                	.2byte	0x1
   17090:	684c                	.2byte	0x684c
   17092:	0001                	.2byte	0x1
   17094:	6844                	.2byte	0x6844
   17096:	0001                	.2byte	0x1
   17098:	6840                	.2byte	0x6840
   1709a:	0001                	.2byte	0x1

Disassembly of section .sdata:

0001709c <_global_impure_ptr>:
   1709c:	6850                	.2byte	0x6850
   1709e:	0001                	.2byte	0x1

000170a0 <_impure_ptr>:
   170a0:	6850                	.2byte	0x6850
   170a2:	0001                	.2byte	0x1

000170a4 <__malloc_sbrk_base>:
   170a4:	ffff                	.2byte	0xffff
   170a6:	ffff                	.2byte	0xffff

000170a8 <__malloc_trim_threshold>:
   170a8:	0000                	.2byte	0x0
   170aa:	0002                	.2byte	0x2

Disassembly of section .sbss:

000170ac <__malloc_max_total_mem>:
   170ac:	0000                	.2byte	0x0
	...

000170b0 <__malloc_max_sbrked_mem>:
   170b0:	0000                	.2byte	0x0
	...

000170b4 <__malloc_top_pad>:
   170b4:	0000                	.2byte	0x0
	...

000170b8 <errno>:
   170b8:	0000                	.2byte	0x0
	...

Disassembly of section .bss:

000170bc <completed.1>:
   170bc:	0000                	.2byte	0x0
	...

000170c0 <object.0>:
	...

000170d8 <s_filehandles>:
	...

0001b658 <__malloc_current_mallinfo>:
	...

Disassembly of section .comment:

00000000 <.comment>:
   0:	3a434347          	.4byte	0x3a434347
   4:	2820                	.2byte	0x2820
   6:	61653167          	.4byte	0x61653167
   a:	3739                	.2byte	0x3739
   c:	6538                	.2byte	0x6538
   e:	36363033          	.4byte	0x36363033
  12:	2029                	.2byte	0x2029
  14:	3231                	.2byte	0x3231
  16:	312e                	.2byte	0x312e
  18:	302e                	.2byte	0x302e
  1a:	4700                	.2byte	0x4700
  1c:	203a4343          	.4byte	0x203a4343
  20:	4728                	.2byte	0x4728
  22:	554e                	.2byte	0x554e
  24:	2029                	.2byte	0x2029
  26:	3231                	.2byte	0x3231
  28:	312e                	.2byte	0x312e
  2a:	302e                	.2byte	0x302e
	...

Disassembly of section .riscv.attributes:

00000000 <.riscv.attributes>:
   0:	2441                	.2byte	0x2441
   2:	0000                	.2byte	0x0
   4:	7200                	.2byte	0x7200
   6:	7369                	.2byte	0x7369
   8:	01007663          	bgeu	zero,a6,14 <exit-0x10080>
   c:	001a                	.2byte	0x1a
   e:	0000                	.2byte	0x0
  10:	1004                	.2byte	0x1004
  12:	7205                	.2byte	0x7205
  14:	3376                	.2byte	0x3376
  16:	6932                	.2byte	0x6932
  18:	7032                	.2byte	0x7032
  1a:	5f30                	.2byte	0x5f30
  1c:	326d                	.2byte	0x326d
  1e:	3070                	.2byte	0x3070
  20:	0800                	.2byte	0x800
  22:	0a01                	.2byte	0xa01
  24:	0b              	Address 0x0000000000000024 is out of bounds.


Disassembly of section .debug_aranges:

00000000 <.debug_aranges>:
   0:	001c                	.2byte	0x1c
   2:	0000                	.2byte	0x0
   4:	0002                	.2byte	0x2
   6:	0000                	.2byte	0x0
   8:	0000                	.2byte	0x0
   a:	0004                	.2byte	0x4
	...

Disassembly of section .debug_info:

00000000 <.debug_info>:
   0:	075d                	.2byte	0x75d
   2:	0000                	.2byte	0x0
   4:	0005                	.2byte	0x5
   6:	0401                	.2byte	0x401
   8:	0000                	.2byte	0x0
   a:	0000                	.2byte	0x0
   c:	1b11                	.2byte	0x1b11
   e:	0001                	.2byte	0x1
  10:	1d00                	.2byte	0x1d00
  12:	0000                	.2byte	0x0
  14:	0000                	.2byte	0x0
  16:	0038                	.2byte	0x38
	...
  24:	0000                	.2byte	0x0
  26:	0804                	.2byte	0x804
  28:	00004c07          	.4byte	0x4c07
  2c:	1200                	.2byte	0x1200
  2e:	0504                	.2byte	0x504
  30:	6e69                	.2byte	0x6e69
  32:	0074                	.2byte	0x74
  34:	0404                	.2byte	0x404
  36:	00005607          	.4byte	0x5607
  3a:	0400                	.2byte	0x400
  3c:	0508                	.2byte	0x508
  3e:	003e                	.2byte	0x3e
  40:	0000                	.2byte	0x0
  42:	1004                	.2byte	0x1004
  44:	f304                	.2byte	0xf304
  46:	0000                	.2byte	0x0
  48:	0400                	.2byte	0x400
  4a:	0601                	.2byte	0x601
  4c:	0074                	.2byte	0x74
  4e:	0000                	.2byte	0x0
  50:	0104                	.2byte	0x104
  52:	7208                	.2byte	0x7208
  54:	0000                	.2byte	0x0
  56:	0400                	.2byte	0x400
  58:	0502                	.2byte	0x502
  5a:	0020                	.2byte	0x20
  5c:	0000                	.2byte	0x0
  5e:	0204                	.2byte	0x204
  60:	0000a507          	.4byte	0xa507
  64:	0400                	.2byte	0x400
  66:	0504                	.2byte	0x504
  68:	00000043          	.4byte	0x43
  6c:	0404                	.2byte	0x404
  6e:	00005107          	.4byte	0x5107
  72:	0400                	.2byte	0x400
  74:	0801                	.2byte	0x801
  76:	0000007b          	.4byte	0x7b
  7a:	9406                	.2byte	0x9406
  7c:	0000                	.2byte	0x0
  7e:	7b00                	.2byte	0x7b00
  80:	5016                	.2byte	0x5016
  82:	0000                	.2byte	0x0
  84:	0900                	.2byte	0x900
  86:	007a                	.2byte	0x7a
  88:	0000                	.2byte	0x0
  8a:	0006                	.2byte	0x6
  8c:	0001                	.2byte	0x1
  8e:	8000                	.2byte	0x8000
  90:	00002d0f          	.4byte	0x2d0f
  94:	0600                	.2byte	0x600
  96:	00ff                	.2byte	0xff
  98:	0000                	.2byte	0x0
  9a:	1681                	.2byte	0x1681
  9c:	0034                	.2byte	0x34
  9e:	0000                	.2byte	0x0
  a0:	b906                	.2byte	0xb906
  a2:	0000                	.2byte	0x0
  a4:	8400                	.2byte	0x8400
  a6:	00003b0f          	.4byte	0x3b0f
  aa:	0600                	.2byte	0x600
  ac:	00b8                	.2byte	0xb8
  ae:	0000                	.2byte	0x0
  b0:	1685                	.2byte	0x1685
  b2:	0026                	.2byte	0x26
  b4:	0000                	.2byte	0x0
  b6:	0404                	.2byte	0x404
  b8:	1a04                	.2byte	0x1a04
  ba:	0000                	.2byte	0x0
  bc:	0400                	.2byte	0x400
  be:	0308                	.2byte	0x308
  c0:	0012                	.2byte	0x12
  c2:	0000                	.2byte	0x0
  c4:	0804                	.2byte	0x804
  c6:	f804                	.2byte	0xf804
  c8:	0000                	.2byte	0x0
  ca:	0400                	.2byte	0x400
  cc:	0310                	.2byte	0x310
  ce:	00ca                	.2byte	0xca
  d0:	0000                	.2byte	0x0
  d2:	2004                	.2byte	0x2004
  d4:	0000eb03          	.4byte	0xeb03
  d8:	1300                	.2byte	0x1300
  da:	009c                	.2byte	0x9c
  dc:	0000                	.2byte	0x0
  de:	0208                	.2byte	0x208
  e0:	01ed                	.2byte	0x1ed
  e2:	040a                	.2byte	0x40a
  e4:	0001                	.2byte	0x1
  e6:	1400                	.2byte	0x1400
  e8:	6f6c                	.2byte	0x6f6c
  ea:	ed020077          	.4byte	0xed020077
  ee:	1a01                	.2byte	0x1a01
  f0:	008a                	.2byte	0x8a
  f2:	0000                	.2byte	0x0
  f4:	1500                	.2byte	0x1500
  f6:	00000063          	beqz	zero,f6 <exit-0xff9e>
  fa:	ed02                	.2byte	0xed02
  fc:	1f01                	.2byte	0x1f01
  fe:	008a                	.2byte	0x8a
 100:	0000                	.2byte	0x0
 102:	0004                	.2byte	0x4
 104:	0816                	.2byte	0x816
 106:	f402                	.2byte	0xf402
 108:	0901                	.2byte	0x901
 10a:	0124                	.2byte	0x124
 10c:	0000                	.2byte	0x0
 10e:	730c                	.2byte	0x730c
 110:	f600                	.2byte	0xf600
 112:	1301                	.2byte	0x1301
 114:	00d9                	.2byte	0xd9
 116:	0000                	.2byte	0x0
 118:	6c0c                	.2byte	0x6c0c
 11a:	006c                	.2byte	0x6c
 11c:	a00a01f7          	.4byte	0xa00a01f7
 120:	0000                	.2byte	0x0
 122:	0000                	.2byte	0x0
 124:	00000017          	auipc	zero,0x0
 128:	0200                	.2byte	0x200
 12a:	01f8                	.2byte	0x1f8
 12c:	00010403          	lb	s0,0(sp)
 130:	0900                	.2byte	0x900
 132:	0124                	.2byte	0x124
 134:	0000                	.2byte	0x0
 136:	8518                	.2byte	0x8518
 138:	0000                	.2byte	0x0
 13a:	4600                	.2byte	0x4600
 13c:	0001                	.2byte	0x1
 13e:	1900                	.2byte	0x1900
 140:	0034                	.2byte	0x34
 142:	0000                	.2byte	0x0
 144:	00ff                	.2byte	0xff
 146:	3609                	.2byte	0x3609
 148:	0001                	.2byte	0x1
 14a:	1a00                	.2byte	0x1a00
 14c:	0068                	.2byte	0x68
 14e:	0000                	.2byte	0x0
 150:	0202                	.2byte	0x202
 152:	1602                	.2byte	0x1602
 154:	0146                	.2byte	0x146
 156:	0000                	.2byte	0x0
 158:	0000081b          	.4byte	0x81b
 15c:	0100                	.2byte	0x100
 15e:	0512                	.2byte	0x512
 160:	ab01                	.2byte	0xab01
	...
 16a:	0000                	.2byte	0x0
 16c:	0100                	.2byte	0x100
 16e:	2e9c                	.2byte	0x2e9c
 170:	0004                	.2byte	0x4
 172:	0d00                	.2byte	0xd00
 174:	006e                	.2byte	0x6e
 176:	ab14                	.2byte	0xab14
 178:	0000                	.2byte	0x0
 17a:	0c00                	.2byte	0xc00
 17c:	0000                	.2byte	0x0
 17e:	0d00                	.2byte	0xd00
 180:	0064                	.2byte	0x64
 182:	ab1f 0000 ed00      	.byte	0x1f, 0xab, 0x00, 0x00, 0x00, 0xed
 188:	0000                	.2byte	0x0
 18a:	1c00                	.2byte	0x1c00
 18c:	042e                	.2byte	0x42e
 18e:	0000                	.2byte	0x0
 190:	0000                	.2byte	0x0
 192:	0000                	.2byte	0x0
 194:	000c                	.2byte	0xc
 196:	0000                	.2byte	0x0
 198:	1401                	.2byte	0x1401
 19a:	0a05                	.2byte	0xa05
 19c:	500a                	.2byte	0x500a
 19e:	0004                	.2byte	0x4
 1a0:	7e00                	.2byte	0x7e00
 1a2:	0001                	.2byte	0x1
 1a4:	0a00                	.2byte	0xa00
 1a6:	0448                	.2byte	0x448
 1a8:	0000                	.2byte	0x0
 1aa:	00000197          	auipc	gp,0x0
 1ae:	400a                	.2byte	0x400a
 1b0:	0004                	.2byte	0x4
 1b2:	d800                	.2byte	0xd800
 1b4:	0001                	.2byte	0x1
 1b6:	1d00                	.2byte	0x1d00
 1b8:	0028                	.2byte	0x28
 1ba:	0000                	.2byte	0x0
 1bc:	5908                	.2byte	0x5908
 1be:	0004                	.2byte	0x4
 1c0:	0800                	.2byte	0x800
 1c2:	0464                	.2byte	0x464
 1c4:	0000                	.2byte	0x0
 1c6:	6f08                	.2byte	0x6f08
 1c8:	0004                	.2byte	0x4
 1ca:	0100                	.2byte	0x100
 1cc:	047a                	.2byte	0x47a
 1ce:	0000                	.2byte	0x0
 1d0:	02b9                	.2byte	0x2b9
 1d2:	0000                	.2byte	0x0
 1d4:	8501                	.2byte	0x8501
 1d6:	0004                	.2byte	0x4
 1d8:	2500                	.2byte	0x2500
 1da:	01000003          	lb	zero,16(zero) # 10 <exit-0x10084>
 1de:	0490                	.2byte	0x490
 1e0:	0000                	.2byte	0x0
 1e2:	035d                	.2byte	0x35d
 1e4:	0000                	.2byte	0x0
 1e6:	9b01                	.2byte	0x9b01
 1e8:	0004                	.2byte	0x4
 1ea:	0d00                	.2byte	0xd00
 1ec:	0004                	.2byte	0x4
 1ee:	0100                	.2byte	0x100
 1f0:	04a6                	.2byte	0x4a6
 1f2:	0000                	.2byte	0x0
 1f4:	0492                	.2byte	0x492
 1f6:	0000                	.2byte	0x0
 1f8:	b101                	.2byte	0xb101
 1fa:	0004                	.2byte	0x4
 1fc:	a900                	.2byte	0xa900
 1fe:	0004                	.2byte	0x4
 200:	0100                	.2byte	0x100
 202:	04bc                	.2byte	0x4bc
 204:	0000                	.2byte	0x0
 206:	000004cb          	.4byte	0x4cb
 20a:	c701                	.2byte	0xc701
 20c:	0004                	.2byte	0x4
 20e:	ee00                	.2byte	0xee00
 210:	0004                	.2byte	0x4
 212:	0100                	.2byte	0x100
 214:	04d1                	.2byte	0x4d1
 216:	0000                	.2byte	0x0
 218:	0505                	.2byte	0x505
 21a:	0000                	.2byte	0x0
 21c:	dc08                	.2byte	0xdc08
 21e:	0004                	.2byte	0x4
 220:	0700                	.2byte	0x700
 222:	000004e7          	jalr	s1,zero # 0 <exit-0x10094>
 226:	004d                	.2byte	0x4d
 228:	0000                	.2byte	0x0
 22a:	0241                	.2byte	0x241
 22c:	0000                	.2byte	0x0
 22e:	ec01                	.2byte	0xec01
 230:	0004                	.2byte	0x4
 232:	3d00                	.2byte	0x3d00
 234:	0005                	.2byte	0x5
 236:	0100                	.2byte	0x100
 238:	04f8                	.2byte	0x4f8
 23a:	0000                	.2byte	0x0
 23c:	0572                	.2byte	0x572
 23e:	0000                	.2byte	0x0
 240:	0e00                	.2byte	0xe00
 242:	0505                	.2byte	0x505
	...
 24c:	0000                	.2byte	0x0
 24e:	0292                	.2byte	0x292
 250:	0000                	.2byte	0x0
 252:	0a01                	.2byte	0xa01
 254:	0005                	.2byte	0x5
 256:	7e00                	.2byte	0x7e00
 258:	0005                	.2byte	0x5
 25a:	0100                	.2byte	0x100
 25c:	0516                	.2byte	0x516
 25e:	0000                	.2byte	0x0
 260:	058a                	.2byte	0x58a
 262:	0000                	.2byte	0x0
 264:	2201                	.2byte	0x2201
 266:	0005                	.2byte	0x5
 268:	9600                	.2byte	0x9600
 26a:	0005                	.2byte	0x5
 26c:	0100                	.2byte	0x100
 26e:	052e                	.2byte	0x52e
 270:	0000                	.2byte	0x0
 272:	05ad                	.2byte	0x5ad
 274:	0000                	.2byte	0x0
 276:	3a01                	.2byte	0x3a01
 278:	0005                	.2byte	0x5
 27a:	c400                	.2byte	0xc400
 27c:	0005                	.2byte	0x5
 27e:	0100                	.2byte	0x100
 280:	0546                	.2byte	0x546
 282:	0000                	.2byte	0x0
 284:	0608                	.2byte	0x608
 286:	0000                	.2byte	0x0
 288:	5201                	.2byte	0x5201
 28a:	0005                	.2byte	0x5
 28c:	2f00                	.2byte	0x2f00
 28e:	0006                	.2byte	0x6
 290:	0000                	.2byte	0x0
 292:	00066107          	.4byte	0x66107
 296:	6000                	.2byte	0x6000
 298:	0000                	.2byte	0x0
 29a:	5100                	.2byte	0x5100
 29c:	01000003          	lb	zero,16(zero) # 10 <exit-0x10084>
 2a0:	0662                	.2byte	0x662
 2a2:	0000                	.2byte	0x0
 2a4:	0656                	.2byte	0x656
 2a6:	0000                	.2byte	0x0
 2a8:	6d01                	.2byte	0x6d01
 2aa:	0006                	.2byte	0x6
 2ac:	6200                	.2byte	0x6200
 2ae:	0006                	.2byte	0x6
 2b0:	0700                	.2byte	0x700
 2b2:	0678                	.2byte	0x678
 2b4:	0000                	.2byte	0x0
 2b6:	00000073          	ecall
 2ba:	02fe                	.2byte	0x2fe
 2bc:	0000                	.2byte	0x0
 2be:	7d01                	.2byte	0x7d01
 2c0:	0006                	.2byte	0x6
 2c2:	9c00                	.2byte	0x9c00
 2c4:	0006                	.2byte	0x6
 2c6:	0100                	.2byte	0x100
 2c8:	0689                	.2byte	0x689
 2ca:	0000                	.2byte	0x0
 2cc:	06a8                	.2byte	0x6a8
 2ce:	0000                	.2byte	0x0
 2d0:	9501                	.2byte	0x9501
 2d2:	0006                	.2byte	0x6
 2d4:	c500                	.2byte	0xc500
 2d6:	0006                	.2byte	0x6
 2d8:	0100                	.2byte	0x100
 2da:	06a1                	.2byte	0x6a1
 2dc:	0000                	.2byte	0x0
 2de:	06dc                	.2byte	0x6dc
 2e0:	0000                	.2byte	0x0
 2e2:	ad01                	.2byte	0xad01
 2e4:	0006                	.2byte	0x6
 2e6:	f300                	.2byte	0xf300
 2e8:	0006                	.2byte	0x6
 2ea:	0100                	.2byte	0x100
 2ec:	06b9                	.2byte	0x6b9
 2ee:	0000                	.2byte	0x0
 2f0:	0725                	.2byte	0x725
 2f2:	0000                	.2byte	0x0
 2f4:	c501                	.2byte	0xc501
 2f6:	0006                	.2byte	0x6
 2f8:	5700                	.2byte	0x5700
 2fa:	00000007          	.4byte	0x7
 2fe:	0006d20f          	.4byte	0x6d20f
 302:	9800                	.2byte	0x9800
 304:	0000                	.2byte	0x0
 306:	0100                	.2byte	0x100
 308:	000006d7          	.4byte	0x6d7
 30c:	077e                	.2byte	0x77e
 30e:	0000                	.2byte	0x0
 310:	e301                	.2byte	0xe301
 312:	0006                	.2byte	0x6
 314:	8a00                	.2byte	0x8a00
 316:	01000007          	.4byte	0x1000007
 31a:	000006ef          	jal	a3,31a <exit-0xfd7a>
 31e:	000007c3          	.4byte	0x7c3
 322:	fb01                	.2byte	0xfb01
 324:	0006                	.2byte	0x6
 326:	cf00                	.2byte	0xcf00
 328:	01000007          	.4byte	0x1000007
 32c:	00000707          	.4byte	0x707
 330:	000007db          	.4byte	0x7db
 334:	1301                	.2byte	0x1301
 336:	27000007          	.4byte	0x27000007
 33a:	0008                	.2byte	0x8
 33c:	0100                	.2byte	0x100
 33e:	071f 0000 0833      	.byte	0x1f, 0x07, 0x00, 0x00, 0x33, 0x08
 344:	0000                	.2byte	0x0
 346:	2b01                	.2byte	0x2b01
 348:	5d000007          	.4byte	0x5d000007
 34c:	0008                	.2byte	0x8
 34e:	0000                	.2byte	0x0
 350:	0700                	.2byte	0x700
 352:	055f 0000 00c6      	.byte	0x5f, 0x05, 0x00, 0x00, 0xc6, 0x00
 358:	0000                	.2byte	0x0
 35a:	0371                	.2byte	0x371
 35c:	0000                	.2byte	0x0
 35e:	6401                	.2byte	0x6401
 360:	0005                	.2byte	0x5
 362:	6900                	.2byte	0x6900
 364:	0008                	.2byte	0x8
 366:	0100                	.2byte	0x100
 368:	0570                	.2byte	0x570
 36a:	0000                	.2byte	0x0
 36c:	0880                	.2byte	0x880
 36e:	0000                	.2byte	0x0
 370:	0e00                	.2byte	0xe00
 372:	000005d7          	.4byte	0x5d7
	...
 37e:	03c2                	.2byte	0x3c2
 380:	0000                	.2byte	0x0
 382:	dc01                	.2byte	0xdc01
 384:	0005                	.2byte	0x5
 386:	8c00                	.2byte	0x8c00
 388:	0008                	.2byte	0x8
 38a:	0100                	.2byte	0x100
 38c:	05e8                	.2byte	0x5e8
 38e:	0000                	.2byte	0x0
 390:	0898                	.2byte	0x898
 392:	0000                	.2byte	0x0
 394:	f401                	.2byte	0xf401
 396:	0005                	.2byte	0x5
 398:	a400                	.2byte	0xa400
 39a:	0008                	.2byte	0x8
 39c:	0100                	.2byte	0x100
 39e:	0600                	.2byte	0x600
 3a0:	0000                	.2byte	0x0
 3a2:	000008bb          	.4byte	0x8bb
 3a6:	0c01                	.2byte	0xc01
 3a8:	0006                	.2byte	0x6
 3aa:	d200                	.2byte	0xd200
 3ac:	0008                	.2byte	0x8
 3ae:	0100                	.2byte	0x100
 3b0:	0618                	.2byte	0x618
 3b2:	0000                	.2byte	0x0
 3b4:	0904                	.2byte	0x904
 3b6:	0000                	.2byte	0x0
 3b8:	2401                	.2byte	0x2401
 3ba:	0006                	.2byte	0x6
 3bc:	2b00                	.2byte	0x2b00
 3be:	0009                	.2byte	0x9
 3c0:	0000                	.2byte	0x0
 3c2:	00057d07          	.4byte	0x57d07
 3c6:	e200                	.2byte	0xe200
 3c8:	0000                	.2byte	0x0
 3ca:	0f00                	.2byte	0xf00
 3cc:	0004                	.2byte	0x4
 3ce:	0100                	.2byte	0x100
 3d0:	0582                	.2byte	0x582
 3d2:	0000                	.2byte	0x0
 3d4:	0952                	.2byte	0x952
 3d6:	0000                	.2byte	0x0
 3d8:	8e01                	.2byte	0x8e01
 3da:	0005                	.2byte	0x5
 3dc:	5e00                	.2byte	0x5e00
 3de:	0009                	.2byte	0x9
 3e0:	0100                	.2byte	0x100
 3e2:	059a                	.2byte	0x59a
 3e4:	0000                	.2byte	0x0
 3e6:	0000097b          	.4byte	0x97b
 3ea:	a601                	.2byte	0xa601
 3ec:	0005                	.2byte	0x5
 3ee:	9200                	.2byte	0x9200
 3f0:	0009                	.2byte	0x9
 3f2:	0100                	.2byte	0x100
 3f4:	05b2                	.2byte	0x5b2
 3f6:	0000                	.2byte	0x0
 3f8:	09a9                	.2byte	0x9a9
 3fa:	0000                	.2byte	0x0
 3fc:	be01                	.2byte	0xbe01
 3fe:	0005                	.2byte	0x5
 400:	db00                	.2byte	0xdb00
 402:	0009                	.2byte	0x9
 404:	0100                	.2byte	0x100
 406:	05ca                	.2byte	0x5ca
 408:	0000                	.2byte	0x0
 40a:	0a0d                	.2byte	0xa0d
 40c:	0000                	.2byte	0x0
 40e:	0f00                	.2byte	0xf00
 410:	0631                	.2byte	0x631
 412:	0000                	.2byte	0x0
 414:	00fe                	.2byte	0xfe
 416:	0000                	.2byte	0x0
 418:	3601                	.2byte	0x3601
 41a:	0006                	.2byte	0x6
 41c:	3400                	.2byte	0x3400
 41e:	000a                	.2byte	0xa
 420:	0100                	.2byte	0x100
 422:	0642                	.2byte	0x642
 424:	0000                	.2byte	0x0
 426:	0a40                	.2byte	0xa40
 428:	0000                	.2byte	0x0
 42a:	0000                	.2byte	0x0
 42c:	0000                	.2byte	0x0
 42e:	de1e                	.2byte	0xde1e
 430:	0000                	.2byte	0x0
 432:	0100                	.2byte	0x100
 434:	ab0103e3          	beq	sp,a6,fffffeda <__BSS_END__+0xfffe485a>
 438:	0000                	.2byte	0x0
 43a:	0300                	.2byte	0x300
 43c:	075a                	.2byte	0x75a
 43e:	0000                	.2byte	0x0
 440:	17006e0b          	.4byte	0x17006e0b
 444:	000000ab          	.4byte	0xab
 448:	2200640b          	.4byte	0x2200640b
 44c:	000000ab          	.4byte	0xab
 450:	0070720b          	.4byte	0x70720b
 454:	5a2e                	.2byte	0x5a2e
 456:	03000007          	.4byte	0x3000007
 45a:	6e6e                	.2byte	0x6e6e
 45c:	e500                	.2byte	0xe500
 45e:	01311103          	lh	sp,19(sp)
 462:	0000                	.2byte	0x0
 464:	00646403          	.4byte	0x646403
 468:	03e6                	.2byte	0x3e6
 46a:	3111                	.2byte	0x3111
 46c:	0001                	.2byte	0x1
 46e:	0300                	.2byte	0x300
 470:	7272                	.2byte	0x7272
 472:	e700                	.2byte	0xe700
 474:	01240b03          	lb	s6,18(s0)
 478:	0000                	.2byte	0x0
 47a:	00306403          	.4byte	0x306403
 47e:	03e8                	.2byte	0x3e8
 480:	950a                	.2byte	0x950a
 482:	0000                	.2byte	0x0
 484:	0300                	.2byte	0x300
 486:	3164                	.2byte	0x3164
 488:	e800                	.2byte	0xe800
 48a:	00950e03          	lb	t3,9(a0)
 48e:	0000                	.2byte	0x0
 490:	00306e03          	.4byte	0x306e03
 494:	03e8                	.2byte	0x3e8
 496:	9512                	.2byte	0x9512
 498:	0000                	.2byte	0x0
 49a:	0300                	.2byte	0x300
 49c:	316e                	.2byte	0x316e
 49e:	e800                	.2byte	0xe800
 4a0:	00951603          	lh	a2,9(a0)
 4a4:	0000                	.2byte	0x0
 4a6:	00326e03          	.4byte	0x326e03
 4aa:	03e8                	.2byte	0x3e8
 4ac:	951a                	.2byte	0x951a
 4ae:	0000                	.2byte	0x0
 4b0:	0300                	.2byte	0x300
 4b2:	3071                	.2byte	0x3071
 4b4:	e900                	.2byte	0xe900
 4b6:	00950a03          	lb	s4,9(a0)
 4ba:	0000                	.2byte	0x0
 4bc:	00317103          	.4byte	0x317103
 4c0:	03e9                	.2byte	0x3e9
 4c2:	950e                	.2byte	0x950e
 4c4:	0000                	.2byte	0x0
 4c6:	0300                	.2byte	0x300
 4c8:	0062                	.2byte	0x62
 4ca:	03ea                	.2byte	0x3ea
 4cc:	950a                	.2byte	0x950a
 4ce:	0000                	.2byte	0x0
 4d0:	0300                	.2byte	0x300
 4d2:	6d62                	.2byte	0x6d62
 4d4:	ea00                	.2byte	0xea00
 4d6:	00950d03          	lb	s10,9(a0)
 4da:	0000                	.2byte	0x0
 4dc:	00777703          	.4byte	0x777703
 4e0:	311104b3          	.4byte	0x311104b3
 4e4:	0001                	.2byte	0x1
 4e6:	0500                	.2byte	0x500
 4e8:	0505                	.2byte	0x505
 4ea:	0000                	.2byte	0x0
 4ec:	d902                	.2byte	0xd902
 4ee:	0000                	.2byte	0x0
 4f0:	1a00                	.2byte	0x1a00
 4f2:	0404                	.2byte	0x404
 4f4:	0095                	.2byte	0x95
 4f6:	0000                	.2byte	0x0
 4f8:	615f5f03          	lhu	t5,1557(t5)
 4fc:	1a00                	.2byte	0x1a00
 4fe:	0404                	.2byte	0x404
 500:	0095                	.2byte	0x95
 502:	0000                	.2byte	0x0
 504:	0500                	.2byte	0x500
 506:	055f 0000 2f02      	.byte	0x5f, 0x05, 0x00, 0x00, 0x02, 0x2f
 50c:	0000                	.2byte	0x0
 50e:	2600                	.2byte	0x2600
 510:	0404                	.2byte	0x404
 512:	0095                	.2byte	0x95
 514:	0000                	.2byte	0x0
 516:	2a02                	.2byte	0x2a02
 518:	0000                	.2byte	0x0
 51a:	2600                	.2byte	0x2600
 51c:	0404                	.2byte	0x404
 51e:	0095                	.2byte	0x95
 520:	0000                	.2byte	0x0
 522:	c502                	.2byte	0xc502
 524:	0000                	.2byte	0x0
 526:	2600                	.2byte	0x2600
 528:	0404                	.2byte	0x404
 52a:	0095                	.2byte	0x95
 52c:	0000                	.2byte	0x0
 52e:	c002                	.2byte	0xc002
 530:	0000                	.2byte	0x0
 532:	2600                	.2byte	0x2600
 534:	0404                	.2byte	0x404
 536:	0095                	.2byte	0x95
 538:	0000                	.2byte	0x0
 53a:	0c02                	.2byte	0xc02
 53c:	0001                	.2byte	0x1
 53e:	2600                	.2byte	0x2600
 540:	0404                	.2byte	0x404
 542:	0095                	.2byte	0x95
 544:	0000                	.2byte	0x0
 546:	0702                	.2byte	0x702
 548:	0001                	.2byte	0x1
 54a:	2600                	.2byte	0x2600
 54c:	0404                	.2byte	0x404
 54e:	0095                	.2byte	0x95
 550:	0000                	.2byte	0x0
 552:	6d5f5f03          	lhu	t5,1749(t5)
 556:	2600                	.2byte	0x2600
 558:	0404                	.2byte	0x404
 55a:	0095                	.2byte	0x95
 55c:	0000                	.2byte	0x0
 55e:	0500                	.2byte	0x500
 560:	057d                	.2byte	0x57d
 562:	0000                	.2byte	0x0
 564:	d902                	.2byte	0xd902
 566:	0000                	.2byte	0x0
 568:	3200                	.2byte	0x3200
 56a:	0404                	.2byte	0x404
 56c:	0095                	.2byte	0x95
 56e:	0000                	.2byte	0x0
 570:	615f5f03          	lhu	t5,1557(t5)
 574:	3200                	.2byte	0x3200
 576:	0404                	.2byte	0x404
 578:	0095                	.2byte	0x95
 57a:	0000                	.2byte	0x0
 57c:	0500                	.2byte	0x500
 57e:	000005d7          	.4byte	0x5d7
 582:	2f02                	.2byte	0x2f02
 584:	0000                	.2byte	0x0
 586:	4b00                	.2byte	0x4b00
 588:	0804                	.2byte	0x804
 58a:	0095                	.2byte	0x95
 58c:	0000                	.2byte	0x0
 58e:	2a02                	.2byte	0x2a02
 590:	0000                	.2byte	0x0
 592:	4b00                	.2byte	0x4b00
 594:	0804                	.2byte	0x804
 596:	0095                	.2byte	0x95
 598:	0000                	.2byte	0x0
 59a:	c502                	.2byte	0xc502
 59c:	0000                	.2byte	0x0
 59e:	4b00                	.2byte	0x4b00
 5a0:	0804                	.2byte	0x804
 5a2:	0095                	.2byte	0x95
 5a4:	0000                	.2byte	0x0
 5a6:	c002                	.2byte	0xc002
 5a8:	0000                	.2byte	0x0
 5aa:	4b00                	.2byte	0x4b00
 5ac:	0804                	.2byte	0x804
 5ae:	0095                	.2byte	0x95
 5b0:	0000                	.2byte	0x0
 5b2:	0c02                	.2byte	0xc02
 5b4:	0001                	.2byte	0x1
 5b6:	4b00                	.2byte	0x4b00
 5b8:	0804                	.2byte	0x804
 5ba:	0095                	.2byte	0x95
 5bc:	0000                	.2byte	0x0
 5be:	0702                	.2byte	0x702
 5c0:	0001                	.2byte	0x1
 5c2:	4b00                	.2byte	0x4b00
 5c4:	0804                	.2byte	0x804
 5c6:	0095                	.2byte	0x95
 5c8:	0000                	.2byte	0x0
 5ca:	6d5f5f03          	lhu	t5,1749(t5)
 5ce:	4b00                	.2byte	0x4b00
 5d0:	0804                	.2byte	0x804
 5d2:	0095                	.2byte	0x95
 5d4:	0000                	.2byte	0x0
 5d6:	0500                	.2byte	0x500
 5d8:	0631                	.2byte	0x631
 5da:	0000                	.2byte	0x0
 5dc:	2f02                	.2byte	0x2f02
 5de:	0000                	.2byte	0x0
 5e0:	5000                	.2byte	0x5000
 5e2:	0404                	.2byte	0x404
 5e4:	0095                	.2byte	0x95
 5e6:	0000                	.2byte	0x0
 5e8:	2a02                	.2byte	0x2a02
 5ea:	0000                	.2byte	0x0
 5ec:	5000                	.2byte	0x5000
 5ee:	0404                	.2byte	0x404
 5f0:	0095                	.2byte	0x95
 5f2:	0000                	.2byte	0x0
 5f4:	c502                	.2byte	0xc502
 5f6:	0000                	.2byte	0x0
 5f8:	5000                	.2byte	0x5000
 5fa:	0404                	.2byte	0x404
 5fc:	0095                	.2byte	0x95
 5fe:	0000                	.2byte	0x0
 600:	c002                	.2byte	0xc002
 602:	0000                	.2byte	0x0
 604:	5000                	.2byte	0x5000
 606:	0404                	.2byte	0x404
 608:	0095                	.2byte	0x95
 60a:	0000                	.2byte	0x0
 60c:	0c02                	.2byte	0xc02
 60e:	0001                	.2byte	0x1
 610:	5000                	.2byte	0x5000
 612:	0404                	.2byte	0x404
 614:	0095                	.2byte	0x95
 616:	0000                	.2byte	0x0
 618:	0702                	.2byte	0x702
 61a:	0001                	.2byte	0x1
 61c:	5000                	.2byte	0x5000
 61e:	0404                	.2byte	0x404
 620:	0095                	.2byte	0x95
 622:	0000                	.2byte	0x0
 624:	6d5f5f03          	lhu	t5,1749(t5)
 628:	5000                	.2byte	0x5000
 62a:	0404                	.2byte	0x404
 62c:	0095                	.2byte	0x95
 62e:	0000                	.2byte	0x0
 630:	0500                	.2byte	0x500
 632:	0000064f          	.4byte	0x64f
 636:	d902                	.2byte	0xd902
 638:	0000                	.2byte	0x0
 63a:	7300                	.2byte	0x7300
 63c:	0404                	.2byte	0x404
 63e:	0095                	.2byte	0x95
 640:	0000                	.2byte	0x0
 642:	615f5f03          	lhu	t5,1557(t5)
 646:	7300                	.2byte	0x7300
 648:	0404                	.2byte	0x404
 64a:	0095                	.2byte	0x95
 64c:	0000                	.2byte	0x0
 64e:	0500                	.2byte	0x500
 650:	0661                	.2byte	0x661
 652:	0000                	.2byte	0x0
 654:	785f5f03          	lhu	t5,1925(t5)
 658:	8100                	.2byte	0x8100
 65a:	0504                	.2byte	0x504
 65c:	0095                	.2byte	0x95
 65e:	0000                	.2byte	0x0
 660:	1000                	.2byte	0x1000
 662:	00316d03          	.4byte	0x316d03
 666:	0491                	.2byte	0x491
 668:	0000950f          	.4byte	0x950f
 66c:	0300                	.2byte	0x300
 66e:	306d                	.2byte	0x306d
 670:	9100                	.2byte	0x9100
 672:	1304                	.2byte	0x1304
 674:	0095                	.2byte	0x95
 676:	0000                	.2byte	0x0
 678:	d205                	.2byte	0xd205
 67a:	0006                	.2byte	0x6
 67c:	0200                	.2byte	0x200
 67e:	0000002f          	.4byte	0x2f
 682:	049c                	.2byte	0x49c
 684:	9508                	.2byte	0x9508
 686:	0000                	.2byte	0x0
 688:	0200                	.2byte	0x200
 68a:	002a                	.2byte	0x2a
 68c:	0000                	.2byte	0x0
 68e:	049c                	.2byte	0x49c
 690:	9508                	.2byte	0x9508
 692:	0000                	.2byte	0x0
 694:	0200                	.2byte	0x200
 696:	00c5                	.2byte	0xc5
 698:	0000                	.2byte	0x0
 69a:	049c                	.2byte	0x49c
 69c:	9508                	.2byte	0x9508
 69e:	0000                	.2byte	0x0
 6a0:	0200                	.2byte	0x200
 6a2:	00c0                	.2byte	0xc0
 6a4:	0000                	.2byte	0x0
 6a6:	049c                	.2byte	0x49c
 6a8:	9508                	.2byte	0x9508
 6aa:	0000                	.2byte	0x0
 6ac:	0200                	.2byte	0x200
 6ae:	010c                	.2byte	0x10c
 6b0:	0000                	.2byte	0x0
 6b2:	049c                	.2byte	0x49c
 6b4:	9508                	.2byte	0x9508
 6b6:	0000                	.2byte	0x0
 6b8:	0200                	.2byte	0x200
 6ba:	00000107          	.4byte	0x107
 6be:	049c                	.2byte	0x49c
 6c0:	9508                	.2byte	0x9508
 6c2:	0000                	.2byte	0x0
 6c4:	0300                	.2byte	0x300
 6c6:	5f5f 006d 049c      	.byte	0x5f, 0x5f, 0x6d, 0x00, 0x9c, 0x04
 6cc:	9508                	.2byte	0x9508
 6ce:	0000                	.2byte	0x0
 6d0:	0000                	.2byte	0x0
 6d2:	3805                	.2byte	0x3805
 6d4:	02000007          	.4byte	0x2000007
 6d8:	0080                	.2byte	0x80
 6da:	0000                	.2byte	0x0
 6dc:	049d                	.2byte	0x49d
 6de:	9508                	.2byte	0x9508
 6e0:	0000                	.2byte	0x0
 6e2:	0200                	.2byte	0x200
 6e4:	0085                	.2byte	0x85
 6e6:	0000                	.2byte	0x0
 6e8:	049d                	.2byte	0x49d
 6ea:	9508                	.2byte	0x9508
 6ec:	0000                	.2byte	0x0
 6ee:	0200                	.2byte	0x200
 6f0:	008a                	.2byte	0x8a
 6f2:	0000                	.2byte	0x0
 6f4:	049d                	.2byte	0x49d
 6f6:	9508                	.2byte	0x9508
 6f8:	0000                	.2byte	0x0
 6fa:	0200                	.2byte	0x200
 6fc:	0000008f          	.4byte	0x8f
 700:	049d                	.2byte	0x49d
 702:	9508                	.2byte	0x9508
 704:	0000                	.2byte	0x0
 706:	0200                	.2byte	0x200
 708:	0116                	.2byte	0x116
 70a:	0000                	.2byte	0x0
 70c:	049d                	.2byte	0x49d
 70e:	9508                	.2byte	0x9508
 710:	0000                	.2byte	0x0
 712:	0200                	.2byte	0x200
 714:	0039                	.2byte	0x39
 716:	0000                	.2byte	0x0
 718:	049d                	.2byte	0x49d
 71a:	9508                	.2byte	0x9508
 71c:	0000                	.2byte	0x0
 71e:	0200                	.2byte	0x200
 720:	0111                	.2byte	0x111
 722:	0000                	.2byte	0x0
 724:	049d                	.2byte	0x49d
 726:	9508                	.2byte	0x9508
 728:	0000                	.2byte	0x0
 72a:	0200                	.2byte	0x200
 72c:	0034                	.2byte	0x34
 72e:	0000                	.2byte	0x0
 730:	049d                	.2byte	0x49d
 732:	9508                	.2byte	0x9508
 734:	0000                	.2byte	0x0
 736:	0000                	.2byte	0x0
 738:	4a05                	.2byte	0x4a05
 73a:	03000007          	.4byte	0x3000007
 73e:	5f5f 0078 04a2      	.byte	0x5f, 0x5f, 0x78, 0x00, 0xa2, 0x04
 744:	9505                	.2byte	0x9505
 746:	0000                	.2byte	0x0
 748:	0000                	.2byte	0x0
 74a:	0310                	.2byte	0x310
 74c:	5f5f 0078 04aa      	.byte	0x5f, 0x5f, 0x78, 0x00, 0xaa, 0x04
 752:	9505                	.2byte	0x9505
 754:	0000                	.2byte	0x0
 756:	0000                	.2byte	0x0
 758:	0000                	.2byte	0x0
 75a:	041f 00ab 0000      	.byte	0x1f, 0x04, 0xab, 0x00, 0x00, 0x00
	...

Disassembly of section .debug_abbrev:

00000000 <.debug_abbrev>:
   0:	3401                	.2byte	0x3401
   2:	3100                	.2byte	0x3100
   4:	00170213          	addi	tp,a4,1
   8:	0200                	.2byte	0x200
   a:	0034                	.2byte	0x34
   c:	213a0e03          	lb	t3,531(s4)
  10:	3b01                	.2byte	0x3b01
  12:	3905                	.2byte	0x3905
  14:	0013490b          	.4byte	0x13490b
  18:	0300                	.2byte	0x300
  1a:	0034                	.2byte	0x34
  1c:	213a0803          	lb	a6,531(s4)
  20:	3b01                	.2byte	0x3b01
  22:	3905                	.2byte	0x3905
  24:	0013490b          	.4byte	0x13490b
  28:	0400                	.2byte	0x400
  2a:	0024                	.2byte	0x24
  2c:	0b3e0b0b          	.4byte	0xb3e0b0b
  30:	00000e03          	lb	t3,0(zero) # 0 <exit-0x10094>
  34:	0b05                	.2byte	0xb05
  36:	0101                	.2byte	0x101
  38:	06000013          	li	zero,96
  3c:	0016                	.2byte	0x16
  3e:	213a0e03          	lb	t3,531(s4)
  42:	3b02                	.2byte	0x3b02
  44:	490b390b          	.4byte	0x490b390b
  48:	07000013          	li	zero,112
  4c:	1331010b          	.4byte	0x1331010b
  50:	1755                	.2byte	0x1755
  52:	1301                	.2byte	0x1301
  54:	0000                	.2byte	0x0
  56:	3408                	.2byte	0x3408
  58:	3100                	.2byte	0x3100
  5a:	09000013          	li	zero,144
  5e:	0026                	.2byte	0x26
  60:	1349                	.2byte	0x1349
  62:	0000                	.2byte	0x0
  64:	050a                	.2byte	0x50a
  66:	3100                	.2byte	0x3100
  68:	00170213          	addi	tp,a4,1
  6c:	0b00                	.2byte	0xb00
  6e:	0005                	.2byte	0x5
  70:	213a0803          	lb	a6,531(s4)
  74:	3b01                	.2byte	0x3b01
  76:	e321                	.2byte	0xe321
  78:	490b3907          	.4byte	0x490b3907
  7c:	0c000013          	li	zero,192
  80:	000d                	.2byte	0xd
  82:	213a0803          	lb	a6,531(s4)
  86:	3b02                	.2byte	0x3b02
  88:	3905                	.2byte	0x3905
  8a:	0013490b          	.4byte	0x13490b
  8e:	0d00                	.2byte	0xd00
  90:	0005                	.2byte	0x5
  92:	213a0803          	lb	a6,531(s4)
  96:	3b01                	.2byte	0x3b01
  98:	9221                	.2byte	0x9221
  9a:	390a                	.2byte	0x390a
  9c:	0213490b          	.4byte	0x213490b
  a0:	0e000017          	auipc	zero,0xe000
  a4:	1331010b          	.4byte	0x1331010b
  a8:	0111                	.2byte	0x111
  aa:	0612                	.2byte	0x612
  ac:	1301                	.2byte	0x1301
  ae:	0000                	.2byte	0x0
  b0:	31010b0f          	.4byte	0x31010b0f
  b4:	00175513          	srli	a0,a4,0x1
  b8:	1000                	.2byte	0x1000
  ba:	0000010b          	.4byte	0x10b
  be:	1111                	.2byte	0x1111
  c0:	2501                	.2byte	0x2501
  c2:	130e                	.2byte	0x130e
  c4:	1b1f030b          	.4byte	0x1b1f030b
  c8:	111f 1201 1006      	.byte	0x1f, 0x11, 0x01, 0x12, 0x06, 0x10
  ce:	12000017          	auipc	zero,0x12000
  d2:	0024                	.2byte	0x24
  d4:	0b3e0b0b          	.4byte	0xb3e0b0b
  d8:	00000803          	lb	a6,0(zero) # 0 <exit-0x10094>
  dc:	03011313          	slli	t1,sp,0x30
  e0:	0b0e                	.2byte	0xb0e
  e2:	3b0b3a0b          	.4byte	0x3b0b3a0b
  e6:	3905                	.2byte	0x3905
  e8:	0013010b          	.4byte	0x13010b
  ec:	1400                	.2byte	0x1400
  ee:	000d                	.2byte	0xd
  f0:	0b3a0803          	lb	a6,179(s4)
  f4:	0b39053b          	.4byte	0xb39053b
  f8:	1349                	.2byte	0x1349
  fa:	0b38                	.2byte	0xb38
  fc:	0000                	.2byte	0x0
  fe:	0d15                	.2byte	0xd15
 100:	0300                	.2byte	0x300
 102:	3a0e                	.2byte	0x3a0e
 104:	39053b0b          	.4byte	0x39053b0b
 108:	3813490b          	.4byte	0x3813490b
 10c:	1600000b          	.4byte	0x1600000b
 110:	0b0b0117          	auipc	sp,0xb0b0
 114:	0b3a                	.2byte	0xb3a
 116:	0b39053b          	.4byte	0xb39053b
 11a:	1301                	.2byte	0x1301
 11c:	0000                	.2byte	0x0
 11e:	03001617          	auipc	a2,0x3001
 122:	3a0e                	.2byte	0x3a0e
 124:	39053b0b          	.4byte	0x39053b0b
 128:	0013490b          	.4byte	0x13490b
 12c:	1800                	.2byte	0x1800
 12e:	0101                	.2byte	0x101
 130:	1349                	.2byte	0x1349
 132:	1301                	.2byte	0x1301
 134:	0000                	.2byte	0x0
 136:	2119                	.2byte	0x2119
 138:	4900                	.2byte	0x4900
 13a:	000b2f13          	slti	t5,s6,0
 13e:	1a00                	.2byte	0x1a00
 140:	0034                	.2byte	0x34
 142:	0b3a0e03          	lb	t3,179(s4)
 146:	0b39053b          	.4byte	0xb39053b
 14a:	1349                	.2byte	0x1349
 14c:	193c193f 2e1b0000 	.8byte	0x2e1b0000193c193f
 154:	3f01                	.2byte	0x3f01
 156:	0319                	.2byte	0x319
 158:	3a0e                	.2byte	0x3a0e
 15a:	39053b0b          	.4byte	0x39053b0b
 15e:	4919270b          	.4byte	0x4919270b
 162:	12011113          	.4byte	0x12011113
 166:	4006                	.2byte	0x4006
 168:	7a18                	.2byte	0x7a18
 16a:	0119                	.2byte	0x119
 16c:	1c000013          	li	zero,448
 170:	011d                	.2byte	0x11d
 172:	1331                	.2byte	0x1331
 174:	0152                	.2byte	0x152
 176:	1755                	.2byte	0x1755
 178:	0b58                	.2byte	0xb58
 17a:	0559                	.2byte	0x559
 17c:	00000b57          	.4byte	0xb57
 180:	0b1d                	.2byte	0xb1d
 182:	5501                	.2byte	0x5501
 184:	1e000017          	auipc	zero,0x1e000
 188:	012e                	.2byte	0x12e
 18a:	0b3a0e03          	lb	t3,179(s4)
 18e:	0b39053b          	.4byte	0xb39053b
 192:	13491927          	.4byte	0x13491927
 196:	0b20                	.2byte	0xb20
 198:	1301                	.2byte	0x1301
 19a:	0000                	.2byte	0x0
 19c:	0f1f 0b00 490b      	.byte	0x1f, 0x0f, 0x00, 0x0b, 0x0b, 0x49
 1a2:	00000013          	nop

Disassembly of section .debug_line:

00000000 <.debug_line>:
   0:	0000070f          	.4byte	0x70f
   4:	0005                	.2byte	0x5
   6:	0004                	.2byte	0x4
   8:	00000033          	add	zero,zero,zero
   c:	0101                	.2byte	0x101
   e:	fb01                	.2byte	0xfb01
  10:	0d0e                	.2byte	0xd0e
  12:	0100                	.2byte	0x100
  14:	0101                	.2byte	0x101
  16:	0001                	.2byte	0x1
  18:	0000                	.2byte	0x0
  1a:	0001                	.2byte	0x1
  1c:	0100                	.2byte	0x100
  1e:	0101                	.2byte	0x101
  20:	021f 0038 0000      	.byte	0x1f, 0x02, 0x38, 0x00, 0x00, 0x00
  26:	0000009b          	.4byte	0x9b
  2a:	0102                	.2byte	0x102
  2c:	021f 030f 002e      	.byte	0x1f, 0x02, 0x0f, 0x03, 0x2e, 0x00
  32:	0000                	.2byte	0x0
  34:	2e01                	.2byte	0x2e01
  36:	0000                	.2byte	0x0
  38:	0100                	.2byte	0x100
  3a:	00c9                	.2byte	0xc9
  3c:	0000                	.2byte	0x0
  3e:	0501                	.2byte	0x501
  40:	0001                	.2byte	0x1
  42:	0205                	.2byte	0x205
  44:	0000                	.2byte	0x0
  46:	0000                	.2byte	0x0
  48:	010a9203          	lh	tp,16(s5)
  4c:	0305                	.2byte	0x305
  4e:	00090103          	lb	sp,0(s2) # f000 <exit-0x1094>
  52:	0100                	.2byte	0x100
  54:	097dd103          	lhu	sp,151(s11)
  58:	0000                	.2byte	0x0
  5a:	0301                	.2byte	0x301
  5c:	0901                	.2byte	0x901
  5e:	0000                	.2byte	0x0
  60:	0301                	.2byte	0x301
  62:	0901                	.2byte	0x901
  64:	0000                	.2byte	0x0
  66:	0301                	.2byte	0x301
  68:	0901                	.2byte	0x901
  6a:	0000                	.2byte	0x0
  6c:	0301                	.2byte	0x301
  6e:	0901                	.2byte	0x901
  70:	0000                	.2byte	0x0
  72:	0301                	.2byte	0x301
  74:	0901                	.2byte	0x901
  76:	0000                	.2byte	0x0
  78:	0301                	.2byte	0x301
  7a:	0902                	.2byte	0x902
  7c:	0000                	.2byte	0x0
  7e:	0501                	.2byte	0x501
  80:	0601                	.2byte	0x601
  82:	0902a703          	lw	a4,144(t0) # 131e0 <_puts_r+0x60>
  86:	0000                	.2byte	0x0
  88:	0501                	.2byte	0x501
  8a:	0306                	.2byte	0x306
  8c:	7dd9                	.2byte	0x7dd9
  8e:	0009                	.2byte	0x9
  90:	0100                	.2byte	0x100
  92:	0305                	.2byte	0x305
  94:	0306                	.2byte	0x306
  96:	0901                	.2byte	0x901
  98:	0000                	.2byte	0x0
  9a:	0301                	.2byte	0x301
  9c:	0901                	.2byte	0x901
  9e:	0000                	.2byte	0x0
  a0:	0501                	.2byte	0x501
  a2:	0606                	.2byte	0x606
  a4:	00090003          	lb	zero,0(s2)
  a8:	0100                	.2byte	0x100
  aa:	0305                	.2byte	0x305
  ac:	0306                	.2byte	0x306
  ae:	0901                	.2byte	0x901
  b0:	0000                	.2byte	0x0
  b2:	0501                	.2byte	0x501
  b4:	0606                	.2byte	0x606
  b6:	00090003          	lb	zero,0(s2)
  ba:	0100                	.2byte	0x100
  bc:	0305                	.2byte	0x305
  be:	0306                	.2byte	0x306
  c0:	0925                	.2byte	0x925
  c2:	0000                	.2byte	0x0
  c4:	0501                	.2byte	0x501
  c6:	0606                	.2byte	0x606
  c8:	00090003          	lb	zero,0(s2)
  cc:	0100                	.2byte	0x100
  ce:	0705                	.2byte	0x705
  d0:	0306                	.2byte	0x306
  d2:	0902                	.2byte	0x902
  d4:	0000                	.2byte	0x0
  d6:	0501                	.2byte	0x501
  d8:	060a                	.2byte	0x60a
  da:	00090003          	lb	zero,0(s2)
  de:	0100                	.2byte	0x100
  e0:	0405                	.2byte	0x405
  e2:	0306                	.2byte	0x306
  e4:	0904                	.2byte	0x904
  e6:	0000                	.2byte	0x0
  e8:	0301                	.2byte	0x301
  ea:	0900                	.2byte	0x900
  ec:	0000                	.2byte	0x0
  ee:	0301                	.2byte	0x301
  f0:	0900                	.2byte	0x900
  f2:	0000                	.2byte	0x0
  f4:	0301                	.2byte	0x301
  f6:	0900                	.2byte	0x900
  f8:	0000                	.2byte	0x0
  fa:	0301                	.2byte	0x301
  fc:	0900                	.2byte	0x900
  fe:	0000                	.2byte	0x0
 100:	0301                	.2byte	0x301
 102:	0900                	.2byte	0x900
 104:	0000                	.2byte	0x0
 106:	0301                	.2byte	0x301
 108:	0900                	.2byte	0x900
 10a:	0000                	.2byte	0x0
 10c:	0301                	.2byte	0x301
 10e:	0902                	.2byte	0x902
 110:	0000                	.2byte	0x0
 112:	0501                	.2byte	0x501
 114:	00030607          	.4byte	0x30607
 118:	0009                	.2byte	0x9
 11a:	0100                	.2byte	0x100
 11c:	0805                	.2byte	0x805
 11e:	0306                	.2byte	0x306
 120:	0905                	.2byte	0x905
 122:	0000                	.2byte	0x0
 124:	0501                	.2byte	0x501
 126:	0611                	.2byte	0x611
 128:	00090103          	lb	sp,0(s2)
 12c:	0100                	.2byte	0x100
 12e:	1e05                	.2byte	0x1e05
 130:	00090003          	lb	zero,0(s2)
 134:	0100                	.2byte	0x100
 136:	0b05                	.2byte	0xb05
 138:	00097f03          	.4byte	0x97f03
 13c:	0100                	.2byte	0x100
 13e:	0805                	.2byte	0x805
 140:	0306                	.2byte	0x306
 142:	0901                	.2byte	0x901
 144:	0000                	.2byte	0x0
 146:	0501                	.2byte	0x501
 148:	0003060b          	.4byte	0x3060b
 14c:	0009                	.2byte	0x9
 14e:	0100                	.2byte	0x100
 150:	0805                	.2byte	0x805
 152:	0306                	.2byte	0x306
 154:	0901                	.2byte	0x901
 156:	0000                	.2byte	0x0
 158:	0501                	.2byte	0x501
 15a:	0003060b          	.4byte	0x3060b
 15e:	0009                	.2byte	0x9
 160:	0100                	.2byte	0x100
 162:	0405                	.2byte	0x405
 164:	0306                	.2byte	0x306
 166:	00000903          	lb	s2,0(zero) # 0 <exit-0x10094>
 16a:	0301                	.2byte	0x301
 16c:	0900                	.2byte	0x900
 16e:	0000                	.2byte	0x0
 170:	0301                	.2byte	0x301
 172:	0900                	.2byte	0x900
 174:	0000                	.2byte	0x0
 176:	0301                	.2byte	0x301
 178:	0900                	.2byte	0x900
 17a:	0000                	.2byte	0x0
 17c:	0301                	.2byte	0x301
 17e:	0900                	.2byte	0x900
 180:	0000                	.2byte	0x0
 182:	0301                	.2byte	0x301
 184:	0900                	.2byte	0x900
 186:	0000                	.2byte	0x0
 188:	0301                	.2byte	0x301
 18a:	0900                	.2byte	0x900
 18c:	0000                	.2byte	0x0
 18e:	0301                	.2byte	0x301
 190:	0900                	.2byte	0x900
 192:	0000                	.2byte	0x0
 194:	0301                	.2byte	0x301
 196:	0900                	.2byte	0x900
 198:	0000                	.2byte	0x0
 19a:	0301                	.2byte	0x301
 19c:	0900                	.2byte	0x900
 19e:	0000                	.2byte	0x0
 1a0:	0301                	.2byte	0x301
 1a2:	0900                	.2byte	0x900
 1a4:	0000                	.2byte	0x0
 1a6:	0301                	.2byte	0x301
 1a8:	0900                	.2byte	0x900
 1aa:	0000                	.2byte	0x0
 1ac:	0301                	.2byte	0x301
 1ae:	0900                	.2byte	0x900
 1b0:	0000                	.2byte	0x0
 1b2:	0301                	.2byte	0x301
 1b4:	0900                	.2byte	0x900
 1b6:	0000                	.2byte	0x0
 1b8:	0301                	.2byte	0x301
 1ba:	0900                	.2byte	0x900
 1bc:	0000                	.2byte	0x0
 1be:	0301                	.2byte	0x301
 1c0:	0900                	.2byte	0x900
 1c2:	0000                	.2byte	0x0
 1c4:	0301                	.2byte	0x301
 1c6:	0900                	.2byte	0x900
 1c8:	0000                	.2byte	0x0
 1ca:	0301                	.2byte	0x301
 1cc:	0900                	.2byte	0x900
 1ce:	0000                	.2byte	0x0
 1d0:	0301                	.2byte	0x301
 1d2:	0900                	.2byte	0x900
 1d4:	0000                	.2byte	0x0
 1d6:	0301                	.2byte	0x301
 1d8:	0900                	.2byte	0x900
 1da:	0000                	.2byte	0x0
 1dc:	0301                	.2byte	0x301
 1de:	0900                	.2byte	0x900
 1e0:	0000                	.2byte	0x0
 1e2:	0301                	.2byte	0x301
 1e4:	0900                	.2byte	0x900
 1e6:	0000                	.2byte	0x0
 1e8:	0301                	.2byte	0x301
 1ea:	0900                	.2byte	0x900
 1ec:	0000                	.2byte	0x0
 1ee:	0301                	.2byte	0x301
 1f0:	0900                	.2byte	0x900
 1f2:	0000                	.2byte	0x0
 1f4:	0301                	.2byte	0x301
 1f6:	0900                	.2byte	0x900
 1f8:	0000                	.2byte	0x0
 1fa:	0301                	.2byte	0x301
 1fc:	0900                	.2byte	0x900
 1fe:	0000                	.2byte	0x0
 200:	0301                	.2byte	0x301
 202:	0900                	.2byte	0x900
 204:	0000                	.2byte	0x0
 206:	0301                	.2byte	0x301
 208:	0901                	.2byte	0x901
 20a:	0000                	.2byte	0x0
 20c:	0501                	.2byte	0x501
 20e:	fe03060b          	.4byte	0xfe03060b
 212:	0900                	.2byte	0x900
 214:	0000                	.2byte	0x0
 216:	0501                	.2byte	0x501
 218:	0e030603          	lb	a2,224(t1)
 21c:	0009                	.2byte	0x9
 21e:	0100                	.2byte	0x100
 220:	00090103          	lb	sp,0(s2)
 224:	0100                	.2byte	0x100
 226:	0105                	.2byte	0x105
 228:	0306                	.2byte	0x306
 22a:	00e1                	.2byte	0xe1
 22c:	0009                	.2byte	0x9
 22e:	0100                	.2byte	0x100
 230:	0405                	.2byte	0x405
 232:	097e8503          	lb	a0,151(t4)
 236:	0000                	.2byte	0x0
 238:	0601                	.2byte	0x601
 23a:	00091503          	lh	a0,0(s2)
 23e:	0100                	.2byte	0x100
 240:	0306                	.2byte	0x306
 242:	00000903          	lb	s2,0(zero) # 0 <exit-0x10094>
 246:	0501                	.2byte	0x501
 248:	097d0307          	.4byte	0x97d0307
 24c:	0000                	.2byte	0x0
 24e:	0501                	.2byte	0x501
 250:	0604                	.2byte	0x604
 252:	00090303          	lb	t1,0(s2)
 256:	0100                	.2byte	0x100
 258:	00090003          	lb	zero,0(s2)
 25c:	0100                	.2byte	0x100
 25e:	00090003          	lb	zero,0(s2)
 262:	0100                	.2byte	0x100
 264:	00090003          	lb	zero,0(s2)
 268:	0100                	.2byte	0x100
 26a:	00090003          	lb	zero,0(s2)
 26e:	0100                	.2byte	0x100
 270:	00090003          	lb	zero,0(s2)
 274:	0100                	.2byte	0x100
 276:	00090003          	lb	zero,0(s2)
 27a:	0100                	.2byte	0x100
 27c:	00090203          	lb	tp,0(s2)
 280:	0100                	.2byte	0x100
 282:	0705                	.2byte	0x705
 284:	0306                	.2byte	0x306
 286:	0900                	.2byte	0x900
 288:	0000                	.2byte	0x0
 28a:	0501                	.2byte	0x501
 28c:	0608                	.2byte	0x608
 28e:	00090903          	lb	s2,0(s2)
 292:	0100                	.2byte	0x100
 294:	0b05                	.2byte	0xb05
 296:	0306                	.2byte	0x306
 298:	0900                	.2byte	0x900
 29a:	0000                	.2byte	0x0
 29c:	0501                	.2byte	0x501
 29e:	0608                	.2byte	0x608
 2a0:	00090103          	lb	sp,0(s2)
 2a4:	0100                	.2byte	0x100
 2a6:	0b05                	.2byte	0xb05
 2a8:	0306                	.2byte	0x306
 2aa:	0900                	.2byte	0x900
 2ac:	0000                	.2byte	0x0
 2ae:	0501                	.2byte	0x501
 2b0:	0608                	.2byte	0x608
 2b2:	00090d03          	lb	s10,0(s2)
 2b6:	0100                	.2byte	0x100
 2b8:	0405                	.2byte	0x405
 2ba:	00090503          	lb	a0,0(s2)
 2be:	0100                	.2byte	0x100
 2c0:	00090003          	lb	zero,0(s2)
 2c4:	0100                	.2byte	0x100
 2c6:	00090003          	lb	zero,0(s2)
 2ca:	0100                	.2byte	0x100
 2cc:	00090003          	lb	zero,0(s2)
 2d0:	0100                	.2byte	0x100
 2d2:	00090003          	lb	zero,0(s2)
 2d6:	0100                	.2byte	0x100
 2d8:	00090003          	lb	zero,0(s2)
 2dc:	0100                	.2byte	0x100
 2de:	00090003          	lb	zero,0(s2)
 2e2:	0100                	.2byte	0x100
 2e4:	00090003          	lb	zero,0(s2)
 2e8:	0100                	.2byte	0x100
 2ea:	00090003          	lb	zero,0(s2)
 2ee:	0100                	.2byte	0x100
 2f0:	00090003          	lb	zero,0(s2)
 2f4:	0100                	.2byte	0x100
 2f6:	00090003          	lb	zero,0(s2)
 2fa:	0100                	.2byte	0x100
 2fc:	00090003          	lb	zero,0(s2)
 300:	0100                	.2byte	0x100
 302:	00090003          	lb	zero,0(s2)
 306:	0100                	.2byte	0x100
 308:	00090003          	lb	zero,0(s2)
 30c:	0100                	.2byte	0x100
 30e:	00090003          	lb	zero,0(s2)
 312:	0100                	.2byte	0x100
 314:	00090003          	lb	zero,0(s2)
 318:	0100                	.2byte	0x100
 31a:	00090003          	lb	zero,0(s2)
 31e:	0100                	.2byte	0x100
 320:	00090003          	lb	zero,0(s2)
 324:	0100                	.2byte	0x100
 326:	00090003          	lb	zero,0(s2)
 32a:	0100                	.2byte	0x100
 32c:	00090003          	lb	zero,0(s2)
 330:	0100                	.2byte	0x100
 332:	00090003          	lb	zero,0(s2)
 336:	0100                	.2byte	0x100
 338:	00090003          	lb	zero,0(s2)
 33c:	0100                	.2byte	0x100
 33e:	00090003          	lb	zero,0(s2)
 342:	0100                	.2byte	0x100
 344:	00090003          	lb	zero,0(s2)
 348:	0100                	.2byte	0x100
 34a:	00090003          	lb	zero,0(s2)
 34e:	0100                	.2byte	0x100
 350:	00090003          	lb	zero,0(s2)
 354:	0100                	.2byte	0x100
 356:	0306                	.2byte	0x306
 358:	0962                	.2byte	0x962
 35a:	0000                	.2byte	0x0
 35c:	0501                	.2byte	0x501
 35e:	0608                	.2byte	0x608
 360:	00091203          	lh	tp,0(s2)
 364:	0100                	.2byte	0x100
 366:	00090203          	lb	tp,0(s2)
 36a:	0100                	.2byte	0x100
 36c:	0b05                	.2byte	0xb05
 36e:	0306                	.2byte	0x306
 370:	0900                	.2byte	0x900
 372:	0000                	.2byte	0x0
 374:	0501                	.2byte	0x501
 376:	0608                	.2byte	0x608
 378:	00090103          	lb	sp,0(s2)
 37c:	0100                	.2byte	0x100
 37e:	0b05                	.2byte	0xb05
 380:	0306                	.2byte	0x306
 382:	0900                	.2byte	0x900
 384:	0000                	.2byte	0x0
 386:	0501                	.2byte	0x501
 388:	0608                	.2byte	0x608
 38a:	00090103          	lb	sp,0(s2)
 38e:	0100                	.2byte	0x100
 390:	0306                	.2byte	0x306
 392:	00000903          	lb	s2,0(zero) # 0 <exit-0x10094>
 396:	0501                	.2byte	0x501
 398:	0311                	.2byte	0x311
 39a:	097d                	.2byte	0x97d
 39c:	0000                	.2byte	0x0
 39e:	0501                	.2byte	0x501
 3a0:	031e                	.2byte	0x31e
 3a2:	0900                	.2byte	0x900
 3a4:	0000                	.2byte	0x0
 3a6:	0501                	.2byte	0x501
 3a8:	0900030b          	.4byte	0x900030b
 3ac:	0000                	.2byte	0x0
 3ae:	0501                	.2byte	0x501
 3b0:	0608                	.2byte	0x608
 3b2:	00090103          	lb	sp,0(s2)
 3b6:	0100                	.2byte	0x100
 3b8:	0306                	.2byte	0x306
 3ba:	0902                	.2byte	0x902
 3bc:	0000                	.2byte	0x0
 3be:	0501                	.2byte	0x501
 3c0:	097e030b          	.4byte	0x97e030b
 3c4:	0000                	.2byte	0x0
 3c6:	0501                	.2byte	0x501
 3c8:	0608                	.2byte	0x608
 3ca:	00090203          	lb	tp,0(s2)
 3ce:	0100                	.2byte	0x100
 3d0:	00090003          	lb	zero,0(s2)
 3d4:	0100                	.2byte	0x100
 3d6:	00090003          	lb	zero,0(s2)
 3da:	0100                	.2byte	0x100
 3dc:	00090003          	lb	zero,0(s2)
 3e0:	0100                	.2byte	0x100
 3e2:	00090003          	lb	zero,0(s2)
 3e6:	0100                	.2byte	0x100
 3e8:	00090003          	lb	zero,0(s2)
 3ec:	0100                	.2byte	0x100
 3ee:	00090003          	lb	zero,0(s2)
 3f2:	0100                	.2byte	0x100
 3f4:	00090003          	lb	zero,0(s2)
 3f8:	0100                	.2byte	0x100
 3fa:	00090003          	lb	zero,0(s2)
 3fe:	0100                	.2byte	0x100
 400:	00090003          	lb	zero,0(s2)
 404:	0100                	.2byte	0x100
 406:	00090003          	lb	zero,0(s2)
 40a:	0100                	.2byte	0x100
 40c:	00090003          	lb	zero,0(s2)
 410:	0100                	.2byte	0x100
 412:	00090003          	lb	zero,0(s2)
 416:	0100                	.2byte	0x100
 418:	00090003          	lb	zero,0(s2)
 41c:	0100                	.2byte	0x100
 41e:	00090003          	lb	zero,0(s2)
 422:	0100                	.2byte	0x100
 424:	00090003          	lb	zero,0(s2)
 428:	0100                	.2byte	0x100
 42a:	00090003          	lb	zero,0(s2)
 42e:	0100                	.2byte	0x100
 430:	00090003          	lb	zero,0(s2)
 434:	0100                	.2byte	0x100
 436:	00090003          	lb	zero,0(s2)
 43a:	0100                	.2byte	0x100
 43c:	00090003          	lb	zero,0(s2)
 440:	0100                	.2byte	0x100
 442:	00090003          	lb	zero,0(s2)
 446:	0100                	.2byte	0x100
 448:	00090003          	lb	zero,0(s2)
 44c:	0100                	.2byte	0x100
 44e:	00090003          	lb	zero,0(s2)
 452:	0100                	.2byte	0x100
 454:	00090003          	lb	zero,0(s2)
 458:	0100                	.2byte	0x100
 45a:	00090003          	lb	zero,0(s2)
 45e:	0100                	.2byte	0x100
 460:	00090003          	lb	zero,0(s2)
 464:	0100                	.2byte	0x100
 466:	00090003          	lb	zero,0(s2)
 46a:	0100                	.2byte	0x100
 46c:	0705                	.2byte	0x705
 46e:	00091503          	lh	a0,0(s2)
 472:	0100                	.2byte	0x100
 474:	0a05                	.2byte	0xa05
 476:	0306                	.2byte	0x306
 478:	0900                	.2byte	0x900
 47a:	0000                	.2byte	0x0
 47c:	0501                	.2byte	0x501
 47e:	0604                	.2byte	0x604
 480:	00091303          	lh	t1,0(s2)
 484:	0100                	.2byte	0x100
 486:	00090003          	lb	zero,0(s2)
 48a:	0100                	.2byte	0x100
 48c:	00090003          	lb	zero,0(s2)
 490:	0100                	.2byte	0x100
 492:	00090003          	lb	zero,0(s2)
 496:	0100                	.2byte	0x100
 498:	00090003          	lb	zero,0(s2)
 49c:	0100                	.2byte	0x100
 49e:	00090003          	lb	zero,0(s2)
 4a2:	0100                	.2byte	0x100
 4a4:	00090003          	lb	zero,0(s2)
 4a8:	0100                	.2byte	0x100
 4aa:	00090103          	lb	sp,0(s2)
 4ae:	0100                	.2byte	0x100
 4b0:	0705                	.2byte	0x705
 4b2:	0306                	.2byte	0x306
 4b4:	0900                	.2byte	0x900
 4b6:	0000                	.2byte	0x0
 4b8:	0501                	.2byte	0x501
 4ba:	0608                	.2byte	0x608
 4bc:	00090a03          	lb	s4,0(s2)
 4c0:	0100                	.2byte	0x100
 4c2:	0306                	.2byte	0x306
 4c4:	0902                	.2byte	0x902
 4c6:	0000                	.2byte	0x0
 4c8:	0501                	.2byte	0x501
 4ca:	097e030b          	.4byte	0x97e030b
 4ce:	0000                	.2byte	0x0
 4d0:	0501                	.2byte	0x501
 4d2:	0314                	.2byte	0x314
 4d4:	0900                	.2byte	0x900
 4d6:	0000                	.2byte	0x0
 4d8:	0501                	.2byte	0x501
 4da:	0304                	.2byte	0x304
 4dc:	0975                	.2byte	0x975
 4de:	0000                	.2byte	0x0
 4e0:	0501                	.2byte	0x501
 4e2:	0608                	.2byte	0x608
 4e4:	00091e03          	lh	t3,0(s2)
 4e8:	0100                	.2byte	0x100
 4ea:	00090303          	lb	t1,0(s2)
 4ee:	0100                	.2byte	0x100
 4f0:	00090203          	lb	tp,0(s2)
 4f4:	0100                	.2byte	0x100
 4f6:	1e05                	.2byte	0x1e05
 4f8:	0306                	.2byte	0x306
 4fa:	0900                	.2byte	0x900
 4fc:	0000                	.2byte	0x0
 4fe:	0501                	.2byte	0x501
 500:	0311                	.2byte	0x311
 502:	0900                	.2byte	0x900
 504:	0000                	.2byte	0x0
 506:	0501                	.2byte	0x501
 508:	0900030b          	.4byte	0x900030b
 50c:	0000                	.2byte	0x0
 50e:	0501                	.2byte	0x501
 510:	0608                	.2byte	0x608
 512:	00090103          	lb	sp,0(s2)
 516:	0100                	.2byte	0x100
 518:	0b05                	.2byte	0xb05
 51a:	0306                	.2byte	0x306
 51c:	0901                	.2byte	0x901
 51e:	0000                	.2byte	0x0
 520:	0501                	.2byte	0x501
 522:	0311                	.2byte	0x311
 524:	0901                	.2byte	0x901
 526:	0000                	.2byte	0x0
 528:	0501                	.2byte	0x501
 52a:	031e                	.2byte	0x31e
 52c:	0900                	.2byte	0x900
 52e:	0000                	.2byte	0x0
 530:	0501                	.2byte	0x501
 532:	0900030b          	.4byte	0x900030b
 536:	0000                	.2byte	0x0
 538:	0501                	.2byte	0x501
 53a:	0308                	.2byte	0x308
 53c:	00000903          	lb	s2,0(zero) # 0 <exit-0x10094>
 540:	0501                	.2byte	0x501
 542:	097b030b          	.4byte	0x97b030b
 546:	0000                	.2byte	0x0
 548:	0501                	.2byte	0x501
 54a:	0608                	.2byte	0x608
 54c:	00090103          	lb	sp,0(s2)
 550:	0100                	.2byte	0x100
 552:	00090103          	lb	sp,0(s2)
 556:	0100                	.2byte	0x100
 558:	00090103          	lb	sp,0(s2)
 55c:	0100                	.2byte	0x100
 55e:	00090203          	lb	tp,0(s2)
 562:	0100                	.2byte	0x100
 564:	00090003          	lb	zero,0(s2)
 568:	0100                	.2byte	0x100
 56a:	00090003          	lb	zero,0(s2)
 56e:	0100                	.2byte	0x100
 570:	00090003          	lb	zero,0(s2)
 574:	0100                	.2byte	0x100
 576:	00090003          	lb	zero,0(s2)
 57a:	0100                	.2byte	0x100
 57c:	00090003          	lb	zero,0(s2)
 580:	0100                	.2byte	0x100
 582:	00090003          	lb	zero,0(s2)
 586:	0100                	.2byte	0x100
 588:	00090003          	lb	zero,0(s2)
 58c:	0100                	.2byte	0x100
 58e:	00090003          	lb	zero,0(s2)
 592:	0100                	.2byte	0x100
 594:	00090003          	lb	zero,0(s2)
 598:	0100                	.2byte	0x100
 59a:	00090003          	lb	zero,0(s2)
 59e:	0100                	.2byte	0x100
 5a0:	00090003          	lb	zero,0(s2)
 5a4:	0100                	.2byte	0x100
 5a6:	00090003          	lb	zero,0(s2)
 5aa:	0100                	.2byte	0x100
 5ac:	00090003          	lb	zero,0(s2)
 5b0:	0100                	.2byte	0x100
 5b2:	00090003          	lb	zero,0(s2)
 5b6:	0100                	.2byte	0x100
 5b8:	00090003          	lb	zero,0(s2)
 5bc:	0100                	.2byte	0x100
 5be:	00090003          	lb	zero,0(s2)
 5c2:	0100                	.2byte	0x100
 5c4:	00090003          	lb	zero,0(s2)
 5c8:	0100                	.2byte	0x100
 5ca:	00090003          	lb	zero,0(s2)
 5ce:	0100                	.2byte	0x100
 5d0:	00090003          	lb	zero,0(s2)
 5d4:	0100                	.2byte	0x100
 5d6:	00090003          	lb	zero,0(s2)
 5da:	0100                	.2byte	0x100
 5dc:	00090003          	lb	zero,0(s2)
 5e0:	0100                	.2byte	0x100
 5e2:	00090003          	lb	zero,0(s2)
 5e6:	0100                	.2byte	0x100
 5e8:	00090003          	lb	zero,0(s2)
 5ec:	0100                	.2byte	0x100
 5ee:	00090003          	lb	zero,0(s2)
 5f2:	0100                	.2byte	0x100
 5f4:	0306                	.2byte	0x306
 5f6:	0901                	.2byte	0x901
 5f8:	0000                	.2byte	0x0
 5fa:	0301                	.2byte	0x301
 5fc:	097f                	.2byte	0x97f
 5fe:	0000                	.2byte	0x0
 600:	0301                	.2byte	0x301
 602:	0901                	.2byte	0x901
 604:	0000                	.2byte	0x0
 606:	0301                	.2byte	0x301
 608:	097f                	.2byte	0x97f
 60a:	0000                	.2byte	0x0
 60c:	0601                	.2byte	0x601
 60e:	00090003          	lb	zero,0(s2)
 612:	0100                	.2byte	0x100
 614:	00090003          	lb	zero,0(s2)
 618:	0100                	.2byte	0x100
 61a:	00090003          	lb	zero,0(s2)
 61e:	0100                	.2byte	0x100
 620:	00090103          	lb	sp,0(s2)
 624:	0100                	.2byte	0x100
 626:	00090003          	lb	zero,0(s2)
 62a:	0100                	.2byte	0x100
 62c:	00090003          	lb	zero,0(s2)
 630:	0100                	.2byte	0x100
 632:	00090003          	lb	zero,0(s2)
 636:	0100                	.2byte	0x100
 638:	00090003          	lb	zero,0(s2)
 63c:	0100                	.2byte	0x100
 63e:	00090003          	lb	zero,0(s2)
 642:	0100                	.2byte	0x100
 644:	00090003          	lb	zero,0(s2)
 648:	0100                	.2byte	0x100
 64a:	00090003          	lb	zero,0(s2)
 64e:	0100                	.2byte	0x100
 650:	00090003          	lb	zero,0(s2)
 654:	0100                	.2byte	0x100
 656:	00090003          	lb	zero,0(s2)
 65a:	0100                	.2byte	0x100
 65c:	00090003          	lb	zero,0(s2)
 660:	0100                	.2byte	0x100
 662:	00090003          	lb	zero,0(s2)
 666:	0100                	.2byte	0x100
 668:	00090003          	lb	zero,0(s2)
 66c:	0100                	.2byte	0x100
 66e:	00090003          	lb	zero,0(s2)
 672:	0100                	.2byte	0x100
 674:	00090003          	lb	zero,0(s2)
 678:	0100                	.2byte	0x100
 67a:	00090003          	lb	zero,0(s2)
 67e:	0100                	.2byte	0x100
 680:	00090003          	lb	zero,0(s2)
 684:	0100                	.2byte	0x100
 686:	00090003          	lb	zero,0(s2)
 68a:	0100                	.2byte	0x100
 68c:	00090203          	lb	tp,0(s2)
 690:	0100                	.2byte	0x100
 692:	0b05                	.2byte	0xb05
 694:	0306                	.2byte	0x306
 696:	0900                	.2byte	0x900
 698:	0000                	.2byte	0x0
 69a:	0501                	.2byte	0x501
 69c:	0314                	.2byte	0x314
 69e:	0900                	.2byte	0x900
 6a0:	0000                	.2byte	0x0
 6a2:	0501                	.2byte	0x501
 6a4:	0308                	.2byte	0x308
 6a6:	097e                	.2byte	0x97e
 6a8:	0000                	.2byte	0x0
 6aa:	0501                	.2byte	0x501
 6ac:	097d030b          	.4byte	0x97d030b
 6b0:	0000                	.2byte	0x0
 6b2:	0501                	.2byte	0x501
 6b4:	0308                	.2byte	0x308
 6b6:	00000903          	lb	s2,0(zero) # 0 <exit-0x10094>
 6ba:	0501                	.2byte	0x501
 6bc:	0908030b          	.4byte	0x908030b
 6c0:	0000                	.2byte	0x0
 6c2:	0501                	.2byte	0x501
 6c4:	0321                	.2byte	0x321
 6c6:	097a                	.2byte	0x97a
 6c8:	0000                	.2byte	0x0
 6ca:	0501                	.2byte	0x501
 6cc:	0605                	.2byte	0x605
 6ce:	00090203          	lb	tp,0(s2)
 6d2:	0100                	.2byte	0x100
 6d4:	0705                	.2byte	0x705
 6d6:	0306                	.2byte	0x306
 6d8:	0900                	.2byte	0x900
 6da:	0000                	.2byte	0x0
 6dc:	0501                	.2byte	0x501
 6de:	0605                	.2byte	0x605
 6e0:	00090103          	lb	sp,0(s2)
 6e4:	0100                	.2byte	0x100
 6e6:	00090003          	lb	zero,0(s2)
 6ea:	0100                	.2byte	0x100
 6ec:	00090003          	lb	zero,0(s2)
 6f0:	0100                	.2byte	0x100
 6f2:	00090003          	lb	zero,0(s2)
 6f6:	0100                	.2byte	0x100
 6f8:	00090003          	lb	zero,0(s2)
 6fc:	0100                	.2byte	0x100
 6fe:	0705                	.2byte	0x705
 700:	0306                	.2byte	0x306
 702:	00000943          	.4byte	0x943
 706:	0301                	.2byte	0x301
 708:	097f                	.2byte	0x97f
 70a:	0000                	.2byte	0x0
 70c:	0901                	.2byte	0x901
 70e:	0000                	.2byte	0x0
 710:	0100                	.2byte	0x100
 712:	01              	Address 0x0000000000000712 is out of bounds.


Disassembly of section .debug_str:

00000000 <.debug_str>:
   0:	5744                	.2byte	0x5744
   2:	6e75                	.2byte	0x6e75
   4:	6f69                	.2byte	0x6f69
   6:	006e                	.2byte	0x6e
   8:	5f5f 6475 7669      	.byte	0x5f, 0x5f, 0x75, 0x64, 0x69, 0x76
   e:	6964                	.2byte	0x6964
  10:	6f630033          	.4byte	0x6f630033
  14:	706d                	.2byte	0x706d
  16:	656c                	.2byte	0x656c
  18:	2078                	.2byte	0x2078
  1a:	6c66                	.2byte	0x6c66
  1c:	0074616f          	jal	sp,46822 <__BSS_END__+0x2b1a2>
  20:	726f6873          	csrrsi	a6,mhpmevent6h,30
  24:	2074                	.2byte	0x2074
  26:	6e69                	.2byte	0x6e69
  28:	0074                	.2byte	0x74
  2a:	5f5f 3064 5f00      	.byte	0x5f, 0x5f, 0x64, 0x30, 0x00, 0x5f
  30:	645f 0031 5f5f      	.byte	0x5f, 0x64, 0x31, 0x00, 0x5f, 0x5f
  36:	6876                	.2byte	0x6876
  38:	5f00                	.2byte	0x5f00
  3a:	765f 006c 6f6c      	.byte	0x5f, 0x76, 0x6c, 0x00, 0x6c, 0x6f
  40:	676e                	.2byte	0x676e
  42:	6c20                	.2byte	0x6c20
  44:	20676e6f          	jal	t3,7624a <__BSS_END__+0x5abca>
  48:	6e69                	.2byte	0x6e69
  4a:	0074                	.2byte	0x74
  4c:	6f6c                	.2byte	0x6f6c
  4e:	676e                	.2byte	0x676e
  50:	6c20                	.2byte	0x6c20
  52:	20676e6f          	jal	t3,76258 <__BSS_END__+0x5abd8>
  56:	6e75                	.2byte	0x6e75
  58:	6e676973          	csrrsi	s2,0x6e6,14
  5c:	6465                	.2byte	0x6465
  5e:	6920                	.2byte	0x6920
  60:	746e                	.2byte	0x746e
  62:	6800                	.2byte	0x6800
  64:	6769                	.2byte	0x6769
  66:	0068                	.2byte	0x68
  68:	5f5f 6c63 5f7a      	.byte	0x5f, 0x5f, 0x63, 0x6c, 0x7a, 0x5f
  6e:	6174                	.2byte	0x6174
  70:	0062                	.2byte	0x62
  72:	6e75                	.2byte	0x6e75
  74:	6e676973          	csrrsi	s2,0x6e6,14
  78:	6465                	.2byte	0x6465
  7a:	6320                	.2byte	0x6320
  7c:	6168                	.2byte	0x6168
  7e:	0072                	.2byte	0x72
  80:	5f5f 3078 5f00      	.byte	0x5f, 0x5f, 0x78, 0x30, 0x00, 0x5f
  86:	785f 0031 5f5f      	.byte	0x5f, 0x78, 0x31, 0x00, 0x5f, 0x5f
  8c:	3278                	.2byte	0x3278
  8e:	5f00                	.2byte	0x5f00
  90:	785f 0033 5155      	.byte	0x5f, 0x78, 0x33, 0x00, 0x55, 0x51
  96:	7449                	.2byte	0x7449
  98:	7079                	.2byte	0x7079
  9a:	0065                	.2byte	0x65
  9c:	5744                	.2byte	0x5744
  9e:	75727473          	csrrci	s0,0x757,4
  a2:	73007463          	bgeu	zero,a6,7ca <exit-0xf8ca>
  a6:	6f68                	.2byte	0x6f68
  a8:	7472                	.2byte	0x7472
  aa:	7520                	.2byte	0x7520
  ac:	736e                	.2byte	0x736e
  ae:	6769                	.2byte	0x6769
  b0:	656e                	.2byte	0x656e
  b2:	2064                	.2byte	0x2064
  b4:	6e69                	.2byte	0x6e69
  b6:	0074                	.2byte	0x74
  b8:	4455                	.2byte	0x4455
  ba:	7449                	.2byte	0x7449
  bc:	7079                	.2byte	0x7079
  be:	0065                	.2byte	0x65
  c0:	5f5f 3071 5f00      	.byte	0x5f, 0x5f, 0x71, 0x30, 0x00, 0x5f
  c6:	715f 0031 6f63      	.byte	0x5f, 0x71, 0x31, 0x00, 0x63, 0x6f
  cc:	706d                	.2byte	0x706d
  ce:	656c                	.2byte	0x656c
  d0:	2078                	.2byte	0x2078
  d2:	6f64                	.2byte	0x6f64
  d4:	6275                	.2byte	0x6275
  d6:	656c                	.2byte	0x656c
  d8:	5f00                	.2byte	0x5f00
  da:	785f 0072 5f5f      	.byte	0x5f, 0x78, 0x72, 0x00, 0x5f, 0x5f
  e0:	6475                	.2byte	0x6475
  e2:	7669                	.2byte	0x7669
  e4:	6f6d                	.2byte	0x6f6d
  e6:	6464                	.2byte	0x6464
  e8:	3469                	.2byte	0x3469
  ea:	6300                	.2byte	0x6300
  ec:	6c706d6f          	jal	s10,6fb2 <exit-0x90e2>
  f0:	7865                	.2byte	0x7865
  f2:	6c20                	.2byte	0x6c20
  f4:	20676e6f          	jal	t3,762fa <__BSS_END__+0x5ac7a>
  f8:	6f64                	.2byte	0x6f64
  fa:	6275                	.2byte	0x6275
  fc:	656c                	.2byte	0x656c
  fe:	5500                	.2byte	0x5500
 100:	79744953          	.4byte	0x79744953
 104:	6570                	.2byte	0x6570
 106:	5f00                	.2byte	0x5f00
 108:	725f 0030 5f5f      	.byte	0x5f, 0x72, 0x30, 0x00, 0x5f, 0x5f
 10e:	3172                	.2byte	0x3172
 110:	5f00                	.2byte	0x5f00
 112:	755f 0068 5f5f      	.byte	0x5f, 0x75, 0x68, 0x00, 0x5f, 0x5f
 118:	6c75                	.2byte	0x6c75
 11a:	4700                	.2byte	0x4700
 11c:	554e                	.2byte	0x554e
 11e:	4320                	.2byte	0x4320
 120:	3731                	.2byte	0x3731
 122:	3120                	.2byte	0x3120
 124:	2e32                	.2byte	0x2e32
 126:	2e31                	.2byte	0x2e31
 128:	2030                	.2byte	0x2030
 12a:	6d2d                	.2byte	0x6d2d
 12c:	646f6d63          	bltu	t5,t1,786 <exit-0xf90e>
 130:	6c65                	.2byte	0x6c65
 132:	6d3d                	.2byte	0x6d3d
 134:	6465                	.2byte	0x6465
 136:	6f6c                	.2byte	0x6f6c
 138:	6d2d2077          	.4byte	0x6d2d2077
 13c:	6261                	.2byte	0x6261
 13e:	3d69                	.2byte	0x3d69
 140:	6c69                	.2byte	0x6c69
 142:	3370                	.2byte	0x3370
 144:	2032                	.2byte	0x2032
 146:	6d2d                	.2byte	0x6d2d
 148:	646f6d63          	bltu	t5,t1,7a2 <exit-0xf8f2>
 14c:	6c65                	.2byte	0x6c65
 14e:	6d3d                	.2byte	0x6d3d
 150:	6465                	.2byte	0x6465
 152:	6f6c                	.2byte	0x6f6c
 154:	6d2d2077          	.4byte	0x6d2d2077
 158:	7574                	.2byte	0x7574
 15a:	656e                	.2byte	0x656e
 15c:	723d                	.2byte	0x723d
 15e:	656b636f          	jal	t1,b67b4 <__BSS_END__+0x9b134>
 162:	2074                	.2byte	0x2074
 164:	6d2d                	.2byte	0x6d2d
 166:	7369                	.2byte	0x7369
 168:	2d61                	.2byte	0x2d61
 16a:	63657073          	csrci	0x636,10
 16e:	323d                	.2byte	0x323d
 170:	322e                	.2byte	0x322e
 172:	2d20                	.2byte	0x2d20
 174:	616d                	.2byte	0x616d
 176:	6372                	.2byte	0x6372
 178:	3d68                	.2byte	0x3d68
 17a:	7672                	.2byte	0x7672
 17c:	6d693233          	.4byte	0x6d693233
 180:	2d20                	.2byte	0x2d20
 182:	4f2d2067          	.4byte	0x4f2d2067
 186:	4f2d2073          	csrs	0x4f2,s10
 18a:	2032                	.2byte	0x2032
 18c:	4f2d                	.2byte	0x4f2d
 18e:	662d2073          	csrs	0x662,s10
 192:	7562                	.2byte	0x7562
 194:	6c69                	.2byte	0x6c69
 196:	6964                	.2byte	0x6964
 198:	676e                	.2byte	0x676e
 19a:	6c2d                	.2byte	0x6c2d
 19c:	6269                	.2byte	0x6269
 19e:	20636367          	.4byte	0x20636367
 1a2:	662d                	.2byte	0x662d
 1a4:	6f6e                	.2byte	0x6f6e
 1a6:	732d                	.2byte	0x732d
 1a8:	6174                	.2byte	0x6174
 1aa:	702d6b63          	bltu	s10,sp,8c0 <exit-0xf7d4>
 1ae:	6f72                	.2byte	0x6f72
 1b0:	6574                	.2byte	0x6574
 1b2:	726f7463          	bgeu	t5,t1,8da <exit-0xf7ba>
 1b6:	2d20                	.2byte	0x2d20
 1b8:	6166                	.2byte	0x6166
 1ba:	636e7973          	csrrci	s2,0x636,28
 1be:	7268                	.2byte	0x7268
 1c0:	756f6e6f          	jal	t3,f6916 <__BSS_END__+0xdb296>
 1c4:	6e752d73          	csrrs	s10,0x6e7,a0
 1c8:	646e6977          	.4byte	0x646e6977
 1cc:	742d                	.2byte	0x742d
 1ce:	6261                	.2byte	0x6261
 1d0:	656c                	.2byte	0x656c
 1d2:	662d2073          	csrs	0x662,s10
 1d6:	6976                	.2byte	0x6976
 1d8:	69626973          	csrrsi	s2,0x696,4
 1dc:	696c                	.2byte	0x696c
 1de:	7974                	.2byte	0x7974
 1e0:	683d                	.2byte	0x683d
 1e2:	6469                	.2byte	0x6469
 1e4:	6564                	.2byte	0x6564
 1e6:	006e                	.2byte	0x6e

Disassembly of section .debug_line_str:

00000000 <.debug_line_str>:
   0:	6d6f682f          	.4byte	0x6d6f682f
   4:	2f65                	.2byte	0x2f65
   6:	6365                	.2byte	0x6365
   8:	6c69                	.2byte	0x6c69
   a:	7361                	.2byte	0x7361
   c:	6e75                	.2byte	0x6e75
   e:	7369722f          	.4byte	0x7369722f
  12:	672d7663          	bgeu	s10,s2,67e <exit-0xfa16>
  16:	756e                	.2byte	0x756e
  18:	742d                	.2byte	0x742d
  1a:	636c6f6f          	jal	t5,c6650 <__BSS_END__+0xaafd0>
  1e:	6168                	.2byte	0x6168
  20:	6e69                	.2byte	0x6e69
  22:	6363672f          	.4byte	0x6363672f
  26:	62696c2f          	.4byte	0x62696c2f
  2a:	2f636367          	.4byte	0x2f636367
  2e:	696c                	.2byte	0x696c
  30:	6762                	.2byte	0x6762
  32:	2e326363          	bltu	tp,gp,318 <exit-0xfd7c>
  36:	682f0063          	beq	t5,sp,6b6 <exit-0xf9de>
  3a:	2f656d6f          	jal	s10,56330 <__BSS_END__+0x3acb0>
  3e:	6365                	.2byte	0x6365
  40:	6c69                	.2byte	0x6c69
  42:	7361                	.2byte	0x7361
  44:	6e75                	.2byte	0x6e75
  46:	7369722f          	.4byte	0x7369722f
  4a:	672d7663          	bgeu	s10,s2,6b6 <exit-0xf9de>
  4e:	756e                	.2byte	0x756e
  50:	742d                	.2byte	0x742d
  52:	636c6f6f          	jal	t5,c6688 <__BSS_END__+0xab008>
  56:	6168                	.2byte	0x6168
  58:	6e69                	.2byte	0x6e69
  5a:	6975622f          	.4byte	0x6975622f
  5e:	646c                	.2byte	0x646c
  60:	672d                	.2byte	0x672d
  62:	6e2d6363          	bltu	s10,sp,748 <exit-0xf94c>
  66:	7765                	.2byte	0x7765
  68:	696c                	.2byte	0x696c
  6a:	2d62                	.2byte	0x2d62
  6c:	67617473          	csrrci	s0,0x676,2
  70:	3265                	.2byte	0x3265
  72:	7369722f          	.4byte	0x7369722f
  76:	34367663          	bgeu	a2,gp,3c2 <exit-0xfcd2>
  7a:	752d                	.2byte	0x752d
  7c:	6b6e                	.2byte	0x6b6e
  7e:	6f6e                	.2byte	0x6f6e
  80:	652d6e77          	.4byte	0x652d6e77
  84:	666c                	.2byte	0x666c
  86:	3376722f          	.4byte	0x3376722f
  8a:	6932                	.2byte	0x6932
  8c:	2f6d                	.2byte	0x2f6d
  8e:	6c69                	.2byte	0x6c69
  90:	3370                	.2byte	0x3370
  92:	2f32                	.2byte	0x2f32
  94:	696c                	.2byte	0x696c
  96:	6762                	.2byte	0x6762
  98:	2f006363          	bltu	zero,a6,37e <exit-0xfd16>
  9c:	6f68                	.2byte	0x6f68
  9e:	656d                	.2byte	0x656d
  a0:	6963652f          	.4byte	0x6963652f
  a4:	616c                	.2byte	0x616c
  a6:	2f6e7573          	csrrci	a0,0x2f6,28
  aa:	6972                	.2byte	0x6972
  ac:	2d766373          	csrrsi	t1,0x2d7,12
  b0:	2d756e67          	.4byte	0x2d756e67
  b4:	6f74                	.2byte	0x6f74
  b6:	68636c6f          	jal	s8,3673c <__BSS_END__+0x1b0bc>
  ba:	6961                	.2byte	0x6961
  bc:	2f6e                	.2byte	0x2f6e
  be:	2f636367          	.4byte	0x2f636367
  c2:	696c                	.2byte	0x696c
  c4:	6762                	.2byte	0x6762
  c6:	6c006363          	bltu	zero,zero,78c <exit-0xf908>
  ca:	6269                	.2byte	0x6269
  cc:	32636367          	.4byte	0x32636367
  d0:	682e                	.2byte	0x682e
	...

Disassembly of section .debug_loclists:

00000000 <.debug_loclists>:
   0:	0a48                	.2byte	0xa48
   2:	0000                	.2byte	0x0
   4:	0005                	.2byte	0x5
   6:	0004                	.2byte	0x4
   8:	0000                	.2byte	0x0
   a:	0000                	.2byte	0x0
   c:	00000007          	.4byte	0x7
  10:	0000                	.2byte	0x0
  12:	0000                	.2byte	0x0
  14:	0600                	.2byte	0x600
  16:	935a                	.2byte	0x935a
  18:	5b04                	.2byte	0x5b04
  1a:	00070493          	mv	s1,a4
  1e:	0000                	.2byte	0x0
  20:	0000                	.2byte	0x0
  22:	0000                	.2byte	0x0
  24:	0600                	.2byte	0x600
  26:	0aa503a3          	sb	a0,167(a0)
  2a:	9f26                	.2byte	0x9f26
  2c:	00000007          	.4byte	0x7
  30:	0000                	.2byte	0x0
  32:	0000                	.2byte	0x0
  34:	0600                	.2byte	0x600
  36:	935a                	.2byte	0x935a
  38:	5b04                	.2byte	0x5b04
  3a:	00070493          	mv	s1,a4
  3e:	0000                	.2byte	0x0
  40:	0000                	.2byte	0x0
  42:	0000                	.2byte	0x0
  44:	0600                	.2byte	0x600
  46:	0aa503a3          	sb	a0,167(a0)
  4a:	9f26                	.2byte	0x9f26
  4c:	00000007          	.4byte	0x7
  50:	0000                	.2byte	0x0
  52:	0000                	.2byte	0x0
  54:	0600                	.2byte	0x600
  56:	935a                	.2byte	0x935a
  58:	5b04                	.2byte	0x5b04
  5a:	00070493          	mv	s1,a4
  5e:	0000                	.2byte	0x0
  60:	0000                	.2byte	0x0
  62:	0000                	.2byte	0x0
  64:	0600                	.2byte	0x600
  66:	0aa503a3          	sb	a0,167(a0)
  6a:	9f26                	.2byte	0x9f26
  6c:	00000007          	.4byte	0x7
  70:	0000                	.2byte	0x0
  72:	0000                	.2byte	0x0
  74:	0600                	.2byte	0x600
  76:	935a                	.2byte	0x935a
  78:	5b04                	.2byte	0x5b04
  7a:	00070493          	mv	s1,a4
  7e:	0000                	.2byte	0x0
  80:	0000                	.2byte	0x0
  82:	0000                	.2byte	0x0
  84:	0600                	.2byte	0x600
  86:	0aa503a3          	sb	a0,167(a0)
  8a:	9f26                	.2byte	0x9f26
  8c:	00000007          	.4byte	0x7
  90:	0000                	.2byte	0x0
  92:	0000                	.2byte	0x0
  94:	0600                	.2byte	0x600
  96:	935a                	.2byte	0x935a
  98:	5b04                	.2byte	0x5b04
  9a:	00070493          	mv	s1,a4
  9e:	0000                	.2byte	0x0
  a0:	0000                	.2byte	0x0
  a2:	0000                	.2byte	0x0
  a4:	0600                	.2byte	0x600
  a6:	0aa503a3          	sb	a0,167(a0)
  aa:	9f26                	.2byte	0x9f26
  ac:	00000007          	.4byte	0x7
  b0:	0000                	.2byte	0x0
  b2:	0000                	.2byte	0x0
  b4:	0600                	.2byte	0x600
  b6:	935a                	.2byte	0x935a
  b8:	5b04                	.2byte	0x5b04
  ba:	00070493          	mv	s1,a4
  be:	0000                	.2byte	0x0
  c0:	0000                	.2byte	0x0
  c2:	0000                	.2byte	0x0
  c4:	0600                	.2byte	0x600
  c6:	0aa503a3          	sb	a0,167(a0)
  ca:	9f26                	.2byte	0x9f26
  cc:	00000007          	.4byte	0x7
  d0:	0000                	.2byte	0x0
  d2:	0000                	.2byte	0x0
  d4:	0600                	.2byte	0x600
  d6:	935a                	.2byte	0x935a
  d8:	5b04                	.2byte	0x5b04
  da:	00070493          	mv	s1,a4
  de:	0000                	.2byte	0x0
  e0:	0000                	.2byte	0x0
  e2:	0000                	.2byte	0x0
  e4:	0600                	.2byte	0x600
  e6:	0aa503a3          	sb	a0,167(a0)
  ea:	9f26                	.2byte	0x9f26
  ec:	0700                	.2byte	0x700
	...
  f6:	5c06                	.2byte	0x5c06
  f8:	935d0493          	addi	s1,s10,-1739
  fc:	0704                	.2byte	0x704
	...
 106:	a306                	.2byte	0xa306
 108:	260ca503          	lw	a0,608(s9)
 10c:	079f 0000 0000      	.byte	0x9f, 0x07, 0x00, 0x00, 0x00, 0x00
 112:	0000                	.2byte	0x0
 114:	0000                	.2byte	0x0
 116:	5c06                	.2byte	0x5c06
 118:	935d0493          	addi	s1,s10,-1739
 11c:	0704                	.2byte	0x704
	...
 126:	a306                	.2byte	0xa306
 128:	260ca503          	lw	a0,608(s9)
 12c:	079f 0000 0000      	.byte	0x9f, 0x07, 0x00, 0x00, 0x00, 0x00
 132:	0000                	.2byte	0x0
 134:	0000                	.2byte	0x0
 136:	5c06                	.2byte	0x5c06
 138:	935d0493          	addi	s1,s10,-1739
 13c:	0704                	.2byte	0x704
	...
 146:	a306                	.2byte	0xa306
 148:	260ca503          	lw	a0,608(s9)
 14c:	079f 0000 0000      	.byte	0x9f, 0x07, 0x00, 0x00, 0x00, 0x00
 152:	0000                	.2byte	0x0
 154:	0000                	.2byte	0x0
 156:	5c06                	.2byte	0x5c06
 158:	935d0493          	addi	s1,s10,-1739
 15c:	0704                	.2byte	0x704
	...
 166:	a306                	.2byte	0xa306
 168:	260ca503          	lw	a0,608(s9)
 16c:	079f 0000 0000      	.byte	0x9f, 0x07, 0x00, 0x00, 0x00, 0x00
 172:	0000                	.2byte	0x0
 174:	0000                	.2byte	0x0
 176:	5c06                	.2byte	0x5c06
 178:	935d0493          	addi	s1,s10,-1739
 17c:	0004                	.2byte	0x4
 17e:	00000007          	.4byte	0x7
 182:	0000                	.2byte	0x0
 184:	0000                	.2byte	0x0
 186:	0200                	.2byte	0x200
 188:	9f30                	.2byte	0x9f30
 18a:	00000007          	.4byte	0x7
 18e:	0000                	.2byte	0x0
 190:	0000                	.2byte	0x0
 192:	0200                	.2byte	0x200
 194:	9f30                	.2byte	0x9f30
 196:	0700                	.2byte	0x700
	...
 1a0:	5c06                	.2byte	0x5c06
 1a2:	935d0493          	addi	s1,s10,-1739
 1a6:	0704                	.2byte	0x704
	...
 1b0:	5c06                	.2byte	0x5c06
 1b2:	935d0493          	addi	s1,s10,-1739
 1b6:	0704                	.2byte	0x704
	...
 1c0:	5c06                	.2byte	0x5c06
 1c2:	935d0493          	addi	s1,s10,-1739
 1c6:	0704                	.2byte	0x704
	...
 1d0:	5c06                	.2byte	0x5c06
 1d2:	935d0493          	addi	s1,s10,-1739
 1d6:	0004                	.2byte	0x4
 1d8:	00000007          	.4byte	0x7
 1dc:	0000                	.2byte	0x0
 1de:	0000                	.2byte	0x0
 1e0:	0600                	.2byte	0x600
 1e2:	935a                	.2byte	0x935a
 1e4:	5b04                	.2byte	0x5b04
 1e6:	00070493          	mv	s1,a4
 1ea:	0000                	.2byte	0x0
 1ec:	0000                	.2byte	0x0
 1ee:	0000                	.2byte	0x0
 1f0:	0600                	.2byte	0x600
 1f2:	935a                	.2byte	0x935a
 1f4:	5604                	.2byte	0x5604
 1f6:	00070493          	mv	s1,a4
 1fa:	0000                	.2byte	0x0
 1fc:	0000                	.2byte	0x0
 1fe:	0000                	.2byte	0x0
 200:	0600                	.2byte	0x600
 202:	9360                	.2byte	0x9360
 204:	5604                	.2byte	0x5604
 206:	00070493          	mv	s1,a4
 20a:	0000                	.2byte	0x0
 20c:	0000                	.2byte	0x0
 20e:	0000                	.2byte	0x0
 210:	0600                	.2byte	0x600
 212:	9361                	.2byte	0x9361
 214:	5604                	.2byte	0x5604
 216:	00070493          	mv	s1,a4
 21a:	0000                	.2byte	0x0
 21c:	0000                	.2byte	0x0
 21e:	0000                	.2byte	0x0
 220:	0600                	.2byte	0x600
 222:	935a                	.2byte	0x935a
 224:	5604                	.2byte	0x5604
 226:	00070493          	mv	s1,a4
 22a:	0000                	.2byte	0x0
 22c:	0000                	.2byte	0x0
 22e:	0000                	.2byte	0x0
 230:	0600                	.2byte	0x600
 232:	9360                	.2byte	0x9360
 234:	5604                	.2byte	0x5604
 236:	00070493          	mv	s1,a4
 23a:	0000                	.2byte	0x0
 23c:	0000                	.2byte	0x0
 23e:	0000                	.2byte	0x0
 240:	0600                	.2byte	0x600
 242:	935a                	.2byte	0x935a
 244:	5604                	.2byte	0x5604
 246:	00070493          	mv	s1,a4
 24a:	0000                	.2byte	0x0
 24c:	0000                	.2byte	0x0
 24e:	0000                	.2byte	0x0
 250:	0600                	.2byte	0x600
 252:	935a                	.2byte	0x935a
 254:	5604                	.2byte	0x5604
 256:	00070493          	mv	s1,a4
 25a:	0000                	.2byte	0x0
 25c:	0000                	.2byte	0x0
 25e:	0000                	.2byte	0x0
 260:	0600                	.2byte	0x600
 262:	9360                	.2byte	0x9360
 264:	5604                	.2byte	0x5604
 266:	00070493          	mv	s1,a4
 26a:	0000                	.2byte	0x0
 26c:	0000                	.2byte	0x0
 26e:	0000                	.2byte	0x0
 270:	0600                	.2byte	0x600
 272:	935a                	.2byte	0x935a
 274:	5604                	.2byte	0x5604
 276:	00070493          	mv	s1,a4
 27a:	0000                	.2byte	0x0
 27c:	0000                	.2byte	0x0
 27e:	0000                	.2byte	0x0
 280:	0600                	.2byte	0x600
 282:	9360                	.2byte	0x9360
 284:	5604                	.2byte	0x5604
 286:	00070493          	mv	s1,a4
 28a:	0000                	.2byte	0x0
 28c:	0000                	.2byte	0x0
 28e:	0000                	.2byte	0x0
 290:	0600                	.2byte	0x600
 292:	935a                	.2byte	0x935a
 294:	5604                	.2byte	0x5604
 296:	00070493          	mv	s1,a4
 29a:	0000                	.2byte	0x0
 29c:	0000                	.2byte	0x0
 29e:	0000                	.2byte	0x0
 2a0:	0600                	.2byte	0x600
 2a2:	935a                	.2byte	0x935a
 2a4:	5604                	.2byte	0x5604
 2a6:	00070493          	mv	s1,a4
 2aa:	0000                	.2byte	0x0
 2ac:	0000                	.2byte	0x0
 2ae:	0000                	.2byte	0x0
 2b0:	0600                	.2byte	0x600
 2b2:	9360                	.2byte	0x9360
 2b4:	5604                	.2byte	0x5604
 2b6:	07000493          	li	s1,112
	...
 2c2:	5c01                	.2byte	0x5c01
 2c4:	00000007          	.4byte	0x7
 2c8:	0000                	.2byte	0x0
 2ca:	0000                	.2byte	0x0
 2cc:	0900                	.2byte	0x900
 2ce:	007c                	.2byte	0x7c
 2d0:	ff08007b          	.4byte	0xff08007b
 2d4:	241a                	.2byte	0x241a
 2d6:	079f 0000 0000      	.byte	0x9f, 0x07, 0x00, 0x00, 0x00, 0x00
 2dc:	0000                	.2byte	0x0
 2de:	0000                	.2byte	0x0
 2e0:	5e01                	.2byte	0x5e01
 2e2:	00000007          	.4byte	0x7
 2e6:	0000                	.2byte	0x0
 2e8:	0000                	.2byte	0x0
 2ea:	0100                	.2byte	0x100
 2ec:	075c                	.2byte	0x75c
	...
 2f6:	5e01                	.2byte	0x5e01
 2f8:	00000007          	.4byte	0x7
 2fc:	0000                	.2byte	0x0
 2fe:	0000                	.2byte	0x0
 300:	0100                	.2byte	0x100
 302:	075c                	.2byte	0x75c
	...
 30c:	5e01                	.2byte	0x5e01
 30e:	00000007          	.4byte	0x7
 312:	0000                	.2byte	0x0
 314:	0000                	.2byte	0x0
 316:	0100                	.2byte	0x100
 318:	075c                	.2byte	0x75c
	...
 322:	5c01                	.2byte	0x5c01
 324:	0700                	.2byte	0x700
	...
 32e:	5d01                	.2byte	0x5d01
 330:	00000007          	.4byte	0x7
 334:	0000                	.2byte	0x0
 336:	0000                	.2byte	0x0
 338:	0100                	.2byte	0x100
 33a:	075d                	.2byte	0x75d
	...
 344:	5d01                	.2byte	0x5d01
 346:	00000007          	.4byte	0x7
 34a:	0000                	.2byte	0x0
 34c:	0000                	.2byte	0x0
 34e:	0100                	.2byte	0x100
 350:	075d                	.2byte	0x75d
	...
 35a:	5d01                	.2byte	0x5d01
 35c:	0700                	.2byte	0x700
	...
 366:	5a01                	.2byte	0x5a01
 368:	00000007          	.4byte	0x7
 36c:	0000                	.2byte	0x0
 36e:	0000                	.2byte	0x0
 370:	0100                	.2byte	0x100
 372:	0760                	.2byte	0x760
	...
 37c:	5a01                	.2byte	0x5a01
 37e:	00000007          	.4byte	0x7
 382:	0000                	.2byte	0x0
 384:	0000                	.2byte	0x0
 386:	0100                	.2byte	0x100
 388:	0760                	.2byte	0x760
	...
 392:	5a01                	.2byte	0x5a01
 394:	00000007          	.4byte	0x7
 398:	0000                	.2byte	0x0
 39a:	0000                	.2byte	0x0
 39c:	0100                	.2byte	0x100
 39e:	0760                	.2byte	0x760
	...
 3a8:	5a01                	.2byte	0x5a01
 3aa:	00000007          	.4byte	0x7
 3ae:	0000                	.2byte	0x0
 3b0:	0000                	.2byte	0x0
 3b2:	0100                	.2byte	0x100
 3b4:	0760                	.2byte	0x760
	...
 3be:	5a01                	.2byte	0x5a01
 3c0:	00000007          	.4byte	0x7
 3c4:	0000                	.2byte	0x0
 3c6:	0000                	.2byte	0x0
 3c8:	0100                	.2byte	0x100
 3ca:	0760                	.2byte	0x760
	...
 3d4:	5a01                	.2byte	0x5a01
 3d6:	00000007          	.4byte	0x7
 3da:	0000                	.2byte	0x0
 3dc:	0000                	.2byte	0x0
 3de:	0600                	.2byte	0x600
 3e0:	007a                	.2byte	0x7a
 3e2:	9f24007b          	.4byte	0x9f24007b
 3e6:	00000007          	.4byte	0x7
 3ea:	0000                	.2byte	0x0
 3ec:	0000                	.2byte	0x0
 3ee:	0600                	.2byte	0x600
 3f0:	0081                	.2byte	0x81
 3f2:	9f24007b          	.4byte	0x9f24007b
 3f6:	00000007          	.4byte	0x7
 3fa:	0000                	.2byte	0x0
 3fc:	0000                	.2byte	0x0
 3fe:	0100                	.2byte	0x100
 400:	075a                	.2byte	0x75a
	...
 40a:	6001                	.2byte	0x6001
 40c:	0700                	.2byte	0x700
	...
 416:	5b01                	.2byte	0x5b01
 418:	00000007          	.4byte	0x7
 41c:	0000                	.2byte	0x0
 41e:	0000                	.2byte	0x0
 420:	0100                	.2byte	0x100
 422:	0756                	.2byte	0x756
	...
 42c:	5f01                	.2byte	0x5f01
 42e:	00000007          	.4byte	0x7
 432:	0000                	.2byte	0x0
 434:	0000                	.2byte	0x0
 436:	0100                	.2byte	0x100
 438:	0756                	.2byte	0x756
	...
 442:	5f01                	.2byte	0x5f01
 444:	00000007          	.4byte	0x7
 448:	0000                	.2byte	0x0
 44a:	0000                	.2byte	0x0
 44c:	0100                	.2byte	0x100
 44e:	0756                	.2byte	0x756
	...
 458:	5f01                	.2byte	0x5f01
 45a:	00000007          	.4byte	0x7
 45e:	0000                	.2byte	0x0
 460:	0000                	.2byte	0x0
 462:	0100                	.2byte	0x100
 464:	075f 0000 0000      	.byte	0x5f, 0x07, 0x00, 0x00, 0x00, 0x00
 46a:	0000                	.2byte	0x0
 46c:	0000                	.2byte	0x0
 46e:	5601                	.2byte	0x5601
 470:	00000007          	.4byte	0x7
 474:	0000                	.2byte	0x0
 476:	0000                	.2byte	0x0
 478:	0100                	.2byte	0x100
 47a:	075f 0000 0000      	.byte	0x5f, 0x07, 0x00, 0x00, 0x00, 0x00
 480:	0000                	.2byte	0x0
 482:	0000                	.2byte	0x0
 484:	5f01                	.2byte	0x5f01
 486:	00000007          	.4byte	0x7
 48a:	0000                	.2byte	0x0
 48c:	0000                	.2byte	0x0
 48e:	0100                	.2byte	0x100
 490:	0056                	.2byte	0x56
 492:	00000007          	.4byte	0x7
 496:	0000                	.2byte	0x0
 498:	0000                	.2byte	0x0
 49a:	0100                	.2byte	0x100
 49c:	075d                	.2byte	0x75d
	...
 4a6:	5e01                	.2byte	0x5e01
 4a8:	0700                	.2byte	0x700
	...
 4b2:	5a01                	.2byte	0x5a01
 4b4:	00000007          	.4byte	0x7
 4b8:	0000                	.2byte	0x0
 4ba:	0000                	.2byte	0x0
 4bc:	0100                	.2byte	0x100
 4be:	075a                	.2byte	0x75a
	...
 4c8:	5a01                	.2byte	0x5a01
 4ca:	0700                	.2byte	0x700
	...
 4d4:	3102                	.2byte	0x3102
 4d6:	079f 0000 0000      	.byte	0x9f, 0x07, 0x00, 0x00, 0x00, 0x00
 4dc:	0000                	.2byte	0x0
 4de:	0000                	.2byte	0x0
 4e0:	5b01                	.2byte	0x5b01
 4e2:	00000007          	.4byte	0x7
 4e6:	0000                	.2byte	0x0
 4e8:	0000                	.2byte	0x0
 4ea:	0100                	.2byte	0x100
 4ec:	0007005b          	.4byte	0x7005b
 4f0:	0000                	.2byte	0x0
 4f2:	0000                	.2byte	0x0
 4f4:	0000                	.2byte	0x0
 4f6:	0100                	.2byte	0x100
 4f8:	075f 0000 0000      	.byte	0x5f, 0x07, 0x00, 0x00, 0x00, 0x00
 4fe:	0000                	.2byte	0x0
 500:	0000                	.2byte	0x0
 502:	5f01                	.2byte	0x5f01
 504:	0700                	.2byte	0x700
	...
 50e:	5b01                	.2byte	0x5b01
 510:	00000007          	.4byte	0x7
 514:	0000                	.2byte	0x0
 516:	0000                	.2byte	0x0
 518:	0100                	.2byte	0x100
 51a:	0000075b          	.4byte	0x75b
 51e:	0000                	.2byte	0x0
 520:	0000                	.2byte	0x0
 522:	0000                	.2byte	0x0
 524:	5b01                	.2byte	0x5b01
 526:	00000007          	.4byte	0x7
 52a:	0000                	.2byte	0x0
 52c:	0000                	.2byte	0x0
 52e:	0100                	.2byte	0x100
 530:	0000075b          	.4byte	0x75b
 534:	0000                	.2byte	0x0
 536:	0000                	.2byte	0x0
 538:	0000                	.2byte	0x0
 53a:	5b01                	.2byte	0x5b01
 53c:	0700                	.2byte	0x700
	...
 546:	5c01                	.2byte	0x5c01
 548:	00000007          	.4byte	0x7
 54c:	0000                	.2byte	0x0
 54e:	0000                	.2byte	0x0
 550:	0900                	.2byte	0x900
 552:	007c                	.2byte	0x7c
 554:	ff08007b          	.4byte	0xff08007b
 558:	241a                	.2byte	0x241a
 55a:	079f 0000 0000      	.byte	0x9f, 0x07, 0x00, 0x00, 0x00, 0x00
 560:	0000                	.2byte	0x0
 562:	0000                	.2byte	0x0
 564:	5e01                	.2byte	0x5e01
 566:	00000007          	.4byte	0x7
 56a:	0000                	.2byte	0x0
 56c:	0000                	.2byte	0x0
 56e:	0100                	.2byte	0x100
 570:	005c                	.2byte	0x5c
 572:	00000007          	.4byte	0x7
 576:	0000                	.2byte	0x0
 578:	0000                	.2byte	0x0
 57a:	0100                	.2byte	0x100
 57c:	005d                	.2byte	0x5d
 57e:	00000007          	.4byte	0x7
 582:	0000                	.2byte	0x0
 584:	0000                	.2byte	0x0
 586:	0100                	.2byte	0x100
 588:	0007005b          	.4byte	0x7005b
 58c:	0000                	.2byte	0x0
 58e:	0000                	.2byte	0x0
 590:	0000                	.2byte	0x0
 592:	0100                	.2byte	0x100
 594:	005c                	.2byte	0x5c
 596:	00000007          	.4byte	0x7
 59a:	0000                	.2byte	0x0
 59c:	0000                	.2byte	0x0
 59e:	0100                	.2byte	0x100
 5a0:	0756                	.2byte	0x756
	...
 5aa:	5a01                	.2byte	0x5a01
 5ac:	0700                	.2byte	0x700
	...
 5b6:	6101                	.2byte	0x6101
 5b8:	00000007          	.4byte	0x7
 5bc:	0000                	.2byte	0x0
 5be:	0000                	.2byte	0x0
 5c0:	0100                	.2byte	0x100
 5c2:	005f 0007 0000      	.byte	0x5f, 0x00, 0x07, 0x00, 0x00, 0x00
 5c8:	0000                	.2byte	0x0
 5ca:	0000                	.2byte	0x0
 5cc:	0600                	.2byte	0x600
 5ce:	007f                	.2byte	0x7f
 5d0:	9f1d007b          	.4byte	0x9f1d007b
 5d4:	00000007          	.4byte	0x7
 5d8:	0000                	.2byte	0x0
 5da:	0000                	.2byte	0x0
 5dc:	0100                	.2byte	0x100
 5de:	075f 0000 0000      	.byte	0x5f, 0x07, 0x00, 0x00, 0x00, 0x00
 5e4:	0000                	.2byte	0x0
 5e6:	0000                	.2byte	0x0
 5e8:	5f01                	.2byte	0x5f01
 5ea:	00000007          	.4byte	0x7
 5ee:	0000                	.2byte	0x0
 5f0:	0000                	.2byte	0x0
 5f2:	0800                	.2byte	0x800
 5f4:	0080                	.2byte	0x80
 5f6:	2540                	.2byte	0x2540
 5f8:	007d                	.2byte	0x7d
 5fa:	9f21                	.2byte	0x9f21
 5fc:	00000007          	.4byte	0x7
 600:	0000                	.2byte	0x0
 602:	0000                	.2byte	0x0
 604:	0100                	.2byte	0x100
 606:	005f 0007 0000      	.byte	0x5f, 0x00, 0x07, 0x00, 0x00, 0x00
 60c:	0000                	.2byte	0x0
 60e:	0000                	.2byte	0x0
 610:	0600                	.2byte	0x600
 612:	007f                	.2byte	0x7f
 614:	9f1d007b          	.4byte	0x9f1d007b
 618:	00000007          	.4byte	0x7
 61c:	0000                	.2byte	0x0
 61e:	0000                	.2byte	0x0
 620:	0100                	.2byte	0x100
 622:	075f 0000 0000      	.byte	0x5f, 0x07, 0x00, 0x00, 0x00, 0x00
 628:	0000                	.2byte	0x0
 62a:	0000                	.2byte	0x0
 62c:	6001                	.2byte	0x6001
 62e:	0700                	.2byte	0x700
	...
 638:	6101                	.2byte	0x6101
 63a:	00000007          	.4byte	0x7
 63e:	0000                	.2byte	0x0
 640:	0000                	.2byte	0x0
 642:	0600                	.2byte	0x600
 644:	007c                	.2byte	0x7c
 646:	0076                	.2byte	0x76
 648:	9f1e                	.2byte	0x9f1e
 64a:	00000007          	.4byte	0x7
 64e:	0000                	.2byte	0x0
 650:	0000                	.2byte	0x0
 652:	0100                	.2byte	0x100
 654:	005d                	.2byte	0x5d
 656:	00000007          	.4byte	0x7
 65a:	0000                	.2byte	0x0
 65c:	0000                	.2byte	0x0
 65e:	0100                	.2byte	0x100
 660:	005d                	.2byte	0x5d
 662:	00000007          	.4byte	0x7
 666:	0000                	.2byte	0x0
 668:	0000                	.2byte	0x0
 66a:	1000                	.2byte	0x1000
 66c:	0076                	.2byte	0x76
 66e:	ff0a                	.2byte	0xff0a
 670:	1aff                	.2byte	0x1aff
 672:	007e                	.2byte	0x7e
 674:	ff0a                	.2byte	0xff0a
 676:	1aff                	.2byte	0x1aff
 678:	2440                	.2byte	0x2440
 67a:	9f22                	.2byte	0x9f22
 67c:	00000007          	.4byte	0x7
 680:	0000                	.2byte	0x0
 682:	0000                	.2byte	0x0
 684:	1500                	.2byte	0x1500
 686:	0076                	.2byte	0x76
 688:	ff0a                	.2byte	0xff0a
 68a:	1aff                	.2byte	0x1aff
 68c:	0076                	.2byte	0x76
 68e:	2540                	.2byte	0x2540
 690:	007c                	.2byte	0x7c
 692:	0a22                	.2byte	0xa22
 694:	ffff                	.2byte	0xffff
 696:	401a                	.2byte	0x401a
 698:	2224                	.2byte	0x2224
 69a:	009f 0007 0000      	.byte	0x9f, 0x00, 0x07, 0x00, 0x00, 0x00
 6a0:	0000                	.2byte	0x0
 6a2:	0000                	.2byte	0x0
 6a4:	0100                	.2byte	0x100
 6a6:	0056                	.2byte	0x56
 6a8:	00000007          	.4byte	0x7
 6ac:	0000                	.2byte	0x0
 6ae:	0000                	.2byte	0x0
 6b0:	0100                	.2byte	0x100
 6b2:	0760                	.2byte	0x760
	...
 6bc:	40007d07          	.4byte	0x40007d07
 6c0:	4024                	.2byte	0x4024
 6c2:	9f25                	.2byte	0x9f25
 6c4:	0700                	.2byte	0x700
	...
 6ce:	6d01                	.2byte	0x6d01
 6d0:	00000007          	.4byte	0x7
 6d4:	0000                	.2byte	0x0
 6d6:	0000                	.2byte	0x0
 6d8:	0100                	.2byte	0x100
 6da:	005a                	.2byte	0x5a
 6dc:	00000007          	.4byte	0x7
 6e0:	0000                	.2byte	0x0
 6e2:	0000                	.2byte	0x0
 6e4:	0100                	.2byte	0x100
 6e6:	076c                	.2byte	0x76c
	...
 6f0:	5e01                	.2byte	0x5e01
 6f2:	0700                	.2byte	0x700
	...
 6fc:	7e06                	.2byte	0x7e06
 6fe:	7600                	.2byte	0x7600
 700:	1d00                	.2byte	0x1d00
 702:	079f 0000 0000      	.byte	0x9f, 0x07, 0x00, 0x00, 0x00, 0x00
 708:	0000                	.2byte	0x0
 70a:	0000                	.2byte	0x0
 70c:	5e01                	.2byte	0x5e01
 70e:	00000007          	.4byte	0x7
 712:	0000                	.2byte	0x0
 714:	0000                	.2byte	0x0
 716:	0100                	.2byte	0x100
 718:	075e                	.2byte	0x75e
	...
 722:	5e01                	.2byte	0x5e01
 724:	0700                	.2byte	0x700
	...
 72e:	7e06                	.2byte	0x7e06
 730:	7600                	.2byte	0x7600
 732:	1d00                	.2byte	0x1d00
 734:	079f 0000 0000      	.byte	0x9f, 0x07, 0x00, 0x00, 0x00, 0x00
 73a:	0000                	.2byte	0x0
 73c:	0000                	.2byte	0x0
 73e:	5e01                	.2byte	0x5e01
 740:	00000007          	.4byte	0x7
 744:	0000                	.2byte	0x0
 746:	0000                	.2byte	0x0
 748:	0100                	.2byte	0x100
 74a:	075f 0000 0000      	.byte	0x5f, 0x07, 0x00, 0x00, 0x00, 0x00
 750:	0000                	.2byte	0x0
 752:	0000                	.2byte	0x0
 754:	5f01                	.2byte	0x5f01
 756:	0700                	.2byte	0x700
	...
 760:	6c01                	.2byte	0x6c01
 762:	00000007          	.4byte	0x7
 766:	0000                	.2byte	0x0
 768:	0000                	.2byte	0x0
 76a:	0600                	.2byte	0x600
 76c:	0080                	.2byte	0x80
 76e:	008d                	.2byte	0x8d
 770:	9f1e                	.2byte	0x9f1e
 772:	00000007          	.4byte	0x7
 776:	0000                	.2byte	0x0
 778:	0000                	.2byte	0x0
 77a:	0100                	.2byte	0x100
 77c:	0060                	.2byte	0x60
 77e:	00000007          	.4byte	0x7
 782:	0000                	.2byte	0x0
 784:	0000                	.2byte	0x0
 786:	0100                	.2byte	0x100
 788:	0056                	.2byte	0x56
 78a:	00000007          	.4byte	0x7
 78e:	0000                	.2byte	0x0
 790:	0000                	.2byte	0x0
 792:	0600                	.2byte	0x600
 794:	007e                	.2byte	0x7e
 796:	007c                	.2byte	0x7c
 798:	9f1e                	.2byte	0x9f1e
 79a:	00000007          	.4byte	0x7
 79e:	0000                	.2byte	0x0
 7a0:	0000                	.2byte	0x0
 7a2:	0100                	.2byte	0x100
 7a4:	075e                	.2byte	0x75e
	...
 7ae:	5e01                	.2byte	0x5e01
 7b0:	00000007          	.4byte	0x7
 7b4:	0000                	.2byte	0x0
 7b6:	0000                	.2byte	0x0
 7b8:	0800                	.2byte	0x800
 7ba:	0076                	.2byte	0x76
 7bc:	2540                	.2byte	0x2540
 7be:	007c                	.2byte	0x7c
 7c0:	9f22                	.2byte	0x9f22
 7c2:	0700                	.2byte	0x700
	...
 7cc:	5d01                	.2byte	0x5d01
 7ce:	0700                	.2byte	0x700
	...
 7d8:	6001                	.2byte	0x6001
 7da:	0700                	.2byte	0x700
	...
 7e4:	5e01                	.2byte	0x5e01
 7e6:	00000007          	.4byte	0x7
 7ea:	0000                	.2byte	0x0
 7ec:	0000                	.2byte	0x0
 7ee:	0600                	.2byte	0x600
 7f0:	7f8c                	.2byte	0x7f8c
 7f2:	007a                	.2byte	0x7a
 7f4:	9f1a                	.2byte	0x9f1a
 7f6:	00000007          	.4byte	0x7
 7fa:	0000                	.2byte	0x0
 7fc:	0000                	.2byte	0x0
 7fe:	0600                	.2byte	0x600
 800:	007a                	.2byte	0x7a
 802:	007f                	.2byte	0x7f
 804:	9f1a                	.2byte	0x9f1a
 806:	00000007          	.4byte	0x7
 80a:	0000                	.2byte	0x0
 80c:	0000                	.2byte	0x0
 80e:	0600                	.2byte	0x600
 810:	7f8c                	.2byte	0x7f8c
 812:	007a                	.2byte	0x7a
 814:	9f1a                	.2byte	0x9f1a
 816:	00000007          	.4byte	0x7
 81a:	0000                	.2byte	0x0
 81c:	0000                	.2byte	0x0
 81e:	0600                	.2byte	0x600
 820:	017a                	.2byte	0x17a
 822:	7f8c                	.2byte	0x7f8c
 824:	9f1a                	.2byte	0x9f1a
 826:	0700                	.2byte	0x700
	...
 830:	5d01                	.2byte	0x5d01
 832:	0700                	.2byte	0x700
	...
 83c:	6001                	.2byte	0x6001
 83e:	00000007          	.4byte	0x7
 842:	0000                	.2byte	0x0
 844:	0000                	.2byte	0x0
 846:	0500                	.2byte	0x500
 848:	007a                	.2byte	0x7a
 84a:	2540                	.2byte	0x2540
 84c:	079f 0000 0000      	.byte	0x9f, 0x07, 0x00, 0x00, 0x00, 0x00
 852:	0000                	.2byte	0x0
 854:	0000                	.2byte	0x0
 856:	7a05                	.2byte	0x7a05
 858:	4001                	.2byte	0x4001
 85a:	9f25                	.2byte	0x9f25
 85c:	0700                	.2byte	0x700
	...
 866:	5c01                	.2byte	0x5c01
 868:	0700                	.2byte	0x700
	...
 872:	5c01                	.2byte	0x5c01
 874:	00000007          	.4byte	0x7
 878:	0000                	.2byte	0x0
 87a:	0000                	.2byte	0x0
 87c:	0100                	.2byte	0x100
 87e:	005c                	.2byte	0x5c
 880:	00000007          	.4byte	0x7
 884:	0000                	.2byte	0x0
 886:	0000                	.2byte	0x0
 888:	0100                	.2byte	0x100
 88a:	005d                	.2byte	0x5d
 88c:	00000007          	.4byte	0x7
 890:	0000                	.2byte	0x0
 892:	0000                	.2byte	0x0
 894:	0100                	.2byte	0x100
 896:	0061                	.2byte	0x61
 898:	00000007          	.4byte	0x7
 89c:	0000                	.2byte	0x0
 89e:	0000                	.2byte	0x0
 8a0:	0100                	.2byte	0x100
 8a2:	005c                	.2byte	0x5c
 8a4:	00000007          	.4byte	0x7
 8a8:	0000                	.2byte	0x0
 8aa:	0000                	.2byte	0x0
 8ac:	0100                	.2byte	0x100
 8ae:	076c                	.2byte	0x76c
	...
 8b8:	5a01                	.2byte	0x5a01
 8ba:	0700                	.2byte	0x700
	...
 8c4:	5601                	.2byte	0x5601
 8c6:	00000007          	.4byte	0x7
 8ca:	0000                	.2byte	0x0
 8cc:	0000                	.2byte	0x0
 8ce:	0100                	.2byte	0x100
 8d0:	005f 0007 0000      	.byte	0x5f, 0x00, 0x07, 0x00, 0x00, 0x00
 8d6:	0000                	.2byte	0x0
 8d8:	0000                	.2byte	0x0
 8da:	0600                	.2byte	0x600
 8dc:	007f                	.2byte	0x7f
 8de:	0081                	.2byte	0x81
 8e0:	9f1d                	.2byte	0x9f1d
 8e2:	00000007          	.4byte	0x7
 8e6:	0000                	.2byte	0x0
 8e8:	0000                	.2byte	0x0
 8ea:	0100                	.2byte	0x100
 8ec:	075f 0000 0000      	.byte	0x5f, 0x07, 0x00, 0x00, 0x00, 0x00
 8f2:	0000                	.2byte	0x0
 8f4:	0000                	.2byte	0x0
 8f6:	5f01                	.2byte	0x5f01
 8f8:	00000007          	.4byte	0x7
 8fc:	0000                	.2byte	0x0
 8fe:	0000                	.2byte	0x0
 900:	0100                	.2byte	0x100
 902:	005f 0007 0000      	.byte	0x5f, 0x00, 0x07, 0x00, 0x00, 0x00
 908:	0000                	.2byte	0x0
 90a:	0000                	.2byte	0x0
 90c:	0600                	.2byte	0x600
 90e:	007f                	.2byte	0x7f
 910:	0081                	.2byte	0x81
 912:	9f1d                	.2byte	0x9f1d
 914:	00000007          	.4byte	0x7
 918:	0000                	.2byte	0x0
 91a:	0000                	.2byte	0x0
 91c:	0100                	.2byte	0x100
 91e:	075f 0000 0000      	.byte	0x5f, 0x07, 0x00, 0x00, 0x00, 0x00
 924:	0000                	.2byte	0x0
 926:	0000                	.2byte	0x0
 928:	6001                	.2byte	0x6001
 92a:	0700                	.2byte	0x700
	...
 934:	5601                	.2byte	0x5601
 936:	00000007          	.4byte	0x7
 93a:	0000                	.2byte	0x0
 93c:	0000                	.2byte	0x0
 93e:	0600                	.2byte	0x600
 940:	007c                	.2byte	0x7c
 942:	008c                	.2byte	0x8c
 944:	9f1e                	.2byte	0x9f1e
 946:	00000007          	.4byte	0x7
 94a:	0000                	.2byte	0x0
 94c:	0000                	.2byte	0x0
 94e:	0100                	.2byte	0x100
 950:	005d                	.2byte	0x5d
 952:	00000007          	.4byte	0x7
 956:	0000                	.2byte	0x0
 958:	0000                	.2byte	0x0
 95a:	0100                	.2byte	0x100
 95c:	005a                	.2byte	0x5a
 95e:	00000007          	.4byte	0x7
 962:	0000                	.2byte	0x0
 964:	0000                	.2byte	0x0
 966:	0100                	.2byte	0x100
 968:	075c                	.2byte	0x75c
	...
 972:	40007e07          	.4byte	0x40007e07
 976:	4024                	.2byte	0x4024
 978:	9f25                	.2byte	0x9f25
 97a:	0700                	.2byte	0x700
	...
 984:	5601                	.2byte	0x5601
 986:	00000007          	.4byte	0x7
 98a:	0000                	.2byte	0x0
 98c:	0000                	.2byte	0x0
 98e:	0100                	.2byte	0x100
 990:	0007005b          	.4byte	0x7005b
 994:	0000                	.2byte	0x0
 996:	0000                	.2byte	0x0
 998:	0000                	.2byte	0x0
 99a:	0100                	.2byte	0x100
 99c:	0761                	.2byte	0x761
	...
 9a6:	5d01                	.2byte	0x5d01
 9a8:	0700                	.2byte	0x700
	...
 9b2:	7d06                	.2byte	0x7d06
 9b4:	7a00                	.2byte	0x7a00
 9b6:	1d00                	.2byte	0x1d00
 9b8:	079f 0000 0000      	.byte	0x9f, 0x07, 0x00, 0x00, 0x00, 0x00
 9be:	0000                	.2byte	0x0
 9c0:	0000                	.2byte	0x0
 9c2:	5d01                	.2byte	0x5d01
 9c4:	00000007          	.4byte	0x7
 9c8:	0000                	.2byte	0x0
 9ca:	0000                	.2byte	0x0
 9cc:	0100                	.2byte	0x100
 9ce:	075d                	.2byte	0x75d
	...
 9d8:	5d01                	.2byte	0x5d01
 9da:	0700                	.2byte	0x700
	...
 9e4:	7d06                	.2byte	0x7d06
 9e6:	7a00                	.2byte	0x7a00
 9e8:	1d00                	.2byte	0x1d00
 9ea:	079f 0000 0000      	.byte	0x9f, 0x07, 0x00, 0x00, 0x00, 0x00
 9f0:	0000                	.2byte	0x0
 9f2:	0000                	.2byte	0x0
 9f4:	5d01                	.2byte	0x5d01
 9f6:	00000007          	.4byte	0x7
 9fa:	0000                	.2byte	0x0
 9fc:	0000                	.2byte	0x0
 9fe:	0100                	.2byte	0x100
 a00:	075f 0000 0000      	.byte	0x5f, 0x07, 0x00, 0x00, 0x00, 0x00
 a06:	0000                	.2byte	0x0
 a08:	0000                	.2byte	0x0
 a0a:	5f01                	.2byte	0x5f01
 a0c:	0700                	.2byte	0x700
	...
 a16:	6101                	.2byte	0x6101
 a18:	00000007          	.4byte	0x7
 a1c:	0000                	.2byte	0x0
 a1e:	0000                	.2byte	0x0
 a20:	0600                	.2byte	0x600
 a22:	007c                	.2byte	0x7c
 a24:	0076                	.2byte	0x76
 a26:	9f1e                	.2byte	0x9f1e
 a28:	00000007          	.4byte	0x7
 a2c:	0000                	.2byte	0x0
 a2e:	0000                	.2byte	0x0
 a30:	0100                	.2byte	0x100
 a32:	005c                	.2byte	0x5c
 a34:	00000007          	.4byte	0x7
 a38:	0000                	.2byte	0x0
 a3a:	0000                	.2byte	0x0
 a3c:	0100                	.2byte	0x100
 a3e:	005d                	.2byte	0x5d
 a40:	00000007          	.4byte	0x7
 a44:	0000                	.2byte	0x0
 a46:	0000                	.2byte	0x0
 a48:	0100                	.2byte	0x100
 a4a:	005e                	.2byte	0x5e

Disassembly of section .debug_rnglists:

00000000 <.debug_rnglists>:
   0:	010d                	.2byte	0x10d
   2:	0000                	.2byte	0x0
   4:	0005                	.2byte	0x5
   6:	0004                	.2byte	0x4
   8:	0000                	.2byte	0x0
   a:	0000                	.2byte	0x0
   c:	0006                	.2byte	0x6
   e:	0000                	.2byte	0x0
  10:	0000                	.2byte	0x0
  12:	0000                	.2byte	0x0
  14:	0600                	.2byte	0x600
	...
  1e:	0006                	.2byte	0x6
	...
  28:	0006                	.2byte	0x6
  2a:	0000                	.2byte	0x0
  2c:	0000                	.2byte	0x0
  2e:	0000                	.2byte	0x0
  30:	0600                	.2byte	0x600
	...
  3a:	0006                	.2byte	0x6
  3c:	0000                	.2byte	0x0
  3e:	0000                	.2byte	0x0
  40:	0000                	.2byte	0x0
  42:	0600                	.2byte	0x600
	...
  4c:	0600                	.2byte	0x600
	...
  56:	0006                	.2byte	0x6
	...
  60:	0006                	.2byte	0x6
  62:	0000                	.2byte	0x0
  64:	0000                	.2byte	0x0
  66:	0000                	.2byte	0x0
  68:	0600                	.2byte	0x600
	...
  72:	0600                	.2byte	0x600
	...
  7c:	0006                	.2byte	0x6
  7e:	0000                	.2byte	0x0
  80:	0000                	.2byte	0x0
  82:	0000                	.2byte	0x0
  84:	0600                	.2byte	0x600
	...
  8e:	0006                	.2byte	0x6
	...
  98:	0006                	.2byte	0x6
  9a:	0000                	.2byte	0x0
  9c:	0000                	.2byte	0x0
  9e:	0000                	.2byte	0x0
  a0:	0600                	.2byte	0x600
	...
  aa:	0006                	.2byte	0x6
  ac:	0000                	.2byte	0x0
  ae:	0000                	.2byte	0x0
  b0:	0000                	.2byte	0x0
  b2:	0600                	.2byte	0x600
	...
  bc:	0006                	.2byte	0x6
	...
  c6:	0006                	.2byte	0x6
  c8:	0000                	.2byte	0x0
  ca:	0000                	.2byte	0x0
  cc:	0000                	.2byte	0x0
  ce:	0600                	.2byte	0x600
	...
  d8:	0006                	.2byte	0x6
	...
  e2:	0006                	.2byte	0x6
  e4:	0000                	.2byte	0x0
  e6:	0000                	.2byte	0x0
  e8:	0000                	.2byte	0x0
  ea:	0600                	.2byte	0x600
	...
  f4:	0006                	.2byte	0x6
	...
  fe:	0006                	.2byte	0x6
 100:	0000                	.2byte	0x0
 102:	0000                	.2byte	0x0
 104:	0000                	.2byte	0x0
 106:	0600                	.2byte	0x600
	...
