
./jpegview.elf:     file format elf32-littleriscv
./jpegview.elf
architecture: riscv:rv32, flags 0x00000112:
EXEC_P, HAS_SYMS, D_PAGED
start address 0x00010168

Program Header:
0x70000003 off    0x0000b209 vaddr 0x00000000 paddr 0x00000000 align 2**0
         filesz 0x00000025 memsz 0x00000000 flags r--
    LOAD off    0x00000000 vaddr 0x00010000 paddr 0x00010000 align 2**12
         filesz 0x0000978c memsz 0x0000978c flags r-x
    LOAD off    0x0000a000 vaddr 0x0001a000 paddr 0x0001a000 align 2**12
         filesz 0x000011dc memsz 0x00081954 flags rw-

Sections:
Idx Name          Size      VMA       LMA       File off  Algn
  0 .text         00008ca4  00010094  00010094  00000094  2**2
                  CONTENTS, ALLOC, LOAD, READONLY, CODE
  1 .rodata       00000a54  00018d38  00018d38  00008d38  2**2
                  CONTENTS, ALLOC, LOAD, READONLY, DATA
  2 .eh_frame     0000092c  0001a000  0001a000  0000a000  2**2
                  CONTENTS, ALLOC, LOAD, DATA
  3 .init_array   00000008  0001a92c  0001a92c  0000a92c  2**2
                  CONTENTS, ALLOC, LOAD, DATA
  4 .fini_array   00000004  0001a934  0001a934  0000a934  2**2
                  CONTENTS, ALLOC, LOAD, DATA
  5 .data         00000880  0001a938  0001a938  0000a938  2**3
                  CONTENTS, ALLOC, LOAD, DATA
  6 .sdata        00000024  0001b1b8  0001b1b8  0000b1b8  2**2
                  CONTENTS, ALLOC, LOAD, DATA
  7 .sbss         00000018  0001b1dc  0001b1dc  0000b1dc  2**2
                  ALLOC
  8 .bss          00080760  0001b1f4  0001b1f4  0000b1dc  2**2
                  ALLOC
  9 .comment      0000002d  00000000  00000000  0000b1dc  2**0
                  CONTENTS, READONLY
 10 .riscv.attributes 00000025  00000000  00000000  0000b209  2**0
                  CONTENTS, READONLY
 11 .debug_aranges 00000020  00000000  00000000  0000b22e  2**0
                  CONTENTS, READONLY, DEBUGGING, OCTETS
 12 .debug_info   00000761  00000000  00000000  0000b24e  2**0
                  CONTENTS, READONLY, DEBUGGING, OCTETS
 13 .debug_abbrev 000001a6  00000000  00000000  0000b9af  2**0
                  CONTENTS, READONLY, DEBUGGING, OCTETS
 14 .debug_line   00000713  00000000  00000000  0000bb55  2**0
                  CONTENTS, READONLY, DEBUGGING, OCTETS
 15 .debug_str    000001e8  00000000  00000000  0000c268  2**0
                  CONTENTS, READONLY, DEBUGGING, OCTETS
 16 .debug_line_str 000000d3  00000000  00000000  0000c450  2**0
                  CONTENTS, READONLY, DEBUGGING, OCTETS
 17 .debug_loclists 00000a4c  00000000  00000000  0000c523  2**0
                  CONTENTS, READONLY, DEBUGGING, OCTETS
 18 .debug_rnglists 00000111  00000000  00000000  0000cf6f  2**0
                  CONTENTS, READONLY, DEBUGGING, OCTETS
SYMBOL TABLE:
00010094 l    d  .text	00000000 .text
00018d38 l    d  .rodata	00000000 .rodata
0001a000 l    d  .eh_frame	00000000 .eh_frame
0001a92c l    d  .init_array	00000000 .init_array
0001a934 l    d  .fini_array	00000000 .fini_array
0001a938 l    d  .data	00000000 .data
0001b1b8 l    d  .sdata	00000000 .sdata
0001b1dc l    d  .sbss	00000000 .sbss
0001b1f4 l    d  .bss	00000000 .bss
00000000 l    d  .comment	00000000 .comment
00000000 l    d  .riscv.attributes	00000000 .riscv.attributes
00000000 l    d  .debug_aranges	00000000 .debug_aranges
00000000 l    d  .debug_info	00000000 .debug_info
00000000 l    d  .debug_abbrev	00000000 .debug_abbrev
00000000 l    d  .debug_line	00000000 .debug_line
00000000 l    d  .debug_str	00000000 .debug_str
00000000 l    d  .debug_line_str	00000000 .debug_line_str
00000000 l    d  .debug_loclists	00000000 .debug_loclists
00000000 l    d  .debug_rnglists	00000000 .debug_rnglists
00000000 l    df *ABS*	00000000 exit.c
00000000 l    df *ABS*	00000000 jpegview.cpp
00018d48 l     O .rodata	00000010 _ZL6dither
00000000 l    df *ABS*	00000000 __call_atexit.c
00010150 l     F .text	00000018 register_fini
00000000 l    df *ABS*	00000000 crt0.o
00000000 l    df *ABS*	00000000 crtstuff.c
0001a000 l     O .eh_frame	00000000 __EH_FRAME_BEGIN__
000101b8 l     F .text	00000000 __do_global_dtors_aux
0001b1f4 l     O .bss	00000001 completed.1
0001a934 l     O .fini_array	00000000 __do_global_dtors_aux_fini_array_entry
000101fc l     F .text	00000000 frame_dummy
0001b1f8 l     O .bss	00000018 object.0
0001a930 l     O .init_array	00000000 __frame_dummy_init_array_entry
00000000 l    df *ABS*	00000000 uart.c
00000000 l    df *ABS*	00000000 core.c
0001b1c0 l     O .sdata	00000004 _ZL10heap_start
00000000 l    df *ABS*	00000000 gpu.c
00000000 l    df *ABS*	00000000 sdcard.c
00000000 l    df *ABS*	00000000 ff.c
00011eb0 l     F .text	000000ec _ZL12get_ldnumberPPKc
0001b1e0 l     O .sbss	00000001 _ZL7CurrVol
000192f4 l     O .rodata	0000000c _ZL9VolumeStr
00011f9c l     F .text	000000d0 _ZL11move_windowP5FATFSm
0001206c l     F .text	00000200 _ZL7put_fatP5FATFSmm.part.0
0001226c l     F .text	00000190 _ZL7get_fatP7FFOBJIDm.isra.0
000123fc l     F .text	000001e4 _ZL8check_fsP5FATFSm
000125e0 l     F .text	0000058c _ZL12mount_volumePPKcPP5FATFSh
0001b648 l     O .bss	0000000c _ZL5FatFs
0001b1e2 l     O .sbss	00000002 _ZL4Fsid
0001b448 l     O .bss	00000200 _ZL6LfnBuf
00012b6c l     F .text	0000028c _ZL7dir_sdiP3DIRm
00012df8 l     F .text	000004e8 _ZL8dir_findP3DIR
000192d8 l     O .rodata	0000000d _ZL6LfnOfs
000132e0 l     F .text	00000644 _ZL11follow_pathP3DIRPKc
00019258 l     O .rodata	00000080 _ZL5ExCvt
00013924 l     F .text	00000360 _ZL12create_chainP7FFOBJIDm
00013c84 l     F .text	00000240 _ZL8dir_nextP3DIRi
00000000 l    df *ABS*	00000000 ffunicode.c
000195d4 l     O .rodata	00000100 _ZL5uc437
000193e0 l     O .rodata	000001f2 _ZZ11ff_wtoupperE4cvt1
00019324 l     O .rodata	000000bc _ZZ11ff_wtoupperE4cvt2
00000000 l    df *ABS*	00000000 diskio.c
00000000 l    df *ABS*	00000000 nanojpeg.c
000158c8 l     F .text	0000015c _ZL10njShowBitsi.part.0
0001b664 l     O .bss	000802c8 _ZL2nj
00015a24 l     F .text	00000108 _ZL8njGetVLCP8_nj_codePh
0001b654 l     O .bss	00000010 _ZZL11njDecodeDHTvE6counts
0001974c l     O .rodata	00000040 _ZL4njZZ
00000000 l    df *ABS*	00000000 errno.c
00000000 l    df *ABS*	00000000 init.c
00000000 l    df *ABS*	00000000 malloc.c
00000000 l    df *ABS*	00000000 mallocr.c
00000000 l    df *ABS*	00000000 memcmp.c
00000000 l    df *ABS*	00000000 memcpy.c
00000000 l    df *ABS*	00000000 lib_a-memset.o
00000000 l    df *ABS*	00000000 mlock.c
00000000 l    df *ABS*	00000000 sbrkr.c
00000000 l    df *ABS*	00000000 strchr.c
00000000 l    df *ABS*	00000000 atexit.c
00000000 l    df *ABS*	00000000 fini.c
00000000 l    df *ABS*	00000000 mallocr.c
00000000 l    df *ABS*	00000000 __atexit.c
00000000 l    df *ABS*	00000000 sys_exit.c
00000000 l    df *ABS*	00000000 leds.c
00000000 l    df *ABS*	00000000 ps2.c
00000000 l    df *ABS*	00000000 memtest.c
00000000 l    df *ABS*	00000000 crtstuff.c
0001a928 l     O .eh_frame	00000000 __FRAME_END__
00000000 l    df *ABS*	00000000 impure.c
0001a988 l     O .data	00000428 impure_data
00000000 l    df *ABS*	00000000 spi.c
00000000 l    df *ABS*	00000000 libgcc2.c
0001a938 l       .fini_array	00000000 __fini_array_end
0001a934 l       .fini_array	00000000 __fini_array_start
0001a934 l       .init_array	00000000 __init_array_end
0001a92c l       .init_array	00000000 __preinit_array_end
0001a92c l       .init_array	00000000 __init_array_start
0001a92c l       .init_array	00000000 __preinit_array_start
0001b9b8 g       *ABS*	00000000 __global_pointer$
0001021c g     F .text	00000210 _Z10DecodeJPEGPKc
000184f8 g     F .text	00000004 __malloc_unlock
000112d0 g     F .text	00000280 _Z17SDReadSingleBlockmPhS_
000179b8 g     F .text	00000008 __errno
00010734 g     F .text	00000010 _Z11GPUSetVPagem
0001b1f0 g     O .sbss	00000004 errno
000156a4 g     F .text	00000158 ff_wtoupper
0001b1b8 g       .sdata	00000000 __SDATA_BEGIN__
00018274 g     F .text	000001a4 memcpy
00015808 g     F .text	00000030 disk_initialize
0001b1cc g     O .sdata	00000004 GPUFIFO
00017990 g     F .text	00000028 _Z10njGetImagev
00017a5c g     F .text	0000000c malloc
0001b1dc g     O .sbss	00000004 image
0001b1ec g     O .sbss	00000004 __malloc_top_pad
000157fc g     F .text	0000000c disk_status
000184fc g     F .text	0000005c _sbrk_r
00011750 g     F .text	0000017c _Z20SDReadMultipleBlocksPhmm
000158b8 g     F .text	00000010 disk_ioctl
0001b1e8 g     O .sbss	00000004 __malloc_max_sbrked_mem
0001b1b8 g     O .sdata	00000004 _global_impure_ptr
000179c0 g     F .text	0000009c __libc_init_array
0001797c g     F .text	00000014 _Z9njIsColorv
000106fc g     F .text	00000038 _sbrk
00015b44 g     F .text	0000006c _Z6njDonev
00017964 g     F .text	0000000c _Z10njGetWidthv
000155f4 g     F .text	00000078 ff_uni2oem
000187d0 g     F .text	0000005c __libc_fini_array
00017970 g     F .text	0000000c _Z11njGetHeightv
0001b1c8 g     O .sdata	00000004 IO_SPIRXTX
00015b2c g     F .text	00000018 _Z6njInitv
00018968 g     F .text	00000304 _free_r
00010ca8 g     F .text	00000168 _Z6SDIdlev
00018698 g     F .text	00000124 __call_exitprocs
000152cc g     F .text	00000328 f_close
0001b1d4 g     O .sdata	00000004 __malloc_sbrk_base
00010168 g     F .text	00000050 _start
00018c6c g     F .text	0000009c __register_exitproc
00014fdc g     F .text	000002f0 f_read
0009b92c g     O .bss	00000028 __malloc_current_mallinfo
00015bb0 g     F .text	00001db4 _Z8njDecodePKvi
0001068c g     F .text	00000070 _Z8E32Sleepy
000181fc g     F .text	00000078 memcmp
0009b954 g       .bss	00000000 __BSS_END__
0001adb0 g     O .data	00000408 __malloc_av_
000184f4 g     F .text	00000004 __malloc_lock
0001b1dc g       .sbss	00000000 __bss_start
00018418 g     F .text	000000dc memset
000100c8 g     F .text	00000088 main
0001b1e4 g     O .sbss	00000004 __malloc_max_total_mem
00010504 g     F .text	00000028 _Z9UARTWritePKc
00011024 g     F .text	000002ac _Z10SDCardInitv
00017a74 g     F .text	00000788 _malloc_r
00013ec4 g     F .text	000000a0 f_mount
00011550 g     F .text	00000200 _Z18SDWriteSingleBlockmPhS_
0001882c g     F .text	0000013c _malloc_trim_r
0001566c g     F .text	00000038 ff_oem2uni
0001b1c4 g     O .sdata	00000004 IO_SPICTL
00011d70 g     F .text	00000140 _Z13SDCardStartupv
00010760 g     F .text	00000548 _Z5SDCmd13SDCardCommandm
000187bc g     F .text	00000014 atexit
0001b1bc g     O .sdata	00000004 IO_UARTTX
00010e10 g     F .text	00000214 _Z19SDCheckVoltageRangev
0001b1d0 g     O .sdata	00000004 _impure_ptr
00011a44 g     F .text	0000032c _Z13SDCardControli
0001a938 g       .data	00000000 __DATA_BEGIN__
0001b1dc g       .sdata	00000000 _edata
0009b954 g       .bss	00000000 _end
0001042c g     F .text	000000d8 _Z5Setupv
0001b1d8 g     O .sdata	00000004 __malloc_trim_threshold
00013f64 g     F .text	00001078 f_open
00015878 g     F .text	00000040 disk_write
00010094 g     F .text	00000034 exit
00018d08 g     F .text	00000030 _exit
00010744 g     F .text	0000001c _Z9GPUSetPalhm
00015838 g     F .text	00000040 disk_read
00018558 g     F .text	00000140 strchr
0001a938 g     O .data	00000050 FRtoString
000118cc g     F .text	00000178 _Z21SDWriteMultipleBlocksPKhmm
0001b210 g     O .bss	00000238 Fs
0001052c g     F .text	00000160 _Z12UARTWriteHexm
00017a68 g     F .text	0000000c free



Disassembly of section .text:

00010094 <exit>:
   10094:	ff010113          	addi	sp,sp,-16
   10098:	00000593          	li	a1,0
   1009c:	00812423          	sw	s0,8(sp)
   100a0:	00112623          	sw	ra,12(sp)
   100a4:	00050413          	mv	s0,a0
   100a8:	5f0080ef          	jal	ra,18698 <__call_exitprocs>
   100ac:	0001b7b7          	lui	a5,0x1b
   100b0:	1b87a503          	lw	a0,440(a5) # 1b1b8 <_global_impure_ptr>
   100b4:	03c52783          	lw	a5,60(a0)
   100b8:	00078463          	beqz	a5,100c0 <exit+0x2c>
   100bc:	000780e7          	jalr	a5
   100c0:	00040513          	mv	a0,s0
   100c4:	445080ef          	jal	ra,18d08 <_exit>

000100c8 <main>:
   100c8:	ff010113          	addi	sp,sp,-16
   100cc:	00112623          	sw	ra,12(sp)
   100d0:	35c000ef          	jal	ra,1042c <_Z5Setupv>
   100d4:	00300513          	li	a0,3
   100d8:	16d010ef          	jal	ra,11a44 <_Z13SDCardControli>
   100dc:	00100613          	li	a2,1
   100e0:	00009597          	auipc	a1,0x9
   100e4:	c5858593          	addi	a1,a1,-936 # 18d38 <_exit+0x30>
   100e8:	0000b517          	auipc	a0,0xb
   100ec:	12850513          	addi	a0,a0,296 # 1b210 <Fs>
   100f0:	5d5030ef          	jal	ra,13ec4 <f_mount>
   100f4:	02051e63          	bnez	a0,10130 <main+0x68>
   100f8:	00038537          	lui	a0,0x38
   100fc:	40050513          	addi	a0,a0,1024 # 38400 <__global_pointer$+0x1ca48>
   10100:	15d070ef          	jal	ra,17a5c <malloc>
   10104:	00050793          	mv	a5,a0
   10108:	00009517          	auipc	a0,0x9
   1010c:	c3450513          	addi	a0,a0,-972 # 18d3c <_exit+0x34>
   10110:	82f1a223          	sw	a5,-2012(gp) # 1b1dc <image>
   10114:	108000ef          	jal	ra,1021c <_Z10DecodeJPEGPKc>
   10118:	00000513          	li	a0,0
   1011c:	129010ef          	jal	ra,11a44 <_Z13SDCardControli>
   10120:	00000513          	li	a0,0
   10124:	00c12083          	lw	ra,12(sp)
   10128:	01010113          	addi	sp,sp,16
   1012c:	00008067          	ret
   10130:	00251513          	slli	a0,a0,0x2
   10134:	0000b797          	auipc	a5,0xb
   10138:	80478793          	addi	a5,a5,-2044 # 1a938 <FRtoString>
   1013c:	00a787b3          	add	a5,a5,a0
   10140:	0007a503          	lw	a0,0(a5)
   10144:	3c0000ef          	jal	ra,10504 <_Z9UARTWritePKc>
   10148:	fff00513          	li	a0,-1
   1014c:	fd9ff06f          	j	10124 <main+0x5c>

00010150 <register_fini>:
   10150:	00000793          	li	a5,0
   10154:	00078863          	beqz	a5,10164 <register_fini+0x14>
   10158:	00018537          	lui	a0,0x18
   1015c:	7d050513          	addi	a0,a0,2000 # 187d0 <__libc_fini_array>
   10160:	65c0806f          	j	187bc <atexit>
   10164:	00008067          	ret

00010168 <_start>:
   10168:	0000c197          	auipc	gp,0xc
   1016c:	85018193          	addi	gp,gp,-1968 # 1b9b8 <__global_pointer$>
   10170:	82418513          	addi	a0,gp,-2012 # 1b1dc <image>
   10174:	0008b617          	auipc	a2,0x8b
   10178:	7e060613          	addi	a2,a2,2016 # 9b954 <__BSS_END__>
   1017c:	40a60633          	sub	a2,a2,a0
   10180:	00000593          	li	a1,0
   10184:	294080ef          	jal	ra,18418 <memset>
   10188:	00008517          	auipc	a0,0x8
   1018c:	63450513          	addi	a0,a0,1588 # 187bc <atexit>
   10190:	00050863          	beqz	a0,101a0 <_start+0x38>
   10194:	00008517          	auipc	a0,0x8
   10198:	63c50513          	addi	a0,a0,1596 # 187d0 <__libc_fini_array>
   1019c:	620080ef          	jal	ra,187bc <atexit>
   101a0:	021070ef          	jal	ra,179c0 <__libc_init_array>
   101a4:	00012503          	lw	a0,0(sp)
   101a8:	00410593          	addi	a1,sp,4
   101ac:	00000613          	li	a2,0
   101b0:	f19ff0ef          	jal	ra,100c8 <main>
   101b4:	ee1ff06f          	j	10094 <exit>

000101b8 <__do_global_dtors_aux>:
   101b8:	ff010113          	addi	sp,sp,-16
   101bc:	00812423          	sw	s0,8(sp)
   101c0:	83c1c783          	lbu	a5,-1988(gp) # 1b1f4 <completed.1>
   101c4:	00112623          	sw	ra,12(sp)
   101c8:	02079263          	bnez	a5,101ec <__do_global_dtors_aux+0x34>
   101cc:	00000793          	li	a5,0
   101d0:	00078a63          	beqz	a5,101e4 <__do_global_dtors_aux+0x2c>
   101d4:	0001a537          	lui	a0,0x1a
   101d8:	00050513          	mv	a0,a0
   101dc:	00000097          	auipc	ra,0x0
   101e0:	000000e7          	jalr	zero # 0 <exit-0x10094>
   101e4:	00100793          	li	a5,1
   101e8:	82f18e23          	sb	a5,-1988(gp) # 1b1f4 <completed.1>
   101ec:	00c12083          	lw	ra,12(sp)
   101f0:	00812403          	lw	s0,8(sp)
   101f4:	01010113          	addi	sp,sp,16
   101f8:	00008067          	ret

000101fc <frame_dummy>:
   101fc:	00000793          	li	a5,0
   10200:	00078c63          	beqz	a5,10218 <frame_dummy+0x1c>
   10204:	0001a537          	lui	a0,0x1a
   10208:	84018593          	addi	a1,gp,-1984 # 1b1f8 <object.0>
   1020c:	00050513          	mv	a0,a0
   10210:	00000317          	auipc	t1,0x0
   10214:	00000067          	jr	zero # 0 <exit-0x10094>
   10218:	00008067          	ret

0001021c <_Z10DecodeJPEGPKc>:
   1021c:	db010113          	addi	sp,sp,-592
   10220:	24112623          	sw	ra,588(sp)
   10224:	24812423          	sw	s0,584(sp)
   10228:	24912223          	sw	s1,580(sp)
   1022c:	00050413          	mv	s0,a0
   10230:	25212023          	sw	s2,576(sp)
   10234:	23312e23          	sw	s3,572(sp)
   10238:	23412c23          	sw	s4,568(sp)
   1023c:	23512a23          	sw	s5,564(sp)
   10240:	0ed050ef          	jal	ra,15b2c <_Z6njInitv>
   10244:	00100613          	li	a2,1
   10248:	00040593          	mv	a1,s0
   1024c:	00410513          	addi	a0,sp,4
   10250:	515030ef          	jal	ra,13f64 <f_open>
   10254:	82418493          	addi	s1,gp,-2012 # 1b1dc <image>
   10258:	02050c63          	beqz	a0,10290 <_Z10DecodeJPEGPKc+0x74>
   1025c:	0e9050ef          	jal	ra,15b44 <_Z6njDonev>
   10260:	fc000073          	.4byte	0xfc000073
   10264:	0004a503          	lw	a0,0(s1)
   10268:	4cc000ef          	jal	ra,10734 <_Z11GPUSetVPagem>
   1026c:	24c12083          	lw	ra,588(sp)
   10270:	24812403          	lw	s0,584(sp)
   10274:	24412483          	lw	s1,580(sp)
   10278:	24012903          	lw	s2,576(sp)
   1027c:	23c12983          	lw	s3,572(sp)
   10280:	23812a03          	lw	s4,568(sp)
   10284:	23412a83          	lw	s5,564(sp)
   10288:	25010113          	addi	sp,sp,592
   1028c:	00008067          	ret
   10290:	01012903          	lw	s2,16(sp)
   10294:	00090513          	mv	a0,s2
   10298:	7c4070ef          	jal	ra,17a5c <malloc>
   1029c:	00050593          	mv	a1,a0
   102a0:	00050413          	mv	s0,a0
   102a4:	00010693          	mv	a3,sp
   102a8:	00090613          	mv	a2,s2
   102ac:	00410513          	addi	a0,sp,4
   102b0:	52d040ef          	jal	ra,14fdc <f_read>
   102b4:	00410513          	addi	a0,sp,4
   102b8:	014050ef          	jal	ra,152cc <f_close>
   102bc:	01012583          	lw	a1,16(sp)
   102c0:	00040513          	mv	a0,s0
   102c4:	0ed050ef          	jal	ra,15bb0 <_Z8njDecodePKvi>
   102c8:	00050413          	mv	s0,a0
   102cc:	f80518e3          	bnez	a0,1025c <_Z10DecodeJPEGPKc+0x40>
   102d0:	694070ef          	jal	ra,17964 <_Z10njGetWidthv>
   102d4:	00050a13          	mv	s4,a0
   102d8:	698070ef          	jal	ra,17970 <_Z11njGetHeightv>
   102dc:	14000793          	li	a5,320
   102e0:	00050a93          	mv	s5,a0
   102e4:	000a0913          	mv	s2,s4
   102e8:	0147d463          	bge	a5,s4,102f0 <_Z10DecodeJPEGPKc+0xd4>
   102ec:	14000913          	li	s2,320
   102f0:	0d000793          	li	a5,208
   102f4:	000a8993          	mv	s3,s5
   102f8:	0157d463          	bge	a5,s5,10300 <_Z10DecodeJPEGPKc+0xe4>
   102fc:	0d000993          	li	s3,208
   10300:	690070ef          	jal	ra,17990 <_Z10njGetImagev>
   10304:	00050493          	mv	s1,a0
   10308:	674070ef          	jal	ra,1797c <_Z9njIsColorv>
   1030c:	04051863          	bnez	a0,1035c <_Z10DecodeJPEGPKc+0x140>
   10310:	11505a63          	blez	s5,10424 <_Z10DecodeJPEGPKc+0x208>
   10314:	00048613          	mv	a2,s1
   10318:	00000593          	li	a1,0
   1031c:	82418493          	addi	s1,gp,-2012 # 1b1dc <image>
   10320:	11405263          	blez	s4,10424 <_Z10DecodeJPEGPKc+0x208>
   10324:	00000713          	li	a4,0
   10328:	0004a783          	lw	a5,0(s1)
   1032c:	00e606b3          	add	a3,a2,a4
   10330:	0006c683          	lbu	a3,0(a3)
   10334:	008787b3          	add	a5,a5,s0
   10338:	00e787b3          	add	a5,a5,a4
   1033c:	00d78023          	sb	a3,0(a5)
   10340:	00170713          	addi	a4,a4,1
   10344:	ff2742e3          	blt	a4,s2,10328 <_Z10DecodeJPEGPKc+0x10c>
   10348:	00158593          	addi	a1,a1,1
   1034c:	14040413          	addi	s0,s0,320
   10350:	01460633          	add	a2,a2,s4
   10354:	fd35c8e3          	blt	a1,s3,10324 <_Z10DecodeJPEGPKc+0x108>
   10358:	f05ff06f          	j	1025c <_Z10DecodeJPEGPKc+0x40>
   1035c:	0d505463          	blez	s5,10424 <_Z10DecodeJPEGPKc+0x208>
   10360:	0d405263          	blez	s4,10424 <_Z10DecodeJPEGPKc+0x208>
   10364:	001a1e93          	slli	t4,s4,0x1
   10368:	00048513          	mv	a0,s1
   1036c:	014e8eb3          	add	t4,t4,s4
   10370:	00000e13          	li	t3,0
   10374:	00009317          	auipc	t1,0x9
   10378:	9d430313          	addi	t1,t1,-1580 # 18d48 <_ZL6dither>
   1037c:	82418493          	addi	s1,gp,-2012 # 1b1dc <image>
   10380:	0ff00813          	li	a6,255
   10384:	003e7893          	andi	a7,t3,3
   10388:	00050593          	mv	a1,a0
   1038c:	00000613          	li	a2,0
   10390:	00367793          	andi	a5,a2,3
   10394:	00279793          	slli	a5,a5,0x2
   10398:	00f307b3          	add	a5,t1,a5
   1039c:	011787b3          	add	a5,a5,a7
   103a0:	0007cf03          	lbu	t5,0(a5)
   103a4:	0005c783          	lbu	a5,0(a1)
   103a8:	01e787b3          	add	a5,a5,t5
   103ac:	00f85463          	bge	a6,a5,103b4 <_Z10DecodeJPEGPKc+0x198>
   103b0:	0ff00793          	li	a5,255
   103b4:	0015c703          	lbu	a4,1(a1)
   103b8:	0ff7f793          	zext.b	a5,a5
   103bc:	0057d693          	srli	a3,a5,0x5
   103c0:	01e70733          	add	a4,a4,t5
   103c4:	00e85463          	bge	a6,a4,103cc <_Z10DecodeJPEGPKc+0x1b0>
   103c8:	0ff00713          	li	a4,255
   103cc:	0025c783          	lbu	a5,2(a1)
   103d0:	0ff77713          	zext.b	a4,a4
   103d4:	00575713          	srli	a4,a4,0x5
   103d8:	01e787b3          	add	a5,a5,t5
   103dc:	00371713          	slli	a4,a4,0x3
   103e0:	00f85463          	bge	a6,a5,103e8 <_Z10DecodeJPEGPKc+0x1cc>
   103e4:	0ff00793          	li	a5,255
   103e8:	0004af03          	lw	t5,0(s1)
   103ec:	0c07f793          	andi	a5,a5,192
   103f0:	00e7e7b3          	or	a5,a5,a4
   103f4:	00cf0733          	add	a4,t5,a2
   103f8:	00870733          	add	a4,a4,s0
   103fc:	00d7e7b3          	or	a5,a5,a3
   10400:	00f70023          	sb	a5,0(a4)
   10404:	00160613          	addi	a2,a2,1
   10408:	00358593          	addi	a1,a1,3
   1040c:	f92642e3          	blt	a2,s2,10390 <_Z10DecodeJPEGPKc+0x174>
   10410:	001e0e13          	addi	t3,t3,1
   10414:	01d50533          	add	a0,a0,t4
   10418:	14040413          	addi	s0,s0,320
   1041c:	f73e44e3          	blt	t3,s3,10384 <_Z10DecodeJPEGPKc+0x168>
   10420:	e3dff06f          	j	1025c <_Z10DecodeJPEGPKc+0x40>
   10424:	82418493          	addi	s1,gp,-2012 # 1b1dc <image>
   10428:	e35ff06f          	j	1025c <_Z10DecodeJPEGPKc+0x40>

0001042c <_Z5Setupv>:
   1042c:	fc010113          	addi	sp,sp,-64
   10430:	03312623          	sw	s3,44(sp)
   10434:	000029b7          	lui	s3,0x2
   10438:	03412423          	sw	s4,40(sp)
   1043c:	01712e23          	sw	s7,28(sp)
   10440:	01812c23          	sw	s8,24(sp)
   10444:	01912a23          	sw	s9,20(sp)
   10448:	01a12823          	sw	s10,16(sp)
   1044c:	01b12623          	sw	s11,12(sp)
   10450:	02112e23          	sw	ra,60(sp)
   10454:	02812c23          	sw	s0,56(sp)
   10458:	02912a23          	sw	s1,52(sp)
   1045c:	03212823          	sw	s2,48(sp)
   10460:	03512223          	sw	s5,36(sp)
   10464:	03612023          	sw	s6,32(sp)
   10468:	00000b93          	li	s7,0
   1046c:	00000d13          	li	s10,0
   10470:	40098993          	addi	s3,s3,1024 # 2400 <exit-0xdc94>
   10474:	00012a37          	lui	s4,0x12
   10478:	00240cb7          	lui	s9,0x240
   1047c:	01200c37          	lui	s8,0x1200
   10480:	15400d93          	li	s11,340
   10484:	000d0b13          	mv	s6,s10
   10488:	00000a93          	li	s5,0
   1048c:	015be933          	or	s2,s7,s5
   10490:	000b0493          	mv	s1,s6
   10494:	00000413          	li	s0,0
   10498:	012465b3          	or	a1,s0,s2
   1049c:	0ff4f513          	zext.b	a0,s1
   104a0:	01340433          	add	s0,s0,s3
   104a4:	2a0000ef          	jal	ra,10744 <_Z9GPUSetPalhm>
   104a8:	00148493          	addi	s1,s1,1
   104ac:	ff4416e3          	bne	s0,s4,10498 <_Z5Setupv+0x6c>
   104b0:	019a8ab3          	add	s5,s5,s9
   104b4:	008b0b13          	addi	s6,s6,8
   104b8:	fd8a9ae3          	bne	s5,s8,1048c <_Z5Setupv+0x60>
   104bc:	055b8b93          	addi	s7,s7,85
   104c0:	040d0d13          	addi	s10,s10,64
   104c4:	fdbb90e3          	bne	s7,s11,10484 <_Z5Setupv+0x58>
   104c8:	03c12083          	lw	ra,60(sp)
   104cc:	03812403          	lw	s0,56(sp)
   104d0:	03412483          	lw	s1,52(sp)
   104d4:	03012903          	lw	s2,48(sp)
   104d8:	02c12983          	lw	s3,44(sp)
   104dc:	02812a03          	lw	s4,40(sp)
   104e0:	02412a83          	lw	s5,36(sp)
   104e4:	02012b03          	lw	s6,32(sp)
   104e8:	01c12b83          	lw	s7,28(sp)
   104ec:	01812c03          	lw	s8,24(sp)
   104f0:	01412c83          	lw	s9,20(sp)
   104f4:	01012d03          	lw	s10,16(sp)
   104f8:	00c12d83          	lw	s11,12(sp)
   104fc:	04010113          	addi	sp,sp,64
   10500:	00008067          	ret

00010504 <_Z9UARTWritePKc>:
   10504:	00054783          	lbu	a5,0(a0) # 1a000 <__EH_FRAME_BEGIN__>
   10508:	02078063          	beqz	a5,10528 <_Z9UARTWritePKc+0x24>
   1050c:	0000b717          	auipc	a4,0xb
   10510:	cb072703          	lw	a4,-848(a4) # 1b1bc <IO_UARTTX>
   10514:	00150513          	addi	a0,a0,1
   10518:	00f72023          	sw	a5,0(a4)
   1051c:	00054783          	lbu	a5,0(a0)
   10520:	00150513          	addi	a0,a0,1
   10524:	fe079ae3          	bnez	a5,10518 <_Z9UARTWritePKc+0x14>
   10528:	00008067          	ret

0001052c <_Z12UARTWriteHexm>:
   1052c:	00009617          	auipc	a2,0x9
   10530:	b3860613          	addi	a2,a2,-1224 # 19064 <_ZL6dither+0x31c>
   10534:	00862883          	lw	a7,8(a2)
   10538:	00062e03          	lw	t3,0(a2)
   1053c:	00462303          	lw	t1,4(a2)
   10540:	00c62803          	lw	a6,12(a2)
   10544:	01855713          	srli	a4,a0,0x18
   10548:	fe010113          	addi	sp,sp,-32
   1054c:	00c55693          	srli	a3,a0,0xc
   10550:	00855593          	srli	a1,a0,0x8
   10554:	00f77713          	andi	a4,a4,15
   10558:	01112a23          	sw	a7,20(sp)
   1055c:	01c55793          	srli	a5,a0,0x1c
   10560:	00455893          	srli	a7,a0,0x4
   10564:	00f6f693          	andi	a3,a3,15
   10568:	00f5f593          	andi	a1,a1,15
   1056c:	02070713          	addi	a4,a4,32
   10570:	01012c23          	sw	a6,24(sp)
   10574:	01c12623          	sw	t3,12(sp)
   10578:	00612823          	sw	t1,16(sp)
   1057c:	00270733          	add	a4,a4,sp
   10580:	01455813          	srli	a6,a0,0x14
   10584:	00f8f893          	andi	a7,a7,15
   10588:	02078793          	addi	a5,a5,32
   1058c:	02068693          	addi	a3,a3,32
   10590:	02058593          	addi	a1,a1,32
   10594:	fec74e83          	lbu	t4,-20(a4)
   10598:	002585b3          	add	a1,a1,sp
   1059c:	00f87813          	andi	a6,a6,15
   105a0:	02088713          	addi	a4,a7,32
   105a4:	002787b3          	add	a5,a5,sp
   105a8:	002686b3          	add	a3,a3,sp
   105ac:	002708b3          	add	a7,a4,sp
   105b0:	fec5cf03          	lbu	t5,-20(a1)
   105b4:	02080713          	addi	a4,a6,32
   105b8:	01055593          	srli	a1,a0,0x10
   105bc:	fec7c783          	lbu	a5,-20(a5)
   105c0:	fec6c683          	lbu	a3,-20(a3)
   105c4:	00270833          	add	a6,a4,sp
   105c8:	00f57513          	andi	a0,a0,15
   105cc:	ffff0737          	lui	a4,0xffff0
   105d0:	00f5f593          	andi	a1,a1,15
   105d4:	fec8ce03          	lbu	t3,-20(a7)
   105d8:	fec84303          	lbu	t1,-20(a6)
   105dc:	0ff70713          	addi	a4,a4,255 # ffff00ff <__BSS_END__+0xfff547ab>
   105e0:	02050513          	addi	a0,a0,32
   105e4:	02058593          	addi	a1,a1,32
   105e8:	00e6f6b3          	and	a3,a3,a4
   105ec:	00250533          	add	a0,a0,sp
   105f0:	008e9e93          	slli	t4,t4,0x8
   105f4:	002585b3          	add	a1,a1,sp
   105f8:	008f1f13          	slli	t5,t5,0x8
   105fc:	00e7f733          	and	a4,a5,a4
   10600:	ff010837          	lui	a6,0xff010
   10604:	fff80813          	addi	a6,a6,-1 # ff00ffff <__BSS_END__+0xfef746ab>
   10608:	fec54883          	lbu	a7,-20(a0)
   1060c:	01d76733          	or	a4,a4,t4
   10610:	fec5c503          	lbu	a0,-20(a1)
   10614:	01e6e6b3          	or	a3,a3,t5
   10618:	0106f6b3          	and	a3,a3,a6
   1061c:	01077733          	and	a4,a4,a6
   10620:	010e1e13          	slli	t3,t3,0x10
   10624:	01031313          	slli	t1,t1,0x10
   10628:	010005b7          	lui	a1,0x1000
   1062c:	01064e83          	lbu	t4,16(a2)
   10630:	fff58593          	addi	a1,a1,-1 # ffffff <__BSS_END__+0xf646ab>
   10634:	01c6e6b3          	or	a3,a3,t3
   10638:	00676733          	or	a4,a4,t1
   1063c:	01889813          	slli	a6,a7,0x18
   10640:	00b6f6b3          	and	a3,a3,a1
   10644:	01851613          	slli	a2,a0,0x18
   10648:	00b77733          	and	a4,a4,a1
   1064c:	0106e6b3          	or	a3,a3,a6
   10650:	00c76733          	or	a4,a4,a2
   10654:	01d10e23          	sb	t4,28(sp)
   10658:	00010423          	sb	zero,8(sp)
   1065c:	00e12023          	sw	a4,0(sp)
   10660:	00d12223          	sw	a3,4(sp)
   10664:	02078063          	beqz	a5,10684 <_Z12UARTWriteHexm+0x158>
   10668:	0000b697          	auipc	a3,0xb
   1066c:	b546a683          	lw	a3,-1196(a3) # 1b1bc <IO_UARTTX>
   10670:	00110713          	addi	a4,sp,1
   10674:	00170713          	addi	a4,a4,1
   10678:	00f6a023          	sw	a5,0(a3)
   1067c:	fff74783          	lbu	a5,-1(a4)
   10680:	fe079ae3          	bnez	a5,10674 <_Z12UARTWriteHexm+0x148>
   10684:	02010113          	addi	sp,sp,32
   10688:	00008067          	ret

0001068c <_Z8E32Sleepy>:
   1068c:	c80026f3          	rdcycleh	a3
   10690:	c0002773          	rdcycle	a4
   10694:	c80027f3          	rdcycleh	a5
   10698:	fef69ae3          	bne	a3,a5,1068c <_Z8E32Sleepy>
   1069c:	000067b7          	lui	a5,0x6
   106a0:	1a878793          	addi	a5,a5,424 # 61a8 <exit-0x9eec>
   106a4:	02f50833          	mul	a6,a0,a5
   106a8:	02f585b3          	mul	a1,a1,a5
   106ac:	01070833          	add	a6,a4,a6
   106b0:	00e83733          	sltu	a4,a6,a4
   106b4:	02f53533          	mulhu	a0,a0,a5
   106b8:	00a585b3          	add	a1,a1,a0
   106bc:	00b687b3          	add	a5,a3,a1
   106c0:	00f70733          	add	a4,a4,a5
   106c4:	c80027f3          	rdcycleh	a5
   106c8:	c00026f3          	rdcycle	a3
   106cc:	c8002673          	rdcycleh	a2
   106d0:	fec79ae3          	bne	a5,a2,106c4 <_Z8E32Sleepy+0x38>
   106d4:	00e7fe63          	bgeu	a5,a4,106f0 <_Z8E32Sleepy+0x64>
   106d8:	00000013          	nop
   106dc:	c80027f3          	rdcycleh	a5
   106e0:	c00026f3          	rdcycle	a3
   106e4:	c8002673          	rdcycleh	a2
   106e8:	fec79ae3          	bne	a5,a2,106dc <_Z8E32Sleepy+0x50>
   106ec:	fee7e6e3          	bltu	a5,a4,106d8 <_Z8E32Sleepy+0x4c>
   106f0:	00f71463          	bne	a4,a5,106f8 <_Z8E32Sleepy+0x6c>
   106f4:	ff06e2e3          	bltu	a3,a6,106d8 <_Z8E32Sleepy+0x4c>
   106f8:	00008067          	ret

000106fc <_sbrk>:
   106fc:	0000b697          	auipc	a3,0xb
   10700:	ac468693          	addi	a3,a3,-1340 # 1b1c0 <_ZL10heap_start>
   10704:	0006a783          	lw	a5,0(a3)
   10708:	1ffe0737          	lui	a4,0x1ffe0
   1070c:	02e78063          	beq	a5,a4,1072c <_sbrk+0x30>
   10710:	00a78633          	add	a2,a5,a0
   10714:	00e66863          	bltu	a2,a4,10724 <_sbrk+0x28>
   10718:	00e6a023          	sw	a4,0(a3)
   1071c:	00078513          	mv	a0,a5
   10720:	00008067          	ret
   10724:	00a60733          	add	a4,a2,a0
   10728:	ff1ff06f          	j	10718 <_sbrk+0x1c>
   1072c:	00000793          	li	a5,0
   10730:	fedff06f          	j	1071c <_sbrk+0x20>

00010734 <_Z11GPUSetVPagem>:
   10734:	8141a783          	lw	a5,-2028(gp) # 1b1cc <GPUFIFO>
   10738:	0007a023          	sw	zero,0(a5)
   1073c:	00a7a023          	sw	a0,0(a5)
   10740:	00008067          	ret

00010744 <_Z9GPUSetPalhm>:
   10744:	8141a783          	lw	a5,-2028(gp) # 1b1cc <GPUFIFO>
   10748:	01851513          	slli	a0,a0,0x18
   1074c:	00100713          	li	a4,1
   10750:	00e7a023          	sw	a4,0(a5)
   10754:	00b56533          	or	a0,a0,a1
   10758:	00a7a023          	sw	a0,0(a5)
   1075c:	00008067          	ret

00010760 <_Z5SDCmd13SDCardCommandm>:
   10760:	03f57613          	andi	a2,a0,63
   10764:	04066613          	ori	a2,a2,64
   10768:	00261793          	slli	a5,a2,0x2
   1076c:	01879793          	slli	a5,a5,0x18
   10770:	4187d793          	srai	a5,a5,0x18
   10774:	fed7c793          	xori	a5,a5,-19
   10778:	41f7d793          	srai	a5,a5,0x1f
   1077c:	ff77f793          	andi	a5,a5,-9
   10780:	01b78793          	addi	a5,a5,27
   10784:	00179793          	slli	a5,a5,0x1
   10788:	0ff7f793          	zext.b	a5,a5
   1078c:	00361713          	slli	a4,a2,0x3
   10790:	00e7c733          	xor	a4,a5,a4
   10794:	01871893          	slli	a7,a4,0x18
   10798:	0105d513          	srli	a0,a1,0x10
   1079c:	0085d693          	srli	a3,a1,0x8
   107a0:	4188d893          	srai	a7,a7,0x18
   107a4:	0185d813          	srli	a6,a1,0x18
   107a8:	0ff57513          	zext.b	a0,a0
   107ac:	0ff6f693          	zext.b	a3,a3
   107b0:	0ff5f713          	zext.b	a4,a1
   107b4:	0008d463          	bgez	a7,107bc <_Z5SDCmd13SDCardCommandm+0x5c>
   107b8:	0097c793          	xori	a5,a5,9
   107bc:	00179793          	slli	a5,a5,0x1
   107c0:	0ff7f793          	zext.b	a5,a5
   107c4:	00461593          	slli	a1,a2,0x4
   107c8:	00b7c5b3          	xor	a1,a5,a1
   107cc:	01859593          	slli	a1,a1,0x18
   107d0:	4185d593          	srai	a1,a1,0x18
   107d4:	0005d463          	bgez	a1,107dc <_Z5SDCmd13SDCardCommandm+0x7c>
   107d8:	0097c793          	xori	a5,a5,9
   107dc:	00179793          	slli	a5,a5,0x1
   107e0:	0ff7f793          	zext.b	a5,a5
   107e4:	00561593          	slli	a1,a2,0x5
   107e8:	00b7c5b3          	xor	a1,a5,a1
   107ec:	01859593          	slli	a1,a1,0x18
   107f0:	4185d593          	srai	a1,a1,0x18
   107f4:	0005d463          	bgez	a1,107fc <_Z5SDCmd13SDCardCommandm+0x9c>
   107f8:	0097c793          	xori	a5,a5,9
   107fc:	00179793          	slli	a5,a5,0x1
   10800:	0ff7f793          	zext.b	a5,a5
   10804:	00661593          	slli	a1,a2,0x6
   10808:	00b7c5b3          	xor	a1,a5,a1
   1080c:	01859593          	slli	a1,a1,0x18
   10810:	4185d593          	srai	a1,a1,0x18
   10814:	0005d463          	bgez	a1,1081c <_Z5SDCmd13SDCardCommandm+0xbc>
   10818:	0097c793          	xori	a5,a5,9
   1081c:	00179793          	slli	a5,a5,0x1
   10820:	0ff7f793          	zext.b	a5,a5
   10824:	00761593          	slli	a1,a2,0x7
   10828:	00b7c5b3          	xor	a1,a5,a1
   1082c:	01859593          	slli	a1,a1,0x18
   10830:	4185d593          	srai	a1,a1,0x18
   10834:	0005d463          	bgez	a1,1083c <_Z5SDCmd13SDCardCommandm+0xdc>
   10838:	0097c793          	xori	a5,a5,9
   1083c:	00179793          	slli	a5,a5,0x1
   10840:	0ff7f793          	zext.b	a5,a5
   10844:	00f845b3          	xor	a1,a6,a5
   10848:	01859593          	slli	a1,a1,0x18
   1084c:	4185d593          	srai	a1,a1,0x18
   10850:	0005d463          	bgez	a1,10858 <_Z5SDCmd13SDCardCommandm+0xf8>
   10854:	0097c793          	xori	a5,a5,9
   10858:	00179793          	slli	a5,a5,0x1
   1085c:	0ff7f793          	zext.b	a5,a5
   10860:	00181593          	slli	a1,a6,0x1
   10864:	00b7c5b3          	xor	a1,a5,a1
   10868:	01859593          	slli	a1,a1,0x18
   1086c:	4185d593          	srai	a1,a1,0x18
   10870:	0005d463          	bgez	a1,10878 <_Z5SDCmd13SDCardCommandm+0x118>
   10874:	0097c793          	xori	a5,a5,9
   10878:	00179793          	slli	a5,a5,0x1
   1087c:	0ff7f793          	zext.b	a5,a5
   10880:	00281593          	slli	a1,a6,0x2
   10884:	00b7c5b3          	xor	a1,a5,a1
   10888:	01859593          	slli	a1,a1,0x18
   1088c:	4185d593          	srai	a1,a1,0x18
   10890:	0005d463          	bgez	a1,10898 <_Z5SDCmd13SDCardCommandm+0x138>
   10894:	0097c793          	xori	a5,a5,9
   10898:	00179793          	slli	a5,a5,0x1
   1089c:	0ff7f793          	zext.b	a5,a5
   108a0:	00381593          	slli	a1,a6,0x3
   108a4:	00b7c5b3          	xor	a1,a5,a1
   108a8:	01859593          	slli	a1,a1,0x18
   108ac:	4185d593          	srai	a1,a1,0x18
   108b0:	0005d463          	bgez	a1,108b8 <_Z5SDCmd13SDCardCommandm+0x158>
   108b4:	0097c793          	xori	a5,a5,9
   108b8:	00179793          	slli	a5,a5,0x1
   108bc:	0ff7f793          	zext.b	a5,a5
   108c0:	00481593          	slli	a1,a6,0x4
   108c4:	00b7c5b3          	xor	a1,a5,a1
   108c8:	01859593          	slli	a1,a1,0x18
   108cc:	4185d593          	srai	a1,a1,0x18
   108d0:	0005d463          	bgez	a1,108d8 <_Z5SDCmd13SDCardCommandm+0x178>
   108d4:	0097c793          	xori	a5,a5,9
   108d8:	00179793          	slli	a5,a5,0x1
   108dc:	0ff7f793          	zext.b	a5,a5
   108e0:	00581593          	slli	a1,a6,0x5
   108e4:	00b7c5b3          	xor	a1,a5,a1
   108e8:	01859593          	slli	a1,a1,0x18
   108ec:	4185d593          	srai	a1,a1,0x18
   108f0:	0005d463          	bgez	a1,108f8 <_Z5SDCmd13SDCardCommandm+0x198>
   108f4:	0097c793          	xori	a5,a5,9
   108f8:	00179793          	slli	a5,a5,0x1
   108fc:	0ff7f793          	zext.b	a5,a5
   10900:	00681593          	slli	a1,a6,0x6
   10904:	00b7c5b3          	xor	a1,a5,a1
   10908:	01859593          	slli	a1,a1,0x18
   1090c:	4185d593          	srai	a1,a1,0x18
   10910:	0005d463          	bgez	a1,10918 <_Z5SDCmd13SDCardCommandm+0x1b8>
   10914:	0097c793          	xori	a5,a5,9
   10918:	00179793          	slli	a5,a5,0x1
   1091c:	0ff7f793          	zext.b	a5,a5
   10920:	00781593          	slli	a1,a6,0x7
   10924:	00b7c5b3          	xor	a1,a5,a1
   10928:	01859593          	slli	a1,a1,0x18
   1092c:	4185d593          	srai	a1,a1,0x18
   10930:	0005d463          	bgez	a1,10938 <_Z5SDCmd13SDCardCommandm+0x1d8>
   10934:	0097c793          	xori	a5,a5,9
   10938:	00179793          	slli	a5,a5,0x1
   1093c:	0ff7f793          	zext.b	a5,a5
   10940:	00f545b3          	xor	a1,a0,a5
   10944:	01859593          	slli	a1,a1,0x18
   10948:	4185d593          	srai	a1,a1,0x18
   1094c:	0005d463          	bgez	a1,10954 <_Z5SDCmd13SDCardCommandm+0x1f4>
   10950:	0097c793          	xori	a5,a5,9
   10954:	00179793          	slli	a5,a5,0x1
   10958:	0ff7f793          	zext.b	a5,a5
   1095c:	00151593          	slli	a1,a0,0x1
   10960:	00b7c5b3          	xor	a1,a5,a1
   10964:	01859593          	slli	a1,a1,0x18
   10968:	4185d593          	srai	a1,a1,0x18
   1096c:	0005d463          	bgez	a1,10974 <_Z5SDCmd13SDCardCommandm+0x214>
   10970:	0097c793          	xori	a5,a5,9
   10974:	00179793          	slli	a5,a5,0x1
   10978:	0ff7f793          	zext.b	a5,a5
   1097c:	00251593          	slli	a1,a0,0x2
   10980:	00b7c5b3          	xor	a1,a5,a1
   10984:	01859593          	slli	a1,a1,0x18
   10988:	4185d593          	srai	a1,a1,0x18
   1098c:	0005d463          	bgez	a1,10994 <_Z5SDCmd13SDCardCommandm+0x234>
   10990:	0097c793          	xori	a5,a5,9
   10994:	00179793          	slli	a5,a5,0x1
   10998:	0ff7f793          	zext.b	a5,a5
   1099c:	00351593          	slli	a1,a0,0x3
   109a0:	00b7c5b3          	xor	a1,a5,a1
   109a4:	01859593          	slli	a1,a1,0x18
   109a8:	4185d593          	srai	a1,a1,0x18
   109ac:	0005d463          	bgez	a1,109b4 <_Z5SDCmd13SDCardCommandm+0x254>
   109b0:	0097c793          	xori	a5,a5,9
   109b4:	00179793          	slli	a5,a5,0x1
   109b8:	0ff7f793          	zext.b	a5,a5
   109bc:	00451593          	slli	a1,a0,0x4
   109c0:	00b7c5b3          	xor	a1,a5,a1
   109c4:	01859593          	slli	a1,a1,0x18
   109c8:	4185d593          	srai	a1,a1,0x18
   109cc:	0005d463          	bgez	a1,109d4 <_Z5SDCmd13SDCardCommandm+0x274>
   109d0:	0097c793          	xori	a5,a5,9
   109d4:	00179793          	slli	a5,a5,0x1
   109d8:	0ff7f793          	zext.b	a5,a5
   109dc:	00551593          	slli	a1,a0,0x5
   109e0:	00b7c5b3          	xor	a1,a5,a1
   109e4:	01859593          	slli	a1,a1,0x18
   109e8:	4185d593          	srai	a1,a1,0x18
   109ec:	0005d463          	bgez	a1,109f4 <_Z5SDCmd13SDCardCommandm+0x294>
   109f0:	0097c793          	xori	a5,a5,9
   109f4:	00179793          	slli	a5,a5,0x1
   109f8:	0ff7f793          	zext.b	a5,a5
   109fc:	00651593          	slli	a1,a0,0x6
   10a00:	00b7c5b3          	xor	a1,a5,a1
   10a04:	01859593          	slli	a1,a1,0x18
   10a08:	4185d593          	srai	a1,a1,0x18
   10a0c:	0005d463          	bgez	a1,10a14 <_Z5SDCmd13SDCardCommandm+0x2b4>
   10a10:	0097c793          	xori	a5,a5,9
   10a14:	00179793          	slli	a5,a5,0x1
   10a18:	0ff7f793          	zext.b	a5,a5
   10a1c:	00751593          	slli	a1,a0,0x7
   10a20:	00b7c5b3          	xor	a1,a5,a1
   10a24:	01859593          	slli	a1,a1,0x18
   10a28:	4185d593          	srai	a1,a1,0x18
   10a2c:	0005d463          	bgez	a1,10a34 <_Z5SDCmd13SDCardCommandm+0x2d4>
   10a30:	0097c793          	xori	a5,a5,9
   10a34:	00179793          	slli	a5,a5,0x1
   10a38:	0ff7f793          	zext.b	a5,a5
   10a3c:	00f6c5b3          	xor	a1,a3,a5
   10a40:	01859593          	slli	a1,a1,0x18
   10a44:	4185d593          	srai	a1,a1,0x18
   10a48:	0005d463          	bgez	a1,10a50 <_Z5SDCmd13SDCardCommandm+0x2f0>
   10a4c:	0097c793          	xori	a5,a5,9
   10a50:	00179793          	slli	a5,a5,0x1
   10a54:	0ff7f793          	zext.b	a5,a5
   10a58:	00169593          	slli	a1,a3,0x1
   10a5c:	00b7c5b3          	xor	a1,a5,a1
   10a60:	01859593          	slli	a1,a1,0x18
   10a64:	4185d593          	srai	a1,a1,0x18
   10a68:	0005d463          	bgez	a1,10a70 <_Z5SDCmd13SDCardCommandm+0x310>
   10a6c:	0097c793          	xori	a5,a5,9
   10a70:	00179793          	slli	a5,a5,0x1
   10a74:	0ff7f793          	zext.b	a5,a5
   10a78:	00269593          	slli	a1,a3,0x2
   10a7c:	00b7c5b3          	xor	a1,a5,a1
   10a80:	01859593          	slli	a1,a1,0x18
   10a84:	4185d593          	srai	a1,a1,0x18
   10a88:	0005d463          	bgez	a1,10a90 <_Z5SDCmd13SDCardCommandm+0x330>
   10a8c:	0097c793          	xori	a5,a5,9
   10a90:	00179793          	slli	a5,a5,0x1
   10a94:	0ff7f793          	zext.b	a5,a5
   10a98:	00369593          	slli	a1,a3,0x3
   10a9c:	00b7c5b3          	xor	a1,a5,a1
   10aa0:	01859593          	slli	a1,a1,0x18
   10aa4:	4185d593          	srai	a1,a1,0x18
   10aa8:	0005d463          	bgez	a1,10ab0 <_Z5SDCmd13SDCardCommandm+0x350>
   10aac:	0097c793          	xori	a5,a5,9
   10ab0:	00179793          	slli	a5,a5,0x1
   10ab4:	0ff7f793          	zext.b	a5,a5
   10ab8:	00469593          	slli	a1,a3,0x4
   10abc:	00b7c5b3          	xor	a1,a5,a1
   10ac0:	01859593          	slli	a1,a1,0x18
   10ac4:	4185d593          	srai	a1,a1,0x18
   10ac8:	0005d463          	bgez	a1,10ad0 <_Z5SDCmd13SDCardCommandm+0x370>
   10acc:	0097c793          	xori	a5,a5,9
   10ad0:	00179793          	slli	a5,a5,0x1
   10ad4:	0ff7f793          	zext.b	a5,a5
   10ad8:	00569593          	slli	a1,a3,0x5
   10adc:	00b7c5b3          	xor	a1,a5,a1
   10ae0:	01859593          	slli	a1,a1,0x18
   10ae4:	4185d593          	srai	a1,a1,0x18
   10ae8:	0005d463          	bgez	a1,10af0 <_Z5SDCmd13SDCardCommandm+0x390>
   10aec:	0097c793          	xori	a5,a5,9
   10af0:	00179793          	slli	a5,a5,0x1
   10af4:	0ff7f793          	zext.b	a5,a5
   10af8:	00669593          	slli	a1,a3,0x6
   10afc:	00b7c5b3          	xor	a1,a5,a1
   10b00:	01859593          	slli	a1,a1,0x18
   10b04:	4185d593          	srai	a1,a1,0x18
   10b08:	0005d463          	bgez	a1,10b10 <_Z5SDCmd13SDCardCommandm+0x3b0>
   10b0c:	0097c793          	xori	a5,a5,9
   10b10:	00179793          	slli	a5,a5,0x1
   10b14:	0ff7f793          	zext.b	a5,a5
   10b18:	00769593          	slli	a1,a3,0x7
   10b1c:	00b7c5b3          	xor	a1,a5,a1
   10b20:	01859593          	slli	a1,a1,0x18
   10b24:	4185d593          	srai	a1,a1,0x18
   10b28:	0005d463          	bgez	a1,10b30 <_Z5SDCmd13SDCardCommandm+0x3d0>
   10b2c:	0097c793          	xori	a5,a5,9
   10b30:	00179793          	slli	a5,a5,0x1
   10b34:	0ff7f793          	zext.b	a5,a5
   10b38:	00f745b3          	xor	a1,a4,a5
   10b3c:	01859593          	slli	a1,a1,0x18
   10b40:	4185d593          	srai	a1,a1,0x18
   10b44:	0005d463          	bgez	a1,10b4c <_Z5SDCmd13SDCardCommandm+0x3ec>
   10b48:	0097c793          	xori	a5,a5,9
   10b4c:	00179793          	slli	a5,a5,0x1
   10b50:	0ff7f793          	zext.b	a5,a5
   10b54:	00171593          	slli	a1,a4,0x1
   10b58:	00b7c5b3          	xor	a1,a5,a1
   10b5c:	01859593          	slli	a1,a1,0x18
   10b60:	4185d593          	srai	a1,a1,0x18
   10b64:	0005d463          	bgez	a1,10b6c <_Z5SDCmd13SDCardCommandm+0x40c>
   10b68:	0097c793          	xori	a5,a5,9
   10b6c:	00179793          	slli	a5,a5,0x1
   10b70:	0ff7f793          	zext.b	a5,a5
   10b74:	00271593          	slli	a1,a4,0x2
   10b78:	00b7c5b3          	xor	a1,a5,a1
   10b7c:	01859593          	slli	a1,a1,0x18
   10b80:	4185d593          	srai	a1,a1,0x18
   10b84:	0005d463          	bgez	a1,10b8c <_Z5SDCmd13SDCardCommandm+0x42c>
   10b88:	0097c793          	xori	a5,a5,9
   10b8c:	00179793          	slli	a5,a5,0x1
   10b90:	0ff7f793          	zext.b	a5,a5
   10b94:	00371593          	slli	a1,a4,0x3
   10b98:	00b7c5b3          	xor	a1,a5,a1
   10b9c:	01859593          	slli	a1,a1,0x18
   10ba0:	4185d593          	srai	a1,a1,0x18
   10ba4:	0005d463          	bgez	a1,10bac <_Z5SDCmd13SDCardCommandm+0x44c>
   10ba8:	0097c793          	xori	a5,a5,9
   10bac:	00179793          	slli	a5,a5,0x1
   10bb0:	0ff7f793          	zext.b	a5,a5
   10bb4:	00471593          	slli	a1,a4,0x4
   10bb8:	00b7c5b3          	xor	a1,a5,a1
   10bbc:	01859593          	slli	a1,a1,0x18
   10bc0:	4185d593          	srai	a1,a1,0x18
   10bc4:	0005d463          	bgez	a1,10bcc <_Z5SDCmd13SDCardCommandm+0x46c>
   10bc8:	0097c793          	xori	a5,a5,9
   10bcc:	00179793          	slli	a5,a5,0x1
   10bd0:	0ff7f793          	zext.b	a5,a5
   10bd4:	00571593          	slli	a1,a4,0x5
   10bd8:	00b7c5b3          	xor	a1,a5,a1
   10bdc:	01859593          	slli	a1,a1,0x18
   10be0:	4185d593          	srai	a1,a1,0x18
   10be4:	0005d463          	bgez	a1,10bec <_Z5SDCmd13SDCardCommandm+0x48c>
   10be8:	0097c793          	xori	a5,a5,9
   10bec:	00179793          	slli	a5,a5,0x1
   10bf0:	0ff7f793          	zext.b	a5,a5
   10bf4:	00671593          	slli	a1,a4,0x6
   10bf8:	00b7c5b3          	xor	a1,a5,a1
   10bfc:	01859593          	slli	a1,a1,0x18
   10c00:	4185d593          	srai	a1,a1,0x18
   10c04:	0005d463          	bgez	a1,10c0c <_Z5SDCmd13SDCardCommandm+0x4ac>
   10c08:	0097c793          	xori	a5,a5,9
   10c0c:	00179793          	slli	a5,a5,0x1
   10c10:	0ff7f793          	zext.b	a5,a5
   10c14:	00771593          	slli	a1,a4,0x7
   10c18:	00b7c5b3          	xor	a1,a5,a1
   10c1c:	01859593          	slli	a1,a1,0x18
   10c20:	4185d593          	srai	a1,a1,0x18
   10c24:	0005d463          	bgez	a1,10c2c <_Z5SDCmd13SDCardCommandm+0x4cc>
   10c28:	0097c793          	xori	a5,a5,9
   10c2c:	81018593          	addi	a1,gp,-2032 # 1b1c8 <IO_SPIRXTX>
   10c30:	0005a303          	lw	t1,0(a1)
   10c34:	fff00893          	li	a7,-1
   10c38:	00179793          	slli	a5,a5,0x1
   10c3c:	01130023          	sb	a7,0(t1)
   10c40:	0005a303          	lw	t1,0(a1)
   10c44:	0017e793          	ori	a5,a5,1
   10c48:	0ff7f793          	zext.b	a5,a5
   10c4c:	00034e03          	lbu	t3,0(t1)
   10c50:	00c30023          	sb	a2,0(t1)
   10c54:	0005a603          	lw	a2,0(a1)
   10c58:	00064303          	lbu	t1,0(a2)
   10c5c:	01060023          	sb	a6,0(a2)
   10c60:	0005a603          	lw	a2,0(a1)
   10c64:	00064803          	lbu	a6,0(a2)
   10c68:	00a60023          	sb	a0,0(a2)
   10c6c:	0005a603          	lw	a2,0(a1)
   10c70:	00064503          	lbu	a0,0(a2)
   10c74:	00d60023          	sb	a3,0(a2)
   10c78:	0005a683          	lw	a3,0(a1)
   10c7c:	0006c603          	lbu	a2,0(a3)
   10c80:	00e68023          	sb	a4,0(a3)
   10c84:	0005a703          	lw	a4,0(a1)
   10c88:	00074683          	lbu	a3,0(a4) # 1ffe0000 <__BSS_END__+0x1ff446ac>
   10c8c:	00f70023          	sb	a5,0(a4)
   10c90:	0005a783          	lw	a5,0(a1)
   10c94:	0007c503          	lbu	a0,0(a5)
   10c98:	01178023          	sb	a7,0(a5)
   10c9c:	0005a783          	lw	a5,0(a1)
   10ca0:	0007c783          	lbu	a5,0(a5)
   10ca4:	00008067          	ret

00010ca8 <_Z6SDIdlev>:
   10ca8:	ff010113          	addi	sp,sp,-16
   10cac:	00812423          	sw	s0,8(sp)
   10cb0:	81018413          	addi	s0,gp,-2032 # 1b1c8 <IO_SPIRXTX>
   10cb4:	00042703          	lw	a4,0(s0)
   10cb8:	00112623          	sw	ra,12(sp)
   10cbc:	00912223          	sw	s1,4(sp)
   10cc0:	fff00793          	li	a5,-1
   10cc4:	00f70023          	sb	a5,0(a4)
   10cc8:	00042703          	lw	a4,0(s0)
   10ccc:	00000593          	li	a1,0
   10cd0:	00000513          	li	a0,0
   10cd4:	00074683          	lbu	a3,0(a4)
   10cd8:	00f70023          	sb	a5,0(a4)
   10cdc:	00042703          	lw	a4,0(s0)
   10ce0:	00074683          	lbu	a3,0(a4)
   10ce4:	00f70023          	sb	a5,0(a4)
   10ce8:	00042703          	lw	a4,0(s0)
   10cec:	00074683          	lbu	a3,0(a4)
   10cf0:	00f70023          	sb	a5,0(a4)
   10cf4:	00042703          	lw	a4,0(s0)
   10cf8:	00074683          	lbu	a3,0(a4)
   10cfc:	00f70023          	sb	a5,0(a4)
   10d00:	00042703          	lw	a4,0(s0)
   10d04:	00074683          	lbu	a3,0(a4)
   10d08:	00f70023          	sb	a5,0(a4)
   10d0c:	00042703          	lw	a4,0(s0)
   10d10:	00074683          	lbu	a3,0(a4)
   10d14:	00f70023          	sb	a5,0(a4)
   10d18:	00042703          	lw	a4,0(s0)
   10d1c:	00074683          	lbu	a3,0(a4)
   10d20:	00f70023          	sb	a5,0(a4)
   10d24:	00042783          	lw	a5,0(s0)
   10d28:	0007c783          	lbu	a5,0(a5)
   10d2c:	a35ff0ef          	jal	ra,10760 <_Z5SDCmd13SDCardCommandm>
   10d30:	00010737          	lui	a4,0x10
   10d34:	00042783          	lw	a5,0(s0)
   10d38:	00170713          	addi	a4,a4,1 # 10001 <exit-0x93>
   10d3c:	fff00593          	li	a1,-1
   10d40:	0ff00613          	li	a2,255
   10d44:	0080006f          	j	10d4c <_Z6SDIdlev+0xa4>
   10d48:	0a070063          	beqz	a4,10de8 <_Z6SDIdlev+0x140>
   10d4c:	00b78023          	sb	a1,0(a5)
   10d50:	00042783          	lw	a5,0(s0)
   10d54:	fff70713          	addi	a4,a4,-1
   10d58:	0007c683          	lbu	a3,0(a5)
   10d5c:	0ff6f493          	zext.b	s1,a3
   10d60:	fec684e3          	beq	a3,a2,10d48 <_Z6SDIdlev+0xa0>
   10d64:	00100713          	li	a4,1
   10d68:	08e49063          	bne	s1,a4,10de8 <_Z6SDIdlev+0x140>
   10d6c:	fff00713          	li	a4,-1
   10d70:	00e78023          	sb	a4,0(a5)
   10d74:	00042783          	lw	a5,0(s0)
   10d78:	00048513          	mv	a0,s1
   10d7c:	0007c683          	lbu	a3,0(a5)
   10d80:	00e78023          	sb	a4,0(a5)
   10d84:	00042783          	lw	a5,0(s0)
   10d88:	0007c683          	lbu	a3,0(a5)
   10d8c:	00e78023          	sb	a4,0(a5)
   10d90:	00042783          	lw	a5,0(s0)
   10d94:	0007c683          	lbu	a3,0(a5)
   10d98:	00e78023          	sb	a4,0(a5)
   10d9c:	00042783          	lw	a5,0(s0)
   10da0:	0007c683          	lbu	a3,0(a5)
   10da4:	00e78023          	sb	a4,0(a5)
   10da8:	00042783          	lw	a5,0(s0)
   10dac:	0007c683          	lbu	a3,0(a5)
   10db0:	00e78023          	sb	a4,0(a5)
   10db4:	00042783          	lw	a5,0(s0)
   10db8:	0007c683          	lbu	a3,0(a5)
   10dbc:	00e78023          	sb	a4,0(a5)
   10dc0:	00042783          	lw	a5,0(s0)
   10dc4:	0007c683          	lbu	a3,0(a5)
   10dc8:	00e78023          	sb	a4,0(a5)
   10dcc:	00042783          	lw	a5,0(s0)
   10dd0:	00c12083          	lw	ra,12(sp)
   10dd4:	00812403          	lw	s0,8(sp)
   10dd8:	00412483          	lw	s1,4(sp)
   10ddc:	0007c783          	lbu	a5,0(a5)
   10de0:	01010113          	addi	sp,sp,16
   10de4:	00008067          	ret
   10de8:	00008517          	auipc	a0,0x8
   10dec:	29050513          	addi	a0,a0,656 # 19078 <_ZL6dither+0x330>
   10df0:	f14ff0ef          	jal	ra,10504 <_Z9UARTWritePKc>
   10df4:	00048513          	mv	a0,s1
   10df8:	f34ff0ef          	jal	ra,1052c <_Z12UARTWriteHexm>
   10dfc:	00008517          	auipc	a0,0x8
   10e00:	fb050513          	addi	a0,a0,-80 # 18dac <_ZL6dither+0x64>
   10e04:	f00ff0ef          	jal	ra,10504 <_Z9UARTWritePKc>
   10e08:	00042783          	lw	a5,0(s0)
   10e0c:	f61ff06f          	j	10d6c <_Z6SDIdlev+0xc4>

00010e10 <_Z19SDCheckVoltageRangev>:
   10e10:	ff010113          	addi	sp,sp,-16
   10e14:	00812423          	sw	s0,8(sp)
   10e18:	81018413          	addi	s0,gp,-2032 # 1b1c8 <IO_SPIRXTX>
   10e1c:	00042703          	lw	a4,0(s0)
   10e20:	00112623          	sw	ra,12(sp)
   10e24:	00912223          	sw	s1,4(sp)
   10e28:	01212023          	sw	s2,0(sp)
   10e2c:	fff00793          	li	a5,-1
   10e30:	00f70023          	sb	a5,0(a4)
   10e34:	00042703          	lw	a4,0(s0)
   10e38:	1aa00593          	li	a1,426
   10e3c:	00800513          	li	a0,8
   10e40:	00074683          	lbu	a3,0(a4)
   10e44:	00f70023          	sb	a5,0(a4)
   10e48:	00042703          	lw	a4,0(s0)
   10e4c:	00074683          	lbu	a3,0(a4)
   10e50:	00f70023          	sb	a5,0(a4)
   10e54:	00042703          	lw	a4,0(s0)
   10e58:	00074683          	lbu	a3,0(a4)
   10e5c:	00f70023          	sb	a5,0(a4)
   10e60:	00042703          	lw	a4,0(s0)
   10e64:	00074683          	lbu	a3,0(a4)
   10e68:	00f70023          	sb	a5,0(a4)
   10e6c:	00042703          	lw	a4,0(s0)
   10e70:	00074683          	lbu	a3,0(a4)
   10e74:	00f70023          	sb	a5,0(a4)
   10e78:	00042703          	lw	a4,0(s0)
   10e7c:	00074683          	lbu	a3,0(a4)
   10e80:	00f70023          	sb	a5,0(a4)
   10e84:	00042703          	lw	a4,0(s0)
   10e88:	00074683          	lbu	a3,0(a4)
   10e8c:	00f70023          	sb	a5,0(a4)
   10e90:	00042783          	lw	a5,0(s0)
   10e94:	0007c783          	lbu	a5,0(a5)
   10e98:	8c9ff0ef          	jal	ra,10760 <_Z5SDCmd13SDCardCommandm>
   10e9c:	000107b7          	lui	a5,0x10
   10ea0:	00042703          	lw	a4,0(s0)
   10ea4:	00178793          	addi	a5,a5,1 # 10001 <exit-0x93>
   10ea8:	fff00613          	li	a2,-1
   10eac:	0ff00593          	li	a1,255
   10eb0:	0080006f          	j	10eb8 <_Z19SDCheckVoltageRangev+0xa8>
   10eb4:	0e078e63          	beqz	a5,10fb0 <_Z19SDCheckVoltageRangev+0x1a0>
   10eb8:	00c70023          	sb	a2,0(a4)
   10ebc:	00042703          	lw	a4,0(s0)
   10ec0:	fff78793          	addi	a5,a5,-1
   10ec4:	00074683          	lbu	a3,0(a4)
   10ec8:	0ff6f493          	zext.b	s1,a3
   10ecc:	feb684e3          	beq	a3,a1,10eb4 <_Z19SDCheckVoltageRangev+0xa4>
   10ed0:	00100693          	li	a3,1
   10ed4:	0c96ee63          	bltu	a3,s1,10fb0 <_Z19SDCheckVoltageRangev+0x1a0>
   10ed8:	00c70023          	sb	a2,0(a4)
   10edc:	00042783          	lw	a5,0(s0)
   10ee0:	0007c903          	lbu	s2,0(a5)
   10ee4:	00c78023          	sb	a2,0(a5)
   10ee8:	00042703          	lw	a4,0(s0)
   10eec:	01891913          	slli	s2,s2,0x18
   10ef0:	00074783          	lbu	a5,0(a4)
   10ef4:	00c70023          	sb	a2,0(a4)
   10ef8:	00042703          	lw	a4,0(s0)
   10efc:	01079793          	slli	a5,a5,0x10
   10f00:	00f96933          	or	s2,s2,a5
   10f04:	00074783          	lbu	a5,0(a4)
   10f08:	00c70023          	sb	a2,0(a4)
   10f0c:	00042703          	lw	a4,0(s0)
   10f10:	00879793          	slli	a5,a5,0x8
   10f14:	00074703          	lbu	a4,0(a4)
   10f18:	00e96933          	or	s2,s2,a4
   10f1c:	00f96933          	or	s2,s2,a5
   10f20:	0cd49e63          	bne	s1,a3,10ffc <_Z19SDCheckVoltageRangev+0x1ec>
   10f24:	1aa00793          	li	a5,426
   10f28:	0af91863          	bne	s2,a5,10fd8 <_Z19SDCheckVoltageRangev+0x1c8>
   10f2c:	00042703          	lw	a4,0(s0)
   10f30:	fff00793          	li	a5,-1
   10f34:	00048513          	mv	a0,s1
   10f38:	00f70023          	sb	a5,0(a4)
   10f3c:	00042703          	lw	a4,0(s0)
   10f40:	00074683          	lbu	a3,0(a4)
   10f44:	00f70023          	sb	a5,0(a4)
   10f48:	00042703          	lw	a4,0(s0)
   10f4c:	00074683          	lbu	a3,0(a4)
   10f50:	00f70023          	sb	a5,0(a4)
   10f54:	00042703          	lw	a4,0(s0)
   10f58:	00074683          	lbu	a3,0(a4)
   10f5c:	00f70023          	sb	a5,0(a4)
   10f60:	00042703          	lw	a4,0(s0)
   10f64:	00074683          	lbu	a3,0(a4)
   10f68:	00f70023          	sb	a5,0(a4)
   10f6c:	00042703          	lw	a4,0(s0)
   10f70:	00074683          	lbu	a3,0(a4)
   10f74:	00f70023          	sb	a5,0(a4)
   10f78:	00042703          	lw	a4,0(s0)
   10f7c:	00074683          	lbu	a3,0(a4)
   10f80:	00f70023          	sb	a5,0(a4)
   10f84:	00042703          	lw	a4,0(s0)
   10f88:	00074683          	lbu	a3,0(a4)
   10f8c:	00f70023          	sb	a5,0(a4)
   10f90:	00042783          	lw	a5,0(s0)
   10f94:	00c12083          	lw	ra,12(sp)
   10f98:	00812403          	lw	s0,8(sp)
   10f9c:	00412483          	lw	s1,4(sp)
   10fa0:	00012903          	lw	s2,0(sp)
   10fa4:	0007c783          	lbu	a5,0(a5)
   10fa8:	01010113          	addi	sp,sp,16
   10fac:	00008067          	ret
   10fb0:	00008517          	auipc	a0,0x8
   10fb4:	0e850513          	addi	a0,a0,232 # 19098 <_ZL6dither+0x350>
   10fb8:	d4cff0ef          	jal	ra,10504 <_Z9UARTWritePKc>
   10fbc:	0ff00513          	li	a0,255
   10fc0:	d6cff0ef          	jal	ra,1052c <_Z12UARTWriteHexm>
   10fc4:	00008517          	auipc	a0,0x8
   10fc8:	de850513          	addi	a0,a0,-536 # 18dac <_ZL6dither+0x64>
   10fcc:	d38ff0ef          	jal	ra,10504 <_Z9UARTWritePKc>
   10fd0:	00000913          	li	s2,0
   10fd4:	0ff00493          	li	s1,255
   10fd8:	00008517          	auipc	a0,0x8
   10fdc:	0ec50513          	addi	a0,a0,236 # 190c4 <_ZL6dither+0x37c>
   10fe0:	d24ff0ef          	jal	ra,10504 <_Z9UARTWritePKc>
   10fe4:	00090513          	mv	a0,s2
   10fe8:	d44ff0ef          	jal	ra,1052c <_Z12UARTWriteHexm>
   10fec:	00008517          	auipc	a0,0x8
   10ff0:	dc050513          	addi	a0,a0,-576 # 18dac <_ZL6dither+0x64>
   10ff4:	d10ff0ef          	jal	ra,10504 <_Z9UARTWritePKc>
   10ff8:	f35ff06f          	j	10f2c <_Z19SDCheckVoltageRangev+0x11c>
   10ffc:	00008517          	auipc	a0,0x8
   11000:	09c50513          	addi	a0,a0,156 # 19098 <_ZL6dither+0x350>
   11004:	d00ff0ef          	jal	ra,10504 <_Z9UARTWritePKc>
   11008:	00000513          	li	a0,0
   1100c:	d20ff0ef          	jal	ra,1052c <_Z12UARTWriteHexm>
   11010:	00008517          	auipc	a0,0x8
   11014:	d9c50513          	addi	a0,a0,-612 # 18dac <_ZL6dither+0x64>
   11018:	cecff0ef          	jal	ra,10504 <_Z9UARTWritePKc>
   1101c:	00000493          	li	s1,0
   11020:	f05ff06f          	j	10f24 <_Z19SDCheckVoltageRangev+0x114>

00011024 <_Z10SDCardInitv>:
   11024:	ff010113          	addi	sp,sp,-16
   11028:	00812423          	sw	s0,8(sp)
   1102c:	81018413          	addi	s0,gp,-2032 # 1b1c8 <IO_SPIRXTX>
   11030:	00042703          	lw	a4,0(s0)
   11034:	00112623          	sw	ra,12(sp)
   11038:	00912223          	sw	s1,4(sp)
   1103c:	01212023          	sw	s2,0(sp)
   11040:	fff00793          	li	a5,-1
   11044:	00f70023          	sb	a5,0(a4)
   11048:	00042703          	lw	a4,0(s0)
   1104c:	00010537          	lui	a0,0x10
   11050:	fff00613          	li	a2,-1
   11054:	00074683          	lbu	a3,0(a4)
   11058:	00f70023          	sb	a5,0(a4)
   1105c:	00042703          	lw	a4,0(s0)
   11060:	07700893          	li	a7,119
   11064:	06500e93          	li	t4,101
   11068:	00074683          	lbu	a3,0(a4)
   1106c:	00f70023          	sb	a5,0(a4)
   11070:	00042703          	lw	a4,0(s0)
   11074:	00010837          	lui	a6,0x10
   11078:	0ff00593          	li	a1,255
   1107c:	00074683          	lbu	a3,0(a4)
   11080:	00f70023          	sb	a5,0(a4)
   11084:	00042703          	lw	a4,0(s0)
   11088:	06900e13          	li	t3,105
   1108c:	04000313          	li	t1,64
   11090:	00074683          	lbu	a3,0(a4)
   11094:	00f70023          	sb	a5,0(a4)
   11098:	00042703          	lw	a4,0(s0)
   1109c:	00074683          	lbu	a3,0(a4)
   110a0:	00f70023          	sb	a5,0(a4)
   110a4:	00042703          	lw	a4,0(s0)
   110a8:	00074683          	lbu	a3,0(a4)
   110ac:	00f70023          	sb	a5,0(a4)
   110b0:	00042703          	lw	a4,0(s0)
   110b4:	00074683          	lbu	a3,0(a4)
   110b8:	00f70023          	sb	a5,0(a4)
   110bc:	00042783          	lw	a5,0(s0)
   110c0:	0007c703          	lbu	a4,0(a5)
   110c4:	00c78023          	sb	a2,0(a5)
   110c8:	00042783          	lw	a5,0(s0)
   110cc:	00180713          	addi	a4,a6,1 # 10001 <exit-0x93>
   110d0:	0007c683          	lbu	a3,0(a5)
   110d4:	01178023          	sb	a7,0(a5)
   110d8:	00042783          	lw	a5,0(s0)
   110dc:	0007c683          	lbu	a3,0(a5)
   110e0:	00078023          	sb	zero,0(a5)
   110e4:	00042783          	lw	a5,0(s0)
   110e8:	0007c683          	lbu	a3,0(a5)
   110ec:	00078023          	sb	zero,0(a5)
   110f0:	00042783          	lw	a5,0(s0)
   110f4:	0007c683          	lbu	a3,0(a5)
   110f8:	00078023          	sb	zero,0(a5)
   110fc:	00042783          	lw	a5,0(s0)
   11100:	0007c683          	lbu	a3,0(a5)
   11104:	00078023          	sb	zero,0(a5)
   11108:	00042783          	lw	a5,0(s0)
   1110c:	0007c683          	lbu	a3,0(a5)
   11110:	01d78023          	sb	t4,0(a5)
   11114:	00042783          	lw	a5,0(s0)
   11118:	0007c683          	lbu	a3,0(a5)
   1111c:	00c78023          	sb	a2,0(a5)
   11120:	00042783          	lw	a5,0(s0)
   11124:	0007c683          	lbu	a3,0(a5)
   11128:	0080006f          	j	11130 <_Z10SDCardInitv+0x10c>
   1112c:	00070e63          	beqz	a4,11148 <_Z10SDCardInitv+0x124>
   11130:	00c78023          	sb	a2,0(a5)
   11134:	00042783          	lw	a5,0(s0)
   11138:	fff70713          	addi	a4,a4,-1
   1113c:	0007c683          	lbu	a3,0(a5)
   11140:	0ff6f913          	zext.b	s2,a3
   11144:	feb684e3          	beq	a3,a1,1112c <_Z10SDCardInitv+0x108>
   11148:	00c78023          	sb	a2,0(a5)
   1114c:	00042783          	lw	a5,0(s0)
   11150:	00180713          	addi	a4,a6,1
   11154:	0007c683          	lbu	a3,0(a5)
   11158:	01c78023          	sb	t3,0(a5)
   1115c:	00042783          	lw	a5,0(s0)
   11160:	0007c683          	lbu	a3,0(a5)
   11164:	00678023          	sb	t1,0(a5)
   11168:	00042783          	lw	a5,0(s0)
   1116c:	0007c683          	lbu	a3,0(a5)
   11170:	00078023          	sb	zero,0(a5)
   11174:	00042783          	lw	a5,0(s0)
   11178:	0007c683          	lbu	a3,0(a5)
   1117c:	00078023          	sb	zero,0(a5)
   11180:	00042783          	lw	a5,0(s0)
   11184:	0007c683          	lbu	a3,0(a5)
   11188:	00078023          	sb	zero,0(a5)
   1118c:	00042783          	lw	a5,0(s0)
   11190:	0007c683          	lbu	a3,0(a5)
   11194:	01178023          	sb	a7,0(a5)
   11198:	00042783          	lw	a5,0(s0)
   1119c:	0007c683          	lbu	a3,0(a5)
   111a0:	00c78023          	sb	a2,0(a5)
   111a4:	00042783          	lw	a5,0(s0)
   111a8:	0007c683          	lbu	a3,0(a5)
   111ac:	0080006f          	j	111b4 <_Z10SDCardInitv+0x190>
   111b0:	02070063          	beqz	a4,111d0 <_Z10SDCardInitv+0x1ac>
   111b4:	00c78023          	sb	a2,0(a5)
   111b8:	00042783          	lw	a5,0(s0)
   111bc:	fff70713          	addi	a4,a4,-1
   111c0:	0007c683          	lbu	a3,0(a5)
   111c4:	0ff6f493          	zext.b	s1,a3
   111c8:	feb684e3          	beq	a3,a1,111b0 <_Z10SDCardInitv+0x18c>
   111cc:	0c048c63          	beqz	s1,112a4 <_Z10SDCardInitv+0x280>
   111d0:	fff50513          	addi	a0,a0,-1 # ffff <exit-0x95>
   111d4:	ee0518e3          	bnez	a0,110c4 <_Z10SDCardInitv+0xa0>
   111d8:	00100793          	li	a5,1
   111dc:	02f90263          	beq	s2,a5,11200 <_Z10SDCardInitv+0x1dc>
   111e0:	00008517          	auipc	a0,0x8
   111e4:	f1450513          	addi	a0,a0,-236 # 190f4 <_ZL6dither+0x3ac>
   111e8:	b1cff0ef          	jal	ra,10504 <_Z9UARTWritePKc>
   111ec:	00090513          	mv	a0,s2
   111f0:	b3cff0ef          	jal	ra,1052c <_Z12UARTWriteHexm>
   111f4:	00008517          	auipc	a0,0x8
   111f8:	bb850513          	addi	a0,a0,-1096 # 18dac <_ZL6dither+0x64>
   111fc:	b08ff0ef          	jal	ra,10504 <_Z9UARTWritePKc>
   11200:	00008517          	auipc	a0,0x8
   11204:	f1850513          	addi	a0,a0,-232 # 19118 <_ZL6dither+0x3d0>
   11208:	afcff0ef          	jal	ra,10504 <_Z9UARTWritePKc>
   1120c:	00048513          	mv	a0,s1
   11210:	b1cff0ef          	jal	ra,1052c <_Z12UARTWriteHexm>
   11214:	00008517          	auipc	a0,0x8
   11218:	b9850513          	addi	a0,a0,-1128 # 18dac <_ZL6dither+0x64>
   1121c:	ae8ff0ef          	jal	ra,10504 <_Z9UARTWritePKc>
   11220:	00042703          	lw	a4,0(s0)
   11224:	fff00793          	li	a5,-1
   11228:	00048513          	mv	a0,s1
   1122c:	00f70023          	sb	a5,0(a4)
   11230:	00042703          	lw	a4,0(s0)
   11234:	00074683          	lbu	a3,0(a4)
   11238:	00f70023          	sb	a5,0(a4)
   1123c:	00042703          	lw	a4,0(s0)
   11240:	00074683          	lbu	a3,0(a4)
   11244:	00f70023          	sb	a5,0(a4)
   11248:	00042703          	lw	a4,0(s0)
   1124c:	00074683          	lbu	a3,0(a4)
   11250:	00f70023          	sb	a5,0(a4)
   11254:	00042703          	lw	a4,0(s0)
   11258:	00074683          	lbu	a3,0(a4)
   1125c:	00f70023          	sb	a5,0(a4)
   11260:	00042703          	lw	a4,0(s0)
   11264:	00074683          	lbu	a3,0(a4)
   11268:	00f70023          	sb	a5,0(a4)
   1126c:	00042703          	lw	a4,0(s0)
   11270:	00074683          	lbu	a3,0(a4)
   11274:	00f70023          	sb	a5,0(a4)
   11278:	00042703          	lw	a4,0(s0)
   1127c:	00074683          	lbu	a3,0(a4)
   11280:	00f70023          	sb	a5,0(a4)
   11284:	00042783          	lw	a5,0(s0)
   11288:	00c12083          	lw	ra,12(sp)
   1128c:	00812403          	lw	s0,8(sp)
   11290:	00412483          	lw	s1,4(sp)
   11294:	00012903          	lw	s2,0(sp)
   11298:	0007c783          	lbu	a5,0(a5)
   1129c:	01010113          	addi	sp,sp,16
   112a0:	00008067          	ret
   112a4:	00100793          	li	a5,1
   112a8:	f6f90ce3          	beq	s2,a5,11220 <_Z10SDCardInitv+0x1fc>
   112ac:	00008517          	auipc	a0,0x8
   112b0:	e4850513          	addi	a0,a0,-440 # 190f4 <_ZL6dither+0x3ac>
   112b4:	a50ff0ef          	jal	ra,10504 <_Z9UARTWritePKc>
   112b8:	00090513          	mv	a0,s2
   112bc:	a70ff0ef          	jal	ra,1052c <_Z12UARTWriteHexm>
   112c0:	00008517          	auipc	a0,0x8
   112c4:	aec50513          	addi	a0,a0,-1300 # 18dac <_ZL6dither+0x64>
   112c8:	a3cff0ef          	jal	ra,10504 <_Z9UARTWritePKc>
   112cc:	f55ff06f          	j	11220 <_Z10SDCardInitv+0x1fc>

000112d0 <_Z17SDReadSingleBlockmPhS_>:
   112d0:	fe010113          	addi	sp,sp,-32
   112d4:	00812c23          	sw	s0,24(sp)
   112d8:	81018413          	addi	s0,gp,-2032 # 1b1c8 <IO_SPIRXTX>
   112dc:	00042703          	lw	a4,0(s0)
   112e0:	00912a23          	sw	s1,20(sp)
   112e4:	01212823          	sw	s2,16(sp)
   112e8:	01312623          	sw	s3,12(sp)
   112ec:	00112e23          	sw	ra,28(sp)
   112f0:	01412423          	sw	s4,8(sp)
   112f4:	fff00793          	li	a5,-1
   112f8:	00f70023          	sb	a5,0(a4)
   112fc:	00042703          	lw	a4,0(s0)
   11300:	00050493          	mv	s1,a0
   11304:	00058993          	mv	s3,a1
   11308:	00074683          	lbu	a3,0(a4)
   1130c:	00f70023          	sb	a5,0(a4)
   11310:	00042703          	lw	a4,0(s0)
   11314:	00050593          	mv	a1,a0
   11318:	01100513          	li	a0,17
   1131c:	00074683          	lbu	a3,0(a4)
   11320:	00f70023          	sb	a5,0(a4)
   11324:	00042703          	lw	a4,0(s0)
   11328:	00060913          	mv	s2,a2
   1132c:	00074683          	lbu	a3,0(a4)
   11330:	00f70023          	sb	a5,0(a4)
   11334:	00042703          	lw	a4,0(s0)
   11338:	00074683          	lbu	a3,0(a4)
   1133c:	00f70023          	sb	a5,0(a4)
   11340:	00042703          	lw	a4,0(s0)
   11344:	00074683          	lbu	a3,0(a4)
   11348:	00f70023          	sb	a5,0(a4)
   1134c:	00042703          	lw	a4,0(s0)
   11350:	00074683          	lbu	a3,0(a4)
   11354:	00f70023          	sb	a5,0(a4)
   11358:	00042703          	lw	a4,0(s0)
   1135c:	00074683          	lbu	a3,0(a4)
   11360:	00f70023          	sb	a5,0(a4)
   11364:	00042783          	lw	a5,0(s0)
   11368:	0007c783          	lbu	a5,0(a5)
   1136c:	bf4ff0ef          	jal	ra,10760 <_Z5SDCmd13SDCardCommandm>
   11370:	00010737          	lui	a4,0x10
   11374:	00042783          	lw	a5,0(s0)
   11378:	00170713          	addi	a4,a4,1 # 10001 <exit-0x93>
   1137c:	fff00593          	li	a1,-1
   11380:	0ff00613          	li	a2,255
   11384:	0080006f          	j	1138c <_Z17SDReadSingleBlockmPhS_+0xbc>
   11388:	04070a63          	beqz	a4,113dc <_Z17SDReadSingleBlockmPhS_+0x10c>
   1138c:	00b78023          	sb	a1,0(a5)
   11390:	00042783          	lw	a5,0(s0)
   11394:	fff70713          	addi	a4,a4,-1
   11398:	0007c683          	lbu	a3,0(a5)
   1139c:	0ff6fa13          	zext.b	s4,a3
   113a0:	fec684e3          	beq	a3,a2,11388 <_Z17SDReadSingleBlockmPhS_+0xb8>
   113a4:	00010737          	lui	a4,0x10
   113a8:	00170713          	addi	a4,a4,1 # 10001 <exit-0x93>
   113ac:	fff00613          	li	a2,-1
   113b0:	0ff00593          	li	a1,255
   113b4:	0080006f          	j	113bc <_Z17SDReadSingleBlockmPhS_+0xec>
   113b8:	02070263          	beqz	a4,113dc <_Z17SDReadSingleBlockmPhS_+0x10c>
   113bc:	00c78023          	sb	a2,0(a5)
   113c0:	00042783          	lw	a5,0(s0)
   113c4:	fff70713          	addi	a4,a4,-1
   113c8:	0007c683          	lbu	a3,0(a5)
   113cc:	0ff6fa13          	zext.b	s4,a3
   113d0:	feb684e3          	beq	a3,a1,113b8 <_Z17SDReadSingleBlockmPhS_+0xe8>
   113d4:	0fe00713          	li	a4,254
   113d8:	0aea0a63          	beq	s4,a4,1148c <_Z17SDReadSingleBlockmPhS_+0x1bc>
   113dc:	fff00713          	li	a4,-1
   113e0:	00e78023          	sb	a4,0(a5)
   113e4:	00042783          	lw	a5,0(s0)
   113e8:	00f00693          	li	a3,15
   113ec:	0007c603          	lbu	a2,0(a5)
   113f0:	00e78023          	sb	a4,0(a5)
   113f4:	00042783          	lw	a5,0(s0)
   113f8:	0007c603          	lbu	a2,0(a5)
   113fc:	00e78023          	sb	a4,0(a5)
   11400:	00042783          	lw	a5,0(s0)
   11404:	0007c603          	lbu	a2,0(a5)
   11408:	00e78023          	sb	a4,0(a5)
   1140c:	00042783          	lw	a5,0(s0)
   11410:	0007c603          	lbu	a2,0(a5)
   11414:	00e78023          	sb	a4,0(a5)
   11418:	00042783          	lw	a5,0(s0)
   1141c:	0007c603          	lbu	a2,0(a5)
   11420:	00e78023          	sb	a4,0(a5)
   11424:	00042783          	lw	a5,0(s0)
   11428:	0007c603          	lbu	a2,0(a5)
   1142c:	00e78023          	sb	a4,0(a5)
   11430:	00042783          	lw	a5,0(s0)
   11434:	0007c603          	lbu	a2,0(a5)
   11438:	00e78023          	sb	a4,0(a5)
   1143c:	00042783          	lw	a5,0(s0)
   11440:	0007c783          	lbu	a5,0(a5)
   11444:	0346e263          	bltu	a3,s4,11468 <_Z17SDReadSingleBlockmPhS_+0x198>
   11448:	001a7793          	andi	a5,s4,1
   1144c:	0c079663          	bnez	a5,11518 <_Z17SDReadSingleBlockmPhS_+0x248>
   11450:	002a7793          	andi	a5,s4,2
   11454:	0c079c63          	bnez	a5,1152c <_Z17SDReadSingleBlockmPhS_+0x25c>
   11458:	004a7793          	andi	a5,s4,4
   1145c:	0e079263          	bnez	a5,11540 <_Z17SDReadSingleBlockmPhS_+0x270>
   11460:	008a7793          	andi	a5,s4,8
   11464:	08079863          	bnez	a5,114f4 <_Z17SDReadSingleBlockmPhS_+0x224>
   11468:	01c12083          	lw	ra,28(sp)
   1146c:	01812403          	lw	s0,24(sp)
   11470:	01412483          	lw	s1,20(sp)
   11474:	01012903          	lw	s2,16(sp)
   11478:	00c12983          	lw	s3,12(sp)
   1147c:	000a0513          	mv	a0,s4
   11480:	00812a03          	lw	s4,8(sp)
   11484:	02010113          	addi	sp,sp,32
   11488:	00008067          	ret
   1148c:	00c78023          	sb	a2,0(a5)
   11490:	00042703          	lw	a4,0(s0)
   11494:	00198793          	addi	a5,s3,1
   11498:	20098613          	addi	a2,s3,512
   1149c:	00074703          	lbu	a4,0(a4)
   114a0:	fff00693          	li	a3,-1
   114a4:	00e98023          	sb	a4,0(s3)
   114a8:	00042703          	lw	a4,0(s0)
   114ac:	00178793          	addi	a5,a5,1
   114b0:	00d70023          	sb	a3,0(a4)
   114b4:	00042703          	lw	a4,0(s0)
   114b8:	00074703          	lbu	a4,0(a4)
   114bc:	fee78fa3          	sb	a4,-1(a5)
   114c0:	fec794e3          	bne	a5,a2,114a8 <_Z17SDReadSingleBlockmPhS_+0x1d8>
   114c4:	00042783          	lw	a5,0(s0)
   114c8:	00d78023          	sb	a3,0(a5)
   114cc:	00042783          	lw	a5,0(s0)
   114d0:	0007c783          	lbu	a5,0(a5)
   114d4:	00f90023          	sb	a5,0(s2)
   114d8:	00042783          	lw	a5,0(s0)
   114dc:	00d78023          	sb	a3,0(a5)
   114e0:	00042783          	lw	a5,0(s0)
   114e4:	0007c783          	lbu	a5,0(a5)
   114e8:	00f900a3          	sb	a5,1(s2)
   114ec:	00042783          	lw	a5,0(s0)
   114f0:	eedff06f          	j	113dc <_Z17SDReadSingleBlockmPhS_+0x10c>
   114f4:	00008517          	auipc	a0,0x8
   114f8:	ce050513          	addi	a0,a0,-800 # 191d4 <_ZL6dither+0x48c>
   114fc:	808ff0ef          	jal	ra,10504 <_Z9UARTWritePKc>
   11500:	00048513          	mv	a0,s1
   11504:	828ff0ef          	jal	ra,1052c <_Z12UARTWriteHexm>
   11508:	00008517          	auipc	a0,0x8
   1150c:	8a450513          	addi	a0,a0,-1884 # 18dac <_ZL6dither+0x64>
   11510:	ff5fe0ef          	jal	ra,10504 <_Z9UARTWritePKc>
   11514:	f55ff06f          	j	11468 <_Z17SDReadSingleBlockmPhS_+0x198>
   11518:	00008517          	auipc	a0,0x8
   1151c:	c2450513          	addi	a0,a0,-988 # 1913c <_ZL6dither+0x3f4>
   11520:	fe5fe0ef          	jal	ra,10504 <_Z9UARTWritePKc>
   11524:	002a7793          	andi	a5,s4,2
   11528:	f20788e3          	beqz	a5,11458 <_Z17SDReadSingleBlockmPhS_+0x188>
   1152c:	00008517          	auipc	a0,0x8
   11530:	c4050513          	addi	a0,a0,-960 # 1916c <_ZL6dither+0x424>
   11534:	fd1fe0ef          	jal	ra,10504 <_Z9UARTWritePKc>
   11538:	004a7793          	andi	a5,s4,4
   1153c:	f20782e3          	beqz	a5,11460 <_Z17SDReadSingleBlockmPhS_+0x190>
   11540:	00008517          	auipc	a0,0x8
   11544:	c5c50513          	addi	a0,a0,-932 # 1919c <_ZL6dither+0x454>
   11548:	fbdfe0ef          	jal	ra,10504 <_Z9UARTWritePKc>
   1154c:	f15ff06f          	j	11460 <_Z17SDReadSingleBlockmPhS_+0x190>

00011550 <_Z18SDWriteSingleBlockmPhS_>:
   11550:	ff010113          	addi	sp,sp,-16
   11554:	00912223          	sw	s1,4(sp)
   11558:	81018493          	addi	s1,gp,-2032 # 1b1c8 <IO_SPIRXTX>
   1155c:	0004a703          	lw	a4,0(s1)
   11560:	00812423          	sw	s0,8(sp)
   11564:	00112623          	sw	ra,12(sp)
   11568:	fff00793          	li	a5,-1
   1156c:	00f70023          	sb	a5,0(a4)
   11570:	0004a703          	lw	a4,0(s1)
   11574:	00050693          	mv	a3,a0
   11578:	00058413          	mv	s0,a1
   1157c:	00074603          	lbu	a2,0(a4)
   11580:	00f70023          	sb	a5,0(a4)
   11584:	0004a703          	lw	a4,0(s1)
   11588:	00068593          	mv	a1,a3
   1158c:	01100513          	li	a0,17
   11590:	00074683          	lbu	a3,0(a4)
   11594:	00f70023          	sb	a5,0(a4)
   11598:	0004a703          	lw	a4,0(s1)
   1159c:	00074683          	lbu	a3,0(a4)
   115a0:	00f70023          	sb	a5,0(a4)
   115a4:	0004a703          	lw	a4,0(s1)
   115a8:	00074683          	lbu	a3,0(a4)
   115ac:	00f70023          	sb	a5,0(a4)
   115b0:	0004a703          	lw	a4,0(s1)
   115b4:	00074683          	lbu	a3,0(a4)
   115b8:	00f70023          	sb	a5,0(a4)
   115bc:	0004a703          	lw	a4,0(s1)
   115c0:	00074683          	lbu	a3,0(a4)
   115c4:	00f70023          	sb	a5,0(a4)
   115c8:	0004a703          	lw	a4,0(s1)
   115cc:	00074683          	lbu	a3,0(a4)
   115d0:	00f70023          	sb	a5,0(a4)
   115d4:	0004a783          	lw	a5,0(s1)
   115d8:	0007c783          	lbu	a5,0(a5)
   115dc:	984ff0ef          	jal	ra,10760 <_Z5SDCmd13SDCardCommandm>
   115e0:	00010737          	lui	a4,0x10
   115e4:	0004a783          	lw	a5,0(s1)
   115e8:	00170713          	addi	a4,a4,1 # 10001 <exit-0x93>
   115ec:	fff00593          	li	a1,-1
   115f0:	0ff00613          	li	a2,255
   115f4:	0080006f          	j	115fc <_Z18SDWriteSingleBlockmPhS_+0xac>
   115f8:	0a070e63          	beqz	a4,116b4 <_Z18SDWriteSingleBlockmPhS_+0x164>
   115fc:	00b78023          	sb	a1,0(a5)
   11600:	0004a783          	lw	a5,0(s1)
   11604:	fff70713          	addi	a4,a4,-1
   11608:	0007c683          	lbu	a3,0(a5)
   1160c:	0ff6f513          	zext.b	a0,a3
   11610:	fec684e3          	beq	a3,a2,115f8 <_Z18SDWriteSingleBlockmPhS_+0xa8>
   11614:	0a051063          	bnez	a0,116b4 <_Z18SDWriteSingleBlockmPhS_+0x164>
   11618:	ffe00713          	li	a4,-2
   1161c:	00e78023          	sb	a4,0(a5)
   11620:	0004a783          	lw	a5,0(s1)
   11624:	00040593          	mv	a1,s0
   11628:	20040693          	addi	a3,s0,512
   1162c:	0007c703          	lbu	a4,0(a5)
   11630:	0005c703          	lbu	a4,0(a1)
   11634:	00158593          	addi	a1,a1,1
   11638:	00e78023          	sb	a4,0(a5)
   1163c:	0004a783          	lw	a5,0(s1)
   11640:	0007c703          	lbu	a4,0(a5)
   11644:	fed596e3          	bne	a1,a3,11630 <_Z18SDWriteSingleBlockmPhS_+0xe0>
   11648:	00010737          	lui	a4,0x10
   1164c:	00170713          	addi	a4,a4,1 # 10001 <exit-0x93>
   11650:	fff00513          	li	a0,-1
   11654:	0ff00593          	li	a1,255
   11658:	0080006f          	j	11660 <_Z18SDWriteSingleBlockmPhS_+0x110>
   1165c:	0c070863          	beqz	a4,1172c <_Z18SDWriteSingleBlockmPhS_+0x1dc>
   11660:	00a78023          	sb	a0,0(a5)
   11664:	0004a783          	lw	a5,0(s1)
   11668:	fff70713          	addi	a4,a4,-1
   1166c:	0007c683          	lbu	a3,0(a5)
   11670:	0ff6f613          	zext.b	a2,a3
   11674:	feb684e3          	beq	a3,a1,1165c <_Z18SDWriteSingleBlockmPhS_+0x10c>
   11678:	00010737          	lui	a4,0x10
   1167c:	01f67613          	andi	a2,a2,31
   11680:	00500693          	li	a3,5
   11684:	00170713          	addi	a4,a4,1 # 10001 <exit-0x93>
   11688:	fff00813          	li	a6,-1
   1168c:	0ff00593          	li	a1,255
   11690:	00d60663          	beq	a2,a3,1169c <_Z18SDWriteSingleBlockmPhS_+0x14c>
   11694:	0980006f          	j	1172c <_Z18SDWriteSingleBlockmPhS_+0x1dc>
   11698:	00070e63          	beqz	a4,116b4 <_Z18SDWriteSingleBlockmPhS_+0x164>
   1169c:	01078023          	sb	a6,0(a5)
   116a0:	0004a783          	lw	a5,0(s1)
   116a4:	fff70713          	addi	a4,a4,-1
   116a8:	0007c683          	lbu	a3,0(a5)
   116ac:	0ff6f513          	zext.b	a0,a3
   116b0:	feb684e3          	beq	a3,a1,11698 <_Z18SDWriteSingleBlockmPhS_+0x148>
   116b4:	fff00713          	li	a4,-1
   116b8:	00e78023          	sb	a4,0(a5)
   116bc:	0004a783          	lw	a5,0(s1)
   116c0:	0007c683          	lbu	a3,0(a5)
   116c4:	00e78023          	sb	a4,0(a5)
   116c8:	0004a783          	lw	a5,0(s1)
   116cc:	0007c683          	lbu	a3,0(a5)
   116d0:	00e78023          	sb	a4,0(a5)
   116d4:	0004a783          	lw	a5,0(s1)
   116d8:	0007c683          	lbu	a3,0(a5)
   116dc:	00e78023          	sb	a4,0(a5)
   116e0:	0004a783          	lw	a5,0(s1)
   116e4:	0007c683          	lbu	a3,0(a5)
   116e8:	00e78023          	sb	a4,0(a5)
   116ec:	0004a783          	lw	a5,0(s1)
   116f0:	0007c683          	lbu	a3,0(a5)
   116f4:	00e78023          	sb	a4,0(a5)
   116f8:	0004a783          	lw	a5,0(s1)
   116fc:	0007c683          	lbu	a3,0(a5)
   11700:	00e78023          	sb	a4,0(a5)
   11704:	0004a783          	lw	a5,0(s1)
   11708:	0007c683          	lbu	a3,0(a5)
   1170c:	00e78023          	sb	a4,0(a5)
   11710:	0004a783          	lw	a5,0(s1)
   11714:	00c12083          	lw	ra,12(sp)
   11718:	00812403          	lw	s0,8(sp)
   1171c:	00412483          	lw	s1,4(sp)
   11720:	0007c783          	lbu	a5,0(a5)
   11724:	01010113          	addi	sp,sp,16
   11728:	00008067          	ret
   1172c:	00008517          	auipc	a0,0x8
   11730:	ae850513          	addi	a0,a0,-1304 # 19214 <_ZL6dither+0x4cc>
   11734:	dd1fe0ef          	jal	ra,10504 <_Z9UARTWritePKc>
   11738:	00c12083          	lw	ra,12(sp)
   1173c:	00812403          	lw	s0,8(sp)
   11740:	00412483          	lw	s1,4(sp)
   11744:	0ff00513          	li	a0,255
   11748:	01010113          	addi	sp,sp,16
   1174c:	00008067          	ret

00011750 <_Z20SDReadMultipleBlocksPhmm>:
   11750:	16058a63          	beqz	a1,118c4 <_Z20SDReadMultipleBlocksPhmm+0x174>
   11754:	dd010113          	addi	sp,sp,-560
   11758:	23212023          	sw	s2,544(sp)
   1175c:	81018913          	addi	s2,gp,-2032 # 1b1c8 <IO_SPIRXTX>
   11760:	00092703          	lw	a4,0(s2)
   11764:	22812423          	sw	s0,552(sp)
   11768:	22912223          	sw	s1,548(sp)
   1176c:	21312e23          	sw	s3,540(sp)
   11770:	21412c23          	sw	s4,536(sp)
   11774:	21512a23          	sw	s5,532(sp)
   11778:	22112623          	sw	ra,556(sp)
   1177c:	fff00793          	li	a5,-1
   11780:	00f70023          	sb	a5,0(a4)
   11784:	00092703          	lw	a4,0(s2)
   11788:	00050a93          	mv	s5,a0
   1178c:	00060413          	mv	s0,a2
   11790:	00074683          	lbu	a3,0(a4)
   11794:	00f70023          	sb	a5,0(a4)
   11798:	00092703          	lw	a4,0(s2)
   1179c:	00c589b3          	add	s3,a1,a2
   117a0:	00000493          	li	s1,0
   117a4:	00074683          	lbu	a3,0(a4)
   117a8:	00f70023          	sb	a5,0(a4)
   117ac:	00092703          	lw	a4,0(s2)
   117b0:	0fe00a13          	li	s4,254
   117b4:	00074683          	lbu	a3,0(a4)
   117b8:	00f70023          	sb	a5,0(a4)
   117bc:	00092703          	lw	a4,0(s2)
   117c0:	00074683          	lbu	a3,0(a4)
   117c4:	00f70023          	sb	a5,0(a4)
   117c8:	00092703          	lw	a4,0(s2)
   117cc:	00074683          	lbu	a3,0(a4)
   117d0:	00f70023          	sb	a5,0(a4)
   117d4:	00092703          	lw	a4,0(s2)
   117d8:	00074683          	lbu	a3,0(a4)
   117dc:	00f70023          	sb	a5,0(a4)
   117e0:	00092703          	lw	a4,0(s2)
   117e4:	00074683          	lbu	a3,0(a4)
   117e8:	00f70023          	sb	a5,0(a4)
   117ec:	00092783          	lw	a5,0(s2)
   117f0:	0007c783          	lbu	a5,0(a5)
   117f4:	0100006f          	j	11804 <_Z20SDReadMultipleBlocksPhmm+0xb4>
   117f8:	27d060ef          	jal	ra,18274 <memcpy>
   117fc:	20048493          	addi	s1,s1,512
   11800:	03340a63          	beq	s0,s3,11834 <_Z20SDReadMultipleBlocksPhmm+0xe4>
   11804:	00c10613          	addi	a2,sp,12
   11808:	01010593          	addi	a1,sp,16
   1180c:	00040513          	mv	a0,s0
   11810:	ac1ff0ef          	jal	ra,112d0 <_Z17SDReadSingleBlockmPhS_>
   11814:	00050793          	mv	a5,a0
   11818:	20000613          	li	a2,512
   1181c:	009a8533          	add	a0,s5,s1
   11820:	01010593          	addi	a1,sp,16
   11824:	00140413          	addi	s0,s0,1
   11828:	fd4788e3          	beq	a5,s4,117f8 <_Z20SDReadMultipleBlocksPhmm+0xa8>
   1182c:	fff00513          	li	a0,-1
   11830:	0700006f          	j	118a0 <_Z20SDReadMultipleBlocksPhmm+0x150>
   11834:	00092703          	lw	a4,0(s2)
   11838:	fff00793          	li	a5,-1
   1183c:	00048513          	mv	a0,s1
   11840:	00f70023          	sb	a5,0(a4)
   11844:	00092703          	lw	a4,0(s2)
   11848:	00074683          	lbu	a3,0(a4)
   1184c:	00f70023          	sb	a5,0(a4)
   11850:	00092703          	lw	a4,0(s2)
   11854:	00074683          	lbu	a3,0(a4)
   11858:	00f70023          	sb	a5,0(a4)
   1185c:	00092703          	lw	a4,0(s2)
   11860:	00074683          	lbu	a3,0(a4)
   11864:	00f70023          	sb	a5,0(a4)
   11868:	00092703          	lw	a4,0(s2)
   1186c:	00074683          	lbu	a3,0(a4)
   11870:	00f70023          	sb	a5,0(a4)
   11874:	00092703          	lw	a4,0(s2)
   11878:	00074683          	lbu	a3,0(a4)
   1187c:	00f70023          	sb	a5,0(a4)
   11880:	00092703          	lw	a4,0(s2)
   11884:	00074683          	lbu	a3,0(a4)
   11888:	00f70023          	sb	a5,0(a4)
   1188c:	00092703          	lw	a4,0(s2)
   11890:	00074683          	lbu	a3,0(a4)
   11894:	00f70023          	sb	a5,0(a4)
   11898:	00092783          	lw	a5,0(s2)
   1189c:	0007c783          	lbu	a5,0(a5)
   118a0:	22c12083          	lw	ra,556(sp)
   118a4:	22812403          	lw	s0,552(sp)
   118a8:	22412483          	lw	s1,548(sp)
   118ac:	22012903          	lw	s2,544(sp)
   118b0:	21c12983          	lw	s3,540(sp)
   118b4:	21812a03          	lw	s4,536(sp)
   118b8:	21412a83          	lw	s5,532(sp)
   118bc:	23010113          	addi	sp,sp,560
   118c0:	00008067          	ret
   118c4:	fff00513          	li	a0,-1
   118c8:	00008067          	ret

000118cc <_Z21SDWriteMultipleBlocksPKhmm>:
   118cc:	16058863          	beqz	a1,11a3c <_Z21SDWriteMultipleBlocksPKhmm+0x170>
   118d0:	dd010113          	addi	sp,sp,-560
   118d4:	23212023          	sw	s2,544(sp)
   118d8:	81018913          	addi	s2,gp,-2032 # 1b1c8 <IO_SPIRXTX>
   118dc:	00092703          	lw	a4,0(s2)
   118e0:	22812423          	sw	s0,552(sp)
   118e4:	22912223          	sw	s1,548(sp)
   118e8:	21312e23          	sw	s3,540(sp)
   118ec:	21412c23          	sw	s4,536(sp)
   118f0:	21512a23          	sw	s5,532(sp)
   118f4:	22112623          	sw	ra,556(sp)
   118f8:	fff00793          	li	a5,-1
   118fc:	00f70023          	sb	a5,0(a4)
   11900:	00092703          	lw	a4,0(s2)
   11904:	00050a93          	mv	s5,a0
   11908:	00060413          	mv	s0,a2
   1190c:	00074683          	lbu	a3,0(a4)
   11910:	00f70023          	sb	a5,0(a4)
   11914:	00092703          	lw	a4,0(s2)
   11918:	00c589b3          	add	s3,a1,a2
   1191c:	00000493          	li	s1,0
   11920:	00074683          	lbu	a3,0(a4)
   11924:	00f70023          	sb	a5,0(a4)
   11928:	00092703          	lw	a4,0(s2)
   1192c:	0fe00a13          	li	s4,254
   11930:	00074683          	lbu	a3,0(a4)
   11934:	00f70023          	sb	a5,0(a4)
   11938:	00092703          	lw	a4,0(s2)
   1193c:	00074683          	lbu	a3,0(a4)
   11940:	00f70023          	sb	a5,0(a4)
   11944:	00092703          	lw	a4,0(s2)
   11948:	00074683          	lbu	a3,0(a4)
   1194c:	00f70023          	sb	a5,0(a4)
   11950:	00092703          	lw	a4,0(s2)
   11954:	00074683          	lbu	a3,0(a4)
   11958:	00f70023          	sb	a5,0(a4)
   1195c:	00092703          	lw	a4,0(s2)
   11960:	00074683          	lbu	a3,0(a4)
   11964:	00f70023          	sb	a5,0(a4)
   11968:	00092783          	lw	a5,0(s2)
   1196c:	0007c783          	lbu	a5,0(a5)
   11970:	00c0006f          	j	1197c <_Z21SDWriteMultipleBlocksPKhmm+0xb0>
   11974:	20048493          	addi	s1,s1,512
   11978:	03340a63          	beq	s0,s3,119ac <_Z21SDWriteMultipleBlocksPKhmm+0xe0>
   1197c:	009a85b3          	add	a1,s5,s1
   11980:	20000613          	li	a2,512
   11984:	01010513          	addi	a0,sp,16
   11988:	0ed060ef          	jal	ra,18274 <memcpy>
   1198c:	00040513          	mv	a0,s0
   11990:	00c10613          	addi	a2,sp,12
   11994:	01010593          	addi	a1,sp,16
   11998:	bb9ff0ef          	jal	ra,11550 <_Z18SDWriteSingleBlockmPhS_>
   1199c:	00140413          	addi	s0,s0,1
   119a0:	fd450ae3          	beq	a0,s4,11974 <_Z21SDWriteMultipleBlocksPKhmm+0xa8>
   119a4:	fff00513          	li	a0,-1
   119a8:	0700006f          	j	11a18 <_Z21SDWriteMultipleBlocksPKhmm+0x14c>
   119ac:	00092703          	lw	a4,0(s2)
   119b0:	fff00793          	li	a5,-1
   119b4:	00048513          	mv	a0,s1
   119b8:	00f70023          	sb	a5,0(a4)
   119bc:	00092703          	lw	a4,0(s2)
   119c0:	00074683          	lbu	a3,0(a4)
   119c4:	00f70023          	sb	a5,0(a4)
   119c8:	00092703          	lw	a4,0(s2)
   119cc:	00074683          	lbu	a3,0(a4)
   119d0:	00f70023          	sb	a5,0(a4)
   119d4:	00092703          	lw	a4,0(s2)
   119d8:	00074683          	lbu	a3,0(a4)
   119dc:	00f70023          	sb	a5,0(a4)
   119e0:	00092703          	lw	a4,0(s2)
   119e4:	00074683          	lbu	a3,0(a4)
   119e8:	00f70023          	sb	a5,0(a4)
   119ec:	00092703          	lw	a4,0(s2)
   119f0:	00074683          	lbu	a3,0(a4)
   119f4:	00f70023          	sb	a5,0(a4)
   119f8:	00092703          	lw	a4,0(s2)
   119fc:	00074683          	lbu	a3,0(a4)
   11a00:	00f70023          	sb	a5,0(a4)
   11a04:	00092703          	lw	a4,0(s2)
   11a08:	00074683          	lbu	a3,0(a4)
   11a0c:	00f70023          	sb	a5,0(a4)
   11a10:	00092783          	lw	a5,0(s2)
   11a14:	0007c783          	lbu	a5,0(a5)
   11a18:	22c12083          	lw	ra,556(sp)
   11a1c:	22812403          	lw	s0,552(sp)
   11a20:	22412483          	lw	s1,548(sp)
   11a24:	22012903          	lw	s2,544(sp)
   11a28:	21c12983          	lw	s3,540(sp)
   11a2c:	21812a03          	lw	s4,536(sp)
   11a30:	21412a83          	lw	s5,532(sp)
   11a34:	23010113          	addi	sp,sp,560
   11a38:	00008067          	ret
   11a3c:	fff00513          	li	a0,-1
   11a40:	00008067          	ret

00011a44 <_Z13SDCardControli>:
   11a44:	24050663          	beqz	a0,11c90 <_Z13SDCardControli+0x24c>
   11a48:	ff010113          	addi	sp,sp,-16
   11a4c:	00812423          	sw	s0,8(sp)
   11a50:	81018413          	addi	s0,gp,-2032 # 1b1c8 <IO_SPIRXTX>
   11a54:	00042783          	lw	a5,0(s0)
   11a58:	00112623          	sw	ra,12(sp)
   11a5c:	00912223          	sw	s1,4(sp)
   11a60:	01212023          	sw	s2,0(sp)
   11a64:	fff00493          	li	s1,-1
   11a68:	00978023          	sb	s1,0(a5)
   11a6c:	00042783          	lw	a5,0(s0)
   11a70:	80c18913          	addi	s2,gp,-2036 # 1b1c4 <IO_SPICTL>
   11a74:	00100513          	li	a0,1
   11a78:	0007c703          	lbu	a4,0(a5)
   11a7c:	00978023          	sb	s1,0(a5)
   11a80:	00042783          	lw	a5,0(s0)
   11a84:	00000593          	li	a1,0
   11a88:	0007c703          	lbu	a4,0(a5)
   11a8c:	00978023          	sb	s1,0(a5)
   11a90:	00042783          	lw	a5,0(s0)
   11a94:	0007c703          	lbu	a4,0(a5)
   11a98:	00978023          	sb	s1,0(a5)
   11a9c:	00042783          	lw	a5,0(s0)
   11aa0:	0007c703          	lbu	a4,0(a5)
   11aa4:	00978023          	sb	s1,0(a5)
   11aa8:	00042783          	lw	a5,0(s0)
   11aac:	0007c703          	lbu	a4,0(a5)
   11ab0:	00978023          	sb	s1,0(a5)
   11ab4:	00042783          	lw	a5,0(s0)
   11ab8:	0007c703          	lbu	a4,0(a5)
   11abc:	00978023          	sb	s1,0(a5)
   11ac0:	00042783          	lw	a5,0(s0)
   11ac4:	0007c703          	lbu	a4,0(a5)
   11ac8:	00978023          	sb	s1,0(a5)
   11acc:	00042703          	lw	a4,0(s0)
   11ad0:	00092783          	lw	a5,0(s2)
   11ad4:	00074703          	lbu	a4,0(a4)
   11ad8:	00100713          	li	a4,1
   11adc:	00e78023          	sb	a4,0(a5)
   11ae0:	00042783          	lw	a5,0(s0)
   11ae4:	00978023          	sb	s1,0(a5)
   11ae8:	00042783          	lw	a5,0(s0)
   11aec:	0007c703          	lbu	a4,0(a5)
   11af0:	00978023          	sb	s1,0(a5)
   11af4:	00042783          	lw	a5,0(s0)
   11af8:	0007c703          	lbu	a4,0(a5)
   11afc:	00978023          	sb	s1,0(a5)
   11b00:	00042783          	lw	a5,0(s0)
   11b04:	0007c703          	lbu	a4,0(a5)
   11b08:	00978023          	sb	s1,0(a5)
   11b0c:	00042783          	lw	a5,0(s0)
   11b10:	0007c703          	lbu	a4,0(a5)
   11b14:	00978023          	sb	s1,0(a5)
   11b18:	00042783          	lw	a5,0(s0)
   11b1c:	0007c703          	lbu	a4,0(a5)
   11b20:	00978023          	sb	s1,0(a5)
   11b24:	00042783          	lw	a5,0(s0)
   11b28:	0007c703          	lbu	a4,0(a5)
   11b2c:	00978023          	sb	s1,0(a5)
   11b30:	00042783          	lw	a5,0(s0)
   11b34:	0007c703          	lbu	a4,0(a5)
   11b38:	00978023          	sb	s1,0(a5)
   11b3c:	00042783          	lw	a5,0(s0)
   11b40:	0007c703          	lbu	a4,0(a5)
   11b44:	00978023          	sb	s1,0(a5)
   11b48:	00042783          	lw	a5,0(s0)
   11b4c:	0007c703          	lbu	a4,0(a5)
   11b50:	00978023          	sb	s1,0(a5)
   11b54:	00042783          	lw	a5,0(s0)
   11b58:	0007c703          	lbu	a4,0(a5)
   11b5c:	00978023          	sb	s1,0(a5)
   11b60:	00042783          	lw	a5,0(s0)
   11b64:	0007c703          	lbu	a4,0(a5)
   11b68:	00978023          	sb	s1,0(a5)
   11b6c:	00042783          	lw	a5,0(s0)
   11b70:	0007c703          	lbu	a4,0(a5)
   11b74:	00978023          	sb	s1,0(a5)
   11b78:	00042783          	lw	a5,0(s0)
   11b7c:	0007c703          	lbu	a4,0(a5)
   11b80:	00978023          	sb	s1,0(a5)
   11b84:	00042783          	lw	a5,0(s0)
   11b88:	0007c703          	lbu	a4,0(a5)
   11b8c:	00978023          	sb	s1,0(a5)
   11b90:	00042783          	lw	a5,0(s0)
   11b94:	0007c703          	lbu	a4,0(a5)
   11b98:	00978023          	sb	s1,0(a5)
   11b9c:	00042783          	lw	a5,0(s0)
   11ba0:	0007c783          	lbu	a5,0(a5)
   11ba4:	ae9fe0ef          	jal	ra,1068c <_Z8E32Sleepy>
   11ba8:	00092783          	lw	a5,0(s2)
   11bac:	00300713          	li	a4,3
   11bb0:	00e78023          	sb	a4,0(a5)
   11bb4:	00042783          	lw	a5,0(s0)
   11bb8:	00978023          	sb	s1,0(a5)
   11bbc:	00042783          	lw	a5,0(s0)
   11bc0:	0007c703          	lbu	a4,0(a5)
   11bc4:	00978023          	sb	s1,0(a5)
   11bc8:	00042783          	lw	a5,0(s0)
   11bcc:	0007c703          	lbu	a4,0(a5)
   11bd0:	00978023          	sb	s1,0(a5)
   11bd4:	00042783          	lw	a5,0(s0)
   11bd8:	0007c703          	lbu	a4,0(a5)
   11bdc:	00978023          	sb	s1,0(a5)
   11be0:	00042783          	lw	a5,0(s0)
   11be4:	0007c703          	lbu	a4,0(a5)
   11be8:	00978023          	sb	s1,0(a5)
   11bec:	00042783          	lw	a5,0(s0)
   11bf0:	0007c703          	lbu	a4,0(a5)
   11bf4:	00978023          	sb	s1,0(a5)
   11bf8:	00042783          	lw	a5,0(s0)
   11bfc:	0007c703          	lbu	a4,0(a5)
   11c00:	00978023          	sb	s1,0(a5)
   11c04:	00042783          	lw	a5,0(s0)
   11c08:	0007c703          	lbu	a4,0(a5)
   11c0c:	00978023          	sb	s1,0(a5)
   11c10:	00042783          	lw	a5,0(s0)
   11c14:	0007c703          	lbu	a4,0(a5)
   11c18:	00978023          	sb	s1,0(a5)
   11c1c:	00042783          	lw	a5,0(s0)
   11c20:	0007c703          	lbu	a4,0(a5)
   11c24:	00978023          	sb	s1,0(a5)
   11c28:	00042783          	lw	a5,0(s0)
   11c2c:	0007c703          	lbu	a4,0(a5)
   11c30:	00978023          	sb	s1,0(a5)
   11c34:	00042783          	lw	a5,0(s0)
   11c38:	0007c703          	lbu	a4,0(a5)
   11c3c:	00978023          	sb	s1,0(a5)
   11c40:	00042783          	lw	a5,0(s0)
   11c44:	0007c703          	lbu	a4,0(a5)
   11c48:	00978023          	sb	s1,0(a5)
   11c4c:	00042783          	lw	a5,0(s0)
   11c50:	0007c703          	lbu	a4,0(a5)
   11c54:	00978023          	sb	s1,0(a5)
   11c58:	00042783          	lw	a5,0(s0)
   11c5c:	0007c703          	lbu	a4,0(a5)
   11c60:	00978023          	sb	s1,0(a5)
   11c64:	00042783          	lw	a5,0(s0)
   11c68:	0007c703          	lbu	a4,0(a5)
   11c6c:	00978023          	sb	s1,0(a5)
   11c70:	00042783          	lw	a5,0(s0)
   11c74:	00c12083          	lw	ra,12(sp)
   11c78:	00812403          	lw	s0,8(sp)
   11c7c:	00412483          	lw	s1,4(sp)
   11c80:	00012903          	lw	s2,0(sp)
   11c84:	0007c783          	lbu	a5,0(a5)
   11c88:	01010113          	addi	sp,sp,16
   11c8c:	00008067          	ret
   11c90:	80c1a783          	lw	a5,-2036(gp) # 1b1c4 <IO_SPICTL>
   11c94:	00078023          	sb	zero,0(a5)
   11c98:	81018793          	addi	a5,gp,-2032 # 1b1c8 <IO_SPIRXTX>
   11c9c:	0007a683          	lw	a3,0(a5)
   11ca0:	fff00713          	li	a4,-1
   11ca4:	00100513          	li	a0,1
   11ca8:	00e68023          	sb	a4,0(a3)
   11cac:	0007a683          	lw	a3,0(a5)
   11cb0:	00000593          	li	a1,0
   11cb4:	0006c603          	lbu	a2,0(a3)
   11cb8:	00e68023          	sb	a4,0(a3)
   11cbc:	0007a683          	lw	a3,0(a5)
   11cc0:	0006c603          	lbu	a2,0(a3)
   11cc4:	00e68023          	sb	a4,0(a3)
   11cc8:	0007a683          	lw	a3,0(a5)
   11ccc:	0006c603          	lbu	a2,0(a3)
   11cd0:	00e68023          	sb	a4,0(a3)
   11cd4:	0007a683          	lw	a3,0(a5)
   11cd8:	0006c603          	lbu	a2,0(a3)
   11cdc:	00e68023          	sb	a4,0(a3)
   11ce0:	0007a683          	lw	a3,0(a5)
   11ce4:	0006c603          	lbu	a2,0(a3)
   11ce8:	00e68023          	sb	a4,0(a3)
   11cec:	0007a683          	lw	a3,0(a5)
   11cf0:	0006c603          	lbu	a2,0(a3)
   11cf4:	00e68023          	sb	a4,0(a3)
   11cf8:	0007a683          	lw	a3,0(a5)
   11cfc:	0006c603          	lbu	a2,0(a3)
   11d00:	00e68023          	sb	a4,0(a3)
   11d04:	0007a683          	lw	a3,0(a5)
   11d08:	0006c603          	lbu	a2,0(a3)
   11d0c:	00e68023          	sb	a4,0(a3)
   11d10:	0007a683          	lw	a3,0(a5)
   11d14:	0006c603          	lbu	a2,0(a3)
   11d18:	00e68023          	sb	a4,0(a3)
   11d1c:	0007a683          	lw	a3,0(a5)
   11d20:	0006c603          	lbu	a2,0(a3)
   11d24:	00e68023          	sb	a4,0(a3)
   11d28:	0007a683          	lw	a3,0(a5)
   11d2c:	0006c603          	lbu	a2,0(a3)
   11d30:	00e68023          	sb	a4,0(a3)
   11d34:	0007a683          	lw	a3,0(a5)
   11d38:	0006c603          	lbu	a2,0(a3)
   11d3c:	00e68023          	sb	a4,0(a3)
   11d40:	0007a683          	lw	a3,0(a5)
   11d44:	0006c603          	lbu	a2,0(a3)
   11d48:	00e68023          	sb	a4,0(a3)
   11d4c:	0007a683          	lw	a3,0(a5)
   11d50:	0006c603          	lbu	a2,0(a3)
   11d54:	00e68023          	sb	a4,0(a3)
   11d58:	0007a683          	lw	a3,0(a5)
   11d5c:	0006c603          	lbu	a2,0(a3)
   11d60:	00e68023          	sb	a4,0(a3)
   11d64:	0007a783          	lw	a5,0(a5)
   11d68:	0007c783          	lbu	a5,0(a5)
   11d6c:	921fe06f          	j	1068c <_Z8E32Sleepy>

00011d70 <_Z13SDCardStartupv>:
   11d70:	ff010113          	addi	sp,sp,-16
   11d74:	00812423          	sw	s0,8(sp)
   11d78:	81018413          	addi	s0,gp,-2032 # 1b1c8 <IO_SPIRXTX>
   11d7c:	00042783          	lw	a5,0(s0)
   11d80:	00912223          	sw	s1,4(sp)
   11d84:	00112623          	sw	ra,12(sp)
   11d88:	01212023          	sw	s2,0(sp)
   11d8c:	fff00493          	li	s1,-1
   11d90:	00978023          	sb	s1,0(a5)
   11d94:	00042783          	lw	a5,0(s0)
   11d98:	0007c703          	lbu	a4,0(a5)
   11d9c:	00978023          	sb	s1,0(a5)
   11da0:	00042783          	lw	a5,0(s0)
   11da4:	0007c703          	lbu	a4,0(a5)
   11da8:	00978023          	sb	s1,0(a5)
   11dac:	00042783          	lw	a5,0(s0)
   11db0:	0007c703          	lbu	a4,0(a5)
   11db4:	00978023          	sb	s1,0(a5)
   11db8:	00042783          	lw	a5,0(s0)
   11dbc:	0007c703          	lbu	a4,0(a5)
   11dc0:	00978023          	sb	s1,0(a5)
   11dc4:	00042783          	lw	a5,0(s0)
   11dc8:	0007c703          	lbu	a4,0(a5)
   11dcc:	00978023          	sb	s1,0(a5)
   11dd0:	00042783          	lw	a5,0(s0)
   11dd4:	0007c703          	lbu	a4,0(a5)
   11dd8:	00978023          	sb	s1,0(a5)
   11ddc:	00042783          	lw	a5,0(s0)
   11de0:	0007c703          	lbu	a4,0(a5)
   11de4:	00978023          	sb	s1,0(a5)
   11de8:	00042783          	lw	a5,0(s0)
   11dec:	0007c783          	lbu	a5,0(a5)
   11df0:	eb9fe0ef          	jal	ra,10ca8 <_Z6SDIdlev>
   11df4:	00100793          	li	a5,1
   11df8:	08f51e63          	bne	a0,a5,11e94 <_Z13SDCardStartupv+0x124>
   11dfc:	00050913          	mv	s2,a0
   11e00:	810ff0ef          	jal	ra,10e10 <_Z19SDCheckVoltageRangev>
   11e04:	09251863          	bne	a0,s2,11e94 <_Z13SDCardStartupv+0x124>
   11e08:	a1cff0ef          	jal	ra,11024 <_Z10SDCardInitv>
   11e0c:	00050793          	mv	a5,a0
   11e10:	00000513          	li	a0,0
   11e14:	00079e63          	bnez	a5,11e30 <_Z13SDCardStartupv+0xc0>
   11e18:	00c12083          	lw	ra,12(sp)
   11e1c:	00812403          	lw	s0,8(sp)
   11e20:	00412483          	lw	s1,4(sp)
   11e24:	00012903          	lw	s2,0(sp)
   11e28:	01010113          	addi	sp,sp,16
   11e2c:	00008067          	ret
   11e30:	00042783          	lw	a5,0(s0)
   11e34:	00978023          	sb	s1,0(a5)
   11e38:	00042783          	lw	a5,0(s0)
   11e3c:	0007c703          	lbu	a4,0(a5)
   11e40:	00978023          	sb	s1,0(a5)
   11e44:	00042783          	lw	a5,0(s0)
   11e48:	0007c703          	lbu	a4,0(a5)
   11e4c:	00978023          	sb	s1,0(a5)
   11e50:	00042783          	lw	a5,0(s0)
   11e54:	0007c703          	lbu	a4,0(a5)
   11e58:	00978023          	sb	s1,0(a5)
   11e5c:	00042783          	lw	a5,0(s0)
   11e60:	0007c703          	lbu	a4,0(a5)
   11e64:	00978023          	sb	s1,0(a5)
   11e68:	00042783          	lw	a5,0(s0)
   11e6c:	0007c703          	lbu	a4,0(a5)
   11e70:	00978023          	sb	s1,0(a5)
   11e74:	00042783          	lw	a5,0(s0)
   11e78:	0007c703          	lbu	a4,0(a5)
   11e7c:	00978023          	sb	s1,0(a5)
   11e80:	00042783          	lw	a5,0(s0)
   11e84:	0007c703          	lbu	a4,0(a5)
   11e88:	00978023          	sb	s1,0(a5)
   11e8c:	00042783          	lw	a5,0(s0)
   11e90:	0007c783          	lbu	a5,0(a5)
   11e94:	00c12083          	lw	ra,12(sp)
   11e98:	00812403          	lw	s0,8(sp)
   11e9c:	00412483          	lw	s1,4(sp)
   11ea0:	00012903          	lw	s2,0(sp)
   11ea4:	fff00513          	li	a0,-1
   11ea8:	01010113          	addi	sp,sp,16
   11eac:	00008067          	ret

00011eb0 <_ZL12get_ldnumberPPKc>:
   11eb0:	00052e83          	lw	t4,0(a0)
   11eb4:	00050f93          	mv	t6,a0
   11eb8:	040e8663          	beqz	t4,11f04 <_ZL12get_ldnumberPPKc+0x54>
   11ebc:	000e8313          	mv	t1,t4
   11ec0:	01f00713          	li	a4,31
   11ec4:	03a00693          	li	a3,58
   11ec8:	0080006f          	j	11ed0 <_ZL12get_ldnumberPPKc+0x20>
   11ecc:	04d78063          	beq	a5,a3,11f0c <_ZL12get_ldnumberPPKc+0x5c>
   11ed0:	00034783          	lbu	a5,0(t1)
   11ed4:	00130313          	addi	t1,t1,1
   11ed8:	fef76ae3          	bltu	a4,a5,11ecc <_ZL12get_ldnumberPPKc+0x1c>
   11edc:	8281c503          	lbu	a0,-2008(gp) # 1b1e0 <_ZL7CurrVol>
   11ee0:	00008067          	ret
   11ee4:	fe070613          	addi	a2,a4,-32
   11ee8:	00d8e463          	bltu	a7,a3,11ef0 <_ZL12get_ldnumberPPKc+0x40>
   11eec:	0ff67713          	zext.b	a4,a2
   11ef0:	08079263          	bnez	a5,11f74 <_ZL12get_ldnumberPPKc+0xc4>
   11ef4:	0b030063          	beq	t1,a6,11f94 <_ZL12get_ldnumberPPKc+0xe4>
   11ef8:	00150513          	addi	a0,a0,1
   11efc:	004f0f13          	addi	t5,t5,4
   11f00:	02751a63          	bne	a0,t2,11f34 <_ZL12get_ldnumberPPKc+0x84>
   11f04:	fff00513          	li	a0,-1
   11f08:	00008067          	ret
   11f0c:	000ec283          	lbu	t0,0(t4)
   11f10:	00900713          	li	a4,9
   11f14:	fd028793          	addi	a5,t0,-48
   11f18:	0ff7f693          	zext.b	a3,a5
   11f1c:	06d77263          	bgeu	a4,a3,11f80 <_ZL12get_ldnumberPPKc+0xd0>
   11f20:	00007f17          	auipc	t5,0x7
   11f24:	3d4f0f13          	addi	t5,t5,980 # 192f4 <_ZL9VolumeStr>
   11f28:	00000513          	li	a0,0
   11f2c:	01900893          	li	a7,25
   11f30:	00300393          	li	t2,3
   11f34:	000f2583          	lw	a1,0(t5)
   11f38:	00028713          	mv	a4,t0
   11f3c:	000e8813          	mv	a6,t4
   11f40:	0005c783          	lbu	a5,0(a1)
   11f44:	f9f70693          	addi	a3,a4,-97
   11f48:	0ff6f693          	zext.b	a3,a3
   11f4c:	f9f78613          	addi	a2,a5,-97
   11f50:	0ff67613          	zext.b	a2,a2
   11f54:	fe078e13          	addi	t3,a5,-32
   11f58:	00158593          	addi	a1,a1,1
   11f5c:	00180813          	addi	a6,a6,1
   11f60:	f8c8e2e3          	bltu	a7,a2,11ee4 <_ZL12get_ldnumberPPKc+0x34>
   11f64:	fe070613          	addi	a2,a4,-32
   11f68:	0ffe7793          	zext.b	a5,t3
   11f6c:	00d8e463          	bltu	a7,a3,11f74 <_ZL12get_ldnumberPPKc+0xc4>
   11f70:	0ff67713          	zext.b	a4,a2
   11f74:	f8f712e3          	bne	a4,a5,11ef8 <_ZL12get_ldnumberPPKc+0x48>
   11f78:	00084703          	lbu	a4,0(a6)
   11f7c:	fc5ff06f          	j	11f40 <_ZL12get_ldnumberPPKc+0x90>
   11f80:	002e8713          	addi	a4,t4,2
   11f84:	f8e31ee3          	bne	t1,a4,11f20 <_ZL12get_ldnumberPPKc+0x70>
   11f88:	00078513          	mv	a0,a5
   11f8c:	00200793          	li	a5,2
   11f90:	f6a7cae3          	blt	a5,a0,11f04 <_ZL12get_ldnumberPPKc+0x54>
   11f94:	006fa023          	sw	t1,0(t6)
   11f98:	00008067          	ret

00011f9c <_ZL11move_windowP5FATFSm>:
   11f9c:	03452603          	lw	a2,52(a0)
   11fa0:	00b61663          	bne	a2,a1,11fac <_ZL11move_windowP5FATFSm+0x10>
   11fa4:	00000513          	li	a0,0
   11fa8:	00008067          	ret
   11fac:	ff010113          	addi	sp,sp,-16
   11fb0:	00812423          	sw	s0,8(sp)
   11fb4:	00912223          	sw	s1,4(sp)
   11fb8:	01212023          	sw	s2,0(sp)
   11fbc:	00112623          	sw	ra,12(sp)
   11fc0:	00354783          	lbu	a5,3(a0)
   11fc4:	00050413          	mv	s0,a0
   11fc8:	00058493          	mv	s1,a1
   11fcc:	00154503          	lbu	a0,1(a0)
   11fd0:	03840913          	addi	s2,s0,56
   11fd4:	04079063          	bnez	a5,12014 <_ZL11move_windowP5FATFSm+0x78>
   11fd8:	00100693          	li	a3,1
   11fdc:	00048613          	mv	a2,s1
   11fe0:	00090593          	mv	a1,s2
   11fe4:	055030ef          	jal	ra,15838 <disk_read>
   11fe8:	02051063          	bnez	a0,12008 <_ZL11move_windowP5FATFSm+0x6c>
   11fec:	02942a23          	sw	s1,52(s0)
   11ff0:	00c12083          	lw	ra,12(sp)
   11ff4:	00812403          	lw	s0,8(sp)
   11ff8:	00412483          	lw	s1,4(sp)
   11ffc:	00012903          	lw	s2,0(sp)
   12000:	01010113          	addi	sp,sp,16
   12004:	00008067          	ret
   12008:	00100513          	li	a0,1
   1200c:	fff00493          	li	s1,-1
   12010:	fddff06f          	j	11fec <_ZL11move_windowP5FATFSm+0x50>
   12014:	00100693          	li	a3,1
   12018:	00090593          	mv	a1,s2
   1201c:	05d030ef          	jal	ra,15878 <disk_write>
   12020:	00050793          	mv	a5,a0
   12024:	00100513          	li	a0,1
   12028:	fc0794e3          	bnez	a5,11ff0 <_ZL11move_windowP5FATFSm+0x54>
   1202c:	03442603          	lw	a2,52(s0)
   12030:	02842783          	lw	a5,40(s0)
   12034:	02042703          	lw	a4,32(s0)
   12038:	000401a3          	sb	zero,3(s0)
   1203c:	40f607b3          	sub	a5,a2,a5
   12040:	00144503          	lbu	a0,1(s0)
   12044:	f8e7fae3          	bgeu	a5,a4,11fd8 <_ZL11move_windowP5FATFSm+0x3c>
   12048:	00244683          	lbu	a3,2(s0)
   1204c:	00200793          	li	a5,2
   12050:	f8f694e3          	bne	a3,a5,11fd8 <_ZL11move_windowP5FATFSm+0x3c>
   12054:	00100693          	li	a3,1
   12058:	00e60633          	add	a2,a2,a4
   1205c:	00090593          	mv	a1,s2
   12060:	019030ef          	jal	ra,15878 <disk_write>
   12064:	00144503          	lbu	a0,1(s0)
   12068:	f71ff06f          	j	11fd8 <_ZL11move_windowP5FATFSm+0x3c>

0001206c <_ZL7put_fatP5FATFSmm.part.0>:
   1206c:	fe010113          	addi	sp,sp,-32
   12070:	00812c23          	sw	s0,24(sp)
   12074:	00912a23          	sw	s1,20(sp)
   12078:	01212823          	sw	s2,16(sp)
   1207c:	00112e23          	sw	ra,28(sp)
   12080:	01312623          	sw	s3,12(sp)
   12084:	01412423          	sw	s4,8(sp)
   12088:	01512223          	sw	s5,4(sp)
   1208c:	01612023          	sw	s6,0(sp)
   12090:	00054983          	lbu	s3,0(a0)
   12094:	00200793          	li	a5,2
   12098:	00050493          	mv	s1,a0
   1209c:	00058413          	mv	s0,a1
   120a0:	00060913          	mv	s2,a2
   120a4:	04f98263          	beq	s3,a5,120e8 <_ZL7put_fatP5FATFSmm.part.0+0x7c>
   120a8:	00300793          	li	a5,3
   120ac:	10f98663          	beq	s3,a5,121b8 <_ZL7put_fatP5FATFSmm.part.0+0x14c>
   120b0:	00100713          	li	a4,1
   120b4:	00200793          	li	a5,2
   120b8:	06e98863          	beq	s3,a4,12128 <_ZL7put_fatP5FATFSmm.part.0+0xbc>
   120bc:	01c12083          	lw	ra,28(sp)
   120c0:	01812403          	lw	s0,24(sp)
   120c4:	01412483          	lw	s1,20(sp)
   120c8:	01012903          	lw	s2,16(sp)
   120cc:	00c12983          	lw	s3,12(sp)
   120d0:	00812a03          	lw	s4,8(sp)
   120d4:	00412a83          	lw	s5,4(sp)
   120d8:	00012b03          	lw	s6,0(sp)
   120dc:	00078513          	mv	a0,a5
   120e0:	02010113          	addi	sp,sp,32
   120e4:	00008067          	ret
   120e8:	02852783          	lw	a5,40(a0)
   120ec:	0085d593          	srli	a1,a1,0x8
   120f0:	00f585b3          	add	a1,a1,a5
   120f4:	ea9ff0ef          	jal	ra,11f9c <_ZL11move_windowP5FATFSm>
   120f8:	00050793          	mv	a5,a0
   120fc:	fc0510e3          	bnez	a0,120bc <_ZL7put_fatP5FATFSmm.part.0+0x50>
   12100:	00141413          	slli	s0,s0,0x1
   12104:	01091713          	slli	a4,s2,0x10
   12108:	03848793          	addi	a5,s1,56
   1210c:	1fe47413          	andi	s0,s0,510
   12110:	01075713          	srli	a4,a4,0x10
   12114:	008787b3          	add	a5,a5,s0
   12118:	00875713          	srli	a4,a4,0x8
   1211c:	01278023          	sb	s2,0(a5)
   12120:	00e780a3          	sb	a4,1(a5)
   12124:	0f40006f          	j	12218 <_ZL7put_fatP5FATFSmm.part.0+0x1ac>
   12128:	02852783          	lw	a5,40(a0)
   1212c:	0015da13          	srli	s4,a1,0x1
   12130:	00ba0a33          	add	s4,s4,a1
   12134:	009a5593          	srli	a1,s4,0x9
   12138:	00f585b3          	add	a1,a1,a5
   1213c:	e61ff0ef          	jal	ra,11f9c <_ZL11move_windowP5FATFSm>
   12140:	00050793          	mv	a5,a0
   12144:	f6051ce3          	bnez	a0,120bc <_ZL7put_fatP5FATFSmm.part.0+0x50>
   12148:	001a0b13          	addi	s6,s4,1 # 12001 <_ZL11move_windowP5FATFSm+0x65>
   1214c:	03848a93          	addi	s5,s1,56
   12150:	1ffa7a13          	andi	s4,s4,511
   12154:	00147413          	andi	s0,s0,1
   12158:	014a8a33          	add	s4,s5,s4
   1215c:	009b5693          	srli	a3,s6,0x9
   12160:	0c040463          	beqz	s0,12228 <_ZL7put_fatP5FATFSmm.part.0+0x1bc>
   12164:	000a4783          	lbu	a5,0(s4)
   12168:	00001637          	lui	a2,0x1
   1216c:	ff060613          	addi	a2,a2,-16 # ff0 <exit-0xf0a4>
   12170:	00491713          	slli	a4,s2,0x4
   12174:	00c77733          	and	a4,a4,a2
   12178:	00f7f793          	andi	a5,a5,15
   1217c:	00e7e7b3          	or	a5,a5,a4
   12180:	00fa0023          	sb	a5,0(s4)
   12184:	0284a583          	lw	a1,40(s1)
   12188:	013481a3          	sb	s3,3(s1)
   1218c:	00048513          	mv	a0,s1
   12190:	00b685b3          	add	a1,a3,a1
   12194:	e09ff0ef          	jal	ra,11f9c <_ZL11move_windowP5FATFSm>
   12198:	00050793          	mv	a5,a0
   1219c:	f20510e3          	bnez	a0,120bc <_ZL7put_fatP5FATFSmm.part.0+0x50>
   121a0:	1ffb7b13          	andi	s6,s6,511
   121a4:	00495793          	srli	a5,s2,0x4
   121a8:	016a8ab3          	add	s5,s5,s6
   121ac:	0ff7f793          	zext.b	a5,a5
   121b0:	00fa8023          	sb	a5,0(s5)
   121b4:	0640006f          	j	12218 <_ZL7put_fatP5FATFSmm.part.0+0x1ac>
   121b8:	02852783          	lw	a5,40(a0)
   121bc:	0075d593          	srli	a1,a1,0x7
   121c0:	00f585b3          	add	a1,a1,a5
   121c4:	dd9ff0ef          	jal	ra,11f9c <_ZL11move_windowP5FATFSm>
   121c8:	00050793          	mv	a5,a0
   121cc:	ee0518e3          	bnez	a0,120bc <_ZL7put_fatP5FATFSmm.part.0+0x50>
   121d0:	00241413          	slli	s0,s0,0x2
   121d4:	03848713          	addi	a4,s1,56
   121d8:	1fc47413          	andi	s0,s0,508
   121dc:	00870733          	add	a4,a4,s0
   121e0:	00374783          	lbu	a5,3(a4)
   121e4:	f00006b7          	lui	a3,0xf0000
   121e8:	00491913          	slli	s2,s2,0x4
   121ec:	01879793          	slli	a5,a5,0x18
   121f0:	00d7f7b3          	and	a5,a5,a3
   121f4:	00495913          	srli	s2,s2,0x4
   121f8:	0127e7b3          	or	a5,a5,s2
   121fc:	0087d593          	srli	a1,a5,0x8
   12200:	0107d613          	srli	a2,a5,0x10
   12204:	0187d693          	srli	a3,a5,0x18
   12208:	00f70023          	sb	a5,0(a4)
   1220c:	00b700a3          	sb	a1,1(a4)
   12210:	00c70123          	sb	a2,2(a4)
   12214:	00d701a3          	sb	a3,3(a4)
   12218:	00100793          	li	a5,1
   1221c:	00f481a3          	sb	a5,3(s1)
   12220:	00000793          	li	a5,0
   12224:	e99ff06f          	j	120bc <_ZL7put_fatP5FATFSmm.part.0+0x50>
   12228:	012a0023          	sb	s2,0(s4)
   1222c:	0284a583          	lw	a1,40(s1)
   12230:	013481a3          	sb	s3,3(s1)
   12234:	00048513          	mv	a0,s1
   12238:	00b685b3          	add	a1,a3,a1
   1223c:	d61ff0ef          	jal	ra,11f9c <_ZL11move_windowP5FATFSm>
   12240:	00050793          	mv	a5,a0
   12244:	e6051ce3          	bnez	a0,120bc <_ZL7put_fatP5FATFSmm.part.0+0x50>
   12248:	1ffb7b13          	andi	s6,s6,511
   1224c:	016a8ab3          	add	s5,s5,s6
   12250:	000ac783          	lbu	a5,0(s5)
   12254:	00895913          	srli	s2,s2,0x8
   12258:	00f97913          	andi	s2,s2,15
   1225c:	ff07f793          	andi	a5,a5,-16
   12260:	0127e7b3          	or	a5,a5,s2
   12264:	00fa8023          	sb	a5,0(s5)
   12268:	fb1ff06f          	j	12218 <_ZL7put_fatP5FATFSmm.part.0+0x1ac>

0001226c <_ZL7get_fatP7FFOBJIDm.isra.0>:
   1226c:	00100713          	li	a4,1
   12270:	06b77463          	bgeu	a4,a1,122d8 <_ZL7get_fatP7FFOBJIDm.isra.0+0x6c>
   12274:	01c52703          	lw	a4,28(a0)
   12278:	fe010113          	addi	sp,sp,-32
   1227c:	00812c23          	sw	s0,24(sp)
   12280:	01212823          	sw	s2,16(sp)
   12284:	00112e23          	sw	ra,28(sp)
   12288:	00912a23          	sw	s1,20(sp)
   1228c:	01312623          	sw	s3,12(sp)
   12290:	00058413          	mv	s0,a1
   12294:	00050913          	mv	s2,a0
   12298:	00100793          	li	a5,1
   1229c:	00e5fe63          	bgeu	a1,a4,122b8 <_ZL7get_fatP7FFOBJIDm.isra.0+0x4c>
   122a0:	00054703          	lbu	a4,0(a0)
   122a4:	00200693          	li	a3,2
   122a8:	0cd70863          	beq	a4,a3,12378 <_ZL7get_fatP7FFOBJIDm.isra.0+0x10c>
   122ac:	00300693          	li	a3,3
   122b0:	06d70a63          	beq	a4,a3,12324 <_ZL7get_fatP7FFOBJIDm.isra.0+0xb8>
   122b4:	02f70863          	beq	a4,a5,122e4 <_ZL7get_fatP7FFOBJIDm.isra.0+0x78>
   122b8:	01c12083          	lw	ra,28(sp)
   122bc:	01812403          	lw	s0,24(sp)
   122c0:	01412483          	lw	s1,20(sp)
   122c4:	01012903          	lw	s2,16(sp)
   122c8:	00c12983          	lw	s3,12(sp)
   122cc:	00078513          	mv	a0,a5
   122d0:	02010113          	addi	sp,sp,32
   122d4:	00008067          	ret
   122d8:	00100793          	li	a5,1
   122dc:	00078513          	mv	a0,a5
   122e0:	00008067          	ret
   122e4:	0015d493          	srli	s1,a1,0x1
   122e8:	02852783          	lw	a5,40(a0)
   122ec:	00b484b3          	add	s1,s1,a1
   122f0:	0094d593          	srli	a1,s1,0x9
   122f4:	00f585b3          	add	a1,a1,a5
   122f8:	ca5ff0ef          	jal	ra,11f9c <_ZL11move_windowP5FATFSm>
   122fc:	0a050863          	beqz	a0,123ac <_ZL7get_fatP7FFOBJIDm.isra.0+0x140>
   12300:	01c12083          	lw	ra,28(sp)
   12304:	01812403          	lw	s0,24(sp)
   12308:	fff00793          	li	a5,-1
   1230c:	01412483          	lw	s1,20(sp)
   12310:	01012903          	lw	s2,16(sp)
   12314:	00c12983          	lw	s3,12(sp)
   12318:	00078513          	mv	a0,a5
   1231c:	02010113          	addi	sp,sp,32
   12320:	00008067          	ret
   12324:	02852783          	lw	a5,40(a0)
   12328:	0075d593          	srli	a1,a1,0x7
   1232c:	00f585b3          	add	a1,a1,a5
   12330:	c6dff0ef          	jal	ra,11f9c <_ZL11move_windowP5FATFSm>
   12334:	fc0516e3          	bnez	a0,12300 <_ZL7get_fatP7FFOBJIDm.isra.0+0x94>
   12338:	00241413          	slli	s0,s0,0x2
   1233c:	1fc47413          	andi	s0,s0,508
   12340:	008907b3          	add	a5,s2,s0
   12344:	0397c683          	lbu	a3,57(a5)
   12348:	0387c603          	lbu	a2,56(a5)
   1234c:	03a7c703          	lbu	a4,58(a5)
   12350:	03b7c783          	lbu	a5,59(a5)
   12354:	00869693          	slli	a3,a3,0x8
   12358:	00c6e6b3          	or	a3,a3,a2
   1235c:	01071713          	slli	a4,a4,0x10
   12360:	00d76733          	or	a4,a4,a3
   12364:	01879793          	slli	a5,a5,0x18
   12368:	00e7e7b3          	or	a5,a5,a4
   1236c:	00479793          	slli	a5,a5,0x4
   12370:	0047d793          	srli	a5,a5,0x4
   12374:	f45ff06f          	j	122b8 <_ZL7get_fatP7FFOBJIDm.isra.0+0x4c>
   12378:	02852783          	lw	a5,40(a0)
   1237c:	0085d593          	srli	a1,a1,0x8
   12380:	00f585b3          	add	a1,a1,a5
   12384:	c19ff0ef          	jal	ra,11f9c <_ZL11move_windowP5FATFSm>
   12388:	f6051ce3          	bnez	a0,12300 <_ZL7get_fatP7FFOBJIDm.isra.0+0x94>
   1238c:	00141513          	slli	a0,s0,0x1
   12390:	1fe57513          	andi	a0,a0,510
   12394:	00a90533          	add	a0,s2,a0
   12398:	03954783          	lbu	a5,57(a0)
   1239c:	03854703          	lbu	a4,56(a0)
   123a0:	00879793          	slli	a5,a5,0x8
   123a4:	00e7e7b3          	or	a5,a5,a4
   123a8:	f11ff06f          	j	122b8 <_ZL7get_fatP7FFOBJIDm.isra.0+0x4c>
   123ac:	02892783          	lw	a5,40(s2)
   123b0:	00148993          	addi	s3,s1,1
   123b4:	0099d593          	srli	a1,s3,0x9
   123b8:	1ff4f493          	andi	s1,s1,511
   123bc:	009904b3          	add	s1,s2,s1
   123c0:	00f585b3          	add	a1,a1,a5
   123c4:	00090513          	mv	a0,s2
   123c8:	0384c483          	lbu	s1,56(s1)
   123cc:	bd1ff0ef          	jal	ra,11f9c <_ZL11move_windowP5FATFSm>
   123d0:	f20518e3          	bnez	a0,12300 <_ZL7get_fatP7FFOBJIDm.isra.0+0x94>
   123d4:	1ff9f993          	andi	s3,s3,511
   123d8:	013909b3          	add	s3,s2,s3
   123dc:	0389c783          	lbu	a5,56(s3)
   123e0:	00147413          	andi	s0,s0,1
   123e4:	00879793          	slli	a5,a5,0x8
   123e8:	0097e7b3          	or	a5,a5,s1
   123ec:	f80412e3          	bnez	s0,12370 <_ZL7get_fatP7FFOBJIDm.isra.0+0x104>
   123f0:	01479793          	slli	a5,a5,0x14
   123f4:	0147d793          	srli	a5,a5,0x14
   123f8:	ec1ff06f          	j	122b8 <_ZL7get_fatP7FFOBJIDm.isra.0+0x4c>

000123fc <_ZL8check_fsP5FATFSm>:
   123fc:	ff010113          	addi	sp,sp,-16
   12400:	00812423          	sw	s0,8(sp)
   12404:	01212023          	sw	s2,0(sp)
   12408:	00112623          	sw	ra,12(sp)
   1240c:	00912223          	sw	s1,4(sp)
   12410:	fff00913          	li	s2,-1
   12414:	000501a3          	sb	zero,3(a0)
   12418:	03252a23          	sw	s2,52(a0)
   1241c:	00050413          	mv	s0,a0
   12420:	19259863          	bne	a1,s2,125b0 <_ZL8check_fsP5FATFSm+0x1b4>
   12424:	23744483          	lbu	s1,567(s0)
   12428:	23644683          	lbu	a3,566(s0)
   1242c:	03844783          	lbu	a5,56(s0)
   12430:	00849493          	slli	s1,s1,0x8
   12434:	0eb00713          	li	a4,235
   12438:	00d4e4b3          	or	s1,s1,a3
   1243c:	04e78063          	beq	a5,a4,1247c <_ZL8check_fsP5FATFSm+0x80>
   12440:	01878793          	addi	a5,a5,24
   12444:	0ff7f793          	zext.b	a5,a5
   12448:	00100713          	li	a4,1
   1244c:	02f77863          	bgeu	a4,a5,1247c <_ZL8check_fsP5FATFSm+0x80>
   12450:	0000b537          	lui	a0,0xb
   12454:	a5550513          	addi	a0,a0,-1451 # aa55 <exit-0x563f>
   12458:	40a48533          	sub	a0,s1,a0
   1245c:	00a03533          	snez	a0,a0
   12460:	00250513          	addi	a0,a0,2
   12464:	00c12083          	lw	ra,12(sp)
   12468:	00812403          	lw	s0,8(sp)
   1246c:	00412483          	lw	s1,4(sp)
   12470:	00012903          	lw	s2,0(sp)
   12474:	01010113          	addi	sp,sp,16
   12478:	00008067          	ret
   1247c:	0000b7b7          	lui	a5,0xb
   12480:	a5578793          	addi	a5,a5,-1451 # aa55 <exit-0x563f>
   12484:	0ef48063          	beq	s1,a5,12564 <_ZL8check_fsP5FATFSm+0x168>
   12488:	04444783          	lbu	a5,68(s0)
   1248c:	04344703          	lbu	a4,67(s0)
   12490:	00300513          	li	a0,3
   12494:	00879793          	slli	a5,a5,0x8
   12498:	00e7e7b3          	or	a5,a5,a4
   1249c:	fff78713          	addi	a4,a5,-1
   124a0:	00f77733          	and	a4,a4,a5
   124a4:	fc0710e3          	bnez	a4,12464 <_ZL8check_fsP5FATFSm+0x68>
   124a8:	20000713          	li	a4,512
   124ac:	00300513          	li	a0,3
   124b0:	fae79ae3          	bne	a5,a4,12464 <_ZL8check_fsP5FATFSm+0x68>
   124b4:	04544783          	lbu	a5,69(s0)
   124b8:	fa0786e3          	beqz	a5,12464 <_ZL8check_fsP5FATFSm+0x68>
   124bc:	fff78713          	addi	a4,a5,-1
   124c0:	00f777b3          	and	a5,a4,a5
   124c4:	fa0790e3          	bnez	a5,12464 <_ZL8check_fsP5FATFSm+0x68>
   124c8:	04744783          	lbu	a5,71(s0)
   124cc:	04644703          	lbu	a4,70(s0)
   124d0:	00879793          	slli	a5,a5,0x8
   124d4:	00e7e7b3          	or	a5,a5,a4
   124d8:	f6078ce3          	beqz	a5,12450 <_ZL8check_fsP5FATFSm+0x54>
   124dc:	04844783          	lbu	a5,72(s0)
   124e0:	00100713          	li	a4,1
   124e4:	fff78793          	addi	a5,a5,-1
   124e8:	f6f764e3          	bltu	a4,a5,12450 <_ZL8check_fsP5FATFSm+0x54>
   124ec:	04a44783          	lbu	a5,74(s0)
   124f0:	04944703          	lbu	a4,73(s0)
   124f4:	00879793          	slli	a5,a5,0x8
   124f8:	00e7e7b3          	or	a5,a5,a4
   124fc:	f4078ae3          	beqz	a5,12450 <_ZL8check_fsP5FATFSm+0x54>
   12500:	04c44783          	lbu	a5,76(s0)
   12504:	04b44683          	lbu	a3,75(s0)
   12508:	07f00713          	li	a4,127
   1250c:	00879793          	slli	a5,a5,0x8
   12510:	00d7e7b3          	or	a5,a5,a3
   12514:	02f76a63          	bltu	a4,a5,12548 <_ZL8check_fsP5FATFSm+0x14c>
   12518:	05944683          	lbu	a3,89(s0)
   1251c:	05844603          	lbu	a2,88(s0)
   12520:	05a44703          	lbu	a4,90(s0)
   12524:	05b44783          	lbu	a5,91(s0)
   12528:	00869693          	slli	a3,a3,0x8
   1252c:	00c6e6b3          	or	a3,a3,a2
   12530:	01071713          	slli	a4,a4,0x10
   12534:	00d76733          	or	a4,a4,a3
   12538:	01879793          	slli	a5,a5,0x18
   1253c:	00e7e7b3          	or	a5,a5,a4
   12540:	00010737          	lui	a4,0x10
   12544:	f0e7e6e3          	bltu	a5,a4,12450 <_ZL8check_fsP5FATFSm+0x54>
   12548:	04f44783          	lbu	a5,79(s0)
   1254c:	04e44703          	lbu	a4,78(s0)
   12550:	00879793          	slli	a5,a5,0x8
   12554:	00e7e7b3          	or	a5,a5,a4
   12558:	ee078ce3          	beqz	a5,12450 <_ZL8check_fsP5FATFSm+0x54>
   1255c:	00000513          	li	a0,0
   12560:	f05ff06f          	j	12464 <_ZL8check_fsP5FATFSm+0x68>
   12564:	00800613          	li	a2,8
   12568:	00007597          	auipc	a1,0x7
   1256c:	cd058593          	addi	a1,a1,-816 # 19238 <_ZL6dither+0x4f0>
   12570:	08a40513          	addi	a0,s0,138
   12574:	489050ef          	jal	ra,181fc <memcmp>
   12578:	00050793          	mv	a5,a0
   1257c:	00000513          	li	a0,0
   12580:	ee0782e3          	beqz	a5,12464 <_ZL8check_fsP5FATFSm+0x68>
   12584:	04444783          	lbu	a5,68(s0)
   12588:	04344703          	lbu	a4,67(s0)
   1258c:	00200513          	li	a0,2
   12590:	00879793          	slli	a5,a5,0x8
   12594:	00e7e7b3          	or	a5,a5,a4
   12598:	fff78713          	addi	a4,a5,-1
   1259c:	00f77733          	and	a4,a4,a5
   125a0:	ec0712e3          	bnez	a4,12464 <_ZL8check_fsP5FATFSm+0x68>
   125a4:	20000713          	li	a4,512
   125a8:	eae79ee3          	bne	a5,a4,12464 <_ZL8check_fsP5FATFSm+0x68>
   125ac:	f09ff06f          	j	124b4 <_ZL8check_fsP5FATFSm+0xb8>
   125b0:	00154503          	lbu	a0,1(a0)
   125b4:	00058493          	mv	s1,a1
   125b8:	00058613          	mv	a2,a1
   125bc:	00100693          	li	a3,1
   125c0:	03840593          	addi	a1,s0,56
   125c4:	274030ef          	jal	ra,15838 <disk_read>
   125c8:	00050863          	beqz	a0,125d8 <_ZL8check_fsP5FATFSm+0x1dc>
   125cc:	03242a23          	sw	s2,52(s0)
   125d0:	00400513          	li	a0,4
   125d4:	e91ff06f          	j	12464 <_ZL8check_fsP5FATFSm+0x68>
   125d8:	02942a23          	sw	s1,52(s0)
   125dc:	e49ff06f          	j	12424 <_ZL8check_fsP5FATFSm+0x28>

000125e0 <_ZL12mount_volumePPKcPP5FATFSh>:
   125e0:	fe010113          	addi	sp,sp,-32
   125e4:	01212823          	sw	s2,16(sp)
   125e8:	01312623          	sw	s3,12(sp)
   125ec:	00112e23          	sw	ra,28(sp)
   125f0:	00812c23          	sw	s0,24(sp)
   125f4:	00912a23          	sw	s1,20(sp)
   125f8:	0005a023          	sw	zero,0(a1)
   125fc:	00058993          	mv	s3,a1
   12600:	00060913          	mv	s2,a2
   12604:	8adff0ef          	jal	ra,11eb0 <_ZL12get_ldnumberPPKc>
   12608:	38054263          	bltz	a0,1298c <_ZL12mount_volumePPKcPP5FATFSh+0x3ac>
   1260c:	00251713          	slli	a4,a0,0x2
   12610:	c9018793          	addi	a5,gp,-880 # 1b648 <_ZL5FatFs>
   12614:	00e787b3          	add	a5,a5,a4
   12618:	0007a403          	lw	s0,0(a5)
   1261c:	00050493          	mv	s1,a0
   12620:	38040663          	beqz	s0,129ac <_ZL12mount_volumePPKcPP5FATFSh+0x3cc>
   12624:	0089a023          	sw	s0,0(s3)
   12628:	00044783          	lbu	a5,0(s0)
   1262c:	0fe97913          	andi	s2,s2,254
   12630:	04078063          	beqz	a5,12670 <_ZL12mount_volumePPKcPP5FATFSh+0x90>
   12634:	00144503          	lbu	a0,1(s0)
   12638:	1c4030ef          	jal	ra,157fc <disk_status>
   1263c:	00157793          	andi	a5,a0,1
   12640:	02079863          	bnez	a5,12670 <_ZL12mount_volumePPKcPP5FATFSh+0x90>
   12644:	00090663          	beqz	s2,12650 <_ZL12mount_volumePPKcPP5FATFSh+0x70>
   12648:	00457513          	andi	a0,a0,4
   1264c:	32051063          	bnez	a0,1296c <_ZL12mount_volumePPKcPP5FATFSh+0x38c>
   12650:	00000513          	li	a0,0
   12654:	01c12083          	lw	ra,28(sp)
   12658:	01812403          	lw	s0,24(sp)
   1265c:	01412483          	lw	s1,20(sp)
   12660:	01012903          	lw	s2,16(sp)
   12664:	00c12983          	lw	s3,12(sp)
   12668:	02010113          	addi	sp,sp,32
   1266c:	00008067          	ret
   12670:	0ff4f513          	zext.b	a0,s1
   12674:	00040023          	sb	zero,0(s0)
   12678:	00a400a3          	sb	a0,1(s0)
   1267c:	18c030ef          	jal	ra,15808 <disk_initialize>
   12680:	00157713          	andi	a4,a0,1
   12684:	00050793          	mv	a5,a0
   12688:	00300513          	li	a0,3
   1268c:	fc0714e3          	bnez	a4,12654 <_ZL12mount_volumePPKcPP5FATFSh+0x74>
   12690:	00090663          	beqz	s2,1269c <_ZL12mount_volumePPKcPP5FATFSh+0xbc>
   12694:	0047f793          	andi	a5,a5,4
   12698:	2c079a63          	bnez	a5,1296c <_ZL12mount_volumePPKcPP5FATFSh+0x38c>
   1269c:	00000593          	li	a1,0
   126a0:	00040513          	mv	a0,s0
   126a4:	d59ff0ef          	jal	ra,123fc <_ZL8check_fsP5FATFSm>
   126a8:	00200793          	li	a5,2
   126ac:	1cf50a63          	beq	a0,a5,12880 <_ZL12mount_volumePPKcPP5FATFSh+0x2a0>
   126b0:	00400793          	li	a5,4
   126b4:	30f50063          	beq	a0,a5,129b4 <_ZL12mount_volumePPKcPP5FATFSh+0x3d4>
   126b8:	00100793          	li	a5,1
   126bc:	28a7e863          	bltu	a5,a0,1294c <_ZL12mount_volumePPKcPP5FATFSh+0x36c>
   126c0:	04444783          	lbu	a5,68(s0)
   126c4:	04344683          	lbu	a3,67(s0)
   126c8:	20000713          	li	a4,512
   126cc:	00879793          	slli	a5,a5,0x8
   126d0:	00d7e7b3          	or	a5,a5,a3
   126d4:	03442583          	lw	a1,52(s0)
   126d8:	26e79a63          	bne	a5,a4,1294c <_ZL12mount_volumePPKcPP5FATFSh+0x36c>
   126dc:	04f44783          	lbu	a5,79(s0)
   126e0:	04e44703          	lbu	a4,78(s0)
   126e4:	00879793          	slli	a5,a5,0x8
   126e8:	00e7e7b3          	or	a5,a5,a4
   126ec:	02079663          	bnez	a5,12718 <_ZL12mount_volumePPKcPP5FATFSh+0x138>
   126f0:	05d44683          	lbu	a3,93(s0)
   126f4:	05c44603          	lbu	a2,92(s0)
   126f8:	05e44703          	lbu	a4,94(s0)
   126fc:	05f44783          	lbu	a5,95(s0)
   12700:	00869693          	slli	a3,a3,0x8
   12704:	00c6e6b3          	or	a3,a3,a2
   12708:	01071713          	slli	a4,a4,0x10
   1270c:	00d76733          	or	a4,a4,a3
   12710:	01879793          	slli	a5,a5,0x18
   12714:	00e7e7b3          	or	a5,a5,a4
   12718:	04844683          	lbu	a3,72(s0)
   1271c:	02f42023          	sw	a5,32(s0)
   12720:	00100613          	li	a2,1
   12724:	fff68713          	addi	a4,a3,-1 # efffffff <__BSS_END__+0xeff646ab>
   12728:	00d40123          	sb	a3,2(s0)
   1272c:	0ff77713          	zext.b	a4,a4
   12730:	20e66e63          	bltu	a2,a4,1294c <_ZL12mount_volumePPKcPP5FATFSh+0x36c>
   12734:	04544603          	lbu	a2,69(s0)
   12738:	00c41523          	sh	a2,10(s0)
   1273c:	20060863          	beqz	a2,1294c <_ZL12mount_volumePPKcPP5FATFSh+0x36c>
   12740:	fff60713          	addi	a4,a2,-1
   12744:	00c77733          	and	a4,a4,a2
   12748:	20071263          	bnez	a4,1294c <_ZL12mount_volumePPKcPP5FATFSh+0x36c>
   1274c:	04a44503          	lbu	a0,74(s0)
   12750:	04944703          	lbu	a4,73(s0)
   12754:	00851513          	slli	a0,a0,0x8
   12758:	00e56533          	or	a0,a0,a4
   1275c:	00a41423          	sh	a0,8(s0)
   12760:	00f57713          	andi	a4,a0,15
   12764:	1e071463          	bnez	a4,1294c <_ZL12mount_volumePPKcPP5FATFSh+0x36c>
   12768:	04c44703          	lbu	a4,76(s0)
   1276c:	04b44803          	lbu	a6,75(s0)
   12770:	00871713          	slli	a4,a4,0x8
   12774:	01076733          	or	a4,a4,a6
   12778:	02071663          	bnez	a4,127a4 <_ZL12mount_volumePPKcPP5FATFSh+0x1c4>
   1277c:	05944883          	lbu	a7,89(s0)
   12780:	05844303          	lbu	t1,88(s0)
   12784:	05a44803          	lbu	a6,90(s0)
   12788:	05b44703          	lbu	a4,91(s0)
   1278c:	00889893          	slli	a7,a7,0x8
   12790:	0068e8b3          	or	a7,a7,t1
   12794:	01081813          	slli	a6,a6,0x10
   12798:	01186833          	or	a6,a6,a7
   1279c:	01871713          	slli	a4,a4,0x18
   127a0:	01076733          	or	a4,a4,a6
   127a4:	04744803          	lbu	a6,71(s0)
   127a8:	04644883          	lbu	a7,70(s0)
   127ac:	00881813          	slli	a6,a6,0x8
   127b0:	01186833          	or	a6,a6,a7
   127b4:	18080c63          	beqz	a6,1294c <_ZL12mount_volumePPKcPP5FATFSh+0x36c>
   127b8:	02f686b3          	mul	a3,a3,a5
   127bc:	00455893          	srli	a7,a0,0x4
   127c0:	010888b3          	add	a7,a7,a6
   127c4:	00d888b3          	add	a7,a7,a3
   127c8:	19176263          	bltu	a4,a7,1294c <_ZL12mount_volumePPKcPP5FATFSh+0x36c>
   127cc:	41170733          	sub	a4,a4,a7
   127d0:	02c75333          	divu	t1,a4,a2
   127d4:	16c76c63          	bltu	a4,a2,1294c <_ZL12mount_volumePPKcPP5FATFSh+0x36c>
   127d8:	10000737          	lui	a4,0x10000
   127dc:	ff570713          	addi	a4,a4,-11 # ffffff5 <__BSS_END__+0xff646a1>
   127e0:	16676663          	bltu	a4,t1,1294c <_ZL12mount_volumePPKcPP5FATFSh+0x36c>
   127e4:	00010637          	lui	a2,0x10
   127e8:	ff560613          	addi	a2,a2,-11 # fff5 <exit-0x9f>
   127ec:	011588b3          	add	a7,a1,a7
   127f0:	00b80833          	add	a6,a6,a1
   127f4:	00230713          	addi	a4,t1,2
   127f8:	22666663          	bltu	a2,t1,12a24 <_ZL12mount_volumePPKcPP5FATFSh+0x444>
   127fc:	00001637          	lui	a2,0x1
   12800:	ff560613          	addi	a2,a2,-11 # ff5 <exit-0xf09f>
   12804:	00e42e23          	sw	a4,28(s0)
   12808:	02b42223          	sw	a1,36(s0)
   1280c:	03042423          	sw	a6,40(s0)
   12810:	03142823          	sw	a7,48(s0)
   12814:	1e667663          	bgeu	a2,t1,12a00 <_ZL12mount_volumePPKcPP5FATFSh+0x420>
   12818:	12050a63          	beqz	a0,1294c <_ZL12mount_volumePPKcPP5FATFSh+0x36c>
   1281c:	010686b3          	add	a3,a3,a6
   12820:	00171713          	slli	a4,a4,0x1
   12824:	00200613          	li	a2,2
   12828:	1ff70713          	addi	a4,a4,511
   1282c:	02d42623          	sw	a3,44(s0)
   12830:	00975713          	srli	a4,a4,0x9
   12834:	10e7ec63          	bltu	a5,a4,1294c <_ZL12mount_volumePPKcPP5FATFSh+0x36c>
   12838:	fff00793          	li	a5,-1
   1283c:	00f42a23          	sw	a5,20(s0)
   12840:	00f42823          	sw	a5,16(s0)
   12844:	f8000793          	li	a5,-128
   12848:	00f40223          	sb	a5,4(s0)
   1284c:	82a18713          	addi	a4,gp,-2006 # 1b1e2 <_ZL4Fsid>
   12850:	00075783          	lhu	a5,0(a4)
   12854:	00c40023          	sb	a2,0(s0)
   12858:	00042c23          	sw	zero,24(s0)
   1285c:	00178793          	addi	a5,a5,1
   12860:	01079793          	slli	a5,a5,0x10
   12864:	0107d793          	srli	a5,a5,0x10
   12868:	00f71023          	sh	a5,0(a4)
   1286c:	00f41323          	sh	a5,6(s0)
   12870:	a9018793          	addi	a5,gp,-1392 # 1b448 <_ZL6LfnBuf>
   12874:	00f42623          	sw	a5,12(s0)
   12878:	00000513          	li	a0,0
   1287c:	dd9ff06f          	j	12654 <_ZL12mount_volumePPKcPP5FATFSh+0x74>
   12880:	1ff44883          	lbu	a7,511(s0)
   12884:	1fe44483          	lbu	s1,510(s0)
   12888:	20044303          	lbu	t1,512(s0)
   1288c:	20f44803          	lbu	a6,527(s0)
   12890:	21f44503          	lbu	a0,543(s0)
   12894:	22f44603          	lbu	a2,559(s0)
   12898:	20144583          	lbu	a1,513(s0)
   1289c:	20e44383          	lbu	t2,526(s0)
   128a0:	21044683          	lbu	a3,528(s0)
   128a4:	21e44283          	lbu	t0,542(s0)
   128a8:	22044703          	lbu	a4,544(s0)
   128ac:	22e44f83          	lbu	t6,558(s0)
   128b0:	23044783          	lbu	a5,560(s0)
   128b4:	21144f03          	lbu	t5,529(s0)
   128b8:	22144e83          	lbu	t4,545(s0)
   128bc:	23144e03          	lbu	t3,561(s0)
   128c0:	00889893          	slli	a7,a7,0x8
   128c4:	0098e8b3          	or	a7,a7,s1
   128c8:	01031313          	slli	t1,t1,0x10
   128cc:	00881813          	slli	a6,a6,0x8
   128d0:	00851513          	slli	a0,a0,0x8
   128d4:	00861613          	slli	a2,a2,0x8
   128d8:	00786833          	or	a6,a6,t2
   128dc:	00556533          	or	a0,a0,t0
   128e0:	01f66633          	or	a2,a2,t6
   128e4:	01136333          	or	t1,t1,a7
   128e8:	01859593          	slli	a1,a1,0x18
   128ec:	01069693          	slli	a3,a3,0x10
   128f0:	01071713          	slli	a4,a4,0x10
   128f4:	01079793          	slli	a5,a5,0x10
   128f8:	0106e6b3          	or	a3,a3,a6
   128fc:	00a76733          	or	a4,a4,a0
   12900:	00c7e7b3          	or	a5,a5,a2
   12904:	018f1813          	slli	a6,t5,0x18
   12908:	018e9513          	slli	a0,t4,0x18
   1290c:	018e1613          	slli	a2,t3,0x18
   12910:	0065e5b3          	or	a1,a1,t1
   12914:	00d864b3          	or	s1,a6,a3
   12918:	00e56933          	or	s2,a0,a4
   1291c:	00f669b3          	or	s3,a2,a5
   12920:	08059e63          	bnez	a1,129bc <_ZL12mount_volumePPKcPP5FATFSh+0x3dc>
   12924:	0a049663          	bnez	s1,129d0 <_ZL12mount_volumePPKcPP5FATFSh+0x3f0>
   12928:	0c091063          	bnez	s2,129e8 <_ZL12mount_volumePPKcPP5FATFSh+0x408>
   1292c:	02098063          	beqz	s3,1294c <_ZL12mount_volumePPKcPP5FATFSh+0x36c>
   12930:	00098593          	mv	a1,s3
   12934:	00040513          	mv	a0,s0
   12938:	ac5ff0ef          	jal	ra,123fc <_ZL8check_fsP5FATFSm>
   1293c:	00100793          	li	a5,1
   12940:	d8a7f0e3          	bgeu	a5,a0,126c0 <_ZL12mount_volumePPKcPP5FATFSh+0xe0>
   12944:	00400793          	li	a5,4
   12948:	06f50663          	beq	a0,a5,129b4 <_ZL12mount_volumePPKcPP5FATFSh+0x3d4>
   1294c:	01c12083          	lw	ra,28(sp)
   12950:	01812403          	lw	s0,24(sp)
   12954:	01412483          	lw	s1,20(sp)
   12958:	01012903          	lw	s2,16(sp)
   1295c:	00c12983          	lw	s3,12(sp)
   12960:	00d00513          	li	a0,13
   12964:	02010113          	addi	sp,sp,32
   12968:	00008067          	ret
   1296c:	01c12083          	lw	ra,28(sp)
   12970:	01812403          	lw	s0,24(sp)
   12974:	01412483          	lw	s1,20(sp)
   12978:	01012903          	lw	s2,16(sp)
   1297c:	00c12983          	lw	s3,12(sp)
   12980:	00a00513          	li	a0,10
   12984:	02010113          	addi	sp,sp,32
   12988:	00008067          	ret
   1298c:	01c12083          	lw	ra,28(sp)
   12990:	01812403          	lw	s0,24(sp)
   12994:	01412483          	lw	s1,20(sp)
   12998:	01012903          	lw	s2,16(sp)
   1299c:	00c12983          	lw	s3,12(sp)
   129a0:	00b00513          	li	a0,11
   129a4:	02010113          	addi	sp,sp,32
   129a8:	00008067          	ret
   129ac:	00c00513          	li	a0,12
   129b0:	ca5ff06f          	j	12654 <_ZL12mount_volumePPKcPP5FATFSh+0x74>
   129b4:	00100513          	li	a0,1
   129b8:	c9dff06f          	j	12654 <_ZL12mount_volumePPKcPP5FATFSh+0x74>
   129bc:	00040513          	mv	a0,s0
   129c0:	a3dff0ef          	jal	ra,123fc <_ZL8check_fsP5FATFSm>
   129c4:	00100793          	li	a5,1
   129c8:	cea7fce3          	bgeu	a5,a0,126c0 <_ZL12mount_volumePPKcPP5FATFSh+0xe0>
   129cc:	f59ff06f          	j	12924 <_ZL12mount_volumePPKcPP5FATFSh+0x344>
   129d0:	00048593          	mv	a1,s1
   129d4:	00040513          	mv	a0,s0
   129d8:	a25ff0ef          	jal	ra,123fc <_ZL8check_fsP5FATFSm>
   129dc:	00100793          	li	a5,1
   129e0:	cea7f0e3          	bgeu	a5,a0,126c0 <_ZL12mount_volumePPKcPP5FATFSh+0xe0>
   129e4:	f45ff06f          	j	12928 <_ZL12mount_volumePPKcPP5FATFSh+0x348>
   129e8:	00090593          	mv	a1,s2
   129ec:	00040513          	mv	a0,s0
   129f0:	a0dff0ef          	jal	ra,123fc <_ZL8check_fsP5FATFSm>
   129f4:	00100793          	li	a5,1
   129f8:	cca7f4e3          	bgeu	a5,a0,126c0 <_ZL12mount_volumePPKcPP5FATFSh+0xe0>
   129fc:	f31ff06f          	j	1292c <_ZL12mount_volumePPKcPP5FATFSh+0x34c>
   12a00:	f40506e3          	beqz	a0,1294c <_ZL12mount_volumePPKcPP5FATFSh+0x36c>
   12a04:	00171613          	slli	a2,a4,0x1
   12a08:	00e60633          	add	a2,a2,a4
   12a0c:	00165613          	srli	a2,a2,0x1
   12a10:	00177713          	andi	a4,a4,1
   12a14:	00e60733          	add	a4,a2,a4
   12a18:	010686b3          	add	a3,a3,a6
   12a1c:	00100613          	li	a2,1
   12a20:	e09ff06f          	j	12828 <_ZL12mount_volumePPKcPP5FATFSh+0x248>
   12a24:	06344683          	lbu	a3,99(s0)
   12a28:	06244603          	lbu	a2,98(s0)
   12a2c:	00e42e23          	sw	a4,28(s0)
   12a30:	00869693          	slli	a3,a3,0x8
   12a34:	00c6e6b3          	or	a3,a3,a2
   12a38:	02b42223          	sw	a1,36(s0)
   12a3c:	03042423          	sw	a6,40(s0)
   12a40:	03142823          	sw	a7,48(s0)
   12a44:	00d56533          	or	a0,a0,a3
   12a48:	f00512e3          	bnez	a0,1294c <_ZL12mount_volumePPKcPP5FATFSh+0x36c>
   12a4c:	06544503          	lbu	a0,101(s0)
   12a50:	06444803          	lbu	a6,100(s0)
   12a54:	06644603          	lbu	a2,102(s0)
   12a58:	06744683          	lbu	a3,103(s0)
   12a5c:	00851513          	slli	a0,a0,0x8
   12a60:	01056533          	or	a0,a0,a6
   12a64:	01061613          	slli	a2,a2,0x10
   12a68:	00a66633          	or	a2,a2,a0
   12a6c:	01869693          	slli	a3,a3,0x18
   12a70:	00271713          	slli	a4,a4,0x2
   12a74:	00c6e6b3          	or	a3,a3,a2
   12a78:	1ff70713          	addi	a4,a4,511
   12a7c:	02d42623          	sw	a3,44(s0)
   12a80:	00975713          	srli	a4,a4,0x9
   12a84:	ece7e4e3          	bltu	a5,a4,1294c <_ZL12mount_volumePPKcPP5FATFSh+0x36c>
   12a88:	06944783          	lbu	a5,105(s0)
   12a8c:	06844683          	lbu	a3,104(s0)
   12a90:	fff00713          	li	a4,-1
   12a94:	00879793          	slli	a5,a5,0x8
   12a98:	00e42a23          	sw	a4,20(s0)
   12a9c:	00e42823          	sw	a4,16(s0)
   12aa0:	f8000713          	li	a4,-128
   12aa4:	00e40223          	sb	a4,4(s0)
   12aa8:	00d7e7b3          	or	a5,a5,a3
   12aac:	00100713          	li	a4,1
   12ab0:	00e78663          	beq	a5,a4,12abc <_ZL12mount_volumePPKcPP5FATFSh+0x4dc>
   12ab4:	00300613          	li	a2,3
   12ab8:	d95ff06f          	j	1284c <_ZL12mount_volumePPKcPP5FATFSh+0x26c>
   12abc:	00158593          	addi	a1,a1,1
   12ac0:	00040513          	mv	a0,s0
   12ac4:	cd8ff0ef          	jal	ra,11f9c <_ZL11move_windowP5FATFSm>
   12ac8:	fe0516e3          	bnez	a0,12ab4 <_ZL12mount_volumePPKcPP5FATFSh+0x4d4>
   12acc:	23744783          	lbu	a5,567(s0)
   12ad0:	23644703          	lbu	a4,566(s0)
   12ad4:	00040223          	sb	zero,4(s0)
   12ad8:	00879793          	slli	a5,a5,0x8
   12adc:	00e7e7b3          	or	a5,a5,a4
   12ae0:	0000b737          	lui	a4,0xb
   12ae4:	a5570713          	addi	a4,a4,-1451 # aa55 <exit-0x563f>
   12ae8:	fce796e3          	bne	a5,a4,12ab4 <_ZL12mount_volumePPKcPP5FATFSh+0x4d4>
   12aec:	03944683          	lbu	a3,57(s0)
   12af0:	03844603          	lbu	a2,56(s0)
   12af4:	03a44703          	lbu	a4,58(s0)
   12af8:	03b44783          	lbu	a5,59(s0)
   12afc:	00869693          	slli	a3,a3,0x8
   12b00:	00c6e6b3          	or	a3,a3,a2
   12b04:	01071713          	slli	a4,a4,0x10
   12b08:	00d76733          	or	a4,a4,a3
   12b0c:	01879793          	slli	a5,a5,0x18
   12b10:	00e7e7b3          	or	a5,a5,a4
   12b14:	41615737          	lui	a4,0x41615
   12b18:	25270713          	addi	a4,a4,594 # 41615252 <__BSS_END__+0x415798fe>
   12b1c:	f8e79ce3          	bne	a5,a4,12ab4 <_ZL12mount_volumePPKcPP5FATFSh+0x4d4>
   12b20:	21d44683          	lbu	a3,541(s0)
   12b24:	21c44603          	lbu	a2,540(s0)
   12b28:	21e44703          	lbu	a4,542(s0)
   12b2c:	21f44783          	lbu	a5,543(s0)
   12b30:	00869693          	slli	a3,a3,0x8
   12b34:	00c6e6b3          	or	a3,a3,a2
   12b38:	01071713          	slli	a4,a4,0x10
   12b3c:	00d76733          	or	a4,a4,a3
   12b40:	01879793          	slli	a5,a5,0x18
   12b44:	00e7e7b3          	or	a5,a5,a4
   12b48:	61417737          	lui	a4,0x61417
   12b4c:	27270713          	addi	a4,a4,626 # 61417272 <__BSS_END__+0x6137b91e>
   12b50:	f6e792e3          	bne	a5,a4,12ab4 <_ZL12mount_volumePPKcPP5FATFSh+0x4d4>
   12b54:	22042703          	lw	a4,544(s0)
   12b58:	22442783          	lw	a5,548(s0)
   12b5c:	00300613          	li	a2,3
   12b60:	00e42a23          	sw	a4,20(s0)
   12b64:	00f42823          	sw	a5,16(s0)
   12b68:	ce5ff06f          	j	1284c <_ZL12mount_volumePPKcPP5FATFSh+0x26c>

00012b6c <_ZL7dir_sdiP3DIRm>:
   12b6c:	fc010113          	addi	sp,sp,-64
   12b70:	01812c23          	sw	s8,24(sp)
   12b74:	02112e23          	sw	ra,60(sp)
   12b78:	02812c23          	sw	s0,56(sp)
   12b7c:	02912a23          	sw	s1,52(sp)
   12b80:	03212823          	sw	s2,48(sp)
   12b84:	03312623          	sw	s3,44(sp)
   12b88:	03412423          	sw	s4,40(sp)
   12b8c:	03512223          	sw	s5,36(sp)
   12b90:	03612023          	sw	s6,32(sp)
   12b94:	01712e23          	sw	s7,28(sp)
   12b98:	01912a23          	sw	s9,20(sp)
   12b9c:	01a12823          	sw	s10,16(sp)
   12ba0:	01b12623          	sw	s11,12(sp)
   12ba4:	00200737          	lui	a4,0x200
   12ba8:	00052c03          	lw	s8,0(a0)
   12bac:	08e5f663          	bgeu	a1,a4,12c38 <_ZL7dir_sdiP3DIRm+0xcc>
   12bb0:	01f5fb93          	andi	s7,a1,31
   12bb4:	00058413          	mv	s0,a1
   12bb8:	080b9063          	bnez	s7,12c38 <_ZL7dir_sdiP3DIRm+0xcc>
   12bbc:	00852483          	lw	s1,8(a0)
   12bc0:	00b52823          	sw	a1,16(a0)
   12bc4:	00050b13          	mv	s6,a0
   12bc8:	0a048a63          	beqz	s1,12c7c <_ZL7dir_sdiP3DIRm+0x110>
   12bcc:	00ac5c83          	lhu	s9,10(s8) # 120000a <__BSS_END__+0x11646b6>
   12bd0:	009c9c93          	slli	s9,s9,0x9
   12bd4:	1f946a63          	bltu	s0,s9,12dc8 <_ZL7dir_sdiP3DIRm+0x25c>
   12bd8:	00100793          	li	a5,1
   12bdc:	04f48e63          	beq	s1,a5,12c38 <_ZL7dir_sdiP3DIRm+0xcc>
   12be0:	000c0913          	mv	s2,s8
   12be4:	00200a93          	li	s5,2
   12be8:	00300a13          	li	s4,3
   12bec:	00100d13          	li	s10,1
   12bf0:	01c92703          	lw	a4,28(s2)
   12bf4:	04e4f263          	bgeu	s1,a4,12c38 <_ZL7dir_sdiP3DIRm+0xcc>
   12bf8:	00094703          	lbu	a4,0(s2)
   12bfc:	13570c63          	beq	a4,s5,12d34 <_ZL7dir_sdiP3DIRm+0x1c8>
   12c00:	0d470263          	beq	a4,s4,12cc4 <_ZL7dir_sdiP3DIRm+0x158>
   12c04:	03a71a63          	bne	a4,s10,12c38 <_ZL7dir_sdiP3DIRm+0xcc>
   12c08:	02892783          	lw	a5,40(s2)
   12c0c:	0014d993          	srli	s3,s1,0x1
   12c10:	009989b3          	add	s3,s3,s1
   12c14:	0099d593          	srli	a1,s3,0x9
   12c18:	00f585b3          	add	a1,a1,a5
   12c1c:	00090513          	mv	a0,s2
   12c20:	b7cff0ef          	jal	ra,11f9c <_ZL11move_windowP5FATFSm>
   12c24:	14050c63          	beqz	a0,12d7c <_ZL7dir_sdiP3DIRm+0x210>
   12c28:	00100b93          	li	s7,1
   12c2c:	0100006f          	j	12c3c <_ZL7dir_sdiP3DIRm+0xd0>
   12c30:	000b2c23          	sw	zero,24(s6)
   12c34:	009b2a23          	sw	s1,20(s6)
   12c38:	00200b93          	li	s7,2
   12c3c:	03c12083          	lw	ra,60(sp)
   12c40:	03812403          	lw	s0,56(sp)
   12c44:	03412483          	lw	s1,52(sp)
   12c48:	03012903          	lw	s2,48(sp)
   12c4c:	02c12983          	lw	s3,44(sp)
   12c50:	02812a03          	lw	s4,40(sp)
   12c54:	02412a83          	lw	s5,36(sp)
   12c58:	02012b03          	lw	s6,32(sp)
   12c5c:	01812c03          	lw	s8,24(sp)
   12c60:	01412c83          	lw	s9,20(sp)
   12c64:	01012d03          	lw	s10,16(sp)
   12c68:	00c12d83          	lw	s11,12(sp)
   12c6c:	000b8513          	mv	a0,s7
   12c70:	01c12b83          	lw	s7,28(sp)
   12c74:	04010113          	addi	sp,sp,64
   12c78:	00008067          	ret
   12c7c:	000c4703          	lbu	a4,0(s8)
   12c80:	00200793          	li	a5,2
   12c84:	0ee7e463          	bltu	a5,a4,12d6c <_ZL7dir_sdiP3DIRm+0x200>
   12c88:	008c5783          	lhu	a5,8(s8)
   12c8c:	00545713          	srli	a4,s0,0x5
   12c90:	faf774e3          	bgeu	a4,a5,12c38 <_ZL7dir_sdiP3DIRm+0xcc>
   12c94:	02cc2703          	lw	a4,44(s8)
   12c98:	00eb2c23          	sw	a4,24(s6)
   12c9c:	009b2a23          	sw	s1,20(s6)
   12ca0:	f8070ce3          	beqz	a4,12c38 <_ZL7dir_sdiP3DIRm+0xcc>
   12ca4:	00945693          	srli	a3,s0,0x9
   12ca8:	038c0793          	addi	a5,s8,56
   12cac:	1ff47413          	andi	s0,s0,511
   12cb0:	00e68733          	add	a4,a3,a4
   12cb4:	008787b3          	add	a5,a5,s0
   12cb8:	00eb2c23          	sw	a4,24(s6)
   12cbc:	00fb2e23          	sw	a5,28(s6)
   12cc0:	f7dff06f          	j	12c3c <_ZL7dir_sdiP3DIRm+0xd0>
   12cc4:	02892783          	lw	a5,40(s2)
   12cc8:	0074d593          	srli	a1,s1,0x7
   12ccc:	00090513          	mv	a0,s2
   12cd0:	00f585b3          	add	a1,a1,a5
   12cd4:	ac8ff0ef          	jal	ra,11f9c <_ZL11move_windowP5FATFSm>
   12cd8:	f40518e3          	bnez	a0,12c28 <_ZL7dir_sdiP3DIRm+0xbc>
   12cdc:	00249713          	slli	a4,s1,0x2
   12ce0:	1fc77713          	andi	a4,a4,508
   12ce4:	00e90733          	add	a4,s2,a4
   12ce8:	03974683          	lbu	a3,57(a4) # 200039 <__BSS_END__+0x1646e5>
   12cec:	03874603          	lbu	a2,56(a4)
   12cf0:	03a74783          	lbu	a5,58(a4)
   12cf4:	03b74483          	lbu	s1,59(a4)
   12cf8:	00869713          	slli	a4,a3,0x8
   12cfc:	00c76733          	or	a4,a4,a2
   12d00:	01079793          	slli	a5,a5,0x10
   12d04:	00e7e7b3          	or	a5,a5,a4
   12d08:	01849493          	slli	s1,s1,0x18
   12d0c:	00f4e4b3          	or	s1,s1,a5
   12d10:	00449493          	slli	s1,s1,0x4
   12d14:	0044d493          	srli	s1,s1,0x4
   12d18:	f29d70e3          	bgeu	s10,s1,12c38 <_ZL7dir_sdiP3DIRm+0xcc>
   12d1c:	01cc2783          	lw	a5,28(s8)
   12d20:	f0f4fce3          	bgeu	s1,a5,12c38 <_ZL7dir_sdiP3DIRm+0xcc>
   12d24:	41940433          	sub	s0,s0,s9
   12d28:	0b946263          	bltu	s0,s9,12dcc <_ZL7dir_sdiP3DIRm+0x260>
   12d2c:	000b2903          	lw	s2,0(s6)
   12d30:	ec1ff06f          	j	12bf0 <_ZL7dir_sdiP3DIRm+0x84>
   12d34:	02892783          	lw	a5,40(s2)
   12d38:	0084d593          	srli	a1,s1,0x8
   12d3c:	00090513          	mv	a0,s2
   12d40:	00f585b3          	add	a1,a1,a5
   12d44:	a58ff0ef          	jal	ra,11f9c <_ZL11move_windowP5FATFSm>
   12d48:	ee0510e3          	bnez	a0,12c28 <_ZL7dir_sdiP3DIRm+0xbc>
   12d4c:	00149713          	slli	a4,s1,0x1
   12d50:	1fe77713          	andi	a4,a4,510
   12d54:	00e90733          	add	a4,s2,a4
   12d58:	03974783          	lbu	a5,57(a4)
   12d5c:	03874483          	lbu	s1,56(a4)
   12d60:	00879793          	slli	a5,a5,0x8
   12d64:	0097e4b3          	or	s1,a5,s1
   12d68:	fb1ff06f          	j	12d18 <_ZL7dir_sdiP3DIRm+0x1ac>
   12d6c:	02cc2783          	lw	a5,44(s8)
   12d70:	f0078ce3          	beqz	a5,12c88 <_ZL7dir_sdiP3DIRm+0x11c>
   12d74:	00078493          	mv	s1,a5
   12d78:	e55ff06f          	j	12bcc <_ZL7dir_sdiP3DIRm+0x60>
   12d7c:	02892783          	lw	a5,40(s2)
   12d80:	00198d93          	addi	s11,s3,1
   12d84:	009dd593          	srli	a1,s11,0x9
   12d88:	1ff9f993          	andi	s3,s3,511
   12d8c:	013909b3          	add	s3,s2,s3
   12d90:	00f585b3          	add	a1,a1,a5
   12d94:	00090513          	mv	a0,s2
   12d98:	0389c983          	lbu	s3,56(s3)
   12d9c:	a00ff0ef          	jal	ra,11f9c <_ZL11move_windowP5FATFSm>
   12da0:	e80514e3          	bnez	a0,12c28 <_ZL7dir_sdiP3DIRm+0xbc>
   12da4:	1ffdfd93          	andi	s11,s11,511
   12da8:	01b90db3          	add	s11,s2,s11
   12dac:	038dc783          	lbu	a5,56(s11)
   12db0:	0014f493          	andi	s1,s1,1
   12db4:	00879793          	slli	a5,a5,0x8
   12db8:	0137e7b3          	or	a5,a5,s3
   12dbc:	02048863          	beqz	s1,12dec <_ZL7dir_sdiP3DIRm+0x280>
   12dc0:	0047d493          	srli	s1,a5,0x4
   12dc4:	f55ff06f          	j	12d18 <_ZL7dir_sdiP3DIRm+0x1ac>
   12dc8:	01cc2783          	lw	a5,28(s8)
   12dcc:	ffe48693          	addi	a3,s1,-2
   12dd0:	ffe78793          	addi	a5,a5,-2
   12dd4:	e4f6fee3          	bgeu	a3,a5,12c30 <_ZL7dir_sdiP3DIRm+0xc4>
   12dd8:	00ac5703          	lhu	a4,10(s8)
   12ddc:	030c2783          	lw	a5,48(s8)
   12de0:	02d70733          	mul	a4,a4,a3
   12de4:	00f70733          	add	a4,a4,a5
   12de8:	eb1ff06f          	j	12c98 <_ZL7dir_sdiP3DIRm+0x12c>
   12dec:	01479793          	slli	a5,a5,0x14
   12df0:	0147d493          	srli	s1,a5,0x14
   12df4:	f25ff06f          	j	12d18 <_ZL7dir_sdiP3DIRm+0x1ac>

00012df8 <_ZL8dir_findP3DIR>:
   12df8:	fa010113          	addi	sp,sp,-96
   12dfc:	00000593          	li	a1,0
   12e00:	04812c23          	sw	s0,88(sp)
   12e04:	03712e23          	sw	s7,60(sp)
   12e08:	03a12823          	sw	s10,48(sp)
   12e0c:	04112e23          	sw	ra,92(sp)
   12e10:	00052d03          	lw	s10,0(a0)
   12e14:	04912a23          	sw	s1,84(sp)
   12e18:	05212823          	sw	s2,80(sp)
   12e1c:	05312623          	sw	s3,76(sp)
   12e20:	05412423          	sw	s4,72(sp)
   12e24:	05512223          	sw	s5,68(sp)
   12e28:	05612023          	sw	s6,64(sp)
   12e2c:	03812c23          	sw	s8,56(sp)
   12e30:	03912a23          	sw	s9,52(sp)
   12e34:	03b12623          	sw	s11,44(sp)
   12e38:	00050413          	mv	s0,a0
   12e3c:	d31ff0ef          	jal	ra,12b6c <_ZL7dir_sdiP3DIRm>
   12e40:	00050b93          	mv	s7,a0
   12e44:	06051863          	bnez	a0,12eb4 <_ZL8dir_findP3DIR+0xbc>
   12e48:	0ff00793          	li	a5,255
   12e4c:	00f12223          	sw	a5,4(sp)
   12e50:	01842c03          	lw	s8,24(s0)
   12e54:	038d0793          	addi	a5,s10,56
   12e58:	fff00713          	li	a4,-1
   12e5c:	00f12023          	sw	a5,0(sp)
   12e60:	02040793          	addi	a5,s0,32
   12e64:	02e42623          	sw	a4,44(s0)
   12e68:	0ff00c93          	li	s9,255
   12e6c:	0e500993          	li	s3,229
   12e70:	fff00a93          	li	s5,-1
   12e74:	00f00b13          	li	s6,15
   12e78:	00f12423          	sw	a5,8(sp)
   12e7c:	00200a37          	lui	s4,0x200
   12e80:	034d2603          	lw	a2,52(s10)
   12e84:	07860a63          	beq	a2,s8,12ef8 <_ZL8dir_findP3DIR+0x100>
   12e88:	003d4703          	lbu	a4,3(s10)
   12e8c:	001d4503          	lbu	a0,1(s10)
   12e90:	26071663          	bnez	a4,130fc <_ZL8dir_findP3DIR+0x304>
   12e94:	00012583          	lw	a1,0(sp)
   12e98:	00100693          	li	a3,1
   12e9c:	000c0613          	mv	a2,s8
   12ea0:	199020ef          	jal	ra,15838 <disk_read>
   12ea4:	04050863          	beqz	a0,12ef4 <_ZL8dir_findP3DIR+0xfc>
   12ea8:	fff00793          	li	a5,-1
   12eac:	02fd2a23          	sw	a5,52(s10)
   12eb0:	00100b93          	li	s7,1
   12eb4:	05c12083          	lw	ra,92(sp)
   12eb8:	05812403          	lw	s0,88(sp)
   12ebc:	05412483          	lw	s1,84(sp)
   12ec0:	05012903          	lw	s2,80(sp)
   12ec4:	04c12983          	lw	s3,76(sp)
   12ec8:	04812a03          	lw	s4,72(sp)
   12ecc:	04412a83          	lw	s5,68(sp)
   12ed0:	04012b03          	lw	s6,64(sp)
   12ed4:	03812c03          	lw	s8,56(sp)
   12ed8:	03412c83          	lw	s9,52(sp)
   12edc:	03012d03          	lw	s10,48(sp)
   12ee0:	02c12d83          	lw	s11,44(sp)
   12ee4:	000b8513          	mv	a0,s7
   12ee8:	03c12b83          	lw	s7,60(sp)
   12eec:	06010113          	addi	sp,sp,96
   12ef0:	00008067          	ret
   12ef4:	038d2a23          	sw	s8,52(s10)
   12ef8:	01c42c03          	lw	s8,28(s0)
   12efc:	000c4d83          	lbu	s11,0(s8)
   12f00:	0a0d8863          	beqz	s11,12fb0 <_ZL8dir_findP3DIR+0x1b8>
   12f04:	00bc4783          	lbu	a5,11(s8)
   12f08:	03f7f693          	andi	a3,a5,63
   12f0c:	00d40323          	sb	a3,6(s0)
   12f10:	013d8863          	beq	s11,s3,12f20 <_ZL8dir_findP3DIR+0x128>
   12f14:	0087f793          	andi	a5,a5,8
   12f18:	0a078063          	beqz	a5,12fb8 <_ZL8dir_findP3DIR+0x1c0>
   12f1c:	0d668463          	beq	a3,s6,12fe4 <_ZL8dir_findP3DIR+0x1ec>
   12f20:	03542623          	sw	s5,44(s0)
   12f24:	0ff00c93          	li	s9,255
   12f28:	01042483          	lw	s1,16(s0)
   12f2c:	00042903          	lw	s2,0(s0)
   12f30:	02048493          	addi	s1,s1,32
   12f34:	0744fc63          	bgeu	s1,s4,12fac <_ZL8dir_findP3DIR+0x1b4>
   12f38:	01842c03          	lw	s8,24(s0)
   12f3c:	060c0a63          	beqz	s8,12fb0 <_ZL8dir_findP3DIR+0x1b8>
   12f40:	1ff4fd93          	andi	s11,s1,511
   12f44:	020d9063          	bnez	s11,12f64 <_ZL8dir_findP3DIR+0x16c>
   12f48:	01442583          	lw	a1,20(s0)
   12f4c:	001c0c13          	addi	s8,s8,1
   12f50:	01842c23          	sw	s8,24(s0)
   12f54:	02059263          	bnez	a1,12f78 <_ZL8dir_findP3DIR+0x180>
   12f58:	00895703          	lhu	a4,8(s2)
   12f5c:	0054d693          	srli	a3,s1,0x5
   12f60:	04e6f663          	bgeu	a3,a4,12fac <_ZL8dir_findP3DIR+0x1b4>
   12f64:	03890913          	addi	s2,s2,56
   12f68:	01b90933          	add	s2,s2,s11
   12f6c:	00942823          	sw	s1,16(s0)
   12f70:	01242e23          	sw	s2,28(s0)
   12f74:	f0dff06f          	j	12e80 <_ZL8dir_findP3DIR+0x88>
   12f78:	00a95703          	lhu	a4,10(s2)
   12f7c:	0094d693          	srli	a3,s1,0x9
   12f80:	fff70713          	addi	a4,a4,-1
   12f84:	00d77733          	and	a4,a4,a3
   12f88:	fc071ee3          	bnez	a4,12f64 <_ZL8dir_findP3DIR+0x16c>
   12f8c:	00090513          	mv	a0,s2
   12f90:	adcff0ef          	jal	ra,1226c <_ZL7get_fatP7FFOBJIDm.isra.0>
   12f94:	00100793          	li	a5,1
   12f98:	30a7f863          	bgeu	a5,a0,132a8 <_ZL8dir_findP3DIR+0x4b0>
   12f9c:	fff00793          	li	a5,-1
   12fa0:	f0f508e3          	beq	a0,a5,12eb0 <_ZL8dir_findP3DIR+0xb8>
   12fa4:	01c92783          	lw	a5,28(s2)
   12fa8:	2cf56863          	bltu	a0,a5,13278 <_ZL8dir_findP3DIR+0x480>
   12fac:	00042c23          	sw	zero,24(s0)
   12fb0:	00400b93          	li	s7,4
   12fb4:	f01ff06f          	j	12eb4 <_ZL8dir_findP3DIR+0xbc>
   12fb8:	03668663          	beq	a3,s6,12fe4 <_ZL8dir_findP3DIR+0x1ec>
   12fbc:	180c8863          	beqz	s9,1314c <_ZL8dir_findP3DIR+0x354>
   12fc0:	02b44783          	lbu	a5,43(s0)
   12fc4:	0017f793          	andi	a5,a5,1
   12fc8:	f4079ce3          	bnez	a5,12f20 <_ZL8dir_findP3DIR+0x128>
   12fcc:	00812583          	lw	a1,8(sp)
   12fd0:	00b00613          	li	a2,11
   12fd4:	000c0513          	mv	a0,s8
   12fd8:	224050ef          	jal	ra,181fc <memcmp>
   12fdc:	f40512e3          	bnez	a0,12f20 <_ZL8dir_findP3DIR+0x128>
   12fe0:	ed5ff06f          	j	12eb4 <_ZL8dir_findP3DIR+0xbc>
   12fe4:	02b44783          	lbu	a5,43(s0)
   12fe8:	0407f793          	andi	a5,a5,64
   12fec:	f2079ee3          	bnez	a5,12f28 <_ZL8dir_findP3DIR+0x130>
   12ff0:	040df793          	andi	a5,s11,64
   12ff4:	26078c63          	beqz	a5,1326c <_ZL8dir_findP3DIR+0x474>
   12ff8:	00dc4703          	lbu	a4,13(s8)
   12ffc:	01042783          	lw	a5,16(s0)
   13000:	0bfdfd93          	andi	s11,s11,191
   13004:	00e12223          	sw	a4,4(sp)
   13008:	02f42623          	sw	a5,44(s0)
   1300c:	00dc4783          	lbu	a5,13(s8)
   13010:	00412703          	lw	a4,4(sp)
   13014:	0ff00c93          	li	s9,255
   13018:	f0e798e3          	bne	a5,a4,12f28 <_ZL8dir_findP3DIR+0x130>
   1301c:	01bc4783          	lbu	a5,27(s8)
   13020:	01ac4683          	lbu	a3,26(s8)
   13024:	00879793          	slli	a5,a5,0x8
   13028:	00d7e7b3          	or	a5,a5,a3
   1302c:	0c079463          	bnez	a5,130f4 <_ZL8dir_findP3DIR+0x2fc>
   13030:	000c4783          	lbu	a5,0(s8)
   13034:	00cd2703          	lw	a4,12(s10)
   13038:	00006497          	auipc	s1,0x6
   1303c:	2a048493          	addi	s1,s1,672 # 192d8 <_ZL6LfnOfs>
   13040:	03f7f793          	andi	a5,a5,63
   13044:	fff78793          	addi	a5,a5,-1
   13048:	00179693          	slli	a3,a5,0x1
   1304c:	00f686b3          	add	a3,a3,a5
   13050:	00269693          	slli	a3,a3,0x2
   13054:	00f68cb3          	add	s9,a3,a5
   13058:	000107b7          	lui	a5,0x10
   1305c:	fff78793          	addi	a5,a5,-1 # ffff <exit-0x95>
   13060:	00e12c23          	sw	a4,24(sp)
   13064:	00006917          	auipc	s2,0x6
   13068:	28190913          	addi	s2,s2,641 # 192e5 <_ZL6LfnOfs+0xd>
   1306c:	00100e93          	li	t4,1
   13070:	00f12e23          	sw	a5,28(sp)
   13074:	0500006f          	j	130c4 <_ZL8dir_findP3DIR+0x2cc>
   13078:	00f12a23          	sw	a5,20(sp)
   1307c:	0ff00793          	li	a5,255
   13080:	0797ea63          	bltu	a5,s9,130f4 <_ZL8dir_findP3DIR+0x2fc>
   13084:	620020ef          	jal	ra,156a4 <ff_wtoupper>
   13088:	01812783          	lw	a5,24(sp)
   1308c:	001c9693          	slli	a3,s9,0x1
   13090:	00050613          	mv	a2,a0
   13094:	00d786b3          	add	a3,a5,a3
   13098:	00c12883          	lw	a7,12(sp)
   1309c:	0006d503          	lhu	a0,0(a3)
   130a0:	00c12823          	sw	a2,16(sp)
   130a4:	00088c93          	mv	s9,a7
   130a8:	5fc020ef          	jal	ra,156a4 <ff_wtoupper>
   130ac:	01012603          	lw	a2,16(sp)
   130b0:	04a61263          	bne	a2,a0,130f4 <_ZL8dir_findP3DIR+0x2fc>
   130b4:	01412783          	lw	a5,20(sp)
   130b8:	00078e93          	mv	t4,a5
   130bc:	00148493          	addi	s1,s1,1
   130c0:	1f248863          	beq	s1,s2,132b0 <_ZL8dir_findP3DIR+0x4b8>
   130c4:	0004c603          	lbu	a2,0(s1)
   130c8:	001c8893          	addi	a7,s9,1 # 240001 <__BSS_END__+0x1a46ad>
   130cc:	01112623          	sw	a7,12(sp)
   130d0:	00cc0633          	add	a2,s8,a2
   130d4:	00164783          	lbu	a5,1(a2)
   130d8:	00064603          	lbu	a2,0(a2)
   130dc:	00879793          	slli	a5,a5,0x8
   130e0:	00c7e7b3          	or	a5,a5,a2
   130e4:	00078513          	mv	a0,a5
   130e8:	f80e98e3          	bnez	t4,13078 <_ZL8dir_findP3DIR+0x280>
   130ec:	01c12703          	lw	a4,28(sp)
   130f0:	fce786e3          	beq	a5,a4,130bc <_ZL8dir_findP3DIR+0x2c4>
   130f4:	0ff00c93          	li	s9,255
   130f8:	e31ff06f          	j	12f28 <_ZL8dir_findP3DIR+0x130>
   130fc:	00012583          	lw	a1,0(sp)
   13100:	00100693          	li	a3,1
   13104:	774020ef          	jal	ra,15878 <disk_write>
   13108:	da0514e3          	bnez	a0,12eb0 <_ZL8dir_findP3DIR+0xb8>
   1310c:	034d2583          	lw	a1,52(s10)
   13110:	028d2703          	lw	a4,40(s10)
   13114:	020d2603          	lw	a2,32(s10)
   13118:	000d01a3          	sb	zero,3(s10)
   1311c:	40e58733          	sub	a4,a1,a4
   13120:	001d4503          	lbu	a0,1(s10)
   13124:	d6c778e3          	bgeu	a4,a2,12e94 <_ZL8dir_findP3DIR+0x9c>
   13128:	002d4683          	lbu	a3,2(s10)
   1312c:	00200713          	li	a4,2
   13130:	d6e692e3          	bne	a3,a4,12e94 <_ZL8dir_findP3DIR+0x9c>
   13134:	00c58633          	add	a2,a1,a2
   13138:	00012583          	lw	a1,0(sp)
   1313c:	00100693          	li	a3,1
   13140:	738020ef          	jal	ra,15878 <disk_write>
   13144:	001d4503          	lbu	a0,1(s10)
   13148:	d4dff06f          	j	12e94 <_ZL8dir_findP3DIR+0x9c>
   1314c:	000c4703          	lbu	a4,0(s8)
   13150:	001c4603          	lbu	a2,1(s8)
   13154:	002c4683          	lbu	a3,2(s8)
   13158:	00175793          	srli	a5,a4,0x1
   1315c:	00771713          	slli	a4,a4,0x7
   13160:	00e7e7b3          	or	a5,a5,a4
   13164:	00c787b3          	add	a5,a5,a2
   13168:	0ff7f713          	zext.b	a4,a5
   1316c:	00175713          	srli	a4,a4,0x1
   13170:	00779793          	slli	a5,a5,0x7
   13174:	00f76733          	or	a4,a4,a5
   13178:	0ff77713          	zext.b	a4,a4
   1317c:	00d70733          	add	a4,a4,a3
   13180:	0ff77793          	zext.b	a5,a4
   13184:	003c4683          	lbu	a3,3(s8)
   13188:	00771713          	slli	a4,a4,0x7
   1318c:	0017d793          	srli	a5,a5,0x1
   13190:	00e7e7b3          	or	a5,a5,a4
   13194:	0ff7f793          	zext.b	a5,a5
   13198:	00d787b3          	add	a5,a5,a3
   1319c:	0ff7f713          	zext.b	a4,a5
   131a0:	004c4683          	lbu	a3,4(s8)
   131a4:	00779793          	slli	a5,a5,0x7
   131a8:	00175713          	srli	a4,a4,0x1
   131ac:	00f76733          	or	a4,a4,a5
   131b0:	0ff77713          	zext.b	a4,a4
   131b4:	00d70733          	add	a4,a4,a3
   131b8:	0ff77793          	zext.b	a5,a4
   131bc:	005c4683          	lbu	a3,5(s8)
   131c0:	00771713          	slli	a4,a4,0x7
   131c4:	0017d793          	srli	a5,a5,0x1
   131c8:	00e7e7b3          	or	a5,a5,a4
   131cc:	0ff7f793          	zext.b	a5,a5
   131d0:	00d787b3          	add	a5,a5,a3
   131d4:	0ff7f713          	zext.b	a4,a5
   131d8:	006c4683          	lbu	a3,6(s8)
   131dc:	00779793          	slli	a5,a5,0x7
   131e0:	00175713          	srli	a4,a4,0x1
   131e4:	00f76733          	or	a4,a4,a5
   131e8:	0ff77713          	zext.b	a4,a4
   131ec:	00d70733          	add	a4,a4,a3
   131f0:	0ff77793          	zext.b	a5,a4
   131f4:	007c4683          	lbu	a3,7(s8)
   131f8:	00771713          	slli	a4,a4,0x7
   131fc:	0017d793          	srli	a5,a5,0x1
   13200:	00e7e7b3          	or	a5,a5,a4
   13204:	0ff7f793          	zext.b	a5,a5
   13208:	00d787b3          	add	a5,a5,a3
   1320c:	0ff7f713          	zext.b	a4,a5
   13210:	008c4683          	lbu	a3,8(s8)
   13214:	00779793          	slli	a5,a5,0x7
   13218:	00175713          	srli	a4,a4,0x1
   1321c:	00f76733          	or	a4,a4,a5
   13220:	0ff77713          	zext.b	a4,a4
   13224:	00d70733          	add	a4,a4,a3
   13228:	0ff77793          	zext.b	a5,a4
   1322c:	009c4683          	lbu	a3,9(s8)
   13230:	00771713          	slli	a4,a4,0x7
   13234:	0017d793          	srli	a5,a5,0x1
   13238:	00e7e7b3          	or	a5,a5,a4
   1323c:	0ff7f793          	zext.b	a5,a5
   13240:	00d787b3          	add	a5,a5,a3
   13244:	0ff7f713          	zext.b	a4,a5
   13248:	00ac4683          	lbu	a3,10(s8)
   1324c:	00175713          	srli	a4,a4,0x1
   13250:	00779793          	slli	a5,a5,0x7
   13254:	00f767b3          	or	a5,a4,a5
   13258:	00412703          	lw	a4,4(sp)
   1325c:	00d787b3          	add	a5,a5,a3
   13260:	0ff7f793          	zext.b	a5,a5
   13264:	d4f71ee3          	bne	a4,a5,12fc0 <_ZL8dir_findP3DIR+0x1c8>
   13268:	c4dff06f          	j	12eb4 <_ZL8dir_findP3DIR+0xbc>
   1326c:	dbbc80e3          	beq	s9,s11,1300c <_ZL8dir_findP3DIR+0x214>
   13270:	0ff00c93          	li	s9,255
   13274:	cb5ff06f          	j	12f28 <_ZL8dir_findP3DIR+0x130>
   13278:	00a42a23          	sw	a0,20(s0)
   1327c:	01c92703          	lw	a4,28(s2)
   13280:	ffe50513          	addi	a0,a0,-2
   13284:	00000c13          	li	s8,0
   13288:	ffe70713          	addi	a4,a4,-2
   1328c:	00e57a63          	bgeu	a0,a4,132a0 <_ZL8dir_findP3DIR+0x4a8>
   13290:	00a95783          	lhu	a5,10(s2)
   13294:	03092703          	lw	a4,48(s2)
   13298:	02a787b3          	mul	a5,a5,a0
   1329c:	00e78c33          	add	s8,a5,a4
   132a0:	01842c23          	sw	s8,24(s0)
   132a4:	cc1ff06f          	j	12f64 <_ZL8dir_findP3DIR+0x16c>
   132a8:	00200b93          	li	s7,2
   132ac:	c09ff06f          	j	12eb4 <_ZL8dir_findP3DIR+0xbc>
   132b0:	000c4783          	lbu	a5,0(s8)
   132b4:	0407f793          	andi	a5,a5,64
   132b8:	00078e63          	beqz	a5,132d4 <_ZL8dir_findP3DIR+0x4dc>
   132bc:	000e8c63          	beqz	t4,132d4 <_ZL8dir_findP3DIR+0x4dc>
   132c0:	01812783          	lw	a5,24(sp)
   132c4:	001c9693          	slli	a3,s9,0x1
   132c8:	00d78933          	add	s2,a5,a3
   132cc:	00095783          	lhu	a5,0(s2)
   132d0:	e20792e3          	bnez	a5,130f4 <_ZL8dir_findP3DIR+0x2fc>
   132d4:	fffd8713          	addi	a4,s11,-1
   132d8:	0ff77c93          	zext.b	s9,a4
   132dc:	c4dff06f          	j	12f28 <_ZL8dir_findP3DIR+0x130>

000132e0 <_ZL11follow_pathP3DIRPKc>:
   132e0:	fb010113          	addi	sp,sp,-80
   132e4:	04812423          	sw	s0,72(sp)
   132e8:	01b12e23          	sw	s11,28(sp)
   132ec:	00052683          	lw	a3,0(a0)
   132f0:	04112623          	sw	ra,76(sp)
   132f4:	04912223          	sw	s1,68(sp)
   132f8:	05212023          	sw	s2,64(sp)
   132fc:	03312e23          	sw	s3,60(sp)
   13300:	03412c23          	sw	s4,56(sp)
   13304:	03512a23          	sw	s5,52(sp)
   13308:	03612823          	sw	s6,48(sp)
   1330c:	03712623          	sw	s7,44(sp)
   13310:	03812423          	sw	s8,40(sp)
   13314:	03912223          	sw	s9,36(sp)
   13318:	03a12023          	sw	s10,32(sp)
   1331c:	0005c783          	lbu	a5,0(a1)
   13320:	02f00713          	li	a4,47
   13324:	00d12423          	sw	a3,8(sp)
   13328:	00058d93          	mv	s11,a1
   1332c:	00050413          	mv	s0,a0
   13330:	06e78a63          	beq	a5,a4,133a4 <_ZL11follow_pathP3DIRPKc+0xc4>
   13334:	05c00713          	li	a4,92
   13338:	06e78663          	beq	a5,a4,133a4 <_ZL11follow_pathP3DIRPKc+0xc4>
   1333c:	0186a783          	lw	a5,24(a3)
   13340:	00812683          	lw	a3,8(sp)
   13344:	01f00713          	li	a4,31
   13348:	00f42423          	sw	a5,8(s0)
   1334c:	000dc503          	lbu	a0,0(s11)
   13350:	00068793          	mv	a5,a3
   13354:	08a76463          	bltu	a4,a0,133dc <_ZL11follow_pathP3DIRPKc+0xfc>
   13358:	f8000793          	li	a5,-128
   1335c:	02f405a3          	sb	a5,43(s0)
   13360:	00040513          	mv	a0,s0
   13364:	04812403          	lw	s0,72(sp)
   13368:	04c12083          	lw	ra,76(sp)
   1336c:	04412483          	lw	s1,68(sp)
   13370:	04012903          	lw	s2,64(sp)
   13374:	03c12983          	lw	s3,60(sp)
   13378:	03812a03          	lw	s4,56(sp)
   1337c:	03412a83          	lw	s5,52(sp)
   13380:	03012b03          	lw	s6,48(sp)
   13384:	02c12b83          	lw	s7,44(sp)
   13388:	02812c03          	lw	s8,40(sp)
   1338c:	02412c83          	lw	s9,36(sp)
   13390:	02012d03          	lw	s10,32(sp)
   13394:	01c12d83          	lw	s11,28(sp)
   13398:	00000593          	li	a1,0
   1339c:	05010113          	addi	sp,sp,80
   133a0:	fccff06f          	j	12b6c <_ZL7dir_sdiP3DIRm>
   133a4:	02f00713          	li	a4,47
   133a8:	05c00613          	li	a2,92
   133ac:	000dc783          	lbu	a5,0(s11)
   133b0:	00e78463          	beq	a5,a4,133b8 <_ZL11follow_pathP3DIRPKc+0xd8>
   133b4:	00c79663          	bne	a5,a2,133c0 <_ZL11follow_pathP3DIRPKc+0xe0>
   133b8:	001d8d93          	addi	s11,s11,1
   133bc:	ff1ff06f          	j	133ac <_ZL11follow_pathP3DIRPKc+0xcc>
   133c0:	00000793          	li	a5,0
   133c4:	00f42423          	sw	a5,8(s0)
   133c8:	00812683          	lw	a3,8(sp)
   133cc:	000dc503          	lbu	a0,0(s11)
   133d0:	01f00713          	li	a4,31
   133d4:	00068793          	mv	a5,a3
   133d8:	f8a770e3          	bgeu	a4,a0,13358 <_ZL11follow_pathP3DIRPKc+0x78>
   133dc:	03868713          	addi	a4,a3,56
   133e0:	02000493          	li	s1,32
   133e4:	02e00b13          	li	s6,46
   133e8:	00e12623          	sw	a4,12(sp)
   133ec:	00c7a783          	lw	a5,12(a5)
   133f0:	00f12223          	sw	a5,4(sp)
   133f4:	04051663          	bnez	a0,13440 <_ZL11follow_pathP3DIRPKc+0x160>
   133f8:	00412783          	lw	a5,4(sp)
   133fc:	00079023          	sh	zero,0(a5)
   13400:	00600513          	li	a0,6
   13404:	04c12083          	lw	ra,76(sp)
   13408:	04812403          	lw	s0,72(sp)
   1340c:	04412483          	lw	s1,68(sp)
   13410:	04012903          	lw	s2,64(sp)
   13414:	03c12983          	lw	s3,60(sp)
   13418:	03812a03          	lw	s4,56(sp)
   1341c:	03412a83          	lw	s5,52(sp)
   13420:	03012b03          	lw	s6,48(sp)
   13424:	02c12b83          	lw	s7,44(sp)
   13428:	02812c03          	lw	s8,40(sp)
   1342c:	02412c83          	lw	s9,36(sp)
   13430:	02012d03          	lw	s10,32(sp)
   13434:	01c12d83          	lw	s11,28(sp)
   13438:	05010113          	addi	sp,sp,80
   1343c:	00008067          	ret
   13440:	001d8d93          	addi	s11,s11,1
   13444:	00078b93          	mv	s7,a5
   13448:	00000d13          	li	s10,0
   1344c:	01f00c13          	li	s8,31
   13450:	02f00913          	li	s2,47
   13454:	05c00993          	li	s3,92
   13458:	07f00a13          	li	s4,127
   1345c:	0ff00a93          	li	s5,255
   13460:	1b500593          	li	a1,437
   13464:	208020ef          	jal	ra,1566c <ff_oem2uni>
   13468:	00050c93          	mv	s9,a0
   1346c:	f8050ae3          	beqz	a0,13400 <_ZL11follow_pathP3DIRPKc+0x120>
   13470:	00050593          	mv	a1,a0
   13474:	00006517          	auipc	a0,0x6
   13478:	dd050513          	addi	a0,a0,-560 # 19244 <_ZL6dither+0x4fc>
   1347c:	479c7663          	bgeu	s8,s9,138e8 <_ZL11follow_pathP3DIRPKc+0x608>
   13480:	052c8463          	beq	s9,s2,134c8 <_ZL11follow_pathP3DIRPKc+0x1e8>
   13484:	053c8263          	beq	s9,s3,134c8 <_ZL11follow_pathP3DIRPKc+0x1e8>
   13488:	001d8d93          	addi	s11,s11,1
   1348c:	019a6663          	bltu	s4,s9,13498 <_ZL11follow_pathP3DIRPKc+0x1b8>
   13490:	0c8050ef          	jal	ra,18558 <strchr>
   13494:	f60516e3          	bnez	a0,13400 <_ZL11follow_pathP3DIRPKc+0x120>
   13498:	f75d04e3          	beq	s10,s5,13400 <_ZL11follow_pathP3DIRPKc+0x120>
   1349c:	019b9023          	sh	s9,0(s7)
   134a0:	fffdc503          	lbu	a0,-1(s11)
   134a4:	001d0d13          	addi	s10,s10,1
   134a8:	002b8b93          	addi	s7,s7,2
   134ac:	fa051ae3          	bnez	a0,13460 <_ZL11follow_pathP3DIRPKc+0x180>
   134b0:	00100793          	li	a5,1
   134b4:	2efd0c63          	beq	s10,a5,137ac <_ZL11follow_pathP3DIRPKc+0x4cc>
   134b8:	00200793          	li	a5,2
   134bc:	00400913          	li	s2,4
   134c0:	02fd0e63          	beq	s10,a5,134fc <_ZL11follow_pathP3DIRPKc+0x21c>
   134c4:	04c0006f          	j	13510 <_ZL11follow_pathP3DIRPKc+0x230>
   134c8:	02f00613          	li	a2,47
   134cc:	05c00593          	li	a1,92
   134d0:	000dc783          	lbu	a5,0(s11)
   134d4:	00c78463          	beq	a5,a2,134dc <_ZL11follow_pathP3DIRPKc+0x1fc>
   134d8:	00b79663          	bne	a5,a1,134e4 <_ZL11follow_pathP3DIRPKc+0x204>
   134dc:	001d8d93          	addi	s11,s11,1
   134e0:	ff1ff06f          	j	134d0 <_ZL11follow_pathP3DIRPKc+0x1f0>
   134e4:	0207b793          	sltiu	a5,a5,32
   134e8:	00279913          	slli	s2,a5,0x2
   134ec:	00100793          	li	a5,1
   134f0:	2cfd0063          	beq	s10,a5,137b0 <_ZL11follow_pathP3DIRPKc+0x4d0>
   134f4:	00200793          	li	a5,2
   134f8:	42fd1263          	bne	s10,a5,1391c <_ZL11follow_pathP3DIRPKc+0x63c>
   134fc:	00412783          	lw	a5,4(sp)
   13500:	02e00613          	li	a2,46
   13504:	00200d13          	li	s10,2
   13508:	0027d783          	lhu	a5,2(a5)
   1350c:	38c78c63          	beq	a5,a2,138a4 <_ZL11follow_pathP3DIRPKc+0x5c4>
   13510:	00412703          	lw	a4,4(sp)
   13514:	001d1793          	slli	a5,s10,0x1
   13518:	00f707b3          	add	a5,a4,a5
   1351c:	00c0006f          	j	13528 <_ZL11follow_pathP3DIRPKc+0x248>
   13520:	fffd0d13          	addi	s10,s10,-1
   13524:	ec0d0ae3          	beqz	s10,133f8 <_ZL11follow_pathP3DIRPKc+0x118>
   13528:	ffe7d603          	lhu	a2,-2(a5)
   1352c:	ffe78793          	addi	a5,a5,-2
   13530:	fe9608e3          	beq	a2,s1,13520 <_ZL11follow_pathP3DIRPKc+0x240>
   13534:	ff6606e3          	beq	a2,s6,13520 <_ZL11follow_pathP3DIRPKc+0x240>
   13538:	00412703          	lw	a4,4(sp)
   1353c:	001d1793          	slli	a5,s10,0x1
   13540:	00f70633          	add	a2,a4,a5
   13544:	00061023          	sh	zero,0(a2)
   13548:	00075783          	lhu	a5,0(a4)
   1354c:	24979463          	bne	a5,s1,13794 <_ZL11follow_pathP3DIRPKc+0x4b4>
   13550:	00270793          	addi	a5,a4,2
   13554:	00000593          	li	a1,0
   13558:	02000313          	li	t1,32
   1355c:	0007d503          	lhu	a0,0(a5)
   13560:	00078813          	mv	a6,a5
   13564:	00058893          	mv	a7,a1
   13568:	00278793          	addi	a5,a5,2
   1356c:	00158593          	addi	a1,a1,1
   13570:	fe6506e3          	beq	a0,t1,1355c <_ZL11follow_pathP3DIRPKc+0x27c>
   13574:	00288a13          	addi	s4,a7,2
   13578:	00396913          	ori	s2,s2,3
   1357c:	00060793          	mv	a5,a2
   13580:	00c0006f          	j	1358c <_ZL11follow_pathP3DIRPKc+0x2ac>
   13584:	fffd0d13          	addi	s10,s10,-1
   13588:	000d0863          	beqz	s10,13598 <_ZL11follow_pathP3DIRPKc+0x2b8>
   1358c:	ffe7d603          	lhu	a2,-2(a5)
   13590:	ffe78793          	addi	a5,a5,-2
   13594:	ff6618e3          	bne	a2,s6,13584 <_ZL11follow_pathP3DIRPKc+0x2a4>
   13598:	02940023          	sb	s1,32(s0)
   1359c:	029400a3          	sb	s1,33(s0)
   135a0:	02940123          	sb	s1,34(s0)
   135a4:	029401a3          	sb	s1,35(s0)
   135a8:	02940223          	sb	s1,36(s0)
   135ac:	029402a3          	sb	s1,37(s0)
   135b0:	02940323          	sb	s1,38(s0)
   135b4:	029403a3          	sb	s1,39(s0)
   135b8:	02940423          	sb	s1,40(s0)
   135bc:	029404a3          	sb	s1,41(s0)
   135c0:	02940523          	sb	s1,42(s0)
   135c4:	00085983          	lhu	s3,0(a6)
   135c8:	08098263          	beqz	s3,1364c <_ZL11follow_pathP3DIRPKc+0x36c>
   135cc:	00000a93          	li	s5,0
   135d0:	00800b93          	li	s7,8
   135d4:	00000c13          	li	s8,0
   135d8:	12998263          	beq	s3,s1,136fc <_ZL11follow_pathP3DIRPKc+0x41c>
   135dc:	15698263          	beq	s3,s6,13720 <_ZL11follow_pathP3DIRPKc+0x440>
   135e0:	177c6663          	bltu	s8,s7,1374c <_ZL11follow_pathP3DIRPKc+0x46c>
   135e4:	00b00793          	li	a5,11
   135e8:	14fb8263          	beq	s7,a5,1372c <_ZL11follow_pathP3DIRPKc+0x44c>
   135ec:	214d0e63          	beq	s10,s4,13808 <_ZL11follow_pathP3DIRPKc+0x528>
   135f0:	00396913          	ori	s2,s2,3
   135f4:	214d7a63          	bgeu	s10,s4,13808 <_ZL11follow_pathP3DIRPKc+0x528>
   135f8:	02044703          	lbu	a4,32(s0)
   135fc:	0e500793          	li	a5,229
   13600:	00f71663          	bne	a4,a5,1360c <_ZL11follow_pathP3DIRPKc+0x32c>
   13604:	00500793          	li	a5,5
   13608:	02f40023          	sb	a5,32(s0)
   1360c:	00800793          	li	a5,8
   13610:	20fb8863          	beq	s7,a5,13820 <_ZL11follow_pathP3DIRPKc+0x540>
   13614:	00caf793          	andi	a5,s5,12
   13618:	00c00713          	li	a4,12
   1361c:	16e78863          	beq	a5,a4,1378c <_ZL11follow_pathP3DIRPKc+0x4ac>
   13620:	003af793          	andi	a5,s5,3
   13624:	00300713          	li	a4,3
   13628:	16e78263          	beq	a5,a4,1378c <_ZL11follow_pathP3DIRPKc+0x4ac>
   1362c:	00297793          	andi	a5,s2,2
   13630:	00079e63          	bnez	a5,1364c <_ZL11follow_pathP3DIRPKc+0x36c>
   13634:	001af793          	andi	a5,s5,1
   13638:	00078463          	beqz	a5,13640 <_ZL11follow_pathP3DIRPKc+0x360>
   1363c:	01096913          	ori	s2,s2,16
   13640:	004afa93          	andi	s5,s5,4
   13644:	000a8463          	beqz	s5,1364c <_ZL11follow_pathP3DIRPKc+0x36c>
   13648:	00896913          	ori	s2,s2,8
   1364c:	032405a3          	sb	s2,43(s0)
   13650:	00040513          	mv	a0,s0
   13654:	fa4ff0ef          	jal	ra,12df8 <_ZL8dir_findP3DIR>
   13658:	02b44783          	lbu	a5,43(s0)
   1365c:	02050663          	beqz	a0,13688 <_ZL11follow_pathP3DIRPKc+0x3a8>
   13660:	00400713          	li	a4,4
   13664:	dae510e3          	bne	a0,a4,13404 <_ZL11follow_pathP3DIRPKc+0x124>
   13668:	0207f713          	andi	a4,a5,32
   1366c:	0047f793          	andi	a5,a5,4
   13670:	28070863          	beqz	a4,13900 <_ZL11follow_pathP3DIRPKc+0x620>
   13674:	04078e63          	beqz	a5,136d0 <_ZL11follow_pathP3DIRPKc+0x3f0>
   13678:	f8000793          	li	a5,-128
   1367c:	02f405a3          	sb	a5,43(s0)
   13680:	00000513          	li	a0,0
   13684:	d81ff06f          	j	13404 <_ZL11follow_pathP3DIRPKc+0x124>
   13688:	0047f793          	andi	a5,a5,4
   1368c:	fe079ae3          	bnez	a5,13680 <_ZL11follow_pathP3DIRPKc+0x3a0>
   13690:	00644783          	lbu	a5,6(s0)
   13694:	0107f793          	andi	a5,a5,16
   13698:	26078663          	beqz	a5,13904 <_ZL11follow_pathP3DIRPKc+0x624>
   1369c:	00812703          	lw	a4,8(sp)
   136a0:	01042783          	lw	a5,16(s0)
   136a4:	00300613          	li	a2,3
   136a8:	00074583          	lbu	a1,0(a4)
   136ac:	00c12703          	lw	a4,12(sp)
   136b0:	1ff7f793          	andi	a5,a5,511
   136b4:	00f707b3          	add	a5,a4,a5
   136b8:	01b7c703          	lbu	a4,27(a5)
   136bc:	01a7c503          	lbu	a0,26(a5)
   136c0:	00871713          	slli	a4,a4,0x8
   136c4:	00a76733          	or	a4,a4,a0
   136c8:	00c58a63          	beq	a1,a2,136dc <_ZL11follow_pathP3DIRPKc+0x3fc>
   136cc:	00e42423          	sw	a4,8(s0)
   136d0:	000dc503          	lbu	a0,0(s11)
   136d4:	00042783          	lw	a5,0(s0)
   136d8:	d15ff06f          	j	133ec <_ZL11follow_pathP3DIRPKc+0x10c>
   136dc:	0157c603          	lbu	a2,21(a5)
   136e0:	0147c583          	lbu	a1,20(a5)
   136e4:	00861793          	slli	a5,a2,0x8
   136e8:	00b7e7b3          	or	a5,a5,a1
   136ec:	01079793          	slli	a5,a5,0x10
   136f0:	00f76733          	or	a4,a4,a5
   136f4:	00e42423          	sw	a4,8(s0)
   136f8:	fd9ff06f          	j	136d0 <_ZL11follow_pathP3DIRPKc+0x3f0>
   136fc:	00396913          	ori	s2,s2,3
   13700:	000a0893          	mv	a7,s4
   13704:	00412703          	lw	a4,4(sp)
   13708:	00189793          	slli	a5,a7,0x1
   1370c:	00188a13          	addi	s4,a7,1
   13710:	00f707b3          	add	a5,a4,a5
   13714:	0007d983          	lhu	s3,0(a5)
   13718:	ec0990e3          	bnez	s3,135d8 <_ZL11follow_pathP3DIRPKc+0x2f8>
   1371c:	eddff06f          	j	135f8 <_ZL11follow_pathP3DIRPKc+0x318>
   13720:	fd4d1ee3          	bne	s10,s4,136fc <_ZL11follow_pathP3DIRPKc+0x41c>
   13724:	00b00793          	li	a5,11
   13728:	ecfb96e3          	bne	s7,a5,135f4 <_ZL11follow_pathP3DIRPKc+0x314>
   1372c:	02044703          	lbu	a4,32(s0)
   13730:	0e500793          	li	a5,229
   13734:	00f71663          	bne	a4,a5,13740 <_ZL11follow_pathP3DIRPKc+0x460>
   13738:	00500793          	li	a5,5
   1373c:	02f40023          	sb	a5,32(s0)
   13740:	00396913          	ori	s2,s2,3
   13744:	00caf793          	andi	a5,s5,12
   13748:	ed1ff06f          	j	13618 <_ZL11follow_pathP3DIRPKc+0x338>
   1374c:	fd4d0ce3          	beq	s10,s4,13724 <_ZL11follow_pathP3DIRPKc+0x444>
   13750:	07f00793          	li	a5,127
   13754:	0d37ee63          	bltu	a5,s3,13830 <_ZL11follow_pathP3DIRPKc+0x550>
   13758:	00098593          	mv	a1,s3
   1375c:	00006517          	auipc	a0,0x6
   13760:	af450513          	addi	a0,a0,-1292 # 19250 <_ZL6dither+0x508>
   13764:	5f5040ef          	jal	ra,18558 <strchr>
   13768:	10050263          	beqz	a0,1386c <_ZL11follow_pathP3DIRPKc+0x58c>
   1376c:	00396913          	ori	s2,s2,3
   13770:	000c0793          	mv	a5,s8
   13774:	05f00993          	li	s3,95
   13778:	00f40633          	add	a2,s0,a5
   1377c:	00178c13          	addi	s8,a5,1
   13780:	03360023          	sb	s3,32(a2)
   13784:	000a0893          	mv	a7,s4
   13788:	f7dff06f          	j	13704 <_ZL11follow_pathP3DIRPKc+0x424>
   1378c:	00296913          	ori	s2,s2,2
   13790:	ebdff06f          	j	1364c <_ZL11follow_pathP3DIRPKc+0x36c>
   13794:	00070813          	mv	a6,a4
   13798:	02e00713          	li	a4,46
   1379c:	00100a13          	li	s4,1
   137a0:	dce79ee3          	bne	a5,a4,1357c <_ZL11follow_pathP3DIRPKc+0x29c>
   137a4:	00396913          	ori	s2,s2,3
   137a8:	dd5ff06f          	j	1357c <_ZL11follow_pathP3DIRPKc+0x29c>
   137ac:	00400913          	li	s2,4
   137b0:	00412783          	lw	a5,4(sp)
   137b4:	00100d13          	li	s10,1
   137b8:	0007d703          	lhu	a4,0(a5)
   137bc:	02e00793          	li	a5,46
   137c0:	d4f718e3          	bne	a4,a5,13510 <_ZL11follow_pathP3DIRPKc+0x230>
   137c4:	00412783          	lw	a5,4(sp)
   137c8:	02000713          	li	a4,32
   137cc:	00079123          	sh	zero,2(a5)
   137d0:	000027b7          	lui	a5,0x2
   137d4:	02078793          	addi	a5,a5,32 # 2020 <exit-0xe074>
   137d8:	02e400a3          	sb	a4,33(s0)
   137dc:	20202737          	lui	a4,0x20202
   137e0:	02e00613          	li	a2,46
   137e4:	02f41123          	sh	a5,34(s0)
   137e8:	02070713          	addi	a4,a4,32 # 20202020 <__BSS_END__+0x201666cc>
   137ec:	02f41423          	sh	a5,40(s0)
   137f0:	02000793          	li	a5,32
   137f4:	02c40023          	sb	a2,32(s0)
   137f8:	02e42223          	sw	a4,36(s0)
   137fc:	02f40523          	sb	a5,42(s0)
   13800:	02096913          	ori	s2,s2,32
   13804:	e49ff06f          	j	1364c <_ZL11follow_pathP3DIRPKc+0x36c>
   13808:	002a9a93          	slli	s5,s5,0x2
   1380c:	0ffafa93          	zext.b	s5,s5
   13810:	000d0893          	mv	a7,s10
   13814:	00b00b93          	li	s7,11
   13818:	00800c13          	li	s8,8
   1381c:	ee9ff06f          	j	13704 <_ZL11follow_pathP3DIRPKc+0x424>
   13820:	002a9793          	slli	a5,s5,0x2
   13824:	0ff7fa93          	zext.b	s5,a5
   13828:	00c7f793          	andi	a5,a5,12
   1382c:	dedff06f          	j	13618 <_ZL11follow_pathP3DIRPKc+0x338>
   13830:	00098513          	mv	a0,s3
   13834:	1b500593          	li	a1,437
   13838:	5bd010ef          	jal	ra,155f4 <ff_uni2oem>
   1383c:	08057793          	andi	a5,a0,128
   13840:	00050993          	mv	s3,a0
   13844:	00296613          	ori	a2,s2,2
   13848:	06078a63          	beqz	a5,138bc <_ZL11follow_pathP3DIRPKc+0x5dc>
   1384c:	07f57993          	andi	s3,a0,127
   13850:	00006797          	auipc	a5,0x6
   13854:	a0878793          	addi	a5,a5,-1528 # 19258 <_ZL5ExCvt>
   13858:	013787b3          	add	a5,a5,s3
   1385c:	0007c983          	lbu	s3,0(a5)
   13860:	00060913          	mv	s2,a2
   13864:	f00984e3          	beqz	s3,1376c <_ZL11follow_pathP3DIRPKc+0x48c>
   13868:	ef1ff06f          	j	13758 <_ZL11follow_pathP3DIRPKc+0x478>
   1386c:	fbf98793          	addi	a5,s3,-65
   13870:	01079793          	slli	a5,a5,0x10
   13874:	0107d793          	srli	a5,a5,0x10
   13878:	01900613          	li	a2,25
   1387c:	06f67a63          	bgeu	a2,a5,138f0 <_ZL11follow_pathP3DIRPKc+0x610>
   13880:	f9f98793          	addi	a5,s3,-97
   13884:	01079793          	slli	a5,a5,0x10
   13888:	0107d793          	srli	a5,a5,0x10
   1388c:	00f66663          	bltu	a2,a5,13898 <_ZL11follow_pathP3DIRPKc+0x5b8>
   13890:	fe098993          	addi	s3,s3,-32
   13894:	001aea93          	ori	s5,s5,1
   13898:	0ff9f993          	zext.b	s3,s3
   1389c:	000c0793          	mv	a5,s8
   138a0:	ed9ff06f          	j	13778 <_ZL11follow_pathP3DIRPKc+0x498>
   138a4:	00412703          	lw	a4,4(sp)
   138a8:	00075603          	lhu	a2,0(a4)
   138ac:	c6f612e3          	bne	a2,a5,13510 <_ZL11follow_pathP3DIRPKc+0x230>
   138b0:	00071223          	sh	zero,4(a4)
   138b4:	02e00713          	li	a4,46
   138b8:	f19ff06f          	j	137d0 <_ZL11follow_pathP3DIRPKc+0x4f0>
   138bc:	0ff00793          	li	a5,255
   138c0:	faa7f0e3          	bgeu	a5,a0,13860 <_ZL11follow_pathP3DIRPKc+0x580>
   138c4:	fffb8793          	addi	a5,s7,-1
   138c8:	04fc7263          	bgeu	s8,a5,1390c <_ZL11follow_pathP3DIRPKc+0x62c>
   138cc:	018405b3          	add	a1,s0,s8
   138d0:	00855513          	srli	a0,a0,0x8
   138d4:	001c0793          	addi	a5,s8,1
   138d8:	02a58023          	sb	a0,32(a1)
   138dc:	0ff9f993          	zext.b	s3,s3
   138e0:	00060913          	mv	s2,a2
   138e4:	e95ff06f          	j	13778 <_ZL11follow_pathP3DIRPKc+0x498>
   138e8:	00400913          	li	s2,4
   138ec:	c01ff06f          	j	134ec <_ZL11follow_pathP3DIRPKc+0x20c>
   138f0:	002aea93          	ori	s5,s5,2
   138f4:	0ff9f993          	zext.b	s3,s3
   138f8:	000c0793          	mv	a5,s8
   138fc:	e7dff06f          	j	13778 <_ZL11follow_pathP3DIRPKc+0x498>
   13900:	b00792e3          	bnez	a5,13404 <_ZL11follow_pathP3DIRPKc+0x124>
   13904:	00500513          	li	a0,5
   13908:	afdff06f          	j	13404 <_ZL11follow_pathP3DIRPKc+0x124>
   1390c:	00396913          	ori	s2,s2,3
   13910:	000a0893          	mv	a7,s4
   13914:	000b8c13          	mv	s8,s7
   13918:	dedff06f          	j	13704 <_ZL11follow_pathP3DIRPKc+0x424>
   1391c:	be0d1ae3          	bnez	s10,13510 <_ZL11follow_pathP3DIRPKc+0x230>
   13920:	ad9ff06f          	j	133f8 <_ZL11follow_pathP3DIRPKc+0x118>

00013924 <_ZL12create_chainP7FFOBJIDm>:
   13924:	fd010113          	addi	sp,sp,-48
   13928:	02912223          	sw	s1,36(sp)
   1392c:	03212023          	sw	s2,32(sp)
   13930:	01612823          	sw	s6,16(sp)
   13934:	02112623          	sw	ra,44(sp)
   13938:	02812423          	sw	s0,40(sp)
   1393c:	01312e23          	sw	s3,28(sp)
   13940:	01412c23          	sw	s4,24(sp)
   13944:	01512a23          	sw	s5,20(sp)
   13948:	01712623          	sw	s7,12(sp)
   1394c:	01812423          	sw	s8,8(sp)
   13950:	00052903          	lw	s2,0(a0)
   13954:	00050493          	mv	s1,a0
   13958:	00058b13          	mv	s6,a1
   1395c:	0a059a63          	bnez	a1,13a10 <_ZL12create_chainP7FFOBJIDm+0xec>
   13960:	01092a03          	lw	s4,16(s2)
   13964:	01492783          	lw	a5,20(s2)
   13968:	060a1e63          	bnez	s4,139e4 <_ZL12create_chainP7FFOBJIDm+0xc0>
   1396c:	2c078863          	beqz	a5,13c3c <_ZL12create_chainP7FFOBJIDm+0x318>
   13970:	01c92703          	lw	a4,28(s2)
   13974:	00200793          	li	a5,2
   13978:	2ce7f263          	bgeu	a5,a4,13c3c <_ZL12create_chainP7FFOBJIDm+0x318>
   1397c:	0004a983          	lw	s3,0(s1)
   13980:	00100a13          	li	s4,1
   13984:	00200413          	li	s0,2
   13988:	01c9a783          	lw	a5,28(s3)
   1398c:	02f47063          	bgeu	s0,a5,139ac <_ZL12create_chainP7FFOBJIDm+0x88>
   13990:	0009ca83          	lbu	s5,0(s3)
   13994:	00200793          	li	a5,2
   13998:	1efa8063          	beq	s5,a5,13b78 <_ZL12create_chainP7FFOBJIDm+0x254>
   1399c:	00300793          	li	a5,3
   139a0:	20fa8e63          	beq	s5,a5,13bbc <_ZL12create_chainP7FFOBJIDm+0x298>
   139a4:	00100793          	li	a5,1
   139a8:	10fa8e63          	beq	s5,a5,13ac4 <_ZL12create_chainP7FFOBJIDm+0x1a0>
   139ac:	00100413          	li	s0,1
   139b0:	02c12083          	lw	ra,44(sp)
   139b4:	00040513          	mv	a0,s0
   139b8:	02812403          	lw	s0,40(sp)
   139bc:	02412483          	lw	s1,36(sp)
   139c0:	02012903          	lw	s2,32(sp)
   139c4:	01c12983          	lw	s3,28(sp)
   139c8:	01812a03          	lw	s4,24(sp)
   139cc:	01412a83          	lw	s5,20(sp)
   139d0:	01012b03          	lw	s6,16(sp)
   139d4:	00c12b83          	lw	s7,12(sp)
   139d8:	00812c03          	lw	s8,8(sp)
   139dc:	03010113          	addi	sp,sp,48
   139e0:	00008067          	ret
   139e4:	01c92703          	lw	a4,28(s2)
   139e8:	f8ea72e3          	bgeu	s4,a4,1396c <_ZL12create_chainP7FFOBJIDm+0x48>
   139ec:	24078863          	beqz	a5,13c3c <_ZL12create_chainP7FFOBJIDm+0x318>
   139f0:	001a0413          	addi	s0,s4,1 # 200001 <__BSS_END__+0x1646ad>
   139f4:	00090993          	mv	s3,s2
   139f8:	f8e468e3          	bltu	s0,a4,13988 <_ZL12create_chainP7FFOBJIDm+0x64>
   139fc:	00100793          	li	a5,1
   13a00:	22fa0e63          	beq	s4,a5,13c3c <_ZL12create_chainP7FFOBJIDm+0x318>
   13a04:	0004a983          	lw	s3,0(s1)
   13a08:	00200413          	li	s0,2
   13a0c:	f7dff06f          	j	13988 <_ZL12create_chainP7FFOBJIDm+0x64>
   13a10:	00090513          	mv	a0,s2
   13a14:	859fe0ef          	jal	ra,1226c <_ZL7get_fatP7FFOBJIDm.isra.0>
   13a18:	00100793          	li	a5,1
   13a1c:	00050413          	mv	s0,a0
   13a20:	f8a7f6e3          	bgeu	a5,a0,139ac <_ZL12create_chainP7FFOBJIDm+0x88>
   13a24:	fff00793          	li	a5,-1
   13a28:	08f50a63          	beq	a0,a5,13abc <_ZL12create_chainP7FFOBJIDm+0x198>
   13a2c:	01c92783          	lw	a5,28(s2)
   13a30:	f8f560e3          	bltu	a0,a5,139b0 <_ZL12create_chainP7FFOBJIDm+0x8c>
   13a34:	01492703          	lw	a4,20(s2)
   13a38:	20070263          	beqz	a4,13c3c <_ZL12create_chainP7FFOBJIDm+0x318>
   13a3c:	001b0993          	addi	s3,s6,1
   13a40:	00098413          	mv	s0,s3
   13a44:	00f9e463          	bltu	s3,a5,13a4c <_ZL12create_chainP7FFOBJIDm+0x128>
   13a48:	00200413          	li	s0,2
   13a4c:	0004a503          	lw	a0,0(s1)
   13a50:	00040593          	mv	a1,s0
   13a54:	819fe0ef          	jal	ra,1226c <_ZL7get_fatP7FFOBJIDm.isra.0>
   13a58:	00100793          	li	a5,1
   13a5c:	f4f508e3          	beq	a0,a5,139ac <_ZL12create_chainP7FFOBJIDm+0x88>
   13a60:	fff00713          	li	a4,-1
   13a64:	04e50c63          	beq	a0,a4,13abc <_ZL12create_chainP7FFOBJIDm+0x198>
   13a68:	01c92703          	lw	a4,28(s2)
   13a6c:	1a051a63          	bnez	a0,13c20 <_ZL12create_chainP7FFOBJIDm+0x2fc>
   13a70:	1e040463          	beqz	s0,13c58 <_ZL12create_chainP7FFOBJIDm+0x334>
   13a74:	f2e47ce3          	bgeu	s0,a4,139ac <_ZL12create_chainP7FFOBJIDm+0x88>
   13a78:	fff00613          	li	a2,-1
   13a7c:	00040593          	mv	a1,s0
   13a80:	00090513          	mv	a0,s2
   13a84:	de8fe0ef          	jal	ra,1206c <_ZL7put_fatP5FATFSmm.part.0>
   13a88:	02051663          	bnez	a0,13ab4 <_ZL12create_chainP7FFOBJIDm+0x190>
   13a8c:	0c0b0063          	beqz	s6,13b4c <_ZL12create_chainP7FFOBJIDm+0x228>
   13a90:	00100793          	li	a5,1
   13a94:	f0fb0ce3          	beq	s6,a5,139ac <_ZL12create_chainP7FFOBJIDm+0x88>
   13a98:	01c92783          	lw	a5,28(s2)
   13a9c:	f0fb78e3          	bgeu	s6,a5,139ac <_ZL12create_chainP7FFOBJIDm+0x88>
   13aa0:	00040613          	mv	a2,s0
   13aa4:	000b0593          	mv	a1,s6
   13aa8:	00090513          	mv	a0,s2
   13aac:	dc0fe0ef          	jal	ra,1206c <_ZL7put_fatP5FATFSmm.part.0>
   13ab0:	08050e63          	beqz	a0,13b4c <_ZL12create_chainP7FFOBJIDm+0x228>
   13ab4:	00100793          	li	a5,1
   13ab8:	eef51ae3          	bne	a0,a5,139ac <_ZL12create_chainP7FFOBJIDm+0x88>
   13abc:	fff00413          	li	s0,-1
   13ac0:	ef1ff06f          	j	139b0 <_ZL12create_chainP7FFOBJIDm+0x8c>
   13ac4:	0289a783          	lw	a5,40(s3)
   13ac8:	00145b93          	srli	s7,s0,0x1
   13acc:	008b8bb3          	add	s7,s7,s0
   13ad0:	009bd593          	srli	a1,s7,0x9
   13ad4:	00f585b3          	add	a1,a1,a5
   13ad8:	00098513          	mv	a0,s3
   13adc:	cc0fe0ef          	jal	ra,11f9c <_ZL11move_windowP5FATFSm>
   13ae0:	fc051ee3          	bnez	a0,13abc <_ZL12create_chainP7FFOBJIDm+0x198>
   13ae4:	0289a783          	lw	a5,40(s3)
   13ae8:	001b8c13          	addi	s8,s7,1
   13aec:	009c5593          	srli	a1,s8,0x9
   13af0:	1ffbfb93          	andi	s7,s7,511
   13af4:	01798bb3          	add	s7,s3,s7
   13af8:	00f585b3          	add	a1,a1,a5
   13afc:	00098513          	mv	a0,s3
   13b00:	038bcb83          	lbu	s7,56(s7)
   13b04:	c98fe0ef          	jal	ra,11f9c <_ZL11move_windowP5FATFSm>
   13b08:	fa051ae3          	bnez	a0,13abc <_ZL12create_chainP7FFOBJIDm+0x198>
   13b0c:	1ffc7c13          	andi	s8,s8,511
   13b10:	01898c33          	add	s8,s3,s8
   13b14:	038c4783          	lbu	a5,56(s8)
   13b18:	00147713          	andi	a4,s0,1
   13b1c:	00879793          	slli	a5,a5,0x8
   13b20:	0177e7b3          	or	a5,a5,s7
   13b24:	12070063          	beqz	a4,13c44 <_ZL12create_chainP7FFOBJIDm+0x320>
   13b28:	0047d793          	srli	a5,a5,0x4
   13b2c:	12078e63          	beqz	a5,13c68 <_ZL12create_chainP7FFOBJIDm+0x344>
   13b30:	e7578ee3          	beq	a5,s5,139ac <_ZL12create_chainP7FFOBJIDm+0x88>
   13b34:	11440463          	beq	s0,s4,13c3c <_ZL12create_chainP7FFOBJIDm+0x318>
   13b38:	01c92783          	lw	a5,28(s2)
   13b3c:	00140413          	addi	s0,s0,1
   13b40:	eaf47ee3          	bgeu	s0,a5,139fc <_ZL12create_chainP7FFOBJIDm+0xd8>
   13b44:	0004a983          	lw	s3,0(s1)
   13b48:	e41ff06f          	j	13988 <_ZL12create_chainP7FFOBJIDm+0x64>
   13b4c:	01c92783          	lw	a5,28(s2)
   13b50:	01492703          	lw	a4,20(s2)
   13b54:	00892823          	sw	s0,16(s2)
   13b58:	ffe78793          	addi	a5,a5,-2
   13b5c:	00e7e663          	bltu	a5,a4,13b68 <_ZL12create_chainP7FFOBJIDm+0x244>
   13b60:	fff70713          	addi	a4,a4,-1
   13b64:	00e92a23          	sw	a4,20(s2)
   13b68:	00494783          	lbu	a5,4(s2)
   13b6c:	0017e793          	ori	a5,a5,1
   13b70:	00f90223          	sb	a5,4(s2)
   13b74:	e3dff06f          	j	139b0 <_ZL12create_chainP7FFOBJIDm+0x8c>
   13b78:	0289a783          	lw	a5,40(s3)
   13b7c:	00845593          	srli	a1,s0,0x8
   13b80:	00098513          	mv	a0,s3
   13b84:	00f585b3          	add	a1,a1,a5
   13b88:	c14fe0ef          	jal	ra,11f9c <_ZL11move_windowP5FATFSm>
   13b8c:	f20518e3          	bnez	a0,13abc <_ZL12create_chainP7FFOBJIDm+0x198>
   13b90:	00141793          	slli	a5,s0,0x1
   13b94:	1fe7f793          	andi	a5,a5,510
   13b98:	00f987b3          	add	a5,s3,a5
   13b9c:	0397c703          	lbu	a4,57(a5)
   13ba0:	0387c683          	lbu	a3,56(a5)
   13ba4:	00871793          	slli	a5,a4,0x8
   13ba8:	00d7e7b3          	or	a5,a5,a3
   13bac:	0a078e63          	beqz	a5,13c68 <_ZL12create_chainP7FFOBJIDm+0x344>
   13bb0:	00100713          	li	a4,1
   13bb4:	f8e790e3          	bne	a5,a4,13b34 <_ZL12create_chainP7FFOBJIDm+0x210>
   13bb8:	df5ff06f          	j	139ac <_ZL12create_chainP7FFOBJIDm+0x88>
   13bbc:	0289a783          	lw	a5,40(s3)
   13bc0:	00745593          	srli	a1,s0,0x7
   13bc4:	00098513          	mv	a0,s3
   13bc8:	00f585b3          	add	a1,a1,a5
   13bcc:	bd0fe0ef          	jal	ra,11f9c <_ZL11move_windowP5FATFSm>
   13bd0:	ee0516e3          	bnez	a0,13abc <_ZL12create_chainP7FFOBJIDm+0x198>
   13bd4:	00241793          	slli	a5,s0,0x2
   13bd8:	1fc7f793          	andi	a5,a5,508
   13bdc:	00f987b3          	add	a5,s3,a5
   13be0:	0397c683          	lbu	a3,57(a5)
   13be4:	0387c603          	lbu	a2,56(a5)
   13be8:	03a7c703          	lbu	a4,58(a5)
   13bec:	03b7c783          	lbu	a5,59(a5)
   13bf0:	00869693          	slli	a3,a3,0x8
   13bf4:	00c6e6b3          	or	a3,a3,a2
   13bf8:	01071713          	slli	a4,a4,0x10
   13bfc:	00d76733          	or	a4,a4,a3
   13c00:	01879793          	slli	a5,a5,0x18
   13c04:	00e7e7b3          	or	a5,a5,a4
   13c08:	00479793          	slli	a5,a5,0x4
   13c0c:	0047d713          	srli	a4,a5,0x4
   13c10:	04078c63          	beqz	a5,13c68 <_ZL12create_chainP7FFOBJIDm+0x344>
   13c14:	00100793          	li	a5,1
   13c18:	f0f71ee3          	bne	a4,a5,13b34 <_ZL12create_chainP7FFOBJIDm+0x210>
   13c1c:	d91ff06f          	j	139ac <_ZL12create_chainP7FFOBJIDm+0x88>
   13c20:	01092a03          	lw	s4,16(s2)
   13c24:	0347fa63          	bgeu	a5,s4,13c58 <_ZL12create_chainP7FFOBJIDm+0x334>
   13c28:	02ea7863          	bgeu	s4,a4,13c58 <_ZL12create_chainP7FFOBJIDm+0x334>
   13c2c:	001a0413          	addi	s0,s4,1
   13c30:	dce47ae3          	bgeu	s0,a4,13a04 <_ZL12create_chainP7FFOBJIDm+0xe0>
   13c34:	0004a983          	lw	s3,0(s1)
   13c38:	d51ff06f          	j	13988 <_ZL12create_chainP7FFOBJIDm+0x64>
   13c3c:	00000413          	li	s0,0
   13c40:	d71ff06f          	j	139b0 <_ZL12create_chainP7FFOBJIDm+0x8c>
   13c44:	01479793          	slli	a5,a5,0x14
   13c48:	0147d713          	srli	a4,a5,0x14
   13c4c:	00078e63          	beqz	a5,13c68 <_ZL12create_chainP7FFOBJIDm+0x344>
   13c50:	ef5712e3          	bne	a4,s5,13b34 <_ZL12create_chainP7FFOBJIDm+0x210>
   13c54:	d59ff06f          	j	139ac <_ZL12create_chainP7FFOBJIDm+0x88>
   13c58:	00098413          	mv	s0,s3
   13c5c:	00e9ea63          	bltu	s3,a4,13c70 <_ZL12create_chainP7FFOBJIDm+0x34c>
   13c60:	000b0a13          	mv	s4,s6
   13c64:	d99ff06f          	j	139fc <_ZL12create_chainP7FFOBJIDm+0xd8>
   13c68:	01c92703          	lw	a4,28(s2)
   13c6c:	e09ff06f          	j	13a74 <_ZL12create_chainP7FFOBJIDm+0x150>
   13c70:	00100793          	li	a5,1
   13c74:	0004a983          	lw	s3,0(s1)
   13c78:	d287fae3          	bgeu	a5,s0,139ac <_ZL12create_chainP7FFOBJIDm+0x88>
   13c7c:	000b0a13          	mv	s4,s6
   13c80:	d09ff06f          	j	13988 <_ZL12create_chainP7FFOBJIDm+0x64>

00013c84 <_ZL8dir_nextP3DIRi>:
   13c84:	fd010113          	addi	sp,sp,-48
   13c88:	02912223          	sw	s1,36(sp)
   13c8c:	01052483          	lw	s1,16(a0)
   13c90:	02812423          	sw	s0,40(sp)
   13c94:	01312e23          	sw	s3,28(sp)
   13c98:	02112623          	sw	ra,44(sp)
   13c9c:	03212023          	sw	s2,32(sp)
   13ca0:	01412c23          	sw	s4,24(sp)
   13ca4:	01512a23          	sw	s5,20(sp)
   13ca8:	01612823          	sw	s6,16(sp)
   13cac:	01712623          	sw	s7,12(sp)
   13cb0:	01812423          	sw	s8,8(sp)
   13cb4:	01912223          	sw	s9,4(sp)
   13cb8:	002007b7          	lui	a5,0x200
   13cbc:	02048493          	addi	s1,s1,32
   13cc0:	00052983          	lw	s3,0(a0)
   13cc4:	00050413          	mv	s0,a0
   13cc8:	04f4f663          	bgeu	s1,a5,13d14 <_ZL8dir_nextP3DIRi+0x90>
   13ccc:	01852783          	lw	a5,24(a0)
   13cd0:	04078463          	beqz	a5,13d18 <_ZL8dir_nextP3DIRi+0x94>
   13cd4:	1ff4fa13          	andi	s4,s1,511
   13cd8:	000a0e63          	beqz	s4,13cf4 <_ZL8dir_nextP3DIRi+0x70>
   13cdc:	03898913          	addi	s2,s3,56
   13ce0:	01490933          	add	s2,s2,s4
   13ce4:	00942823          	sw	s1,16(s0)
   13ce8:	01242e23          	sw	s2,28(s0)
   13cec:	00000513          	li	a0,0
   13cf0:	02c0006f          	j	13d1c <_ZL8dir_nextP3DIRi+0x98>
   13cf4:	00058913          	mv	s2,a1
   13cf8:	01452583          	lw	a1,20(a0)
   13cfc:	00178793          	addi	a5,a5,1 # 200001 <__BSS_END__+0x1646ad>
   13d00:	00f52c23          	sw	a5,24(a0)
   13d04:	04059663          	bnez	a1,13d50 <_ZL8dir_nextP3DIRi+0xcc>
   13d08:	0089d783          	lhu	a5,8(s3)
   13d0c:	0054d713          	srli	a4,s1,0x5
   13d10:	fcf766e3          	bltu	a4,a5,13cdc <_ZL8dir_nextP3DIRi+0x58>
   13d14:	00042c23          	sw	zero,24(s0)
   13d18:	00400513          	li	a0,4
   13d1c:	02c12083          	lw	ra,44(sp)
   13d20:	02812403          	lw	s0,40(sp)
   13d24:	02412483          	lw	s1,36(sp)
   13d28:	02012903          	lw	s2,32(sp)
   13d2c:	01c12983          	lw	s3,28(sp)
   13d30:	01812a03          	lw	s4,24(sp)
   13d34:	01412a83          	lw	s5,20(sp)
   13d38:	01012b03          	lw	s6,16(sp)
   13d3c:	00c12b83          	lw	s7,12(sp)
   13d40:	00812c03          	lw	s8,8(sp)
   13d44:	00412c83          	lw	s9,4(sp)
   13d48:	03010113          	addi	sp,sp,48
   13d4c:	00008067          	ret
   13d50:	00a9da83          	lhu	s5,10(s3)
   13d54:	0094d793          	srli	a5,s1,0x9
   13d58:	fffa8a93          	addi	s5,s5,-1
   13d5c:	00fafab3          	and	s5,s5,a5
   13d60:	f60a9ee3          	bnez	s5,13cdc <_ZL8dir_nextP3DIRi+0x58>
   13d64:	00098513          	mv	a0,s3
   13d68:	d04fe0ef          	jal	ra,1226c <_ZL7get_fatP7FFOBJIDm.isra.0>
   13d6c:	00100793          	li	a5,1
   13d70:	00050b13          	mv	s6,a0
   13d74:	0ea7fa63          	bgeu	a5,a0,13e68 <_ZL8dir_nextP3DIRi+0x1e4>
   13d78:	fff00793          	li	a5,-1
   13d7c:	0ef50263          	beq	a0,a5,13e60 <_ZL8dir_nextP3DIRi+0x1dc>
   13d80:	01c9a783          	lw	a5,28(s3)
   13d84:	02f57a63          	bgeu	a0,a5,13db8 <_ZL8dir_nextP3DIRi+0x134>
   13d88:	03898913          	addi	s2,s3,56
   13d8c:	ffe50c13          	addi	s8,a0,-2
   13d90:	01642a23          	sw	s6,20(s0)
   13d94:	01c9a783          	lw	a5,28(s3)
   13d98:	ffe78793          	addi	a5,a5,-2
   13d9c:	00fc7a63          	bgeu	s8,a5,13db0 <_ZL8dir_nextP3DIRi+0x12c>
   13da0:	00a9da83          	lhu	s5,10(s3)
   13da4:	0309a783          	lw	a5,48(s3)
   13da8:	038a8ab3          	mul	s5,s5,s8
   13dac:	00fa8ab3          	add	s5,s5,a5
   13db0:	01542c23          	sw	s5,24(s0)
   13db4:	f2dff06f          	j	13ce0 <_ZL8dir_nextP3DIRi+0x5c>
   13db8:	f4090ee3          	beqz	s2,13d14 <_ZL8dir_nextP3DIRi+0x90>
   13dbc:	01442583          	lw	a1,20(s0)
   13dc0:	00040513          	mv	a0,s0
   13dc4:	b61ff0ef          	jal	ra,13924 <_ZL12create_chainP7FFOBJIDm>
   13dc8:	00050b13          	mv	s6,a0
   13dcc:	00700513          	li	a0,7
   13dd0:	f40b06e3          	beqz	s6,13d1c <_ZL8dir_nextP3DIRi+0x98>
   13dd4:	00100793          	li	a5,1
   13dd8:	08fb0863          	beq	s6,a5,13e68 <_ZL8dir_nextP3DIRi+0x1e4>
   13ddc:	fff00793          	li	a5,-1
   13de0:	08fb0063          	beq	s6,a5,13e60 <_ZL8dir_nextP3DIRi+0x1dc>
   13de4:	0039c783          	lbu	a5,3(s3)
   13de8:	03898913          	addi	s2,s3,56
   13dec:	08079263          	bnez	a5,13e70 <_ZL8dir_nextP3DIRi+0x1ec>
   13df0:	01c9a783          	lw	a5,28(s3)
   13df4:	ffeb0c13          	addi	s8,s6,-2
   13df8:	00000c93          	li	s9,0
   13dfc:	ffe78793          	addi	a5,a5,-2
   13e00:	00fc7a63          	bgeu	s8,a5,13e14 <_ZL8dir_nextP3DIRi+0x190>
   13e04:	00a9dc83          	lhu	s9,10(s3)
   13e08:	0309a783          	lw	a5,48(s3)
   13e0c:	038c8cb3          	mul	s9,s9,s8
   13e10:	00fc8cb3          	add	s9,s9,a5
   13e14:	0399aa23          	sw	s9,52(s3)
   13e18:	20000613          	li	a2,512
   13e1c:	00000593          	li	a1,0
   13e20:	00090513          	mv	a0,s2
   13e24:	5f4040ef          	jal	ra,18418 <memset>
   13e28:	00a9d783          	lhu	a5,10(s3)
   13e2c:	f60782e3          	beqz	a5,13d90 <_ZL8dir_nextP3DIRi+0x10c>
   13e30:	00000b93          	li	s7,0
   13e34:	00c0006f          	j	13e40 <_ZL8dir_nextP3DIRi+0x1bc>
   13e38:	001b8b93          	addi	s7,s7,1
   13e3c:	02fbf063          	bgeu	s7,a5,13e5c <_ZL8dir_nextP3DIRi+0x1d8>
   13e40:	0019c503          	lbu	a0,1(s3)
   13e44:	017c8633          	add	a2,s9,s7
   13e48:	00100693          	li	a3,1
   13e4c:	00090593          	mv	a1,s2
   13e50:	229010ef          	jal	ra,15878 <disk_write>
   13e54:	00a9d783          	lhu	a5,10(s3)
   13e58:	fe0500e3          	beqz	a0,13e38 <_ZL8dir_nextP3DIRi+0x1b4>
   13e5c:	f2fb8ae3          	beq	s7,a5,13d90 <_ZL8dir_nextP3DIRi+0x10c>
   13e60:	00100513          	li	a0,1
   13e64:	eb9ff06f          	j	13d1c <_ZL8dir_nextP3DIRi+0x98>
   13e68:	00200513          	li	a0,2
   13e6c:	eb1ff06f          	j	13d1c <_ZL8dir_nextP3DIRi+0x98>
   13e70:	0349a603          	lw	a2,52(s3)
   13e74:	0019c503          	lbu	a0,1(s3)
   13e78:	00100693          	li	a3,1
   13e7c:	00090593          	mv	a1,s2
   13e80:	1f9010ef          	jal	ra,15878 <disk_write>
   13e84:	fc051ee3          	bnez	a0,13e60 <_ZL8dir_nextP3DIRi+0x1dc>
   13e88:	0349a603          	lw	a2,52(s3)
   13e8c:	0289a783          	lw	a5,40(s3)
   13e90:	0209a703          	lw	a4,32(s3)
   13e94:	000981a3          	sb	zero,3(s3)
   13e98:	40f607b3          	sub	a5,a2,a5
   13e9c:	f4e7fae3          	bgeu	a5,a4,13df0 <_ZL8dir_nextP3DIRi+0x16c>
   13ea0:	0029c683          	lbu	a3,2(s3)
   13ea4:	00200793          	li	a5,2
   13ea8:	f4f694e3          	bne	a3,a5,13df0 <_ZL8dir_nextP3DIRi+0x16c>
   13eac:	0019c503          	lbu	a0,1(s3)
   13eb0:	00100693          	li	a3,1
   13eb4:	00e60633          	add	a2,a2,a4
   13eb8:	00090593          	mv	a1,s2
   13ebc:	1bd010ef          	jal	ra,15878 <disk_write>
   13ec0:	f31ff06f          	j	13df0 <_ZL8dir_nextP3DIRi+0x16c>

00013ec4 <f_mount>:
   13ec4:	fd010113          	addi	sp,sp,-48
   13ec8:	00a12623          	sw	a0,12(sp)
   13ecc:	01c10513          	addi	a0,sp,28
   13ed0:	02812423          	sw	s0,40(sp)
   13ed4:	02112623          	sw	ra,44(sp)
   13ed8:	00b12423          	sw	a1,8(sp)
   13edc:	00060413          	mv	s0,a2
   13ee0:	00b12e23          	sw	a1,28(sp)
   13ee4:	fcdfd0ef          	jal	ra,11eb0 <_ZL12get_ldnumberPPKc>
   13ee8:	06054463          	bltz	a0,13f50 <f_mount+0x8c>
   13eec:	c9018793          	addi	a5,gp,-880 # 1b648 <_ZL5FatFs>
   13ef0:	00251513          	slli	a0,a0,0x2
   13ef4:	00a78733          	add	a4,a5,a0
   13ef8:	00072703          	lw	a4,0(a4)
   13efc:	00070463          	beqz	a4,13f04 <f_mount+0x40>
   13f00:	00070023          	sb	zero,0(a4)
   13f04:	00c12703          	lw	a4,12(sp)
   13f08:	00070463          	beqz	a4,13f10 <f_mount+0x4c>
   13f0c:	00070023          	sb	zero,0(a4)
   13f10:	00a787b3          	add	a5,a5,a0
   13f14:	00e7a023          	sw	a4,0(a5)
   13f18:	00000513          	li	a0,0
   13f1c:	00041a63          	bnez	s0,13f30 <f_mount+0x6c>
   13f20:	02c12083          	lw	ra,44(sp)
   13f24:	02812403          	lw	s0,40(sp)
   13f28:	03010113          	addi	sp,sp,48
   13f2c:	00008067          	ret
   13f30:	00c10593          	addi	a1,sp,12
   13f34:	00810513          	addi	a0,sp,8
   13f38:	00000613          	li	a2,0
   13f3c:	ea4fe0ef          	jal	ra,125e0 <_ZL12mount_volumePPKcPP5FATFSh>
   13f40:	02c12083          	lw	ra,44(sp)
   13f44:	02812403          	lw	s0,40(sp)
   13f48:	03010113          	addi	sp,sp,48
   13f4c:	00008067          	ret
   13f50:	02c12083          	lw	ra,44(sp)
   13f54:	02812403          	lw	s0,40(sp)
   13f58:	00b00513          	li	a0,11
   13f5c:	03010113          	addi	sp,sp,48
   13f60:	00008067          	ret

00013f64 <f_open>:
   13f64:	f6010113          	addi	sp,sp,-160
   13f68:	08112e23          	sw	ra,156(sp)
   13f6c:	08812c23          	sw	s0,152(sp)
   13f70:	08912a23          	sw	s1,148(sp)
   13f74:	09212823          	sw	s2,144(sp)
   13f78:	09312623          	sw	s3,140(sp)
   13f7c:	09412423          	sw	s4,136(sp)
   13f80:	09512223          	sw	s5,132(sp)
   13f84:	09612023          	sw	s6,128(sp)
   13f88:	07712e23          	sw	s7,124(sp)
   13f8c:	07812c23          	sw	s8,120(sp)
   13f90:	07912a23          	sw	s9,116(sp)
   13f94:	07a12823          	sw	s10,112(sp)
   13f98:	07b12623          	sw	s11,108(sp)
   13f9c:	00b12623          	sw	a1,12(sp)
   13fa0:	1e050463          	beqz	a0,14188 <f_open+0x224>
   13fa4:	03f67993          	andi	s3,a2,63
   13fa8:	00050413          	mv	s0,a0
   13fac:	00060493          	mv	s1,a2
   13fb0:	01810593          	addi	a1,sp,24
   13fb4:	00098613          	mv	a2,s3
   13fb8:	00c10513          	addi	a0,sp,12
   13fbc:	e24fe0ef          	jal	ra,125e0 <_ZL12mount_volumePPKcPP5FATFSh>
   13fc0:	00050913          	mv	s2,a0
   13fc4:	04050463          	beqz	a0,1400c <f_open+0xa8>
   13fc8:	00042023          	sw	zero,0(s0)
   13fcc:	09c12083          	lw	ra,156(sp)
   13fd0:	09812403          	lw	s0,152(sp)
   13fd4:	09412483          	lw	s1,148(sp)
   13fd8:	08c12983          	lw	s3,140(sp)
   13fdc:	08812a03          	lw	s4,136(sp)
   13fe0:	08412a83          	lw	s5,132(sp)
   13fe4:	08012b03          	lw	s6,128(sp)
   13fe8:	07c12b83          	lw	s7,124(sp)
   13fec:	07812c03          	lw	s8,120(sp)
   13ff0:	07412c83          	lw	s9,116(sp)
   13ff4:	07012d03          	lw	s10,112(sp)
   13ff8:	06c12d83          	lw	s11,108(sp)
   13ffc:	00090513          	mv	a0,s2
   14000:	09012903          	lw	s2,144(sp)
   14004:	0a010113          	addi	sp,sp,160
   14008:	00008067          	ret
   1400c:	01812a03          	lw	s4,24(sp)
   14010:	00c12583          	lw	a1,12(sp)
   14014:	03010513          	addi	a0,sp,48
   14018:	03412823          	sw	s4,48(sp)
   1401c:	ac4ff0ef          	jal	ra,132e0 <_ZL11follow_pathP3DIRPKc>
   14020:	00050d13          	mv	s10,a0
   14024:	02051863          	bnez	a0,14054 <f_open+0xf0>
   14028:	05b10783          	lb	a5,91(sp)
   1402c:	1607c263          	bltz	a5,14190 <f_open+0x22c>
   14030:	01c4f713          	andi	a4,s1,28
   14034:	03614783          	lbu	a5,54(sp)
   14038:	02070a63          	beqz	a4,1406c <f_open+0x108>
   1403c:	0117f793          	andi	a5,a5,17
   14040:	16079463          	bnez	a5,141a8 <f_open+0x244>
   14044:	0044f793          	andi	a5,s1,4
   14048:	6e078a63          	beqz	a5,1473c <f_open+0x7d8>
   1404c:	00800913          	li	s2,8
   14050:	f79ff06f          	j	13fc8 <f_open+0x64>
   14054:	01c4f493          	andi	s1,s1,28
   14058:	00048663          	beqz	s1,14064 <f_open+0x100>
   1405c:	00400793          	li	a5,4
   14060:	14f50863          	beq	a0,a5,141b0 <f_open+0x24c>
   14064:	000d0913          	mv	s2,s10
   14068:	f61ff06f          	j	13fc8 <f_open+0x64>
   1406c:	0107f713          	andi	a4,a5,16
   14070:	12071463          	bnez	a4,14198 <f_open+0x234>
   14074:	0024f713          	andi	a4,s1,2
   14078:	12071463          	bnez	a4,141a0 <f_open+0x23c>
   1407c:	0084f493          	andi	s1,s1,8
   14080:	04c12b03          	lw	s6,76(sp)
   14084:	00048463          	beqz	s1,1408c <f_open+0x128>
   14088:	0409e993          	ori	s3,s3,64
   1408c:	034a2703          	lw	a4,52(s4)
   14090:	03642223          	sw	s6,36(s0)
   14094:	00300793          	li	a5,3
   14098:	02e42023          	sw	a4,32(s0)
   1409c:	01bb4483          	lbu	s1,27(s6)
   140a0:	01ab4683          	lbu	a3,26(s6)
   140a4:	000a4703          	lbu	a4,0(s4)
   140a8:	00849493          	slli	s1,s1,0x8
   140ac:	00d4e4b3          	or	s1,s1,a3
   140b0:	00f71e63          	bne	a4,a5,140cc <f_open+0x168>
   140b4:	015b4783          	lbu	a5,21(s6)
   140b8:	014b4703          	lbu	a4,20(s6)
   140bc:	00879793          	slli	a5,a5,0x8
   140c0:	00e7e7b3          	or	a5,a5,a4
   140c4:	01079793          	slli	a5,a5,0x10
   140c8:	00f4e4b3          	or	s1,s1,a5
   140cc:	00942423          	sw	s1,8(s0)
   140d0:	01db4703          	lbu	a4,29(s6)
   140d4:	01cb4603          	lbu	a2,28(s6)
   140d8:	01eb4783          	lbu	a5,30(s6)
   140dc:	01fb4a83          	lbu	s5,31(s6)
   140e0:	00871713          	slli	a4,a4,0x8
   140e4:	006a5683          	lhu	a3,6(s4)
   140e8:	00c76733          	or	a4,a4,a2
   140ec:	01079793          	slli	a5,a5,0x10
   140f0:	00e7e7b3          	or	a5,a5,a4
   140f4:	018a9a93          	slli	s5,s5,0x18
   140f8:	00faeab3          	or	s5,s5,a5
   140fc:	02c40b13          	addi	s6,s0,44
   14100:	01340823          	sb	s3,16(s0)
   14104:	01542623          	sw	s5,12(s0)
   14108:	02042423          	sw	zero,40(s0)
   1410c:	01442023          	sw	s4,0(s0)
   14110:	00d41223          	sh	a3,4(s0)
   14114:	000408a3          	sb	zero,17(s0)
   14118:	00042e23          	sw	zero,28(s0)
   1411c:	00042a23          	sw	zero,20(s0)
   14120:	20000613          	li	a2,512
   14124:	00000593          	li	a1,0
   14128:	000b0513          	mv	a0,s6
   1412c:	0209f993          	andi	s3,s3,32
   14130:	2e8040ef          	jal	ra,18418 <memset>
   14134:	e8098ce3          	beqz	s3,13fcc <f_open+0x68>
   14138:	e80a8ae3          	beqz	s5,13fcc <f_open+0x68>
   1413c:	00aa5983          	lhu	s3,10(s4)
   14140:	01542a23          	sw	s5,20(s0)
   14144:	00999993          	slli	s3,s3,0x9
   14148:	7959f063          	bgeu	s3,s5,148c8 <f_open+0x964>
   1414c:	000a0513          	mv	a0,s4
   14150:	00100b93          	li	s7,1
   14154:	fff00c13          	li	s8,-1
   14158:	0140006f          	j	1416c <f_open+0x208>
   1415c:	413a8ab3          	sub	s5,s5,s3
   14160:	5b8504e3          	beq	a0,s8,14f08 <f_open+0xfa4>
   14164:	7759f263          	bgeu	s3,s5,148c8 <f_open+0x964>
   14168:	00042503          	lw	a0,0(s0)
   1416c:	00048593          	mv	a1,s1
   14170:	8fcfe0ef          	jal	ra,1226c <_ZL7get_fatP7FFOBJIDm.isra.0>
   14174:	00050493          	mv	s1,a0
   14178:	feabe2e3          	bltu	s7,a0,1415c <f_open+0x1f8>
   1417c:	00a42c23          	sw	a0,24(s0)
   14180:	00200913          	li	s2,2
   14184:	e45ff06f          	j	13fc8 <f_open+0x64>
   14188:	00900913          	li	s2,9
   1418c:	e41ff06f          	j	13fcc <f_open+0x68>
   14190:	00600913          	li	s2,6
   14194:	e35ff06f          	j	13fc8 <f_open+0x64>
   14198:	00400913          	li	s2,4
   1419c:	e2dff06f          	j	13fc8 <f_open+0x64>
   141a0:	0017f793          	andi	a5,a5,1
   141a4:	ec078ce3          	beqz	a5,1407c <f_open+0x118>
   141a8:	00700913          	li	s2,7
   141ac:	e1dff06f          	j	13fc8 <f_open+0x64>
   141b0:	05b14783          	lbu	a5,91(sp)
   141b4:	03012a83          	lw	s5,48(sp)
   141b8:	00f12423          	sw	a5,8(sp)
   141bc:	0a07f793          	andi	a5,a5,160
   141c0:	fc0798e3          	bnez	a5,14190 <f_open+0x22c>
   141c4:	00caa503          	lw	a0,12(s5)
   141c8:	00055783          	lhu	a5,0(a0)
   141cc:	120784e3          	beqz	a5,14af4 <f_open+0xb90>
   141d0:	00250793          	addi	a5,a0,2
   141d4:	00000c13          	li	s8,0
   141d8:	0007d703          	lhu	a4,0(a5)
   141dc:	001c0c13          	addi	s8,s8,1
   141e0:	00278793          	addi	a5,a5,2
   141e4:	fe071ae3          	bnez	a4,141d8 <f_open+0x274>
   141e8:	05012783          	lw	a5,80(sp)
   141ec:	02f12223          	sw	a5,36(sp)
   141f0:	05412783          	lw	a5,84(sp)
   141f4:	02f12423          	sw	a5,40(sp)
   141f8:	05812783          	lw	a5,88(sp)
   141fc:	02f12623          	sw	a5,44(sp)
   14200:	00812783          	lw	a5,8(sp)
   14204:	0017f793          	andi	a5,a5,1
   14208:	70078c63          	beqz	a5,14920 <f_open+0x9bc>
   1420c:	04000793          	li	a5,64
   14210:	00011cb7          	lui	s9,0x11
   14214:	04f10da3          	sb	a5,91(sp)
   14218:	00100b93          	li	s7,1
   1421c:	02000d93          	li	s11,32
   14220:	00400b13          	li	s6,4
   14224:	000104b7          	lui	s1,0x10
   14228:	021c8c93          	addi	s9,s9,33 # 11021 <_Z19SDCheckVoltageRangev+0x211>
   1422c:	02e14783          	lbu	a5,46(sp)
   14230:	02412803          	lw	a6,36(sp)
   14234:	02812683          	lw	a3,40(sp)
   14238:	02c15703          	lhu	a4,44(sp)
   1423c:	04f10d23          	sb	a5,90(sp)
   14240:	05012823          	sw	a6,80(sp)
   14244:	04d12a23          	sw	a3,84(sp)
   14248:	04e11c23          	sh	a4,88(sp)
   1424c:	00500793          	li	a5,5
   14250:	4977f663          	bgeu	a5,s7,146dc <f_open+0x778>
   14254:	00055783          	lhu	a5,0(a0)
   14258:	000b8713          	mv	a4,s7
   1425c:	1c078463          	beqz	a5,14424 <f_open+0x4c0>
   14260:	00171713          	slli	a4,a4,0x1
   14264:	0017f693          	andi	a3,a5,1
   14268:	00e686b3          	add	a3,a3,a4
   1426c:	0096f833          	and	a6,a3,s1
   14270:	00250513          	addi	a0,a0,2
   14274:	0017d713          	srli	a4,a5,0x1
   14278:	00080463          	beqz	a6,14280 <f_open+0x31c>
   1427c:	0196c6b3          	xor	a3,a3,s9
   14280:	00169693          	slli	a3,a3,0x1
   14284:	00177713          	andi	a4,a4,1
   14288:	00d70733          	add	a4,a4,a3
   1428c:	00977833          	and	a6,a4,s1
   14290:	0027d693          	srli	a3,a5,0x2
   14294:	00080463          	beqz	a6,1429c <f_open+0x338>
   14298:	01974733          	xor	a4,a4,s9
   1429c:	00171713          	slli	a4,a4,0x1
   142a0:	0016f693          	andi	a3,a3,1
   142a4:	00e686b3          	add	a3,a3,a4
   142a8:	0096f833          	and	a6,a3,s1
   142ac:	0037d713          	srli	a4,a5,0x3
   142b0:	00080463          	beqz	a6,142b8 <f_open+0x354>
   142b4:	0196c6b3          	xor	a3,a3,s9
   142b8:	00169693          	slli	a3,a3,0x1
   142bc:	00177713          	andi	a4,a4,1
   142c0:	00d70733          	add	a4,a4,a3
   142c4:	00977833          	and	a6,a4,s1
   142c8:	0047d693          	srli	a3,a5,0x4
   142cc:	00080463          	beqz	a6,142d4 <f_open+0x370>
   142d0:	01974733          	xor	a4,a4,s9
   142d4:	00171713          	slli	a4,a4,0x1
   142d8:	0016f693          	andi	a3,a3,1
   142dc:	00e686b3          	add	a3,a3,a4
   142e0:	0096f833          	and	a6,a3,s1
   142e4:	0057d713          	srli	a4,a5,0x5
   142e8:	00080463          	beqz	a6,142f0 <f_open+0x38c>
   142ec:	0196c6b3          	xor	a3,a3,s9
   142f0:	00169693          	slli	a3,a3,0x1
   142f4:	00177713          	andi	a4,a4,1
   142f8:	00d70733          	add	a4,a4,a3
   142fc:	00977833          	and	a6,a4,s1
   14300:	0067d693          	srli	a3,a5,0x6
   14304:	00080463          	beqz	a6,1430c <f_open+0x3a8>
   14308:	01974733          	xor	a4,a4,s9
   1430c:	00171713          	slli	a4,a4,0x1
   14310:	0016f693          	andi	a3,a3,1
   14314:	00e686b3          	add	a3,a3,a4
   14318:	0096f833          	and	a6,a3,s1
   1431c:	0077d713          	srli	a4,a5,0x7
   14320:	00080463          	beqz	a6,14328 <f_open+0x3c4>
   14324:	0196c6b3          	xor	a3,a3,s9
   14328:	00169693          	slli	a3,a3,0x1
   1432c:	00177713          	andi	a4,a4,1
   14330:	00d70733          	add	a4,a4,a3
   14334:	00977833          	and	a6,a4,s1
   14338:	0087d693          	srli	a3,a5,0x8
   1433c:	00080463          	beqz	a6,14344 <f_open+0x3e0>
   14340:	01974733          	xor	a4,a4,s9
   14344:	00171713          	slli	a4,a4,0x1
   14348:	0016f693          	andi	a3,a3,1
   1434c:	00e686b3          	add	a3,a3,a4
   14350:	0096f833          	and	a6,a3,s1
   14354:	0097d713          	srli	a4,a5,0x9
   14358:	00080463          	beqz	a6,14360 <f_open+0x3fc>
   1435c:	0196c6b3          	xor	a3,a3,s9
   14360:	00169693          	slli	a3,a3,0x1
   14364:	00177713          	andi	a4,a4,1
   14368:	00d70733          	add	a4,a4,a3
   1436c:	00977833          	and	a6,a4,s1
   14370:	00a7d693          	srli	a3,a5,0xa
   14374:	00080463          	beqz	a6,1437c <f_open+0x418>
   14378:	01974733          	xor	a4,a4,s9
   1437c:	00171713          	slli	a4,a4,0x1
   14380:	0016f693          	andi	a3,a3,1
   14384:	00e686b3          	add	a3,a3,a4
   14388:	0096f833          	and	a6,a3,s1
   1438c:	00b7d713          	srli	a4,a5,0xb
   14390:	00080463          	beqz	a6,14398 <f_open+0x434>
   14394:	0196c6b3          	xor	a3,a3,s9
   14398:	00169693          	slli	a3,a3,0x1
   1439c:	00177713          	andi	a4,a4,1
   143a0:	00d70733          	add	a4,a4,a3
   143a4:	00977833          	and	a6,a4,s1
   143a8:	00c7d693          	srli	a3,a5,0xc
   143ac:	00080463          	beqz	a6,143b4 <f_open+0x450>
   143b0:	01974733          	xor	a4,a4,s9
   143b4:	00171713          	slli	a4,a4,0x1
   143b8:	0016f693          	andi	a3,a3,1
   143bc:	00e686b3          	add	a3,a3,a4
   143c0:	0096f833          	and	a6,a3,s1
   143c4:	00d7d713          	srli	a4,a5,0xd
   143c8:	00080463          	beqz	a6,143d0 <f_open+0x46c>
   143cc:	0196c6b3          	xor	a3,a3,s9
   143d0:	00169693          	slli	a3,a3,0x1
   143d4:	00177713          	andi	a4,a4,1
   143d8:	00d70733          	add	a4,a4,a3
   143dc:	00977833          	and	a6,a4,s1
   143e0:	00e7d693          	srli	a3,a5,0xe
   143e4:	00080463          	beqz	a6,143ec <f_open+0x488>
   143e8:	01974733          	xor	a4,a4,s9
   143ec:	00171713          	slli	a4,a4,0x1
   143f0:	0016f693          	andi	a3,a3,1
   143f4:	00e686b3          	add	a3,a3,a4
   143f8:	0096f833          	and	a6,a3,s1
   143fc:	00f7d713          	srli	a4,a5,0xf
   14400:	00080463          	beqz	a6,14408 <f_open+0x4a4>
   14404:	0196c6b3          	xor	a3,a3,s9
   14408:	00169693          	slli	a3,a3,0x1
   1440c:	00d70733          	add	a4,a4,a3
   14410:	009777b3          	and	a5,a4,s1
   14414:	00078463          	beqz	a5,1441c <f_open+0x4b8>
   14418:	01974733          	xor	a4,a4,s9
   1441c:	00055783          	lhu	a5,0(a0)
   14420:	e40790e3          	bnez	a5,14260 <f_open+0x2fc>
   14424:	00f77693          	andi	a3,a4,15
   14428:	03068793          	addi	a5,a3,48
   1442c:	03900813          	li	a6,57
   14430:	00475513          	srli	a0,a4,0x4
   14434:	00f87463          	bgeu	a6,a5,1443c <f_open+0x4d8>
   14438:	03768793          	addi	a5,a3,55
   1443c:	02f101a3          	sb	a5,35(sp)
   14440:	00f00793          	li	a5,15
   14444:	2ae7f063          	bgeu	a5,a4,146e4 <f_open+0x780>
   14448:	00f57813          	andi	a6,a0,15
   1444c:	03080793          	addi	a5,a6,48
   14450:	03900893          	li	a7,57
   14454:	00875693          	srli	a3,a4,0x8
   14458:	00f8f463          	bgeu	a7,a5,14460 <f_open+0x4fc>
   1445c:	03780793          	addi	a5,a6,55
   14460:	02f10123          	sb	a5,34(sp)
   14464:	00f00793          	li	a5,15
   14468:	62a7f863          	bgeu	a5,a0,14a98 <f_open+0xb34>
   1446c:	00f6f813          	andi	a6,a3,15
   14470:	03080793          	addi	a5,a6,48
   14474:	03900893          	li	a7,57
   14478:	00c75513          	srli	a0,a4,0xc
   1447c:	00f8f463          	bgeu	a7,a5,14484 <f_open+0x520>
   14480:	03780793          	addi	a5,a6,55
   14484:	02f100a3          	sb	a5,33(sp)
   14488:	00f00793          	li	a5,15
   1448c:	2ed7f8e3          	bgeu	a5,a3,14f7c <f_open+0x1018>
   14490:	00f57813          	andi	a6,a0,15
   14494:	03080793          	addi	a5,a6,48
   14498:	03900893          	li	a7,57
   1449c:	01075693          	srli	a3,a4,0x10
   144a0:	00f8f463          	bgeu	a7,a5,144a8 <f_open+0x544>
   144a4:	03780793          	addi	a5,a6,55
   144a8:	02f10023          	sb	a5,32(sp)
   144ac:	00f00793          	li	a5,15
   144b0:	28a7fae3          	bgeu	a5,a0,14f44 <f_open+0xfe0>
   144b4:	00f6f813          	andi	a6,a3,15
   144b8:	03080793          	addi	a5,a6,48
   144bc:	03900893          	li	a7,57
   144c0:	01475513          	srli	a0,a4,0x14
   144c4:	00f8f463          	bgeu	a7,a5,144cc <f_open+0x568>
   144c8:	03780793          	addi	a5,a6,55
   144cc:	00f10fa3          	sb	a5,31(sp)
   144d0:	00f00793          	li	a5,15
   144d4:	24d7f0e3          	bgeu	a5,a3,14f14 <f_open+0xfb0>
   144d8:	00f57813          	andi	a6,a0,15
   144dc:	03080693          	addi	a3,a6,48
   144e0:	03900893          	li	a7,57
   144e4:	01875793          	srli	a5,a4,0x18
   144e8:	00d8f463          	bgeu	a7,a3,144f0 <f_open+0x58c>
   144ec:	03780693          	addi	a3,a6,55
   144f0:	00d10f23          	sb	a3,30(sp)
   144f4:	00f00713          	li	a4,15
   144f8:	1ea770e3          	bgeu	a4,a0,14ed8 <f_open+0xf74>
   144fc:	00f7f793          	andi	a5,a5,15
   14500:	03078713          	addi	a4,a5,48
   14504:	03900693          	li	a3,57
   14508:	00e6f463          	bgeu	a3,a4,14510 <f_open+0x5ac>
   1450c:	03778713          	addi	a4,a5,55
   14510:	07e00793          	li	a5,126
   14514:	00e10ea3          	sb	a4,29(sp)
   14518:	00f10e23          	sb	a5,28(sp)
   1451c:	00000713          	li	a4,0
   14520:	00000793          	li	a5,0
   14524:	06070693          	addi	a3,a4,96
   14528:	002686b3          	add	a3,a3,sp
   1452c:	fbc6c503          	lbu	a0,-68(a3)
   14530:	fbd6c803          	lbu	a6,-67(a3)
   14534:	06078693          	addi	a3,a5,96
   14538:	002686b3          	add	a3,a3,sp
   1453c:	fea68823          	sb	a0,-16(a3)
   14540:	ff0688a3          	sb	a6,-15(a3)
   14544:	00278513          	addi	a0,a5,2
   14548:	00800693          	li	a3,8
   1454c:	00270813          	addi	a6,a4,2
   14550:	06d50463          	beq	a0,a3,145b8 <f_open+0x654>
   14554:	08d81263          	bne	a6,a3,145d8 <f_open+0x674>
   14558:	06050713          	addi	a4,a0,96
   1455c:	00270533          	add	a0,a4,sp
   14560:	ffb50823          	sb	s11,-16(a0)
   14564:	00378713          	addi	a4,a5,3
   14568:	05070863          	beq	a4,a6,145b8 <f_open+0x654>
   1456c:	00800793          	li	a5,8
   14570:	40e787b3          	sub	a5,a5,a4
   14574:	05010693          	addi	a3,sp,80
   14578:	00e68733          	add	a4,a3,a4
   1457c:	0167ee63          	bltu	a5,s6,14598 <f_open+0x634>
   14580:	01b70023          	sb	s11,0(a4)
   14584:	01b700a3          	sb	s11,1(a4)
   14588:	01b70123          	sb	s11,2(a4)
   1458c:	01b701a3          	sb	s11,3(a4)
   14590:	ffc78793          	addi	a5,a5,-4
   14594:	00470713          	addi	a4,a4,4
   14598:	00200693          	li	a3,2
   1459c:	00d7ea63          	bltu	a5,a3,145b0 <f_open+0x64c>
   145a0:	01b70023          	sb	s11,0(a4)
   145a4:	01b700a3          	sb	s11,1(a4)
   145a8:	ffe78793          	addi	a5,a5,-2
   145ac:	00270713          	addi	a4,a4,2
   145b0:	00078463          	beqz	a5,145b8 <f_open+0x654>
   145b4:	01b70023          	sb	s11,0(a4)
   145b8:	03010513          	addi	a0,sp,48
   145bc:	83dfe0ef          	jal	ra,12df8 <_ZL8dir_findP3DIR>
   145c0:	48051063          	bnez	a0,14a40 <f_open+0xadc>
   145c4:	001b8b93          	addi	s7,s7,1
   145c8:	06400793          	li	a5,100
   145cc:	bcfb8ee3          	beq	s7,a5,141a8 <f_open+0x244>
   145d0:	00caa503          	lw	a0,12(s5)
   145d4:	c59ff06f          	j	1422c <f_open+0x2c8>
   145d8:	06080613          	addi	a2,a6,96
   145dc:	00260833          	add	a6,a2,sp
   145e0:	fbc84883          	lbu	a7,-68(a6)
   145e4:	06050613          	addi	a2,a0,96
   145e8:	00260533          	add	a0,a2,sp
   145ec:	ff150823          	sb	a7,-16(a0)
   145f0:	00378813          	addi	a6,a5,3
   145f4:	00370513          	addi	a0,a4,3
   145f8:	fcd800e3          	beq	a6,a3,145b8 <f_open+0x654>
   145fc:	00d51e63          	bne	a0,a3,14618 <f_open+0x6b4>
   14600:	06080713          	addi	a4,a6,96
   14604:	00270833          	add	a6,a4,sp
   14608:	ffb80823          	sb	s11,-16(a6)
   1460c:	00478713          	addi	a4,a5,4
   14610:	f4a71ee3          	bne	a4,a0,1456c <f_open+0x608>
   14614:	fa5ff06f          	j	145b8 <f_open+0x654>
   14618:	06050613          	addi	a2,a0,96
   1461c:	00260533          	add	a0,a2,sp
   14620:	fbc54883          	lbu	a7,-68(a0)
   14624:	06080613          	addi	a2,a6,96
   14628:	00260833          	add	a6,a2,sp
   1462c:	ff180823          	sb	a7,-16(a6)
   14630:	00478513          	addi	a0,a5,4
   14634:	00470813          	addi	a6,a4,4
   14638:	f8d500e3          	beq	a0,a3,145b8 <f_open+0x654>
   1463c:	00d81e63          	bne	a6,a3,14658 <f_open+0x6f4>
   14640:	06050713          	addi	a4,a0,96
   14644:	00270533          	add	a0,a4,sp
   14648:	ffb50823          	sb	s11,-16(a0)
   1464c:	00578713          	addi	a4,a5,5
   14650:	f1071ee3          	bne	a4,a6,1456c <f_open+0x608>
   14654:	f65ff06f          	j	145b8 <f_open+0x654>
   14658:	06080613          	addi	a2,a6,96
   1465c:	00260833          	add	a6,a2,sp
   14660:	fbc84883          	lbu	a7,-68(a6)
   14664:	06050613          	addi	a2,a0,96
   14668:	00260533          	add	a0,a2,sp
   1466c:	ff150823          	sb	a7,-16(a0)
   14670:	00578813          	addi	a6,a5,5
   14674:	00570513          	addi	a0,a4,5
   14678:	f4d800e3          	beq	a6,a3,145b8 <f_open+0x654>
   1467c:	00d51e63          	bne	a0,a3,14698 <f_open+0x734>
   14680:	06080713          	addi	a4,a6,96
   14684:	00270833          	add	a6,a4,sp
   14688:	ffb80823          	sb	s11,-16(a6)
   1468c:	00678713          	addi	a4,a5,6
   14690:	eca71ee3          	bne	a4,a0,1456c <f_open+0x608>
   14694:	f25ff06f          	j	145b8 <f_open+0x654>
   14698:	06050613          	addi	a2,a0,96
   1469c:	00260533          	add	a0,a2,sp
   146a0:	fbc54883          	lbu	a7,-68(a0)
   146a4:	06080613          	addi	a2,a6,96
   146a8:	00260833          	add	a6,a2,sp
   146ac:	00678513          	addi	a0,a5,6
   146b0:	ff180823          	sb	a7,-16(a6)
   146b4:	00670713          	addi	a4,a4,6
   146b8:	f0d500e3          	beq	a0,a3,145b8 <f_open+0x654>
   146bc:	1cd71c63          	bne	a4,a3,14894 <f_open+0x930>
   146c0:	06050713          	addi	a4,a0,96
   146c4:	00270533          	add	a0,a4,sp
   146c8:	ffb50823          	sb	s11,-16(a0)
   146cc:	00100693          	li	a3,1
   146d0:	00700713          	li	a4,7
   146d4:	e8d79ce3          	bne	a5,a3,1456c <f_open+0x608>
   146d8:	ee1ff06f          	j	145b8 <f_open+0x654>
   146dc:	030b8793          	addi	a5,s7,48
   146e0:	02f101a3          	sb	a5,35(sp)
   146e4:	05014783          	lbu	a5,80(sp)
   146e8:	07e00713          	li	a4,126
   146ec:	02e10123          	sb	a4,34(sp)
   146f0:	00600713          	li	a4,6
   146f4:	37b78463          	beq	a5,s11,14a5c <f_open+0xaf8>
   146f8:	05114783          	lbu	a5,81(sp)
   146fc:	01b780e3          	beq	a5,s11,14efc <f_open+0xf98>
   14700:	05214783          	lbu	a5,82(sp)
   14704:	00600713          	li	a4,6
   14708:	3bb78c63          	beq	a5,s11,14ac0 <f_open+0xb5c>
   1470c:	05314783          	lbu	a5,83(sp)
   14710:	3db78a63          	beq	a5,s11,14ae4 <f_open+0xb80>
   14714:	3d670463          	beq	a4,s6,14adc <f_open+0xb78>
   14718:	05414783          	lbu	a5,84(sp)
   1471c:	3bb78c63          	beq	a5,s11,14ad4 <f_open+0xb70>
   14720:	00600793          	li	a5,6
   14724:	3af71263          	bne	a4,a5,14ac8 <f_open+0xb64>
   14728:	05514783          	lbu	a5,85(sp)
   1472c:	fe078793          	addi	a5,a5,-32
   14730:	00f037b3          	snez	a5,a5
   14734:	00578793          	addi	a5,a5,5
   14738:	dedff06f          	j	14524 <f_open+0x5c0>
   1473c:	0084f493          	andi	s1,s1,8
   14740:	04c12b03          	lw	s6,76(sp)
   14744:	940484e3          	beqz	s1,1408c <f_open+0x128>
   14748:	02100713          	li	a4,33
   1474c:	05200793          	li	a5,82
   14750:	00fb08a3          	sb	a5,17(s6)
   14754:	00fb0ca3          	sb	a5,25(s6)
   14758:	01bb4483          	lbu	s1,27(s6)
   1475c:	000b0723          	sb	zero,14(s6)
   14760:	000b07a3          	sb	zero,15(s6)
   14764:	00eb0823          	sb	a4,16(s6)
   14768:	000b0b23          	sb	zero,22(s6)
   1476c:	000b0ba3          	sb	zero,23(s6)
   14770:	00eb0c23          	sb	a4,24(s6)
   14774:	01ab4683          	lbu	a3,26(s6)
   14778:	000a4703          	lbu	a4,0(s4)
   1477c:	00849493          	slli	s1,s1,0x8
   14780:	00300793          	li	a5,3
   14784:	00d4e4b3          	or	s1,s1,a3
   14788:	00f71e63          	bne	a4,a5,147a4 <f_open+0x840>
   1478c:	015b4783          	lbu	a5,21(s6)
   14790:	014b4703          	lbu	a4,20(s6)
   14794:	00879793          	slli	a5,a5,0x8
   14798:	00e7e7b3          	or	a5,a5,a4
   1479c:	01079793          	slli	a5,a5,0x10
   147a0:	00f4e4b3          	or	s1,s1,a5
   147a4:	02000793          	li	a5,32
   147a8:	00fb05a3          	sb	a5,11(s6)
   147ac:	000b0d23          	sb	zero,26(s6)
   147b0:	000b0da3          	sb	zero,27(s6)
   147b4:	000a4703          	lbu	a4,0(s4)
   147b8:	00300793          	li	a5,3
   147bc:	00f71663          	bne	a4,a5,147c8 <f_open+0x864>
   147c0:	000b0a23          	sb	zero,20(s6)
   147c4:	000b0aa3          	sb	zero,21(s6)
   147c8:	000b0e23          	sb	zero,28(s6)
   147cc:	000b0ea3          	sb	zero,29(s6)
   147d0:	000b0f23          	sb	zero,30(s6)
   147d4:	000b0fa3          	sb	zero,31(s6)
   147d8:	00100793          	li	a5,1
   147dc:	00fa01a3          	sb	a5,3(s4)
   147e0:	8a0484e3          	beqz	s1,14088 <f_open+0x124>
   147e4:	034a2c03          	lw	s8,52(s4)
   147e8:	03012b83          	lw	s7,48(sp)
   147ec:	98f48ae3          	beq	s1,a5,14180 <f_open+0x21c>
   147f0:	01cba783          	lw	a5,28(s7)
   147f4:	98f4f6e3          	bgeu	s1,a5,14180 <f_open+0x21c>
   147f8:	00048a93          	mv	s5,s1
   147fc:	00100d13          	li	s10,1
   14800:	fff00c93          	li	s9,-1
   14804:	000a8593          	mv	a1,s5
   14808:	000b8513          	mv	a0,s7
   1480c:	a61fd0ef          	jal	ra,1226c <_ZL7get_fatP7FFOBJIDm.isra.0>
   14810:	00050713          	mv	a4,a0
   14814:	000a8793          	mv	a5,s5
   14818:	000a8593          	mv	a1,s5
   1481c:	00000613          	li	a2,0
   14820:	000b8513          	mv	a0,s7
   14824:	00070a93          	mv	s5,a4
   14828:	04070463          	beqz	a4,14870 <f_open+0x90c>
   1482c:	95a70ae3          	beq	a4,s10,14180 <f_open+0x21c>
   14830:	0f970463          	beq	a4,s9,14918 <f_open+0x9b4>
   14834:	01cba703          	lw	a4,28(s7)
   14838:	94e7f4e3          	bgeu	a5,a4,14180 <f_open+0x21c>
   1483c:	831fd0ef          	jal	ra,1206c <_ZL7put_fatP5FATFSmm.part.0>
   14840:	00050793          	mv	a5,a0
   14844:	04051463          	bnez	a0,1488c <f_open+0x928>
   14848:	01cba703          	lw	a4,28(s7)
   1484c:	014ba783          	lw	a5,20(s7)
   14850:	ffe70613          	addi	a2,a4,-2
   14854:	00178693          	addi	a3,a5,1
   14858:	00c7fa63          	bgeu	a5,a2,1486c <f_open+0x908>
   1485c:	004bc783          	lbu	a5,4(s7)
   14860:	00dbaa23          	sw	a3,20(s7)
   14864:	0017e793          	ori	a5,a5,1
   14868:	00fb8223          	sb	a5,4(s7)
   1486c:	f8eaece3          	bltu	s5,a4,14804 <f_open+0x8a0>
   14870:	000c0593          	mv	a1,s8
   14874:	000a0513          	mv	a0,s4
   14878:	fff48493          	addi	s1,s1,-1 # ffff <exit-0x95>
   1487c:	f20fd0ef          	jal	ra,11f9c <_ZL11move_windowP5FATFSm>
   14880:	009a2823          	sw	s1,16(s4)
   14884:	00050793          	mv	a5,a0
   14888:	800500e3          	beqz	a0,14088 <f_open+0x124>
   1488c:	00078913          	mv	s2,a5
   14890:	f38ff06f          	j	13fc8 <f_open+0x64>
   14894:	06070693          	addi	a3,a4,96
   14898:	002686b3          	add	a3,a3,sp
   1489c:	fbc6c683          	lbu	a3,-68(a3)
   148a0:	06050613          	addi	a2,a0,96
   148a4:	00260533          	add	a0,a2,sp
   148a8:	fed50823          	sb	a3,-16(a0)
   148ac:	d00796e3          	bnez	a5,145b8 <f_open+0x654>
   148b0:	00600693          	li	a3,6
   148b4:	02000793          	li	a5,32
   148b8:	00d71463          	bne	a4,a3,148c0 <f_open+0x95c>
   148bc:	02314783          	lbu	a5,35(sp)
   148c0:	04f10ba3          	sb	a5,87(sp)
   148c4:	cf5ff06f          	j	145b8 <f_open+0x654>
   148c8:	00942c23          	sw	s1,24(s0)
   148cc:	1ffaf793          	andi	a5,s5,511
   148d0:	ee078e63          	beqz	a5,13fcc <f_open+0x68>
   148d4:	01ca2783          	lw	a5,28(s4)
   148d8:	ffe48493          	addi	s1,s1,-2
   148dc:	ffe78793          	addi	a5,a5,-2
   148e0:	8af4f0e3          	bgeu	s1,a5,14180 <f_open+0x21c>
   148e4:	00aa5783          	lhu	a5,10(s4)
   148e8:	030a2703          	lw	a4,48(s4)
   148ec:	029787b3          	mul	a5,a5,s1
   148f0:	00e787b3          	add	a5,a5,a4
   148f4:	880786e3          	beqz	a5,14180 <f_open+0x21c>
   148f8:	009ad613          	srli	a2,s5,0x9
   148fc:	00f60633          	add	a2,a2,a5
   14900:	00c42e23          	sw	a2,28(s0)
   14904:	001a4503          	lbu	a0,1(s4)
   14908:	00100693          	li	a3,1
   1490c:	000b0593          	mv	a1,s6
   14910:	729000ef          	jal	ra,15838 <disk_read>
   14914:	ea050c63          	beqz	a0,13fcc <f_open+0x68>
   14918:	00100913          	li	s2,1
   1491c:	eacff06f          	j	13fc8 <f_open+0x64>
   14920:	000a8b13          	mv	s6,s5
   14924:	00812783          	lw	a5,8(sp)
   14928:	0027f793          	andi	a5,a5,2
   1492c:	16078063          	beqz	a5,14a8c <f_open+0xb28>
   14930:	00cc0593          	addi	a1,s8,12
   14934:	00d00793          	li	a5,13
   14938:	02f5d4b3          	divu	s1,a1,a5
   1493c:	00148c13          	addi	s8,s1,1
   14940:	00000593          	li	a1,0
   14944:	03010513          	addi	a0,sp,48
   14948:	a24fe0ef          	jal	ra,12b6c <_ZL7dir_sdiP3DIRm>
   1494c:	00050c93          	mv	s9,a0
   14950:	10051a63          	bnez	a0,14a64 <f_open+0xb00>
   14954:	0e500b93          	li	s7,229
   14958:	0180006f          	j	14970 <f_open+0xa0c>
   1495c:	04078063          	beqz	a5,1499c <f_open+0xa38>
   14960:	00000c93          	li	s9,0
   14964:	b20ff0ef          	jal	ra,13c84 <_ZL8dir_nextP3DIRi>
   14968:	00050793          	mv	a5,a0
   1496c:	10051463          	bnez	a0,14a74 <f_open+0xb10>
   14970:	04812583          	lw	a1,72(sp)
   14974:	000b0513          	mv	a0,s6
   14978:	001c8c93          	addi	s9,s9,1
   1497c:	e20fd0ef          	jal	ra,11f9c <_ZL11move_windowP5FATFSm>
   14980:	00050793          	mv	a5,a0
   14984:	00100593          	li	a1,1
   14988:	03010513          	addi	a0,sp,48
   1498c:	0e079463          	bnez	a5,14a74 <f_open+0xb10>
   14990:	04c12783          	lw	a5,76(sp)
   14994:	0007c783          	lbu	a5,0(a5)
   14998:	fd7792e3          	bne	a5,s7,1495c <f_open+0x9f8>
   1499c:	fd9c14e3          	bne	s8,s9,14964 <f_open+0xa00>
   149a0:	14049e63          	bnez	s1,14afc <f_open+0xb98>
   149a4:	04812583          	lw	a1,72(sp)
   149a8:	000a8513          	mv	a0,s5
   149ac:	df0fd0ef          	jal	ra,11f9c <_ZL11move_windowP5FATFSm>
   149b0:	00050793          	mv	a5,a0
   149b4:	ec051ce3          	bnez	a0,1488c <f_open+0x928>
   149b8:	04c12b03          	lw	s6,76(sp)
   149bc:	01500613          	li	a2,21
   149c0:	00000593          	li	a1,0
   149c4:	00bb0513          	addi	a0,s6,11
   149c8:	251030ef          	jal	ra,18418 <memset>
   149cc:	05b14783          	lbu	a5,91(sp)
   149d0:	05014f03          	lbu	t5,80(sp)
   149d4:	05114e83          	lbu	t4,81(sp)
   149d8:	05214e03          	lbu	t3,82(sp)
   149dc:	05314303          	lbu	t1,83(sp)
   149e0:	05414883          	lbu	a7,84(sp)
   149e4:	05514803          	lbu	a6,85(sp)
   149e8:	05614503          	lbu	a0,86(sp)
   149ec:	05714583          	lbu	a1,87(sp)
   149f0:	05814603          	lbu	a2,88(sp)
   149f4:	05914683          	lbu	a3,89(sp)
   149f8:	05a14703          	lbu	a4,90(sp)
   149fc:	0187f793          	andi	a5,a5,24
   14a00:	00fb0623          	sb	a5,12(s6)
   14a04:	01eb0023          	sb	t5,0(s6)
   14a08:	01db00a3          	sb	t4,1(s6)
   14a0c:	01cb0123          	sb	t3,2(s6)
   14a10:	006b01a3          	sb	t1,3(s6)
   14a14:	011b0223          	sb	a7,4(s6)
   14a18:	010b02a3          	sb	a6,5(s6)
   14a1c:	00ab0323          	sb	a0,6(s6)
   14a20:	00bb03a3          	sb	a1,7(s6)
   14a24:	00cb0423          	sb	a2,8(s6)
   14a28:	00db04a3          	sb	a3,9(s6)
   14a2c:	00eb0523          	sb	a4,10(s6)
   14a30:	00100793          	li	a5,1
   14a34:	00fa81a3          	sb	a5,3(s5)
   14a38:	0089e993          	ori	s3,s3,8
   14a3c:	d0dff06f          	j	14748 <f_open+0x7e4>
   14a40:	00400793          	li	a5,4
   14a44:	0af51463          	bne	a0,a5,14aec <f_open+0xb88>
   14a48:	00812783          	lw	a5,8(sp)
   14a4c:	03012b03          	lw	s6,48(sp)
   14a50:	04f10da3          	sb	a5,91(sp)
   14a54:	ed1ff06f          	j	14924 <f_open+0x9c0>
   14a58:	00500713          	li	a4,5
   14a5c:	00000793          	li	a5,0
   14a60:	ac5ff06f          	j	14524 <f_open+0x5c0>
   14a64:	00400793          	li	a5,4
   14a68:	00f50c63          	beq	a0,a5,14a80 <f_open+0xb1c>
   14a6c:	000c8913          	mv	s2,s9
   14a70:	d58ff06f          	j	13fc8 <f_open+0x64>
   14a74:	00400713          	li	a4,4
   14a78:	00078c93          	mv	s9,a5
   14a7c:	fee798e3          	bne	a5,a4,14a6c <f_open+0xb08>
   14a80:	00700c93          	li	s9,7
   14a84:	000c8913          	mv	s2,s9
   14a88:	d40ff06f          	j	13fc8 <f_open+0x64>
   14a8c:	00000493          	li	s1,0
   14a90:	00100c13          	li	s8,1
   14a94:	eadff06f          	j	14940 <f_open+0x9dc>
   14a98:	05014703          	lbu	a4,80(sp)
   14a9c:	07e00793          	li	a5,126
   14aa0:	02f100a3          	sb	a5,33(sp)
   14aa4:	02000793          	li	a5,32
   14aa8:	faf708e3          	beq	a4,a5,14a58 <f_open+0xaf4>
   14aac:	05114703          	lbu	a4,81(sp)
   14ab0:	50f70463          	beq	a4,a5,14fb8 <f_open+0x1054>
   14ab4:	05214683          	lbu	a3,82(sp)
   14ab8:	00500713          	li	a4,5
   14abc:	c4f698e3          	bne	a3,a5,1470c <f_open+0x7a8>
   14ac0:	00200793          	li	a5,2
   14ac4:	a61ff06f          	j	14524 <f_open+0x5c0>
   14ac8:	00500713          	li	a4,5
   14acc:	00500793          	li	a5,5
   14ad0:	a55ff06f          	j	14524 <f_open+0x5c0>
   14ad4:	000d0793          	mv	a5,s10
   14ad8:	a4dff06f          	j	14524 <f_open+0x5c0>
   14adc:	00400793          	li	a5,4
   14ae0:	a45ff06f          	j	14524 <f_open+0x5c0>
   14ae4:	00300793          	li	a5,3
   14ae8:	a3dff06f          	j	14524 <f_open+0x5c0>
   14aec:	00050913          	mv	s2,a0
   14af0:	cd8ff06f          	j	13fc8 <f_open+0x64>
   14af4:	00000c13          	li	s8,0
   14af8:	ef0ff06f          	j	141e8 <f_open+0x284>
   14afc:	04012583          	lw	a1,64(sp)
   14b00:	00549793          	slli	a5,s1,0x5
   14b04:	03010513          	addi	a0,sp,48
   14b08:	40f585b3          	sub	a1,a1,a5
   14b0c:	860fe0ef          	jal	ra,12b6c <_ZL7dir_sdiP3DIRm>
   14b10:	00050793          	mv	a5,a0
   14b14:	d6051ce3          	bnez	a0,1488c <f_open+0x928>
   14b18:	05014703          	lbu	a4,80(sp)
   14b1c:	05114603          	lbu	a2,81(sp)
   14b20:	05214683          	lbu	a3,82(sp)
   14b24:	00175793          	srli	a5,a4,0x1
   14b28:	00771713          	slli	a4,a4,0x7
   14b2c:	00e7e7b3          	or	a5,a5,a4
   14b30:	00c787b3          	add	a5,a5,a2
   14b34:	0ff7f713          	zext.b	a4,a5
   14b38:	00175713          	srli	a4,a4,0x1
   14b3c:	00779793          	slli	a5,a5,0x7
   14b40:	00f76733          	or	a4,a4,a5
   14b44:	0ff77713          	zext.b	a4,a4
   14b48:	00d70733          	add	a4,a4,a3
   14b4c:	0ff77793          	zext.b	a5,a4
   14b50:	05314683          	lbu	a3,83(sp)
   14b54:	00771713          	slli	a4,a4,0x7
   14b58:	0017d793          	srli	a5,a5,0x1
   14b5c:	00e7e7b3          	or	a5,a5,a4
   14b60:	0ff7f793          	zext.b	a5,a5
   14b64:	00d787b3          	add	a5,a5,a3
   14b68:	0ff7f713          	zext.b	a4,a5
   14b6c:	05414683          	lbu	a3,84(sp)
   14b70:	00779793          	slli	a5,a5,0x7
   14b74:	00175713          	srli	a4,a4,0x1
   14b78:	00f76733          	or	a4,a4,a5
   14b7c:	0ff77713          	zext.b	a4,a4
   14b80:	00d70733          	add	a4,a4,a3
   14b84:	0ff77793          	zext.b	a5,a4
   14b88:	05514683          	lbu	a3,85(sp)
   14b8c:	00771713          	slli	a4,a4,0x7
   14b90:	0017d793          	srli	a5,a5,0x1
   14b94:	00e7e7b3          	or	a5,a5,a4
   14b98:	0ff7f793          	zext.b	a5,a5
   14b9c:	00d787b3          	add	a5,a5,a3
   14ba0:	0ff7f713          	zext.b	a4,a5
   14ba4:	05614683          	lbu	a3,86(sp)
   14ba8:	00779793          	slli	a5,a5,0x7
   14bac:	00175713          	srli	a4,a4,0x1
   14bb0:	00f76733          	or	a4,a4,a5
   14bb4:	0ff77713          	zext.b	a4,a4
   14bb8:	00d70733          	add	a4,a4,a3
   14bbc:	0ff77793          	zext.b	a5,a4
   14bc0:	05714683          	lbu	a3,87(sp)
   14bc4:	00771713          	slli	a4,a4,0x7
   14bc8:	0017d793          	srli	a5,a5,0x1
   14bcc:	00e7e7b3          	or	a5,a5,a4
   14bd0:	0ff7f793          	zext.b	a5,a5
   14bd4:	00d787b3          	add	a5,a5,a3
   14bd8:	0ff7f713          	zext.b	a4,a5
   14bdc:	05814683          	lbu	a3,88(sp)
   14be0:	00779793          	slli	a5,a5,0x7
   14be4:	00175713          	srli	a4,a4,0x1
   14be8:	00f76733          	or	a4,a4,a5
   14bec:	0ff77713          	zext.b	a4,a4
   14bf0:	00d70733          	add	a4,a4,a3
   14bf4:	0ff77793          	zext.b	a5,a4
   14bf8:	05914683          	lbu	a3,89(sp)
   14bfc:	00771713          	slli	a4,a4,0x7
   14c00:	0017d793          	srli	a5,a5,0x1
   14c04:	00e7e7b3          	or	a5,a5,a4
   14c08:	0ff7f793          	zext.b	a5,a5
   14c0c:	00d787b3          	add	a5,a5,a3
   14c10:	0ff7fb13          	zext.b	s6,a5
   14c14:	05a14703          	lbu	a4,90(sp)
   14c18:	001b5b13          	srli	s6,s6,0x1
   14c1c:	00779793          	slli	a5,a5,0x7
   14c20:	00fb6b33          	or	s6,s6,a5
   14c24:	00eb0b33          	add	s6,s6,a4
   14c28:	00010db7          	lui	s11,0x10
   14c2c:	0ffb7b13          	zext.b	s6,s6
   14c30:	00f00c13          	li	s8,15
   14c34:	ffdd8d93          	addi	s11,s11,-3 # fffd <exit-0x97>
   14c38:	fff00d13          	li	s10,-1
   14c3c:	00100b93          	li	s7,1
   14c40:	04812583          	lw	a1,72(sp)
   14c44:	000a8513          	mv	a0,s5
   14c48:	b54fd0ef          	jal	ra,11f9c <_ZL11move_windowP5FATFSm>
   14c4c:	00050c93          	mv	s9,a0
   14c50:	e0051ee3          	bnez	a0,14a6c <f_open+0xb08>
   14c54:	0ff4f613          	zext.b	a2,s1
   14c58:	fff60613          	addi	a2,a2,-1
   14c5c:	00161693          	slli	a3,a2,0x1
   14c60:	00c686b3          	add	a3,a3,a2
   14c64:	00caa703          	lw	a4,12(s5)
   14c68:	04c12783          	lw	a5,76(sp)
   14c6c:	00269693          	slli	a3,a3,0x2
   14c70:	00c686b3          	add	a3,a3,a2
   14c74:	00169613          	slli	a2,a3,0x1
   14c78:	016786a3          	sb	s6,13(a5)
   14c7c:	018785a3          	sb	s8,11(a5)
   14c80:	00078623          	sb	zero,12(a5)
   14c84:	00078d23          	sb	zero,26(a5)
   14c88:	00078da3          	sb	zero,27(a5)
   14c8c:	00c70633          	add	a2,a4,a2
   14c90:	00065803          	lhu	a6,0(a2)
   14c94:	0ff4f593          	zext.b	a1,s1
   14c98:	fff80513          	addi	a0,a6,-1
   14c9c:	00885893          	srli	a7,a6,0x8
   14ca0:	01051513          	slli	a0,a0,0x10
   14ca4:	010780a3          	sb	a6,1(a5)
   14ca8:	01178123          	sb	a7,2(a5)
   14cac:	01055513          	srli	a0,a0,0x10
   14cb0:	08adf863          	bgeu	s11,a0,14d40 <f_open+0xddc>
   14cb4:	01a781a3          	sb	s10,3(a5)
   14cb8:	01a78223          	sb	s10,4(a5)
   14cbc:	01a782a3          	sb	s10,5(a5)
   14cc0:	01a78323          	sb	s10,6(a5)
   14cc4:	01a783a3          	sb	s10,7(a5)
   14cc8:	01a78423          	sb	s10,8(a5)
   14ccc:	01a784a3          	sb	s10,9(a5)
   14cd0:	01a78523          	sb	s10,10(a5)
   14cd4:	01a78723          	sb	s10,14(a5)
   14cd8:	01a787a3          	sb	s10,15(a5)
   14cdc:	01a78823          	sb	s10,16(a5)
   14ce0:	01a788a3          	sb	s10,17(a5)
   14ce4:	01a78923          	sb	s10,18(a5)
   14ce8:	01a789a3          	sb	s10,19(a5)
   14cec:	01a78a23          	sb	s10,20(a5)
   14cf0:	01a78aa3          	sb	s10,21(a5)
   14cf4:	01a78b23          	sb	s10,22(a5)
   14cf8:	01a78ba3          	sb	s10,23(a5)
   14cfc:	01a78c23          	sb	s10,24(a5)
   14d00:	01a78ca3          	sb	s10,25(a5)
   14d04:	01a78e23          	sb	s10,28(a5)
   14d08:	01a78ea3          	sb	s10,29(a5)
   14d0c:	01a78f23          	sb	s10,30(a5)
   14d10:	01a78fa3          	sb	s10,31(a5)
   14d14:	0405e593          	ori	a1,a1,64
   14d18:	00b78023          	sb	a1,0(a5)
   14d1c:	017a81a3          	sb	s7,3(s5)
   14d20:	00000593          	li	a1,0
   14d24:	03010513          	addi	a0,sp,48
   14d28:	f5dfe0ef          	jal	ra,13c84 <_ZL8dir_nextP3DIRi>
   14d2c:	00050c93          	mv	s9,a0
   14d30:	d2051ee3          	bnez	a0,14a6c <f_open+0xb08>
   14d34:	fff48493          	addi	s1,s1,-1
   14d38:	f00494e3          	bnez	s1,14c40 <f_open+0xcdc>
   14d3c:	c69ff06f          	j	149a4 <f_open+0xa40>
   14d40:	00168693          	addi	a3,a3,1
   14d44:	00169693          	slli	a3,a3,0x1
   14d48:	00d70733          	add	a4,a4,a3
   14d4c:	00075503          	lhu	a0,0(a4)
   14d50:	fff50693          	addi	a3,a0,-1
   14d54:	00855813          	srli	a6,a0,0x8
   14d58:	01069693          	slli	a3,a3,0x10
   14d5c:	00a781a3          	sb	a0,3(a5)
   14d60:	01078223          	sb	a6,4(a5)
   14d64:	0106d693          	srli	a3,a3,0x10
   14d68:	f4ddeae3          	bltu	s11,a3,14cbc <f_open+0xd58>
   14d6c:	00275503          	lhu	a0,2(a4)
   14d70:	fff50693          	addi	a3,a0,-1
   14d74:	00855813          	srli	a6,a0,0x8
   14d78:	01069693          	slli	a3,a3,0x10
   14d7c:	00a782a3          	sb	a0,5(a5)
   14d80:	01078323          	sb	a6,6(a5)
   14d84:	0106d693          	srli	a3,a3,0x10
   14d88:	f2ddeee3          	bltu	s11,a3,14cc4 <f_open+0xd60>
   14d8c:	00475503          	lhu	a0,4(a4)
   14d90:	fff50693          	addi	a3,a0,-1
   14d94:	00855813          	srli	a6,a0,0x8
   14d98:	01069693          	slli	a3,a3,0x10
   14d9c:	00a783a3          	sb	a0,7(a5)
   14da0:	01078423          	sb	a6,8(a5)
   14da4:	0106d693          	srli	a3,a3,0x10
   14da8:	f2dde2e3          	bltu	s11,a3,14ccc <f_open+0xd68>
   14dac:	00675503          	lhu	a0,6(a4)
   14db0:	fff50693          	addi	a3,a0,-1
   14db4:	00855813          	srli	a6,a0,0x8
   14db8:	01069693          	slli	a3,a3,0x10
   14dbc:	00a784a3          	sb	a0,9(a5)
   14dc0:	01078523          	sb	a6,10(a5)
   14dc4:	0106d693          	srli	a3,a3,0x10
   14dc8:	f0dde6e3          	bltu	s11,a3,14cd4 <f_open+0xd70>
   14dcc:	00875503          	lhu	a0,8(a4)
   14dd0:	fff50693          	addi	a3,a0,-1
   14dd4:	00855813          	srli	a6,a0,0x8
   14dd8:	01069693          	slli	a3,a3,0x10
   14ddc:	00a78723          	sb	a0,14(a5)
   14de0:	010787a3          	sb	a6,15(a5)
   14de4:	0106d693          	srli	a3,a3,0x10
   14de8:	eeddeae3          	bltu	s11,a3,14cdc <f_open+0xd78>
   14dec:	00a75503          	lhu	a0,10(a4)
   14df0:	fff50693          	addi	a3,a0,-1
   14df4:	00855813          	srli	a6,a0,0x8
   14df8:	01069693          	slli	a3,a3,0x10
   14dfc:	00a78823          	sb	a0,16(a5)
   14e00:	010788a3          	sb	a6,17(a5)
   14e04:	0106d693          	srli	a3,a3,0x10
   14e08:	ecddeee3          	bltu	s11,a3,14ce4 <f_open+0xd80>
   14e0c:	00c75503          	lhu	a0,12(a4)
   14e10:	fff50693          	addi	a3,a0,-1
   14e14:	00855813          	srli	a6,a0,0x8
   14e18:	01069693          	slli	a3,a3,0x10
   14e1c:	00a78923          	sb	a0,18(a5)
   14e20:	010789a3          	sb	a6,19(a5)
   14e24:	0106d693          	srli	a3,a3,0x10
   14e28:	ecdde2e3          	bltu	s11,a3,14cec <f_open+0xd88>
   14e2c:	00e75503          	lhu	a0,14(a4)
   14e30:	fff50693          	addi	a3,a0,-1
   14e34:	00855813          	srli	a6,a0,0x8
   14e38:	01069693          	slli	a3,a3,0x10
   14e3c:	00a78a23          	sb	a0,20(a5)
   14e40:	01078aa3          	sb	a6,21(a5)
   14e44:	0106d693          	srli	a3,a3,0x10
   14e48:	eadde6e3          	bltu	s11,a3,14cf4 <f_open+0xd90>
   14e4c:	01075503          	lhu	a0,16(a4)
   14e50:	fff50693          	addi	a3,a0,-1
   14e54:	00855813          	srli	a6,a0,0x8
   14e58:	01069693          	slli	a3,a3,0x10
   14e5c:	00a78b23          	sb	a0,22(a5)
   14e60:	01078ba3          	sb	a6,23(a5)
   14e64:	0106d693          	srli	a3,a3,0x10
   14e68:	e8ddeae3          	bltu	s11,a3,14cfc <f_open+0xd98>
   14e6c:	01275503          	lhu	a0,18(a4)
   14e70:	fff50693          	addi	a3,a0,-1
   14e74:	00855813          	srli	a6,a0,0x8
   14e78:	01069693          	slli	a3,a3,0x10
   14e7c:	00a78c23          	sb	a0,24(a5)
   14e80:	01078ca3          	sb	a6,25(a5)
   14e84:	0106d693          	srli	a3,a3,0x10
   14e88:	e6ddeee3          	bltu	s11,a3,14d04 <f_open+0xda0>
   14e8c:	01475503          	lhu	a0,20(a4)
   14e90:	fff50693          	addi	a3,a0,-1
   14e94:	00855813          	srli	a6,a0,0x8
   14e98:	01069693          	slli	a3,a3,0x10
   14e9c:	00a78e23          	sb	a0,28(a5)
   14ea0:	01078ea3          	sb	a6,29(a5)
   14ea4:	0106d693          	srli	a3,a3,0x10
   14ea8:	e6dde2e3          	bltu	s11,a3,14d0c <f_open+0xda8>
   14eac:	01675683          	lhu	a3,22(a4)
   14eb0:	fff68713          	addi	a4,a3,-1
   14eb4:	0086d513          	srli	a0,a3,0x8
   14eb8:	01071713          	slli	a4,a4,0x10
   14ebc:	00d78f23          	sb	a3,30(a5)
   14ec0:	00a78fa3          	sb	a0,31(a5)
   14ec4:	01075713          	srli	a4,a4,0x10
   14ec8:	e4ede6e3          	bltu	s11,a4,14d14 <f_open+0xdb0>
   14ecc:	01a65703          	lhu	a4,26(a2)
   14ed0:	e40714e3          	bnez	a4,14d18 <f_open+0xdb4>
   14ed4:	e41ff06f          	j	14d14 <f_open+0xdb0>
   14ed8:	05014503          	lbu	a0,80(sp)
   14edc:	07e00793          	li	a5,126
   14ee0:	00f10ea3          	sb	a5,29(sp)
   14ee4:	02000693          	li	a3,32
   14ee8:	00100713          	li	a4,1
   14eec:	00100793          	li	a5,1
   14ef0:	e2d51a63          	bne	a0,a3,14524 <f_open+0x5c0>
   14ef4:	00000793          	li	a5,0
   14ef8:	e2cff06f          	j	14524 <f_open+0x5c0>
   14efc:	00600713          	li	a4,6
   14f00:	00100793          	li	a5,1
   14f04:	e20ff06f          	j	14524 <f_open+0x5c0>
   14f08:	00a42c23          	sw	a0,24(s0)
   14f0c:	00100913          	li	s2,1
   14f10:	8b8ff06f          	j	13fc8 <f_open+0x64>
   14f14:	05014783          	lbu	a5,80(sp)
   14f18:	07e00713          	li	a4,126
   14f1c:	00e10f23          	sb	a4,30(sp)
   14f20:	02000693          	li	a3,32
   14f24:	00200713          	li	a4,2
   14f28:	b2d78ae3          	beq	a5,a3,14a5c <f_open+0xaf8>
   14f2c:	05114503          	lbu	a0,81(sp)
   14f30:	00200713          	li	a4,2
   14f34:	00200793          	li	a5,2
   14f38:	ded51663          	bne	a0,a3,14524 <f_open+0x5c0>
   14f3c:	00100793          	li	a5,1
   14f40:	de4ff06f          	j	14524 <f_open+0x5c0>
   14f44:	05014783          	lbu	a5,80(sp)
   14f48:	07e00713          	li	a4,126
   14f4c:	00e10fa3          	sb	a4,31(sp)
   14f50:	02000693          	li	a3,32
   14f54:	00300713          	li	a4,3
   14f58:	b0d782e3          	beq	a5,a3,14a5c <f_open+0xaf8>
   14f5c:	05114783          	lbu	a5,81(sp)
   14f60:	04d78663          	beq	a5,a3,14fac <f_open+0x1048>
   14f64:	05214503          	lbu	a0,82(sp)
   14f68:	00300713          	li	a4,3
   14f6c:	00300793          	li	a5,3
   14f70:	dad51a63          	bne	a0,a3,14524 <f_open+0x5c0>
   14f74:	00200793          	li	a5,2
   14f78:	dacff06f          	j	14524 <f_open+0x5c0>
   14f7c:	05014703          	lbu	a4,80(sp)
   14f80:	07e00793          	li	a5,126
   14f84:	02f10023          	sb	a5,32(sp)
   14f88:	02000793          	li	a5,32
   14f8c:	04f70263          	beq	a4,a5,14fd0 <f_open+0x106c>
   14f90:	05114703          	lbu	a4,81(sp)
   14f94:	02f70863          	beq	a4,a5,14fc4 <f_open+0x1060>
   14f98:	05214683          	lbu	a3,82(sp)
   14f9c:	000d0713          	mv	a4,s10
   14fa0:	f6f69663          	bne	a3,a5,1470c <f_open+0x7a8>
   14fa4:	00200793          	li	a5,2
   14fa8:	d7cff06f          	j	14524 <f_open+0x5c0>
   14fac:	00300713          	li	a4,3
   14fb0:	00100793          	li	a5,1
   14fb4:	d70ff06f          	j	14524 <f_open+0x5c0>
   14fb8:	00500713          	li	a4,5
   14fbc:	00100793          	li	a5,1
   14fc0:	d64ff06f          	j	14524 <f_open+0x5c0>
   14fc4:	00100793          	li	a5,1
   14fc8:	000d0713          	mv	a4,s10
   14fcc:	d58ff06f          	j	14524 <f_open+0x5c0>
   14fd0:	00000793          	li	a5,0
   14fd4:	000d0713          	mv	a4,s10
   14fd8:	d4cff06f          	j	14524 <f_open+0x5c0>

00014fdc <f_read>:
   14fdc:	fc010113          	addi	sp,sp,-64
   14fe0:	02112e23          	sw	ra,60(sp)
   14fe4:	02812c23          	sw	s0,56(sp)
   14fe8:	02912a23          	sw	s1,52(sp)
   14fec:	03212823          	sw	s2,48(sp)
   14ff0:	03312623          	sw	s3,44(sp)
   14ff4:	03412423          	sw	s4,40(sp)
   14ff8:	03512223          	sw	s5,36(sp)
   14ffc:	03612023          	sw	s6,32(sp)
   15000:	01712e23          	sw	s7,28(sp)
   15004:	01812c23          	sw	s8,24(sp)
   15008:	01912a23          	sw	s9,20(sp)
   1500c:	01a12823          	sw	s10,16(sp)
   15010:	0006a023          	sw	zero,0(a3)
   15014:	02050463          	beqz	a0,1503c <f_read+0x60>
   15018:	00052783          	lw	a5,0(a0)
   1501c:	00050413          	mv	s0,a0
   15020:	00078e63          	beqz	a5,1503c <f_read+0x60>
   15024:	0007c703          	lbu	a4,0(a5)
   15028:	00070a63          	beqz	a4,1503c <f_read+0x60>
   1502c:	00068913          	mv	s2,a3
   15030:	0067d703          	lhu	a4,6(a5)
   15034:	00455683          	lhu	a3,4(a0)
   15038:	04e68263          	beq	a3,a4,1507c <f_read+0xa0>
   1503c:	00900c93          	li	s9,9
   15040:	03c12083          	lw	ra,60(sp)
   15044:	03812403          	lw	s0,56(sp)
   15048:	03412483          	lw	s1,52(sp)
   1504c:	03012903          	lw	s2,48(sp)
   15050:	02c12983          	lw	s3,44(sp)
   15054:	02812a03          	lw	s4,40(sp)
   15058:	02412a83          	lw	s5,36(sp)
   1505c:	02012b03          	lw	s6,32(sp)
   15060:	01c12b83          	lw	s7,28(sp)
   15064:	01812c03          	lw	s8,24(sp)
   15068:	01012d03          	lw	s10,16(sp)
   1506c:	000c8513          	mv	a0,s9
   15070:	01412c83          	lw	s9,20(sp)
   15074:	04010113          	addi	sp,sp,64
   15078:	00008067          	ret
   1507c:	0017c503          	lbu	a0,1(a5)
   15080:	00058b93          	mv	s7,a1
   15084:	00c12623          	sw	a2,12(sp)
   15088:	774000ef          	jal	ra,157fc <disk_status>
   1508c:	00157513          	andi	a0,a0,1
   15090:	fa0516e3          	bnez	a0,1503c <f_read+0x60>
   15094:	01144c83          	lbu	s9,17(s0)
   15098:	fa0c94e3          	bnez	s9,15040 <f_read+0x64>
   1509c:	01044783          	lbu	a5,16(s0)
   150a0:	0017f793          	andi	a5,a5,1
   150a4:	1c078063          	beqz	a5,15264 <f_read+0x288>
   150a8:	01442703          	lw	a4,20(s0)
   150ac:	00c42a83          	lw	s5,12(s0)
   150b0:	00c12603          	lw	a2,12(sp)
   150b4:	00042d03          	lw	s10,0(s0)
   150b8:	40ea8ab3          	sub	s5,s5,a4
   150bc:	01567463          	bgeu	a2,s5,150c4 <f_read+0xe8>
   150c0:	00060a93          	mv	s5,a2
   150c4:	20000993          	li	s3,512
   150c8:	1ff00a13          	li	s4,511
   150cc:	f60a8ae3          	beqz	s5,15040 <f_read+0x64>
   150d0:	1ff77593          	andi	a1,a4,511
   150d4:	02c40b13          	addi	s6,s0,44
   150d8:	0a059663          	bnez	a1,15184 <f_read+0x1a8>
   150dc:	00ad5c03          	lhu	s8,10(s10)
   150e0:	00975793          	srli	a5,a4,0x9
   150e4:	fffc0c13          	addi	s8,s8,-1
   150e8:	00fc7c33          	and	s8,s8,a5
   150ec:	0a0c0c63          	beqz	s8,151a4 <f_read+0x1c8>
   150f0:	01842503          	lw	a0,24(s0)
   150f4:	01cd2703          	lw	a4,28(s10)
   150f8:	ffe50793          	addi	a5,a0,-2
   150fc:	ffe70713          	addi	a4,a4,-2
   15100:	0ce7f863          	bgeu	a5,a4,151d0 <f_read+0x1f4>
   15104:	00ad5703          	lhu	a4,10(s10)
   15108:	030d2683          	lw	a3,48(s10)
   1510c:	02e787b3          	mul	a5,a5,a4
   15110:	00d787b3          	add	a5,a5,a3
   15114:	0a078e63          	beqz	a5,151d0 <f_read+0x1f4>
   15118:	00fc04b3          	add	s1,s8,a5
   1511c:	0d5a7263          	bgeu	s4,s5,151e0 <f_read+0x204>
   15120:	009adb13          	srli	s6,s5,0x9
   15124:	016c07b3          	add	a5,s8,s6
   15128:	00f77463          	bgeu	a4,a5,15130 <f_read+0x154>
   1512c:	41870b33          	sub	s6,a4,s8
   15130:	001d4503          	lbu	a0,1(s10)
   15134:	000b0693          	mv	a3,s6
   15138:	00048613          	mv	a2,s1
   1513c:	000b8593          	mv	a1,s7
   15140:	6f8000ef          	jal	ra,15838 <disk_read>
   15144:	10051863          	bnez	a0,15254 <f_read+0x278>
   15148:	01040783          	lb	a5,16(s0)
   1514c:	1407c863          	bltz	a5,1529c <f_read+0x2c0>
   15150:	009b1493          	slli	s1,s6,0x9
   15154:	00092783          	lw	a5,0(s2)
   15158:	01442703          	lw	a4,20(s0)
   1515c:	409a8ab3          	sub	s5,s5,s1
   15160:	009787b3          	add	a5,a5,s1
   15164:	00f92023          	sw	a5,0(s2)
   15168:	00e48733          	add	a4,s1,a4
   1516c:	00e42a23          	sw	a4,20(s0)
   15170:	009b8bb3          	add	s7,s7,s1
   15174:	ec0a86e3          	beqz	s5,15040 <f_read+0x64>
   15178:	1ff77593          	andi	a1,a4,511
   1517c:	02c40b13          	addi	s6,s0,44
   15180:	f4058ee3          	beqz	a1,150dc <f_read+0x100>
   15184:	40b984b3          	sub	s1,s3,a1
   15188:	009af463          	bgeu	s5,s1,15190 <f_read+0x1b4>
   1518c:	000a8493          	mv	s1,s5
   15190:	00048613          	mv	a2,s1
   15194:	00bb05b3          	add	a1,s6,a1
   15198:	000b8513          	mv	a0,s7
   1519c:	0d8030ef          	jal	ra,18274 <memcpy>
   151a0:	fb5ff06f          	j	15154 <f_read+0x178>
   151a4:	06071c63          	bnez	a4,1521c <f_read+0x240>
   151a8:	00842503          	lw	a0,8(s0)
   151ac:	00100793          	li	a5,1
   151b0:	02a7f063          	bgeu	a5,a0,151d0 <f_read+0x1f4>
   151b4:	fff00793          	li	a5,-1
   151b8:	08f50e63          	beq	a0,a5,15254 <f_read+0x278>
   151bc:	00a42c23          	sw	a0,24(s0)
   151c0:	01cd2703          	lw	a4,28(s10)
   151c4:	ffe50793          	addi	a5,a0,-2
   151c8:	ffe70713          	addi	a4,a4,-2
   151cc:	f2e7ece3          	bltu	a5,a4,15104 <f_read+0x128>
   151d0:	00200793          	li	a5,2
   151d4:	00f408a3          	sb	a5,17(s0)
   151d8:	00200c93          	li	s9,2
   151dc:	e65ff06f          	j	15040 <f_read+0x64>
   151e0:	01c42603          	lw	a2,28(s0)
   151e4:	02c40b13          	addi	s6,s0,44
   151e8:	02960263          	beq	a2,s1,1520c <f_read+0x230>
   151ec:	01040783          	lb	a5,16(s0)
   151f0:	001d4503          	lbu	a0,1(s10)
   151f4:	0807c263          	bltz	a5,15278 <f_read+0x29c>
   151f8:	00100693          	li	a3,1
   151fc:	00048613          	mv	a2,s1
   15200:	000b0593          	mv	a1,s6
   15204:	634000ef          	jal	ra,15838 <disk_read>
   15208:	04051663          	bnez	a0,15254 <f_read+0x278>
   1520c:	01442783          	lw	a5,20(s0)
   15210:	00942e23          	sw	s1,28(s0)
   15214:	1ff7f593          	andi	a1,a5,511
   15218:	f6dff06f          	j	15184 <f_read+0x1a8>
   1521c:	02842683          	lw	a3,40(s0)
   15220:	00042503          	lw	a0,0(s0)
   15224:	04068463          	beqz	a3,1526c <f_read+0x290>
   15228:	00a55603          	lhu	a2,10(a0)
   1522c:	0046a703          	lw	a4,4(a3)
   15230:	00468693          	addi	a3,a3,4
   15234:	02c7d7b3          	divu	a5,a5,a2
   15238:	f8070ce3          	beqz	a4,151d0 <f_read+0x1f4>
   1523c:	08e7e263          	bltu	a5,a4,152c0 <f_read+0x2e4>
   15240:	00868693          	addi	a3,a3,8
   15244:	40e787b3          	sub	a5,a5,a4
   15248:	0006a703          	lw	a4,0(a3)
   1524c:	fe0718e3          	bnez	a4,1523c <f_read+0x260>
   15250:	f81ff06f          	j	151d0 <f_read+0x1f4>
   15254:	00100793          	li	a5,1
   15258:	00f408a3          	sb	a5,17(s0)
   1525c:	00100c93          	li	s9,1
   15260:	de1ff06f          	j	15040 <f_read+0x64>
   15264:	00700c93          	li	s9,7
   15268:	dd9ff06f          	j	15040 <f_read+0x64>
   1526c:	01842583          	lw	a1,24(s0)
   15270:	ffdfc0ef          	jal	ra,1226c <_ZL7get_fatP7FFOBJIDm.isra.0>
   15274:	f39ff06f          	j	151ac <f_read+0x1d0>
   15278:	00100693          	li	a3,1
   1527c:	000b0593          	mv	a1,s6
   15280:	5f8000ef          	jal	ra,15878 <disk_write>
   15284:	fc0518e3          	bnez	a0,15254 <f_read+0x278>
   15288:	01044783          	lbu	a5,16(s0)
   1528c:	07f7f793          	andi	a5,a5,127
   15290:	00f40823          	sb	a5,16(s0)
   15294:	001d4503          	lbu	a0,1(s10)
   15298:	f61ff06f          	j	151f8 <f_read+0x21c>
   1529c:	01c42783          	lw	a5,28(s0)
   152a0:	409787b3          	sub	a5,a5,s1
   152a4:	eb67f6e3          	bgeu	a5,s6,15150 <f_read+0x174>
   152a8:	00979793          	slli	a5,a5,0x9
   152ac:	20000613          	li	a2,512
   152b0:	02c40593          	addi	a1,s0,44
   152b4:	00fb8533          	add	a0,s7,a5
   152b8:	7bd020ef          	jal	ra,18274 <memcpy>
   152bc:	e95ff06f          	j	15150 <f_read+0x174>
   152c0:	0046a703          	lw	a4,4(a3)
   152c4:	00e78533          	add	a0,a5,a4
   152c8:	ee5ff06f          	j	151ac <f_read+0x1d0>

000152cc <f_close>:
   152cc:	04050a63          	beqz	a0,15320 <f_close+0x54>
   152d0:	00052783          	lw	a5,0(a0)
   152d4:	ff010113          	addi	sp,sp,-16
   152d8:	00812423          	sw	s0,8(sp)
   152dc:	00112623          	sw	ra,12(sp)
   152e0:	00912223          	sw	s1,4(sp)
   152e4:	01212023          	sw	s2,0(sp)
   152e8:	00050413          	mv	s0,a0
   152ec:	00078c63          	beqz	a5,15304 <f_close+0x38>
   152f0:	0007c703          	lbu	a4,0(a5)
   152f4:	00070863          	beqz	a4,15304 <f_close+0x38>
   152f8:	00455683          	lhu	a3,4(a0)
   152fc:	0067d703          	lhu	a4,6(a5)
   15300:	02e68463          	beq	a3,a4,15328 <f_close+0x5c>
   15304:	00900513          	li	a0,9
   15308:	00c12083          	lw	ra,12(sp)
   1530c:	00812403          	lw	s0,8(sp)
   15310:	00412483          	lw	s1,4(sp)
   15314:	00012903          	lw	s2,0(sp)
   15318:	01010113          	addi	sp,sp,16
   1531c:	00008067          	ret
   15320:	00900513          	li	a0,9
   15324:	00008067          	ret
   15328:	0017c503          	lbu	a0,1(a5)
   1532c:	4d0000ef          	jal	ra,157fc <disk_status>
   15330:	00157513          	andi	a0,a0,1
   15334:	fc0518e3          	bnez	a0,15304 <f_close+0x38>
   15338:	01044783          	lbu	a5,16(s0)
   1533c:	00042483          	lw	s1,0(s0)
   15340:	0407f713          	andi	a4,a5,64
   15344:	14070263          	beqz	a4,15488 <f_close+0x1bc>
   15348:	01879793          	slli	a5,a5,0x18
   1534c:	4187d793          	srai	a5,a5,0x18
   15350:	1607ce63          	bltz	a5,154cc <f_close+0x200>
   15354:	02042583          	lw	a1,32(s0)
   15358:	00048513          	mv	a0,s1
   1535c:	c41fc0ef          	jal	ra,11f9c <_ZL11move_windowP5FATFSm>
   15360:	fa0514e3          	bnez	a0,15308 <f_close+0x3c>
   15364:	02442783          	lw	a5,36(s0)
   15368:	00300613          	li	a2,3
   1536c:	00b7c703          	lbu	a4,11(a5)
   15370:	02076713          	ori	a4,a4,32
   15374:	00e785a3          	sb	a4,11(a5)
   15378:	00842703          	lw	a4,8(s0)
   1537c:	00042583          	lw	a1,0(s0)
   15380:	01071693          	slli	a3,a4,0x10
   15384:	0106d693          	srli	a3,a3,0x10
   15388:	0086d693          	srli	a3,a3,0x8
   1538c:	00e78d23          	sb	a4,26(a5)
   15390:	00d78da3          	sb	a3,27(a5)
   15394:	0005c683          	lbu	a3,0(a1)
   15398:	00c69a63          	bne	a3,a2,153ac <f_close+0xe0>
   1539c:	01075713          	srli	a4,a4,0x10
   153a0:	00875693          	srli	a3,a4,0x8
   153a4:	00e78a23          	sb	a4,20(a5)
   153a8:	00d78aa3          	sb	a3,21(a5)
   153ac:	00c42703          	lw	a4,12(s0)
   153b0:	00078b23          	sb	zero,22(a5)
   153b4:	00078ba3          	sb	zero,23(a5)
   153b8:	00e78e23          	sb	a4,28(a5)
   153bc:	00875593          	srli	a1,a4,0x8
   153c0:	01075613          	srli	a2,a4,0x10
   153c4:	01875693          	srli	a3,a4,0x18
   153c8:	02100713          	li	a4,33
   153cc:	00e78c23          	sb	a4,24(a5)
   153d0:	05200713          	li	a4,82
   153d4:	00b78ea3          	sb	a1,29(a5)
   153d8:	00d78fa3          	sb	a3,31(a5)
   153dc:	00c78f23          	sb	a2,30(a5)
   153e0:	00e78ca3          	sb	a4,25(a5)
   153e4:	00078923          	sb	zero,18(a5)
   153e8:	000789a3          	sb	zero,19(a5)
   153ec:	0344a603          	lw	a2,52(s1)
   153f0:	0014c503          	lbu	a0,1(s1)
   153f4:	03848913          	addi	s2,s1,56
   153f8:	00100793          	li	a5,1
   153fc:	00f481a3          	sb	a5,3(s1)
   15400:	00100693          	li	a3,1
   15404:	00090593          	mv	a1,s2
   15408:	470000ef          	jal	ra,15878 <disk_write>
   1540c:	0e051463          	bnez	a0,154f4 <f_close+0x228>
   15410:	0344a603          	lw	a2,52(s1)
   15414:	0284a783          	lw	a5,40(s1)
   15418:	0204a703          	lw	a4,32(s1)
   1541c:	000481a3          	sb	zero,3(s1)
   15420:	40f607b3          	sub	a5,a2,a5
   15424:	02e7f263          	bgeu	a5,a4,15448 <f_close+0x17c>
   15428:	0024c683          	lbu	a3,2(s1)
   1542c:	00200793          	li	a5,2
   15430:	00f69c63          	bne	a3,a5,15448 <f_close+0x17c>
   15434:	0014c503          	lbu	a0,1(s1)
   15438:	00100693          	li	a3,1
   1543c:	00e60633          	add	a2,a2,a4
   15440:	00090593          	mv	a1,s2
   15444:	434000ef          	jal	ra,15878 <disk_write>
   15448:	0004c703          	lbu	a4,0(s1)
   1544c:	00300793          	li	a5,3
   15450:	0af70c63          	beq	a4,a5,15508 <f_close+0x23c>
   15454:	0014c503          	lbu	a0,1(s1)
   15458:	00000613          	li	a2,0
   1545c:	00000593          	li	a1,0
   15460:	458000ef          	jal	ra,158b8 <disk_ioctl>
   15464:	01044783          	lbu	a5,16(s0)
   15468:	00050a63          	beqz	a0,1547c <f_close+0x1b0>
   1546c:	fbf7f793          	andi	a5,a5,-65
   15470:	00f40823          	sb	a5,16(s0)
   15474:	00100513          	li	a0,1
   15478:	e91ff06f          	j	15308 <f_close+0x3c>
   1547c:	00042483          	lw	s1,0(s0)
   15480:	fbf7f793          	andi	a5,a5,-65
   15484:	00f40823          	sb	a5,16(s0)
   15488:	e6048ee3          	beqz	s1,15304 <f_close+0x38>
   1548c:	0004c783          	lbu	a5,0(s1)
   15490:	e6078ae3          	beqz	a5,15304 <f_close+0x38>
   15494:	00445703          	lhu	a4,4(s0)
   15498:	0064d783          	lhu	a5,6(s1)
   1549c:	e6f714e3          	bne	a4,a5,15304 <f_close+0x38>
   154a0:	0014c503          	lbu	a0,1(s1)
   154a4:	358000ef          	jal	ra,157fc <disk_status>
   154a8:	00157513          	andi	a0,a0,1
   154ac:	e4051ce3          	bnez	a0,15304 <f_close+0x38>
   154b0:	00c12083          	lw	ra,12(sp)
   154b4:	00042023          	sw	zero,0(s0)
   154b8:	00812403          	lw	s0,8(sp)
   154bc:	00412483          	lw	s1,4(sp)
   154c0:	00012903          	lw	s2,0(sp)
   154c4:	01010113          	addi	sp,sp,16
   154c8:	00008067          	ret
   154cc:	01c42603          	lw	a2,28(s0)
   154d0:	0014c503          	lbu	a0,1(s1)
   154d4:	00100693          	li	a3,1
   154d8:	02c40593          	addi	a1,s0,44
   154dc:	39c000ef          	jal	ra,15878 <disk_write>
   154e0:	f8051ae3          	bnez	a0,15474 <f_close+0x1a8>
   154e4:	01044783          	lbu	a5,16(s0)
   154e8:	07f7f793          	andi	a5,a5,127
   154ec:	00f40823          	sb	a5,16(s0)
   154f0:	e65ff06f          	j	15354 <f_close+0x88>
   154f4:	01044783          	lbu	a5,16(s0)
   154f8:	00100513          	li	a0,1
   154fc:	fbf7f793          	andi	a5,a5,-65
   15500:	00f40823          	sb	a5,16(s0)
   15504:	e05ff06f          	j	15308 <f_close+0x3c>
   15508:	0044c703          	lbu	a4,4(s1)
   1550c:	00100793          	li	a5,1
   15510:	f4f712e3          	bne	a4,a5,15454 <f_close+0x188>
   15514:	20000613          	li	a2,512
   15518:	00000593          	li	a1,0
   1551c:	00090513          	mv	a0,s2
   15520:	6f9020ef          	jal	ra,18418 <memset>
   15524:	0104a683          	lw	a3,16(s1)
   15528:	0144a603          	lw	a2,20(s1)
   1552c:	ff0108b7          	lui	a7,0xff010
   15530:	0086d593          	srli	a1,a3,0x8
   15534:	00865513          	srli	a0,a2,0x8
   15538:	0ff5f593          	zext.b	a1,a1
   1553c:	00859593          	slli	a1,a1,0x8
   15540:	0ff6f793          	zext.b	a5,a3
   15544:	0ff57513          	zext.b	a0,a0
   15548:	fff88893          	addi	a7,a7,-1 # ff00ffff <__BSS_END__+0xfef746ab>
   1554c:	00851513          	slli	a0,a0,0x8
   15550:	0ff67713          	zext.b	a4,a2
   15554:	00b7e7b3          	or	a5,a5,a1
   15558:	00ff05b7          	lui	a1,0xff0
   1555c:	00b6f5b3          	and	a1,a3,a1
   15560:	00a76733          	or	a4,a4,a0
   15564:	0117f7b3          	and	a5,a5,a7
   15568:	01000537          	lui	a0,0x1000
   1556c:	fff50513          	addi	a0,a0,-1 # ffffff <__BSS_END__+0xf646ab>
   15570:	00b7e7b3          	or	a5,a5,a1
   15574:	0186d693          	srli	a3,a3,0x18
   15578:	01869693          	slli	a3,a3,0x18
   1557c:	00a7f7b3          	and	a5,a5,a0
   15580:	00d7e7b3          	or	a5,a5,a3
   15584:	ffffb6b7          	lui	a3,0xffffb
   15588:	a5568693          	addi	a3,a3,-1451 # ffffaa55 <__BSS_END__+0xfff5f101>
   1558c:	00ff0337          	lui	t1,0xff0
   15590:	00667333          	and	t1,a2,t1
   15594:	0244a803          	lw	a6,36(s1)
   15598:	01177733          	and	a4,a4,a7
   1559c:	22d49b23          	sh	a3,566(s1)
   155a0:	416156b7          	lui	a3,0x41615
   155a4:	00676733          	or	a4,a4,t1
   155a8:	01865613          	srli	a2,a2,0x18
   155ac:	25268693          	addi	a3,a3,594 # 41615252 <__BSS_END__+0x415798fe>
   155b0:	01861593          	slli	a1,a2,0x18
   155b4:	00a77733          	and	a4,a4,a0
   155b8:	02d4ac23          	sw	a3,56(s1)
   155bc:	0014c503          	lbu	a0,1(s1)
   155c0:	614176b7          	lui	a3,0x61417
   155c4:	00b76733          	or	a4,a4,a1
   155c8:	00180613          	addi	a2,a6,1
   155cc:	27268693          	addi	a3,a3,626 # 61417272 <__BSS_END__+0x6137b91e>
   155d0:	20d4ae23          	sw	a3,540(s1)
   155d4:	22e4a023          	sw	a4,544(s1)
   155d8:	22f4a223          	sw	a5,548(s1)
   155dc:	02c4aa23          	sw	a2,52(s1)
   155e0:	00100693          	li	a3,1
   155e4:	00090593          	mv	a1,s2
   155e8:	290000ef          	jal	ra,15878 <disk_write>
   155ec:	00048223          	sb	zero,4(s1)
   155f0:	e65ff06f          	j	15454 <f_close+0x188>

000155f4 <ff_uni2oem>:
   155f4:	07f00713          	li	a4,127
   155f8:	00050793          	mv	a5,a0
   155fc:	00a76863          	bltu	a4,a0,1560c <ff_uni2oem+0x18>
   15600:	01051513          	slli	a0,a0,0x10
   15604:	01055513          	srli	a0,a0,0x10
   15608:	00008067          	ret
   1560c:	00010737          	lui	a4,0x10
   15610:	00000513          	li	a0,0
   15614:	00e7f663          	bgeu	a5,a4,15620 <ff_uni2oem+0x2c>
   15618:	1b500713          	li	a4,437
   1561c:	00e58463          	beq	a1,a4,15624 <ff_uni2oem+0x30>
   15620:	00008067          	ret
   15624:	00004697          	auipc	a3,0x4
   15628:	fb068693          	addi	a3,a3,-80 # 195d4 <_ZL5uc437>
   1562c:	00000713          	li	a4,0
   15630:	08000513          	li	a0,128
   15634:	0100006f          	j	15644 <ff_uni2oem+0x50>
   15638:	01059713          	slli	a4,a1,0x10
   1563c:	01075713          	srli	a4,a4,0x10
   15640:	02a70263          	beq	a4,a0,15664 <ff_uni2oem+0x70>
   15644:	0006d603          	lhu	a2,0(a3)
   15648:	00170593          	addi	a1,a4,1 # 10001 <exit-0x93>
   1564c:	00268693          	addi	a3,a3,2
   15650:	fef614e3          	bne	a2,a5,15638 <ff_uni2oem+0x44>
   15654:	08070713          	addi	a4,a4,128
   15658:	01071513          	slli	a0,a4,0x10
   1565c:	01055513          	srli	a0,a0,0x10
   15660:	00008067          	ret
   15664:	00000513          	li	a0,0
   15668:	00008067          	ret

0001566c <ff_oem2uni>:
   1566c:	07f00793          	li	a5,127
   15670:	00a7f863          	bgeu	a5,a0,15680 <ff_oem2uni+0x14>
   15674:	1b500793          	li	a5,437
   15678:	00f58663          	beq	a1,a5,15684 <ff_oem2uni+0x18>
   1567c:	00000513          	li	a0,0
   15680:	00008067          	ret
   15684:	0ff00793          	li	a5,255
   15688:	fea7eae3          	bltu	a5,a0,1567c <ff_oem2uni+0x10>
   1568c:	00004797          	auipc	a5,0x4
   15690:	e4878793          	addi	a5,a5,-440 # 194d4 <_ZZ11ff_wtoupperE4cvt1+0xf4>
   15694:	00151513          	slli	a0,a0,0x1
   15698:	00f50533          	add	a0,a0,a5
   1569c:	00055503          	lhu	a0,0(a0)
   156a0:	00008067          	ret

000156a4 <ff_wtoupper>:
   156a4:	000107b7          	lui	a5,0x10
   156a8:	04f57c63          	bgeu	a0,a5,15700 <ff_wtoupper+0x5c>
   156ac:	01051813          	slli	a6,a0,0x10
   156b0:	000017b7          	lui	a5,0x1
   156b4:	01085813          	srli	a6,a6,0x10
   156b8:	00004717          	auipc	a4,0x4
   156bc:	d2870713          	addi	a4,a4,-728 # 193e0 <_ZZ11ff_wtoupperE4cvt1>
   156c0:	02f56a63          	bltu	a0,a5,156f4 <ff_wtoupper+0x50>
   156c4:	00004717          	auipc	a4,0x4
   156c8:	c6070713          	addi	a4,a4,-928 # 19324 <_ZZ11ff_wtoupperE4cvt2>
   156cc:	00075683          	lhu	a3,0(a4)
   156d0:	02068663          	beqz	a3,156fc <ff_wtoupper+0x58>
   156d4:	02d86463          	bltu	a6,a3,156fc <ff_wtoupper+0x58>
   156d8:	00275783          	lhu	a5,2(a4)
   156dc:	00470713          	addi	a4,a4,4
   156e0:	0ff7f613          	zext.b	a2,a5
   156e4:	00d605b3          	add	a1,a2,a3
   156e8:	0087d793          	srli	a5,a5,0x8
   156ec:	00b54c63          	blt	a0,a1,15704 <ff_wtoupper+0x60>
   156f0:	02078c63          	beqz	a5,15728 <ff_wtoupper+0x84>
   156f4:	00075683          	lhu	a3,0(a4)
   156f8:	fc069ee3          	bnez	a3,156d4 <ff_wtoupper+0x30>
   156fc:	00080513          	mv	a0,a6
   15700:	00008067          	ret
   15704:	00800613          	li	a2,8
   15708:	fef66ae3          	bltu	a2,a5,156fc <ff_wtoupper+0x58>
   1570c:	00004617          	auipc	a2,0x4
   15710:	bf460613          	addi	a2,a2,-1036 # 19300 <_ZL9VolumeStr+0xc>
   15714:	00279793          	slli	a5,a5,0x2
   15718:	00c787b3          	add	a5,a5,a2
   1571c:	0007a783          	lw	a5,0(a5) # 1000 <exit-0xf094>
   15720:	00c787b3          	add	a5,a5,a2
   15724:	00078067          	jr	a5
   15728:	00161613          	slli	a2,a2,0x1
   1572c:	00c70733          	add	a4,a4,a2
   15730:	fc5ff06f          	j	156f4 <ff_wtoupper+0x50>
   15734:	fb080813          	addi	a6,a6,-80
   15738:	01081813          	slli	a6,a6,0x10
   1573c:	01085813          	srli	a6,a6,0x10
   15740:	00080513          	mv	a0,a6
   15744:	fbdff06f          	j	15700 <ff_wtoupper+0x5c>
   15748:	00880813          	addi	a6,a6,8
   1574c:	01081813          	slli	a6,a6,0x10
   15750:	01085813          	srli	a6,a6,0x10
   15754:	00080513          	mv	a0,a6
   15758:	fa9ff06f          	j	15700 <ff_wtoupper+0x5c>
   1575c:	fe680813          	addi	a6,a6,-26
   15760:	01081813          	slli	a6,a6,0x10
   15764:	01085813          	srli	a6,a6,0x10
   15768:	00080513          	mv	a0,a6
   1576c:	f95ff06f          	j	15700 <ff_wtoupper+0x5c>
   15770:	fd080813          	addi	a6,a6,-48
   15774:	01081813          	slli	a6,a6,0x10
   15778:	01085813          	srli	a6,a6,0x10
   1577c:	00080513          	mv	a0,a6
   15780:	f81ff06f          	j	15700 <ff_wtoupper+0x5c>
   15784:	fe080813          	addi	a6,a6,-32
   15788:	01081813          	slli	a6,a6,0x10
   1578c:	01085813          	srli	a6,a6,0x10
   15790:	00080513          	mv	a0,a6
   15794:	f6dff06f          	j	15700 <ff_wtoupper+0x5c>
   15798:	ff080813          	addi	a6,a6,-16
   1579c:	01081813          	slli	a6,a6,0x10
   157a0:	01085813          	srli	a6,a6,0x10
   157a4:	00080513          	mv	a0,a6
   157a8:	f59ff06f          	j	15700 <ff_wtoupper+0x5c>
   157ac:	40d807b3          	sub	a5,a6,a3
   157b0:	0017f793          	andi	a5,a5,1
   157b4:	40f80833          	sub	a6,a6,a5
   157b8:	01081813          	slli	a6,a6,0x10
   157bc:	01085813          	srli	a6,a6,0x10
   157c0:	00080513          	mv	a0,a6
   157c4:	f3dff06f          	j	15700 <ff_wtoupper+0x5c>
   157c8:	40d507b3          	sub	a5,a0,a3
   157cc:	00179793          	slli	a5,a5,0x1
   157d0:	00f70733          	add	a4,a4,a5
   157d4:	00075803          	lhu	a6,0(a4)
   157d8:	00080513          	mv	a0,a6
   157dc:	f25ff06f          	j	15700 <ff_wtoupper+0x5c>
   157e0:	ffffe7b7          	lui	a5,0xffffe
   157e4:	3a078793          	addi	a5,a5,928 # ffffe3a0 <__BSS_END__+0xfff62a4c>
   157e8:	00f80833          	add	a6,a6,a5
   157ec:	01081813          	slli	a6,a6,0x10
   157f0:	01085813          	srli	a6,a6,0x10
   157f4:	00080513          	mv	a0,a6
   157f8:	f09ff06f          	j	15700 <ff_wtoupper+0x5c>

000157fc <disk_status>:
   157fc:	fff50513          	addi	a0,a0,-1
   15800:	00a03533          	snez	a0,a0
   15804:	00008067          	ret

00015808 <disk_initialize>:
   15808:	00100793          	li	a5,1
   1580c:	00f50663          	beq	a0,a5,15818 <disk_initialize+0x10>
   15810:	00100513          	li	a0,1
   15814:	00008067          	ret
   15818:	ff010113          	addi	sp,sp,-16
   1581c:	00112623          	sw	ra,12(sp)
   15820:	d50fc0ef          	jal	ra,11d70 <_Z13SDCardStartupv>
   15824:	00c12083          	lw	ra,12(sp)
   15828:	00150513          	addi	a0,a0,1
   1582c:	00153513          	seqz	a0,a0
   15830:	01010113          	addi	sp,sp,16
   15834:	00008067          	ret

00015838 <disk_read>:
   15838:	00100713          	li	a4,1
   1583c:	00e50a63          	beq	a0,a4,15850 <disk_read+0x18>
   15840:	0fd57513          	andi	a0,a0,253
   15844:	00a03533          	snez	a0,a0
   15848:	00350513          	addi	a0,a0,3
   1584c:	00008067          	ret
   15850:	ff010113          	addi	sp,sp,-16
   15854:	00058513          	mv	a0,a1
   15858:	00068593          	mv	a1,a3
   1585c:	00112623          	sw	ra,12(sp)
   15860:	ef1fb0ef          	jal	ra,11750 <_Z20SDReadMultipleBlocksPhmm>
   15864:	00c12083          	lw	ra,12(sp)
   15868:	00150513          	addi	a0,a0,1
   1586c:	00153513          	seqz	a0,a0
   15870:	01010113          	addi	sp,sp,16
   15874:	00008067          	ret

00015878 <disk_write>:
   15878:	00100713          	li	a4,1
   1587c:	00e50a63          	beq	a0,a4,15890 <disk_write+0x18>
   15880:	0fd57513          	andi	a0,a0,253
   15884:	00a03533          	snez	a0,a0
   15888:	00350513          	addi	a0,a0,3
   1588c:	00008067          	ret
   15890:	ff010113          	addi	sp,sp,-16
   15894:	00058513          	mv	a0,a1
   15898:	00068593          	mv	a1,a3
   1589c:	00112623          	sw	ra,12(sp)
   158a0:	82cfc0ef          	jal	ra,118cc <_Z21SDWriteMultipleBlocksPKhmm>
   158a4:	00c12083          	lw	ra,12(sp)
   158a8:	00150513          	addi	a0,a0,1
   158ac:	00153513          	seqz	a0,a0
   158b0:	01010113          	addi	sp,sp,16
   158b4:	00008067          	ret

000158b8 <disk_ioctl>:
   158b8:	00353513          	sltiu	a0,a0,3
   158bc:	00154513          	xori	a0,a0,1
   158c0:	00251513          	slli	a0,a0,0x2
   158c4:	00008067          	ret

000158c8 <_ZL10njShowBitsi.part.0>:
   158c8:	00086817          	auipc	a6,0x86
   158cc:	d9c80813          	addi	a6,a6,-612 # 9b664 <__global_pointer$+0x7fcac>
   158d0:	1bc82e03          	lw	t3,444(a6)
   158d4:	1b882783          	lw	a5,440(a6)
   158d8:	00006697          	auipc	a3,0x6
   158dc:	d8c68693          	addi	a3,a3,-628 # 1b664 <_ZL2nj>
   158e0:	12ae5263          	bge	t3,a0,15a04 <_ZL10njShowBitsi.part.0+0x13c>
   158e4:	0086a303          	lw	t1,8(a3)
   158e8:	0ff00e93          	li	t4,255
   158ec:	0d900f93          	li	t6,217
   158f0:	0fd00f13          	li	t5,253
   158f4:	008e0713          	addi	a4,t3,8
   158f8:	00879793          	slli	a5,a5,0x8
   158fc:	04605263          	blez	t1,15940 <_ZL10njShowBitsi.part.0+0x78>
   15900:	0046a603          	lw	a2,4(a3)
   15904:	fff30593          	addi	a1,t1,-1 # feffff <__BSS_END__+0xf546ab>
   15908:	00160893          	addi	a7,a2,1
   1590c:	0116a223          	sw	a7,4(a3)
   15910:	00064883          	lbu	a7,0(a2)
   15914:	00b6a423          	sw	a1,8(a3)
   15918:	1ae82e23          	sw	a4,444(a6)
   1591c:	00f8e7b3          	or	a5,a7,a5
   15920:	1af82c23          	sw	a5,440(a6)
   15924:	07d88063          	beq	a7,t4,15984 <_ZL10njShowBitsi.part.0+0xbc>
   15928:	04a75063          	bge	a4,a0,15968 <_ZL10njShowBitsi.part.0+0xa0>
   1592c:	00070e13          	mv	t3,a4
   15930:	00058313          	mv	t1,a1
   15934:	008e0713          	addi	a4,t3,8
   15938:	00879793          	slli	a5,a5,0x8
   1593c:	fc6042e3          	bgtz	t1,15900 <_ZL10njShowBitsi.part.0+0x38>
   15940:	0ff7e793          	ori	a5,a5,255
   15944:	1af82c23          	sw	a5,440(a6)
   15948:	1ae82e23          	sw	a4,444(a6)
   1594c:	00a75e63          	bge	a4,a0,15968 <_ZL10njShowBitsi.part.0+0xa0>
   15950:	00879793          	slli	a5,a5,0x8
   15954:	00870713          	addi	a4,a4,8
   15958:	0ff7e793          	ori	a5,a5,255
   1595c:	fea74ae3          	blt	a4,a0,15950 <_ZL10njShowBitsi.part.0+0x88>
   15960:	1af82c23          	sw	a5,440(a6)
   15964:	1ae82e23          	sw	a4,444(a6)
   15968:	00100693          	li	a3,1
   1596c:	40a70733          	sub	a4,a4,a0
   15970:	00a696b3          	sll	a3,a3,a0
   15974:	40e7d7b3          	sra	a5,a5,a4
   15978:	fff68713          	addi	a4,a3,-1
   1597c:	00e7f533          	and	a0,a5,a4
   15980:	00008067          	ret
   15984:	04058063          	beqz	a1,159c4 <_ZL10njShowBitsi.part.0+0xfc>
   15988:	00260593          	addi	a1,a2,2
   1598c:	00b6a223          	sw	a1,4(a3)
   15990:	00164883          	lbu	a7,1(a2)
   15994:	ffe30593          	addi	a1,t1,-2
   15998:	00b6a423          	sw	a1,8(a3)
   1599c:	05f88063          	beq	a7,t6,159dc <_ZL10njShowBitsi.part.0+0x114>
   159a0:	fff88613          	addi	a2,a7,-1
   159a4:	0ff67613          	zext.b	a2,a2
   159a8:	f8cf60e3          	bltu	t5,a2,15928 <_ZL10njShowBitsi.part.0+0x60>
   159ac:	0f88f613          	andi	a2,a7,248
   159b0:	0d000313          	li	t1,208
   159b4:	02660c63          	beq	a2,t1,159ec <_ZL10njShowBitsi.part.0+0x124>
   159b8:	00500613          	li	a2,5
   159bc:	00c6a023          	sw	a2,0(a3)
   159c0:	f69ff06f          	j	15928 <_ZL10njShowBitsi.part.0+0x60>
   159c4:	00500613          	li	a2,5
   159c8:	00c6a023          	sw	a2,0(a3)
   159cc:	f8a75ee3          	bge	a4,a0,15968 <_ZL10njShowBitsi.part.0+0xa0>
   159d0:	010e0713          	addi	a4,t3,16
   159d4:	00879793          	slli	a5,a5,0x8
   159d8:	f69ff06f          	j	15940 <_ZL10njShowBitsi.part.0+0x78>
   159dc:	00006617          	auipc	a2,0x6
   159e0:	c8062823          	sw	zero,-880(a2) # 1b66c <_ZL2nj+0x8>
   159e4:	00000593          	li	a1,0
   159e8:	f41ff06f          	j	15928 <_ZL10njShowBitsi.part.0+0x60>
   159ec:	00879793          	slli	a5,a5,0x8
   159f0:	0117e7b3          	or	a5,a5,a7
   159f4:	010e0713          	addi	a4,t3,16
   159f8:	1af82c23          	sw	a5,440(a6)
   159fc:	1ae82e23          	sw	a4,444(a6)
   15a00:	f29ff06f          	j	15928 <_ZL10njShowBitsi.part.0+0x60>
   15a04:	000e0713          	mv	a4,t3
   15a08:	00100693          	li	a3,1
   15a0c:	40a70733          	sub	a4,a4,a0
   15a10:	00a696b3          	sll	a3,a3,a0
   15a14:	40e7d7b3          	sra	a5,a5,a4
   15a18:	fff68713          	addi	a4,a3,-1
   15a1c:	00e7f533          	and	a0,a5,a4
   15a20:	00008067          	ret

00015a24 <_ZL8njGetVLCP8_nj_codePh>:
   15a24:	fe010113          	addi	sp,sp,-32
   15a28:	00812c23          	sw	s0,24(sp)
   15a2c:	00050413          	mv	s0,a0
   15a30:	01000513          	li	a0,16
   15a34:	00912a23          	sw	s1,20(sp)
   15a38:	01212823          	sw	s2,16(sp)
   15a3c:	00112e23          	sw	ra,28(sp)
   15a40:	01312623          	sw	s3,12(sp)
   15a44:	00058493          	mv	s1,a1
   15a48:	e81ff0ef          	jal	ra,158c8 <_ZL10njShowBitsi.part.0>
   15a4c:	00151513          	slli	a0,a0,0x1
   15a50:	00a40433          	add	s0,s0,a0
   15a54:	00044903          	lbu	s2,0(s0)
   15a58:	02091a63          	bnez	s2,15a8c <_ZL8njGetVLCP8_nj_codePh+0x68>
   15a5c:	00500793          	li	a5,5
   15a60:	00006717          	auipc	a4,0x6
   15a64:	c0f72223          	sw	a5,-1020(a4) # 1b664 <_ZL2nj>
   15a68:	00000493          	li	s1,0
   15a6c:	01c12083          	lw	ra,28(sp)
   15a70:	01812403          	lw	s0,24(sp)
   15a74:	01012903          	lw	s2,16(sp)
   15a78:	00c12983          	lw	s3,12(sp)
   15a7c:	00048513          	mv	a0,s1
   15a80:	01412483          	lw	s1,20(sp)
   15a84:	02010113          	addi	sp,sp,32
   15a88:	00008067          	ret
   15a8c:	00086997          	auipc	s3,0x86
   15a90:	bd898993          	addi	s3,s3,-1064 # 9b664 <__global_pointer$+0x7fcac>
   15a94:	1bc9a783          	lw	a5,444(s3)
   15a98:	0127d863          	bge	a5,s2,15aa8 <_ZL8njGetVLCP8_nj_codePh+0x84>
   15a9c:	00090513          	mv	a0,s2
   15aa0:	e29ff0ef          	jal	ra,158c8 <_ZL10njShowBitsi.part.0>
   15aa4:	1bc9a783          	lw	a5,444(s3)
   15aa8:	412787b3          	sub	a5,a5,s2
   15aac:	1af9ae23          	sw	a5,444(s3)
   15ab0:	00144403          	lbu	s0,1(s0)
   15ab4:	00048463          	beqz	s1,15abc <_ZL8njGetVLCP8_nj_codePh+0x98>
   15ab8:	00848023          	sb	s0,0(s1)
   15abc:	00f47413          	andi	s0,s0,15
   15ac0:	fa0404e3          	beqz	s0,15a68 <_ZL8njGetVLCP8_nj_codePh+0x44>
   15ac4:	00040513          	mv	a0,s0
   15ac8:	e01ff0ef          	jal	ra,158c8 <_ZL10njShowBitsi.part.0>
   15acc:	1bc9a783          	lw	a5,444(s3)
   15ad0:	00050493          	mv	s1,a0
   15ad4:	0087d863          	bge	a5,s0,15ae4 <_ZL8njGetVLCP8_nj_codePh+0xc0>
   15ad8:	00040513          	mv	a0,s0
   15adc:	dedff0ef          	jal	ra,158c8 <_ZL10njShowBitsi.part.0>
   15ae0:	1bc9a783          	lw	a5,444(s3)
   15ae4:	408787b3          	sub	a5,a5,s0
   15ae8:	fff40713          	addi	a4,s0,-1
   15aec:	1af9ae23          	sw	a5,444(s3)
   15af0:	00100793          	li	a5,1
   15af4:	00e797b3          	sll	a5,a5,a4
   15af8:	f6f4dae3          	bge	s1,a5,15a6c <_ZL8njGetVLCP8_nj_codePh+0x48>
   15afc:	fff00793          	li	a5,-1
   15b00:	01c12083          	lw	ra,28(sp)
   15b04:	008797b3          	sll	a5,a5,s0
   15b08:	01812403          	lw	s0,24(sp)
   15b0c:	00178793          	addi	a5,a5,1
   15b10:	00f484b3          	add	s1,s1,a5
   15b14:	01012903          	lw	s2,16(sp)
   15b18:	00c12983          	lw	s3,12(sp)
   15b1c:	00048513          	mv	a0,s1
   15b20:	01412483          	lw	s1,20(sp)
   15b24:	02010113          	addi	sp,sp,32
   15b28:	00008067          	ret

00015b2c <_Z6njInitv>:
   15b2c:	00080637          	lui	a2,0x80
   15b30:	2c860613          	addi	a2,a2,712 # 802c8 <__global_pointer$+0x64910>
   15b34:	00000593          	li	a1,0
   15b38:	00006517          	auipc	a0,0x6
   15b3c:	b2c50513          	addi	a0,a0,-1236 # 1b664 <_ZL2nj>
   15b40:	0d90206f          	j	18418 <memset>

00015b44 <_Z6njDonev>:
   15b44:	ff010113          	addi	sp,sp,-16
   15b48:	00812423          	sw	s0,8(sp)
   15b4c:	00912223          	sw	s1,4(sp)
   15b50:	00112623          	sw	ra,12(sp)
   15b54:	00006417          	auipc	s0,0x6
   15b58:	b1040413          	addi	s0,s0,-1264 # 1b664 <_ZL2nj>
   15b5c:	00006497          	auipc	s1,0x6
   15b60:	b8c48493          	addi	s1,s1,-1140 # 1b6e8 <_ZL2nj+0x84>
   15b64:	05442503          	lw	a0,84(s0)
   15b68:	02c40413          	addi	s0,s0,44
   15b6c:	00050463          	beqz	a0,15b74 <_Z6njDonev+0x30>
   15b70:	6f9010ef          	jal	ra,17a68 <free>
   15b74:	fe9418e3          	bne	s0,s1,15b64 <_Z6njDonev+0x20>
   15b78:	00086517          	auipc	a0,0x86
   15b7c:	db052503          	lw	a0,-592(a0) # 9b928 <__global_pointer$+0x7ff70>
   15b80:	00050463          	beqz	a0,15b88 <_Z6njDonev+0x44>
   15b84:	6e5010ef          	jal	ra,17a68 <free>
   15b88:	00812403          	lw	s0,8(sp)
   15b8c:	00c12083          	lw	ra,12(sp)
   15b90:	00412483          	lw	s1,4(sp)
   15b94:	00080637          	lui	a2,0x80
   15b98:	2c860613          	addi	a2,a2,712 # 802c8 <__global_pointer$+0x64910>
   15b9c:	00000593          	li	a1,0
   15ba0:	00006517          	auipc	a0,0x6
   15ba4:	ac450513          	addi	a0,a0,-1340 # 1b664 <_ZL2nj>
   15ba8:	01010113          	addi	sp,sp,16
   15bac:	06d0206f          	j	18418 <memset>

00015bb0 <_Z8njDecodePKvi>:
   15bb0:	f8010113          	addi	sp,sp,-128
   15bb4:	05712e23          	sw	s7,92(sp)
   15bb8:	00006b97          	auipc	s7,0x6
   15bbc:	aacb8b93          	addi	s7,s7,-1364 # 1b664 <_ZL2nj>
   15bc0:	06812c23          	sw	s0,120(sp)
   15bc4:	06912a23          	sw	s1,116(sp)
   15bc8:	07212823          	sw	s2,112(sp)
   15bcc:	07312623          	sw	s3,108(sp)
   15bd0:	06112e23          	sw	ra,124(sp)
   15bd4:	07412423          	sw	s4,104(sp)
   15bd8:	07512223          	sw	s5,100(sp)
   15bdc:	07612023          	sw	s6,96(sp)
   15be0:	05812c23          	sw	s8,88(sp)
   15be4:	05912a23          	sw	s9,84(sp)
   15be8:	05a12823          	sw	s10,80(sp)
   15bec:	05b12623          	sw	s11,76(sp)
   15bf0:	00050913          	mv	s2,a0
   15bf4:	00058493          	mv	s1,a1
   15bf8:	00006997          	auipc	s3,0x6
   15bfc:	af098993          	addi	s3,s3,-1296 # 1b6e8 <_ZL2nj+0x84>
   15c00:	000b8413          	mv	s0,s7
   15c04:	05442503          	lw	a0,84(s0)
   15c08:	00050463          	beqz	a0,15c10 <_Z8njDecodePKvi+0x60>
   15c0c:	65d010ef          	jal	ra,17a68 <free>
   15c10:	02c40413          	addi	s0,s0,44
   15c14:	ff3418e3          	bne	s0,s3,15c04 <_Z8njDecodePKvi+0x54>
   15c18:	00086797          	auipc	a5,0x86
   15c1c:	a4c78793          	addi	a5,a5,-1460 # 9b664 <__global_pointer$+0x7fcac>
   15c20:	2c47a503          	lw	a0,708(a5)
   15c24:	00050463          	beqz	a0,15c2c <_Z8njDecodePKvi+0x7c>
   15c28:	641010ef          	jal	ra,17a68 <free>
   15c2c:	00080637          	lui	a2,0x80
   15c30:	2c860613          	addi	a2,a2,712 # 802c8 <__global_pointer$+0x64910>
   15c34:	00000593          	li	a1,0
   15c38:	00006517          	auipc	a0,0x6
   15c3c:	a2c50513          	addi	a0,a0,-1492 # 1b664 <_ZL2nj>
   15c40:	7d8020ef          	jal	ra,18418 <memset>
   15c44:	800007b7          	lui	a5,0x80000
   15c48:	fff7c713          	not	a4,a5
   15c4c:	00e4f733          	and	a4,s1,a4
   15c50:	ffe7c793          	xori	a5,a5,-2
   15c54:	012ba223          	sw	s2,4(s7)
   15c58:	00eba423          	sw	a4,8(s7)
   15c5c:	00f4f4b3          	and	s1,s1,a5
   15c60:	00100513          	li	a0,1
   15c64:	16048c63          	beqz	s1,15ddc <_Z8njDecodePKvi+0x22c>
   15c68:	00094783          	lbu	a5,0(s2)
   15c6c:	00194683          	lbu	a3,1(s2)
   15c70:	fff7c793          	not	a5,a5
   15c74:	fd86c693          	xori	a3,a3,-40
   15c78:	00d7e7b3          	or	a5,a5,a3
   15c7c:	0ff7f793          	zext.b	a5,a5
   15c80:	14079e63          	bnez	a5,15ddc <_Z8njDecodePKvi+0x22c>
   15c84:	00290913          	addi	s2,s2,2
   15c88:	ffe70893          	addi	a7,a4,-2
   15c8c:	ffe00793          	li	a5,-2
   15c90:	012ba223          	sw	s2,4(s7)
   15c94:	011ba423          	sw	a7,8(s7)
   15c98:	00fba623          	sw	a5,12(s7)
   15c9c:	1208ca63          	bltz	a7,15dd0 <_Z8njDecodePKvi+0x220>
   15ca0:	ffff07b7          	lui	a5,0xffff0
   15ca4:	ff0104b7          	lui	s1,0xff010
   15ca8:	0ff78c93          	addi	s9,a5,255 # ffff00ff <__BSS_END__+0xfff547ab>
   15cac:	fff48493          	addi	s1,s1,-1 # ff00ffff <__BSS_END__+0xfef746ab>
   15cb0:	00100693          	li	a3,1
   15cb4:	1316d263          	bge	a3,a7,15dd8 <_Z8njDecodePKvi+0x228>
   15cb8:	004ba783          	lw	a5,4(s7)
   15cbc:	0ff00713          	li	a4,255
   15cc0:	0007c403          	lbu	s0,0(a5)
   15cc4:	10e41a63          	bne	s0,a4,15dd8 <_Z8njDecodePKvi+0x228>
   15cc8:	00cba603          	lw	a2,12(s7)
   15ccc:	00278813          	addi	a6,a5,2
   15cd0:	ffe88713          	addi	a4,a7,-2
   15cd4:	ffe60613          	addi	a2,a2,-2
   15cd8:	010ba223          	sw	a6,4(s7)
   15cdc:	00eba423          	sw	a4,8(s7)
   15ce0:	00cba623          	sw	a2,12(s7)
   15ce4:	0017c583          	lbu	a1,1(a5)
   15ce8:	0dd00513          	li	a0,221
   15cec:	12b56663          	bltu	a0,a1,15e18 <_Z8njDecodePKvi+0x268>
   15cf0:	0bf00693          	li	a3,191
   15cf4:	30b6f663          	bgeu	a3,a1,16000 <_Z8njDecodePKvi+0x450>
   15cf8:	04058693          	addi	a3,a1,64 # ff0040 <__BSS_END__+0xf546ec>
   15cfc:	0ff6f693          	zext.b	a3,a3
   15d00:	01d00513          	li	a0,29
   15d04:	00d57463          	bgeu	a0,a3,15d0c <_Z8njDecodePKvi+0x15c>
   15d08:	0d80106f          	j	16de0 <_Z8njDecodePKvi+0x1230>
   15d0c:	00004517          	auipc	a0,0x4
   15d10:	9c850513          	addi	a0,a0,-1592 # 196d4 <_ZL5uc437+0x100>
   15d14:	00269693          	slli	a3,a3,0x2
   15d18:	00a686b3          	add	a3,a3,a0
   15d1c:	0006a683          	lw	a3,0(a3)
   15d20:	00a686b3          	add	a3,a3,a0
   15d24:	00068067          	jr	a3
   15d28:	00100593          	li	a1,1
   15d2c:	0ae5d263          	bge	a1,a4,15dd0 <_Z8njDecodePKvi+0x220>
   15d30:	0037c603          	lbu	a2,3(a5)
   15d34:	0027c683          	lbu	a3,2(a5)
   15d38:	00861613          	slli	a2,a2,0x8
   15d3c:	00d66633          	or	a2,a2,a3
   15d40:	00861693          	slli	a3,a2,0x8
   15d44:	00865613          	srli	a2,a2,0x8
   15d48:	00c6e6b3          	or	a3,a3,a2
   15d4c:	01069693          	slli	a3,a3,0x10
   15d50:	0106d693          	srli	a3,a3,0x10
   15d54:	00dba623          	sw	a3,12(s7)
   15d58:	06d74c63          	blt	a4,a3,15dd0 <_Z8njDecodePKvi+0x220>
   15d5c:	000ba503          	lw	a0,0(s7)
   15d60:	00478613          	addi	a2,a5,4
   15d64:	ffc88893          	addi	a7,a7,-4
   15d68:	ffe68713          	addi	a4,a3,-2
   15d6c:	00cba223          	sw	a2,4(s7)
   15d70:	011ba423          	sw	a7,8(s7)
   15d74:	00eba623          	sw	a4,12(s7)
   15d78:	00050463          	beqz	a0,15d80 <_Z8njDecodePKvi+0x1d0>
   15d7c:	10c0106f          	j	16e88 <_Z8njDecodePKvi+0x12d8>
   15d80:	04e5d863          	bge	a1,a4,15dd0 <_Z8njDecodePKvi+0x220>
   15d84:	0057c683          	lbu	a3,5(a5)
   15d88:	0047c583          	lbu	a1,4(a5)
   15d8c:	00e60633          	add	a2,a2,a4
   15d90:	00869793          	slli	a5,a3,0x8
   15d94:	00b7e7b3          	or	a5,a5,a1
   15d98:	00879693          	slli	a3,a5,0x8
   15d9c:	0087d793          	srli	a5,a5,0x8
   15da0:	00f6e6b3          	or	a3,a3,a5
   15da4:	01069693          	slli	a3,a3,0x10
   15da8:	40e887b3          	sub	a5,a7,a4
   15dac:	0106d693          	srli	a3,a3,0x10
   15db0:	00086717          	auipc	a4,0x86
   15db4:	8b470713          	addi	a4,a4,-1868 # 9b664 <__global_pointer$+0x7fcac>
   15db8:	2cd72023          	sw	a3,704(a4)
   15dbc:	00cba223          	sw	a2,4(s7)
   15dc0:	00fba423          	sw	a5,8(s7)
   15dc4:	00006717          	auipc	a4,0x6
   15dc8:	8a072623          	sw	zero,-1876(a4) # 1b670 <_ZL2nj+0xc>
   15dcc:	0a07da63          	bgez	a5,15e80 <_Z8njDecodePKvi+0x2d0>
   15dd0:	00500793          	li	a5,5
   15dd4:	00fba023          	sw	a5,0(s7)
   15dd8:	00500513          	li	a0,5
   15ddc:	07c12083          	lw	ra,124(sp)
   15de0:	07812403          	lw	s0,120(sp)
   15de4:	07412483          	lw	s1,116(sp)
   15de8:	07012903          	lw	s2,112(sp)
   15dec:	06c12983          	lw	s3,108(sp)
   15df0:	06812a03          	lw	s4,104(sp)
   15df4:	06412a83          	lw	s5,100(sp)
   15df8:	06012b03          	lw	s6,96(sp)
   15dfc:	05c12b83          	lw	s7,92(sp)
   15e00:	05812c03          	lw	s8,88(sp)
   15e04:	05412c83          	lw	s9,84(sp)
   15e08:	05012d03          	lw	s10,80(sp)
   15e0c:	04c12d83          	lw	s11,76(sp)
   15e10:	08010113          	addi	sp,sp,128
   15e14:	00008067          	ret
   15e18:	0fe00513          	li	a0,254
   15e1c:	7ca592e3          	bne	a1,a0,16de0 <_Z8njDecodePKvi+0x1230>
   15e20:	78e6d663          	bge	a3,a4,165ac <_Z8njDecodePKvi+0x9fc>
   15e24:	0037c683          	lbu	a3,3(a5)
   15e28:	0027c603          	lbu	a2,2(a5)
   15e2c:	00869693          	slli	a3,a3,0x8
   15e30:	00c6e6b3          	or	a3,a3,a2
   15e34:	00869613          	slli	a2,a3,0x8
   15e38:	0086d693          	srli	a3,a3,0x8
   15e3c:	00d66633          	or	a2,a2,a3
   15e40:	01061613          	slli	a2,a2,0x10
   15e44:	01065613          	srli	a2,a2,0x10
   15e48:	76c74263          	blt	a4,a2,165ac <_Z8njDecodePKvi+0x9fc>
   15e4c:	00478813          	addi	a6,a5,4
   15e50:	ffc88713          	addi	a4,a7,-4
   15e54:	ffe60613          	addi	a2,a2,-2
   15e58:	00c807b3          	add	a5,a6,a2
   15e5c:	40c70633          	sub	a2,a4,a2
   15e60:	00fba223          	sw	a5,4(s7)
   15e64:	00cba423          	sw	a2,8(s7)
   15e68:	00006797          	auipc	a5,0x6
   15e6c:	8007a423          	sw	zero,-2040(a5) # 1b670 <_ZL2nj+0xc>
   15e70:	f60640e3          	bltz	a2,15dd0 <_Z8njDecodePKvi+0x220>
   15e74:	000ba503          	lw	a0,0(s7)
   15e78:	00050463          	beqz	a0,15e80 <_Z8njDecodePKvi+0x2d0>
   15e7c:	00c0106f          	j	16e88 <_Z8njDecodePKvi+0x12d8>
   15e80:	008ba883          	lw	a7,8(s7)
   15e84:	e2dff06f          	j	15cb0 <_Z8njDecodePKvi+0x100>
   15e88:	00100693          	li	a3,1
   15e8c:	f4e6d2e3          	bge	a3,a4,15dd0 <_Z8njDecodePKvi+0x220>
   15e90:	0037c603          	lbu	a2,3(a5)
   15e94:	0027c683          	lbu	a3,2(a5)
   15e98:	00861613          	slli	a2,a2,0x8
   15e9c:	00d66633          	or	a2,a2,a3
   15ea0:	00861693          	slli	a3,a2,0x8
   15ea4:	00865613          	srli	a2,a2,0x8
   15ea8:	00c6e6b3          	or	a3,a3,a2
   15eac:	01069693          	slli	a3,a3,0x10
   15eb0:	0106d693          	srli	a3,a3,0x10
   15eb4:	00dba623          	sw	a3,12(s7)
   15eb8:	f0d74ce3          	blt	a4,a3,15dd0 <_Z8njDecodePKvi+0x220>
   15ebc:	000ba503          	lw	a0,0(s7)
   15ec0:	00478793          	addi	a5,a5,4
   15ec4:	ffc88893          	addi	a7,a7,-4
   15ec8:	ffe68713          	addi	a4,a3,-2
   15ecc:	00fba223          	sw	a5,4(s7)
   15ed0:	011ba423          	sw	a7,8(s7)
   15ed4:	00eba623          	sw	a4,12(s7)
   15ed8:	7a0518e3          	bnez	a0,16e88 <_Z8njDecodePKvi+0x12d8>
   15edc:	04000813          	li	a6,64
   15ee0:	00300513          	li	a0,3
   15ee4:	00100893          	li	a7,1
   15ee8:	04100593          	li	a1,65
   15eec:	00500313          	li	t1,5
   15ef0:	08e85263          	bge	a6,a4,15f74 <_Z8njDecodePKvi+0x3c4>
   15ef4:	004ba683          	lw	a3,4(s7)
   15ef8:	0006c783          	lbu	a5,0(a3)
   15efc:	ecf56ae3          	bltu	a0,a5,15dd0 <_Z8njDecodePKvi+0x220>
   15f00:	0b4ba703          	lw	a4,180(s7)
   15f04:	00f89e33          	sll	t3,a7,a5
   15f08:	00679613          	slli	a2,a5,0x6
   15f0c:	01c767b3          	or	a5,a4,t3
   15f10:	0afbaa23          	sw	a5,180(s7)
   15f14:	0016c783          	lbu	a5,1(a3)
   15f18:	0b860613          	addi	a2,a2,184
   15f1c:	00cb8633          	add	a2,s7,a2
   15f20:	00f60023          	sb	a5,0(a2)
   15f24:	00200793          	li	a5,2
   15f28:	004ba703          	lw	a4,4(s7)
   15f2c:	00f606b3          	add	a3,a2,a5
   15f30:	00f70733          	add	a4,a4,a5
   15f34:	00074703          	lbu	a4,0(a4)
   15f38:	00178793          	addi	a5,a5,1
   15f3c:	fee68fa3          	sb	a4,-1(a3)
   15f40:	feb794e3          	bne	a5,a1,15f28 <_Z8njDecodePKvi+0x378>
   15f44:	004ba683          	lw	a3,4(s7)
   15f48:	008ba783          	lw	a5,8(s7)
   15f4c:	00cba703          	lw	a4,12(s7)
   15f50:	04168693          	addi	a3,a3,65
   15f54:	fbf78793          	addi	a5,a5,-65
   15f58:	fbf70713          	addi	a4,a4,-65
   15f5c:	00dba223          	sw	a3,4(s7)
   15f60:	00fba423          	sw	a5,8(s7)
   15f64:	00eba623          	sw	a4,12(s7)
   15f68:	f807d4e3          	bgez	a5,15ef0 <_Z8njDecodePKvi+0x340>
   15f6c:	006ba023          	sw	t1,0(s7)
   15f70:	f8e842e3          	blt	a6,a4,15ef4 <_Z8njDecodePKvi+0x344>
   15f74:	f00700e3          	beqz	a4,15e74 <_Z8njDecodePKvi+0x2c4>
   15f78:	e59ff06f          	j	15dd0 <_Z8njDecodePKvi+0x220>
   15f7c:	00085617          	auipc	a2,0x85
   15f80:	6e860613          	addi	a2,a2,1768 # 9b664 <__global_pointer$+0x7fcac>
   15f84:	00812023          	sw	s0,0(sp)
   15f88:	00100693          	li	a3,1
   15f8c:	2c062a03          	lw	s4,704(a2)
   15f90:	e4e6d0e3          	bge	a3,a4,15dd0 <_Z8njDecodePKvi+0x220>
   15f94:	0037c603          	lbu	a2,3(a5)
   15f98:	0027c683          	lbu	a3,2(a5)
   15f9c:	00861613          	slli	a2,a2,0x8
   15fa0:	00d66633          	or	a2,a2,a3
   15fa4:	00861693          	slli	a3,a2,0x8
   15fa8:	00865613          	srli	a2,a2,0x8
   15fac:	00c6e6b3          	or	a3,a3,a2
   15fb0:	01069693          	slli	a3,a3,0x10
   15fb4:	0106d693          	srli	a3,a3,0x10
   15fb8:	00dba623          	sw	a3,12(s7)
   15fbc:	e0d74ae3          	blt	a4,a3,15dd0 <_Z8njDecodePKvi+0x220>
   15fc0:	000ba503          	lw	a0,0(s7)
   15fc4:	00478613          	addi	a2,a5,4
   15fc8:	ffc88713          	addi	a4,a7,-4
   15fcc:	ffe68593          	addi	a1,a3,-2
   15fd0:	00cba223          	sw	a2,4(s7)
   15fd4:	00eba423          	sw	a4,8(s7)
   15fd8:	00bba623          	sw	a1,12(s7)
   15fdc:	6a0518e3          	bnez	a0,16e8c <_Z8njDecodePKvi+0x12dc>
   15fe0:	028ba603          	lw	a2,40(s7)
   15fe4:	00260713          	addi	a4,a2,2
   15fe8:	00171713          	slli	a4,a4,0x1
   15fec:	dee5c2e3          	blt	a1,a4,15dd0 <_Z8njDecodePKvi+0x220>
   15ff0:	0047c703          	lbu	a4,4(a5)
   15ff4:	5ce60263          	beq	a2,a4,165b8 <_Z8njDecodePKvi+0xa08>
   15ff8:	00200793          	li	a5,2
   15ffc:	00fba023          	sw	a5,0(s7)
   16000:	00200513          	li	a0,2
   16004:	dd9ff06f          	j	15ddc <_Z8njDecodePKvi+0x22c>
   16008:	00100693          	li	a3,1
   1600c:	dce6d2e3          	bge	a3,a4,15dd0 <_Z8njDecodePKvi+0x220>
   16010:	0037c683          	lbu	a3,3(a5)
   16014:	0027c603          	lbu	a2,2(a5)
   16018:	00869693          	slli	a3,a3,0x8
   1601c:	00c6e6b3          	or	a3,a3,a2
   16020:	00869813          	slli	a6,a3,0x8
   16024:	0086d693          	srli	a3,a3,0x8
   16028:	00d86833          	or	a6,a6,a3
   1602c:	01081813          	slli	a6,a6,0x10
   16030:	01085813          	srli	a6,a6,0x10
   16034:	010ba623          	sw	a6,12(s7)
   16038:	d9074ce3          	blt	a4,a6,15dd0 <_Z8njDecodePKvi+0x220>
   1603c:	000ba503          	lw	a0,0(s7)
   16040:	00478793          	addi	a5,a5,4
   16044:	ffc88893          	addi	a7,a7,-4
   16048:	ffe80813          	addi	a6,a6,-2
   1604c:	00fba223          	sw	a5,4(s7)
   16050:	011ba423          	sw	a7,8(s7)
   16054:	010ba623          	sw	a6,12(s7)
   16058:	620518e3          	bnez	a0,16e88 <_Z8njDecodePKvi+0x12d8>
   1605c:	01000713          	li	a4,16
   16060:	61075ee3          	bge	a4,a6,16e7c <_Z8njDecodePKvi+0x12cc>
   16064:	01000937          	lui	s2,0x1000
   16068:	fff90913          	addi	s2,s2,-1 # ffffff <__BSS_END__+0xf646ab>
   1606c:	c9c18a93          	addi	s5,gp,-868 # 1b654 <_ZZL11njDecodeDHTvE6counts>
   16070:	01000c13          	li	s8,16
   16074:	00600393          	li	t2,6
   16078:	0007c303          	lbu	t1,0(a5)
   1607c:	0ec37713          	andi	a4,t1,236
   16080:	d40718e3          	bnez	a4,15dd0 <_Z8njDecodePKvi+0x220>
   16084:	00237713          	andi	a4,t1,2
   16088:	f60718e3          	bnez	a4,15ff8 <_Z8njDecodePKvi+0x448>
   1608c:	0017c683          	lbu	a3,1(a5)
   16090:	0027c883          	lbu	a7,2(a5)
   16094:	0057c503          	lbu	a0,5(a5)
   16098:	0067cd83          	lbu	s11,6(a5)
   1609c:	0097c583          	lbu	a1,9(a5)
   160a0:	00a7cd03          	lbu	s10,10(a5)
   160a4:	00d7c603          	lbu	a2,13(a5)
   160a8:	00e7cb03          	lbu	s6,14(a5)
   160ac:	0037cf83          	lbu	t6,3(a5)
   160b0:	0077ca03          	lbu	s4,7(a5)
   160b4:	00b7c983          	lbu	s3,11(a5)
   160b8:	00f7c283          	lbu	t0,15(a5)
   160bc:	00889893          	slli	a7,a7,0x8
   160c0:	008d9d93          	slli	s11,s11,0x8
   160c4:	01957533          	and	a0,a0,s9
   160c8:	008d1d13          	slli	s10,s10,0x8
   160cc:	0195f5b3          	and	a1,a1,s9
   160d0:	008b1b13          	slli	s6,s6,0x8
   160d4:	01967633          	and	a2,a2,s9
   160d8:	0196f6b3          	and	a3,a3,s9
   160dc:	0047c703          	lbu	a4,4(a5)
   160e0:	0087cf03          	lbu	t5,8(a5)
   160e4:	00c7ce83          	lbu	t4,12(a5)
   160e8:	0107ce03          	lbu	t3,16(a5)
   160ec:	0116e6b3          	or	a3,a3,a7
   160f0:	01b56533          	or	a0,a0,s11
   160f4:	01a5e5b3          	or	a1,a1,s10
   160f8:	01666633          	or	a2,a2,s6
   160fc:	008ba883          	lw	a7,8(s7)
   16100:	010f9f93          	slli	t6,t6,0x10
   16104:	010a1a13          	slli	s4,s4,0x10
   16108:	00957533          	and	a0,a0,s1
   1610c:	01099993          	slli	s3,s3,0x10
   16110:	0095f5b3          	and	a1,a1,s1
   16114:	01029293          	slli	t0,t0,0x10
   16118:	00967633          	and	a2,a2,s1
   1611c:	0096f6b3          	and	a3,a3,s1
   16120:	01f6e6b3          	or	a3,a3,t6
   16124:	01456533          	or	a0,a0,s4
   16128:	0135e5b3          	or	a1,a1,s3
   1612c:	00566633          	or	a2,a2,t0
   16130:	018e1e13          	slli	t3,t3,0x18
   16134:	01871f93          	slli	t6,a4,0x18
   16138:	018f1f13          	slli	t5,t5,0x18
   1613c:	01257533          	and	a0,a0,s2
   16140:	018e9e93          	slli	t4,t4,0x18
   16144:	0125f5b3          	and	a1,a1,s2
   16148:	01267633          	and	a2,a2,s2
   1614c:	0126f6b3          	and	a3,a3,s2
   16150:	01c66633          	or	a2,a2,t3
   16154:	40335713          	srai	a4,t1,0x3
   16158:	01178e13          	addi	t3,a5,17
   1615c:	01e56533          	or	a0,a0,t5
   16160:	01d5e5b3          	or	a1,a1,t4
   16164:	01f6e6b3          	or	a3,a3,t6
   16168:	fef88893          	addi	a7,a7,-17
   1616c:	fef80813          	addi	a6,a6,-17
   16170:	006767b3          	or	a5,a4,t1
   16174:	00daa023          	sw	a3,0(s5)
   16178:	00aaa223          	sw	a0,4(s5)
   1617c:	00baa423          	sw	a1,8(s5)
   16180:	00caa623          	sw	a2,12(s5)
   16184:	01cba223          	sw	t3,4(s7)
   16188:	011ba423          	sw	a7,8(s7)
   1618c:	010ba623          	sw	a6,12(s7)
   16190:	0037f793          	andi	a5,a5,3
   16194:	0008d663          	bgez	a7,161a0 <_Z8njDecodePKvi+0x5f0>
   16198:	00500713          	li	a4,5
   1619c:	00eba023          	sw	a4,0(s7)
   161a0:	01179793          	slli	a5,a5,0x11
   161a4:	1b878793          	addi	a5,a5,440
   161a8:	00fb87b3          	add	a5,s7,a5
   161ac:	00010337          	lui	t1,0x10
   161b0:	00100613          	li	a2,1
   161b4:	00010837          	lui	a6,0x10
   161b8:	01100b13          	li	s6,17
   161bc:	00812023          	sw	s0,0(sp)
   161c0:	00c0006f          	j	161cc <_Z8njDecodePKvi+0x61c>
   161c4:	00160613          	addi	a2,a2,1
   161c8:	0d660a63          	beq	a2,s6,1629c <_Z8njDecodePKvi+0x6ec>
   161cc:	00ca8733          	add	a4,s5,a2
   161d0:	fff74e03          	lbu	t3,-1(a4)
   161d4:	40185813          	srai	a6,a6,0x1
   161d8:	fe0e06e3          	beqz	t3,161c4 <_Z8njDecodePKvi+0x614>
   161dc:	00cba703          	lw	a4,12(s7)
   161e0:	bfc748e3          	blt	a4,t3,15dd0 <_Z8njDecodePKvi+0x220>
   161e4:	40cc0733          	sub	a4,s8,a2
   161e8:	00ee1733          	sll	a4,t3,a4
   161ec:	40e30333          	sub	t1,t1,a4
   161f0:	be0340e3          	bltz	t1,15dd0 <_Z8njDecodePKvi+0x220>
   161f4:	004ba683          	lw	a3,4(s7)
   161f8:	0ff67f13          	zext.b	t5,a2
   161fc:	00185993          	srli	s3,a6,0x1
   16200:	ffe87a13          	andi	s4,a6,-2
   16204:	000f0f93          	mv	t6,t5
   16208:	019f7d33          	and	s10,t5,s9
   1620c:	fff80413          	addi	s0,a6,-1 # ffff <exit-0x95>
   16210:	00299993          	slli	s3,s3,0x2
   16214:	001a1d93          	slli	s11,s4,0x1
   16218:	00181293          	slli	t0,a6,0x1
   1621c:	00000513          	li	a0,0
   16220:	010f1f13          	slli	t5,t5,0x10
   16224:	00a68733          	add	a4,a3,a0
   16228:	00074883          	lbu	a7,0(a4)
   1622c:	02080a63          	beqz	a6,16260 <_Z8njDecodePKvi+0x6b0>
   16230:	00889713          	slli	a4,a7,0x8
   16234:	00efe5b3          	or	a1,t6,a4
   16238:	00058693          	mv	a3,a1
   1623c:	0083f663          	bgeu	t2,s0,16248 <_Z8njDecodePKvi+0x698>
   16240:	0037fe93          	andi	t4,a5,3
   16244:	080e8263          	beqz	t4,162c8 <_Z8njDecodePKvi+0x718>
   16248:	00578733          	add	a4,a5,t0
   1624c:	00d79023          	sh	a3,0(a5)
   16250:	00278793          	addi	a5,a5,2
   16254:	fef71ce3          	bne	a4,a5,1624c <_Z8njDecodePKvi+0x69c>
   16258:	004ba683          	lw	a3,4(s7)
   1625c:	00070793          	mv	a5,a4
   16260:	00150513          	addi	a0,a0,1
   16264:	fcae10e3          	bne	t3,a0,16224 <_Z8njDecodePKvi+0x674>
   16268:	008ba703          	lw	a4,8(s7)
   1626c:	00cba503          	lw	a0,12(s7)
   16270:	01c686b3          	add	a3,a3,t3
   16274:	41c70733          	sub	a4,a4,t3
   16278:	41c50533          	sub	a0,a0,t3
   1627c:	00dba223          	sw	a3,4(s7)
   16280:	00eba423          	sw	a4,8(s7)
   16284:	00aba623          	sw	a0,12(s7)
   16288:	f2075ee3          	bgez	a4,161c4 <_Z8njDecodePKvi+0x614>
   1628c:	00500713          	li	a4,5
   16290:	00eba023          	sw	a4,0(s7)
   16294:	00160613          	addi	a2,a2,1
   16298:	f3661ae3          	bne	a2,s6,161cc <_Z8njDecodePKvi+0x61c>
   1629c:	00131713          	slli	a4,t1,0x1
   162a0:	00012403          	lw	s0,0(sp)
   162a4:	00e78733          	add	a4,a5,a4
   162a8:	00030863          	beqz	t1,162b8 <_Z8njDecodePKvi+0x708>
   162ac:	00078023          	sb	zero,0(a5)
   162b0:	00278793          	addi	a5,a5,2
   162b4:	fee79ce3          	bne	a5,a4,162ac <_Z8njDecodePKvi+0x6fc>
   162b8:	00cba803          	lw	a6,12(s7)
   162bc:	3d0c50e3          	bge	s8,a6,16e7c <_Z8njDecodePKvi+0x12cc>
   162c0:	004ba783          	lw	a5,4(s7)
   162c4:	db5ff06f          	j	16078 <_Z8njDecodePKvi+0x4c8>
   162c8:	00ed66b3          	or	a3,s10,a4
   162cc:	0096f6b3          	and	a3,a3,s1
   162d0:	01e6e6b3          	or	a3,a3,t5
   162d4:	01889893          	slli	a7,a7,0x18
   162d8:	0126f6b3          	and	a3,a3,s2
   162dc:	0116e6b3          	or	a3,a3,a7
   162e0:	00078713          	mv	a4,a5
   162e4:	00f988b3          	add	a7,s3,a5
   162e8:	00d72023          	sw	a3,0(a4)
   162ec:	00470713          	addi	a4,a4,4
   162f0:	fee89ce3          	bne	a7,a4,162e8 <_Z8njDecodePKvi+0x738>
   162f4:	01b786b3          	add	a3,a5,s11
   162f8:	00578733          	add	a4,a5,t0
   162fc:	f50a0ee3          	beq	s4,a6,16258 <_Z8njDecodePKvi+0x6a8>
   16300:	00b69023          	sh	a1,0(a3)
   16304:	f55ff06f          	j	16258 <_Z8njDecodePKvi+0x6a8>
   16308:	00100693          	li	a3,1
   1630c:	ace6d2e3          	bge	a3,a4,15dd0 <_Z8njDecodePKvi+0x220>
   16310:	0037c683          	lbu	a3,3(a5)
   16314:	0027c603          	lbu	a2,2(a5)
   16318:	00869693          	slli	a3,a3,0x8
   1631c:	00c6e6b3          	or	a3,a3,a2
   16320:	00869613          	slli	a2,a3,0x8
   16324:	0086d693          	srli	a3,a3,0x8
   16328:	00d666b3          	or	a3,a2,a3
   1632c:	01069593          	slli	a1,a3,0x10
   16330:	0105d593          	srli	a1,a1,0x10
   16334:	00bba623          	sw	a1,12(s7)
   16338:	a8b74ce3          	blt	a4,a1,15dd0 <_Z8njDecodePKvi+0x220>
   1633c:	000ba503          	lw	a0,0(s7)
   16340:	00478613          	addi	a2,a5,4
   16344:	ffc88713          	addi	a4,a7,-4
   16348:	ffe58693          	addi	a3,a1,-2
   1634c:	00cba223          	sw	a2,4(s7)
   16350:	00eba423          	sw	a4,8(s7)
   16354:	00dba623          	sw	a3,12(s7)
   16358:	320518e3          	bnez	a0,16e88 <_Z8njDecodePKvi+0x12d8>
   1635c:	00800713          	li	a4,8
   16360:	a6d758e3          	bge	a4,a3,15dd0 <_Z8njDecodePKvi+0x220>
   16364:	0047c683          	lbu	a3,4(a5)
   16368:	c8e698e3          	bne	a3,a4,15ff8 <_Z8njDecodePKvi+0x448>
   1636c:	0067c703          	lbu	a4,6(a5)
   16370:	0057c683          	lbu	a3,5(a5)
   16374:	00871713          	slli	a4,a4,0x8
   16378:	00d76733          	or	a4,a4,a3
   1637c:	00871693          	slli	a3,a4,0x8
   16380:	00875713          	srli	a4,a4,0x8
   16384:	00e6e6b3          	or	a3,a3,a4
   16388:	01069693          	slli	a3,a3,0x10
   1638c:	0106d693          	srli	a3,a3,0x10
   16390:	00dbaa23          	sw	a3,20(s7)
   16394:	0087c703          	lbu	a4,8(a5)
   16398:	0077c603          	lbu	a2,7(a5)
   1639c:	00871713          	slli	a4,a4,0x8
   163a0:	00c76733          	or	a4,a4,a2
   163a4:	00871613          	slli	a2,a4,0x8
   163a8:	00875713          	srli	a4,a4,0x8
   163ac:	00e66733          	or	a4,a2,a4
   163b0:	01071713          	slli	a4,a4,0x10
   163b4:	01075713          	srli	a4,a4,0x10
   163b8:	00eba823          	sw	a4,16(s7)
   163bc:	a0070ae3          	beqz	a4,15dd0 <_Z8njDecodePKvi+0x220>
   163c0:	a00688e3          	beqz	a3,15dd0 <_Z8njDecodePKvi+0x220>
   163c4:	0097c703          	lbu	a4,9(a5)
   163c8:	00a78913          	addi	s2,a5,10
   163cc:	ff688893          	addi	a7,a7,-10
   163d0:	ff858793          	addi	a5,a1,-8
   163d4:	02eba423          	sw	a4,40(s7)
   163d8:	012ba223          	sw	s2,4(s7)
   163dc:	011ba423          	sw	a7,8(s7)
   163e0:	00fba623          	sw	a5,12(s7)
   163e4:	2008c8e3          	bltz	a7,16df4 <_Z8njDecodePKvi+0x1244>
   163e8:	0fd77693          	andi	a3,a4,253
   163ec:	00100613          	li	a2,1
   163f0:	c0c694e3          	bne	a3,a2,15ff8 <_Z8njDecodePKvi+0x448>
   163f4:	00171693          	slli	a3,a4,0x1
   163f8:	00e68733          	add	a4,a3,a4
   163fc:	9ce7cae3          	blt	a5,a4,15dd0 <_Z8njDecodePKvi+0x220>
   16400:	00000593          	li	a1,0
   16404:	00000b13          	li	s6,0
   16408:	00000993          	li	s3,0
   1640c:	00005697          	auipc	a3,0x5
   16410:	28468693          	addi	a3,a3,644 # 1b690 <_ZL2nj+0x2c>
   16414:	00300893          	li	a7,3
   16418:	00100513          	li	a0,1
   1641c:	00500813          	li	a6,5
   16420:	00094783          	lbu	a5,0(s2)
   16424:	00f6a023          	sw	a5,0(a3)
   16428:	00194783          	lbu	a5,1(s2)
   1642c:	0047d793          	srli	a5,a5,0x4
   16430:	00f6a223          	sw	a5,4(a3)
   16434:	98078ee3          	beqz	a5,15dd0 <_Z8njDecodePKvi+0x220>
   16438:	fff78713          	addi	a4,a5,-1
   1643c:	00f777b3          	and	a5,a4,a5
   16440:	ba079ce3          	bnez	a5,15ff8 <_Z8njDecodePKvi+0x448>
   16444:	00194783          	lbu	a5,1(s2)
   16448:	00f7f793          	andi	a5,a5,15
   1644c:	00f6a423          	sw	a5,8(a3)
   16450:	980780e3          	beqz	a5,15dd0 <_Z8njDecodePKvi+0x220>
   16454:	fff78a93          	addi	s5,a5,-1
   16458:	00fafab3          	and	s5,s5,a5
   1645c:	b80a9ee3          	bnez	s5,15ff8 <_Z8njDecodePKvi+0x448>
   16460:	00294783          	lbu	a5,2(s2)
   16464:	00f6ac23          	sw	a5,24(a3)
   16468:	96f8e4e3          	bltu	a7,a5,15dd0 <_Z8njDecodePKvi+0x220>
   1646c:	008baa03          	lw	s4,8(s7)
   16470:	00cba703          	lw	a4,12(s7)
   16474:	00390913          	addi	s2,s2,3
   16478:	ffda0a13          	addi	s4,s4,-3
   1647c:	ffd70713          	addi	a4,a4,-3
   16480:	00eba623          	sw	a4,12(s7)
   16484:	012ba223          	sw	s2,4(s7)
   16488:	014ba423          	sw	s4,8(s7)
   1648c:	0b0ba703          	lw	a4,176(s7)
   16490:	00f517b3          	sll	a5,a0,a5
   16494:	160a46e3          	bltz	s4,16e00 <_Z8njDecodePKvi+0x1250>
   16498:	00f767b3          	or	a5,a4,a5
   1649c:	0afba823          	sw	a5,176(s7)
   164a0:	0046a783          	lw	a5,4(a3)
   164a4:	16f9c8e3          	blt	s3,a5,16e14 <_Z8njDecodePKvi+0x1264>
   164a8:	0086a783          	lw	a5,8(a3)
   164ac:	00fb5463          	bge	s6,a5,164b4 <_Z8njDecodePKvi+0x904>
   164b0:	00078b13          	mv	s6,a5
   164b4:	028ba603          	lw	a2,40(s7)
   164b8:	00158593          	addi	a1,a1,1
   164bc:	02c68693          	addi	a3,a3,44
   164c0:	f6c5c0e3          	blt	a1,a2,16420 <_Z8njDecodePKvi+0x870>
   164c4:	00100793          	li	a5,1
   164c8:	010ba703          	lw	a4,16(s7)
   164cc:	00f61463          	bne	a2,a5,164d4 <_Z8njDecodePKvi+0x924>
   164d0:	4040106f          	j	178d4 <_Z8njDecodePKvi+0x1d24>
   164d4:	014ba783          	lw	a5,20(s7)
   164d8:	00399513          	slli	a0,s3,0x3
   164dc:	003b1593          	slli	a1,s6,0x3
   164e0:	00a706b3          	add	a3,a4,a0
   164e4:	00f587b3          	add	a5,a1,a5
   164e8:	fff68693          	addi	a3,a3,-1
   164ec:	fff78793          	addi	a5,a5,-1
   164f0:	02a6c6b3          	div	a3,a3,a0
   164f4:	02aba023          	sw	a0,32(s7)
   164f8:	02bba223          	sw	a1,36(s7)
   164fc:	02b7c7b3          	div	a5,a5,a1
   16500:	00dbac23          	sw	a3,24(s7)
   16504:	00fbae23          	sw	a5,28(s7)
   16508:	00c04463          	bgtz	a2,16510 <_Z8njDecodePKvi+0x960>
   1650c:	3a00106f          	j	178ac <_Z8njDecodePKvi+0x1cfc>
   16510:	00005c17          	auipc	s8,0x5
   16514:	180c0c13          	addi	s8,s8,384 # 1b690 <_ZL2nj+0x2c>
   16518:	00200d13          	li	s10,2
   1651c:	004c2583          	lw	a1,4(s8)
   16520:	008c2603          	lw	a2,8(s8)
   16524:	02e586b3          	mul	a3,a1,a4
   16528:	013686b3          	add	a3,a3,s3
   1652c:	fff68693          	addi	a3,a3,-1
   16530:	0336c6b3          	div	a3,a3,s3
   16534:	00dc2623          	sw	a3,12(s8)
   16538:	014ba703          	lw	a4,20(s7)
   1653c:	02e60733          	mul	a4,a2,a4
   16540:	01670733          	add	a4,a4,s6
   16544:	fff70713          	addi	a4,a4,-1
   16548:	03674733          	div	a4,a4,s6
   1654c:	00ec2823          	sw	a4,16(s8)
   16550:	018ba783          	lw	a5,24(s7)
   16554:	02f587b3          	mul	a5,a1,a5
   16558:	00379793          	slli	a5,a5,0x3
   1655c:	00fc2a23          	sw	a5,20(s8)
   16560:	00dd4463          	blt	s10,a3,16568 <_Z8njDecodePKvi+0x9b8>
   16564:	a9359ae3          	bne	a1,s3,15ff8 <_Z8njDecodePKvi+0x448>
   16568:	00ed4463          	blt	s10,a4,16570 <_Z8njDecodePKvi+0x9c0>
   1656c:	a96616e3          	bne	a2,s6,15ff8 <_Z8njDecodePKvi+0x448>
   16570:	01cba703          	lw	a4,28(s7)
   16574:	02e787b3          	mul	a5,a5,a4
   16578:	02c78533          	mul	a0,a5,a2
   1657c:	00351513          	slli	a0,a0,0x3
   16580:	4dc010ef          	jal	ra,17a5c <malloc>
   16584:	02ac2423          	sw	a0,40(s8)
   16588:	00051463          	bnez	a0,16590 <_Z8njDecodePKvi+0x9e0>
   1658c:	3c80106f          	j	17954 <_Z8njDecodePKvi+0x1da4>
   16590:	028ba783          	lw	a5,40(s7)
   16594:	001a8a93          	addi	s5,s5,1
   16598:	02cc0c13          	addi	s8,s8,44
   1659c:	00fac463          	blt	s5,a5,165a4 <_Z8njDecodePKvi+0x9f4>
   165a0:	3880106f          	j	17928 <_Z8njDecodePKvi+0x1d78>
   165a4:	010ba703          	lw	a4,16(s7)
   165a8:	f75ff06f          	j	1651c <_Z8njDecodePKvi+0x96c>
   165ac:	00500793          	li	a5,5
   165b0:	00fba023          	sw	a5,0(s7)
   165b4:	8a5ff06f          	j	15e58 <_Z8njDecodePKvi+0x2a8>
   165b8:	00578793          	addi	a5,a5,5
   165bc:	ffb88713          	addi	a4,a7,-5
   165c0:	ffd68693          	addi	a3,a3,-3
   165c4:	00fba223          	sw	a5,4(s7)
   165c8:	00eba423          	sw	a4,8(s7)
   165cc:	00dba623          	sw	a3,12(s7)
   165d0:	7e074663          	bltz	a4,16dbc <_Z8njDecodePKvi+0x120c>
   165d4:	06060c63          	beqz	a2,1664c <_Z8njDecodePKvi+0xa9c>
   165d8:	00000593          	li	a1,0
   165dc:	00005617          	auipc	a2,0x5
   165e0:	0b460613          	addi	a2,a2,180 # 1b690 <_ZL2nj+0x2c>
   165e4:	00500513          	li	a0,5
   165e8:	0007c683          	lbu	a3,0(a5)
   165ec:	00062703          	lw	a4,0(a2)
   165f0:	fee69063          	bne	a3,a4,15dd0 <_Z8njDecodePKvi+0x220>
   165f4:	0017c703          	lbu	a4,1(a5)
   165f8:	0ee77693          	andi	a3,a4,238
   165fc:	fc069a63          	bnez	a3,15dd0 <_Z8njDecodePKvi+0x220>
   16600:	00475713          	srli	a4,a4,0x4
   16604:	02e62023          	sw	a4,32(a2)
   16608:	0017c703          	lbu	a4,1(a5)
   1660c:	00278793          	addi	a5,a5,2
   16610:	00177713          	andi	a4,a4,1
   16614:	00276713          	ori	a4,a4,2
   16618:	00e62e23          	sw	a4,28(a2)
   1661c:	008ba703          	lw	a4,8(s7)
   16620:	00cba683          	lw	a3,12(s7)
   16624:	00fba223          	sw	a5,4(s7)
   16628:	ffe70713          	addi	a4,a4,-2
   1662c:	ffe68693          	addi	a3,a3,-2
   16630:	00eba423          	sw	a4,8(s7)
   16634:	00dba623          	sw	a3,12(s7)
   16638:	78074863          	bltz	a4,16dc8 <_Z8njDecodePKvi+0x1218>
   1663c:	028ba703          	lw	a4,40(s7)
   16640:	00158593          	addi	a1,a1,1
   16644:	02c60613          	addi	a2,a2,44
   16648:	fae5c0e3          	blt	a1,a4,165e8 <_Z8njDecodePKvi+0xa38>
   1664c:	0007c703          	lbu	a4,0(a5)
   16650:	9a0714e3          	bnez	a4,15ff8 <_Z8njDecodePKvi+0x448>
   16654:	0017c603          	lbu	a2,1(a5)
   16658:	03f00713          	li	a4,63
   1665c:	98e61ee3          	bne	a2,a4,15ff8 <_Z8njDecodePKvi+0x448>
   16660:	0027c703          	lbu	a4,2(a5)
   16664:	98071ae3          	bnez	a4,15ff8 <_Z8njDecodePKvi+0x448>
   16668:	008ba703          	lw	a4,8(s7)
   1666c:	00d787b3          	add	a5,a5,a3
   16670:	00fba223          	sw	a5,4(s7)
   16674:	40d707b3          	sub	a5,a4,a3
   16678:	00fba423          	sw	a5,8(s7)
   1667c:	00005717          	auipc	a4,0x5
   16680:	fe072a23          	sw	zero,-12(a4) # 1b670 <_ZL2nj+0xc>
   16684:	0007d663          	bgez	a5,16690 <_Z8njDecodePKvi+0xae0>
   16688:	00500793          	li	a5,5
   1668c:	00fba023          	sw	a5,0(s7)
   16690:	000807b7          	lui	a5,0x80
   16694:	2c078713          	addi	a4,a5,704 # 802c0 <__global_pointer$+0x64908>
   16698:	1e078793          	addi	a5,a5,480
   1669c:	00eb8733          	add	a4,s7,a4
   166a0:	00fb87b3          	add	a5,s7,a5
   166a4:	00000993          	li	s3,0
   166a8:	00012223          	sw	zero,4(sp)
   166ac:	00000d93          	li	s11,0
   166b0:	00e12e23          	sw	a4,28(sp)
   166b4:	02f12023          	sw	a5,32(sp)
   166b8:	028ba783          	lw	a5,40(s7)
   166bc:	00000a93          	li	s5,0
   166c0:	00005b17          	auipc	s6,0x5
   166c4:	fd0b0b13          	addi	s6,s6,-48 # 1b690 <_ZL2nj+0x2c>
   166c8:	62f05463          	blez	a5,16cf0 <_Z8njDecodePKvi+0x1140>
   166cc:	00012c83          	lw	s9,0(sp)
   166d0:	000b0d13          	mv	s10,s6
   166d4:	01b12423          	sw	s11,8(sp)
   166d8:	00098493          	mv	s1,s3
   166dc:	008d2983          	lw	s3,8(s10)
   166e0:	5f305c63          	blez	s3,16cd8 <_Z8njDecodePKvi+0x1128>
   166e4:	004d2683          	lw	a3,4(s10)
   166e8:	000207b7          	lui	a5,0x20
   166ec:	000d0413          	mv	s0,s10
   166f0:	00000813          	li	a6,0
   166f4:	07078d93          	addi	s11,a5,112 # 20070 <__global_pointer$+0x46b8>
   166f8:	00068d13          	mv	s10,a3
   166fc:	00098913          	mv	s2,s3
   16700:	5da05a63          	blez	s10,16cd4 <_Z8njDecodePKvi+0x1124>
   16704:	00000893          	li	a7,0
   16708:	02912623          	sw	s1,44(sp)
   1670c:	00080993          	mv	s3,a6
   16710:	03512223          	sw	s5,36(sp)
   16714:	03412423          	sw	s4,40(sp)
   16718:	00088493          	mv	s1,a7
   1671c:	02842783          	lw	a5,40(s0)
   16720:	10000613          	li	a2,256
   16724:	00000593          	li	a1,0
   16728:	00f12623          	sw	a5,12(sp)
   1672c:	01442783          	lw	a5,20(s0)
   16730:	00085517          	auipc	a0,0x85
   16734:	0f450513          	addi	a0,a0,244 # 9b824 <__global_pointer$+0x7fe6c>
   16738:	02010fa3          	sb	zero,63(sp)
   1673c:	00f12823          	sw	a5,16(sp)
   16740:	4d9010ef          	jal	ra,18418 <memset>
   16744:	02042503          	lw	a0,32(s0)
   16748:	00000593          	li	a1,0
   1674c:	00000a93          	li	s5,0
   16750:	01151513          	slli	a0,a0,0x11
   16754:	1b850513          	addi	a0,a0,440
   16758:	00ab8533          	add	a0,s7,a0
   1675c:	ac8ff0ef          	jal	ra,15a24 <_ZL8njGetVLCP8_nj_codePh>
   16760:	02442683          	lw	a3,36(s0)
   16764:	01842783          	lw	a5,24(s0)
   16768:	00085717          	auipc	a4,0x85
   1676c:	efc70713          	addi	a4,a4,-260 # 9b664 <__global_pointer$+0x7fcac>
   16770:	00d50633          	add	a2,a0,a3
   16774:	00679793          	slli	a5,a5,0x6
   16778:	02c42223          	sw	a2,36(s0)
   1677c:	00fb87b3          	add	a5,s7,a5
   16780:	0b87c783          	lbu	a5,184(a5)
   16784:	0f000c13          	li	s8,240
   16788:	03f00a13          	li	s4,63
   1678c:	02c787b3          	mul	a5,a5,a2
   16790:	00003b17          	auipc	s6,0x3
   16794:	fbcb0b13          	addi	s6,s6,-68 # 1974c <_ZL4njZZ>
   16798:	1cf72023          	sw	a5,448(a4)
   1679c:	0540006f          	j	167f0 <_Z8njDecodePKvi+0xc40>
   167a0:	00f7f713          	andi	a4,a5,15
   167a4:	00071463          	bnez	a4,167ac <_Z8njDecodePKvi+0xbfc>
   167a8:	e3879463          	bne	a5,s8,15dd0 <_Z8njDecodePKvi+0x220>
   167ac:	0047d793          	srli	a5,a5,0x4
   167b0:	00178793          	addi	a5,a5,1
   167b4:	00fa8ab3          	add	s5,s5,a5
   167b8:	e15a4c63          	blt	s4,s5,15dd0 <_Z8njDecodePKvi+0x220>
   167bc:	01842703          	lw	a4,24(s0)
   167c0:	015b07b3          	add	a5,s6,s5
   167c4:	0007c783          	lbu	a5,0(a5)
   167c8:	00671713          	slli	a4,a4,0x6
   167cc:	00eb8733          	add	a4,s7,a4
   167d0:	01570733          	add	a4,a4,s5
   167d4:	0b874703          	lbu	a4,184(a4)
   167d8:	01b787b3          	add	a5,a5,s11
   167dc:	00279793          	slli	a5,a5,0x2
   167e0:	02a70733          	mul	a4,a4,a0
   167e4:	00fb87b3          	add	a5,s7,a5
   167e8:	00e7a023          	sw	a4,0(a5)
   167ec:	034a8263          	beq	s5,s4,16810 <_Z8njDecodePKvi+0xc60>
   167f0:	01c42503          	lw	a0,28(s0)
   167f4:	03f10593          	addi	a1,sp,63
   167f8:	01151513          	slli	a0,a0,0x11
   167fc:	1b850513          	addi	a0,a0,440
   16800:	00ab8533          	add	a0,s7,a0
   16804:	a20ff0ef          	jal	ra,15a24 <_ZL8njGetVLCP8_nj_codePh>
   16808:	03f14783          	lbu	a5,63(sp)
   1680c:	f8079ae3          	bnez	a5,167a0 <_Z8njDecodePKvi+0xbf0>
   16810:	fffff6b7          	lui	a3,0xfffff
   16814:	00001637          	lui	a2,0x1
   16818:	00085717          	auipc	a4,0x85
   1681c:	00c70713          	addi	a4,a4,12 # 9b824 <__global_pointer$+0x7fe6c>
   16820:	96860613          	addi	a2,a2,-1688 # 968 <exit-0xf72c>
   16824:	13868693          	addi	a3,a3,312 # fffff138 <__BSS_END__+0xfff637e4>
   16828:	01c12e03          	lw	t3,28(sp)
   1682c:	00070793          	mv	a5,a4
   16830:	23500c13          	li	s8,565
   16834:	00c12a23          	sw	a2,20(sp)
   16838:	00d12c23          	sw	a3,24(sp)
   1683c:	62000893          	li	a7,1568
   16840:	0b500393          	li	t2,181
   16844:	1280006f          	j	1696c <_Z8njDecodePKvi+0xdbc>
   16848:	01412683          	lw	a3,20(sp)
   1684c:	00a80ab3          	add	s5,a6,a0
   16850:	00b61613          	slli	a2,a2,0xb
   16854:	02da8ab3          	mul	s5,s5,a3
   16858:	08060613          	addi	a2,a2,128
   1685c:	000016b7          	lui	a3,0x1
   16860:	00560fb3          	add	t6,a2,t0
   16864:	8e468693          	addi	a3,a3,-1820 # 8e4 <exit-0xf7b0>
   16868:	40560633          	sub	a2,a2,t0
   1686c:	fffff2b7          	lui	t0,0xfffff
   16870:	01ee8b33          	add	s6,t4,t5
   16874:	00b30a33          	add	s4,t1,a1
   16878:	02078793          	addi	a5,a5,32
   1687c:	02df0f33          	mul	t5,t5,a3
   16880:	2b228693          	addi	a3,t0,690 # fffff2b2 <__BSS_END__+0xfff6395e>
   16884:	02de86b3          	mul	a3,t4,a3
   16888:	ce100e93          	li	t4,-799
   1688c:	03d50533          	mul	a0,a0,t4
   16890:	04f28e93          	addi	t4,t0,79
   16894:	038b0b33          	mul	s6,s6,s8
   16898:	01550533          	add	a0,a0,s5
   1689c:	03d80833          	mul	a6,a6,t4
   168a0:	016686b3          	add	a3,a3,s6
   168a4:	016f0f33          	add	t5,t5,s6
   168a8:	40af0eb3          	sub	t4,t5,a0
   168ac:	01e50533          	add	a0,a0,t5
   168b0:	01580833          	add	a6,a6,s5
   168b4:	410682b3          	sub	t0,a3,a6
   168b8:	00d80833          	add	a6,a6,a3
   168bc:	01812683          	lw	a3,24(sp)
   168c0:	01d28f33          	add	t5,t0,t4
   168c4:	405e8eb3          	sub	t4,t4,t0
   168c8:	45400293          	li	t0,1108
   168cc:	025a0a33          	mul	s4,s4,t0
   168d0:	02d586b3          	mul	a3,a1,a3
   168d4:	03130333          	mul	t1,t1,a7
   168d8:	014686b3          	add	a3,a3,s4
   168dc:	00c685b3          	add	a1,a3,a2
   168e0:	40d606b3          	sub	a3,a2,a3
   168e4:	01430633          	add	a2,t1,s4
   168e8:	01f60a33          	add	s4,a2,t6
   168ec:	027f0f33          	mul	t5,t5,t2
   168f0:	40cf8fb3          	sub	t6,t6,a2
   168f4:	00aa02b3          	add	t0,s4,a0
   168f8:	40aa0633          	sub	a2,s4,a0
   168fc:	010f8333          	add	t1,t6,a6
   16900:	410f8fb3          	sub	t6,t6,a6
   16904:	4082d293          	srai	t0,t0,0x8
   16908:	40835313          	srai	t1,t1,0x8
   1690c:	408fdf93          	srai	t6,t6,0x8
   16910:	40865613          	srai	a2,a2,0x8
   16914:	027e8533          	mul	a0,t4,t2
   16918:	080f0813          	addi	a6,t5,128
   1691c:	40885813          	srai	a6,a6,0x8
   16920:	00b80eb3          	add	t4,a6,a1
   16924:	410585b3          	sub	a1,a1,a6
   16928:	408ed813          	srai	a6,t4,0x8
   1692c:	4085d593          	srai	a1,a1,0x8
   16930:	fe57a023          	sw	t0,-32(a5)
   16934:	ff07a223          	sw	a6,-28(a5)
   16938:	fe67a623          	sw	t1,-20(a5)
   1693c:	08050513          	addi	a0,a0,128
   16940:	40855513          	srai	a0,a0,0x8
   16944:	00d50eb3          	add	t4,a0,a3
   16948:	40a686b3          	sub	a3,a3,a0
   1694c:	4086d693          	srai	a3,a3,0x8
   16950:	408ed513          	srai	a0,t4,0x8
   16954:	fea7a423          	sw	a0,-24(a5)
   16958:	fff7a823          	sw	t6,-16(a5)
   1695c:	fed7aa23          	sw	a3,-12(a5)
   16960:	feb7ac23          	sw	a1,-8(a5)
   16964:	fec7ae23          	sw	a2,-4(a5)
   16968:	06fe0863          	beq	t3,a5,169d8 <_Z8njDecodePKvi+0xe28>
   1696c:	0187a583          	lw	a1,24(a5)
   16970:	0087a303          	lw	t1,8(a5)
   16974:	0047af03          	lw	t5,4(a5)
   16978:	01c7ae83          	lw	t4,28(a5)
   1697c:	0147a503          	lw	a0,20(a5)
   16980:	00b366b3          	or	a3,t1,a1
   16984:	0107a283          	lw	t0,16(a5)
   16988:	00c7a803          	lw	a6,12(a5)
   1698c:	01e6e6b3          	or	a3,a3,t5
   16990:	01d6e6b3          	or	a3,a3,t4
   16994:	00a6e6b3          	or	a3,a3,a0
   16998:	00b29293          	slli	t0,t0,0xb
   1699c:	0106e6b3          	or	a3,a3,a6
   169a0:	0056e6b3          	or	a3,a3,t0
   169a4:	0007a603          	lw	a2,0(a5)
   169a8:	ea0690e3          	bnez	a3,16848 <_Z8njDecodePKvi+0xc98>
   169ac:	00361693          	slli	a3,a2,0x3
   169b0:	00d7ae23          	sw	a3,28(a5)
   169b4:	00d7ac23          	sw	a3,24(a5)
   169b8:	00d7aa23          	sw	a3,20(a5)
   169bc:	00d7a823          	sw	a3,16(a5)
   169c0:	00d7a623          	sw	a3,12(a5)
   169c4:	00d7a423          	sw	a3,8(a5)
   169c8:	00d7a223          	sw	a3,4(a5)
   169cc:	00d7a023          	sw	a3,0(a5)
   169d0:	02078793          	addi	a5,a5,32
   169d4:	f8fe1ce3          	bne	t3,a5,1696c <_Z8njDecodePKvi+0xdbc>
   169d8:	00412783          	lw	a5,4(sp)
   169dc:	000016b7          	lui	a3,0x1
   169e0:	96868693          	addi	a3,a3,-1688 # 968 <exit-0xf72c>
   169e4:	03278633          	mul	a2,a5,s2
   169e8:	fffff7b7          	lui	a5,0xfffff
   169ec:	13878793          	addi	a5,a5,312 # fffff138 <__BSS_END__+0xfff637e4>
   169f0:	00d12a23          	sw	a3,20(sp)
   169f4:	01012683          	lw	a3,16(sp)
   169f8:	00f12823          	sw	a5,16(sp)
   169fc:	00812783          	lw	a5,8(sp)
   16a00:	02012503          	lw	a0,32(sp)
   16a04:	00002b37          	lui	s6,0x2
   16a08:	62000893          	li	a7,1568
   16a0c:	01360633          	add	a2,a2,s3
   16a10:	03a78d33          	mul	s10,a5,s10
   16a14:	00c12783          	lw	a5,12(sp)
   16a18:	0b500913          	li	s2,181
   16a1c:	0ff00f13          	li	t5,255
   16a20:	02d60633          	mul	a2,a2,a3
   16a24:	01a60633          	add	a2,a2,s10
   16a28:	00960633          	add	a2,a2,s1
   16a2c:	00361613          	slli	a2,a2,0x3
   16a30:	00c78633          	add	a2,a5,a2
   16a34:	0c072783          	lw	a5,192(a4)
   16a38:	04072683          	lw	a3,64(a4)
   16a3c:	02072e03          	lw	t3,32(a4)
   16a40:	0e072f83          	lw	t6,224(a4)
   16a44:	0a072283          	lw	t0,160(a4)
   16a48:	00d7e5b3          	or	a1,a5,a3
   16a4c:	08072383          	lw	t2,128(a4)
   16a50:	06072e83          	lw	t4,96(a4)
   16a54:	01c5e5b3          	or	a1,a1,t3
   16a58:	01f5e5b3          	or	a1,a1,t6
   16a5c:	0055e5b3          	or	a1,a1,t0
   16a60:	00839393          	slli	t2,t2,0x8
   16a64:	01d5e5b3          	or	a1,a1,t4
   16a68:	0075e5b3          	or	a1,a1,t2
   16a6c:	01442303          	lw	t1,20(s0)
   16a70:	00072803          	lw	a6,0(a4)
   16a74:	3a058463          	beqz	a1,16e1c <_Z8njDecodePKvi+0x126c>
   16a78:	01412d03          	lw	s10,20(sp)
   16a7c:	01d28ab3          	add	s5,t0,t4
   16a80:	01fe0c33          	add	s8,t3,t6
   16a84:	03aa8ab3          	mul	s5,s5,s10
   16a88:	00001d37          	lui	s10,0x1
   16a8c:	23500593          	li	a1,565
   16a90:	8e4d0d13          	addi	s10,s10,-1820 # 8e4 <exit-0xf7b0>
   16a94:	00d78a33          	add	s4,a5,a3
   16a98:	02bc0c33          	mul	s8,s8,a1
   16a9c:	004a8a93          	addi	s5,s5,4
   16aa0:	00881593          	slli	a1,a6,0x8
   16aa4:	016585b3          	add	a1,a1,s6
   16aa8:	00b38833          	add	a6,t2,a1
   16aac:	407585b3          	sub	a1,a1,t2
   16ab0:	00000393          	li	t2,0
   16ab4:	03ae0e33          	mul	t3,t3,s10
   16ab8:	fffffd37          	lui	s10,0xfffff
   16abc:	2b2d0d13          	addi	s10,s10,690 # fffff2b2 <__BSS_END__+0xfff6395e>
   16ac0:	004c0c13          	addi	s8,s8,4
   16ac4:	03af8fb3          	mul	t6,t6,s10
   16ac8:	018e0e33          	add	t3,t3,s8
   16acc:	403e5d13          	srai	s10,t3,0x3
   16ad0:	ce100e13          	li	t3,-799
   16ad4:	018f8fb3          	add	t6,t6,s8
   16ad8:	03c282b3          	mul	t0,t0,t3
   16adc:	403fde13          	srai	t3,t6,0x3
   16ae0:	ffffffb7          	lui	t6,0xfffff
   16ae4:	04ff8f93          	addi	t6,t6,79 # fffff04f <__BSS_END__+0xfff636fb>
   16ae8:	03fe8eb3          	mul	t4,t4,t6
   16aec:	015282b3          	add	t0,t0,s5
   16af0:	4032df93          	srai	t6,t0,0x3
   16af4:	45400293          	li	t0,1108
   16af8:	41fd0c33          	sub	s8,s10,t6
   16afc:	01fd0fb3          	add	t6,s10,t6
   16b00:	025a0a33          	mul	s4,s4,t0
   16b04:	015e8eb3          	add	t4,t4,s5
   16b08:	403eda93          	srai	s5,t4,0x3
   16b0c:	415e0eb3          	sub	t4,t3,s5
   16b10:	015e0ab3          	add	s5,t3,s5
   16b14:	01012e03          	lw	t3,16(sp)
   16b18:	01dc02b3          	add	t0,s8,t4
   16b1c:	41dc0eb3          	sub	t4,s8,t4
   16b20:	031686b3          	mul	a3,a3,a7
   16b24:	004a0a13          	addi	s4,s4,4
   16b28:	03c787b3          	mul	a5,a5,t3
   16b2c:	014686b3          	add	a3,a3,s4
   16b30:	4036d693          	srai	a3,a3,0x3
   16b34:	00d80e33          	add	t3,a6,a3
   16b38:	01cf8c33          	add	s8,t6,t3
   16b3c:	40ec5c13          	srai	s8,s8,0xe
   16b40:	40d80d33          	sub	s10,a6,a3
   16b44:	080c0c13          	addi	s8,s8,128
   16b48:	032282b3          	mul	t0,t0,s2
   16b4c:	014787b3          	add	a5,a5,s4
   16b50:	4037d793          	srai	a5,a5,0x3
   16b54:	00f586b3          	add	a3,a1,a5
   16b58:	40f585b3          	sub	a1,a1,a5
   16b5c:	032e8eb3          	mul	t4,t4,s2
   16b60:	08028293          	addi	t0,t0,128
   16b64:	4082d813          	srai	a6,t0,0x8
   16b68:	080e8293          	addi	t0,t4,128
   16b6c:	4082d293          	srai	t0,t0,0x8
   16b70:	000c4863          	bltz	s8,16b80 <_Z8njDecodePKvi+0xfd0>
   16b74:	000c8393          	mv	t2,s9
   16b78:	018f4463          	blt	t5,s8,16b80 <_Z8njDecodePKvi+0xfd0>
   16b7c:	0ffc7393          	zext.b	t2,s8
   16b80:	010687b3          	add	a5,a3,a6
   16b84:	40e7d793          	srai	a5,a5,0xe
   16b88:	00760023          	sb	t2,0(a2)
   16b8c:	08078793          	addi	a5,a5,128
   16b90:	006603b3          	add	t2,a2,t1
   16b94:	00000a13          	li	s4,0
   16b98:	0007c863          	bltz	a5,16ba8 <_Z8njDecodePKvi+0xff8>
   16b9c:	000c8a13          	mv	s4,s9
   16ba0:	00ff4463          	blt	t5,a5,16ba8 <_Z8njDecodePKvi+0xff8>
   16ba4:	0ff7fa13          	zext.b	s4,a5
   16ba8:	00558eb3          	add	t4,a1,t0
   16bac:	40eede93          	srai	t4,t4,0xe
   16bb0:	01438023          	sb	s4,0(t2)
   16bb4:	080e8e93          	addi	t4,t4,128
   16bb8:	006387b3          	add	a5,t2,t1
   16bbc:	00000393          	li	t2,0
   16bc0:	000ec863          	bltz	t4,16bd0 <_Z8njDecodePKvi+0x1020>
   16bc4:	000c8393          	mv	t2,s9
   16bc8:	01df4463          	blt	t5,t4,16bd0 <_Z8njDecodePKvi+0x1020>
   16bcc:	0ffef393          	zext.b	t2,t4
   16bd0:	01aa8eb3          	add	t4,s5,s10
   16bd4:	40eede93          	srai	t4,t4,0xe
   16bd8:	00778023          	sb	t2,0(a5)
   16bdc:	080e8e93          	addi	t4,t4,128
   16be0:	006787b3          	add	a5,a5,t1
   16be4:	00000393          	li	t2,0
   16be8:	000ec863          	bltz	t4,16bf8 <_Z8njDecodePKvi+0x1048>
   16bec:	000c8393          	mv	t2,s9
   16bf0:	01df4463          	blt	t5,t4,16bf8 <_Z8njDecodePKvi+0x1048>
   16bf4:	0ffef393          	zext.b	t2,t4
   16bf8:	415d0eb3          	sub	t4,s10,s5
   16bfc:	40eede93          	srai	t4,t4,0xe
   16c00:	00778023          	sb	t2,0(a5)
   16c04:	080e8e93          	addi	t4,t4,128
   16c08:	006787b3          	add	a5,a5,t1
   16c0c:	00000393          	li	t2,0
   16c10:	000ec863          	bltz	t4,16c20 <_Z8njDecodePKvi+0x1070>
   16c14:	000c8393          	mv	t2,s9
   16c18:	01df4463          	blt	t5,t4,16c20 <_Z8njDecodePKvi+0x1070>
   16c1c:	0ffef393          	zext.b	t2,t4
   16c20:	405585b3          	sub	a1,a1,t0
   16c24:	40e5d593          	srai	a1,a1,0xe
   16c28:	00778023          	sb	t2,0(a5)
   16c2c:	08058593          	addi	a1,a1,128
   16c30:	006787b3          	add	a5,a5,t1
   16c34:	00000e93          	li	t4,0
   16c38:	0005c863          	bltz	a1,16c48 <_Z8njDecodePKvi+0x1098>
   16c3c:	000c8e93          	mv	t4,s9
   16c40:	00bf4463          	blt	t5,a1,16c48 <_Z8njDecodePKvi+0x1098>
   16c44:	0ff5fe93          	zext.b	t4,a1
   16c48:	410686b3          	sub	a3,a3,a6
   16c4c:	40e6d693          	srai	a3,a3,0xe
   16c50:	01d78023          	sb	t4,0(a5)
   16c54:	08068693          	addi	a3,a3,128
   16c58:	006787b3          	add	a5,a5,t1
   16c5c:	00000593          	li	a1,0
   16c60:	0006c863          	bltz	a3,16c70 <_Z8njDecodePKvi+0x10c0>
   16c64:	000c8593          	mv	a1,s9
   16c68:	00df4463          	blt	t5,a3,16c70 <_Z8njDecodePKvi+0x10c0>
   16c6c:	0ff6f593          	zext.b	a1,a3
   16c70:	41fe06b3          	sub	a3,t3,t6
   16c74:	40e6d693          	srai	a3,a3,0xe
   16c78:	00b78023          	sb	a1,0(a5)
   16c7c:	08068693          	addi	a3,a3,128
   16c80:	006787b3          	add	a5,a5,t1
   16c84:	00000593          	li	a1,0
   16c88:	0006c863          	bltz	a3,16c98 <_Z8njDecodePKvi+0x10e8>
   16c8c:	000c8593          	mv	a1,s9
   16c90:	00df4463          	blt	t5,a3,16c98 <_Z8njDecodePKvi+0x10e8>
   16c94:	0ff6f593          	zext.b	a1,a3
   16c98:	00b78023          	sb	a1,0(a5)
   16c9c:	00470713          	addi	a4,a4,4
   16ca0:	00160613          	addi	a2,a2,1
   16ca4:	d8a718e3          	bne	a4,a0,16a34 <_Z8njDecodePKvi+0xe84>
   16ca8:	000ba503          	lw	a0,0(s7)
   16cac:	1e051063          	bnez	a0,16e8c <_Z8njDecodePKvi+0x12dc>
   16cb0:	00442d03          	lw	s10,4(s0)
   16cb4:	00148493          	addi	s1,s1,1
   16cb8:	00842903          	lw	s2,8(s0)
   16cbc:	a7a4c0e3          	blt	s1,s10,1671c <_Z8njDecodePKvi+0xb6c>
   16cc0:	00198813          	addi	a6,s3,1
   16cc4:	02412a83          	lw	s5,36(sp)
   16cc8:	02812a03          	lw	s4,40(sp)
   16ccc:	02c12483          	lw	s1,44(sp)
   16cd0:	a32848e3          	blt	a6,s2,16700 <_Z8njDecodePKvi+0xb50>
   16cd4:	00040d13          	mv	s10,s0
   16cd8:	028ba783          	lw	a5,40(s7)
   16cdc:	001a8a93          	addi	s5,s5,1
   16ce0:	02cd0d13          	addi	s10,s10,44
   16ce4:	9efacce3          	blt	s5,a5,166dc <_Z8njDecodePKvi+0xb2c>
   16ce8:	00812d83          	lw	s11,8(sp)
   16cec:	00048993          	mv	s3,s1
   16cf0:	018ba783          	lw	a5,24(s7)
   16cf4:	001d8d93          	addi	s11,s11,1
   16cf8:	00fdce63          	blt	s11,a5,16d14 <_Z8njDecodePKvi+0x1164>
   16cfc:	00412703          	lw	a4,4(sp)
   16d00:	01cba783          	lw	a5,28(s7)
   16d04:	00170713          	addi	a4,a4,1
   16d08:	00e12223          	sw	a4,4(sp)
   16d0c:	18f75663          	bge	a4,a5,16e98 <_Z8njDecodePKvi+0x12e8>
   16d10:	00000d93          	li	s11,0
   16d14:	00085797          	auipc	a5,0x85
   16d18:	95078793          	addi	a5,a5,-1712 # 9b664 <__global_pointer$+0x7fcac>
   16d1c:	2c07a783          	lw	a5,704(a5)
   16d20:	98078ce3          	beqz	a5,166b8 <_Z8njDecodePKvi+0xb08>
   16d24:	fffa0a13          	addi	s4,s4,-1
   16d28:	980a18e3          	bnez	s4,166b8 <_Z8njDecodePKvi+0xb08>
   16d2c:	00085717          	auipc	a4,0x85
   16d30:	93870713          	addi	a4,a4,-1736 # 9b664 <__global_pointer$+0x7fcac>
   16d34:	1bc72783          	lw	a5,444(a4)
   16d38:	01000513          	li	a0,16
   16d3c:	00070413          	mv	s0,a4
   16d40:	0f87f793          	andi	a5,a5,248
   16d44:	1af72e23          	sw	a5,444(a4)
   16d48:	b81fe0ef          	jal	ra,158c8 <_ZL10njShowBitsi.part.0>
   16d4c:	1bc42703          	lw	a4,444(s0)
   16d50:	00f00793          	li	a5,15
   16d54:	00050413          	mv	s0,a0
   16d58:	00e7c663          	blt	a5,a4,16d64 <_Z8njDecodePKvi+0x11b4>
   16d5c:	01000513          	li	a0,16
   16d60:	b69fe0ef          	jal	ra,158c8 <_ZL10njShowBitsi.part.0>
   16d64:	00085617          	auipc	a2,0x85
   16d68:	90060613          	addi	a2,a2,-1792 # 9b664 <__global_pointer$+0x7fcac>
   16d6c:	1bc62683          	lw	a3,444(a2)
   16d70:	000107b7          	lui	a5,0x10
   16d74:	ff878713          	addi	a4,a5,-8 # fff8 <exit-0x9c>
   16d78:	ff068693          	addi	a3,a3,-16
   16d7c:	1ad62e23          	sw	a3,444(a2)
   16d80:	00e47733          	and	a4,s0,a4
   16d84:	fd078793          	addi	a5,a5,-48
   16d88:	84f71463          	bne	a4,a5,15dd0 <_Z8njDecodePKvi+0x220>
   16d8c:	00747413          	andi	s0,s0,7
   16d90:	85341063          	bne	s0,s3,15dd0 <_Z8njDecodePKvi+0x220>
   16d94:	00198793          	addi	a5,s3,1
   16d98:	0077f993          	andi	s3,a5,7
   16d9c:	2c062a03          	lw	s4,704(a2)
   16da0:	00005797          	auipc	a5,0x5
   16da4:	9007aa23          	sw	zero,-1772(a5) # 1b6b4 <_ZL2nj+0x50>
   16da8:	00005797          	auipc	a5,0x5
   16dac:	9207ac23          	sw	zero,-1736(a5) # 1b6e0 <_ZL2nj+0x7c>
   16db0:	00005797          	auipc	a5,0x5
   16db4:	9407ae23          	sw	zero,-1700(a5) # 1b70c <_ZL2nj+0xa8>
   16db8:	901ff06f          	j	166b8 <_Z8njDecodePKvi+0xb08>
   16dbc:	00500713          	li	a4,5
   16dc0:	00eba023          	sw	a4,0(s7)
   16dc4:	811ff06f          	j	165d4 <_Z8njDecodePKvi+0xa24>
   16dc8:	028ba703          	lw	a4,40(s7)
   16dcc:	00aba023          	sw	a0,0(s7)
   16dd0:	00158593          	addi	a1,a1,1
   16dd4:	02c60613          	addi	a2,a2,44
   16dd8:	80e5c8e3          	blt	a1,a4,165e8 <_Z8njDecodePKvi+0xa38>
   16ddc:	871ff06f          	j	1664c <_Z8njDecodePKvi+0xa9c>
   16de0:	0f05f593          	andi	a1,a1,240
   16de4:	0e000693          	li	a3,224
   16de8:	a0d59c63          	bne	a1,a3,16000 <_Z8njDecodePKvi+0x450>
   16dec:	00100693          	li	a3,1
   16df0:	830ff06f          	j	15e20 <_Z8njDecodePKvi+0x270>
   16df4:	00500693          	li	a3,5
   16df8:	00dba023          	sw	a3,0(s7)
   16dfc:	decff06f          	j	163e8 <_Z8njDecodePKvi+0x838>
   16e00:	00e7e7b3          	or	a5,a5,a4
   16e04:	0afba823          	sw	a5,176(s7)
   16e08:	0046a783          	lw	a5,4(a3)
   16e0c:	010ba023          	sw	a6,0(s7)
   16e10:	e8f9dc63          	bge	s3,a5,164a8 <_Z8njDecodePKvi+0x8f8>
   16e14:	00078993          	mv	s3,a5
   16e18:	e90ff06f          	j	164a8 <_Z8njDecodePKvi+0x8f8>
   16e1c:	02080793          	addi	a5,a6,32
   16e20:	4067d793          	srai	a5,a5,0x6
   16e24:	08078793          	addi	a5,a5,128
   16e28:	00000693          	li	a3,0
   16e2c:	0007c863          	bltz	a5,16e3c <_Z8njDecodePKvi+0x128c>
   16e30:	000c8693          	mv	a3,s9
   16e34:	00ff4463          	blt	t5,a5,16e3c <_Z8njDecodePKvi+0x128c>
   16e38:	0ff7f693          	zext.b	a3,a5
   16e3c:	00d60023          	sb	a3,0(a2)
   16e40:	006607b3          	add	a5,a2,t1
   16e44:	00d78023          	sb	a3,0(a5)
   16e48:	006787b3          	add	a5,a5,t1
   16e4c:	00d78023          	sb	a3,0(a5)
   16e50:	006787b3          	add	a5,a5,t1
   16e54:	00d78023          	sb	a3,0(a5)
   16e58:	006787b3          	add	a5,a5,t1
   16e5c:	00d78023          	sb	a3,0(a5)
   16e60:	006787b3          	add	a5,a5,t1
   16e64:	00d78023          	sb	a3,0(a5)
   16e68:	006787b3          	add	a5,a5,t1
   16e6c:	00d78023          	sb	a3,0(a5)
   16e70:	006787b3          	add	a5,a5,t1
   16e74:	00d78023          	sb	a3,0(a5)
   16e78:	e25ff06f          	j	16c9c <_Z8njDecodePKvi+0x10ec>
   16e7c:	00081463          	bnez	a6,16e84 <_Z8njDecodePKvi+0x12d4>
   16e80:	ff5fe06f          	j	15e74 <_Z8njDecodePKvi+0x2c4>
   16e84:	f4dfe06f          	j	15dd0 <_Z8njDecodePKvi+0x220>
   16e88:	00812023          	sw	s0,0(sp)
   16e8c:	00600793          	li	a5,6
   16e90:	00f50463          	beq	a0,a5,16e98 <_Z8njDecodePKvi+0x12e8>
   16e94:	f49fe06f          	j	15ddc <_Z8njDecodePKvi+0x22c>
   16e98:	028ba783          	lw	a5,40(s7)
   16e9c:	00004717          	auipc	a4,0x4
   16ea0:	7c072423          	sw	zero,1992(a4) # 1b664 <_ZL2nj>
   16ea4:	1af058e3          	blez	a5,17854 <_Z8njDecodePKvi+0x1ca4>
   16ea8:	010ba783          	lw	a5,16(s7)
   16eac:	00012983          	lw	s3,0(sp)
   16eb0:	00004d97          	auipc	s11,0x4
   16eb4:	7e0d8d93          	addi	s11,s11,2016 # 1b690 <_ZL2nj+0x2c>
   16eb8:	00000413          	li	s0,0
   16ebc:	0ff00913          	li	s2,255
   16ec0:	000d8d13          	mv	s10,s11
   16ec4:	010d2683          	lw	a3,16(s10)
   16ec8:	02812023          	sw	s0,32(sp)
   16ecc:	00cd2403          	lw	s0,12(s10)
   16ed0:	00068a13          	mv	s4,a3
   16ed4:	000a0493          	mv	s1,s4
   16ed8:	32f45263          	bge	s0,a5,171fc <_Z8njDecodePKvi+0x164c>
   16edc:	02940533          	mul	a0,s0,s1
   16ee0:	00151513          	slli	a0,a0,0x1
   16ee4:	379000ef          	jal	ra,17a5c <malloc>
   16ee8:	00050a13          	mv	s4,a0
   16eec:	260504e3          	beqz	a0,17954 <_Z8njDecodePKvi+0x1da4>
   16ef0:	028d2503          	lw	a0,40(s10)
   16ef4:	00141f93          	slli	t6,s0,0x1
   16ef8:	2c048663          	beqz	s1,171c4 <_Z8njDecodePKvi+0x1614>
   16efc:	014d2f03          	lw	t5,20(s10)
   16f00:	008505b3          	add	a1,a0,s0
   16f04:	ffd58593          	addi	a1,a1,-3
   16f08:	000a0813          	mv	a6,s4
   16f0c:	00050613          	mv	a2,a0
   16f10:	08b00e93          	li	t4,139
   16f14:	ff500e13          	li	t3,-11
   16f18:	06800313          	li	t1,104
   16f1c:	06d00893          	li	a7,109
   16f20:	00300293          	li	t0,3
   16f24:	00064783          	lbu	a5,0(a2)
   16f28:	00164703          	lbu	a4,1(a2)
   16f2c:	00000693          	li	a3,0
   16f30:	03d787b3          	mul	a5,a5,t4
   16f34:	03c70733          	mul	a4,a4,t3
   16f38:	00e787b3          	add	a5,a5,a4
   16f3c:	04078793          	addi	a5,a5,64
   16f40:	4077d713          	srai	a4,a5,0x7
   16f44:	0007c863          	bltz	a5,16f54 <_Z8njDecodePKvi+0x13a4>
   16f48:	00098693          	mv	a3,s3
   16f4c:	00e94463          	blt	s2,a4,16f54 <_Z8njDecodePKvi+0x13a4>
   16f50:	0ff77693          	zext.b	a3,a4
   16f54:	00d80023          	sb	a3,0(a6)
   16f58:	00064783          	lbu	a5,0(a2)
   16f5c:	00164383          	lbu	t2,1(a2)
   16f60:	00264683          	lbu	a3,2(a2)
   16f64:	026787b3          	mul	a5,a5,t1
   16f68:	00339713          	slli	a4,t2,0x3
   16f6c:	40770733          	sub	a4,a4,t2
   16f70:	00271713          	slli	a4,a4,0x2
   16f74:	40770733          	sub	a4,a4,t2
   16f78:	00269393          	slli	t2,a3,0x2
   16f7c:	407686b3          	sub	a3,a3,t2
   16f80:	00000393          	li	t2,0
   16f84:	00e787b3          	add	a5,a5,a4
   16f88:	00d787b3          	add	a5,a5,a3
   16f8c:	04078793          	addi	a5,a5,64
   16f90:	4077d713          	srai	a4,a5,0x7
   16f94:	0007c863          	bltz	a5,16fa4 <_Z8njDecodePKvi+0x13f4>
   16f98:	00098393          	mv	t2,s3
   16f9c:	00e94463          	blt	s2,a4,16fa4 <_Z8njDecodePKvi+0x13f4>
   16fa0:	0ff77393          	zext.b	t2,a4
   16fa4:	007800a3          	sb	t2,1(a6)
   16fa8:	00164683          	lbu	a3,1(a2)
   16fac:	00064703          	lbu	a4,0(a2)
   16fb0:	00264383          	lbu	t2,2(a2)
   16fb4:	031686b3          	mul	a3,a3,a7
   16fb8:	00371793          	slli	a5,a4,0x3
   16fbc:	40e787b3          	sub	a5,a5,a4
   16fc0:	00279793          	slli	a5,a5,0x2
   16fc4:	00339713          	slli	a4,t2,0x3
   16fc8:	00770733          	add	a4,a4,t2
   16fcc:	00000393          	li	t2,0
   16fd0:	00d787b3          	add	a5,a5,a3
   16fd4:	40e787b3          	sub	a5,a5,a4
   16fd8:	04078793          	addi	a5,a5,64
   16fdc:	4077d713          	srai	a4,a5,0x7
   16fe0:	0007c863          	bltz	a5,16ff0 <_Z8njDecodePKvi+0x1440>
   16fe4:	00098393          	mv	t2,s3
   16fe8:	00e94463          	blt	s2,a4,16ff0 <_Z8njDecodePKvi+0x1440>
   16fec:	0ff77393          	zext.b	t2,a4
   16ff0:	00780123          	sb	t2,2(a6)
   16ff4:	00060713          	mv	a4,a2
   16ff8:	00380693          	addi	a3,a6,3
   16ffc:	0e82d463          	bge	t0,s0,170e4 <_Z8njDecodePKvi+0x1534>
   17000:	00174c03          	lbu	s8,1(a4)
   17004:	00274b03          	lbu	s6,2(a4)
   17008:	00074c83          	lbu	s9,0(a4)
   1700c:	003c1793          	slli	a5,s8,0x3
   17010:	00374083          	lbu	ra,3(a4)
   17014:	418787b3          	sub	a5,a5,s8
   17018:	003b1393          	slli	t2,s6,0x3
   1701c:	003c9a93          	slli	s5,s9,0x3
   17020:	00479793          	slli	a5,a5,0x4
   17024:	416383b3          	sub	t2,t2,s6
   17028:	019a8ab3          	add	s5,s5,s9
   1702c:	418787b3          	sub	a5,a5,s8
   17030:	00239393          	slli	t2,t2,0x2
   17034:	415787b3          	sub	a5,a5,s5
   17038:	016383b3          	add	t2,t2,s6
   1703c:	00209a93          	slli	s5,ra,0x2
   17040:	007787b3          	add	a5,a5,t2
   17044:	415080b3          	sub	ra,ra,s5
   17048:	001787b3          	add	a5,a5,ra
   1704c:	04078793          	addi	a5,a5,64
   17050:	4077d093          	srai	ra,a5,0x7
   17054:	00000393          	li	t2,0
   17058:	0007c863          	bltz	a5,17068 <_Z8njDecodePKvi+0x14b8>
   1705c:	00098393          	mv	t2,s3
   17060:	00194463          	blt	s2,ra,17068 <_Z8njDecodePKvi+0x14b8>
   17064:	0ff0f393          	zext.b	t2,ra
   17068:	00768023          	sb	t2,0(a3)
   1706c:	00174c03          	lbu	s8,1(a4)
   17070:	00274a83          	lbu	s5,2(a4)
   17074:	00074b03          	lbu	s6,0(a4)
   17078:	003c1793          	slli	a5,s8,0x3
   1707c:	00374083          	lbu	ra,3(a4)
   17080:	003a9393          	slli	t2,s5,0x3
   17084:	418787b3          	sub	a5,a5,s8
   17088:	415383b3          	sub	t2,t2,s5
   1708c:	00279793          	slli	a5,a5,0x2
   17090:	002b1c93          	slli	s9,s6,0x2
   17094:	018787b3          	add	a5,a5,s8
   17098:	419b0b33          	sub	s6,s6,s9
   1709c:	00439393          	slli	t2,t2,0x4
   170a0:	415383b3          	sub	t2,t2,s5
   170a4:	016787b3          	add	a5,a5,s6
   170a8:	00309a93          	slli	s5,ra,0x3
   170ac:	007787b3          	add	a5,a5,t2
   170b0:	001a83b3          	add	t2,s5,ra
   170b4:	407787b3          	sub	a5,a5,t2
   170b8:	04078793          	addi	a5,a5,64
   170bc:	4077d093          	srai	ra,a5,0x7
   170c0:	00000393          	li	t2,0
   170c4:	0007c863          	bltz	a5,170d4 <_Z8njDecodePKvi+0x1524>
   170c8:	00098393          	mv	t2,s3
   170cc:	00194463          	blt	s2,ra,170d4 <_Z8njDecodePKvi+0x1524>
   170d0:	0ff0f393          	zext.b	t2,ra
   170d4:	007680a3          	sb	t2,1(a3)
   170d8:	00170713          	addi	a4,a4,1
   170dc:	00268693          	addi	a3,a3,2
   170e0:	f2b710e3          	bne	a4,a1,17000 <_Z8njDecodePKvi+0x1450>
   170e4:	01e60633          	add	a2,a2,t5
   170e8:	ffe64683          	lbu	a3,-2(a2)
   170ec:	fff64703          	lbu	a4,-1(a2)
   170f0:	ffd64383          	lbu	t2,-3(a2)
   170f4:	031686b3          	mul	a3,a3,a7
   170f8:	00371793          	slli	a5,a4,0x3
   170fc:	40e787b3          	sub	a5,a5,a4
   17100:	00279793          	slli	a5,a5,0x2
   17104:	00339713          	slli	a4,t2,0x3
   17108:	00770733          	add	a4,a4,t2
   1710c:	01f80833          	add	a6,a6,t6
   17110:	00d787b3          	add	a5,a5,a3
   17114:	40e787b3          	sub	a5,a5,a4
   17118:	04078793          	addi	a5,a5,64
   1711c:	4077d713          	srai	a4,a5,0x7
   17120:	4e07ca63          	bltz	a5,17614 <_Z8njDecodePKvi+0x1a64>
   17124:	00098793          	mv	a5,s3
   17128:	00e94463          	blt	s2,a4,17130 <_Z8njDecodePKvi+0x1580>
   1712c:	0ff77793          	zext.b	a5,a4
   17130:	fef80ea3          	sb	a5,-3(a6)
   17134:	fff64783          	lbu	a5,-1(a2)
   17138:	ffe64383          	lbu	t2,-2(a2)
   1713c:	ffd64683          	lbu	a3,-3(a2)
   17140:	026787b3          	mul	a5,a5,t1
   17144:	00339713          	slli	a4,t2,0x3
   17148:	40770733          	sub	a4,a4,t2
   1714c:	00271713          	slli	a4,a4,0x2
   17150:	40770733          	sub	a4,a4,t2
   17154:	00269393          	slli	t2,a3,0x2
   17158:	407686b3          	sub	a3,a3,t2
   1715c:	00000393          	li	t2,0
   17160:	00e787b3          	add	a5,a5,a4
   17164:	00d787b3          	add	a5,a5,a3
   17168:	04078793          	addi	a5,a5,64
   1716c:	4077d713          	srai	a4,a5,0x7
   17170:	0007c863          	bltz	a5,17180 <_Z8njDecodePKvi+0x15d0>
   17174:	00098393          	mv	t2,s3
   17178:	00e94463          	blt	s2,a4,17180 <_Z8njDecodePKvi+0x15d0>
   1717c:	0ff77393          	zext.b	t2,a4
   17180:	fe780f23          	sb	t2,-2(a6)
   17184:	fff64783          	lbu	a5,-1(a2)
   17188:	ffe64703          	lbu	a4,-2(a2)
   1718c:	00000693          	li	a3,0
   17190:	03d787b3          	mul	a5,a5,t4
   17194:	03c70733          	mul	a4,a4,t3
   17198:	00e787b3          	add	a5,a5,a4
   1719c:	04078793          	addi	a5,a5,64
   171a0:	4077d713          	srai	a4,a5,0x7
   171a4:	0007c863          	bltz	a5,171b4 <_Z8njDecodePKvi+0x1604>
   171a8:	00098693          	mv	a3,s3
   171ac:	00e94463          	blt	s2,a4,171b4 <_Z8njDecodePKvi+0x1604>
   171b0:	0ff77693          	zext.b	a3,a4
   171b4:	fed80fa3          	sb	a3,-1(a6)
   171b8:	fff48493          	addi	s1,s1,-1
   171bc:	01e585b3          	add	a1,a1,t5
   171c0:	d60492e3          	bnez	s1,16f24 <_Z8njDecodePKvi+0x1374>
   171c4:	01fd2623          	sw	t6,12(s10)
   171c8:	01fd2a23          	sw	t6,20(s10)
   171cc:	09d000ef          	jal	ra,17a68 <free>
   171d0:	000ba503          	lw	a0,0(s7)
   171d4:	034d2423          	sw	s4,40(s10)
   171d8:	00050463          	beqz	a0,171e0 <_Z8njDecodePKvi+0x1630>
   171dc:	c01fe06f          	j	15ddc <_Z8njDecodePKvi+0x22c>
   171e0:	010d2a03          	lw	s4,16(s10)
   171e4:	014ba783          	lw	a5,20(s7)
   171e8:	66fa4263          	blt	s4,a5,1784c <_Z8njDecodePKvi+0x1c9c>
   171ec:	010ba783          	lw	a5,16(s7)
   171f0:	00cd2403          	lw	s0,12(s10)
   171f4:	000a0493          	mv	s1,s4
   171f8:	cef442e3          	blt	s0,a5,16edc <_Z8njDecodePKvi+0x132c>
   171fc:	014ba503          	lw	a0,20(s7)
   17200:	50aa5c63          	bge	s4,a0,17718 <_Z8njDecodePKvi+0x1b68>
   17204:	000ba503          	lw	a0,0(s7)
   17208:	00050463          	beqz	a0,17210 <_Z8njDecodePKvi+0x1660>
   1720c:	bd1fe06f          	j	15ddc <_Z8njDecodePKvi+0x22c>
   17210:	028a0533          	mul	a0,s4,s0
   17214:	014d2483          	lw	s1,20(s10)
   17218:	00149d93          	slli	s11,s1,0x1
   1721c:	00151513          	slli	a0,a0,0x1
   17220:	03d000ef          	jal	ra,17a5c <malloc>
   17224:	00050c13          	mv	s8,a0
   17228:	72050663          	beqz	a0,17954 <_Z8njDecodePKvi+0x1da4>
   1722c:	028d2703          	lw	a4,40(s10)
   17230:	3a805a63          	blez	s0,175e4 <_Z8njDecodePKvi+0x1a34>
   17234:	ffca0693          	addi	a3,s4,-4
   17238:	ffea0793          	addi	a5,s4,-2
   1723c:	02968cb3          	mul	s9,a3,s1
   17240:	ffda0a93          	addi	s5,s4,-3
   17244:	00970e33          	add	t3,a4,s1
   17248:	01b480b3          	add	ra,s1,s11
   1724c:	00070e93          	mv	t4,a4
   17250:	001700b3          	add	ra,a4,ra
   17254:	00870b33          	add	s6,a4,s0
   17258:	000d0f13          	mv	t5,s10
   1725c:	009e03b3          	add	t2,t3,s1
   17260:	00070d13          	mv	s10,a4
   17264:	028787b3          	mul	a5,a5,s0
   17268:	01bc8db3          	add	s11,s9,s11
   1726c:	00850fb3          	add	t6,a0,s0
   17270:	00050693          	mv	a3,a0
   17274:	00141293          	slli	t0,s0,0x1
   17278:	01912c23          	sw	s9,24(sp)
   1727c:	01b12e23          	sw	s11,28(sp)
   17280:	00050713          	mv	a4,a0
   17284:	029a8633          	mul	a2,s5,s1
   17288:	00179793          	slli	a5,a5,0x1
   1728c:	00f12a23          	sw	a5,20(sp)
   17290:	00c12823          	sw	a2,16(sp)
   17294:	000ec783          	lbu	a5,0(t4)
   17298:	000e4583          	lbu	a1,0(t3)
   1729c:	08b00813          	li	a6,139
   172a0:	030787b3          	mul	a5,a5,a6
   172a4:	ff500813          	li	a6,-11
   172a8:	000e8313          	mv	t1,t4
   172ac:	000e0513          	mv	a0,t3
   172b0:	00000613          	li	a2,0
   172b4:	030585b3          	mul	a1,a1,a6
   172b8:	00b787b3          	add	a5,a5,a1
   172bc:	04078793          	addi	a5,a5,64
   172c0:	4077d593          	srai	a1,a5,0x7
   172c4:	0007c863          	bltz	a5,172d4 <_Z8njDecodePKvi+0x1724>
   172c8:	00098613          	mv	a2,s3
   172cc:	00b94463          	blt	s2,a1,172d4 <_Z8njDecodePKvi+0x1724>
   172d0:	0ff5f613          	zext.b	a2,a1
   172d4:	00c68023          	sb	a2,0(a3)
   172d8:	000ec783          	lbu	a5,0(t4)
   172dc:	06800593          	li	a1,104
   172e0:	000e4603          	lbu	a2,0(t3)
   172e4:	02b787b3          	mul	a5,a5,a1
   172e8:	0003c803          	lbu	a6,0(t2)
   172ec:	00361593          	slli	a1,a2,0x3
   172f0:	40c585b3          	sub	a1,a1,a2
   172f4:	00259593          	slli	a1,a1,0x2
   172f8:	40c585b3          	sub	a1,a1,a2
   172fc:	00281613          	slli	a2,a6,0x2
   17300:	40c80833          	sub	a6,a6,a2
   17304:	00000893          	li	a7,0
   17308:	00038613          	mv	a2,t2
   1730c:	00b787b3          	add	a5,a5,a1
   17310:	010787b3          	add	a5,a5,a6
   17314:	04078793          	addi	a5,a5,64
   17318:	4077d593          	srai	a1,a5,0x7
   1731c:	0007c863          	bltz	a5,1732c <_Z8njDecodePKvi+0x177c>
   17320:	00098893          	mv	a7,s3
   17324:	00b94463          	blt	s2,a1,1732c <_Z8njDecodePKvi+0x177c>
   17328:	0ff5f893          	zext.b	a7,a1
   1732c:	011f8023          	sb	a7,0(t6)
   17330:	000e4803          	lbu	a6,0(t3)
   17334:	06d00793          	li	a5,109
   17338:	000ec583          	lbu	a1,0(t4)
   1733c:	02f80833          	mul	a6,a6,a5
   17340:	0003c883          	lbu	a7,0(t2)
   17344:	00359793          	slli	a5,a1,0x3
   17348:	40b787b3          	sub	a5,a5,a1
   1734c:	00279793          	slli	a5,a5,0x2
   17350:	00389593          	slli	a1,a7,0x3
   17354:	011585b3          	add	a1,a1,a7
   17358:	00000893          	li	a7,0
   1735c:	010787b3          	add	a5,a5,a6
   17360:	40b787b3          	sub	a5,a5,a1
   17364:	04078793          	addi	a5,a5,64
   17368:	4077d593          	srai	a1,a5,0x7
   1736c:	0007c863          	bltz	a5,1737c <_Z8njDecodePKvi+0x17cc>
   17370:	00098893          	mv	a7,s3
   17374:	00b94463          	blt	s2,a1,1737c <_Z8njDecodePKvi+0x17cc>
   17378:	0ff5f893          	zext.b	a7,a1
   1737c:	008f87b3          	add	a5,t6,s0
   17380:	01178023          	sb	a7,0(a5)
   17384:	005f85b3          	add	a1,t6,t0
   17388:	140a8663          	beqz	s5,174d4 <_Z8njDecodePKvi+0x1924>
   1738c:	00100793          	li	a5,1
   17390:	01f12223          	sw	t6,4(sp)
   17394:	00d12423          	sw	a3,8(sp)
   17398:	00712623          	sw	t2,12(sp)
   1739c:	00008313          	mv	t1,ra
   173a0:	000e8893          	mv	a7,t4
   173a4:	000e0813          	mv	a6,t3
   173a8:	000a8c13          	mv	s8,s5
   173ac:	26f49863          	bne	s1,a5,1761c <_Z8njDecodePKvi+0x1a6c>
   173b0:	00084c83          	lbu	s9,0(a6)
   173b4:	00154f83          	lbu	t6,1(a0)
   173b8:	0008cd83          	lbu	s11,0(a7)
   173bc:	003c9793          	slli	a5,s9,0x3
   173c0:	00034603          	lbu	a2,0(t1) # 10000 <exit-0x94>
   173c4:	003f9693          	slli	a3,t6,0x3
   173c8:	419787b3          	sub	a5,a5,s9
   173cc:	41f686b3          	sub	a3,a3,t6
   173d0:	003d9393          	slli	t2,s11,0x3
   173d4:	00479793          	slli	a5,a5,0x4
   173d8:	01b383b3          	add	t2,t2,s11
   173dc:	419787b3          	sub	a5,a5,s9
   173e0:	00269693          	slli	a3,a3,0x2
   173e4:	01f686b3          	add	a3,a3,t6
   173e8:	407787b3          	sub	a5,a5,t2
   173ec:	00261f93          	slli	t6,a2,0x2
   173f0:	00d787b3          	add	a5,a5,a3
   173f4:	41f60633          	sub	a2,a2,t6
   173f8:	00c787b3          	add	a5,a5,a2
   173fc:	04078793          	addi	a5,a5,64
   17400:	00150513          	addi	a0,a0,1
   17404:	4077d613          	srai	a2,a5,0x7
   17408:	00000693          	li	a3,0
   1740c:	0007c863          	bltz	a5,1741c <_Z8njDecodePKvi+0x186c>
   17410:	00098693          	mv	a3,s3
   17414:	00c94463          	blt	s2,a2,1741c <_Z8njDecodePKvi+0x186c>
   17418:	0ff67693          	zext.b	a3,a2
   1741c:	00d58023          	sb	a3,0(a1)
   17420:	00084383          	lbu	t2,0(a6)
   17424:	00054f83          	lbu	t6,0(a0)
   17428:	0008cd83          	lbu	s11,0(a7)
   1742c:	00339613          	slli	a2,t2,0x3
   17430:	00034c83          	lbu	s9,0(t1)
   17434:	40760633          	sub	a2,a2,t2
   17438:	003f9693          	slli	a3,t6,0x3
   1743c:	00261613          	slli	a2,a2,0x2
   17440:	002d9793          	slli	a5,s11,0x2
   17444:	41f686b3          	sub	a3,a3,t6
   17448:	00760633          	add	a2,a2,t2
   1744c:	40fd87b3          	sub	a5,s11,a5
   17450:	00469693          	slli	a3,a3,0x4
   17454:	00f607b3          	add	a5,a2,a5
   17458:	41f686b3          	sub	a3,a3,t6
   1745c:	003c9613          	slli	a2,s9,0x3
   17460:	00d787b3          	add	a5,a5,a3
   17464:	01960633          	add	a2,a2,s9
   17468:	40c787b3          	sub	a5,a5,a2
   1746c:	04078793          	addi	a5,a5,64
   17470:	4077d613          	srai	a2,a5,0x7
   17474:	00000693          	li	a3,0
   17478:	0007c863          	bltz	a5,17488 <_Z8njDecodePKvi+0x18d8>
   1747c:	00098693          	mv	a3,s3
   17480:	00c94463          	blt	s2,a2,17488 <_Z8njDecodePKvi+0x18d8>
   17484:	0ff67693          	zext.b	a3,a2
   17488:	008587b3          	add	a5,a1,s0
   1748c:	00d78023          	sb	a3,0(a5)
   17490:	fffc0c13          	addi	s8,s8,-1
   17494:	005585b3          	add	a1,a1,t0
   17498:	00180813          	addi	a6,a6,1
   1749c:	00188893          	addi	a7,a7,1
   174a0:	00130313          	addi	t1,t1,1
   174a4:	f00c16e3          	bnez	s8,173b0 <_Z8njDecodePKvi+0x1800>
   174a8:	01012783          	lw	a5,16(sp)
   174ac:	00412f83          	lw	t6,4(sp)
   174b0:	00812683          	lw	a3,8(sp)
   174b4:	01c78533          	add	a0,a5,t3
   174b8:	01c12783          	lw	a5,28(sp)
   174bc:	00c12383          	lw	t2,12(sp)
   174c0:	01c78633          	add	a2,a5,t3
   174c4:	01412783          	lw	a5,20(sp)
   174c8:	00ff85b3          	add	a1,t6,a5
   174cc:	01812783          	lw	a5,24(sp)
   174d0:	01c78333          	add	t1,a5,t3
   174d4:	00054883          	lbu	a7,0(a0)
   174d8:	06d00793          	li	a5,109
   174dc:	00064803          	lbu	a6,0(a2)
   174e0:	02f888b3          	mul	a7,a7,a5
   174e4:	00034c03          	lbu	s8,0(t1)
   174e8:	00381793          	slli	a5,a6,0x3
   174ec:	410787b3          	sub	a5,a5,a6
   174f0:	00279793          	slli	a5,a5,0x2
   174f4:	003c1813          	slli	a6,s8,0x3
   174f8:	01880833          	add	a6,a6,s8
   174fc:	00000c13          	li	s8,0
   17500:	011787b3          	add	a5,a5,a7
   17504:	410787b3          	sub	a5,a5,a6
   17508:	04078793          	addi	a5,a5,64
   1750c:	4077d813          	srai	a6,a5,0x7
   17510:	0007c863          	bltz	a5,17520 <_Z8njDecodePKvi+0x1970>
   17514:	00098c13          	mv	s8,s3
   17518:	01094463          	blt	s2,a6,17520 <_Z8njDecodePKvi+0x1970>
   1751c:	0ff87c13          	zext.b	s8,a6
   17520:	01858023          	sb	s8,0(a1)
   17524:	00064783          	lbu	a5,0(a2)
   17528:	06800813          	li	a6,104
   1752c:	00054883          	lbu	a7,0(a0)
   17530:	030787b3          	mul	a5,a5,a6
   17534:	00034303          	lbu	t1,0(t1)
   17538:	00389813          	slli	a6,a7,0x3
   1753c:	41180833          	sub	a6,a6,a7
   17540:	00281813          	slli	a6,a6,0x2
   17544:	41180833          	sub	a6,a6,a7
   17548:	00231893          	slli	a7,t1,0x2
   1754c:	411308b3          	sub	a7,t1,a7
   17550:	008585b3          	add	a1,a1,s0
   17554:	00000313          	li	t1,0
   17558:	010787b3          	add	a5,a5,a6
   1755c:	011787b3          	add	a5,a5,a7
   17560:	04078793          	addi	a5,a5,64
   17564:	4077d813          	srai	a6,a5,0x7
   17568:	0007c863          	bltz	a5,17578 <_Z8njDecodePKvi+0x19c8>
   1756c:	00098313          	mv	t1,s3
   17570:	01094463          	blt	s2,a6,17578 <_Z8njDecodePKvi+0x19c8>
   17574:	0ff87313          	zext.b	t1,a6
   17578:	00658023          	sb	t1,0(a1)
   1757c:	00064783          	lbu	a5,0(a2)
   17580:	00054603          	lbu	a2,0(a0)
   17584:	ff500813          	li	a6,-11
   17588:	08b00513          	li	a0,139
   1758c:	02a787b3          	mul	a5,a5,a0
   17590:	008585b3          	add	a1,a1,s0
   17594:	00000513          	li	a0,0
   17598:	03060633          	mul	a2,a2,a6
   1759c:	00c787b3          	add	a5,a5,a2
   175a0:	04078793          	addi	a5,a5,64
   175a4:	4077d613          	srai	a2,a5,0x7
   175a8:	0007c863          	bltz	a5,175b8 <_Z8njDecodePKvi+0x1a08>
   175ac:	00098513          	mv	a0,s3
   175b0:	00c94463          	blt	s2,a2,175b8 <_Z8njDecodePKvi+0x1a08>
   175b4:	0ff67513          	zext.b	a0,a2
   175b8:	00a58023          	sb	a0,0(a1)
   175bc:	001e8e93          	addi	t4,t4,1
   175c0:	001e0e13          	addi	t3,t3,1
   175c4:	00138393          	addi	t2,t2,1
   175c8:	001f8f93          	addi	t6,t6,1
   175cc:	00168693          	addi	a3,a3,1
   175d0:	00108093          	addi	ra,ra,1 # 101dd <__do_global_dtors_aux+0x25>
   175d4:	cddb10e3          	bne	s6,t4,17294 <_Z8njDecodePKvi+0x16e4>
   175d8:	00070c13          	mv	s8,a4
   175dc:	000d0713          	mv	a4,s10
   175e0:	000f0d13          	mv	s10,t5
   175e4:	001a1a13          	slli	s4,s4,0x1
   175e8:	00070513          	mv	a0,a4
   175ec:	014d2823          	sw	s4,16(s10)
   175f0:	008d2a23          	sw	s0,20(s10)
   175f4:	474000ef          	jal	ra,17a68 <free>
   175f8:	000ba503          	lw	a0,0(s7)
   175fc:	038d2423          	sw	s8,40(s10)
   17600:	00050463          	beqz	a0,17608 <_Z8njDecodePKvi+0x1a58>
   17604:	fd8fe06f          	j	15ddc <_Z8njDecodePKvi+0x22c>
   17608:	010d2a03          	lw	s4,16(s10)
   1760c:	010ba783          	lw	a5,16(s7)
   17610:	be1ff06f          	j	171f0 <_Z8njDecodePKvi+0x1640>
   17614:	00000793          	li	a5,0
   17618:	b19ff06f          	j	17130 <_Z8njDecodePKvi+0x1580>
   1761c:	00084c83          	lbu	s9,0(a6)
   17620:	00950533          	add	a0,a0,s1
   17624:	00054383          	lbu	t2,0(a0)
   17628:	0008cd83          	lbu	s11,0(a7)
   1762c:	003c9613          	slli	a2,s9,0x3
   17630:	00034f83          	lbu	t6,0(t1)
   17634:	41960633          	sub	a2,a2,s9
   17638:	00339693          	slli	a3,t2,0x3
   1763c:	00461613          	slli	a2,a2,0x4
   17640:	003d9793          	slli	a5,s11,0x3
   17644:	407686b3          	sub	a3,a3,t2
   17648:	41960633          	sub	a2,a2,s9
   1764c:	01b787b3          	add	a5,a5,s11
   17650:	00269693          	slli	a3,a3,0x2
   17654:	40f607b3          	sub	a5,a2,a5
   17658:	007686b3          	add	a3,a3,t2
   1765c:	002f9613          	slli	a2,t6,0x2
   17660:	00d787b3          	add	a5,a5,a3
   17664:	40cf8fb3          	sub	t6,t6,a2
   17668:	01f787b3          	add	a5,a5,t6
   1766c:	04078793          	addi	a5,a5,64
   17670:	4077d613          	srai	a2,a5,0x7
   17674:	00000693          	li	a3,0
   17678:	0007c863          	bltz	a5,17688 <_Z8njDecodePKvi+0x1ad8>
   1767c:	00098693          	mv	a3,s3
   17680:	00c94463          	blt	s2,a2,17688 <_Z8njDecodePKvi+0x1ad8>
   17684:	0ff67693          	zext.b	a3,a2
   17688:	00d58023          	sb	a3,0(a1)
   1768c:	00084383          	lbu	t2,0(a6)
   17690:	00054f83          	lbu	t6,0(a0)
   17694:	0008cd83          	lbu	s11,0(a7)
   17698:	00339613          	slli	a2,t2,0x3
   1769c:	00034c83          	lbu	s9,0(t1)
   176a0:	40760633          	sub	a2,a2,t2
   176a4:	003f9693          	slli	a3,t6,0x3
   176a8:	00261613          	slli	a2,a2,0x2
   176ac:	002d9793          	slli	a5,s11,0x2
   176b0:	41f686b3          	sub	a3,a3,t6
   176b4:	00760633          	add	a2,a2,t2
   176b8:	40fd87b3          	sub	a5,s11,a5
   176bc:	00469693          	slli	a3,a3,0x4
   176c0:	00f607b3          	add	a5,a2,a5
   176c4:	41f686b3          	sub	a3,a3,t6
   176c8:	003c9613          	slli	a2,s9,0x3
   176cc:	00d787b3          	add	a5,a5,a3
   176d0:	01960633          	add	a2,a2,s9
   176d4:	40c787b3          	sub	a5,a5,a2
   176d8:	04078793          	addi	a5,a5,64
   176dc:	4077d613          	srai	a2,a5,0x7
   176e0:	00000693          	li	a3,0
   176e4:	0007c863          	bltz	a5,176f4 <_Z8njDecodePKvi+0x1b44>
   176e8:	00098693          	mv	a3,s3
   176ec:	00c94463          	blt	s2,a2,176f4 <_Z8njDecodePKvi+0x1b44>
   176f0:	0ff67693          	zext.b	a3,a2
   176f4:	008587b3          	add	a5,a1,s0
   176f8:	00d78023          	sb	a3,0(a5)
   176fc:	fffc0c13          	addi	s8,s8,-1
   17700:	005585b3          	add	a1,a1,t0
   17704:	00980833          	add	a6,a6,s1
   17708:	009888b3          	add	a7,a7,s1
   1770c:	00930333          	add	t1,t1,s1
   17710:	f00c16e3          	bnez	s8,1761c <_Z8njDecodePKvi+0x1a6c>
   17714:	d95ff06f          	j	174a8 <_Z8njDecodePKvi+0x18f8>
   17718:	02012403          	lw	s0,32(sp)
   1771c:	028ba703          	lw	a4,40(s7)
   17720:	02cd0d13          	addi	s10,s10,44
   17724:	00140413          	addi	s0,s0,1
   17728:	f8e44e63          	blt	s0,a4,16ec4 <_Z8njDecodePKvi+0x1314>
   1772c:	00300693          	li	a3,3
   17730:	12d71263          	bne	a4,a3,17854 <_Z8njDecodePKvi+0x1ca4>
   17734:	00084717          	auipc	a4,0x84
   17738:	f3070713          	addi	a4,a4,-208 # 9b664 <__global_pointer$+0x7fcac>
   1773c:	2c472583          	lw	a1,708(a4)
   17740:	054ba883          	lw	a7,84(s7)
   17744:	080bae03          	lw	t3,128(s7)
   17748:	0acba303          	lw	t1,172(s7)
   1774c:	0e050c63          	beqz	a0,17844 <_Z8njDecodePKvi+0x1c94>
   17750:	00012383          	lw	t2,0(sp)
   17754:	16700293          	li	t0,359
   17758:	0ff00813          	li	a6,255
   1775c:	fa800f93          	li	t6,-88
   17760:	f4900f13          	li	t5,-183
   17764:	1c600e93          	li	t4,454
   17768:	0cf05e63          	blez	a5,17844 <_Z8njDecodePKvi+0x1c94>
   1776c:	00000693          	li	a3,0
   17770:	00d307b3          	add	a5,t1,a3
   17774:	0007c603          	lbu	a2,0(a5)
   17778:	00d887b3          	add	a5,a7,a3
   1777c:	0007c403          	lbu	s0,0(a5)
   17780:	f8060613          	addi	a2,a2,-128
   17784:	025607b3          	mul	a5,a2,t0
   17788:	00de0733          	add	a4,t3,a3
   1778c:	00074703          	lbu	a4,0(a4)
   17790:	00841413          	slli	s0,s0,0x8
   17794:	00000493          	li	s1,0
   17798:	f8070713          	addi	a4,a4,-128
   1779c:	008787b3          	add	a5,a5,s0
   177a0:	08078793          	addi	a5,a5,128
   177a4:	4087d913          	srai	s2,a5,0x8
   177a8:	0007c863          	bltz	a5,177b8 <_Z8njDecodePKvi+0x1c08>
   177ac:	00038493          	mv	s1,t2
   177b0:	01284463          	blt	a6,s2,177b8 <_Z8njDecodePKvi+0x1c08>
   177b4:	0ff97493          	zext.b	s1,s2
   177b8:	03f707b3          	mul	a5,a4,t6
   177bc:	00958023          	sb	s1,0(a1)
   177c0:	00000493          	li	s1,0
   177c4:	03e60633          	mul	a2,a2,t5
   177c8:	008787b3          	add	a5,a5,s0
   177cc:	00c787b3          	add	a5,a5,a2
   177d0:	08078793          	addi	a5,a5,128
   177d4:	4087d613          	srai	a2,a5,0x8
   177d8:	0007c863          	bltz	a5,177e8 <_Z8njDecodePKvi+0x1c38>
   177dc:	00038493          	mv	s1,t2
   177e0:	00c84463          	blt	a6,a2,177e8 <_Z8njDecodePKvi+0x1c38>
   177e4:	0ff67493          	zext.b	s1,a2
   177e8:	03d707b3          	mul	a5,a4,t4
   177ec:	009580a3          	sb	s1,1(a1)
   177f0:	00000713          	li	a4,0
   177f4:	00358593          	addi	a1,a1,3
   177f8:	008787b3          	add	a5,a5,s0
   177fc:	08078793          	addi	a5,a5,128
   17800:	4087d613          	srai	a2,a5,0x8
   17804:	0007c863          	bltz	a5,17814 <_Z8njDecodePKvi+0x1c64>
   17808:	00038713          	mv	a4,t2
   1780c:	00c84463          	blt	a6,a2,17814 <_Z8njDecodePKvi+0x1c64>
   17810:	0ff67713          	zext.b	a4,a2
   17814:	fee58fa3          	sb	a4,-1(a1)
   17818:	010ba783          	lw	a5,16(s7)
   1781c:	00168693          	addi	a3,a3,1
   17820:	f4f6c8e3          	blt	a3,a5,17770 <_Z8njDecodePKvi+0x1bc0>
   17824:	040ba603          	lw	a2,64(s7)
   17828:	06cba683          	lw	a3,108(s7)
   1782c:	098ba703          	lw	a4,152(s7)
   17830:	fff50513          	addi	a0,a0,-1
   17834:	00c888b3          	add	a7,a7,a2
   17838:	00de0e33          	add	t3,t3,a3
   1783c:	00e30333          	add	t1,t1,a4
   17840:	f20514e3          	bnez	a0,17768 <_Z8njDecodePKvi+0x1bb8>
   17844:	000ba503          	lw	a0,0(s7)
   17848:	d94fe06f          	j	15ddc <_Z8njDecodePKvi+0x22c>
   1784c:	00cd2403          	lw	s0,12(s10)
   17850:	9c1ff06f          	j	17210 <_Z8njDecodePKvi+0x1660>
   17854:	038ba603          	lw	a2,56(s7)
   17858:	040ba483          	lw	s1,64(s7)
   1785c:	fe9604e3          	beq	a2,s1,17844 <_Z8njDecodePKvi+0x1c94>
   17860:	03cba403          	lw	s0,60(s7)
   17864:	054ba783          	lw	a5,84(s7)
   17868:	fff40413          	addi	s0,s0,-1
   1786c:	009784b3          	add	s1,a5,s1
   17870:	00c787b3          	add	a5,a5,a2
   17874:	02040463          	beqz	s0,1789c <_Z8njDecodePKvi+0x1cec>
   17878:	00048593          	mv	a1,s1
   1787c:	00078513          	mv	a0,a5
   17880:	1f5000ef          	jal	ra,18274 <memcpy>
   17884:	040ba703          	lw	a4,64(s7)
   17888:	038ba603          	lw	a2,56(s7)
   1788c:	fff40413          	addi	s0,s0,-1
   17890:	00e484b3          	add	s1,s1,a4
   17894:	00c507b3          	add	a5,a0,a2
   17898:	fe0410e3          	bnez	s0,17878 <_Z8njDecodePKvi+0x1cc8>
   1789c:	038ba783          	lw	a5,56(s7)
   178a0:	000ba503          	lw	a0,0(s7)
   178a4:	04fba023          	sw	a5,64(s7)
   178a8:	d34fe06f          	j	15ddc <_Z8njDecodePKvi+0x22c>
   178ac:	00cba703          	lw	a4,12(s7)
   178b0:	00004797          	auipc	a5,0x4
   178b4:	dc07a023          	sw	zero,-576(a5) # 1b670 <_ZL2nj+0xc>
   178b8:	00e907b3          	add	a5,s2,a4
   178bc:	40ea0a33          	sub	s4,s4,a4
   178c0:	00fba223          	sw	a5,4(s7)
   178c4:	014ba423          	sw	s4,8(s7)
   178c8:	000a4463          	bltz	s4,178d0 <_Z8njDecodePKvi+0x1d20>
   178cc:	da8fe06f          	j	15e74 <_Z8njDecodePKvi+0x2c4>
   178d0:	d00fe06f          	j	15dd0 <_Z8njDecodePKvi+0x220>
   178d4:	014ba583          	lw	a1,20(s7)
   178d8:	00770813          	addi	a6,a4,7
   178dc:	41f85693          	srai	a3,a6,0x1f
   178e0:	00758593          	addi	a1,a1,7
   178e4:	41f5d793          	srai	a5,a1,0x1f
   178e8:	0076f693          	andi	a3,a3,7
   178ec:	0077f793          	andi	a5,a5,7
   178f0:	010686b3          	add	a3,a3,a6
   178f4:	00b787b3          	add	a5,a5,a1
   178f8:	00800513          	li	a0,8
   178fc:	4036d693          	srai	a3,a3,0x3
   17900:	4037d793          	srai	a5,a5,0x3
   17904:	02cbaa23          	sw	a2,52(s7)
   17908:	02cba823          	sw	a2,48(s7)
   1790c:	02aba023          	sw	a0,32(s7)
   17910:	02aba223          	sw	a0,36(s7)
   17914:	00dbac23          	sw	a3,24(s7)
   17918:	00fbae23          	sw	a5,28(s7)
   1791c:	00100b13          	li	s6,1
   17920:	00100993          	li	s3,1
   17924:	bedfe06f          	j	16510 <_Z8njDecodePKvi+0x960>
   17928:	00300713          	li	a4,3
   1792c:	f8e790e3          	bne	a5,a4,178ac <_Z8njDecodePKvi+0x1cfc>
   17930:	014ba703          	lw	a4,20(s7)
   17934:	010ba503          	lw	a0,16(s7)
   17938:	02e50533          	mul	a0,a0,a4
   1793c:	02f50533          	mul	a0,a0,a5
   17940:	11c000ef          	jal	ra,17a5c <malloc>
   17944:	00084717          	auipc	a4,0x84
   17948:	d2070713          	addi	a4,a4,-736 # 9b664 <__global_pointer$+0x7fcac>
   1794c:	2ca72223          	sw	a0,708(a4)
   17950:	f4051ee3          	bnez	a0,178ac <_Z8njDecodePKvi+0x1cfc>
   17954:	00300793          	li	a5,3
   17958:	00fba023          	sw	a5,0(s7)
   1795c:	00300513          	li	a0,3
   17960:	c7cfe06f          	j	15ddc <_Z8njDecodePKvi+0x22c>

00017964 <_Z10njGetWidthv>:
   17964:	00004517          	auipc	a0,0x4
   17968:	d1052503          	lw	a0,-752(a0) # 1b674 <_ZL2nj+0x10>
   1796c:	00008067          	ret

00017970 <_Z11njGetHeightv>:
   17970:	00004517          	auipc	a0,0x4
   17974:	d0852503          	lw	a0,-760(a0) # 1b678 <_ZL2nj+0x14>
   17978:	00008067          	ret

0001797c <_Z9njIsColorv>:
   1797c:	00004517          	auipc	a0,0x4
   17980:	d1052503          	lw	a0,-752(a0) # 1b68c <_ZL2nj+0x28>
   17984:	fff50513          	addi	a0,a0,-1
   17988:	00a03533          	snez	a0,a0
   1798c:	00008067          	ret

00017990 <_Z10njGetImagev>:
   17990:	00004797          	auipc	a5,0x4
   17994:	cd478793          	addi	a5,a5,-812 # 1b664 <_ZL2nj>
   17998:	0287a683          	lw	a3,40(a5)
   1799c:	00100713          	li	a4,1
   179a0:	00e68863          	beq	a3,a4,179b0 <_Z10njGetImagev+0x20>
   179a4:	00084517          	auipc	a0,0x84
   179a8:	f8452503          	lw	a0,-124(a0) # 9b928 <__global_pointer$+0x7ff70>
   179ac:	00008067          	ret
   179b0:	0547a503          	lw	a0,84(a5)
   179b4:	00008067          	ret

000179b8 <__errno>:
   179b8:	8181a503          	lw	a0,-2024(gp) # 1b1d0 <_impure_ptr>
   179bc:	00008067          	ret

000179c0 <__libc_init_array>:
   179c0:	ff010113          	addi	sp,sp,-16
   179c4:	00812423          	sw	s0,8(sp)
   179c8:	0001b7b7          	lui	a5,0x1b
   179cc:	0001b437          	lui	s0,0x1b
   179d0:	01212023          	sw	s2,0(sp)
   179d4:	92c78793          	addi	a5,a5,-1748 # 1a92c <__init_array_start>
   179d8:	92c40713          	addi	a4,s0,-1748 # 1a92c <__init_array_start>
   179dc:	00112623          	sw	ra,12(sp)
   179e0:	00912223          	sw	s1,4(sp)
   179e4:	40e78933          	sub	s2,a5,a4
   179e8:	02e78263          	beq	a5,a4,17a0c <__libc_init_array+0x4c>
   179ec:	40295913          	srai	s2,s2,0x2
   179f0:	92c40413          	addi	s0,s0,-1748
   179f4:	00000493          	li	s1,0
   179f8:	00042783          	lw	a5,0(s0)
   179fc:	00148493          	addi	s1,s1,1
   17a00:	00440413          	addi	s0,s0,4
   17a04:	000780e7          	jalr	a5
   17a08:	ff24e8e3          	bltu	s1,s2,179f8 <__libc_init_array+0x38>
   17a0c:	0001b437          	lui	s0,0x1b
   17a10:	0001b7b7          	lui	a5,0x1b
   17a14:	93478793          	addi	a5,a5,-1740 # 1a934 <__do_global_dtors_aux_fini_array_entry>
   17a18:	92c40713          	addi	a4,s0,-1748 # 1a92c <__init_array_start>
   17a1c:	40e78933          	sub	s2,a5,a4
   17a20:	40295913          	srai	s2,s2,0x2
   17a24:	02e78063          	beq	a5,a4,17a44 <__libc_init_array+0x84>
   17a28:	92c40413          	addi	s0,s0,-1748
   17a2c:	00000493          	li	s1,0
   17a30:	00042783          	lw	a5,0(s0)
   17a34:	00148493          	addi	s1,s1,1
   17a38:	00440413          	addi	s0,s0,4
   17a3c:	000780e7          	jalr	a5
   17a40:	ff24e8e3          	bltu	s1,s2,17a30 <__libc_init_array+0x70>
   17a44:	00c12083          	lw	ra,12(sp)
   17a48:	00812403          	lw	s0,8(sp)
   17a4c:	00412483          	lw	s1,4(sp)
   17a50:	00012903          	lw	s2,0(sp)
   17a54:	01010113          	addi	sp,sp,16
   17a58:	00008067          	ret

00017a5c <malloc>:
   17a5c:	00050593          	mv	a1,a0
   17a60:	8181a503          	lw	a0,-2024(gp) # 1b1d0 <_impure_ptr>
   17a64:	0100006f          	j	17a74 <_malloc_r>

00017a68 <free>:
   17a68:	00050593          	mv	a1,a0
   17a6c:	8181a503          	lw	a0,-2024(gp) # 1b1d0 <_impure_ptr>
   17a70:	6f90006f          	j	18968 <_free_r>

00017a74 <_malloc_r>:
   17a74:	fd010113          	addi	sp,sp,-48
   17a78:	01312e23          	sw	s3,28(sp)
   17a7c:	02112623          	sw	ra,44(sp)
   17a80:	02812423          	sw	s0,40(sp)
   17a84:	02912223          	sw	s1,36(sp)
   17a88:	03212023          	sw	s2,32(sp)
   17a8c:	01412c23          	sw	s4,24(sp)
   17a90:	01512a23          	sw	s5,20(sp)
   17a94:	01612823          	sw	s6,16(sp)
   17a98:	01712623          	sw	s7,12(sp)
   17a9c:	01812423          	sw	s8,8(sp)
   17aa0:	01912223          	sw	s9,4(sp)
   17aa4:	00b58793          	addi	a5,a1,11
   17aa8:	01600713          	li	a4,22
   17aac:	00050993          	mv	s3,a0
   17ab0:	08f76e63          	bltu	a4,a5,17b4c <_malloc_r+0xd8>
   17ab4:	01000793          	li	a5,16
   17ab8:	22b7e063          	bltu	a5,a1,17cd8 <_malloc_r+0x264>
   17abc:	239000ef          	jal	ra,184f4 <__malloc_lock>
   17ac0:	01000493          	li	s1,16
   17ac4:	01800793          	li	a5,24
   17ac8:	00200593          	li	a1,2
   17acc:	0001b937          	lui	s2,0x1b
   17ad0:	db090913          	addi	s2,s2,-592 # 1adb0 <__malloc_av_>
   17ad4:	00f907b3          	add	a5,s2,a5
   17ad8:	0047a403          	lw	s0,4(a5)
   17adc:	ff878713          	addi	a4,a5,-8
   17ae0:	30e40663          	beq	s0,a4,17dec <_malloc_r+0x378>
   17ae4:	00442783          	lw	a5,4(s0)
   17ae8:	00c42683          	lw	a3,12(s0)
   17aec:	00842603          	lw	a2,8(s0)
   17af0:	ffc7f793          	andi	a5,a5,-4
   17af4:	00f407b3          	add	a5,s0,a5
   17af8:	0047a703          	lw	a4,4(a5)
   17afc:	00d62623          	sw	a3,12(a2)
   17b00:	00c6a423          	sw	a2,8(a3)
   17b04:	00176713          	ori	a4,a4,1
   17b08:	00098513          	mv	a0,s3
   17b0c:	00e7a223          	sw	a4,4(a5)
   17b10:	1e9000ef          	jal	ra,184f8 <__malloc_unlock>
   17b14:	00840513          	addi	a0,s0,8
   17b18:	02c12083          	lw	ra,44(sp)
   17b1c:	02812403          	lw	s0,40(sp)
   17b20:	02412483          	lw	s1,36(sp)
   17b24:	02012903          	lw	s2,32(sp)
   17b28:	01c12983          	lw	s3,28(sp)
   17b2c:	01812a03          	lw	s4,24(sp)
   17b30:	01412a83          	lw	s5,20(sp)
   17b34:	01012b03          	lw	s6,16(sp)
   17b38:	00c12b83          	lw	s7,12(sp)
   17b3c:	00812c03          	lw	s8,8(sp)
   17b40:	00412c83          	lw	s9,4(sp)
   17b44:	03010113          	addi	sp,sp,48
   17b48:	00008067          	ret
   17b4c:	ff87f493          	andi	s1,a5,-8
   17b50:	1807c463          	bltz	a5,17cd8 <_malloc_r+0x264>
   17b54:	18b4e263          	bltu	s1,a1,17cd8 <_malloc_r+0x264>
   17b58:	19d000ef          	jal	ra,184f4 <__malloc_lock>
   17b5c:	1f700793          	li	a5,503
   17b60:	3a97f063          	bgeu	a5,s1,17f00 <_malloc_r+0x48c>
   17b64:	0094d793          	srli	a5,s1,0x9
   17b68:	18078063          	beqz	a5,17ce8 <_malloc_r+0x274>
   17b6c:	00400713          	li	a4,4
   17b70:	2ef76663          	bltu	a4,a5,17e5c <_malloc_r+0x3e8>
   17b74:	0064d793          	srli	a5,s1,0x6
   17b78:	03978593          	addi	a1,a5,57
   17b7c:	03878513          	addi	a0,a5,56
   17b80:	00359693          	slli	a3,a1,0x3
   17b84:	0001b937          	lui	s2,0x1b
   17b88:	db090913          	addi	s2,s2,-592 # 1adb0 <__malloc_av_>
   17b8c:	00d906b3          	add	a3,s2,a3
   17b90:	0046a403          	lw	s0,4(a3)
   17b94:	ff868693          	addi	a3,a3,-8
   17b98:	02868663          	beq	a3,s0,17bc4 <_malloc_r+0x150>
   17b9c:	00f00613          	li	a2,15
   17ba0:	0100006f          	j	17bb0 <_malloc_r+0x13c>
   17ba4:	22075e63          	bgez	a4,17de0 <_malloc_r+0x36c>
   17ba8:	00c42403          	lw	s0,12(s0)
   17bac:	00868c63          	beq	a3,s0,17bc4 <_malloc_r+0x150>
   17bb0:	00442783          	lw	a5,4(s0)
   17bb4:	ffc7f793          	andi	a5,a5,-4
   17bb8:	40978733          	sub	a4,a5,s1
   17bbc:	fee654e3          	bge	a2,a4,17ba4 <_malloc_r+0x130>
   17bc0:	00050593          	mv	a1,a0
   17bc4:	01092403          	lw	s0,16(s2)
   17bc8:	0001b837          	lui	a6,0x1b
   17bcc:	db880813          	addi	a6,a6,-584 # 1adb8 <__malloc_av_+0x8>
   17bd0:	1f040063          	beq	s0,a6,17db0 <_malloc_r+0x33c>
   17bd4:	00442783          	lw	a5,4(s0)
   17bd8:	00f00693          	li	a3,15
   17bdc:	ffc7f793          	andi	a5,a5,-4
   17be0:	40978733          	sub	a4,a5,s1
   17be4:	32e6c463          	blt	a3,a4,17f0c <_malloc_r+0x498>
   17be8:	01092a23          	sw	a6,20(s2)
   17bec:	01092823          	sw	a6,16(s2)
   17bf0:	2e075863          	bgez	a4,17ee0 <_malloc_r+0x46c>
   17bf4:	1ff00713          	li	a4,511
   17bf8:	00492503          	lw	a0,4(s2)
   17bfc:	20f76063          	bltu	a4,a5,17dfc <_malloc_r+0x388>
   17c00:	ff87f713          	andi	a4,a5,-8
   17c04:	00870713          	addi	a4,a4,8
   17c08:	00e90733          	add	a4,s2,a4
   17c0c:	00072683          	lw	a3,0(a4)
   17c10:	0057d613          	srli	a2,a5,0x5
   17c14:	00100793          	li	a5,1
   17c18:	00c797b3          	sll	a5,a5,a2
   17c1c:	00f56533          	or	a0,a0,a5
   17c20:	ff870793          	addi	a5,a4,-8
   17c24:	00f42623          	sw	a5,12(s0)
   17c28:	00d42423          	sw	a3,8(s0)
   17c2c:	00a92223          	sw	a0,4(s2)
   17c30:	00872023          	sw	s0,0(a4)
   17c34:	0086a623          	sw	s0,12(a3)
   17c38:	4025d793          	srai	a5,a1,0x2
   17c3c:	00100613          	li	a2,1
   17c40:	00f61633          	sll	a2,a2,a5
   17c44:	0ac56a63          	bltu	a0,a2,17cf8 <_malloc_r+0x284>
   17c48:	00a677b3          	and	a5,a2,a0
   17c4c:	02079463          	bnez	a5,17c74 <_malloc_r+0x200>
   17c50:	00161613          	slli	a2,a2,0x1
   17c54:	ffc5f593          	andi	a1,a1,-4
   17c58:	00a677b3          	and	a5,a2,a0
   17c5c:	00458593          	addi	a1,a1,4
   17c60:	00079a63          	bnez	a5,17c74 <_malloc_r+0x200>
   17c64:	00161613          	slli	a2,a2,0x1
   17c68:	00a677b3          	and	a5,a2,a0
   17c6c:	00458593          	addi	a1,a1,4
   17c70:	fe078ae3          	beqz	a5,17c64 <_malloc_r+0x1f0>
   17c74:	00f00893          	li	a7,15
   17c78:	00359313          	slli	t1,a1,0x3
   17c7c:	00690333          	add	t1,s2,t1
   17c80:	00030513          	mv	a0,t1
   17c84:	00c52783          	lw	a5,12(a0)
   17c88:	00058e13          	mv	t3,a1
   17c8c:	1ef50a63          	beq	a0,a5,17e80 <_malloc_r+0x40c>
   17c90:	0047a703          	lw	a4,4(a5)
   17c94:	00078413          	mv	s0,a5
   17c98:	00c7a783          	lw	a5,12(a5)
   17c9c:	ffc77713          	andi	a4,a4,-4
   17ca0:	409706b3          	sub	a3,a4,s1
   17ca4:	1ed8ca63          	blt	a7,a3,17e98 <_malloc_r+0x424>
   17ca8:	fe06c2e3          	bltz	a3,17c8c <_malloc_r+0x218>
   17cac:	00e40733          	add	a4,s0,a4
   17cb0:	00472683          	lw	a3,4(a4)
   17cb4:	00842603          	lw	a2,8(s0)
   17cb8:	00098513          	mv	a0,s3
   17cbc:	0016e693          	ori	a3,a3,1
   17cc0:	00d72223          	sw	a3,4(a4)
   17cc4:	00f62623          	sw	a5,12(a2)
   17cc8:	00c7a423          	sw	a2,8(a5)
   17ccc:	02d000ef          	jal	ra,184f8 <__malloc_unlock>
   17cd0:	00840513          	addi	a0,s0,8
   17cd4:	e45ff06f          	j	17b18 <_malloc_r+0xa4>
   17cd8:	00c00793          	li	a5,12
   17cdc:	00f9a023          	sw	a5,0(s3)
   17ce0:	00000513          	li	a0,0
   17ce4:	e35ff06f          	j	17b18 <_malloc_r+0xa4>
   17ce8:	20000693          	li	a3,512
   17cec:	04000593          	li	a1,64
   17cf0:	03f00513          	li	a0,63
   17cf4:	e91ff06f          	j	17b84 <_malloc_r+0x110>
   17cf8:	00892403          	lw	s0,8(s2)
   17cfc:	00442783          	lw	a5,4(s0)
   17d00:	ffc7fb13          	andi	s6,a5,-4
   17d04:	009b6863          	bltu	s6,s1,17d14 <_malloc_r+0x2a0>
   17d08:	409b0733          	sub	a4,s6,s1
   17d0c:	00f00793          	li	a5,15
   17d10:	0ae7c463          	blt	a5,a4,17db8 <_malloc_r+0x344>
   17d14:	8341aa83          	lw	s5,-1996(gp) # 1b1ec <__malloc_top_pad>
   17d18:	81c1a703          	lw	a4,-2020(gp) # 1b1d4 <__malloc_sbrk_base>
   17d1c:	fff00793          	li	a5,-1
   17d20:	01640a33          	add	s4,s0,s6
   17d24:	01548ab3          	add	s5,s1,s5
   17d28:	3af70863          	beq	a4,a5,180d8 <_malloc_r+0x664>
   17d2c:	000017b7          	lui	a5,0x1
   17d30:	00f78793          	addi	a5,a5,15 # 100f <exit-0xf085>
   17d34:	00fa8ab3          	add	s5,s5,a5
   17d38:	fffff7b7          	lui	a5,0xfffff
   17d3c:	00fafab3          	and	s5,s5,a5
   17d40:	000a8593          	mv	a1,s5
   17d44:	00098513          	mv	a0,s3
   17d48:	7b4000ef          	jal	ra,184fc <_sbrk_r>
   17d4c:	fff00793          	li	a5,-1
   17d50:	00050b93          	mv	s7,a0
   17d54:	20f50663          	beq	a0,a5,17f60 <_malloc_r+0x4ec>
   17d58:	21456263          	bltu	a0,s4,17f5c <_malloc_r+0x4e8>
   17d5c:	0009cc37          	lui	s8,0x9c
   17d60:	92cc0c13          	addi	s8,s8,-1748 # 9b92c <__malloc_current_mallinfo>
   17d64:	000c2583          	lw	a1,0(s8)
   17d68:	00ba85b3          	add	a1,s5,a1
   17d6c:	00bc2023          	sw	a1,0(s8)
   17d70:	00058713          	mv	a4,a1
   17d74:	28aa1863          	bne	s4,a0,18004 <_malloc_r+0x590>
   17d78:	01451793          	slli	a5,a0,0x14
   17d7c:	28079463          	bnez	a5,18004 <_malloc_r+0x590>
   17d80:	00892b83          	lw	s7,8(s2)
   17d84:	015b07b3          	add	a5,s6,s5
   17d88:	0017e793          	ori	a5,a5,1
   17d8c:	00fba223          	sw	a5,4(s7)
   17d90:	8301a683          	lw	a3,-2000(gp) # 1b1e8 <__malloc_max_sbrked_mem>
   17d94:	00b6f463          	bgeu	a3,a1,17d9c <_malloc_r+0x328>
   17d98:	82b1a823          	sw	a1,-2000(gp) # 1b1e8 <__malloc_max_sbrked_mem>
   17d9c:	82c1a683          	lw	a3,-2004(gp) # 1b1e4 <__malloc_max_total_mem>
   17da0:	00b6f463          	bgeu	a3,a1,17da8 <_malloc_r+0x334>
   17da4:	82b1a623          	sw	a1,-2004(gp) # 1b1e4 <__malloc_max_total_mem>
   17da8:	000b8413          	mv	s0,s7
   17dac:	1bc0006f          	j	17f68 <_malloc_r+0x4f4>
   17db0:	00492503          	lw	a0,4(s2)
   17db4:	e85ff06f          	j	17c38 <_malloc_r+0x1c4>
   17db8:	0014e793          	ori	a5,s1,1
   17dbc:	00f42223          	sw	a5,4(s0)
   17dc0:	009404b3          	add	s1,s0,s1
   17dc4:	00992423          	sw	s1,8(s2)
   17dc8:	00176713          	ori	a4,a4,1
   17dcc:	00098513          	mv	a0,s3
   17dd0:	00e4a223          	sw	a4,4(s1)
   17dd4:	724000ef          	jal	ra,184f8 <__malloc_unlock>
   17dd8:	00840513          	addi	a0,s0,8
   17ddc:	d3dff06f          	j	17b18 <_malloc_r+0xa4>
   17de0:	00c42683          	lw	a3,12(s0)
   17de4:	00842603          	lw	a2,8(s0)
   17de8:	d0dff06f          	j	17af4 <_malloc_r+0x80>
   17dec:	00c7a403          	lw	s0,12(a5) # fffff00c <__BSS_END__+0xfff636b8>
   17df0:	00258593          	addi	a1,a1,2
   17df4:	dc8788e3          	beq	a5,s0,17bc4 <_malloc_r+0x150>
   17df8:	cedff06f          	j	17ae4 <_malloc_r+0x70>
   17dfc:	0097d713          	srli	a4,a5,0x9
   17e00:	00400693          	li	a3,4
   17e04:	14e6f263          	bgeu	a3,a4,17f48 <_malloc_r+0x4d4>
   17e08:	01400693          	li	a3,20
   17e0c:	30e6ec63          	bltu	a3,a4,18124 <_malloc_r+0x6b0>
   17e10:	05c70613          	addi	a2,a4,92
   17e14:	05b70693          	addi	a3,a4,91
   17e18:	00361613          	slli	a2,a2,0x3
   17e1c:	00c90633          	add	a2,s2,a2
   17e20:	00062703          	lw	a4,0(a2)
   17e24:	ff860613          	addi	a2,a2,-8
   17e28:	00e61863          	bne	a2,a4,17e38 <_malloc_r+0x3c4>
   17e2c:	2b40006f          	j	180e0 <_malloc_r+0x66c>
   17e30:	00872703          	lw	a4,8(a4)
   17e34:	00e60863          	beq	a2,a4,17e44 <_malloc_r+0x3d0>
   17e38:	00472683          	lw	a3,4(a4)
   17e3c:	ffc6f693          	andi	a3,a3,-4
   17e40:	fed7e8e3          	bltu	a5,a3,17e30 <_malloc_r+0x3bc>
   17e44:	00c72603          	lw	a2,12(a4)
   17e48:	00c42623          	sw	a2,12(s0)
   17e4c:	00e42423          	sw	a4,8(s0)
   17e50:	00862423          	sw	s0,8(a2)
   17e54:	00872623          	sw	s0,12(a4)
   17e58:	de1ff06f          	j	17c38 <_malloc_r+0x1c4>
   17e5c:	01400713          	li	a4,20
   17e60:	12f77663          	bgeu	a4,a5,17f8c <_malloc_r+0x518>
   17e64:	05400713          	li	a4,84
   17e68:	2cf76c63          	bltu	a4,a5,18140 <_malloc_r+0x6cc>
   17e6c:	00c4d793          	srli	a5,s1,0xc
   17e70:	06f78593          	addi	a1,a5,111
   17e74:	06e78513          	addi	a0,a5,110
   17e78:	00359693          	slli	a3,a1,0x3
   17e7c:	d09ff06f          	j	17b84 <_malloc_r+0x110>
   17e80:	001e0e13          	addi	t3,t3,1
   17e84:	003e7793          	andi	a5,t3,3
   17e88:	00850513          	addi	a0,a0,8
   17e8c:	10078e63          	beqz	a5,17fa8 <_malloc_r+0x534>
   17e90:	00c52783          	lw	a5,12(a0)
   17e94:	df9ff06f          	j	17c8c <_malloc_r+0x218>
   17e98:	00842603          	lw	a2,8(s0)
   17e9c:	0014e593          	ori	a1,s1,1
   17ea0:	00b42223          	sw	a1,4(s0)
   17ea4:	00f62623          	sw	a5,12(a2)
   17ea8:	00c7a423          	sw	a2,8(a5)
   17eac:	009404b3          	add	s1,s0,s1
   17eb0:	00992a23          	sw	s1,20(s2)
   17eb4:	00992823          	sw	s1,16(s2)
   17eb8:	0016e793          	ori	a5,a3,1
   17ebc:	0104a623          	sw	a6,12(s1)
   17ec0:	0104a423          	sw	a6,8(s1)
   17ec4:	00f4a223          	sw	a5,4(s1)
   17ec8:	00e40733          	add	a4,s0,a4
   17ecc:	00098513          	mv	a0,s3
   17ed0:	00d72023          	sw	a3,0(a4)
   17ed4:	624000ef          	jal	ra,184f8 <__malloc_unlock>
   17ed8:	00840513          	addi	a0,s0,8
   17edc:	c3dff06f          	j	17b18 <_malloc_r+0xa4>
   17ee0:	00f407b3          	add	a5,s0,a5
   17ee4:	0047a703          	lw	a4,4(a5)
   17ee8:	00098513          	mv	a0,s3
   17eec:	00176713          	ori	a4,a4,1
   17ef0:	00e7a223          	sw	a4,4(a5)
   17ef4:	604000ef          	jal	ra,184f8 <__malloc_unlock>
   17ef8:	00840513          	addi	a0,s0,8
   17efc:	c1dff06f          	j	17b18 <_malloc_r+0xa4>
   17f00:	0034d593          	srli	a1,s1,0x3
   17f04:	00848793          	addi	a5,s1,8
   17f08:	bc5ff06f          	j	17acc <_malloc_r+0x58>
   17f0c:	0014e693          	ori	a3,s1,1
   17f10:	00d42223          	sw	a3,4(s0)
   17f14:	009404b3          	add	s1,s0,s1
   17f18:	00992a23          	sw	s1,20(s2)
   17f1c:	00992823          	sw	s1,16(s2)
   17f20:	00176693          	ori	a3,a4,1
   17f24:	0104a623          	sw	a6,12(s1)
   17f28:	0104a423          	sw	a6,8(s1)
   17f2c:	00d4a223          	sw	a3,4(s1)
   17f30:	00f407b3          	add	a5,s0,a5
   17f34:	00098513          	mv	a0,s3
   17f38:	00e7a023          	sw	a4,0(a5)
   17f3c:	5bc000ef          	jal	ra,184f8 <__malloc_unlock>
   17f40:	00840513          	addi	a0,s0,8
   17f44:	bd5ff06f          	j	17b18 <_malloc_r+0xa4>
   17f48:	0067d713          	srli	a4,a5,0x6
   17f4c:	03970613          	addi	a2,a4,57
   17f50:	03870693          	addi	a3,a4,56
   17f54:	00361613          	slli	a2,a2,0x3
   17f58:	ec5ff06f          	j	17e1c <_malloc_r+0x3a8>
   17f5c:	09240a63          	beq	s0,s2,17ff0 <_malloc_r+0x57c>
   17f60:	00892403          	lw	s0,8(s2)
   17f64:	00442783          	lw	a5,4(s0)
   17f68:	ffc7f793          	andi	a5,a5,-4
   17f6c:	40978733          	sub	a4,a5,s1
   17f70:	0097e663          	bltu	a5,s1,17f7c <_malloc_r+0x508>
   17f74:	00f00793          	li	a5,15
   17f78:	e4e7c0e3          	blt	a5,a4,17db8 <_malloc_r+0x344>
   17f7c:	00098513          	mv	a0,s3
   17f80:	578000ef          	jal	ra,184f8 <__malloc_unlock>
   17f84:	00000513          	li	a0,0
   17f88:	b91ff06f          	j	17b18 <_malloc_r+0xa4>
   17f8c:	05c78593          	addi	a1,a5,92
   17f90:	05b78513          	addi	a0,a5,91
   17f94:	00359693          	slli	a3,a1,0x3
   17f98:	bedff06f          	j	17b84 <_malloc_r+0x110>
   17f9c:	00832783          	lw	a5,8(t1)
   17fa0:	fff58593          	addi	a1,a1,-1
   17fa4:	24679863          	bne	a5,t1,181f4 <_malloc_r+0x780>
   17fa8:	0035f793          	andi	a5,a1,3
   17fac:	ff830313          	addi	t1,t1,-8
   17fb0:	fe0796e3          	bnez	a5,17f9c <_malloc_r+0x528>
   17fb4:	00492703          	lw	a4,4(s2)
   17fb8:	fff64793          	not	a5,a2
   17fbc:	00e7f7b3          	and	a5,a5,a4
   17fc0:	00f92223          	sw	a5,4(s2)
   17fc4:	00161613          	slli	a2,a2,0x1
   17fc8:	d2c7e8e3          	bltu	a5,a2,17cf8 <_malloc_r+0x284>
   17fcc:	d20606e3          	beqz	a2,17cf8 <_malloc_r+0x284>
   17fd0:	00f67733          	and	a4,a2,a5
   17fd4:	00071a63          	bnez	a4,17fe8 <_malloc_r+0x574>
   17fd8:	00161613          	slli	a2,a2,0x1
   17fdc:	00f67733          	and	a4,a2,a5
   17fe0:	004e0e13          	addi	t3,t3,4
   17fe4:	fe070ae3          	beqz	a4,17fd8 <_malloc_r+0x564>
   17fe8:	000e0593          	mv	a1,t3
   17fec:	c8dff06f          	j	17c78 <_malloc_r+0x204>
   17ff0:	0009cc37          	lui	s8,0x9c
   17ff4:	92cc0c13          	addi	s8,s8,-1748 # 9b92c <__malloc_current_mallinfo>
   17ff8:	000c2703          	lw	a4,0(s8)
   17ffc:	00ea8733          	add	a4,s5,a4
   18000:	00ec2023          	sw	a4,0(s8)
   18004:	81c1a683          	lw	a3,-2020(gp) # 1b1d4 <__malloc_sbrk_base>
   18008:	fff00793          	li	a5,-1
   1800c:	14f68863          	beq	a3,a5,1815c <_malloc_r+0x6e8>
   18010:	414b87b3          	sub	a5,s7,s4
   18014:	00e787b3          	add	a5,a5,a4
   18018:	00fc2023          	sw	a5,0(s8)
   1801c:	007bfc93          	andi	s9,s7,7
   18020:	0c0c8c63          	beqz	s9,180f8 <_malloc_r+0x684>
   18024:	00001737          	lui	a4,0x1
   18028:	419b8bb3          	sub	s7,s7,s9
   1802c:	00870593          	addi	a1,a4,8 # 1008 <exit-0xf08c>
   18030:	008b8b93          	addi	s7,s7,8
   18034:	419585b3          	sub	a1,a1,s9
   18038:	015b8ab3          	add	s5,s7,s5
   1803c:	415585b3          	sub	a1,a1,s5
   18040:	fff70713          	addi	a4,a4,-1
   18044:	00e5fa33          	and	s4,a1,a4
   18048:	000a0593          	mv	a1,s4
   1804c:	00098513          	mv	a0,s3
   18050:	4ac000ef          	jal	ra,184fc <_sbrk_r>
   18054:	fff00793          	li	a5,-1
   18058:	14f50863          	beq	a0,a5,181a8 <_malloc_r+0x734>
   1805c:	41750533          	sub	a0,a0,s7
   18060:	01450ab3          	add	s5,a0,s4
   18064:	000c2703          	lw	a4,0(s8)
   18068:	01792423          	sw	s7,8(s2)
   1806c:	001ae793          	ori	a5,s5,1
   18070:	00ea05b3          	add	a1,s4,a4
   18074:	00bc2023          	sw	a1,0(s8)
   18078:	00fba223          	sw	a5,4(s7)
   1807c:	d1240ae3          	beq	s0,s2,17d90 <_malloc_r+0x31c>
   18080:	00f00693          	li	a3,15
   18084:	0f66f063          	bgeu	a3,s6,18164 <_malloc_r+0x6f0>
   18088:	00442703          	lw	a4,4(s0)
   1808c:	ff4b0793          	addi	a5,s6,-12 # 1ff4 <exit-0xe0a0>
   18090:	ff87f793          	andi	a5,a5,-8
   18094:	00177713          	andi	a4,a4,1
   18098:	00f76733          	or	a4,a4,a5
   1809c:	00e42223          	sw	a4,4(s0)
   180a0:	00500613          	li	a2,5
   180a4:	00f40733          	add	a4,s0,a5
   180a8:	00c72223          	sw	a2,4(a4)
   180ac:	00c72423          	sw	a2,8(a4)
   180b0:	00f6e663          	bltu	a3,a5,180bc <_malloc_r+0x648>
   180b4:	004ba783          	lw	a5,4(s7)
   180b8:	cd9ff06f          	j	17d90 <_malloc_r+0x31c>
   180bc:	00840593          	addi	a1,s0,8
   180c0:	00098513          	mv	a0,s3
   180c4:	0a5000ef          	jal	ra,18968 <_free_r>
   180c8:	00892b83          	lw	s7,8(s2)
   180cc:	000c2583          	lw	a1,0(s8)
   180d0:	004ba783          	lw	a5,4(s7)
   180d4:	cbdff06f          	j	17d90 <_malloc_r+0x31c>
   180d8:	010a8a93          	addi	s5,s5,16
   180dc:	c65ff06f          	j	17d40 <_malloc_r+0x2cc>
   180e0:	4026d693          	srai	a3,a3,0x2
   180e4:	00100793          	li	a5,1
   180e8:	00d797b3          	sll	a5,a5,a3
   180ec:	00f56533          	or	a0,a0,a5
   180f0:	00a92223          	sw	a0,4(s2)
   180f4:	d55ff06f          	j	17e48 <_malloc_r+0x3d4>
   180f8:	015b85b3          	add	a1,s7,s5
   180fc:	40b005b3          	neg	a1,a1
   18100:	01459593          	slli	a1,a1,0x14
   18104:	0145da13          	srli	s4,a1,0x14
   18108:	000a0593          	mv	a1,s4
   1810c:	00098513          	mv	a0,s3
   18110:	3ec000ef          	jal	ra,184fc <_sbrk_r>
   18114:	fff00793          	li	a5,-1
   18118:	f4f512e3          	bne	a0,a5,1805c <_malloc_r+0x5e8>
   1811c:	00000a13          	li	s4,0
   18120:	f45ff06f          	j	18064 <_malloc_r+0x5f0>
   18124:	05400693          	li	a3,84
   18128:	04e6e463          	bltu	a3,a4,18170 <_malloc_r+0x6fc>
   1812c:	00c7d713          	srli	a4,a5,0xc
   18130:	06f70613          	addi	a2,a4,111
   18134:	06e70693          	addi	a3,a4,110
   18138:	00361613          	slli	a2,a2,0x3
   1813c:	ce1ff06f          	j	17e1c <_malloc_r+0x3a8>
   18140:	15400713          	li	a4,340
   18144:	04f76463          	bltu	a4,a5,1818c <_malloc_r+0x718>
   18148:	00f4d793          	srli	a5,s1,0xf
   1814c:	07878593          	addi	a1,a5,120
   18150:	07778513          	addi	a0,a5,119
   18154:	00359693          	slli	a3,a1,0x3
   18158:	a2dff06f          	j	17b84 <_malloc_r+0x110>
   1815c:	8171ae23          	sw	s7,-2020(gp) # 1b1d4 <__malloc_sbrk_base>
   18160:	ebdff06f          	j	1801c <_malloc_r+0x5a8>
   18164:	00100793          	li	a5,1
   18168:	00fba223          	sw	a5,4(s7)
   1816c:	e11ff06f          	j	17f7c <_malloc_r+0x508>
   18170:	15400693          	li	a3,340
   18174:	04e6e463          	bltu	a3,a4,181bc <_malloc_r+0x748>
   18178:	00f7d713          	srli	a4,a5,0xf
   1817c:	07870613          	addi	a2,a4,120
   18180:	07770693          	addi	a3,a4,119
   18184:	00361613          	slli	a2,a2,0x3
   18188:	c95ff06f          	j	17e1c <_malloc_r+0x3a8>
   1818c:	55400713          	li	a4,1364
   18190:	04f76463          	bltu	a4,a5,181d8 <_malloc_r+0x764>
   18194:	0124d793          	srli	a5,s1,0x12
   18198:	07d78593          	addi	a1,a5,125
   1819c:	07c78513          	addi	a0,a5,124
   181a0:	00359693          	slli	a3,a1,0x3
   181a4:	9e1ff06f          	j	17b84 <_malloc_r+0x110>
   181a8:	ff8c8c93          	addi	s9,s9,-8
   181ac:	019a8ab3          	add	s5,s5,s9
   181b0:	417a8ab3          	sub	s5,s5,s7
   181b4:	00000a13          	li	s4,0
   181b8:	eadff06f          	j	18064 <_malloc_r+0x5f0>
   181bc:	55400693          	li	a3,1364
   181c0:	02e6e463          	bltu	a3,a4,181e8 <_malloc_r+0x774>
   181c4:	0127d713          	srli	a4,a5,0x12
   181c8:	07d70613          	addi	a2,a4,125
   181cc:	07c70693          	addi	a3,a4,124
   181d0:	00361613          	slli	a2,a2,0x3
   181d4:	c49ff06f          	j	17e1c <_malloc_r+0x3a8>
   181d8:	3f800693          	li	a3,1016
   181dc:	07f00593          	li	a1,127
   181e0:	07e00513          	li	a0,126
   181e4:	9a1ff06f          	j	17b84 <_malloc_r+0x110>
   181e8:	3f800613          	li	a2,1016
   181ec:	07e00693          	li	a3,126
   181f0:	c2dff06f          	j	17e1c <_malloc_r+0x3a8>
   181f4:	00492783          	lw	a5,4(s2)
   181f8:	dcdff06f          	j	17fc4 <_malloc_r+0x550>

000181fc <memcmp>:
   181fc:	00300793          	li	a5,3
   18200:	02c7fc63          	bgeu	a5,a2,18238 <memcmp+0x3c>
   18204:	00b567b3          	or	a5,a0,a1
   18208:	0037f793          	andi	a5,a5,3
   1820c:	00300693          	li	a3,3
   18210:	00078e63          	beqz	a5,1822c <memcmp+0x30>
   18214:	fff60693          	addi	a3,a2,-1
   18218:	0280006f          	j	18240 <memcmp+0x44>
   1821c:	ffc60613          	addi	a2,a2,-4
   18220:	00450513          	addi	a0,a0,4
   18224:	00458593          	addi	a1,a1,4
   18228:	00c6f863          	bgeu	a3,a2,18238 <memcmp+0x3c>
   1822c:	00052703          	lw	a4,0(a0)
   18230:	0005a783          	lw	a5,0(a1)
   18234:	fef704e3          	beq	a4,a5,1821c <memcmp+0x20>
   18238:	fff60693          	addi	a3,a2,-1
   1823c:	02060863          	beqz	a2,1826c <memcmp+0x70>
   18240:	00168693          	addi	a3,a3,1
   18244:	00d586b3          	add	a3,a1,a3
   18248:	0080006f          	j	18250 <memcmp+0x54>
   1824c:	02d58063          	beq	a1,a3,1826c <memcmp+0x70>
   18250:	00054783          	lbu	a5,0(a0)
   18254:	0005c703          	lbu	a4,0(a1)
   18258:	00150513          	addi	a0,a0,1
   1825c:	00158593          	addi	a1,a1,1
   18260:	fee786e3          	beq	a5,a4,1824c <memcmp+0x50>
   18264:	40e78533          	sub	a0,a5,a4
   18268:	00008067          	ret
   1826c:	00000513          	li	a0,0
   18270:	00008067          	ret

00018274 <memcpy>:
   18274:	00b547b3          	xor	a5,a0,a1
   18278:	0037f793          	andi	a5,a5,3
   1827c:	00c508b3          	add	a7,a0,a2
   18280:	06079463          	bnez	a5,182e8 <memcpy+0x74>
   18284:	00300793          	li	a5,3
   18288:	06c7f063          	bgeu	a5,a2,182e8 <memcpy+0x74>
   1828c:	00357793          	andi	a5,a0,3
   18290:	00050713          	mv	a4,a0
   18294:	06079a63          	bnez	a5,18308 <memcpy+0x94>
   18298:	ffc8f613          	andi	a2,a7,-4
   1829c:	40e606b3          	sub	a3,a2,a4
   182a0:	02000793          	li	a5,32
   182a4:	08d7ce63          	blt	a5,a3,18340 <memcpy+0xcc>
   182a8:	00058693          	mv	a3,a1
   182ac:	00070793          	mv	a5,a4
   182b0:	02c77863          	bgeu	a4,a2,182e0 <memcpy+0x6c>
   182b4:	0006a803          	lw	a6,0(a3)
   182b8:	00478793          	addi	a5,a5,4
   182bc:	00468693          	addi	a3,a3,4
   182c0:	ff07ae23          	sw	a6,-4(a5)
   182c4:	fec7e8e3          	bltu	a5,a2,182b4 <memcpy+0x40>
   182c8:	fff60793          	addi	a5,a2,-1
   182cc:	40e787b3          	sub	a5,a5,a4
   182d0:	ffc7f793          	andi	a5,a5,-4
   182d4:	00478793          	addi	a5,a5,4
   182d8:	00f70733          	add	a4,a4,a5
   182dc:	00f585b3          	add	a1,a1,a5
   182e0:	01176863          	bltu	a4,a7,182f0 <memcpy+0x7c>
   182e4:	00008067          	ret
   182e8:	00050713          	mv	a4,a0
   182ec:	05157863          	bgeu	a0,a7,1833c <memcpy+0xc8>
   182f0:	0005c783          	lbu	a5,0(a1)
   182f4:	00170713          	addi	a4,a4,1
   182f8:	00158593          	addi	a1,a1,1
   182fc:	fef70fa3          	sb	a5,-1(a4)
   18300:	fee898e3          	bne	a7,a4,182f0 <memcpy+0x7c>
   18304:	00008067          	ret
   18308:	0005c683          	lbu	a3,0(a1)
   1830c:	00170713          	addi	a4,a4,1
   18310:	00377793          	andi	a5,a4,3
   18314:	fed70fa3          	sb	a3,-1(a4)
   18318:	00158593          	addi	a1,a1,1
   1831c:	f6078ee3          	beqz	a5,18298 <memcpy+0x24>
   18320:	0005c683          	lbu	a3,0(a1)
   18324:	00170713          	addi	a4,a4,1
   18328:	00377793          	andi	a5,a4,3
   1832c:	fed70fa3          	sb	a3,-1(a4)
   18330:	00158593          	addi	a1,a1,1
   18334:	fc079ae3          	bnez	a5,18308 <memcpy+0x94>
   18338:	f61ff06f          	j	18298 <memcpy+0x24>
   1833c:	00008067          	ret
   18340:	ff010113          	addi	sp,sp,-16
   18344:	00812623          	sw	s0,12(sp)
   18348:	02000413          	li	s0,32
   1834c:	0005a383          	lw	t2,0(a1)
   18350:	0045a283          	lw	t0,4(a1)
   18354:	0085af83          	lw	t6,8(a1)
   18358:	00c5af03          	lw	t5,12(a1)
   1835c:	0105ae83          	lw	t4,16(a1)
   18360:	0145ae03          	lw	t3,20(a1)
   18364:	0185a303          	lw	t1,24(a1)
   18368:	01c5a803          	lw	a6,28(a1)
   1836c:	0205a683          	lw	a3,32(a1)
   18370:	02470713          	addi	a4,a4,36
   18374:	40e607b3          	sub	a5,a2,a4
   18378:	fc772e23          	sw	t2,-36(a4)
   1837c:	fe572023          	sw	t0,-32(a4)
   18380:	fff72223          	sw	t6,-28(a4)
   18384:	ffe72423          	sw	t5,-24(a4)
   18388:	ffd72623          	sw	t4,-20(a4)
   1838c:	ffc72823          	sw	t3,-16(a4)
   18390:	fe672a23          	sw	t1,-12(a4)
   18394:	ff072c23          	sw	a6,-8(a4)
   18398:	fed72e23          	sw	a3,-4(a4)
   1839c:	02458593          	addi	a1,a1,36
   183a0:	faf446e3          	blt	s0,a5,1834c <memcpy+0xd8>
   183a4:	00058693          	mv	a3,a1
   183a8:	00070793          	mv	a5,a4
   183ac:	02c77863          	bgeu	a4,a2,183dc <memcpy+0x168>
   183b0:	0006a803          	lw	a6,0(a3)
   183b4:	00478793          	addi	a5,a5,4
   183b8:	00468693          	addi	a3,a3,4
   183bc:	ff07ae23          	sw	a6,-4(a5)
   183c0:	fec7e8e3          	bltu	a5,a2,183b0 <memcpy+0x13c>
   183c4:	fff60793          	addi	a5,a2,-1
   183c8:	40e787b3          	sub	a5,a5,a4
   183cc:	ffc7f793          	andi	a5,a5,-4
   183d0:	00478793          	addi	a5,a5,4
   183d4:	00f70733          	add	a4,a4,a5
   183d8:	00f585b3          	add	a1,a1,a5
   183dc:	01176863          	bltu	a4,a7,183ec <memcpy+0x178>
   183e0:	00c12403          	lw	s0,12(sp)
   183e4:	01010113          	addi	sp,sp,16
   183e8:	00008067          	ret
   183ec:	0005c783          	lbu	a5,0(a1)
   183f0:	00170713          	addi	a4,a4,1
   183f4:	00158593          	addi	a1,a1,1
   183f8:	fef70fa3          	sb	a5,-1(a4)
   183fc:	fee882e3          	beq	a7,a4,183e0 <memcpy+0x16c>
   18400:	0005c783          	lbu	a5,0(a1)
   18404:	00170713          	addi	a4,a4,1
   18408:	00158593          	addi	a1,a1,1
   1840c:	fef70fa3          	sb	a5,-1(a4)
   18410:	fce89ee3          	bne	a7,a4,183ec <memcpy+0x178>
   18414:	fcdff06f          	j	183e0 <memcpy+0x16c>

00018418 <memset>:
   18418:	00f00313          	li	t1,15
   1841c:	00050713          	mv	a4,a0
   18420:	02c37e63          	bgeu	t1,a2,1845c <memset+0x44>
   18424:	00f77793          	andi	a5,a4,15
   18428:	0a079063          	bnez	a5,184c8 <memset+0xb0>
   1842c:	08059263          	bnez	a1,184b0 <memset+0x98>
   18430:	ff067693          	andi	a3,a2,-16
   18434:	00f67613          	andi	a2,a2,15
   18438:	00e686b3          	add	a3,a3,a4
   1843c:	00b72023          	sw	a1,0(a4)
   18440:	00b72223          	sw	a1,4(a4)
   18444:	00b72423          	sw	a1,8(a4)
   18448:	00b72623          	sw	a1,12(a4)
   1844c:	01070713          	addi	a4,a4,16
   18450:	fed766e3          	bltu	a4,a3,1843c <memset+0x24>
   18454:	00061463          	bnez	a2,1845c <memset+0x44>
   18458:	00008067          	ret
   1845c:	40c306b3          	sub	a3,t1,a2
   18460:	00269693          	slli	a3,a3,0x2
   18464:	00000297          	auipc	t0,0x0
   18468:	005686b3          	add	a3,a3,t0
   1846c:	00c68067          	jr	12(a3)
   18470:	00b70723          	sb	a1,14(a4)
   18474:	00b706a3          	sb	a1,13(a4)
   18478:	00b70623          	sb	a1,12(a4)
   1847c:	00b705a3          	sb	a1,11(a4)
   18480:	00b70523          	sb	a1,10(a4)
   18484:	00b704a3          	sb	a1,9(a4)
   18488:	00b70423          	sb	a1,8(a4)
   1848c:	00b703a3          	sb	a1,7(a4)
   18490:	00b70323          	sb	a1,6(a4)
   18494:	00b702a3          	sb	a1,5(a4)
   18498:	00b70223          	sb	a1,4(a4)
   1849c:	00b701a3          	sb	a1,3(a4)
   184a0:	00b70123          	sb	a1,2(a4)
   184a4:	00b700a3          	sb	a1,1(a4)
   184a8:	00b70023          	sb	a1,0(a4)
   184ac:	00008067          	ret
   184b0:	0ff5f593          	zext.b	a1,a1
   184b4:	00859693          	slli	a3,a1,0x8
   184b8:	00d5e5b3          	or	a1,a1,a3
   184bc:	01059693          	slli	a3,a1,0x10
   184c0:	00d5e5b3          	or	a1,a1,a3
   184c4:	f6dff06f          	j	18430 <memset+0x18>
   184c8:	00279693          	slli	a3,a5,0x2
   184cc:	00000297          	auipc	t0,0x0
   184d0:	005686b3          	add	a3,a3,t0
   184d4:	00008293          	mv	t0,ra
   184d8:	fa0680e7          	jalr	-96(a3)
   184dc:	00028093          	mv	ra,t0
   184e0:	ff078793          	addi	a5,a5,-16
   184e4:	40f70733          	sub	a4,a4,a5
   184e8:	00f60633          	add	a2,a2,a5
   184ec:	f6c378e3          	bgeu	t1,a2,1845c <memset+0x44>
   184f0:	f3dff06f          	j	1842c <memset+0x14>

000184f4 <__malloc_lock>:
   184f4:	00008067          	ret

000184f8 <__malloc_unlock>:
   184f8:	00008067          	ret

000184fc <_sbrk_r>:
   184fc:	ff010113          	addi	sp,sp,-16
   18500:	00812423          	sw	s0,8(sp)
   18504:	00912223          	sw	s1,4(sp)
   18508:	00050413          	mv	s0,a0
   1850c:	00058513          	mv	a0,a1
   18510:	00112623          	sw	ra,12(sp)
   18514:	8201ac23          	sw	zero,-1992(gp) # 1b1f0 <errno>
   18518:	9e4f80ef          	jal	ra,106fc <_sbrk>
   1851c:	fff00793          	li	a5,-1
   18520:	00f50c63          	beq	a0,a5,18538 <_sbrk_r+0x3c>
   18524:	00c12083          	lw	ra,12(sp)
   18528:	00812403          	lw	s0,8(sp)
   1852c:	00412483          	lw	s1,4(sp)
   18530:	01010113          	addi	sp,sp,16
   18534:	00008067          	ret
   18538:	8381a783          	lw	a5,-1992(gp) # 1b1f0 <errno>
   1853c:	fe0784e3          	beqz	a5,18524 <_sbrk_r+0x28>
   18540:	00c12083          	lw	ra,12(sp)
   18544:	00f42023          	sw	a5,0(s0)
   18548:	00812403          	lw	s0,8(sp)
   1854c:	00412483          	lw	s1,4(sp)
   18550:	01010113          	addi	sp,sp,16
   18554:	00008067          	ret

00018558 <strchr>:
   18558:	0ff5f693          	zext.b	a3,a1
   1855c:	00357793          	andi	a5,a0,3
   18560:	0c068063          	beqz	a3,18620 <strchr+0xc8>
   18564:	00078e63          	beqz	a5,18580 <strchr+0x28>
   18568:	00054783          	lbu	a5,0(a0)
   1856c:	0a078663          	beqz	a5,18618 <strchr+0xc0>
   18570:	0ad78663          	beq	a5,a3,1861c <strchr+0xc4>
   18574:	00150513          	addi	a0,a0,1
   18578:	00357793          	andi	a5,a0,3
   1857c:	fe0796e3          	bnez	a5,18568 <strchr+0x10>
   18580:	0ff5f593          	zext.b	a1,a1
   18584:	00859793          	slli	a5,a1,0x8
   18588:	00b787b3          	add	a5,a5,a1
   1858c:	00052703          	lw	a4,0(a0)
   18590:	01079313          	slli	t1,a5,0x10
   18594:	00f36333          	or	t1,t1,a5
   18598:	feff0837          	lui	a6,0xfeff0
   1859c:	00e34633          	xor	a2,t1,a4
   185a0:	eff80813          	addi	a6,a6,-257 # fefefeff <__BSS_END__+0xfef545ab>
   185a4:	010707b3          	add	a5,a4,a6
   185a8:	010605b3          	add	a1,a2,a6
   185ac:	fff74713          	not	a4,a4
   185b0:	fff64613          	not	a2,a2
   185b4:	00e7f7b3          	and	a5,a5,a4
   185b8:	808088b7          	lui	a7,0x80808
   185bc:	00c5f733          	and	a4,a1,a2
   185c0:	00e7e7b3          	or	a5,a5,a4
   185c4:	08088893          	addi	a7,a7,128 # 80808080 <__BSS_END__+0x8076c72c>
   185c8:	0117f7b3          	and	a5,a5,a7
   185cc:	02079a63          	bnez	a5,18600 <strchr+0xa8>
   185d0:	00452703          	lw	a4,4(a0)
   185d4:	00450513          	addi	a0,a0,4
   185d8:	00674633          	xor	a2,a4,t1
   185dc:	010707b3          	add	a5,a4,a6
   185e0:	010605b3          	add	a1,a2,a6
   185e4:	fff74713          	not	a4,a4
   185e8:	fff64613          	not	a2,a2
   185ec:	00e7f7b3          	and	a5,a5,a4
   185f0:	00c5f733          	and	a4,a1,a2
   185f4:	00e7e7b3          	or	a5,a5,a4
   185f8:	0117f7b3          	and	a5,a5,a7
   185fc:	fc078ae3          	beqz	a5,185d0 <strchr+0x78>
   18600:	00054783          	lbu	a5,0(a0)
   18604:	00078a63          	beqz	a5,18618 <strchr+0xc0>
   18608:	08f68663          	beq	a3,a5,18694 <strchr+0x13c>
   1860c:	00154783          	lbu	a5,1(a0)
   18610:	00150513          	addi	a0,a0,1
   18614:	fe079ae3          	bnez	a5,18608 <strchr+0xb0>
   18618:	00000513          	li	a0,0
   1861c:	00008067          	ret
   18620:	00078c63          	beqz	a5,18638 <strchr+0xe0>
   18624:	00054783          	lbu	a5,0(a0)
   18628:	fe078ae3          	beqz	a5,1861c <strchr+0xc4>
   1862c:	00150513          	addi	a0,a0,1
   18630:	00357793          	andi	a5,a0,3
   18634:	fe0798e3          	bnez	a5,18624 <strchr+0xcc>
   18638:	00052703          	lw	a4,0(a0)
   1863c:	feff0637          	lui	a2,0xfeff0
   18640:	eff60613          	addi	a2,a2,-257 # fefefeff <__BSS_END__+0xfef545ab>
   18644:	fff74793          	not	a5,a4
   18648:	808086b7          	lui	a3,0x80808
   1864c:	00c70733          	add	a4,a4,a2
   18650:	00e7f7b3          	and	a5,a5,a4
   18654:	08068693          	addi	a3,a3,128 # 80808080 <__BSS_END__+0x8076c72c>
   18658:	00d7f7b3          	and	a5,a5,a3
   1865c:	02079063          	bnez	a5,1867c <strchr+0x124>
   18660:	00452703          	lw	a4,4(a0)
   18664:	00450513          	addi	a0,a0,4
   18668:	00c707b3          	add	a5,a4,a2
   1866c:	fff74713          	not	a4,a4
   18670:	00e7f7b3          	and	a5,a5,a4
   18674:	00d7f7b3          	and	a5,a5,a3
   18678:	fe0784e3          	beqz	a5,18660 <strchr+0x108>
   1867c:	00054783          	lbu	a5,0(a0)
   18680:	f8078ee3          	beqz	a5,1861c <strchr+0xc4>
   18684:	00154783          	lbu	a5,1(a0)
   18688:	00150513          	addi	a0,a0,1
   1868c:	fe079ce3          	bnez	a5,18684 <strchr+0x12c>
   18690:	00008067          	ret
   18694:	00008067          	ret

00018698 <__call_exitprocs>:
   18698:	fd010113          	addi	sp,sp,-48
   1869c:	0001b7b7          	lui	a5,0x1b
   186a0:	01412c23          	sw	s4,24(sp)
   186a4:	1b87aa03          	lw	s4,440(a5) # 1b1b8 <_global_impure_ptr>
   186a8:	03212023          	sw	s2,32(sp)
   186ac:	02112623          	sw	ra,44(sp)
   186b0:	148a2903          	lw	s2,328(s4)
   186b4:	02812423          	sw	s0,40(sp)
   186b8:	02912223          	sw	s1,36(sp)
   186bc:	01312e23          	sw	s3,28(sp)
   186c0:	01512a23          	sw	s5,20(sp)
   186c4:	01612823          	sw	s6,16(sp)
   186c8:	01712623          	sw	s7,12(sp)
   186cc:	01812423          	sw	s8,8(sp)
   186d0:	04090063          	beqz	s2,18710 <__call_exitprocs+0x78>
   186d4:	00050b13          	mv	s6,a0
   186d8:	00058b93          	mv	s7,a1
   186dc:	00100a93          	li	s5,1
   186e0:	fff00993          	li	s3,-1
   186e4:	00492483          	lw	s1,4(s2)
   186e8:	fff48413          	addi	s0,s1,-1
   186ec:	02044263          	bltz	s0,18710 <__call_exitprocs+0x78>
   186f0:	00249493          	slli	s1,s1,0x2
   186f4:	009904b3          	add	s1,s2,s1
   186f8:	040b8463          	beqz	s7,18740 <__call_exitprocs+0xa8>
   186fc:	1044a783          	lw	a5,260(s1)
   18700:	05778063          	beq	a5,s7,18740 <__call_exitprocs+0xa8>
   18704:	fff40413          	addi	s0,s0,-1
   18708:	ffc48493          	addi	s1,s1,-4
   1870c:	ff3416e3          	bne	s0,s3,186f8 <__call_exitprocs+0x60>
   18710:	02c12083          	lw	ra,44(sp)
   18714:	02812403          	lw	s0,40(sp)
   18718:	02412483          	lw	s1,36(sp)
   1871c:	02012903          	lw	s2,32(sp)
   18720:	01c12983          	lw	s3,28(sp)
   18724:	01812a03          	lw	s4,24(sp)
   18728:	01412a83          	lw	s5,20(sp)
   1872c:	01012b03          	lw	s6,16(sp)
   18730:	00c12b83          	lw	s7,12(sp)
   18734:	00812c03          	lw	s8,8(sp)
   18738:	03010113          	addi	sp,sp,48
   1873c:	00008067          	ret
   18740:	00492783          	lw	a5,4(s2)
   18744:	0044a683          	lw	a3,4(s1)
   18748:	fff78793          	addi	a5,a5,-1
   1874c:	04878e63          	beq	a5,s0,187a8 <__call_exitprocs+0x110>
   18750:	0004a223          	sw	zero,4(s1)
   18754:	fa0688e3          	beqz	a3,18704 <__call_exitprocs+0x6c>
   18758:	18892783          	lw	a5,392(s2)
   1875c:	008a9733          	sll	a4,s5,s0
   18760:	00492c03          	lw	s8,4(s2)
   18764:	00f777b3          	and	a5,a4,a5
   18768:	02079263          	bnez	a5,1878c <__call_exitprocs+0xf4>
   1876c:	000680e7          	jalr	a3
   18770:	00492703          	lw	a4,4(s2)
   18774:	148a2783          	lw	a5,328(s4)
   18778:	01871463          	bne	a4,s8,18780 <__call_exitprocs+0xe8>
   1877c:	f92784e3          	beq	a5,s2,18704 <__call_exitprocs+0x6c>
   18780:	f80788e3          	beqz	a5,18710 <__call_exitprocs+0x78>
   18784:	00078913          	mv	s2,a5
   18788:	f5dff06f          	j	186e4 <__call_exitprocs+0x4c>
   1878c:	18c92783          	lw	a5,396(s2)
   18790:	0844a583          	lw	a1,132(s1)
   18794:	00f77733          	and	a4,a4,a5
   18798:	00071c63          	bnez	a4,187b0 <__call_exitprocs+0x118>
   1879c:	000b0513          	mv	a0,s6
   187a0:	000680e7          	jalr	a3
   187a4:	fcdff06f          	j	18770 <__call_exitprocs+0xd8>
   187a8:	00892223          	sw	s0,4(s2)
   187ac:	fa9ff06f          	j	18754 <__call_exitprocs+0xbc>
   187b0:	00058513          	mv	a0,a1
   187b4:	000680e7          	jalr	a3
   187b8:	fb9ff06f          	j	18770 <__call_exitprocs+0xd8>

000187bc <atexit>:
   187bc:	00050593          	mv	a1,a0
   187c0:	00000693          	li	a3,0
   187c4:	00000613          	li	a2,0
   187c8:	00000513          	li	a0,0
   187cc:	4a00006f          	j	18c6c <__register_exitproc>

000187d0 <__libc_fini_array>:
   187d0:	ff010113          	addi	sp,sp,-16
   187d4:	00812423          	sw	s0,8(sp)
   187d8:	0001b7b7          	lui	a5,0x1b
   187dc:	0001b437          	lui	s0,0x1b
   187e0:	93478793          	addi	a5,a5,-1740 # 1a934 <__do_global_dtors_aux_fini_array_entry>
   187e4:	93840413          	addi	s0,s0,-1736 # 1a938 <FRtoString>
   187e8:	40f40433          	sub	s0,s0,a5
   187ec:	00912223          	sw	s1,4(sp)
   187f0:	00112623          	sw	ra,12(sp)
   187f4:	40245493          	srai	s1,s0,0x2
   187f8:	02048063          	beqz	s1,18818 <__libc_fini_array+0x48>
   187fc:	ffc40413          	addi	s0,s0,-4
   18800:	00f40433          	add	s0,s0,a5
   18804:	00042783          	lw	a5,0(s0)
   18808:	fff48493          	addi	s1,s1,-1
   1880c:	ffc40413          	addi	s0,s0,-4
   18810:	000780e7          	jalr	a5
   18814:	fe0498e3          	bnez	s1,18804 <__libc_fini_array+0x34>
   18818:	00c12083          	lw	ra,12(sp)
   1881c:	00812403          	lw	s0,8(sp)
   18820:	00412483          	lw	s1,4(sp)
   18824:	01010113          	addi	sp,sp,16
   18828:	00008067          	ret

0001882c <_malloc_trim_r>:
   1882c:	fe010113          	addi	sp,sp,-32
   18830:	01312623          	sw	s3,12(sp)
   18834:	0001b9b7          	lui	s3,0x1b
   18838:	00812c23          	sw	s0,24(sp)
   1883c:	00912a23          	sw	s1,20(sp)
   18840:	01212823          	sw	s2,16(sp)
   18844:	01412423          	sw	s4,8(sp)
   18848:	00112e23          	sw	ra,28(sp)
   1884c:	00058a13          	mv	s4,a1
   18850:	00050913          	mv	s2,a0
   18854:	db098993          	addi	s3,s3,-592 # 1adb0 <__malloc_av_>
   18858:	c9dff0ef          	jal	ra,184f4 <__malloc_lock>
   1885c:	0089a703          	lw	a4,8(s3)
   18860:	000017b7          	lui	a5,0x1
   18864:	fef78413          	addi	s0,a5,-17 # fef <exit-0xf0a5>
   18868:	00472483          	lw	s1,4(a4)
   1886c:	ffc4f493          	andi	s1,s1,-4
   18870:	00848433          	add	s0,s1,s0
   18874:	41440433          	sub	s0,s0,s4
   18878:	00c45413          	srli	s0,s0,0xc
   1887c:	fff40413          	addi	s0,s0,-1
   18880:	00c41413          	slli	s0,s0,0xc
   18884:	00f44e63          	blt	s0,a5,188a0 <_malloc_trim_r+0x74>
   18888:	00000593          	li	a1,0
   1888c:	00090513          	mv	a0,s2
   18890:	c6dff0ef          	jal	ra,184fc <_sbrk_r>
   18894:	0089a783          	lw	a5,8(s3)
   18898:	009787b3          	add	a5,a5,s1
   1889c:	02f50863          	beq	a0,a5,188cc <_malloc_trim_r+0xa0>
   188a0:	00090513          	mv	a0,s2
   188a4:	c55ff0ef          	jal	ra,184f8 <__malloc_unlock>
   188a8:	01c12083          	lw	ra,28(sp)
   188ac:	01812403          	lw	s0,24(sp)
   188b0:	01412483          	lw	s1,20(sp)
   188b4:	01012903          	lw	s2,16(sp)
   188b8:	00c12983          	lw	s3,12(sp)
   188bc:	00812a03          	lw	s4,8(sp)
   188c0:	00000513          	li	a0,0
   188c4:	02010113          	addi	sp,sp,32
   188c8:	00008067          	ret
   188cc:	408005b3          	neg	a1,s0
   188d0:	00090513          	mv	a0,s2
   188d4:	c29ff0ef          	jal	ra,184fc <_sbrk_r>
   188d8:	fff00793          	li	a5,-1
   188dc:	04f50a63          	beq	a0,a5,18930 <_malloc_trim_r+0x104>
   188e0:	0009c7b7          	lui	a5,0x9c
   188e4:	92c78793          	addi	a5,a5,-1748 # 9b92c <__malloc_current_mallinfo>
   188e8:	0007a703          	lw	a4,0(a5)
   188ec:	0089a683          	lw	a3,8(s3)
   188f0:	408484b3          	sub	s1,s1,s0
   188f4:	0014e493          	ori	s1,s1,1
   188f8:	40870733          	sub	a4,a4,s0
   188fc:	00090513          	mv	a0,s2
   18900:	0096a223          	sw	s1,4(a3)
   18904:	00e7a023          	sw	a4,0(a5)
   18908:	bf1ff0ef          	jal	ra,184f8 <__malloc_unlock>
   1890c:	01c12083          	lw	ra,28(sp)
   18910:	01812403          	lw	s0,24(sp)
   18914:	01412483          	lw	s1,20(sp)
   18918:	01012903          	lw	s2,16(sp)
   1891c:	00c12983          	lw	s3,12(sp)
   18920:	00812a03          	lw	s4,8(sp)
   18924:	00100513          	li	a0,1
   18928:	02010113          	addi	sp,sp,32
   1892c:	00008067          	ret
   18930:	00000593          	li	a1,0
   18934:	00090513          	mv	a0,s2
   18938:	bc5ff0ef          	jal	ra,184fc <_sbrk_r>
   1893c:	0089a703          	lw	a4,8(s3)
   18940:	00f00693          	li	a3,15
   18944:	40e507b3          	sub	a5,a0,a4
   18948:	f4f6dce3          	bge	a3,a5,188a0 <_malloc_trim_r+0x74>
   1894c:	81c1a683          	lw	a3,-2020(gp) # 1b1d4 <__malloc_sbrk_base>
   18950:	0017e793          	ori	a5,a5,1
   18954:	00f72223          	sw	a5,4(a4)
   18958:	40d50533          	sub	a0,a0,a3
   1895c:	0009c6b7          	lui	a3,0x9c
   18960:	92a6a623          	sw	a0,-1748(a3) # 9b92c <__malloc_current_mallinfo>
   18964:	f3dff06f          	j	188a0 <_malloc_trim_r+0x74>

00018968 <_free_r>:
   18968:	18058263          	beqz	a1,18aec <_free_r+0x184>
   1896c:	ff010113          	addi	sp,sp,-16
   18970:	00812423          	sw	s0,8(sp)
   18974:	00912223          	sw	s1,4(sp)
   18978:	00058413          	mv	s0,a1
   1897c:	00050493          	mv	s1,a0
   18980:	00112623          	sw	ra,12(sp)
   18984:	b71ff0ef          	jal	ra,184f4 <__malloc_lock>
   18988:	ffc42503          	lw	a0,-4(s0)
   1898c:	ff840713          	addi	a4,s0,-8
   18990:	0001b5b7          	lui	a1,0x1b
   18994:	ffe57793          	andi	a5,a0,-2
   18998:	00f70633          	add	a2,a4,a5
   1899c:	db058593          	addi	a1,a1,-592 # 1adb0 <__malloc_av_>
   189a0:	00462683          	lw	a3,4(a2)
   189a4:	0085a803          	lw	a6,8(a1)
   189a8:	ffc6f693          	andi	a3,a3,-4
   189ac:	1ac80263          	beq	a6,a2,18b50 <_free_r+0x1e8>
   189b0:	00d62223          	sw	a3,4(a2)
   189b4:	00157513          	andi	a0,a0,1
   189b8:	00d60833          	add	a6,a2,a3
   189bc:	0a051063          	bnez	a0,18a5c <_free_r+0xf4>
   189c0:	ff842303          	lw	t1,-8(s0)
   189c4:	00482803          	lw	a6,4(a6)
   189c8:	0001b537          	lui	a0,0x1b
   189cc:	40670733          	sub	a4,a4,t1
   189d0:	00872883          	lw	a7,8(a4)
   189d4:	db850513          	addi	a0,a0,-584 # 1adb8 <__malloc_av_+0x8>
   189d8:	006787b3          	add	a5,a5,t1
   189dc:	00187813          	andi	a6,a6,1
   189e0:	14a88263          	beq	a7,a0,18b24 <_free_r+0x1bc>
   189e4:	00c72303          	lw	t1,12(a4)
   189e8:	0068a623          	sw	t1,12(a7)
   189ec:	01132423          	sw	a7,8(t1)
   189f0:	1a080663          	beqz	a6,18b9c <_free_r+0x234>
   189f4:	0017e693          	ori	a3,a5,1
   189f8:	00d72223          	sw	a3,4(a4)
   189fc:	00f62023          	sw	a5,0(a2)
   18a00:	1ff00693          	li	a3,511
   18a04:	06f6ec63          	bltu	a3,a5,18a7c <_free_r+0x114>
   18a08:	ff87f693          	andi	a3,a5,-8
   18a0c:	00868693          	addi	a3,a3,8
   18a10:	0045a503          	lw	a0,4(a1)
   18a14:	00d586b3          	add	a3,a1,a3
   18a18:	0006a603          	lw	a2,0(a3)
   18a1c:	0057d813          	srli	a6,a5,0x5
   18a20:	00100793          	li	a5,1
   18a24:	010797b3          	sll	a5,a5,a6
   18a28:	00a7e7b3          	or	a5,a5,a0
   18a2c:	ff868513          	addi	a0,a3,-8
   18a30:	00a72623          	sw	a0,12(a4)
   18a34:	00c72423          	sw	a2,8(a4)
   18a38:	00f5a223          	sw	a5,4(a1)
   18a3c:	00e6a023          	sw	a4,0(a3)
   18a40:	00e62623          	sw	a4,12(a2)
   18a44:	00812403          	lw	s0,8(sp)
   18a48:	00c12083          	lw	ra,12(sp)
   18a4c:	00048513          	mv	a0,s1
   18a50:	00412483          	lw	s1,4(sp)
   18a54:	01010113          	addi	sp,sp,16
   18a58:	aa1ff06f          	j	184f8 <__malloc_unlock>
   18a5c:	00482503          	lw	a0,4(a6)
   18a60:	00157513          	andi	a0,a0,1
   18a64:	08050663          	beqz	a0,18af0 <_free_r+0x188>
   18a68:	0017e693          	ori	a3,a5,1
   18a6c:	fed42e23          	sw	a3,-4(s0)
   18a70:	00f62023          	sw	a5,0(a2)
   18a74:	1ff00693          	li	a3,511
   18a78:	f8f6f8e3          	bgeu	a3,a5,18a08 <_free_r+0xa0>
   18a7c:	0097d693          	srli	a3,a5,0x9
   18a80:	00400613          	li	a2,4
   18a84:	12d66063          	bltu	a2,a3,18ba4 <_free_r+0x23c>
   18a88:	0067d693          	srli	a3,a5,0x6
   18a8c:	03968513          	addi	a0,a3,57
   18a90:	03868613          	addi	a2,a3,56
   18a94:	00351513          	slli	a0,a0,0x3
   18a98:	00a58533          	add	a0,a1,a0
   18a9c:	00052683          	lw	a3,0(a0)
   18aa0:	ff850513          	addi	a0,a0,-8
   18aa4:	00d51863          	bne	a0,a3,18ab4 <_free_r+0x14c>
   18aa8:	1540006f          	j	18bfc <_free_r+0x294>
   18aac:	0086a683          	lw	a3,8(a3)
   18ab0:	00d50863          	beq	a0,a3,18ac0 <_free_r+0x158>
   18ab4:	0046a603          	lw	a2,4(a3)
   18ab8:	ffc67613          	andi	a2,a2,-4
   18abc:	fec7e8e3          	bltu	a5,a2,18aac <_free_r+0x144>
   18ac0:	00c6a503          	lw	a0,12(a3)
   18ac4:	00a72623          	sw	a0,12(a4)
   18ac8:	00d72423          	sw	a3,8(a4)
   18acc:	00812403          	lw	s0,8(sp)
   18ad0:	00e52423          	sw	a4,8(a0)
   18ad4:	00c12083          	lw	ra,12(sp)
   18ad8:	00048513          	mv	a0,s1
   18adc:	00412483          	lw	s1,4(sp)
   18ae0:	00e6a623          	sw	a4,12(a3)
   18ae4:	01010113          	addi	sp,sp,16
   18ae8:	a11ff06f          	j	184f8 <__malloc_unlock>
   18aec:	00008067          	ret
   18af0:	0001b537          	lui	a0,0x1b
   18af4:	00d787b3          	add	a5,a5,a3
   18af8:	db850513          	addi	a0,a0,-584 # 1adb8 <__malloc_av_+0x8>
   18afc:	00862683          	lw	a3,8(a2)
   18b00:	0ca68c63          	beq	a3,a0,18bd8 <_free_r+0x270>
   18b04:	00c62803          	lw	a6,12(a2)
   18b08:	0017e513          	ori	a0,a5,1
   18b0c:	00f70633          	add	a2,a4,a5
   18b10:	0106a623          	sw	a6,12(a3)
   18b14:	00d82423          	sw	a3,8(a6)
   18b18:	00a72223          	sw	a0,4(a4)
   18b1c:	00f62023          	sw	a5,0(a2)
   18b20:	ee1ff06f          	j	18a00 <_free_r+0x98>
   18b24:	12081c63          	bnez	a6,18c5c <_free_r+0x2f4>
   18b28:	00862583          	lw	a1,8(a2)
   18b2c:	00c62603          	lw	a2,12(a2)
   18b30:	00f686b3          	add	a3,a3,a5
   18b34:	0016e793          	ori	a5,a3,1
   18b38:	00c5a623          	sw	a2,12(a1)
   18b3c:	00b62423          	sw	a1,8(a2)
   18b40:	00f72223          	sw	a5,4(a4)
   18b44:	00d70733          	add	a4,a4,a3
   18b48:	00d72023          	sw	a3,0(a4)
   18b4c:	ef9ff06f          	j	18a44 <_free_r+0xdc>
   18b50:	00157513          	andi	a0,a0,1
   18b54:	00d786b3          	add	a3,a5,a3
   18b58:	02051063          	bnez	a0,18b78 <_free_r+0x210>
   18b5c:	ff842503          	lw	a0,-8(s0)
   18b60:	40a70733          	sub	a4,a4,a0
   18b64:	00c72783          	lw	a5,12(a4)
   18b68:	00872603          	lw	a2,8(a4)
   18b6c:	00a686b3          	add	a3,a3,a0
   18b70:	00f62623          	sw	a5,12(a2)
   18b74:	00c7a423          	sw	a2,8(a5)
   18b78:	0016e613          	ori	a2,a3,1
   18b7c:	8201a783          	lw	a5,-2016(gp) # 1b1d8 <__malloc_trim_threshold>
   18b80:	00c72223          	sw	a2,4(a4)
   18b84:	00e5a423          	sw	a4,8(a1)
   18b88:	eaf6eee3          	bltu	a3,a5,18a44 <_free_r+0xdc>
   18b8c:	8341a583          	lw	a1,-1996(gp) # 1b1ec <__malloc_top_pad>
   18b90:	00048513          	mv	a0,s1
   18b94:	c99ff0ef          	jal	ra,1882c <_malloc_trim_r>
   18b98:	eadff06f          	j	18a44 <_free_r+0xdc>
   18b9c:	00d787b3          	add	a5,a5,a3
   18ba0:	f5dff06f          	j	18afc <_free_r+0x194>
   18ba4:	01400613          	li	a2,20
   18ba8:	02d67063          	bgeu	a2,a3,18bc8 <_free_r+0x260>
   18bac:	05400613          	li	a2,84
   18bb0:	06d66463          	bltu	a2,a3,18c18 <_free_r+0x2b0>
   18bb4:	00c7d693          	srli	a3,a5,0xc
   18bb8:	06f68513          	addi	a0,a3,111
   18bbc:	06e68613          	addi	a2,a3,110
   18bc0:	00351513          	slli	a0,a0,0x3
   18bc4:	ed5ff06f          	j	18a98 <_free_r+0x130>
   18bc8:	05c68513          	addi	a0,a3,92
   18bcc:	05b68613          	addi	a2,a3,91
   18bd0:	00351513          	slli	a0,a0,0x3
   18bd4:	ec5ff06f          	j	18a98 <_free_r+0x130>
   18bd8:	00e5aa23          	sw	a4,20(a1)
   18bdc:	00e5a823          	sw	a4,16(a1)
   18be0:	0017e693          	ori	a3,a5,1
   18be4:	00a72623          	sw	a0,12(a4)
   18be8:	00a72423          	sw	a0,8(a4)
   18bec:	00d72223          	sw	a3,4(a4)
   18bf0:	00f70733          	add	a4,a4,a5
   18bf4:	00f72023          	sw	a5,0(a4)
   18bf8:	e4dff06f          	j	18a44 <_free_r+0xdc>
   18bfc:	0045a803          	lw	a6,4(a1)
   18c00:	40265613          	srai	a2,a2,0x2
   18c04:	00100793          	li	a5,1
   18c08:	00c797b3          	sll	a5,a5,a2
   18c0c:	0107e7b3          	or	a5,a5,a6
   18c10:	00f5a223          	sw	a5,4(a1)
   18c14:	eb1ff06f          	j	18ac4 <_free_r+0x15c>
   18c18:	15400613          	li	a2,340
   18c1c:	00d66c63          	bltu	a2,a3,18c34 <_free_r+0x2cc>
   18c20:	00f7d693          	srli	a3,a5,0xf
   18c24:	07868513          	addi	a0,a3,120
   18c28:	07768613          	addi	a2,a3,119
   18c2c:	00351513          	slli	a0,a0,0x3
   18c30:	e69ff06f          	j	18a98 <_free_r+0x130>
   18c34:	55400613          	li	a2,1364
   18c38:	00d66c63          	bltu	a2,a3,18c50 <_free_r+0x2e8>
   18c3c:	0127d693          	srli	a3,a5,0x12
   18c40:	07d68513          	addi	a0,a3,125
   18c44:	07c68613          	addi	a2,a3,124
   18c48:	00351513          	slli	a0,a0,0x3
   18c4c:	e4dff06f          	j	18a98 <_free_r+0x130>
   18c50:	3f800513          	li	a0,1016
   18c54:	07e00613          	li	a2,126
   18c58:	e41ff06f          	j	18a98 <_free_r+0x130>
   18c5c:	0017e693          	ori	a3,a5,1
   18c60:	00d72223          	sw	a3,4(a4)
   18c64:	00f62023          	sw	a5,0(a2)
   18c68:	dddff06f          	j	18a44 <_free_r+0xdc>

00018c6c <__register_exitproc>:
   18c6c:	0001b7b7          	lui	a5,0x1b
   18c70:	1b87a703          	lw	a4,440(a5) # 1b1b8 <_global_impure_ptr>
   18c74:	14872783          	lw	a5,328(a4)
   18c78:	04078c63          	beqz	a5,18cd0 <__register_exitproc+0x64>
   18c7c:	0047a703          	lw	a4,4(a5)
   18c80:	01f00813          	li	a6,31
   18c84:	06e84e63          	blt	a6,a4,18d00 <__register_exitproc+0x94>
   18c88:	00271813          	slli	a6,a4,0x2
   18c8c:	02050663          	beqz	a0,18cb8 <__register_exitproc+0x4c>
   18c90:	01078333          	add	t1,a5,a6
   18c94:	08c32423          	sw	a2,136(t1)
   18c98:	1887a883          	lw	a7,392(a5)
   18c9c:	00100613          	li	a2,1
   18ca0:	00e61633          	sll	a2,a2,a4
   18ca4:	00c8e8b3          	or	a7,a7,a2
   18ca8:	1917a423          	sw	a7,392(a5)
   18cac:	10d32423          	sw	a3,264(t1)
   18cb0:	00200693          	li	a3,2
   18cb4:	02d50463          	beq	a0,a3,18cdc <__register_exitproc+0x70>
   18cb8:	00170713          	addi	a4,a4,1
   18cbc:	00e7a223          	sw	a4,4(a5)
   18cc0:	010787b3          	add	a5,a5,a6
   18cc4:	00b7a423          	sw	a1,8(a5)
   18cc8:	00000513          	li	a0,0
   18ccc:	00008067          	ret
   18cd0:	14c70793          	addi	a5,a4,332
   18cd4:	14f72423          	sw	a5,328(a4)
   18cd8:	fa5ff06f          	j	18c7c <__register_exitproc+0x10>
   18cdc:	18c7a683          	lw	a3,396(a5)
   18ce0:	00170713          	addi	a4,a4,1
   18ce4:	00e7a223          	sw	a4,4(a5)
   18ce8:	00c6e6b3          	or	a3,a3,a2
   18cec:	18d7a623          	sw	a3,396(a5)
   18cf0:	010787b3          	add	a5,a5,a6
   18cf4:	00b7a423          	sw	a1,8(a5)
   18cf8:	00000513          	li	a0,0
   18cfc:	00008067          	ret
   18d00:	fff00513          	li	a0,-1
   18d04:	00008067          	ret

00018d08 <_exit>:
   18d08:	05d00893          	li	a7,93
   18d0c:	00000073          	ecall
   18d10:	00054463          	bltz	a0,18d18 <_exit+0x10>
   18d14:	0000006f          	j	18d14 <_exit+0xc>
   18d18:	ff010113          	addi	sp,sp,-16
   18d1c:	00812423          	sw	s0,8(sp)
   18d20:	00050413          	mv	s0,a0
   18d24:	00112623          	sw	ra,12(sp)
   18d28:	40800433          	neg	s0,s0
   18d2c:	c8dfe0ef          	jal	ra,179b8 <__errno>
   18d30:	00852023          	sw	s0,0(a0)
   18d34:	0000006f          	j	18d34 <_exit+0x2c>

Disassembly of section .rodata:

00018d38 <_ZL6dither-0x10>:
   18d38:	003a6473          	csrrsi	s0,fcsr,20
   18d3c:	743a6473          	csrrsi	s0,0x743,20
   18d40:	7365                	.2byte	0x7365
   18d42:	2e74                	.2byte	0x2e74
   18d44:	706a                	.2byte	0x706a
   18d46:	          	jr	128(zero) # 0 <exit-0x10094>

00018d48 <_ZL6dither>:
   18d48:	0800                	.2byte	0x800
   18d4a:	0a02                	.2byte	0xa02
   18d4c:	040c                	.2byte	0x40c
   18d4e:	060e                	.2byte	0x60e
   18d50:	09010b03          	lb	s6,144(sp)
   18d54:	050d070f          	.4byte	0x50d070f
   18d58:	63637553          	.4byte	0x63637553
   18d5c:	6565                	.2byte	0x6565
   18d5e:	6564                	.2byte	0x6564
   18d60:	0a64                	.2byte	0xa64
   18d62:	0000                	.2byte	0x0
   18d64:	2041                	.2byte	0x2041
   18d66:	6168                	.2byte	0x6168
   18d68:	6472                	.2byte	0x6472
   18d6a:	6520                	.2byte	0x6520
   18d6c:	7272                	.2byte	0x7272
   18d6e:	6f20726f          	jal	tp,20460 <__global_pointer$+0x4aa8>
   18d72:	72756363          	bltu	a0,t2,19498 <_ZZ11ff_wtoupperE4cvt1+0xb8>
   18d76:	6572                	.2byte	0x6572
   18d78:	2064                	.2byte	0x2064
   18d7a:	6e69                	.2byte	0x6e69
   18d7c:	7420                	.2byte	0x7420
   18d7e:	6568                	.2byte	0x6568
   18d80:	6c20                	.2byte	0x6c20
   18d82:	6c20776f          	jal	a4,20444 <__global_pointer$+0x4a8c>
   18d86:	7665                	.2byte	0x7665
   18d88:	6c65                	.2byte	0x6c65
   18d8a:	6420                	.2byte	0x6420
   18d8c:	7369                	.2byte	0x7369
   18d8e:	2f49206b          	.4byte	0x2f49206b
   18d92:	616c204f          	.4byte	0x616c204f
   18d96:	6579                	.2byte	0x6579
   18d98:	0a72                	.2byte	0xa72
   18d9a:	0000                	.2byte	0x0
   18d9c:	7341                	.2byte	0x7341
   18d9e:	74726573          	csrrsi	a0,0x747,4
   18da2:	6f69                	.2byte	0x6f69
   18da4:	206e                	.2byte	0x206e
   18da6:	6166                	.2byte	0x6166
   18da8:	6c69                	.2byte	0x6c69
   18daa:	6465                	.2byte	0x6465
   18dac:	000a                	.2byte	0xa
   18dae:	0000                	.2byte	0x0
   18db0:	6854                	.2byte	0x6854
   18db2:	2065                	.2byte	0x2065
   18db4:	6870                	.2byte	0x6870
   18db6:	7379                	.2byte	0x7379
   18db8:	6369                	.2byte	0x6369
   18dba:	6c61                	.2byte	0x6c61
   18dbc:	6420                	.2byte	0x6420
   18dbe:	6972                	.2byte	0x6972
   18dc0:	6576                	.2byte	0x6576
   18dc2:	6320                	.2byte	0x6320
   18dc4:	6e61                	.2byte	0x6e61
   18dc6:	6f6e                	.2byte	0x6f6e
   18dc8:	2074                	.2byte	0x2074
   18dca:	6b726f77          	.4byte	0x6b726f77
   18dce:	000a                	.2byte	0xa
   18dd0:	6c756f43          	.4byte	0x6c756f43
   18dd4:	2064                	.2byte	0x2064
   18dd6:	6f6e                	.2byte	0x6f6e
   18dd8:	2074                	.2byte	0x2074
   18dda:	6966                	.2byte	0x6966
   18ddc:	646e                	.2byte	0x646e
   18dde:	7420                	.2byte	0x7420
   18de0:	6568                	.2byte	0x6568
   18de2:	6620                	.2byte	0x6620
   18de4:	6c69                	.2byte	0x6c69
   18de6:	0a65                	.2byte	0xa65
   18de8:	0000                	.2byte	0x0
   18dea:	0000                	.2byte	0x0
   18dec:	6c756f43          	.4byte	0x6c756f43
   18df0:	2064                	.2byte	0x2064
   18df2:	6f6e                	.2byte	0x6f6e
   18df4:	2074                	.2byte	0x2074
   18df6:	6966                	.2byte	0x6966
   18df8:	646e                	.2byte	0x646e
   18dfa:	7420                	.2byte	0x7420
   18dfc:	6568                	.2byte	0x6568
   18dfe:	7020                	.2byte	0x7020
   18e00:	7461                	.2byte	0x7461
   18e02:	0a68                	.2byte	0xa68
   18e04:	0000                	.2byte	0x0
   18e06:	0000                	.2byte	0x0
   18e08:	6854                	.2byte	0x6854
   18e0a:	2065                	.2byte	0x2065
   18e0c:	6170                	.2byte	0x6170
   18e0e:	6874                	.2byte	0x6874
   18e10:	6e20                	.2byte	0x6e20
   18e12:	6d61                	.2byte	0x6d61
   18e14:	2065                	.2byte	0x2065
   18e16:	6f66                	.2byte	0x6f66
   18e18:	6d72                	.2byte	0x6d72
   18e1a:	7461                	.2byte	0x7461
   18e1c:	6920                	.2byte	0x6920
   18e1e:	6e692073          	csrs	0x6e6,s2
   18e22:	6176                	.2byte	0x6176
   18e24:	696c                	.2byte	0x696c
   18e26:	0a64                	.2byte	0xa64
   18e28:	0000                	.2byte	0x0
   18e2a:	0000                	.2byte	0x0
   18e2c:	6341                	.2byte	0x6341
   18e2e:	73736563          	bltu	t1,s7,19558 <_ZZ11ff_wtoupperE4cvt1+0x178>
   18e32:	6420                	.2byte	0x6420
   18e34:	6e65                	.2byte	0x6e65
   18e36:	6569                	.2byte	0x6569
   18e38:	2064                	.2byte	0x2064
   18e3a:	7564                	.2byte	0x7564
   18e3c:	2065                	.2byte	0x2065
   18e3e:	6f74                	.2byte	0x6f74
   18e40:	7020                	.2byte	0x7020
   18e42:	6f72                	.2byte	0x6f72
   18e44:	6968                	.2byte	0x6968
   18e46:	6962                	.2byte	0x6962
   18e48:	6574                	.2byte	0x6574
   18e4a:	2064                	.2byte	0x2064
   18e4c:	6361                	.2byte	0x6361
   18e4e:	73736563          	bltu	t1,s7,19578 <_ZZ11ff_wtoupperE4cvt1+0x198>
   18e52:	6f20                	.2byte	0x6f20
   18e54:	2072                	.2byte	0x2072
   18e56:	6964                	.2byte	0x6964
   18e58:	6572                	.2byte	0x6572
   18e5a:	726f7463          	bgeu	t5,t1,19582 <_ZZ11ff_wtoupperE4cvt1+0x1a2>
   18e5e:	2079                	.2byte	0x2079
   18e60:	7566                	.2byte	0x7566
   18e62:	6c6c                	.2byte	0x6c6c
   18e64:	000a                	.2byte	0xa
   18e66:	0000                	.2byte	0x0
   18e68:	6341                	.2byte	0x6341
   18e6a:	73736563          	bltu	t1,s7,19594 <_ZZ11ff_wtoupperE4cvt1+0x1b4>
   18e6e:	6420                	.2byte	0x6420
   18e70:	6e65                	.2byte	0x6e65
   18e72:	6569                	.2byte	0x6569
   18e74:	2064                	.2byte	0x2064
   18e76:	7564                	.2byte	0x7564
   18e78:	2065                	.2byte	0x2065
   18e7a:	6f74                	.2byte	0x6f74
   18e7c:	7020                	.2byte	0x7020
   18e7e:	6f72                	.2byte	0x6f72
   18e80:	6968                	.2byte	0x6968
   18e82:	6962                	.2byte	0x6962
   18e84:	6574                	.2byte	0x6574
   18e86:	2064                	.2byte	0x2064
   18e88:	6361                	.2byte	0x6361
   18e8a:	73736563          	bltu	t1,s7,195b4 <_ZZ11ff_wtoupperE4cvt1+0x1d4>
   18e8e:	000a                	.2byte	0xa
   18e90:	6854                	.2byte	0x6854
   18e92:	2065                	.2byte	0x2065
   18e94:	6966                	.2byte	0x6966
   18e96:	656c                	.2byte	0x656c
   18e98:	7269642f          	.4byte	0x7269642f
   18e9c:	6365                	.2byte	0x6365
   18e9e:	6f74                	.2byte	0x6f74
   18ea0:	7972                	.2byte	0x7972
   18ea2:	6f20                	.2byte	0x6f20
   18ea4:	6a62                	.2byte	0x6a62
   18ea6:	6365                	.2byte	0x6365
   18ea8:	2074                	.2byte	0x2074
   18eaa:	7369                	.2byte	0x7369
   18eac:	6920                	.2byte	0x6920
   18eae:	766e                	.2byte	0x766e
   18eb0:	6c61                	.2byte	0x6c61
   18eb2:	6469                	.2byte	0x6469
   18eb4:	000a                	.2byte	0xa
   18eb6:	0000                	.2byte	0x0
   18eb8:	6854                	.2byte	0x6854
   18eba:	2065                	.2byte	0x2065
   18ebc:	6870                	.2byte	0x6870
   18ebe:	7379                	.2byte	0x7379
   18ec0:	6369                	.2byte	0x6369
   18ec2:	6c61                	.2byte	0x6c61
   18ec4:	6420                	.2byte	0x6420
   18ec6:	6972                	.2byte	0x6972
   18ec8:	6576                	.2byte	0x6576
   18eca:	6920                	.2byte	0x6920
   18ecc:	72772073          	csrs	mhpmevent7h,a4
   18ed0:	7469                	.2byte	0x7469
   18ed2:	2065                	.2byte	0x2065
   18ed4:	7270                	.2byte	0x7270
   18ed6:	6365746f          	jal	s0,7050c <__global_pointer$+0x54b54>
   18eda:	6574                	.2byte	0x6574
   18edc:	0a64                	.2byte	0xa64
   18ede:	0000                	.2byte	0x0
   18ee0:	6854                	.2byte	0x6854
   18ee2:	2065                	.2byte	0x2065
   18ee4:	6f6c                	.2byte	0x6f6c
   18ee6:	61636967          	.4byte	0x61636967
   18eea:	206c                	.2byte	0x206c
   18eec:	7264                	.2byte	0x7264
   18eee:	7669                	.2byte	0x7669
   18ef0:	2065                	.2byte	0x2065
   18ef2:	756e                	.2byte	0x756e
   18ef4:	626d                	.2byte	0x626d
   18ef6:	7265                	.2byte	0x7265
   18ef8:	6920                	.2byte	0x6920
   18efa:	6e692073          	csrs	0x6e6,s2
   18efe:	6176                	.2byte	0x6176
   18f00:	696c                	.2byte	0x696c
   18f02:	0a64                	.2byte	0xa64
   18f04:	0000                	.2byte	0x0
   18f06:	0000                	.2byte	0x0
   18f08:	6854                	.2byte	0x6854
   18f0a:	2065                	.2byte	0x2065
   18f0c:	6f76                	.2byte	0x6f76
   18f0e:	756c                	.2byte	0x756c
   18f10:	656d                	.2byte	0x656d
   18f12:	6820                	.2byte	0x6820
   18f14:	7361                	.2byte	0x7361
   18f16:	6e20                	.2byte	0x6e20
   18f18:	6f77206f          	j	8be0e <__global_pointer$+0x70456>
   18f1c:	6b72                	.2byte	0x6b72
   18f1e:	6120                	.2byte	0x6120
   18f20:	6572                	.2byte	0x6572
   18f22:	0a61                	.2byte	0xa61
   18f24:	0000                	.2byte	0x0
   18f26:	0000                	.2byte	0x0
   18f28:	6854                	.2byte	0x6854
   18f2a:	7265                	.2byte	0x7265
   18f2c:	2065                	.2byte	0x2065
   18f2e:	7369                	.2byte	0x7369
   18f30:	6e20                	.2byte	0x6e20
   18f32:	6176206f          	j	7bd48 <__global_pointer$+0x60390>
   18f36:	696c                	.2byte	0x696c
   18f38:	2064                	.2byte	0x2064
   18f3a:	4146                	.2byte	0x4146
   18f3c:	2054                	.2byte	0x2054
   18f3e:	6f76                	.2byte	0x6f76
   18f40:	756c                	.2byte	0x756c
   18f42:	656d                	.2byte	0x656d
   18f44:	000a                	.2byte	0xa
   18f46:	0000                	.2byte	0x0
   18f48:	6854                	.2byte	0x6854
   18f4a:	2065                	.2byte	0x2065
   18f4c:	5f66                	.2byte	0x5f66
   18f4e:	6b6d                	.2byte	0x6b6d
   18f50:	7366                	.2byte	0x7366
   18f52:	2928                	.2byte	0x2928
   18f54:	6120                	.2byte	0x6120
   18f56:	6f62                	.2byte	0x6f62
   18f58:	7472                	.2byte	0x7472
   18f5a:	6465                	.2byte	0x6465
   18f5c:	6420                	.2byte	0x6420
   18f5e:	6575                	.2byte	0x6575
   18f60:	7420                	.2byte	0x7420
   18f62:	6e61206f          	j	2b648 <__global_pointer$+0xfc90>
   18f66:	2079                	.2byte	0x2079
   18f68:	7270                	.2byte	0x7270
   18f6a:	656c626f          	jal	tp,df5c0 <__BSS_END__+0x43c6c>
   18f6e:	0a6d                	.2byte	0xa6d
   18f70:	0000                	.2byte	0x0
   18f72:	0000                	.2byte	0x0
   18f74:	6c756f43          	.4byte	0x6c756f43
   18f78:	2064                	.2byte	0x2064
   18f7a:	6f6e                	.2byte	0x6f6e
   18f7c:	2074                	.2byte	0x2074
   18f7e:	20746567          	.4byte	0x20746567
   18f82:	2061                	.2byte	0x2061
   18f84:	6e617267          	.4byte	0x6e617267
   18f88:	2074                	.2byte	0x2074
   18f8a:	6f74                	.2byte	0x6f74
   18f8c:	6120                	.2byte	0x6120
   18f8e:	73656363          	bltu	a0,s6,196b4 <_ZL5uc437+0xe0>
   18f92:	68742073          	csrs	0x687,s0
   18f96:	2065                	.2byte	0x2065
   18f98:	6f76                	.2byte	0x6f76
   18f9a:	756c                	.2byte	0x756c
   18f9c:	656d                	.2byte	0x656d
   18f9e:	7720                	.2byte	0x7720
   18fa0:	7469                	.2byte	0x7469
   18fa2:	6968                	.2byte	0x6968
   18fa4:	206e                	.2byte	0x206e
   18fa6:	6564                	.2byte	0x6564
   18fa8:	6966                	.2byte	0x6966
   18faa:	656e                	.2byte	0x656e
   18fac:	2064                	.2byte	0x2064
   18fae:	6570                	.2byte	0x6570
   18fb0:	6972                	.2byte	0x6972
   18fb2:	000a646f          	jal	s0,befb2 <__BSS_END__+0x2365e>
   18fb6:	0000                	.2byte	0x0
   18fb8:	6854                	.2byte	0x6854
   18fba:	2065                	.2byte	0x2065
   18fbc:	7265706f          	j	706e2 <__global_pointer$+0x54d2a>
   18fc0:	7461                	.2byte	0x7461
   18fc2:	6f69                	.2byte	0x6f69
   18fc4:	206e                	.2byte	0x206e
   18fc6:	7369                	.2byte	0x7369
   18fc8:	7220                	.2byte	0x7220
   18fca:	6a65                	.2byte	0x6a65
   18fcc:	6365                	.2byte	0x6365
   18fce:	6574                	.2byte	0x6574
   18fd0:	2064                	.2byte	0x2064
   18fd2:	6361                	.2byte	0x6361
   18fd4:	64726f63          	bltu	tp,t2,19632 <_ZL5uc437+0x5e>
   18fd8:	6e69                	.2byte	0x6e69
   18fda:	6f742067          	.4byte	0x6f742067
   18fde:	7420                	.2byte	0x7420
   18fe0:	6568                	.2byte	0x6568
   18fe2:	6620                	.2byte	0x6620
   18fe4:	6c69                	.2byte	0x6c69
   18fe6:	2065                	.2byte	0x2065
   18fe8:	72616873          	csrrsi	a6,mhpmevent6h,2
   18fec:	6e69                	.2byte	0x6e69
   18fee:	6f702067          	.4byte	0x6f702067
   18ff2:	696c                	.2byte	0x696c
   18ff4:	000a7963          	bgeu	s4,zero,19006 <_ZL6dither+0x2be>
   18ff8:	464c                	.2byte	0x464c
   18ffa:	204e                	.2byte	0x204e
   18ffc:	6b726f77          	.4byte	0x6b726f77
   19000:	6e69                	.2byte	0x6e69
   19002:	75622067          	.4byte	0x75622067
   19006:	6666                	.2byte	0x6666
   19008:	7265                	.2byte	0x7265
   1900a:	6320                	.2byte	0x6320
   1900c:	646c756f          	jal	a0,e0652 <__BSS_END__+0x44cfe>
   19010:	6e20                	.2byte	0x6e20
   19012:	6220746f          	jal	s0,20634 <__global_pointer$+0x4c7c>
   19016:	2065                	.2byte	0x2065
   19018:	6c61                	.2byte	0x6c61
   1901a:	6f6c                	.2byte	0x6f6c
   1901c:	65746163          	bltu	s0,s7,1965e <_ZL5uc437+0x8a>
   19020:	0a64                	.2byte	0xa64
   19022:	0000                	.2byte	0x0
   19024:	754e                	.2byte	0x754e
   19026:	626d                	.2byte	0x626d
   19028:	7265                	.2byte	0x7265
   1902a:	6f20                	.2byte	0x6f20
   1902c:	2066                	.2byte	0x2066
   1902e:	6e65706f          	j	70714 <__global_pointer$+0x54d5c>
   19032:	6620                	.2byte	0x6620
   19034:	6c69                	.2byte	0x6c69
   19036:	7365                	.2byte	0x7365
   19038:	3e20                	.2byte	0x3e20
   1903a:	4620                	.2byte	0x4620
   1903c:	5f46                	.2byte	0x5f46
   1903e:	5346                	.2byte	0x5346
   19040:	4c5f 434f 0a4b      	.byte	0x5f, 0x4c, 0x4f, 0x43, 0x4b, 0x0a
   19046:	0000                	.2byte	0x0
   19048:	65766947          	.4byte	0x65766947
   1904c:	206e                	.2byte	0x206e
   1904e:	6170                	.2byte	0x6170
   19050:	6172                	.2byte	0x6172
   19052:	656d                	.2byte	0x656d
   19054:	6574                	.2byte	0x6574
   19056:	2072                	.2byte	0x2072
   19058:	7369                	.2byte	0x7369
   1905a:	6920                	.2byte	0x6920
   1905c:	766e                	.2byte	0x766e
   1905e:	6c61                	.2byte	0x6c61
   19060:	6469                	.2byte	0x6469
   19062:	000a                	.2byte	0xa
   19064:	3130                	.2byte	0x3130
   19066:	3332                	.2byte	0x3332
   19068:	3534                	.2byte	0x3534
   1906a:	3736                	.2byte	0x3736
   1906c:	3938                	.2byte	0x3938
   1906e:	4241                	.2byte	0x4241
   19070:	46454443          	.4byte	0x46454443
   19074:	0000                	.2byte	0x0
   19076:	0000                	.2byte	0x0
   19078:	64494453          	.4byte	0x64494453
   1907c:	656c                	.2byte	0x656c
   1907e:	6520                	.2byte	0x6520
   19080:	7078                	.2byte	0x7078
   19082:	6365                	.2byte	0x6365
   19084:	6574                	.2byte	0x6574
   19086:	2064                	.2byte	0x2064
   19088:	7830                	.2byte	0x7830
   1908a:	3130                	.2byte	0x3130
   1908c:	202c                	.2byte	0x202c
   1908e:	20746f67          	.4byte	0x20746f67
   19092:	7830                	.2byte	0x7830
   19094:	0000                	.2byte	0x0
   19096:	0000                	.2byte	0x0
   19098:	68434453          	.4byte	0x68434453
   1909c:	6365                	.2byte	0x6365
   1909e:	6c6f566b          	.4byte	0x6c6f566b
   190a2:	6174                	.2byte	0x6174
   190a4:	61526567          	.4byte	0x61526567
   190a8:	676e                	.2byte	0x676e
   190aa:	2065                	.2byte	0x2065
   190ac:	7865                	.2byte	0x7865
   190ae:	6570                	.2byte	0x6570
   190b0:	64657463          	bgeu	a0,t1,196f8 <_ZL5uc437+0x124>
   190b4:	3020                	.2byte	0x3020
   190b6:	3078                	.2byte	0x3078
   190b8:	2c31                	.2byte	0x2c31
   190ba:	6720                	.2byte	0x6720
   190bc:	3020746f          	jal	s0,203be <__global_pointer$+0x4a06>
   190c0:	0078                	.2byte	0x78
   190c2:	0000                	.2byte	0x0
   190c4:	68434453          	.4byte	0x68434453
   190c8:	6365                	.2byte	0x6365
   190ca:	6c6f566b          	.4byte	0x6c6f566b
   190ce:	6174                	.2byte	0x6174
   190d0:	61526567          	.4byte	0x61526567
   190d4:	676e                	.2byte	0x676e
   190d6:	2065                	.2byte	0x2065
   190d8:	7865                	.2byte	0x7865
   190da:	6570                	.2byte	0x6570
   190dc:	64657463          	bgeu	a0,t1,19724 <_ZL5uc437+0x150>
   190e0:	3020                	.2byte	0x3020
   190e2:	3078                	.2byte	0x3078
   190e4:	3030                	.2byte	0x3030
   190e6:	3030                	.2byte	0x3030
   190e8:	4131                	.2byte	0x4131
   190ea:	2c41                	.2byte	0x2c41
   190ec:	6720                	.2byte	0x6720
   190ee:	3020746f          	jal	s0,203f0 <__global_pointer$+0x4a38>
   190f2:	0078                	.2byte	0x78
   190f4:	61434453          	.4byte	0x61434453
   190f8:	6472                	.2byte	0x6472
   190fa:	6e49                	.2byte	0x6e49
   190fc:	7469                	.2byte	0x7469
   190fe:	6520                	.2byte	0x6520
   19100:	7078                	.2byte	0x7078
   19102:	6365                	.2byte	0x6365
   19104:	6574                	.2byte	0x6574
   19106:	2064                	.2byte	0x2064
   19108:	7830                	.2byte	0x7830
   1910a:	3130                	.2byte	0x3130
   1910c:	202c                	.2byte	0x202c
   1910e:	20746f67          	.4byte	0x20746f67
   19112:	7830                	.2byte	0x7830
   19114:	0000                	.2byte	0x0
   19116:	0000                	.2byte	0x0
   19118:	61434453          	.4byte	0x61434453
   1911c:	6472                	.2byte	0x6472
   1911e:	6e49                	.2byte	0x6e49
   19120:	7469                	.2byte	0x7469
   19122:	6520                	.2byte	0x6520
   19124:	7078                	.2byte	0x7078
   19126:	6365                	.2byte	0x6365
   19128:	6574                	.2byte	0x6574
   1912a:	2064                	.2byte	0x2064
   1912c:	7830                	.2byte	0x7830
   1912e:	3030                	.2byte	0x3030
   19130:	202c                	.2byte	0x202c
   19132:	20746f67          	.4byte	0x20746f67
   19136:	7830                	.2byte	0x7830
   19138:	0000                	.2byte	0x0
   1913a:	0000                	.2byte	0x0
   1913c:	65524453          	.4byte	0x65524453
   19140:	6461                	.2byte	0x6461
   19142:	676e6953          	.4byte	0x676e6953
   19146:	656c                	.2byte	0x656c
   19148:	6c42                	.2byte	0x6c42
   1914a:	3a6b636f          	jal	t1,cf4f0 <__BSS_END__+0x33b9c>
   1914e:	6520                	.2byte	0x6520
   19150:	7272                	.2byte	0x7272
   19152:	7220726f          	jal	tp,20874 <__global_pointer$+0x4ebc>
   19156:	7365                	.2byte	0x7365
   19158:	6f70                	.2byte	0x6f70
   1915a:	736e                	.2byte	0x736e
   1915c:	2065                	.2byte	0x2065
   1915e:	203d                	.2byte	0x203d
   19160:	72726527          	.4byte	0x72726527
   19164:	0a27726f          	jal	tp,90206 <__global_pointer$+0x7484e>
   19168:	0000                	.2byte	0x0
   1916a:	0000                	.2byte	0x0
   1916c:	65524453          	.4byte	0x65524453
   19170:	6461                	.2byte	0x6461
   19172:	676e6953          	.4byte	0x676e6953
   19176:	656c                	.2byte	0x656c
   19178:	6c42                	.2byte	0x6c42
   1917a:	3a6b636f          	jal	t1,cf520 <__BSS_END__+0x33bcc>
   1917e:	6520                	.2byte	0x6520
   19180:	7272                	.2byte	0x7272
   19182:	7220726f          	jal	tp,208a4 <__global_pointer$+0x4eec>
   19186:	7365                	.2byte	0x7365
   19188:	6f70                	.2byte	0x6f70
   1918a:	736e                	.2byte	0x736e
   1918c:	2065                	.2byte	0x2065
   1918e:	203d                	.2byte	0x203d
   19190:	20434327          	.4byte	0x20434327
   19194:	7265                	.2byte	0x7265
   19196:	6f72                	.2byte	0x6f72
   19198:	2772                	.2byte	0x2772
   1919a:	000a                	.2byte	0xa
   1919c:	65524453          	.4byte	0x65524453
   191a0:	6461                	.2byte	0x6461
   191a2:	676e6953          	.4byte	0x676e6953
   191a6:	656c                	.2byte	0x656c
   191a8:	6c42                	.2byte	0x6c42
   191aa:	3a6b636f          	jal	t1,cf550 <__BSS_END__+0x33bfc>
   191ae:	6520                	.2byte	0x6520
   191b0:	7272                	.2byte	0x7272
   191b2:	7220726f          	jal	tp,208d4 <__global_pointer$+0x4f1c>
   191b6:	7365                	.2byte	0x7365
   191b8:	6f70                	.2byte	0x6f70
   191ba:	736e                	.2byte	0x736e
   191bc:	2065                	.2byte	0x2065
   191be:	203d                	.2byte	0x203d
   191c0:	72614327          	.4byte	0x72614327
   191c4:	2064                	.2byte	0x2064
   191c6:	4345                	.2byte	0x4345
   191c8:	61662043          	.4byte	0x61662043
   191cc:	6c69                	.2byte	0x6c69
   191ce:	6465                	.2byte	0x6465
   191d0:	00000a27          	.4byte	0xa27
   191d4:	65524453          	.4byte	0x65524453
   191d8:	6461                	.2byte	0x6461
   191da:	676e6953          	.4byte	0x676e6953
   191de:	656c                	.2byte	0x656c
   191e0:	6c42                	.2byte	0x6c42
   191e2:	3a6b636f          	jal	t1,cf588 <__BSS_END__+0x33c34>
   191e6:	6520                	.2byte	0x6520
   191e8:	7272                	.2byte	0x7272
   191ea:	7220726f          	jal	tp,2090c <__global_pointer$+0x4f54>
   191ee:	7365                	.2byte	0x7365
   191f0:	6f70                	.2byte	0x6f70
   191f2:	736e                	.2byte	0x736e
   191f4:	2065                	.2byte	0x2065
   191f6:	203d                	.2byte	0x203d
   191f8:	74754f27          	.4byte	0x74754f27
   191fc:	6f20                	.2byte	0x6f20
   191fe:	2066                	.2byte	0x2066
   19200:	6172                	.2byte	0x6172
   19202:	676e                	.2byte	0x676e
   19204:	2765                	.2byte	0x2765
   19206:	7320                	.2byte	0x7320
   19208:	6365                	.2byte	0x6365
   1920a:	6f74                	.2byte	0x6f74
   1920c:	3a72                	.2byte	0x3a72
   1920e:	3020                	.2byte	0x3020
   19210:	0078                	.2byte	0x78
   19212:	0000                	.2byte	0x0
   19214:	72574453          	.4byte	0x72574453
   19218:	7469                	.2byte	0x7469
   1921a:	5365                	.2byte	0x5365
   1921c:	6e69                	.2byte	0x6e69
   1921e:	42656c67          	.4byte	0x42656c67
   19222:	6f6c                	.2byte	0x6f6c
   19224:	203a6b63          	bltu	s4,gp,1943a <_ZZ11ff_wtoupperE4cvt1+0x5a>
   19228:	74697277          	.4byte	0x74697277
   1922c:	2065                	.2byte	0x2065
   1922e:	7265                	.2byte	0x7265
   19230:	6f72                	.2byte	0x6f72
   19232:	0a72                	.2byte	0xa72
   19234:	0000                	.2byte	0x0
   19236:	0000                	.2byte	0x0
   19238:	4146                	.2byte	0x4146
   1923a:	3354                	.2byte	0x3354
   1923c:	2032                	.2byte	0x2032
   1923e:	2020                	.2byte	0x2020
   19240:	0000                	.2byte	0x0
   19242:	0000                	.2byte	0x0
   19244:	3a2a                	.2byte	0x3a2a
   19246:	3e3c                	.2byte	0x3e3c
   19248:	227c                	.2byte	0x227c
   1924a:	00007f3f 2c2b0000 	.8byte	0x2c2b000000007f3f
   19252:	5d5b3d3b          	.4byte	0x5d5b3d3b
	...

00019258 <_ZL5ExCvt>:
   19258:	9a80                	.2byte	0x9a80
   1925a:	4145                	.2byte	0x4145
   1925c:	418e                	.2byte	0x418e
   1925e:	4545808f          	.4byte	0x4545808f
   19262:	4945                	.2byte	0x4945
   19264:	4949                	.2byte	0x4949
   19266:	8f8e                	.2byte	0x8f8e
   19268:	9290                	.2byte	0x9290
   1926a:	4f92                	.2byte	0x4f92
   1926c:	4f99                	.2byte	0x4f99
   1926e:	5555                	.2byte	0x5555
   19270:	9959                	.2byte	0x9959
   19272:	9b9a                	.2byte	0x9b9a
   19274:	9d9c                	.2byte	0x9d9c
   19276:	9f9e                	.2byte	0x9f9e
   19278:	4941                	.2byte	0x4941
   1927a:	a5a5554f          	.4byte	0xa5a5554f
   1927e:	a7a6                	.2byte	0xa7a6
   19280:	a9a8                	.2byte	0xa9a8
   19282:	abaa                	.2byte	0xabaa
   19284:	adac                	.2byte	0xadac
   19286:	afae                	.2byte	0xafae
   19288:	b1b0                	.2byte	0xb1b0
   1928a:	b3b2                	.2byte	0xb3b2
   1928c:	b5b4                	.2byte	0xb5b4
   1928e:	b7b6                	.2byte	0xb7b6
   19290:	b9b8                	.2byte	0xb9b8
   19292:	bbba                	.2byte	0xbbba
   19294:	bdbc                	.2byte	0xbdbc
   19296:	bfbe                	.2byte	0xbfbe
   19298:	c1c0                	.2byte	0xc1c0
   1929a:	c3c2                	.2byte	0xc3c2
   1929c:	c5c4                	.2byte	0xc5c4
   1929e:	c7c6                	.2byte	0xc7c6
   192a0:	c9c8                	.2byte	0xc9c8
   192a2:	cbca                	.2byte	0xcbca
   192a4:	cdcc                	.2byte	0xcdcc
   192a6:	cfce                	.2byte	0xcfce
   192a8:	d1d0                	.2byte	0xd1d0
   192aa:	d3d2                	.2byte	0xd3d2
   192ac:	d5d4                	.2byte	0xd5d4
   192ae:	d7d6                	.2byte	0xd7d6
   192b0:	d9d8                	.2byte	0xd9d8
   192b2:	dbda                	.2byte	0xdbda
   192b4:	dddc                	.2byte	0xdddc
   192b6:	dfde                	.2byte	0xdfde
   192b8:	e1e0                	.2byte	0xe1e0
   192ba:	e3e2                	.2byte	0xe3e2
   192bc:	e5e4                	.2byte	0xe5e4
   192be:	e7e6                	.2byte	0xe7e6
   192c0:	e9e8                	.2byte	0xe9e8
   192c2:	ebea                	.2byte	0xebea
   192c4:	edec                	.2byte	0xedec
   192c6:	efee                	.2byte	0xefee
   192c8:	f1f0                	.2byte	0xf1f0
   192ca:	f3f2                	.2byte	0xf3f2
   192cc:	f5f4                	.2byte	0xf5f4
   192ce:	f7f6                	.2byte	0xf7f6
   192d0:	f9f8                	.2byte	0xf9f8
   192d2:	fbfa                	.2byte	0xfbfa
   192d4:	fdfc                	.2byte	0xfdfc
   192d6:	fffe                	.2byte	0xfffe

000192d8 <_ZL6LfnOfs>:
   192d8:	0301                	.2byte	0x301
   192da:	0705                	.2byte	0x705
   192dc:	0e09                	.2byte	0xe09
   192de:	1210                	.2byte	0x1210
   192e0:	1614                	.2byte	0x1614
   192e2:	1c18                	.2byte	0x1c18
   192e4:	001e                	.2byte	0x1e
   192e6:	0000                	.2byte	0x0
   192e8:	4152                	.2byte	0x4152
   192ea:	004d                	.2byte	0x4d
   192ec:	00004453          	.4byte	0x4453
   192f0:	5355                	.2byte	0x5355
   192f2:	0042                	.2byte	0x42

000192f4 <_ZL9VolumeStr>:
   192f4:	92e8                	.2byte	0x92e8
   192f6:	0001                	.2byte	0x1
   192f8:	92ec                	.2byte	0x92ec
   192fa:	0001                	.2byte	0x1
   192fc:	92f0                	.2byte	0x92f0
   192fe:	0001                	.2byte	0x1
   19300:	c4c8                	.2byte	0xc4c8
   19302:	ffff                	.2byte	0xffff
   19304:	c4ac                	.2byte	0xc4ac
   19306:	ffff                	.2byte	0xffff
   19308:	c498                	.2byte	0xc498
   1930a:	ffff                	.2byte	0xffff
   1930c:	c484                	.2byte	0xc484
   1930e:	ffff                	.2byte	0xffff
   19310:	c470                	.2byte	0xc470
   19312:	ffff                	.2byte	0xffff
   19314:	c45c                	.2byte	0xc45c
   19316:	ffff                	.2byte	0xffff
   19318:	c448                	.2byte	0xc448
   1931a:	ffff                	.2byte	0xffff
   1931c:	c434                	.2byte	0xc434
   1931e:	ffff                	.2byte	0xffff
   19320:	c4e0                	.2byte	0xc4e0
   19322:	ffff                	.2byte	0xffff

00019324 <_ZZ11ff_wtoupperE4cvt2>:
   19324:	1d7d                	.2byte	0x1d7d
   19326:	0001                	.2byte	0x1
   19328:	1e002c63          	.4byte	0x1e002c63
   1932c:	0196                	.2byte	0x196
   1932e:	1ea0                	.2byte	0x1ea0
   19330:	015a                	.2byte	0x15a
   19332:	1f00                	.2byte	0x1f00
   19334:	0608                	.2byte	0x608
   19336:	1f10                	.2byte	0x1f10
   19338:	0606                	.2byte	0x606
   1933a:	1f20                	.2byte	0x1f20
   1933c:	0608                	.2byte	0x608
   1933e:	1f30                	.2byte	0x1f30
   19340:	0608                	.2byte	0x608
   19342:	1f40                	.2byte	0x1f40
   19344:	0606                	.2byte	0x606
   19346:	1f51                	.2byte	0x1f51
   19348:	1f590007          	.4byte	0x1f590007
   1934c:	1f52                	.2byte	0x1f52
   1934e:	1f541f5b          	.4byte	0x1f541f5b
   19352:	1f5d                	.2byte	0x1f5d
   19354:	1f56                	.2byte	0x1f56
   19356:	1f5f 1f60 0608      	.byte	0x5f, 0x1f, 0x60, 0x1f, 0x08, 0x06
   1935c:	1f70                	.2byte	0x1f70
   1935e:	000e                	.2byte	0xe
   19360:	1fba                	.2byte	0x1fba
   19362:	1fc81fbb          	.4byte	0x1fc81fbb
   19366:	1fc9                	.2byte	0x1fc9
   19368:	1fca                	.2byte	0x1fca
   1936a:	1fda1fcb          	.4byte	0x1fda1fcb
   1936e:	1ff81fdb          	.4byte	0x1ff81fdb
   19372:	1ff9                	.2byte	0x1ff9
   19374:	1fea                	.2byte	0x1fea
   19376:	1ffa1feb          	.4byte	0x1ffa1feb
   1937a:	1f801ffb          	.4byte	0x1f801ffb
   1937e:	0608                	.2byte	0x608
   19380:	1f90                	.2byte	0x1f90
   19382:	0608                	.2byte	0x608
   19384:	1fa0                	.2byte	0x1fa0
   19386:	0608                	.2byte	0x608
   19388:	1fb0                	.2byte	0x1fb0
   1938a:	0004                	.2byte	0x4
   1938c:	1fb8                	.2byte	0x1fb8
   1938e:	1fb9                	.2byte	0x1fb9
   19390:	1fb2                	.2byte	0x1fb2
   19392:	1fbc                	.2byte	0x1fbc
   19394:	1fcc                	.2byte	0x1fcc
   19396:	0001                	.2byte	0x1
   19398:	1fd01fc3          	.4byte	0x1fd01fc3
   1939c:	0602                	.2byte	0x602
   1939e:	1fe0                	.2byte	0x1fe0
   193a0:	0602                	.2byte	0x602
   193a2:	1fe5                	.2byte	0x1fe5
   193a4:	0001                	.2byte	0x1
   193a6:	1fec                	.2byte	0x1fec
   193a8:	00011ff3          	csrrw	t6,ustatus,sp
   193ac:	1ffc                	.2byte	0x1ffc
   193ae:	214e                	.2byte	0x214e
   193b0:	0001                	.2byte	0x1
   193b2:	2132                	.2byte	0x2132
   193b4:	2170                	.2byte	0x2170
   193b6:	0210                	.2byte	0x210
   193b8:	2184                	.2byte	0x2184
   193ba:	0001                	.2byte	0x1
   193bc:	24d02183          	lw	gp,589(zero) # 24d <exit-0xfe47>
   193c0:	051a                	.2byte	0x51a
   193c2:	2c30                	.2byte	0x2c30
   193c4:	2c60042f          	.4byte	0x2c60042f
   193c8:	0102                	.2byte	0x102
   193ca:	01062c67          	.4byte	0x1062c67
   193ce:	2c75                	.2byte	0x2c75
   193d0:	0102                	.2byte	0x102
   193d2:	2c80                	.2byte	0x2c80
   193d4:	0164                	.2byte	0x164
   193d6:	2d00                	.2byte	0x2d00
   193d8:	0826                	.2byte	0x826
   193da:	ff41                	.2byte	0xff41
   193dc:	031a                	.2byte	0x31a
	...

000193e0 <_ZZ11ff_wtoupperE4cvt1>:
   193e0:	0061                	.2byte	0x61
   193e2:	031a                	.2byte	0x31a
   193e4:	00e0                	.2byte	0xe0
   193e6:	00f80317          	auipc	t1,0xf80
   193ea:	00ff0307          	.4byte	0xff0307
   193ee:	0001                	.2byte	0x1
   193f0:	0178                	.2byte	0x178
   193f2:	0100                	.2byte	0x100
   193f4:	0130                	.2byte	0x130
   193f6:	0132                	.2byte	0x132
   193f8:	0106                	.2byte	0x106
   193fa:	0139                	.2byte	0x139
   193fc:	0110                	.2byte	0x110
   193fe:	014a                	.2byte	0x14a
   19400:	012e                	.2byte	0x12e
   19402:	0179                	.2byte	0x179
   19404:	0106                	.2byte	0x106
   19406:	0180                	.2byte	0x180
   19408:	004d                	.2byte	0x4d
   1940a:	01810243          	.4byte	0x1810243
   1940e:	0182                	.2byte	0x182
   19410:	0182                	.2byte	0x182
   19412:	0184                	.2byte	0x184
   19414:	0184                	.2byte	0x184
   19416:	0186                	.2byte	0x186
   19418:	01870187          	.4byte	0x1870187
   1941c:	0189                	.2byte	0x189
   1941e:	018a                	.2byte	0x18a
   19420:	018b018b          	.4byte	0x18b018b
   19424:	018d                	.2byte	0x18d
   19426:	018e                	.2byte	0x18e
   19428:	0190018f          	.4byte	0x190018f
   1942c:	0191                	.2byte	0x191
   1942e:	0191                	.2byte	0x191
   19430:	01940193          	addi	gp,s0,25
   19434:	01f6                	.2byte	0x1f6
   19436:	0196                	.2byte	0x196
   19438:	01980197          	auipc	gp,0x1980
   1943c:	0198                	.2byte	0x198
   1943e:	023d                	.2byte	0x23d
   19440:	019c019b          	.4byte	0x19c019b
   19444:	019d                	.2byte	0x19d
   19446:	0220                	.2byte	0x220
   19448:	019f 01a0 01a0      	.byte	0x9f, 0x01, 0xa0, 0x01, 0xa0, 0x01
   1944e:	01a2                	.2byte	0x1a2
   19450:	01a2                	.2byte	0x1a2
   19452:	01a4                	.2byte	0x1a4
   19454:	01a4                	.2byte	0x1a4
   19456:	01a6                	.2byte	0x1a6
   19458:	01a701a7          	.4byte	0x1a701a7
   1945c:	01a9                	.2byte	0x1a9
   1945e:	01aa                	.2byte	0x1aa
   19460:	01ac01ab          	.4byte	0x1ac01ab
   19464:	01ac                	.2byte	0x1ac
   19466:	01ae                	.2byte	0x1ae
   19468:	01af01af          	.4byte	0x1af01af
   1946c:	01b1                	.2byte	0x1b1
   1946e:	01b2                	.2byte	0x1b2
   19470:	01b301b3          	add	gp,t1,s11
   19474:	01b5                	.2byte	0x1b5
   19476:	01b5                	.2byte	0x1b5
   19478:	01b801b7          	lui	gp,0x1b80
   1947c:	01b8                	.2byte	0x1b8
   1947e:	01ba                	.2byte	0x1ba
   19480:	01bc01bb          	.4byte	0x1bc01bb
   19484:	01bc                	.2byte	0x1bc
   19486:	01be                	.2byte	0x1be
   19488:	01c001f7          	.4byte	0x1c001f7
   1948c:	01c1                	.2byte	0x1c1
   1948e:	01c2                	.2byte	0x1c2
   19490:	01c401c3          	.4byte	0x1c401c3
   19494:	01c5                	.2byte	0x1c5
   19496:	01c4                	.2byte	0x1c4
   19498:	01c801c7          	.4byte	0x1c801c7
   1949c:	01ca01c7          	.4byte	0x1ca01c7
   194a0:	01ca01cb          	.4byte	0x1ca01cb
   194a4:	01cd                	.2byte	0x1cd
   194a6:	0110                	.2byte	0x110
   194a8:	01dd                	.2byte	0x1dd
   194aa:	0001                	.2byte	0x1
   194ac:	018e                	.2byte	0x18e
   194ae:	01de                	.2byte	0x1de
   194b0:	0112                	.2byte	0x112
   194b2:	000301f3          	.4byte	0x301f3
   194b6:	01f1                	.2byte	0x1f1
   194b8:	01f4                	.2byte	0x1f4
   194ba:	01f4                	.2byte	0x1f4
   194bc:	01f8                	.2byte	0x1f8
   194be:	0128                	.2byte	0x128
   194c0:	0222                	.2byte	0x222
   194c2:	0112                	.2byte	0x112
   194c4:	023a                	.2byte	0x23a
   194c6:	0009                	.2byte	0x9
   194c8:	2c65                	.2byte	0x2c65
   194ca:	023b023b          	.4byte	0x23b023b
   194ce:	023d                	.2byte	0x23d
   194d0:	2c66                	.2byte	0x2c66
   194d2:	0240023f 02410241 	.8byte	0x24102410240023f
   194da:	0246                	.2byte	0x246
   194dc:	010a                	.2byte	0x10a
   194de:	00400253          	.4byte	0x400253
   194e2:	0181                	.2byte	0x181
   194e4:	0186                	.2byte	0x186
   194e6:	0255                	.2byte	0x255
   194e8:	0189                	.2byte	0x189
   194ea:	018a                	.2byte	0x18a
   194ec:	0258                	.2byte	0x258
   194ee:	025a018f          	.4byte	0x25a018f
   194f2:	0190                	.2byte	0x190
   194f4:	025c                	.2byte	0x25c
   194f6:	025d                	.2byte	0x25d
   194f8:	025e                	.2byte	0x25e
   194fa:	025f 0193 0261      	.byte	0x5f, 0x02, 0x93, 0x01, 0x61, 0x02
   19500:	0262                	.2byte	0x262
   19502:	0194                	.2byte	0x194
   19504:	0264                	.2byte	0x264
   19506:	0265                	.2byte	0x265
   19508:	0266                	.2byte	0x266
   1950a:	01970267          	jalr	tp,25(a4)
   1950e:	0196                	.2byte	0x196
   19510:	026a                	.2byte	0x26a
   19512:	2c62                	.2byte	0x2c62
   19514:	026c                	.2byte	0x26c
   19516:	026d                	.2byte	0x26d
   19518:	026e                	.2byte	0x26e
   1951a:	019c                	.2byte	0x19c
   1951c:	0270                	.2byte	0x270
   1951e:	0271                	.2byte	0x271
   19520:	019d                	.2byte	0x19d
   19522:	02740273          	.4byte	0x2740273
   19526:	019f 0276 0277      	.byte	0x9f, 0x01, 0x76, 0x02, 0x77, 0x02
   1952c:	0278                	.2byte	0x278
   1952e:	0279                	.2byte	0x279
   19530:	027a                	.2byte	0x27a
   19532:	027c027b          	.4byte	0x27c027b
   19536:	2c64                	.2byte	0x2c64
   19538:	027e                	.2byte	0x27e
   1953a:	027f                	.2byte	0x27f
   1953c:	01a6                	.2byte	0x1a6
   1953e:	0281                	.2byte	0x281
   19540:	0282                	.2byte	0x282
   19542:	01a9                	.2byte	0x1a9
   19544:	0284                	.2byte	0x284
   19546:	0285                	.2byte	0x285
   19548:	0286                	.2byte	0x286
   1954a:	01ae0287          	.4byte	0x1ae0287
   1954e:	0244                	.2byte	0x244
   19550:	01b1                	.2byte	0x1b1
   19552:	01b2                	.2byte	0x1b2
   19554:	0245                	.2byte	0x245
   19556:	028d                	.2byte	0x28d
   19558:	028e                	.2byte	0x28e
   1955a:	0290028f          	.4byte	0x290028f
   1955e:	0291                	.2byte	0x291
   19560:	037b01b7          	lui	gp,0x37b0
   19564:	03fd0003          	lb	zero,63(s10)
   19568:	03fe                	.2byte	0x3fe
   1956a:	03ff                	.2byte	0x3ff
   1956c:	03ac                	.2byte	0x3ac
   1956e:	0004                	.2byte	0x4
   19570:	0386                	.2byte	0x386
   19572:	0388                	.2byte	0x388
   19574:	0389                	.2byte	0x389
   19576:	038a                	.2byte	0x38a
   19578:	03b1                	.2byte	0x3b1
   1957a:	0311                	.2byte	0x311
   1957c:	03c2                	.2byte	0x3c2
   1957e:	0002                	.2byte	0x2
   19580:	03a303a3          	sb	s10,39(t1) # f9940d <__BSS_END__+0xefdab9>
   19584:	03c4                	.2byte	0x3c4
   19586:	0308                	.2byte	0x308
   19588:	03cc                	.2byte	0x3cc
   1958a:	038c0003          	lb	zero,56(s8)
   1958e:	038e                	.2byte	0x38e
   19590:	03d8038f          	.4byte	0x3d8038f
   19594:	0118                	.2byte	0x118
   19596:	03f2                	.2byte	0x3f2
   19598:	000a                	.2byte	0xa
   1959a:	03f9                	.2byte	0x3f9
   1959c:	03f403f3          	.4byte	0x3f403f3
   195a0:	03f5                	.2byte	0x3f5
   195a2:	03f6                	.2byte	0x3f6
   195a4:	03f703f7          	.4byte	0x3f703f7
   195a8:	03f9                	.2byte	0x3f9
   195aa:	03fa                	.2byte	0x3fa
   195ac:	03fa                	.2byte	0x3fa
   195ae:	0430                	.2byte	0x430
   195b0:	0320                	.2byte	0x320
   195b2:	0450                	.2byte	0x450
   195b4:	0710                	.2byte	0x710
   195b6:	0460                	.2byte	0x460
   195b8:	0122                	.2byte	0x122
   195ba:	048a                	.2byte	0x48a
   195bc:	0136                	.2byte	0x136
   195be:	04c1                	.2byte	0x4c1
   195c0:	010e                	.2byte	0x10e
   195c2:	000104cf          	.4byte	0x104cf
   195c6:	04c0                	.2byte	0x4c0
   195c8:	04d0                	.2byte	0x4d0
   195ca:	0144                	.2byte	0x144
   195cc:	0561                	.2byte	0x561
   195ce:	0426                	.2byte	0x426
   195d0:	0000                	.2byte	0x0
	...

000195d4 <_ZL5uc437>:
   195d4:	00fc00c7          	.4byte	0xfc00c7
   195d8:	00e9                	.2byte	0xe9
   195da:	00e2                	.2byte	0xe2
   195dc:	00e4                	.2byte	0xe4
   195de:	00e0                	.2byte	0xe0
   195e0:	00e5                	.2byte	0xe5
   195e2:	00ea00e7          	jalr	14(s4)
   195e6:	00e800eb          	.4byte	0xe800eb
   195ea:	00ee00ef          	jal	ra,f95f8 <__BSS_END__+0x5dca4>
   195ee:	00ec                	.2byte	0xec
   195f0:	00c4                	.2byte	0xc4
   195f2:	00c5                	.2byte	0xc5
   195f4:	00c9                	.2byte	0xc9
   195f6:	00e6                	.2byte	0xe6
   195f8:	00c6                	.2byte	0xc6
   195fa:	00f4                	.2byte	0xf4
   195fc:	00f6                	.2byte	0xf6
   195fe:	00f2                	.2byte	0xf2
   19600:	00f900fb          	.4byte	0xf900fb
   19604:	00ff                	.2byte	0xff
   19606:	00d6                	.2byte	0xd6
   19608:	00dc                	.2byte	0xdc
   1960a:	00a2                	.2byte	0xa2
   1960c:	00a500a3          	sb	a0,1(a0)
   19610:	019220a7          	.4byte	0x19220a7
   19614:	00e1                	.2byte	0xe1
   19616:	00ed                	.2byte	0xed
   19618:	00fa00f3          	.4byte	0xfa00f3
   1961c:	00f1                	.2byte	0xf1
   1961e:	00d1                	.2byte	0xd1
   19620:	00aa                	.2byte	0xaa
   19622:	00ba                	.2byte	0xba
   19624:	231000bf 00bd00ac 	.8byte	0xbd00ac231000bf
   1962c:	00bc                	.2byte	0xbc
   1962e:	00a1                	.2byte	0xa1
   19630:	00bb00ab          	.4byte	0xbb00ab
   19634:	2591                	.2byte	0x2591
   19636:	2592                	.2byte	0x2592
   19638:	25022593          	slti	a1,tp,592
   1963c:	2524                	.2byte	0x2524
   1963e:	2561                	.2byte	0x2561
   19640:	2562                	.2byte	0x2562
   19642:	2556                	.2byte	0x2556
   19644:	2555                	.2byte	0x2555
   19646:	25512563          	.4byte	0x25512563
   1964a:	255d2557          	.4byte	0x255d2557
   1964e:	255c                	.2byte	0x255c
   19650:	2510255b          	.4byte	0x2510255b
   19654:	2514                	.2byte	0x2514
   19656:	2534                	.2byte	0x2534
   19658:	252c                	.2byte	0x252c
   1965a:	251c                	.2byte	0x251c
   1965c:	2500                	.2byte	0x2500
   1965e:	253c                	.2byte	0x253c
   19660:	255e                	.2byte	0x255e
   19662:	255f 255a 2554      	.byte	0x5f, 0x25, 0x5a, 0x25, 0x54, 0x25
   19668:	2569                	.2byte	0x2569
   1966a:	2566                	.2byte	0x2566
   1966c:	2560                	.2byte	0x2560
   1966e:	2550                	.2byte	0x2550
   19670:	256c                	.2byte	0x256c
   19672:	25682567          	.4byte	0x25682567
   19676:	2564                	.2byte	0x2564
   19678:	2565                	.2byte	0x2565
   1967a:	2559                	.2byte	0x2559
   1967c:	2558                	.2byte	0x2558
   1967e:	2552                	.2byte	0x2552
   19680:	256b2553          	.4byte	0x256b2553
   19684:	256a                	.2byte	0x256a
   19686:	2518                	.2byte	0x2518
   19688:	250c                	.2byte	0x250c
   1968a:	2588                	.2byte	0x2588
   1968c:	2584                	.2byte	0x2584
   1968e:	258c                	.2byte	0x258c
   19690:	2590                	.2byte	0x2590
   19692:	2580                	.2byte	0x2580
   19694:	03b1                	.2byte	0x3b1
   19696:	00df 0393 03c0      	.byte	0xdf, 0x00, 0x93, 0x03, 0xc0, 0x03
   1969c:	03c303a3          	sb	t3,39(t1)
   196a0:	00b5                	.2byte	0xb5
   196a2:	03c4                	.2byte	0x3c4
   196a4:	03a6                	.2byte	0x3a6
   196a6:	0398                	.2byte	0x398
   196a8:	03a9                	.2byte	0x3a9
   196aa:	03b4                	.2byte	0x3b4
   196ac:	221e                	.2byte	0x221e
   196ae:	03c6                	.2byte	0x3c6
   196b0:	03b5                	.2byte	0x3b5
   196b2:	2229                	.2byte	0x2229
   196b4:	2261                	.2byte	0x2261
   196b6:	00b1                	.2byte	0xb1
   196b8:	2265                	.2byte	0x2265
   196ba:	2264                	.2byte	0x2264
   196bc:	2320                	.2byte	0x2320
   196be:	2321                	.2byte	0x2321
   196c0:	224800f7          	.4byte	0x224800f7
   196c4:	00b0                	.2byte	0xb0
   196c6:	2219                	.2byte	0x2219
   196c8:	221a00b7          	lui	ra,0x221a0
   196cc:	207f                	.2byte	0x207f
   196ce:	00b2                	.2byte	0xb2
   196d0:	25a0                	.2byte	0x25a0
   196d2:	00a0                	.2byte	0xa0
   196d4:	cc34                	.2byte	0xcc34
   196d6:	ffff                	.2byte	0xffff
   196d8:	d70c                	.2byte	0xd70c
   196da:	ffff                	.2byte	0xffff
   196dc:	d70c                	.2byte	0xd70c
   196de:	ffff                	.2byte	0xffff
   196e0:	d70c                	.2byte	0xd70c
   196e2:	ffff                	.2byte	0xffff
   196e4:	c934                	.2byte	0xc934
   196e6:	ffff                	.2byte	0xffff
   196e8:	d70c                	.2byte	0xd70c
   196ea:	ffff                	.2byte	0xffff
   196ec:	d70c                	.2byte	0xd70c
   196ee:	ffff                	.2byte	0xffff
   196f0:	d70c                	.2byte	0xd70c
   196f2:	ffff                	.2byte	0xffff
   196f4:	d70c                	.2byte	0xd70c
   196f6:	ffff                	.2byte	0xffff
   196f8:	d70c                	.2byte	0xd70c
   196fa:	ffff                	.2byte	0xffff
   196fc:	d70c                	.2byte	0xd70c
   196fe:	ffff                	.2byte	0xffff
   19700:	d70c                	.2byte	0xd70c
   19702:	ffff                	.2byte	0xffff
   19704:	d70c                	.2byte	0xd70c
   19706:	ffff                	.2byte	0xffff
   19708:	d70c                	.2byte	0xd70c
   1970a:	ffff                	.2byte	0xffff
   1970c:	d70c                	.2byte	0xd70c
   1970e:	ffff                	.2byte	0xffff
   19710:	d70c                	.2byte	0xd70c
   19712:	ffff                	.2byte	0xffff
   19714:	d70c                	.2byte	0xd70c
   19716:	ffff                	.2byte	0xffff
   19718:	d70c                	.2byte	0xd70c
   1971a:	ffff                	.2byte	0xffff
   1971c:	d70c                	.2byte	0xd70c
   1971e:	ffff                	.2byte	0xffff
   19720:	d70c                	.2byte	0xd70c
   19722:	ffff                	.2byte	0xffff
   19724:	d70c                	.2byte	0xd70c
   19726:	ffff                	.2byte	0xffff
   19728:	d70c                	.2byte	0xd70c
   1972a:	ffff                	.2byte	0xffff
   1972c:	d70c                	.2byte	0xd70c
   1972e:	ffff                	.2byte	0xffff
   19730:	d70c                	.2byte	0xd70c
   19732:	ffff                	.2byte	0xffff
   19734:	d70c                	.2byte	0xd70c
   19736:	ffff                	.2byte	0xffff
   19738:	d70c                	.2byte	0xd70c
   1973a:	ffff                	.2byte	0xffff
   1973c:	c8a8                	.2byte	0xc8a8
   1973e:	ffff                	.2byte	0xffff
   19740:	c7b4                	.2byte	0xc7b4
   19742:	ffff                	.2byte	0xffff
   19744:	d70c                	.2byte	0xd70c
   19746:	ffff                	.2byte	0xffff
   19748:	c654                	.2byte	0xc654
   1974a:	ffff                	.2byte	0xffff

0001974c <_ZL4njZZ>:
   1974c:	0100                	.2byte	0x100
   1974e:	1008                	.2byte	0x1008
   19750:	0209                	.2byte	0x209
   19752:	18110a03          	lb	s4,385(sp)
   19756:	1920                	.2byte	0x1920
   19758:	0b12                	.2byte	0xb12
   1975a:	0504                	.2byte	0x504
   1975c:	130c                	.2byte	0x130c
   1975e:	211a                	.2byte	0x211a
   19760:	3028                	.2byte	0x3028
   19762:	2229                	.2byte	0x2229
   19764:	060d141b          	.4byte	0x60d141b
   19768:	1c150e07          	.4byte	0x1c150e07
   1976c:	38312a23          	sw	gp,916(sp)
   19770:	3239                	.2byte	0x3239
   19772:	161d242b          	.4byte	0x161d242b
   19776:	251e170f          	.4byte	0x251e170f
   1977a:	332c                	.2byte	0x332c
   1977c:	3b3a                	.2byte	0x3b3a
   1977e:	2d34                	.2byte	0x2d34
   19780:	1f26                	.2byte	0x1f26
   19782:	3c352e27          	.4byte	0x3c352e27
   19786:	363d                	.2byte	0x363d
   19788:	3f3e372f          	.4byte	0x3f3e372f

Disassembly of section .eh_frame:

0001a000 <__EH_FRAME_BEGIN__>:
   1a000:	0010                	.2byte	0x10
   1a002:	0000                	.2byte	0x0
   1a004:	0000                	.2byte	0x0
   1a006:	0000                	.2byte	0x0
   1a008:	00527a03          	.4byte	0x527a03
   1a00c:	7c01                	.2byte	0x7c01
   1a00e:	0101                	.2byte	0x101
   1a010:	00020d1b          	.4byte	0x20d1b
   1a014:	0038                	.2byte	0x38
   1a016:	0000                	.2byte	0x0
   1a018:	0018                	.2byte	0x18
   1a01a:	0000                	.2byte	0x0
   1a01c:	6200                	.2byte	0x6200
   1a01e:	ffff                	.2byte	0xffff
   1a020:	0210                	.2byte	0x210
   1a022:	0000                	.2byte	0x0
   1a024:	4400                	.2byte	0x4400
   1a026:	d00e                	.2byte	0xd00e
   1a028:	4c04                	.2byte	0x4c04
   1a02a:	0181                	.2byte	0x181
   1a02c:	0288                	.2byte	0x288
   1a02e:	0389                	.2byte	0x389
   1a030:	9254                	.2byte	0x9254
   1a032:	9304                	.2byte	0x9304
   1a034:	9405                	.2byte	0x9405
   1a036:	9506                	.2byte	0x9506
   1a038:	0a300207          	.4byte	0xa300207
   1a03c:	44c1                	.2byte	0x44c1
   1a03e:	44c8                	.2byte	0x44c8
   1a040:	44c9                	.2byte	0x44c9
   1a042:	44d2                	.2byte	0x44d2
   1a044:	44d444d3          	.4byte	0x44d444d3
   1a048:	44d5                	.2byte	0x44d5
   1a04a:	000e                	.2byte	0xe
   1a04c:	0b44                	.2byte	0xb44
   1a04e:	0000                	.2byte	0x0
   1a050:	004c                	.2byte	0x4c
   1a052:	0000                	.2byte	0x0
   1a054:	0054                	.2byte	0x54
   1a056:	0000                	.2byte	0x0
   1a058:	63d4                	.2byte	0x63d4
   1a05a:	ffff                	.2byte	0xffff
   1a05c:	00d8                	.2byte	0xd8
   1a05e:	0000                	.2byte	0x0
   1a060:	4400                	.2byte	0x4400
   1a062:	400e                	.2byte	0x400e
   1a064:	9344                	.2byte	0x9344
   1a066:	7405                	.2byte	0x7405
   1a068:	0694                	.2byte	0x694
   1a06a:	0a980997          	auipc	s3,0xa980
   1a06e:	0b99                	.2byte	0xb99
   1a070:	0c9a                	.2byte	0xc9a
   1a072:	01810d9b          	.4byte	0x1810d9b
   1a076:	0288                	.2byte	0x288
   1a078:	0389                	.2byte	0x389
   1a07a:	0492                	.2byte	0x492
   1a07c:	0795                	.2byte	0x795
   1a07e:	0896                	.2byte	0x896
   1a080:	6402                	.2byte	0x6402
   1a082:	44c1                	.2byte	0x44c1
   1a084:	44c8                	.2byte	0x44c8
   1a086:	44c9                	.2byte	0x44c9
   1a088:	44d2                	.2byte	0x44d2
   1a08a:	44d444d3          	.4byte	0x44d444d3
   1a08e:	44d5                	.2byte	0x44d5
   1a090:	44d6                	.2byte	0x44d6
   1a092:	44d844d7          	.4byte	0x44d844d7
   1a096:	44d9                	.2byte	0x44d9
   1a098:	44da                	.2byte	0x44da
   1a09a:	000e44db          	.4byte	0xe44db
   1a09e:	0000                	.2byte	0x0
   1a0a0:	001c                	.2byte	0x1c
   1a0a2:	0000                	.2byte	0x0
   1a0a4:	00a4                	.2byte	0xa4
   1a0a6:	0000                	.2byte	0x0
   1a0a8:	6020                	.2byte	0x6020
   1a0aa:	ffff                	.2byte	0xffff
   1a0ac:	0088                	.2byte	0x88
   1a0ae:	0000                	.2byte	0x0
   1a0b0:	4400                	.2byte	0x4400
   1a0b2:	100e                	.2byte	0x100e
   1a0b4:	8144                	.2byte	0x8144
   1a0b6:	0201                	.2byte	0x201
   1a0b8:	0a58                	.2byte	0xa58
   1a0ba:	44c1                	.2byte	0x44c1
   1a0bc:	000e                	.2byte	0xe
   1a0be:	0b44                	.2byte	0xb44
   1a0c0:	0010                	.2byte	0x10
   1a0c2:	0000                	.2byte	0x0
   1a0c4:	00c4                	.2byte	0xc4
   1a0c6:	0000                	.2byte	0x0
   1a0c8:	643c                	.2byte	0x643c
   1a0ca:	ffff                	.2byte	0xffff
   1a0cc:	0028                	.2byte	0x28
   1a0ce:	0000                	.2byte	0x0
   1a0d0:	0000                	.2byte	0x0
   1a0d2:	0000                	.2byte	0x0
   1a0d4:	0018                	.2byte	0x18
   1a0d6:	0000                	.2byte	0x0
   1a0d8:	00d8                	.2byte	0xd8
   1a0da:	0000                	.2byte	0x0
   1a0dc:	6450                	.2byte	0x6450
   1a0de:	ffff                	.2byte	0xffff
   1a0e0:	0160                	.2byte	0x160
   1a0e2:	0000                	.2byte	0x0
   1a0e4:	6000                	.2byte	0x6000
   1a0e6:	200e                	.2byte	0x200e
   1a0e8:	0e013c03          	.4byte	0xe013c03
   1a0ec:	0000                	.2byte	0x0
   1a0ee:	0000                	.2byte	0x0
   1a0f0:	0010                	.2byte	0x10
   1a0f2:	0000                	.2byte	0x0
   1a0f4:	00f4                	.2byte	0xf4
   1a0f6:	0000                	.2byte	0x0
   1a0f8:	6594                	.2byte	0x6594
   1a0fa:	ffff                	.2byte	0xffff
   1a0fc:	0070                	.2byte	0x70
   1a0fe:	0000                	.2byte	0x0
   1a100:	0000                	.2byte	0x0
   1a102:	0000                	.2byte	0x0
   1a104:	0010                	.2byte	0x10
   1a106:	0000                	.2byte	0x0
   1a108:	0108                	.2byte	0x108
   1a10a:	0000                	.2byte	0x0
   1a10c:	65f0                	.2byte	0x65f0
   1a10e:	ffff                	.2byte	0xffff
   1a110:	0038                	.2byte	0x38
   1a112:	0000                	.2byte	0x0
   1a114:	0000                	.2byte	0x0
   1a116:	0000                	.2byte	0x0
   1a118:	0010                	.2byte	0x10
   1a11a:	0000                	.2byte	0x0
   1a11c:	011c                	.2byte	0x11c
   1a11e:	0000                	.2byte	0x0
   1a120:	6614                	.2byte	0x6614
   1a122:	ffff                	.2byte	0xffff
   1a124:	0010                	.2byte	0x10
   1a126:	0000                	.2byte	0x0
   1a128:	0000                	.2byte	0x0
   1a12a:	0000                	.2byte	0x0
   1a12c:	0010                	.2byte	0x10
   1a12e:	0000                	.2byte	0x0
   1a130:	0130                	.2byte	0x130
   1a132:	0000                	.2byte	0x0
   1a134:	6610                	.2byte	0x6610
   1a136:	ffff                	.2byte	0xffff
   1a138:	001c                	.2byte	0x1c
   1a13a:	0000                	.2byte	0x0
   1a13c:	0000                	.2byte	0x0
   1a13e:	0000                	.2byte	0x0
   1a140:	0010                	.2byte	0x10
   1a142:	0000                	.2byte	0x0
   1a144:	0144                	.2byte	0x144
   1a146:	0000                	.2byte	0x0
   1a148:	6618                	.2byte	0x6618
   1a14a:	ffff                	.2byte	0xffff
   1a14c:	0548                	.2byte	0x548
   1a14e:	0000                	.2byte	0x0
   1a150:	0000                	.2byte	0x0
   1a152:	0000                	.2byte	0x0
   1a154:	0028                	.2byte	0x28
   1a156:	0000                	.2byte	0x0
   1a158:	0158                	.2byte	0x158
   1a15a:	0000                	.2byte	0x0
   1a15c:	6b4c                	.2byte	0x6b4c
   1a15e:	ffff                	.2byte	0xffff
   1a160:	0168                	.2byte	0x168
   1a162:	0000                	.2byte	0x0
   1a164:	4400                	.2byte	0x4400
   1a166:	100e                	.2byte	0x100e
   1a168:	8844                	.2byte	0x8844
   1a16a:	5002                	.2byte	0x5002
   1a16c:	0181                	.2byte	0x181
   1a16e:	0389                	.2byte	0x389
   1a170:	0a011403          	lh	s0,160(sp)
   1a174:	44c1                	.2byte	0x44c1
   1a176:	44c8                	.2byte	0x44c8
   1a178:	48c9                	.2byte	0x48c9
   1a17a:	000e                	.2byte	0xe
   1a17c:	0b44                	.2byte	0xb44
   1a17e:	0000                	.2byte	0x0
   1a180:	002c                	.2byte	0x2c
   1a182:	0000                	.2byte	0x0
   1a184:	0184                	.2byte	0x184
   1a186:	0000                	.2byte	0x0
   1a188:	6c88                	.2byte	0x6c88
   1a18a:	ffff                	.2byte	0xffff
   1a18c:	0214                	.2byte	0x214
   1a18e:	0000                	.2byte	0x0
   1a190:	4400                	.2byte	0x4400
   1a192:	100e                	.2byte	0x100e
   1a194:	8844                	.2byte	0x8844
   1a196:	5402                	.2byte	0x5402
   1a198:	0181                	.2byte	0x181
   1a19a:	0389                	.2byte	0x389
   1a19c:	0492                	.2byte	0x492
   1a19e:	0a016c03          	.4byte	0xa016c03
   1a1a2:	44c1                	.2byte	0x44c1
   1a1a4:	44c8                	.2byte	0x44c8
   1a1a6:	44c9                	.2byte	0x44c9
   1a1a8:	48d2                	.2byte	0x48d2
   1a1aa:	000e                	.2byte	0xe
   1a1ac:	0b44                	.2byte	0xb44
   1a1ae:	0000                	.2byte	0x0
   1a1b0:	002c                	.2byte	0x2c
   1a1b2:	0000                	.2byte	0x0
   1a1b4:	01b4                	.2byte	0x1b4
   1a1b6:	0000                	.2byte	0x0
   1a1b8:	6e6c                	.2byte	0x6e6c
   1a1ba:	ffff                	.2byte	0xffff
   1a1bc:	02ac                	.2byte	0x2ac
   1a1be:	0000                	.2byte	0x0
   1a1c0:	4400                	.2byte	0x4400
   1a1c2:	100e                	.2byte	0x100e
   1a1c4:	8844                	.2byte	0x8844
   1a1c6:	5402                	.2byte	0x5402
   1a1c8:	0181                	.2byte	0x181
   1a1ca:	0389                	.2byte	0x389
   1a1cc:	0492                	.2byte	0x492
   1a1ce:	0a024c03          	lbu	s8,160(tp) # a0 <exit-0xfff4>
   1a1d2:	44c1                	.2byte	0x44c1
   1a1d4:	44c8                	.2byte	0x44c8
   1a1d6:	44c9                	.2byte	0x44c9
   1a1d8:	48d2                	.2byte	0x48d2
   1a1da:	000e                	.2byte	0xe
   1a1dc:	0b44                	.2byte	0xb44
   1a1de:	0000                	.2byte	0x0
   1a1e0:	0034                	.2byte	0x34
   1a1e2:	0000                	.2byte	0x0
   1a1e4:	01e4                	.2byte	0x1e4
   1a1e6:	0000                	.2byte	0x0
   1a1e8:	70e8                	.2byte	0x70e8
   1a1ea:	ffff                	.2byte	0xffff
   1a1ec:	0280                	.2byte	0x280
   1a1ee:	0000                	.2byte	0x0
   1a1f0:	4400                	.2byte	0x4400
   1a1f2:	200e                	.2byte	0x200e
   1a1f4:	8844                	.2byte	0x8844
   1a1f6:	5c02                	.2byte	0x5c02
   1a1f8:	0389                	.2byte	0x389
   1a1fa:	0492                	.2byte	0x492
   1a1fc:	01810593          	addi	a1,sp,24
   1a200:	0694                	.2byte	0x694
   1a202:	0a017803          	.4byte	0xa017803
   1a206:	44c1                	.2byte	0x44c1
   1a208:	44c8                	.2byte	0x44c8
   1a20a:	44c9                	.2byte	0x44c9
   1a20c:	44d2                	.2byte	0x44d2
   1a20e:	44d448d3          	.4byte	0x44d448d3
   1a212:	000e                	.2byte	0xe
   1a214:	0b44                	.2byte	0xb44
   1a216:	0000                	.2byte	0x0
   1a218:	0030                	.2byte	0x30
   1a21a:	0000                	.2byte	0x0
   1a21c:	021c                	.2byte	0x21c
   1a21e:	0000                	.2byte	0x0
   1a220:	7330                	.2byte	0x7330
   1a222:	ffff                	.2byte	0xffff
   1a224:	0200                	.2byte	0x200
   1a226:	0000                	.2byte	0x0
   1a228:	4400                	.2byte	0x4400
   1a22a:	100e                	.2byte	0x100e
   1a22c:	8944                	.2byte	0x8944
   1a22e:	02885003          	lhu	zero,40(a6)
   1a232:	0181                	.2byte	0x181
   1a234:	0a01b003          	.4byte	0xa01b003
   1a238:	44c1                	.2byte	0x44c1
   1a23a:	44c8                	.2byte	0x44c8
   1a23c:	48c9                	.2byte	0x48c9
   1a23e:	000e                	.2byte	0xe
   1a240:	0b44                	.2byte	0xb44
   1a242:	c150                	.2byte	0xc150
   1a244:	c844                	.2byte	0xc844
   1a246:	c944                	.2byte	0xc944
   1a248:	0e48                	.2byte	0xe48
   1a24a:	0000                	.2byte	0x0
   1a24c:	0034                	.2byte	0x34
   1a24e:	0000                	.2byte	0x0
   1a250:	0250                	.2byte	0x250
   1a252:	0000                	.2byte	0x0
   1a254:	74fc                	.2byte	0x74fc
   1a256:	ffff                	.2byte	0xffff
   1a258:	017c                	.2byte	0x17c
   1a25a:	0000                	.2byte	0x0
   1a25c:	4800                	.2byte	0x4800
   1a25e:	b00e                	.2byte	0xb00e
   1a260:	4404                	.2byte	0x4404
   1a262:	0492                	.2byte	0x492
   1a264:	8860                	.2byte	0x8860
   1a266:	8902                	.2byte	0x8902
   1a268:	94059303          	lh	t1,-1728(a1)
   1a26c:	9506                	.2byte	0x9506
   1a26e:	03018107          	.4byte	0x3018107
   1a272:	0128                	.2byte	0x128
   1a274:	44c1                	.2byte	0x44c1
   1a276:	44c8                	.2byte	0x44c8
   1a278:	44c9                	.2byte	0x44c9
   1a27a:	44d2                	.2byte	0x44d2
   1a27c:	44d444d3          	.4byte	0x44d444d3
   1a280:	44d5                	.2byte	0x44d5
   1a282:	000e                	.2byte	0xe
   1a284:	0034                	.2byte	0x34
   1a286:	0000                	.2byte	0x0
   1a288:	0288                	.2byte	0x288
   1a28a:	0000                	.2byte	0x0
   1a28c:	7640                	.2byte	0x7640
   1a28e:	ffff                	.2byte	0xffff
   1a290:	0178                	.2byte	0x178
   1a292:	0000                	.2byte	0x0
   1a294:	4800                	.2byte	0x4800
   1a296:	b00e                	.2byte	0xb00e
   1a298:	4404                	.2byte	0x4404
   1a29a:	0492                	.2byte	0x492
   1a29c:	8860                	.2byte	0x8860
   1a29e:	8902                	.2byte	0x8902
   1a2a0:	94059303          	lh	t1,-1728(a1)
   1a2a4:	9506                	.2byte	0x9506
   1a2a6:	03018107          	.4byte	0x3018107
   1a2aa:	0124                	.2byte	0x124
   1a2ac:	44c1                	.2byte	0x44c1
   1a2ae:	44c8                	.2byte	0x44c8
   1a2b0:	44c9                	.2byte	0x44c9
   1a2b2:	44d2                	.2byte	0x44d2
   1a2b4:	44d444d3          	.4byte	0x44d444d3
   1a2b8:	44d5                	.2byte	0x44d5
   1a2ba:	000e                	.2byte	0xe
   1a2bc:	0028                	.2byte	0x28
   1a2be:	0000                	.2byte	0x0
   1a2c0:	02c0                	.2byte	0x2c0
   1a2c2:	0000                	.2byte	0x0
   1a2c4:	7780                	.2byte	0x7780
   1a2c6:	ffff                	.2byte	0xffff
   1a2c8:	032c                	.2byte	0x32c
   1a2ca:	0000                	.2byte	0x0
   1a2cc:	4800                	.2byte	0x4800
   1a2ce:	100e                	.2byte	0x100e
   1a2d0:	8844                	.2byte	0x8844
   1a2d2:	5402                	.2byte	0x5402
   1a2d4:	0181                	.2byte	0x181
   1a2d6:	0389                	.2byte	0x389
   1a2d8:	0492                	.2byte	0x492
   1a2da:	c1021403          	lh	s0,-1008(tp) # fffffc10 <__BSS_END__+0xfff642bc>
   1a2de:	c844                	.2byte	0xc844
   1a2e0:	c944                	.2byte	0xc944
   1a2e2:	d244                	.2byte	0xd244
   1a2e4:	0e48                	.2byte	0xe48
   1a2e6:	0000                	.2byte	0x0
   1a2e8:	0038                	.2byte	0x38
   1a2ea:	0000                	.2byte	0x0
   1a2ec:	02ec                	.2byte	0x2ec
   1a2ee:	0000                	.2byte	0x0
   1a2f0:	7a80                	.2byte	0x7a80
   1a2f2:	ffff                	.2byte	0xffff
   1a2f4:	0140                	.2byte	0x140
   1a2f6:	0000                	.2byte	0x0
   1a2f8:	4400                	.2byte	0x4400
   1a2fa:	100e                	.2byte	0x100e
   1a2fc:	8844                	.2byte	0x8844
   1a2fe:	5402                	.2byte	0x5402
   1a300:	0389                	.2byte	0x389
   1a302:	0181                	.2byte	0x181
   1a304:	0492                	.2byte	0x492
   1a306:	9002                	.2byte	0x9002
   1a308:	c10a                	.2byte	0xc10a
   1a30a:	c844                	.2byte	0xc844
   1a30c:	c944                	.2byte	0xc944
   1a30e:	d244                	.2byte	0xd244
   1a310:	0e44                	.2byte	0xe44
   1a312:	4400                	.2byte	0x4400
   1a314:	c168020b          	.4byte	0xc168020b
   1a318:	c844                	.2byte	0xc844
   1a31a:	c944                	.2byte	0xc944
   1a31c:	d244                	.2byte	0xd244
   1a31e:	0e48                	.2byte	0xe48
   1a320:	0000                	.2byte	0x0
   1a322:	0000                	.2byte	0x0
   1a324:	0010                	.2byte	0x10
   1a326:	0000                	.2byte	0x0
   1a328:	0328                	.2byte	0x328
   1a32a:	0000                	.2byte	0x0
   1a32c:	7b84                	.2byte	0x7b84
   1a32e:	ffff                	.2byte	0xffff
   1a330:	00ec                	.2byte	0xec
   1a332:	0000                	.2byte	0x0
   1a334:	0000                	.2byte	0x0
   1a336:	0000                	.2byte	0x0
   1a338:	0028                	.2byte	0x28
   1a33a:	0000                	.2byte	0x0
   1a33c:	033c                	.2byte	0x33c
   1a33e:	0000                	.2byte	0x0
   1a340:	7c5c                	.2byte	0x7c5c
   1a342:	ffff                	.2byte	0xffff
   1a344:	00d0                	.2byte	0xd0
   1a346:	0000                	.2byte	0x0
   1a348:	5400                	.2byte	0x5400
   1a34a:	100e                	.2byte	0x100e
   1a34c:	8850                	.2byte	0x8850
   1a34e:	8902                	.2byte	0x8902
   1a350:	81049203          	lh	tp,-2032(s1)
   1a354:	7401                	.2byte	0x7401
   1a356:	c10a                	.2byte	0xc10a
   1a358:	c844                	.2byte	0xc844
   1a35a:	c944                	.2byte	0xc944
   1a35c:	d244                	.2byte	0xd244
   1a35e:	0e44                	.2byte	0xe44
   1a360:	4400                	.2byte	0x4400
   1a362:	0038000b          	.4byte	0x38000b
   1a366:	0000                	.2byte	0x0
   1a368:	0368                	.2byte	0x368
   1a36a:	0000                	.2byte	0x0
   1a36c:	7d00                	.2byte	0x7d00
   1a36e:	ffff                	.2byte	0xffff
   1a370:	0200                	.2byte	0x200
   1a372:	0000                	.2byte	0x0
   1a374:	4400                	.2byte	0x4400
   1a376:	200e                	.2byte	0x200e
   1a378:	8860                	.2byte	0x8860
   1a37a:	8902                	.2byte	0x8902
   1a37c:	81049203          	lh	tp,-2032(s1)
   1a380:	9301                	.2byte	0x9301
   1a382:	9405                	.2byte	0x9405
   1a384:	9506                	.2byte	0x9506
   1a386:	70089607          	.4byte	0x70089607
   1a38a:	c10a                	.2byte	0xc10a
   1a38c:	c844                	.2byte	0xc844
   1a38e:	c944                	.2byte	0xc944
   1a390:	d244                	.2byte	0xd244
   1a392:	d344                	.2byte	0xd344
   1a394:	d444                	.2byte	0xd444
   1a396:	d544                	.2byte	0xd544
   1a398:	d644                	.2byte	0xd644
   1a39a:	0e48                	.2byte	0xe48
   1a39c:	4400                	.2byte	0x4400
   1a39e:	0048000b          	.4byte	0x48000b
   1a3a2:	0000                	.2byte	0x0
   1a3a4:	03a4                	.2byte	0x3a4
   1a3a6:	0000                	.2byte	0x0
   1a3a8:	7ec4                	.2byte	0x7ec4
   1a3aa:	ffff                	.2byte	0xffff
   1a3ac:	0190                	.2byte	0x190
   1a3ae:	0000                	.2byte	0x0
   1a3b0:	5000                	.2byte	0x5000
   1a3b2:	200e                	.2byte	0x200e
   1a3b4:	8854                	.2byte	0x8854
   1a3b6:	9202                	.2byte	0x9202
   1a3b8:	8104                	.2byte	0x8104
   1a3ba:	8901                	.2byte	0x8901
   1a3bc:	6c059303          	lh	t1,1728(a1)
   1a3c0:	44c1                	.2byte	0x44c1
   1a3c2:	44c8                	.2byte	0x44c8
   1a3c4:	44c9                	.2byte	0x44c9
   1a3c6:	44d2                	.2byte	0x44d2
   1a3c8:	000e48d3          	.4byte	0xe48d3
   1a3cc:	0e50                	.2byte	0xe50
   1a3ce:	8120                	.2byte	0x8120
   1a3d0:	8801                	.2byte	0x8801
   1a3d2:	8902                	.2byte	0x8902
   1a3d4:	93049203          	lh	tp,-1744(s1)
   1a3d8:	6005                	.2byte	0x6005
   1a3da:	c10a                	.2byte	0xc10a
   1a3dc:	c844                	.2byte	0xc844
   1a3de:	c948                	.2byte	0xc948
   1a3e0:	d244                	.2byte	0xd244
   1a3e2:	d344                	.2byte	0xd344
   1a3e4:	0e48                	.2byte	0xe48
   1a3e6:	4400                	.2byte	0x4400
   1a3e8:	0000000b          	.4byte	0xb
   1a3ec:	0028                	.2byte	0x28
   1a3ee:	0000                	.2byte	0x0
   1a3f0:	03f0                	.2byte	0x3f0
   1a3f2:	0000                	.2byte	0x0
   1a3f4:	8008                	.2byte	0x8008
   1a3f6:	ffff                	.2byte	0xffff
   1a3f8:	01e4                	.2byte	0x1e4
   1a3fa:	0000                	.2byte	0x0
   1a3fc:	4400                	.2byte	0x4400
   1a3fe:	100e                	.2byte	0x100e
   1a400:	8850                	.2byte	0x8850
   1a402:	9202                	.2byte	0x9202
   1a404:	8104                	.2byte	0x8104
   1a406:	8901                	.2byte	0x8901
   1a408:	0a580203          	lb	tp,165(a6)
   1a40c:	44c1                	.2byte	0x44c1
   1a40e:	44c8                	.2byte	0x44c8
   1a410:	44c9                	.2byte	0x44c9
   1a412:	44d2                	.2byte	0x44d2
   1a414:	000e                	.2byte	0xe
   1a416:	0b44                	.2byte	0xb44
   1a418:	0060                	.2byte	0x60
   1a41a:	0000                	.2byte	0x0
   1a41c:	041c                	.2byte	0x41c
   1a41e:	0000                	.2byte	0x0
   1a420:	81c0                	.2byte	0x81c0
   1a422:	ffff                	.2byte	0xffff
   1a424:	058c                	.2byte	0x58c
   1a426:	0000                	.2byte	0x0
   1a428:	4400                	.2byte	0x4400
   1a42a:	200e                	.2byte	0x200e
   1a42c:	9254                	.2byte	0x9254
   1a42e:	9304                	.2byte	0x9304
   1a430:	8105                	.2byte	0x8105
   1a432:	8801                	.2byte	0x8801
   1a434:	8902                	.2byte	0x8902
   1a436:	0a600203          	lb	tp,166(zero) # a6 <exit-0xffee>
   1a43a:	44c1                	.2byte	0x44c1
   1a43c:	44c8                	.2byte	0x44c8
   1a43e:	44c9                	.2byte	0x44c9
   1a440:	44d2                	.2byte	0x44d2
   1a442:	000e44d3          	.4byte	0xe44d3
   1a446:	0b44                	.2byte	0xb44
   1a448:	0a02e003          	.4byte	0xa02e003
   1a44c:	44c1                	.2byte	0x44c1
   1a44e:	44c8                	.2byte	0x44c8
   1a450:	44c9                	.2byte	0x44c9
   1a452:	44d2                	.2byte	0x44d2
   1a454:	000e48d3          	.4byte	0xe48d3
   1a458:	0b44                	.2byte	0xb44
   1a45a:	0a44                	.2byte	0xa44
   1a45c:	44c1                	.2byte	0x44c1
   1a45e:	44c8                	.2byte	0x44c8
   1a460:	44c9                	.2byte	0x44c9
   1a462:	44d2                	.2byte	0x44d2
   1a464:	000e48d3          	.4byte	0xe48d3
   1a468:	0b44                	.2byte	0xb44
   1a46a:	0a44                	.2byte	0xa44
   1a46c:	44c1                	.2byte	0x44c1
   1a46e:	44c8                	.2byte	0x44c8
   1a470:	44c9                	.2byte	0x44c9
   1a472:	44d2                	.2byte	0x44d2
   1a474:	000e48d3          	.4byte	0xe48d3
   1a478:	0b44                	.2byte	0xb44
   1a47a:	0000                	.2byte	0x0
   1a47c:	004c                	.2byte	0x4c
   1a47e:	0000                	.2byte	0x0
   1a480:	0480                	.2byte	0x480
   1a482:	0000                	.2byte	0x0
   1a484:	86e8                	.2byte	0x86e8
   1a486:	ffff                	.2byte	0xffff
   1a488:	028c                	.2byte	0x28c
   1a48a:	0000                	.2byte	0x0
   1a48c:	4400                	.2byte	0x4400
   1a48e:	400e                	.2byte	0x400e
   1a490:	9874                	.2byte	0x9874
   1a492:	810a                	.2byte	0x810a
   1a494:	8801                	.2byte	0x8801
   1a496:	8902                	.2byte	0x8902
   1a498:	93049203          	lh	tp,-1744(s1)
   1a49c:	9405                	.2byte	0x9405
   1a49e:	9506                	.2byte	0x9506
   1a4a0:	97089607          	.4byte	0x97089607
   1a4a4:	9909                	.2byte	0x9909
   1a4a6:	9b0c9a0b          	.4byte	0x9b0c9a0b
   1a4aa:	020d                	.2byte	0x20d
   1a4ac:	0a9c                	.2byte	0xa9c
   1a4ae:	44c1                	.2byte	0x44c1
   1a4b0:	44c8                	.2byte	0x44c8
   1a4b2:	44c9                	.2byte	0x44c9
   1a4b4:	44d2                	.2byte	0x44d2
   1a4b6:	44d444d3          	.4byte	0x44d444d3
   1a4ba:	44d5                	.2byte	0x44d5
   1a4bc:	44d6                	.2byte	0x44d6
   1a4be:	44d8                	.2byte	0x44d8
   1a4c0:	44d9                	.2byte	0x44d9
   1a4c2:	44da                	.2byte	0x44da
   1a4c4:	44d748db          	.4byte	0x44d748db
   1a4c8:	000e                	.2byte	0xe
   1a4ca:	0b44                	.2byte	0xb44
   1a4cc:	0050                	.2byte	0x50
   1a4ce:	0000                	.2byte	0x0
   1a4d0:	04d0                	.2byte	0x4d0
   1a4d2:	0000                	.2byte	0x0
   1a4d4:	8924                	.2byte	0x8924
   1a4d6:	ffff                	.2byte	0xffff
   1a4d8:	04e8                	.2byte	0x4e8
   1a4da:	0000                	.2byte	0x0
   1a4dc:	4400                	.2byte	0x4400
   1a4de:	600e                	.2byte	0x600e
   1a4e0:	8854                	.2byte	0x8854
   1a4e2:	9702                	.2byte	0x9702
   1a4e4:	9a09                	.2byte	0x9a09
   1a4e6:	810c                	.2byte	0x810c
   1a4e8:	6801                	.2byte	0x6801
   1a4ea:	0389                	.2byte	0x389
   1a4ec:	0492                	.2byte	0x492
   1a4ee:	06940593          	addi	a1,s0,105
   1a4f2:	0795                	.2byte	0x795
   1a4f4:	0896                	.2byte	0x896
   1a4f6:	0a98                	.2byte	0xa98
   1a4f8:	0b99                	.2byte	0xb99
   1a4fa:	80020d9b          	.4byte	0x80020d9b
   1a4fe:	c10a                	.2byte	0xc10a
   1a500:	c844                	.2byte	0xc844
   1a502:	c944                	.2byte	0xc944
   1a504:	d244                	.2byte	0xd244
   1a506:	d344                	.2byte	0xd344
   1a508:	d444                	.2byte	0xd444
   1a50a:	d544                	.2byte	0xd544
   1a50c:	d644                	.2byte	0xd644
   1a50e:	d844                	.2byte	0xd844
   1a510:	d944                	.2byte	0xd944
   1a512:	da44                	.2byte	0xda44
   1a514:	db44                	.2byte	0xdb44
   1a516:	d748                	.2byte	0xd748
   1a518:	0e44                	.2byte	0xe44
   1a51a:	4400                	.2byte	0x4400
   1a51c:	0000000b          	.4byte	0xb
   1a520:	0070                	.2byte	0x70
   1a522:	0000                	.2byte	0x0
   1a524:	0524                	.2byte	0x524
   1a526:	0000                	.2byte	0x0
   1a528:	8db8                	.2byte	0x8db8
   1a52a:	ffff                	.2byte	0xffff
   1a52c:	0644                	.2byte	0x644
   1a52e:	0000                	.2byte	0x0
   1a530:	4400                	.2byte	0x4400
   1a532:	500e                	.2byte	0x500e
   1a534:	8878                	.2byte	0x8878
   1a536:	9b02                	.2byte	0x9b02
   1a538:	810d                	.2byte	0x810d
   1a53a:	8901                	.2byte	0x8901
   1a53c:	93049203          	lh	tp,-1744(s1)
   1a540:	9405                	.2byte	0x9405
   1a542:	9506                	.2byte	0x9506
   1a544:	97089607          	.4byte	0x97089607
   1a548:	9809                	.2byte	0x9809
   1a54a:	990a                	.2byte	0x990a
   1a54c:	020c9a0b          	.4byte	0x20c9a0b
   1a550:	0a4c                	.2byte	0xa4c
   1a552:	44c8                	.2byte	0x44c8
   1a554:	44c1                	.2byte	0x44c1
   1a556:	44c9                	.2byte	0x44c9
   1a558:	44d2                	.2byte	0x44d2
   1a55a:	44d444d3          	.4byte	0x44d444d3
   1a55e:	44d5                	.2byte	0x44d5
   1a560:	44d6                	.2byte	0x44d6
   1a562:	44d844d7          	.4byte	0x44d844d7
   1a566:	44d9                	.2byte	0x44d9
   1a568:	44da                	.2byte	0x44da
   1a56a:	000e48db          	.4byte	0xe48db
   1a56e:	0b44                	.2byte	0xb44
   1a570:	6402                	.2byte	0x6402
   1a572:	c10a                	.2byte	0xc10a
   1a574:	c844                	.2byte	0xc844
   1a576:	c944                	.2byte	0xc944
   1a578:	d244                	.2byte	0xd244
   1a57a:	d344                	.2byte	0xd344
   1a57c:	d444                	.2byte	0xd444
   1a57e:	d544                	.2byte	0xd544
   1a580:	d644                	.2byte	0xd644
   1a582:	d744                	.2byte	0xd744
   1a584:	d844                	.2byte	0xd844
   1a586:	d944                	.2byte	0xd944
   1a588:	da44                	.2byte	0xda44
   1a58a:	db44                	.2byte	0xdb44
   1a58c:	0e44                	.2byte	0xe44
   1a58e:	4400                	.2byte	0x4400
   1a590:	0000000b          	.4byte	0xb
   1a594:	0040                	.2byte	0x40
   1a596:	0000                	.2byte	0x0
   1a598:	0598                	.2byte	0x598
   1a59a:	0000                	.2byte	0x0
   1a59c:	9388                	.2byte	0x9388
   1a59e:	ffff                	.2byte	0xffff
   1a5a0:	0360                	.2byte	0x360
   1a5a2:	0000                	.2byte	0x0
   1a5a4:	4400                	.2byte	0x4400
   1a5a6:	300e                	.2byte	0x300e
   1a5a8:	8968                	.2byte	0x8968
   1a5aa:	96049203          	lh	tp,-1696(s1)
   1a5ae:	8108                	.2byte	0x8108
   1a5b0:	8801                	.2byte	0x8801
   1a5b2:	9302                	.2byte	0x9302
   1a5b4:	9405                	.2byte	0x9405
   1a5b6:	9506                	.2byte	0x9506
   1a5b8:	98099707          	.4byte	0x98099707
   1a5bc:	020a                	.2byte	0x20a
   1a5be:	0a64                	.2byte	0xa64
   1a5c0:	48c1                	.2byte	0x48c1
   1a5c2:	44c8                	.2byte	0x44c8
   1a5c4:	44c9                	.2byte	0x44c9
   1a5c6:	44d2                	.2byte	0x44d2
   1a5c8:	44d444d3          	.4byte	0x44d444d3
   1a5cc:	44d5                	.2byte	0x44d5
   1a5ce:	44d6                	.2byte	0x44d6
   1a5d0:	44d844d7          	.4byte	0x44d844d7
   1a5d4:	000e                	.2byte	0xe
   1a5d6:	0b44                	.2byte	0xb44
   1a5d8:	0048                	.2byte	0x48
   1a5da:	0000                	.2byte	0x0
   1a5dc:	05dc                	.2byte	0x5dc
   1a5de:	0000                	.2byte	0x0
   1a5e0:	96a4                	.2byte	0x96a4
   1a5e2:	ffff                	.2byte	0xffff
   1a5e4:	0240                	.2byte	0x240
   1a5e6:	0000                	.2byte	0x0
   1a5e8:	4400                	.2byte	0x4400
   1a5ea:	300e                	.2byte	0x300e
   1a5ec:	8944                	.2byte	0x8944
   1a5ee:	02886c03          	.4byte	0x2886c03
   1a5f2:	01810593          	addi	a1,sp,24
   1a5f6:	0492                	.2byte	0x492
   1a5f8:	0694                	.2byte	0x694
   1a5fa:	0795                	.2byte	0x795
   1a5fc:	0896                	.2byte	0x896
   1a5fe:	0a980997          	auipc	s3,0xa980
   1a602:	0b99                	.2byte	0xb99
   1a604:	6802                	.2byte	0x6802
   1a606:	c10a                	.2byte	0xc10a
   1a608:	c844                	.2byte	0xc844
   1a60a:	c944                	.2byte	0xc944
   1a60c:	d244                	.2byte	0xd244
   1a60e:	d344                	.2byte	0xd344
   1a610:	d444                	.2byte	0xd444
   1a612:	d544                	.2byte	0xd544
   1a614:	d644                	.2byte	0xd644
   1a616:	d744                	.2byte	0xd744
   1a618:	d844                	.2byte	0xd844
   1a61a:	d944                	.2byte	0xd944
   1a61c:	0e44                	.2byte	0xe44
   1a61e:	4400                	.2byte	0x4400
   1a620:	0000000b          	.4byte	0xb
   1a624:	0034                	.2byte	0x34
   1a626:	0000                	.2byte	0x0
   1a628:	0628                	.2byte	0x628
   1a62a:	0000                	.2byte	0x0
   1a62c:	9898                	.2byte	0x9898
   1a62e:	ffff                	.2byte	0xffff
   1a630:	00a0                	.2byte	0xa0
   1a632:	0000                	.2byte	0x0
   1a634:	4400                	.2byte	0x4400
   1a636:	300e                	.2byte	0x300e
   1a638:	8850                	.2byte	0x8850
   1a63a:	8102                	.2byte	0x8102
   1a63c:	0201                	.2byte	0x201
   1a63e:	0a4c                	.2byte	0xa4c
   1a640:	44c1                	.2byte	0x44c1
   1a642:	44c8                	.2byte	0x44c8
   1a644:	000e                	.2byte	0xe
   1a646:	0b44                	.2byte	0xb44
   1a648:	0a54                	.2byte	0xa54
   1a64a:	44c1                	.2byte	0x44c1
   1a64c:	44c8                	.2byte	0x44c8
   1a64e:	000e                	.2byte	0xe
   1a650:	0b44                	.2byte	0xb44
   1a652:	c144                	.2byte	0xc144
   1a654:	c844                	.2byte	0xc844
   1a656:	0e48                	.2byte	0xe48
   1a658:	0000                	.2byte	0x0
   1a65a:	0000                	.2byte	0x0
   1a65c:	004c                	.2byte	0x4c
   1a65e:	0000                	.2byte	0x0
   1a660:	0660                	.2byte	0x660
   1a662:	0000                	.2byte	0x0
   1a664:	9900                	.2byte	0x9900
   1a666:	ffff                	.2byte	0xffff
   1a668:	1078                	.2byte	0x1078
   1a66a:	0000                	.2byte	0x0
   1a66c:	4400                	.2byte	0x4400
   1a66e:	a00e                	.2byte	0xa00e
   1a670:	7401                	.2byte	0x7401
   1a672:	0181                	.2byte	0x181
   1a674:	0288                	.2byte	0x288
   1a676:	0389                	.2byte	0x389
   1a678:	0492                	.2byte	0x492
   1a67a:	06940593          	addi	a1,s0,105
   1a67e:	0795                	.2byte	0x795
   1a680:	0896                	.2byte	0x896
   1a682:	0a980997          	auipc	s3,0xa980
   1a686:	0b99                	.2byte	0xb99
   1a688:	0c9a                	.2byte	0xc9a
   1a68a:	0a740d9b          	.4byte	0xa740d9b
   1a68e:	44c1                	.2byte	0x44c1
   1a690:	44c8                	.2byte	0x44c8
   1a692:	44c9                	.2byte	0x44c9
   1a694:	44d444d3          	.4byte	0x44d444d3
   1a698:	44d5                	.2byte	0x44d5
   1a69a:	44d6                	.2byte	0x44d6
   1a69c:	44d844d7          	.4byte	0x44d844d7
   1a6a0:	44d9                	.2byte	0x44d9
   1a6a2:	44da                	.2byte	0x44da
   1a6a4:	44d248db          	.4byte	0x44d248db
   1a6a8:	000e                	.2byte	0xe
   1a6aa:	0b44                	.2byte	0xb44
   1a6ac:	0048                	.2byte	0x48
   1a6ae:	0000                	.2byte	0x0
   1a6b0:	06b0                	.2byte	0x6b0
   1a6b2:	0000                	.2byte	0x0
   1a6b4:	a928                	.2byte	0xa928
   1a6b6:	ffff                	.2byte	0xffff
   1a6b8:	02f0                	.2byte	0x2f0
   1a6ba:	0000                	.2byte	0x0
   1a6bc:	4400                	.2byte	0x4400
   1a6be:	400e                	.2byte	0x400e
   1a6c0:	8170                	.2byte	0x8170
   1a6c2:	8801                	.2byte	0x8801
   1a6c4:	8902                	.2byte	0x8902
   1a6c6:	93049203          	lh	tp,-1744(s1)
   1a6ca:	9405                	.2byte	0x9405
   1a6cc:	9506                	.2byte	0x9506
   1a6ce:	97089607          	.4byte	0x97089607
   1a6d2:	9809                	.2byte	0x9809
   1a6d4:	990a                	.2byte	0x990a
   1a6d6:	740c9a0b          	.4byte	0x740c9a0b
   1a6da:	c10a                	.2byte	0xc10a
   1a6dc:	c844                	.2byte	0xc844
   1a6de:	c944                	.2byte	0xc944
   1a6e0:	d244                	.2byte	0xd244
   1a6e2:	d344                	.2byte	0xd344
   1a6e4:	d444                	.2byte	0xd444
   1a6e6:	d544                	.2byte	0xd544
   1a6e8:	d644                	.2byte	0xd644
   1a6ea:	d744                	.2byte	0xd744
   1a6ec:	d844                	.2byte	0xd844
   1a6ee:	da44                	.2byte	0xda44
   1a6f0:	d948                	.2byte	0xd948
   1a6f2:	0e44                	.2byte	0xe44
   1a6f4:	4400                	.2byte	0x4400
   1a6f6:	0040000b          	.4byte	0x40000b
   1a6fa:	0000                	.2byte	0x0
   1a6fc:	06fc                	.2byte	0x6fc
   1a6fe:	0000                	.2byte	0x0
   1a700:	abcc                	.2byte	0xabcc
   1a702:	ffff                	.2byte	0xffff
   1a704:	0328                	.2byte	0x328
   1a706:	0000                	.2byte	0x0
   1a708:	4c00                	.2byte	0x4c00
   1a70a:	100e                	.2byte	0x100e
   1a70c:	8850                	.2byte	0x8850
   1a70e:	8102                	.2byte	0x8102
   1a710:	8901                	.2byte	0x8901
   1a712:	64049203          	lh	tp,1600(s1)
   1a716:	44c1                	.2byte	0x44c1
   1a718:	44c8                	.2byte	0x44c8
   1a71a:	44c9                	.2byte	0x44c9
   1a71c:	44d2                	.2byte	0x44d2
   1a71e:	000e                	.2byte	0xe
   1a720:	0e4c                	.2byte	0xe4c
   1a722:	8110                	.2byte	0x8110
   1a724:	8801                	.2byte	0x8801
   1a726:	8902                	.2byte	0x8902
   1a728:	03049203          	lh	tp,48(s1)
   1a72c:	018c                	.2byte	0x18c
   1a72e:	c10a                	.2byte	0xc10a
   1a730:	c848                	.2byte	0xc848
   1a732:	c944                	.2byte	0xc944
   1a734:	d244                	.2byte	0xd244
   1a736:	0e44                	.2byte	0xe44
   1a738:	4400                	.2byte	0x4400
   1a73a:	0010000b          	.4byte	0x10000b
   1a73e:	0000                	.2byte	0x0
   1a740:	0740                	.2byte	0x740
   1a742:	0000                	.2byte	0x0
   1a744:	aeb0                	.2byte	0xaeb0
   1a746:	ffff                	.2byte	0xffff
   1a748:	0078                	.2byte	0x78
   1a74a:	0000                	.2byte	0x0
   1a74c:	0000                	.2byte	0x0
   1a74e:	0000                	.2byte	0x0
   1a750:	0010                	.2byte	0x10
   1a752:	0000                	.2byte	0x0
   1a754:	0754                	.2byte	0x754
   1a756:	0000                	.2byte	0x0
   1a758:	af14                	.2byte	0xaf14
   1a75a:	ffff                	.2byte	0xffff
   1a75c:	0038                	.2byte	0x38
   1a75e:	0000                	.2byte	0x0
   1a760:	0000                	.2byte	0x0
   1a762:	0000                	.2byte	0x0
   1a764:	0010                	.2byte	0x10
   1a766:	0000                	.2byte	0x0
   1a768:	0768                	.2byte	0x768
   1a76a:	0000                	.2byte	0x0
   1a76c:	af38                	.2byte	0xaf38
   1a76e:	ffff                	.2byte	0xffff
   1a770:	0158                	.2byte	0x158
   1a772:	0000                	.2byte	0x0
   1a774:	0000                	.2byte	0x0
   1a776:	0000                	.2byte	0x0
   1a778:	0010                	.2byte	0x10
   1a77a:	0000                	.2byte	0x0
   1a77c:	077c                	.2byte	0x77c
   1a77e:	0000                	.2byte	0x0
   1a780:	b07c                	.2byte	0xb07c
   1a782:	ffff                	.2byte	0xffff
   1a784:	000c                	.2byte	0xc
   1a786:	0000                	.2byte	0x0
   1a788:	0000                	.2byte	0x0
   1a78a:	0000                	.2byte	0x0
   1a78c:	0018                	.2byte	0x18
   1a78e:	0000                	.2byte	0x0
   1a790:	0790                	.2byte	0x790
   1a792:	0000                	.2byte	0x0
   1a794:	b074                	.2byte	0xb074
   1a796:	ffff                	.2byte	0xffff
   1a798:	0030                	.2byte	0x30
   1a79a:	0000                	.2byte	0x0
   1a79c:	5400                	.2byte	0x5400
   1a79e:	100e                	.2byte	0x100e
   1a7a0:	8144                	.2byte	0x8144
   1a7a2:	4801                	.2byte	0x4801
   1a7a4:	4cc1                	.2byte	0x4cc1
   1a7a6:	000e                	.2byte	0xe
   1a7a8:	0018                	.2byte	0x18
   1a7aa:	0000                	.2byte	0x0
   1a7ac:	07ac                	.2byte	0x7ac
   1a7ae:	0000                	.2byte	0x0
   1a7b0:	b088                	.2byte	0xb088
   1a7b2:	ffff                	.2byte	0xffff
   1a7b4:	0040                	.2byte	0x40
   1a7b6:	0000                	.2byte	0x0
   1a7b8:	5c00                	.2byte	0x5c00
   1a7ba:	100e                	.2byte	0x100e
   1a7bc:	814c                	.2byte	0x814c
   1a7be:	4801                	.2byte	0x4801
   1a7c0:	4cc1                	.2byte	0x4cc1
   1a7c2:	000e                	.2byte	0xe
   1a7c4:	0018                	.2byte	0x18
   1a7c6:	0000                	.2byte	0x0
   1a7c8:	07c8                	.2byte	0x7c8
   1a7ca:	0000                	.2byte	0x0
   1a7cc:	b0ac                	.2byte	0xb0ac
   1a7ce:	ffff                	.2byte	0xffff
   1a7d0:	0040                	.2byte	0x40
   1a7d2:	0000                	.2byte	0x0
   1a7d4:	5c00                	.2byte	0x5c00
   1a7d6:	100e                	.2byte	0x100e
   1a7d8:	814c                	.2byte	0x814c
   1a7da:	4801                	.2byte	0x4801
   1a7dc:	4cc1                	.2byte	0x4cc1
   1a7de:	000e                	.2byte	0xe
   1a7e0:	0010                	.2byte	0x10
   1a7e2:	0000                	.2byte	0x0
   1a7e4:	07e4                	.2byte	0x7e4
   1a7e6:	0000                	.2byte	0x0
   1a7e8:	b0d0                	.2byte	0xb0d0
   1a7ea:	ffff                	.2byte	0xffff
   1a7ec:	0010                	.2byte	0x10
   1a7ee:	0000                	.2byte	0x0
   1a7f0:	0000                	.2byte	0x0
   1a7f2:	0000                	.2byte	0x0
   1a7f4:	0010                	.2byte	0x10
   1a7f6:	0000                	.2byte	0x0
   1a7f8:	07f8                	.2byte	0x7f8
   1a7fa:	0000                	.2byte	0x0
   1a7fc:	b0cc                	.2byte	0xb0cc
   1a7fe:	ffff                	.2byte	0xffff
   1a800:	015c                	.2byte	0x15c
   1a802:	0000                	.2byte	0x0
   1a804:	0000                	.2byte	0x0
   1a806:	0000                	.2byte	0x0
   1a808:	003c                	.2byte	0x3c
   1a80a:	0000                	.2byte	0x0
   1a80c:	080c                	.2byte	0x80c
   1a80e:	0000                	.2byte	0x0
   1a810:	b214                	.2byte	0xb214
   1a812:	ffff                	.2byte	0xffff
   1a814:	0108                	.2byte	0x108
   1a816:	0000                	.2byte	0x0
   1a818:	4400                	.2byte	0x4400
   1a81a:	200e                	.2byte	0x200e
   1a81c:	8844                	.2byte	0x8844
   1a81e:	5802                	.2byte	0x5802
   1a820:	0389                	.2byte	0x389
   1a822:	0492                	.2byte	0x492
   1a824:	0181                	.2byte	0x181
   1a826:	0a6c0593          	addi	a1,s8,166
   1a82a:	44c1                	.2byte	0x44c1
   1a82c:	44c8                	.2byte	0x44c8
   1a82e:	44d2                	.2byte	0x44d2
   1a830:	44c948d3          	.4byte	0x44c948d3
   1a834:	000e                	.2byte	0xe
   1a836:	0b44                	.2byte	0xb44
   1a838:	7802                	.2byte	0x7802
   1a83a:	48c1                	.2byte	0x48c1
   1a83c:	4cc8                	.2byte	0x4cc8
   1a83e:	44d2                	.2byte	0x44d2
   1a840:	44c948d3          	.4byte	0x44c948d3
   1a844:	000e                	.2byte	0xe
   1a846:	0000                	.2byte	0x0
   1a848:	0010                	.2byte	0x10
   1a84a:	0000                	.2byte	0x0
   1a84c:	084c                	.2byte	0x84c
   1a84e:	0000                	.2byte	0x0
   1a850:	b2dc                	.2byte	0xb2dc
   1a852:	ffff                	.2byte	0xffff
   1a854:	0018                	.2byte	0x18
   1a856:	0000                	.2byte	0x0
   1a858:	0000                	.2byte	0x0
   1a85a:	0000                	.2byte	0x0
   1a85c:	0024                	.2byte	0x24
   1a85e:	0000                	.2byte	0x0
   1a860:	0860                	.2byte	0x860
   1a862:	0000                	.2byte	0x0
   1a864:	b2e0                	.2byte	0xb2e0
   1a866:	ffff                	.2byte	0xffff
   1a868:	006c                	.2byte	0x6c
   1a86a:	0000                	.2byte	0x0
   1a86c:	4400                	.2byte	0x4400
   1a86e:	100e                	.2byte	0x100e
   1a870:	884c                	.2byte	0x884c
   1a872:	8902                	.2byte	0x8902
   1a874:	02018103          	lb	sp,32(gp) # 37b0020 <__BSS_END__+0x37146cc>
   1a878:	c838                	.2byte	0xc838
   1a87a:	c144                	.2byte	0xc144
   1a87c:	c944                	.2byte	0xc944
   1a87e:	0e58                	.2byte	0xe58
   1a880:	0000                	.2byte	0x0
   1a882:	0000                	.2byte	0x0
   1a884:	0050                	.2byte	0x50
   1a886:	0000                	.2byte	0x0
   1a888:	0888                	.2byte	0x888
   1a88a:	0000                	.2byte	0x0
   1a88c:	b324                	.2byte	0xb324
   1a88e:	ffff                	.2byte	0xffff
   1a890:	1db4                	.2byte	0x1db4
   1a892:	0000                	.2byte	0x0
   1a894:	4400                	.2byte	0x4400
   1a896:	800e                	.2byte	0x800e
   1a898:	4401                	.2byte	0x4401
   1a89a:	88780997          	auipc	s3,0x88780
   1a89e:	8902                	.2byte	0x8902
   1a8a0:	93049203          	lh	tp,-1744(s1)
   1a8a4:	8105                	.2byte	0x8105
   1a8a6:	9401                	.2byte	0x9401
   1a8a8:	9506                	.2byte	0x9506
   1a8aa:	98089607          	.4byte	0x98089607
   1a8ae:	990a                	.2byte	0x990a
   1a8b0:	9b0c9a0b          	.4byte	0x9b0c9a0b
   1a8b4:	030d                	.2byte	0x30d
   1a8b6:	01f0                	.2byte	0x1f0
   1a8b8:	c10a                	.2byte	0xc10a
   1a8ba:	c844                	.2byte	0xc844
   1a8bc:	c944                	.2byte	0xc944
   1a8be:	d244                	.2byte	0xd244
   1a8c0:	d344                	.2byte	0xd344
   1a8c2:	d444                	.2byte	0xd444
   1a8c4:	d544                	.2byte	0xd544
   1a8c6:	d644                	.2byte	0xd644
   1a8c8:	d744                	.2byte	0xd744
   1a8ca:	d844                	.2byte	0xd844
   1a8cc:	d944                	.2byte	0xd944
   1a8ce:	da44                	.2byte	0xda44
   1a8d0:	db44                	.2byte	0xdb44
   1a8d2:	0e44                	.2byte	0xe44
   1a8d4:	4400                	.2byte	0x4400
   1a8d6:	0010000b          	.4byte	0x10000b
   1a8da:	0000                	.2byte	0x0
   1a8dc:	08dc                	.2byte	0x8dc
   1a8de:	0000                	.2byte	0x0
   1a8e0:	d084                	.2byte	0xd084
   1a8e2:	ffff                	.2byte	0xffff
   1a8e4:	000c                	.2byte	0xc
   1a8e6:	0000                	.2byte	0x0
   1a8e8:	0000                	.2byte	0x0
   1a8ea:	0000                	.2byte	0x0
   1a8ec:	0010                	.2byte	0x10
   1a8ee:	0000                	.2byte	0x0
   1a8f0:	08f0                	.2byte	0x8f0
   1a8f2:	0000                	.2byte	0x0
   1a8f4:	d07c                	.2byte	0xd07c
   1a8f6:	ffff                	.2byte	0xffff
   1a8f8:	000c                	.2byte	0xc
   1a8fa:	0000                	.2byte	0x0
   1a8fc:	0000                	.2byte	0x0
   1a8fe:	0000                	.2byte	0x0
   1a900:	0010                	.2byte	0x10
   1a902:	0000                	.2byte	0x0
   1a904:	0904                	.2byte	0x904
   1a906:	0000                	.2byte	0x0
   1a908:	d074                	.2byte	0xd074
   1a90a:	ffff                	.2byte	0xffff
   1a90c:	0014                	.2byte	0x14
   1a90e:	0000                	.2byte	0x0
   1a910:	0000                	.2byte	0x0
   1a912:	0000                	.2byte	0x0
   1a914:	0010                	.2byte	0x10
   1a916:	0000                	.2byte	0x0
   1a918:	0918                	.2byte	0x918
   1a91a:	0000                	.2byte	0x0
   1a91c:	d074                	.2byte	0xd074
   1a91e:	ffff                	.2byte	0xffff
   1a920:	0028                	.2byte	0x28
   1a922:	0000                	.2byte	0x0
   1a924:	0000                	.2byte	0x0
	...

0001a928 <__FRAME_END__>:
   1a928:	0000                	.2byte	0x0
	...

Disassembly of section .init_array:

0001a92c <__init_array_start>:
   1a92c:	0150                	.2byte	0x150
   1a92e:	0001                	.2byte	0x1

0001a930 <__frame_dummy_init_array_entry>:
   1a930:	01fc                	.2byte	0x1fc
   1a932:	0001                	.2byte	0x1

Disassembly of section .fini_array:

0001a934 <__do_global_dtors_aux_fini_array_entry>:
   1a934:	01b8                	.2byte	0x1b8
   1a936:	0001                	.2byte	0x1

Disassembly of section .data:

0001a938 <FRtoString>:
   1a938:	8d58                	.2byte	0x8d58
   1a93a:	0001                	.2byte	0x1
   1a93c:	8d64                	.2byte	0x8d64
   1a93e:	0001                	.2byte	0x1
   1a940:	8d9c                	.2byte	0x8d9c
   1a942:	0001                	.2byte	0x1
   1a944:	8db0                	.2byte	0x8db0
   1a946:	0001                	.2byte	0x1
   1a948:	8dd0                	.2byte	0x8dd0
   1a94a:	0001                	.2byte	0x1
   1a94c:	8dec                	.2byte	0x8dec
   1a94e:	0001                	.2byte	0x1
   1a950:	8e08                	.2byte	0x8e08
   1a952:	0001                	.2byte	0x1
   1a954:	8e2c                	.2byte	0x8e2c
   1a956:	0001                	.2byte	0x1
   1a958:	8e68                	.2byte	0x8e68
   1a95a:	0001                	.2byte	0x1
   1a95c:	8e90                	.2byte	0x8e90
   1a95e:	0001                	.2byte	0x1
   1a960:	8eb8                	.2byte	0x8eb8
   1a962:	0001                	.2byte	0x1
   1a964:	8ee0                	.2byte	0x8ee0
   1a966:	0001                	.2byte	0x1
   1a968:	8f08                	.2byte	0x8f08
   1a96a:	0001                	.2byte	0x1
   1a96c:	8f28                	.2byte	0x8f28
   1a96e:	0001                	.2byte	0x1
   1a970:	8f48                	.2byte	0x8f48
   1a972:	0001                	.2byte	0x1
   1a974:	8f74                	.2byte	0x8f74
   1a976:	0001                	.2byte	0x1
   1a978:	8fb8                	.2byte	0x8fb8
   1a97a:	0001                	.2byte	0x1
   1a97c:	8ff8                	.2byte	0x8ff8
   1a97e:	0001                	.2byte	0x1
   1a980:	9024                	.2byte	0x9024
   1a982:	0001                	.2byte	0x1
   1a984:	9048                	.2byte	0x9048
   1a986:	0001                	.2byte	0x1

0001a988 <impure_data>:
   1a988:	0000                	.2byte	0x0
   1a98a:	0000                	.2byte	0x0
   1a98c:	ac74                	.2byte	0xac74
   1a98e:	0001                	.2byte	0x1
   1a990:	acdc                	.2byte	0xacdc
   1a992:	0001                	.2byte	0x1
   1a994:	ad44                	.2byte	0xad44
   1a996:	0001                	.2byte	0x1
	...
   1aa30:	0001                	.2byte	0x1
   1aa32:	0000                	.2byte	0x0
   1aa34:	0000                	.2byte	0x0
   1aa36:	0000                	.2byte	0x0
   1aa38:	330e                	.2byte	0x330e
   1aa3a:	abcd                	.2byte	0xabcd
   1aa3c:	1234                	.2byte	0x1234
   1aa3e:	e66d                	.2byte	0xe66d
   1aa40:	deec                	.2byte	0xdeec
   1aa42:	0005                	.2byte	0x5
   1aa44:	0000000b          	.4byte	0xb
	...

0001adb0 <__malloc_av_>:
	...
   1adb8:	adb0                	.2byte	0xadb0
   1adba:	0001                	.2byte	0x1
   1adbc:	adb0                	.2byte	0xadb0
   1adbe:	0001                	.2byte	0x1
   1adc0:	adb8                	.2byte	0xadb8
   1adc2:	0001                	.2byte	0x1
   1adc4:	adb8                	.2byte	0xadb8
   1adc6:	0001                	.2byte	0x1
   1adc8:	adc0                	.2byte	0xadc0
   1adca:	0001                	.2byte	0x1
   1adcc:	adc0                	.2byte	0xadc0
   1adce:	0001                	.2byte	0x1
   1add0:	adc8                	.2byte	0xadc8
   1add2:	0001                	.2byte	0x1
   1add4:	adc8                	.2byte	0xadc8
   1add6:	0001                	.2byte	0x1
   1add8:	add0                	.2byte	0xadd0
   1adda:	0001                	.2byte	0x1
   1addc:	add0                	.2byte	0xadd0
   1adde:	0001                	.2byte	0x1
   1ade0:	add8                	.2byte	0xadd8
   1ade2:	0001                	.2byte	0x1
   1ade4:	add8                	.2byte	0xadd8
   1ade6:	0001                	.2byte	0x1
   1ade8:	ade0                	.2byte	0xade0
   1adea:	0001                	.2byte	0x1
   1adec:	ade0                	.2byte	0xade0
   1adee:	0001                	.2byte	0x1
   1adf0:	ade8                	.2byte	0xade8
   1adf2:	0001                	.2byte	0x1
   1adf4:	ade8                	.2byte	0xade8
   1adf6:	0001                	.2byte	0x1
   1adf8:	adf0                	.2byte	0xadf0
   1adfa:	0001                	.2byte	0x1
   1adfc:	adf0                	.2byte	0xadf0
   1adfe:	0001                	.2byte	0x1
   1ae00:	adf8                	.2byte	0xadf8
   1ae02:	0001                	.2byte	0x1
   1ae04:	adf8                	.2byte	0xadf8
   1ae06:	0001                	.2byte	0x1
   1ae08:	ae00                	.2byte	0xae00
   1ae0a:	0001                	.2byte	0x1
   1ae0c:	ae00                	.2byte	0xae00
   1ae0e:	0001                	.2byte	0x1
   1ae10:	ae08                	.2byte	0xae08
   1ae12:	0001                	.2byte	0x1
   1ae14:	ae08                	.2byte	0xae08
   1ae16:	0001                	.2byte	0x1
   1ae18:	ae10                	.2byte	0xae10
   1ae1a:	0001                	.2byte	0x1
   1ae1c:	ae10                	.2byte	0xae10
   1ae1e:	0001                	.2byte	0x1
   1ae20:	ae18                	.2byte	0xae18
   1ae22:	0001                	.2byte	0x1
   1ae24:	ae18                	.2byte	0xae18
   1ae26:	0001                	.2byte	0x1
   1ae28:	ae20                	.2byte	0xae20
   1ae2a:	0001                	.2byte	0x1
   1ae2c:	ae20                	.2byte	0xae20
   1ae2e:	0001                	.2byte	0x1
   1ae30:	ae28                	.2byte	0xae28
   1ae32:	0001                	.2byte	0x1
   1ae34:	ae28                	.2byte	0xae28
   1ae36:	0001                	.2byte	0x1
   1ae38:	ae30                	.2byte	0xae30
   1ae3a:	0001                	.2byte	0x1
   1ae3c:	ae30                	.2byte	0xae30
   1ae3e:	0001                	.2byte	0x1
   1ae40:	ae38                	.2byte	0xae38
   1ae42:	0001                	.2byte	0x1
   1ae44:	ae38                	.2byte	0xae38
   1ae46:	0001                	.2byte	0x1
   1ae48:	ae40                	.2byte	0xae40
   1ae4a:	0001                	.2byte	0x1
   1ae4c:	ae40                	.2byte	0xae40
   1ae4e:	0001                	.2byte	0x1
   1ae50:	ae48                	.2byte	0xae48
   1ae52:	0001                	.2byte	0x1
   1ae54:	ae48                	.2byte	0xae48
   1ae56:	0001                	.2byte	0x1
   1ae58:	ae50                	.2byte	0xae50
   1ae5a:	0001                	.2byte	0x1
   1ae5c:	ae50                	.2byte	0xae50
   1ae5e:	0001                	.2byte	0x1
   1ae60:	ae58                	.2byte	0xae58
   1ae62:	0001                	.2byte	0x1
   1ae64:	ae58                	.2byte	0xae58
   1ae66:	0001                	.2byte	0x1
   1ae68:	ae60                	.2byte	0xae60
   1ae6a:	0001                	.2byte	0x1
   1ae6c:	ae60                	.2byte	0xae60
   1ae6e:	0001                	.2byte	0x1
   1ae70:	ae68                	.2byte	0xae68
   1ae72:	0001                	.2byte	0x1
   1ae74:	ae68                	.2byte	0xae68
   1ae76:	0001                	.2byte	0x1
   1ae78:	ae70                	.2byte	0xae70
   1ae7a:	0001                	.2byte	0x1
   1ae7c:	ae70                	.2byte	0xae70
   1ae7e:	0001                	.2byte	0x1
   1ae80:	ae78                	.2byte	0xae78
   1ae82:	0001                	.2byte	0x1
   1ae84:	ae78                	.2byte	0xae78
   1ae86:	0001                	.2byte	0x1
   1ae88:	ae80                	.2byte	0xae80
   1ae8a:	0001                	.2byte	0x1
   1ae8c:	ae80                	.2byte	0xae80
   1ae8e:	0001                	.2byte	0x1
   1ae90:	ae88                	.2byte	0xae88
   1ae92:	0001                	.2byte	0x1
   1ae94:	ae88                	.2byte	0xae88
   1ae96:	0001                	.2byte	0x1
   1ae98:	ae90                	.2byte	0xae90
   1ae9a:	0001                	.2byte	0x1
   1ae9c:	ae90                	.2byte	0xae90
   1ae9e:	0001                	.2byte	0x1
   1aea0:	ae98                	.2byte	0xae98
   1aea2:	0001                	.2byte	0x1
   1aea4:	ae98                	.2byte	0xae98
   1aea6:	0001                	.2byte	0x1
   1aea8:	aea0                	.2byte	0xaea0
   1aeaa:	0001                	.2byte	0x1
   1aeac:	aea0                	.2byte	0xaea0
   1aeae:	0001                	.2byte	0x1
   1aeb0:	aea8                	.2byte	0xaea8
   1aeb2:	0001                	.2byte	0x1
   1aeb4:	aea8                	.2byte	0xaea8
   1aeb6:	0001                	.2byte	0x1
   1aeb8:	aeb0                	.2byte	0xaeb0
   1aeba:	0001                	.2byte	0x1
   1aebc:	aeb0                	.2byte	0xaeb0
   1aebe:	0001                	.2byte	0x1
   1aec0:	aeb8                	.2byte	0xaeb8
   1aec2:	0001                	.2byte	0x1
   1aec4:	aeb8                	.2byte	0xaeb8
   1aec6:	0001                	.2byte	0x1
   1aec8:	aec0                	.2byte	0xaec0
   1aeca:	0001                	.2byte	0x1
   1aecc:	aec0                	.2byte	0xaec0
   1aece:	0001                	.2byte	0x1
   1aed0:	aec8                	.2byte	0xaec8
   1aed2:	0001                	.2byte	0x1
   1aed4:	aec8                	.2byte	0xaec8
   1aed6:	0001                	.2byte	0x1
   1aed8:	aed0                	.2byte	0xaed0
   1aeda:	0001                	.2byte	0x1
   1aedc:	aed0                	.2byte	0xaed0
   1aede:	0001                	.2byte	0x1
   1aee0:	aed8                	.2byte	0xaed8
   1aee2:	0001                	.2byte	0x1
   1aee4:	aed8                	.2byte	0xaed8
   1aee6:	0001                	.2byte	0x1
   1aee8:	aee0                	.2byte	0xaee0
   1aeea:	0001                	.2byte	0x1
   1aeec:	aee0                	.2byte	0xaee0
   1aeee:	0001                	.2byte	0x1
   1aef0:	aee8                	.2byte	0xaee8
   1aef2:	0001                	.2byte	0x1
   1aef4:	aee8                	.2byte	0xaee8
   1aef6:	0001                	.2byte	0x1
   1aef8:	aef0                	.2byte	0xaef0
   1aefa:	0001                	.2byte	0x1
   1aefc:	aef0                	.2byte	0xaef0
   1aefe:	0001                	.2byte	0x1
   1af00:	aef8                	.2byte	0xaef8
   1af02:	0001                	.2byte	0x1
   1af04:	aef8                	.2byte	0xaef8
   1af06:	0001                	.2byte	0x1
   1af08:	af00                	.2byte	0xaf00
   1af0a:	0001                	.2byte	0x1
   1af0c:	af00                	.2byte	0xaf00
   1af0e:	0001                	.2byte	0x1
   1af10:	af08                	.2byte	0xaf08
   1af12:	0001                	.2byte	0x1
   1af14:	af08                	.2byte	0xaf08
   1af16:	0001                	.2byte	0x1
   1af18:	af10                	.2byte	0xaf10
   1af1a:	0001                	.2byte	0x1
   1af1c:	af10                	.2byte	0xaf10
   1af1e:	0001                	.2byte	0x1
   1af20:	af18                	.2byte	0xaf18
   1af22:	0001                	.2byte	0x1
   1af24:	af18                	.2byte	0xaf18
   1af26:	0001                	.2byte	0x1
   1af28:	af20                	.2byte	0xaf20
   1af2a:	0001                	.2byte	0x1
   1af2c:	af20                	.2byte	0xaf20
   1af2e:	0001                	.2byte	0x1
   1af30:	af28                	.2byte	0xaf28
   1af32:	0001                	.2byte	0x1
   1af34:	af28                	.2byte	0xaf28
   1af36:	0001                	.2byte	0x1
   1af38:	af30                	.2byte	0xaf30
   1af3a:	0001                	.2byte	0x1
   1af3c:	af30                	.2byte	0xaf30
   1af3e:	0001                	.2byte	0x1
   1af40:	af38                	.2byte	0xaf38
   1af42:	0001                	.2byte	0x1
   1af44:	af38                	.2byte	0xaf38
   1af46:	0001                	.2byte	0x1
   1af48:	af40                	.2byte	0xaf40
   1af4a:	0001                	.2byte	0x1
   1af4c:	af40                	.2byte	0xaf40
   1af4e:	0001                	.2byte	0x1
   1af50:	af48                	.2byte	0xaf48
   1af52:	0001                	.2byte	0x1
   1af54:	af48                	.2byte	0xaf48
   1af56:	0001                	.2byte	0x1
   1af58:	af50                	.2byte	0xaf50
   1af5a:	0001                	.2byte	0x1
   1af5c:	af50                	.2byte	0xaf50
   1af5e:	0001                	.2byte	0x1
   1af60:	af58                	.2byte	0xaf58
   1af62:	0001                	.2byte	0x1
   1af64:	af58                	.2byte	0xaf58
   1af66:	0001                	.2byte	0x1
   1af68:	af60                	.2byte	0xaf60
   1af6a:	0001                	.2byte	0x1
   1af6c:	af60                	.2byte	0xaf60
   1af6e:	0001                	.2byte	0x1
   1af70:	af68                	.2byte	0xaf68
   1af72:	0001                	.2byte	0x1
   1af74:	af68                	.2byte	0xaf68
   1af76:	0001                	.2byte	0x1
   1af78:	af70                	.2byte	0xaf70
   1af7a:	0001                	.2byte	0x1
   1af7c:	af70                	.2byte	0xaf70
   1af7e:	0001                	.2byte	0x1
   1af80:	af78                	.2byte	0xaf78
   1af82:	0001                	.2byte	0x1
   1af84:	af78                	.2byte	0xaf78
   1af86:	0001                	.2byte	0x1
   1af88:	af80                	.2byte	0xaf80
   1af8a:	0001                	.2byte	0x1
   1af8c:	af80                	.2byte	0xaf80
   1af8e:	0001                	.2byte	0x1
   1af90:	af88                	.2byte	0xaf88
   1af92:	0001                	.2byte	0x1
   1af94:	af88                	.2byte	0xaf88
   1af96:	0001                	.2byte	0x1
   1af98:	af90                	.2byte	0xaf90
   1af9a:	0001                	.2byte	0x1
   1af9c:	af90                	.2byte	0xaf90
   1af9e:	0001                	.2byte	0x1
   1afa0:	af98                	.2byte	0xaf98
   1afa2:	0001                	.2byte	0x1
   1afa4:	af98                	.2byte	0xaf98
   1afa6:	0001                	.2byte	0x1
   1afa8:	afa0                	.2byte	0xafa0
   1afaa:	0001                	.2byte	0x1
   1afac:	afa0                	.2byte	0xafa0
   1afae:	0001                	.2byte	0x1
   1afb0:	afa8                	.2byte	0xafa8
   1afb2:	0001                	.2byte	0x1
   1afb4:	afa8                	.2byte	0xafa8
   1afb6:	0001                	.2byte	0x1
   1afb8:	afb0                	.2byte	0xafb0
   1afba:	0001                	.2byte	0x1
   1afbc:	afb0                	.2byte	0xafb0
   1afbe:	0001                	.2byte	0x1
   1afc0:	afb8                	.2byte	0xafb8
   1afc2:	0001                	.2byte	0x1
   1afc4:	afb8                	.2byte	0xafb8
   1afc6:	0001                	.2byte	0x1
   1afc8:	afc0                	.2byte	0xafc0
   1afca:	0001                	.2byte	0x1
   1afcc:	afc0                	.2byte	0xafc0
   1afce:	0001                	.2byte	0x1
   1afd0:	afc8                	.2byte	0xafc8
   1afd2:	0001                	.2byte	0x1
   1afd4:	afc8                	.2byte	0xafc8
   1afd6:	0001                	.2byte	0x1
   1afd8:	afd0                	.2byte	0xafd0
   1afda:	0001                	.2byte	0x1
   1afdc:	afd0                	.2byte	0xafd0
   1afde:	0001                	.2byte	0x1
   1afe0:	afd8                	.2byte	0xafd8
   1afe2:	0001                	.2byte	0x1
   1afe4:	afd8                	.2byte	0xafd8
   1afe6:	0001                	.2byte	0x1
   1afe8:	afe0                	.2byte	0xafe0
   1afea:	0001                	.2byte	0x1
   1afec:	afe0                	.2byte	0xafe0
   1afee:	0001                	.2byte	0x1
   1aff0:	afe8                	.2byte	0xafe8
   1aff2:	0001                	.2byte	0x1
   1aff4:	afe8                	.2byte	0xafe8
   1aff6:	0001                	.2byte	0x1
   1aff8:	aff0                	.2byte	0xaff0
   1affa:	0001                	.2byte	0x1
   1affc:	aff0                	.2byte	0xaff0
   1affe:	0001                	.2byte	0x1
   1b000:	aff8                	.2byte	0xaff8
   1b002:	0001                	.2byte	0x1
   1b004:	aff8                	.2byte	0xaff8
   1b006:	0001                	.2byte	0x1
   1b008:	b000                	.2byte	0xb000
   1b00a:	0001                	.2byte	0x1
   1b00c:	b000                	.2byte	0xb000
   1b00e:	0001                	.2byte	0x1
   1b010:	b008                	.2byte	0xb008
   1b012:	0001                	.2byte	0x1
   1b014:	b008                	.2byte	0xb008
   1b016:	0001                	.2byte	0x1
   1b018:	b010                	.2byte	0xb010
   1b01a:	0001                	.2byte	0x1
   1b01c:	b010                	.2byte	0xb010
   1b01e:	0001                	.2byte	0x1
   1b020:	b018                	.2byte	0xb018
   1b022:	0001                	.2byte	0x1
   1b024:	b018                	.2byte	0xb018
   1b026:	0001                	.2byte	0x1
   1b028:	b020                	.2byte	0xb020
   1b02a:	0001                	.2byte	0x1
   1b02c:	b020                	.2byte	0xb020
   1b02e:	0001                	.2byte	0x1
   1b030:	b028                	.2byte	0xb028
   1b032:	0001                	.2byte	0x1
   1b034:	b028                	.2byte	0xb028
   1b036:	0001                	.2byte	0x1
   1b038:	b030                	.2byte	0xb030
   1b03a:	0001                	.2byte	0x1
   1b03c:	b030                	.2byte	0xb030
   1b03e:	0001                	.2byte	0x1
   1b040:	b038                	.2byte	0xb038
   1b042:	0001                	.2byte	0x1
   1b044:	b038                	.2byte	0xb038
   1b046:	0001                	.2byte	0x1
   1b048:	b040                	.2byte	0xb040
   1b04a:	0001                	.2byte	0x1
   1b04c:	b040                	.2byte	0xb040
   1b04e:	0001                	.2byte	0x1
   1b050:	b048                	.2byte	0xb048
   1b052:	0001                	.2byte	0x1
   1b054:	b048                	.2byte	0xb048
   1b056:	0001                	.2byte	0x1
   1b058:	b050                	.2byte	0xb050
   1b05a:	0001                	.2byte	0x1
   1b05c:	b050                	.2byte	0xb050
   1b05e:	0001                	.2byte	0x1
   1b060:	b058                	.2byte	0xb058
   1b062:	0001                	.2byte	0x1
   1b064:	b058                	.2byte	0xb058
   1b066:	0001                	.2byte	0x1
   1b068:	b060                	.2byte	0xb060
   1b06a:	0001                	.2byte	0x1
   1b06c:	b060                	.2byte	0xb060
   1b06e:	0001                	.2byte	0x1
   1b070:	b068                	.2byte	0xb068
   1b072:	0001                	.2byte	0x1
   1b074:	b068                	.2byte	0xb068
   1b076:	0001                	.2byte	0x1
   1b078:	b070                	.2byte	0xb070
   1b07a:	0001                	.2byte	0x1
   1b07c:	b070                	.2byte	0xb070
   1b07e:	0001                	.2byte	0x1
   1b080:	b078                	.2byte	0xb078
   1b082:	0001                	.2byte	0x1
   1b084:	b078                	.2byte	0xb078
   1b086:	0001                	.2byte	0x1
   1b088:	b080                	.2byte	0xb080
   1b08a:	0001                	.2byte	0x1
   1b08c:	b080                	.2byte	0xb080
   1b08e:	0001                	.2byte	0x1
   1b090:	b088                	.2byte	0xb088
   1b092:	0001                	.2byte	0x1
   1b094:	b088                	.2byte	0xb088
   1b096:	0001                	.2byte	0x1
   1b098:	b090                	.2byte	0xb090
   1b09a:	0001                	.2byte	0x1
   1b09c:	b090                	.2byte	0xb090
   1b09e:	0001                	.2byte	0x1
   1b0a0:	b098                	.2byte	0xb098
   1b0a2:	0001                	.2byte	0x1
   1b0a4:	b098                	.2byte	0xb098
   1b0a6:	0001                	.2byte	0x1
   1b0a8:	b0a0                	.2byte	0xb0a0
   1b0aa:	0001                	.2byte	0x1
   1b0ac:	b0a0                	.2byte	0xb0a0
   1b0ae:	0001                	.2byte	0x1
   1b0b0:	b0a8                	.2byte	0xb0a8
   1b0b2:	0001                	.2byte	0x1
   1b0b4:	b0a8                	.2byte	0xb0a8
   1b0b6:	0001                	.2byte	0x1
   1b0b8:	b0b0                	.2byte	0xb0b0
   1b0ba:	0001                	.2byte	0x1
   1b0bc:	b0b0                	.2byte	0xb0b0
   1b0be:	0001                	.2byte	0x1
   1b0c0:	b0b8                	.2byte	0xb0b8
   1b0c2:	0001                	.2byte	0x1
   1b0c4:	b0b8                	.2byte	0xb0b8
   1b0c6:	0001                	.2byte	0x1
   1b0c8:	b0c0                	.2byte	0xb0c0
   1b0ca:	0001                	.2byte	0x1
   1b0cc:	b0c0                	.2byte	0xb0c0
   1b0ce:	0001                	.2byte	0x1
   1b0d0:	b0c8                	.2byte	0xb0c8
   1b0d2:	0001                	.2byte	0x1
   1b0d4:	b0c8                	.2byte	0xb0c8
   1b0d6:	0001                	.2byte	0x1
   1b0d8:	b0d0                	.2byte	0xb0d0
   1b0da:	0001                	.2byte	0x1
   1b0dc:	b0d0                	.2byte	0xb0d0
   1b0de:	0001                	.2byte	0x1
   1b0e0:	b0d8                	.2byte	0xb0d8
   1b0e2:	0001                	.2byte	0x1
   1b0e4:	b0d8                	.2byte	0xb0d8
   1b0e6:	0001                	.2byte	0x1
   1b0e8:	b0e0                	.2byte	0xb0e0
   1b0ea:	0001                	.2byte	0x1
   1b0ec:	b0e0                	.2byte	0xb0e0
   1b0ee:	0001                	.2byte	0x1
   1b0f0:	b0e8                	.2byte	0xb0e8
   1b0f2:	0001                	.2byte	0x1
   1b0f4:	b0e8                	.2byte	0xb0e8
   1b0f6:	0001                	.2byte	0x1
   1b0f8:	b0f0                	.2byte	0xb0f0
   1b0fa:	0001                	.2byte	0x1
   1b0fc:	b0f0                	.2byte	0xb0f0
   1b0fe:	0001                	.2byte	0x1
   1b100:	b0f8                	.2byte	0xb0f8
   1b102:	0001                	.2byte	0x1
   1b104:	b0f8                	.2byte	0xb0f8
   1b106:	0001                	.2byte	0x1
   1b108:	b100                	.2byte	0xb100
   1b10a:	0001                	.2byte	0x1
   1b10c:	b100                	.2byte	0xb100
   1b10e:	0001                	.2byte	0x1
   1b110:	b108                	.2byte	0xb108
   1b112:	0001                	.2byte	0x1
   1b114:	b108                	.2byte	0xb108
   1b116:	0001                	.2byte	0x1
   1b118:	b110                	.2byte	0xb110
   1b11a:	0001                	.2byte	0x1
   1b11c:	b110                	.2byte	0xb110
   1b11e:	0001                	.2byte	0x1
   1b120:	b118                	.2byte	0xb118
   1b122:	0001                	.2byte	0x1
   1b124:	b118                	.2byte	0xb118
   1b126:	0001                	.2byte	0x1
   1b128:	b120                	.2byte	0xb120
   1b12a:	0001                	.2byte	0x1
   1b12c:	b120                	.2byte	0xb120
   1b12e:	0001                	.2byte	0x1
   1b130:	b128                	.2byte	0xb128
   1b132:	0001                	.2byte	0x1
   1b134:	b128                	.2byte	0xb128
   1b136:	0001                	.2byte	0x1
   1b138:	b130                	.2byte	0xb130
   1b13a:	0001                	.2byte	0x1
   1b13c:	b130                	.2byte	0xb130
   1b13e:	0001                	.2byte	0x1
   1b140:	b138                	.2byte	0xb138
   1b142:	0001                	.2byte	0x1
   1b144:	b138                	.2byte	0xb138
   1b146:	0001                	.2byte	0x1
   1b148:	b140                	.2byte	0xb140
   1b14a:	0001                	.2byte	0x1
   1b14c:	b140                	.2byte	0xb140
   1b14e:	0001                	.2byte	0x1
   1b150:	b148                	.2byte	0xb148
   1b152:	0001                	.2byte	0x1
   1b154:	b148                	.2byte	0xb148
   1b156:	0001                	.2byte	0x1
   1b158:	b150                	.2byte	0xb150
   1b15a:	0001                	.2byte	0x1
   1b15c:	b150                	.2byte	0xb150
   1b15e:	0001                	.2byte	0x1
   1b160:	b158                	.2byte	0xb158
   1b162:	0001                	.2byte	0x1
   1b164:	b158                	.2byte	0xb158
   1b166:	0001                	.2byte	0x1
   1b168:	b160                	.2byte	0xb160
   1b16a:	0001                	.2byte	0x1
   1b16c:	b160                	.2byte	0xb160
   1b16e:	0001                	.2byte	0x1
   1b170:	b168                	.2byte	0xb168
   1b172:	0001                	.2byte	0x1
   1b174:	b168                	.2byte	0xb168
   1b176:	0001                	.2byte	0x1
   1b178:	b170                	.2byte	0xb170
   1b17a:	0001                	.2byte	0x1
   1b17c:	b170                	.2byte	0xb170
   1b17e:	0001                	.2byte	0x1
   1b180:	b178                	.2byte	0xb178
   1b182:	0001                	.2byte	0x1
   1b184:	b178                	.2byte	0xb178
   1b186:	0001                	.2byte	0x1
   1b188:	b180                	.2byte	0xb180
   1b18a:	0001                	.2byte	0x1
   1b18c:	b180                	.2byte	0xb180
   1b18e:	0001                	.2byte	0x1
   1b190:	b188                	.2byte	0xb188
   1b192:	0001                	.2byte	0x1
   1b194:	b188                	.2byte	0xb188
   1b196:	0001                	.2byte	0x1
   1b198:	b190                	.2byte	0xb190
   1b19a:	0001                	.2byte	0x1
   1b19c:	b190                	.2byte	0xb190
   1b19e:	0001                	.2byte	0x1
   1b1a0:	b198                	.2byte	0xb198
   1b1a2:	0001                	.2byte	0x1
   1b1a4:	b198                	.2byte	0xb198
   1b1a6:	0001                	.2byte	0x1
   1b1a8:	b1a0                	.2byte	0xb1a0
   1b1aa:	0001                	.2byte	0x1
   1b1ac:	b1a0                	.2byte	0xb1a0
   1b1ae:	0001                	.2byte	0x1
   1b1b0:	b1a8                	.2byte	0xb1a8
   1b1b2:	0001                	.2byte	0x1
   1b1b4:	b1a8                	.2byte	0xb1a8
   1b1b6:	0001                	.2byte	0x1

Disassembly of section .sdata:

0001b1b8 <_global_impure_ptr>:
   1b1b8:	a988                	.2byte	0xa988
   1b1ba:	0001                	.2byte	0x1

0001b1bc <IO_UARTTX>:
   1b1bc:	0004                	.2byte	0x4
   1b1be:	8000                	.2byte	0x8000

0001b1c0 <_ZL10heap_start>:
   1b1c0:	0000                	.2byte	0x0
   1b1c2:	0400                	.2byte	0x400

0001b1c4 <IO_SPICTL>:
   1b1c4:	0044                	.2byte	0x44
   1b1c6:	8000                	.2byte	0x8000

0001b1c8 <IO_SPIRXTX>:
   1b1c8:	0040                	.2byte	0x40
   1b1ca:	8000                	.2byte	0x8000

0001b1cc <GPUFIFO>:
   1b1cc:	0030                	.2byte	0x30
   1b1ce:	8000                	.2byte	0x8000

0001b1d0 <_impure_ptr>:
   1b1d0:	a988                	.2byte	0xa988
   1b1d2:	0001                	.2byte	0x1

0001b1d4 <__malloc_sbrk_base>:
   1b1d4:	ffff                	.2byte	0xffff
   1b1d6:	ffff                	.2byte	0xffff

0001b1d8 <__malloc_trim_threshold>:
   1b1d8:	0000                	.2byte	0x0
   1b1da:	0002                	.2byte	0x2

Disassembly of section .sbss:

0001b1dc <image>:
   1b1dc:	0000                	.2byte	0x0
	...

0001b1e0 <_ZL7CurrVol>:
	...

0001b1e2 <_ZL4Fsid>:
	...

0001b1e4 <__malloc_max_total_mem>:
   1b1e4:	0000                	.2byte	0x0
	...

0001b1e8 <__malloc_max_sbrked_mem>:
   1b1e8:	0000                	.2byte	0x0
	...

0001b1ec <__malloc_top_pad>:
   1b1ec:	0000                	.2byte	0x0
	...

0001b1f0 <errno>:
   1b1f0:	0000                	.2byte	0x0
	...

Disassembly of section .bss:

0001b1f4 <completed.1>:
   1b1f4:	0000                	.2byte	0x0
	...

0001b1f8 <object.0>:
	...

0001b210 <Fs>:
	...

0001b448 <_ZL6LfnBuf>:
	...

0001b648 <_ZL5FatFs>:
	...

0001b654 <_ZZL11njDecodeDHTvE6counts>:
	...

0001b664 <_ZL2nj>:
	...

0009b92c <__malloc_current_mallinfo>:
	...

Disassembly of section .comment:

00000000 <.comment>:
   0:	3a434347          	.4byte	0x3a434347
   4:	2820                	.2byte	0x2820
   6:	61653167          	.4byte	0x61653167
   a:	3739                	.2byte	0x3739
   c:	6538                	.2byte	0x6538
   e:	36363033          	.4byte	0x36363033
  12:	2029                	.2byte	0x2029
  14:	3231                	.2byte	0x3231
  16:	312e                	.2byte	0x312e
  18:	302e                	.2byte	0x302e
  1a:	4700                	.2byte	0x4700
  1c:	203a4343          	.4byte	0x203a4343
  20:	4728                	.2byte	0x4728
  22:	554e                	.2byte	0x554e
  24:	2029                	.2byte	0x2029
  26:	3231                	.2byte	0x3231
  28:	312e                	.2byte	0x312e
  2a:	302e                	.2byte	0x302e
	...

Disassembly of section .riscv.attributes:

00000000 <.riscv.attributes>:
   0:	2441                	.2byte	0x2441
   2:	0000                	.2byte	0x0
   4:	7200                	.2byte	0x7200
   6:	7369                	.2byte	0x7369
   8:	01007663          	bgeu	zero,a6,14 <exit-0x10080>
   c:	001a                	.2byte	0x1a
   e:	0000                	.2byte	0x0
  10:	1004                	.2byte	0x1004
  12:	7205                	.2byte	0x7205
  14:	3376                	.2byte	0x3376
  16:	6932                	.2byte	0x6932
  18:	7032                	.2byte	0x7032
  1a:	5f30                	.2byte	0x5f30
  1c:	326d                	.2byte	0x326d
  1e:	3070                	.2byte	0x3070
  20:	0800                	.2byte	0x800
  22:	0a01                	.2byte	0xa01
  24:	0b              	Address 0x0000000000000024 is out of bounds.


Disassembly of section .debug_aranges:

00000000 <.debug_aranges>:
   0:	001c                	.2byte	0x1c
   2:	0000                	.2byte	0x0
   4:	0002                	.2byte	0x2
   6:	0000                	.2byte	0x0
   8:	0000                	.2byte	0x0
   a:	0004                	.2byte	0x4
	...

Disassembly of section .debug_info:

00000000 <.debug_info>:
   0:	075d                	.2byte	0x75d
   2:	0000                	.2byte	0x0
   4:	0005                	.2byte	0x5
   6:	0401                	.2byte	0x401
   8:	0000                	.2byte	0x0
   a:	0000                	.2byte	0x0
   c:	1b11                	.2byte	0x1b11
   e:	0001                	.2byte	0x1
  10:	1d00                	.2byte	0x1d00
  12:	0000                	.2byte	0x0
  14:	0000                	.2byte	0x0
  16:	0038                	.2byte	0x38
	...
  24:	0000                	.2byte	0x0
  26:	0804                	.2byte	0x804
  28:	00004c07          	.4byte	0x4c07
  2c:	1200                	.2byte	0x1200
  2e:	0504                	.2byte	0x504
  30:	6e69                	.2byte	0x6e69
  32:	0074                	.2byte	0x74
  34:	0404                	.2byte	0x404
  36:	00005607          	.4byte	0x5607
  3a:	0400                	.2byte	0x400
  3c:	0508                	.2byte	0x508
  3e:	003e                	.2byte	0x3e
  40:	0000                	.2byte	0x0
  42:	1004                	.2byte	0x1004
  44:	f304                	.2byte	0xf304
  46:	0000                	.2byte	0x0
  48:	0400                	.2byte	0x400
  4a:	0601                	.2byte	0x601
  4c:	0074                	.2byte	0x74
  4e:	0000                	.2byte	0x0
  50:	0104                	.2byte	0x104
  52:	7208                	.2byte	0x7208
  54:	0000                	.2byte	0x0
  56:	0400                	.2byte	0x400
  58:	0502                	.2byte	0x502
  5a:	0020                	.2byte	0x20
  5c:	0000                	.2byte	0x0
  5e:	0204                	.2byte	0x204
  60:	0000a507          	.4byte	0xa507
  64:	0400                	.2byte	0x400
  66:	0504                	.2byte	0x504
  68:	00000043          	.4byte	0x43
  6c:	0404                	.2byte	0x404
  6e:	00005107          	.4byte	0x5107
  72:	0400                	.2byte	0x400
  74:	0801                	.2byte	0x801
  76:	0000007b          	.4byte	0x7b
  7a:	9406                	.2byte	0x9406
  7c:	0000                	.2byte	0x0
  7e:	7b00                	.2byte	0x7b00
  80:	5016                	.2byte	0x5016
  82:	0000                	.2byte	0x0
  84:	0900                	.2byte	0x900
  86:	007a                	.2byte	0x7a
  88:	0000                	.2byte	0x0
  8a:	0006                	.2byte	0x6
  8c:	0001                	.2byte	0x1
  8e:	8000                	.2byte	0x8000
  90:	00002d0f          	.4byte	0x2d0f
  94:	0600                	.2byte	0x600
  96:	00ff                	.2byte	0xff
  98:	0000                	.2byte	0x0
  9a:	1681                	.2byte	0x1681
  9c:	0034                	.2byte	0x34
  9e:	0000                	.2byte	0x0
  a0:	b906                	.2byte	0xb906
  a2:	0000                	.2byte	0x0
  a4:	8400                	.2byte	0x8400
  a6:	00003b0f          	.4byte	0x3b0f
  aa:	0600                	.2byte	0x600
  ac:	00b8                	.2byte	0xb8
  ae:	0000                	.2byte	0x0
  b0:	1685                	.2byte	0x1685
  b2:	0026                	.2byte	0x26
  b4:	0000                	.2byte	0x0
  b6:	0404                	.2byte	0x404
  b8:	1a04                	.2byte	0x1a04
  ba:	0000                	.2byte	0x0
  bc:	0400                	.2byte	0x400
  be:	0308                	.2byte	0x308
  c0:	0012                	.2byte	0x12
  c2:	0000                	.2byte	0x0
  c4:	0804                	.2byte	0x804
  c6:	f804                	.2byte	0xf804
  c8:	0000                	.2byte	0x0
  ca:	0400                	.2byte	0x400
  cc:	0310                	.2byte	0x310
  ce:	00ca                	.2byte	0xca
  d0:	0000                	.2byte	0x0
  d2:	2004                	.2byte	0x2004
  d4:	0000eb03          	.4byte	0xeb03
  d8:	1300                	.2byte	0x1300
  da:	009c                	.2byte	0x9c
  dc:	0000                	.2byte	0x0
  de:	0208                	.2byte	0x208
  e0:	01ed                	.2byte	0x1ed
  e2:	040a                	.2byte	0x40a
  e4:	0001                	.2byte	0x1
  e6:	1400                	.2byte	0x1400
  e8:	6f6c                	.2byte	0x6f6c
  ea:	ed020077          	.4byte	0xed020077
  ee:	1a01                	.2byte	0x1a01
  f0:	008a                	.2byte	0x8a
  f2:	0000                	.2byte	0x0
  f4:	1500                	.2byte	0x1500
  f6:	00000063          	beqz	zero,f6 <exit-0xff9e>
  fa:	ed02                	.2byte	0xed02
  fc:	1f01                	.2byte	0x1f01
  fe:	008a                	.2byte	0x8a
 100:	0000                	.2byte	0x0
 102:	0004                	.2byte	0x4
 104:	0816                	.2byte	0x816
 106:	f402                	.2byte	0xf402
 108:	0901                	.2byte	0x901
 10a:	0124                	.2byte	0x124
 10c:	0000                	.2byte	0x0
 10e:	730c                	.2byte	0x730c
 110:	f600                	.2byte	0xf600
 112:	1301                	.2byte	0x1301
 114:	00d9                	.2byte	0xd9
 116:	0000                	.2byte	0x0
 118:	6c0c                	.2byte	0x6c0c
 11a:	006c                	.2byte	0x6c
 11c:	a00a01f7          	.4byte	0xa00a01f7
 120:	0000                	.2byte	0x0
 122:	0000                	.2byte	0x0
 124:	00000017          	auipc	zero,0x0
 128:	0200                	.2byte	0x200
 12a:	01f8                	.2byte	0x1f8
 12c:	00010403          	lb	s0,0(sp)
 130:	0900                	.2byte	0x900
 132:	0124                	.2byte	0x124
 134:	0000                	.2byte	0x0
 136:	8518                	.2byte	0x8518
 138:	0000                	.2byte	0x0
 13a:	4600                	.2byte	0x4600
 13c:	0001                	.2byte	0x1
 13e:	1900                	.2byte	0x1900
 140:	0034                	.2byte	0x34
 142:	0000                	.2byte	0x0
 144:	00ff                	.2byte	0xff
 146:	3609                	.2byte	0x3609
 148:	0001                	.2byte	0x1
 14a:	1a00                	.2byte	0x1a00
 14c:	0068                	.2byte	0x68
 14e:	0000                	.2byte	0x0
 150:	0202                	.2byte	0x202
 152:	1602                	.2byte	0x1602
 154:	0146                	.2byte	0x146
 156:	0000                	.2byte	0x0
 158:	0000081b          	.4byte	0x81b
 15c:	0100                	.2byte	0x100
 15e:	0512                	.2byte	0x512
 160:	ab01                	.2byte	0xab01
	...
 16a:	0000                	.2byte	0x0
 16c:	0100                	.2byte	0x100
 16e:	2e9c                	.2byte	0x2e9c
 170:	0004                	.2byte	0x4
 172:	0d00                	.2byte	0xd00
 174:	006e                	.2byte	0x6e
 176:	ab14                	.2byte	0xab14
 178:	0000                	.2byte	0x0
 17a:	0c00                	.2byte	0xc00
 17c:	0000                	.2byte	0x0
 17e:	0d00                	.2byte	0xd00
 180:	0064                	.2byte	0x64
 182:	ab1f 0000 ed00      	.byte	0x1f, 0xab, 0x00, 0x00, 0x00, 0xed
 188:	0000                	.2byte	0x0
 18a:	1c00                	.2byte	0x1c00
 18c:	042e                	.2byte	0x42e
 18e:	0000                	.2byte	0x0
 190:	0000                	.2byte	0x0
 192:	0000                	.2byte	0x0
 194:	000c                	.2byte	0xc
 196:	0000                	.2byte	0x0
 198:	1401                	.2byte	0x1401
 19a:	0a05                	.2byte	0xa05
 19c:	500a                	.2byte	0x500a
 19e:	0004                	.2byte	0x4
 1a0:	7e00                	.2byte	0x7e00
 1a2:	0001                	.2byte	0x1
 1a4:	0a00                	.2byte	0xa00
 1a6:	0448                	.2byte	0x448
 1a8:	0000                	.2byte	0x0
 1aa:	00000197          	auipc	gp,0x0
 1ae:	400a                	.2byte	0x400a
 1b0:	0004                	.2byte	0x4
 1b2:	d800                	.2byte	0xd800
 1b4:	0001                	.2byte	0x1
 1b6:	1d00                	.2byte	0x1d00
 1b8:	0028                	.2byte	0x28
 1ba:	0000                	.2byte	0x0
 1bc:	5908                	.2byte	0x5908
 1be:	0004                	.2byte	0x4
 1c0:	0800                	.2byte	0x800
 1c2:	0464                	.2byte	0x464
 1c4:	0000                	.2byte	0x0
 1c6:	6f08                	.2byte	0x6f08
 1c8:	0004                	.2byte	0x4
 1ca:	0100                	.2byte	0x100
 1cc:	047a                	.2byte	0x47a
 1ce:	0000                	.2byte	0x0
 1d0:	02b9                	.2byte	0x2b9
 1d2:	0000                	.2byte	0x0
 1d4:	8501                	.2byte	0x8501
 1d6:	0004                	.2byte	0x4
 1d8:	2500                	.2byte	0x2500
 1da:	01000003          	lb	zero,16(zero) # 10 <exit-0x10084>
 1de:	0490                	.2byte	0x490
 1e0:	0000                	.2byte	0x0
 1e2:	035d                	.2byte	0x35d
 1e4:	0000                	.2byte	0x0
 1e6:	9b01                	.2byte	0x9b01
 1e8:	0004                	.2byte	0x4
 1ea:	0d00                	.2byte	0xd00
 1ec:	0004                	.2byte	0x4
 1ee:	0100                	.2byte	0x100
 1f0:	04a6                	.2byte	0x4a6
 1f2:	0000                	.2byte	0x0
 1f4:	0492                	.2byte	0x492
 1f6:	0000                	.2byte	0x0
 1f8:	b101                	.2byte	0xb101
 1fa:	0004                	.2byte	0x4
 1fc:	a900                	.2byte	0xa900
 1fe:	0004                	.2byte	0x4
 200:	0100                	.2byte	0x100
 202:	04bc                	.2byte	0x4bc
 204:	0000                	.2byte	0x0
 206:	000004cb          	.4byte	0x4cb
 20a:	c701                	.2byte	0xc701
 20c:	0004                	.2byte	0x4
 20e:	ee00                	.2byte	0xee00
 210:	0004                	.2byte	0x4
 212:	0100                	.2byte	0x100
 214:	04d1                	.2byte	0x4d1
 216:	0000                	.2byte	0x0
 218:	0505                	.2byte	0x505
 21a:	0000                	.2byte	0x0
 21c:	dc08                	.2byte	0xdc08
 21e:	0004                	.2byte	0x4
 220:	0700                	.2byte	0x700
 222:	000004e7          	jalr	s1,zero # 0 <exit-0x10094>
 226:	004d                	.2byte	0x4d
 228:	0000                	.2byte	0x0
 22a:	0241                	.2byte	0x241
 22c:	0000                	.2byte	0x0
 22e:	ec01                	.2byte	0xec01
 230:	0004                	.2byte	0x4
 232:	3d00                	.2byte	0x3d00
 234:	0005                	.2byte	0x5
 236:	0100                	.2byte	0x100
 238:	04f8                	.2byte	0x4f8
 23a:	0000                	.2byte	0x0
 23c:	0572                	.2byte	0x572
 23e:	0000                	.2byte	0x0
 240:	0e00                	.2byte	0xe00
 242:	0505                	.2byte	0x505
	...
 24c:	0000                	.2byte	0x0
 24e:	0292                	.2byte	0x292
 250:	0000                	.2byte	0x0
 252:	0a01                	.2byte	0xa01
 254:	0005                	.2byte	0x5
 256:	7e00                	.2byte	0x7e00
 258:	0005                	.2byte	0x5
 25a:	0100                	.2byte	0x100
 25c:	0516                	.2byte	0x516
 25e:	0000                	.2byte	0x0
 260:	058a                	.2byte	0x58a
 262:	0000                	.2byte	0x0
 264:	2201                	.2byte	0x2201
 266:	0005                	.2byte	0x5
 268:	9600                	.2byte	0x9600
 26a:	0005                	.2byte	0x5
 26c:	0100                	.2byte	0x100
 26e:	052e                	.2byte	0x52e
 270:	0000                	.2byte	0x0
 272:	05ad                	.2byte	0x5ad
 274:	0000                	.2byte	0x0
 276:	3a01                	.2byte	0x3a01
 278:	0005                	.2byte	0x5
 27a:	c400                	.2byte	0xc400
 27c:	0005                	.2byte	0x5
 27e:	0100                	.2byte	0x100
 280:	0546                	.2byte	0x546
 282:	0000                	.2byte	0x0
 284:	0608                	.2byte	0x608
 286:	0000                	.2byte	0x0
 288:	5201                	.2byte	0x5201
 28a:	0005                	.2byte	0x5
 28c:	2f00                	.2byte	0x2f00
 28e:	0006                	.2byte	0x6
 290:	0000                	.2byte	0x0
 292:	00066107          	.4byte	0x66107
 296:	6000                	.2byte	0x6000
 298:	0000                	.2byte	0x0
 29a:	5100                	.2byte	0x5100
 29c:	01000003          	lb	zero,16(zero) # 10 <exit-0x10084>
 2a0:	0662                	.2byte	0x662
 2a2:	0000                	.2byte	0x0
 2a4:	0656                	.2byte	0x656
 2a6:	0000                	.2byte	0x0
 2a8:	6d01                	.2byte	0x6d01
 2aa:	0006                	.2byte	0x6
 2ac:	6200                	.2byte	0x6200
 2ae:	0006                	.2byte	0x6
 2b0:	0700                	.2byte	0x700
 2b2:	0678                	.2byte	0x678
 2b4:	0000                	.2byte	0x0
 2b6:	00000073          	ecall
 2ba:	02fe                	.2byte	0x2fe
 2bc:	0000                	.2byte	0x0
 2be:	7d01                	.2byte	0x7d01
 2c0:	0006                	.2byte	0x6
 2c2:	9c00                	.2byte	0x9c00
 2c4:	0006                	.2byte	0x6
 2c6:	0100                	.2byte	0x100
 2c8:	0689                	.2byte	0x689
 2ca:	0000                	.2byte	0x0
 2cc:	06a8                	.2byte	0x6a8
 2ce:	0000                	.2byte	0x0
 2d0:	9501                	.2byte	0x9501
 2d2:	0006                	.2byte	0x6
 2d4:	c500                	.2byte	0xc500
 2d6:	0006                	.2byte	0x6
 2d8:	0100                	.2byte	0x100
 2da:	06a1                	.2byte	0x6a1
 2dc:	0000                	.2byte	0x0
 2de:	06dc                	.2byte	0x6dc
 2e0:	0000                	.2byte	0x0
 2e2:	ad01                	.2byte	0xad01
 2e4:	0006                	.2byte	0x6
 2e6:	f300                	.2byte	0xf300
 2e8:	0006                	.2byte	0x6
 2ea:	0100                	.2byte	0x100
 2ec:	06b9                	.2byte	0x6b9
 2ee:	0000                	.2byte	0x0
 2f0:	0725                	.2byte	0x725
 2f2:	0000                	.2byte	0x0
 2f4:	c501                	.2byte	0xc501
 2f6:	0006                	.2byte	0x6
 2f8:	5700                	.2byte	0x5700
 2fa:	00000007          	.4byte	0x7
 2fe:	0006d20f          	.4byte	0x6d20f
 302:	9800                	.2byte	0x9800
 304:	0000                	.2byte	0x0
 306:	0100                	.2byte	0x100
 308:	000006d7          	.4byte	0x6d7
 30c:	077e                	.2byte	0x77e
 30e:	0000                	.2byte	0x0
 310:	e301                	.2byte	0xe301
 312:	0006                	.2byte	0x6
 314:	8a00                	.2byte	0x8a00
 316:	01000007          	.4byte	0x1000007
 31a:	000006ef          	jal	a3,31a <exit-0xfd7a>
 31e:	000007c3          	.4byte	0x7c3
 322:	fb01                	.2byte	0xfb01
 324:	0006                	.2byte	0x6
 326:	cf00                	.2byte	0xcf00
 328:	01000007          	.4byte	0x1000007
 32c:	00000707          	.4byte	0x707
 330:	000007db          	.4byte	0x7db
 334:	1301                	.2byte	0x1301
 336:	27000007          	.4byte	0x27000007
 33a:	0008                	.2byte	0x8
 33c:	0100                	.2byte	0x100
 33e:	071f 0000 0833      	.byte	0x1f, 0x07, 0x00, 0x00, 0x33, 0x08
 344:	0000                	.2byte	0x0
 346:	2b01                	.2byte	0x2b01
 348:	5d000007          	.4byte	0x5d000007
 34c:	0008                	.2byte	0x8
 34e:	0000                	.2byte	0x0
 350:	0700                	.2byte	0x700
 352:	055f 0000 00c6      	.byte	0x5f, 0x05, 0x00, 0x00, 0xc6, 0x00
 358:	0000                	.2byte	0x0
 35a:	0371                	.2byte	0x371
 35c:	0000                	.2byte	0x0
 35e:	6401                	.2byte	0x6401
 360:	0005                	.2byte	0x5
 362:	6900                	.2byte	0x6900
 364:	0008                	.2byte	0x8
 366:	0100                	.2byte	0x100
 368:	0570                	.2byte	0x570
 36a:	0000                	.2byte	0x0
 36c:	0880                	.2byte	0x880
 36e:	0000                	.2byte	0x0
 370:	0e00                	.2byte	0xe00
 372:	000005d7          	.4byte	0x5d7
	...
 37e:	03c2                	.2byte	0x3c2
 380:	0000                	.2byte	0x0
 382:	dc01                	.2byte	0xdc01
 384:	0005                	.2byte	0x5
 386:	8c00                	.2byte	0x8c00
 388:	0008                	.2byte	0x8
 38a:	0100                	.2byte	0x100
 38c:	05e8                	.2byte	0x5e8
 38e:	0000                	.2byte	0x0
 390:	0898                	.2byte	0x898
 392:	0000                	.2byte	0x0
 394:	f401                	.2byte	0xf401
 396:	0005                	.2byte	0x5
 398:	a400                	.2byte	0xa400
 39a:	0008                	.2byte	0x8
 39c:	0100                	.2byte	0x100
 39e:	0600                	.2byte	0x600
 3a0:	0000                	.2byte	0x0
 3a2:	000008bb          	.4byte	0x8bb
 3a6:	0c01                	.2byte	0xc01
 3a8:	0006                	.2byte	0x6
 3aa:	d200                	.2byte	0xd200
 3ac:	0008                	.2byte	0x8
 3ae:	0100                	.2byte	0x100
 3b0:	0618                	.2byte	0x618
 3b2:	0000                	.2byte	0x0
 3b4:	0904                	.2byte	0x904
 3b6:	0000                	.2byte	0x0
 3b8:	2401                	.2byte	0x2401
 3ba:	0006                	.2byte	0x6
 3bc:	2b00                	.2byte	0x2b00
 3be:	0009                	.2byte	0x9
 3c0:	0000                	.2byte	0x0
 3c2:	00057d07          	.4byte	0x57d07
 3c6:	e200                	.2byte	0xe200
 3c8:	0000                	.2byte	0x0
 3ca:	0f00                	.2byte	0xf00
 3cc:	0004                	.2byte	0x4
 3ce:	0100                	.2byte	0x100
 3d0:	0582                	.2byte	0x582
 3d2:	0000                	.2byte	0x0
 3d4:	0952                	.2byte	0x952
 3d6:	0000                	.2byte	0x0
 3d8:	8e01                	.2byte	0x8e01
 3da:	0005                	.2byte	0x5
 3dc:	5e00                	.2byte	0x5e00
 3de:	0009                	.2byte	0x9
 3e0:	0100                	.2byte	0x100
 3e2:	059a                	.2byte	0x59a
 3e4:	0000                	.2byte	0x0
 3e6:	0000097b          	.4byte	0x97b
 3ea:	a601                	.2byte	0xa601
 3ec:	0005                	.2byte	0x5
 3ee:	9200                	.2byte	0x9200
 3f0:	0009                	.2byte	0x9
 3f2:	0100                	.2byte	0x100
 3f4:	05b2                	.2byte	0x5b2
 3f6:	0000                	.2byte	0x0
 3f8:	09a9                	.2byte	0x9a9
 3fa:	0000                	.2byte	0x0
 3fc:	be01                	.2byte	0xbe01
 3fe:	0005                	.2byte	0x5
 400:	db00                	.2byte	0xdb00
 402:	0009                	.2byte	0x9
 404:	0100                	.2byte	0x100
 406:	05ca                	.2byte	0x5ca
 408:	0000                	.2byte	0x0
 40a:	0a0d                	.2byte	0xa0d
 40c:	0000                	.2byte	0x0
 40e:	0f00                	.2byte	0xf00
 410:	0631                	.2byte	0x631
 412:	0000                	.2byte	0x0
 414:	00fe                	.2byte	0xfe
 416:	0000                	.2byte	0x0
 418:	3601                	.2byte	0x3601
 41a:	0006                	.2byte	0x6
 41c:	3400                	.2byte	0x3400
 41e:	000a                	.2byte	0xa
 420:	0100                	.2byte	0x100
 422:	0642                	.2byte	0x642
 424:	0000                	.2byte	0x0
 426:	0a40                	.2byte	0xa40
 428:	0000                	.2byte	0x0
 42a:	0000                	.2byte	0x0
 42c:	0000                	.2byte	0x0
 42e:	de1e                	.2byte	0xde1e
 430:	0000                	.2byte	0x0
 432:	0100                	.2byte	0x100
 434:	ab0103e3          	beq	sp,a6,fffffeda <__BSS_END__+0xfff64586>
 438:	0000                	.2byte	0x0
 43a:	0300                	.2byte	0x300
 43c:	075a                	.2byte	0x75a
 43e:	0000                	.2byte	0x0
 440:	17006e0b          	.4byte	0x17006e0b
 444:	000000ab          	.4byte	0xab
 448:	2200640b          	.4byte	0x2200640b
 44c:	000000ab          	.4byte	0xab
 450:	0070720b          	.4byte	0x70720b
 454:	5a2e                	.2byte	0x5a2e
 456:	03000007          	.4byte	0x3000007
 45a:	6e6e                	.2byte	0x6e6e
 45c:	e500                	.2byte	0xe500
 45e:	01311103          	lh	sp,19(sp)
 462:	0000                	.2byte	0x0
 464:	00646403          	.4byte	0x646403
 468:	03e6                	.2byte	0x3e6
 46a:	3111                	.2byte	0x3111
 46c:	0001                	.2byte	0x1
 46e:	0300                	.2byte	0x300
 470:	7272                	.2byte	0x7272
 472:	e700                	.2byte	0xe700
 474:	01240b03          	lb	s6,18(s0)
 478:	0000                	.2byte	0x0
 47a:	00306403          	.4byte	0x306403
 47e:	03e8                	.2byte	0x3e8
 480:	950a                	.2byte	0x950a
 482:	0000                	.2byte	0x0
 484:	0300                	.2byte	0x300
 486:	3164                	.2byte	0x3164
 488:	e800                	.2byte	0xe800
 48a:	00950e03          	lb	t3,9(a0)
 48e:	0000                	.2byte	0x0
 490:	00306e03          	.4byte	0x306e03
 494:	03e8                	.2byte	0x3e8
 496:	9512                	.2byte	0x9512
 498:	0000                	.2byte	0x0
 49a:	0300                	.2byte	0x300
 49c:	316e                	.2byte	0x316e
 49e:	e800                	.2byte	0xe800
 4a0:	00951603          	lh	a2,9(a0)
 4a4:	0000                	.2byte	0x0
 4a6:	00326e03          	.4byte	0x326e03
 4aa:	03e8                	.2byte	0x3e8
 4ac:	951a                	.2byte	0x951a
 4ae:	0000                	.2byte	0x0
 4b0:	0300                	.2byte	0x300
 4b2:	3071                	.2byte	0x3071
 4b4:	e900                	.2byte	0xe900
 4b6:	00950a03          	lb	s4,9(a0)
 4ba:	0000                	.2byte	0x0
 4bc:	00317103          	.4byte	0x317103
 4c0:	03e9                	.2byte	0x3e9
 4c2:	950e                	.2byte	0x950e
 4c4:	0000                	.2byte	0x0
 4c6:	0300                	.2byte	0x300
 4c8:	0062                	.2byte	0x62
 4ca:	03ea                	.2byte	0x3ea
 4cc:	950a                	.2byte	0x950a
 4ce:	0000                	.2byte	0x0
 4d0:	0300                	.2byte	0x300
 4d2:	6d62                	.2byte	0x6d62
 4d4:	ea00                	.2byte	0xea00
 4d6:	00950d03          	lb	s10,9(a0)
 4da:	0000                	.2byte	0x0
 4dc:	00777703          	.4byte	0x777703
 4e0:	311104b3          	.4byte	0x311104b3
 4e4:	0001                	.2byte	0x1
 4e6:	0500                	.2byte	0x500
 4e8:	0505                	.2byte	0x505
 4ea:	0000                	.2byte	0x0
 4ec:	d902                	.2byte	0xd902
 4ee:	0000                	.2byte	0x0
 4f0:	1a00                	.2byte	0x1a00
 4f2:	0404                	.2byte	0x404
 4f4:	0095                	.2byte	0x95
 4f6:	0000                	.2byte	0x0
 4f8:	615f5f03          	lhu	t5,1557(t5)
 4fc:	1a00                	.2byte	0x1a00
 4fe:	0404                	.2byte	0x404
 500:	0095                	.2byte	0x95
 502:	0000                	.2byte	0x0
 504:	0500                	.2byte	0x500
 506:	055f 0000 2f02      	.byte	0x5f, 0x05, 0x00, 0x00, 0x02, 0x2f
 50c:	0000                	.2byte	0x0
 50e:	2600                	.2byte	0x2600
 510:	0404                	.2byte	0x404
 512:	0095                	.2byte	0x95
 514:	0000                	.2byte	0x0
 516:	2a02                	.2byte	0x2a02
 518:	0000                	.2byte	0x0
 51a:	2600                	.2byte	0x2600
 51c:	0404                	.2byte	0x404
 51e:	0095                	.2byte	0x95
 520:	0000                	.2byte	0x0
 522:	c502                	.2byte	0xc502
 524:	0000                	.2byte	0x0
 526:	2600                	.2byte	0x2600
 528:	0404                	.2byte	0x404
 52a:	0095                	.2byte	0x95
 52c:	0000                	.2byte	0x0
 52e:	c002                	.2byte	0xc002
 530:	0000                	.2byte	0x0
 532:	2600                	.2byte	0x2600
 534:	0404                	.2byte	0x404
 536:	0095                	.2byte	0x95
 538:	0000                	.2byte	0x0
 53a:	0c02                	.2byte	0xc02
 53c:	0001                	.2byte	0x1
 53e:	2600                	.2byte	0x2600
 540:	0404                	.2byte	0x404
 542:	0095                	.2byte	0x95
 544:	0000                	.2byte	0x0
 546:	0702                	.2byte	0x702
 548:	0001                	.2byte	0x1
 54a:	2600                	.2byte	0x2600
 54c:	0404                	.2byte	0x404
 54e:	0095                	.2byte	0x95
 550:	0000                	.2byte	0x0
 552:	6d5f5f03          	lhu	t5,1749(t5)
 556:	2600                	.2byte	0x2600
 558:	0404                	.2byte	0x404
 55a:	0095                	.2byte	0x95
 55c:	0000                	.2byte	0x0
 55e:	0500                	.2byte	0x500
 560:	057d                	.2byte	0x57d
 562:	0000                	.2byte	0x0
 564:	d902                	.2byte	0xd902
 566:	0000                	.2byte	0x0
 568:	3200                	.2byte	0x3200
 56a:	0404                	.2byte	0x404
 56c:	0095                	.2byte	0x95
 56e:	0000                	.2byte	0x0
 570:	615f5f03          	lhu	t5,1557(t5)
 574:	3200                	.2byte	0x3200
 576:	0404                	.2byte	0x404
 578:	0095                	.2byte	0x95
 57a:	0000                	.2byte	0x0
 57c:	0500                	.2byte	0x500
 57e:	000005d7          	.4byte	0x5d7
 582:	2f02                	.2byte	0x2f02
 584:	0000                	.2byte	0x0
 586:	4b00                	.2byte	0x4b00
 588:	0804                	.2byte	0x804
 58a:	0095                	.2byte	0x95
 58c:	0000                	.2byte	0x0
 58e:	2a02                	.2byte	0x2a02
 590:	0000                	.2byte	0x0
 592:	4b00                	.2byte	0x4b00
 594:	0804                	.2byte	0x804
 596:	0095                	.2byte	0x95
 598:	0000                	.2byte	0x0
 59a:	c502                	.2byte	0xc502
 59c:	0000                	.2byte	0x0
 59e:	4b00                	.2byte	0x4b00
 5a0:	0804                	.2byte	0x804
 5a2:	0095                	.2byte	0x95
 5a4:	0000                	.2byte	0x0
 5a6:	c002                	.2byte	0xc002
 5a8:	0000                	.2byte	0x0
 5aa:	4b00                	.2byte	0x4b00
 5ac:	0804                	.2byte	0x804
 5ae:	0095                	.2byte	0x95
 5b0:	0000                	.2byte	0x0
 5b2:	0c02                	.2byte	0xc02
 5b4:	0001                	.2byte	0x1
 5b6:	4b00                	.2byte	0x4b00
 5b8:	0804                	.2byte	0x804
 5ba:	0095                	.2byte	0x95
 5bc:	0000                	.2byte	0x0
 5be:	0702                	.2byte	0x702
 5c0:	0001                	.2byte	0x1
 5c2:	4b00                	.2byte	0x4b00
 5c4:	0804                	.2byte	0x804
 5c6:	0095                	.2byte	0x95
 5c8:	0000                	.2byte	0x0
 5ca:	6d5f5f03          	lhu	t5,1749(t5)
 5ce:	4b00                	.2byte	0x4b00
 5d0:	0804                	.2byte	0x804
 5d2:	0095                	.2byte	0x95
 5d4:	0000                	.2byte	0x0
 5d6:	0500                	.2byte	0x500
 5d8:	0631                	.2byte	0x631
 5da:	0000                	.2byte	0x0
 5dc:	2f02                	.2byte	0x2f02
 5de:	0000                	.2byte	0x0
 5e0:	5000                	.2byte	0x5000
 5e2:	0404                	.2byte	0x404
 5e4:	0095                	.2byte	0x95
 5e6:	0000                	.2byte	0x0
 5e8:	2a02                	.2byte	0x2a02
 5ea:	0000                	.2byte	0x0
 5ec:	5000                	.2byte	0x5000
 5ee:	0404                	.2byte	0x404
 5f0:	0095                	.2byte	0x95
 5f2:	0000                	.2byte	0x0
 5f4:	c502                	.2byte	0xc502
 5f6:	0000                	.2byte	0x0
 5f8:	5000                	.2byte	0x5000
 5fa:	0404                	.2byte	0x404
 5fc:	0095                	.2byte	0x95
 5fe:	0000                	.2byte	0x0
 600:	c002                	.2byte	0xc002
 602:	0000                	.2byte	0x0
 604:	5000                	.2byte	0x5000
 606:	0404                	.2byte	0x404
 608:	0095                	.2byte	0x95
 60a:	0000                	.2byte	0x0
 60c:	0c02                	.2byte	0xc02
 60e:	0001                	.2byte	0x1
 610:	5000                	.2byte	0x5000
 612:	0404                	.2byte	0x404
 614:	0095                	.2byte	0x95
 616:	0000                	.2byte	0x0
 618:	0702                	.2byte	0x702
 61a:	0001                	.2byte	0x1
 61c:	5000                	.2byte	0x5000
 61e:	0404                	.2byte	0x404
 620:	0095                	.2byte	0x95
 622:	0000                	.2byte	0x0
 624:	6d5f5f03          	lhu	t5,1749(t5)
 628:	5000                	.2byte	0x5000
 62a:	0404                	.2byte	0x404
 62c:	0095                	.2byte	0x95
 62e:	0000                	.2byte	0x0
 630:	0500                	.2byte	0x500
 632:	0000064f          	.4byte	0x64f
 636:	d902                	.2byte	0xd902
 638:	0000                	.2byte	0x0
 63a:	7300                	.2byte	0x7300
 63c:	0404                	.2byte	0x404
 63e:	0095                	.2byte	0x95
 640:	0000                	.2byte	0x0
 642:	615f5f03          	lhu	t5,1557(t5)
 646:	7300                	.2byte	0x7300
 648:	0404                	.2byte	0x404
 64a:	0095                	.2byte	0x95
 64c:	0000                	.2byte	0x0
 64e:	0500                	.2byte	0x500
 650:	0661                	.2byte	0x661
 652:	0000                	.2byte	0x0
 654:	785f5f03          	lhu	t5,1925(t5)
 658:	8100                	.2byte	0x8100
 65a:	0504                	.2byte	0x504
 65c:	0095                	.2byte	0x95
 65e:	0000                	.2byte	0x0
 660:	1000                	.2byte	0x1000
 662:	00316d03          	.4byte	0x316d03
 666:	0491                	.2byte	0x491
 668:	0000950f          	.4byte	0x950f
 66c:	0300                	.2byte	0x300
 66e:	306d                	.2byte	0x306d
 670:	9100                	.2byte	0x9100
 672:	1304                	.2byte	0x1304
 674:	0095                	.2byte	0x95
 676:	0000                	.2byte	0x0
 678:	d205                	.2byte	0xd205
 67a:	0006                	.2byte	0x6
 67c:	0200                	.2byte	0x200
 67e:	0000002f          	.4byte	0x2f
 682:	049c                	.2byte	0x49c
 684:	9508                	.2byte	0x9508
 686:	0000                	.2byte	0x0
 688:	0200                	.2byte	0x200
 68a:	002a                	.2byte	0x2a
 68c:	0000                	.2byte	0x0
 68e:	049c                	.2byte	0x49c
 690:	9508                	.2byte	0x9508
 692:	0000                	.2byte	0x0
 694:	0200                	.2byte	0x200
 696:	00c5                	.2byte	0xc5
 698:	0000                	.2byte	0x0
 69a:	049c                	.2byte	0x49c
 69c:	9508                	.2byte	0x9508
 69e:	0000                	.2byte	0x0
 6a0:	0200                	.2byte	0x200
 6a2:	00c0                	.2byte	0xc0
 6a4:	0000                	.2byte	0x0
 6a6:	049c                	.2byte	0x49c
 6a8:	9508                	.2byte	0x9508
 6aa:	0000                	.2byte	0x0
 6ac:	0200                	.2byte	0x200
 6ae:	010c                	.2byte	0x10c
 6b0:	0000                	.2byte	0x0
 6b2:	049c                	.2byte	0x49c
 6b4:	9508                	.2byte	0x9508
 6b6:	0000                	.2byte	0x0
 6b8:	0200                	.2byte	0x200
 6ba:	00000107          	.4byte	0x107
 6be:	049c                	.2byte	0x49c
 6c0:	9508                	.2byte	0x9508
 6c2:	0000                	.2byte	0x0
 6c4:	0300                	.2byte	0x300
 6c6:	5f5f 006d 049c      	.byte	0x5f, 0x5f, 0x6d, 0x00, 0x9c, 0x04
 6cc:	9508                	.2byte	0x9508
 6ce:	0000                	.2byte	0x0
 6d0:	0000                	.2byte	0x0
 6d2:	3805                	.2byte	0x3805
 6d4:	02000007          	.4byte	0x2000007
 6d8:	0080                	.2byte	0x80
 6da:	0000                	.2byte	0x0
 6dc:	049d                	.2byte	0x49d
 6de:	9508                	.2byte	0x9508
 6e0:	0000                	.2byte	0x0
 6e2:	0200                	.2byte	0x200
 6e4:	0085                	.2byte	0x85
 6e6:	0000                	.2byte	0x0
 6e8:	049d                	.2byte	0x49d
 6ea:	9508                	.2byte	0x9508
 6ec:	0000                	.2byte	0x0
 6ee:	0200                	.2byte	0x200
 6f0:	008a                	.2byte	0x8a
 6f2:	0000                	.2byte	0x0
 6f4:	049d                	.2byte	0x49d
 6f6:	9508                	.2byte	0x9508
 6f8:	0000                	.2byte	0x0
 6fa:	0200                	.2byte	0x200
 6fc:	0000008f          	.4byte	0x8f
 700:	049d                	.2byte	0x49d
 702:	9508                	.2byte	0x9508
 704:	0000                	.2byte	0x0
 706:	0200                	.2byte	0x200
 708:	0116                	.2byte	0x116
 70a:	0000                	.2byte	0x0
 70c:	049d                	.2byte	0x49d
 70e:	9508                	.2byte	0x9508
 710:	0000                	.2byte	0x0
 712:	0200                	.2byte	0x200
 714:	0039                	.2byte	0x39
 716:	0000                	.2byte	0x0
 718:	049d                	.2byte	0x49d
 71a:	9508                	.2byte	0x9508
 71c:	0000                	.2byte	0x0
 71e:	0200                	.2byte	0x200
 720:	0111                	.2byte	0x111
 722:	0000                	.2byte	0x0
 724:	049d                	.2byte	0x49d
 726:	9508                	.2byte	0x9508
 728:	0000                	.2byte	0x0
 72a:	0200                	.2byte	0x200
 72c:	0034                	.2byte	0x34
 72e:	0000                	.2byte	0x0
 730:	049d                	.2byte	0x49d
 732:	9508                	.2byte	0x9508
 734:	0000                	.2byte	0x0
 736:	0000                	.2byte	0x0
 738:	4a05                	.2byte	0x4a05
 73a:	03000007          	.4byte	0x3000007
 73e:	5f5f 0078 04a2      	.byte	0x5f, 0x5f, 0x78, 0x00, 0xa2, 0x04
 744:	9505                	.2byte	0x9505
 746:	0000                	.2byte	0x0
 748:	0000                	.2byte	0x0
 74a:	0310                	.2byte	0x310
 74c:	5f5f 0078 04aa      	.byte	0x5f, 0x5f, 0x78, 0x00, 0xaa, 0x04
 752:	9505                	.2byte	0x9505
 754:	0000                	.2byte	0x0
 756:	0000                	.2byte	0x0
 758:	0000                	.2byte	0x0
 75a:	041f 00ab 0000      	.byte	0x1f, 0x04, 0xab, 0x00, 0x00, 0x00
	...

Disassembly of section .debug_abbrev:

00000000 <.debug_abbrev>:
   0:	3401                	.2byte	0x3401
   2:	3100                	.2byte	0x3100
   4:	00170213          	addi	tp,a4,1
   8:	0200                	.2byte	0x200
   a:	0034                	.2byte	0x34
   c:	213a0e03          	lb	t3,531(s4)
  10:	3b01                	.2byte	0x3b01
  12:	3905                	.2byte	0x3905
  14:	0013490b          	.4byte	0x13490b
  18:	0300                	.2byte	0x300
  1a:	0034                	.2byte	0x34
  1c:	213a0803          	lb	a6,531(s4)
  20:	3b01                	.2byte	0x3b01
  22:	3905                	.2byte	0x3905
  24:	0013490b          	.4byte	0x13490b
  28:	0400                	.2byte	0x400
  2a:	0024                	.2byte	0x24
  2c:	0b3e0b0b          	.4byte	0xb3e0b0b
  30:	00000e03          	lb	t3,0(zero) # 0 <exit-0x10094>
  34:	0b05                	.2byte	0xb05
  36:	0101                	.2byte	0x101
  38:	06000013          	li	zero,96
  3c:	0016                	.2byte	0x16
  3e:	213a0e03          	lb	t3,531(s4)
  42:	3b02                	.2byte	0x3b02
  44:	490b390b          	.4byte	0x490b390b
  48:	07000013          	li	zero,112
  4c:	1331010b          	.4byte	0x1331010b
  50:	1755                	.2byte	0x1755
  52:	1301                	.2byte	0x1301
  54:	0000                	.2byte	0x0
  56:	3408                	.2byte	0x3408
  58:	3100                	.2byte	0x3100
  5a:	09000013          	li	zero,144
  5e:	0026                	.2byte	0x26
  60:	1349                	.2byte	0x1349
  62:	0000                	.2byte	0x0
  64:	050a                	.2byte	0x50a
  66:	3100                	.2byte	0x3100
  68:	00170213          	addi	tp,a4,1
  6c:	0b00                	.2byte	0xb00
  6e:	0005                	.2byte	0x5
  70:	213a0803          	lb	a6,531(s4)
  74:	3b01                	.2byte	0x3b01
  76:	e321                	.2byte	0xe321
  78:	490b3907          	.4byte	0x490b3907
  7c:	0c000013          	li	zero,192
  80:	000d                	.2byte	0xd
  82:	213a0803          	lb	a6,531(s4)
  86:	3b02                	.2byte	0x3b02
  88:	3905                	.2byte	0x3905
  8a:	0013490b          	.4byte	0x13490b
  8e:	0d00                	.2byte	0xd00
  90:	0005                	.2byte	0x5
  92:	213a0803          	lb	a6,531(s4)
  96:	3b01                	.2byte	0x3b01
  98:	9221                	.2byte	0x9221
  9a:	390a                	.2byte	0x390a
  9c:	0213490b          	.4byte	0x213490b
  a0:	0e000017          	auipc	zero,0xe000
  a4:	1331010b          	.4byte	0x1331010b
  a8:	0111                	.2byte	0x111
  aa:	0612                	.2byte	0x612
  ac:	1301                	.2byte	0x1301
  ae:	0000                	.2byte	0x0
  b0:	31010b0f          	.4byte	0x31010b0f
  b4:	00175513          	srli	a0,a4,0x1
  b8:	1000                	.2byte	0x1000
  ba:	0000010b          	.4byte	0x10b
  be:	1111                	.2byte	0x1111
  c0:	2501                	.2byte	0x2501
  c2:	130e                	.2byte	0x130e
  c4:	1b1f030b          	.4byte	0x1b1f030b
  c8:	111f 1201 1006      	.byte	0x1f, 0x11, 0x01, 0x12, 0x06, 0x10
  ce:	12000017          	auipc	zero,0x12000
  d2:	0024                	.2byte	0x24
  d4:	0b3e0b0b          	.4byte	0xb3e0b0b
  d8:	00000803          	lb	a6,0(zero) # 0 <exit-0x10094>
  dc:	03011313          	slli	t1,sp,0x30
  e0:	0b0e                	.2byte	0xb0e
  e2:	3b0b3a0b          	.4byte	0x3b0b3a0b
  e6:	3905                	.2byte	0x3905
  e8:	0013010b          	.4byte	0x13010b
  ec:	1400                	.2byte	0x1400
  ee:	000d                	.2byte	0xd
  f0:	0b3a0803          	lb	a6,179(s4)
  f4:	0b39053b          	.4byte	0xb39053b
  f8:	1349                	.2byte	0x1349
  fa:	0b38                	.2byte	0xb38
  fc:	0000                	.2byte	0x0
  fe:	0d15                	.2byte	0xd15
 100:	0300                	.2byte	0x300
 102:	3a0e                	.2byte	0x3a0e
 104:	39053b0b          	.4byte	0x39053b0b
 108:	3813490b          	.4byte	0x3813490b
 10c:	1600000b          	.4byte	0x1600000b
 110:	0b0b0117          	auipc	sp,0xb0b0
 114:	0b3a                	.2byte	0xb3a
 116:	0b39053b          	.4byte	0xb39053b
 11a:	1301                	.2byte	0x1301
 11c:	0000                	.2byte	0x0
 11e:	03001617          	auipc	a2,0x3001
 122:	3a0e                	.2byte	0x3a0e
 124:	39053b0b          	.4byte	0x39053b0b
 128:	0013490b          	.4byte	0x13490b
 12c:	1800                	.2byte	0x1800
 12e:	0101                	.2byte	0x101
 130:	1349                	.2byte	0x1349
 132:	1301                	.2byte	0x1301
 134:	0000                	.2byte	0x0
 136:	2119                	.2byte	0x2119
 138:	4900                	.2byte	0x4900
 13a:	000b2f13          	slti	t5,s6,0
 13e:	1a00                	.2byte	0x1a00
 140:	0034                	.2byte	0x34
 142:	0b3a0e03          	lb	t3,179(s4)
 146:	0b39053b          	.4byte	0xb39053b
 14a:	1349                	.2byte	0x1349
 14c:	193c193f 2e1b0000 	.8byte	0x2e1b0000193c193f
 154:	3f01                	.2byte	0x3f01
 156:	0319                	.2byte	0x319
 158:	3a0e                	.2byte	0x3a0e
 15a:	39053b0b          	.4byte	0x39053b0b
 15e:	4919270b          	.4byte	0x4919270b
 162:	12011113          	.4byte	0x12011113
 166:	4006                	.2byte	0x4006
 168:	7a18                	.2byte	0x7a18
 16a:	0119                	.2byte	0x119
 16c:	1c000013          	li	zero,448
 170:	011d                	.2byte	0x11d
 172:	1331                	.2byte	0x1331
 174:	0152                	.2byte	0x152
 176:	1755                	.2byte	0x1755
 178:	0b58                	.2byte	0xb58
 17a:	0559                	.2byte	0x559
 17c:	00000b57          	.4byte	0xb57
 180:	0b1d                	.2byte	0xb1d
 182:	5501                	.2byte	0x5501
 184:	1e000017          	auipc	zero,0x1e000
 188:	012e                	.2byte	0x12e
 18a:	0b3a0e03          	lb	t3,179(s4)
 18e:	0b39053b          	.4byte	0xb39053b
 192:	13491927          	.4byte	0x13491927
 196:	0b20                	.2byte	0xb20
 198:	1301                	.2byte	0x1301
 19a:	0000                	.2byte	0x0
 19c:	0f1f 0b00 490b      	.byte	0x1f, 0x0f, 0x00, 0x0b, 0x0b, 0x49
 1a2:	00000013          	nop

Disassembly of section .debug_line:

00000000 <.debug_line>:
   0:	0000070f          	.4byte	0x70f
   4:	0005                	.2byte	0x5
   6:	0004                	.2byte	0x4
   8:	00000033          	add	zero,zero,zero
   c:	0101                	.2byte	0x101
   e:	fb01                	.2byte	0xfb01
  10:	0d0e                	.2byte	0xd0e
  12:	0100                	.2byte	0x100
  14:	0101                	.2byte	0x101
  16:	0001                	.2byte	0x1
  18:	0000                	.2byte	0x0
  1a:	0001                	.2byte	0x1
  1c:	0100                	.2byte	0x100
  1e:	0101                	.2byte	0x101
  20:	021f 0038 0000      	.byte	0x1f, 0x02, 0x38, 0x00, 0x00, 0x00
  26:	0000009b          	.4byte	0x9b
  2a:	0102                	.2byte	0x102
  2c:	021f 030f 002e      	.byte	0x1f, 0x02, 0x0f, 0x03, 0x2e, 0x00
  32:	0000                	.2byte	0x0
  34:	2e01                	.2byte	0x2e01
  36:	0000                	.2byte	0x0
  38:	0100                	.2byte	0x100
  3a:	00c9                	.2byte	0xc9
  3c:	0000                	.2byte	0x0
  3e:	0501                	.2byte	0x501
  40:	0001                	.2byte	0x1
  42:	0205                	.2byte	0x205
  44:	0000                	.2byte	0x0
  46:	0000                	.2byte	0x0
  48:	010a9203          	lh	tp,16(s5)
  4c:	0305                	.2byte	0x305
  4e:	00090103          	lb	sp,0(s2)
  52:	0100                	.2byte	0x100
  54:	097dd103          	lhu	sp,151(s11)
  58:	0000                	.2byte	0x0
  5a:	0301                	.2byte	0x301
  5c:	0901                	.2byte	0x901
  5e:	0000                	.2byte	0x0
  60:	0301                	.2byte	0x301
  62:	0901                	.2byte	0x901
  64:	0000                	.2byte	0x0
  66:	0301                	.2byte	0x301
  68:	0901                	.2byte	0x901
  6a:	0000                	.2byte	0x0
  6c:	0301                	.2byte	0x301
  6e:	0901                	.2byte	0x901
  70:	0000                	.2byte	0x0
  72:	0301                	.2byte	0x301
  74:	0901                	.2byte	0x901
  76:	0000                	.2byte	0x0
  78:	0301                	.2byte	0x301
  7a:	0902                	.2byte	0x902
  7c:	0000                	.2byte	0x0
  7e:	0501                	.2byte	0x501
  80:	0601                	.2byte	0x601
  82:	0902a703          	lw	a4,144(t0) # 1855c <strchr+0x4>
  86:	0000                	.2byte	0x0
  88:	0501                	.2byte	0x501
  8a:	0306                	.2byte	0x306
  8c:	7dd9                	.2byte	0x7dd9
  8e:	0009                	.2byte	0x9
  90:	0100                	.2byte	0x100
  92:	0305                	.2byte	0x305
  94:	0306                	.2byte	0x306
  96:	0901                	.2byte	0x901
  98:	0000                	.2byte	0x0
  9a:	0301                	.2byte	0x301
  9c:	0901                	.2byte	0x901
  9e:	0000                	.2byte	0x0
  a0:	0501                	.2byte	0x501
  a2:	0606                	.2byte	0x606
  a4:	00090003          	lb	zero,0(s2)
  a8:	0100                	.2byte	0x100
  aa:	0305                	.2byte	0x305
  ac:	0306                	.2byte	0x306
  ae:	0901                	.2byte	0x901
  b0:	0000                	.2byte	0x0
  b2:	0501                	.2byte	0x501
  b4:	0606                	.2byte	0x606
  b6:	00090003          	lb	zero,0(s2)
  ba:	0100                	.2byte	0x100
  bc:	0305                	.2byte	0x305
  be:	0306                	.2byte	0x306
  c0:	0925                	.2byte	0x925
  c2:	0000                	.2byte	0x0
  c4:	0501                	.2byte	0x501
  c6:	0606                	.2byte	0x606
  c8:	00090003          	lb	zero,0(s2)
  cc:	0100                	.2byte	0x100
  ce:	0705                	.2byte	0x705
  d0:	0306                	.2byte	0x306
  d2:	0902                	.2byte	0x902
  d4:	0000                	.2byte	0x0
  d6:	0501                	.2byte	0x501
  d8:	060a                	.2byte	0x60a
  da:	00090003          	lb	zero,0(s2)
  de:	0100                	.2byte	0x100
  e0:	0405                	.2byte	0x405
  e2:	0306                	.2byte	0x306
  e4:	0904                	.2byte	0x904
  e6:	0000                	.2byte	0x0
  e8:	0301                	.2byte	0x301
  ea:	0900                	.2byte	0x900
  ec:	0000                	.2byte	0x0
  ee:	0301                	.2byte	0x301
  f0:	0900                	.2byte	0x900
  f2:	0000                	.2byte	0x0
  f4:	0301                	.2byte	0x301
  f6:	0900                	.2byte	0x900
  f8:	0000                	.2byte	0x0
  fa:	0301                	.2byte	0x301
  fc:	0900                	.2byte	0x900
  fe:	0000                	.2byte	0x0
 100:	0301                	.2byte	0x301
 102:	0900                	.2byte	0x900
 104:	0000                	.2byte	0x0
 106:	0301                	.2byte	0x301
 108:	0900                	.2byte	0x900
 10a:	0000                	.2byte	0x0
 10c:	0301                	.2byte	0x301
 10e:	0902                	.2byte	0x902
 110:	0000                	.2byte	0x0
 112:	0501                	.2byte	0x501
 114:	00030607          	.4byte	0x30607
 118:	0009                	.2byte	0x9
 11a:	0100                	.2byte	0x100
 11c:	0805                	.2byte	0x805
 11e:	0306                	.2byte	0x306
 120:	0905                	.2byte	0x905
 122:	0000                	.2byte	0x0
 124:	0501                	.2byte	0x501
 126:	0611                	.2byte	0x611
 128:	00090103          	lb	sp,0(s2)
 12c:	0100                	.2byte	0x100
 12e:	1e05                	.2byte	0x1e05
 130:	00090003          	lb	zero,0(s2)
 134:	0100                	.2byte	0x100
 136:	0b05                	.2byte	0xb05
 138:	00097f03          	.4byte	0x97f03
 13c:	0100                	.2byte	0x100
 13e:	0805                	.2byte	0x805
 140:	0306                	.2byte	0x306
 142:	0901                	.2byte	0x901
 144:	0000                	.2byte	0x0
 146:	0501                	.2byte	0x501
 148:	0003060b          	.4byte	0x3060b
 14c:	0009                	.2byte	0x9
 14e:	0100                	.2byte	0x100
 150:	0805                	.2byte	0x805
 152:	0306                	.2byte	0x306
 154:	0901                	.2byte	0x901
 156:	0000                	.2byte	0x0
 158:	0501                	.2byte	0x501
 15a:	0003060b          	.4byte	0x3060b
 15e:	0009                	.2byte	0x9
 160:	0100                	.2byte	0x100
 162:	0405                	.2byte	0x405
 164:	0306                	.2byte	0x306
 166:	00000903          	lb	s2,0(zero) # 0 <exit-0x10094>
 16a:	0301                	.2byte	0x301
 16c:	0900                	.2byte	0x900
 16e:	0000                	.2byte	0x0
 170:	0301                	.2byte	0x301
 172:	0900                	.2byte	0x900
 174:	0000                	.2byte	0x0
 176:	0301                	.2byte	0x301
 178:	0900                	.2byte	0x900
 17a:	0000                	.2byte	0x0
 17c:	0301                	.2byte	0x301
 17e:	0900                	.2byte	0x900
 180:	0000                	.2byte	0x0
 182:	0301                	.2byte	0x301
 184:	0900                	.2byte	0x900
 186:	0000                	.2byte	0x0
 188:	0301                	.2byte	0x301
 18a:	0900                	.2byte	0x900
 18c:	0000                	.2byte	0x0
 18e:	0301                	.2byte	0x301
 190:	0900                	.2byte	0x900
 192:	0000                	.2byte	0x0
 194:	0301                	.2byte	0x301
 196:	0900                	.2byte	0x900
 198:	0000                	.2byte	0x0
 19a:	0301                	.2byte	0x301
 19c:	0900                	.2byte	0x900
 19e:	0000                	.2byte	0x0
 1a0:	0301                	.2byte	0x301
 1a2:	0900                	.2byte	0x900
 1a4:	0000                	.2byte	0x0
 1a6:	0301                	.2byte	0x301
 1a8:	0900                	.2byte	0x900
 1aa:	0000                	.2byte	0x0
 1ac:	0301                	.2byte	0x301
 1ae:	0900                	.2byte	0x900
 1b0:	0000                	.2byte	0x0
 1b2:	0301                	.2byte	0x301
 1b4:	0900                	.2byte	0x900
 1b6:	0000                	.2byte	0x0
 1b8:	0301                	.2byte	0x301
 1ba:	0900                	.2byte	0x900
 1bc:	0000                	.2byte	0x0
 1be:	0301                	.2byte	0x301
 1c0:	0900                	.2byte	0x900
 1c2:	0000                	.2byte	0x0
 1c4:	0301                	.2byte	0x301
 1c6:	0900                	.2byte	0x900
 1c8:	0000                	.2byte	0x0
 1ca:	0301                	.2byte	0x301
 1cc:	0900                	.2byte	0x900
 1ce:	0000                	.2byte	0x0
 1d0:	0301                	.2byte	0x301
 1d2:	0900                	.2byte	0x900
 1d4:	0000                	.2byte	0x0
 1d6:	0301                	.2byte	0x301
 1d8:	0900                	.2byte	0x900
 1da:	0000                	.2byte	0x0
 1dc:	0301                	.2byte	0x301
 1de:	0900                	.2byte	0x900
 1e0:	0000                	.2byte	0x0
 1e2:	0301                	.2byte	0x301
 1e4:	0900                	.2byte	0x900
 1e6:	0000                	.2byte	0x0
 1e8:	0301                	.2byte	0x301
 1ea:	0900                	.2byte	0x900
 1ec:	0000                	.2byte	0x0
 1ee:	0301                	.2byte	0x301
 1f0:	0900                	.2byte	0x900
 1f2:	0000                	.2byte	0x0
 1f4:	0301                	.2byte	0x301
 1f6:	0900                	.2byte	0x900
 1f8:	0000                	.2byte	0x0
 1fa:	0301                	.2byte	0x301
 1fc:	0900                	.2byte	0x900
 1fe:	0000                	.2byte	0x0
 200:	0301                	.2byte	0x301
 202:	0900                	.2byte	0x900
 204:	0000                	.2byte	0x0
 206:	0301                	.2byte	0x301
 208:	0901                	.2byte	0x901
 20a:	0000                	.2byte	0x0
 20c:	0501                	.2byte	0x501
 20e:	fe03060b          	.4byte	0xfe03060b
 212:	0900                	.2byte	0x900
 214:	0000                	.2byte	0x0
 216:	0501                	.2byte	0x501
 218:	0e030603          	lb	a2,224(t1)
 21c:	0009                	.2byte	0x9
 21e:	0100                	.2byte	0x100
 220:	00090103          	lb	sp,0(s2)
 224:	0100                	.2byte	0x100
 226:	0105                	.2byte	0x105
 228:	0306                	.2byte	0x306
 22a:	00e1                	.2byte	0xe1
 22c:	0009                	.2byte	0x9
 22e:	0100                	.2byte	0x100
 230:	0405                	.2byte	0x405
 232:	097e8503          	lb	a0,151(t4)
 236:	0000                	.2byte	0x0
 238:	0601                	.2byte	0x601
 23a:	00091503          	lh	a0,0(s2)
 23e:	0100                	.2byte	0x100
 240:	0306                	.2byte	0x306
 242:	00000903          	lb	s2,0(zero) # 0 <exit-0x10094>
 246:	0501                	.2byte	0x501
 248:	097d0307          	.4byte	0x97d0307
 24c:	0000                	.2byte	0x0
 24e:	0501                	.2byte	0x501
 250:	0604                	.2byte	0x604
 252:	00090303          	lb	t1,0(s2)
 256:	0100                	.2byte	0x100
 258:	00090003          	lb	zero,0(s2)
 25c:	0100                	.2byte	0x100
 25e:	00090003          	lb	zero,0(s2)
 262:	0100                	.2byte	0x100
 264:	00090003          	lb	zero,0(s2)
 268:	0100                	.2byte	0x100
 26a:	00090003          	lb	zero,0(s2)
 26e:	0100                	.2byte	0x100
 270:	00090003          	lb	zero,0(s2)
 274:	0100                	.2byte	0x100
 276:	00090003          	lb	zero,0(s2)
 27a:	0100                	.2byte	0x100
 27c:	00090203          	lb	tp,0(s2)
 280:	0100                	.2byte	0x100
 282:	0705                	.2byte	0x705
 284:	0306                	.2byte	0x306
 286:	0900                	.2byte	0x900
 288:	0000                	.2byte	0x0
 28a:	0501                	.2byte	0x501
 28c:	0608                	.2byte	0x608
 28e:	00090903          	lb	s2,0(s2)
 292:	0100                	.2byte	0x100
 294:	0b05                	.2byte	0xb05
 296:	0306                	.2byte	0x306
 298:	0900                	.2byte	0x900
 29a:	0000                	.2byte	0x0
 29c:	0501                	.2byte	0x501
 29e:	0608                	.2byte	0x608
 2a0:	00090103          	lb	sp,0(s2)
 2a4:	0100                	.2byte	0x100
 2a6:	0b05                	.2byte	0xb05
 2a8:	0306                	.2byte	0x306
 2aa:	0900                	.2byte	0x900
 2ac:	0000                	.2byte	0x0
 2ae:	0501                	.2byte	0x501
 2b0:	0608                	.2byte	0x608
 2b2:	00090d03          	lb	s10,0(s2)
 2b6:	0100                	.2byte	0x100
 2b8:	0405                	.2byte	0x405
 2ba:	00090503          	lb	a0,0(s2)
 2be:	0100                	.2byte	0x100
 2c0:	00090003          	lb	zero,0(s2)
 2c4:	0100                	.2byte	0x100
 2c6:	00090003          	lb	zero,0(s2)
 2ca:	0100                	.2byte	0x100
 2cc:	00090003          	lb	zero,0(s2)
 2d0:	0100                	.2byte	0x100
 2d2:	00090003          	lb	zero,0(s2)
 2d6:	0100                	.2byte	0x100
 2d8:	00090003          	lb	zero,0(s2)
 2dc:	0100                	.2byte	0x100
 2de:	00090003          	lb	zero,0(s2)
 2e2:	0100                	.2byte	0x100
 2e4:	00090003          	lb	zero,0(s2)
 2e8:	0100                	.2byte	0x100
 2ea:	00090003          	lb	zero,0(s2)
 2ee:	0100                	.2byte	0x100
 2f0:	00090003          	lb	zero,0(s2)
 2f4:	0100                	.2byte	0x100
 2f6:	00090003          	lb	zero,0(s2)
 2fa:	0100                	.2byte	0x100
 2fc:	00090003          	lb	zero,0(s2)
 300:	0100                	.2byte	0x100
 302:	00090003          	lb	zero,0(s2)
 306:	0100                	.2byte	0x100
 308:	00090003          	lb	zero,0(s2)
 30c:	0100                	.2byte	0x100
 30e:	00090003          	lb	zero,0(s2)
 312:	0100                	.2byte	0x100
 314:	00090003          	lb	zero,0(s2)
 318:	0100                	.2byte	0x100
 31a:	00090003          	lb	zero,0(s2)
 31e:	0100                	.2byte	0x100
 320:	00090003          	lb	zero,0(s2)
 324:	0100                	.2byte	0x100
 326:	00090003          	lb	zero,0(s2)
 32a:	0100                	.2byte	0x100
 32c:	00090003          	lb	zero,0(s2)
 330:	0100                	.2byte	0x100
 332:	00090003          	lb	zero,0(s2)
 336:	0100                	.2byte	0x100
 338:	00090003          	lb	zero,0(s2)
 33c:	0100                	.2byte	0x100
 33e:	00090003          	lb	zero,0(s2)
 342:	0100                	.2byte	0x100
 344:	00090003          	lb	zero,0(s2)
 348:	0100                	.2byte	0x100
 34a:	00090003          	lb	zero,0(s2)
 34e:	0100                	.2byte	0x100
 350:	00090003          	lb	zero,0(s2)
 354:	0100                	.2byte	0x100
 356:	0306                	.2byte	0x306
 358:	0962                	.2byte	0x962
 35a:	0000                	.2byte	0x0
 35c:	0501                	.2byte	0x501
 35e:	0608                	.2byte	0x608
 360:	00091203          	lh	tp,0(s2)
 364:	0100                	.2byte	0x100
 366:	00090203          	lb	tp,0(s2)
 36a:	0100                	.2byte	0x100
 36c:	0b05                	.2byte	0xb05
 36e:	0306                	.2byte	0x306
 370:	0900                	.2byte	0x900
 372:	0000                	.2byte	0x0
 374:	0501                	.2byte	0x501
 376:	0608                	.2byte	0x608
 378:	00090103          	lb	sp,0(s2)
 37c:	0100                	.2byte	0x100
 37e:	0b05                	.2byte	0xb05
 380:	0306                	.2byte	0x306
 382:	0900                	.2byte	0x900
 384:	0000                	.2byte	0x0
 386:	0501                	.2byte	0x501
 388:	0608                	.2byte	0x608
 38a:	00090103          	lb	sp,0(s2)
 38e:	0100                	.2byte	0x100
 390:	0306                	.2byte	0x306
 392:	00000903          	lb	s2,0(zero) # 0 <exit-0x10094>
 396:	0501                	.2byte	0x501
 398:	0311                	.2byte	0x311
 39a:	097d                	.2byte	0x97d
 39c:	0000                	.2byte	0x0
 39e:	0501                	.2byte	0x501
 3a0:	031e                	.2byte	0x31e
 3a2:	0900                	.2byte	0x900
 3a4:	0000                	.2byte	0x0
 3a6:	0501                	.2byte	0x501
 3a8:	0900030b          	.4byte	0x900030b
 3ac:	0000                	.2byte	0x0
 3ae:	0501                	.2byte	0x501
 3b0:	0608                	.2byte	0x608
 3b2:	00090103          	lb	sp,0(s2)
 3b6:	0100                	.2byte	0x100
 3b8:	0306                	.2byte	0x306
 3ba:	0902                	.2byte	0x902
 3bc:	0000                	.2byte	0x0
 3be:	0501                	.2byte	0x501
 3c0:	097e030b          	.4byte	0x97e030b
 3c4:	0000                	.2byte	0x0
 3c6:	0501                	.2byte	0x501
 3c8:	0608                	.2byte	0x608
 3ca:	00090203          	lb	tp,0(s2)
 3ce:	0100                	.2byte	0x100
 3d0:	00090003          	lb	zero,0(s2)
 3d4:	0100                	.2byte	0x100
 3d6:	00090003          	lb	zero,0(s2)
 3da:	0100                	.2byte	0x100
 3dc:	00090003          	lb	zero,0(s2)
 3e0:	0100                	.2byte	0x100
 3e2:	00090003          	lb	zero,0(s2)
 3e6:	0100                	.2byte	0x100
 3e8:	00090003          	lb	zero,0(s2)
 3ec:	0100                	.2byte	0x100
 3ee:	00090003          	lb	zero,0(s2)
 3f2:	0100                	.2byte	0x100
 3f4:	00090003          	lb	zero,0(s2)
 3f8:	0100                	.2byte	0x100
 3fa:	00090003          	lb	zero,0(s2)
 3fe:	0100                	.2byte	0x100
 400:	00090003          	lb	zero,0(s2)
 404:	0100                	.2byte	0x100
 406:	00090003          	lb	zero,0(s2)
 40a:	0100                	.2byte	0x100
 40c:	00090003          	lb	zero,0(s2)
 410:	0100                	.2byte	0x100
 412:	00090003          	lb	zero,0(s2)
 416:	0100                	.2byte	0x100
 418:	00090003          	lb	zero,0(s2)
 41c:	0100                	.2byte	0x100
 41e:	00090003          	lb	zero,0(s2)
 422:	0100                	.2byte	0x100
 424:	00090003          	lb	zero,0(s2)
 428:	0100                	.2byte	0x100
 42a:	00090003          	lb	zero,0(s2)
 42e:	0100                	.2byte	0x100
 430:	00090003          	lb	zero,0(s2)
 434:	0100                	.2byte	0x100
 436:	00090003          	lb	zero,0(s2)
 43a:	0100                	.2byte	0x100
 43c:	00090003          	lb	zero,0(s2)
 440:	0100                	.2byte	0x100
 442:	00090003          	lb	zero,0(s2)
 446:	0100                	.2byte	0x100
 448:	00090003          	lb	zero,0(s2)
 44c:	0100                	.2byte	0x100
 44e:	00090003          	lb	zero,0(s2)
 452:	0100                	.2byte	0x100
 454:	00090003          	lb	zero,0(s2)
 458:	0100                	.2byte	0x100
 45a:	00090003          	lb	zero,0(s2)
 45e:	0100                	.2byte	0x100
 460:	00090003          	lb	zero,0(s2)
 464:	0100                	.2byte	0x100
 466:	00090003          	lb	zero,0(s2)
 46a:	0100                	.2byte	0x100
 46c:	0705                	.2byte	0x705
 46e:	00091503          	lh	a0,0(s2)
 472:	0100                	.2byte	0x100
 474:	0a05                	.2byte	0xa05
 476:	0306                	.2byte	0x306
 478:	0900                	.2byte	0x900
 47a:	0000                	.2byte	0x0
 47c:	0501                	.2byte	0x501
 47e:	0604                	.2byte	0x604
 480:	00091303          	lh	t1,0(s2)
 484:	0100                	.2byte	0x100
 486:	00090003          	lb	zero,0(s2)
 48a:	0100                	.2byte	0x100
 48c:	00090003          	lb	zero,0(s2)
 490:	0100                	.2byte	0x100
 492:	00090003          	lb	zero,0(s2)
 496:	0100                	.2byte	0x100
 498:	00090003          	lb	zero,0(s2)
 49c:	0100                	.2byte	0x100
 49e:	00090003          	lb	zero,0(s2)
 4a2:	0100                	.2byte	0x100
 4a4:	00090003          	lb	zero,0(s2)
 4a8:	0100                	.2byte	0x100
 4aa:	00090103          	lb	sp,0(s2)
 4ae:	0100                	.2byte	0x100
 4b0:	0705                	.2byte	0x705
 4b2:	0306                	.2byte	0x306
 4b4:	0900                	.2byte	0x900
 4b6:	0000                	.2byte	0x0
 4b8:	0501                	.2byte	0x501
 4ba:	0608                	.2byte	0x608
 4bc:	00090a03          	lb	s4,0(s2)
 4c0:	0100                	.2byte	0x100
 4c2:	0306                	.2byte	0x306
 4c4:	0902                	.2byte	0x902
 4c6:	0000                	.2byte	0x0
 4c8:	0501                	.2byte	0x501
 4ca:	097e030b          	.4byte	0x97e030b
 4ce:	0000                	.2byte	0x0
 4d0:	0501                	.2byte	0x501
 4d2:	0314                	.2byte	0x314
 4d4:	0900                	.2byte	0x900
 4d6:	0000                	.2byte	0x0
 4d8:	0501                	.2byte	0x501
 4da:	0304                	.2byte	0x304
 4dc:	0975                	.2byte	0x975
 4de:	0000                	.2byte	0x0
 4e0:	0501                	.2byte	0x501
 4e2:	0608                	.2byte	0x608
 4e4:	00091e03          	lh	t3,0(s2)
 4e8:	0100                	.2byte	0x100
 4ea:	00090303          	lb	t1,0(s2)
 4ee:	0100                	.2byte	0x100
 4f0:	00090203          	lb	tp,0(s2)
 4f4:	0100                	.2byte	0x100
 4f6:	1e05                	.2byte	0x1e05
 4f8:	0306                	.2byte	0x306
 4fa:	0900                	.2byte	0x900
 4fc:	0000                	.2byte	0x0
 4fe:	0501                	.2byte	0x501
 500:	0311                	.2byte	0x311
 502:	0900                	.2byte	0x900
 504:	0000                	.2byte	0x0
 506:	0501                	.2byte	0x501
 508:	0900030b          	.4byte	0x900030b
 50c:	0000                	.2byte	0x0
 50e:	0501                	.2byte	0x501
 510:	0608                	.2byte	0x608
 512:	00090103          	lb	sp,0(s2)
 516:	0100                	.2byte	0x100
 518:	0b05                	.2byte	0xb05
 51a:	0306                	.2byte	0x306
 51c:	0901                	.2byte	0x901
 51e:	0000                	.2byte	0x0
 520:	0501                	.2byte	0x501
 522:	0311                	.2byte	0x311
 524:	0901                	.2byte	0x901
 526:	0000                	.2byte	0x0
 528:	0501                	.2byte	0x501
 52a:	031e                	.2byte	0x31e
 52c:	0900                	.2byte	0x900
 52e:	0000                	.2byte	0x0
 530:	0501                	.2byte	0x501
 532:	0900030b          	.4byte	0x900030b
 536:	0000                	.2byte	0x0
 538:	0501                	.2byte	0x501
 53a:	0308                	.2byte	0x308
 53c:	00000903          	lb	s2,0(zero) # 0 <exit-0x10094>
 540:	0501                	.2byte	0x501
 542:	097b030b          	.4byte	0x97b030b
 546:	0000                	.2byte	0x0
 548:	0501                	.2byte	0x501
 54a:	0608                	.2byte	0x608
 54c:	00090103          	lb	sp,0(s2)
 550:	0100                	.2byte	0x100
 552:	00090103          	lb	sp,0(s2)
 556:	0100                	.2byte	0x100
 558:	00090103          	lb	sp,0(s2)
 55c:	0100                	.2byte	0x100
 55e:	00090203          	lb	tp,0(s2)
 562:	0100                	.2byte	0x100
 564:	00090003          	lb	zero,0(s2)
 568:	0100                	.2byte	0x100
 56a:	00090003          	lb	zero,0(s2)
 56e:	0100                	.2byte	0x100
 570:	00090003          	lb	zero,0(s2)
 574:	0100                	.2byte	0x100
 576:	00090003          	lb	zero,0(s2)
 57a:	0100                	.2byte	0x100
 57c:	00090003          	lb	zero,0(s2)
 580:	0100                	.2byte	0x100
 582:	00090003          	lb	zero,0(s2)
 586:	0100                	.2byte	0x100
 588:	00090003          	lb	zero,0(s2)
 58c:	0100                	.2byte	0x100
 58e:	00090003          	lb	zero,0(s2)
 592:	0100                	.2byte	0x100
 594:	00090003          	lb	zero,0(s2)
 598:	0100                	.2byte	0x100
 59a:	00090003          	lb	zero,0(s2)
 59e:	0100                	.2byte	0x100
 5a0:	00090003          	lb	zero,0(s2)
 5a4:	0100                	.2byte	0x100
 5a6:	00090003          	lb	zero,0(s2)
 5aa:	0100                	.2byte	0x100
 5ac:	00090003          	lb	zero,0(s2)
 5b0:	0100                	.2byte	0x100
 5b2:	00090003          	lb	zero,0(s2)
 5b6:	0100                	.2byte	0x100
 5b8:	00090003          	lb	zero,0(s2)
 5bc:	0100                	.2byte	0x100
 5be:	00090003          	lb	zero,0(s2)
 5c2:	0100                	.2byte	0x100
 5c4:	00090003          	lb	zero,0(s2)
 5c8:	0100                	.2byte	0x100
 5ca:	00090003          	lb	zero,0(s2)
 5ce:	0100                	.2byte	0x100
 5d0:	00090003          	lb	zero,0(s2)
 5d4:	0100                	.2byte	0x100
 5d6:	00090003          	lb	zero,0(s2)
 5da:	0100                	.2byte	0x100
 5dc:	00090003          	lb	zero,0(s2)
 5e0:	0100                	.2byte	0x100
 5e2:	00090003          	lb	zero,0(s2)
 5e6:	0100                	.2byte	0x100
 5e8:	00090003          	lb	zero,0(s2)
 5ec:	0100                	.2byte	0x100
 5ee:	00090003          	lb	zero,0(s2)
 5f2:	0100                	.2byte	0x100
 5f4:	0306                	.2byte	0x306
 5f6:	0901                	.2byte	0x901
 5f8:	0000                	.2byte	0x0
 5fa:	0301                	.2byte	0x301
 5fc:	097f                	.2byte	0x97f
 5fe:	0000                	.2byte	0x0
 600:	0301                	.2byte	0x301
 602:	0901                	.2byte	0x901
 604:	0000                	.2byte	0x0
 606:	0301                	.2byte	0x301
 608:	097f                	.2byte	0x97f
 60a:	0000                	.2byte	0x0
 60c:	0601                	.2byte	0x601
 60e:	00090003          	lb	zero,0(s2)
 612:	0100                	.2byte	0x100
 614:	00090003          	lb	zero,0(s2)
 618:	0100                	.2byte	0x100
 61a:	00090003          	lb	zero,0(s2)
 61e:	0100                	.2byte	0x100
 620:	00090103          	lb	sp,0(s2)
 624:	0100                	.2byte	0x100
 626:	00090003          	lb	zero,0(s2)
 62a:	0100                	.2byte	0x100
 62c:	00090003          	lb	zero,0(s2)
 630:	0100                	.2byte	0x100
 632:	00090003          	lb	zero,0(s2)
 636:	0100                	.2byte	0x100
 638:	00090003          	lb	zero,0(s2)
 63c:	0100                	.2byte	0x100
 63e:	00090003          	lb	zero,0(s2)
 642:	0100                	.2byte	0x100
 644:	00090003          	lb	zero,0(s2)
 648:	0100                	.2byte	0x100
 64a:	00090003          	lb	zero,0(s2)
 64e:	0100                	.2byte	0x100
 650:	00090003          	lb	zero,0(s2)
 654:	0100                	.2byte	0x100
 656:	00090003          	lb	zero,0(s2)
 65a:	0100                	.2byte	0x100
 65c:	00090003          	lb	zero,0(s2)
 660:	0100                	.2byte	0x100
 662:	00090003          	lb	zero,0(s2)
 666:	0100                	.2byte	0x100
 668:	00090003          	lb	zero,0(s2)
 66c:	0100                	.2byte	0x100
 66e:	00090003          	lb	zero,0(s2)
 672:	0100                	.2byte	0x100
 674:	00090003          	lb	zero,0(s2)
 678:	0100                	.2byte	0x100
 67a:	00090003          	lb	zero,0(s2)
 67e:	0100                	.2byte	0x100
 680:	00090003          	lb	zero,0(s2)
 684:	0100                	.2byte	0x100
 686:	00090003          	lb	zero,0(s2)
 68a:	0100                	.2byte	0x100
 68c:	00090203          	lb	tp,0(s2)
 690:	0100                	.2byte	0x100
 692:	0b05                	.2byte	0xb05
 694:	0306                	.2byte	0x306
 696:	0900                	.2byte	0x900
 698:	0000                	.2byte	0x0
 69a:	0501                	.2byte	0x501
 69c:	0314                	.2byte	0x314
 69e:	0900                	.2byte	0x900
 6a0:	0000                	.2byte	0x0
 6a2:	0501                	.2byte	0x501
 6a4:	0308                	.2byte	0x308
 6a6:	097e                	.2byte	0x97e
 6a8:	0000                	.2byte	0x0
 6aa:	0501                	.2byte	0x501
 6ac:	097d030b          	.4byte	0x97d030b
 6b0:	0000                	.2byte	0x0
 6b2:	0501                	.2byte	0x501
 6b4:	0308                	.2byte	0x308
 6b6:	00000903          	lb	s2,0(zero) # 0 <exit-0x10094>
 6ba:	0501                	.2byte	0x501
 6bc:	0908030b          	.4byte	0x908030b
 6c0:	0000                	.2byte	0x0
 6c2:	0501                	.2byte	0x501
 6c4:	0321                	.2byte	0x321
 6c6:	097a                	.2byte	0x97a
 6c8:	0000                	.2byte	0x0
 6ca:	0501                	.2byte	0x501
 6cc:	0605                	.2byte	0x605
 6ce:	00090203          	lb	tp,0(s2)
 6d2:	0100                	.2byte	0x100
 6d4:	0705                	.2byte	0x705
 6d6:	0306                	.2byte	0x306
 6d8:	0900                	.2byte	0x900
 6da:	0000                	.2byte	0x0
 6dc:	0501                	.2byte	0x501
 6de:	0605                	.2byte	0x605
 6e0:	00090103          	lb	sp,0(s2)
 6e4:	0100                	.2byte	0x100
 6e6:	00090003          	lb	zero,0(s2)
 6ea:	0100                	.2byte	0x100
 6ec:	00090003          	lb	zero,0(s2)
 6f0:	0100                	.2byte	0x100
 6f2:	00090003          	lb	zero,0(s2)
 6f6:	0100                	.2byte	0x100
 6f8:	00090003          	lb	zero,0(s2)
 6fc:	0100                	.2byte	0x100
 6fe:	0705                	.2byte	0x705
 700:	0306                	.2byte	0x306
 702:	00000943          	.4byte	0x943
 706:	0301                	.2byte	0x301
 708:	097f                	.2byte	0x97f
 70a:	0000                	.2byte	0x0
 70c:	0901                	.2byte	0x901
 70e:	0000                	.2byte	0x0
 710:	0100                	.2byte	0x100
 712:	01              	Address 0x0000000000000712 is out of bounds.


Disassembly of section .debug_str:

00000000 <.debug_str>:
   0:	5744                	.2byte	0x5744
   2:	6e75                	.2byte	0x6e75
   4:	6f69                	.2byte	0x6f69
   6:	006e                	.2byte	0x6e
   8:	5f5f 6475 7669      	.byte	0x5f, 0x5f, 0x75, 0x64, 0x69, 0x76
   e:	6964                	.2byte	0x6964
  10:	6f630033          	.4byte	0x6f630033
  14:	706d                	.2byte	0x706d
  16:	656c                	.2byte	0x656c
  18:	2078                	.2byte	0x2078
  1a:	6c66                	.2byte	0x6c66
  1c:	0074616f          	jal	sp,46822 <__global_pointer$+0x2ae6a>
  20:	726f6873          	csrrsi	a6,mhpmevent6h,30
  24:	2074                	.2byte	0x2074
  26:	6e69                	.2byte	0x6e69
  28:	0074                	.2byte	0x74
  2a:	5f5f 3064 5f00      	.byte	0x5f, 0x5f, 0x64, 0x30, 0x00, 0x5f
  30:	645f 0031 5f5f      	.byte	0x5f, 0x64, 0x31, 0x00, 0x5f, 0x5f
  36:	6876                	.2byte	0x6876
  38:	5f00                	.2byte	0x5f00
  3a:	765f 006c 6f6c      	.byte	0x5f, 0x76, 0x6c, 0x00, 0x6c, 0x6f
  40:	676e                	.2byte	0x676e
  42:	6c20                	.2byte	0x6c20
  44:	20676e6f          	jal	t3,7624a <__global_pointer$+0x5a892>
  48:	6e69                	.2byte	0x6e69
  4a:	0074                	.2byte	0x74
  4c:	6f6c                	.2byte	0x6f6c
  4e:	676e                	.2byte	0x676e
  50:	6c20                	.2byte	0x6c20
  52:	20676e6f          	jal	t3,76258 <__global_pointer$+0x5a8a0>
  56:	6e75                	.2byte	0x6e75
  58:	6e676973          	csrrsi	s2,0x6e6,14
  5c:	6465                	.2byte	0x6465
  5e:	6920                	.2byte	0x6920
  60:	746e                	.2byte	0x746e
  62:	6800                	.2byte	0x6800
  64:	6769                	.2byte	0x6769
  66:	0068                	.2byte	0x68
  68:	5f5f 6c63 5f7a      	.byte	0x5f, 0x5f, 0x63, 0x6c, 0x7a, 0x5f
  6e:	6174                	.2byte	0x6174
  70:	0062                	.2byte	0x62
  72:	6e75                	.2byte	0x6e75
  74:	6e676973          	csrrsi	s2,0x6e6,14
  78:	6465                	.2byte	0x6465
  7a:	6320                	.2byte	0x6320
  7c:	6168                	.2byte	0x6168
  7e:	0072                	.2byte	0x72
  80:	5f5f 3078 5f00      	.byte	0x5f, 0x5f, 0x78, 0x30, 0x00, 0x5f
  86:	785f 0031 5f5f      	.byte	0x5f, 0x78, 0x31, 0x00, 0x5f, 0x5f
  8c:	3278                	.2byte	0x3278
  8e:	5f00                	.2byte	0x5f00
  90:	785f 0033 5155      	.byte	0x5f, 0x78, 0x33, 0x00, 0x55, 0x51
  96:	7449                	.2byte	0x7449
  98:	7079                	.2byte	0x7079
  9a:	0065                	.2byte	0x65
  9c:	5744                	.2byte	0x5744
  9e:	75727473          	csrrci	s0,0x757,4
  a2:	73007463          	bgeu	zero,a6,7ca <exit-0xf8ca>
  a6:	6f68                	.2byte	0x6f68
  a8:	7472                	.2byte	0x7472
  aa:	7520                	.2byte	0x7520
  ac:	736e                	.2byte	0x736e
  ae:	6769                	.2byte	0x6769
  b0:	656e                	.2byte	0x656e
  b2:	2064                	.2byte	0x2064
  b4:	6e69                	.2byte	0x6e69
  b6:	0074                	.2byte	0x74
  b8:	4455                	.2byte	0x4455
  ba:	7449                	.2byte	0x7449
  bc:	7079                	.2byte	0x7079
  be:	0065                	.2byte	0x65
  c0:	5f5f 3071 5f00      	.byte	0x5f, 0x5f, 0x71, 0x30, 0x00, 0x5f
  c6:	715f 0031 6f63      	.byte	0x5f, 0x71, 0x31, 0x00, 0x63, 0x6f
  cc:	706d                	.2byte	0x706d
  ce:	656c                	.2byte	0x656c
  d0:	2078                	.2byte	0x2078
  d2:	6f64                	.2byte	0x6f64
  d4:	6275                	.2byte	0x6275
  d6:	656c                	.2byte	0x656c
  d8:	5f00                	.2byte	0x5f00
  da:	785f 0072 5f5f      	.byte	0x5f, 0x78, 0x72, 0x00, 0x5f, 0x5f
  e0:	6475                	.2byte	0x6475
  e2:	7669                	.2byte	0x7669
  e4:	6f6d                	.2byte	0x6f6d
  e6:	6464                	.2byte	0x6464
  e8:	3469                	.2byte	0x3469
  ea:	6300                	.2byte	0x6300
  ec:	6c706d6f          	jal	s10,6fb2 <exit-0x90e2>
  f0:	7865                	.2byte	0x7865
  f2:	6c20                	.2byte	0x6c20
  f4:	20676e6f          	jal	t3,762fa <__global_pointer$+0x5a942>
  f8:	6f64                	.2byte	0x6f64
  fa:	6275                	.2byte	0x6275
  fc:	656c                	.2byte	0x656c
  fe:	5500                	.2byte	0x5500
 100:	79744953          	.4byte	0x79744953
 104:	6570                	.2byte	0x6570
 106:	5f00                	.2byte	0x5f00
 108:	725f 0030 5f5f      	.byte	0x5f, 0x72, 0x30, 0x00, 0x5f, 0x5f
 10e:	3172                	.2byte	0x3172
 110:	5f00                	.2byte	0x5f00
 112:	755f 0068 5f5f      	.byte	0x5f, 0x75, 0x68, 0x00, 0x5f, 0x5f
 118:	6c75                	.2byte	0x6c75
 11a:	4700                	.2byte	0x4700
 11c:	554e                	.2byte	0x554e
 11e:	4320                	.2byte	0x4320
 120:	3731                	.2byte	0x3731
 122:	3120                	.2byte	0x3120
 124:	2e32                	.2byte	0x2e32
 126:	2e31                	.2byte	0x2e31
 128:	2030                	.2byte	0x2030
 12a:	6d2d                	.2byte	0x6d2d
 12c:	646f6d63          	bltu	t5,t1,786 <exit-0xf90e>
 130:	6c65                	.2byte	0x6c65
 132:	6d3d                	.2byte	0x6d3d
 134:	6465                	.2byte	0x6465
 136:	6f6c                	.2byte	0x6f6c
 138:	6d2d2077          	.4byte	0x6d2d2077
 13c:	6261                	.2byte	0x6261
 13e:	3d69                	.2byte	0x3d69
 140:	6c69                	.2byte	0x6c69
 142:	3370                	.2byte	0x3370
 144:	2032                	.2byte	0x2032
 146:	6d2d                	.2byte	0x6d2d
 148:	646f6d63          	bltu	t5,t1,7a2 <exit-0xf8f2>
 14c:	6c65                	.2byte	0x6c65
 14e:	6d3d                	.2byte	0x6d3d
 150:	6465                	.2byte	0x6465
 152:	6f6c                	.2byte	0x6f6c
 154:	6d2d2077          	.4byte	0x6d2d2077
 158:	7574                	.2byte	0x7574
 15a:	656e                	.2byte	0x656e
 15c:	723d                	.2byte	0x723d
 15e:	656b636f          	jal	t1,b67b4 <__BSS_END__+0x1ae60>
 162:	2074                	.2byte	0x2074
 164:	6d2d                	.2byte	0x6d2d
 166:	7369                	.2byte	0x7369
 168:	2d61                	.2byte	0x2d61
 16a:	63657073          	csrci	0x636,10
 16e:	323d                	.2byte	0x323d
 170:	322e                	.2byte	0x322e
 172:	2d20                	.2byte	0x2d20
 174:	616d                	.2byte	0x616d
 176:	6372                	.2byte	0x6372
 178:	3d68                	.2byte	0x3d68
 17a:	7672                	.2byte	0x7672
 17c:	6d693233          	.4byte	0x6d693233
 180:	2d20                	.2byte	0x2d20
 182:	4f2d2067          	.4byte	0x4f2d2067
 186:	4f2d2073          	csrs	0x4f2,s10
 18a:	2032                	.2byte	0x2032
 18c:	4f2d                	.2byte	0x4f2d
 18e:	662d2073          	csrs	0x662,s10
 192:	7562                	.2byte	0x7562
 194:	6c69                	.2byte	0x6c69
 196:	6964                	.2byte	0x6964
 198:	676e                	.2byte	0x676e
 19a:	6c2d                	.2byte	0x6c2d
 19c:	6269                	.2byte	0x6269
 19e:	20636367          	.4byte	0x20636367
 1a2:	662d                	.2byte	0x662d
 1a4:	6f6e                	.2byte	0x6f6e
 1a6:	732d                	.2byte	0x732d
 1a8:	6174                	.2byte	0x6174
 1aa:	702d6b63          	bltu	s10,sp,8c0 <exit-0xf7d4>
 1ae:	6f72                	.2byte	0x6f72
 1b0:	6574                	.2byte	0x6574
 1b2:	726f7463          	bgeu	t5,t1,8da <exit-0xf7ba>
 1b6:	2d20                	.2byte	0x2d20
 1b8:	6166                	.2byte	0x6166
 1ba:	636e7973          	csrrci	s2,0x636,28
 1be:	7268                	.2byte	0x7268
 1c0:	756f6e6f          	jal	t3,f6916 <__BSS_END__+0x5afc2>
 1c4:	6e752d73          	csrrs	s10,0x6e7,a0
 1c8:	646e6977          	.4byte	0x646e6977
 1cc:	742d                	.2byte	0x742d
 1ce:	6261                	.2byte	0x6261
 1d0:	656c                	.2byte	0x656c
 1d2:	662d2073          	csrs	0x662,s10
 1d6:	6976                	.2byte	0x6976
 1d8:	69626973          	csrrsi	s2,0x696,4
 1dc:	696c                	.2byte	0x696c
 1de:	7974                	.2byte	0x7974
 1e0:	683d                	.2byte	0x683d
 1e2:	6469                	.2byte	0x6469
 1e4:	6564                	.2byte	0x6564
 1e6:	006e                	.2byte	0x6e

Disassembly of section .debug_line_str:

00000000 <.debug_line_str>:
   0:	6d6f682f          	.4byte	0x6d6f682f
   4:	2f65                	.2byte	0x2f65
   6:	6365                	.2byte	0x6365
   8:	6c69                	.2byte	0x6c69
   a:	7361                	.2byte	0x7361
   c:	6e75                	.2byte	0x6e75
   e:	7369722f          	.4byte	0x7369722f
  12:	672d7663          	bgeu	s10,s2,67e <exit-0xfa16>
  16:	756e                	.2byte	0x756e
  18:	742d                	.2byte	0x742d
  1a:	636c6f6f          	jal	t5,c6650 <__BSS_END__+0x2acfc>
  1e:	6168                	.2byte	0x6168
  20:	6e69                	.2byte	0x6e69
  22:	6363672f          	.4byte	0x6363672f
  26:	62696c2f          	.4byte	0x62696c2f
  2a:	2f636367          	.4byte	0x2f636367
  2e:	696c                	.2byte	0x696c
  30:	6762                	.2byte	0x6762
  32:	2e326363          	bltu	tp,gp,318 <exit-0xfd7c>
  36:	682f0063          	beq	t5,sp,6b6 <exit-0xf9de>
  3a:	2f656d6f          	jal	s10,56330 <__global_pointer$+0x3a978>
  3e:	6365                	.2byte	0x6365
  40:	6c69                	.2byte	0x6c69
  42:	7361                	.2byte	0x7361
  44:	6e75                	.2byte	0x6e75
  46:	7369722f          	.4byte	0x7369722f
  4a:	672d7663          	bgeu	s10,s2,6b6 <exit-0xf9de>
  4e:	756e                	.2byte	0x756e
  50:	742d                	.2byte	0x742d
  52:	636c6f6f          	jal	t5,c6688 <__BSS_END__+0x2ad34>
  56:	6168                	.2byte	0x6168
  58:	6e69                	.2byte	0x6e69
  5a:	6975622f          	.4byte	0x6975622f
  5e:	646c                	.2byte	0x646c
  60:	672d                	.2byte	0x672d
  62:	6e2d6363          	bltu	s10,sp,748 <exit-0xf94c>
  66:	7765                	.2byte	0x7765
  68:	696c                	.2byte	0x696c
  6a:	2d62                	.2byte	0x2d62
  6c:	67617473          	csrrci	s0,0x676,2
  70:	3265                	.2byte	0x3265
  72:	7369722f          	.4byte	0x7369722f
  76:	34367663          	bgeu	a2,gp,3c2 <exit-0xfcd2>
  7a:	752d                	.2byte	0x752d
  7c:	6b6e                	.2byte	0x6b6e
  7e:	6f6e                	.2byte	0x6f6e
  80:	652d6e77          	.4byte	0x652d6e77
  84:	666c                	.2byte	0x666c
  86:	3376722f          	.4byte	0x3376722f
  8a:	6932                	.2byte	0x6932
  8c:	2f6d                	.2byte	0x2f6d
  8e:	6c69                	.2byte	0x6c69
  90:	3370                	.2byte	0x3370
  92:	2f32                	.2byte	0x2f32
  94:	696c                	.2byte	0x696c
  96:	6762                	.2byte	0x6762
  98:	2f006363          	bltu	zero,a6,37e <exit-0xfd16>
  9c:	6f68                	.2byte	0x6f68
  9e:	656d                	.2byte	0x656d
  a0:	6963652f          	.4byte	0x6963652f
  a4:	616c                	.2byte	0x616c
  a6:	2f6e7573          	csrrci	a0,0x2f6,28
  aa:	6972                	.2byte	0x6972
  ac:	2d766373          	csrrsi	t1,0x2d7,12
  b0:	2d756e67          	.4byte	0x2d756e67
  b4:	6f74                	.2byte	0x6f74
  b6:	68636c6f          	jal	s8,3673c <__global_pointer$+0x1ad84>
  ba:	6961                	.2byte	0x6961
  bc:	2f6e                	.2byte	0x2f6e
  be:	2f636367          	.4byte	0x2f636367
  c2:	696c                	.2byte	0x696c
  c4:	6762                	.2byte	0x6762
  c6:	6c006363          	bltu	zero,zero,78c <exit-0xf908>
  ca:	6269                	.2byte	0x6269
  cc:	32636367          	.4byte	0x32636367
  d0:	682e                	.2byte	0x682e
	...

Disassembly of section .debug_loclists:

00000000 <.debug_loclists>:
   0:	0a48                	.2byte	0xa48
   2:	0000                	.2byte	0x0
   4:	0005                	.2byte	0x5
   6:	0004                	.2byte	0x4
   8:	0000                	.2byte	0x0
   a:	0000                	.2byte	0x0
   c:	00000007          	.4byte	0x7
  10:	0000                	.2byte	0x0
  12:	0000                	.2byte	0x0
  14:	0600                	.2byte	0x600
  16:	935a                	.2byte	0x935a
  18:	5b04                	.2byte	0x5b04
  1a:	00070493          	mv	s1,a4
  1e:	0000                	.2byte	0x0
  20:	0000                	.2byte	0x0
  22:	0000                	.2byte	0x0
  24:	0600                	.2byte	0x600
  26:	0aa503a3          	sb	a0,167(a0)
  2a:	9f26                	.2byte	0x9f26
  2c:	00000007          	.4byte	0x7
  30:	0000                	.2byte	0x0
  32:	0000                	.2byte	0x0
  34:	0600                	.2byte	0x600
  36:	935a                	.2byte	0x935a
  38:	5b04                	.2byte	0x5b04
  3a:	00070493          	mv	s1,a4
  3e:	0000                	.2byte	0x0
  40:	0000                	.2byte	0x0
  42:	0000                	.2byte	0x0
  44:	0600                	.2byte	0x600
  46:	0aa503a3          	sb	a0,167(a0)
  4a:	9f26                	.2byte	0x9f26
  4c:	00000007          	.4byte	0x7
  50:	0000                	.2byte	0x0
  52:	0000                	.2byte	0x0
  54:	0600                	.2byte	0x600
  56:	935a                	.2byte	0x935a
  58:	5b04                	.2byte	0x5b04
  5a:	00070493          	mv	s1,a4
  5e:	0000                	.2byte	0x0
  60:	0000                	.2byte	0x0
  62:	0000                	.2byte	0x0
  64:	0600                	.2byte	0x600
  66:	0aa503a3          	sb	a0,167(a0)
  6a:	9f26                	.2byte	0x9f26
  6c:	00000007          	.4byte	0x7
  70:	0000                	.2byte	0x0
  72:	0000                	.2byte	0x0
  74:	0600                	.2byte	0x600
  76:	935a                	.2byte	0x935a
  78:	5b04                	.2byte	0x5b04
  7a:	00070493          	mv	s1,a4
  7e:	0000                	.2byte	0x0
  80:	0000                	.2byte	0x0
  82:	0000                	.2byte	0x0
  84:	0600                	.2byte	0x600
  86:	0aa503a3          	sb	a0,167(a0)
  8a:	9f26                	.2byte	0x9f26
  8c:	00000007          	.4byte	0x7
  90:	0000                	.2byte	0x0
  92:	0000                	.2byte	0x0
  94:	0600                	.2byte	0x600
  96:	935a                	.2byte	0x935a
  98:	5b04                	.2byte	0x5b04
  9a:	00070493          	mv	s1,a4
  9e:	0000                	.2byte	0x0
  a0:	0000                	.2byte	0x0
  a2:	0000                	.2byte	0x0
  a4:	0600                	.2byte	0x600
  a6:	0aa503a3          	sb	a0,167(a0)
  aa:	9f26                	.2byte	0x9f26
  ac:	00000007          	.4byte	0x7
  b0:	0000                	.2byte	0x0
  b2:	0000                	.2byte	0x0
  b4:	0600                	.2byte	0x600
  b6:	935a                	.2byte	0x935a
  b8:	5b04                	.2byte	0x5b04
  ba:	00070493          	mv	s1,a4
  be:	0000                	.2byte	0x0
  c0:	0000                	.2byte	0x0
  c2:	0000                	.2byte	0x0
  c4:	0600                	.2byte	0x600
  c6:	0aa503a3          	sb	a0,167(a0)
  ca:	9f26                	.2byte	0x9f26
  cc:	00000007          	.4byte	0x7
  d0:	0000                	.2byte	0x0
  d2:	0000                	.2byte	0x0
  d4:	0600                	.2byte	0x600
  d6:	935a                	.2byte	0x935a
  d8:	5b04                	.2byte	0x5b04
  da:	00070493          	mv	s1,a4
  de:	0000                	.2byte	0x0
  e0:	0000                	.2byte	0x0
  e2:	0000                	.2byte	0x0
  e4:	0600                	.2byte	0x600
  e6:	0aa503a3          	sb	a0,167(a0)
  ea:	9f26                	.2byte	0x9f26
  ec:	0700                	.2byte	0x700
	...
  f6:	5c06                	.2byte	0x5c06
  f8:	935d0493          	addi	s1,s10,-1739
  fc:	0704                	.2byte	0x704
	...
 106:	a306                	.2byte	0xa306
 108:	260ca503          	lw	a0,608(s9)
 10c:	079f 0000 0000      	.byte	0x9f, 0x07, 0x00, 0x00, 0x00, 0x00
 112:	0000                	.2byte	0x0
 114:	0000                	.2byte	0x0
 116:	5c06                	.2byte	0x5c06
 118:	935d0493          	addi	s1,s10,-1739
 11c:	0704                	.2byte	0x704
	...
 126:	a306                	.2byte	0xa306
 128:	260ca503          	lw	a0,608(s9)
 12c:	079f 0000 0000      	.byte	0x9f, 0x07, 0x00, 0x00, 0x00, 0x00
 132:	0000                	.2byte	0x0
 134:	0000                	.2byte	0x0
 136:	5c06                	.2byte	0x5c06
 138:	935d0493          	addi	s1,s10,-1739
 13c:	0704                	.2byte	0x704
	...
 146:	a306                	.2byte	0xa306
 148:	260ca503          	lw	a0,608(s9)
 14c:	079f 0000 0000      	.byte	0x9f, 0x07, 0x00, 0x00, 0x00, 0x00
 152:	0000                	.2byte	0x0
 154:	0000                	.2byte	0x0
 156:	5c06                	.2byte	0x5c06
 158:	935d0493          	addi	s1,s10,-1739
 15c:	0704                	.2byte	0x704
	...
 166:	a306                	.2byte	0xa306
 168:	260ca503          	lw	a0,608(s9)
 16c:	079f 0000 0000      	.byte	0x9f, 0x07, 0x00, 0x00, 0x00, 0x00
 172:	0000                	.2byte	0x0
 174:	0000                	.2byte	0x0
 176:	5c06                	.2byte	0x5c06
 178:	935d0493          	addi	s1,s10,-1739
 17c:	0004                	.2byte	0x4
 17e:	00000007          	.4byte	0x7
 182:	0000                	.2byte	0x0
 184:	0000                	.2byte	0x0
 186:	0200                	.2byte	0x200
 188:	9f30                	.2byte	0x9f30
 18a:	00000007          	.4byte	0x7
 18e:	0000                	.2byte	0x0
 190:	0000                	.2byte	0x0
 192:	0200                	.2byte	0x200
 194:	9f30                	.2byte	0x9f30
 196:	0700                	.2byte	0x700
	...
 1a0:	5c06                	.2byte	0x5c06
 1a2:	935d0493          	addi	s1,s10,-1739
 1a6:	0704                	.2byte	0x704
	...
 1b0:	5c06                	.2byte	0x5c06
 1b2:	935d0493          	addi	s1,s10,-1739
 1b6:	0704                	.2byte	0x704
	...
 1c0:	5c06                	.2byte	0x5c06
 1c2:	935d0493          	addi	s1,s10,-1739
 1c6:	0704                	.2byte	0x704
	...
 1d0:	5c06                	.2byte	0x5c06
 1d2:	935d0493          	addi	s1,s10,-1739
 1d6:	0004                	.2byte	0x4
 1d8:	00000007          	.4byte	0x7
 1dc:	0000                	.2byte	0x0
 1de:	0000                	.2byte	0x0
 1e0:	0600                	.2byte	0x600
 1e2:	935a                	.2byte	0x935a
 1e4:	5b04                	.2byte	0x5b04
 1e6:	00070493          	mv	s1,a4
 1ea:	0000                	.2byte	0x0
 1ec:	0000                	.2byte	0x0
 1ee:	0000                	.2byte	0x0
 1f0:	0600                	.2byte	0x600
 1f2:	935a                	.2byte	0x935a
 1f4:	5604                	.2byte	0x5604
 1f6:	00070493          	mv	s1,a4
 1fa:	0000                	.2byte	0x0
 1fc:	0000                	.2byte	0x0
 1fe:	0000                	.2byte	0x0
 200:	0600                	.2byte	0x600
 202:	9360                	.2byte	0x9360
 204:	5604                	.2byte	0x5604
 206:	00070493          	mv	s1,a4
 20a:	0000                	.2byte	0x0
 20c:	0000                	.2byte	0x0
 20e:	0000                	.2byte	0x0
 210:	0600                	.2byte	0x600
 212:	9361                	.2byte	0x9361
 214:	5604                	.2byte	0x5604
 216:	00070493          	mv	s1,a4
 21a:	0000                	.2byte	0x0
 21c:	0000                	.2byte	0x0
 21e:	0000                	.2byte	0x0
 220:	0600                	.2byte	0x600
 222:	935a                	.2byte	0x935a
 224:	5604                	.2byte	0x5604
 226:	00070493          	mv	s1,a4
 22a:	0000                	.2byte	0x0
 22c:	0000                	.2byte	0x0
 22e:	0000                	.2byte	0x0
 230:	0600                	.2byte	0x600
 232:	9360                	.2byte	0x9360
 234:	5604                	.2byte	0x5604
 236:	00070493          	mv	s1,a4
 23a:	0000                	.2byte	0x0
 23c:	0000                	.2byte	0x0
 23e:	0000                	.2byte	0x0
 240:	0600                	.2byte	0x600
 242:	935a                	.2byte	0x935a
 244:	5604                	.2byte	0x5604
 246:	00070493          	mv	s1,a4
 24a:	0000                	.2byte	0x0
 24c:	0000                	.2byte	0x0
 24e:	0000                	.2byte	0x0
 250:	0600                	.2byte	0x600
 252:	935a                	.2byte	0x935a
 254:	5604                	.2byte	0x5604
 256:	00070493          	mv	s1,a4
 25a:	0000                	.2byte	0x0
 25c:	0000                	.2byte	0x0
 25e:	0000                	.2byte	0x0
 260:	0600                	.2byte	0x600
 262:	9360                	.2byte	0x9360
 264:	5604                	.2byte	0x5604
 266:	00070493          	mv	s1,a4
 26a:	0000                	.2byte	0x0
 26c:	0000                	.2byte	0x0
 26e:	0000                	.2byte	0x0
 270:	0600                	.2byte	0x600
 272:	935a                	.2byte	0x935a
 274:	5604                	.2byte	0x5604
 276:	00070493          	mv	s1,a4
 27a:	0000                	.2byte	0x0
 27c:	0000                	.2byte	0x0
 27e:	0000                	.2byte	0x0
 280:	0600                	.2byte	0x600
 282:	9360                	.2byte	0x9360
 284:	5604                	.2byte	0x5604
 286:	00070493          	mv	s1,a4
 28a:	0000                	.2byte	0x0
 28c:	0000                	.2byte	0x0
 28e:	0000                	.2byte	0x0
 290:	0600                	.2byte	0x600
 292:	935a                	.2byte	0x935a
 294:	5604                	.2byte	0x5604
 296:	00070493          	mv	s1,a4
 29a:	0000                	.2byte	0x0
 29c:	0000                	.2byte	0x0
 29e:	0000                	.2byte	0x0
 2a0:	0600                	.2byte	0x600
 2a2:	935a                	.2byte	0x935a
 2a4:	5604                	.2byte	0x5604
 2a6:	00070493          	mv	s1,a4
 2aa:	0000                	.2byte	0x0
 2ac:	0000                	.2byte	0x0
 2ae:	0000                	.2byte	0x0
 2b0:	0600                	.2byte	0x600
 2b2:	9360                	.2byte	0x9360
 2b4:	5604                	.2byte	0x5604
 2b6:	07000493          	li	s1,112
	...
 2c2:	5c01                	.2byte	0x5c01
 2c4:	00000007          	.4byte	0x7
 2c8:	0000                	.2byte	0x0
 2ca:	0000                	.2byte	0x0
 2cc:	0900                	.2byte	0x900
 2ce:	007c                	.2byte	0x7c
 2d0:	ff08007b          	.4byte	0xff08007b
 2d4:	241a                	.2byte	0x241a
 2d6:	079f 0000 0000      	.byte	0x9f, 0x07, 0x00, 0x00, 0x00, 0x00
 2dc:	0000                	.2byte	0x0
 2de:	0000                	.2byte	0x0
 2e0:	5e01                	.2byte	0x5e01
 2e2:	00000007          	.4byte	0x7
 2e6:	0000                	.2byte	0x0
 2e8:	0000                	.2byte	0x0
 2ea:	0100                	.2byte	0x100
 2ec:	075c                	.2byte	0x75c
	...
 2f6:	5e01                	.2byte	0x5e01
 2f8:	00000007          	.4byte	0x7
 2fc:	0000                	.2byte	0x0
 2fe:	0000                	.2byte	0x0
 300:	0100                	.2byte	0x100
 302:	075c                	.2byte	0x75c
	...
 30c:	5e01                	.2byte	0x5e01
 30e:	00000007          	.4byte	0x7
 312:	0000                	.2byte	0x0
 314:	0000                	.2byte	0x0
 316:	0100                	.2byte	0x100
 318:	075c                	.2byte	0x75c
	...
 322:	5c01                	.2byte	0x5c01
 324:	0700                	.2byte	0x700
	...
 32e:	5d01                	.2byte	0x5d01
 330:	00000007          	.4byte	0x7
 334:	0000                	.2byte	0x0
 336:	0000                	.2byte	0x0
 338:	0100                	.2byte	0x100
 33a:	075d                	.2byte	0x75d
	...
 344:	5d01                	.2byte	0x5d01
 346:	00000007          	.4byte	0x7
 34a:	0000                	.2byte	0x0
 34c:	0000                	.2byte	0x0
 34e:	0100                	.2byte	0x100
 350:	075d                	.2byte	0x75d
	...
 35a:	5d01                	.2byte	0x5d01
 35c:	0700                	.2byte	0x700
	...
 366:	5a01                	.2byte	0x5a01
 368:	00000007          	.4byte	0x7
 36c:	0000                	.2byte	0x0
 36e:	0000                	.2byte	0x0
 370:	0100                	.2byte	0x100
 372:	0760                	.2byte	0x760
	...
 37c:	5a01                	.2byte	0x5a01
 37e:	00000007          	.4byte	0x7
 382:	0000                	.2byte	0x0
 384:	0000                	.2byte	0x0
 386:	0100                	.2byte	0x100
 388:	0760                	.2byte	0x760
	...
 392:	5a01                	.2byte	0x5a01
 394:	00000007          	.4byte	0x7
 398:	0000                	.2byte	0x0
 39a:	0000                	.2byte	0x0
 39c:	0100                	.2byte	0x100
 39e:	0760                	.2byte	0x760
	...
 3a8:	5a01                	.2byte	0x5a01
 3aa:	00000007          	.4byte	0x7
 3ae:	0000                	.2byte	0x0
 3b0:	0000                	.2byte	0x0
 3b2:	0100                	.2byte	0x100
 3b4:	0760                	.2byte	0x760
	...
 3be:	5a01                	.2byte	0x5a01
 3c0:	00000007          	.4byte	0x7
 3c4:	0000                	.2byte	0x0
 3c6:	0000                	.2byte	0x0
 3c8:	0100                	.2byte	0x100
 3ca:	0760                	.2byte	0x760
	...
 3d4:	5a01                	.2byte	0x5a01
 3d6:	00000007          	.4byte	0x7
 3da:	0000                	.2byte	0x0
 3dc:	0000                	.2byte	0x0
 3de:	0600                	.2byte	0x600
 3e0:	007a                	.2byte	0x7a
 3e2:	9f24007b          	.4byte	0x9f24007b
 3e6:	00000007          	.4byte	0x7
 3ea:	0000                	.2byte	0x0
 3ec:	0000                	.2byte	0x0
 3ee:	0600                	.2byte	0x600
 3f0:	0081                	.2byte	0x81
 3f2:	9f24007b          	.4byte	0x9f24007b
 3f6:	00000007          	.4byte	0x7
 3fa:	0000                	.2byte	0x0
 3fc:	0000                	.2byte	0x0
 3fe:	0100                	.2byte	0x100
 400:	075a                	.2byte	0x75a
	...
 40a:	6001                	.2byte	0x6001
 40c:	0700                	.2byte	0x700
	...
 416:	5b01                	.2byte	0x5b01
 418:	00000007          	.4byte	0x7
 41c:	0000                	.2byte	0x0
 41e:	0000                	.2byte	0x0
 420:	0100                	.2byte	0x100
 422:	0756                	.2byte	0x756
	...
 42c:	5f01                	.2byte	0x5f01
 42e:	00000007          	.4byte	0x7
 432:	0000                	.2byte	0x0
 434:	0000                	.2byte	0x0
 436:	0100                	.2byte	0x100
 438:	0756                	.2byte	0x756
	...
 442:	5f01                	.2byte	0x5f01
 444:	00000007          	.4byte	0x7
 448:	0000                	.2byte	0x0
 44a:	0000                	.2byte	0x0
 44c:	0100                	.2byte	0x100
 44e:	0756                	.2byte	0x756
	...
 458:	5f01                	.2byte	0x5f01
 45a:	00000007          	.4byte	0x7
 45e:	0000                	.2byte	0x0
 460:	0000                	.2byte	0x0
 462:	0100                	.2byte	0x100
 464:	075f 0000 0000      	.byte	0x5f, 0x07, 0x00, 0x00, 0x00, 0x00
 46a:	0000                	.2byte	0x0
 46c:	0000                	.2byte	0x0
 46e:	5601                	.2byte	0x5601
 470:	00000007          	.4byte	0x7
 474:	0000                	.2byte	0x0
 476:	0000                	.2byte	0x0
 478:	0100                	.2byte	0x100
 47a:	075f 0000 0000      	.byte	0x5f, 0x07, 0x00, 0x00, 0x00, 0x00
 480:	0000                	.2byte	0x0
 482:	0000                	.2byte	0x0
 484:	5f01                	.2byte	0x5f01
 486:	00000007          	.4byte	0x7
 48a:	0000                	.2byte	0x0
 48c:	0000                	.2byte	0x0
 48e:	0100                	.2byte	0x100
 490:	0056                	.2byte	0x56
 492:	00000007          	.4byte	0x7
 496:	0000                	.2byte	0x0
 498:	0000                	.2byte	0x0
 49a:	0100                	.2byte	0x100
 49c:	075d                	.2byte	0x75d
	...
 4a6:	5e01                	.2byte	0x5e01
 4a8:	0700                	.2byte	0x700
	...
 4b2:	5a01                	.2byte	0x5a01
 4b4:	00000007          	.4byte	0x7
 4b8:	0000                	.2byte	0x0
 4ba:	0000                	.2byte	0x0
 4bc:	0100                	.2byte	0x100
 4be:	075a                	.2byte	0x75a
	...
 4c8:	5a01                	.2byte	0x5a01
 4ca:	0700                	.2byte	0x700
	...
 4d4:	3102                	.2byte	0x3102
 4d6:	079f 0000 0000      	.byte	0x9f, 0x07, 0x00, 0x00, 0x00, 0x00
 4dc:	0000                	.2byte	0x0
 4de:	0000                	.2byte	0x0
 4e0:	5b01                	.2byte	0x5b01
 4e2:	00000007          	.4byte	0x7
 4e6:	0000                	.2byte	0x0
 4e8:	0000                	.2byte	0x0
 4ea:	0100                	.2byte	0x100
 4ec:	0007005b          	.4byte	0x7005b
 4f0:	0000                	.2byte	0x0
 4f2:	0000                	.2byte	0x0
 4f4:	0000                	.2byte	0x0
 4f6:	0100                	.2byte	0x100
 4f8:	075f 0000 0000      	.byte	0x5f, 0x07, 0x00, 0x00, 0x00, 0x00
 4fe:	0000                	.2byte	0x0
 500:	0000                	.2byte	0x0
 502:	5f01                	.2byte	0x5f01
 504:	0700                	.2byte	0x700
	...
 50e:	5b01                	.2byte	0x5b01
 510:	00000007          	.4byte	0x7
 514:	0000                	.2byte	0x0
 516:	0000                	.2byte	0x0
 518:	0100                	.2byte	0x100
 51a:	0000075b          	.4byte	0x75b
 51e:	0000                	.2byte	0x0
 520:	0000                	.2byte	0x0
 522:	0000                	.2byte	0x0
 524:	5b01                	.2byte	0x5b01
 526:	00000007          	.4byte	0x7
 52a:	0000                	.2byte	0x0
 52c:	0000                	.2byte	0x0
 52e:	0100                	.2byte	0x100
 530:	0000075b          	.4byte	0x75b
 534:	0000                	.2byte	0x0
 536:	0000                	.2byte	0x0
 538:	0000                	.2byte	0x0
 53a:	5b01                	.2byte	0x5b01
 53c:	0700                	.2byte	0x700
	...
 546:	5c01                	.2byte	0x5c01
 548:	00000007          	.4byte	0x7
 54c:	0000                	.2byte	0x0
 54e:	0000                	.2byte	0x0
 550:	0900                	.2byte	0x900
 552:	007c                	.2byte	0x7c
 554:	ff08007b          	.4byte	0xff08007b
 558:	241a                	.2byte	0x241a
 55a:	079f 0000 0000      	.byte	0x9f, 0x07, 0x00, 0x00, 0x00, 0x00
 560:	0000                	.2byte	0x0
 562:	0000                	.2byte	0x0
 564:	5e01                	.2byte	0x5e01
 566:	00000007          	.4byte	0x7
 56a:	0000                	.2byte	0x0
 56c:	0000                	.2byte	0x0
 56e:	0100                	.2byte	0x100
 570:	005c                	.2byte	0x5c
 572:	00000007          	.4byte	0x7
 576:	0000                	.2byte	0x0
 578:	0000                	.2byte	0x0
 57a:	0100                	.2byte	0x100
 57c:	005d                	.2byte	0x5d
 57e:	00000007          	.4byte	0x7
 582:	0000                	.2byte	0x0
 584:	0000                	.2byte	0x0
 586:	0100                	.2byte	0x100
 588:	0007005b          	.4byte	0x7005b
 58c:	0000                	.2byte	0x0
 58e:	0000                	.2byte	0x0
 590:	0000                	.2byte	0x0
 592:	0100                	.2byte	0x100
 594:	005c                	.2byte	0x5c
 596:	00000007          	.4byte	0x7
 59a:	0000                	.2byte	0x0
 59c:	0000                	.2byte	0x0
 59e:	0100                	.2byte	0x100
 5a0:	0756                	.2byte	0x756
	...
 5aa:	5a01                	.2byte	0x5a01
 5ac:	0700                	.2byte	0x700
	...
 5b6:	6101                	.2byte	0x6101
 5b8:	00000007          	.4byte	0x7
 5bc:	0000                	.2byte	0x0
 5be:	0000                	.2byte	0x0
 5c0:	0100                	.2byte	0x100
 5c2:	005f 0007 0000      	.byte	0x5f, 0x00, 0x07, 0x00, 0x00, 0x00
 5c8:	0000                	.2byte	0x0
 5ca:	0000                	.2byte	0x0
 5cc:	0600                	.2byte	0x600
 5ce:	007f                	.2byte	0x7f
 5d0:	9f1d007b          	.4byte	0x9f1d007b
 5d4:	00000007          	.4byte	0x7
 5d8:	0000                	.2byte	0x0
 5da:	0000                	.2byte	0x0
 5dc:	0100                	.2byte	0x100
 5de:	075f 0000 0000      	.byte	0x5f, 0x07, 0x00, 0x00, 0x00, 0x00
 5e4:	0000                	.2byte	0x0
 5e6:	0000                	.2byte	0x0
 5e8:	5f01                	.2byte	0x5f01
 5ea:	00000007          	.4byte	0x7
 5ee:	0000                	.2byte	0x0
 5f0:	0000                	.2byte	0x0
 5f2:	0800                	.2byte	0x800
 5f4:	0080                	.2byte	0x80
 5f6:	2540                	.2byte	0x2540
 5f8:	007d                	.2byte	0x7d
 5fa:	9f21                	.2byte	0x9f21
 5fc:	00000007          	.4byte	0x7
 600:	0000                	.2byte	0x0
 602:	0000                	.2byte	0x0
 604:	0100                	.2byte	0x100
 606:	005f 0007 0000      	.byte	0x5f, 0x00, 0x07, 0x00, 0x00, 0x00
 60c:	0000                	.2byte	0x0
 60e:	0000                	.2byte	0x0
 610:	0600                	.2byte	0x600
 612:	007f                	.2byte	0x7f
 614:	9f1d007b          	.4byte	0x9f1d007b
 618:	00000007          	.4byte	0x7
 61c:	0000                	.2byte	0x0
 61e:	0000                	.2byte	0x0
 620:	0100                	.2byte	0x100
 622:	075f 0000 0000      	.byte	0x5f, 0x07, 0x00, 0x00, 0x00, 0x00
 628:	0000                	.2byte	0x0
 62a:	0000                	.2byte	0x0
 62c:	6001                	.2byte	0x6001
 62e:	0700                	.2byte	0x700
	...
 638:	6101                	.2byte	0x6101
 63a:	00000007          	.4byte	0x7
 63e:	0000                	.2byte	0x0
 640:	0000                	.2byte	0x0
 642:	0600                	.2byte	0x600
 644:	007c                	.2byte	0x7c
 646:	0076                	.2byte	0x76
 648:	9f1e                	.2byte	0x9f1e
 64a:	00000007          	.4byte	0x7
 64e:	0000                	.2byte	0x0
 650:	0000                	.2byte	0x0
 652:	0100                	.2byte	0x100
 654:	005d                	.2byte	0x5d
 656:	00000007          	.4byte	0x7
 65a:	0000                	.2byte	0x0
 65c:	0000                	.2byte	0x0
 65e:	0100                	.2byte	0x100
 660:	005d                	.2byte	0x5d
 662:	00000007          	.4byte	0x7
 666:	0000                	.2byte	0x0
 668:	0000                	.2byte	0x0
 66a:	1000                	.2byte	0x1000
 66c:	0076                	.2byte	0x76
 66e:	ff0a                	.2byte	0xff0a
 670:	1aff                	.2byte	0x1aff
 672:	007e                	.2byte	0x7e
 674:	ff0a                	.2byte	0xff0a
 676:	1aff                	.2byte	0x1aff
 678:	2440                	.2byte	0x2440
 67a:	9f22                	.2byte	0x9f22
 67c:	00000007          	.4byte	0x7
 680:	0000                	.2byte	0x0
 682:	0000                	.2byte	0x0
 684:	1500                	.2byte	0x1500
 686:	0076                	.2byte	0x76
 688:	ff0a                	.2byte	0xff0a
 68a:	1aff                	.2byte	0x1aff
 68c:	0076                	.2byte	0x76
 68e:	2540                	.2byte	0x2540
 690:	007c                	.2byte	0x7c
 692:	0a22                	.2byte	0xa22
 694:	ffff                	.2byte	0xffff
 696:	401a                	.2byte	0x401a
 698:	2224                	.2byte	0x2224
 69a:	009f 0007 0000      	.byte	0x9f, 0x00, 0x07, 0x00, 0x00, 0x00
 6a0:	0000                	.2byte	0x0
 6a2:	0000                	.2byte	0x0
 6a4:	0100                	.2byte	0x100
 6a6:	0056                	.2byte	0x56
 6a8:	00000007          	.4byte	0x7
 6ac:	0000                	.2byte	0x0
 6ae:	0000                	.2byte	0x0
 6b0:	0100                	.2byte	0x100
 6b2:	0760                	.2byte	0x760
	...
 6bc:	40007d07          	.4byte	0x40007d07
 6c0:	4024                	.2byte	0x4024
 6c2:	9f25                	.2byte	0x9f25
 6c4:	0700                	.2byte	0x700
	...
 6ce:	6d01                	.2byte	0x6d01
 6d0:	00000007          	.4byte	0x7
 6d4:	0000                	.2byte	0x0
 6d6:	0000                	.2byte	0x0
 6d8:	0100                	.2byte	0x100
 6da:	005a                	.2byte	0x5a
 6dc:	00000007          	.4byte	0x7
 6e0:	0000                	.2byte	0x0
 6e2:	0000                	.2byte	0x0
 6e4:	0100                	.2byte	0x100
 6e6:	076c                	.2byte	0x76c
	...
 6f0:	5e01                	.2byte	0x5e01
 6f2:	0700                	.2byte	0x700
	...
 6fc:	7e06                	.2byte	0x7e06
 6fe:	7600                	.2byte	0x7600
 700:	1d00                	.2byte	0x1d00
 702:	079f 0000 0000      	.byte	0x9f, 0x07, 0x00, 0x00, 0x00, 0x00
 708:	0000                	.2byte	0x0
 70a:	0000                	.2byte	0x0
 70c:	5e01                	.2byte	0x5e01
 70e:	00000007          	.4byte	0x7
 712:	0000                	.2byte	0x0
 714:	0000                	.2byte	0x0
 716:	0100                	.2byte	0x100
 718:	075e                	.2byte	0x75e
	...
 722:	5e01                	.2byte	0x5e01
 724:	0700                	.2byte	0x700
	...
 72e:	7e06                	.2byte	0x7e06
 730:	7600                	.2byte	0x7600
 732:	1d00                	.2byte	0x1d00
 734:	079f 0000 0000      	.byte	0x9f, 0x07, 0x00, 0x00, 0x00, 0x00
 73a:	0000                	.2byte	0x0
 73c:	0000                	.2byte	0x0
 73e:	5e01                	.2byte	0x5e01
 740:	00000007          	.4byte	0x7
 744:	0000                	.2byte	0x0
 746:	0000                	.2byte	0x0
 748:	0100                	.2byte	0x100
 74a:	075f 0000 0000      	.byte	0x5f, 0x07, 0x00, 0x00, 0x00, 0x00
 750:	0000                	.2byte	0x0
 752:	0000                	.2byte	0x0
 754:	5f01                	.2byte	0x5f01
 756:	0700                	.2byte	0x700
	...
 760:	6c01                	.2byte	0x6c01
 762:	00000007          	.4byte	0x7
 766:	0000                	.2byte	0x0
 768:	0000                	.2byte	0x0
 76a:	0600                	.2byte	0x600
 76c:	0080                	.2byte	0x80
 76e:	008d                	.2byte	0x8d
 770:	9f1e                	.2byte	0x9f1e
 772:	00000007          	.4byte	0x7
 776:	0000                	.2byte	0x0
 778:	0000                	.2byte	0x0
 77a:	0100                	.2byte	0x100
 77c:	0060                	.2byte	0x60
 77e:	00000007          	.4byte	0x7
 782:	0000                	.2byte	0x0
 784:	0000                	.2byte	0x0
 786:	0100                	.2byte	0x100
 788:	0056                	.2byte	0x56
 78a:	00000007          	.4byte	0x7
 78e:	0000                	.2byte	0x0
 790:	0000                	.2byte	0x0
 792:	0600                	.2byte	0x600
 794:	007e                	.2byte	0x7e
 796:	007c                	.2byte	0x7c
 798:	9f1e                	.2byte	0x9f1e
 79a:	00000007          	.4byte	0x7
 79e:	0000                	.2byte	0x0
 7a0:	0000                	.2byte	0x0
 7a2:	0100                	.2byte	0x100
 7a4:	075e                	.2byte	0x75e
	...
 7ae:	5e01                	.2byte	0x5e01
 7b0:	00000007          	.4byte	0x7
 7b4:	0000                	.2byte	0x0
 7b6:	0000                	.2byte	0x0
 7b8:	0800                	.2byte	0x800
 7ba:	0076                	.2byte	0x76
 7bc:	2540                	.2byte	0x2540
 7be:	007c                	.2byte	0x7c
 7c0:	9f22                	.2byte	0x9f22
 7c2:	0700                	.2byte	0x700
	...
 7cc:	5d01                	.2byte	0x5d01
 7ce:	0700                	.2byte	0x700
	...
 7d8:	6001                	.2byte	0x6001
 7da:	0700                	.2byte	0x700
	...
 7e4:	5e01                	.2byte	0x5e01
 7e6:	00000007          	.4byte	0x7
 7ea:	0000                	.2byte	0x0
 7ec:	0000                	.2byte	0x0
 7ee:	0600                	.2byte	0x600
 7f0:	7f8c                	.2byte	0x7f8c
 7f2:	007a                	.2byte	0x7a
 7f4:	9f1a                	.2byte	0x9f1a
 7f6:	00000007          	.4byte	0x7
 7fa:	0000                	.2byte	0x0
 7fc:	0000                	.2byte	0x0
 7fe:	0600                	.2byte	0x600
 800:	007a                	.2byte	0x7a
 802:	007f                	.2byte	0x7f
 804:	9f1a                	.2byte	0x9f1a
 806:	00000007          	.4byte	0x7
 80a:	0000                	.2byte	0x0
 80c:	0000                	.2byte	0x0
 80e:	0600                	.2byte	0x600
 810:	7f8c                	.2byte	0x7f8c
 812:	007a                	.2byte	0x7a
 814:	9f1a                	.2byte	0x9f1a
 816:	00000007          	.4byte	0x7
 81a:	0000                	.2byte	0x0
 81c:	0000                	.2byte	0x0
 81e:	0600                	.2byte	0x600
 820:	017a                	.2byte	0x17a
 822:	7f8c                	.2byte	0x7f8c
 824:	9f1a                	.2byte	0x9f1a
 826:	0700                	.2byte	0x700
	...
 830:	5d01                	.2byte	0x5d01
 832:	0700                	.2byte	0x700
	...
 83c:	6001                	.2byte	0x6001
 83e:	00000007          	.4byte	0x7
 842:	0000                	.2byte	0x0
 844:	0000                	.2byte	0x0
 846:	0500                	.2byte	0x500
 848:	007a                	.2byte	0x7a
 84a:	2540                	.2byte	0x2540
 84c:	079f 0000 0000      	.byte	0x9f, 0x07, 0x00, 0x00, 0x00, 0x00
 852:	0000                	.2byte	0x0
 854:	0000                	.2byte	0x0
 856:	7a05                	.2byte	0x7a05
 858:	4001                	.2byte	0x4001
 85a:	9f25                	.2byte	0x9f25
 85c:	0700                	.2byte	0x700
	...
 866:	5c01                	.2byte	0x5c01
 868:	0700                	.2byte	0x700
	...
 872:	5c01                	.2byte	0x5c01
 874:	00000007          	.4byte	0x7
 878:	0000                	.2byte	0x0
 87a:	0000                	.2byte	0x0
 87c:	0100                	.2byte	0x100
 87e:	005c                	.2byte	0x5c
 880:	00000007          	.4byte	0x7
 884:	0000                	.2byte	0x0
 886:	0000                	.2byte	0x0
 888:	0100                	.2byte	0x100
 88a:	005d                	.2byte	0x5d
 88c:	00000007          	.4byte	0x7
 890:	0000                	.2byte	0x0
 892:	0000                	.2byte	0x0
 894:	0100                	.2byte	0x100
 896:	0061                	.2byte	0x61
 898:	00000007          	.4byte	0x7
 89c:	0000                	.2byte	0x0
 89e:	0000                	.2byte	0x0
 8a0:	0100                	.2byte	0x100
 8a2:	005c                	.2byte	0x5c
 8a4:	00000007          	.4byte	0x7
 8a8:	0000                	.2byte	0x0
 8aa:	0000                	.2byte	0x0
 8ac:	0100                	.2byte	0x100
 8ae:	076c                	.2byte	0x76c
	...
 8b8:	5a01                	.2byte	0x5a01
 8ba:	0700                	.2byte	0x700
	...
 8c4:	5601                	.2byte	0x5601
 8c6:	00000007          	.4byte	0x7
 8ca:	0000                	.2byte	0x0
 8cc:	0000                	.2byte	0x0
 8ce:	0100                	.2byte	0x100
 8d0:	005f 0007 0000      	.byte	0x5f, 0x00, 0x07, 0x00, 0x00, 0x00
 8d6:	0000                	.2byte	0x0
 8d8:	0000                	.2byte	0x0
 8da:	0600                	.2byte	0x600
 8dc:	007f                	.2byte	0x7f
 8de:	0081                	.2byte	0x81
 8e0:	9f1d                	.2byte	0x9f1d
 8e2:	00000007          	.4byte	0x7
 8e6:	0000                	.2byte	0x0
 8e8:	0000                	.2byte	0x0
 8ea:	0100                	.2byte	0x100
 8ec:	075f 0000 0000      	.byte	0x5f, 0x07, 0x00, 0x00, 0x00, 0x00
 8f2:	0000                	.2byte	0x0
 8f4:	0000                	.2byte	0x0
 8f6:	5f01                	.2byte	0x5f01
 8f8:	00000007          	.4byte	0x7
 8fc:	0000                	.2byte	0x0
 8fe:	0000                	.2byte	0x0
 900:	0100                	.2byte	0x100
 902:	005f 0007 0000      	.byte	0x5f, 0x00, 0x07, 0x00, 0x00, 0x00
 908:	0000                	.2byte	0x0
 90a:	0000                	.2byte	0x0
 90c:	0600                	.2byte	0x600
 90e:	007f                	.2byte	0x7f
 910:	0081                	.2byte	0x81
 912:	9f1d                	.2byte	0x9f1d
 914:	00000007          	.4byte	0x7
 918:	0000                	.2byte	0x0
 91a:	0000                	.2byte	0x0
 91c:	0100                	.2byte	0x100
 91e:	075f 0000 0000      	.byte	0x5f, 0x07, 0x00, 0x00, 0x00, 0x00
 924:	0000                	.2byte	0x0
 926:	0000                	.2byte	0x0
 928:	6001                	.2byte	0x6001
 92a:	0700                	.2byte	0x700
	...
 934:	5601                	.2byte	0x5601
 936:	00000007          	.4byte	0x7
 93a:	0000                	.2byte	0x0
 93c:	0000                	.2byte	0x0
 93e:	0600                	.2byte	0x600
 940:	007c                	.2byte	0x7c
 942:	008c                	.2byte	0x8c
 944:	9f1e                	.2byte	0x9f1e
 946:	00000007          	.4byte	0x7
 94a:	0000                	.2byte	0x0
 94c:	0000                	.2byte	0x0
 94e:	0100                	.2byte	0x100
 950:	005d                	.2byte	0x5d
 952:	00000007          	.4byte	0x7
 956:	0000                	.2byte	0x0
 958:	0000                	.2byte	0x0
 95a:	0100                	.2byte	0x100
 95c:	005a                	.2byte	0x5a
 95e:	00000007          	.4byte	0x7
 962:	0000                	.2byte	0x0
 964:	0000                	.2byte	0x0
 966:	0100                	.2byte	0x100
 968:	075c                	.2byte	0x75c
	...
 972:	40007e07          	.4byte	0x40007e07
 976:	4024                	.2byte	0x4024
 978:	9f25                	.2byte	0x9f25
 97a:	0700                	.2byte	0x700
	...
 984:	5601                	.2byte	0x5601
 986:	00000007          	.4byte	0x7
 98a:	0000                	.2byte	0x0
 98c:	0000                	.2byte	0x0
 98e:	0100                	.2byte	0x100
 990:	0007005b          	.4byte	0x7005b
 994:	0000                	.2byte	0x0
 996:	0000                	.2byte	0x0
 998:	0000                	.2byte	0x0
 99a:	0100                	.2byte	0x100
 99c:	0761                	.2byte	0x761
	...
 9a6:	5d01                	.2byte	0x5d01
 9a8:	0700                	.2byte	0x700
	...
 9b2:	7d06                	.2byte	0x7d06
 9b4:	7a00                	.2byte	0x7a00
 9b6:	1d00                	.2byte	0x1d00
 9b8:	079f 0000 0000      	.byte	0x9f, 0x07, 0x00, 0x00, 0x00, 0x00
 9be:	0000                	.2byte	0x0
 9c0:	0000                	.2byte	0x0
 9c2:	5d01                	.2byte	0x5d01
 9c4:	00000007          	.4byte	0x7
 9c8:	0000                	.2byte	0x0
 9ca:	0000                	.2byte	0x0
 9cc:	0100                	.2byte	0x100
 9ce:	075d                	.2byte	0x75d
	...
 9d8:	5d01                	.2byte	0x5d01
 9da:	0700                	.2byte	0x700
	...
 9e4:	7d06                	.2byte	0x7d06
 9e6:	7a00                	.2byte	0x7a00
 9e8:	1d00                	.2byte	0x1d00
 9ea:	079f 0000 0000      	.byte	0x9f, 0x07, 0x00, 0x00, 0x00, 0x00
 9f0:	0000                	.2byte	0x0
 9f2:	0000                	.2byte	0x0
 9f4:	5d01                	.2byte	0x5d01
 9f6:	00000007          	.4byte	0x7
 9fa:	0000                	.2byte	0x0
 9fc:	0000                	.2byte	0x0
 9fe:	0100                	.2byte	0x100
 a00:	075f 0000 0000      	.byte	0x5f, 0x07, 0x00, 0x00, 0x00, 0x00
 a06:	0000                	.2byte	0x0
 a08:	0000                	.2byte	0x0
 a0a:	5f01                	.2byte	0x5f01
 a0c:	0700                	.2byte	0x700
	...
 a16:	6101                	.2byte	0x6101
 a18:	00000007          	.4byte	0x7
 a1c:	0000                	.2byte	0x0
 a1e:	0000                	.2byte	0x0
 a20:	0600                	.2byte	0x600
 a22:	007c                	.2byte	0x7c
 a24:	0076                	.2byte	0x76
 a26:	9f1e                	.2byte	0x9f1e
 a28:	00000007          	.4byte	0x7
 a2c:	0000                	.2byte	0x0
 a2e:	0000                	.2byte	0x0
 a30:	0100                	.2byte	0x100
 a32:	005c                	.2byte	0x5c
 a34:	00000007          	.4byte	0x7
 a38:	0000                	.2byte	0x0
 a3a:	0000                	.2byte	0x0
 a3c:	0100                	.2byte	0x100
 a3e:	005d                	.2byte	0x5d
 a40:	00000007          	.4byte	0x7
 a44:	0000                	.2byte	0x0
 a46:	0000                	.2byte	0x0
 a48:	0100                	.2byte	0x100
 a4a:	005e                	.2byte	0x5e

Disassembly of section .debug_rnglists:

00000000 <.debug_rnglists>:
   0:	010d                	.2byte	0x10d
   2:	0000                	.2byte	0x0
   4:	0005                	.2byte	0x5
   6:	0004                	.2byte	0x4
   8:	0000                	.2byte	0x0
   a:	0000                	.2byte	0x0
   c:	0006                	.2byte	0x6
   e:	0000                	.2byte	0x0
  10:	0000                	.2byte	0x0
  12:	0000                	.2byte	0x0
  14:	0600                	.2byte	0x600
	...
  1e:	0006                	.2byte	0x6
	...
  28:	0006                	.2byte	0x6
  2a:	0000                	.2byte	0x0
  2c:	0000                	.2byte	0x0
  2e:	0000                	.2byte	0x0
  30:	0600                	.2byte	0x600
	...
  3a:	0006                	.2byte	0x6
  3c:	0000                	.2byte	0x0
  3e:	0000                	.2byte	0x0
  40:	0000                	.2byte	0x0
  42:	0600                	.2byte	0x600
	...
  4c:	0600                	.2byte	0x600
	...
  56:	0006                	.2byte	0x6
	...
  60:	0006                	.2byte	0x6
  62:	0000                	.2byte	0x0
  64:	0000                	.2byte	0x0
  66:	0000                	.2byte	0x0
  68:	0600                	.2byte	0x600
	...
  72:	0600                	.2byte	0x600
	...
  7c:	0006                	.2byte	0x6
  7e:	0000                	.2byte	0x0
  80:	0000                	.2byte	0x0
  82:	0000                	.2byte	0x0
  84:	0600                	.2byte	0x600
	...
  8e:	0006                	.2byte	0x6
	...
  98:	0006                	.2byte	0x6
  9a:	0000                	.2byte	0x0
  9c:	0000                	.2byte	0x0
  9e:	0000                	.2byte	0x0
  a0:	0600                	.2byte	0x600
	...
  aa:	0006                	.2byte	0x6
  ac:	0000                	.2byte	0x0
  ae:	0000                	.2byte	0x0
  b0:	0000                	.2byte	0x0
  b2:	0600                	.2byte	0x600
	...
  bc:	0006                	.2byte	0x6
	...
  c6:	0006                	.2byte	0x6
  c8:	0000                	.2byte	0x0
  ca:	0000                	.2byte	0x0
  cc:	0000                	.2byte	0x0
  ce:	0600                	.2byte	0x600
	...
  d8:	0006                	.2byte	0x6
	...
  e2:	0006                	.2byte	0x6
  e4:	0000                	.2byte	0x0
  e6:	0000                	.2byte	0x0
  e8:	0000                	.2byte	0x0
  ea:	0600                	.2byte	0x600
	...
  f4:	0006                	.2byte	0x6
	...
  fe:	0006                	.2byte	0x6
 100:	0000                	.2byte	0x0
 102:	0000                	.2byte	0x0
 104:	0000                	.2byte	0x0
 106:	0600                	.2byte	0x600
	...
